; Listing generated by Microsoft (R) Optimizing Compiler Version 16.00.40219.01 

include listing.inc

INCLUDELIB MSVCRTD
INCLUDELIB OLDNAMES

PUBLIC	??_C@_0L@CIKKILBP@_codecs_hk?$AA@		; `string'
PUBLIC	??_C@_0BB@GMIHCDCK@big5hkscs_nonbmp?$AA@	; `string'
PUBLIC	??_C@_0O@ICALNNFN@big5hkscs_bmp?$AA@		; `string'
PUBLIC	??_C@_09CEJOMMDJ@big5hkscs?$AA@			; `string'
PUBLIC	??_C@_00CNPNBAHC@?$AA@				; `string'
PUBLIC	??_C@_08IAFCJBEI@getcodec?$AA@			; `string'
_BSS	SEGMENT
?cofunc@?1??getmultibytecodec@@9@9 DQ 01H DUP (?)	; `getmultibytecodec'::`2'::cofunc
big5_encmap DQ	01H DUP (?)
big5_decmap DQ	01H DUP (?)
?initialized@?1??big5hkscs_codec_init@@9@9 DD 01H DUP (?) ; `big5hkscs_codec_init'::`2'::initialized
_BSS	ENDS
;	COMDAT ??_C@_0L@CIKKILBP@_codecs_hk?$AA@
CONST	SEGMENT
??_C@_0L@CIKKILBP@_codecs_hk?$AA@ DB '_codecs_hk', 00H	; `string'
CONST	ENDS
;	COMDAT ??_C@_0BB@GMIHCDCK@big5hkscs_nonbmp?$AA@
CONST	SEGMENT
??_C@_0BB@GMIHCDCK@big5hkscs_nonbmp?$AA@ DB 'big5hkscs_nonbmp', 00H ; `string'
CONST	ENDS
;	COMDAT ??_C@_0O@ICALNNFN@big5hkscs_bmp?$AA@
CONST	SEGMENT
??_C@_0O@ICALNNFN@big5hkscs_bmp?$AA@ DB 'big5hkscs_bmp', 00H ; `string'
CONST	ENDS
;	COMDAT ??_C@_09CEJOMMDJ@big5hkscs?$AA@
CONST	SEGMENT
??_C@_09CEJOMMDJ@big5hkscs?$AA@ DB 'big5hkscs', 00H	; `string'
CONST	ENDS
CONST	SEGMENT
__big5hkscs_decmap DW 043f0H
	DW	04c32H
	DW	04603H
	DW	045a6H
	DW	04578H
	DW	07267H
	DW	04d77H
	DW	045b3H
	DW	07cb1H
	DW	04ce2H
	DW	07cc5H
	DW	03b95H
	DW	04736H
	DW	04744H
	DW	04c47H
	DW	04c40H
	DW	042bfH
	DW	03617H
	DW	07352H
	DW	06e8bH
	DW	070d2H
	DW	04c57H
	DW	0a351H
	DW	0474fH
	DW	045daH
	DW	04c85H
	DW	07c6cH
	DW	04d07H
	DW	04aa4H
	DW	046a1H
	DW	06b23H
	DW	07225H
	DW	05a54H
	DW	01a63H
	DW	03e06H
	DW	03f61H
	DW	0664dH
	DW	056fbH
	DW	0fffeH
	DW	07d95H
	DW	0591dH
	DW	08bb9H
	DW	03df4H
	DW	09734H
	DW	07befH
	DW	05bdbH
	DW	01d5eH
	DW	05aa4H
	DW	03625H
	DW	09eb0H
	DW	05ad1H
	DW	05bb7H
	DW	05cfcH
	DW	0676eH
	DW	08593H
	DW	09945H
	DW	07461H
	DW	0749dH
	DW	031c0H
	DW	031c1H
	DW	031c2H
	DW	031c3H
	DW	031c4H
	DW	010cH
	DW	031c5H
	DW	0d1H
	DW	0cdH
	DW	031c6H
	DW	031c7H
	DW	0cbH
	DW	01fe8H
	DW	031c8H
	DW	0caH
	DW	031c9H
	DW	031caH
	DW	031cbH
	DW	031ccH
	DW	010eH
	DW	031cdH
	DW	031ceH
	DW	0100H
	DW	0c1H
	DW	01cdH
	DW	0c0H
	DW	0112H
	DW	0c9H
	DW	011aH
	DW	0c8H
	DW	014cH
	DW	0d3H
	DW	01d1H
	DW	0d2H
	DW	0fffeH
	DW	01ebeH
	DW	0fffeH
	DW	01ec0H
	DW	0caH
	DW	0101H
	DW	0e1H
	DW	01ceH
	DW	0e0H
	DW	0251H
	DW	0113H
	DW	0e9H
	DW	011bH
	DW	0e8H
	DW	012bH
	DW	0edH
	DW	01d0H
	DW	0ecH
	DW	014dH
	DW	0f3H
	DW	01d2H
	DW	0f2H
	DW	016bH
	DW	0faH
	DW	01d4H
	DW	0f9H
	DW	01d6H
	DW	01d8H
	DW	01daH
	DW	0fffeH
	DW	0fffeH
	DW	0fffeH
	DW	0fffeH
	DW	0fffeH
	DW	0fffeH
	DW	0fffeH
	DW	0fffeH
	DW	0fffeH
	DW	0fffeH
	DW	0fffeH
	DW	0fffeH
	DW	0fffeH
	DW	0fffeH
	DW	0fffeH
	DW	0fffeH
	DW	0fffeH
	DW	0fffeH
	DW	0fffeH
	DW	0fffeH
	DW	0fffeH
	DW	0fffeH
	DW	0fffeH
	DW	0fffeH
	DW	0fffeH
	DW	0fffeH
	DW	0fffeH
	DW	0fffeH
	DW	0fffeH
	DW	0fffeH
	DW	0fffeH
	DW	0fffeH
	DW	0fffeH
	DW	0fffeH
	DW	01dcH
	DW	0fcH
	DW	0fffeH
	DW	01ebfH
	DW	0fffeH
	DW	01ec1H
	DW	0eaH
	DW	0261H
	DW	023daH
	DW	023dbH
	DW	0a3a9H
	DW	01145H
	DW	0fffeH
	DW	0650aH
	DW	0fffeH
	DW	0fffeH
	DW	04e3dH
	DW	06eddH
	DW	09d4eH
	DW	091dfH
	DW	0fffeH
	DW	0fffeH
	DW	07735H
	DW	06491H
	DW	04f1aH
	DW	04f28H
	DW	04fa8H
	DW	05156H
	DW	05174H
	DW	0519cH
	DW	051e4H
	DW	052a1H
	DW	052a8H
	DW	0533bH
	DW	0534eH
	DW	053d1H
	DW	053d8H
	DW	056e2H
	DW	058f0H
	DW	05904H
	DW	05907H
	DW	05932H
	DW	05934H
	DW	05b66H
	DW	05b9eH
	DW	05b9fH
	DW	05c9aH
	DW	05e86H
	DW	0603bH
	DW	06589H
	DW	067feH
	DW	06804H
	DW	06865H
	DW	06d4eH
	DW	070bcH
	DW	07535H
	DW	07ea4H
	DW	07eacH
	DW	07ebaH
	DW	07ec7H
	DW	07ecfH
	DW	07edfH
	DW	07f06H
	DW	07f37H
	DW	0827aH
	DW	082cfH
	DW	0836fH
	DW	089c6H
	DW	08bbeH
	DW	08be2H
	DW	08f66H
	DW	08f67H
	DW	08f6eH
	DW	0fffeH
	DW	0fffeH
	DW	0fffeH
	DW	0fffeH
	DW	0fffeH
	DW	0fffeH
	DW	0fffeH
	DW	0fffeH
	DW	0fffeH
	DW	0fffeH
	DW	0fffeH
	DW	0fffeH
	DW	0fffeH
	DW	0fffeH
	DW	0fffeH
	DW	0fffeH
	DW	0fffeH
	DW	0fffeH
	DW	0fffeH
	DW	0fffeH
	DW	0fffeH
	DW	0fffeH
	DW	0fffeH
	DW	0fffeH
	DW	0fffeH
	DW	0fffeH
	DW	0fffeH
	DW	0fffeH
	DW	0fffeH
	DW	0fffeH
	DW	0fffeH
	DW	0fffeH
	DW	0fffeH
	DW	0fffeH
	DW	07411H
	DW	07cfcH
	DW	07dcdH
	DW	06946H
	DW	07ac9H
	DW	05227H
	DW	0fffeH
	DW	0fffeH
	DW	0fffeH
	DW	0fffeH
	DW	0918cH
	DW	078b8H
	DW	0915eH
	DW	080bcH
	DW	0fffeH
	DW	08d0bH
	DW	080f6H
	DW	09e7H
	DW	0fffeH
	DW	0fffeH
	DW	0809fH
	DW	09ec7H
	DW	04ccdH
	DW	09dc9H
	DW	09e0cH
	DW	04c3eH
	DW	09df6H
	DW	0700eH
	DW	09e0aH
	DW	0a133H
	DW	035c1H
	DW	0fffeH
	DW	06e9aH
	DW	0823eH
	DW	07519H
	DW	0fffeH
	DW	04911H
	DW	09a6cH
	DW	09a8fH
	DW	09f99H
	DW	07987H
	DW	0846cH
	DW	01dcaH
	DW	05d0H
	DW	02ae6H
	DW	04e24H
	DW	04e81H
	DW	04e80H
	DW	04e87H
	DW	04ebfH
	DW	04eebH
	DW	04f37H
	DW	0344cH
	DW	04fbdH
	DW	03e48H
	DW	05003H
	DW	05088H
	DW	0347dH
	DW	03493H
	DW	034a5H
	DW	05186H
	DW	05905H
	DW	051dbH
	DW	051fcH
	DW	05205H
	DW	04e89H
	DW	05279H
	DW	05290H
	DW	05327H
	DW	035c7H
	DW	053a9H
	DW	03551H
	DW	053b0H
	DW	03553H
	DW	053c2H
	DW	05423H
	DW	0356dH
	DW	03572H
	DW	03681H
	DW	05493H
	DW	054a3H
	DW	054b4H
	DW	054b9H
	DW	054d0H
	DW	054efH
	DW	05518H
	DW	05523H
	DW	05528H
	DW	03598H
	DW	0553fH
	DW	035a5H
	DW	035bfH
	DW	055d7H
	DW	035c5H
	DW	07d84H
	DW	05525H
	DW	0fffeH
	DW	0c42H
	DW	0d15H
	DW	0512bH
	DW	05590H
	DW	02cc6H
	DW	039ecH
	DW	0341H
	DW	08e46H
	DW	04db8H
	DW	094e5H
	DW	04053H
	DW	080beH
	DW	0777aH
	DW	02c38H
	DW	03a34H
	DW	047d5H
	DW	0815dH
	DW	069f2H
	DW	04deaH
	DW	064ddH
	DW	0d7cH
	DW	0fb4H
	DW	0cd5H
	DW	010f4H
	DW	0648dH
	DW	08e7eH
	DW	0e96H
	DW	0c0bH
	DW	0f64H
	DW	02ca9H
	DW	08256H
	DW	044d3H
	DW	0fffeH
	DW	0d46H
	DW	09a4dH
	DW	080e9H
	DW	047f4H
	DW	04ea7H
	DW	02cc2H
	DW	09ab2H
	DW	03a67H
	DW	095f4H
	DW	03fedH
	DW	03506H
	DW	052c7H
	DW	097d4H
	DW	078c8H
	DW	02d44H
	DW	09d6eH
	DW	09815H
	DW	0fffeH
	DW	043d9H
	DW	060a5H
	DW	064b4H
	DW	054e3H
	DW	02d4cH
	DW	02bcaH
	DW	01077H
	DW	039fbH
	DW	0106fH
	DW	0fffeH
	DW	0fffeH
	DW	0fffeH
	DW	0fffeH
	DW	0fffeH
	DW	0fffeH
	DW	0fffeH
	DW	0fffeH
	DW	0fffeH
	DW	0fffeH
	DW	0fffeH
	DW	0fffeH
	DW	0fffeH
	DW	0fffeH
	DW	0fffeH
	DW	0fffeH
	DW	0fffeH
	DW	0fffeH
	DW	0fffeH
	DW	0fffeH
	DW	0fffeH
	DW	0fffeH
	DW	0fffeH
	DW	0fffeH
	DW	0fffeH
	DW	0fffeH
	DW	0fffeH
	DW	0fffeH
	DW	0fffeH
	DW	0fffeH
	DW	0fffeH
	DW	0fffeH
	DW	0fffeH
	DW	0fffeH
	DW	066daH
	DW	06716H
	DW	079a0H
	DW	064eaH
	DW	05052H
	DW	0c43H
	DW	08e68H
	DW	021a1H
	DW	08b4cH
	DW	0731H
	DW	0fffeH
	DW	0480bH
	DW	01a9H
	DW	03ffaH
	DW	05873H
	DW	02d8dH
	DW	0fffeH
	DW	045c8H
	DW	04fcH
	DW	06097H
	DW	0f4cH
	DW	0d96H
	DW	05579H
	DW	040bbH
	DW	043baH
	DW	0fffeH
	DW	04ab4H
	DW	02a66H
	DW	0109dH
	DW	081aaH
	DW	098f5H
	DW	0d9cH
	DW	06379H
	DW	039feH
	DW	02775H
	DW	08dc0H
	DW	056a1H
	DW	0647cH
	DW	03e43H
	DW	0fffeH
	DW	0a601H
	DW	0e09H
	DW	02acfH
	DW	02cc9H
	DW	0fffeH
	DW	010c8H
	DW	039c2H
	DW	03992H
	DW	03a06H
	DW	0829bH
	DW	03578H
	DW	05e49H
	DW	020c7H
	DW	05652H
	DW	0f31H
	DW	02cb2H
	DW	09720H
	DW	034bcH
	DW	06c3dH
	DW	04e3bH
	DW	0fffeH
	DW	0fffeH
	DW	07574H
	DW	02e8bH
	DW	02208H
	DW	0a65bH
	DW	08ccdH
	DW	0e7aH
	DW	0c34H
	DW	0681cH
	DW	07f93H
	DW	010cfH
	DW	02803H
	DW	02939H
	DW	035fbH
	DW	051e3H
	DW	0e8cH
	DW	0f8dH
	DW	0eaaH
	DW	03f93H
	DW	0f30H
	DW	0d47H
	DW	0114fH
	DW	0e4cH
	DW	0fffeH
	DW	0eabH
	DW	0ba9H
	DW	0d48H
	DW	010c0H
	DW	0113dH
	DW	03ff9H
	DW	02696H
	DW	06432H
	DW	0fadH
	DW	033f4H
	DW	07639H
	DW	02bceH
	DW	0d7eH
	DW	0d7fH
	DW	02c51H
	DW	02c55H
	DW	03a18H
	DW	0e98H
	DW	010c7H
	DW	0f2eH
	DW	0a632H
	DW	06b50H
	DW	08cd2H
	DW	08d99H
	DW	08ccaH
	DW	095aaH
	DW	054ccH
	DW	082c4H
	DW	055b9H
	DW	0fffeH
	DW	09ec3H
	DW	09c26H
	DW	09ab6H
	DW	0775eH
	DW	02deeH
	DW	07140H
	DW	0816dH
	DW	080ecH
	DW	05c1cH
	DW	06572H
	DW	08134H
	DW	03797H
	DW	0535fH
	DW	080bdH
	DW	091b6H
	DW	0efaH
	DW	0e0fH
	DW	0e77H
	DW	0efbH
	DW	035ddH
	DW	04debH
	DW	03609H
	DW	0cd6H
	DW	056afH
	DW	027b5H
	DW	010c9H
	DW	0e10H
	DW	0e78H
	DW	01078H
	DW	01148H
	DW	08207H
	DW	01455H
	DW	0e79H
	DW	04e50H
	DW	02da4H
	DW	05a54H
	DW	0101dH
	DW	0101eH
	DW	010f5H
	DW	010f6H
	DW	0579cH
	DW	0e11H
	DW	0fffeH
	DW	0fffeH
	DW	0fffeH
	DW	0fffeH
	DW	0fffeH
	DW	0fffeH
	DW	0fffeH
	DW	0fffeH
	DW	0fffeH
	DW	0fffeH
	DW	0fffeH
	DW	0fffeH
	DW	0fffeH
	DW	0fffeH
	DW	0fffeH
	DW	0fffeH
	DW	0fffeH
	DW	0fffeH
	DW	0fffeH
	DW	0fffeH
	DW	0fffeH
	DW	0fffeH
	DW	0fffeH
	DW	0fffeH
	DW	0fffeH
	DW	0fffeH
	DW	0fffeH
	DW	0fffeH
	DW	0fffeH
	DW	0fffeH
	DW	0fffeH
	DW	0fffeH
	DW	0fffeH
	DW	0fffeH
	DW	07694H
	DW	082cdH
	DW	0fb5H
	DW	0e7bH
	DW	0517eH
	DW	03703H
	DW	0fb6H
	DW	01180H
	DW	052d8H
	DW	0a2bdH
	DW	049daH
	DW	0183aH
	DW	04177H
	DW	0827cH
	DW	05899H
	DW	05268H
	DW	0361aH
	DW	0573dH
	DW	07bb2H
	DW	05b68H
	DW	04800H
	DW	04b2cH
	DW	09f27H
	DW	049e7H
	DW	09c1fH
	DW	09b8dH
	DW	05b74H
	DW	0313dH
	DW	055fbH
	DW	035f2H
	DW	05689H
	DW	04e28H
	DW	05902H
	DW	01bc1H
	DW	0f878H
	DW	09751H
	DW	086H
	DW	04e5bH
	DW	04ebbH
	DW	0353eH
	DW	05c23H
	DW	05f51H
	DW	05fc4H
	DW	038faH
	DW	0624cH
	DW	06535H
	DW	06b7aH
	DW	06c35H
	DW	06c3aH
	DW	0706cH
	DW	0722bH
	DW	04e2cH
	DW	072adH
	DW	048e9H
	DW	07f52H
	DW	0793bH
	DW	07cf9H
	DW	07f53H
	DW	0626aH
	DW	034c1H
	DW	0fffeH
	DW	0634bH
	DW	08002H
	DW	08080H
	DW	06612H
	DW	06951H
	DW	0535dH
	DW	08864H
	DW	089c1H
	DW	078b2H
	DW	08ba0H
	DW	08d1dH
	DW	09485H
	DW	09578H
	DW	0957fH
	DW	095e8H
	DW	08e0fH
	DW	097e6H
	DW	09875H
	DW	098ceH
	DW	098deH
	DW	09963H
	DW	09810H
	DW	09c7cH
	DW	09e1fH
	DW	09ec4H
	DW	06b6fH
	DW	0f907H
	DW	04e37H
	DW	087H
	DW	0961dH
	DW	06237H
	DW	094a2H
	DW	0503bH
	DW	06dfeH
	DW	09c73H
	DW	09fa6H
	DW	03dc9H
	DW	0888fH
	DW	0414eH
	DW	07077H
	DW	05cf5H
	DW	04b20H
	DW	051cdH
	DW	03559H
	DW	05d30H
	DW	06122H
	DW	08a32H
	DW	08fa7H
	DW	091f6H
	DW	07191H
	DW	06719H
	DW	073baH
	DW	03281H
	DW	0a107H
	DW	03c8bH
	DW	01980H
	DW	04b10H
	DW	078e4H
	DW	07402H
	DW	051aeH
	DW	0870fH
	DW	04009H
	DW	06a63H
	DW	0a2baH
	DW	04223H
	DW	0860fH
	DW	0a6fH
	DW	07a2aH
	DW	09947H
	DW	08aeaH
	DW	09755H
	DW	0704dH
	DW	05324H
	DW	0207eH
	DW	093f4H
	DW	076d9H
	DW	089e3H
	DW	09fa7H
	DW	077ddH
	DW	04ea3H
	DW	04ff0H
	DW	050bcH
	DW	04e2fH
	DW	04f17H
	DW	09fa8H
	DW	05434H
	DW	07d8bH
	DW	05892H
	DW	058d0H
	DW	01db6H
	DW	05e92H
	DW	05e99H
	DW	05fc2H
	DW	02712H
	DW	0658bH
	DW	0fffeH
	DW	0fffeH
	DW	0fffeH
	DW	0fffeH
	DW	0fffeH
	DW	0fffeH
	DW	0fffeH
	DW	0fffeH
	DW	0fffeH
	DW	0fffeH
	DW	0fffeH
	DW	0fffeH
	DW	0fffeH
	DW	0fffeH
	DW	0fffeH
	DW	0fffeH
	DW	0fffeH
	DW	0fffeH
	DW	0fffeH
	DW	0fffeH
	DW	0fffeH
	DW	0fffeH
	DW	0fffeH
	DW	0fffeH
	DW	0fffeH
	DW	0fffeH
	DW	0fffeH
	DW	0fffeH
	DW	0fffeH
	DW	0fffeH
	DW	0fffeH
	DW	0fffeH
	DW	0fffeH
	DW	0fffeH
	DW	033f9H
	DW	06919H
	DW	06a43H
	DW	03c63H
	DW	06cffH
	DW	0fffeH
	DW	07200H
	DW	04505H
	DW	0738cH
	DW	03edbH
	DW	04a13H
	DW	05b15H
	DW	074b9H
	DW	08b83H
	DW	05ca4H
	DW	05695H
	DW	07a93H
	DW	07becH
	DW	07cc3H
	DW	07e6cH
	DW	082f8H
	DW	08597H
	DW	09fa9H
	DW	08890H
	DW	09faaH
	DW	08eb9H
	DW	09fabH
	DW	08fcfH
	DW	0855fH
	DW	099e0H
	DW	09221H
	DW	09facH
	DW	08db9H
	DW	0143fH
	DW	04071H
	DW	042a2H
	DW	05a1aH
	DW	0fffeH
	DW	0fffeH
	DW	0fffeH
	DW	09868H
	DW	0676bH
	DW	04276H
	DW	0573dH
	DW	0fffeH
	DW	085d6H
	DW	0497bH
	DW	082bfH
	DW	0710dH
	DW	04c81H
	DW	06d74H
	DW	05d7bH
	DW	06b15H
	DW	06fbeH
	DW	09fadH
	DW	09faeH
	DW	05b96H
	DW	09fafH
	DW	066e7H
	DW	07e5bH
	DW	06e57H
	DW	079caH
	DW	03d88H
	DW	044c3H
	DW	03256H
	DW	02796H
	DW	0439aH
	DW	04536H
	DW	0fffeH
	DW	05cd5H
	DW	03b1aH
	DW	08af9H
	DW	05c78H
	DW	03d12H
	DW	03551H
	DW	05d78H
	DW	09fb2H
	DW	07157H
	DW	04558H
	DW	040ecH
	DW	01e23H
	DW	04c77H
	DW	03978H
	DW	0344aH
	DW	01a4H
	DW	06c41H
	DW	08accH
	DW	04fb4H
	DW	0239H
	DW	059bfH
	DW	0816cH
	DW	09856H
	DW	098faH
	DW	05f3bH
	DW	0b9fH
	DW	0fffeH
	DW	021c1H
	DW	0896dH
	DW	04102H
	DW	046bbH
	DW	09079H
	DW	03f07H
	DW	09fb3H
	DW	0a1b5H
	DW	040f8H
	DW	037d6H
	DW	046f7H
	DW	06c46H
	DW	0417cH
	DW	086b2H
	DW	073ffH
	DW	0456dH
	DW	038d4H
	DW	0549aH
	DW	04561H
	DW	0451bH
	DW	04d89H
	DW	04c7bH
	DW	04d76H
	DW	045eaH
	DW	03fc8H
	DW	04b0fH
	DW	03661H
	DW	044deH
	DW	044bdH
	DW	041edH
	DW	05d3eH
	DW	05d48H
	DW	05d56H
	DW	03dfcH
	DW	0380fH
	DW	05da4H
	DW	05db9H
	DW	03820H
	DW	03838H
	DW	05e42H
	DW	05ebdH
	DW	05f25H
	DW	05f83H
	DW	03908H
	DW	03914H
	DW	0393fH
	DW	0394dH
	DW	060d7H
	DW	0613dH
	DW	05ce5H
	DW	03989H
	DW	061b7H
	DW	061b9H
	DW	061cfH
	DW	039b8H
	DW	0622cH
	DW	06290H
	DW	062e5H
	DW	06318H
	DW	039f8H
	DW	056b1H
	DW	0fffeH
	DW	0fffeH
	DW	0fffeH
	DW	0fffeH
	DW	0fffeH
	DW	0fffeH
	DW	0fffeH
	DW	0fffeH
	DW	0fffeH
	DW	0fffeH
	DW	0fffeH
	DW	0fffeH
	DW	0fffeH
	DW	0fffeH
	DW	0fffeH
	DW	0fffeH
	DW	0fffeH
	DW	0fffeH
	DW	0fffeH
	DW	0fffeH
	DW	0fffeH
	DW	0fffeH
	DW	0fffeH
	DW	0fffeH
	DW	0fffeH
	DW	0fffeH
	DW	0fffeH
	DW	0fffeH
	DW	0fffeH
	DW	0fffeH
	DW	0fffeH
	DW	0fffeH
	DW	0fffeH
	DW	0fffeH
	DW	03a03H
	DW	063e2H
	DW	063fbH
	DW	06407H
	DW	0645aH
	DW	03a4bH
	DW	064c0H
	DW	05d15H
	DW	05621H
	DW	09f9fH
	DW	03a97H
	DW	06586H
	DW	03abdH
	DW	065ffH
	DW	06653H
	DW	03af2H
	DW	06692H
	DW	03b22H
	DW	06716H
	DW	03b42H
	DW	067a4H
	DW	06800H
	DW	03b58H
	DW	0684aH
	DW	06884H
	DW	03b72H
	DW	03b71H
	DW	03b7bH
	DW	06909H
	DW	06943H
	DW	0725cH
	DW	06964H
	DW	0699fH
	DW	06985H
	DW	03bbcH
	DW	069d6H
	DW	03bddH
	DW	06a65H
	DW	06a74H
	DW	06a71H
	DW	06a82H
	DW	03becH
	DW	06a99H
	DW	03bf2H
	DW	06aabH
	DW	06ab5H
	DW	06ad4H
	DW	06af6H
	DW	06b81H
	DW	06bc1H
	DW	06beaH
	DW	06c75H
	DW	06caaH
	DW	03ccbH
	DW	06d02H
	DW	06d06H
	DW	06d26H
	DW	06d81H
	DW	03cefH
	DW	06da4H
	DW	06db1H
	DW	06e15H
	DW	06e18H
	DW	06e29H
	DW	06e86H
	DW	089c0H
	DW	06ebbH
	DW	06ee2H
	DW	06edaH
	DW	09f7fH
	DW	06ee8H
	DW	06ee9H
	DW	06f24H
	DW	06f34H
	DW	03d46H
	DW	03f41H
	DW	06f81H
	DW	06fbeH
	DW	03d6aH
	DW	03d75H
	DW	071b7H
	DW	05c99H
	DW	03d8aH
	DW	0702cH
	DW	03d91H
	DW	07050H
	DW	07054H
	DW	0706fH
	DW	0707fH
	DW	07089H
	DW	0325H
	DW	043c1H
	DW	035f1H
	DW	0ed8H
	DW	03ed7H
	DW	057beH
	DW	06ed3H
	DW	0713eH
	DW	057e0H
	DW	0364eH
	DW	069a2H
	DW	08be9H
	DW	05b74H
	DW	07a49H
	DW	058e1H
	DW	094d9H
	DW	07a65H
	DW	07a7dH
	DW	059acH
	DW	07abbH
	DW	07ab0H
	DW	07ac2H
	DW	07ac3H
	DW	071d1H
	DW	0648dH
	DW	041caH
	DW	07adaH
	DW	07addH
	DW	07aeaH
	DW	041efH
	DW	054b2H
	DW	05c01H
	DW	07b0bH
	DW	07b55H
	DW	07b29H
	DW	0530eH
	DW	05cfeH
	DW	07ba2H
	DW	07b6fH
	DW	0839cH
	DW	05bb4H
	DW	06c7fH
	DW	07bd0H
	DW	08421H
	DW	07b92H
	DW	0fffeH
	DW	05d20H
	DW	03dadH
	DW	05c65H
	DW	08492H
	DW	07bfaH
	DW	0fffeH
	DW	07c35H
	DW	05cc1H
	DW	07c44H
	DW	07c83H
	DW	04882H
	DW	07ca6H
	DW	0667dH
	DW	04578H
	DW	07cc9H
	DW	07cc7H
	DW	07ce6H
	DW	07c74H
	DW	07cf3H
	DW	07cf5H
	DW	0fffeH
	DW	0fffeH
	DW	0fffeH
	DW	0fffeH
	DW	0fffeH
	DW	0fffeH
	DW	0fffeH
	DW	0fffeH
	DW	0fffeH
	DW	0fffeH
	DW	0fffeH
	DW	0fffeH
	DW	0fffeH
	DW	0fffeH
	DW	0fffeH
	DW	0fffeH
	DW	0fffeH
	DW	0fffeH
	DW	0fffeH
	DW	0fffeH
	DW	0fffeH
	DW	0fffeH
	DW	0fffeH
	DW	0fffeH
	DW	0fffeH
	DW	0fffeH
	DW	0fffeH
	DW	0fffeH
	DW	0fffeH
	DW	0fffeH
	DW	0fffeH
	DW	0fffeH
	DW	0fffeH
	DW	0fffeH
	DW	0fffeH
	DW	07e67H
	DW	0451dH
	DW	06e44H
	DW	07d5dH
	DW	06ed6H
	DW	0748dH
	DW	07d89H
	DW	07dabH
	DW	07135H
	DW	07db3H
	DW	0fffeH
	DW	04057H
	DW	06029H
	DW	07de4H
	DW	03d13H
	DW	07df5H
	DW	017f9H
	DW	07de5H
	DW	0836dH
	DW	0fffeH
	DW	06121H
	DW	0615aH
	DW	07e6eH
	DW	07e92H
	DW	0432bH
	DW	0946cH
	DW	07e27H
	DW	07f40H
	DW	07f41H
	DW	07f47H
	DW	07936H
	DW	062d0H
	DW	099e1H
	DW	07f97H
	DW	06351H
	DW	07fa3H
	DW	01661H
	DW	068H
	DW	0455cH
	DW	03766H
	DW	04503H
	DW	0833aH
	DW	07ffaH
	DW	06489H
	DW	0fffeH
	DW	08008H
	DW	0801dH
	DW	0fffeH
	DW	0802fH
	DW	0a087H
	DW	06cc3H
	DW	0803bH
	DW	0803cH
	DW	08061H
	DW	02714H
	DW	04989H
	DW	06626H
	DW	03de3H
	DW	066e8H
	DW	06725H
	DW	080a7H
	DW	08a48H
	DW	08107H
	DW	0811aH
	DW	058b0H
	DW	026f6H
	DW	06c7fH
	DW	06498H
	DW	04fb8H
	DW	064e7H
	DW	0148aH
	DW	08218H
	DW	0185eH
	DW	06a53H
	DW	04a65H
	DW	04a95H
	DW	0447aH
	DW	08229H
	DW	0b0dH
	DW	06a52H
	DW	03d7eH
	DW	04ff9H
	DW	014fdH
	DW	084e2H
	DW	08362H
	DW	06b0aH
	DW	049a7H
	DW	03530H
	DW	01773H
	DW	03df8H
	DW	082aaH
	DW	0691bH
	DW	0f994H
	DW	041dbH
	DW	0854bH
	DW	082d0H
	DW	0831aH
	DW	0e16H
	DW	017b4H
	DW	036c1H
	DW	0317dH
	DW	0355aH
	DW	0827bH
	DW	082e2H
	DW	08318H
	DW	03e8bH
	DW	06da3H
	DW	06b05H
	DW	06b97H
	DW	035ceH
	DW	03dbfH
	DW	0831dH
	DW	055ecH
	DW	08385H
	DW	0450bH
	DW	06da5H
	DW	083acH
	DW	0fffeH
	DW	083d3H
	DW	0347eH
	DW	06ed4H
	DW	06a57H
	DW	0855aH
	DW	03496H
	DW	06e42H
	DW	02eefH
	DW	08458H
	DW	05be4H
	DW	08471H
	DW	03dd3H
	DW	044e4H
	DW	06aa7H
	DW	0844aH
	DW	03cb5H
	DW	07958H
	DW	0fffeH
	DW	06b96H
	DW	06e77H
	DW	06e43H
	DW	084deH
	DW	0fffeH
	DW	08391H
	DW	044a0H
	DW	08493H
	DW	084e4H
	DW	05c91H
	DW	04240H
	DW	05cc0H
	DW	04543H
	DW	08534H
	DW	05af2H
	DW	06e99H
	DW	04527H
	DW	08573H
	DW	04516H
	DW	067bfH
	DW	08616H
	DW	0fffeH
	DW	0fffeH
	DW	0fffeH
	DW	0fffeH
	DW	0fffeH
	DW	0fffeH
	DW	0fffeH
	DW	0fffeH
	DW	0fffeH
	DW	0fffeH
	DW	0fffeH
	DW	0fffeH
	DW	0fffeH
	DW	0fffeH
	DW	0fffeH
	DW	0fffeH
	DW	0fffeH
	DW	0fffeH
	DW	0fffeH
	DW	0fffeH
	DW	0fffeH
	DW	0fffeH
	DW	0fffeH
	DW	0fffeH
	DW	0fffeH
	DW	0fffeH
	DW	0fffeH
	DW	0fffeH
	DW	0fffeH
	DW	0fffeH
	DW	0fffeH
	DW	0fffeH
	DW	0fffeH
	DW	0fffeH
	DW	08625H
	DW	0863bH
	DW	085c1H
	DW	07088H
	DW	08602H
	DW	01582H
	DW	070cdH
	DW	0f9b2H
	DW	0456aH
	DW	08628H
	DW	03648H
	DW	018a2H
	DW	053f7H
	DW	0739aH
	DW	0867eH
	DW	08771H
	DW	0a0f8H
	DW	087eeH
	DW	02c27H
	DW	087b1H
	DW	087daH
	DW	0880fH
	DW	05661H
	DW	0866cH
	DW	06856H
	DW	0460fH
	DW	08845H
	DW	08846H
	DW	075e0H
	DW	03db9H
	DW	075e4H
	DW	0885eH
	DW	0889cH
	DW	0465bH
	DW	088b4H
	DW	088b5H
	DW	063c1H
	DW	088c5H
	DW	07777H
	DW	0770fH
	DW	08987H
	DW	0898aH
	DW	0fffeH
	DW	0fffeH
	DW	089a7H
	DW	089bcH
	DW	08a25H
	DW	089e7H
	DW	07924H
	DW	07abdH
	DW	08a9cH
	DW	07793H
	DW	091feH
	DW	08a90H
	DW	07a59H
	DW	07ae9H
	DW	07b3aH
	DW	03f8fH
	DW	04713H
	DW	07b38H
	DW	0717cH
	DW	08b0cH
	DW	08b1fH
	DW	05430H
	DW	05565H
	DW	08b3fH
	DW	08b4cH
	DW	08b4dH
	DW	08aa9H
	DW	04a7aH
	DW	08b90H
	DW	08b9bH
	DW	08aafH
	DW	016dfH
	DW	04615H
	DW	0884fH
	DW	08c9bH
	DW	07d54H
	DW	07d8fH
	DW	0f9d4H
	DW	03725H
	DW	07d53H
	DW	08cd6H
	DW	07d98H
	DW	07dbdH
	DW	08d12H
	DW	08d03H
	DW	01910H
	DW	08cdbH
	DW	0705cH
	DW	08d11H
	DW	04cc9H
	DW	03ed0H
	DW	08da9H
	DW	08002H
	DW	01014H
	DW	0498aH
	DW	03b7cH
	DW	081bcH
	DW	0710cH
	DW	07ae7H
	DW	08eadH
	DW	08eb6H
	DW	08ec3H
	DW	092d4H
	DW	08f19H
	DW	08f2dH
	DW	08365H
	DW	08412H
	DW	08fa5H
	DW	09303H
	DW	0a29fH
	DW	0a50H
	DW	08fb3H
	DW	0492aH
	DW	089deH
	DW	0853dH
	DW	03dbbH
	DW	05ef8H
	DW	03262H
	DW	08ff9H
	DW	0a014H
	DW	086bcH
	DW	08501H
	DW	02325H
	DW	03980H
	DW	06ed7H
	DW	09037H
	DW	0853cH
	DW	07abeH
	DW	09061H
	DW	0856cH
	DW	0860bH
	DW	090a8H
	DW	08713H
	DW	090c4H
	DW	086e6H
	DW	090aeH
	DW	0fffeH
	DW	09167H
	DW	03af0H
	DW	091a9H
	DW	091c4H
	DW	07cacH
	DW	08933H
	DW	01e89H
	DW	0920eH
	DW	06c9fH
	DW	09241H
	DW	09262H
	DW	055b9H
	DW	0fffeH
	DW	08ac6H
	DW	03c9bH
	DW	08b0cH
	DW	055dbH
	DW	0fffeH
	DW	0fffeH
	DW	0fffeH
	DW	0fffeH
	DW	0fffeH
	DW	0fffeH
	DW	0fffeH
	DW	0fffeH
	DW	0fffeH
	DW	0fffeH
	DW	0fffeH
	DW	0fffeH
	DW	0fffeH
	DW	0fffeH
	DW	0fffeH
	DW	0fffeH
	DW	0fffeH
	DW	0fffeH
	DW	0fffeH
	DW	0fffeH
	DW	0fffeH
	DW	0fffeH
	DW	0fffeH
	DW	0fffeH
	DW	0fffeH
	DW	0fffeH
	DW	0fffeH
	DW	0fffeH
	DW	0fffeH
	DW	0fffeH
	DW	0fffeH
	DW	0fffeH
	DW	0fffeH
	DW	0fffeH
	DW	0d31H
	DW	0932cH
	DW	0936bH
	DW	08ae1H
	DW	08bebH
	DW	0708fH
	DW	05ac3H
	DW	08ae2H
	DW	08ae5H
	DW	04965H
	DW	09244H
	DW	08becH
	DW	08c39H
	DW	08bffH
	DW	09373H
	DW	0945bH
	DW	08ebcH
	DW	09585H
	DW	095a6H
	DW	09426H
	DW	095a0H
	DW	06ff6H
	DW	042b9H
	DW	0267aH
	DW	086d8H
	DW	0127cH
	DW	03e2eH
	DW	049dfH
	DW	06c1cH
	DW	0967bH
	DW	09696H
	DW	0416cH
	DW	096a3H
	DW	06ed5H
	DW	061daH
	DW	096b6H
	DW	078f5H
	DW	08ae0H
	DW	096bdH
	DW	053ccH
	DW	049a1H
	DW	06cb8H
	DW	0274H
	DW	06410H
	DW	090afH
	DW	090e5H
	DW	04ad1H
	DW	01915H
	DW	0330aH
	DW	09731H
	DW	08642H
	DW	09736H
	DW	04a0fH
	DW	0453dH
	DW	04585H
	DW	04ae9H
	DW	07075H
	DW	05b41H
	DW	0971bH
	DW	0fffeH
	DW	091d5H
	DW	09757H
	DW	05b4aH
	DW	091ebH
	DW	0975fH
	DW	09425H
	DW	050d0H
	DW	030b7H
	DW	030bcH
	DW	09789H
	DW	0979fH
	DW	097b1H
	DW	097beH
	DW	097c0H
	DW	097d2H
	DW	097e0H
	DW	0546cH
	DW	097eeH
	DW	0741cH
	DW	09433H
	DW	0fffeH
	DW	097f5H
	DW	0941dH
	DW	0797aH
	DW	04ad1H
	DW	09834H
	DW	09833H
	DW	0984bH
	DW	09866H
	DW	03b0eH
	DW	07175H
	DW	03d51H
	DW	0630H
	DW	0415cH
	DW	05706H
	DW	098caH
	DW	098b7H
	DW	098c8H
	DW	098c7H
	DW	04affH
	DW	06d27H
	DW	016d3H
	DW	055b0H
	DW	098e1H
	DW	098e6H
	DW	098ecH
	DW	09378H
	DW	09939H
	DW	04a29H
	DW	04b72H
	DW	09857H
	DW	09905H
	DW	099f5H
	DW	09a0cH
	DW	09a3bH
	DW	09a10H
	DW	09a58H
	DW	05725H
	DW	036c4H
	DW	090b1H
	DW	09bd5H
	DW	09ae0H
	DW	09ae2H
	DW	09b05H
	DW	09af4H
	DW	04c0eH
	DW	09b14H
	DW	09b2dH
	DW	08600H
	DW	05034H
	DW	09b34H
	DW	069a8H
	DW	038c3H
	DW	0307dH
	DW	09b50H
	DW	09b40H
	DW	09d3eH
	DW	05a45H
	DW	01863H
	DW	09b8eH
	DW	0424bH
	DW	09c02H
	DW	09bffH
	DW	09c0cH
	DW	09e68H
	DW	09dd4H
	DW	09fb7H
	DW	0a192H
	DW	0a1abH
	DW	0a0e1H
	DW	0a123H
	DW	0a1dfH
	DW	09d7eH
	DW	09d83H
	DW	0a134H
	DW	09e0eH
	DW	06888H
	DW	0fffeH
	DW	0fffeH
	DW	0fffeH
	DW	0fffeH
	DW	0fffeH
	DW	0fffeH
	DW	0fffeH
	DW	0fffeH
	DW	0fffeH
	DW	0fffeH
	DW	0fffeH
	DW	0fffeH
	DW	0fffeH
	DW	0fffeH
	DW	0fffeH
	DW	0fffeH
	DW	0fffeH
	DW	0fffeH
	DW	0fffeH
	DW	0fffeH
	DW	0fffeH
	DW	0fffeH
	DW	0fffeH
	DW	0fffeH
	DW	0fffeH
	DW	0fffeH
	DW	0fffeH
	DW	0fffeH
	DW	0fffeH
	DW	0fffeH
	DW	0fffeH
	DW	0fffeH
	DW	0fffeH
	DW	0fffeH
	DW	09dc4H
	DW	0215bH
	DW	0a193H
	DW	0a220H
	DW	0193bH
	DW	0a233H
	DW	09d39H
	DW	0a0b9H
	DW	0a2b4H
	DW	09e90H
	DW	09e95H
	DW	09e9eH
	DW	09ea2H
	DW	04d34H
	DW	09eaaH
	DW	09eafH
	DW	04364H
	DW	09ec1H
	DW	03b60H
	DW	039e5H
	DW	03d1dH
	DW	04f32H
	DW	037beH
	DW	08c2bH
	DW	09f02H
	DW	09f08H
	DW	04b96H
	DW	09424H
	DW	06da2H
	DW	09f17H
	DW	0fffeH
	DW	09f39H
	DW	0569fH
	DW	0568aH
	DW	09f45H
	DW	099b8H
	DW	0908bH
	DW	097f2H
	DW	0847fH
	DW	09f62H
	DW	09f69H
	DW	07adcH
	DW	09f8eH
	DW	07216H
	DW	04bbeH
	DW	04975H
	DW	049bbH
	DW	07177H
	DW	049f8H
	DW	04348H
	DW	04a51H
	DW	0739eH
	DW	08bdaH
	DW	018faH
	DW	0799fH
	DW	0897eH
	DW	08e36H
	DW	09369H
	DW	093f3H
	DW	08a44H
	DW	092ecH
	DW	09381H
	DW	093cbH
	DW	0896cH
	DW	044b9H
	DW	07217H
	DW	03eebH
	DW	07772H
	DW	07a43H
	DW	070d0H
	DW	04473H
	DW	043f8H
	DW	0717eH
	DW	017efH
	DW	070a3H
	DW	018beH
	DW	03599H
	DW	03ec7H
	DW	01885H
	DW	0542fH
	DW	017f8H
	DW	03722H
	DW	016fbH
	DW	01839H
	DW	036e1H
	DW	01774H
	DW	018d1H
	DW	05f4bH
	DW	03723H
	DW	016c0H
	DW	0575bH
	DW	04a25H
	DW	013feH
	DW	012a8H
	DW	013c6H
	DW	014b6H
	DW	08503H
	DW	036a6H
	DW	0fffeH
	DW	08455H
	DW	04994H
	DW	07165H
	DW	03e31H
	DW	0555cH
	DW	03efbH
	DW	07052H
	DW	044f4H
	DW	036eeH
	DW	0999dH
	DW	06f26H
	DW	067f9H
	DW	03733H
	DW	03c15H
	DW	03de7H
	DW	0586cH
	DW	01922H
	DW	06810H
	DW	04057H
	DW	0373fH
	DW	040e1H
	DW	0408bH
	DW	0410fH
	DW	06c21H
	DW	054cbH
	DW	0569eH
	DW	066b1H
	DW	05692H
	DW	0fdfH
	DW	0ba8H
	DW	0e0dH
	DW	093c6H
	DW	08b13H
	DW	0939cH
	DW	04ef8H
	DW	0512bH
	DW	03819H
	DW	04436H
	DW	04ebcH
	DW	0465H
	DW	037fH
	DW	04f4bH
	DW	04f8aH
	DW	05651H
	DW	05a68H
	DW	01abH
	DW	03cbH
	DW	03999H
	DW	030aH
	DW	0414H
	DW	03435H
	DW	04f29H
	DW	02c0H
	DW	08eb3H
	DW	0275H
	DW	08adaH
	DW	020cH
	DW	04e98H
	DW	0fffeH
	DW	0fffeH
	DW	0fffeH
	DW	0fffeH
	DW	0fffeH
	DW	0fffeH
	DW	0fffeH
	DW	0fffeH
	DW	0fffeH
	DW	0fffeH
	DW	0fffeH
	DW	0fffeH
	DW	0fffeH
	DW	0fffeH
	DW	0fffeH
	DW	0fffeH
	DW	0fffeH
	DW	0fffeH
	DW	0fffeH
	DW	0fffeH
	DW	0fffeH
	DW	0fffeH
	DW	0fffeH
	DW	0fffeH
	DW	0fffeH
	DW	0fffeH
	DW	0fffeH
	DW	0fffeH
	DW	0fffeH
	DW	0fffeH
	DW	0fffeH
	DW	0fffeH
	DW	0fffeH
	DW	0fffeH
	DW	050cdH
	DW	0510dH
	DW	04fa2H
	DW	04f03H
	DW	04a0eH
	DW	03e8aH
	DW	04f42H
	DW	0502eH
	DW	0506cH
	DW	05081H
	DW	04fccH
	DW	04fe5H
	DW	05058H
	DW	050fcH
	DW	0fffeH
	DW	0fffeH
	DW	0fffeH
	DW	0fffeH
	DW	06e76H
	DW	03595H
	DW	03e39H
	DW	03ebfH
	DW	06d72H
	DW	01884H
	DW	03e89H
	DW	051a8H
	DW	051c3H
	DW	05e0H
	DW	044ddH
	DW	04a3H
	DW	0492H
	DW	0491H
	DW	08d7aH
	DW	08a9cH
	DW	070eH
	DW	05259H
	DW	052a4H
	DW	0873H
	DW	052e1H
	DW	0fffeH
	DW	0467aH
	DW	0718cH
	DW	0438cH
	DW	0c20H
	DW	049acH
	DW	010e4H
	DW	069d1H
	DW	0e1dH
	DW	0fffeH
	DW	03edeH
	DW	07499H
	DW	07414H
	DW	07456H
	DW	07398H
	DW	04b8eH
	DW	04abcH
	DW	0408dH
	DW	053d0H
	DW	03584H
	DW	0720fH
	DW	040c9H
	DW	055b4H
	DW	0345H
	DW	054cdH
	DW	0bc6H
	DW	0571dH
	DW	0925dH
	DW	096f4H
	DW	09366H
	DW	057ddH
	DW	0578dH
	DW	0577fH
	DW	0363eH
	DW	058cbH
	DW	05a99H
	DW	08a46H
	DW	016faH
	DW	0176fH
	DW	01710H
	DW	05a2cH
	DW	059b8H
	DW	0928fH
	DW	05a7eH
	DW	05acfH
	DW	05a12H
	DW	05946H
	DW	019f3H
	DW	01861H
	DW	04295H
	DW	036f5H
	DW	06d05H
	DW	07443H
	DW	05a21H
	DW	05e83H
	DW	05a81H
	DW	08bd7H
	DW	0413H
	DW	093e0H
	DW	0748cH
	DW	01303H
	DW	07105H
	DW	04972H
	DW	09408H
	DW	089fbH
	DW	093bdH
	DW	037a0H
	DW	05c1eH
	DW	05c9eH
	DW	05e5eH
	DW	05e48H
	DW	01996H
	DW	0197cH
	DW	03aeeH
	DW	05ecdH
	DW	05b4fH
	DW	01903H
	DW	01904H
	DW	03701H
	DW	018a0H
	DW	036ddH
	DW	016feH
	DW	036d3H
	DW	0812aH
	DW	08a47H
	DW	01dbaH
	DW	03472H
	DW	089a8H
	DW	05f0cH
	DW	05f0eH
	DW	01927H
	DW	017abH
	DW	05a6bH
	DW	0173bH
	DW	05b44H
	DW	08614H
	DW	075fdH
	DW	08860H
	DW	0607eH
	DW	02860H
	DW	0262bH
	DW	05fdbH
	DW	03eb8H
	DW	025afH
	DW	025beH
	DW	09088H
	DW	06f73H
	DW	061c0H
	DW	03eH
	DW	046H
	DW	0261bH
	DW	06199H
	DW	06198H
	DW	06075H
	DW	02c9bH
	DW	02d07H
	DW	046d4H
	DW	0914dH
	DW	0fffeH
	DW	0fffeH
	DW	0fffeH
	DW	0fffeH
	DW	0fffeH
	DW	0fffeH
	DW	0fffeH
	DW	0fffeH
	DW	0fffeH
	DW	0fffeH
	DW	0fffeH
	DW	0fffeH
	DW	0fffeH
	DW	0fffeH
	DW	0fffeH
	DW	0fffeH
	DW	0fffeH
	DW	0fffeH
	DW	0fffeH
	DW	0fffeH
	DW	0fffeH
	DW	0fffeH
	DW	0fffeH
	DW	0fffeH
	DW	0fffeH
	DW	0fffeH
	DW	0fffeH
	DW	0fffeH
	DW	0fffeH
	DW	0fffeH
	DW	0fffeH
	DW	0fffeH
	DW	0fffeH
	DW	0fffeH
	DW	06471H
	DW	04665H
	DW	02b6aH
	DW	03a29H
	DW	02b22H
	DW	03450H
	DW	098eaH
	DW	02e78H
	DW	06337H
	DW	0a45bH
	DW	064b6H
	DW	06331H
	DW	063d1H
	DW	049e3H
	DW	02d67H
	DW	062a4H
	DW	02ca1H
	DW	0643bH
	DW	0656bH
	DW	06972H
	DW	03bf4H
	DW	0308eH
	DW	032adH
	DW	04989H
	DW	032abH
	DW	0550dH
	DW	032e0H
	DW	018d9H
	DW	0943fH
	DW	066ceH
	DW	03289H
	DW	031b3H
	DW	03ae0H
	DW	04190H
	DW	05584H
	DW	08b22H
	DW	0558fH
	DW	016fcH
	DW	0555bH
	DW	05425H
	DW	078eeH
	DW	03103H
	DW	0182aH
	DW	03234H
	DW	03464H
	DW	0320fH
	DW	03182H
	DW	042c9H
	DW	0668eH
	DW	06d24H
	DW	0666bH
	DW	04b93H
	DW	06630H
	DW	07870H
	DW	01debH
	DW	06663H
	DW	032d2H
	DW	032e1H
	DW	0661eH
	DW	05872H
	DW	038d1H
	DW	0383aH
	DW	037bcH
	DW	03b99H
	DW	037a2H
	DW	033feH
	DW	074d0H
	DW	03b96H
	DW	0678fH
	DW	0462aH
	DW	068b6H
	DW	0681eH
	DW	03bc4H
	DW	06abeH
	DW	03863H
	DW	037d5H
	DW	04487H
	DW	06a33H
	DW	06a52H
	DW	06ac9H
	DW	06b05H
	DW	01912H
	DW	06511H
	DW	06898H
	DW	06a4cH
	DW	03bd7H
	DW	06a7aH
	DW	06b57H
	DW	03fc0H
	DW	03c9aH
	DW	093a0H
	DW	092f2H
	DW	08beaH
	DW	08acbH
	DW	09289H
	DW	0801eH
	DW	089dcH
	DW	09467H
	DW	06da5H
	DW	06f0bH
	DW	049ecH
	DW	0fffeH
	DW	03f7fH
	DW	03d8fH
	DW	06e04H
	DW	0403cH
	DW	05a3dH
	DW	06e0aH
	DW	05847H
	DW	06d24H
	DW	07842H
	DW	0713bH
	DW	0431aH
	DW	04276H
	DW	070f1H
	DW	07250H
	DW	07287H
	DW	07294H
	DW	0478fH
	DW	04725H
	DW	05179H
	DW	04aa4H
	DW	05ebH
	DW	0747aH
	DW	03ef8H
	DW	0365fH
	DW	04a4aH
	DW	04917H
	DW	05fe1H
	DW	03f06H
	DW	03eb1H
	DW	04adfH
	DW	08c23H
	DW	03f35H
	DW	060a7H
	DW	03ef3H
	DW	074ccH
	DW	0743cH
	DW	09387H
	DW	07437H
	DW	0449fH
	DW	06deaH
	DW	04551H
	DW	07583H
	DW	03f63H
	DW	04cd9H
	DW	04d06H
	DW	03f58H
	DW	07555H
	DW	07673H
	DW	0a5c6H
	DW	03b19H
	DW	07468H
	DW	08accH
	DW	049abH
	DW	0498eH
	DW	03afbH
	DW	0fffeH
	DW	0fffeH
	DW	0fffeH
	DW	0fffeH
	DW	0fffeH
	DW	0fffeH
	DW	0fffeH
	DW	0fffeH
	DW	0fffeH
	DW	0fffeH
	DW	0fffeH
	DW	0fffeH
	DW	0fffeH
	DW	0fffeH
	DW	0fffeH
	DW	0fffeH
	DW	0fffeH
	DW	0fffeH
	DW	0fffeH
	DW	0fffeH
	DW	0fffeH
	DW	0fffeH
	DW	0fffeH
	DW	0fffeH
	DW	0fffeH
	DW	0fffeH
	DW	0fffeH
	DW	0fffeH
	DW	0fffeH
	DW	0fffeH
	DW	0fffeH
	DW	0fffeH
	DW	0fffeH
	DW	0fffeH
	DW	03dcdH
	DW	04a4eH
	DW	03effH
	DW	049c5H
	DW	048f3H
	DW	091faH
	DW	05732H
	DW	09342H
	DW	08ae3H
	DW	01864H
	DW	050dfH
	DW	05221H
	DW	051e7H
	DW	07778H
	DW	03232H
	DW	0770eH
	DW	0770fH
	DW	0777bH
	DW	04697H
	DW	03781H
	DW	03a5eH
	DW	048f0H
	DW	07438H
	DW	0749bH
	DW	03ebfH
	DW	04abaH
	DW	04ac7H
	DW	040c8H
	DW	04a96H
	DW	061aeH
	DW	09307H
	DW	05581H
	DW	0781eH
	DW	0788dH
	DW	07888H
	DW	078d2H
	DW	073d0H
	DW	07959H
	DW	07741H
	DW	056e3H
	DW	0410eH
	DW	0fffeH
	DW	08496H
	DW	079a5H
	DW	06a2dH
	DW	03efaH
	DW	07a3aH
	DW	079f4H
	DW	0416eH
	DW	016e6H
	DW	04132H
	DW	09235H
	DW	079f1H
	DW	0d4cH
	DW	0498cH
	DW	0299H
	DW	03dbaH
	DW	0176eH
	DW	03597H
	DW	0556bH
	DW	03570H
	DW	036aaH
	DW	01d4H
	DW	0c0dH
	DW	07ae2H
	DW	05a59H
	DW	026f5H
	DW	05aafH
	DW	05a9cH
	DW	05a0dH
	DW	025bH
	DW	078f0H
	DW	05a2aH
	DW	05bc6H
	DW	07afeH
	DW	041f9H
	DW	07c5dH
	DW	07c6dH
	DW	04211H
	DW	05bb3H
	DW	05ebcH
	DW	05ea6H
	DW	07ccdH
	DW	049f9H
	DW	017b0H
	DW	07c8eH
	DW	07c7cH
	DW	07caeH
	DW	06ab2H
	DW	07ddcH
	DW	07e07H
	DW	07dd3H
	DW	07f4eH
	DW	06261H
	DW	0615cH
	DW	07b48H
	DW	07d97H
	DW	05e82H
	DW	0426aH
	DW	06b75H
	DW	0916H
	DW	067d6H
	DW	04eH
	DW	035cfH
	DW	057c4H
	DW	06412H
	DW	063f8H
	DW	04962H
	DW	07fddH
	DW	07b27H
	DW	082cH
	DW	05ae9H
	DW	05d43H
	DW	07b0cH
	DW	05e0eH
	DW	099e6H
	DW	08645H
	DW	09a63H
	DW	06a1cH
	DW	0343fH
	DW	039e2H
	DW	049f7H
	DW	065adH
	DW	09a1fH
	DW	065a0H
	DW	08480H
	DW	07127H
	DW	06cd1H
	DW	044eaH
	DW	08137H
	DW	04402H
	DW	080c6H
	DW	08109H
	DW	08142H
	DW	067b4H
	DW	098c3H
	DW	06a42H
	DW	08262H
	DW	08265H
	DW	06a51H
	DW	08453H
	DW	06da7H
	DW	08610H
	DW	0721bH
	DW	05a86H
	DW	0417fH
	DW	01840H
	DW	05b2bH
	DW	018a1H
	DW	05ae4H
	DW	018d8H
	DW	086a0H
	DW	0f9bcH
	DW	03d8fH
	DW	0882dH
	DW	07422H
	DW	05a02H
	DW	0fffeH
	DW	0fffeH
	DW	0fffeH
	DW	0fffeH
	DW	0fffeH
	DW	0fffeH
	DW	0fffeH
	DW	0fffeH
	DW	0fffeH
	DW	0fffeH
	DW	0fffeH
	DW	0fffeH
	DW	0fffeH
	DW	0fffeH
	DW	0fffeH
	DW	0fffeH
	DW	0fffeH
	DW	0fffeH
	DW	0fffeH
	DW	0fffeH
	DW	0fffeH
	DW	0fffeH
	DW	0fffeH
	DW	0fffeH
	DW	0fffeH
	DW	0fffeH
	DW	0fffeH
	DW	0fffeH
	DW	0fffeH
	DW	0fffeH
	DW	0fffeH
	DW	0fffeH
	DW	0fffeH
	DW	0fffeH
	DW	0886eH
	DW	04f45H
	DW	08887H
	DW	088bfH
	DW	088e6H
	DW	08965H
	DW	0894dH
	DW	05683H
	DW	08954H
	DW	07785H
	DW	07784H
	DW	08bf5H
	DW	08bd9H
	DW	08b9cH
	DW	089f9H
	DW	03eadH
	DW	084a3H
	DW	046f5H
	DW	046cfH
	DW	037f2H
	DW	08a3dH
	DW	08a1cH
	DW	09448H
	DW	05f4dH
	DW	0922bH
	DW	04284H
	DW	065d4H
	DW	07129H
	DW	070c4H
	DW	01845H
	DW	09d6dH
	DW	08c9fH
	DW	08ce9H
	DW	07ddcH
	DW	0599aH
	DW	077c3H
	DW	059f0H
	DW	0436eH
	DW	036d4H
	DW	08e2aH
	DW	08ea7H
	DW	04c09H
	DW	08f30H
	DW	08f4aH
	DW	042f4H
	DW	06c58H
	DW	06fbbH
	DW	02321H
	DW	0489bH
	DW	06f79H
	DW	06e8bH
	DW	017daH
	DW	09be9H
	DW	036b5H
	DW	0492fH
	DW	090bbH
	DW	0fffeH
	DW	05571H
	DW	04906H
	DW	091bbH
	DW	09404H
	DW	08a4bH
	DW	04062H
	DW	08afcH
	DW	09427H
	DW	08c1dH
	DW	08c3bH
	DW	084e5H
	DW	08a2bH
	DW	09599H
	DW	095a7H
	DW	09597H
	DW	09596H
	DW	08d34H
	DW	07445H
	DW	03ec2H
	DW	048ffH
	DW	04a42H
	DW	043eaH
	DW	03ee7H
	DW	03225H
	DW	0968fH
	DW	08ee7H
	DW	08e66H
	DW	08e65H
	DW	03eccH
	DW	049edH
	DW	04a78H
	DW	03feeH
	DW	07412H
	DW	0746bH
	DW	03efcH
	DW	09741H
	DW	090b0H
	DW	06847H
	DW	04a1dH
	DW	09093H
	DW	057dfH
	DW	0fffeH
	DW	09368H
	DW	08989H
	DW	08c26H
	DW	08b2fH
	DW	063beH
	DW	092baH
	DW	05b11H
	DW	08b69H
	DW	0493cH
	DW	073f9H
	DW	0421bH
	DW	0979bH
	DW	09771H
	DW	09938H
	DW	0f26H
	DW	05dc1H
	DW	08bc5H
	DW	04ab2H
	DW	0981fH
	DW	094daH
	DW	092f6H
	DW	095d7H
	DW	091e5H
	DW	044c0H
	DW	08b50H
	DW	04a67H
	DW	08b64H
	DW	098dcH
	DW	08a45H
	DW	03f00H
	DW	0922aH
	DW	04925H
	DW	08414H
	DW	0993bH
	DW	0994dH
	DW	07b06H
	DW	03dfdH
	DW	0999bH
	DW	04b6fH
	DW	099aaH
	DW	09a5cH
	DW	08b65H
	DW	058c8H
	DW	06a8fH
	DW	09a21H
	DW	05afeH
	DW	09a2fH
	DW	098f1H
	DW	04b90H
	DW	09948H
	DW	099bcH
	DW	04bbdH
	DW	04b97H
	DW	0937dH
	DW	05872H
	DW	01302H
	DW	05822H
	DW	049b8H
	DW	0fffeH
	DW	0fffeH
	DW	0fffeH
	DW	0fffeH
	DW	0fffeH
	DW	0fffeH
	DW	0fffeH
	DW	0fffeH
	DW	0fffeH
	DW	0fffeH
	DW	0fffeH
	DW	0fffeH
	DW	0fffeH
	DW	0fffeH
	DW	0fffeH
	DW	0fffeH
	DW	0fffeH
	DW	0fffeH
	DW	0fffeH
	DW	0fffeH
	DW	0fffeH
	DW	0fffeH
	DW	0fffeH
	DW	0fffeH
	DW	0fffeH
	DW	0fffeH
	DW	0fffeH
	DW	0fffeH
	DW	0fffeH
	DW	0fffeH
	DW	0fffeH
	DW	0fffeH
	DW	0fffeH
	DW	0fffeH
	DW	014e8H
	DW	07844H
	DW	0271fH
	DW	03db8H
	DW	068c5H
	DW	03d7dH
	DW	09458H
	DW	03927H
	DW	06150H
	DW	02781H
	DW	0296bH
	DW	06107H
	DW	09c4fH
	DW	09c53H
	DW	09c7bH
	DW	09c35H
	DW	09c10H
	DW	09b7fH
	DW	09bcfH
	DW	09e2dH
	DW	09b9fH
	DW	0a1f5H
	DW	0a0feH
	DW	09d21H
	DW	04caeH
	DW	04104H
	DW	09e18H
	DW	04cb0H
	DW	09d0cH
	DW	0a1b4H
	DW	0a0edH
	DW	0a0f3H
	DW	0992fH
	DW	09da5H
	DW	084bdH
	DW	06e12H
	DW	06fdfH
	DW	06b82H
	DW	085fcH
	DW	04533H
	DW	06da4H
	DW	06e84H
	DW	06df0H
	DW	08420H
	DW	085eeH
	DW	06e00H
	DW	037d7H
	DW	06064H
	DW	079e2H
	DW	0359cH
	DW	03640H
	DW	0492dH
	DW	049deH
	DW	03d62H
	DW	093dbH
	DW	092beH
	DW	09348H
	DW	02bfH
	DW	078b9H
	DW	09277H
	DW	0944dH
	DW	04fe4H
	DW	03440H
	DW	09064H
	DW	0555dH
	DW	0783dH
	DW	07854H
	DW	078b6H
	DW	0784bH
	DW	01757H
	DW	031c9H
	DW	04941H
	DW	0369aH
	DW	04f72H
	DW	06fdaH
	DW	06fd9H
	DW	0fffeH
	DW	0701eH
	DW	05414H
	DW	041b5H
	DW	057bbH
	DW	058f3H
	DW	0578aH
	DW	09d16H
	DW	057d7H
	DW	07134H
	DW	034afH
	DW	041acH
	DW	071ebH
	DW	06c40H
	DW	04f97H
	DW	0fffeH
	DW	017b5H
	DW	08a49H
	DW	0610cH
	DW	05aceH
	DW	05a0bH
	DW	042bcH
	DW	04488H
	DW	0372cH
	DW	04b7bH
	DW	089fcH
	DW	093bbH
	DW	093b8H
	DW	018d6H
	DW	0f1dH
	DW	08472H
	DW	06cc0H
	DW	01413H
	DW	042faH
	DW	02c26H
	DW	043c1H
	DW	05994H
	DW	03db7H
	DW	06741H
	DW	07da8H
	DW	0615bH
	DW	060a4H
	DW	049b9H
	DW	0498bH
	DW	089faH
	DW	092e5H
	DW	073e2H
	DW	03ee9H
	DW	074b4H
	DW	08b63H
	DW	0189fH
	DW	03ee1H
	DW	04ab3H
	DW	06ad8H
	DW	073f3H
	DW	073fbH
	DW	03ed6H
	DW	04a3eH
	DW	04a94H
	DW	017d9H
	DW	04a66H
	DW	03a7H
	DW	01424H
	DW	049e5H
	DW	07448H
	DW	04916H
	DW	070a5H
	DW	04976H
	DW	09284H
	DW	073e6H
	DW	0935fH
	DW	04feH
	DW	09331H
	DW	08aceH
	DW	08a16H
	DW	09386H
	DW	08be7H
	DW	055d5H
	DW	04935H
	DW	08a82H
	DW	0716bH
	DW	0fffeH
	DW	0fffeH
	DW	0fffeH
	DW	0fffeH
	DW	0fffeH
	DW	0fffeH
	DW	0fffeH
	DW	0fffeH
	DW	0fffeH
	DW	0fffeH
	DW	0fffeH
	DW	0fffeH
	DW	0fffeH
	DW	0fffeH
	DW	0fffeH
	DW	0fffeH
	DW	0fffeH
	DW	0fffeH
	DW	0fffeH
	DW	0fffeH
	DW	0fffeH
	DW	0fffeH
	DW	0fffeH
	DW	0fffeH
	DW	0fffeH
	DW	0fffeH
	DW	0fffeH
	DW	0fffeH
	DW	0fffeH
	DW	0fffeH
	DW	0fffeH
	DW	0fffeH
	DW	0fffeH
	DW	0fffeH
	DW	04943H
	DW	0cffH
	DW	056a4H
	DW	061aH
	DW	0bebH
	DW	0cb8H
	DW	05502H
	DW	079c4H
	DW	017faH
	DW	07dfeH
	DW	016c2H
	DW	04a50H
	DW	01852H
	DW	0452eH
	DW	09401H
	DW	0370aH
	DW	08ac0H
	DW	049adH
	DW	059b0H
	DW	018bfH
	DW	01883H
	DW	07484H
	DW	05aa1H
	DW	036e2H
	DW	03d5bH
	DW	036b0H
	DW	0925fH
	DW	05a79H
	DW	08a81H
	DW	01862H
	DW	09374H
	DW	03ccdH
	DW	0ab4H
	DW	04a96H
	DW	0398aH
	DW	050f4H
	DW	03d69H
	DW	03d4cH
	DW	0139cH
	DW	07175H
	DW	042fbH
	DW	08218H
	DW	06e0fH
	DW	090e4H
	DW	044ebH
	DW	06d57H
	DW	07e4fH
	DW	07067H
	DW	06cafH
	DW	03cd6H
	DW	03fedH
	DW	03e2dH
	DW	06e02H
	DW	06f0cH
	DW	03d6fH
	DW	03f5H
	DW	07551H
	DW	036bcH
	DW	034c8H
	DW	04680H
	DW	03edaH
	DW	04871H
	DW	059c4H
	DW	0926eH
	DW	0493eH
	DW	08f41H
	DW	08c1cH
	DW	06bc0H
	DW	05812H
	DW	057c8H
	DW	036d6H
	DW	01452H
	DW	070feH
	DW	04362H
	DW	04a71H
	DW	02fe3H
	DW	012b0H
	DW	023bdH
	DW	068b9H
	DW	06967H
	DW	01398H
	DW	034e5H
	DW	07bf4H
	DW	036dfH
	DW	08a83H
	DW	037d6H
	DW	033faH
	DW	04c9fH
	DW	06a1aH
	DW	036adH
	DW	06cb7H
	DW	0843eH
	DW	044dfH
	DW	044ceH
	DW	06d26H
	DW	06d51H
	DW	06c82H
	DW	06fdeH
	DW	06f17H
	DW	07109H
	DW	0833dH
	DW	0173aH
	DW	083edH
	DW	06c80H
	DW	07053H
	DW	017dbH
	DW	05989H
	DW	05a82H
	DW	017b3H
	DW	05a61H
	DW	05a71H
	DW	01905H
	DW	041fcH
	DW	0372dH
	DW	059efH
	DW	0173cH
	DW	036c7H
	DW	0718eH
	DW	09390H
	DW	0669aH
	DW	042a5H
	DW	05a6eH
	DW	05a2bH
	DW	04293H
	DW	06a2bH
	DW	03ef9H
	DW	07736H
	DW	0445bH
	DW	042caH
	DW	0711dH
	DW	04259H
	DW	089e1H
	DW	04fb0H
	DW	06d28H
	DW	05cc2H
	DW	044ceH
	DW	07e4dH
	DW	043bdH
	DW	06a0cH
	DW	04256H
	DW	01304H
	DW	070a6H
	DW	07133H
	DW	043e9H
	DW	03da5H
	DW	06cdfH
	DW	0f825H
	DW	04a4fH
	DW	07e65H
	DW	059ebH
	DW	05d2fH
	DW	03df3H
	DW	05f5cH
	DW	04a5dH
	DW	017dfH
	DW	07da4H
	DW	08426H
	DW	0fffeH
	DW	0fffeH
	DW	0fffeH
	DW	0fffeH
	DW	0fffeH
	DW	0fffeH
	DW	0fffeH
	DW	0fffeH
	DW	0fffeH
	DW	0fffeH
	DW	0fffeH
	DW	0fffeH
	DW	0fffeH
	DW	0fffeH
	DW	0fffeH
	DW	0fffeH
	DW	0fffeH
	DW	0fffeH
	DW	0fffeH
	DW	0fffeH
	DW	0fffeH
	DW	0fffeH
	DW	0fffeH
	DW	0fffeH
	DW	0fffeH
	DW	0fffeH
	DW	0fffeH
	DW	0fffeH
	DW	0fffeH
	DW	0fffeH
	DW	0fffeH
	DW	0fffeH
	DW	0fffeH
	DW	0fffeH
	DW	05485H
	DW	03afaH
	DW	03300H
	DW	0214H
	DW	0577eH
	DW	08d5H
	DW	0619H
	DW	03fe5H
	DW	01f9eH
	DW	0a2b6H
	DW	07003H
	DW	0915bH
	DW	05d70H
	DW	0738fH
	DW	07cd3H
	DW	08a59H
	DW	09420H
	DW	04fc8H
	DW	07fe7H
	DW	072cdH
	DW	07310H
	DW	07af4H
	DW	07338H
	DW	07339H
	DW	056f6H
	DW	07341H
	DW	07348H
	DW	03ea9H
	DW	07b18H
	DW	0906cH
	DW	071f5H
	DW	048f2H
	DW	073e1H
	DW	081f6H
	DW	03ecaH
	DW	0770cH
	DW	03ed1H
	DW	06ca2H
	DW	056fdH
	DW	07419H
	DW	0741eH
	DW	0741fH
	DW	03ee2H
	DW	03ef0H
	DW	03ef4H
	DW	03efaH
	DW	074d3H
	DW	03f0eH
	DW	03f53H
	DW	07542H
	DW	0756dH
	DW	07572H
	DW	0758dH
	DW	03f7cH
	DW	075c8H
	DW	075dcH
	DW	03fc0H
	DW	0764dH
	DW	03fd7H
	DW	07674H
	DW	03fdcH
	DW	0767aH
	DW	04f5cH
	DW	07188H
	DW	05623H
	DW	08980H
	DW	05869H
	DW	0401dH
	DW	07743H
	DW	04039H
	DW	06761H
	DW	04045H
	DW	035dbH
	DW	07798H
	DW	0406aH
	DW	0406fH
	DW	05c5eH
	DW	077beH
	DW	077cbH
	DW	058f2H
	DW	07818H
	DW	070b9H
	DW	0781cH
	DW	040a8H
	DW	07839H
	DW	07847H
	DW	07851H
	DW	07866H
	DW	08448H
	DW	05535H
	DW	07933H
	DW	06803H
	DW	07932H
	DW	04103H
	DW	04109H
	DW	07991H
	DW	07999H
	DW	08fbbH
	DW	07a06H
	DW	08fbcH
	DW	04167H
	DW	07a91H
	DW	041b2H
	DW	07abcH
	DW	08279H
	DW	041c4H
	DW	07acfH
	DW	07adbH
	DW	041cfH
	DW	04e21H
	DW	07b62H
	DW	07b6cH
	DW	07b7bH
	DW	07c12H
	DW	07c1bH
	DW	04260H
	DW	0427aH
	DW	07c7bH
	DW	07c9cH
	DW	0428cH
	DW	07cb8H
	DW	04294H
	DW	07cedH
	DW	08f93H
	DW	070c0H
	DW	0ccfH
	DW	07dcfH
	DW	07dd4H
	DW	07dd0H
	DW	07dfdH
	DW	07faeH
	DW	07fb4H
	DW	0729fH
	DW	04397H
	DW	08020H
	DW	08025H
	DW	07b39H
	DW	0802eH
	DW	08031H
	DW	08054H
	DW	03dccH
	DW	057b4H
	DW	070a0H
	DW	080b7H
	DW	080e9H
	DW	043edH
	DW	0810cH
	DW	0732aH
	DW	0810eH
	DW	08112H
	DW	07560H
	DW	08114H
	DW	04401H
	DW	03b39H
	DW	08156H
	DW	08159H
	DW	0815aH
	DW	0fffeH
	DW	0fffeH
	DW	0fffeH
	DW	0fffeH
	DW	0fffeH
	DW	0fffeH
	DW	0fffeH
	DW	0fffeH
	DW	0fffeH
	DW	0fffeH
	DW	0fffeH
	DW	0fffeH
	DW	0fffeH
	DW	0fffeH
	DW	0fffeH
	DW	0fffeH
	DW	0fffeH
	DW	0fffeH
	DW	0fffeH
	DW	0fffeH
	DW	0fffeH
	DW	0fffeH
	DW	0fffeH
	DW	0fffeH
	DW	0fffeH
	DW	0fffeH
	DW	0fffeH
	DW	0fffeH
	DW	0fffeH
	DW	0fffeH
	DW	0fffeH
	DW	0fffeH
	DW	0fffeH
	DW	0fffeH
	DW	04413H
	DW	0583aH
	DW	0817cH
	DW	08184H
	DW	04425H
	DW	08193H
	DW	0442dH
	DW	081a5H
	DW	057efH
	DW	081c1H
	DW	081e4H
	DW	08254H
	DW	0448fH
	DW	082a6H
	DW	08276H
	DW	082caH
	DW	082d8H
	DW	082ffH
	DW	044b0H
	DW	08357H
	DW	09669H
	DW	0698aH
	DW	08405H
	DW	070f5H
	DW	08464H
	DW	060e3H
	DW	08488H
	DW	04504H
	DW	084beH
	DW	084e1H
	DW	084f8H
	DW	08510H
	DW	08538H
	DW	08552H
	DW	0453bH
	DW	0856fH
	DW	08570H
	DW	085e0H
	DW	04577H
	DW	08672H
	DW	08692H
	DW	086b2H
	DW	086efH
	DW	09645H
	DW	0878bH
	DW	04606H
	DW	04617H
	DW	088aeH
	DW	088ffH
	DW	08924H
	DW	08947H
	DW	08991H
	DW	07967H
	DW	08a29H
	DW	08a38H
	DW	08a94H
	DW	08ab4H
	DW	08c51H
	DW	08cd4H
	DW	08cf2H
	DW	08d1cH
	DW	04798H
	DW	0585fH
	DW	08dc3H
	DW	047edH
	DW	04eeeH
	DW	08e3aH
	DW	055d8H
	DW	05754H
	DW	08e71H
	DW	055f5H
	DW	08eb0H
	DW	04837H
	DW	08eceH
	DW	08ee2H
	DW	08ee4H
	DW	08eedH
	DW	08ef2H
	DW	08fb7H
	DW	08fc1H
	DW	08fcaH
	DW	08fccH
	DW	09033H
	DW	099c4H
	DW	048adH
	DW	098e0H
	DW	09213H
	DW	0491eH
	DW	09228H
	DW	09258H
	DW	0926bH
	DW	092b1H
	DW	092aeH
	DW	092bfH
	DW	092e3H
	DW	092ebH
	DW	092f3H
	DW	092f4H
	DW	092fdH
	DW	09343H
	DW	09384H
	DW	093adH
	DW	04945H
	DW	04951H
	DW	09ebfH
	DW	09417H
	DW	05301H
	DW	0941dH
	DW	0942dH
	DW	0943eH
	DW	0496aH
	DW	09454H
	DW	09479H
	DW	0952dH
	DW	095a2H
	DW	049a7H
	DW	095f4H
	DW	09633H
	DW	049e5H
	DW	067a0H
	DW	04a24H
	DW	09740H
	DW	04a35H
	DW	097b2H
	DW	097c2H
	DW	05654H
	DW	04ae4H
	DW	060e8H
	DW	098b9H
	DW	04b19H
	DW	098f1H
	DW	05844H
	DW	0990eH
	DW	09919H
	DW	051b4H
	DW	0991cH
	DW	09937H
	DW	09942H
	DW	0995dH
	DW	09962H
	DW	04b70H
	DW	099c5H
	DW	04b9dH
	DW	09a3cH
	DW	09b0fH
	DW	07a83H
	DW	09b69H
	DW	09b81H
	DW	09bddH
	DW	09bf1H
	DW	09bf4H
	DW	04c6dH
	DW	09c20H
	DW	0376fH
	DW	01bc2H
	DW	09d49H
	DW	09c3aH
	DW	0fffeH
	DW	0fffeH
	DW	0fffeH
	DW	0fffeH
	DW	0fffeH
	DW	0fffeH
	DW	0fffeH
	DW	0fffeH
	DW	0fffeH
	DW	0fffeH
	DW	0fffeH
	DW	0fffeH
	DW	0fffeH
	DW	0fffeH
	DW	0fffeH
	DW	0fffeH
	DW	0fffeH
	DW	0fffeH
	DW	0fffeH
	DW	0fffeH
	DW	0fffeH
	DW	0fffeH
	DW	0fffeH
	DW	0fffeH
	DW	0fffeH
	DW	0fffeH
	DW	0fffeH
	DW	0fffeH
	DW	0fffeH
	DW	0fffeH
	DW	0fffeH
	DW	0fffeH
	DW	0fffeH
	DW	0fffeH
	DW	09efeH
	DW	05650H
	DW	09d93H
	DW	09dbdH
	DW	09dc0H
	DW	09dfcH
	DW	094f6H
	DW	08fb6H
	DW	09e7bH
	DW	09eacH
	DW	09eb1H
	DW	09ebdH
	DW	09ec6H
	DW	094dcH
	DW	09ee2H
	DW	09ef1H
	DW	09ef8H
	DW	07ac8H
	DW	09f44H
	DW	094H
	DW	02b7H
	DW	03a0H
	DW	0691aH
	DW	094c3H
	DW	059acH
	DW	04d7H
	DW	05840H
	DW	094c1H
	DW	037b9H
	DW	05d5H
	DW	0615H
	DW	0676H
	DW	016baH
	DW	05757H
	DW	07173H
	DW	0ac2H
	DW	0acdH
	DW	0bbfH
	DW	0546aH
	DW	0f83bH
	DW	0bcbH
	DW	0549eH
	DW	0bfbH
	DW	0c3bH
	DW	0c53H
	DW	0c65H
	DW	0c7cH
	DW	060e7H
	DW	0c8dH
	DW	0567aH
	DW	0cb5H
	DW	0cddH
	DW	0cedH
	DW	0d6fH
	DW	0db2H
	DW	0dc8H
	DW	06955H
	DW	09c2fH
	DW	087a5H
	DW	0e04H
	DW	0e0eH
	DW	0ed7H
	DW	0f90H
	DW	0f2dH
	DW	0e73H
	DW	05c20H
	DW	0fbcH
	DW	05e0bH
	DW	0105cH
	DW	0104fH
	DW	01076H
	DW	0671eH
	DW	0107bH
	DW	01088H
	DW	01096H
	DW	03647H
	DW	010bfH
	DW	010d3H
	DW	0112fH
	DW	0113bH
	DW	05364H
	DW	084adH
	DW	012e3H
	DW	01375H
	DW	01336H
	DW	08b81H
	DW	01577H
	DW	01619H
	DW	017c3H
	DW	017c7H
	DW	04e78H
	DW	070bbH
	DW	0182dH
	DW	0196aH
	DW	01a2dH
	DW	01a45H
	DW	01c2aH
	DW	01c70H
	DW	01cacH
	DW	01ec8H
	DW	062c3H
	DW	01ed5H
	DW	01f15H
	DW	07198H
	DW	06855H
	DW	02045H
	DW	069e9H
	DW	036c8H
	DW	0227cH
	DW	023d7H
	DW	023faH
	DW	0272aH
	DW	02871H
	DW	0294fH
	DW	082fdH
	DW	02967H
	DW	02993H
	DW	02ad5H
	DW	089a5H
	DW	02ae8H
	DW	08fa0H
	DW	02b0eH
	DW	097b8H
	DW	02b3fH
	DW	09847H
	DW	09abdH
	DW	02c4cH
	DW	0fffeH
	DW	02c88H
	DW	02cb7H
	DW	05be8H
	DW	02d08H
	DW	02d12H
	DW	02db7H
	DW	02d95H
	DW	02e42H
	DW	02f74H
	DW	02fccH
	DW	03033H
	DW	03066H
	DW	0331fH
	DW	033deH
	DW	05fb1H
	DW	06648H
	DW	066bfH
	DW	07a79H
	DW	03567H
	DW	035f3H
	DW	0fffeH
	DW	049baH
	DW	0fffeH
	DW	0361aH
	DW	03716H
	DW	0fffeH
	DW	0346H
	DW	058b5H
	DW	0670eH
	DW	0fffeH
	DW	0fffeH
	DW	0fffeH
	DW	0fffeH
	DW	0fffeH
	DW	0fffeH
	DW	0fffeH
	DW	0fffeH
	DW	0fffeH
	DW	0fffeH
	DW	0fffeH
	DW	0fffeH
	DW	0fffeH
	DW	0fffeH
	DW	0fffeH
	DW	0fffeH
	DW	0fffeH
	DW	0fffeH
	DW	0fffeH
	DW	0fffeH
	DW	0fffeH
	DW	0fffeH
	DW	0fffeH
	DW	0fffeH
	DW	0fffeH
	DW	0fffeH
	DW	0fffeH
	DW	0fffeH
	DW	0fffeH
	DW	0fffeH
	DW	0fffeH
	DW	0fffeH
	DW	0fffeH
	DW	0fffeH
	DW	06918H
	DW	03aa7H
	DW	07657H
	DW	05fe2H
	DW	03e11H
	DW	03eb9H
	DW	075feH
	DW	0209aH
	DW	048d0H
	DW	04ab8H
	DW	04119H
	DW	08a9aH
	DW	042eeH
	DW	0430dH
	DW	0403bH
	DW	04334H
	DW	04396H
	DW	04a45H
	DW	05caH
	DW	051d2H
	DW	0611H
	DW	0599fH
	DW	01ea8H
	DW	03bbeH
	DW	03cffH
	DW	04404H
	DW	044d6H
	DW	05788H
	DW	04674H
	DW	0399bH
	DW	0472fH
	DW	085e8H
	DW	099c9H
	DW	03762H
	DW	021c3H
	DW	08b5eH
	DW	08b4eH
	DW	0fffeH
	DW	04812H
	DW	048fbH
	DW	04a15H
	DW	07209H
	DW	04ac0H
	DW	0c78H
	DW	05965H
	DW	04ea5H
	DW	04f86H
	DW	0779H
	DW	08edaH
	DW	0502cH
	DW	0528fH
	DW	0573fH
	DW	07171H
	DW	05299H
	DW	05419H
	DW	03f4aH
	DW	04aa7H
	DW	055bcH
	DW	05446H
	DW	0546eH
	DW	06b52H
	DW	0fffeH
	DW	03473H
	DW	0553fH
	DW	07632H
	DW	0555eH
	DW	04718H
	DW	05562H
	DW	05566H
	DW	057c7H
	DW	0493fH
	DW	0585dH
	DW	05066H
	DW	034fbH
	DW	033ccH
	DW	0fffeH
	DW	05903H
	DW	0477cH
	DW	08948H
	DW	05aaeH
	DW	05b89H
	DW	05c06H
	DW	01d90H
	DW	057a1H
	DW	07151H
	DW	0fffeH
	DW	06102H
	DW	07c12H
	DW	09056H
	DW	061b2H
	DW	04f9aH
	DW	08b62H
	DW	06402H
	DW	0644aH
	DW	05d5bH
	DW	06bf7H
	DW	0fffeH
	DW	06484H
	DW	0191cH
	DW	08aeaH
	DW	049f6H
	DW	06488H
	DW	03fefH
	DW	06512H
	DW	04bc0H
	DW	065bfH
	DW	066b5H
	DW	0271bH
	DW	09465H
	DW	057e1H
	DW	06195H
	DW	05a27H
	DW	0f8cdH
	DW	0fffeH
	DW	056b9H
	DW	04521H
	DW	066fcH
	DW	04e6aH
	DW	04934H
	DW	09656H
	DW	06d8fH
	DW	06cbdH
	DW	03618H
	DW	08977H
	DW	06799H
	DW	0686eH
	DW	06411H
	DW	0685eH
	DW	0fffeH
	DW	068c7H
	DW	07b42H
	DW	090c0H
	DW	0a11H
	DW	06926H
	DW	0fffeH
	DW	06939H
	DW	07a45H
	DW	0fffeH
	DW	069faH
	DW	09a26H
	DW	06a2dH
	DW	0365fH
	DW	06469H
	DW	021H
	DW	07983H
	DW	06a34H
	DW	06b5bH
	DW	05d2cH
	DW	03519H
	DW	0fffeH
	DW	06b9dH
	DW	046d0H
	DW	06ca4H
	DW	0753bH
	DW	08865H
	DW	06daeH
	DW	058b6H
	DW	0fffeH
	DW	0fffeH
	DW	0fffeH
	DW	0fffeH
	DW	0fffeH
	DW	0fffeH
	DW	0fffeH
	DW	0fffeH
	DW	0fffeH
	DW	0fffeH
	DW	0fffeH
	DW	0fffeH
	DW	0fffeH
	DW	0fffeH
	DW	0fffeH
	DW	0fffeH
	DW	0fffeH
	DW	0fffeH
	DW	0fffeH
	DW	0fffeH
	DW	0fffeH
	DW	0fffeH
	DW	0fffeH
	DW	0fffeH
	DW	0fffeH
	DW	0fffeH
	DW	0fffeH
	DW	0fffeH
	DW	0fffeH
	DW	0fffeH
	DW	0fffeH
	DW	0fffeH
	DW	0fffeH
	DW	0fffeH
	DW	0371cH
	DW	0258dH
	DW	0704bH
	DW	071cdH
	DW	03c54H
	DW	07280H
	DW	07285H
	DW	09281H
	DW	0217aH
	DW	0728bH
	DW	09330H
	DW	072e6H
	DW	049d0H
	DW	06c39H
	DW	0949fH
	DW	07450H
	DW	0ef8H
	DW	08827H
	DW	088f5H
	DW	02926H
	DW	08473H
	DW	017b1H
	DW	06eb8H
	DW	04a2aH
	DW	01820H
	DW	039a4H
	DW	036b9H
	DW	0fffeH
	DW	0fffeH
	DW	0453fH
	DW	066b6H
	DW	09cadH
	DW	098a4H
	DW	08943H
	DW	077ccH
	DW	07858H
	DW	056d6H
	DW	040dfH
	DW	0160aH
	DW	039a1H
	DW	0372fH
	DW	080e8H
	DW	013c5H
	DW	071adH
	DW	08366H
	DW	079ddH
	DW	091a8H
	DW	0fffeH
	DW	04cb7H
	DW	070afH
	DW	089abH
	DW	079fdH
	DW	07a0aH
	DW	07b0bH
	DW	07d66H
	DW	0417aH
	DW	07b43H
	DW	0797eH
	DW	08009H
	DW	06fb5H
	DW	0a2dfH
	DW	06a03H
	DW	08318H
	DW	053a2H
	DW	06e07H
	DW	093bfH
	DW	06836H
	DW	0975dH
	DW	0816fH
	DW	08023H
	DW	069b5H
	DW	013edH
	DW	0322fH
	DW	08048H
	DW	05d85H
	DW	08c30H
	DW	08083H
	DW	05715H
	DW	09823H
	DW	08949H
	DW	05dabH
	DW	04988H
	DW	065beH
	DW	069d5H
	DW	053d2H
	DW	04aa5H
	DW	03f81H
	DW	03c11H
	DW	06736H
	DW	08090H
	DW	080f4H
	DW	0812eH
	DW	01fa1H
	DW	0814fH
	DW	08189H
	DW	081afH
	DW	0821aH
	DW	08306H
	DW	0832fH
	DW	0838aH
	DW	035caH
	DW	08468H
	DW	086aaH
	DW	048faH
	DW	063e6H
	DW	08956H
	DW	07808H
	DW	09255H
	DW	089b8H
	DW	043f2H
	DW	089e7H
	DW	043dfH
	DW	089e8H
	DW	08b46H
	DW	08bd4H
	DW	059f8H
	DW	08c09H
	DW	0fffeH
	DW	08fc5H
	DW	090ecH
	DW	0fffeH
	DW	09110H
	DW	0913cH
	DW	03df7H
	DW	0915eH
	DW	04acaH
	DW	08fd0H
	DW	0728fH
	DW	0568bH
	DW	094e7H
	DW	095e9H
	DW	095b0H
	DW	095b8H
	DW	09732H
	DW	098d1H
	DW	09949H
	DW	0996aH
	DW	099c3H
	DW	09a28H
	DW	09b0eH
	DW	09d5aH
	DW	09d9bH
	DW	07e9fH
	DW	09ef8H
	DW	09f23H
	DW	04ca4H
	DW	09547H
	DW	0a293H
	DW	071a2H
	DW	0a2ffH
	DW	04d91H
	DW	09012H
	DW	0a5cbH
	DW	04d9cH
	DW	0c9cH
	DW	08fbeH
	DW	055c1H
	DW	0fffeH
	DW	0fffeH
	DW	0fffeH
	DW	0fffeH
	DW	0fffeH
	DW	0fffeH
	DW	0fffeH
	DW	0fffeH
	DW	0fffeH
	DW	0fffeH
	DW	0fffeH
	DW	0fffeH
	DW	0fffeH
	DW	0fffeH
	DW	0fffeH
	DW	0fffeH
	DW	0fffeH
	DW	0fffeH
	DW	0fffeH
	DW	0fffeH
	DW	0fffeH
	DW	0fffeH
	DW	0fffeH
	DW	0fffeH
	DW	0fffeH
	DW	0fffeH
	DW	0fffeH
	DW	0fffeH
	DW	0fffeH
	DW	0fffeH
	DW	0fffeH
	DW	0fffeH
	DW	0fffeH
	DW	0fffeH
	DW	08fbaH
	DW	024b0H
	DW	08fb9H
	DW	04a93H
	DW	04509H
	DW	07e7fH
	DW	06f56H
	DW	06ab1H
	DW	04eeaH
	DW	034e4H
	DW	08b2cH
	DW	0789dH
	DW	0373aH
	DW	08e80H
	DW	017f5H
	DW	08024H
	DW	08b6cH
	DW	08b99H
	DW	07a3eH
	DW	066afH
	DW	03debH
	DW	07655H
	DW	03cb7H
	DW	05635H
	DW	05956H
	DW	04e9aH
	DW	05e81H
	DW	06258H
	DW	056bfH
	DW	0e6dH
	DW	08e0eH
	DW	05b6dH
	DW	03e88H
	DW	04c9eH
	DW	063deH
	DW	0fffeH
	DW	017f6H
	DW	0187bH
	DW	06530H
	DW	0562dH
	DW	05c4aH
	DW	0541aH
	DW	05311H
	DW	03dc6H
	DW	09d98H
	DW	04c7dH
	DW	05622H
	DW	0561eH
	DW	07f49H
	DW	05ed8H
	DW	05975H
	DW	03d40H
	DW	08770H
	DW	04e1cH
	DW	0feaH
	DW	0d49H
	DW	036baH
	DW	08117H
	DW	09d5eH
	DW	08d18H
	DW	0763bH
	DW	09c45H
	DW	0764eH
	DW	077b9H
	DW	09345H
	DW	05432H
	DW	08148H
	DW	082f7H
	DW	05625H
	DW	08132H
	DW	08418H
	DW	080bdH
	DW	055eaH
	DW	07962H
	DW	05643H
	DW	05416H
	DW	0e9dH
	DW	035ceH
	DW	05605H
	DW	055f1H
	DW	066f1H
	DW	082e2H
	DW	0362dH
	DW	07534H
	DW	055f0H
	DW	055baH
	DW	05497H
	DW	05572H
	DW	0c41H
	DW	0c96H
	DW	05ed0H
	DW	05148H
	DW	0e76H
	DW	02c62H
	DW	0ea2H
	DW	09eabH
	DW	07d5aH
	DW	055deH
	DW	01075H
	DW	0629dH
	DW	0976dH
	DW	05494H
	DW	08ccdH
	DW	071f6H
	DW	09176H
	DW	063fcH
	DW	063b9H
	DW	063feH
	DW	05569H
	DW	02b43H
	DW	09c72H
	DW	02eb3H
	DW	0519aH
	DW	034dfH
	DW	0da7H
	DW	051a7H
	DW	0544dH
	DW	0551eH
	DW	05513H
	DW	07666H
	DW	08e2dH
	DW	0688aH
	DW	075b1H
	DW	080b6H
	DW	08804H
	DW	08786H
	DW	088c7H
	DW	081b6H
	DW	0841cH
	DW	010c1H
	DW	044ecH
	DW	07304H
	DW	04706H
	DW	05b90H
	DW	0830bH
	DW	06893H
	DW	0567bH
	DW	026f4H
	DW	07d2fH
	DW	041a3H
	DW	07d73H
	DW	06ed0H
	DW	072b6H
	DW	09170H
	DW	011d9H
	DW	09208H
	DW	03cfcH
	DW	0a6a9H
	DW	0eacH
	DW	0ef9H
	DW	07266H
	DW	01ca2H
	DW	0474eH
	DW	04fc2H
	DW	07ff9H
	DW	0febH
	DW	040faH
	DW	0fffeH
	DW	0fffeH
	DW	0fffeH
	DW	0fffeH
	DW	0fffeH
	DW	0fffeH
	DW	0fffeH
	DW	0fffeH
	DW	0fffeH
	DW	0fffeH
	DW	0fffeH
	DW	0fffeH
	DW	0fffeH
	DW	0fffeH
	DW	0fffeH
	DW	0fffeH
	DW	0fffeH
	DW	0fffeH
	DW	0fffeH
	DW	0fffeH
	DW	0fffeH
	DW	0fffeH
	DW	0fffeH
	DW	0fffeH
	DW	0fffeH
	DW	0fffeH
	DW	0fffeH
	DW	0fffeH
	DW	0fffeH
	DW	0fffeH
	DW	0fffeH
	DW	0fffeH
	DW	0fffeH
	DW	0fffeH
	DW	09c5dH
	DW	0651fH
	DW	02da0H
	DW	048f3H
	DW	047e0H
	DW	09d7cH
	DW	0fecH
	DW	0e0aH
	DW	0fffeH
	DW	075a3H
	DW	0fedH
	DW	0fffeH
	DW	06048H
	DW	01187H
	DW	071a3H
	DW	07e8eH
	DW	09d50H
	DW	04e1aH
	DW	04e04H
	DW	03577H
	DW	05b0dH
	DW	06cb2H
	DW	05367H
	DW	036acH
	DW	039dcH
	DW	0537dH
	DW	036a5H
	DW	04618H
	DW	0589aH
	DW	04b6eH
	DW	0822dH
	DW	0544bH
	DW	057aaH
	DW	05a95H
	DW	0979H
	DW	0fffeH
	DW	03a52H
	DW	02465H
	DW	07374H
	DW	09eacH
	DW	04d09H
	DW	09bedH
	DW	03cfeH
	DW	09f30H
	DW	04c5bH
	DW	04fa9H
	DW	0959eH
	DW	09fdeH
	DW	0845cH
	DW	03db6H
	DW	072b2H
	DW	067b3H
	DW	03720H
	DW	0632eH
	DW	07d25H
	DW	03ef7H
	DW	03e2cH
	DW	03a2aH
	DW	09008H
	DW	052ccH
	DW	03e74H
	DW	0367aH
	DW	045e9H
	DW	048eH
	DW	07640H
	DW	05af0H
	DW	0eb6H
	DW	0787aH
	DW	07f2eH
	DW	058a7H
	DW	040bfH
	DW	0567cH
	DW	09b8bH
	DW	05d74H
	DW	07654H
	DW	0a434H
	DW	09e85H
	DW	04ce1H
	DW	0fffeH
	DW	037fbH
	DW	06119H
	DW	030daH
	DW	043f2H
	DW	0fffeH
	DW	0565dH
	DW	012a9H
	DW	057a7H
	DW	04963H
	DW	09e06H
	DW	05234H
	DW	070aeH
	DW	035adH
	DW	0fffeH
	DW	09d7cH
	DW	07c56H
	DW	09b39H
	DW	057deH
	DW	0176cH
	DW	05c53H
	DW	064d3H
	DW	094d0H
	DW	06335H
	DW	07164H
	DW	086adH
	DW	0d28H
	DW	06d22H
	DW	04ae2H
	DW	0d71H
	DW	0fffeH
	DW	051feH
	DW	01f0fH
	DW	05d8eH
	DW	09703H
	DW	01dd1H
	DW	09e81H
	DW	0904cH
	DW	07b1fH
	DW	09b02H
	DW	05cd1H
	DW	07ba3H
	DW	06268H
	DW	06335H
	DW	09affH
	DW	07bcfH
	DW	09b2aH
	DW	07c7eH
	DW	0fffeH
	DW	07c42H
	DW	07c86H
	DW	09c15H
	DW	07bfcH
	DW	09b09H
	DW	0fffeH
	DW	09c1bH
	DW	0493eH
	DW	09f5aH
	DW	05573H
	DW	05bc3H
	DW	04ffdH
	DW	09e98H
	DW	04ff2H
	DW	05260H
	DW	03e06H
	DW	052d1H
	DW	05767H
	DW	05056H
	DW	059b7H
	DW	05e12H
	DW	097c8H
	DW	09dabH
	DW	08f5cH
	DW	05469H
	DW	097b4H
	DW	09940H
	DW	097baH
	DW	0532cH
	DW	06130H
	DW	0fffeH
	DW	0fffeH
	DW	0fffeH
	DW	0fffeH
	DW	0fffeH
	DW	0fffeH
	DW	0fffeH
	DW	0fffeH
	DW	0fffeH
	DW	0fffeH
	DW	0fffeH
	DW	0fffeH
	DW	0fffeH
	DW	0fffeH
	DW	0fffeH
	DW	0fffeH
	DW	0fffeH
	DW	0fffeH
	DW	0fffeH
	DW	0fffeH
	DW	0fffeH
	DW	0fffeH
	DW	0fffeH
	DW	0fffeH
	DW	0fffeH
	DW	0fffeH
	DW	0fffeH
	DW	0fffeH
	DW	0fffeH
	DW	0fffeH
	DW	0fffeH
	DW	0fffeH
	DW	0fffeH
	DW	0fffeH
	DW	0692cH
	DW	053daH
	DW	09c0aH
	DW	09d02H
	DW	04c3bH
	DW	09641H
	DW	06980H
	DW	050a6H
	DW	07546H
	DW	0176dH
	DW	099daH
	DW	05273H
	DW	0fffeH
	DW	09159H
	DW	09681H
	DW	0915cH
	DW	0fffeH
	DW	09151H
	DW	08e97H
	DW	0637fH
	DW	06d23H
	DW	06acaH
	DW	05611H
	DW	0918eH
	DW	0757aH
	DW	06285H
	DW	03fcH
	DW	0734fH
	DW	07c70H
	DW	05c21H
	DW	03cfdH
	DW	0fffeH
	DW	04919H
	DW	076d6H
	DW	09b9dH
	DW	04e2aH
	DW	0cd4H
	DW	083beH
	DW	08842H
	DW	0fffeH
	DW	05c4aH
	DW	069c0H
	DW	0fffeH
	DW	0577aH
	DW	0521fH
	DW	05df5H
	DW	04eceH
	DW	06c31H
	DW	01f2H
	DW	04f39H
	DW	0549cH
	DW	054daH
	DW	0529aH
	DW	08d82H
	DW	035feH
	DW	0fffeH
	DW	035f3H
	DW	0fffeH
	DW	06b52H
	DW	0917cH
	DW	09fa5H
	DW	09b97H
	DW	0982eH
	DW	098b4H
	DW	09abaH
	DW	09ea8H
	DW	09e84H
	DW	0717aH
	DW	07b14H
	DW	0fffeH
	DW	06bfaH
	DW	08818H
	DW	07f78H
	DW	0fffeH
	DW	05620H
	DW	0a64aH
	DW	08e77H
	DW	09f53H
	DW	0fffeH
	DW	08dd4H
	DW	08e4fH
	DW	09e1cH
	DW	08e01H
	DW	06282H
	DW	0837dH
	DW	08e28H
	DW	08e75H
	DW	07ad3H
	DW	04a77H
	DW	07a3eH
	DW	078d8H
	DW	06ceaH
	DW	08a67H
	DW	07607H
	DW	08a5aH
	DW	09f26H
	DW	06cceH
	DW	087d6H
	DW	075c3H
	DW	0a2b2H
	DW	07853H
	DW	0f840H
	DW	08d0cH
	DW	072e2H
	DW	07371H
	DW	08b2dH
	DW	07302H
	DW	074f1H
	DW	08cebH
	DW	04abbH
	DW	0862fH
	DW	05fbaH
	DW	088a0H
	DW	044b7H
	DW	0fffeH
	DW	0183bH
	DW	06e05H
	DW	0fffeH
	DW	08a7eH
	DW	0251bH
	DW	0fffeH
	DW	060fdH
	DW	07667H
	DW	09ad7H
	DW	09d44H
	DW	0936eH
	DW	09b8fH
	DW	087f5H
	DW	0fffeH
	DW	0fffeH
	DW	08cf7H
	DW	0732cH
	DW	09721H
	DW	09bb0H
	DW	035d6H
	DW	072b2H
	DW	04c07H
	DW	07c51H
	DW	0994aH
	DW	06159H
	DW	06159H
	DW	04c04H
	DW	09e96H
	DW	0617dH
	DW	0fffeH
	DW	0575fH
	DW	0616fH
	DW	062a6H
	DW	06239H
	DW	0fffeH
	DW	03a5cH
	DW	061e2H
	DW	053aaH
	DW	033f5H
	DW	06364H
	DW	06802H
	DW	035d2H
	DW	0fffeH
	DW	0fffeH
	DW	0fffeH
	DW	0fffeH
	DW	0fffeH
	DW	0fffeH
	DW	0fffeH
	DW	0fffeH
	DW	0fffeH
	DW	0fffeH
	DW	0fffeH
	DW	0fffeH
	DW	0fffeH
	DW	0fffeH
	DW	0fffeH
	DW	0fffeH
	DW	0fffeH
	DW	0fffeH
	DW	0fffeH
	DW	0fffeH
	DW	0fffeH
	DW	0fffeH
	DW	0fffeH
	DW	0fffeH
	DW	0fffeH
	DW	0fffeH
	DW	0fffeH
	DW	0fffeH
	DW	0fffeH
	DW	0fffeH
	DW	0fffeH
	DW	0fffeH
	DW	0fffeH
	DW	0fffeH
	DW	05d57H
	DW	08bc2H
	DW	08fdaH
	DW	08e39H
	DW	0fffeH
	DW	050d9H
	DW	01d46H
	DW	07906H
	DW	05332H
	DW	09638H
	DW	0f3bH
	DW	04065H
	DW	0fffeH
	DW	077feH
	DW	0fffeH
	DW	07cc2H
	DW	05f1aH
	DW	07cdaH
	DW	07a2dH
	DW	08066H
	DW	08063H
	DW	07d4dH
	DW	07505H
	DW	074f2H
	DW	08994H
	DW	0821aH
	DW	0670cH
	DW	08062H
	DW	07486H
	DW	0805bH
	DW	074f0H
	DW	08103H
	DW	07724H
	DW	08989H
	DW	067ccH
	DW	07553H
	DW	06ed1H
	DW	087a9H
	DW	087ceH
	DW	081c8H
	DW	0878cH
	DW	08a49H
	DW	08cadH
	DW	08b43H
	DW	0772bH
	DW	074f8H
	DW	084daH
	DW	03635H
	DW	069b2H
	DW	08da6H
	DW	0fffeH
	DW	089a9H
	DW	0fffeH
	DW	06db9H
	DW	087c1H
	DW	04011H
	DW	074e7H
	DW	03ddbH
	DW	07176H
	DW	060a4H
	DW	0619cH
	DW	03cd1H
	DW	0fffeH
	DW	06077H
	DW	0fffeH
	DW	07f71H
	DW	08b2dH
	DW	0fffeH
	DW	060e9H
	DW	04b7eH
	DW	05220H
	DW	03c18H
	DW	03cc7H
	DW	05ed7H
	DW	07656H
	DW	05531H
	DW	01944H
	DW	012feH
	DW	09903H
	DW	06ddcH
	DW	070adH
	DW	05cc1H
	DW	061adH
	DW	08a0fH
	DW	03677H
	DW	0eeH
	DW	06846H
	DW	04f0eH
	DW	04562H
	DW	05b1fH
	DW	0634cH
	DW	09f50H
	DW	09ea6H
	DW	0626bH
	DW	02460H
	DW	02461H
	DW	02462H
	DW	02463H
	DW	02464H
	DW	02465H
	DW	02466H
	DW	02467H
	DW	02468H
	DW	02469H
	DW	02474H
	DW	02475H
	DW	02476H
	DW	02477H
	DW	02478H
	DW	02479H
	DW	0247aH
	DW	0247bH
	DW	0247cH
	DW	0247dH
	DW	02170H
	DW	02171H
	DW	02172H
	DW	02173H
	DW	02174H
	DW	02175H
	DW	02176H
	DW	02177H
	DW	02178H
	DW	02179H
	DW	04e36H
	DW	04e3fH
	DW	04e85H
	DW	04ea0H
	DW	05182H
	DW	05196H
	DW	051abH
	DW	052f9H
	DW	05338H
	DW	05369H
	DW	053b6H
	DW	0590aH
	DW	05b80H
	DW	05ddbH
	DW	02f33H
	DW	05e7fH
	DW	0fffeH
	DW	05f50H
	DW	05f61H
	DW	06534H
	DW	0fffeH
	DW	07592H
	DW	0fffeH
	DW	08fb5H
	DW	0fffeH
	DW	0a8H
	DW	02c6H
	DW	030fdH
	DW	030feH
	DW	0309dH
	DW	0309eH
	DW	0fffeH
	DW	0fffeH
	DW	03005H
	DW	03006H
	DW	03007H
	DW	030fcH
	DW	0ff3bH
	DW	0ff3dH
	DW	0273dH
	DW	03041H
	DW	03042H
	DW	03043H
	DW	03044H
	DW	03045H
	DW	03046H
	DW	03047H
	DW	03048H
	DW	03049H
	DW	0304aH
	DW	0304bH
	DW	0304cH
	DW	0304dH
	DW	0304eH
	DW	0304fH
	DW	03050H
	DW	03051H
	DW	03052H
	DW	03053H
	DW	03054H
	DW	03055H
	DW	03056H
	DW	03057H
	DW	03058H
	DW	03059H
	DW	0305aH
	DW	0305bH
	DW	0305cH
	DW	0305dH
	DW	0305eH
	DW	0305fH
	DW	03060H
	DW	03061H
	DW	03062H
	DW	03063H
	DW	03064H
	DW	03065H
	DW	03066H
	DW	03067H
	DW	03068H
	DW	03069H
	DW	0306aH
	DW	0306bH
	DW	0306cH
	DW	0306dH
	DW	0306eH
	DW	0306fH
	DW	03070H
	DW	03071H
	DW	03072H
	DW	03073H
	DW	03074H
	DW	03075H
	DW	03076H
	DW	03077H
	DW	03078H
	DW	03079H
	DW	0307aH
	DW	0307bH
	DW	0307cH
	DW	0307dH
	DW	0307eH
	DW	0307fH
	DW	03080H
	DW	03081H
	DW	03082H
	DW	03083H
	DW	03084H
	DW	03085H
	DW	03086H
	DW	03087H
	DW	03088H
	DW	03089H
	DW	0308aH
	DW	0308bH
	DW	0308cH
	DW	0308dH
	DW	0308eH
	DW	0308fH
	DW	03090H
	DW	03091H
	DW	03092H
	DW	03093H
	DW	030a1H
	DW	030a2H
	DW	030a3H
	DW	030a4H
	DW	0fffeH
	DW	0fffeH
	DW	0fffeH
	DW	0fffeH
	DW	0fffeH
	DW	0fffeH
	DW	0fffeH
	DW	0fffeH
	DW	0fffeH
	DW	0fffeH
	DW	0fffeH
	DW	0fffeH
	DW	0fffeH
	DW	0fffeH
	DW	0fffeH
	DW	0fffeH
	DW	0fffeH
	DW	0fffeH
	DW	0fffeH
	DW	0fffeH
	DW	0fffeH
	DW	0fffeH
	DW	0fffeH
	DW	0fffeH
	DW	0fffeH
	DW	0fffeH
	DW	0fffeH
	DW	0fffeH
	DW	0fffeH
	DW	0fffeH
	DW	0fffeH
	DW	0fffeH
	DW	0fffeH
	DW	0fffeH
	DW	030a5H
	DW	030a6H
	DW	030a7H
	DW	030a8H
	DW	030a9H
	DW	030aaH
	DW	030abH
	DW	030acH
	DW	030adH
	DW	030aeH
	DW	030afH
	DW	030b0H
	DW	030b1H
	DW	030b2H
	DW	030b3H
	DW	030b4H
	DW	030b5H
	DW	030b6H
	DW	030b7H
	DW	030b8H
	DW	030b9H
	DW	030baH
	DW	030bbH
	DW	030bcH
	DW	030bdH
	DW	030beH
	DW	030bfH
	DW	030c0H
	DW	030c1H
	DW	030c2H
	DW	030c3H
	DW	030c4H
	DW	030c5H
	DW	030c6H
	DW	030c7H
	DW	030c8H
	DW	030c9H
	DW	030caH
	DW	030cbH
	DW	030ccH
	DW	030cdH
	DW	030ceH
	DW	030cfH
	DW	030d0H
	DW	030d1H
	DW	030d2H
	DW	030d3H
	DW	030d4H
	DW	030d5H
	DW	030d6H
	DW	030d7H
	DW	030d8H
	DW	030d9H
	DW	030daH
	DW	030dbH
	DW	030dcH
	DW	030ddH
	DW	030deH
	DW	030dfH
	DW	030e0H
	DW	030e1H
	DW	030e2H
	DW	030e3H
	DW	030e4H
	DW	030e5H
	DW	030e6H
	DW	030e7H
	DW	030e8H
	DW	030e9H
	DW	030eaH
	DW	030ebH
	DW	030ecH
	DW	030edH
	DW	030eeH
	DW	030efH
	DW	030f0H
	DW	030f1H
	DW	030f2H
	DW	030f3H
	DW	030f4H
	DW	030f5H
	DW	030f6H
	DW	0410H
	DW	0411H
	DW	0412H
	DW	0413H
	DW	0414H
	DW	0415H
	DW	0401H
	DW	0416H
	DW	0417H
	DW	0418H
	DW	0419H
	DW	041aH
	DW	041bH
	DW	041cH
	DW	041dH
	DW	041eH
	DW	041fH
	DW	0420H
	DW	0421H
	DW	0422H
	DW	0423H
	DW	0424H
	DW	0425H
	DW	0426H
	DW	0427H
	DW	0428H
	DW	0429H
	DW	042aH
	DW	042bH
	DW	042cH
	DW	042dH
	DW	042eH
	DW	042fH
	DW	0430H
	DW	0431H
	DW	0432H
	DW	0433H
	DW	0434H
	DW	0435H
	DW	0451H
	DW	0436H
	DW	0437H
	DW	0438H
	DW	0439H
	DW	043aH
	DW	043bH
	DW	043cH
	DW	043dH
	DW	043eH
	DW	043fH
	DW	0440H
	DW	0441H
	DW	0442H
	DW	0443H
	DW	0444H
	DW	0445H
	DW	0446H
	DW	0447H
	DW	0448H
	DW	0449H
	DW	044aH
	DW	044bH
	DW	044cH
	DW	044dH
	DW	044eH
	DW	044fH
	DW	021e7H
	DW	021b8H
	DW	021b9H
	DW	031cfH
	DW	0ccH
	DW	04e5aH
	DW	08aH
	DW	05202H
	DW	04491H
	DW	0fffeH
	DW	0fffeH
	DW	0fffeH
	DW	0fffeH
	DW	0fffeH
	DW	0fffeH
	DW	0fffeH
	DW	0fffeH
	DW	0fffeH
	DW	0fffeH
	DW	0fffeH
	DW	0fffeH
	DW	0fffeH
	DW	0fffeH
	DW	0fffeH
	DW	0fffeH
	DW	0fffeH
	DW	0fffeH
	DW	0fffeH
	DW	0fffeH
	DW	0fffeH
	DW	0fffeH
	DW	0fffeH
	DW	0fffeH
	DW	0fffeH
	DW	0fffeH
	DW	0fffeH
	DW	0fffeH
	DW	0fffeH
	DW	0fffeH
	DW	0fffeH
	DW	0fffeH
	DW	0fffeH
	DW	0fffeH
	DW	09fb0H
	DW	05188H
	DW	09fb1H
	DW	07607H
	DW	0fffeH
	DW	0fffeH
	DW	0fffeH
	DW	0fffeH
	DW	0fffeH
	DW	0fffeH
	DW	0fffeH
	DW	0fffeH
	DW	0fffeH
	DW	0fffeH
	DW	0fffeH
	DW	0fffeH
	DW	0fffeH
	DW	0fffeH
	DW	0fffeH
	DW	0fffeH
	DW	0fffeH
	DW	0fffeH
	DW	0fffeH
	DW	0fffeH
	DW	0fffeH
	DW	0fffeH
	DW	0fffeH
	DW	0fffeH
	DW	0fffeH
	DW	0fffeH
	DW	0fffeH
	DW	0fffeH
	DW	0fffeH
	DW	0fffeH
	DW	0fffeH
	DW	0fffeH
	DW	0fffeH
	DW	0fffeH
	DW	0fffeH
	DW	0fffeH
	DW	0fffeH
	DW	0fffeH
	DW	0fffeH
	DW	0fffeH
	DW	0ffe2H
	DW	0ffe4H
	DW	0ff07H
	DW	0ff02H
	DW	03231H
	DW	02116H
	DW	02121H
	DW	0309bH
	DW	0309cH
	DW	02e80H
	DW	02e84H
	DW	02e86H
	DW	02e87H
	DW	02e88H
	DW	02e8aH
	DW	02e8cH
	DW	02e8dH
	DW	02e95H
	DW	02e9cH
	DW	02e9dH
	DW	02ea5H
	DW	02ea7H
	DW	02eaaH
	DW	02eacH
	DW	02eaeH
	DW	02eb6H
	DW	02ebcH
	DW	02ebeH
	DW	02ec6H
	DW	02ecaH
	DW	02eccH
	DW	02ecdH
	DW	02ecfH
	DW	02ed6H
	DW	02ed7H
	DW	02edeH
	DW	02ee3H
	DW	0fffeH
	DW	0fffeH
	DW	0fffeH
	DW	0283H
	DW	0250H
	DW	025bH
	DW	0254H
	DW	0275H
	DW	0153H
	DW	0f8H
	DW	014bH
	DW	028aH
	DW	026aH
	DW	07881H
	DW	092b9H
	DW	088cfH
	DW	058bbH
	DW	06052H
	DW	07ca7H
	DW	05afaH
	DW	02554H
	DW	02566H
	DW	02557H
	DW	02560H
	DW	0256cH
	DW	02563H
	DW	0255aH
	DW	02569H
	DW	0255dH
	DW	02552H
	DW	02564H
	DW	02555H
	DW	0255eH
	DW	0256aH
	DW	02561H
	DW	02558H
	DW	02567H
	DW	0255bH
	DW	02553H
	DW	02565H
	DW	02556H
	DW	0255fH
	DW	0256bH
	DW	02562H
	DW	02559H
	DW	02568H
	DW	0255cH
	DW	02551H
	DW	02550H
	DW	0256dH
	DW	0256eH
	DW	02570H
	DW	0256fH
	DW	0ffedH
	DW	0547H
	DW	092dbH
	DW	05dfH
	DW	03fc5H
	DW	0854cH
	DW	042b5H
	DW	073efH
	DW	051b5H
	DW	03649H
	DW	04942H
	DW	089e4H
	DW	09344H
	DW	019dbH
	DW	082eeH
	DW	03cc8H
	DW	0783cH
	DW	06744H
	DW	062dfH
	DW	04933H
	DW	089aaH
	DW	02a0H
	DW	06bb3H
	DW	01305H
	DW	04fabH
	DW	024edH
	DW	05008H
	DW	06d29H
	DW	07a84H
	DW	03600H
	DW	04ab1H
	DW	02513H
	DW	0fffeH
	DW	037eH
	DW	05fa4H
	DW	0380H
	DW	0347H
	DW	06edbH
	DW	041fH
	DW	0fffeH
	DW	05101H
	DW	0347aH
	DW	0510eH
	DW	0986cH
	DW	03743H
	DW	08416H
	DW	049a4H
	DW	0487H
	DW	05160H
	DW	033b4H
	DW	0516aH
	DW	0bffH
	DW	020fcH
	DW	02e5H
	DW	02530H
	DW	058eH
	DW	03233H
	DW	01983H
	DW	05b82H
	DW	0877dH
	DW	05b3H
	DW	03c99H
	DW	051b2H
	DW	051b8H
	DW	0fffeH
	DW	0fffeH
	DW	0fffeH
	DW	0fffeH
	DW	0fffeH
	DW	0fffeH
	DW	0fffeH
	DW	0fffeH
	DW	0fffeH
	DW	0fffeH
	DW	0fffeH
	DW	0fffeH
	DW	0fffeH
	DW	0fffeH
	DW	0fffeH
	DW	0fffeH
	DW	0fffeH
	DW	0fffeH
	DW	0fffeH
	DW	0fffeH
	DW	0fffeH
	DW	0fffeH
	DW	0fffeH
	DW	0fffeH
	DW	0fffeH
	DW	0fffeH
	DW	0fffeH
	DW	0fffeH
	DW	0fffeH
	DW	0fffeH
	DW	0fffeH
	DW	0fffeH
	DW	0fffeH
	DW	0fffeH
	DW	09d34H
	DW	051c9H
	DW	051cfH
	DW	051d1H
	DW	03cdcH
	DW	051d3H
	DW	04aa6H
	DW	051b3H
	DW	051e2H
	DW	05342H
	DW	051edH
	DW	083cdH
	DW	0693eH
	DW	0372dH
	DW	05f7bH
	DW	0520bH
	DW	05226H
	DW	0523cH
	DW	052b5H
	DW	05257H
	DW	05294H
	DW	052b9H
	DW	052c5H
	DW	07c15H
	DW	08542H
	DW	052e0H
	DW	0860dH
	DW	06b13H
	DW	0fffeH
	DW	08adeH
	DW	05549H
	DW	06ed9H
	DW	03f80H
	DW	0954H
	DW	03fecH
	DW	05333H
	DW	0fffeH
	DW	0be2H
	DW	06ccbH
	DW	01726H
	DW	0681bH
	DW	073d5H
	DW	0604aH
	DW	03eaaH
	DW	038ccH
	DW	016e8H
	DW	071ddH
	DW	044a2H
	DW	0536dH
	DW	05374H
	DW	086abH
	DW	0537eH
	DW	0fffeH
	DW	01596H
	DW	01613H
	DW	077e6H
	DW	05393H
	DW	08a9bH
	DW	053a0H
	DW	053abH
	DW	053aeH
	DW	073a7H
	DW	05772H
	DW	03f59H
	DW	0739cH
	DW	053c1H
	DW	053c5H
	DW	06c49H
	DW	04e49H
	DW	057feH
	DW	053d9H
	DW	03aabH
	DW	0b8fH
	DW	053e0H
	DW	03febH
	DW	02da3H
	DW	053f6H
	DW	0c77H
	DW	05413H
	DW	07079H
	DW	0552bH
	DW	06657H
	DW	06d5bH
	DW	0546dH
	DW	06b53H
	DW	0d74H
	DW	0555dH
	DW	0548fH
	DW	054a4H
	DW	047a6H
	DW	0170dH
	DW	0eddH
	DW	03db4H
	DW	0d4dH
	DW	089bcH
	DW	02698H
	DW	05547H
	DW	04cedH
	DW	0542fH
	DW	07417H
	DW	05586H
	DW	055a9H
	DW	0fffeH
	DW	018d7H
	DW	0403aH
	DW	04552H
	DW	04435H
	DW	066b3H
	DW	010b4H
	DW	05637H
	DW	066cdH
	DW	0328aH
	DW	066a4H
	DW	066adH
	DW	0564dH
	DW	0564fH
	DW	078f1H
	DW	056f1H
	DW	09787H
	DW	053feH
	DW	05700H
	DW	056efH
	DW	056edH
	DW	08b66H
	DW	03623H
	DW	0124fH
	DW	05746H
	DW	041a5H
	DW	06c6eH
	DW	0708bH
	DW	05742H
	DW	036b1H
	DW	06c7eH
	DW	057e6H
	DW	01416H
	DW	05803H
	DW	01454H
	DW	04363H
	DW	05826H
	DW	04bf5H
	DW	0585cH
	DW	058aaH
	DW	03561H
	DW	058e0H
	DW	058dcH
	DW	0123cH
	DW	058fbH
	DW	05bffH
	DW	05743H
	DW	0a150H
	DW	04278H
	DW	093d3H
	DW	035a1H
	DW	0591fH
	DW	068a6H
	DW	036c3H
	DW	06e59H
	DW	0fffeH
	DW	0fffeH
	DW	0fffeH
	DW	0fffeH
	DW	0fffeH
	DW	0fffeH
	DW	0fffeH
	DW	0fffeH
	DW	0fffeH
	DW	0fffeH
	DW	0fffeH
	DW	0fffeH
	DW	0fffeH
	DW	0fffeH
	DW	0fffeH
	DW	0fffeH
	DW	0fffeH
	DW	0fffeH
	DW	0fffeH
	DW	0fffeH
	DW	0fffeH
	DW	0fffeH
	DW	0fffeH
	DW	0fffeH
	DW	0fffeH
	DW	0fffeH
	DW	0fffeH
	DW	0fffeH
	DW	0fffeH
	DW	0fffeH
	DW	0fffeH
	DW	0fffeH
	DW	0fffeH
	DW	0fffeH
	DW	0163eH
	DW	05a24H
	DW	05553H
	DW	01692H
	DW	08505H
	DW	059c9H
	DW	0d4eH
	DW	06c81H
	DW	06d2aH
	DW	017dcH
	DW	059d9H
	DW	017fbH
	DW	017b2H
	DW	06da6H
	DW	06d71H
	DW	01828H
	DW	016d5H
	DW	059f9H
	DW	06e45H
	DW	05aabH
	DW	05a63H
	DW	036e6H
	DW	049a9H
	DW	0fffeH
	DW	03708H
	DW	05a96H
	DW	07465H
	DW	05ad3H
	DW	06fa1H
	DW	02554H
	DW	03d85H
	DW	01911H
	DW	03732H
	DW	016b8H
	DW	05e83H
	DW	052d0H
	DW	05b76H
	DW	06588H
	DW	05b7cH
	DW	07a0eH
	DW	04004H
	DW	0485dH
	DW	0204H
	DW	05bd5H
	DW	06160H
	DW	01a34H
	DW	059ccH
	DW	05a5H
	DW	05bf3H
	DW	05b9dH
	DW	04d10H
	DW	05c05H
	DW	01b44H
	DW	05c13H
	DW	073ceH
	DW	05c14H
	DW	01ca5H
	DW	06b28H
	DW	05c49H
	DW	048ddH
	DW	05c85H
	DW	05ce9H
	DW	05cefH
	DW	05d8bH
	DW	01df9H
	DW	01e37H
	DW	05d10H
	DW	05d18H
	DW	05d46H
	DW	01ea4H
	DW	05cbaH
	DW	05dd7H
	DW	082fcH
	DW	0382dH
	DW	04901H
	DW	02049H
	DW	02173H
	DW	08287H
	DW	03836H
	DW	03bc2H
	DW	05e2eH
	DW	06a8aH
	DW	0fffeH
	DW	05e7aH
	DW	044bcH
	DW	0cd3H
	DW	053a6H
	DW	04eb7H
	DW	0fffeH
	DW	053a8H
	DW	01771H
	DW	05e09H
	DW	05ef4H
	DW	08482H
	DW	05ef9H
	DW	05efbH
	DW	038a0H
	DW	05efcH
	DW	0683eH
	DW	0941bH
	DW	05f0dH
	DW	01c1H
	DW	0f894H
	DW	03adeH
	DW	048aeH
	DW	0133aH
	DW	05f3aH
	DW	06888H
	DW	023d0H
	DW	0fffeH
	DW	02471H
	DW	05f63H
	DW	097bdH
	DW	06e6eH
	DW	05f72H
	DW	09340H
	DW	08a36H
	DW	05fa7H
	DW	05db6H
	DW	03d5fH
	DW	05250H
	DW	01f6aH
	DW	070f8H
	DW	02668H
	DW	091d6H
	DW	029eH
	DW	08a29H
	DW	06031H
	DW	06685H
	DW	01877H
	DW	03963H
	DW	03dc7H
	DW	03639H
	DW	05790H
	DW	027b4H
	DW	07971H
	DW	03e40H
	DW	0609eH
	DW	0fffeH
	DW	060b3H
	DW	04982H
	DW	0498fH
	DW	07a53H
	DW	074a4H
	DW	050e1H
	DW	05aa0H
	DW	06164H
	DW	08424H
	DW	06142H
	DW	0f8a6H
	DW	06ed2H
	DW	06181H
	DW	051f4H
	DW	0656H
	DW	06187H
	DW	05baaH
	DW	03fb7H
	DW	0fffeH
	DW	0fffeH
	DW	0fffeH
	DW	0fffeH
	DW	0fffeH
	DW	0fffeH
	DW	0fffeH
	DW	0fffeH
	DW	0fffeH
	DW	0fffeH
	DW	0fffeH
	DW	0fffeH
	DW	0fffeH
	DW	0fffeH
	DW	0fffeH
	DW	0fffeH
	DW	0fffeH
	DW	0fffeH
	DW	0fffeH
	DW	0fffeH
	DW	0fffeH
	DW	0fffeH
	DW	0fffeH
	DW	0fffeH
	DW	0fffeH
	DW	0fffeH
	DW	0fffeH
	DW	0fffeH
	DW	0fffeH
	DW	0fffeH
	DW	0fffeH
	DW	0fffeH
	DW	0fffeH
	DW	0fffeH
	DW	0285fH
	DW	061d3H
	DW	08b9dH
	DW	0995dH
	DW	061d0H
	DW	03932H
	DW	02980H
	DW	028c1H
	DW	06023H
	DW	0615cH
	DW	0651eH
	DW	0638bH
	DW	0118H
	DW	062c5H
	DW	01770H
	DW	062d5H
	DW	02e0dH
	DW	0636cH
	DW	049dfH
	DW	03a17H
	DW	06438H
	DW	063f8H
	DW	0138eH
	DW	017fcH
	DW	0fffeH
	DW	06f8aH
	DW	02e36H
	DW	09814H
	DW	0408cH
	DW	0571dH
	DW	064e1H
	DW	064e5H
	DW	0947bH
	DW	03a66H
	DW	0643aH
	DW	03a57H
	DW	0654dH
	DW	06f16H
	DW	04a28H
	DW	04a23H
	DW	06585H
	DW	0656dH
	DW	0655fH
	DW	0307eH
	DW	065b5H
	DW	04940H
	DW	04b37H
	DW	065d1H
	DW	040d8H
	DW	01829H
	DW	065e0H
	DW	065e3H
	DW	05fdfH
	DW	03400H
	DW	06618H
	DW	031f7H
	DW	031f8H
	DW	06644H
	DW	031a4H
	DW	031a5H
	DW	0664bH
	DW	0e75H
	DW	06667H
	DW	051e6H
	DW	06673H
	DW	0fffeH
	DW	01e3dH
	DW	03231H
	DW	085f4H
	DW	031c8H
	DW	05313H
	DW	077c5H
	DW	028f7H
	DW	099a4H
	DW	06702H
	DW	0439cH
	DW	04a21H
	DW	03b2bH
	DW	069faH
	DW	037c2H
	DW	0fffeH
	DW	06767H
	DW	06762H
	DW	041cdH
	DW	090edH
	DW	067d7H
	DW	044e9H
	DW	06822H
	DW	06e50H
	DW	0923cH
	DW	06801H
	DW	033e6H
	DW	06da0H
	DW	0685dH
	DW	0346fH
	DW	069e1H
	DW	06a0bH
	DW	08adfH
	DW	06973H
	DW	068c3H
	DW	035cdH
	DW	06901H
	DW	06900H
	DW	03d32H
	DW	03a01H
	DW	0363cH
	DW	03b80H
	DW	067acH
	DW	06961H
	DW	08a4aH
	DW	042fcH
	DW	06936H
	DW	06998H
	DW	03ba1H
	DW	03c9H
	DW	08363H
	DW	05090H
	DW	069f9H
	DW	03659H
	DW	0212aH
	DW	06a45H
	DW	03703H
	DW	06a9dH
	DW	03bf3H
	DW	067b1H
	DW	06ac8H
	DW	0919cH
	DW	03c0dH
	DW	06b1dH
	DW	0923H
	DW	060deH
	DW	06b35H
	DW	06b74H
	DW	027cdH
	DW	06eb5H
	DW	03adbH
	DW	03b5H
	DW	01958H
	DW	03740H
	DW	05421H
	DW	03b5aH
	DW	06be1H
	DW	03efcH
	DW	06bdcH
	DW	06c37H
	DW	0248bH
	DW	048f1H
	DW	06b51H
	DW	06c5aH
	DW	08226H
	DW	06c79H
	DW	03dbcH
	DW	044c5H
	DW	03dbdH
	DW	041a4H
	DW	0490cH
	DW	04900H
	DW	0fffeH
	DW	0fffeH
	DW	0fffeH
	DW	0fffeH
	DW	0fffeH
	DW	0fffeH
	DW	0fffeH
	DW	0fffeH
	DW	0fffeH
	DW	0fffeH
	DW	0fffeH
	DW	0fffeH
	DW	0fffeH
	DW	0fffeH
	DW	0fffeH
	DW	0fffeH
	DW	0fffeH
	DW	0fffeH
	DW	0fffeH
	DW	0fffeH
	DW	0fffeH
	DW	0fffeH
	DW	0fffeH
	DW	0fffeH
	DW	0fffeH
	DW	0fffeH
	DW	0fffeH
	DW	0fffeH
	DW	0fffeH
	DW	0fffeH
	DW	0fffeH
	DW	0fffeH
	DW	0fffeH
	DW	0fffeH
	DW	03cc9H
	DW	036e5H
	DW	03cebH
	DW	0d32H
	DW	09b83H
	DW	031f9H
	DW	02491H
	DW	07f8fH
	DW	06837H
	DW	06d25H
	DW	06da1H
	DW	06debH
	DW	06d96H
	DW	06d5cH
	DW	06e7cH
	DW	06f04H
	DW	0497fH
	DW	04085H
	DW	06e72H
	DW	08533H
	DW	06f74H
	DW	051c7H
	DW	0fffeH
	DW	0fffeH
	DW	0842eH
	DW	08b21H
	DW	0fffeH
	DW	03e2fH
	DW	07453H
	DW	03f82H
	DW	079ccH
	DW	06e4fH
	DW	05a91H
	DW	0304bH
	DW	06ff8H
	DW	0370dH
	DW	06f9dH
	DW	03e30H
	DW	06efaH
	DW	01497H
	DW	0403dH
	DW	04555H
	DW	093f0H
	DW	06f44H
	DW	06f5cH
	DW	03d4eH
	DW	06f74H
	DW	09170H
	DW	03d3bH
	DW	06f9fH
	DW	04144H
	DW	06fd3H
	DW	04091H
	DW	04155H
	DW	04039H
	DW	03ff0H
	DW	03fb4H
	DW	0413fH
	DW	051dfH
	DW	04156H
	DW	04157H
	DW	04140H
	DW	061ddH
	DW	0704bH
	DW	0707eH
	DW	070a7H
	DW	07081H
	DW	070ccH
	DW	070d5H
	DW	070d6H
	DW	070dfH
	DW	04104H
	DW	03de8H
	DW	071b4H
	DW	07196H
	DW	04277H
	DW	0712bH
	DW	07145H
	DW	05a88H
	DW	0714aH
	DW	0fffeH
	DW	05c9cH
	DW	04365H
	DW	0714fH
	DW	09362H
	DW	042c1H
	DW	0712cH
	DW	0445aH
	DW	04a27H
	DW	04a22H
	DW	071baH
	DW	08be8H
	DW	070bdH
	DW	0720eH
	DW	09442H
	DW	07215H
	DW	05911H
	DW	09443H
	DW	07224H
	DW	09341H
	DW	05605H
	DW	0722eH
	DW	07240H
	DW	04974H
	DW	068bdH
	DW	07255H
	DW	07257H
	DW	03e55H
	DW	03044H
	DW	0680dH
	DW	06f3dH
	DW	07282H
	DW	0fffeH
	DW	0732bH
	DW	04823H
	DW	0882bH
	DW	048edH
	DW	08804H
	DW	07328H
	DW	0732eH
	DW	073cfH
	DW	073aaH
	DW	0c3aH
	DW	06a2eH
	DW	073c9H
	DW	07449H
	DW	041e2H
	DW	016e7H
	DW	04a24H
	DW	06623H
	DW	036c5H
	DW	049b7H
	DW	0498dH
	DW	049fbH
	DW	073f7H
	DW	07415H
	DW	06903H
	DW	04a26H
	DW	07439H
	DW	05c3H
	DW	03ed7H
	DW	0fffeH
	DW	028adH
	DW	07460H
	DW	08eb2H
	DW	07447H
	DW	073e4H
	DW	07476H
	DW	083b9H
	DW	0746cH
	DW	03730H
	DW	07474H
	DW	093f1H
	DW	06a2cH
	DW	07482H
	DW	04953H
	DW	04a8cH
	DW	0fffeH
	DW	0fffeH
	DW	0fffeH
	DW	0fffeH
	DW	0fffeH
	DW	0fffeH
	DW	0fffeH
	DW	0fffeH
	DW	0fffeH
	DW	0fffeH
	DW	0fffeH
	DW	0fffeH
	DW	0fffeH
	DW	0fffeH
	DW	0fffeH
	DW	0fffeH
	DW	0fffeH
	DW	0fffeH
	DW	0fffeH
	DW	0fffeH
	DW	0fffeH
	DW	0fffeH
	DW	0fffeH
	DW	0fffeH
	DW	0fffeH
	DW	0fffeH
	DW	0fffeH
	DW	0fffeH
	DW	0fffeH
	DW	0fffeH
	DW	0fffeH
	DW	0fffeH
	DW	0fffeH
	DW	0fffeH
	DW	0415fH
	DW	04a79H
	DW	08b8fH
	DW	05b46H
	DW	08c03H
	DW	0189eH
	DW	074c8H
	DW	01988H
	DW	0750eH
	DW	0fffeH
	DW	0751eH
	DW	08ed9H
	DW	01a4bH
	DW	05bd7H
	DW	08eacH
	DW	09385H
	DW	0754dH
	DW	0754aH
	DW	07567H
	DW	0756eH
	DW	04f82H
	DW	03f04H
	DW	04d13H
	DW	0758eH
	DW	0745dH
	DW	0759eH
	DW	075b4H
	DW	07602H
	DW	0762cH
	DW	07651H
	DW	0764fH
	DW	0766fH
	DW	07676H
	DW	063f5H
	DW	07690H
	DW	081efH
	DW	037f8H
	DW	06911H
	DW	0690eH
	DW	076a1H
	DW	076a5H
	DW	076b7H
	DW	076ccH
	DW	06f9fH
	DW	08462H
	DW	0509dH
	DW	0517dH
	DW	01e1cH
	DW	0771eH
	DW	07726H
	DW	07740H
	DW	064afH
	DW	05220H
	DW	07758H
	DW	032acH
	DW	077afH
	DW	08964H
	DW	08968H
	DW	016c1H
	DW	077f4H
	DW	0fffeH
	DW	01376H
	DW	04a12H
	DW	068caH
	DW	078afH
	DW	078c7H
	DW	078d3H
	DW	096a5H
	DW	0792eH
	DW	055e0H
	DW	078d7H
	DW	07934H
	DW	078b1H
	DW	0760cH
	DW	08fb8H
	DW	08884H
	DW	08b2bH
	DW	06083H
	DW	0261cH
	DW	07986H
	DW	08900H
	DW	06902H
	DW	07980H
	DW	05857H
	DW	0799dH
	DW	07b39H
	DW	0793cH
	DW	079a9H
	DW	06e2aH
	DW	07126H
	DW	03ea8H
	DW	079c6H
	DW	0910dH
	DW	079d4H
	ORG $+10
big5hkscs_decmap DQ 0000000000000000H
	DB	00H
	DB	00H
	ORG $+6
	DQ	0000000000000000H
	DB	00H
	DB	00H
	ORG $+6
	DQ	0000000000000000H
	DB	00H
	DB	00H
	ORG $+6
	DQ	0000000000000000H
	DB	00H
	DB	00H
	ORG $+6
	DQ	0000000000000000H
	DB	00H
	DB	00H
	ORG $+6
	DQ	0000000000000000H
	DB	00H
	DB	00H
	ORG $+6
	DQ	0000000000000000H
	DB	00H
	DB	00H
	ORG $+6
	DQ	0000000000000000H
	DB	00H
	DB	00H
	ORG $+6
	DQ	0000000000000000H
	DB	00H
	DB	00H
	ORG $+6
	DQ	0000000000000000H
	DB	00H
	DB	00H
	ORG $+6
	DQ	0000000000000000H
	DB	00H
	DB	00H
	ORG $+6
	DQ	0000000000000000H
	DB	00H
	DB	00H
	ORG $+6
	DQ	0000000000000000H
	DB	00H
	DB	00H
	ORG $+6
	DQ	0000000000000000H
	DB	00H
	DB	00H
	ORG $+6
	DQ	0000000000000000H
	DB	00H
	DB	00H
	ORG $+6
	DQ	0000000000000000H
	DB	00H
	DB	00H
	ORG $+6
	DQ	0000000000000000H
	DB	00H
	DB	00H
	ORG $+6
	DQ	0000000000000000H
	DB	00H
	DB	00H
	ORG $+6
	DQ	0000000000000000H
	DB	00H
	DB	00H
	ORG $+6
	DQ	0000000000000000H
	DB	00H
	DB	00H
	ORG $+6
	DQ	0000000000000000H
	DB	00H
	DB	00H
	ORG $+6
	DQ	0000000000000000H
	DB	00H
	DB	00H
	ORG $+6
	DQ	0000000000000000H
	DB	00H
	DB	00H
	ORG $+6
	DQ	0000000000000000H
	DB	00H
	DB	00H
	ORG $+6
	DQ	0000000000000000H
	DB	00H
	DB	00H
	ORG $+6
	DQ	0000000000000000H
	DB	00H
	DB	00H
	ORG $+6
	DQ	0000000000000000H
	DB	00H
	DB	00H
	ORG $+6
	DQ	0000000000000000H
	DB	00H
	DB	00H
	ORG $+6
	DQ	0000000000000000H
	DB	00H
	DB	00H
	ORG $+6
	DQ	0000000000000000H
	DB	00H
	DB	00H
	ORG $+6
	DQ	0000000000000000H
	DB	00H
	DB	00H
	ORG $+6
	DQ	0000000000000000H
	DB	00H
	DB	00H
	ORG $+6
	DQ	0000000000000000H
	DB	00H
	DB	00H
	ORG $+6
	DQ	0000000000000000H
	DB	00H
	DB	00H
	ORG $+6
	DQ	0000000000000000H
	DB	00H
	DB	00H
	ORG $+6
	DQ	0000000000000000H
	DB	00H
	DB	00H
	ORG $+6
	DQ	0000000000000000H
	DB	00H
	DB	00H
	ORG $+6
	DQ	0000000000000000H
	DB	00H
	DB	00H
	ORG $+6
	DQ	0000000000000000H
	DB	00H
	DB	00H
	ORG $+6
	DQ	0000000000000000H
	DB	00H
	DB	00H
	ORG $+6
	DQ	0000000000000000H
	DB	00H
	DB	00H
	ORG $+6
	DQ	0000000000000000H
	DB	00H
	DB	00H
	ORG $+6
	DQ	0000000000000000H
	DB	00H
	DB	00H
	ORG $+6
	DQ	0000000000000000H
	DB	00H
	DB	00H
	ORG $+6
	DQ	0000000000000000H
	DB	00H
	DB	00H
	ORG $+6
	DQ	0000000000000000H
	DB	00H
	DB	00H
	ORG $+6
	DQ	0000000000000000H
	DB	00H
	DB	00H
	ORG $+6
	DQ	0000000000000000H
	DB	00H
	DB	00H
	ORG $+6
	DQ	0000000000000000H
	DB	00H
	DB	00H
	ORG $+6
	DQ	0000000000000000H
	DB	00H
	DB	00H
	ORG $+6
	DQ	0000000000000000H
	DB	00H
	DB	00H
	ORG $+6
	DQ	0000000000000000H
	DB	00H
	DB	00H
	ORG $+6
	DQ	0000000000000000H
	DB	00H
	DB	00H
	ORG $+6
	DQ	0000000000000000H
	DB	00H
	DB	00H
	ORG $+6
	DQ	0000000000000000H
	DB	00H
	DB	00H
	ORG $+6
	DQ	0000000000000000H
	DB	00H
	DB	00H
	ORG $+6
	DQ	0000000000000000H
	DB	00H
	DB	00H
	ORG $+6
	DQ	0000000000000000H
	DB	00H
	DB	00H
	ORG $+6
	DQ	0000000000000000H
	DB	00H
	DB	00H
	ORG $+6
	DQ	0000000000000000H
	DB	00H
	DB	00H
	ORG $+6
	DQ	0000000000000000H
	DB	00H
	DB	00H
	ORG $+6
	DQ	0000000000000000H
	DB	00H
	DB	00H
	ORG $+6
	DQ	0000000000000000H
	DB	00H
	DB	00H
	ORG $+6
	DQ	0000000000000000H
	DB	00H
	DB	00H
	ORG $+6
	DQ	0000000000000000H
	DB	00H
	DB	00H
	ORG $+6
	DQ	0000000000000000H
	DB	00H
	DB	00H
	ORG $+6
	DQ	0000000000000000H
	DB	00H
	DB	00H
	ORG $+6
	DQ	0000000000000000H
	DB	00H
	DB	00H
	ORG $+6
	DQ	0000000000000000H
	DB	00H
	DB	00H
	ORG $+6
	DQ	0000000000000000H
	DB	00H
	DB	00H
	ORG $+6
	DQ	0000000000000000H
	DB	00H
	DB	00H
	ORG $+6
	DQ	0000000000000000H
	DB	00H
	DB	00H
	ORG $+6
	DQ	0000000000000000H
	DB	00H
	DB	00H
	ORG $+6
	DQ	0000000000000000H
	DB	00H
	DB	00H
	ORG $+6
	DQ	0000000000000000H
	DB	00H
	DB	00H
	ORG $+6
	DQ	0000000000000000H
	DB	00H
	DB	00H
	ORG $+6
	DQ	0000000000000000H
	DB	00H
	DB	00H
	ORG $+6
	DQ	0000000000000000H
	DB	00H
	DB	00H
	ORG $+6
	DQ	0000000000000000H
	DB	00H
	DB	00H
	ORG $+6
	DQ	0000000000000000H
	DB	00H
	DB	00H
	ORG $+6
	DQ	0000000000000000H
	DB	00H
	DB	00H
	ORG $+6
	DQ	0000000000000000H
	DB	00H
	DB	00H
	ORG $+6
	DQ	0000000000000000H
	DB	00H
	DB	00H
	ORG $+6
	DQ	0000000000000000H
	DB	00H
	DB	00H
	ORG $+6
	DQ	0000000000000000H
	DB	00H
	DB	00H
	ORG $+6
	DQ	0000000000000000H
	DB	00H
	DB	00H
	ORG $+6
	DQ	0000000000000000H
	DB	00H
	DB	00H
	ORG $+6
	DQ	0000000000000000H
	DB	00H
	DB	00H
	ORG $+6
	DQ	0000000000000000H
	DB	00H
	DB	00H
	ORG $+6
	DQ	0000000000000000H
	DB	00H
	DB	00H
	ORG $+6
	DQ	0000000000000000H
	DB	00H
	DB	00H
	ORG $+6
	DQ	0000000000000000H
	DB	00H
	DB	00H
	ORG $+6
	DQ	0000000000000000H
	DB	00H
	DB	00H
	ORG $+6
	DQ	0000000000000000H
	DB	00H
	DB	00H
	ORG $+6
	DQ	0000000000000000H
	DB	00H
	DB	00H
	ORG $+6
	DQ	0000000000000000H
	DB	00H
	DB	00H
	ORG $+6
	DQ	0000000000000000H
	DB	00H
	DB	00H
	ORG $+6
	DQ	0000000000000000H
	DB	00H
	DB	00H
	ORG $+6
	DQ	0000000000000000H
	DB	00H
	DB	00H
	ORG $+6
	DQ	0000000000000000H
	DB	00H
	DB	00H
	ORG $+6
	DQ	0000000000000000H
	DB	00H
	DB	00H
	ORG $+6
	DQ	0000000000000000H
	DB	00H
	DB	00H
	ORG $+6
	DQ	0000000000000000H
	DB	00H
	DB	00H
	ORG $+6
	DQ	0000000000000000H
	DB	00H
	DB	00H
	ORG $+6
	DQ	0000000000000000H
	DB	00H
	DB	00H
	ORG $+6
	DQ	0000000000000000H
	DB	00H
	DB	00H
	ORG $+6
	DQ	0000000000000000H
	DB	00H
	DB	00H
	ORG $+6
	DQ	0000000000000000H
	DB	00H
	DB	00H
	ORG $+6
	DQ	0000000000000000H
	DB	00H
	DB	00H
	ORG $+6
	DQ	0000000000000000H
	DB	00H
	DB	00H
	ORG $+6
	DQ	0000000000000000H
	DB	00H
	DB	00H
	ORG $+6
	DQ	0000000000000000H
	DB	00H
	DB	00H
	ORG $+6
	DQ	0000000000000000H
	DB	00H
	DB	00H
	ORG $+6
	DQ	0000000000000000H
	DB	00H
	DB	00H
	ORG $+6
	DQ	0000000000000000H
	DB	00H
	DB	00H
	ORG $+6
	DQ	0000000000000000H
	DB	00H
	DB	00H
	ORG $+6
	DQ	0000000000000000H
	DB	00H
	DB	00H
	ORG $+6
	DQ	0000000000000000H
	DB	00H
	DB	00H
	ORG $+6
	DQ	0000000000000000H
	DB	00H
	DB	00H
	ORG $+6
	DQ	0000000000000000H
	DB	00H
	DB	00H
	ORG $+6
	DQ	0000000000000000H
	DB	00H
	DB	00H
	ORG $+6
	DQ	0000000000000000H
	DB	00H
	DB	00H
	ORG $+6
	DQ	0000000000000000H
	DB	00H
	DB	00H
	ORG $+6
	DQ	0000000000000000H
	DB	00H
	DB	00H
	ORG $+6
	DQ	0000000000000000H
	DB	00H
	DB	00H
	ORG $+6
	DQ	0000000000000000H
	DB	00H
	DB	00H
	ORG $+6
	DQ	0000000000000000H
	DB	00H
	DB	00H
	ORG $+6
	DQ	0000000000000000H
	DB	00H
	DB	00H
	ORG $+6
	DQ	0000000000000000H
	DB	00H
	DB	00H
	ORG $+6
	DQ	0000000000000000H
	DB	00H
	DB	00H
	ORG $+6
	DQ	0000000000000000H
	DB	00H
	DB	00H
	ORG $+6
	DQ	0000000000000000H
	DB	00H
	DB	00H
	ORG $+6
	DQ	0000000000000000H
	DB	00H
	DB	00H
	ORG $+6
	DQ	0000000000000000H
	DB	00H
	DB	00H
	ORG $+6
	DQ	0000000000000000H
	DB	00H
	DB	00H
	ORG $+6
	DQ	FLAT:__big5hkscs_decmap
	DB	040H
	DB	079H
	ORG $+6
	DQ	FLAT:__big5hkscs_decmap+116
	DB	040H
	DB	0aaH
	ORG $+6
	DQ	FLAT:__big5hkscs_decmap+330
	DB	040H
	DB	0feH
	ORG $+6
	DQ	FLAT:__big5hkscs_decmap+712
	DB	040H
	DB	0feH
	ORG $+6
	DQ	FLAT:__big5hkscs_decmap+1094
	DB	040H
	DB	0fdH
	ORG $+6
	DQ	FLAT:__big5hkscs_decmap+1474
	DB	040H
	DB	0feH
	ORG $+6
	DQ	FLAT:__big5hkscs_decmap+1856
	DB	040H
	DB	0feH
	ORG $+6
	DQ	FLAT:__big5hkscs_decmap+2238
	DB	040H
	DB	0feH
	ORG $+6
	DQ	FLAT:__big5hkscs_decmap+2620
	DB	040H
	DB	0fdH
	ORG $+6
	DQ	FLAT:__big5hkscs_decmap+3000
	DB	040H
	DB	0feH
	ORG $+6
	DQ	FLAT:__big5hkscs_decmap+3382
	DB	040H
	DB	0feH
	ORG $+6
	DQ	FLAT:__big5hkscs_decmap+3764
	DB	040H
	DB	0feH
	ORG $+6
	DQ	FLAT:__big5hkscs_decmap+4146
	DB	040H
	DB	0feH
	ORG $+6
	DQ	FLAT:__big5hkscs_decmap+4528
	DB	040H
	DB	0feH
	ORG $+6
	DQ	FLAT:__big5hkscs_decmap+4910
	DB	040H
	DB	0feH
	ORG $+6
	DQ	FLAT:__big5hkscs_decmap+5292
	DB	040H
	DB	0feH
	ORG $+6
	DQ	FLAT:__big5hkscs_decmap+5674
	DB	040H
	DB	0feH
	ORG $+6
	DQ	FLAT:__big5hkscs_decmap+6056
	DB	040H
	DB	0feH
	ORG $+6
	DQ	FLAT:__big5hkscs_decmap+6438
	DB	040H
	DB	0feH
	ORG $+6
	DQ	FLAT:__big5hkscs_decmap+6820
	DB	040H
	DB	0feH
	ORG $+6
	DQ	FLAT:__big5hkscs_decmap+7202
	DB	040H
	DB	0feH
	ORG $+6
	DQ	FLAT:__big5hkscs_decmap+7584
	DB	040H
	DB	0feH
	ORG $+6
	DQ	FLAT:__big5hkscs_decmap+7966
	DB	040H
	DB	0feH
	ORG $+6
	DQ	FLAT:__big5hkscs_decmap+8348
	DB	040H
	DB	0feH
	ORG $+6
	DQ	FLAT:__big5hkscs_decmap+8730
	DB	040H
	DB	0feH
	ORG $+6
	DQ	FLAT:__big5hkscs_decmap+9112
	DB	040H
	DB	0feH
	ORG $+6
	DQ	0000000000000000H
	DB	00H
	DB	00H
	ORG $+6
	DQ	0000000000000000H
	DB	00H
	DB	00H
	ORG $+6
	DQ	0000000000000000H
	DB	00H
	DB	00H
	ORG $+6
	DQ	0000000000000000H
	DB	00H
	DB	00H
	ORG $+6
	DQ	0000000000000000H
	DB	00H
	DB	00H
	ORG $+6
	DQ	0000000000000000H
	DB	00H
	DB	00H
	ORG $+6
	DQ	0000000000000000H
	DB	00H
	DB	00H
	ORG $+6
	DQ	0000000000000000H
	DB	00H
	DB	00H
	ORG $+6
	DQ	0000000000000000H
	DB	00H
	DB	00H
	ORG $+6
	DQ	0000000000000000H
	DB	00H
	DB	00H
	ORG $+6
	DQ	0000000000000000H
	DB	00H
	DB	00H
	ORG $+6
	DQ	0000000000000000H
	DB	00H
	DB	00H
	ORG $+6
	DQ	0000000000000000H
	DB	00H
	DB	00H
	ORG $+6
	DQ	0000000000000000H
	DB	00H
	DB	00H
	ORG $+6
	DQ	0000000000000000H
	DB	00H
	DB	00H
	ORG $+6
	DQ	0000000000000000H
	DB	00H
	DB	00H
	ORG $+6
	DQ	0000000000000000H
	DB	00H
	DB	00H
	ORG $+6
	DQ	0000000000000000H
	DB	00H
	DB	00H
	ORG $+6
	DQ	0000000000000000H
	DB	00H
	DB	00H
	ORG $+6
	DQ	0000000000000000H
	DB	00H
	DB	00H
	ORG $+6
	DQ	0000000000000000H
	DB	00H
	DB	00H
	ORG $+6
	DQ	0000000000000000H
	DB	00H
	DB	00H
	ORG $+6
	DQ	0000000000000000H
	DB	00H
	DB	00H
	ORG $+6
	DQ	0000000000000000H
	DB	00H
	DB	00H
	ORG $+6
	DQ	0000000000000000H
	DB	00H
	DB	00H
	ORG $+6
	DQ	0000000000000000H
	DB	00H
	DB	00H
	ORG $+6
	DQ	0000000000000000H
	DB	00H
	DB	00H
	ORG $+6
	DQ	0000000000000000H
	DB	00H
	DB	00H
	ORG $+6
	DQ	0000000000000000H
	DB	00H
	DB	00H
	ORG $+6
	DQ	0000000000000000H
	DB	00H
	DB	00H
	ORG $+6
	DQ	0000000000000000H
	DB	00H
	DB	00H
	ORG $+6
	DQ	0000000000000000H
	DB	00H
	DB	00H
	ORG $+6
	DQ	0000000000000000H
	DB	00H
	DB	00H
	ORG $+6
	DQ	0000000000000000H
	DB	00H
	DB	00H
	ORG $+6
	DQ	0000000000000000H
	DB	00H
	DB	00H
	ORG $+6
	DQ	0000000000000000H
	DB	00H
	DB	00H
	ORG $+6
	DQ	0000000000000000H
	DB	00H
	DB	00H
	ORG $+6
	DQ	FLAT:__big5hkscs_decmap+9494
	DB	0a1H
	DB	0feH
	ORG $+6
	DQ	FLAT:__big5hkscs_decmap+9682
	DB	040H
	DB	0feH
	ORG $+6
	DQ	FLAT:__big5hkscs_decmap+10064
	DB	040H
	DB	0feH
	ORG $+6
	DQ	0000000000000000H
	DB	00H
	DB	00H
	ORG $+6
	DQ	0000000000000000H
	DB	00H
	DB	00H
	ORG $+6
	DQ	0000000000000000H
	DB	00H
	DB	00H
	ORG $+6
	DQ	0000000000000000H
	DB	00H
	DB	00H
	ORG $+6
	DQ	0000000000000000H
	DB	00H
	DB	00H
	ORG $+6
	DQ	0000000000000000H
	DB	00H
	DB	00H
	ORG $+6
	DQ	0000000000000000H
	DB	00H
	DB	00H
	ORG $+6
	DQ	0000000000000000H
	DB	00H
	DB	00H
	ORG $+6
	DQ	0000000000000000H
	DB	00H
	DB	00H
	ORG $+6
	DQ	0000000000000000H
	DB	00H
	DB	00H
	ORG $+6
	DQ	0000000000000000H
	DB	00H
	DB	00H
	ORG $+6
	DQ	0000000000000000H
	DB	00H
	DB	00H
	ORG $+6
	DQ	0000000000000000H
	DB	00H
	DB	00H
	ORG $+6
	DQ	0000000000000000H
	DB	00H
	DB	00H
	ORG $+6
	DQ	0000000000000000H
	DB	00H
	DB	00H
	ORG $+6
	DQ	0000000000000000H
	DB	00H
	DB	00H
	ORG $+6
	DQ	0000000000000000H
	DB	00H
	DB	00H
	ORG $+6
	DQ	0000000000000000H
	DB	00H
	DB	00H
	ORG $+6
	DQ	0000000000000000H
	DB	00H
	DB	00H
	ORG $+6
	DQ	0000000000000000H
	DB	00H
	DB	00H
	ORG $+6
	DQ	0000000000000000H
	DB	00H
	DB	00H
	ORG $+6
	DQ	0000000000000000H
	DB	00H
	DB	00H
	ORG $+6
	DQ	0000000000000000H
	DB	00H
	DB	00H
	ORG $+6
	DQ	0000000000000000H
	DB	00H
	DB	00H
	ORG $+6
	DQ	0000000000000000H
	DB	00H
	DB	00H
	ORG $+6
	DQ	0000000000000000H
	DB	00H
	DB	00H
	ORG $+6
	DQ	0000000000000000H
	DB	00H
	DB	00H
	ORG $+6
	DQ	0000000000000000H
	DB	00H
	DB	00H
	ORG $+6
	DQ	0000000000000000H
	DB	00H
	DB	00H
	ORG $+6
	DQ	0000000000000000H
	DB	00H
	DB	00H
	ORG $+6
	DQ	0000000000000000H
	DB	00H
	DB	00H
	ORG $+6
	DQ	0000000000000000H
	DB	00H
	DB	00H
	ORG $+6
	DQ	0000000000000000H
	DB	00H
	DB	00H
	ORG $+6
	DQ	0000000000000000H
	DB	00H
	DB	00H
	ORG $+6
	DQ	0000000000000000H
	DB	00H
	DB	00H
	ORG $+6
	DQ	0000000000000000H
	DB	00H
	DB	00H
	ORG $+6
	DQ	0000000000000000H
	DB	00H
	DB	00H
	ORG $+6
	DQ	0000000000000000H
	DB	00H
	DB	00H
	ORG $+6
	DQ	0000000000000000H
	DB	00H
	DB	00H
	ORG $+6
	DQ	0000000000000000H
	DB	00H
	DB	00H
	ORG $+6
	DQ	0000000000000000H
	DB	00H
	DB	00H
	ORG $+6
	DQ	0000000000000000H
	DB	00H
	DB	00H
	ORG $+6
	DQ	0000000000000000H
	DB	00H
	DB	00H
	ORG $+6
	DQ	0000000000000000H
	DB	00H
	DB	00H
	ORG $+6
	DQ	0000000000000000H
	DB	00H
	DB	00H
	ORG $+6
	DQ	0000000000000000H
	DB	00H
	DB	00H
	ORG $+6
	DQ	0000000000000000H
	DB	00H
	DB	00H
	ORG $+6
	DQ	0000000000000000H
	DB	00H
	DB	00H
	ORG $+6
	DQ	FLAT:__big5hkscs_decmap+10446
	DB	0d6H
	DB	0feH
	ORG $+6
	DQ	FLAT:__big5hkscs_decmap+10528
	DB	040H
	DB	0feH
	ORG $+6
	DQ	FLAT:__big5hkscs_decmap+10910
	DB	040H
	DB	0feH
	ORG $+6
	DQ	FLAT:__big5hkscs_decmap+11292
	DB	040H
	DB	0feH
	ORG $+6
	DQ	FLAT:__big5hkscs_decmap+11674
	DB	040H
	DB	0feH
	ORG $+6
	DQ	FLAT:__big5hkscs_decmap+12056
	DB	040H
	DB	0feH
	ORG $+6
	DQ	0000000000000000H
	DB	00H
	DB	00H
	ORG $+6
big5hkscs_phint_0 DB 020H
	DB	05H
	DB	05fH
	DB	044H
	DB	0fH
	DB	052H
	DB	082H
	DB	00H
	DB	00H
	DB	00H
	DB	00H
	DB	00H
	DB	00H
	DB	00H
	DB	00H
	DB	00H
	DB	00H
	DB	00H
	DB	00H
	DB	00H
	DB	00H
	DB	00H
	DB	00H
	DB	00H
	DB	0d0H
	DB	02cH
	DB	04H
	DB	00H
	DB	00H
	DB	00H
	DB	00H
	DB	00H
	DB	00H
	DB	00H
	DB	00H
	DB	00H
	DB	00H
	DB	00H
	DB	00H
	DB	00H
	DB	00H
	DB	00H
	DB	00H
	DB	00H
	DB	00H
	DB	00H
	DB	00H
	DB	0c0H
	DB	00H
	DB	04H
	DB	00H
	DB	00H
	DB	00H
	DB	00H
	DB	00H
	DB	00H
	DB	00H
	DB	00H
	DB	00H
	DB	00H
	DB	00H
	DB	00H
	DB	01H
	DB	016H
	DB	00H
	DB	0fH
	DB	00H
	DB	00H
	DB	00H
	DB	00H
	DB	00H
	DB	020H
	DB	057H
	DB	02bH
	DB	0f7H
	DB	0fcH
	DB	06eH
	DB	0f2H
	DB	090H
	DB	0bH
	DB	00H
	DB	00H
	DB	00H
	DB	0c0H
	DB	0edH
	DB	0a4H
	DB	0fH
	DB	026H
	DB	0c1H
	DB	09bH
	DB	076H
	DB	0f2H
	DB	0efH
	DB	0deH
	DB	0fbH
	DB	0faH
	DB	0f7H
	DB	0fH
	DB	032H
	DB	044H
	DB	0afH
	DB	0feH
	DB	0efH
	DB	05H
	DB	00H
	DB	00H
	DB	00H
	DB	0e0H
	DB	0fbH
	DB	047H
	DB	080H
	DB	0c1H
	DB	02H
	DB	00H
	DB	084H
	DB	064H
	DB	04H
	DB	082H
	DB	040H
	DB	020H
	DB	0a2H
	DB	082H
	DB	085H
	DB	0a4H
	DB	091H
	DB	00H
	DB	010H
	DB	01H
	DB	00H
	DB	00H
	DB	00H
	DB	090H
	DB	048H
	DB	0cH
	DB	00H
	DB	030H
	DB	00H
	DB	054H
	DB	03H
	DB	030H
	DB	044H
	DB	018H
	DB	013H
	DB	035H
	DB	089H
	DB	026H
	DB	020H
	DB	00H
	DB	00H
	DB	00H
	DB	00H
	DB	00H
	DB	00H
	DB	00H
	DB	00H
	DB	00H
	DB	00H
	DB	00H
	DB	00H
	DB	00H
	DB	00H
	DB	00H
	DB	00H
	DB	010H
	DB	040H
	DB	00H
	DB	020H
	DB	02bH
	DB	099H
	DB	020H
	DB	010H
	DB	063H
	DB	028H
	DB	024H
	DB	01H
	DB	00H
	DB	00H
	DB	00H
	DB	00H
	DB	050H
	DB	060H
	DB	0d4H
	DB	00H
	DB	0d2H
	DB	02aH
	DB	018H
	DB	09dH
	DB	068H
	DB	035H
	DB	097H
	DB	04fH
	DB	0d8H
	DB	0f8H
	DB	020H
	DB	0c4H
	DB	082H
	DB	01cH
	DB	028H
	DB	02H
	DB	00H
	DB	00H
	DB	00H
	DB	00H
	DB	0d6H
	DB	051H
	DB	0aH
	DB	0e0H
	DB	00H
	DB	081H
	DB	086H
	DB	016H
	DB	043H
	DB	0c4H
	DB	035H
	DB	011H
	DB	037H
	DB	060H
	DB	0e6H
	DB	07aH
	DB	06dH
	DB	05H
	DB	0cH
	DB	03dH
	DB	00H
	DB	00H
	DB	00H
	DB	00H
	DB	099H
	DB	039H
	DB	080H
	DB	07H
	DB	022H
	DB	0feH
	DB	081H
	DB	090H
	DB	018H
	DB	090H
	DB	0cH
	DB	074H
	DB	030H
	DB	0d0H
	DB	0a0H
	DB	09H
	DB	029H
	DB	015H
	DB	0fdH
	DB	04H
	DB	00H
	DB	00H
	DB	00H
	DB	00H
	DB	0dfH
	DB	080H
	DB	040H
	DB	08H
	DB	08H
	DB	0b0H
	DB	0dbH
	DB	0c4H
	DB	060H
	DB	0edH
	DB	076H
	DB	07dH
	DB	0f9H
	DB	01dH
	DB	0e4H
	DB	0d3H
	DB	085H
	DB	0a6H
	DB	0cdH
	DB	05H
	DB	00H
	DB	00H
	DB	00H
	DB	00H
	DB	0cH
	DB	00H
	DB	06eH
	DB	0baH
	DB	09H
	DB	02fH
	DB	060H
	DB	054H
	DB	00H
	DB	01eH
	DB	078H
	DB	068H
	DB	022H
	DB	070H
	DB	056H
	DB	09eH
	DB	025H
	DB	0f3H
	DB	08eH
	DB	07H
	DB	00H
	DB	00H
	DB	00H
	DB	0c0H
	DB	05eH
	DB	02cH
	DB	0bcH
	DB	09bH
	DB	0dfH
	DB	05dH
	DB	06cH
	DB	06dH
	DB	04H
	DB	043H
	DB	060H
	DB	036H
	DB	04aH
	DB	060H
	DB	0d8H
	DB	03eH
	DB	07H
	DB	0c4H
	DB	0c8H
	DB	01H
	DB	00H
	DB	00H
	DB	00H
	DB	0a0H
	DB	0b1H
	DB	0c5H
	DB	062H
	DB	0bH
	DB	0cH
	DB	022H
	DB	03eH
	DB	0ccH
	DB	025H
	DB	0b8H
	DB	01H
	DB	0aeH
	DB	0edH
	DB	05cH
	DB	068H
	DB	0dH
	DB	094H
	DB	04aH
	DB	0b5H
	DB	00H
	DB	00H
	DB	00H
	DB	00H
	DB	00H
	DB	0f4H
	DB	03H
	DB	012H
	DB	011H
	DB	010H
	DB	044H
	DB	02H
	DB	035H
	DB	090H
	DB	0ebH
	DB	0eH
	DB	099H
	DB	07H
	DB	0d1H
	DB	0caH
	DB	05H
	DB	082H
	DB	0a1H
	DB	0a0H
	DB	00H
	DB	00H
	DB	00H
	DB	00H
	DB	034H
	DB	018H
	DB	0a0H
	DB	089H
	DB	0e7H
	DB	09cH
	DB	05bH
	DB	08H
	DB	084H
	DB	03H
	DB	02H
	DB	0daH
	DB	090H
	DB	0ecH
	DB	0dbH
	DB	087H
	DB	085H
	DB	0bfH
	DB	0a2H
	DB	02dH
	DB	00H
	DB	00H
	DB	00H
	DB	00H
	DB	076H
	DB	03aH
	DB	076H
	DB	062H
	DB	082H
	DB	094H
	DB	018H
	DB	01H
	DB	018H
	DB	07dH
	DB	0feH
	DB	08dH
	DB	057H
	DB	027H
	DB	013H
	DB	0d2H
	DB	05bH
	DB	037H
	DB	019H
	DB	0cH
	DB	00H
	DB	00H
	DB	00H
	DB	00H
	DB	06eH
	DB	08bH
	DB	021H
	DB	091H
	DB	00H
	DB	00H
	DB	00H
	DB	040H
	DB	00H
	DB	00H
	DB	00H
	DB	02H
	DB	00H
	DB	00H
	DB	00H
	DB	020H
	DB	00H
	DB	00H
	DB	00H
	DB	00H
	DB	00H
	DB	00H
	DB	00H
	DB	00H
	DB	00H
	DB	00H
	DB	00H
	DB	00H
	DB	00H
	DB	00H
	DB	08H
	DB	00H
	DB	00H
	DB	00H
	DB	00H
	DB	00H
	DB	00H
	DB	00H
	DB	00H
	DB	00H
	DB	00H
	DB	00H
	DB	00H
	DB	02H
	DB	00H
	DB	00H
	DB	00H
	DB	00H
	DB	00H
	DB	00H
	DB	08eH
	DB	078H
	DB	06eH
	DB	05fH
	DB	03fH
	DB	07eH
	DB	0ddH
	DB	03dH
	DB	0f7H
	DB	0fcH
	DB	09bH
	DB	0fcH
	DB	0aeH
	DB	0d2H
	DB	0ffH
	DB	08fH
	DB	06bH
	DB	01H
	DB	00H
	DB	00H
	DB	00H
	DB	0c0H
	DB	09fH
	DB	0ffH
	DB	0eaH
	DB	0baH
	DB	0baH
	DB	05dH
	DB	0bcH
	DB	073H
	DB	09fH
	DB	0faH
	DB	0d8H
	DB	0d6H
	DB	0deH
	DB	025H
	DB	04bH
	DB	05eH
	DB	097H
	DB	0daH
	DB	02aH
	DB	01H
	DB	00H
	DB	00H
	DB	00H
	DB	0e0H
	DB	0b6H
	DB	099H
	DB	01bH
	DB	0d8H
	DB	074H
	DB	0e6H
	DB	04fH
	DB	015H
	DB	0bfH
	DB	029H
	DB	0e6H
	DB	0ffH
	DB	026H
	DB	075H
	DB	06dH
	DB	0e3H
	DB	0ffH
	DB	09bH
	DB	052H
	DB	00H
	DB	00H
	DB	00H
	DB	00H
	DB	050H
	DB	060H
	DB	07eH
	DB	06fH
	DB	099H
	DB	0a9H
	DB	050H
	DB	0eH
	DB	00H
	DB	080H
	DB	010H
	DB	0d8H
	DB	023H
	DB	00H
	DB	025H
	DB	010H
	DB	090H
	DB	0f4H
	DB	0ebH
	DB	075H
	DB	00H
	DB	00H
	DB	00H
	DB	00H
	DB	0d0H
	DB	0dbH
	DB	00H
	DB	0a0H
	DB	098H
	DB	0b2H
	DB	07bH
	DB	06H
	DB	052H
	DB	020H
	DB	098H
	DB	016H
	DB	0c8H
	DB	03dH
	DB	09H
	DB	00H
	DB	00H
	DB	01H
	DB	00H
	DB	00H
	DB	00H
	DB	00H
	DB	00H
	DB	00H
	DB	00H
	DB	04H
	DB	028H
	DB	0c8H
	DB	022H
	DB	00H
	DB	02H
	DB	00H
	DB	00H
	DB	010H
	DB	020H
	DB	082H
	DB	050H
	DB	040H
	DB	030H
	DB	01H
	DB	00H
	DB	010H
	DB	00H
	DB	04H
	DB	00H
	DB	00H
	DB	00H
	DB	00H
	DB	04aH
	DB	04H
	DB	01H
	DB	010H
	DB	014H
	DB	00H
	DB	080H
	DB	00H
	DB	04H
	DB	0ffH
	DB	0fdH
	DB	024H
	ORG $+3
big5hkscs_phint_12130 DB 00H
	DB	00H
	DB	00H
	DB	00H
	DB	00H
	DB	00H
	DB	00H
	DB	00H
	DB	00H
	DB	00H
	DB	00H
	DB	00H
	DB	00H
	DB	00H
	DB	00H
	DB	00H
	DB	00H
	DB	00H
	DB	00H
	DB	00H
	DB	00H
	DB	00H
	DB	00H
	DB	00H
	DB	00H
	DB	00H
	DB	00H
	DB	00H
	DB	00H
	DB	00H
	DB	00H
	DB	00H
	DB	00H
	DB	00H
	DB	00H
	DB	00H
	DB	00H
	DB	00H
	DB	00H
	DB	00H
	DB	00H
	DB	00H
	DB	080H
	DB	02H
	DB	00H
	DB	00H
	DB	00H
	DB	00H
	DB	02H
	DB	00H
	DB	00H
	DB	00H
	DB	00H
	DB	00H
	DB	00H
	DB	00H
	DB	00H
	DB	00H
	DB	00H
	DB	00H
	ORG $+4
big5hkscs_phint_21924 DB 00H
	DB	00H
	DB	00H
	DB	00H
	DB	00H
	DB	01aH
	DB	0acH
	DB	0f8H
	DB	0faH
	DB	05aH
	DB	0c0H
	DB	0faH
	DB	033H
	DB	00H
	DB	00H
	DB	00H
	DB	00H
	DB	00H
	DB	081H
	DB	00H
	DB	0a0H
	DB	09cH
	DB	082H
	DB	090H
	DB	09H
	DB	01H
	DB	0b4H
	DB	0c0H
	DB	0b0H
	DB	03H
	DB	056H
	DB	02H
	DB	0a0H
	DB	042H
	DB	02dH
	DB	088H
	DB	01H
	DB	00H
	DB	00H
	DB	00H
	DB	00H
	DB	092H
	DB	077H
	DB	08bH
	DB	060H
	DB	05H
	DB	0c9H
	DB	021H
	DB	06H
	DB	046H
	DB	038H
	DB	060H
	DB	048H
	DB	0c0H
	DB	0b4H
	DB	024H
	DB	0deH
	DB	084H
	DB	0e0H
	DB	0c0H
	DB	024H
	DB	00H
	DB	00H
	DB	00H
	DB	00H
	DB	0cdH
	DB	050H
	DB	0c5H
	DB	034H
	DB	0c0H
	DB	028H
	DB	0a2H
	DB	0adH
	DB	07cH
	DB	099H
	DB	018H
	DB	058H
	DB	012H
	DB	022H
	DB	0c4H
	DB	042H
	DB	0a2H
	DB	053H
	DB	08eH
	DB	01eH
	DB	00H
	DB	00H
	DB	00H
	DB	080H
	DB	034H
	DB	087H
	DB	0bH
	DB	015H
	DB	0d1H
	DB	040H
	DB	0faH
	DB	03dH
	DB	00H
	DB	04H
	DB	0d2H
	DB	05H
	DB	048H
	DB	08H
	DB	016H
	DB	0e6H
	DB	01cH
	DB	0a5H
	DB	00H
	DB	08H
	DB	00H
	DB	00H
	DB	00H
	DB	0c0H
	DB	02dH
	DB	016H
	DB	014H
	DB	080H
	DB	018H
	DB	03aH
	DB	0d4H
	DB	019H
	DB	088H
	DB	01cH
	DB	08aH
	DB	04H
	ORG $+3
__big5hkscs_bmp_encmap DW 0c6d8H
	DW	0ffffH
	DW	0ffffH
	DW	0ffffH
	DW	0ffffH
	DW	0ffffH
	DW	0ffffH
	DW	0ffffH
	DW	0ffffH
	DW	0ffffH
	DW	0ffffH
	DW	0ffffH
	DW	0ffffH
	DW	0ffffH
	DW	0ffffH
	DW	0ffffH
	DW	0ffffH
	DW	0ffffH
	DW	0ffffH
	DW	0ffffH
	DW	0ffffH
	DW	0ffffH
	DW	0ffffH
	DW	0ffffH
	DW	08859H
	DW	08857H
	DW	0ffffH
	DW	0ffffH
	DW	0ffffH
	DW	0ffffH
	DW	0ffffH
	DW	0ffffH
	DW	0885dH
	DW	0885bH
	DW	0fffeH
	DW	0ffffH
	DW	0ffffH
	DW	0ffffH
	DW	0ffffH
	DW	0ffffH
	DW	0ffffH
	DW	0ffffH
	DW	08861H
	DW	0885fH
	DW	0ffffH
	DW	0ffffH
	DW	0ffffH
	DW	0ffffH
	DW	0ffffH
	DW	0ffffH
	DW	0ffffH
	DW	0ffffH
	DW	0ffffH
	DW	0ffffH
	DW	0ffffH
	DW	0ffffH
	DW	0886aH
	DW	08868H
	DW	0ffffH
	DW	0ffffH
	DW	0ffffH
	DW	0ffffH
	DW	0ffffH
	DW	0ffffH
	DW	0886fH
	DW	0886dH
	DW	0fffeH
	DW	0ffffH
	DW	08873H
	DW	08871H
	DW	0ffffH
	DW	0ffffH
	DW	0ffffH
	DW	0ffffH
	DW	08877H
	DW	08875H
	DW	0ffffH
	DW	0ffffH
	DW	0ffffH
	DW	0ffffH
	DW	0c8fbH
	DW	0887bH
	DW	08879H
	DW	0ffffH
	DW	088a2H
	DW	08856H
	DW	08867H
	DW	0ffffH
	DW	0ffffH
	DW	0ffffH
	DW	0ffffH
	DW	0ffffH
	DW	0ffffH
	DW	0ffffH
	DW	0ffffH
	DW	0ffffH
	DW	0ffffH
	DW	0ffffH
	DW	0ffffH
	DW	0ffffH
	DW	0ffffH
	DW	0ffffH
	DW	0ffffH
	DW	0885aH
	DW	0886cH
	DW	0ffffH
	DW	0ffffH
	DW	0ffffH
	DW	0ffffH
	DW	0ffffH
	DW	0ffffH
	DW	0885cH
	DW	0886eH
	DW	0ffffH
	DW	0ffffH
	DW	0ffffH
	DW	0ffffH
	DW	0ffffH
	DW	0ffffH
	DW	0ffffH
	DW	0ffffH
	DW	0ffffH
	DW	0ffffH
	DW	0ffffH
	DW	0ffffH
	DW	0ffffH
	DW	0ffffH
	DW	0ffffH
	DW	08870H
	DW	0ffffH
	DW	0ffffH
	DW	0ffffH
	DW	0ffffH
	DW	0ffffH
	DW	0ffffH
	DW	0ffffH
	DW	0ffffH
	DW	0ffffH
	DW	0ffffH
	DW	0ffffH
	DW	0ffffH
	DW	0ffffH
	DW	0ffffH
	DW	0ffffH
	DW	0ffffH
	DW	0ffffH
	DW	0ffffH
	DW	0ffffH
	DW	0ffffH
	DW	0ffffH
	DW	0ffffH
	DW	0ffffH
	DW	0ffffH
	DW	0ffffH
	DW	0ffffH
	DW	0ffffH
	DW	0ffffH
	DW	0ffffH
	DW	0ffffH
	DW	0ffffH
	DW	0c8fcH
	DW	0885eH
	DW	08874H
	DW	0ffffH
	DW	0ffffH
	DW	0ffffH
	DW	0ffffH
	DW	0ffffH
	DW	0c8faH
	DW	0ffffH
	DW	0ffffH
	DW	0ffffH
	DW	0ffffH
	DW	0ffffH
	DW	0ffffH
	DW	0ffffH
	DW	0ffffH
	DW	0ffffH
	DW	0ffffH
	DW	0ffffH
	DW	0ffffH
	DW	0ffffH
	DW	0ffffH
	DW	0ffffH
	DW	0ffffH
	DW	0ffffH
	DW	0ffffH
	DW	0ffffH
	DW	0ffffH
	DW	0ffffH
	DW	0ffffH
	DW	0ffffH
	DW	08878H
	DW	0ffffH
	DW	0ffffH
	DW	0ffffH
	DW	0ffffH
	DW	0ffffH
	DW	0ffffH
	DW	0ffffH
	DW	0ffffH
	DW	0ffffH
	DW	0ffffH
	DW	0ffffH
	DW	0ffffH
	DW	0ffffH
	DW	0ffffH
	DW	0ffffH
	DW	0ffffH
	DW	0ffffH
	DW	0ffffH
	DW	0ffffH
	DW	0ffffH
	DW	0ffffH
	DW	0ffffH
	DW	0ffffH
	DW	0ffffH
	DW	0ffffH
	DW	0ffffH
	DW	0ffffH
	DW	0ffffH
	DW	0ffffH
	DW	0ffffH
	DW	0ffffH
	DW	0ffffH
	DW	0ffffH
	DW	0ffffH
	DW	0ffffH
	DW	0ffffH
	DW	0ffffH
	DW	0ffffH
	DW	0ffffH
	DW	0ffffH
	DW	0ffffH
	DW	0ffffH
	DW	0ffffH
	DW	0ffffH
	DW	0ffffH
	DW	0ffffH
	DW	0ffffH
	DW	0ffffH
	DW	0ffffH
	DW	0ffffH
	DW	0ffffH
	DW	0ffffH
	DW	0ffffH
	DW	0ffffH
	DW	0ffffH
	DW	0ffffH
	DW	0ffffH
	DW	0ffffH
	DW	0ffffH
	DW	0ffffH
	DW	0ffffH
	DW	0ffffH
	DW	0ffffH
	DW	0ffffH
	DW	0ffffH
	DW	0ffffH
	DW	0ffffH
	DW	0ffffH
	DW	0ffffH
	DW	0ffffH
	DW	0ffffH
	DW	0ffffH
	DW	0ffffH
	DW	0ffffH
	DW	0ffffH
	DW	0ffffH
	DW	0ffffH
	DW	0ffffH
	DW	0ffffH
	DW	0ffffH
	DW	0ffffH
	DW	0ffffH
	DW	0ffffH
	DW	0ffffH
	DW	0ffffH
	DW	0ffffH
	DW	0ffffH
	DW	0ffffH
	DW	0ffffH
	DW	0ffffH
	DW	0ffffH
	DW	0ffffH
	DW	0ffffH
	DW	0ffffH
	DW	0ffffH
	DW	0ffffH
	DW	0ffffH
	DW	08858H
	DW	08869H
	DW	0ffffH
	DW	08872H
	DW	08860H
	DW	08876H
	DW	0ffffH
	DW	0887aH
	DW	0ffffH
	DW	0887cH
	DW	0ffffH
	DW	0887dH
	DW	0ffffH
	DW	0887eH
	DW	0ffffH
	DW	088a1H
	DW	0c8f6H
	DW	0886bH
	DW	0ffffH
	DW	0ffffH
	DW	0c8f8H
	DW	0ffffH
	DW	0ffffH
	DW	0ffffH
	DW	0ffffH
	DW	0ffffH
	DW	0ffffH
	DW	0c8f7H
	DW	0ffffH
	DW	0ffffH
	DW	0ffffH
	DW	0ffffH
	DW	0ffffH
	DW	088a8H
	DW	0ffffH
	DW	0ffffH
	DW	0ffffH
	DW	0ffffH
	DW	0ffffH
	DW	0ffffH
	DW	0ffffH
	DW	0ffffH
	DW	0c8feH
	DW	0ffffH
	DW	0ffffH
	DW	0ffffH
	DW	0ffffH
	DW	0ffffH
	DW	0ffffH
	DW	0ffffH
	DW	0ffffH
	DW	0ffffH
	DW	0ffffH
	DW	0c8f9H
	DW	0ffffH
	DW	0ffffH
	DW	0ffffH
	DW	0ffffH
	DW	0ffffH
	DW	0ffffH
	DW	0ffffH
	DW	0ffffH
	DW	0ffffH
	DW	0ffffH
	DW	0ffffH
	DW	0ffffH
	DW	0ffffH
	DW	0c8f5H
	DW	0ffffH
	DW	0ffffH
	DW	0ffffH
	DW	0ffffH
	DW	0ffffH
	DW	0ffffH
	DW	0c8fdH
	DW	0ffffH
	DW	0ffffH
	DW	0ffffH
	DW	0ffffH
	DW	0ffffH
	DW	0ffffH
	DW	0ffffH
	DW	0ffffH
	DW	0ffffH
	DW	0ffffH
	DW	0ffffH
	DW	0ffffH
	DW	0ffffH
	DW	0ffffH
	DW	0ffffH
	DW	0ffffH
	DW	0ffffH
	DW	0ffffH
	DW	0ffffH
	DW	0ffffH
	DW	0ffffH
	DW	0ffffH
	DW	0ffffH
	DW	0ffffH
	DW	0ffffH
	DW	0ffffH
	DW	0ffffH
	DW	0ffffH
	DW	0ffffH
	DW	0ffffH
	DW	0ffffH
	DW	0ffffH
	DW	0ffffH
	DW	0ffffH
	DW	0ffffH
	DW	0ffffH
	DW	0ffffH
	DW	0ffffH
	DW	0ffffH
	DW	0ffffH
	DW	0ffffH
	DW	0ffffH
	DW	0ffffH
	DW	0ffffH
	DW	0ffffH
	DW	0ffffH
	DW	0ffffH
	DW	0ffffH
	DW	0ffffH
	DW	0ffffH
	DW	0ffffH
	DW	0ffffH
	DW	0ffffH
	DW	0ffffH
	DW	0ffffH
	DW	0ffffH
	DW	0ffffH
	DW	0ffffH
	DW	0ffffH
	DW	0c6d9H
	DW	0c7f9H
	DW	0ffffH
	DW	0ffffH
	DW	0ffffH
	DW	0ffffH
	DW	0ffffH
	DW	0ffffH
	DW	0ffffH
	DW	0ffffH
	DW	0ffffH
	DW	0ffffH
	DW	0ffffH
	DW	0ffffH
	DW	0ffffH
	DW	0ffffH
	DW	0c7f3H
	DW	0c7f4H
	DW	0c7f5H
	DW	0c7f6H
	DW	0c7f7H
	DW	0c7f8H
	DW	0c7faH
	DW	0c7fbH
	DW	0c7fcH
	DW	0c7fdH
	DW	0c7feH
	DW	0c840H
	DW	0c841H
	DW	0c842H
	DW	0c843H
	DW	0c844H
	DW	0c845H
	DW	0c846H
	DW	0c847H
	DW	0c848H
	DW	0c849H
	DW	0c84aH
	DW	0c84bH
	DW	0c84cH
	DW	0c84dH
	DW	0c84eH
	DW	0c84fH
	DW	0c850H
	DW	0c851H
	DW	0c852H
	DW	0c853H
	DW	0c854H
	DW	0c855H
	DW	0c856H
	DW	0c857H
	DW	0c858H
	DW	0c859H
	DW	0c85aH
	DW	0c85cH
	DW	0c85dH
	DW	0c85eH
	DW	0c85fH
	DW	0c860H
	DW	0c861H
	DW	0c862H
	DW	0c863H
	DW	0c864H
	DW	0c865H
	DW	0c866H
	DW	0c867H
	DW	0c868H
	DW	0c869H
	DW	0c86aH
	DW	0c86bH
	DW	0c86cH
	DW	0c86dH
	DW	0c86eH
	DW	0c86fH
	DW	0c870H
	DW	0c871H
	DW	0c872H
	DW	0c873H
	DW	0c874H
	DW	0c875H
	DW	0ffffH
	DW	0c85bH
	DW	08863H
	DW	088a4H
	DW	08865H
	DW	088a6H
	DW	0c8d2H
	DW	0ffffH
	DW	0ffffH
	DW	0ffffH
	DW	0ffffH
	DW	0ffffH
	DW	0ffffH
	DW	0ffffH
	DW	0ffffH
	DW	0ffffH
	DW	0ffffH
	DW	0c8d3H
	DW	0ffffH
	DW	0ffffH
	DW	0ffffH
	DW	0ffffH
	DW	0ffffH
	DW	0ffffH
	DW	0ffffH
	DW	0ffffH
	DW	0ffffH
	DW	0ffffH
	DW	0ffffH
	DW	0ffffH
	DW	0ffffH
	DW	0ffffH
	DW	0ffffH
	DW	0ffffH
	DW	0ffffH
	DW	0ffffH
	DW	0ffffH
	DW	0ffffH
	DW	0ffffH
	DW	0ffffH
	DW	0ffffH
	DW	0ffffH
	DW	0ffffH
	DW	0ffffH
	DW	0ffffH
	DW	0ffffH
	DW	0ffffH
	DW	0ffffH
	DW	0ffffH
	DW	0ffffH
	DW	0ffffH
	DW	0ffffH
	DW	0ffffH
	DW	0ffffH
	DW	0ffffH
	DW	0ffffH
	DW	0ffffH
	DW	0ffffH
	DW	0ffffH
	DW	0ffffH
	DW	0ffffH
	DW	0ffffH
	DW	0ffffH
	DW	0ffffH
	DW	0ffffH
	DW	0ffffH
	DW	0ffffH
	DW	0ffffH
	DW	0ffffH
	DW	0ffffH
	DW	0ffffH
	DW	0ffffH
	DW	0ffffH
	DW	0ffffH
	DW	0ffffH
	DW	0ffffH
	DW	0ffffH
	DW	0ffffH
	DW	0ffffH
	DW	0ffffH
	DW	0ffffH
	DW	0ffffH
	DW	0ffffH
	DW	0ffffH
	DW	0ffffH
	DW	0ffffH
	DW	0ffffH
	DW	0ffffH
	DW	0ffffH
	DW	0ffffH
	DW	0ffffH
	DW	0ffffH
	DW	0ffffH
	DW	0ffffH
	DW	0ffffH
	DW	0ffffH
	DW	0c6b5H
	DW	0c6b6H
	DW	0c6b7H
	DW	0c6b8H
	DW	0c6b9H
	DW	0c6baH
	DW	0c6bbH
	DW	0c6bcH
	DW	0c6bdH
	DW	0c6beH
	DW	0ffffH
	DW	0ffffH
	DW	0ffffH
	DW	0ffffH
	DW	0ffffH
	DW	0ffffH
	DW	0ffffH
	DW	0ffffH
	DW	0ffffH
	DW	0ffffH
	DW	0ffffH
	DW	0ffffH
	DW	0ffffH
	DW	0ffffH
	DW	0ffffH
	DW	0ffffH
	DW	0ffffH
	DW	0ffffH
	DW	0ffffH
	DW	0ffffH
	DW	0ffffH
	DW	0ffffH
	DW	0ffffH
	DW	0ffffH
	DW	0ffffH
	DW	0ffffH
	DW	0ffffH
	DW	0ffffH
	DW	0ffffH
	DW	0ffffH
	DW	0ffffH
	DW	0ffffH
	DW	0ffffH
	DW	0ffffH
	DW	0ffffH
	DW	0ffffH
	DW	0ffffH
	DW	0ffffH
	DW	0ffffH
	DW	0ffffH
	DW	0ffffH
	DW	0ffffH
	DW	0ffffH
	DW	0ffffH
	DW	0ffffH
	DW	0ffffH
	DW	0ffffH
	DW	0ffffH
	DW	0ffffH
	DW	0ffffH
	DW	0ffffH
	DW	0ffffH
	DW	0ffffH
	DW	0ffffH
	DW	0ffffH
	DW	0ffffH
	DW	0ffffH
	DW	0ffffH
	DW	0ffffH
	DW	0ffffH
	DW	0ffffH
	DW	0ffffH
	DW	0c877H
	DW	0c878H
	DW	0ffffH
	DW	0ffffH
	DW	0ffffH
	DW	0ffffH
	DW	0ffffH
	DW	0ffffH
	DW	0ffffH
	DW	0ffffH
	DW	0ffffH
	DW	0ffffH
	DW	0ffffH
	DW	0ffffH
	DW	0ffffH
	DW	0ffffH
	DW	0ffffH
	DW	0ffffH
	DW	0ffffH
	DW	0ffffH
	DW	0ffffH
	DW	0ffffH
	DW	0ffffH
	DW	0ffffH
	DW	0ffffH
	DW	0ffffH
	DW	0ffffH
	DW	0ffffH
	DW	0ffffH
	DW	0ffffH
	DW	0ffffH
	DW	0ffffH
	DW	0ffffH
	DW	0ffffH
	DW	0ffffH
	DW	0ffffH
	DW	0ffffH
	DW	0ffffH
	DW	0ffffH
	DW	0ffffH
	DW	0ffffH
	DW	0ffffH
	DW	0ffffH
	DW	0ffffH
	DW	0ffffH
	DW	0ffffH
	DW	0ffffH
	DW	0c876H
	DW	088a9H
	DW	088aaH
	DW	0c6a1H
	DW	0c6a2H
	DW	0c6a3H
	DW	0c6a4H
	DW	0c6a5H
	DW	0c6a6H
	DW	0c6a7H
	DW	0c6a8H
	DW	0c6a9H
	DW	0c6aaH
	DW	0ffffH
	DW	0ffffH
	DW	0ffffH
	DW	0ffffH
	DW	0ffffH
	DW	0ffffH
	DW	0ffffH
	DW	0ffffH
	DW	0ffffH
	DW	0ffffH
	DW	0c6abH
	DW	0c6acH
	DW	0c6adH
	DW	0c6aeH
	DW	0c6afH
	DW	0c6b0H
	DW	0c6b1H
	DW	0c6b2H
	DW	0c6b3H
	DW	0c6b4H
	DW	0f9f9H
	DW	0f9f8H
	DW	0f9e6H
	DW	0f9efH
	DW	0f9ddH
	DW	0f9e8H
	DW	0f9f1H
	DW	0f9dfH
	DW	0f9ecH
	DW	0f9f5H
	DW	0f9e3H
	DW	0f9eeH
	DW	0f9f7H
	DW	0f9e5H
	DW	0f9e9H
	DW	0f9f2H
	DW	0f9e0H
	DW	0f9ebH
	DW	0f9f4H
	DW	0f9e2H
	DW	0f9e7H
	DW	0f9f0H
	DW	0f9deH
	DW	0f9edH
	DW	0f9f6H
	DW	0f9e4H
	DW	0f9eaH
	DW	0f9f3H
	DW	0f9e1H
	DW	0f9faH
	DW	0f9fbH
	DW	0f9fdH
	DW	0f9fcH
	DW	0c6e6H
	DW	0c8d6H
	DW	0ffffH
	DW	0ffffH
	DW	0ffffH
	DW	0c8d7H
	DW	0ffffH
	DW	0c8d8H
	DW	0c8d9H
	DW	0c8daH
	DW	0ffffH
	DW	0c8dbH
	DW	0ffffH
	DW	0c8dcH
	DW	0c8ddH
	DW	0ffffH
	DW	0ffffH
	DW	0ffffH
	DW	0ffffH
	DW	0ffffH
	DW	0ffffH
	DW	0ffffH
	DW	0c8deH
	DW	0ffffH
	DW	0ffffH
	DW	0ffffH
	DW	0ffffH
	DW	0ffffH
	DW	0ffffH
	DW	0c8dfH
	DW	0c8e0H
	DW	0ffffH
	DW	0ffffH
	DW	0ffffH
	DW	0ffffH
	DW	0ffffH
	DW	0ffffH
	DW	0ffffH
	DW	0c8e1H
	DW	0ffffH
	DW	0c8e2H
	DW	0ffffH
	DW	0ffffH
	DW	0c8e3H
	DW	0ffffH
	DW	0c8e4H
	DW	0ffffH
	DW	0c8e5H
	DW	0ffffH
	DW	0ffffH
	DW	0ffffH
	DW	0ffffH
	DW	0ffffH
	DW	0ffffH
	DW	0ffffH
	DW	0c8e6H
	DW	0ffffH
	DW	0ffffH
	DW	0ffffH
	DW	0ffffH
	DW	0ffffH
	DW	0c8e7H
	DW	0ffffH
	DW	0c8e8H
	DW	0ffffH
	DW	0ffffH
	DW	0ffffH
	DW	0ffffH
	DW	0ffffH
	DW	0ffffH
	DW	0ffffH
	DW	0c8e9H
	DW	0ffffH
	DW	0ffffH
	DW	0ffffH
	DW	0c8eaH
	DW	0ffffH
	DW	0c8ebH
	DW	0c8ecH
	DW	0ffffH
	DW	0c8edH
	DW	0ffffH
	DW	0ffffH
	DW	0ffffH
	DW	0ffffH
	DW	0ffffH
	DW	0ffffH
	DW	0c8eeH
	DW	0c8efH
	DW	0ffffH
	DW	0ffffH
	DW	0ffffH
	DW	0ffffH
	DW	0ffffH
	DW	0ffffH
	DW	0c8f0H
	DW	0ffffH
	DW	0ffffH
	DW	0ffffH
	DW	0ffffH
	DW	0c8f1H
	DW	0c6cdH
	DW	0c6e0H
	DW	0c6e1H
	DW	0c6e2H
	DW	0ffffH
	DW	0ffffH
	DW	0ffffH
	DW	0ffffH
	DW	0ffffH
	DW	0ffffH
	DW	0ffffH
	DW	0ffffH
	DW	0ffffH
	DW	0ffffH
	DW	0ffffH
	DW	0ffffH
	DW	0ffffH
	DW	0ffffH
	DW	0ffffH
	DW	0ffffH
	DW	0ffffH
	DW	0ffffH
	DW	0ffffH
	DW	0ffffH
	DW	0ffffH
	DW	0ffffH
	DW	0ffffH
	DW	0ffffH
	DW	0ffffH
	DW	0ffffH
	DW	0ffffH
	DW	0ffffH
	DW	0ffffH
	DW	0ffffH
	DW	0ffffH
	DW	0ffffH
	DW	0ffffH
	DW	0ffffH
	DW	0ffffH
	DW	0ffffH
	DW	0ffffH
	DW	0ffffH
	DW	0ffffH
	DW	0ffffH
	DW	0ffffH
	DW	0ffffH
	DW	0ffffH
	DW	0ffffH
	DW	0ffffH
	DW	0ffffH
	DW	0ffffH
	DW	0ffffH
	DW	0ffffH
	DW	0ffffH
	DW	0ffffH
	DW	0ffffH
	DW	0ffffH
	DW	0ffffH
	DW	0ffffH
	DW	0ffffH
	DW	0ffffH
	DW	0c6e7H
	DW	0c6e8H
	DW	0c6e9H
	DW	0c6eaH
	DW	0c6ebH
	DW	0c6ecH
	DW	0c6edH
	DW	0c6eeH
	DW	0c6efH
	DW	0c6f0H
	DW	0c6f1H
	DW	0c6f2H
	DW	0c6f3H
	DW	0c6f4H
	DW	0c6f5H
	DW	0c6f6H
	DW	0c6f7H
	DW	0c6f8H
	DW	0c6f9H
	DW	0c6faH
	DW	0c6fbH
	DW	0c6fcH
	DW	0c6fdH
	DW	0c6feH
	DW	0c740H
	DW	0c741H
	DW	0c742H
	DW	0c743H
	DW	0c744H
	DW	0c745H
	DW	0c746H
	DW	0c747H
	DW	0c748H
	DW	0c749H
	DW	0c74aH
	DW	0c74bH
	DW	0c74cH
	DW	0c74dH
	DW	0c74eH
	DW	0c74fH
	DW	0c750H
	DW	0c751H
	DW	0c752H
	DW	0c753H
	DW	0c754H
	DW	0c755H
	DW	0c756H
	DW	0c757H
	DW	0c758H
	DW	0c759H
	DW	0c75aH
	DW	0c75bH
	DW	0c75cH
	DW	0c75dH
	DW	0c75eH
	DW	0c75fH
	DW	0c760H
	DW	0c761H
	DW	0c762H
	DW	0c763H
	DW	0c764H
	DW	0c765H
	DW	0c766H
	DW	0c767H
	DW	0c768H
	DW	0c769H
	DW	0c76aH
	DW	0c76bH
	DW	0c76cH
	DW	0c76dH
	DW	0c76eH
	DW	0c76fH
	DW	0c770H
	DW	0c771H
	DW	0c772H
	DW	0c773H
	DW	0c774H
	DW	0c775H
	DW	0c776H
	DW	0c777H
	DW	0c778H
	DW	0c779H
	DW	0c77aH
	DW	0ffffH
	DW	0ffffH
	DW	0ffffH
	DW	0ffffH
	DW	0ffffH
	DW	0ffffH
	DW	0ffffH
	DW	0c8d4H
	DW	0c8d5H
	DW	0c6dcH
	DW	0c6ddH
	DW	0ffffH
	DW	0ffffH
	DW	0c77bH
	DW	0c77cH
	DW	0c77dH
	DW	0c77eH
	DW	0c7a1H
	DW	0c7a2H
	DW	0c7a3H
	DW	0c7a4H
	DW	0c7a5H
	DW	0c7a6H
	DW	0c7a7H
	DW	0c7a8H
	DW	0c7a9H
	DW	0c7aaH
	DW	0c7abH
	DW	0c7acH
	DW	0c7adH
	DW	0c7aeH
	DW	0c7afH
	DW	0c7b0H
	DW	0c7b1H
	DW	0c7b2H
	DW	0c7b3H
	DW	0c7b4H
	DW	0c7b5H
	DW	0c7b6H
	DW	0c7b7H
	DW	0c7b8H
	DW	0c7b9H
	DW	0c7baH
	DW	0c7bbH
	DW	0c7bcH
	DW	0c7bdH
	DW	0c7beH
	DW	0c7bfH
	DW	0c7c0H
	DW	0c7c1H
	DW	0c7c2H
	DW	0c7c3H
	DW	0c7c4H
	DW	0c7c5H
	DW	0c7c6H
	DW	0c7c7H
	DW	0c7c8H
	DW	0c7c9H
	DW	0c7caH
	DW	0c7cbH
	DW	0c7ccH
	DW	0c7cdH
	DW	0c7ceH
	DW	0c7cfH
	DW	0c7d0H
	DW	0c7d1H
	DW	0c7d2H
	DW	0c7d3H
	DW	0c7d4H
	DW	0c7d5H
	DW	0c7d6H
	DW	0c7d7H
	DW	0c7d8H
	DW	0c7d9H
	DW	0c7daH
	DW	0c7dbH
	DW	0c7dcH
	DW	0c7ddH
	DW	0c7deH
	DW	0c7dfH
	DW	0c7e0H
	DW	0c7e1H
	DW	0c7e2H
	DW	0c7e3H
	DW	0c7e4H
	DW	0c7e5H
	DW	0c7e6H
	DW	0c7e7H
	DW	0c7e8H
	DW	0c7e9H
	DW	0c7eaH
	DW	0c7ebH
	DW	0c7ecH
	DW	0c7edH
	DW	0c7eeH
	DW	0c7efH
	DW	0c7f0H
	DW	0c7f1H
	DW	0c7f2H
	DW	0ffffH
	DW	0ffffH
	DW	0ffffH
	DW	0ffffH
	DW	0ffffH
	DW	0c6e3H
	DW	0c6daH
	DW	0c6dbH
	DW	08840H
	DW	08841H
	DW	08842H
	DW	08843H
	DW	08844H
	DW	08846H
	DW	08849H
	DW	0884aH
	DW	0884dH
	DW	0884fH
	DW	08850H
	DW	08851H
	DW	08852H
	DW	08854H
	DW	08855H
	DW	0c879H
	DW	0c8d1H
	DW	09277H
	DW	0ffffH
	DW	0ffffH
	DW	0ffffH
	DW	0ffffH
	DW	0ffffH
	DW	0ffffH
	DW	0ffffH
	DW	0ffffH
	DW	0ffffH
	DW	0ffffH
	DW	096dfH
	DW	0ffffH
	DW	0ffffH
	DW	0ffffH
	DW	0ffffH
	DW	0ffffH
	DW	0ffffH
	DW	0ffffH
	DW	0ffffH
	DW	0ffffH
	DW	08cf4H
	DW	0ffffH
	DW	089d5H
	DW	0ffffH
	DW	0ffffH
	DW	0ffffH
	DW	0ffffH
	DW	0ffffH
	DW	0ffffH
	DW	0ffffH
	DW	0ffffH
	DW	0ffffH
	DW	0ffffH
	DW	0ffffH
	DW	0ffffH
	DW	0ffffH
	DW	0ffffH
	DW	0ffffH
	DW	0ffffH
	DW	0ffffH
	DW	0ffffH
	DW	0ffffH
	DW	0ffffH
	DW	0ffffH
	DW	0ffffH
	DW	0ffffH
	DW	093cdH
	DW	0ffffH
	DW	0ffffH
	DW	0ffffH
	DW	0ffffH
	DW	0ffffH
	DW	0ffffH
	DW	0ffffH
	DW	0ffffH
	DW	0ffffH
	DW	0ffffH
	DW	0ffffH
	DW	0ffffH
	DW	0ffffH
	DW	0ffffH
	DW	09bdfH
	DW	0ffffH
	DW	0ffffH
	DW	0ffffH
	DW	0ffffH
	DW	0ffffH
	DW	0ffffH
	DW	0fa68H
	DW	0ffffH
	DW	0ffffH
	DW	089daH
	DW	08f59H
	DW	0ffffH
	DW	0ffffH
	DW	0ffffH
	DW	0ffffH
	DW	0ffffH
	DW	0ffffH
	DW	0ffffH
	DW	0ffffH
	DW	0ffffH
	DW	0ffffH
	DW	0ffffH
	DW	0ffffH
	DW	0ffffH
	DW	0ffffH
	DW	0ffffH
	DW	0ffffH
	DW	0ffffH
	DW	0ffffH
	DW	0ffffH
	DW	0ffffH
	DW	089dbH
	DW	0ffffH
	DW	0ffffH
	DW	08f5dH
	DW	0ffffH
	DW	0ffffH
	DW	0ffffH
	DW	0ffffH
	DW	0ffffH
	DW	0ffffH
	DW	0ffffH
	DW	0ffffH
	DW	0ffffH
	DW	0ffffH
	DW	0ffffH
	DW	0ffffH
	DW	0ffffH
	DW	0ffffH
	DW	089dcH
	DW	0ffffH
	DW	0ffffH
	DW	0ffffH
	DW	0ffffH
	DW	0ffffH
	DW	0ffffH
	DW	0ffffH
	DW	0ffffH
	DW	0ffffH
	DW	096f7H
	DW	0ffffH
	DW	0ffffH
	DW	0ffffH
	DW	0ffffH
	DW	0ffffH
	DW	0ffffH
	DW	0ffffH
	DW	0ffffH
	DW	0ffffH
	DW	0ffffH
	DW	0ffffH
	DW	0ffffH
	DW	08adaH
	DW	0ffffH
	DW	0ffffH
	DW	0ffffH
	DW	0ffffH
	DW	08bdcH
	DW	0ffffH
	DW	0ffffH
	DW	0ffffH
	DW	0ffffH
	DW	0ffffH
	DW	0ffffH
	DW	097dbH
	DW	0ffffH
	DW	0ffffH
	DW	0ffffH
	DW	0ffffH
	DW	0ffffH
	DW	0ffffH
	DW	0ffffH
	DW	0ffffH
	DW	0ffffH
	DW	0ffffH
	DW	0ffffH
	DW	0ffffH
	DW	0ffffH
	DW	0ffffH
	DW	0ffffH
	DW	0ffffH
	DW	0ffffH
	DW	0ffffH
	DW	0ffffH
	DW	0ffffH
	DW	0ffffH
	DW	0ffffH
	DW	09e53H
	DW	0ffffH
	DW	0ffffH
	DW	0ffffH
	DW	0ffffH
	DW	09daaH
	DW	0ffffH
	DW	0ffffH
	DW	0ffffH
	DW	0ffffH
	DW	0ffffH
	DW	0ffffH
	DW	0ffffH
	DW	0ffffH
	DW	0ffffH
	DW	0ffffH
	DW	0ffffH
	DW	0ffffH
	DW	0ffffH
	DW	0ffffH
	DW	0ffffH
	DW	0ffffH
	DW	0ffffH
	DW	0ffffH
	DW	0ffffH
	DW	0ffffH
	DW	0ffffH
	DW	0ffffH
	DW	09beaH
	DW	08a6eH
	DW	0ffffH
	DW	0ffffH
	DW	0ffffH
	DW	0ffffH
	DW	0ffffH
	DW	0ffffH
	DW	0ffffH
	DW	0ffffH
	DW	0ffffH
	DW	0ffffH
	DW	0ffffH
	DW	0ffffH
	DW	0ffffH
	DW	0ffffH
	DW	0ffffH
	DW	0ffffH
	DW	0ffffH
	DW	0ffffH
	DW	0ffffH
	DW	0ffffH
	DW	0ffffH
	DW	0ffffH
	DW	0ffffH
	DW	0ffffH
	DW	0ffffH
	DW	0ffffH
	DW	0ffffH
	DW	0ffffH
	DW	0ffffH
	DW	0ffffH
	DW	0ffffH
	DW	0ffffH
	DW	0ffffH
	DW	0ffffH
	DW	0ffffH
	DW	0ffffH
	DW	0ffffH
	DW	0ffffH
	DW	0ffffH
	DW	0ffffH
	DW	0ffffH
	DW	0ffffH
	DW	0ffffH
	DW	0ffffH
	DW	0ffffH
	DW	0ffffH
	DW	0ffffH
	DW	0ffffH
	DW	0ffffH
	DW	0ffffH
	DW	0ffffH
	DW	0ffffH
	DW	0ffffH
	DW	0ffffH
	DW	0ffffH
	DW	08bc8H
	DW	0ffffH
	DW	0ffffH
	DW	0ffffH
	DW	0ffffH
	DW	0ffffH
	DW	0ffffH
	DW	0ffffH
	DW	0ffffH
	DW	0ffffH
	DW	0ffffH
	DW	0ffffH
	DW	0ffffH
	DW	0ffffH
	DW	0ffffH
	DW	0ffffH
	DW	0ffffH
	DW	0ffffH
	DW	0ffffH
	DW	089e8H
	DW	0ffffH
	DW	089eaH
	DW	0ffffH
	DW	0ffffH
	DW	0ffffH
	DW	0ffffH
	DW	0ffffH
	DW	08c4bH
	DW	0ffffH
	DW	0ffffH
	DW	0ffffH
	DW	0ffffH
	DW	0ffffH
	DW	0ffffH
	DW	0ffffH
	DW	0fb70H
	DW	0ffffH
	DW	0ffffH
	DW	0ffffH
	DW	0ffffH
	DW	0ffffH
	DW	0ffffH
	DW	0ffffH
	DW	0ffffH
	DW	0ffffH
	DW	0ffffH
	DW	0ffffH
	DW	089edH
	DW	0ffffH
	DW	0ffffH
	DW	094ddH
	DW	0ffffH
	DW	089eeH
	DW	0ffffH
	DW	0ffffH
	DW	0ffffH
	DW	0ffffH
	DW	09eb4H
	DW	08ad3H
	DW	0ffffH
	DW	0ffffH
	DW	0ffffH
	DW	0ffffH
	DW	0ffffH
	DW	0ffffH
	DW	0ffffH
	DW	0ffffH
	DW	0ffffH
	DW	0ffffH
	DW	0ffffH
	DW	092dbH
	DW	0ffffH
	DW	0ffffH
	DW	0ffffH
	DW	0ffffH
	DW	0ffffH
	DW	0ffffH
	DW	0ffffH
	DW	0ffffH
	DW	0ffffH
	DW	0ffffH
	DW	0ffffH
	DW	0ffffH
	DW	0ffffH
	DW	0ffffH
	DW	0ffffH
	DW	0ffffH
	DW	0ffffH
	DW	0ffffH
	DW	094dbH
	DW	089f9H
	DW	0ffffH
	DW	0ffffH
	DW	0ffffH
	DW	0ffffH
	DW	0ffffH
	DW	0ffffH
	DW	0ffffH
	DW	0ffffH
	DW	0fb7aH
	DW	0ffffH
	DW	0ffffH
	DW	0ffffH
	DW	089fbH
	DW	0ffffH
	DW	0ffffH
	DW	0ffffH
	DW	0ffffH
	DW	0ffffH
	DW	0ffffH
	DW	0ffffH
	DW	09efcH
	DW	0ffffH
	DW	0ffffH
	DW	0ffffH
	DW	0ffffH
	DW	0ffffH
	DW	0ffffH
	DW	0ffffH
	DW	0ffffH
	DW	0ffffH
	DW	0ffffH
	DW	0ffffH
	DW	0ffffH
	DW	0ffffH
	DW	0ffffH
	DW	0ffffH
	DW	0ffffH
	DW	0ffffH
	DW	089fcH
	DW	0ffffH
	DW	089bfH
	DW	0ffffH
	DW	0ffffH
	DW	0ffffH
	DW	089feH
	DW	0ffffH
	DW	089e6H
	DW	0ffffH
	DW	0ffffH
	DW	09d46H
	DW	0ffffH
	DW	0ffffH
	DW	0ffffH
	DW	09deeH
	DW	0ffffH
	DW	0ffffH
	DW	0ffffH
	DW	0a07eH
	DW	0ffffH
	DW	0ffffH
	DW	0ffffH
	DW	0a068H
	DW	0ffffH
	DW	0ffffH
	DW	0ffffH
	DW	0ffffH
	DW	098e9H
	DW	0ffffH
	DW	08b68H
	DW	0ffffH
	DW	0ffffH
	DW	0ffffH
	DW	0ffffH
	DW	0ffffH
	DW	0ffffH
	DW	0ffffH
	DW	0ffffH
	DW	0ffffH
	DW	0ffffH
	DW	0ffffH
	DW	0ffffH
	DW	0ffffH
	DW	0ffffH
	DW	0ffffH
	DW	0ffffH
	DW	0ffffH
	DW	0ffffH
	DW	0ffffH
	DW	08dfdH
	DW	08bbeH
	DW	09fd9H
	DW	0ffffH
	DW	0ffffH
	DW	0ffffH
	DW	0ffffH
	DW	0ffffH
	DW	0ffffH
	DW	0ffffH
	DW	08aebH
	DW	0ffffH
	DW	0ffffH
	DW	09fd7H
	DW	08b6aH
	DW	0ffffH
	DW	0ffffH
	DW	0ffffH
	DW	0ffffH
	DW	0ffffH
	DW	0ffffH
	DW	0ffffH
	DW	0ffffH
	DW	0ffffH
	DW	0ffffH
	DW	0ffffH
	DW	0ffffH
	DW	0ffffH
	DW	0ffffH
	DW	09c5cH
	DW	0ffffH
	DW	08bb1H
	DW	0ffffH
	DW	0ffffH
	DW	0ffffH
	DW	0ffffH
	DW	0ffffH
	DW	0ffffH
	DW	0ffffH
	DW	0ffffH
	DW	0fb5eH
	DW	0ffffH
	DW	08770H
	DW	0ffffH
	DW	0ffffH
	DW	0ffffH
	DW	0ffffH
	DW	0ffffH
	DW	0ffffH
	DW	0ffffH
	DW	09df3H
	DW	0ffffH
	DW	0ffffH
	DW	0ffffH
	DW	0ffffH
	DW	0ffffH
	DW	0ffffH
	DW	0ffffH
	DW	0a0d0H
	DW	0ffffH
	DW	0ffffH
	DW	0ffffH
	DW	0fc66H
	DW	0ffffH
	DW	0ffffH
	DW	0ffffH
	DW	0ffffH
	DW	092e9H
	DW	0ffffH
	DW	0ffffH
	DW	0ffffH
	DW	0ffffH
	DW	0ffffH
	DW	0ffffH
	DW	0ffffH
	DW	0ffffH
	DW	09aecH
	DW	08fabH
	DW	0fa48H
	DW	0ffffH
	DW	0ffffH
	DW	0ffffH
	DW	0ffffH
	DW	08e45H
	DW	0ffffH
	DW	0ffffH
	DW	0ffffH
	DW	0ffffH
	DW	0ffffH
	DW	0ffffH
	DW	0ffffH
	DW	0ffffH
	DW	0ffffH
	DW	0ffffH
	DW	0ffffH
	DW	0ffffH
	DW	0ffffH
	DW	0ffffH
	DW	0ffffH
	DW	0ffffH
	DW	09c6fH
	DW	0ffffH
	DW	08d5cH
	DW	0ffffH
	DW	0ffffH
	DW	0ffffH
	DW	0ffffH
	DW	0ffffH
	DW	0ffffH
	DW	0ffffH
	DW	0ffffH
	DW	0ffffH
	DW	0ffffH
	DW	0ffffH
	DW	0ffffH
	DW	0ffffH
	DW	0ffffH
	DW	0ffffH
	DW	0ffffH
	DW	0ffffH
	DW	0ffffH
	DW	0ffffH
	DW	0ffffH
	DW	0ffffH
	DW	0ffffH
	DW	0ffffH
	DW	0ffffH
	DW	09edeH
	DW	0ffffH
	DW	0ffffH
	DW	0ffffH
	DW	0ffffH
	DW	0ffffH
	DW	0ffffH
	DW	089efH
	DW	0ffffH
	DW	0ffffH
	DW	0ffffH
	DW	0ffffH
	DW	0ffffH
	DW	0ffffH
	DW	0ffffH
	DW	0ffffH
	DW	0ffffH
	DW	0ffffH
	DW	0ffffH
	DW	0ffffH
	DW	0ffffH
	DW	0ffffH
	DW	0ffffH
	DW	0ffffH
	DW	0ffffH
	DW	0ffffH
	DW	0ffffH
	DW	0ffffH
	DW	0ffffH
	DW	0ffffH
	DW	0ffffH
	DW	0ffffH
	DW	096e9H
	DW	0ffffH
	DW	0ffffH
	DW	0ffffH
	DW	0ffffH
	DW	0ffffH
	DW	0ffffH
	DW	0ffffH
	DW	0ffffH
	DW	0ffffH
	DW	0ffffH
	DW	09ebbH
	DW	0ffffH
	DW	0ffffH
	DW	0ffffH
	DW	0ffffH
	DW	094deH
	DW	0ffffH
	DW	09eb8H
	DW	0ffffH
	DW	0ffffH
	DW	0ffffH
	DW	097baH
	DW	0fb65H
	DW	0ffffH
	DW	0ffffH
	DW	0ffffH
	DW	095d6H
	DW	0ffffH
	DW	0ffffH
	DW	0ffffH
	DW	09cbbH
	DW	0ffffH
	DW	0ffffH
	DW	097daH
	DW	0ffffH
	DW	0ffffH
	DW	0ffffH
	DW	0ffffH
	DW	08f45H
	DW	0ffffH
	DW	0fb7dH
	DW	09158H
	DW	0fe64H
	DW	0ffffH
	DW	09856H
	DW	09b4dH
	DW	0ffffH
	DW	0ffffH
	DW	0ffffH
	DW	0ffffH
	DW	0ffffH
	DW	0ffffH
	DW	0ffffH
	DW	0ffffH
	DW	0ffffH
	DW	0ffffH
	DW	0935bH
	DW	095c7H
	DW	0ffffH
	DW	097e7H
	DW	0ffffH
	DW	0ffffH
	DW	0ffffH
	DW	0ffffH
	DW	0ffffH
	DW	0ffffH
	DW	09359H
	DW	0ffffH
	DW	0ffffH
	DW	0ffffH
	DW	091f5H
	DW	097b8H
	DW	0ffffH
	DW	0ffffH
	DW	0fda2H
	DW	0fbb6H
	DW	0ffffH
	DW	0ffffH
	DW	0ffffH
	DW	0ffffH
	DW	0ffffH
	DW	0ffffH
	DW	0ffffH
	DW	0ffffH
	DW	0ffffH
	DW	0ffffH
	DW	0ffffH
	DW	0ffffH
	DW	0ffffH
	DW	0ffffH
	DW	092faH
	DW	09357H
	DW	0ffffH
	DW	08ba6H
	DW	0ffffH
	DW	0ffffH
	DW	0ffffH
	DW	0ffffH
	DW	0fbb9H
	DW	0ffffH
	DW	097b0H
	DW	0ffffH
	DW	0ffffH
	DW	0fdc4H
	DW	0ffffH
	DW	0ffffH
	DW	0ffffH
	DW	0ffffH
	DW	0ffffH
	DW	0ffffH
	DW	0ffffH
	DW	0ffffH
	DW	0ffffH
	DW	0ffffH
	DW	0ffffH
	DW	0ffffH
	DW	0ffffH
	DW	0ffffH
	DW	09ca1H
	DW	0ffffH
	DW	0ffffH
	DW	0ffffH
	DW	0ffffH
	DW	0ffffH
	DW	091f2H
	DW	091f9H
	DW	0ffffH
	DW	08ff1H
	DW	0ffffH
	DW	0ffffH
	DW	0ffffH
	DW	0ffffH
	DW	0ffffH
	DW	0ffffH
	DW	09745H
	DW	09853H
	DW	0ffffH
	DW	0ffffH
	DW	0fe78H
	DW	0ffffH
	DW	0fbc1H
	DW	09251H
	DW	0ffffH
	DW	0ffffH
	DW	0ffffH
	DW	0ffffH
	DW	0ffffH
	DW	0ffffH
	DW	09dadH
	DW	0ffffH
	DW	0ffffH
	DW	0ffffH
	DW	0ffffH
	DW	0ffffH
	DW	0fd6cH
	DW	0ffffH
	DW	0ffffH
	DW	0fa6bH
	DW	0ffffH
	DW	0ffffH
	DW	0ffffH
	DW	0ffffH
	DW	0ffffH
	DW	0ffffH
	DW	0ffffH
	DW	0ffffH
	DW	0ffffH
	DW	0ffffH
	DW	0ffffH
	DW	0ffffH
	DW	0ffffH
	DW	0ffffH
	DW	0ffffH
	DW	0ffffH
	DW	0ffffH
	DW	0ffffH
	DW	0ffffH
	DW	0ffffH
	DW	0ffffH
	DW	0ffffH
	DW	0ffffH
	DW	0ffffH
	DW	0ffffH
	DW	0ffffH
	DW	0ffffH
	DW	0ffffH
	DW	0ffffH
	DW	0ffffH
	DW	09bc2H
	DW	0ffffH
	DW	0ffffH
	DW	0ffffH
	DW	0ffffH
	DW	0ffffH
	DW	0ffffH
	DW	0ffffH
	DW	0ffffH
	DW	0ffffH
	DW	0ffffH
	DW	0ffffH
	DW	0ffffH
	DW	09a7bH
	DW	0ffffH
	DW	0ffffH
	DW	0ffffH
	DW	0ffffH
	DW	0ffffH
	DW	0ffffH
	DW	0ffffH
	DW	0ffffH
	DW	0ffffH
	DW	0ffffH
	DW	0ffffH
	DW	0ffffH
	DW	0ffffH
	DW	0ffffH
	DW	0ffffH
	DW	0ffffH
	DW	0ffffH
	DW	0ffffH
	DW	0ffffH
	DW	0ffffH
	DW	0ffffH
	DW	0ffffH
	DW	0ffffH
	DW	0ffffH
	DW	0ffffH
	DW	0ffffH
	DW	0ffffH
	DW	0ffffH
	DW	0ffffH
	DW	0ffffH
	DW	0ffffH
	DW	0ffffH
	DW	0ffffH
	DW	0ffffH
	DW	0ffffH
	DW	0ffffH
	DW	0ffffH
	DW	0ffffH
	DW	0ffffH
	DW	08b60H
	DW	0ffffH
	DW	0ffffH
	DW	0ffffH
	DW	0ffffH
	DW	0ffffH
	DW	0ffffH
	DW	0ffffH
	DW	0ffffH
	DW	0934bH
	DW	0ffffH
	DW	0ffffH
	DW	0ffffH
	DW	0ffffH
	DW	0ffffH
	DW	0ffffH
	DW	0ffffH
	DW	0ffffH
	DW	0ffffH
	DW	0ffffH
	DW	0ffffH
	DW	0ffffH
	DW	0ffffH
	DW	0ffffH
	DW	0ffffH
	DW	0ffffH
	DW	0ffffH
	DW	0ffffH
	DW	0ffffH
	DW	0ffffH
	DW	0ffffH
	DW	0ffffH
	DW	0ffffH
	DW	0ffffH
	DW	09abdH
	DW	0ffffH
	DW	0ffffH
	DW	0ffffH
	DW	0ffffH
	DW	091b7H
	DW	0ffffH
	DW	0ffffH
	DW	0ffffH
	DW	0ffffH
	DW	0ffffH
	DW	0ffffH
	DW	0ffffH
	DW	0ffffH
	DW	0ffffH
	DW	0ffffH
	DW	0ffffH
	DW	0ffffH
	DW	0ffffH
	DW	0ffffH
	DW	0ffffH
	DW	0ffffH
	DW	0ffffH
	DW	0ffffH
	DW	0ffffH
	DW	0ffffH
	DW	0ffffH
	DW	0ffffH
	DW	0ffffH
	DW	08d4bH
	DW	0ffffH
	DW	0ffffH
	DW	0ffffH
	DW	0ffffH
	DW	0ffffH
	DW	0ffffH
	DW	0ffffH
	DW	0ffffH
	DW	0ffffH
	DW	0ffffH
	DW	0ffffH
	DW	0ffffH
	DW	0ffffH
	DW	0ffffH
	DW	0ffffH
	DW	0ffffH
	DW	0ffffH
	DW	0ffffH
	DW	0ffffH
	DW	0ffffH
	DW	0ffffH
	DW	0ffffH
	DW	0ffffH
	DW	0ffffH
	DW	0ffffH
	DW	0ffffH
	DW	0ffffH
	DW	095b4H
	DW	0ffffH
	DW	0ffffH
	DW	0ffffH
	DW	0ffffH
	DW	0ffffH
	DW	0fec5H
	DW	0ffffH
	DW	0ffffH
	DW	09ef0H
	DW	08d64H
	DW	0ffffH
	DW	0ffffH
	DW	0ffffH
	DW	0ffffH
	DW	0ffffH
	DW	0ffffH
	DW	0ffffH
	DW	0ffffH
	DW	0ffffH
	DW	09269H
	DW	0ffffH
	DW	0ffffH
	DW	0ffffH
	DW	0ffffH
	DW	0ffffH
	DW	0ffffH
	DW	08d67H
	DW	0ffffH
	DW	0ffffH
	DW	0ffffH
	DW	0ffffH
	DW	0ffffH
	DW	0ffffH
	DW	0ffffH
	DW	0ffffH
	DW	0ffffH
	DW	0ffffH
	DW	0ffffH
	DW	0ffffH
	DW	0fbeaH
	DW	0ffffH
	DW	0ffffH
	DW	0ffffH
	DW	0ffffH
	DW	0ffffH
	DW	0ffffH
	DW	0ffffH
	DW	0ffffH
	DW	0fbefH
	DW	0ffffH
	DW	08d68H
	DW	0ffffH
	DW	0ffffH
	DW	0ffffH
	DW	0ffffH
	DW	0ffffH
	DW	0ffffH
	DW	0ffffH
	DW	0ffffH
	DW	0ffffH
	DW	0ffffH
	DW	0ffffH
	DW	0ffffH
	DW	0ffffH
	DW	0ffffH
	DW	0ffffH
	DW	0ffffH
	DW	0ffffH
	DW	0ffffH
	DW	0ffffH
	DW	0ffffH
	DW	0ffffH
	DW	0ffffH
	DW	0ffffH
	DW	0ffffH
	DW	0ffffH
	DW	0ffffH
	DW	0ffffH
	DW	0ffffH
	DW	0ffffH
	DW	0ffffH
	DW	0ffffH
	DW	0ffffH
	DW	0ffffH
	DW	0ffffH
	DW	0ffffH
	DW	0ffffH
	DW	0ffffH
	DW	0ffffH
	DW	0ffffH
	DW	0ffffH
	DW	0ffffH
	DW	0ffffH
	DW	093ebH
	DW	0ffffH
	DW	0ffffH
	DW	0ffffH
	DW	0ffffH
	DW	0ffffH
	DW	0ffffH
	DW	0ffffH
	DW	0ffffH
	DW	0ffffH
	DW	0ffffH
	DW	0ffffH
	DW	0ffffH
	DW	0ffffH
	DW	0ffffH
	DW	0ffffH
	DW	0ffffH
	DW	0ffffH
	DW	0ffffH
	DW	0ffffH
	DW	0ffffH
	DW	0ffffH
	DW	0ffffH
	DW	0ffffH
	DW	0ffffH
	DW	0ffffH
	DW	0ffffH
	DW	0ffffH
	DW	0ffffH
	DW	0ffffH
	DW	0ffffH
	DW	0ffffH
	DW	0ffffH
	DW	0ffffH
	DW	0ffffH
	DW	0ffffH
	DW	0ffffH
	DW	0ffffH
	DW	0ffffH
	DW	0ffffH
	DW	0ffffH
	DW	0ffffH
	DW	0ffffH
	DW	0ffffH
	DW	0ffffH
	DW	0ffffH
	DW	0ffffH
	DW	0ffffH
	DW	0ffffH
	DW	0ffffH
	DW	0ffffH
	DW	0ffffH
	DW	0ffffH
	DW	0ffffH
	DW	0ffffH
	DW	0ffffH
	DW	0ffffH
	DW	0ffffH
	DW	0ffffH
	DW	0ffffH
	DW	0ffffH
	DW	0fc42H
	DW	0ffffH
	DW	0ffffH
	DW	0ffffH
	DW	0ffffH
	DW	0ffffH
	DW	0ffffH
	DW	0ffffH
	DW	0ffffH
	DW	0ffffH
	DW	0ffffH
	DW	0ffffH
	DW	0ffffH
	DW	0ffffH
	DW	0ffffH
	DW	0ffffH
	DW	0ffffH
	DW	0ffffH
	DW	0ffffH
	DW	0ffffH
	DW	0ffffH
	DW	0ffffH
	DW	0ffffH
	DW	0ffffH
	DW	0ffffH
	DW	0ffffH
	DW	0ffffH
	DW	0ffffH
	DW	0ffffH
	DW	0ffffH
	DW	0ffffH
	DW	0ffffH
	DW	0ffffH
	DW	0ffffH
	DW	0ffffH
	DW	09166H
	DW	0ffffH
	DW	0ffffH
	DW	0ffffH
	DW	0ffffH
	DW	0ffffH
	DW	0ffffH
	DW	0ffffH
	DW	0ffffH
	DW	0facdH
	DW	0ffffH
	DW	0ffffH
	DW	0ffffH
	DW	0ffffH
	DW	093ddH
	DW	0ffffH
	DW	0ffffH
	DW	08d52H
	DW	0ffffH
	DW	0ffffH
	DW	0ffffH
	DW	0ffffH
	DW	0ffffH
	DW	0ffffH
	DW	0ffffH
	DW	0ffffH
	DW	0ffffH
	DW	0ffffH
	DW	0ffffH
	DW	0ffffH
	DW	0ffffH
	DW	0ffffH
	DW	0ffffH
	DW	0ffffH
	DW	0ffffH
	DW	0ffffH
	DW	0ffffH
	DW	0ffffH
	DW	0ffffH
	DW	0ffffH
	DW	0ffffH
	DW	0ffffH
	DW	0ffffH
	DW	0ffffH
	DW	0ffffH
	DW	0ffffH
	DW	0ffffH
	DW	0ffffH
	DW	0ffffH
	DW	0ffffH
	DW	0ffffH
	DW	0ffffH
	DW	0ffffH
	DW	0ffffH
	DW	0ffffH
	DW	08bccH
	DW	08d6dH
	DW	0ffffH
	DW	0ffffH
	DW	0ffffH
	DW	0ffffH
	DW	0ffffH
	DW	0ffffH
	DW	0ffffH
	DW	0ffffH
	DW	0ffffH
	DW	0ffffH
	DW	0ffffH
	DW	08d6eH
	DW	0ffffH
	DW	0ffffH
	DW	0ffffH
	DW	0ffffH
	DW	0ffffH
	DW	0ffffH
	DW	0ffffH
	DW	0ffffH
	DW	0ffffH
	DW	0ffffH
	DW	0ffffH
	DW	0ffffH
	DW	0ffffH
	DW	0ffffH
	DW	0ffffH
	DW	0ffffH
	DW	0ffffH
	DW	0ffffH
	DW	096a8H
	DW	0ffffH
	DW	0ffffH
	DW	0ffffH
	DW	0ffffH
	DW	0ffffH
	DW	0ffffH
	DW	0ffffH
	DW	0ffffH
	DW	0ffffH
	DW	0ffffH
	DW	0fca6H
	DW	0ffffH
	DW	0ffffH
	DW	0ffffH
	DW	0ffffH
	DW	0ffffH
	DW	0ffffH
	DW	0ffffH
	DW	0ffffH
	DW	0ffffH
	DW	0ffffH
	DW	0ffffH
	DW	0ffffH
	DW	08d6fH
	DW	0ffffH
	DW	0ffffH
	DW	0ffffH
	DW	0ffffH
	DW	0ffffH
	DW	0ffffH
	DW	0ffffH
	DW	0ffffH
	DW	0ffffH
	DW	0ffffH
	DW	0ffffH
	DW	0ffffH
	DW	0ffffH
	DW	08d70H
	DW	0ffffH
	DW	0ffffH
	DW	0ffffH
	DW	0ffffH
	DW	0ffffH
	DW	0ffffH
	DW	0ffffH
	DW	0ffffH
	DW	0ffffH
	DW	0ffffH
	DW	0ffffH
	DW	0ffffH
	DW	0ffffH
	DW	0ffffH
	DW	0ffffH
	DW	0ffffH
	DW	0ffffH
	DW	0ffffH
	DW	0ffffH
	DW	0ffffH
	DW	0ffffH
	DW	0fc64H
	DW	0ffffH
	DW	0ffffH
	DW	0ffffH
	DW	0ffffH
	DW	0ffffH
	DW	0ffffH
	DW	0ffffH
	DW	0ffffH
	DW	0ffffH
	DW	0ffffH
	DW	0ffffH
	DW	0ffffH
	DW	0ffffH
	DW	0ffffH
	DW	0ffffH
	DW	0ffffH
	DW	0ffffH
	DW	0ffffH
	DW	0ffffH
	DW	0ffffH
	DW	08cf3H
	DW	0ffffH
	DW	0ffffH
	DW	0ffffH
	DW	0ffffH
	DW	0ffffH
	DW	0ffffH
	DW	0ffffH
	DW	09060H
	DW	0ffffH
	DW	0ffffH
	DW	0ffffH
	DW	0ffffH
	DW	0ffffH
	DW	0ffffH
	DW	0ffffH
	DW	0ffffH
	DW	08d74H
	DW	097c3H
	DW	0ffffH
	DW	0ffffH
	DW	0ffffH
	DW	0ffffH
	DW	0ffffH
	DW	0ffffH
	DW	0ffffH
	DW	08ad0H
	DW	0ffffH
	DW	0ffffH
	DW	0ffffH
	DW	0ffffH
	DW	0ffffH
	DW	0ffffH
	DW	09274H
	DW	0ffffH
	DW	09bbeH
	DW	0ffffH
	DW	0ffffH
	DW	0ffffH
	DW	0ffffH
	DW	0ffffH
	DW	09cc8H
	DW	0ffffH
	DW	0ffffH
	DW	09cbaH
	DW	0ffffH
	DW	0ffffH
	DW	0ffffH
	DW	0ffffH
	DW	0ffffH
	DW	0ffffH
	DW	0ffffH
	DW	0ffffH
	DW	0ffffH
	DW	0ffffH
	DW	0ffffH
	DW	0ffffH
	DW	0ffffH
	DW	0ffffH
	DW	0ffffH
	DW	0ffffH
	DW	0ffffH
	DW	0ffffH
	DW	0ffffH
	DW	08d78H
	DW	0ffffH
	DW	0ffffH
	DW	0ffffH
	DW	0ffffH
	DW	0ffffH
	DW	0ffffH
	DW	0ffffH
	DW	0ffffH
	DW	0ffffH
	DW	0ffffH
	DW	0ffffH
	DW	0ffffH
	DW	0ffffH
	DW	0ffffH
	DW	0ffffH
	DW	0ffffH
	DW	0ffffH
	DW	0ffffH
	DW	0ffffH
	DW	0ffffH
	DW	0ffffH
	DW	0ffffH
	DW	0ffffH
	DW	0ffffH
	DW	0ffffH
	DW	0ffffH
	DW	0ffffH
	DW	0ffffH
	DW	0ffffH
	DW	0ffffH
	DW	0ffffH
	DW	0ffffH
	DW	0ffffH
	DW	0ffffH
	DW	0ffffH
	DW	09eb9H
	DW	0ffffH
	DW	0ffffH
	DW	0ffffH
	DW	0ffffH
	DW	0ffffH
	DW	0955aH
	DW	0ffffH
	DW	0ffffH
	DW	091b4H
	DW	0ffffH
	DW	0ffffH
	DW	0ffffH
	DW	0ffffH
	DW	0ffffH
	DW	0ffffH
	DW	08a48H
	DW	0ffffH
	DW	0ffffH
	DW	0ffffH
	DW	0ffffH
	DW	0ffffH
	DW	0ffffH
	DW	0ffffH
	DW	0ffffH
	DW	0ffffH
	DW	0ffffH
	DW	0ffffH
	DW	08d7dH
	DW	0ffffH
	DW	0ffffH
	DW	08a7dH
	DW	0ffffH
	DW	0ffffH
	DW	08ac2H
	DW	0fd4aH
	DW	0ffffH
	DW	08da1H
	DW	0ffffH
	DW	0ffffH
	DW	08ad1H
	DW	0ffffH
	DW	0ffffH
	DW	0ffffH
	DW	0ffffH
	DW	0ffffH
	DW	0ffffH
	DW	0ffffH
	DW	0ffffH
	DW	0ffffH
	DW	0ffffH
	DW	0ffffH
	DW	0ffffH
	DW	0ffffH
	DW	0ffffH
	DW	0ffffH
	DW	0ffffH
	DW	0fcb4H
	DW	08b47H
	DW	0ffffH
	DW	0ffffH
	DW	0ffffH
	DW	0ffffH
	DW	0ffffH
	DW	0ffffH
	DW	0ffffH
	DW	0ffffH
	DW	0ffffH
	DW	0ffffH
	DW	0ffffH
	DW	0ffffH
	DW	0ffffH
	DW	0ffffH
	DW	0ffffH
	DW	0ffffH
	DW	093a4H
	DW	09edaH
	DW	0ffffH
	DW	0ffffH
	DW	0ffffH
	DW	0ffffH
	DW	0ffffH
	DW	0ffffH
	DW	0ffffH
	DW	0ffffH
	DW	0ffffH
	DW	08a51H
	DW	0ffffH
	DW	0ffffH
	DW	0ffffH
	DW	0ffffH
	DW	0ffffH
	DW	0ffffH
	DW	0ffffH
	DW	0ffffH
	DW	0ffffH
	DW	0ffffH
	DW	0ffffH
	DW	0ffffH
	DW	0ffffH
	DW	0ffffH
	DW	0ffffH
	DW	0ffffH
	DW	0ffffH
	DW	0ffffH
	DW	0ffffH
	DW	0ffffH
	DW	0ffffH
	DW	0ffffH
	DW	08da6H
	DW	0ffffH
	DW	0ffffH
	DW	0ffffH
	DW	0ffffH
	DW	0ffffH
	DW	0ffffH
	DW	09ec5H
	DW	0ffffH
	DW	0ffffH
	DW	0ffffH
	DW	0ffffH
	DW	0fcc4H
	DW	0ffffH
	DW	0ffffH
	DW	0ffffH
	DW	0ffffH
	DW	0a078H
	DW	0ffffH
	DW	094b5H
	DW	0ffffH
	DW	0ffffH
	DW	0ffffH
	DW	0ffffH
	DW	0ffffH
	DW	0ffffH
	DW	0ffffH
	DW	0fcc2H
	DW	08a6bH
	DW	0ffffH
	DW	0ffffH
	DW	0ffffH
	DW	0ffffH
	DW	0ffffH
	DW	0ffffH
	DW	0ffffH
	DW	0ffffH
	DW	0ffffH
	DW	0ffffH
	DW	0ffffH
	DW	0ffffH
	DW	0ffffH
	DW	0ffffH
	DW	0ffffH
	DW	0ffffH
	DW	0ffffH
	DW	0ffffH
	DW	0ffffH
	DW	0ffffH
	DW	0ffffH
	DW	0ffffH
	DW	0ffffH
	DW	0ffffH
	DW	0ffffH
	DW	0ffffH
	DW	0ffffH
	DW	0ffffH
	DW	0ffffH
	DW	0ffffH
	DW	0ffffH
	DW	0ffffH
	DW	0ffffH
	DW	0ffffH
	DW	0ffffH
	DW	0ffffH
	DW	0ffffH
	DW	0ffffH
	DW	0ffffH
	DW	0ffffH
	DW	0ffffH
	DW	0ffffH
	DW	0ffffH
	DW	0ffffH
	DW	0ffffH
	DW	0ffffH
	DW	0ffffH
	DW	08dabH
	DW	0ffffH
	DW	0ffffH
	DW	0ffffH
	DW	0ffffH
	DW	0ffffH
	DW	0ffffH
	DW	0ffffH
	DW	0ffffH
	DW	0ffffH
	DW	0ffffH
	DW	0ffffH
	DW	0ffffH
	DW	0ffffH
	DW	0ffffH
	DW	0ffffH
	DW	0ffffH
	DW	0ffffH
	DW	0ffffH
	DW	0ffffH
	DW	0fae8H
	DW	0ffffH
	DW	0ffffH
	DW	0ffffH
	DW	0ffffH
	DW	0ffffH
	DW	0ffffH
	DW	0ffffH
	DW	0ffffH
	DW	0ffffH
	DW	0ffffH
	DW	0ffffH
	DW	0ffffH
	DW	0ffffH
	DW	0ffffH
	DW	0ffffH
	DW	0ffffH
	DW	0ffffH
	DW	08dadH
	DW	0ffffH
	DW	0ffffH
	DW	0ffffH
	DW	0ffffH
	DW	0ffffH
	DW	0ffffH
	DW	0ffffH
	DW	0ffffH
	DW	0ffffH
	DW	0ffffH
	DW	0ffffH
	DW	0ffffH
	DW	0ffffH
	DW	0ffffH
	DW	0ffffH
	DW	0ffffH
	DW	0ffffH
	DW	0ffffH
	DW	0ffffH
	DW	0ffffH
	DW	0ffffH
	DW	0ffffH
	DW	0ffffH
	DW	0ffffH
	DW	0ffffH
	DW	0ffffH
	DW	0ffffH
	DW	0ffffH
	DW	0ffffH
	DW	0ffffH
	DW	0ffffH
	DW	0ffffH
	DW	0fc49H
	DW	0ffffH
	DW	093c1H
	DW	0ffffH
	DW	0ffffH
	DW	0ffffH
	DW	0ffffH
	DW	0ffffH
	DW	0ffffH
	DW	0ffffH
	DW	0ffffH
	DW	0ffffH
	DW	0ffffH
	DW	0ffffH
	DW	0ffffH
	DW	0ffffH
	DW	0ffffH
	DW	0ffffH
	DW	0906fH
	DW	0ffffH
	DW	08db0H
	DW	0ffffH
	DW	0ffffH
	DW	0ffffH
	DW	0ffffH
	DW	0ffffH
	DW	0ffffH
	DW	0ffffH
	DW	0ffffH
	DW	0947eH
	DW	090faH
	DW	0ffffH
	DW	0ffffH
	DW	0ffffH
	DW	0ffffH
	DW	0ffffH
	DW	0ffffH
	DW	0ffffH
	DW	0ffffH
	DW	0ffffH
	DW	0ffffH
	DW	09479H
	DW	0ffffH
	DW	0ffffH
	DW	0ffffH
	DW	0ffffH
	DW	0ffffH
	DW	0ffffH
	DW	0ffffH
	DW	0ffffH
	DW	08db2H
	DW	0ffffH
	DW	0ffffH
	DW	0ffffH
	DW	0ffffH
	DW	0ffffH
	DW	0ffffH
	DW	0ffffH
	DW	0ffffH
	DW	0fceeH
	DW	0ffffH
	DW	0ffffH
	DW	0ffffH
	DW	0ffffH
	DW	0ffffH
	DW	0ffffH
	DW	0ffffH
	DW	0ffffH
	DW	0ffffH
	DW	0ffffH
	DW	0ffffH
	DW	0ffffH
	DW	0ffffH
	DW	0997bH
	DW	0ffffH
	DW	0ffffH
	DW	0ffffH
	DW	0ffffH
	DW	0ffffH
	DW	0ffffH
	DW	0ffffH
	DW	0ffffH
	DW	08db4H
	DW	0ffffH
	DW	0ffffH
	DW	0ffffH
	DW	0ffffH
	DW	0ffffH
	DW	0ffffH
	DW	0ffffH
	DW	0ffffH
	DW	0ffffH
	DW	0ffffH
	DW	0ffffH
	DW	0ffffH
	DW	0ffffH
	DW	0ffffH
	DW	0ffffH
	DW	0ffffH
	DW	0ffffH
	DW	0ffffH
	DW	0ffffH
	DW	0ffffH
	DW	0ffffH
	DW	08db7H
	DW	0ffffH
	DW	0ffffH
	DW	0ffffH
	DW	0ffffH
	DW	0ffffH
	DW	0ffffH
	DW	0ffffH
	DW	091b3H
	DW	0ffffH
	DW	0ffffH
	DW	0ffffH
	DW	0ffffH
	DW	0ffffH
	DW	0ffffH
	DW	0ffffH
	DW	0ffffH
	DW	0ffffH
	DW	0ffffH
	DW	0ffffH
	DW	0ffffH
	DW	0ffffH
	DW	0ffffH
	DW	0ffffH
	DW	0ffffH
	DW	08dbbH
	DW	08dbaH
	DW	0ffffH
	DW	0ffffH
	DW	0ffffH
	DW	0ffffH
	DW	0ffffH
	DW	0ffffH
	DW	0ffffH
	DW	0ffffH
	DW	08dbcH
	DW	09044H
	DW	0ffffH
	DW	0ffffH
	DW	0ffffH
	DW	0fd4cH
	DW	0ffffH
	DW	0ffffH
	DW	0ffffH
	DW	0ffffH
	DW	0ffffH
	DW	0ffffH
	DW	0ffffH
	DW	0ffffH
	DW	0ffffH
	DW	0ffffH
	DW	0ffffH
	DW	0ffffH
	DW	0ffffH
	DW	0ffffH
	DW	0ffffH
	DW	0ffffH
	DW	0ffffH
	DW	0ffffH
	DW	0ffffH
	DW	0ffffH
	DW	0874bH
	DW	093e4H
	DW	0ffffH
	DW	0ffffH
	DW	093e0H
	DW	0ffffH
	DW	0ffffH
	DW	0ffffH
	DW	0ffffH
	DW	0ffffH
	DW	0ffffH
	DW	0ffffH
	DW	0fd53H
	DW	0ffffH
	DW	0ffffH
	DW	0ffffH
	DW	0ffffH
	DW	0ffffH
	DW	0ffffH
	DW	0ffffH
	DW	0ffffH
	DW	0ffffH
	DW	0ffffH
	DW	0ffffH
	DW	0ffffH
	DW	0ffffH
	DW	0ffffH
	DW	0ffffH
	DW	0ffffH
	DW	0ffffH
	DW	0ffffH
	DW	0ffffH
	DW	0ffffH
	DW	0ffffH
	DW	0ffffH
	DW	0ffffH
	DW	0ffffH
	DW	0ffffH
	DW	0ffffH
	DW	08dc3H
	DW	0ffffH
	DW	09bb8H
	DW	0ffffH
	DW	0ffffH
	DW	0ffffH
	DW	0fbf0H
	DW	0ffffH
	DW	093e9H
	DW	0ffffH
	DW	0ffffH
	DW	0ffffH
	DW	0ffffH
	DW	0ffffH
	DW	0ffffH
	DW	0ffffH
	DW	0ffffH
	DW	0ffffH
	DW	0ffffH
	DW	0ffffH
	DW	0ffffH
	DW	0ffffH
	DW	0ffffH
	DW	0ffffH
	DW	0ffffH
	DW	0ffffH
	DW	0ffffH
	DW	093f6H
	DW	0ffffH
	DW	0ffffH
	DW	0ffffH
	DW	0ffffH
	DW	0ffffH
	DW	08dc5H
	DW	0ffffH
	DW	0ffffH
	DW	0ffffH
	DW	0ffffH
	DW	0ffffH
	DW	0ffffH
	DW	0ffffH
	DW	0ffffH
	DW	0ffffH
	DW	0ffffH
	DW	0ffffH
	DW	0ffffH
	DW	0ffffH
	DW	0ffffH
	DW	08dcaH
	DW	0ffffH
	DW	0ffffH
	DW	0ffffH
	DW	0ffffH
	DW	0ffffH
	DW	08dccH
	DW	0fd5dH
	DW	093b5H
	DW	0fd61H
	DW	0ffffH
	DW	0ffffH
	DW	0ffffH
	DW	09cf8H
	DW	0ffffH
	DW	0ffffH
	DW	0ffffH
	DW	09252H
	DW	0ffffH
	DW	0ffffH
	DW	0a0e8H
	DW	0ffffH
	DW	0ffffH
	DW	0ffffH
	DW	0ffffH
	DW	0ffffH
	DW	0ffffH
	DW	0ffffH
	DW	0ffffH
	DW	0ffffH
	DW	0ffffH
	DW	0ffffH
	DW	0ffffH
	DW	0ffffH
	DW	0ffffH
	DW	0ffffH
	DW	0ffffH
	DW	0ffffH
	DW	0ffffH
	DW	0ffffH
	DW	0ffffH
	DW	0ffffH
	DW	0ffffH
	DW	0ffffH
	DW	0ffffH
	DW	0ffffH
	DW	0ffffH
	DW	0ffffH
	DW	0ffffH
	DW	0ffffH
	DW	0ffffH
	DW	0ffffH
	DW	0ffffH
	DW	0ffffH
	DW	0ffffH
	DW	0ffffH
	DW	0ffffH
	DW	0ffffH
	DW	0ffffH
	DW	0ffffH
	DW	0ffffH
	DW	0ffffH
	DW	0ffffH
	DW	0ffffH
	DW	0ffffH
	DW	0ffffH
	DW	0ffffH
	DW	0ffffH
	DW	0ffffH
	DW	0ffffH
	DW	0ffffH
	DW	0ffffH
	DW	0ffffH
	DW	0ffffH
	DW	0ffffH
	DW	0ffffH
	DW	0ffffH
	DW	0ffffH
	DW	0ffffH
	DW	0ffffH
	DW	09ca5H
	DW	0ffffH
	DW	0ffffH
	DW	0ffffH
	DW	0ffffH
	DW	0ffffH
	DW	0ffffH
	DW	0ffffH
	DW	0ffffH
	DW	0ffffH
	DW	0ffffH
	DW	0ffffH
	DW	0ffffH
	DW	0ffffH
	DW	0ffffH
	DW	0ffffH
	DW	0ffffH
	DW	0ffffH
	DW	0ffffH
	DW	0ffffH
	DW	0ffffH
	DW	0ffffH
	DW	0ffffH
	DW	0ffffH
	DW	0ffffH
	DW	0ffffH
	DW	0ffffH
	DW	0ffffH
	DW	0ffffH
	DW	0ffffH
	DW	0ffffH
	DW	0ffffH
	DW	0ffffH
	DW	0ffffH
	DW	0ffffH
	DW	0ffffH
	DW	0ffffH
	DW	0ffffH
	DW	0ffffH
	DW	0ffffH
	DW	0ffffH
	DW	0ffffH
	DW	0ffffH
	DW	0ffffH
	DW	0ffffH
	DW	0ffffH
	DW	0ffffH
	DW	0ffffH
	DW	0ffffH
	DW	0ffffH
	DW	0ffffH
	DW	0ffffH
	DW	0ffffH
	DW	0ffffH
	DW	0ffffH
	DW	08c56H
	DW	0ffffH
	DW	0ffffH
	DW	0ffffH
	DW	0ffffH
	DW	0ffffH
	DW	0ffffH
	DW	0ffffH
	DW	0ffffH
	DW	0ffffH
	DW	0ffffH
	DW	0ffffH
	DW	0ffffH
	DW	0ffffH
	DW	0ffffH
	DW	0ffffH
	DW	0ffffH
	DW	0ffffH
	DW	0ffffH
	DW	0ffffH
	DW	0ffffH
	DW	0ffffH
	DW	0ffffH
	DW	0ffffH
	DW	0ffffH
	DW	0ffffH
	DW	0ffffH
	DW	0ffffH
	DW	0ffffH
	DW	0ffffH
	DW	0ffffH
	DW	0ffffH
	DW	0ffffH
	DW	0ffffH
	DW	0ffffH
	DW	0ffffH
	DW	0ffffH
	DW	0ffffH
	DW	0ffffH
	DW	0ffffH
	DW	0ffffH
	DW	0ffffH
	DW	0ffffH
	DW	0ffffH
	DW	0ffffH
	DW	0ffffH
	DW	0ffffH
	DW	0ffffH
	DW	0ffffH
	DW	0ffffH
	DW	0ffffH
	DW	0ffffH
	DW	0ffffH
	DW	0ffffH
	DW	0ffffH
	DW	0ffffH
	DW	0ffffH
	DW	0ffffH
	DW	0ffffH
	DW	0ffffH
	DW	0ffffH
	DW	0ffffH
	DW	0ffffH
	DW	0ffffH
	DW	08dd6H
	DW	0ffffH
	DW	097c0H
	DW	0ffffH
	DW	0ffffH
	DW	0ffffH
	DW	0a0deH
	DW	0ffffH
	DW	0ffffH
	DW	0ffffH
	DW	0ffffH
	DW	097d2H
	DW	0ffffH
	DW	0ffffH
	DW	0ffffH
	DW	0ffffH
	DW	0ffffH
	DW	0faa5H
	DW	0ffffH
	DW	0ffffH
	DW	0ffffH
	DW	0ffffH
	DW	0ffffH
	DW	0ffffH
	DW	0ffffH
	DW	0ffffH
	DW	0ffffH
	DW	0ffffH
	DW	0ffffH
	DW	0ffffH
	DW	0ffffH
	DW	0ffffH
	DW	0fda3H
	DW	0ffffH
	DW	0ffffH
	DW	0ffffH
	DW	08ddbH
	DW	08ceaH
	DW	08eafH
	DW	0ffffH
	DW	0ffffH
	DW	0ffffH
	DW	0ffffH
	DW	0ffffH
	DW	0ffffH
	DW	0ffffH
	DW	0ffffH
	DW	0ffffH
	DW	091b5H
	DW	0ffffH
	DW	0ffffH
	DW	0ffffH
	DW	0ffffH
	DW	0ffffH
	DW	0ffffH
	DW	0ffffH
	DW	0ffffH
	DW	0ffffH
	DW	0ffffH
	DW	0ffffH
	DW	0ffffH
	DW	0ffffH
	DW	0ffffH
	DW	0ffffH
	DW	0ffffH
	DW	0ffffH
	DW	0ffffH
	DW	0ffffH
	DW	0ffffH
	DW	0fd49H
	DW	0ffffH
	DW	0ffffH
	DW	0ffffH
	DW	0ffffH
	DW	0ffffH
	DW	0ffffH
	DW	0ffffH
	DW	0ffffH
	DW	0fdd1H
	DW	0ffffH
	DW	0ffffH
	DW	0ffffH
	DW	0ffffH
	DW	0ffffH
	DW	0ffffH
	DW	0ffffH
	DW	0ffffH
	DW	0ffffH
	DW	0ffffH
	DW	08debH
	DW	0ffffH
	DW	0ffffH
	DW	0ffffH
	DW	0ffffH
	DW	0ffffH
	DW	097c6H
	DW	0ffffH
	DW	0fdceH
	DW	0ffffH
	DW	0ffffH
	DW	090fcH
	DW	0ffffH
	DW	0ffffH
	DW	0ffffH
	DW	0ffffH
	DW	0ffffH
	DW	0ffffH
	DW	0ffffH
	DW	0ffffH
	DW	0ffffH
	DW	0ffffH
	DW	0ffffH
	DW	0ffffH
	DW	0ffffH
	DW	0fc59H
	DW	0ffffH
	DW	0ffffH
	DW	096d6H
	DW	0ffffH
	DW	0ffffH
	DW	0ffffH
	DW	0ffffH
	DW	0ffffH
	DW	0ffffH
	DW	097c5H
	DW	08defH
	DW	0ffffH
	DW	0ffffH
	DW	0ffffH
	DW	0ffffH
	DW	097d7H
	DW	0ffffH
	DW	0ffffH
	DW	0ffffH
	DW	0ffffH
	DW	0ffffH
	DW	08df0H
	DW	0ffffH
	DW	0ffffH
	DW	0ffffH
	DW	0ffffH
	DW	0ffffH
	DW	0ffffH
	DW	0ffffH
	DW	096a6H
	DW	0ffffH
	DW	0ffffH
	DW	0ffffH
	DW	0ffffH
	DW	0ffffH
	DW	0ffffH
	DW	0ffffH
	DW	0fbbfH
	DW	0ffffH
	DW	0ffffH
	DW	08cdfH
	DW	0ffffH
	DW	08df3H
	DW	0ffffH
	DW	0ffffH
	DW	0ffffH
	DW	0ffffH
	DW	09449H
	DW	0ffffH
	DW	08df5H
	DW	0ffffH
	DW	0ffffH
	DW	0ffffH
	DW	0ffffH
	DW	0ffffH
	DW	0ffffH
	DW	0ffffH
	DW	0ffffH
	DW	0ffffH
	DW	0ffffH
	DW	0ffffH
	DW	0ffffH
	DW	0ffffH
	DW	0ffffH
	DW	0ffffH
	DW	0ffffH
	DW	0ffffH
	DW	0ffffH
	DW	0ffffH
	DW	09872H
	DW	0ffffH
	DW	0ffffH
	DW	0ffffH
	DW	0ffffH
	DW	0ffffH
	DW	0ffffH
	DW	0ffffH
	DW	08e6bH
	DW	0ffffH
	DW	0ffffH
	DW	0ffffH
	DW	0ffffH
	DW	0ffffH
	DW	0ffffH
	DW	0fafdH
	DW	0ffffH
	DW	0ffffH
	DW	0ffffH
	DW	0ffffH
	DW	0ffffH
	DW	0ffffH
	DW	0ffffH
	DW	0ffffH
	DW	0ffffH
	DW	0ffffH
	DW	08f50H
	DW	0ffffH
	DW	0ffffH
	DW	0ffffH
	DW	0ffffH
	DW	0ffffH
	DW	0ffffH
	DW	09dccH
	DW	0fc65H
	DW	0ffffH
	DW	08c44H
	DW	0ffffH
	DW	0ffffH
	DW	0996eH
	DW	094a1H
	DW	0ffffH
	DW	0ffffH
	DW	0ffffH
	DW	0ffffH
	DW	0ffffH
	DW	08f63H
	DW	0ffffH
	DW	0ffffH
	DW	0ffffH
	DW	0ffffH
	DW	0ffffH
	DW	0ffffH
	DW	0ffffH
	DW	0a0daH
	DW	0ffffH
	DW	0ffffH
	DW	0ffffH
	DW	0ffffH
	DW	0ffffH
	DW	0ffffH
	DW	0ffffH
	DW	0ffffH
	DW	0ffffH
	DW	0ffffH
	DW	0ffffH
	DW	09253H
	DW	0fde9H
	DW	0ffffH
	DW	0ffffH
	DW	09db5H
	DW	0ffffH
	DW	0ffffH
	DW	0ffffH
	DW	0ffffH
	DW	0ffffH
	DW	0ffffH
	DW	0ffffH
	DW	09879H
	DW	0876aH
	DW	0ffffH
	DW	0ffffH
	DW	09d5dH
	DW	0ffffH
	DW	0ffffH
	DW	0ffffH
	DW	0ffffH
	DW	08d63H
	DW	09669H
	DW	09f70H
	DW	0ffffH
	DW	0ffffH
	DW	0ffffH
	DW	0ffffH
	DW	0ffffH
	DW	0ffffH
	DW	0ffffH
	DW	0ffffH
	DW	0ffffH
	DW	0ffffH
	DW	0ffffH
	DW	0ffffH
	DW	0ffffH
	DW	0ffffH
	DW	0ffffH
	DW	0ffffH
	DW	0ffffH
	DW	0ffffH
	DW	0ffffH
	DW	0ffffH
	DW	0ffffH
	DW	0ffffH
	DW	0ffffH
	DW	0ffffH
	DW	0ffffH
	DW	0ffffH
	DW	0ffffH
	DW	0ffffH
	DW	0ffffH
	DW	0ffffH
	DW	0ffffH
	DW	0ffffH
	DW	0ffffH
	DW	0ffffH
	DW	0ffffH
	DW	0ffffH
	DW	0ffffH
	DW	0ffffH
	DW	0ffffH
	DW	0ffffH
	DW	0ffffH
	DW	0ffffH
	DW	0ffffH
	DW	0ffffH
	DW	0ffffH
	DW	0ffffH
	DW	0ffffH
	DW	0ffffH
	DW	0ffffH
	DW	0ffffH
	DW	0ffffH
	DW	0ffffH
	DW	0ffffH
	DW	0ffffH
	DW	0ffffH
	DW	0ffffH
	DW	0ffffH
	DW	0fc6aH
	DW	0ffffH
	DW	0ffffH
	DW	08ac7H
	DW	0ffffH
	DW	0ffffH
	DW	0ffffH
	DW	0ffffH
	DW	089d7H
	DW	0ffffH
	DW	0ffffH
	DW	0ffffH
	DW	0ffffH
	DW	0ffffH
	DW	0ffffH
	DW	0ffffH
	DW	0ffffH
	DW	0ffffH
	DW	0ffffH
	DW	0ffffH
	DW	0ffffH
	DW	0fe4dH
	DW	0ffffH
	DW	0ffffH
	DW	0ffffH
	DW	0ffffH
	DW	0ffffH
	DW	0ffffH
	DW	0ffffH
	DW	0ffffH
	DW	0ffffH
	DW	0ffffH
	DW	0ffffH
	DW	0ffffH
	DW	0ffffH
	DW	0ffffH
	DW	0ffffH
	DW	0ffffH
	DW	0ffffH
	DW	0ffffH
	DW	0ffffH
	DW	0ffffH
	DW	0ffffH
	DW	0ffffH
	DW	0ffffH
	DW	0ffffH
	DW	0ffffH
	DW	0ffffH
	DW	0ffffH
	DW	0ffffH
	DW	0ffffH
	DW	0ffffH
	DW	09eddH
	DW	0ffffH
	DW	0ffffH
	DW	0ffffH
	DW	0ffffH
	DW	0ffffH
	DW	0ffffH
	DW	0ffffH
	DW	0ffffH
	DW	0ffffH
	DW	0ffffH
	DW	0ffffH
	DW	0ffffH
	DW	0ffffH
	DW	0ffffH
	DW	0ffffH
	DW	0ffffH
	DW	0ffffH
	DW	0ffffH
	DW	0ffffH
	DW	0ffffH
	DW	0ffffH
	DW	0ffffH
	DW	0ffffH
	DW	0ffffH
	DW	0ffffH
	DW	0ffffH
	DW	0ffffH
	DW	0ffffH
	DW	0ffffH
	DW	0ffffH
	DW	0ffffH
	DW	0ffffH
	DW	0ffffH
	DW	0ffffH
	DW	0ffffH
	DW	0ffffH
	DW	0ffffH
	DW	0ffffH
	DW	0ffffH
	DW	0ffffH
	DW	0ffffH
	DW	0ffffH
	DW	0ffffH
	DW	0ffffH
	DW	0ffffH
	DW	0ffffH
	DW	0ffffH
	DW	0ffffH
	DW	0ffffH
	DW	0ffffH
	DW	0ffffH
	DW	0fefbH
	DW	098bcH
	DW	0faccH
	DW	0ffffH
	DW	0ffffH
	DW	095b0H
	DW	0ffffH
	DW	0ffffH
	DW	0ffffH
	DW	09464H
	DW	0ffffH
	DW	0ffffH
	DW	0ffffH
	DW	0ffffH
	DW	0ffffH
	DW	0ffffH
	DW	0936fH
	DW	0ffffH
	DW	0ffffH
	DW	0ffffH
	DW	0ffffH
	DW	0ffffH
	DW	0ffffH
	DW	094b9H
	DW	0ffffH
	DW	0ffffH
	DW	095ecH
	DW	0ffffH
	DW	0ffffH
	DW	0ffffH
	DW	0ffffH
	DW	091eeH
	DW	0ffffH
	DW	0ffffH
	DW	098c3H
	DW	0ffffH
	DW	095f6H
	DW	0ffffH
	DW	0ffffH
	DW	0ffffH
	DW	08ffdH
	DW	098c5H
	DW	0ffffH
	DW	0ffffH
	DW	0ffffH
	DW	0ffffH
	DW	09766H
	DW	0fe6eH
	DW	0ffffH
	DW	0ffffH
	DW	097ddH
	DW	08caaH
	DW	0ffffH
	DW	0ffffH
	DW	092d2H
	DW	0ffffH
	DW	0ffffH
	DW	09761H
	DW	098cbH
	DW	0ffffH
	DW	0ffffH
	DW	0ffffH
	DW	0ffffH
	DW	095f0H
	DW	0ffffH
	DW	0975dH
	DW	0ffffH
	DW	091e3H
	DW	0ffffH
	DW	0ffffH
	DW	0ffffH
	DW	0ffffH
	DW	098ccH
	DW	0ffffH
	DW	0ffffH
	DW	09469H
	DW	098cdH
	DW	0ffffH
	DW	0ffffH
	DW	0ffffH
	DW	0ffffH
	DW	0ffffH
	DW	098ceH
	DW	0ffffH
	DW	095fcH
	DW	0ffffH
	DW	0ffffH
	DW	094a3H
	DW	09662H
	DW	0ffffH
	DW	0ffffH
	DW	0ffffH
	DW	0feb6H
	DW	0ffffH
	DW	09463H
	DW	08d47H
	DW	0ffffH
	DW	0ffffH
	DW	0ffffH
	DW	0ffffH
	DW	0ffffH
	DW	0ffffH
	DW	098d0H
	DW	0ffffH
	DW	0ffffH
	DW	0ffffH
	DW	0ffffH
	DW	0ffffH
	DW	0ffffH
	DW	0ffffH
	DW	0ffffH
	DW	0ffffH
	DW	0ffffH
	DW	0ffffH
	DW	0ffffH
	DW	0ffffH
	DW	0ffffH
	DW	0ffffH
	DW	0ffffH
	DW	0ffffH
	DW	0ffffH
	DW	0ffffH
	DW	0ffffH
	DW	0ffffH
	DW	0ffffH
	DW	0ffffH
	DW	0ffffH
	DW	0ffffH
	DW	0ffffH
	DW	0ffffH
	DW	0ffffH
	DW	0ffffH
	DW	0ffffH
	DW	0ffffH
	DW	0ffffH
	DW	0ffffH
	DW	0ffffH
	DW	0ffffH
	DW	0ffffH
	DW	0ffffH
	DW	0ffffH
	DW	0ffffH
	DW	0ffffH
	DW	0ffffH
	DW	0ffffH
	DW	0ffffH
	DW	0ffffH
	DW	0ffffH
	DW	0ffffH
	DW	0ffffH
	DW	0ffffH
	DW	0ffffH
	DW	0ffffH
	DW	0ffffH
	DW	0ffffH
	DW	0ffffH
	DW	0ffffH
	DW	0ffffH
	DW	0ffffH
	DW	0ffffH
	DW	0ffffH
	DW	0ffffH
	DW	0ffffH
	DW	0ffffH
	DW	0ffffH
	DW	0ffffH
	DW	0ffffH
	DW	0ffffH
	DW	0ffffH
	DW	0ffffH
	DW	0ffffH
	DW	098d1H
	DW	0ffffH
	DW	0ffffH
	DW	0ffffH
	DW	0ffffH
	DW	09475H
	DW	0fae0H
	DW	0ffffH
	DW	0ffffH
	DW	0ffffH
	DW	0ffffH
	DW	0ffffH
	DW	0ffffH
	DW	0ffffH
	DW	0ffffH
	DW	0ffffH
	DW	09472H
	DW	0ffffH
	DW	0ffffH
	DW	0ffffH
	DW	0ffffH
	DW	0ffffH
	DW	0ffffH
	DW	0ffffH
	DW	0ffffH
	DW	0ffffH
	DW	0ffffH
	DW	0ffffH
	DW	0ffffH
	DW	0ffffH
	DW	0ffffH
	DW	0ffffH
	DW	0ffffH
	DW	0ffffH
	DW	0ffffH
	DW	0ffffH
	DW	0ffffH
	DW	0ffffH
	DW	0ffffH
	DW	0ffffH
	DW	0ffffH
	DW	098d6H
	DW	0ffffH
	DW	0ffffH
	DW	0ffffH
	DW	0ffffH
	DW	0ffffH
	DW	0ffffH
	DW	0ffffH
	DW	0ffffH
	DW	0ffffH
	DW	0ffffH
	DW	0ffffH
	DW	0ffffH
	DW	0ffffH
	DW	0ffffH
	DW	0ffffH
	DW	0ffffH
	DW	0ffffH
	DW	0ffffH
	DW	0ffffH
	DW	0ffffH
	DW	0ffffH
	DW	0ffffH
	DW	08af0H
	DW	0ffffH
	DW	0ffffH
	DW	0ffffH
	DW	0ffffH
	DW	0ffffH
	DW	0ffffH
	DW	0ffffH
	DW	0ffffH
	DW	0ffffH
	DW	0ffffH
	DW	0ffffH
	DW	0ffffH
	DW	0ffffH
	DW	0ffffH
	DW	0ffffH
	DW	0ffffH
	DW	0ffffH
	DW	0ffffH
	DW	0ffffH
	DW	0ffffH
	DW	0ffffH
	DW	0ffffH
	DW	0ffffH
	DW	0ffffH
	DW	0ffffH
	DW	0ffffH
	DW	0ffffH
	DW	0ffffH
	DW	0ffffH
	DW	0ffffH
	DW	0ffffH
	DW	0ffffH
	DW	0ffffH
	DW	0ffffH
	DW	0ffffH
	DW	0ffffH
	DW	0ffffH
	DW	0ffffH
	DW	0ffffH
	DW	0ffffH
	DW	0ffffH
	DW	0ffffH
	DW	0ffffH
	DW	0ffffH
	DW	098d9H
	DW	0ffffH
	DW	0ffffH
	DW	0ffffH
	DW	0ffffH
	DW	0ffffH
	DW	0ffffH
	DW	0ffffH
	DW	08d5aH
	DW	0ffffH
	DW	0ffffH
	DW	0ffffH
	DW	0ffffH
	DW	0ffffH
	DW	0ffffH
	DW	0ffffH
	DW	0ffffH
	DW	0ffffH
	DW	0ffffH
	DW	0ffffH
	DW	0ffffH
	DW	0ffffH
	DW	0ffffH
	DW	098dbH
	DW	0ffffH
	DW	0ffffH
	DW	0ffffH
	DW	0ffffH
	DW	098ddH
	DW	0ffffH
	DW	0ffffH
	DW	0ffffH
	DW	0ffffH
	DW	0ffffH
	DW	0ffffH
	DW	0ffffH
	DW	0ffffH
	DW	098a8H
	DW	0ffffH
	DW	0ffffH
	DW	0ffffH
	DW	0ffffH
	DW	0ffffH
	DW	0ffffH
	DW	0ffffH
	DW	08a6dH
	DW	0ffffH
	DW	0ffffH
	DW	0ffffH
	DW	0ffffH
	DW	0ffffH
	DW	0ffffH
	DW	0ffffH
	DW	0ffffH
	DW	0ffffH
	DW	0ffffH
	DW	0ffffH
	DW	08afbH
	DW	08aaeH
	DW	0fbc9H
	DW	0ffffH
	DW	0ffffH
	DW	0ffffH
	DW	0ffffH
	DW	08c5dH
	DW	0ffffH
	DW	0ffffH
	DW	0ffffH
	DW	0ffffH
	DW	0ffffH
	DW	0ffffH
	DW	0ffffH
	DW	0ffffH
	DW	0ffffH
	DW	0ffffH
	DW	0ffffH
	DW	0ffffH
	DW	0ffffH
	DW	0ffffH
	DW	0ffffH
	DW	0ffffH
	DW	0ffffH
	DW	0ffffH
	DW	0ffffH
	DW	098e4H
	DW	0ffffH
	DW	0ffffH
	DW	0ffffH
	DW	0ffffH
	DW	0ffffH
	DW	0ffffH
	DW	0ffffH
	DW	0ffffH
	DW	0ffffH
	DW	0ffffH
	DW	0ffffH
	DW	0ffffH
	DW	0ffffH
	DW	0ffffH
	DW	0ffffH
	DW	0ffffH
	DW	0ffffH
	DW	0ffffH
	DW	0ffffH
	DW	0ffffH
	DW	0ffffH
	DW	0ffffH
	DW	0ffffH
	DW	0ffffH
	DW	0ffffH
	DW	0ffffH
	DW	0ffffH
	DW	098e6H
	DW	0ffffH
	DW	0ffffH
	DW	0ffffH
	DW	0ffffH
	DW	0ffffH
	DW	0ffffH
	DW	0ffffH
	DW	0ffffH
	DW	0ffffH
	DW	0ffffH
	DW	0ffffH
	DW	098e8H
	DW	0ffffH
	DW	0ffffH
	DW	0ffffH
	DW	0ffffH
	DW	0ffffH
	DW	0ffffH
	DW	0ffffH
	DW	0ffffH
	DW	0ffffH
	DW	0ffffH
	DW	0ffffH
	DW	0ffffH
	DW	0ffffH
	DW	08a4dH
	DW	0ffffH
	DW	0ffffH
	DW	0ffffH
	DW	09257H
	DW	0ffffH
	DW	0ffffH
	DW	0ffffH
	DW	0ffffH
	DW	0ffffH
	DW	0ffffH
	DW	0ffffH
	DW	0ffffH
	DW	0ffffH
	DW	0ffffH
	DW	095dfH
	DW	0ffffH
	DW	0ffffH
	DW	0a0acH
	DW	0ffffH
	DW	0ffffH
	DW	0ffffH
	DW	0ffffH
	DW	098ebH
	DW	0ffffH
	DW	0ffffH
	DW	0ffffH
	DW	0ffffH
	DW	098ecH
	DW	0ffffH
	DW	08cc3H
	DW	0ffffH
	DW	0ffffH
	DW	0ffffH
	DW	0ffffH
	DW	0ffffH
	DW	0ffffH
	DW	0ffffH
	DW	0ffffH
	DW	0ffffH
	DW	0ffffH
	DW	0ffffH
	DW	0ffffH
	DW	0ffffH
	DW	0ffffH
	DW	0ffffH
	DW	0ffffH
	DW	0ffffH
	DW	0ffffH
	DW	0ffffH
	DW	0ffffH
	DW	0ffffH
	DW	0ffffH
	DW	0ffffH
	DW	0ffffH
	DW	0ffffH
	DW	0ffffH
	DW	0ffffH
	DW	0ffffH
	DW	0ffffH
	DW	0ffffH
	DW	0ffffH
	DW	0ffffH
	DW	0ffffH
	DW	0ffffH
	DW	0ffffH
	DW	0ffffH
	DW	0ffffH
	DW	0ffffH
	DW	0ffffH
	DW	0ffffH
	DW	0ffffH
	DW	0ffffH
	DW	0ffffH
	DW	0ffffH
	DW	0ffffH
	DW	0ffffH
	DW	0ffffH
	DW	0ffffH
	DW	0ffffH
	DW	0ffffH
	DW	0ffffH
	DW	0ffffH
	DW	0ffffH
	DW	0ffffH
	DW	098f4H
	DW	0ffffH
	DW	0ffffH
	DW	0ffffH
	DW	0ffffH
	DW	0ffffH
	DW	0ffffH
	DW	0ffffH
	DW	0ffffH
	DW	0ffffH
	DW	0ffffH
	DW	0ffffH
	DW	0ffffH
	DW	0ffffH
	DW	0ffffH
	DW	0ffffH
	DW	0ffffH
	DW	0ffffH
	DW	0ffffH
	DW	08ab8H
	DW	0ffffH
	DW	0ffffH
	DW	0ffffH
	DW	09ee7H
	DW	0ffffH
	DW	0ffffH
	DW	0ffffH
	DW	0ffffH
	DW	0ffffH
	DW	0ffffH
	DW	0ffffH
	DW	0ffffH
	DW	094bcH
	DW	0ffffH
	DW	0ffffH
	DW	0ffffH
	DW	0ffffH
	DW	0ffffH
	DW	0ffffH
	DW	0ffffH
	DW	0ffffH
	DW	0ffffH
	DW	0ffffH
	DW	0ffffH
	DW	0ffffH
	DW	0ffffH
	DW	0ffffH
	DW	0ffffH
	DW	0fcd1H
	DW	0ffffH
	DW	0ffffH
	DW	0ffffH
	DW	0ffffH
	DW	0ffffH
	DW	0ffffH
	DW	09cc6H
	DW	0ffffH
	DW	0ffffH
	DW	0ffffH
	DW	0ffffH
	DW	0ffffH
	DW	0ffffH
	DW	0ffffH
	DW	0ffffH
	DW	0ffffH
	DW	0ffffH
	DW	0ffffH
	DW	0ffffH
	DW	0ffffH
	DW	0ffffH
	DW	0ffffH
	DW	0ffffH
	DW	0ffffH
	DW	0ffffH
	DW	0ffffH
	DW	0ffffH
	DW	0ffffH
	DW	0ffffH
	DW	0ffffH
	DW	0ffffH
	DW	08d4aH
	DW	0ffffH
	DW	09e7eH
	DW	08d44H
	DW	098feH
	DW	0fde8H
	DW	0ffffH
	DW	0ffffH
	DW	0ffffH
	DW	0ffffH
	DW	09940H
	DW	0ffffH
	DW	0ffffH
	DW	0ffffH
	DW	0ffffH
	DW	094c9H
	DW	0ffffH
	DW	0ffffH
	DW	0ffffH
	DW	0ffffH
	DW	0ffffH
	DW	0ffffH
	DW	0ffffH
	DW	0ffffH
	DW	0ffffH
	DW	0ffffH
	DW	0ffffH
	DW	0ffffH
	DW	0ffffH
	DW	0ffffH
	DW	0ffffH
	DW	0ffffH
	DW	0ffffH
	DW	0ffffH
	DW	0ffffH
	DW	0ffffH
	DW	0ffffH
	DW	0ffffH
	DW	0ffffH
	DW	0ffffH
	DW	0ffffH
	DW	0ffffH
	DW	0ffffH
	DW	0ffffH
	DW	0ffffH
	DW	0ffffH
	DW	0ffffH
	DW	0ffffH
	DW	0ffffH
	DW	0ffffH
	DW	0ffffH
	DW	094d3H
	DW	0ffffH
	DW	0ffffH
	DW	0ffffH
	DW	0ffffH
	DW	0ffffH
	DW	0ffffH
	DW	0ffffH
	DW	0ffffH
	DW	0ffffH
	DW	0ffffH
	DW	0ffffH
	DW	0ffffH
	DW	0ffffH
	DW	0ffffH
	DW	0ffffH
	DW	0ffffH
	DW	0ffffH
	DW	0ffffH
	DW	0ffffH
	DW	0ffffH
	DW	0ffffH
	DW	0ffffH
	DW	0ffffH
	DW	0ffffH
	DW	0ffffH
	DW	0ffffH
	DW	0ffffH
	DW	0ffffH
	DW	0ffffH
	DW	0ffffH
	DW	0ffffH
	DW	0ffffH
	DW	0ffffH
	DW	0ffffH
	DW	0ffffH
	DW	0ffffH
	DW	0ffffH
	DW	0ffffH
	DW	0ffffH
	DW	0ffffH
	DW	0ffffH
	DW	0ffffH
	DW	0ffffH
	DW	0ffffH
	DW	0ffffH
	DW	0ffffH
	DW	0ffffH
	DW	0ffffH
	DW	0ffffH
	DW	0ffffH
	DW	0ffffH
	DW	0ffffH
	DW	09946H
	DW	0ffffH
	DW	0ffffH
	DW	0ffffH
	DW	0ffffH
	DW	090c0H
	DW	0ffffH
	DW	094d1H
	DW	0ffffH
	DW	0ffffH
	DW	0ffffH
	DW	0ffffH
	DW	0ffffH
	DW	0ffffH
	DW	0ffffH
	DW	0ffffH
	DW	0ffffH
	DW	0ffffH
	DW	0ffffH
	DW	0ffffH
	DW	0ffffH
	DW	08d4eH
	DW	0ffffH
	DW	0ffffH
	DW	09573H
	DW	0ffffH
	DW	0ffffH
	DW	0ffffH
	DW	0ffffH
	DW	0ffffH
	DW	0ffffH
	DW	0ffffH
	DW	0ffffH
	DW	0ffffH
	DW	0ffffH
	DW	0ffffH
	DW	0ffffH
	DW	0ffffH
	DW	0ffffH
	DW	0ffffH
	DW	0ffffH
	DW	093c2H
	DW	0ffffH
	DW	0ffffH
	DW	0ffffH
	DW	0ffffH
	DW	0ffffH
	DW	0ffffH
	DW	0ffffH
	DW	0ffffH
	DW	0ffffH
	DW	0ffffH
	DW	0ffffH
	DW	0ffffH
	DW	0ffffH
	DW	0ffffH
	DW	0ffffH
	DW	0ffffH
	DW	0ffffH
	DW	0ffffH
	DW	0ffffH
	DW	0ffffH
	DW	0ffffH
	DW	0ffffH
	DW	0ffffH
	DW	0ffffH
	DW	0ffffH
	DW	0ffffH
	DW	0ffffH
	DW	0ffffH
	DW	0ffffH
	DW	0ffffH
	DW	0ffffH
	DW	0ffffH
	DW	0ffffH
	DW	09948H
	DW	0ffffH
	DW	0ffffH
	DW	0ffffH
	DW	0ffffH
	DW	0ffffH
	DW	0ffffH
	DW	0ffffH
	DW	0ffffH
	DW	0ffffH
	DW	0ffffH
	DW	0ffffH
	DW	0ffffH
	DW	0ffffH
	DW	0ffffH
	DW	0ffffH
	DW	0ffffH
	DW	0ffffH
	DW	0994bH
	DW	0ffffH
	DW	0ffffH
	DW	0ffffH
	DW	0ffffH
	DW	0ffffH
	DW	08e55H
	DW	0ffffH
	DW	0ffffH
	DW	0ffffH
	DW	0ffffH
	DW	0994eH
	DW	0ffffH
	DW	0ffffH
	DW	0ffffH
	DW	0ffffH
	DW	0ffffH
	DW	0ffffH
	DW	0ffffH
	DW	0ffffH
	DW	0ffffH
	DW	0ffffH
	DW	0ffffH
	DW	08efeH
	DW	0ffffH
	DW	0ffffH
	DW	0ffffH
	DW	0ffffH
	DW	0ffffH
	DW	0ffffH
	DW	0ffffH
	DW	0ffffH
	DW	0ffffH
	DW	0ffffH
	DW	0ffffH
	DW	0ffffH
	DW	0ffffH
	DW	0ffffH
	DW	0ffffH
	DW	0ffffH
	DW	0ffffH
	DW	08d5fH
	DW	0ffffH
	DW	08e59H
	DW	0ffffH
	DW	0ffffH
	DW	0ffffH
	DW	0ffffH
	DW	0ffffH
	DW	0ffffH
	DW	0ffffH
	DW	0ffffH
	DW	0ffffH
	DW	094ecH
	DW	094efH
	DW	0ffffH
	DW	0ffffH
	DW	0ffffH
	DW	0ffffH
	DW	0ffffH
	DW	0ffffH
	DW	0ffffH
	DW	0ffffH
	DW	0ffffH
	DW	0ffffH
	DW	0ffffH
	DW	0ffffH
	DW	0ffffH
	DW	0ffffH
	DW	0ffffH
	DW	0ffffH
	DW	0ffffH
	DW	08c60H
	DW	0ffffH
	DW	0ffffH
	DW	0ffffH
	DW	0ffffH
	DW	0ffffH
	DW	0ffffH
	DW	0ffffH
	DW	0ffffH
	DW	0ffffH
	DW	0ffffH
	DW	0ffffH
	DW	0ffffH
	DW	0ffffH
	DW	0ffffH
	DW	0ffffH
	DW	0ffffH
	DW	0ffffH
	DW	0ffffH
	DW	0ffffH
	DW	0ffffH
	DW	0ffffH
	DW	0ffffH
	DW	0ffffH
	DW	0ffffH
	DW	0ffffH
	DW	0ffffH
	DW	0ffffH
	DW	0ffffH
	DW	08f74H
	DW	0ffffH
	DW	0ffffH
	DW	0ffffH
	DW	0ffffH
	DW	0ffffH
	DW	0ffffH
	DW	0ffffH
	DW	0ffffH
	DW	0ffffH
	DW	0ffffH
	DW	0ffffH
	DW	0ffffH
	DW	0ffffH
	DW	0ffffH
	DW	0ffffH
	DW	0ffffH
	DW	0ffffH
	DW	0ffffH
	DW	0ffffH
	DW	0ffffH
	DW	0ffffH
	DW	0ffffH
	DW	0ffffH
	DW	0ffffH
	DW	0ffffH
	DW	0ffffH
	DW	0ffffH
	DW	0ffffH
	DW	0ffffH
	DW	0ffffH
	DW	0ffffH
	DW	09955H
	DW	0ffffH
	DW	0ffffH
	DW	0ffffH
	DW	0ffffH
	DW	0ffffH
	DW	0ffffH
	DW	0ffffH
	DW	0ffffH
	DW	0ffffH
	DW	09544H
	DW	0ffffH
	DW	0ffffH
	DW	0ffffH
	DW	0ffffH
	DW	0ffffH
	DW	0ffffH
	DW	0ffffH
	DW	0ffffH
	DW	0ffffH
	DW	0ffffH
	DW	0ffffH
	DW	08ccbH
	DW	0ffffH
	DW	0ffffH
	DW	0ffffH
	DW	09956H
	DW	0ffffH
	DW	0ffffH
	DW	0ffffH
	DW	0ffffH
	DW	0ffffH
	DW	0ffffH
	DW	0ffffH
	DW	0ffffH
	DW	0ffffH
	DW	0ffffH
	DW	0ffffH
	DW	0ffffH
	DW	0ffffH
	DW	0ffffH
	DW	0ffffH
	DW	0ffffH
	DW	0ffffH
	DW	09959H
	DW	0ffffH
	DW	0ffffH
	DW	0ffffH
	DW	0ffffH
	DW	0ffffH
	DW	0ffffH
	DW	0ffffH
	DW	0995bH
	DW	0ffffH
	DW	0ffffH
	DW	0ffffH
	DW	0ffffH
	DW	0ffffH
	DW	0ffffH
	DW	0ffffH
	DW	0ffffH
	DW	0ffffH
	DW	0ffffH
	DW	0ffffH
	DW	0ffffH
	DW	0ffffH
	DW	08cc4H
	DW	0ffffH
	DW	0ffffH
	DW	0ffffH
	DW	0ffffH
	DW	0ffffH
	DW	0ffffH
	DW	0ffffH
	DW	0ffffH
	DW	0ffffH
	DW	0ffffH
	DW	0ffffH
	DW	0ffffH
	DW	0ffffH
	DW	0ffffH
	DW	0ffffH
	DW	0ffffH
	DW	0ffffH
	DW	0ffffH
	DW	0fa45H
	DW	0ffffH
	DW	0ffffH
	DW	0ffffH
	DW	090b7H
	DW	0ffffH
	DW	0ffffH
	DW	09743H
	DW	0ffffH
	DW	0ffffH
	DW	0ffffH
	DW	0ffffH
	DW	0ffffH
	DW	0ffffH
	DW	0ffffH
	DW	0ffffH
	DW	0ffffH
	DW	0ffffH
	DW	0ffffH
	DW	0ffffH
	DW	0ffffH
	DW	0ffffH
	DW	0ffffH
	DW	0ffffH
	DW	0ffffH
	DW	0ffffH
	DW	0ffffH
	DW	0ffffH
	DW	0ffffH
	DW	0ffffH
	DW	0ffffH
	DW	0ffffH
	DW	0ffffH
	DW	0ffffH
	DW	0ffffH
	DW	0ffffH
	DW	0ffffH
	DW	0ffffH
	DW	0ffffH
	DW	0ffffH
	DW	0ffffH
	DW	0ffffH
	DW	0ffffH
	DW	0ffffH
	DW	0ffffH
	DW	0ffffH
	DW	0ffffH
	DW	0ffffH
	DW	0ffffH
	DW	0ffffH
	DW	0ffffH
	DW	0ffffH
	DW	0ffffH
	DW	0ffffH
	DW	0ffffH
	DW	0ffffH
	DW	0ffffH
	DW	0ffffH
	DW	0ffffH
	DW	0ffffH
	DW	0ffffH
	DW	0ffffH
	DW	0ffffH
	DW	095cdH
	DW	0ffffH
	DW	0ffffH
	DW	0ffffH
	DW	0ffffH
	DW	0ffffH
	DW	0ffffH
	DW	097c9H
	DW	0fd50H
	DW	08eb9H
	DW	0ffffH
	DW	0ffffH
	DW	0ffffH
	DW	0ffffH
	DW	0ffffH
	DW	0ffffH
	DW	0ffffH
	DW	0ffffH
	DW	0ffffH
	DW	0ffffH
	DW	0ffffH
	DW	0ffffH
	DW	0ffffH
	DW	0ffffH
	DW	0ffffH
	DW	0ffffH
	DW	0ffffH
	DW	0ffffH
	DW	0ffffH
	DW	0ffffH
	DW	0ffffH
	DW	0ffffH
	DW	0ffffH
	DW	0ffffH
	DW	0ffffH
	DW	0ffffH
	DW	0ffffH
	DW	0ffffH
	DW	0ffffH
	DW	0ffffH
	DW	0ffffH
	DW	0ffffH
	DW	0ffffH
	DW	0ffffH
	DW	0ffffH
	DW	0ffffH
	DW	0ffffH
	DW	0ffffH
	DW	0ffffH
	DW	0ffffH
	DW	0ffffH
	DW	0ffffH
	DW	0ffffH
	DW	0ffffH
	DW	0ffffH
	DW	0ffffH
	DW	0ffffH
	DW	0ffffH
	DW	0ffffH
	DW	0ffffH
	DW	0ffffH
	DW	0ffffH
	DW	0ffffH
	DW	0ffffH
	DW	0ffffH
	DW	0ffffH
	DW	0ffffH
	DW	0ffffH
	DW	0ffffH
	DW	0ffffH
	DW	0ffffH
	DW	0ffffH
	DW	0ffffH
	DW	0ffffH
	DW	0ffffH
	DW	0ffffH
	DW	095c6H
	DW	0ffffH
	DW	0ffffH
	DW	0ffffH
	DW	0ffffH
	DW	0ffffH
	DW	0ffffH
	DW	0ffffH
	DW	0ffffH
	DW	0ffffH
	DW	0ffffH
	DW	0ffffH
	DW	0ffffH
	DW	0ffffH
	DW	0ffffH
	DW	0ffffH
	DW	0ffffH
	DW	0ffffH
	DW	0ffffH
	DW	0ffffH
	DW	0ffffH
	DW	0ffffH
	DW	0ffffH
	DW	0ffffH
	DW	0ffffH
	DW	0ffffH
	DW	0ffffH
	DW	0ffffH
	DW	0ffffH
	DW	0ffffH
	DW	0ffffH
	DW	0ffffH
	DW	0ffffH
	DW	0ffffH
	DW	0ffffH
	DW	0ffffH
	DW	0ffffH
	DW	0ffffH
	DW	0ffffH
	DW	0ffffH
	DW	0ffffH
	DW	09967H
	DW	0ffffH
	DW	0ffffH
	DW	08ce3H
	DW	0ffffH
	DW	0ffffH
	DW	0ffffH
	DW	0ffffH
	DW	0ffffH
	DW	0ffffH
	DW	0ffffH
	DW	0ffffH
	DW	0ffffH
	DW	0ffffH
	DW	0ffffH
	DW	0ffffH
	DW	0ffffH
	DW	0ffffH
	DW	0ffffH
	DW	0ffffH
	DW	0ffffH
	DW	0ffffH
	DW	0ffffH
	DW	0ffffH
	DW	0ffffH
	DW	0ffffH
	DW	0ffffH
	DW	0ffffH
	DW	0ffffH
	DW	0ffffH
	DW	0ffffH
	DW	0ffffH
	DW	0ffffH
	DW	0ffffH
	DW	0ffffH
	DW	08ab9H
	DW	0ffffH
	DW	0ffffH
	DW	0ffffH
	DW	0ffffH
	DW	0ffffH
	DW	0ffffH
	DW	08dfcH
	DW	0ffffH
	DW	0ffffH
	DW	0ffffH
	DW	0ffffH
	DW	0ffffH
	DW	0ffffH
	DW	0ffffH
	DW	0ffffH
	DW	0ffffH
	DW	0ffffH
	DW	0ffffH
	DW	0ffffH
	DW	0ffffH
	DW	0ffffH
	DW	0ffffH
	DW	0ffffH
	DW	0ffffH
	DW	0ffffH
	DW	0ffffH
	DW	0ffffH
	DW	0ffffH
	DW	0ffffH
	DW	0ffffH
	DW	08a76H
	DW	0ffffH
	DW	0ffffH
	DW	0ffffH
	DW	0ffffH
	DW	0ffffH
	DW	09d51H
	DW	0ffffH
	DW	0ffffH
	DW	0ffffH
	DW	0ffffH
	DW	0ffffH
	DW	0ffffH
	DW	0ffffH
	DW	0ffffH
	DW	0ffffH
	DW	0ffffH
	DW	0ffffH
	DW	0ffffH
	DW	0ffffH
	DW	09973H
	DW	0ffffH
	DW	0ffffH
	DW	08740H
	DW	0ffffH
	DW	09d4fH
	DW	0997aH
	DW	09564H
	DW	0ffffH
	DW	0ffffH
	DW	0ffffH
	DW	0ffffH
	DW	0ffffH
	DW	0ffffH
	DW	0ffffH
	DW	0ffffH
	DW	0ffffH
	DW	0ffffH
	DW	0ffffH
	DW	0ffffH
	DW	0ffffH
	DW	0ffffH
	DW	0ffffH
	DW	0ffffH
	DW	099a1H
	DW	0ffffH
	DW	0ffffH
	DW	0ffffH
	DW	0ffffH
	DW	0ffffH
	DW	0ffffH
	DW	0ffffH
	DW	0ffffH
	DW	0ffffH
	DW	0ffffH
	DW	0ffffH
	DW	0ffffH
	DW	0ffffH
	DW	0ffffH
	DW	0ffffH
	DW	0ffffH
	DW	0ffffH
	DW	099a5H
	DW	0ffffH
	DW	0ffffH
	DW	0ffffH
	DW	0ffffH
	DW	0ffffH
	DW	0ffffH
	DW	0ffffH
	DW	099a7H
	DW	0ffffH
	DW	0ffffH
	DW	0ffffH
	DW	0ffffH
	DW	0ffffH
	DW	0ffffH
	DW	0ffffH
	DW	0ffffH
	DW	0ffffH
	DW	0ffffH
	DW	0ffffH
	DW	0ffffH
	DW	0ffffH
	DW	0ffffH
	DW	0ffffH
	DW	0ffffH
	DW	0ffffH
	DW	0ffffH
	DW	0ffffH
	DW	0ffffH
	DW	0ffffH
	DW	0ffffH
	DW	0ffffH
	DW	0ffffH
	DW	0ffffH
	DW	0ffffH
	DW	0ffffH
	DW	0ffffH
	DW	0ffffH
	DW	0ffffH
	DW	0ffffH
	DW	0ffffH
	DW	0ffffH
	DW	0ffffH
	DW	0ffffH
	DW	0ffffH
	DW	0ffffH
	DW	0ffffH
	DW	0ffffH
	DW	0ffffH
	DW	0ffffH
	DW	0ffffH
	DW	0ffffH
	DW	0ffffH
	DW	0ffffH
	DW	0ffffH
	DW	0ffffH
	DW	0ffffH
	DW	0ffffH
	DW	0ffffH
	DW	0ffffH
	DW	0ffffH
	DW	0ffffH
	DW	0ffffH
	DW	0ffffH
	DW	0ffffH
	DW	0ffffH
	DW	0ffffH
	DW	0ffffH
	DW	0ffffH
	DW	0ffffH
	DW	0ffffH
	DW	0ffffH
	DW	0ffffH
	DW	0ffffH
	DW	0ffffH
	DW	0ffffH
	DW	0ffffH
	DW	0ffffH
	DW	0ffffH
	DW	0ffffH
	DW	0ffffH
	DW	0ffffH
	DW	0ffffH
	DW	0ffffH
	DW	0ffffH
	DW	08eedH
	DW	0ffffH
	DW	0ffffH
	DW	0ffffH
	DW	0ffffH
	DW	0ffffH
	DW	0ffffH
	DW	0ffffH
	DW	0ffffH
	DW	0ffffH
	DW	0ffffH
	DW	0ffffH
	DW	0ffffH
	DW	0ffffH
	DW	0ffffH
	DW	0ffffH
	DW	0ffffH
	DW	0ffffH
	DW	0ffffH
	DW	0ffffH
	DW	0ffffH
	DW	099adH
	DW	0ffffH
	DW	0c87eH
	DW	0ffffH
	DW	0ffffH
	DW	0ffffH
	DW	0ffffH
	DW	0ffffH
	DW	0ffffH
	DW	0ffffH
	DW	0ffffH
	DW	0ffffH
	DW	0ffffH
	DW	0ffffH
	DW	0ffffH
	DW	0ffffH
	DW	0946eH
	DW	08f70H
	DW	0ffffH
	DW	0fad0H
	DW	0ffffH
	DW	0ffffH
	DW	0ffffH
	DW	0ffffH
	DW	0ffffH
	DW	0ffffH
	DW	0ffffH
	DW	0ffffH
	DW	0ffffH
	DW	0ffffH
	DW	0ffffH
	DW	0ffffH
	DW	0ffffH
	DW	099b3H
	DW	0ffffH
	DW	0ffffH
	DW	0ffffH
	DW	0ffffH
	DW	0ffffH
	DW	0ffffH
	DW	0a053H
	DW	0ffffH
	DW	0ffffH
	DW	0ffffH
	DW	0ffffH
	DW	0ffffH
	DW	08d5eH
	DW	0ffffH
	DW	0ffffH
	DW	0965cH
	DW	0ffffH
	DW	0ffffH
	DW	08ce0H
	DW	0ffffH
	DW	0fd7aH
	DW	0ffffH
	DW	0ffffH
	DW	0ffffH
	DW	0ffffH
	DW	0ffffH
	DW	0ffffH
	DW	0ffffH
	DW	0ffffH
	DW	097feH
	DW	0ffffH
	DW	0ffffH
	DW	0ffffH
	DW	0ffffH
	DW	0ffffH
	DW	0ffffH
	DW	0ffffH
	DW	0ffffH
	DW	0ffffH
	DW	0ffffH
	DW	0ffffH
	DW	0ffffH
	DW	0ffffH
	DW	0ffffH
	DW	092bdH
	DW	08d5dH
	DW	097fdH
	DW	0ffffH
	DW	0ffffH
	DW	0ffffH
	DW	0ffffH
	DW	08f64H
	DW	0ffffH
	DW	0ffffH
	DW	0ffffH
	DW	0ffffH
	DW	0fcf7H
	DW	09562H
	DW	097cdH
	DW	09e64H
	DW	0ffffH
	DW	0ffffH
	DW	0ffffH
	DW	0ffffH
	DW	0ffffH
	DW	0ffffH
	DW	0ffffH
	DW	0924cH
	DW	08ec9H
	DW	099bcH
	DW	0ffffH
	DW	0ffffH
	DW	0ffffH
	DW	0ffffH
	DW	09da5H
	DW	0ffffH
	DW	08f54H
	DW	0ffffH
	DW	0ffffH
	DW	0ffffH
	DW	0ffffH
	DW	0ffffH
	DW	0ffffH
	DW	0ffffH
	DW	0ffffH
	DW	0ffffH
	DW	0ffffH
	DW	08f7cH
	DW	0ffffH
	DW	0ffffH
	DW	0ffffH
	DW	0ffffH
	DW	08d55H
	DW	0ffffH
	DW	08ea2H
	DW	0ffffH
	DW	0ffffH
	DW	0ffffH
	DW	0ffffH
	DW	0ffffH
	DW	0ffffH
	DW	0ffffH
	DW	0ffffH
	DW	0ffffH
	DW	08f7aH
	DW	0ffffH
	DW	0ffffH
	DW	0ffffH
	DW	0ffffH
	DW	0ffffH
	DW	0ffffH
	DW	097aeH
	DW	0ffffH
	DW	0ffffH
	DW	0ffffH
	DW	0ffffH
	DW	096c8H
	DW	0ffffH
	DW	0ffffH
	DW	08ce4H
	DW	0ffffH
	DW	0ffffH
	DW	0ffffH
	DW	0ffffH
	DW	099c3H
	DW	0ffffH
	DW	090d6H
	DW	0ffffH
	DW	09cbeH
	DW	0ffffH
	DW	0ffffH
	DW	0ffffH
	DW	08f76H
	DW	0ffffH
	DW	0ffffH
	DW	0ffffH
	DW	0ffffH
	DW	0ffffH
	DW	0ffffH
	DW	0ffffH
	DW	0ffffH
	DW	0ffffH
	DW	0ffffH
	DW	0ffffH
	DW	0ffffH
	DW	0ffffH
	DW	09470H
	DW	0fb4bH
	DW	0ffffH
	DW	0ffffH
	DW	0fdcaH
	DW	0ffffH
	DW	0ffffH
	DW	08cefH
	DW	0ffffH
	DW	0ffffH
	DW	0ffffH
	DW	08ec7H
	DW	0ffffH
	DW	0ffffH
	DW	0ffffH
	DW	0ffffH
	DW	08d54H
	DW	0a0f9H
	DW	0ffffH
	DW	0ffffH
	DW	0ffffH
	DW	0ffffH
	DW	0ffffH
	DW	0ffffH
	DW	0ffffH
	DW	08fa9H
	DW	0ffffH
	DW	0ffffH
	DW	08d51H
	DW	0ffffH
	DW	0ffffH
	DW	0ffffH
	DW	0ffffH
	DW	0ffffH
	DW	0ffffH
	DW	0ffffH
	DW	0ffffH
	DW	0ffffH
	DW	099c7H
	DW	08744H
	DW	0ffffH
	DW	0ffffH
	DW	0ffffH
	DW	0ffffH
	DW	0ffffH
	DW	0ffffH
	DW	0ffffH
	DW	0ffffH
	DW	0ffffH
	DW	0ffffH
	DW	0ffffH
	DW	0ffffH
	DW	090d7H
	DW	0ffffH
	DW	0ffffH
	DW	0ffffH
	DW	0ffffH
	DW	0ffffH
	DW	0ffffH
	DW	0ffffH
	DW	0ffffH
	DW	0ffffH
	DW	0ffffH
	DW	0ffffH
	DW	0ffffH
	DW	0ffffH
	DW	0ffffH
	DW	0ffffH
	DW	0ffffH
	DW	0ffffH
	DW	0ffffH
	DW	0ffffH
	DW	0ffffH
	DW	0ffffH
	DW	0ffffH
	DW	0ffffH
	DW	0ffffH
	DW	0ffffH
	DW	0ffffH
	DW	0ffffH
	DW	0ffffH
	DW	0ffffH
	DW	0ffffH
	DW	0ffffH
	DW	0ffffH
	DW	08743H
	DW	0ffffH
	DW	0ffffH
	DW	0ffffH
	DW	0ffffH
	DW	0ffffH
	DW	0ffffH
	DW	0ffffH
	DW	0ffffH
	DW	0ffffH
	DW	0ffffH
	DW	0ffffH
	DW	0ffffH
	DW	08747H
	DW	0ffffH
	DW	0ffffH
	DW	0ffffH
	DW	0ffffH
	DW	0ffffH
	DW	0ffffH
	DW	0ffffH
	DW	0ffffH
	DW	0ffffH
	DW	0ffffH
	DW	0ffffH
	DW	0ffffH
	DW	0ffffH
	DW	0ffffH
	DW	0ffffH
	DW	0ffffH
	DW	0ffffH
	DW	0ffffH
	DW	0ffffH
	DW	0ffffH
	DW	0ffffH
	DW	0ffffH
	DW	0ffffH
	DW	0ffffH
	DW	0ffffH
	DW	0ffffH
	DW	0ffffH
	DW	0ffffH
	DW	0ffffH
	DW	0ffffH
	DW	0ffffH
	DW	0ffffH
	DW	0ffffH
	DW	0ffffH
	DW	0ffffH
	DW	0ffffH
	DW	0ffffH
	DW	0ffffH
	DW	08758H
	DW	0ffffH
	DW	0ffffH
	DW	0ffffH
	DW	0ffffH
	DW	0ffffH
	DW	0ffffH
	DW	0ffffH
	DW	0ffffH
	DW	0ffffH
	DW	0ffffH
	DW	0ffffH
	DW	0ffffH
	DW	0ffffH
	DW	0ffffH
	DW	09edfH
	DW	08d59H
	DW	08742H
	DW	0ffffH
	DW	0ffffH
	DW	099ceH
	DW	0ffffH
	DW	0ffffH
	DW	0ffffH
	DW	0ffffH
	DW	0ffffH
	DW	0ffffH
	DW	0ffffH
	DW	0ffffH
	DW	08fbaH
	DW	0ffffH
	DW	0ffffH
	DW	0ffffH
	DW	0ffffH
	DW	0ffffH
	DW	08febH
	DW	0ffffH
	DW	099cfH
	DW	0ffffH
	DW	0ffffH
	DW	0ffffH
	DW	0ffffH
	DW	0ffffH
	DW	0ffffH
	DW	0ffffH
	DW	0ffffH
	DW	0ffffH
	DW	0ffffH
	DW	0ffffH
	DW	0ffffH
	DW	0ffffH
	DW	0ffffH
	DW	0ffffH
	DW	0ffffH
	DW	0ffffH
	DW	0ffffH
	DW	0ffffH
	DW	0ffffH
	DW	0ffffH
	DW	0ffffH
	DW	0ffffH
	DW	0ffffH
	DW	0ffffH
	DW	0ffffH
	DW	0ffffH
	DW	0ffffH
	DW	0ffffH
	DW	0ffffH
	DW	0ffffH
	DW	0ffffH
	DW	0ffffH
	DW	0ffffH
	DW	0ffffH
	DW	0ffffH
	DW	0ffffH
	DW	0ffffH
	DW	0ffffH
	DW	0ffffH
	DW	0ffffH
	DW	0ffffH
	DW	0ffffH
	DW	0ffffH
	DW	0ffffH
	DW	0ffffH
	DW	0ffffH
	DW	0ffffH
	DW	0ffffH
	DW	0ffffH
	DW	0ffffH
	DW	0ffffH
	DW	0ffffH
	DW	0ffffH
	DW	0ffffH
	DW	0ffffH
	DW	0ffffH
	DW	0ffffH
	DW	0ffffH
	DW	0ffffH
	DW	0ffffH
	DW	0ffffH
	DW	0ffffH
	DW	0ffffH
	DW	0ffffH
	DW	0ffffH
	DW	0ffffH
	DW	08fc2H
	DW	0ffffH
	DW	0ffffH
	DW	0ffffH
	DW	0ffffH
	DW	0ffffH
	DW	0ffffH
	DW	0ffffH
	DW	0ffffH
	DW	0ffffH
	DW	0ffffH
	DW	0ffffH
	DW	0ffffH
	DW	0ffffH
	DW	0ffffH
	DW	0ffffH
	DW	0ffffH
	DW	0ffffH
	DW	0ffffH
	DW	0ffffH
	DW	0ffffH
	DW	0ffffH
	DW	0ffffH
	DW	0ffffH
	DW	0ffffH
	DW	0ffffH
	DW	0ffffH
	DW	0ffffH
	DW	0ffffH
	DW	0ffffH
	DW	0ffffH
	DW	092c9H
	DW	0ffffH
	DW	0ffffH
	DW	0ffffH
	DW	0ffffH
	DW	0ffffH
	DW	097dcH
	DW	0ffffH
	DW	0ffffH
	DW	0ffffH
	DW	0ffffH
	DW	0ffffH
	DW	0ffffH
	DW	0ffffH
	DW	0ffffH
	DW	0ffffH
	DW	0ffffH
	DW	0ffffH
	DW	0ffffH
	DW	0ffffH
	DW	0ffffH
	DW	0ffffH
	DW	0ffffH
	DW	0ffffH
	DW	0ffffH
	DW	0ffffH
	DW	0ffffH
	DW	0ffffH
	DW	0ffffH
	DW	0ffffH
	DW	0ffffH
	DW	0ffffH
	DW	0ffffH
	DW	0ffffH
	DW	0ffffH
	DW	0ffffH
	DW	0ffffH
	DW	0ffffH
	DW	0ffffH
	DW	0875dH
	DW	0ffffH
	DW	0ffffH
	DW	0ffffH
	DW	0ffffH
	DW	0ffffH
	DW	0ffffH
	DW	0ffffH
	DW	0ffffH
	DW	0ffffH
	DW	0ffffH
	DW	0ffffH
	DW	0ffffH
	DW	0ffffH
	DW	0ffffH
	DW	0ffffH
	DW	0ffffH
	DW	0ffffH
	DW	0ffffH
	DW	0ffffH
	DW	0ffffH
	DW	0ffffH
	DW	0ffffH
	DW	0ffffH
	DW	0ffffH
	DW	0ffffH
	DW	08d45H
	DW	0ffffH
	DW	0ffffH
	DW	0ffffH
	DW	0ffffH
	DW	0ffffH
	DW	0ffffH
	DW	0ffffH
	DW	0ffffH
	DW	0ffffH
	DW	0ffffH
	DW	0ffffH
	DW	0ffffH
	DW	0ffffH
	DW	0ffffH
	DW	0ffffH
	DW	0ffffH
	DW	0ffffH
	DW	0ffffH
	DW	0ffffH
	DW	095b3H
	DW	09c79H
	DW	0ffffH
	DW	0ffffH
	DW	0ffffH
	DW	0ffffH
	DW	0ffffH
	DW	0ffffH
	DW	0ffffH
	DW	0ffffH
	DW	0ffffH
	DW	0ffffH
	DW	0ffffH
	DW	0ffffH
	DW	0ffffH
	DW	0ffffH
	DW	0ffffH
	DW	0ffffH
	DW	0ffffH
	DW	0ffffH
	DW	0ffffH
	DW	0ffffH
	DW	0ffffH
	DW	0ffffH
	DW	0ffffH
	DW	0ffffH
	DW	0ffffH
	DW	0ffffH
	DW	0ffffH
	DW	0ffffH
	DW	0ffffH
	DW	0ffffH
	DW	0ffffH
	DW	0ffffH
	DW	0ffffH
	DW	0ffffH
	DW	0ffffH
	DW	0ffffH
	DW	095b2H
	DW	0ffffH
	DW	08d4cH
	DW	08fdbH
	DW	0ffffH
	DW	0ffffH
	DW	0ffffH
	DW	0ffffH
	DW	09be3H
	DW	0ffffH
	DW	0ffffH
	DW	0ffffH
	DW	0ffffH
	DW	0ffffH
	DW	0ffffH
	DW	0ffffH
	DW	0ffffH
	DW	0ffffH
	DW	0ffffH
	DW	0ffffH
	DW	0ffffH
	DW	0ffffH
	DW	0ffffH
	DW	0ffffH
	DW	0ffffH
	DW	0ffffH
	DW	0ffffH
	DW	0ffffH
	DW	0ffffH
	DW	0ffffH
	DW	0ffffH
	DW	0ffffH
	DW	0ffffH
	DW	0ffffH
	DW	0ffffH
	DW	0ffffH
	DW	0ffffH
	DW	0ffffH
	DW	0874cH
	DW	0ffffH
	DW	0ffffH
	DW	0ffffH
	DW	0ffffH
	DW	0ffffH
	DW	0ffffH
	DW	0ffffH
	DW	0ffffH
	DW	0ffffH
	DW	0ffffH
	DW	0ffffH
	DW	0ffffH
	DW	0ffffH
	DW	0874dH
	DW	0ffffH
	DW	0ffffH
	DW	0ffffH
	DW	0ffffH
	DW	0ffffH
	DW	0ffffH
	DW	0ffffH
	DW	0ffffH
	DW	0ffffH
	DW	09e7aH
	DW	08757H
	DW	0ffffH
	DW	0ffffH
	DW	0ffffH
	DW	0ffffH
	DW	0ffffH
	DW	0ffffH
	DW	0ffffH
	DW	0ffffH
	DW	0ffffH
	DW	0ffffH
	DW	0ffffH
	DW	0ffffH
	DW	0ffffH
	DW	0ffffH
	DW	0ffffH
	DW	0ffffH
	DW	0ffffH
	DW	0ffffH
	DW	0ffffH
	DW	0ffffH
	DW	0ffffH
	DW	0ffffH
	DW	0ffffH
	DW	0ffffH
	DW	0ffffH
	DW	0ffffH
	DW	0ffffH
	DW	0ffffH
	DW	0ffffH
	DW	0ffffH
	DW	0ffffH
	DW	0ffffH
	DW	0ffffH
	DW	0ffffH
	DW	0ffffH
	DW	0ffffH
	DW	0ffffH
	DW	0ffffH
	DW	0ffffH
	DW	0ffffH
	DW	0ffffH
	DW	0ffffH
	DW	0ffffH
	DW	0ffffH
	DW	09beeH
	DW	0ffffH
	DW	0ffffH
	DW	0ffffH
	DW	0ffffH
	DW	0ffffH
	DW	0ffffH
	DW	0ffffH
	DW	0ffffH
	DW	0ffffH
	DW	0ffffH
	DW	0ffffH
	DW	0ffffH
	DW	0ffffH
	DW	0ffffH
	DW	0ffffH
	DW	0ffffH
	DW	0ffffH
	DW	0ffffH
	DW	0ffffH
	DW	0ffffH
	DW	0ffffH
	DW	0ffffH
	DW	0ffffH
	DW	0ffffH
	DW	0ffffH
	DW	0ffffH
	DW	0ffffH
	DW	099deH
	DW	0ffffH
	DW	0ffffH
	DW	0ffffH
	DW	0ffffH
	DW	0ffffH
	DW	0ffffH
	DW	0ffffH
	DW	0ffffH
	DW	0ffffH
	DW	0ffffH
	DW	0ffffH
	DW	0ffffH
	DW	0ffffH
	DW	0fafaH
	DW	0ffffH
	DW	0ffffH
	DW	0ffffH
	DW	0ffffH
	DW	0ffffH
	DW	0ffffH
	DW	0ffffH
	DW	0ffffH
	DW	0ffffH
	DW	0ffffH
	DW	0ffffH
	DW	0ffffH
	DW	0ffffH
	DW	0ffffH
	DW	0ffffH
	DW	0ffffH
	DW	0ffffH
	DW	0ffffH
	DW	0ffffH
	DW	0ffffH
	DW	0ffffH
	DW	0ffffH
	DW	0ffffH
	DW	0ffffH
	DW	0ffffH
	DW	0ffffH
	DW	0ffffH
	DW	0ffffH
	DW	0ffffH
	DW	0ffffH
	DW	0ffffH
	DW	0ffffH
	DW	0ffffH
	DW	0ffffH
	DW	0ffffH
	DW	0ffffH
	DW	0ffffH
	DW	0ffffH
	DW	0ffffH
	DW	0ffffH
	DW	0ffffH
	DW	0ffffH
	DW	0ffffH
	DW	0ffffH
	DW	0ffffH
	DW	0ffffH
	DW	08a52H
	DW	0ffffH
	DW	0ffffH
	DW	0ffffH
	DW	0ffffH
	DW	0ffffH
	DW	0ffffH
	DW	0ffffH
	DW	0ffffH
	DW	0ffffH
	DW	0ffffH
	DW	0ffffH
	DW	0ffffH
	DW	0ffffH
	DW	0ffffH
	DW	0ffffH
	DW	0ffffH
	DW	0ffffH
	DW	0ffffH
	DW	0ffffH
	DW	0ffffH
	DW	0ffffH
	DW	0ffffH
	DW	0ffffH
	DW	099e1H
	DW	0ffffH
	DW	0ffffH
	DW	0ffffH
	DW	0ffffH
	DW	0ffffH
	DW	0ffffH
	DW	08a67H
	DW	08bb5H
	DW	0ffffH
	DW	0ffffH
	DW	0ffffH
	DW	0ffffH
	DW	0ffffH
	DW	0ffffH
	DW	0ffffH
	DW	0ffffH
	DW	0ffffH
	DW	0ffffH
	DW	08aacH
	DW	0ffffH
	DW	0ffffH
	DW	0ffffH
	DW	0ffffH
	DW	0ffffH
	DW	0ffffH
	DW	0ffffH
	DW	0ffffH
	DW	0ffffH
	DW	0ffffH
	DW	0ffffH
	DW	0ffffH
	DW	0ffffH
	DW	0ffffH
	DW	0ffffH
	DW	0ffffH
	DW	0ffffH
	DW	0ffffH
	DW	0ffffH
	DW	0ffffH
	DW	0ffffH
	DW	0ffffH
	DW	0ffffH
	DW	0ffffH
	DW	0ffffH
	DW	0ffffH
	DW	0ffffH
	DW	0ffffH
	DW	0ffffH
	DW	0ffffH
	DW	0ffffH
	DW	0ffffH
	DW	0ffffH
	DW	0ffffH
	DW	0ffffH
	DW	0ffffH
	DW	0ffffH
	DW	0ffffH
	DW	0ffffH
	DW	0ffffH
	DW	0ffffH
	DW	0ffffH
	DW	0ffffH
	DW	099e9H
	DW	0ffffH
	DW	0ffffH
	DW	0ffffH
	DW	0ffffH
	DW	0ffffH
	DW	0ffffH
	DW	0ffffH
	DW	0ffffH
	DW	0ffffH
	DW	0ffffH
	DW	0ffffH
	DW	0ffffH
	DW	0ffffH
	DW	0ffffH
	DW	0ffffH
	DW	0ffffH
	DW	0ffffH
	DW	0ffffH
	DW	0ffffH
	DW	0ffffH
	DW	0ffffH
	DW	0ffffH
	DW	0ffffH
	DW	0ffffH
	DW	0ffffH
	DW	0ffffH
	DW	0ffffH
	DW	0ffffH
	DW	0ffffH
	DW	0ffffH
	DW	0ffffH
	DW	0ffffH
	DW	0ffffH
	DW	0ffffH
	DW	0ffffH
	DW	0ffffH
	DW	0ffffH
	DW	0fbcaH
	DW	0ffffH
	DW	0ffffH
	DW	0ffffH
	DW	0ffffH
	DW	0ffffH
	DW	0ffffH
	DW	0ffffH
	DW	0ffffH
	DW	0ffffH
	DW	0ffffH
	DW	0ffffH
	DW	0ffffH
	DW	0ffffH
	DW	0ffffH
	DW	0ffffH
	DW	0ffffH
	DW	0ffffH
	DW	0ffffH
	DW	0ffffH
	DW	097deH
	DW	0ffffH
	DW	0ffffH
	DW	0ffffH
	DW	0ffffH
	DW	0ffffH
	DW	0ffffH
	DW	0ffffH
	DW	0ffffH
	DW	0ffffH
	DW	0ffffH
	DW	0ffffH
	DW	0ffffH
	DW	0ffffH
	DW	0ffffH
	DW	0ffffH
	DW	0ffffH
	DW	0ffffH
	DW	0ffffH
	DW	0ffffH
	DW	0ffffH
	DW	0ffffH
	DW	0ffffH
	DW	0ffffH
	DW	0ffffH
	DW	0ffffH
	DW	0ffffH
	DW	0ffffH
	DW	0ffffH
	DW	0ffffH
	DW	0ffffH
	DW	0ffffH
	DW	0ffffH
	DW	0ffffH
	DW	0ffffH
	DW	0ffffH
	DW	0ffffH
	DW	0ffffH
	DW	0ffffH
	DW	0ffffH
	DW	0ffffH
	DW	0ffffH
	DW	095d1H
	DW	0ffffH
	DW	0ffffH
	DW	0ffffH
	DW	0ffffH
	DW	0ffffH
	DW	0ffffH
	DW	0ffffH
	DW	0ffffH
	DW	0ffffH
	DW	0ffffH
	DW	0ffffH
	DW	0ffffH
	DW	0ffffH
	DW	0ffffH
	DW	0ffffH
	DW	0ffffH
	DW	0ffffH
	DW	099f5H
	DW	0fc4aH
	DW	0ffffH
	DW	0ffffH
	DW	0ffffH
	DW	0ffffH
	DW	0ffffH
	DW	0ffffH
	DW	0ffffH
	DW	0ffffH
	DW	0ffffH
	DW	0ffffH
	DW	0ffffH
	DW	0ffffH
	DW	0ffffH
	DW	0ffffH
	DW	0ffffH
	DW	0ffffH
	DW	0ffffH
	DW	0ffffH
	DW	0ffffH
	DW	0ffffH
	DW	0ffffH
	DW	0ffffH
	DW	0ffffH
	DW	0ffffH
	DW	0ffffH
	DW	0ffffH
	DW	0ffffH
	DW	0ffffH
	DW	0ffffH
	DW	0ffffH
	DW	0ffffH
	DW	0ffffH
	DW	0ffffH
	DW	09ba9H
	DW	0ffffH
	DW	0ffffH
	DW	0ffffH
	DW	0ffffH
	DW	0ffffH
	DW	0ffffH
	DW	0ffffH
	DW	0ffffH
	DW	0ffffH
	DW	0ffffH
	DW	0ffffH
	DW	0ffffH
	DW	0fbdcH
	DW	0ffffH
	DW	0ffffH
	DW	0ffffH
	DW	0ffffH
	DW	0ffffH
	DW	0ffffH
	DW	0ffffH
	DW	0ffffH
	DW	0ffffH
	DW	0ffffH
	DW	0ffffH
	DW	0ffffH
	DW	0ffffH
	DW	0ffffH
	DW	0ffffH
	DW	0fe56H
	DW	0ffffH
	DW	0ffffH
	DW	0ffffH
	DW	0ffffH
	DW	0ffffH
	DW	09ea4H
	DW	0ffffH
	DW	0ffffH
	DW	0ffffH
	DW	0ffffH
	DW	0ffffH
	DW	0ffffH
	DW	09d49H
	DW	095dbH
	DW	0ffffH
	DW	0ffffH
	DW	0ffffH
	DW	0ffffH
	DW	0ffffH
	DW	0ffffH
	DW	0ffffH
	DW	0ffffH
	DW	0ffffH
	DW	0ffffH
	DW	089c5H
	DW	0ffffH
	DW	0ffffH
	DW	0ffffH
	DW	0ffffH
	DW	0ffffH
	DW	0ffffH
	DW	0ffffH
	DW	0ffffH
	DW	0ffffH
	DW	0ffffH
	DW	0ffffH
	DW	0ffffH
	DW	099f8H
	DW	0ffffH
	DW	0ffffH
	DW	0ffffH
	DW	0ffffH
	DW	0ffffH
	DW	0ffffH
	DW	09664H
	DW	0ffffH
	DW	0ffffH
	DW	0ffffH
	DW	0ffffH
	DW	09055H
	DW	0ffffH
	DW	0ffffH
	DW	096d4H
	DW	0ffffH
	DW	0ffffH
	DW	0ffffH
	DW	0ffffH
	DW	0ffffH
	DW	0ffffH
	DW	0ffffH
	DW	0977cH
	DW	0ffffH
	DW	0ffffH
	DW	0ffffH
	DW	0ffffH
	DW	0ffffH
	DW	0ffffH
	DW	0964dH
	DW	0ffffH
	DW	097e1H
	DW	0ffffH
	DW	0ffffH
	DW	0ffffH
	DW	0ffffH
	DW	0ffffH
	DW	0ffffH
	DW	09a48H
	DW	0ffffH
	DW	0ffffH
	DW	0ffffH
	DW	0ffffH
	DW	0ffffH
	DW	0ffffH
	DW	0ffffH
	DW	0ffffH
	DW	0ffffH
	DW	0ffffH
	DW	0ffffH
	DW	09a49H
	DW	0ffffH
	DW	0fe7dH
	DW	0ffffH
	DW	0ffffH
	DW	0ffffH
	DW	0ffffH
	DW	0ffffH
	DW	0ffffH
	DW	0ffffH
	DW	0ffffH
	DW	0ffffH
	DW	0ffffH
	DW	0ffffH
	DW	0ffffH
	DW	0ffffH
	DW	0ffffH
	DW	0ffffH
	DW	0ffffH
	DW	0ffffH
	DW	090aaH
	DW	0ffffH
	DW	0ffffH
	DW	0ffffH
	DW	0ffffH
	DW	09a50H
	DW	0ffffH
	DW	0ffffH
	DW	0ffffH
	DW	0ffffH
	DW	0ffffH
	DW	0ffffH
	DW	0ffffH
	DW	09347H
	DW	0ffffH
	DW	0ffffH
	DW	0ffffH
	DW	0ffffH
	DW	0ffffH
	DW	0ffffH
	DW	0ffffH
	DW	0ffffH
	DW	0ffffH
	DW	0ffffH
	DW	0ffffH
	DW	0ffffH
	DW	0ffffH
	DW	0ffffH
	DW	0ffffH
	DW	0ffffH
	DW	0ffffH
	DW	0ffffH
	DW	0ffffH
	DW	0ffffH
	DW	0ffffH
	DW	0ffffH
	DW	08ed8H
	DW	0ffffH
	DW	0ffffH
	DW	0ffffH
	DW	0ffffH
	DW	0ffffH
	DW	0ffffH
	DW	0ffffH
	DW	0ffffH
	DW	0ffffH
	DW	0ffffH
	DW	0ffffH
	DW	0ffffH
	DW	0ffffH
	DW	0ffffH
	DW	0ffffH
	DW	0ffffH
	DW	0ffffH
	DW	0ffffH
	DW	0ffffH
	DW	0ffffH
	DW	0ffffH
	DW	0ffffH
	DW	0ffffH
	DW	090c9H
	DW	0ffffH
	DW	0ffffH
	DW	0ffffH
	DW	0ffffH
	DW	0ffffH
	DW	09a55H
	DW	0ffffH
	DW	0ffffH
	DW	0ffffH
	DW	0ffffH
	DW	0ffffH
	DW	0ffffH
	DW	0ffffH
	DW	0ffffH
	DW	0ffffH
	DW	0ffffH
	DW	0ffffH
	DW	0ffffH
	DW	0ffffH
	DW	0ffffH
	DW	0ffffH
	DW	0ffffH
	DW	0ffffH
	DW	0ffffH
	DW	0ffffH
	DW	0ffffH
	DW	0ffffH
	DW	0ffffH
	DW	0ffffH
	DW	0ffffH
	DW	0ffffH
	DW	0ffffH
	DW	0ffffH
	DW	0ffffH
	DW	0ffffH
	DW	0ffffH
	DW	0ffffH
	DW	0ffffH
	DW	0ffffH
	DW	0ffffH
	DW	0ffffH
	DW	0ffffH
	DW	0ffffH
	DW	0ffffH
	DW	0ffffH
	DW	0ffffH
	DW	0ffffH
	DW	0ffffH
	DW	0ffffH
	DW	0ffffH
	DW	0ffffH
	DW	0ffffH
	DW	0ffffH
	DW	0ffffH
	DW	0ffffH
	DW	0ffffH
	DW	0ffffH
	DW	0ffffH
	DW	0ffffH
	DW	0ffffH
	DW	0ffffH
	DW	090bcH
	DW	0ffffH
	DW	0ffffH
	DW	0ffffH
	DW	0ffffH
	DW	0ffffH
	DW	09a58H
	DW	0ffffH
	DW	08bb8H
	DW	090d5H
	DW	0ffffH
	DW	0ffffH
	DW	0ffffH
	DW	0ffffH
	DW	0ffffH
	DW	0ffffH
	DW	0ffffH
	DW	0ffffH
	DW	0ffffH
	DW	0ffffH
	DW	0ffffH
	DW	0ffffH
	DW	0ffffH
	DW	09641H
	DW	0ffffH
	DW	0ffffH
	DW	0ffffH
	DW	0ffffH
	DW	0ffffH
	DW	0ffffH
	DW	09a5aH
	DW	0ffffH
	DW	0ffffH
	DW	0ffffH
	DW	0ffffH
	DW	0ffffH
	DW	0ffffH
	DW	0ffffH
	DW	0ffffH
	DW	0ffffH
	DW	0ffffH
	DW	0ffffH
	DW	0ffffH
	DW	0ffffH
	DW	0ffffH
	DW	0ffffH
	DW	0ffffH
	DW	09a5cH
	DW	0ffffH
	DW	0ffffH
	DW	0ffffH
	DW	0ffffH
	DW	0ffffH
	DW	0ffffH
	DW	0ffffH
	DW	0ffffH
	DW	0ffffH
	DW	0ffffH
	DW	0ffffH
	DW	0ffffH
	DW	0ffffH
	DW	0ffffH
	DW	0ffffH
	DW	0ffffH
	DW	0ffffH
	DW	0ffffH
	DW	0ffffH
	DW	0ffffH
	DW	0ffffH
	DW	0ffffH
	DW	0ffffH
	DW	0ffffH
	DW	0ffffH
	DW	0ffffH
	DW	0ffffH
	DW	0ffffH
	DW	0ffffH
	DW	0ffffH
	DW	0ffffH
	DW	0ffffH
	DW	0ffffH
	DW	0ffffH
	DW	0ffffH
	DW	0ffffH
	DW	0ffffH
	DW	0ffffH
	DW	0ffffH
	DW	0ffffH
	DW	0ffffH
	DW	0ffffH
	DW	0ffffH
	DW	0ffffH
	DW	0ffffH
	DW	0ffffH
	DW	0ffffH
	DW	0ffffH
	DW	0ffffH
	DW	0ffffH
	DW	0ffffH
	DW	0ffffH
	DW	0ffffH
	DW	0ffffH
	DW	0ffffH
	DW	0ffffH
	DW	0ffffH
	DW	0ffffH
	DW	0ffffH
	DW	0ffffH
	DW	0ffffH
	DW	0ffffH
	DW	0ffffH
	DW	0ffffH
	DW	0ffffH
	DW	0ffffH
	DW	0ffffH
	DW	0ffffH
	DW	0ffffH
	DW	0ffffH
	DW	0ffffH
	DW	0ffffH
	DW	0ffffH
	DW	0ffffH
	DW	0ffffH
	DW	0ffffH
	DW	0ffffH
	DW	0ffffH
	DW	0ffffH
	DW	0ffffH
	DW	0ffffH
	DW	0ffffH
	DW	0ffffH
	DW	0ffffH
	DW	0ffffH
	DW	0ffffH
	DW	0ffffH
	DW	0ffffH
	DW	0ffffH
	DW	0ffffH
	DW	0ffffH
	DW	0ffffH
	DW	0ffffH
	DW	0ffffH
	DW	0ffffH
	DW	0ffffH
	DW	097c2H
	DW	0ffffH
	DW	0ffffH
	DW	0ffffH
	DW	0ffffH
	DW	0ffffH
	DW	0ffffH
	DW	0ffffH
	DW	0ffffH
	DW	0ffffH
	DW	0ffffH
	DW	0ffffH
	DW	0ffffH
	DW	0ffffH
	DW	0875cH
	DW	0ffffH
	DW	0ffffH
	DW	0ffffH
	DW	0ffffH
	DW	0ffffH
	DW	0ffffH
	DW	0ffffH
	DW	0ffffH
	DW	0ffffH
	DW	0ffffH
	DW	0ffffH
	DW	0ffffH
	DW	0ffffH
	DW	0ffffH
	DW	0ffffH
	DW	08abbH
	DW	0ffffH
	DW	0ffffH
	DW	0ffffH
	DW	09baaH
	DW	0ffffH
	DW	0ffffH
	DW	0ffffH
	DW	0ffffH
	DW	0ffffH
	DW	0ffffH
	DW	0ffffH
	DW	0ffffH
	DW	0ffffH
	DW	0ffffH
	DW	0ffffH
	DW	0ffffH
	DW	0ffffH
	DW	0ffffH
	DW	0ffffH
	DW	0ffffH
	DW	0ffffH
	DW	0ffffH
	DW	0ffffH
	DW	0ffffH
	DW	0ffffH
	DW	0ffffH
	DW	0ffffH
	DW	0ffffH
	DW	090f5H
	DW	0ffffH
	DW	0ffffH
	DW	0ffffH
	DW	0ffffH
	DW	0ffffH
	DW	0ffffH
	DW	0ffffH
	DW	0ffffH
	DW	0ffffH
	DW	0ffffH
	DW	0ffffH
	DW	0ffffH
	DW	0ffffH
	DW	0ffffH
	DW	0ffffH
	DW	0ffffH
	DW	0ffffH
	DW	0ffffH
	DW	09a60H
	DW	0ffffH
	DW	0ffffH
	DW	0ffffH
	DW	0ffffH
	DW	0ffffH
	DW	0ffffH
	DW	0ffffH
	DW	0ffffH
	DW	0ffffH
	DW	0ffffH
	DW	0ffffH
	DW	0ffffH
	DW	0ffffH
	DW	0ffffH
	DW	0ffffH
	DW	0ffffH
	DW	0ffffH
	DW	0ffffH
	DW	0ffffH
	DW	0ffffH
	DW	0ffffH
	DW	0ffffH
	DW	0ffffH
	DW	0ffffH
	DW	0ffffH
	DW	0ffffH
	DW	09145H
	DW	08c58H
	DW	0ffffH
	DW	0ffffH
	DW	0ffffH
	DW	0ffffH
	DW	0ffffH
	DW	0ffffH
	DW	0ffffH
	DW	0ffffH
	DW	09a63H
	DW	0ffffH
	DW	0ffffH
	DW	0ffffH
	DW	0ffffH
	DW	0ffffH
	DW	0ffffH
	DW	08c49H
	DW	0ffffH
	DW	0ffffH
	DW	0ffffH
	DW	0ffffH
	DW	0ffffH
	DW	0ffffH
	DW	0ffffH
	DW	0ffffH
	DW	0ffffH
	DW	0ffffH
	DW	0ffffH
	DW	08bb6H
	DW	0ffffH
	DW	0ffffH
	DW	0ffffH
	DW	0ffffH
	DW	0ffffH
	DW	0ffffH
	DW	0ffffH
	DW	0ffffH
	DW	0ffffH
	DW	0ffffH
	DW	0fccfH
	DW	0ffffH
	DW	0ffffH
	DW	0ffffH
	DW	0ffffH
	DW	0ffffH
	DW	0ffffH
	DW	0ffffH
	DW	0ffffH
	DW	0ffffH
	DW	0ffffH
	DW	0ffffH
	DW	0ffffH
	DW	0ffffH
	DW	0ffffH
	DW	0ffffH
	DW	0ffffH
	DW	0ffffH
	DW	0ffffH
	DW	0ffffH
	DW	0ffffH
	DW	0ffffH
	DW	0ffffH
	DW	0ffffH
	DW	0ffffH
	DW	0ffffH
	DW	0ffffH
	DW	0ffffH
	DW	0ffffH
	DW	0ffffH
	DW	0ffffH
	DW	0ffffH
	DW	0ffffH
	DW	0ffffH
	DW	0ffffH
	DW	0ffffH
	DW	0ffffH
	DW	0ffffH
	DW	0ffffH
	DW	0ffffH
	DW	0ffffH
	DW	0ffffH
	DW	0ffffH
	DW	0ffffH
	DW	0ffffH
	DW	0ffffH
	DW	0ffffH
	DW	0ffffH
	DW	0ffffH
	DW	0ffffH
	DW	0ffffH
	DW	0ffffH
	DW	0ffffH
	DW	0ffffH
	DW	0ffffH
	DW	0ffffH
	DW	0966bH
	DW	09a6eH
	DW	0ffffH
	DW	0914fH
	DW	0ffffH
	DW	0ffffH
	DW	0ffffH
	DW	0ffffH
	DW	0ffffH
	DW	0ffffH
	DW	0ffffH
	DW	0ffffH
	DW	09746H
	DW	0ffffH
	DW	0ffffH
	DW	0a0e6H
	DW	0ffffH
	DW	0ffffH
	DW	0ffffH
	DW	0ffffH
	DW	0ffffH
	DW	0ffffH
	DW	0ffffH
	DW	0ffffH
	DW	0ffffH
	DW	0ffffH
	DW	0ffffH
	DW	0ffffH
	DW	0ffffH
	DW	0ffffH
	DW	0ffffH
	DW	092d7H
	DW	0ffffH
	DW	09675H
	DW	0ffffH
	DW	0ffffH
	DW	093d4H
	DW	0ffffH
	DW	0ffffH
	DW	091bbH
	DW	09679H
	DW	0ffffH
	DW	0ffffH
	DW	0ffffH
	DW	0ffffH
	DW	0ffffH
	DW	09a70H
	DW	0ffffH
	DW	0ffffH
	DW	0ffffH
	DW	0ffffH
	DW	0ffffH
	DW	0ffffH
	DW	0ffffH
	DW	0ffffH
	DW	0ffffH
	DW	0ffffH
	DW	0ffffH
	DW	0ffffH
	DW	0ffffH
	DW	0ffffH
	DW	0ffffH
	DW	0ffffH
	DW	0ffffH
	DW	0ffffH
	DW	0ffffH
	DW	0ffffH
	DW	0ffffH
	DW	0ffffH
	DW	0ffffH
	DW	0ffffH
	DW	0ffffH
	DW	0ffffH
	DW	0ffffH
	DW	0ffffH
	DW	0ffffH
	DW	0ffffH
	DW	0ffffH
	DW	09678H
	DW	091cdH
	DW	0ffffH
	DW	09c4aH
	DW	0a06fH
	DW	0ffffH
	DW	0ffffH
	DW	0a06aH
	DW	0ffffH
	DW	0ffffH
	DW	0ffffH
	DW	0ffffH
	DW	0ffffH
	DW	0ffffH
	DW	0915fH
	DW	0ffffH
	DW	0ffffH
	DW	0ffffH
	DW	0ffffH
	DW	0ffffH
	DW	0ffffH
	DW	0ffffH
	DW	0ffffH
	DW	0ffffH
	DW	0ffffH
	DW	0ffffH
	DW	0ffffH
	DW	0ffffH
	DW	0ffffH
	DW	0ffffH
	DW	0ffffH
	DW	0ffffH
	DW	0ffffH
	DW	0ffffH
	DW	0ffffH
	DW	0ffffH
	DW	0ffffH
	DW	0ffffH
	DW	0ffffH
	DW	0ffffH
	DW	0ffffH
	DW	0ffffH
	DW	0ffffH
	DW	0ffffH
	DW	0ffffH
	DW	0ffffH
	DW	0ffffH
	DW	0ffffH
	DW	0ffffH
	DW	0ffffH
	DW	08741H
	DW	0ffffH
	DW	0ffffH
	DW	0ffffH
	DW	0ffffH
	DW	0ffffH
	DW	0ffffH
	DW	0ffffH
	DW	0ffffH
	DW	09fa5H
	DW	0ffffH
	DW	0ffffH
	DW	089baH
	DW	0ffffH
	DW	0874fH
	DW	0ffffH
	DW	0ffffH
	DW	0ffffH
	DW	0ffffH
	DW	0ffffH
	DW	0ffffH
	DW	0874eH
	DW	0ffffH
	DW	0ffffH
	DW	0ffffH
	DW	0ffffH
	DW	0ffffH
	DW	0ffffH
	DW	0ffffH
	DW	0ffffH
	DW	0ffffH
	DW	0ffffH
	DW	0ffffH
	DW	0ffffH
	DW	0ffffH
	DW	0ffffH
	DW	0ffffH
	DW	08755H
	DW	0ffffH
	DW	0ffffH
	DW	0ffffH
	DW	09ecdH
	DW	0ffffH
	DW	0ffffH
	DW	0ffffH
	DW	0ffffH
	DW	0ffffH
	DW	0ffffH
	DW	0ffffH
	DW	0ffffH
	DW	0ffffH
	DW	0ffffH
	DW	0ffffH
	DW	0ffffH
	DW	0ffffH
	DW	0ffffH
	DW	0ffffH
	DW	0ffffH
	DW	0ffffH
	DW	09a79H
	DW	0ffffH
	DW	0ffffH
	DW	0ffffH
	DW	0ffffH
	DW	0ffffH
	DW	0ffffH
	DW	0ffffH
	DW	0ffffH
	DW	0ffffH
	DW	08cf2H
	DW	0ffffH
	DW	0ffffH
	DW	0ffffH
	DW	08d57H
	DW	0ffffH
	DW	09dceH
	DW	0ffffH
	DW	0ffffH
	DW	0ffffH
	DW	08cd2H
	DW	0ffffH
	DW	0ffffH
	DW	0ffffH
	DW	08759H
	DW	0ffffH
	DW	0ffffH
	DW	0ffffH
	DW	0ffffH
	DW	0ffffH
	DW	0ffffH
	DW	0ffffH
	DW	0ffffH
	DW	0ffffH
	DW	0ffffH
	DW	0ffffH
	DW	0ffffH
	DW	0ffffH
	DW	0ffffH
	DW	0ffffH
	DW	0ffffH
	DW	0ffffH
	DW	0ffffH
	DW	0ffffH
	DW	0ffffH
	DW	0ffffH
	DW	0ffffH
	DW	0ffffH
	DW	0ffffH
	DW	0ffffH
	DW	0ffffH
	DW	0ffffH
	DW	0ffffH
	DW	0ffffH
	DW	0ffffH
	DW	09d73H
	DW	0ffffH
	DW	0ffffH
	DW	0ffffH
	DW	0ffffH
	DW	0ffffH
	DW	0ffffH
	DW	0ffffH
	DW	0ffffH
	DW	0ffffH
	DW	096b9H
	DW	0ffffH
	DW	096bcH
	DW	0ffffH
	DW	0ffffH
	DW	0ffffH
	DW	0ffffH
	DW	0ffffH
	DW	0ffffH
	DW	09cd1H
	DW	0ffffH
	DW	0ffffH
	DW	0ffffH
	DW	0ffffH
	DW	0ffffH
	DW	0ffffH
	DW	0ffffH
	DW	0ffffH
	DW	0ffffH
	DW	0ffffH
	DW	0ffffH
	DW	0ffffH
	DW	0ffffH
	DW	0ffffH
	DW	0ffffH
	DW	0ffffH
	DW	0ffffH
	DW	0ffffH
	DW	0ffffH
	DW	0ffffH
	DW	0ffffH
	DW	089b7H
	DW	0ffffH
	DW	0ffffH
	DW	0ffffH
	DW	0ffffH
	DW	0ffffH
	DW	0ffffH
	DW	0ffffH
	DW	0ffffH
	DW	0ffffH
	DW	0ffffH
	DW	0ffffH
	DW	0ffffH
	DW	0ffffH
	DW	0ffffH
	DW	0ffffH
	DW	0ffffH
	DW	0ffffH
	DW	0ffffH
	DW	0ffffH
	DW	09eeeH
	DW	08749H
	DW	0ffffH
	DW	0ffffH
	DW	0ffffH
	DW	0ffffH
	DW	0ffffH
	DW	0ffffH
	DW	0ffffH
	DW	0ffffH
	DW	0ffffH
	DW	0ffffH
	DW	0fb43H
	DW	0875bH
	DW	0ffffH
	DW	09ec9H
	DW	0ffffH
	DW	0ffffH
	DW	0ffffH
	DW	0ffffH
	DW	0ffffH
	DW	0ffffH
	DW	0fbd3H
	DW	0ffffH
	DW	0ffffH
	DW	0ffffH
	DW	0ffffH
	DW	0ffffH
	DW	0ffffH
	DW	0ffffH
	DW	0ffffH
	DW	0ffffH
	DW	0ffffH
	DW	0ffffH
	DW	0ffffH
	DW	0ffffH
	DW	0ffffH
	DW	0ffffH
	DW	0ffffH
	DW	0ffffH
	DW	0ffffH
	DW	0ffffH
	DW	0ffffH
	DW	0ffffH
	DW	0ffffH
	DW	0ffffH
	DW	0ffffH
	DW	0ffffH
	DW	0ffffH
	DW	0ffffH
	DW	0ffffH
	DW	0ffffH
	DW	0ffffH
	DW	0ffffH
	DW	0ffffH
	DW	0ffffH
	DW	0ffffH
	DW	0ffffH
	DW	091aeH
	DW	0ffffH
	DW	0ffffH
	DW	0ffffH
	DW	0ffffH
	DW	0ffffH
	DW	0ffffH
	DW	0ffffH
	DW	0ffffH
	DW	0ffffH
	DW	0ffffH
	DW	0ffffH
	DW	0ffffH
	DW	0ffffH
	DW	0ffffH
	DW	0ffffH
	DW	0ffffH
	DW	0ffffH
	DW	0ffffH
	DW	0ffffH
	DW	0ffffH
	DW	0ffffH
	DW	0ffffH
	DW	0ffffH
	DW	0ffffH
	DW	0ffffH
	DW	0ffffH
	DW	0ffffH
	DW	0ffffH
	DW	0ffffH
	DW	0ffffH
	DW	0ffffH
	DW	0ffffH
	DW	0ffffH
	DW	0ffffH
	DW	0ffffH
	DW	0ffffH
	DW	0ffffH
	DW	0ffffH
	DW	0ffffH
	DW	0ffffH
	DW	0ffffH
	DW	0ffffH
	DW	0ffffH
	DW	0ffffH
	DW	0ffffH
	DW	0ffffH
	DW	0ffffH
	DW	0ffffH
	DW	0ffffH
	DW	0ffffH
	DW	0ffffH
	DW	0ffffH
	DW	0ffffH
	DW	0ffffH
	DW	0ffffH
	DW	0ffffH
	DW	0ffffH
	DW	0ffffH
	DW	0ffffH
	DW	0ffffH
	DW	0ffffH
	DW	0ffffH
	DW	0ffffH
	DW	0ffffH
	DW	0ffffH
	DW	08d58H
	DW	08746H
	DW	0ffffH
	DW	0ffffH
	DW	0ffffH
	DW	0ffffH
	DW	0ffffH
	DW	0ffffH
	DW	0ffffH
	DW	0ffffH
	DW	0ffffH
	DW	0ffffH
	DW	0ffffH
	DW	0ffffH
	DW	0ffffH
	DW	0ffffH
	DW	0ffffH
	DW	0ffffH
	DW	0ffffH
	DW	08d56H
	DW	0ffffH
	DW	0ffffH
	DW	0ffffH
	DW	0ffffH
	DW	0ffffH
	DW	0ffffH
	DW	0ffffH
	DW	09d78H
	DW	0ffffH
	DW	0ffffH
	DW	0ffffH
	DW	0ffffH
	DW	0ffffH
	DW	0ffffH
	DW	0ffffH
	DW	0ffffH
	DW	0ffffH
	DW	0ffffH
	DW	09d7bH
	DW	09eb3H
	DW	0ffffH
	DW	0ffffH
	DW	0ffffH
	DW	0ffffH
	DW	0ffffH
	DW	0ffffH
	DW	0ffffH
	DW	0ffffH
	DW	0ffffH
	DW	0ffffH
	DW	0ffffH
	DW	0ffffH
	DW	0ffffH
	DW	0ffffH
	DW	0ffffH
	DW	0ffffH
	DW	0ffffH
	DW	0ffffH
	DW	0ffffH
	DW	0ffffH
	DW	0ffffH
	DW	09eb2H
	DW	0ffffH
	DW	09dd6H
	DW	0ffffH
	DW	0ffffH
	DW	0ffffH
	DW	0ffffH
	DW	0994fH
	DW	0ffffH
	DW	0ffffH
	DW	089ceH
	DW	0ffffH
	DW	0ffffH
	DW	0ffffH
	DW	08bc0H
	DW	0ffffH
	DW	09fc4H
	DW	0ffffH
	DW	08bd4H
	DW	0ffffH
	DW	0ffffH
	DW	08c72H
	DW	0ffffH
	DW	0ffffH
	DW	0ffffH
	DW	0ffffH
	DW	0ffffH
	DW	0ffffH
	DW	0c6bfH
	DW	08bf9H
	DW	0ffffH
	DW	0ffffH
	DW	0ffffH
	DW	0ffffH
	DW	0ffffH
	DW	08946H
	DW	0ffffH
	DW	0c6c0H
	DW	0ffffH
	DW	0ffffH
	DW	0ffffH
	DW	0ffffH
	DW	0ffffH
	DW	0ffffH
	DW	0ffffH
	DW	0ffffH
	DW	0ffffH
	DW	0fae5H
	DW	0ffffH
	DW	0ffffH
	DW	0ffffH
	DW	0ffffH
	DW	0ffffH
	DW	0ffffH
	DW	0ffffH
	DW	0ffffH
	DW	0ffffH
	DW	0ffffH
	DW	0ffffH
	DW	0ffffH
	DW	0ffffH
	DW	0ffffH
	DW	0ffffH
	DW	0ffffH
	DW	0c87bH
	DW	08bc6H
	DW	0ffffH
	DW	0ffffH
	DW	0ffffH
	DW	0ffffH
	DW	0ffffH
	DW	0ffffH
	DW	0ffffH
	DW	0ffffH
	DW	0ffffH
	DW	0ffffH
	DW	0ffffH
	DW	0ffffH
	DW	0ffffH
	DW	0ffffH
	DW	09c57H
	DW	0ffffH
	DW	0ffffH
	DW	0ffffH
	DW	0ffffH
	DW	0ffffH
	DW	0ffffH
	DW	0ffffH
	DW	0ffffH
	DW	0ffffH
	DW	0ffffH
	DW	0ffffH
	DW	0ffffH
	DW	0ffffH
	DW	09afbH
	DW	0ffffH
	DW	0ffffH
	DW	0ffffH
	DW	0ffffH
	DW	0ffffH
	DW	0ffffH
	DW	0ffffH
	DW	089d0H
	DW	089cfH
	DW	0ffffH
	DW	0ffffH
	DW	0ffffH
	DW	0c6c1H
	DW	0ffffH
	DW	089d1H
	DW	0ffffH
	DW	089e2H
	DW	0ffffH
	DW	0ffffH
	DW	0ffffH
	DW	0ffffH
	DW	0ffffH
	DW	0ffffH
	DW	0ffffH
	DW	0ffffH
	DW	0ffffH
	DW	0ffffH
	DW	0ffffH
	DW	0ffffH
	DW	0ffffH
	DW	0ffffH
	DW	0927eH
	DW	0ffffH
	DW	09dbaH
	DW	0ffffH
	DW	0ffffH
	DW	0ffffH
	DW	0ffffH
	DW	0ffffH
	DW	0c6c2H
	DW	0ffffH
	DW	0ffffH
	DW	08c6fH
	DW	0ffffH
	DW	0ffffH
	DW	0ffffH
	DW	0ffffH
	DW	0ffffH
	DW	0ffffH
	DW	0ffffH
	DW	0ffffH
	DW	0ffffH
	DW	0ffffH
	DW	0ffffH
	DW	0ffffH
	DW	0ffffH
	DW	0ffffH
	DW	0ffffH
	DW	0ffffH
	DW	0ffffH
	DW	0ffffH
	DW	0ffffH
	DW	0fbf8H
	DW	0ffffH
	DW	0ffffH
	DW	0ffffH
	DW	08bc7H
	DW	0926bH
	DW	0ffffH
	DW	0ffffH
	DW	089d2H
	DW	0ffffH
	DW	0ffffH
	DW	0ffffH
	DW	0ffffH
	DW	0ffffH
	DW	0ffffH
	DW	0ffffH
	DW	0ffffH
	DW	0ffffH
	DW	0ffffH
	DW	0ffffH
	DW	0ffffH
	DW	0ffffH
	DW	0ffffH
	DW	09fcfH
	DW	0ffffH
	DW	0ffffH
	DW	0ffffH
	DW	0ffffH
	DW	0ffffH
	DW	0ffffH
	DW	0ffffH
	DW	0ffffH
	DW	0ffffH
	DW	0ffffH
	DW	0ffffH
	DW	0ffffH
	DW	0ffffH
	DW	0ffffH
	DW	0ffffH
	DW	0ffffH
	DW	0ffffH
	DW	0ffffH
	DW	0ffffH
	DW	0ffffH
	DW	0ffffH
	DW	0ffffH
	DW	0ffffH
	DW	0ffffH
	DW	0ffffH
	DW	0ffffH
	DW	0ffffH
	DW	09da9H
	DW	089d3H
	DW	0ffffH
	DW	0ffffH
	DW	099e2H
	DW	0ffffH
	DW	0ffffH
	DW	0ffffH
	DW	0ffffH
	DW	0ffffH
	DW	0ffffH
	DW	0ffffH
	DW	0ffffH
	DW	0ffffH
	DW	09267H
	DW	092a4H
	DW	0ffffH
	DW	0ffffH
	DW	0ffffH
	DW	0ffffH
	DW	0ffffH
	DW	0ffffH
	DW	0ffffH
	DW	0ffffH
	DW	0ffffH
	DW	0ffffH
	DW	0ffffH
	DW	0ffffH
	DW	0ffffH
	DW	0ffffH
	DW	0ffffH
	DW	0ffffH
	DW	0ffffH
	DW	0ffffH
	DW	0ffffH
	DW	08c73H
	DW	0ffffH
	DW	0ffffH
	DW	0894eH
	DW	0ffffH
	DW	0ffffH
	DW	0ffffH
	DW	0ffffH
	DW	0ffffH
	DW	0ffffH
	DW	0ffffH
	DW	0ffffH
	DW	0ffffH
	DW	0ffffH
	DW	0ffffH
	DW	0ffffH
	DW	0ffffH
	DW	0894fH
	DW	09278H
	DW	0ffffH
	DW	0ffffH
	DW	0ffffH
	DW	0ffffH
	DW	0ffffH
	DW	0ffffH
	DW	0ffffH
	DW	0ffffH
	DW	091b6H
	DW	0ffffH
	DW	0ffffH
	DW	0ffffH
	DW	0ffffH
	DW	089d4H
	DW	0ffffH
	DW	09fd2H
	DW	0ffffH
	DW	0ffffH
	DW	0ffffH
	DW	0ffffH
	DW	0ffffH
	DW	0ffffH
	DW	0ffffH
	DW	0ffffH
	DW	092a7H
	DW	0ffffH
	DW	0ffffH
	DW	095a2H
	DW	0ffffH
	DW	0ffffH
	DW	0ffffH
	DW	0ffffH
	DW	0ffffH
	DW	0926eH
	DW	0ffffH
	DW	0ffffH
	DW	0ffffH
	DW	0ffffH
	DW	0ffffH
	DW	0ffffH
	DW	0ffffH
	DW	0ffffH
	DW	0ffffH
	DW	0ffffH
	DW	0ffffH
	DW	0ffffH
	DW	0ffffH
	DW	0ffffH
	DW	0ffffH
	DW	0ffffH
	DW	0ffffH
	DW	0ffffH
	DW	0ffffH
	DW	0ffffH
	DW	0ffffH
	DW	0ffffH
	DW	0ffffH
	DW	0ffffH
	DW	0ffffH
	DW	0ffffH
	DW	0ffffH
	DW	0ffffH
	DW	0ffffH
	DW	0ffffH
	DW	0ffffH
	DW	0ffffH
	DW	0ffffH
	DW	0ffffH
	DW	0ffffH
	DW	0ffffH
	DW	0ffffH
	DW	0ffffH
	DW	096eaH
	DW	0ffffH
	DW	0ffffH
	DW	0ffffH
	DW	0ffffH
	DW	0ffffH
	DW	0ffffH
	DW	0ffffH
	DW	0ffffH
	DW	0ffffH
	DW	0ffffH
	DW	0ffffH
	DW	0ffffH
	DW	0ffffH
	DW	0ffffH
	DW	0ffffH
	DW	0ffffH
	DW	0ffffH
	DW	0ffffH
	DW	0ffffH
	DW	0ffffH
	DW	0ffffH
	DW	0ffffH
	DW	0ffffH
	DW	0926fH
	DW	0ffffH
	DW	0ffffH
	DW	0ffffH
	DW	0ffffH
	DW	0ffffH
	DW	0ffffH
	DW	0ffffH
	DW	0ffffH
	DW	0ffffH
	DW	0ffffH
	DW	0ffffH
	DW	0ffffH
	DW	0ffffH
	DW	0ffffH
	DW	0ffffH
	DW	0ffffH
	DW	0ffffH
	DW	0ffffH
	DW	0ffffH
	DW	0ffffH
	DW	0ffffH
	DW	0ffffH
	DW	0ffffH
	DW	092a3H
	DW	0ffffH
	DW	0ffffH
	DW	0ffffH
	DW	0ffffH
	DW	0ffffH
	DW	08950H
	DW	0ffffH
	DW	0ffffH
	DW	0fa57H
	DW	0ffffH
	DW	0ffffH
	DW	0ffffH
	DW	0ffffH
	DW	09866H
	DW	0ffffH
	DW	0ffffH
	DW	0ffffH
	DW	08cf8H
	DW	0ffffH
	DW	0ffffH
	DW	0ffffH
	DW	0ffffH
	DW	0ffffH
	DW	0ffffH
	DW	0ffffH
	DW	0ffffH
	DW	089d6H
	DW	0ffffH
	DW	0ffffH
	DW	0ffffH
	DW	0ffffH
	DW	0ffffH
	DW	0ffffH
	DW	0ffffH
	DW	0ffffH
	DW	0ffffH
	DW	0ffffH
	DW	098b2H
	DW	0ffffH
	DW	0ffffH
	DW	0ffffH
	DW	092abH
	DW	0ffffH
	DW	0ffffH
	DW	0ffffH
	DW	0ffffH
	DW	0ffffH
	DW	0ffffH
	DW	0ffffH
	DW	0ffffH
	DW	0ffffH
	DW	0ffffH
	DW	0ffffH
	DW	0ffffH
	DW	0ffffH
	DW	0ffffH
	DW	0ffffH
	DW	0ffffH
	DW	0ffffH
	DW	0ffffH
	DW	0ffffH
	DW	0ffffH
	DW	0ffffH
	DW	0ffffH
	DW	0ffffH
	DW	096deH
	DW	092acH
	DW	0ffffH
	DW	0ffffH
	DW	0ffffH
	DW	0ffffH
	DW	0ffffH
	DW	0ffffH
	DW	0ffffH
	DW	0ffffH
	DW	0ffffH
	DW	0ffffH
	DW	08c70H
	DW	0ffffH
	DW	09f6eH
	DW	0ffffH
	DW	0ffffH
	DW	0ffffH
	DW	0ffffH
	DW	0ffffH
	DW	0ffffH
	DW	08ef2H
	DW	0ffffH
	DW	0ffffH
	DW	0ffffH
	DW	09f6cH
	DW	089d8H
	DW	0ffffH
	DW	0ffffH
	DW	0ffffH
	DW	0ffffH
	DW	0fa59H
	DW	0ffffH
	DW	0ffffH
	DW	0ffffH
	DW	0ffffH
	DW	0ffffH
	DW	0ffffH
	DW	0ffffH
	DW	0ffffH
	DW	0ffffH
	DW	0ffffH
	DW	0ffffH
	DW	0ffffH
	DW	0ffffH
	DW	0ffffH
	DW	0ffffH
	DW	0ffffH
	DW	0ffffH
	DW	0ffffH
	DW	0ffffH
	DW	0ffffH
	DW	0ffffH
	DW	0ffffH
	DW	0ffffH
	DW	0ffffH
	DW	0ffffH
	DW	0ffffH
	DW	0ffffH
	DW	0ffffH
	DW	0ffffH
	DW	0ffffH
	DW	0ffffH
	DW	0ffffH
	DW	0ffffH
	DW	0ffffH
	DW	0ffffH
	DW	0ffffH
	DW	0ffffH
	DW	092a8H
	DW	0ffffH
	DW	0ffffH
	DW	0ffffH
	DW	0ffffH
	DW	0ffffH
	DW	09163H
	DW	0ffffH
	DW	0ffffH
	DW	0ffffH
	DW	0ffffH
	DW	0ffffH
	DW	0ffffH
	DW	08c40H
	DW	0ffffH
	DW	0ffffH
	DW	0ffffH
	DW	0ffffH
	DW	0ffffH
	DW	0ffffH
	DW	0ffffH
	DW	0ffffH
	DW	0ffffH
	DW	0ffffH
	DW	0ffffH
	DW	0ffffH
	DW	0ffffH
	DW	0ffffH
	DW	0ffffH
	DW	0ffffH
	DW	0ffffH
	DW	0ffffH
	DW	0ffffH
	DW	0ffffH
	DW	0ffffH
	DW	0ffffH
	DW	0ffffH
	DW	0ffffH
	DW	0ffffH
	DW	0ffffH
	DW	09f73H
	DW	0ffffH
	DW	092adH
	DW	0ffffH
	DW	0ffffH
	DW	0ffffH
	DW	0ffffH
	DW	0ffffH
	DW	0ffffH
	DW	0ffffH
	DW	0ffffH
	DW	0ffffH
	DW	0ffffH
	DW	0ffffH
	DW	0ffffH
	DW	0ffffH
	DW	09be9H
	DW	0ffffH
	DW	0ffffH
	DW	0ffffH
	DW	0ffffH
	DW	0ffffH
	DW	092a9H
	DW	0ffffH
	DW	0ffffH
	DW	0ffffH
	DW	0ffffH
	DW	0ffffH
	DW	0ffffH
	DW	0ffffH
	DW	0ffffH
	DW	0ffffH
	DW	0ffffH
	DW	0ffffH
	DW	0ffffH
	DW	0ffffH
	DW	0ffffH
	DW	0ffffH
	DW	0ffffH
	DW	0ffffH
	DW	0ffffH
	DW	0ffffH
	DW	0ffffH
	DW	092aaH
	DW	0ffffH
	DW	0ffffH
	DW	0ffffH
	DW	0ffffH
	DW	0ffffH
	DW	0ffffH
	DW	089d9H
	DW	0ffffH
	DW	0ffffH
	DW	0ffffH
	DW	0ffffH
	DW	0ffffH
	DW	0ffffH
	DW	0ffffH
	DW	0fd56H
	DW	0ffffH
	DW	0ffffH
	DW	0ffffH
	DW	0ffffH
	DW	0ffffH
	DW	0ffffH
	DW	0ffffH
	DW	0ffffH
	DW	0ffffH
	DW	0ffffH
	DW	0ffffH
	DW	0ffffH
	DW	0ffffH
	DW	0ffffH
	DW	0ffffH
	DW	0ffffH
	DW	0ffffH
	DW	0ffffH
	DW	0ffffH
	DW	0ffffH
	DW	0ffffH
	DW	09fa8H
	DW	0ffffH
	DW	0ffffH
	DW	0ffffH
	DW	0ffffH
	DW	0ffffH
	DW	0ffffH
	DW	0ffffH
	DW	0ffffH
	DW	0ffffH
	DW	0ffffH
	DW	0ffffH
	DW	0ffffH
	DW	0ffffH
	DW	0ffffH
	DW	0ffffH
	DW	0ffffH
	DW	0ffffH
	DW	0ffffH
	DW	0ffffH
	DW	0ffffH
	DW	0ffffH
	DW	08c71H
	DW	0ffffH
	DW	0ffffH
	DW	0ffffH
	DW	0ffffH
	DW	0ffffH
	DW	0ffffH
	DW	0ffffH
	DW	0ffffH
	DW	0ffffH
	DW	0ffffH
	DW	0ffffH
	DW	0ffffH
	DW	0ffffH
	DW	0ffffH
	DW	0ffffH
	DW	0ffffH
	DW	092a1H
	DW	0ffffH
	DW	0ffffH
	DW	090e3H
	DW	0ffffH
	DW	0ffffH
	DW	0ffffH
	DW	0ffffH
	DW	0ffffH
	DW	0ffffH
	DW	0ffffH
	DW	0ffffH
	DW	0a0a6H
	DW	0ffffH
	DW	0ffffH
	DW	0ffffH
	DW	0ffffH
	DW	0ffffH
	DW	094abH
	DW	0ffffH
	DW	0fc72H
	DW	0ffffH
	DW	0ffffH
	DW	0ffffH
	DW	0ffffH
	DW	0ffffH
	DW	0ffffH
	DW	0ffffH
	DW	0ffffH
	DW	0ffffH
	DW	0ffffH
	DW	0ffffH
	DW	0ffffH
	DW	0ffffH
	DW	0ffffH
	DW	0ffffH
	DW	0ffffH
	DW	0ffffH
	DW	0ffffH
	DW	097c4H
	DW	0ffffH
	DW	0ffffH
	DW	0ffffH
	DW	0ffffH
	DW	0ffffH
	DW	0ffffH
	DW	0ffffH
	DW	092aeH
	DW	0fa67H
	DW	0ffffH
	DW	0ffffH
	DW	0ffffH
	DW	0ffffH
	DW	0ffffH
	DW	0ffffH
	DW	0ffffH
	DW	0ffffH
	DW	0ffffH
	DW	0ffffH
	DW	0ffffH
	DW	092a2H
	DW	0fa69H
	DW	0ffffH
	DW	0ffffH
	DW	0ffffH
	DW	0ffffH
	DW	0ffffH
	DW	0ffffH
	DW	0ffffH
	DW	0ffffH
	DW	0ffffH
	DW	0ffffH
	DW	0ffffH
	DW	0ffffH
	DW	0ffffH
	DW	0ffffH
	DW	0ffffH
	DW	0ffffH
	DW	0ffffH
	DW	0ffffH
	DW	0ffffH
	DW	0ffffH
	DW	0ffffH
	DW	0ffffH
	DW	0ffffH
	DW	0ffffH
	DW	0ffffH
	DW	0ffffH
	DW	0ffffH
	DW	0ffffH
	DW	09268H
	DW	0ffffH
	DW	0ffffH
	DW	0ffffH
	DW	0ffffH
	DW	0ffffH
	DW	0ffffH
	DW	0ffffH
	DW	0ffffH
	DW	0ffffH
	DW	0ffffH
	DW	0ffffH
	DW	0ffffH
	DW	0ffffH
	DW	0ffffH
	DW	0ffffH
	DW	0ffffH
	DW	0ffffH
	DW	0ffffH
	DW	0ffffH
	DW	0ffffH
	DW	0ffffH
	DW	0ffffH
	DW	0ffffH
	DW	0ffffH
	DW	0ffffH
	DW	0ffffH
	DW	0ffffH
	DW	0ffffH
	DW	0ffffH
	DW	0ffffH
	DW	0ffffH
	DW	0ffffH
	DW	0ffffH
	DW	0ffffH
	DW	0ffffH
	DW	0ffffH
	DW	0ffffH
	DW	0ffffH
	DW	0ffffH
	DW	0ffffH
	DW	0ffffH
	DW	0ffffH
	DW	08951H
	DW	0ffffH
	DW	0ffffH
	DW	0ffffH
	DW	0ffffH
	DW	0ffffH
	DW	0ffffH
	DW	0ffffH
	DW	0ffffH
	DW	0ffffH
	DW	0fa6fH
	DW	0ffffH
	DW	0ffffH
	DW	0ffffH
	DW	0ffffH
	DW	0ffffH
	DW	0ffffH
	DW	0ffffH
	DW	0ffffH
	DW	0ffffH
	DW	0fa71H
	DW	0ffffH
	DW	0ffffH
	DW	0ffffH
	DW	0ffffH
	DW	0ffffH
	DW	0ffffH
	DW	0ffffH
	DW	0ffffH
	DW	0ffffH
	DW	08952H
	DW	0ffffH
	DW	0ffffH
	DW	0ffffH
	DW	0ffffH
	DW	0945aH
	DW	0ffffH
	DW	0ffffH
	DW	0ffffH
	DW	0ffffH
	DW	0ffffH
	DW	0ffffH
	DW	0ffffH
	DW	0ffffH
	DW	0c6c3H
	DW	0ffffH
	DW	0ffffH
	DW	0ffffH
	DW	089ddH
	DW	0ffffH
	DW	0c8a2H
	DW	0ffffH
	DW	0ffffH
	DW	0ffffH
	DW	0ffffH
	DW	0ffffH
	DW	0ffffH
	DW	0ffffH
	DW	0ffffH
	DW	0ffffH
	DW	0ffffH
	DW	0ffffH
	DW	0ffffH
	DW	0ffffH
	DW	0c6c4H
	DW	0ffffH
	DW	0ffffH
	DW	0ffffH
	DW	09e52H
	DW	0ffffH
	DW	08953H
	DW	0ffffH
	DW	0ffffH
	DW	0ffffH
	DW	0ffffH
	DW	0ffffH
	DW	0ffffH
	DW	0ffffH
	DW	0ffffH
	DW	0ffffH
	DW	0ffffH
	DW	09e55H
	DW	092baH
	DW	0ffffH
	DW	0ffffH
	DW	0c6c5H
	DW	0ffffH
	DW	0ffffH
	DW	08c5bH
	DW	0ffffH
	DW	0ffffH
	DW	0ffffH
	DW	0fa7dH
	DW	0faa8H
	DW	09a68H
	DW	0fa47H
	DW	0ffffH
	DW	0ffffH
	DW	0fa7eH
	DW	0ffffH
	DW	0ffffH
	DW	0ffffH
	DW	0ffffH
	DW	0ffffH
	DW	0ffffH
	DW	0ffffH
	DW	0ffffH
	DW	0ffffH
	DW	0ffffH
	DW	092bbH
	DW	0ffffH
	DW	0ffffH
	DW	0ffffH
	DW	0fdb6H
	DW	0ffffH
	DW	0faa2H
	DW	0ffffH
	DW	0ffffH
	DW	0ffffH
	DW	0ffffH
	DW	0ffffH
	DW	0faa3H
	DW	0ffffH
	DW	0faa4H
	DW	09bb4H
	DW	0faa6H
	DW	0ffffH
	DW	0ffffH
	DW	0ffffH
	DW	0ffffH
	DW	0ffffH
	DW	0ffffH
	DW	0ffffH
	DW	089dfH
	DW	0ffffH
	DW	0ffffH
	DW	0ffffH
	DW	0fddbH
	DW	0ffffH
	DW	0ffffH
	DW	0faa9H
	DW	0ffffH
	DW	08954H
	DW	0ffffH
	DW	0ffffH
	DW	0ffffH
	DW	0ffffH
	DW	0ffffH
	DW	0ffffH
	DW	0ffffH
	DW	0ffffH
	DW	0faabH
	DW	0ffffH
	DW	0ffffH
	DW	0ffffH
	DW	0ffffH
	DW	0ffffH
	DW	0ffffH
	DW	0fc7aH
	DW	0ffffH
	DW	0ffffH
	DW	0ffffH
	DW	0ffffH
	DW	0ffffH
	DW	0ffffH
	DW	0ffffH
	DW	089e0H
	DW	0ffffH
	DW	09f4fH
	DW	0c87dH
	DW	0ffffH
	DW	0ffffH
	DW	089e1H
	DW	0ffffH
	DW	0ffffH
	DW	0ffffH
	DW	0ffffH
	DW	0ffffH
	DW	0fab0H
	DW	0ffffH
	DW	0ffffH
	DW	0ffffH
	DW	0ffffH
	DW	0ffffH
	DW	0ffffH
	DW	0ffffH
	DW	0ffffH
	DW	0ffffH
	DW	0ffffH
	DW	0ffffH
	DW	0ffffH
	DW	0ffffH
	DW	0ffffH
	DW	0ffffH
	DW	0ffffH
	DW	0ffffH
	DW	0ffffH
	DW	0ffffH
	DW	09fcdH
	DW	0a0e7H
	DW	0ffffH
	DW	0ffffH
	DW	0ffffH
	DW	0ffffH
	DW	0ffffH
	DW	0fab1H
	DW	089a6H
	DW	0ffffH
	DW	0ffffH
	DW	0ffffH
	DW	0ffffH
	DW	0ffffH
	DW	0ffffH
	DW	0ffffH
	DW	0ffffH
	DW	0ffffH
	DW	0ffffH
	DW	0ffffH
	DW	0ffffH
	DW	09efaH
	DW	0ffffH
	DW	0ffffH
	DW	0ffffH
	DW	0ffffH
	DW	0ffffH
	DW	0ffffH
	DW	0ffffH
	DW	0fab2H
	DW	0ffffH
	DW	0ffffH
	DW	0ffffH
	DW	0ffffH
	DW	0ffffH
	DW	0ffffH
	DW	0ffffH
	DW	0ffffH
	DW	0ffffH
	DW	0ffffH
	DW	0ffffH
	DW	0ffffH
	DW	0ffffH
	DW	0ffffH
	DW	0ffffH
	DW	0ffffH
	DW	0ffffH
	DW	0ffffH
	DW	0ffffH
	DW	0ffffH
	DW	0ffffH
	DW	0ffffH
	DW	0ffffH
	DW	0ffffH
	DW	0ffffH
	DW	0ffffH
	DW	0fab4H
	DW	0ffffH
	DW	092c4H
	DW	0ffffH
	DW	0ffffH
	DW	0ffffH
	DW	0ffffH
	DW	0ffffH
	DW	0ffffH
	DW	09f6fH
	DW	0ffffH
	DW	0ffffH
	DW	0ffffH
	DW	0ffffH
	DW	0ffffH
	DW	0ffffH
	DW	0ffffH
	DW	08bb0H
	DW	0ffffH
	DW	0ffffH
	DW	0ffffH
	DW	0ffffH
	DW	0ffffH
	DW	0ffffH
	DW	0ffffH
	DW	0ffffH
	DW	0ffffH
	DW	0ffffH
	DW	09facH
	DW	0ffffH
	DW	0ffffH
	DW	0ffffH
	DW	0ffffH
	DW	0ffffH
	DW	089e3H
	DW	0ffffH
	DW	0ffffH
	DW	0ffffH
	DW	0ffffH
	DW	0ffffH
	DW	0ffffH
	DW	0ffffH
	DW	0ffffH
	DW	0ffffH
	DW	0ffffH
	DW	0ffffH
	DW	0ffffH
	DW	0ffffH
	DW	0ffffH
	DW	0ffffH
	DW	0ffffH
	DW	0ffffH
	DW	0ffffH
	DW	0ffffH
	DW	0ffffH
	DW	0ffffH
	DW	09bd3H
	DW	089e4H
	DW	0ffffH
	DW	0ffffH
	DW	0ffffH
	DW	0fab5H
	DW	0ffffH
	DW	0ffffH
	DW	0ffffH
	DW	0ffffH
	DW	0ffffH
	DW	09fd5H
	DW	0ffffH
	DW	0ffffH
	DW	0ffffH
	DW	0ffffH
	DW	0ffffH
	DW	0ffffH
	DW	08955H
	DW	0ffffH
	DW	0ffffH
	DW	092c5H
	DW	0ffffH
	DW	0ffffH
	DW	0ffffH
	DW	08956H
	DW	0ffffH
	DW	0ffffH
	DW	0ffffH
	DW	0ffffH
	DW	0ffffH
	DW	0ffffH
	DW	0ffffH
	DW	0ffffH
	DW	0ffffH
	DW	0ffffH
	DW	0ffffH
	DW	0ffffH
	DW	0fab3H
	DW	0ffffH
	DW	0ffffH
	DW	0ffffH
	DW	0fab6H
	DW	0ffffH
	DW	0ffffH
	DW	0ffffH
	DW	0ffffH
	DW	0ffffH
	DW	0ffffH
	DW	0ffffH
	DW	0ffffH
	DW	0ffffH
	DW	0ffffH
	DW	0ffffH
	DW	0fab7H
	DW	0ffffH
	DW	0ffffH
	DW	0ffffH
	DW	0ffffH
	DW	0ffffH
	DW	0ffffH
	DW	09edcH
	DW	0ffffH
	DW	0ffffH
	DW	0ffffH
	DW	0fbc4H
	DW	09f71H
	DW	0ffffH
	DW	0ffffH
	DW	0ffffH
	DW	0ffffH
	DW	0ffffH
	DW	0ffffH
	DW	0ffffH
	DW	0ffffH
	DW	0ffffH
	DW	0ffffH
	DW	0ffffH
	DW	0ffffH
	DW	0ffffH
	DW	0ffffH
	DW	0fabaH
	DW	092c7H
	DW	0ffffH
	DW	0ffffH
	DW	0ffffH
	DW	0ffffH
	DW	0ffffH
	DW	0ffffH
	DW	0ffffH
	DW	0ffffH
	DW	0ffffH
	DW	0ffffH
	DW	0ffffH
	DW	0ffffH
	DW	0ffffH
	DW	0ffffH
	DW	0ffffH
	DW	0ffffH
	DW	0ffffH
	DW	0ffffH
	DW	0ffffH
	DW	0ffffH
	DW	0ffffH
	DW	0ffffH
	DW	0ffffH
	DW	0c6c6H
	DW	09a4cH
	DW	0ffffH
	DW	0ffffH
	DW	0ffffH
	DW	0ffffH
	DW	0ffffH
	DW	0ffffH
	DW	0ffffH
	DW	0ffffH
	DW	0ffffH
	DW	0ffffH
	DW	0ffffH
	DW	0ffffH
	DW	0ffffH
	DW	0ffffH
	DW	0ffffH
	DW	0ffffH
	DW	0ffffH
	DW	0ffffH
	DW	0ffffH
	DW	0ffffH
	DW	0ffffH
	DW	0ffffH
	DW	0ffffH
	DW	0ffffH
	DW	0ffffH
	DW	0ffffH
	DW	0ffffH
	DW	0ffffH
	DW	0ffffH
	DW	0ffffH
	DW	0ffffH
	DW	0ffffH
	DW	0ffffH
	DW	0ffffH
	DW	08c68H
	DW	0ffffH
	DW	0ffffH
	DW	089e5H
	DW	0ffffH
	DW	0ffffH
	DW	0ffffH
	DW	0ffffH
	DW	09f7dH
	DW	0ffffH
	DW	0ffffH
	DW	0ffffH
	DW	0ffffH
	DW	0ffffH
	DW	0a0a9H
	DW	0fac4H
	DW	0ffffH
	DW	0ffffH
	DW	0ffffH
	DW	0ffffH
	DW	0c6c7H
	DW	0ffffH
	DW	0ffffH
	DW	08957H
	DW	0ffffH
	DW	0ffffH
	DW	0ffffH
	DW	0ffffH
	DW	0ffffH
	DW	0ffffH
	DW	0faaaH
	DW	0ffffH
	DW	0ffffH
	DW	0ffffH
	DW	0ffffH
	DW	0ffffH
	DW	0ffffH
	DW	0ffffH
	DW	0ffffH
	DW	0ffffH
	DW	0ffffH
	DW	0ffffH
	DW	08958H
	DW	0ffffH
	DW	0ffffH
	DW	0ffffH
	DW	0ffffH
	DW	0ffffH
	DW	0ffffH
	DW	0ffffH
	DW	0ffffH
	DW	0ffffH
	DW	0ffffH
	DW	0ffffH
	DW	0ffffH
	DW	0ffffH
	DW	0ffffH
	DW	08be3H
	DW	0ffffH
	DW	08b61H
	DW	0ffffH
	DW	0ffffH
	DW	0ffffH
	DW	0ffffH
	DW	09af1H
	DW	0ffffH
	DW	0ffffH
	DW	09eb7H
	DW	0ffffH
	DW	0c6c8H
	DW	0ffffH
	DW	0ffffH
	DW	0ffffH
	DW	0fad1H
	DW	0ffffH
	DW	0ffffH
	DW	0ffffH
	DW	0ffffH
	DW	0ffffH
	DW	0ffffH
	DW	0fad2H
	DW	0ffffH
	DW	0ffffH
	DW	0ffffH
	DW	0ffffH
	DW	0ffffH
	DW	0ffffH
	DW	0ffffH
	DW	0ffffH
	DW	09ebaH
	DW	0fad4H
	DW	0ffffH
	DW	0ffffH
	DW	0ffffH
	DW	0ffffH
	DW	0ffffH
	DW	0ffffH
	DW	0ffffH
	DW	0ffffH
	DW	0ffffH
	DW	0ffffH
	DW	0ffffH
	DW	0ffffH
	DW	0ffffH
	DW	0ffffH
	DW	0ffffH
	DW	0ffffH
	DW	0ffffH
	DW	0ffffH
	DW	0ffffH
	DW	0ffffH
	DW	0fad9H
	DW	0ffffH
	DW	0ffffH
	DW	0ffffH
	DW	0ffffH
	DW	0ffffH
	DW	0ffffH
	DW	0ffffH
	DW	0ffffH
	DW	0ffffH
	DW	0ffffH
	DW	0ffffH
	DW	0ffffH
	DW	0fadbH
	DW	0ffffH
	DW	09ce0H
	DW	0ffffH
	DW	0ffffH
	DW	0ffffH
	DW	0fbf7H
	DW	0ffffH
	DW	0fbfaH
	DW	089e7H
	DW	0a07aH
	DW	0fadcH
	DW	0ffffH
	DW	0ffffH
	DW	0faddH
	DW	0ffffH
	DW	089e9H
	DW	0ffffH
	DW	0ffffH
	DW	0ffffH
	DW	0ffffH
	DW	0ffffH
	DW	0c6c9H
	DW	0ffffH
	DW	0ffffH
	DW	0ffffH
	DW	0ffffH
	DW	0ffffH
	DW	0ffffH
	DW	0ffffH
	DW	0ffffH
	DW	0ffffH
	DW	0ffffH
	DW	0fae2H
	DW	089ebH
	DW	0ffffH
	DW	0ffffH
	DW	0fae3H
	DW	0ffffH
	DW	0ffffH
	DW	0ffffH
	DW	0ffffH
	DW	0ffffH
	DW	0ffffH
	DW	090c8H
	DW	0ffffH
	DW	0ffffH
	DW	0ffffH
	DW	092daH
	DW	08959H
	DW	09cf5H
	DW	0ffffH
	DW	0ffffH
	DW	0ffffH
	DW	0ffffH
	DW	0ffffH
	DW	0895aH
	DW	0fae7H
	DW	09fa2H
	DW	0ffffH
	DW	0ffffH
	DW	0ffffH
	DW	0ffffH
	DW	0ffffH
	DW	0faeaH
	DW	0ffffH
	DW	0ffffH
	DW	0ffffH
	DW	0ffffH
	DW	0ffffH
	DW	0ffffH
	DW	0ffffH
	DW	0ffffH
	DW	0ffffH
	DW	0ffffH
	DW	0ffffH
	DW	0ffffH
	DW	0ffffH
	DW	0ffffH
	DW	0ffffH
	DW	0ffffH
	DW	0ffffH
	DW	0ffffH
	DW	0ffffH
	DW	0ffffH
	DW	0ffffH
	DW	0faedH
	DW	08fadH
	DW	0ffffH
	DW	0ffffH
	DW	0ffffH
	DW	0ffffH
	DW	0ffffH
	DW	0ffffH
	DW	0fb59H
	DW	0faefH
	DW	096efH
	DW	0ffffH
	DW	09decH
	DW	0ffffH
	DW	0ffffH
	DW	0ffffH
	DW	09dcaH
	DW	0ffffH
	DW	0ffffH
	DW	0ffffH
	DW	0ffffH
	DW	0ffffH
	DW	0ffffH
	DW	0fd6dH
	DW	0ffffH
	DW	089ecH
	DW	0ffffH
	DW	0ffffH
	DW	0ffffH
	DW	0ffffH
	DW	0ffffH
	DW	0ffffH
	DW	0ffffH
	DW	0ffffH
	DW	0ffffH
	DW	0ffffH
	DW	0ffffH
	DW	0fb44H
	DW	0ffffH
	DW	0ffffH
	DW	09de2H
	DW	0ffffH
	DW	08c75H
	DW	0ffffH
	DW	0ffffH
	DW	0ffffH
	DW	0ffffH
	DW	0ffffH
	DW	0ffffH
	DW	0ffffH
	DW	0ffffH
	DW	0ffffH
	DW	0ffffH
	DW	0ffffH
	DW	0ffffH
	DW	0ffffH
	DW	0ffffH
	DW	0ffffH
	DW	0ffffH
	DW	0ffffH
	DW	0ffffH
	DW	0ffffH
	DW	0ffffH
	DW	0ffffH
	DW	0ffffH
	DW	09ec0H
	DW	0ffffH
	DW	09e56H
	DW	0ffffH
	DW	0ffffH
	DW	0ffffH
	DW	0ffffH
	DW	0ffffH
	DW	0ffffH
	DW	0ffffH
	DW	0ffffH
	DW	0ffffH
	DW	0ffffH
	DW	0ffffH
	DW	0ffffH
	DW	0ffffH
	DW	0ffffH
	DW	0ffffH
	DW	0ffffH
	DW	0ffffH
	DW	0ffffH
	DW	0ffffH
	DW	0ffffH
	DW	0ffffH
	DW	0ffffH
	DW	0ffffH
	DW	0ffffH
	DW	0ffffH
	DW	0ffffH
	DW	0ffffH
	DW	09f79H
	DW	09ac7H
	DW	0ffffH
	DW	0ffffH
	DW	0faf4H
	DW	0ffffH
	DW	0ffffH
	DW	0ffffH
	DW	0ffffH
	DW	0ffffH
	DW	0ffffH
	DW	0ffffH
	DW	0ffffH
	DW	0ffffH
	DW	0ffffH
	DW	0ffffH
	DW	0ffffH
	DW	0ffffH
	DW	0ffffH
	DW	0ffffH
	DW	0ffffH
	DW	0ffffH
	DW	0ffffH
	DW	0ffffH
	DW	0ffffH
	DW	0ffffH
	DW	0ffffH
	DW	0ffffH
	DW	098a1H
	DW	0ffffH
	DW	0ffffH
	DW	0ffffH
	DW	0ffffH
	DW	0ffffH
	DW	0ffffH
	DW	0ffffH
	DW	0ffffH
	DW	0ffffH
	DW	0faf8H
	DW	0ffffH
	DW	0ffffH
	DW	0ffffH
	DW	089f0H
	DW	09e47H
	DW	0ffffH
	DW	0ffffH
	DW	09df7H
	DW	0ffffH
	DW	0ffffH
	DW	0ffffH
	DW	0ffffH
	DW	09fd3H
	DW	0ffffH
	DW	09acaH
	DW	0ffffH
	DW	0ffffH
	DW	0ffffH
	DW	0ffffH
	DW	089f1H
	DW	0faf9H
	DW	0ffffH
	DW	0ffffH
	DW	0ffffH
	DW	0ffffH
	DW	0ffffH
	DW	0ffffH
	DW	0ffffH
	DW	0ffffH
	DW	0ffffH
	DW	0ffffH
	DW	0ffffH
	DW	0ffffH
	DW	0ffffH
	DW	08e5aH
	DW	0ffffH
	DW	089f2H
	DW	0ffffH
	DW	0ffffH
	DW	0ffffH
	DW	0ffffH
	DW	089f3H
	DW	0ffffH
	DW	0ffffH
	DW	0ffffH
	DW	0ffffH
	DW	0ffffH
	DW	0ffffH
	DW	0ffffH
	DW	0ffffH
	DW	0ffffH
	DW	0ffffH
	DW	0ffffH
	DW	0ffffH
	DW	0ffffH
	DW	0ffffH
	DW	0ffffH
	DW	0ffffH
	DW	0ffffH
	DW	0925dH
	DW	08b51H
	DW	092e0H
	DW	0ffffH
	DW	0ffffH
	DW	089f4H
	DW	0ffffH
	DW	0ffffH
	DW	0ffffH
	DW	0ffffH
	DW	0ffffH
	DW	0ffffH
	DW	0ffffH
	DW	0ffffH
	DW	0ffffH
	DW	09fd4H
	DW	0ffffH
	DW	0ffffH
	DW	0ffffH
	DW	0ffffH
	DW	0ffffH
	DW	0ffffH
	DW	0ffffH
	DW	0ffffH
	DW	08a79H
	DW	0ffffH
	DW	0ffffH
	DW	0ffffH
	DW	0ffffH
	DW	0ffffH
	DW	0ffffH
	DW	0ffffH
	DW	0ffffH
	DW	0ffffH
	DW	0ffffH
	DW	0ffffH
	DW	089f5H
	DW	097a7H
	DW	0ffffH
	DW	0ffffH
	DW	0ffffH
	DW	0ffffH
	DW	0ffffH
	DW	0ffffH
	DW	0ffffH
	DW	0ffffH
	DW	0ffffH
	DW	0ffffH
	DW	093baH
	DW	0ffffH
	DW	0ffffH
	DW	0ffffH
	DW	0ffffH
	DW	0ffffH
	DW	09e58H
	DW	0ffffH
	DW	0ffffH
	DW	0ffffH
	DW	0ffffH
	DW	089f6H
	DW	0ffffH
	DW	0ffffH
	DW	0ffffH
	DW	0ffffH
	DW	0ffffH
	DW	09e57H
	DW	0ffffH
	DW	0ffffH
	DW	0ffffH
	DW	0ffffH
	DW	089f7H
	DW	0ffffH
	DW	08a41H
	DW	0ffffH
	DW	0ffffH
	DW	089f8H
	DW	0ffffH
	DW	0ffffH
	DW	0faf1H
	DW	0ffffH
	DW	0ffffH
	DW	0ffffH
	DW	0ffffH
	DW	0ffffH
	DW	0ffffH
	DW	0ffffH
	DW	0ffffH
	DW	0ffffH
	DW	0ffffH
	DW	0ffffH
	DW	0ffffH
	DW	0ffffH
	DW	0ffffH
	DW	0ffffH
	DW	0ffffH
	DW	0ffffH
	DW	0ffffH
	DW	0ffffH
	DW	089faH
	DW	0ffffH
	DW	0ffffH
	DW	0ffffH
	DW	0ffffH
	DW	0ffffH
	DW	0ffffH
	DW	0ffffH
	DW	0fb42H
	DW	0ffffH
	DW	0fabfH
	DW	0ffffH
	DW	0ffffH
	DW	0ffffH
	DW	0ffffH
	DW	0ffffH
	DW	0ffffH
	DW	0ffffH
	DW	0ffffH
	DW	0ffffH
	DW	0fba3H
	DW	0ffffH
	DW	0ffffH
	DW	0ffffH
	DW	0ffffH
	DW	0ffffH
	DW	0ffffH
	DW	0ffffH
	DW	0ffffH
	DW	0ffffH
	DW	0faf7H
	DW	0ffffH
	DW	0ffffH
	DW	0ffffH
	DW	0ffffH
	DW	0ffffH
	DW	0ffffH
	DW	0ffffH
	DW	0ffffH
	DW	0ffffH
	DW	0ffffH
	DW	0ffffH
	DW	09e4eH
	DW	0ffffH
	DW	094dcH
	DW	0ffffH
	DW	0ffffH
	DW	0ffffH
	DW	0ffffH
	DW	0ffffH
	DW	095daH
	DW	09df8H
	DW	09f6aH
	DW	0ffffH
	DW	0ffffH
	DW	0ffffH
	DW	0ffffH
	DW	0ffffH
	DW	08ab7H
	DW	0ffffH
	DW	0ffffH
	DW	0ffffH
	DW	0ffffH
	DW	0ffffH
	DW	0ffffH
	DW	0ffffH
	DW	0ffffH
	DW	0ffffH
	DW	0ffffH
	DW	0ffffH
	DW	0ffffH
	DW	0fb46H
	DW	0ffffH
	DW	0ffffH
	DW	0ffffH
	DW	0ffffH
	DW	0ffffH
	DW	0ffffH
	DW	0ffffH
	DW	0ffffH
	DW	0ffffH
	DW	08a46H
	DW	0ffffH
	DW	0ffffH
	DW	0ffffH
	DW	0ffffH
	DW	0ffffH
	DW	0ffffH
	DW	0ffffH
	DW	0ffffH
	DW	0ffffH
	DW	0ffffH
	DW	0ffffH
	DW	0ffffH
	DW	0ffffH
	DW	0ffffH
	DW	0ffffH
	DW	0ffffH
	DW	0ffffH
	DW	0ffffH
	DW	0ffffH
	DW	0ffffH
	DW	0ffffH
	DW	0ffffH
	DW	0ffffH
	DW	0ffffH
	DW	0fb47H
	DW	0ffffH
	DW	0ffffH
	DW	0ffffH
	DW	0ffffH
	DW	0ffffH
	DW	0ffffH
	DW	09148H
	DW	0ffffH
	DW	0ffffH
	DW	0ffffH
	DW	092deH
	DW	0ffffH
	DW	0ffffH
	DW	0ffffH
	DW	0ffffH
	DW	08b53H
	DW	09df6H
	DW	0ffffH
	DW	09bdaH
	DW	0ffffH
	DW	0ffffH
	DW	0ffffH
	DW	0ffffH
	DW	09d7eH
	DW	0ffffH
	DW	0ffffH
	DW	0ffffH
	DW	0ffffH
	DW	0ffffH
	DW	0ffffH
	DW	0ffffH
	DW	0ffffH
	DW	0ffffH
	DW	0ffffH
	DW	0ffffH
	DW	0ffffH
	DW	0ffffH
	DW	0ffffH
	DW	0ffffH
	DW	0ffffH
	DW	0ffffH
	DW	0ffffH
	DW	0ffffH
	DW	0ffffH
	DW	0ffffH
	DW	089fdH
	DW	099e4H
	DW	0ffffH
	DW	0ffffH
	DW	0ffffH
	DW	0ffffH
	DW	0ffffH
	DW	09e43H
	DW	0ffffH
	DW	0ffffH
	DW	0ffffH
	DW	0ffffH
	DW	0ffffH
	DW	0ffffH
	DW	0ffffH
	DW	0ffffH
	DW	0ffffH
	DW	0ffffH
	DW	0ffffH
	DW	09de9H
	DW	0ffffH
	DW	08f52H
	DW	0ffffH
	DW	0ffffH
	DW	0ffffH
	DW	09df5H
	DW	09df0H
	DW	0ffffH
	DW	0ffffH
	DW	0ffffH
	DW	099e7H
	DW	0ffffH
	DW	0ffffH
	DW	0ffffH
	DW	0ffffH
	DW	0ffffH
	DW	08bbdH
	DW	09defH
	DW	0ffffH
	DW	0ffffH
	DW	0ffffH
	DW	0ffffH
	DW	0ffffH
	DW	0ffffH
	DW	0ffffH
	DW	0ffffH
	DW	0ffffH
	DW	0ffffH
	DW	0ffffH
	DW	09fb7H
	DW	0ffffH
	DW	0ffffH
	DW	0ffffH
	DW	0ffffH
	DW	0ffffH
	DW	0ffffH
	DW	0ffffH
	DW	0ffffH
	DW	0ffffH
	DW	0ffffH
	DW	0ffffH
	DW	0ffffH
	DW	09dd0H
	DW	0ffffH
	DW	09febH
	DW	08da9H
	DW	09dcfH
	DW	098e1H
	DW	0ffffH
	DW	09de5H
	DW	0ffffH
	DW	0ffffH
	DW	0ffffH
	DW	0ffffH
	DW	0ffffH
	DW	0ffffH
	DW	0ffffH
	DW	09dc8H
	DW	0ffffH
	DW	0ffffH
	DW	0ffffH
	DW	0ffffH
	DW	0ffffH
	DW	0ffffH
	DW	0ffffH
	DW	0ffffH
	DW	0ffffH
	DW	0fb4fH
	DW	0ffffH
	DW	0ffffH
	DW	0ffffH
	DW	0ffffH
	DW	0ffffH
	DW	0ffffH
	DW	0ffffH
	DW	0ffffH
	DW	0ffffH
	DW	0ffffH
	DW	0ffffH
	DW	09debH
	DW	0ffffH
	DW	0ffffH
	DW	0ffffH
	DW	0ffffH
	DW	0ffffH
	DW	0ffffH
	DW	0ffffH
	DW	0ffffH
	DW	0ffffH
	DW	0fb54H
	DW	0ffffH
	DW	0fb55H
	DW	09aa2H
	DW	0ffffH
	DW	08ad6H
	DW	0ffffH
	DW	09a5fH
	DW	0ffffH
	DW	0ffffH
	DW	0ffffH
	DW	0ffffH
	DW	0ffffH
	DW	0ffffH
	DW	0ffffH
	DW	0ffffH
	DW	09ef5H
	DW	0ffffH
	DW	0ffffH
	DW	0ffffH
	DW	08fb7H
	DW	0ffffH
	DW	0ffffH
	DW	0ffffH
	DW	0ffffH
	DW	0ffffH
	DW	0ffffH
	DW	0ffffH
	DW	0ffffH
	DW	0ffffH
	DW	0ffffH
	DW	0ffffH
	DW	0ffffH
	DW	0ffffH
	DW	0ffffH
	DW	0ffffH
	DW	0ffffH
	DW	0ffffH
	DW	0ffffH
	DW	0ffffH
	DW	0ffffH
	DW	0ffffH
	DW	0ffffH
	DW	0ffffH
	DW	0ffffH
	DW	09ad2H
	DW	09e6aH
	DW	09ee8H
	DW	0ffffH
	DW	0ffffH
	DW	0ffffH
	DW	0ffffH
	DW	0ffffH
	DW	0ffffH
	DW	0ffffH
	DW	0ffffH
	DW	0ffffH
	DW	0ffffH
	DW	0ffffH
	DW	0ffffH
	DW	08bbfH
	DW	091c2H
	DW	09d62H
	DW	0ffffH
	DW	0ffffH
	DW	0ffffH
	DW	0ffffH
	DW	0ffffH
	DW	0ffffH
	DW	09260H
	DW	0ffffH
	DW	0ffffH
	DW	0ffffH
	DW	0ffffH
	DW	0ffffH
	DW	0ffffH
	DW	0ffffH
	DW	0ffffH
	DW	0ffffH
	DW	0ffffH
	DW	0ffffH
	DW	0925eH
	DW	091c1H
	DW	0ffffH
	DW	08ac5H
	DW	0ffffH
	DW	0ffffH
	DW	097a3H
	DW	0ffffH
	DW	0ffffH
	DW	0ffffH
	DW	0ffffH
	DW	0ffffH
	DW	0ffffH
	DW	0ffffH
	DW	0ffffH
	DW	0ffffH
	DW	0ffffH
	DW	08b6cH
	DW	0ffffH
	DW	08d7eH
	DW	0ffffH
	DW	0ffffH
	DW	0ffffH
	DW	0ffffH
	DW	0ffffH
	DW	0ffffH
	DW	0ffffH
	DW	09c54H
	DW	0ffffH
	DW	0ffffH
	DW	0ffffH
	DW	0ffffH
	DW	0ffffH
	DW	09dbdH
	DW	0ffffH
	DW	0ffffH
	DW	0ffffH
	DW	0ffffH
	DW	0ffffH
	DW	0ffffH
	DW	0ffffH
	DW	0ffffH
	DW	0ffffH
	DW	0ffffH
	DW	0ffffH
	DW	0ffffH
	DW	0ffffH
	DW	0ffffH
	DW	0ffffH
	DW	0ffffH
	DW	0ffffH
	DW	0ffffH
	DW	0ffffH
	DW	0ffffH
	DW	0ffffH
	DW	0ffffH
	DW	09cc5H
	DW	0ffffH
	DW	0ffffH
	DW	0ffffH
	DW	0ffffH
	DW	0ffffH
	DW	0ffffH
	DW	0ffffH
	DW	0ffffH
	DW	0ffffH
	DW	0ffffH
	DW	0ffffH
	DW	0895bH
	DW	0ffffH
	DW	0ffffH
	DW	0ffffH
	DW	0ffffH
	DW	0ffffH
	DW	0ffffH
	DW	0ffffH
	DW	0ffffH
	DW	0ffffH
	DW	0ffffH
	DW	0fb5cH
	DW	0ffffH
	DW	0fb5bH
	DW	0ffffH
	DW	0fb57H
	DW	0ffffH
	DW	0ffffH
	DW	0ffffH
	DW	0ffffH
	DW	0ffffH
	DW	0ffffH
	DW	0ffffH
	DW	0ffffH
	DW	0ffffH
	DW	08765H
	DW	0ffffH
	DW	098c7H
	DW	0fb5aH
	DW	0ffffH
	DW	0ffffH
	DW	0ffffH
	DW	0ffffH
	DW	0ffffH
	DW	0ffffH
	DW	0ffffH
	DW	0ffffH
	DW	0ffffH
	DW	0ffffH
	DW	0ffffH
	DW	0ffffH
	DW	0ffffH
	DW	0ffffH
	DW	0ffffH
	DW	0ffffH
	DW	0ffffH
	DW	0ffffH
	DW	0ffffH
	DW	0ffffH
	DW	09ceeH
	DW	0ffffH
	DW	0ffffH
	DW	0ffffH
	DW	0ffffH
	DW	0ffffH
	DW	0ffffH
	DW	0ffffH
	DW	092e2H
	DW	0ffffH
	DW	0ffffH
	DW	0ffffH
	DW	0ffffH
	DW	0ffffH
	DW	0ffffH
	DW	0ffffH
	DW	0ffffH
	DW	0ffffH
	DW	0ffffH
	DW	0ffffH
	DW	0ffffH
	DW	0ffffH
	DW	0ffffH
	DW	0ffffH
	DW	0ffffH
	DW	0ffffH
	DW	0ffffH
	DW	0ffffH
	DW	0ffffH
	DW	094a7H
	DW	0ffffH
	DW	0ffffH
	DW	0ffffH
	DW	0ffffH
	DW	0ffffH
	DW	0ffffH
	DW	0ffffH
	DW	0ffffH
	DW	0ffffH
	DW	0ffffH
	DW	08cccH
	DW	0ffffH
	DW	09bd4H
	DW	0ffffH
	DW	0ffffH
	DW	0fb64H
	DW	0fb76H
	DW	0ffffH
	DW	0ffffH
	DW	0fb60H
	DW	0ffffH
	DW	0ffffH
	DW	0ffffH
	DW	0ffffH
	DW	0ffffH
	DW	0ffffH
	DW	0ffffH
	DW	0ffffH
	DW	0ffffH
	DW	0ffffH
	DW	0ffffH
	DW	0ffffH
	DW	0ffffH
	DW	099e5H
	DW	0ffffH
	DW	0ffffH
	DW	09ac2H
	DW	0ffffH
	DW	0ffffH
	DW	0ffffH
	DW	091fbH
	DW	0ffffH
	DW	0ffffH
	DW	0ffffH
	DW	0a073H
	DW	0ffffH
	DW	0ffffH
	DW	0ffffH
	DW	0ffffH
	DW	0ffffH
	DW	0ffffH
	DW	0ffffH
	DW	09f72H
	DW	0ffffH
	DW	0ffffH
	DW	0ffffH
	DW	0ffffH
	DW	0ffffH
	DW	0ffffH
	DW	0ffffH
	DW	0ffffH
	DW	0ffffH
	DW	0ffffH
	DW	0ffffH
	DW	0ffffH
	DW	0ffffH
	DW	0ffffH
	DW	0ffffH
	DW	0ffffH
	DW	0ffffH
	DW	0ffffH
	DW	09fccH
	DW	0ffffH
	DW	0ffffH
	DW	0ffffH
	DW	098a5H
	DW	092e8H
	DW	0ffffH
	DW	0ffffH
	DW	0ffffH
	DW	0ffffH
	DW	0ffffH
	DW	0ffffH
	DW	0ffffH
	DW	0ffffH
	DW	09bbcH
	DW	0ffffH
	DW	096f3H
	DW	0ffffH
	DW	0ffffH
	DW	092e7H
	DW	0ffffH
	DW	0ffffH
	DW	0fc67H
	DW	0ffffH
	DW	0ffffH
	DW	0ffffH
	DW	0ffffH
	DW	0ffffH
	DW	0ffffH
	DW	0ffffH
	DW	0ffffH
	DW	0ffffH
	DW	0ffffH
	DW	0ffffH
	DW	08b7dH
	DW	0ffffH
	DW	0ffffH
	DW	0ffffH
	DW	0ffffH
	DW	09bf4H
	DW	0ffffH
	DW	0ffffH
	DW	0ffffH
	DW	0ffffH
	DW	0ffffH
	DW	09ef7H
	DW	0ffffH
	DW	0ffffH
	DW	09ec1H
	DW	0ffffH
	DW	0ffffH
	DW	0ffffH
	DW	0ffffH
	DW	0ffffH
	DW	0ffffH
	DW	0ffffH
	DW	0ffffH
	DW	0ffffH
	DW	0996fH
	DW	0ffffH
	DW	0ffffH
	DW	0ffffH
	DW	0ffffH
	DW	0ffffH
	DW	0ffffH
	DW	096f1H
	DW	0ffffH
	DW	0ffffH
	DW	08e41H
	DW	0ffffH
	DW	0ffffH
	DW	0ffffH
	DW	0ffffH
	DW	0ffffH
	DW	0954aH
	DW	0ffffH
	DW	0ffffH
	DW	0ffffH
	DW	097e6H
	DW	0ffffH
	DW	0ffffH
	DW	0ffffH
	DW	0ffffH
	DW	0ffffH
	DW	0ffffH
	DW	0ffffH
	DW	0ffffH
	DW	0ffffH
	DW	0ffffH
	DW	0ffffH
	DW	0ffffH
	DW	0ffffH
	DW	0ffffH
	DW	096f5H
	DW	0ffffH
	DW	0ffffH
	DW	0ffffH
	DW	0ffffH
	DW	0ffffH
	DW	092e6H
	DW	09f42H
	DW	0ffffH
	DW	0ffffH
	DW	0ffffH
	DW	0ffffH
	DW	0ffffH
	DW	0ffffH
	DW	0ffffH
	DW	0fb67H
	DW	0ffffH
	DW	0ffffH
	DW	0ffffH
	DW	0ffffH
	DW	0ffffH
	DW	0ffffH
	DW	0ffffH
	DW	0ffffH
	DW	099a9H
	DW	0ffffH
	DW	0ffffH
	DW	0ffffH
	DW	0ffffH
	DW	0ffffH
	DW	0ffffH
	DW	0ffffH
	DW	0ffffH
	DW	0ffffH
	DW	0ffffH
	DW	0ffffH
	DW	0ffffH
	DW	0ffffH
	DW	0ffffH
	DW	0fae6H
	DW	0fb69H
	DW	0ffffH
	DW	0ffffH
	DW	0ffffH
	DW	0ffffH
	DW	0ffffH
	DW	0ffffH
	DW	0ffffH
	DW	0ffffH
	DW	0ffffH
	DW	0ffffH
	DW	0ffffH
	DW	0ffffH
	DW	0ffffH
	DW	0ffffH
	DW	097e5H
	DW	0ffffH
	DW	0ffffH
	DW	0ffffH
	DW	0ffffH
	DW	0ffffH
	DW	0ffffH
	DW	0ffffH
	DW	0ffffH
	DW	0ffffH
	DW	0ffffH
	DW	0ffffH
	DW	0ffffH
	DW	0ffffH
	DW	0ffffH
	DW	0ffffH
	DW	0967dH
	DW	0ffffH
	DW	0ffffH
	DW	0ffffH
	DW	0fb6cH
	DW	0ffffH
	DW	0ffffH
	DW	0ffffH
	DW	0ffffH
	DW	0ffffH
	DW	0ffffH
	DW	0ffffH
	DW	0ffffH
	DW	0ffffH
	DW	0ffffH
	DW	0ffffH
	DW	0ffffH
	DW	0ffffH
	DW	0ffffH
	DW	0ffffH
	DW	0ffffH
	DW	0ffffH
	DW	0ffffH
	DW	0ffffH
	DW	099a2H
	DW	0ffffH
	DW	0ffffH
	DW	0ffffH
	DW	0ffffH
	DW	0ffffH
	DW	09abbH
	DW	0ffffH
	DW	0ffffH
	DW	0ffffH
	DW	09a65H
	DW	0ffffH
	DW	0ffffH
	DW	0944eH
	DW	0ffffH
	DW	0ffffH
	DW	0ffffH
	DW	0ffffH
	DW	0ffffH
	DW	0ffffH
	DW	0ffffH
	DW	0ffffH
	DW	0ffffH
	DW	0ffffH
	DW	0ffffH
	DW	0ffffH
	DW	0ffffH
	DW	0ffffH
	DW	0ffffH
	DW	0ffffH
	DW	0ffffH
	DW	0ffffH
	DW	0ffffH
	DW	0ffffH
	DW	0fb6eH
	DW	0ffffH
	DW	0ffffH
	DW	099dfH
	DW	0ffffH
	DW	0ffffH
	DW	0ffffH
	DW	0ffffH
	DW	0ffffH
	DW	0ffffH
	DW	0ffffH
	DW	0ffffH
	DW	0ffffH
	DW	098e3H
	DW	0ffffH
	DW	0ffffH
	DW	09254H
	DW	0ffffH
	DW	0ffffH
	DW	0ffffH
	DW	0ffffH
	DW	0ffffH
	DW	0967bH
	DW	08aafH
	DW	0ffffH
	DW	0ffffH
	DW	0ffffH
	DW	0ffffH
	DW	0ffffH
	DW	0ffffH
	DW	0ffffH
	DW	0ffffH
	DW	0ffffH
	DW	0ffffH
	DW	0ffffH
	DW	0ffffH
	DW	0ffffH
	DW	0ffffH
	DW	0ffffH
	DW	0ffffH
	DW	0ffffH
	DW	0ffffH
	DW	0ffffH
	DW	0ffffH
	DW	0ffffH
	DW	0ffffH
	DW	0ffffH
	DW	0ffffH
	DW	0ffffH
	DW	0ffffH
	DW	0ffffH
	DW	0ffffH
	DW	0ffffH
	DW	0ffffH
	DW	08c77H
	DW	0ffffH
	DW	0ffffH
	DW	0ffffH
	DW	0ffffH
	DW	0ffffH
	DW	0ffffH
	DW	08bafH
	DW	09ebdH
	DW	0ffffH
	DW	0ffffH
	DW	0ffffH
	DW	0ffffH
	DW	0ffffH
	DW	0ffffH
	DW	0ffffH
	DW	0ffffH
	DW	0ffffH
	DW	0ffffH
	DW	0ffffH
	DW	0ffffH
	DW	09ee6H
	DW	0ffffH
	DW	0ffffH
	DW	0fb6fH
	DW	0ffffH
	DW	0ffffH
	DW	0ffffH
	DW	0ffffH
	DW	0ffffH
	DW	08ee1H
	DW	0ffffH
	DW	0ffffH
	DW	0ffffH
	DW	0ffffH
	DW	09b7dH
	DW	09c7eH
	DW	0ffffH
	DW	0ffffH
	DW	0ffffH
	DW	0ffffH
	DW	0f9d9H
	DW	0ffffH
	DW	0ffffH
	DW	0ffffH
	DW	0ffffH
	DW	0ffffH
	DW	0ffffH
	DW	0ffffH
	DW	0ffffH
	DW	0ffffH
	DW	0ffffH
	DW	0ffffH
	DW	0ffffH
	DW	0ffffH
	DW	0ffffH
	DW	0ffffH
	DW	092eaH
	DW	0ffffH
	DW	0ffffH
	DW	0ffffH
	DW	0ffffH
	DW	08c78H
	DW	0ffffH
	DW	0ffffH
	DW	0ffffH
	DW	0ffffH
	DW	0ffffH
	DW	0ffffH
	DW	0ffffH
	DW	0ffffH
	DW	0ffffH
	DW	0ffffH
	DW	0ffffH
	DW	0fb72H
	DW	0ffffH
	DW	0ffffH
	DW	0ffffH
	DW	0fb71H
	DW	0ffffH
	DW	0ffffH
	DW	0ffffH
	DW	0ffffH
	DW	0ffffH
	DW	0ffffH
	DW	0ffffH
	DW	0ffffH
	DW	0ffffH
	DW	0ffffH
	DW	0ffffH
	DW	0ffffH
	DW	0ffffH
	DW	0ffffH
	DW	0ffffH
	DW	0895cH
	DW	0ffffH
	DW	098f0H
	DW	096f2H
	DW	0ffffH
	DW	0ffffH
	DW	0ffffH
	DW	0ffffH
	DW	0ffffH
	DW	0ffffH
	DW	0ffffH
	DW	0fb74H
	DW	08bc1H
	DW	0ffffH
	DW	0895dH
	DW	089deH
	DW	0ffffH
	DW	0895eH
	DW	0ffffH
	DW	0ffffH
	DW	0c6caH
	DW	0ffffH
	DW	0ffffH
	DW	0ffffH
	DW	0ffffH
	DW	0ffffH
	DW	0ffffH
	DW	0fe42H
	DW	0ffffH
	DW	0ffffH
	DW	0ffffH
	DW	0ffffH
	DW	0ffffH
	DW	0ffffH
	DW	0ffffH
	DW	0ffffH
	DW	0ffffH
	DW	0ffffH
	DW	0ffffH
	DW	08768H
	DW	0ffffH
	DW	0fb7bH
	DW	0ffffH
	DW	0ffffH
	DW	0ffffH
	DW	0ffffH
	DW	0ffffH
	DW	0ffffH
	DW	0ffffH
	DW	0ffffH
	DW	0ffffH
	DW	0ffffH
	DW	0ffffH
	DW	0ffffH
	DW	0ffffH
	DW	0ffffH
	DW	0ffffH
	DW	0ffffH
	DW	0ffffH
	DW	0ffffH
	DW	0895fH
	DW	0ffffH
	DW	08960H
	DW	0ffffH
	DW	0ffffH
	DW	0ffffH
	DW	0ffffH
	DW	0ffffH
	DW	0ffffH
	DW	0ffffH
	DW	0ffffH
	DW	0ffffH
	DW	0ffffH
	DW	0ffffH
	DW	0ffffH
	DW	0ffffH
	DW	0ffffH
	DW	0ffffH
	DW	0ffffH
	DW	0ffffH
	DW	0ffffH
	DW	0ffffH
	DW	0ffffH
	DW	0ffffH
	DW	0ffffH
	DW	0ffffH
	DW	0ffffH
	DW	0ffffH
	DW	0ffffH
	DW	0ffffH
	DW	0ffffH
	DW	0ffffH
	DW	0ffffH
	DW	0ffffH
	DW	0ffffH
	DW	0ffffH
	DW	0ffffH
	DW	0ffffH
	DW	0ffffH
	DW	0ffffH
	DW	0ffffH
	DW	0ffffH
	DW	0ffffH
	DW	0ffffH
	DW	0ffffH
	DW	0ffffH
	DW	0ffffH
	DW	0ffffH
	DW	0ffffH
	DW	0ffffH
	DW	0ffffH
	DW	09bcdH
	DW	0ffffH
	DW	0ffffH
	DW	0ffffH
	DW	0ffffH
	DW	0ffffH
	DW	0ffffH
	DW	0ffffH
	DW	0ffffH
	DW	0ffffH
	DW	0ffffH
	DW	0ffffH
	DW	0ffffH
	DW	0ffffH
	DW	0ffffH
	DW	0ffffH
	DW	09dd3H
	DW	0ffffH
	DW	0ffffH
	DW	0ffffH
	DW	0ffffH
	DW	0ffffH
	DW	0ffffH
	DW	0ffffH
	DW	0ffffH
	DW	0ffffH
	DW	0ffffH
	DW	0ffffH
	DW	0ffffH
	DW	0ffffH
	DW	0ffffH
	DW	0ffffH
	DW	0ffffH
	DW	0ffffH
	DW	0ffffH
	DW	0ffffH
	DW	0984cH
	DW	0ffffH
	DW	0ffffH
	DW	0ffffH
	DW	0ffffH
	DW	0ffffH
	DW	0ffffH
	DW	0ffffH
	DW	0ffffH
	DW	0ffffH
	DW	0ffffH
	DW	09752H
	DW	0ffffH
	DW	0ffffH
	DW	0ffffH
	DW	0ffffH
	DW	0ffffH
	DW	095c3H
	DW	0ffffH
	DW	0ffffH
	DW	0ffffH
	DW	0ffffH
	DW	09bb6H
	DW	0ffffH
	DW	0ffffH
	DW	0ffffH
	DW	0ffffH
	DW	0ffffH
	DW	0ffffH
	DW	0ffffH
	DW	0ffffH
	DW	0ffffH
	DW	0ffffH
	DW	0ffffH
	DW	0ffffH
	DW	09ab9H
	DW	0ffffH
	DW	0ffffH
	DW	0ffffH
	DW	097b3H
	DW	0ffffH
	DW	0ffffH
	DW	0ffffH
	DW	0ffffH
	DW	0ffffH
	DW	0ffffH
	DW	09f74H
	DW	092f1H
	DW	0ffffH
	DW	0ffffH
	DW	0ffffH
	DW	0ffffH
	DW	0ffffH
	DW	0ffffH
	DW	08cfaH
	DW	0ffffH
	DW	0ffffH
	DW	0ffffH
	DW	0ffffH
	DW	097dfH
	DW	0ffffH
	DW	0ffffH
	DW	0ffffH
	DW	0ffffH
	DW	0fba6H
	DW	0ffffH
	DW	0ffffH
	DW	0ffffH
	DW	0ffffH
	DW	0ffffH
	DW	0ffffH
	DW	0ffffH
	DW	0ffffH
	DW	0ffffH
	DW	0ffffH
	DW	0ffffH
	DW	0ffffH
	DW	0ffffH
	DW	0ffffH
	DW	0ffffH
	DW	0fbabH
	DW	0ffffH
	DW	0ffffH
	DW	0ffffH
	DW	0ffffH
	DW	0ffffH
	DW	0ffffH
	DW	0ffffH
	DW	0ffffH
	DW	0ffffH
	DW	0ffffH
	DW	0ffffH
	DW	0ffffH
	DW	0ffffH
	DW	0ffffH
	DW	0ffffH
	DW	0ffffH
	DW	0ffffH
	DW	09877H
	DW	0ffffH
	DW	0ffffH
	DW	0ffffH
	DW	09854H
	DW	095c5H
	DW	0ffffH
	DW	0ffffH
	DW	0ffffH
	DW	0ffffH
	DW	0ffffH
	DW	0ffffH
	DW	0ffffH
	DW	09d55H
	DW	0fbb2H
	DW	0957eH
	DW	0ffffH
	DW	0ffffH
	DW	0ffffH
	DW	0ffffH
	DW	0ffffH
	DW	0ffffH
	DW	0ffffH
	DW	0ffffH
	DW	09742H
	DW	0ffffH
	DW	094e6H
	DW	0ffffH
	DW	0ffffH
	DW	0ffffH
	DW	0ffffH
	DW	092f5H
	DW	0ffffH
	DW	0ffffH
	DW	0ffffH
	DW	0ffffH
	DW	0ffffH
	DW	0ffffH
	DW	0ffffH
	DW	08cc5H
	DW	0ffffH
	DW	0ffffH
	DW	0ffffH
	DW	0ffffH
	DW	0ffffH
	DW	0ffffH
	DW	092fdH
	DW	0ffffH
	DW	0ffffH
	DW	0fba2H
	DW	0ffffH
	DW	0ffffH
	DW	09c51H
	DW	0ffffH
	DW	0ffffH
	DW	094e9H
	DW	0985cH
	DW	092f0H
	DW	0ffffH
	DW	0ffffH
	DW	0ffffH
	DW	0ffffH
	DW	0ffffH
	DW	0ffffH
	DW	0ffffH
	DW	0ffffH
	DW	0ffffH
	DW	0ffffH
	DW	0ffffH
	DW	0ffffH
	DW	0ffffH
	DW	0ffffH
	DW	0ffffH
	DW	0ffffH
	DW	0944cH
	DW	0ffffH
	DW	0ffffH
	DW	0ffffH
	DW	0ffffH
	DW	0ffffH
	DW	0ffffH
	DW	0ffffH
	DW	0916bH
	DW	0ffffH
	DW	0ffffH
	DW	0ffffH
	DW	0ffffH
	DW	0ffffH
	DW	0ffffH
	DW	0ffffH
	DW	0ffffH
	DW	0ffffH
	DW	0ffffH
	DW	0ffffH
	DW	0ffffH
	DW	0ffffH
	DW	0ffffH
	DW	08b78H
	DW	0ffffH
	DW	0ffffH
	DW	0ffffH
	DW	0ffffH
	DW	094e2H
	DW	0ffffH
	DW	0ffffH
	DW	0ffffH
	DW	0ffffH
	DW	0ffffH
	DW	0ffffH
	DW	0ffffH
	DW	0984fH
	DW	0ffffH
	DW	0fbb5H
	DW	0ffffH
	DW	0ffffH
	DW	0ffffH
	DW	0ffffH
	DW	09271H
	DW	0ffffH
	DW	0ffffH
	DW	09365H
	DW	0ffffH
	DW	0ffffH
	DW	0985bH
	DW	0ffffH
	DW	0ffffH
	DW	09850H
	DW	0ffffH
	DW	0ffffH
	DW	0ffffH
	DW	0ffffH
	DW	0ffffH
	DW	0ffffH
	DW	0ffffH
	DW	097bcH
	DW	0ffffH
	DW	0ffffH
	DW	0ffffH
	DW	0ffffH
	DW	092f3H
	DW	0ffffH
	DW	0ffffH
	DW	09340H
	DW	0984dH
	DW	0ffffH
	DW	0ffffH
	DW	0ffffH
	DW	09572H
	DW	0ffffH
	DW	0fdefH
	DW	0ffffH
	DW	0ffffH
	DW	0ffffH
	DW	0ffffH
	DW	0ffffH
	DW	0ffffH
	DW	0ffffH
	DW	0ffffH
	DW	0fdc1H
	DW	0ffffH
	DW	0ffffH
	DW	0ffffH
	DW	0ffffH
	DW	0fbbaH
	DW	0ffffH
	DW	0ffffH
	DW	092ebH
	DW	0ffffH
	DW	0ffffH
	DW	0ffffH
	DW	0ffffH
	DW	0ffffH
	DW	0ffffH
	DW	0fc73H
	DW	097b7H
	DW	0ffffH
	DW	0ffffH
	DW	0876fH
	DW	0ffffH
	DW	0ffffH
	DW	0ffffH
	DW	0ffffH
	DW	0ffffH
	DW	0ffffH
	DW	0fbb4H
	DW	0ffffH
	DW	0ffffH
	DW	0ffffH
	DW	0ffffH
	DW	0ffffH
	DW	0ffffH
	DW	0ffffH
	DW	0ffffH
	DW	0ffffH
	DW	0ffffH
	DW	0ffffH
	DW	0ffffH
	DW	0ffffH
	DW	0ffffH
	DW	0ffffH
	DW	0ffffH
	DW	0ffffH
	DW	0ffffH
	DW	0ffffH
	DW	0ffffH
	DW	0ffffH
	DW	0ffffH
	DW	0ffffH
	DW	090a7H
	DW	0ffffH
	DW	0ffffH
	DW	0ffffH
	DW	0ffffH
	DW	0ffffH
	DW	0ffffH
	DW	0ffffH
	DW	0ffffH
	DW	0ffffH
	DW	0ffffH
	DW	09741H
	DW	092f4H
	DW	0ffffH
	DW	08772H
	DW	0ffffH
	DW	0fbbcH
	DW	0ffffH
	DW	0ffffH
	DW	0ffffH
	DW	0ffffH
	DW	0ffffH
	DW	0ffffH
	DW	0ffffH
	DW	0ffffH
	DW	0ffffH
	DW	0ffffH
	DW	0ffffH
	DW	0ffffH
	DW	0ffffH
	DW	0ffffH
	DW	0ffffH
	DW	0ffffH
	DW	09577H
	DW	0ffffH
	DW	0ffffH
	DW	0ffffH
	DW	0ffffH
	DW	0ffffH
	DW	0ffffH
	DW	0ffffH
	DW	0ffffH
	DW	0ffffH
	DW	0ffffH
	DW	0ffffH
	DW	09ee2H
	DW	0ffffH
	DW	08f78H
	DW	0ffffH
	DW	0ffffH
	DW	0ffffH
	DW	0ffffH
	DW	0ffffH
	DW	0ffffH
	DW	0ffffH
	DW	0f9dcH
	DW	0ffffH
	DW	0ffffH
	DW	0ffffH
	DW	09672H
	DW	09eb5H
	DW	0ffffH
	DW	0ffffH
	DW	0ffffH
	DW	0964bH
	DW	0ffffH
	DW	0ffffH
	DW	0ffffH
	DW	08cacH
	DW	0ffffH
	DW	0ffffH
	DW	0ffffH
	DW	0ffffH
	DW	0ffffH
	DW	0ffffH
	DW	0ffffH
	DW	0ffffH
	DW	0ffffH
	DW	0a0faH
	DW	0ffffH
	DW	0ffffH
	DW	0ffffH
	DW	0ffffH
	DW	0ffffH
	DW	0ffffH
	DW	0ffffH
	DW	0ffffH
	DW	0ffffH
	DW	0ffffH
	DW	0ffffH
	DW	09575H
	DW	0ffffH
	DW	0ffffH
	DW	0ffffH
	DW	0ffffH
	DW	0ffffH
	DW	0ffffH
	DW	0ffffH
	DW	0ffffH
	DW	0ffffH
	DW	0ffffH
	DW	0ffffH
	DW	0ffffH
	DW	0ffffH
	DW	0ffffH
	DW	0ffffH
	DW	0ffffH
	DW	0ffffH
	DW	0ffffH
	DW	0ffffH
	DW	0ffffH
	DW	0ffffH
	DW	090daH
	DW	0ffffH
	DW	0ffffH
	DW	09367H
	DW	0ffffH
	DW	0fea4H
	DW	0ffffH
	DW	0ffffH
	DW	0ffffH
	DW	090dfH
	DW	0ffffH
	DW	0ffffH
	DW	0ffffH
	DW	0ffffH
	DW	09354H
	DW	0ffffH
	DW	0ffffH
	DW	0ffffH
	DW	0ffffH
	DW	0ffffH
	DW	0ffffH
	DW	0ffffH
	DW	0ffffH
	DW	0ffffH
	DW	0ffffH
	DW	0ffffH
	DW	0ffffH
	DW	0ffffH
	DW	0ffffH
	DW	0ffffH
	DW	0ffffH
	DW	0ffffH
	DW	0ffffH
	DW	0ffffH
	DW	0ffffH
	DW	0ffffH
	DW	0ffffH
	DW	08961H
	DW	0ffffH
	DW	08bb4H
	DW	0ffffH
	DW	0ffffH
	DW	0ffffH
	DW	0ffffH
	DW	09dc0H
	DW	0ffffH
	DW	0ffffH
	DW	0ffffH
	DW	0ffffH
	DW	0ffffH
	DW	0ffffH
	DW	08e48H
	DW	0ffffH
	DW	0fbc5H
	DW	0ffffH
	DW	0ffffH
	DW	0ffffH
	DW	0ffffH
	DW	0ffffH
	DW	0fbc7H
	DW	0ffffH
	DW	0ffffH
	DW	0ffffH
	DW	0c6cbH
	DW	0ffffH
	DW	0fa79H
	DW	0ffffH
	DW	0ffffH
	DW	0ffffH
	DW	0ffffH
	DW	0ffffH
	DW	0ffffH
	DW	0ffffH
	DW	0ffffH
	DW	0ffffH
	DW	0ffffH
	DW	0ffffH
	DW	0ffffH
	DW	0ffffH
	DW	09e67H
	DW	0ffffH
	DW	0ffffH
	DW	0ffffH
	DW	0ffffH
	DW	0ffffH
	DW	08cd9H
	DW	0ffffH
	DW	0ffffH
	DW	0ffffH
	DW	0ffffH
	DW	0ffffH
	DW	0ffffH
	DW	0fbd2H
	DW	08962H
	DW	08963H
	DW	0ffffH
	DW	0ffffH
	DW	0ffffH
	DW	0ffffH
	DW	0ffffH
	DW	0ffffH
	DW	0ffffH
	DW	0ffffH
	DW	0ffffH
	DW	0ffffH
	DW	0fc7dH
	DW	0ffffH
	DW	0ffffH
	DW	0ffffH
	DW	0ffffH
	DW	0ffffH
	DW	0ffffH
	DW	0ffffH
	DW	0ffffH
	DW	0ffffH
	DW	0ffffH
	DW	0ffffH
	DW	0ffffH
	DW	08773H
	DW	0ffffH
	DW	0ffffH
	DW	0ffffH
	DW	0ffffH
	DW	0ffffH
	DW	0ffffH
	DW	0ffffH
	DW	0ffffH
	DW	0ffffH
	DW	0ffffH
	DW	0ffffH
	DW	09f6bH
	DW	0ffffH
	DW	0ffffH
	DW	0ffffH
	DW	0ffffH
	DW	0ffffH
	DW	0ffffH
	DW	0ffffH
	DW	0ffffH
	DW	0ffffH
	DW	0ffffH
	DW	0ffffH
	DW	0ffffH
	DW	0ffffH
	DW	0ffffH
	DW	0ffffH
	DW	0ffffH
	DW	0ffffH
	DW	0fbccH
	DW	0ffffH
	DW	0feaeH
	DW	0ffffH
	DW	0ffffH
	DW	0ffffH
	DW	0876dH
	DW	0ffffH
	DW	0ffffH
	DW	0ffffH
	DW	0ffffH
	DW	0ffffH
	DW	0ffffH
	DW	0ffffH
	DW	0ffffH
	DW	0ffffH
	DW	0ffffH
	DW	0ffffH
	DW	0ffffH
	DW	0ffffH
	DW	0ffffH
	DW	0ffffH
	DW	0ffffH
	DW	0ffffH
	DW	0ffffH
	DW	0ffffH
	DW	0ffffH
	DW	0ffffH
	DW	0ffffH
	DW	0ffffH
	DW	0fbd1H
	DW	0ffffH
	DW	0ffffH
	DW	0ffffH
	DW	0ffffH
	DW	0ffffH
	DW	0ffffH
	DW	0ffffH
	DW	0ffffH
	DW	0ffffH
	DW	0ffffH
	DW	0ffffH
	DW	0fb75H
	DW	0fbd4H
	DW	0ffffH
	DW	0ffffH
	DW	0ffffH
	DW	0ffffH
	DW	0ffffH
	DW	0ffffH
	DW	0ffffH
	DW	0ffffH
	DW	0ffffH
	DW	0ffffH
	DW	0ffffH
	DW	0ffffH
	DW	0ffffH
	DW	0fbd6H
	DW	0fbd8H
	DW	0ffffH
	DW	0ffffH
	DW	0ffffH
	DW	0ffffH
	DW	0ffffH
	DW	0ffffH
	DW	0ffffH
	DW	08b5dH
	DW	0ffffH
	DW	0934cH
	DW	0ffffH
	DW	09ae2H
	DW	0ffffH
	DW	0ffffH
	DW	08bc9H
	DW	0ffffH
	DW	0ffffH
	DW	0ffffH
	DW	0ffffH
	DW	0ffffH
	DW	0ffffH
	DW	0ffffH
	DW	0ffffH
	DW	0ffffH
	DW	0ffffH
	DW	0ffffH
	DW	0ffffH
	DW	0ffffH
	DW	0ffffH
	DW	0ffffH
	DW	0ffffH
	DW	0ffffH
	DW	0ffffH
	DW	0ffffH
	DW	0ffffH
	DW	0ffffH
	DW	0ffffH
	DW	0ffffH
	DW	0ffffH
	DW	0ffffH
	DW	0ffffH
	DW	0ffffH
	DW	0ffffH
	DW	0ffffH
	DW	0ffffH
	DW	0ffffH
	DW	0ffffH
	DW	0ffffH
	DW	0ffffH
	DW	0ffffH
	DW	0ffffH
	DW	0ffffH
	DW	0fbdbH
	DW	09fc9H
	DW	0ffffH
	DW	0ffffH
	DW	0ffffH
	DW	0ffffH
	DW	0ffffH
	DW	0ffffH
	DW	0ffffH
	DW	0ffffH
	DW	09f44H
	DW	0ffffH
	DW	0ffffH
	DW	0ffffH
	DW	0ffffH
	DW	0ffffH
	DW	0ffffH
	DW	0ffffH
	DW	0ffffH
	DW	0ffffH
	DW	0ffffH
	DW	098edH
	DW	0ffffH
	DW	0ffffH
	DW	0ffffH
	DW	0ffffH
	DW	0ffffH
	DW	0ffffH
	DW	0ffffH
	DW	0ffffH
	DW	0ffffH
	DW	0ffffH
	DW	0ffffH
	DW	0ffffH
	DW	0ffffH
	DW	0ffffH
	DW	0ffffH
	DW	0ffffH
	DW	0ffffH
	DW	0ffffH
	DW	0ffffH
	DW	0ffffH
	DW	0ffffH
	DW	0ffffH
	DW	0ffffH
	DW	0ffffH
	DW	0ffffH
	DW	08ce9H
	DW	0ffffH
	DW	0ffffH
	DW	0ffffH
	DW	0ffffH
	DW	0ffffH
	DW	0ffffH
	DW	0ffffH
	DW	0ffffH
	DW	0ffffH
	DW	0ffffH
	DW	0ffffH
	DW	0ffffH
	DW	0fbddH
	DW	0ffffH
	DW	0ffffH
	DW	0ffffH
	DW	0ffffH
	DW	0ffffH
	DW	0ffffH
	DW	0ffffH
	DW	0ffffH
	DW	0ffffH
	DW	0ffffH
	DW	0ffffH
	DW	0ffffH
	DW	0ffffH
	DW	0ffffH
	DW	0ffffH
	DW	0ffffH
	DW	0ffffH
	DW	0ffffH
	DW	0ffffH
	DW	08df2H
	DW	08964H
	DW	0ffffH
	DW	0fdf2H
	DW	0ffffH
	DW	0934dH
	DW	0ffffH
	DW	0ffffH
	DW	0ffffH
	DW	0ffffH
	DW	0ffffH
	DW	0ffffH
	DW	0ffffH
	DW	0ffffH
	DW	0ffffH
	DW	0ffffH
	DW	0ffffH
	DW	0ffffH
	DW	0ffffH
	DW	0ffffH
	DW	0ffffH
	DW	0ffffH
	DW	0ffffH
	DW	0ffffH
	DW	0ffffH
	DW	0ffffH
	DW	0ffffH
	DW	0ffffH
	DW	0ffffH
	DW	0ffffH
	DW	0ffffH
	DW	0ffffH
	DW	0ffffH
	DW	0fbe7H
	DW	0ffffH
	DW	0ffffH
	DW	0ffffH
	DW	0ffffH
	DW	0ffffH
	DW	0ffffH
	DW	0a0f2H
	DW	09868H
	DW	0ffffH
	DW	0ffffH
	DW	0ffffH
	DW	0ffffH
	DW	0ffffH
	DW	0ffffH
	DW	0ffffH
	DW	0ffffH
	DW	0ffffH
	DW	0ffffH
	DW	0ffffH
	DW	0ffffH
	DW	0ffffH
	DW	0ffffH
	DW	09f58H
	DW	0ffffH
	DW	0ffffH
	DW	0ffffH
	DW	08ce6H
	DW	0ffffH
	DW	0ffffH
	DW	0ffffH
	DW	0ffffH
	DW	0ffffH
	DW	0ffffH
	DW	0ffffH
	DW	0ffffH
	DW	0ffffH
	DW	0ffffH
	DW	0ffffH
	DW	0ffffH
	DW	0ffffH
	DW	0ffffH
	DW	0ffffH
	DW	08d73H
	DW	0ffffH
	DW	0ffffH
	DW	0ffffH
	DW	0fbdeH
	DW	0ffffH
	DW	0ffffH
	DW	0ffffH
	DW	0ffffH
	DW	0ffffH
	DW	0fbdfH
	DW	0ffffH
	DW	0ffffH
	DW	0ffffH
	DW	0ffffH
	DW	0ffffH
	DW	08c48H
	DW	0ffffH
	DW	0ffffH
	DW	0ffffH
	DW	0ffffH
	DW	0ffffH
	DW	0ffffH
	DW	08774H
	DW	0fbe3H
	DW	0ffffH
	DW	0ffffH
	DW	0ffffH
	DW	0ffffH
	DW	08da8H
	DW	0ffffH
	DW	0ffffH
	DW	0fbe4H
	DW	0ffffH
	DW	0ffffH
	DW	0ffffH
	DW	0ffffH
	DW	0ffffH
	DW	0ffffH
	DW	0ffffH
	DW	0ffffH
	DW	0ffffH
	DW	0ffffH
	DW	0ffffH
	DW	0ffffH
	DW	0ffffH
	DW	0ffffH
	DW	0ffffH
	DW	0ffffH
	DW	0ffffH
	DW	0ffffH
	DW	0ffffH
	DW	09c75H
	DW	0ffffH
	DW	0ffffH
	DW	09878H
	DW	0ffffH
	DW	0ffffH
	DW	0ffffH
	DW	0ffffH
	DW	0ffffH
	DW	0ffffH
	DW	0ffffH
	DW	0ffffH
	DW	0ffffH
	DW	0ffffH
	DW	0ffffH
	DW	0ffffH
	DW	0ffffH
	DW	0ffffH
	DW	08d60H
	DW	0ffffH
	DW	0ffffH
	DW	0ffffH
	DW	0ffffH
	DW	0ffffH
	DW	0ffffH
	DW	0ffffH
	DW	0fbe5H
	DW	0ffffH
	DW	08d61H
	DW	0ffffH
	DW	0ffffH
	DW	0ffffH
	DW	0ffffH
	DW	0ffffH
	DW	0ffffH
	DW	0ffffH
	DW	0ffffH
	DW	0ffffH
	DW	0ffffH
	DW	0ffffH
	DW	0ffffH
	DW	0ffffH
	DW	08d62H
	DW	0a0a1H
	DW	0ffffH
	DW	0ffffH
	DW	0ffffH
	DW	09c40H
	DW	0ffffH
	DW	0ffffH
	DW	0ffffH
	DW	0ffffH
	DW	0ffffH
	DW	0ffffH
	DW	0ffffH
	DW	0ffffH
	DW	0ffffH
	DW	0ffffH
	DW	0ffffH
	DW	0ffffH
	DW	0ffffH
	DW	0ffffH
	DW	0ffffH
	DW	0ffffH
	DW	0ffffH
	DW	0ffffH
	DW	0ffffH
	DW	0ffffH
	DW	098adH
	DW	0ffffH
	DW	0ffffH
	DW	0ffffH
	DW	09eeaH
	DW	0ffffH
	DW	0ffffH
	DW	0ffffH
	DW	08cecH
	DW	0ffffH
	DW	0ffffH
	DW	08cd4H
	DW	0ffffH
	DW	0ffffH
	DW	0ffffH
	DW	0ffffH
	DW	0ffffH
	DW	0ffffH
	DW	0ffffH
	DW	0ffffH
	DW	0ffffH
	DW	09cebH
	DW	0ffffH
	DW	0ffffH
	DW	0ffffH
	DW	0ffffH
	DW	0ffffH
	DW	0fbe0H
	DW	0ffffH
	DW	0ffffH
	DW	09f51H
	DW	0ffffH
	DW	0ffffH
	DW	0ffffH
	DW	0ffffH
	DW	0ffffH
	DW	0ffffH
	DW	0ffffH
	DW	0ffffH
	DW	0ffffH
	DW	0ffffH
	DW	0ffffH
	DW	0ffffH
	DW	0ffffH
	DW	0ffffH
	DW	0ffffH
	DW	0ffffH
	DW	0ffffH
	DW	0ffffH
	DW	0ffffH
	DW	0ffffH
	DW	0ffffH
	DW	08d65H
	DW	0ffffH
	DW	0ffffH
	DW	0ffffH
	DW	0ffffH
	DW	0ffffH
	DW	0ffffH
	DW	09cf1H
	DW	0ffffH
	DW	0ffffH
	DW	0ffffH
	DW	0ffffH
	DW	0ffffH
	DW	0ffffH
	DW	0ffffH
	DW	0ffffH
	DW	0ffffH
	DW	0ffffH
	DW	0fc58H
	DW	0ffffH
	DW	0ffffH
	DW	08d66H
	DW	0ffffH
	DW	0ffffH
	DW	0ffffH
	DW	0ffffH
	DW	0ffffH
	DW	0ffffH
	DW	0ffffH
	DW	09654H
	DW	0ffffH
	DW	0ffffH
	DW	0ffffH
	DW	0ffffH
	DW	0ffffH
	DW	0ffffH
	DW	0ffffH
	DW	0ffffH
	DW	0ffffH
	DW	0ffffH
	DW	0ffffH
	DW	0ffffH
	DW	0ffffH
	DW	0ffffH
	DW	0ffffH
	DW	0ffffH
	DW	0ffffH
	DW	0ffffH
	DW	0ffffH
	DW	0ffffH
	DW	0ffffH
	DW	0fbe8H
	DW	0ffffH
	DW	0ffffH
	DW	0ffffH
	DW	0c6ccH
	DW	0ffffH
	DW	0ffffH
	DW	0ffffH
	DW	0ffffH
	DW	0ffffH
	DW	0ffffH
	DW	0ffffH
	DW	0ffffH
	DW	0ffffH
	DW	0ffffH
	DW	0ffffH
	DW	0ffffH
	DW	0ffffH
	DW	0ffffH
	DW	0ffffH
	DW	0ffffH
	DW	0ffffH
	DW	0ffffH
	DW	0ffffH
	DW	0ffffH
	DW	0ffffH
	DW	0ffffH
	DW	0ffffH
	DW	0ffffH
	DW	0ffffH
	DW	09fceH
	DW	0fbfcH
	DW	0ffffH
	DW	09ae4H
	DW	0ffffH
	DW	0ffffH
	DW	0ffffH
	DW	0ffffH
	DW	0ffffH
	DW	0ffffH
	DW	09f75H
	DW	0ffffH
	DW	0ffffH
	DW	0ffffH
	DW	0ffffH
	DW	0ffffH
	DW	0ffffH
	DW	0ffffH
	DW	0ffffH
	DW	0ffffH
	DW	0ffffH
	DW	0ffffH
	DW	0ffffH
	DW	0ffffH
	DW	0ffffH
	DW	0ffffH
	DW	0ffffH
	DW	0ffffH
	DW	0ffffH
	DW	0ffffH
	DW	0ffffH
	DW	0ffffH
	DW	0ffffH
	DW	0ffffH
	DW	0ffffH
	DW	0ffffH
	DW	0ffffH
	DW	0ffffH
	DW	0fbf1H
	DW	0ffffH
	DW	0ffffH
	DW	0ffffH
	DW	0ffffH
	DW	0ffffH
	DW	0ffffH
	DW	0ffffH
	DW	0ffffH
	DW	0ffffH
	DW	0ffffH
	DW	0ffffH
	DW	0ffffH
	DW	0ffffH
	DW	0ffffH
	DW	0ffffH
	DW	0ffffH
	DW	0ffffH
	DW	0ffffH
	DW	0ffffH
	DW	08d69H
	DW	0ffffH
	DW	0ffffH
	DW	0ffffH
	DW	0ffffH
	DW	0ffffH
	DW	0934fH
	DW	0ffffH
	DW	0ffffH
	DW	0ffffH
	DW	0ffffH
	DW	0ffffH
	DW	0ffffH
	DW	0ffffH
	DW	0ffffH
	DW	0ffffH
	DW	0ffffH
	DW	0ffffH
	DW	0ffffH
	DW	0ffffH
	DW	0ffffH
	DW	0ffffH
	DW	0ffffH
	DW	0ffffH
	DW	0ffffH
	DW	0ffffH
	DW	0ffffH
	DW	0ffffH
	DW	0934eH
	DW	0ffffH
	DW	0ffffH
	DW	0ffffH
	DW	0ffffH
	DW	0ffffH
	DW	0ffffH
	DW	0ffffH
	DW	0ffffH
	DW	0ffffH
	DW	0ffffH
	DW	0ffffH
	DW	0ffffH
	DW	0ffffH
	DW	0ffffH
	DW	0ffffH
	DW	0ffffH
	DW	0ffffH
	DW	0ffffH
	DW	0ffffH
	DW	0ffffH
	DW	0ffffH
	DW	0ffffH
	DW	0ffffH
	DW	0ffffH
	DW	0ffffH
	DW	0ffffH
	DW	0ffffH
	DW	0fbf4H
	DW	0ffffH
	DW	0ffffH
	DW	0ffffH
	DW	0ffffH
	DW	0c6ceH
	DW	0ffffH
	DW	0ffffH
	DW	0ffffH
	DW	0fbc3H
	DW	0ffffH
	DW	0ffffH
	DW	08965H
	DW	0ffffH
	DW	0ffffH
	DW	0ffffH
	DW	0ffffH
	DW	0ffffH
	DW	0ffffH
	DW	0ffffH
	DW	0ffffH
	DW	0ffffH
	DW	0ffffH
	DW	0ffffH
	DW	08c7aH
	DW	0ffffH
	DW	0ffffH
	DW	0ffffH
	DW	0ffffH
	DW	0ffffH
	DW	0ffffH
	DW	08c7bH
	DW	0ffffH
	DW	0ffffH
	DW	0ffffH
	DW	0ffffH
	DW	0ffffH
	DW	0ffffH
	DW	0ffffH
	DW	0ffffH
	DW	0ffffH
	DW	0ffffH
	DW	0ffffH
	DW	0ffffH
	DW	0ffffH
	DW	0ffffH
	DW	0ffffH
	DW	0ffffH
	DW	0ffffH
	DW	0ffffH
	DW	0ffffH
	DW	0ffffH
	DW	0ffffH
	DW	0ffffH
	DW	0ffffH
	DW	0ffffH
	DW	0ffffH
	DW	0ffffH
	DW	0ffffH
	DW	0ffffH
	DW	0ffffH
	DW	0ffffH
	DW	0ffffH
	DW	0ffffH
	DW	0ffffH
	DW	0ffffH
	DW	0ffffH
	DW	08d6aH
	DW	0ffffH
	DW	0ffffH
	DW	0ffffH
	DW	0ffffH
	DW	0ffffH
	DW	0ffffH
	DW	0ffffH
	DW	0ffffH
	DW	0ffffH
	DW	0ffffH
	DW	0ffffH
	DW	0ffffH
	DW	0ffffH
	DW	0ffffH
	DW	0ffffH
	DW	09353H
	DW	0ffffH
	DW	0ffffH
	DW	09dfbH
	DW	0ffffH
	DW	0ffffH
	DW	0ffffH
	DW	0ffffH
	DW	0ffffH
	DW	0ffffH
	DW	0ffffH
	DW	0ffffH
	DW	0ffffH
	DW	0ffffH
	DW	0ffffH
	DW	0ffffH
	DW	0ffffH
	DW	0ffffH
	DW	0ffffH
	DW	0ffffH
	DW	0ffffH
	DW	0ffffH
	DW	0ffffH
	DW	0ffffH
	DW	0ffffH
	DW	0ffffH
	DW	0ffffH
	DW	0ffffH
	DW	0ffffH
	DW	0ffffH
	DW	0ffffH
	DW	0ffffH
	DW	0ffffH
	DW	0ffffH
	DW	0ffffH
	DW	0ffffH
	DW	0ffffH
	DW	0ffffH
	DW	0ffffH
	DW	0fbfdH
	DW	0ffffH
	DW	0ffffH
	DW	0ffffH
	DW	09059H
	DW	0fc40H
	DW	0ffffH
	DW	0fc41H
	DW	0fc43H
	DW	09361H
	DW	0fc46H
	DW	09362H
	DW	0ffffH
	DW	0ffffH
	DW	0ffffH
	DW	0ffffH
	DW	0ffffH
	DW	0ffffH
	DW	0ffffH
	DW	0ffffH
	DW	0ffffH
	DW	0ffffH
	DW	0ffffH
	DW	0ffffH
	DW	0ffffH
	DW	0ffffH
	DW	0ffffH
	DW	0ffffH
	DW	0ffffH
	DW	0ffffH
	DW	0ffffH
	DW	0ffffH
	DW	0ffffH
	DW	0ffffH
	DW	08d6bH
	DW	0ffffH
	DW	0ffffH
	DW	0ffffH
	DW	0ffffH
	DW	0ffffH
	DW	0ffffH
	DW	0ffffH
	DW	0ffffH
	DW	0ffffH
	DW	0ffffH
	DW	0ffffH
	DW	0ffffH
	DW	0ffffH
	DW	0ffffH
	DW	0ffffH
	DW	0ffffH
	DW	0ffffH
	DW	0ffffH
	DW	0ffffH
	DW	0ffffH
	DW	0fc4cH
	DW	08cfeH
	DW	0ffffH
	DW	0ffffH
	DW	0ffffH
	DW	0ffffH
	DW	0ffffH
	DW	0ffffH
	DW	0ffffH
	DW	0ffffH
	DW	0ffffH
	DW	0ffffH
	DW	0ffffH
	DW	0ffffH
	DW	0ffffH
	DW	0ffffH
	DW	0ffffH
	DW	0ffffH
	DW	0ffffH
	DW	095b8H
	DW	0ffffH
	DW	0ffffH
	DW	0c6d0H
	DW	08bcaH
	DW	0ffffH
	DW	0ffffH
	DW	0ffffH
	DW	0ffffH
	DW	0ffffH
	DW	0ffffH
	DW	0ffffH
	DW	0ffffH
	DW	0ffffH
	DW	0ffffH
	DW	0987aH
	DW	0ffffH
	DW	0ffffH
	DW	0ffffH
	DW	0ffffH
	DW	0c6d1H
	DW	0ffffH
	DW	0fc51H
	DW	0ffffH
	DW	0ffffH
	DW	0ffffH
	DW	0ffffH
	DW	0ffffH
	DW	0ffffH
	DW	0ffffH
	DW	0ffffH
	DW	0ffffH
	DW	0ffffH
	DW	0ffffH
	DW	0ffffH
	DW	0ffffH
	DW	0ffffH
	DW	0fc54H
	DW	0ffffH
	DW	0ffffH
	DW	0ffffH
	DW	0ffffH
	DW	0ffffH
	DW	0ffffH
	DW	0ffffH
	DW	0ffffH
	DW	0faafH
	DW	0ffffH
	DW	0ffffH
	DW	0ffffH
	DW	0ffffH
	DW	0ffffH
	DW	0ffffH
	DW	0ffffH
	DW	08d6cH
	DW	0ffffH
	DW	0ffffH
	DW	0ffffH
	DW	0ffffH
	DW	0ffffH
	DW	0ffffH
	DW	0ffffH
	DW	0ffffH
	DW	0ffffH
	DW	0ffffH
	DW	0ffffH
	DW	0ffffH
	DW	0ffffH
	DW	0ffffH
	DW	0ffffH
	DW	0ffffH
	DW	0ffffH
	DW	0ffffH
	DW	0ffffH
	DW	0ffffH
	DW	0ffffH
	DW	0ffffH
	DW	0ffffH
	DW	0ffffH
	DW	0ffffH
	DW	0ffffH
	DW	0ffffH
	DW	0ffffH
	DW	0ffffH
	DW	0ffffH
	DW	0ffffH
	DW	0ffffH
	DW	0fa61H
	DW	0ffffH
	DW	0ffffH
	DW	0fc57H
	DW	0ffffH
	DW	0ffffH
	DW	0ffffH
	DW	0ffffH
	DW	0ffffH
	DW	0ffffH
	DW	0ffffH
	DW	0ffffH
	DW	0ffffH
	DW	09b70H
	DW	0ffffH
	DW	0ffffH
	DW	0ffffH
	DW	0ffffH
	DW	0ffffH
	DW	0ffffH
	DW	0ffffH
	DW	0ffffH
	DW	0a051H
	DW	0ffffH
	DW	0ffffH
	DW	0ffffH
	DW	0ffffH
	DW	0ffffH
	DW	0ffffH
	DW	0ffffH
	DW	08c7cH
	DW	0ffffH
	DW	08bcbH
	DW	0ffffH
	DW	0ffffH
	DW	0ffffH
	DW	0ffffH
	DW	0ffffH
	DW	0ffffH
	DW	0ffffH
	DW	0ffffH
	DW	0ffffH
	DW	0ffffH
	DW	0ffffH
	DW	0ffffH
	DW	0ffffH
	DW	0ffffH
	DW	0ffffH
	DW	0ffffH
	DW	0ffffH
	DW	0ffffH
	DW	0ffffH
	DW	0ffffH
	DW	0ffffH
	DW	0ffffH
	DW	0936eH
	DW	0ffffH
	DW	0ffffH
	DW	0ffffH
	DW	0fcd5H
	DW	0fca9H
	DW	0ffffH
	DW	0ffffH
	DW	0ffffH
	DW	0ffffH
	DW	0ffffH
	DW	0ffffH
	DW	0ffffH
	DW	0ffffH
	DW	0ffffH
	DW	0ffffH
	DW	0ffffH
	DW	0ffffH
	DW	0ffffH
	DW	0fc61H
	DW	0ffffH
	DW	0ffffH
	DW	0ffffH
	DW	0ffffH
	DW	0ffffH
	DW	0ffffH
	DW	0ffffH
	DW	0ffffH
	DW	0ffffH
	DW	08966H
	DW	0ffffH
	DW	0ffffH
	DW	0ffffH
	DW	0ffffH
	DW	0ffffH
	DW	0ffffH
	DW	0ffffH
	DW	0ffffH
	DW	0ffffH
	DW	0ffffH
	DW	0ffffH
	DW	0ffffH
	DW	0ffffH
	DW	0ffffH
	DW	0facbH
	DW	0ffffH
	DW	0ffffH
	DW	0ffffH
	DW	0ffffH
	DW	0ffffH
	DW	0ffffH
	DW	0ffffH
	DW	0f9daH
	DW	0ffffH
	DW	0ffffH
	DW	0ffffH
	DW	0ffffH
	DW	0ffffH
	DW	0ffffH
	DW	0ffffH
	DW	0ffffH
	DW	0ffffH
	DW	0ffffH
	DW	0ffffH
	DW	0ffffH
	DW	0ffffH
	DW	0ffffH
	DW	0ffffH
	DW	0ffffH
	DW	0ffffH
	DW	0ffffH
	DW	0ffffH
	DW	0ffffH
	DW	0ffffH
	DW	0ffffH
	DW	0ffffH
	DW	0ffffH
	DW	0ffffH
	DW	0ffffH
	DW	0ffffH
	DW	0ffffH
	DW	0ffffH
	DW	0ffffH
	DW	0ffffH
	DW	0ffffH
	DW	0ffffH
	DW	0ffffH
	DW	0937aH
	DW	0ffffH
	DW	0a0e0H
	DW	0ffffH
	DW	0ffffH
	DW	0ffffH
	DW	0ffffH
	DW	0ffffH
	DW	0ffffH
	DW	0936bH
	DW	0ffffH
	DW	0ffffH
	DW	0ffffH
	DW	0ffffH
	DW	0ffffH
	DW	0ffffH
	DW	0ffffH
	DW	0ffffH
	DW	0ffffH
	DW	0ffffH
	DW	0ffffH
	DW	0ffffH
	DW	0ffffH
	DW	0ffffH
	DW	0ffffH
	DW	0ffffH
	DW	0ffffH
	DW	0ffffH
	DW	0ffffH
	DW	0ffffH
	DW	0ffffH
	DW	0ffffH
	DW	0ffffH
	DW	0ffffH
	DW	0ffffH
	DW	0ffffH
	DW	0ffffH
	DW	0ffffH
	DW	0ffffH
	DW	0ffffH
	DW	0ffffH
	DW	0fc6bH
	DW	0ffffH
	DW	0ffffH
	DW	0ffffH
	DW	0ffffH
	DW	0ffffH
	DW	0a0dcH
	DW	0ffffH
	DW	0ffffH
	DW	09468H
	DW	0ffffH
	DW	0ffffH
	DW	0ffffH
	DW	0ffffH
	DW	0ffffH
	DW	0ffffH
	DW	0ffffH
	DW	0ffffH
	DW	0ffffH
	DW	0ffffH
	DW	0ffffH
	DW	0fc6dH
	DW	0ffffH
	DW	0ffffH
	DW	0ffffH
	DW	0ffffH
	DW	0ffffH
	DW	0ffffH
	DW	0ffffH
	DW	0ffffH
	DW	0ffffH
	DW	0ffffH
	DW	0ffffH
	DW	0ffffH
	DW	0ffffH
	DW	0ffffH
	DW	0ffffH
	DW	0ffffH
	DW	0ffffH
	DW	0ffffH
	DW	0ffffH
	DW	0ffffH
	DW	0ffffH
	DW	0ffffH
	DW	0ffffH
	DW	0ffffH
	DW	0ffffH
	DW	0ffffH
	DW	0ffffH
	DW	0ffffH
	DW	0ffffH
	DW	0ffffH
	DW	0ffffH
	DW	0ffffH
	DW	0ffffH
	DW	0ffffH
	DW	0ffffH
	DW	08d71H
	DW	0ffffH
	DW	0ffffH
	DW	0ffffH
	DW	0ffffH
	DW	0ffffH
	DW	0ffffH
	DW	0fd64H
	DW	0ffffH
	DW	0ffffH
	DW	0ffffH
	DW	0ffffH
	DW	099baH
	DW	0ffffH
	DW	0ffffH
	DW	0ffffH
	DW	09ad0H
	DW	09a61H
	DW	0a0e5H
	DW	0ffffH
	DW	0ffffH
	DW	0ffffH
	DW	0ffffH
	DW	0ffffH
	DW	0ffffH
	DW	0ffffH
	DW	0ffffH
	DW	0ffffH
	DW	0ffffH
	DW	0ffffH
	DW	0ffffH
	DW	0ffffH
	DW	0ffffH
	DW	0ffffH
	DW	0ffffH
	DW	0ffffH
	DW	0ffffH
	DW	0ffffH
	DW	0a05bH
	DW	096acH
	DW	0ffffH
	DW	0ffffH
	DW	0ffffH
	DW	0ffffH
	DW	09740H
	DW	0ffffH
	DW	0ffffH
	DW	0ffffH
	DW	0ffffH
	DW	0ffffH
	DW	0ffffH
	DW	0ffffH
	DW	0ffffH
	DW	0ffffH
	DW	0ffffH
	DW	0ffffH
	DW	0ffffH
	DW	09ef1H
	DW	0ffffH
	DW	0ffffH
	DW	0ffffH
	DW	0ffffH
	DW	0ffffH
	DW	0ffffH
	DW	0ffffH
	DW	0ffffH
	DW	08c4dH
	DW	0ffffH
	DW	0ffffH
	DW	0ffffH
	DW	0ffffH
	DW	0ffffH
	DW	0ffffH
	DW	0ffffH
	DW	0ffffH
	DW	0ffffH
	DW	0ffffH
	DW	0ffffH
	DW	0ffffH
	DW	0ffffH
	DW	09f7eH
	DW	0ffffH
	DW	0ffffH
	DW	0ffffH
	DW	0ffffH
	DW	0ffffH
	DW	0ffffH
	DW	0ffffH
	DW	0ffffH
	DW	0ffffH
	DW	0ffffH
	DW	0ffffH
	DW	0ffffH
	DW	08d72H
	DW	0ffffH
	DW	0ffffH
	DW	0ffffH
	DW	0ffffH
	DW	0fc76H
	DW	0ffffH
	DW	0ffffH
	DW	0ffffH
	DW	0ffffH
	DW	0ffffH
	DW	0ffffH
	DW	0ffffH
	DW	0ffffH
	DW	0ffffH
	DW	0ffffH
	DW	0ffffH
	DW	0ffffH
	DW	0ffffH
	DW	096a9H
	DW	0ffffH
	DW	0ffffH
	DW	0ffffH
	DW	0ffffH
	DW	0ffffH
	DW	0ffffH
	DW	0ffffH
	DW	0ffffH
	DW	0a06eH
	DW	0ffffH
	DW	0ffffH
	DW	0fcaaH
	DW	0ffffH
	DW	0ffffH
	DW	0ffffH
	DW	0fbcdH
	DW	0ffffH
	DW	0ffffH
	DW	0ffffH
	DW	0fc74H
	DW	0ffffH
	DW	0ffffH
	DW	0ffffH
	DW	0ffffH
	DW	0ffffH
	DW	0ffffH
	DW	0ffffH
	DW	0ffffH
	DW	0ffffH
	DW	0ffffH
	DW	0a074H
	DW	0ffffH
	DW	0ffffH
	DW	0ffffH
	DW	0ffffH
	DW	0ffffH
	DW	0ffffH
	DW	0ffffH
	DW	0ffffH
	DW	0ffffH
	DW	0ffffH
	DW	0ffffH
	DW	0ffffH
	DW	0ffffH
	DW	0a071H
	DW	0ffffH
	DW	0ffffH
	DW	0ffffH
	DW	0fc79H
	DW	0ffffH
	DW	0ffffH
	DW	0ffffH
	DW	0ffffH
	DW	0ffffH
	DW	0fc7cH
	DW	0ffffH
	DW	0ffffH
	DW	0ffffH
	DW	0ffffH
	DW	0ffffH
	DW	0ffffH
	DW	0ffffH
	DW	0ffffH
	DW	0ffffH
	DW	0ffffH
	DW	0ffffH
	DW	0ffffH
	DW	0ffffH
	DW	09c50H
	DW	0ffffH
	DW	0ffffH
	DW	09379H
	DW	09378H
	DW	0ffffH
	DW	0ffffH
	DW	0a0ddH
	DW	0ffffH
	DW	0ffffH
	DW	0ffffH
	DW	0ffffH
	DW	0ffffH
	DW	0ffffH
	DW	0ffffH
	DW	0ffffH
	DW	0ffffH
	DW	0ffffH
	DW	0ffffH
	DW	0ffffH
	DW	0ffffH
	DW	0ffffH
	DW	0ffffH
	DW	0ffffH
	DW	0ffffH
	DW	0ffffH
	DW	0ffffH
	DW	0ffffH
	DW	0ffffH
	DW	0ffffH
	DW	0ffffH
	DW	0ffffH
	DW	0ffffH
	DW	0ffffH
	DW	08d75H
	DW	0ffffH
	DW	08d76H
	DW	0ffffH
	DW	0ffffH
	DW	0ffffH
	DW	0ffffH
	DW	0ffffH
	DW	0ffffH
	DW	09374H
	DW	0ffffH
	DW	0ffffH
	DW	0ffffH
	DW	0ffffH
	DW	0ffffH
	DW	0ffffH
	DW	0ffffH
	DW	0ffffH
	DW	0ffffH
	DW	0ffffH
	DW	0ffffH
	DW	0ffffH
	DW	0ffffH
	DW	0ffffH
	DW	08d77H
	DW	0fca5H
	DW	0ffffH
	DW	0ffffH
	DW	0fca2H
	DW	0ffffH
	DW	0ffffH
	DW	0ffffH
	DW	0ffffH
	DW	0ffffH
	DW	0ffffH
	DW	090c3H
	DW	0ffffH
	DW	0ffffH
	DW	0ffffH
	DW	0ffffH
	DW	0ffffH
	DW	0ffffH
	DW	0ffffH
	DW	0a079H
	DW	08d79H
	DW	0ffffH
	DW	0ffffH
	DW	0ffffH
	DW	0ffffH
	DW	0ffffH
	DW	0ffffH
	DW	0ffffH
	DW	0ffffH
	DW	0ffffH
	DW	0ffffH
	DW	08bfcH
	DW	0ffffH
	DW	0a076H
	DW	0ffffH
	DW	0ffffH
	DW	0ffffH
	DW	0ffffH
	DW	0ffffH
	DW	0ffffH
	DW	0ffffH
	DW	0ffffH
	DW	0ffffH
	DW	0ffffH
	DW	0ffffH
	DW	0ffffH
	DW	0ffffH
	DW	0ffffH
	DW	0ffffH
	DW	0ffffH
	DW	0ffffH
	DW	0ffffH
	DW	08bcdH
	DW	0ffffH
	DW	0ffffH
	DW	0ffffH
	DW	0ffffH
	DW	0ffffH
	DW	0ffffH
	DW	0ffffH
	DW	0ffffH
	DW	0ffffH
	DW	0ffffH
	DW	0ffffH
	DW	0ffffH
	DW	0ffffH
	DW	0ffffH
	DW	0ffffH
	DW	0ffffH
	DW	0ffffH
	DW	0ffffH
	DW	0ffffH
	DW	0ffffH
	DW	0ffffH
	DW	0ffffH
	DW	0ffffH
	DW	0ffffH
	DW	0ffffH
	DW	0ffffH
	DW	0ffffH
	DW	09f5aH
	DW	0ffffH
	DW	0ffffH
	DW	0ffffH
	DW	0ffffH
	DW	0ffffH
	DW	0ffffH
	DW	0ffffH
	DW	0ffffH
	DW	0ffffH
	DW	0ffffH
	DW	0ffffH
	DW	0ffffH
	DW	0ffffH
	DW	0ffffH
	DW	0ffffH
	DW	0ffffH
	DW	0ffffH
	DW	0ffffH
	DW	0ffffH
	DW	0ffffH
	DW	0ffffH
	DW	0ffffH
	DW	0ffffH
	DW	0ffffH
	DW	0ffffH
	DW	09ff4H
	DW	0ffffH
	DW	0ffffH
	DW	09fbaH
	DW	0ffffH
	DW	0ffffH
	DW	0ffffH
	DW	0ffffH
	DW	0ffffH
	DW	0ffffH
	DW	0ffffH
	DW	0ffffH
	DW	0ffffH
	DW	0ffffH
	DW	08d7aH
	DW	0ffffH
	DW	0ffffH
	DW	0ffffH
	DW	0ffffH
	DW	0ffffH
	DW	0ffffH
	DW	0ffffH
	DW	0ffffH
	DW	0ffffH
	DW	0ffffH
	DW	0ffffH
	DW	0ffffH
	DW	09e45H
	DW	0ffffH
	DW	0ffffH
	DW	0ffffH
	DW	0ffffH
	DW	0ffffH
	DW	0ffffH
	DW	093b0H
	DW	0ffffH
	DW	0a075H
	DW	0ffffH
	DW	0ffffH
	DW	0ffffH
	DW	0ffffH
	DW	0ffffH
	DW	0ffffH
	DW	0ffffH
	DW	0ffffH
	DW	0ffffH
	DW	0ffffH
	DW	0ffffH
	DW	0ffffH
	DW	0ffffH
	DW	0ffffH
	DW	0ffffH
	DW	0ffffH
	DW	0ffffH
	DW	0ffffH
	DW	0ffffH
	DW	0ffffH
	DW	0ffffH
	DW	0ffffH
	DW	0ffffH
	DW	0ffffH
	DW	0ffffH
	DW	0ffffH
	DW	0ffffH
	DW	0ffffH
	DW	09b46H
	DW	0ffffH
	DW	0fcaeH
	DW	0ffffH
	DW	0ffffH
	DW	0ffffH
	DW	0ffffH
	DW	0ffffH
	DW	0ffffH
	DW	0ffffH
	DW	0ffffH
	DW	0ffffH
	DW	0ffffH
	DW	0ffffH
	DW	0ffffH
	DW	0ffffH
	DW	0ffffH
	DW	0ffffH
	DW	0fcb0H
	DW	0ffffH
	DW	0ffffH
	DW	0ffffH
	DW	0ffffH
	DW	0ffffH
	DW	0ffffH
	DW	0ffffH
	DW	0ffffH
	DW	0ffffH
	DW	0fa51H
	DW	0ffffH
	DW	0ffffH
	DW	0ffffH
	DW	0ffffH
	DW	0ffffH
	DW	08d7bH
	DW	08d7cH
	DW	0ffffH
	DW	0ffffH
	DW	0ffffH
	DW	0ffffH
	DW	0ffffH
	DW	0ffffH
	DW	0ffffH
	DW	0ffffH
	DW	0ffffH
	DW	0ffffH
	DW	0ffffH
	DW	0ffffH
	DW	0ffffH
	DW	0ffffH
	DW	0ffffH
	DW	0ffffH
	DW	0ffffH
	DW	0ffffH
	DW	0ffffH
	DW	0ffffH
	DW	0ffffH
	DW	09ed6H
	DW	0ffffH
	DW	0ffffH
	DW	093acH
	DW	0ffffH
	DW	0ffffH
	DW	0ffffH
	DW	09f5bH
	DW	0ffffH
	DW	093a9H
	DW	0ffffH
	DW	0ffffH
	DW	0ffffH
	DW	0ffffH
	DW	0ffffH
	DW	0ffffH
	DW	0ffffH
	DW	0ffffH
	DW	0ffffH
	DW	0ffffH
	DW	0ffffH
	DW	0ffffH
	DW	0ffffH
	DW	0ffffH
	DW	0ffffH
	DW	0ffffH
	DW	0ffffH
	DW	0ffffH
	DW	0ffffH
	DW	0ffffH
	DW	0ffffH
	DW	0ffffH
	DW	0ffffH
	DW	0ffffH
	DW	0ffffH
	DW	0ffffH
	DW	0ffffH
	DW	0ffffH
	DW	0ffffH
	DW	0ffffH
	DW	0ffffH
	DW	0ffffH
	DW	0ffffH
	DW	0ffffH
	DW	0ffffH
	DW	0ffffH
	DW	0ffffH
	DW	0ffffH
	DW	0ffffH
	DW	0ffffH
	DW	0ffffH
	DW	0ffffH
	DW	0ffffH
	DW	0ffffH
	DW	0a07cH
	DW	0ffffH
	DW	0ffffH
	DW	0ffffH
	DW	0ffffH
	DW	0ffffH
	DW	0ffffH
	DW	0ffffH
	DW	0fcb2H
	DW	0ffffH
	DW	0ffffH
	DW	0ffffH
	DW	0ffffH
	DW	0ffffH
	DW	0ffffH
	DW	0ffffH
	DW	0ffffH
	DW	0ffffH
	DW	0ffffH
	DW	0ffffH
	DW	0ffffH
	DW	08ac1H
	DW	0ffffH
	DW	0ffffH
	DW	0ffffH
	DW	0ffffH
	DW	0ffffH
	DW	09fb4H
	DW	0ffffH
	DW	0ffffH
	DW	0ffffH
	DW	0ffffH
	DW	0ffffH
	DW	0ffffH
	DW	0ffffH
	DW	0ffffH
	DW	0ffffH
	DW	0ffffH
	DW	0ffffH
	DW	0fcacH
	DW	0ffffH
	DW	0ffffH
	DW	0ffffH
	DW	0ffffH
	DW	0ffffH
	DW	0ffffH
	DW	0ffffH
	DW	0ffffH
	DW	0ffffH
	DW	0ffffH
	DW	0ffffH
	DW	0ffffH
	DW	0ffffH
	DW	0ffffH
	DW	0ffffH
	DW	0ffffH
	DW	0ffffH
	DW	0ffffH
	DW	0ffffH
	DW	0ffffH
	DW	0ffffH
	DW	0ffffH
	DW	0ffffH
	DW	0ffffH
	DW	0ffffH
	DW	0ffffH
	DW	0ffffH
	DW	0ffffH
	DW	0ffffH
	DW	0ffffH
	DW	0ffffH
	DW	0ffffH
	DW	0ffffH
	DW	0ffffH
	DW	0ffffH
	DW	0ffffH
	DW	0ffffH
	DW	0ffffH
	DW	0ffffH
	DW	0ffffH
	DW	0ffffH
	DW	0ffffH
	DW	0ffffH
	DW	0ffffH
	DW	0ffffH
	DW	09e4cH
	DW	0ffffH
	DW	0ffffH
	DW	0ffffH
	DW	0ffffH
	DW	0ffffH
	DW	0ffffH
	DW	0ffffH
	DW	08fc5H
	DW	0ffffH
	DW	0ffffH
	DW	0ffffH
	DW	0ffffH
	DW	0ffffH
	DW	0ffffH
	DW	0ffffH
	DW	0ffffH
	DW	0ffffH
	DW	0ffffH
	DW	0ffffH
	DW	0ffffH
	DW	0ffffH
	DW	0ffffH
	DW	0ffffH
	DW	093adH
	DW	0ffffH
	DW	0ffffH
	DW	0ffffH
	DW	0ffffH
	DW	0ffffH
	DW	0ffffH
	DW	0ffffH
	DW	0ffffH
	DW	0ffffH
	DW	0ffffH
	DW	0ffffH
	DW	0ffffH
	DW	09dc3H
	DW	0ffffH
	DW	0ffffH
	DW	0ffffH
	DW	08da2H
	DW	0ffffH
	DW	0ffffH
	DW	0ffffH
	DW	09d4aH
	DW	0ffffH
	DW	0ffffH
	DW	0ffffH
	DW	0ffffH
	DW	0ffffH
	DW	0ffffH
	DW	0ffffH
	DW	0ffffH
	DW	0ffffH
	DW	0ffffH
	DW	0ffffH
	DW	0ffffH
	DW	0ffffH
	DW	0ffffH
	DW	0ffffH
	DW	0ffffH
	DW	0ffffH
	DW	0fcb6H
	DW	0ffffH
	DW	0ffffH
	DW	08da3H
	DW	09e4bH
	DW	0ffffH
	DW	09e4dH
	DW	08da4H
	DW	0ffffH
	DW	0ffffH
	DW	0ffffH
	DW	0ffffH
	DW	0ffffH
	DW	0ffffH
	DW	0ffffH
	DW	0ffffH
	DW	0ffffH
	DW	0ffffH
	DW	0ffffH
	DW	0ffffH
	DW	0ffffH
	DW	0ffffH
	DW	0ffffH
	DW	0ffffH
	DW	0ffffH
	DW	0ffffH
	DW	0ffffH
	DW	0ffffH
	DW	0ffffH
	DW	0ffffH
	DW	0ffffH
	DW	0ffffH
	DW	0ffffH
	DW	0ffffH
	DW	0ffffH
	DW	0ffffH
	DW	0ffffH
	DW	0ffffH
	DW	0ffffH
	DW	0ffffH
	DW	0ffffH
	DW	0ffffH
	DW	0ffffH
	DW	0ffffH
	DW	0ffffH
	DW	0ffffH
	DW	0ffffH
	DW	0ffffH
	DW	0ffffH
	DW	0ffffH
	DW	08afdH
	DW	0ffffH
	DW	0ffffH
	DW	0ffffH
	DW	0ffffH
	DW	0ffffH
	DW	0fcb5H
	DW	0ffffH
	DW	0fcc3H
	DW	093b2H
	DW	0ffffH
	DW	0ffffH
	DW	0ffffH
	DW	0ffffH
	DW	0ffffH
	DW	0ffffH
	DW	0ffffH
	DW	0ffffH
	DW	0ffffH
	DW	0ffffH
	DW	0ffffH
	DW	0ffffH
	DW	0ffffH
	DW	0ffffH
	DW	0ffffH
	DW	0ffffH
	DW	0ffffH
	DW	0ffffH
	DW	0ffffH
	DW	0ffffH
	DW	0ffffH
	DW	0ffffH
	DW	0ffffH
	DW	0ffffH
	DW	0ffffH
	DW	0ffffH
	DW	0ffffH
	DW	0ffffH
	DW	0ffffH
	DW	0ffffH
	DW	08da5H
	DW	0ffffH
	DW	0ffffH
	DW	0ffffH
	DW	0ffffH
	DW	0ffffH
	DW	0ffffH
	DW	0ffffH
	DW	0ffffH
	DW	0ffffH
	DW	0ffffH
	DW	0ffffH
	DW	0ffffH
	DW	0ffffH
	DW	0ffffH
	DW	0ffffH
	DW	0ffffH
	DW	0ffffH
	DW	0ffffH
	DW	0ffffH
	DW	0ffffH
	DW	0ffffH
	DW	0ffffH
	DW	093a1H
	DW	0ffffH
	DW	0ffffH
	DW	0ffffH
	DW	0ffffH
	DW	0ffffH
	DW	0ffffH
	DW	0ffffH
	DW	0ffffH
	DW	0ffffH
	DW	0ffffH
	DW	08ac6H
	DW	0ffffH
	DW	0ffffH
	DW	0ffffH
	DW	0ffffH
	DW	0ffffH
	DW	0ffffH
	DW	0ffffH
	DW	0ffffH
	DW	0ffffH
	DW	0ffffH
	DW	0ffffH
	DW	0ffffH
	DW	0ffffH
	DW	0ffffH
	DW	0ffffH
	DW	0ffffH
	DW	08a5bH
	DW	0ffffH
	DW	0ffffH
	DW	0ffffH
	DW	0894dH
	DW	0ffffH
	DW	0ffffH
	DW	0ffffH
	DW	0ffffH
	DW	0ffffH
	DW	0ffffH
	DW	0ffffH
	DW	0ffffH
	DW	0ffffH
	DW	0ffffH
	DW	0ffffH
	DW	0ffffH
	DW	0ffffH
	DW	0ffffH
	DW	0ffffH
	DW	0ffffH
	DW	0ffffH
	DW	0ffffH
	DW	0ffffH
	DW	0ffffH
	DW	0ffffH
	DW	0ffffH
	DW	0ffffH
	DW	0ffffH
	DW	0ffffH
	DW	0ffffH
	DW	0ffffH
	DW	0ffffH
	DW	0ffffH
	DW	0fed4H
	DW	0ffffH
	DW	0ffffH
	DW	0ffffH
	DW	0ffffH
	DW	08a78H
	DW	0ffffH
	DW	093abH
	DW	0ffffH
	DW	0ffffH
	DW	0ffffH
	DW	0ffffH
	DW	0ffffH
	DW	0ffffH
	DW	0ffffH
	DW	0ffffH
	DW	0ffffH
	DW	08da7H
	DW	0ffffH
	DW	0ffffH
	DW	0ffffH
	DW	0ffffH
	DW	0ffffH
	DW	0ffffH
	DW	0ffffH
	DW	0ffffH
	DW	0ffffH
	DW	0ffffH
	DW	0ffffH
	DW	0ffffH
	DW	0ffffH
	DW	0ffffH
	DW	0ffffH
	DW	0ffffH
	DW	0ffffH
	DW	0ffffH
	DW	09f45H
	DW	0ffffH
	DW	0ffffH
	DW	0ffffH
	DW	0ffffH
	DW	0ffffH
	DW	0ffffH
	DW	0ffffH
	DW	0ffffH
	DW	0ffffH
	DW	08a56H
	DW	0ffffH
	DW	0ffffH
	DW	0ffffH
	DW	0fcbfH
	DW	0ffffH
	DW	0ffffH
	DW	0ffffH
	DW	0fcc0H
	DW	0ffffH
	DW	08ee6H
	DW	0ffffH
	DW	0ffffH
	DW	08aa4H
	DW	08943H
	DW	0ffffH
	DW	0ffffH
	DW	0ffffH
	DW	0ffffH
	DW	0ffffH
	DW	0ffffH
	DW	093f3H
	DW	0ffffH
	DW	0ffffH
	DW	0ffffH
	DW	0ffffH
	DW	0ffffH
	DW	0ffffH
	DW	0ffffH
	DW	0ffffH
	DW	0ffffH
	DW	0ffffH
	DW	0ffffH
	DW	0ffffH
	DW	0fcabH
	DW	09ea2H
	DW	0ffffH
	DW	0ffffH
	DW	0ffffH
	DW	0ffffH
	DW	0ffffH
	DW	0ffffH
	DW	0ffffH
	DW	0ffffH
	DW	0ffffH
	DW	0ffffH
	DW	0ffffH
	DW	0ffffH
	DW	0ffffH
	DW	0ffffH
	DW	0ffffH
	DW	0ffffH
	DW	09dc7H
	DW	0ffffH
	DW	0ffffH
	DW	0ffffH
	DW	0c6d2H
	DW	08bceH
	DW	0ffffH
	DW	0ffffH
	DW	0ffffH
	DW	0ffffH
	DW	0ffffH
	DW	0ffffH
	DW	0ffffH
	DW	0ffffH
	DW	0ffffH
	DW	0ffffH
	DW	0ffffH
	DW	0ffffH
	DW	0ffffH
	DW	0ffffH
	DW	0ffffH
	DW	0ffffH
	DW	0ffffH
	DW	0ffffH
	DW	0ffffH
	DW	0ffffH
	DW	0ffffH
	DW	0ffffH
	DW	0ffffH
	DW	0fcc5H
	DW	0ffffH
	DW	0ffffH
	DW	0ffffH
	DW	0ffffH
	DW	0ffffH
	DW	0ffffH
	DW	0ffffH
	DW	0ffffH
	DW	0ffffH
	DW	0ffffH
	DW	0ffffH
	DW	0ffffH
	DW	0ffffH
	DW	0ffffH
	DW	0ffffH
	DW	0ffffH
	DW	0ffffH
	DW	0fccbH
	DW	0ffffH
	DW	0ffffH
	DW	0ffffH
	DW	0ffffH
	DW	0ffffH
