; Listing generated by Microsoft (R) Optimizing Compiler Version 16.00.40219.01 

include listing.inc

INCLUDELIB MSVCRTD
INCLUDELIB OLDNAMES

PUBLIC	??_C@_0CK@LPNFBAGO@Fast?5implementation?5of?5the?5datet@ ; `string'
PUBLIC	??_C@_09BLEDGJAH@_datetime?$AA@			; `string'
PUBLIC	??_C@_0BC@JEMBMAD@datetime?4datetime?$AA@	; `string'
PUBLIC	??_C@_0DA@OEACLEJI@tz?5?9?$DO?5convert?5to?5local?5time?5in?5n@ ; `string'
PUBLIC	??_C@_0L@ECALMFAG@astimezone?$AA@		; `string'
PUBLIC	??_C@_0CL@IFILGCIP@Return?5datetime?5with?5new?5specifi@ ; `string'
PUBLIC	??_C@_0JA@IBIENBBE@?$FLsep?$FN?5?9?$DO?5string?5in?5ISO?58601?5form@ ; `string'
PUBLIC	??_C@_0DJ@MGNAKBHL@Return?5UTC?5time?5tuple?0?5compatibl@ ; `string'
PUBLIC	??_C@_0N@LHNBNFDP@utctimetuple?$AA@		; `string'
PUBLIC	??_C@_0CB@CCPKKINL@Return?5POSIX?5timestamp?5as?5float?4@ ; `string'
PUBLIC	??_C@_0CO@LKCKICLJ@Return?5time?5object?5with?5same?5tim@ ; `string'
PUBLIC	??_C@_06LODNGPBG@timetz?$AA@			; `string'
PUBLIC	??_C@_0DI@BHDEBDDH@Return?5time?5object?5with?5same?5tim@ ; `string'
PUBLIC	??_C@_0DC@LNOALPPA@Return?5date?5object?5with?5same?5yea@ ; `string'
PUBLIC	??_C@_0DG@POLGFJIG@date?0?5time?5?9?$DO?5datetime?5with?5same@ ; `string'
PUBLIC	??_C@_07PCDCECCK@combine?$AA@			; `string'
PUBLIC	??_C@_0EM@OMBKPNCM@string?0?5format?5?9?$DO?5new?5datetime?5p@ ; `string'
PUBLIC	??_C@_08JKOOHOPP@strptime?$AA@			; `string'
PUBLIC	??_C@_0EF@KHGJAJAA@timestamp?5?9?$DO?5UTC?5datetime?5from?5a@ ; `string'
PUBLIC	??_C@_0BB@GBGDJFBJ@utcfromtimestamp?$AA@	; `string'
PUBLIC	??_C@_0DJ@MJHLLJLE@timestamp?$FL?0?5tz?$FN?5?9?$DO?5tz?8s?5local?5ti@ ; `string'
PUBLIC	??_C@_0DF@OGGJLCPO@Return?5a?5new?5datetime?5representi@ ; `string'
PUBLIC	??_C@_06GKOOHOFL@utcnow?$AA@			; `string'
PUBLIC	??_C@_0DD@JPPGJGOI@?$FLtz?$FN?5?9?$DO?5new?5datetime?5with?5tz?8s?5l@ ; `string'
PUBLIC	??_C@_03CGLHMDPP@now?$AA@			; `string'
PUBLIC	??_C@_03MGBCFPKM@sep?$AA@			; `string'
PUBLIC	??_C@_04JNIHBGGH@date?$AA@			; `string'
PUBLIC	??_C@_0BD@LIAHNOMG@_strptime_datetime?$AA@	; `string'
PUBLIC	??_C@_09OMDJNLDP@timestamp?$AA@			; `string'
PUBLIC	??_C@_02IGJGHHBN@tz?$AA@			; `string'
PUBLIC	??_C@_0O@NMMCJMEE@datetime?4time?$AA@		; `string'
PUBLIC	??_C@_0CH@HGAMGBKA@Return?5time?5with?5new?5specified?5f@ ; `string'
PUBLIC	??_C@_0BO@PCCLEJIH@Return?5self?4tzinfo?4dst?$CIself?$CJ?4?$AA@ ; `string'
PUBLIC	??_C@_0CB@BKFJMHAP@Return?5self?4tzinfo?4tzname?$CIself?$CJ?4@ ; `string'
PUBLIC	??_C@_0CE@LHGMAHOI@Return?5self?4tzinfo?4utcoffset?$CIsel@ ; `string'
PUBLIC	??_C@_0DN@HPEMOKB@Return?5string?5in?5ISO?58601?5format@ ; `string'
PUBLIC	??_C@_06DBOJKPOI@tzinfo?$AA@			; `string'
PUBLIC	??_C@_0M@IPLGOMOC@microsecond?$AA@		; `string'
PUBLIC	??_C@_06BJCFNGJP@second?$AA@			; `string'
PUBLIC	??_C@_06JGJIJFNK@minute?$AA@			; `string'
PUBLIC	??_C@_04LMOJGCPE@hour?$AA@			; `string'
PUBLIC	??_C@_0BC@BMDCMDDO@datetime?4timezone?$AA@	; `string'
PUBLIC	??_C@_0P@BIOPACEL@pickle?5support?$AA@		; `string'
PUBLIC	??_C@_0N@BDGMCEOD@Return?5None?4?$AA@		; `string'
PUBLIC	??_C@_0BF@NDKIKJK@Return?5fixed?5offset?4?$AA@	; `string'
PUBLIC	??_C@_0GP@EEKHNJLP@If?5name?5is?5specified?5when?5timezo@ ; `string'
PUBLIC	??_C@_04MEMAJGDJ@name?$AA@			; `string'
PUBLIC	??_C@_06KLHHMIGM@offset?$AA@			; `string'
PUBLIC	??_C@_0BA@GEFABIKC@datetime?4tzinfo?$AA@	; `string'
PUBLIC	??_C@_0BA@IKFFDJGA@?9?$DO?5?$CIcls?0?5state?$CJ?$AA@ ; `string'
PUBLIC	??_C@_0CL@PFDHOCLO@datetime?5in?5UTC?5?9?$DO?5datetime?5in?5l@ ; `string'
PUBLIC	??_C@_07COGHOOJN@fromutc?$AA@			; `string'
PUBLIC	??_C@_0CP@CILGLPLI@datetime?5?9?$DO?5DST?5offset?5in?5minute@ ; `string'
PUBLIC	??_C@_03HHBLCKEM@dst?$AA@			; `string'
PUBLIC	??_C@_0FG@KHADFGHJ@datetime?5?9?$DO?5timedelta?5showing?5of@ ; `string'
PUBLIC	??_C@_09DGNKAEDJ@utcoffset?$AA@			; `string'
PUBLIC	??_C@_0CG@ECFLPKO@datetime?5?9?$DO?5string?5name?5of?5time?5@ ; `string'
PUBLIC	??_C@_0N@NAMJJHIO@__getstate__?$AA@		; `string'
PUBLIC	??_C@_0BA@NHLJJDN@__getinitargs__?$AA@		; `string'
PUBLIC	??_C@_0O@GKGBLLNG@datetime?4date?$AA@		; `string'
PUBLIC	??_C@_0CH@GIJAIIMK@Return?5date?5with?5new?5specified?5f@ ; `string'
PUBLIC	??_C@_0FA@FKOJHDKA@Return?5the?5day?5of?5the?5week?5repre@ ; `string'
PUBLIC	??_C@_07FALBAABE@weekday?$AA@			; `string'
PUBLIC	??_C@_0ED@NMEOEPCF@Return?5proleptic?5Gregorian?5ordin@ ; `string'
PUBLIC	??_C@_09EONCNCPH@toordinal?$AA@			; `string'
PUBLIC	??_C@_0FA@KMKAPEAA@Return?5the?5day?5of?5the?5week?5repre@ ; `string'
PUBLIC	??_C@_0L@OLCJLGMC@isoweekday?$AA@		; `string'
PUBLIC	??_C@_0CO@IHBEGEBB@Return?5string?5in?5ISO?58601?5format@ ; `string'
PUBLIC	??_C@_0EA@IKJAEJCA@Return?5a?53?9tuple?5containing?5ISO?5@ ; `string'
PUBLIC	??_C@_0M@NNCHLCCB@isocalendar?$AA@		; `string'
PUBLIC	??_C@_0DF@CKKAPDOD@Return?5time?5tuple?0?5compatible?5wi@ ; `string'
PUBLIC	??_C@_0BM@NAMMOMBA@Formats?5self?5with?5strftime?4?$AA@ ; `string'
PUBLIC	??_C@_0L@MEMCGMKL@__format__?$AA@		; `string'
PUBLIC	??_C@_0CD@LOCOCHNH@format?5?9?$DO?5strftime?$CI?$CJ?5style?5strin@ ; `string'
PUBLIC	??_C@_0BN@GEPPPCNC@Return?5ctime?$CI?$CJ?5style?5string?4?$AA@ ; `string'
PUBLIC	??_C@_05NCKEBKLP@ctime?$AA@			; `string'
PUBLIC	??_C@_0EO@GEOOIIOE@Current?5date?5or?5datetime?3?5?5same?5@ ; `string'
PUBLIC	??_C@_05MGEAPCOL@today?$AA@			; `string'
PUBLIC	??_C@_0DM@HOLBBDCF@int?5?9?$DO?5date?5corresponding?5to?5a?5p@ ; `string'
PUBLIC	??_C@_0M@EGBEAMKN@fromordinal?$AA@		; `string'
PUBLIC	??_C@_0ED@ODEPENLP@timestamp?5?9?$DO?5local?5date?5from?5a?5P@ ; `string'
PUBLIC	??_C@_06DLEPGFEF@format?$AA@			; `string'
PUBLIC	??_C@_09BCIOHOOO@timetuple?$AA@			; `string'
PUBLIC	??_C@_09KILOLAPA@isoformat?$AA@			; `string'
PUBLIC	??_C@_0O@LBDJOPJI@fromtimestamp?$AA@		; `string'
PUBLIC	??_C@_03NNBHCDBP@day?$AA@			; `string'
PUBLIC	??_C@_05MEBAADFH@month?$AA@			; `string'
PUBLIC	??_C@_04JFPLDHAO@year?$AA@			; `string'
PUBLIC	??_C@_0BD@HJBKAPAI@datetime?4timedelta?$AA@	; `string'
PUBLIC	??_C@_0BN@JMEDOFNE@__reduce__?$CI?$CJ?5?9?$DO?5?$CIcls?0?5state?$CJ?$AA@ ; `string'
PUBLIC	??_C@_0L@NNMACJIG@__reduce__?$AA@		; `string'
PUBLIC	??_C@_0BP@FCABBAIC@Total?5seconds?5in?5the?5duration?4?$AA@ ; `string'
PUBLIC	??_C@_0O@NKEEINIH@total_seconds?$AA@		; `string'
PUBLIC	??_C@_0DG@IHOJEBBG@Number?5of?5microseconds?5?$CI?$DO?$DN?50?5and@ ; `string'
PUBLIC	??_C@_0CO@EIOKLPFO@Number?5of?5seconds?5?$CI?$DO?$DN?50?5and?5less@ ; `string'
PUBLIC	??_C@_0BA@CFKEOBG@Number?5of?5days?4?$AA@	; `string'
PUBLIC	??_C@_05EFKAJCNN@weeks?$AA@			; `string'
PUBLIC	??_C@_05LOHOPFFC@hours?$AA@			; `string'
PUBLIC	??_C@_07GCICIJGK@minutes?$AA@			; `string'
PUBLIC	??_C@_0N@JDBMCDJK@milliseconds?$AA@		; `string'
PUBLIC	??_C@_0N@EKJJBPIN@microseconds?$AA@		; `string'
PUBLIC	??_C@_07GELLIBDG@seconds?$AA@			; `string'
PUBLIC	??_C@_04IJMHDAOD@days?$AA@			; `string'
PUBLIC	??_C@_0BB@IDBMACFH@as_integer_ratio?$AA@	; `string'
PUBLIC	??_C@_0M@HIOPEIIP@struct_time?$AA@		; `string'
PUBLIC	??_C@_04CLCEDBPF@time?$AA@			; `string'
PUBLIC	??_C@_08EPGBJPHJ@strftime?$AA@			; `string'
PUBLIC	??_C@_07CLEHDIEJ@replace?$AA@			; `string'
PUBLIC	??_C@_03MKABNOCG@Dec?$AA@			; `string'
PUBLIC	??_C@_03JPJOFNIA@Nov?$AA@			; `string'
PUBLIC	??_C@_03BMAOKBAD@Oct?$AA@			; `string'
PUBLIC	??_C@_03GGCAPAJC@Sep?$AA@			; `string'
PUBLIC	??_C@_03IFJFEIGA@Aug?$AA@			; `string'
PUBLIC	??_C@_03LBGABGKK@Jul?$AA@			; `string'
PUBLIC	??_C@_03IDFGHECI@Jun?$AA@			; `string'
PUBLIC	??_C@_03CNMDKL@May?$AA@				; `string'
PUBLIC	??_C@_03LEOLGMJP@Apr?$AA@			; `string'
PUBLIC	??_C@_03ODNJBKGA@Mar?$AA@			; `string'
PUBLIC	??_C@_03HJBDCHOM@Feb?$AA@			; `string'
PUBLIC	??_C@_03JIHJHPIE@Jan?$AA@			; `string'
PUBLIC	??_C@_03KOEHGMDN@Sun?$AA@			; `string'
PUBLIC	??_C@_03FEFJNEK@Sat?$AA@			; `string'
PUBLIC	??_C@_03IDIOELNC@Fri?$AA@			; `string'
PUBLIC	??_C@_03IOFIKPDN@Thu?$AA@			; `string'
PUBLIC	??_C@_03MHOMLAJA@Wed?$AA@			; `string'
PUBLIC	??_C@_03NAGEINEP@Tue?$AA@			; `string'
PUBLIC	??_C@_03PDAGKDH@Mon?$AA@			; `string'
PUBLIC	??_C@_06CNBAGEMF@tzname?$AA@			; `string'
EXTRN	PyType_GenericNew:PROC
EXTRN	PyObject_GenericGetAttr:PROC
_BSS	SEGMENT
us_per_us DQ	01H DUP (?)
us_per_ms DQ	01H DUP (?)
us_per_second DQ 01H DUP (?)
us_per_minute DQ 01H DUP (?)
us_per_hour DQ	01H DUP (?)
us_per_day DQ	01H DUP (?)
us_per_week DQ	01H DUP (?)
seconds_per_day DQ 01H DUP (?)
?module@?1??datetime_strptime@@9@9 DQ 01H DUP (?)	; `datetime_strptime'::`2'::module
module_methods DB 020H DUP (?)
_BSS	ENDS
;	COMDAT ??_C@_0CK@LPNFBAGO@Fast?5implementation?5of?5the?5datet@
CONST	SEGMENT
??_C@_0CK@LPNFBAGO@Fast?5implementation?5of?5the?5datet@ DB 'Fast impleme'
	DB	'ntation of the datetime type.', 00H		; `string'
CONST	ENDS
;	COMDAT ??_C@_09BLEDGJAH@_datetime?$AA@
CONST	SEGMENT
??_C@_09BLEDGJAH@_datetime?$AA@ DB '_datetime', 00H	; `string'
CONST	ENDS
;	COMDAT ??_C@_0BC@JEMBMAD@datetime?4datetime?$AA@
CONST	SEGMENT
??_C@_0BC@JEMBMAD@datetime?4datetime?$AA@ DB 'datetime.datetime', 00H ; `string'
CONST	ENDS
;	COMDAT ??_C@_0DA@OEACLEJI@tz?5?9?$DO?5convert?5to?5local?5time?5in?5n@
CONST	SEGMENT
??_C@_0DA@OEACLEJI@tz?5?9?$DO?5convert?5to?5local?5time?5in?5n@ DB 'tz ->'
	DB	' convert to local time in new timezone tz', 0aH, 00H ; `string'
CONST	ENDS
;	COMDAT ??_C@_0L@ECALMFAG@astimezone?$AA@
CONST	SEGMENT
??_C@_0L@ECALMFAG@astimezone?$AA@ DB 'astimezone', 00H	; `string'
CONST	ENDS
;	COMDAT ??_C@_0CL@IFILGCIP@Return?5datetime?5with?5new?5specifi@
CONST	SEGMENT
??_C@_0CL@IFILGCIP@Return?5datetime?5with?5new?5specifi@ DB 'Return datet'
	DB	'ime with new specified fields.', 00H	; `string'
CONST	ENDS
;	COMDAT ??_C@_0JA@IBIENBBE@?$FLsep?$FN?5?9?$DO?5string?5in?5ISO?58601?5form@
CONST	SEGMENT
??_C@_0JA@IBIENBBE@?$FLsep?$FN?5?9?$DO?5string?5in?5ISO?58601?5form@ DB '['
	DB	'sep] -> string in ISO 8601 format, YYYY-MM-DDTHH:MM:SS[.mmmmm'
	DB	'm][+HH:MM].', 0aH, 0aH, 'sep is used to separate the year fro'
	DB	'm the time, and defaults to ''T''.', 00H	; `string'
CONST	ENDS
;	COMDAT ??_C@_0DJ@MGNAKBHL@Return?5UTC?5time?5tuple?0?5compatibl@
CONST	SEGMENT
??_C@_0DJ@MGNAKBHL@Return?5UTC?5time?5tuple?0?5compatibl@ DB 'Return UTC '
	DB	'time tuple, compatible with time.localtime().', 00H ; `string'
CONST	ENDS
;	COMDAT ??_C@_0N@LHNBNFDP@utctimetuple?$AA@
CONST	SEGMENT
??_C@_0N@LHNBNFDP@utctimetuple?$AA@ DB 'utctimetuple', 00H ; `string'
CONST	ENDS
;	COMDAT ??_C@_0CB@CCPKKINL@Return?5POSIX?5timestamp?5as?5float?4@
CONST	SEGMENT
??_C@_0CB@CCPKKINL@Return?5POSIX?5timestamp?5as?5float?4@ DB 'Return POSI'
	DB	'X timestamp as float.', 00H			; `string'
CONST	ENDS
;	COMDAT ??_C@_0CO@LKCKICLJ@Return?5time?5object?5with?5same?5tim@
CONST	SEGMENT
??_C@_0CO@LKCKICLJ@Return?5time?5object?5with?5same?5tim@ DB 'Return time'
	DB	' object with same time and tzinfo.', 00H	; `string'
CONST	ENDS
;	COMDAT ??_C@_06LODNGPBG@timetz?$AA@
CONST	SEGMENT
??_C@_06LODNGPBG@timetz?$AA@ DB 'timetz', 00H		; `string'
CONST	ENDS
;	COMDAT ??_C@_0DI@BHDEBDDH@Return?5time?5object?5with?5same?5tim@
CONST	SEGMENT
??_C@_0DI@BHDEBDDH@Return?5time?5object?5with?5same?5tim@ DB 'Return time'
	DB	' object with same time but with tzinfo=None.', 00H ; `string'
CONST	ENDS
;	COMDAT ??_C@_0DC@LNOALPPA@Return?5date?5object?5with?5same?5yea@
CONST	SEGMENT
??_C@_0DC@LNOALPPA@Return?5date?5object?5with?5same?5yea@ DB 'Return date'
	DB	' object with same year, month and day.', 00H ; `string'
CONST	ENDS
;	COMDAT ??_C@_0DG@POLGFJIG@date?0?5time?5?9?$DO?5datetime?5with?5same@
CONST	SEGMENT
??_C@_0DG@POLGFJIG@date?0?5time?5?9?$DO?5datetime?5with?5same@ DB 'date, '
	DB	'time -> datetime with same date and time fields', 00H ; `string'
CONST	ENDS
;	COMDAT ??_C@_07PCDCECCK@combine?$AA@
CONST	SEGMENT
??_C@_07PCDCECCK@combine?$AA@ DB 'combine', 00H		; `string'
CONST	ENDS
;	COMDAT ??_C@_0EM@OMBKPNCM@string?0?5format?5?9?$DO?5new?5datetime?5p@
CONST	SEGMENT
??_C@_0EM@OMBKPNCM@string?0?5format?5?9?$DO?5new?5datetime?5p@ DB 'string'
	DB	', format -> new datetime parsed from a string (like time.strp'
	DB	'time()).', 00H				; `string'
CONST	ENDS
;	COMDAT ??_C@_08JKOOHOPP@strptime?$AA@
CONST	SEGMENT
??_C@_08JKOOHOPP@strptime?$AA@ DB 'strptime', 00H	; `string'
CONST	ENDS
;	COMDAT ??_C@_0EF@KHGJAJAA@timestamp?5?9?$DO?5UTC?5datetime?5from?5a@
CONST	SEGMENT
??_C@_0EF@KHGJAJAA@timestamp?5?9?$DO?5UTC?5datetime?5from?5a@ DB 'timesta'
	DB	'mp -> UTC datetime from a POSIX timestamp (like time.time()).'
	DB	00H						; `string'
CONST	ENDS
;	COMDAT ??_C@_0BB@GBGDJFBJ@utcfromtimestamp?$AA@
CONST	SEGMENT
??_C@_0BB@GBGDJFBJ@utcfromtimestamp?$AA@ DB 'utcfromtimestamp', 00H ; `string'
CONST	ENDS
;	COMDAT ??_C@_0DJ@MJHLLJLE@timestamp?$FL?0?5tz?$FN?5?9?$DO?5tz?8s?5local?5ti@
CONST	SEGMENT
??_C@_0DJ@MJHLLJLE@timestamp?$FL?0?5tz?$FN?5?9?$DO?5tz?8s?5local?5ti@ DB 't'
	DB	'imestamp[, tz] -> tz''s local time from POSIX timestamp.', 00H ; `string'
CONST	ENDS
;	COMDAT ??_C@_0DF@OGGJLCPO@Return?5a?5new?5datetime?5representi@
CONST	SEGMENT
??_C@_0DF@OGGJLCPO@Return?5a?5new?5datetime?5representi@ DB 'Return a new'
	DB	' datetime representing UTC day and time.', 00H ; `string'
CONST	ENDS
;	COMDAT ??_C@_06GKOOHOFL@utcnow?$AA@
CONST	SEGMENT
??_C@_06GKOOHOFL@utcnow?$AA@ DB 'utcnow', 00H		; `string'
CONST	ENDS
;	COMDAT ??_C@_0DD@JPPGJGOI@?$FLtz?$FN?5?9?$DO?5new?5datetime?5with?5tz?8s?5l@
CONST	SEGMENT
??_C@_0DD@JPPGJGOI@?$FLtz?$FN?5?9?$DO?5new?5datetime?5with?5tz?8s?5l@ DB '['
	DB	'tz] -> new datetime with tz''s local day and time.', 00H ; `string'
CONST	ENDS
;	COMDAT ??_C@_03CGLHMDPP@now?$AA@
CONST	SEGMENT
??_C@_03CGLHMDPP@now?$AA@ DB 'now', 00H			; `string'
CONST	ENDS
;	COMDAT ??_C@_03MGBCFPKM@sep?$AA@
CONST	SEGMENT
??_C@_03MGBCFPKM@sep?$AA@ DB 'sep', 00H			; `string'
CONST	ENDS
;	COMDAT ??_C@_04JNIHBGGH@date?$AA@
CONST	SEGMENT
??_C@_04JNIHBGGH@date?$AA@ DB 'date', 00H		; `string'
CONST	ENDS
;	COMDAT ??_C@_0BD@LIAHNOMG@_strptime_datetime?$AA@
CONST	SEGMENT
??_C@_0BD@LIAHNOMG@_strptime_datetime?$AA@ DB '_strptime_datetime', 00H ; `string'
CONST	ENDS
;	COMDAT ??_C@_09OMDJNLDP@timestamp?$AA@
CONST	SEGMENT
??_C@_09OMDJNLDP@timestamp?$AA@ DB 'timestamp', 00H	; `string'
CONST	ENDS
;	COMDAT ??_C@_02IGJGHHBN@tz?$AA@
CONST	SEGMENT
??_C@_02IGJGHHBN@tz?$AA@ DB 'tz', 00H			; `string'
CONST	ENDS
;	COMDAT ??_C@_0O@NMMCJMEE@datetime?4time?$AA@
CONST	SEGMENT
??_C@_0O@NMMCJMEE@datetime?4time?$AA@ DB 'datetime.time', 00H ; `string'
CONST	ENDS
;	COMDAT ??_C@_0CH@HGAMGBKA@Return?5time?5with?5new?5specified?5f@
CONST	SEGMENT
??_C@_0CH@HGAMGBKA@Return?5time?5with?5new?5specified?5f@ DB 'Return time'
	DB	' with new specified fields.', 00H		; `string'
CONST	ENDS
;	COMDAT ??_C@_0BO@PCCLEJIH@Return?5self?4tzinfo?4dst?$CIself?$CJ?4?$AA@
CONST	SEGMENT
??_C@_0BO@PCCLEJIH@Return?5self?4tzinfo?4dst?$CIself?$CJ?4?$AA@ DB 'Retur'
	DB	'n self.tzinfo.dst(self).', 00H		; `string'
CONST	ENDS
;	COMDAT ??_C@_0CB@BKFJMHAP@Return?5self?4tzinfo?4tzname?$CIself?$CJ?4@
CONST	SEGMENT
??_C@_0CB@BKFJMHAP@Return?5self?4tzinfo?4tzname?$CIself?$CJ?4@ DB 'Return'
	DB	' self.tzinfo.tzname(self).', 00H		; `string'
CONST	ENDS
;	COMDAT ??_C@_0CE@LHGMAHOI@Return?5self?4tzinfo?4utcoffset?$CIsel@
CONST	SEGMENT
??_C@_0CE@LHGMAHOI@Return?5self?4tzinfo?4utcoffset?$CIsel@ DB 'Return sel'
	DB	'f.tzinfo.utcoffset(self).', 00H		; `string'
CONST	ENDS
;	COMDAT ??_C@_0DN@HPEMOKB@Return?5string?5in?5ISO?58601?5format@
CONST	SEGMENT
??_C@_0DN@HPEMOKB@Return?5string?5in?5ISO?58601?5format@ DB 'Return strin'
	DB	'g in ISO 8601 format, HH:MM:SS[.mmmmmm][+HH:MM].', 00H ; `string'
CONST	ENDS
;	COMDAT ??_C@_06DBOJKPOI@tzinfo?$AA@
CONST	SEGMENT
??_C@_06DBOJKPOI@tzinfo?$AA@ DB 'tzinfo', 00H		; `string'
CONST	ENDS
;	COMDAT ??_C@_0M@IPLGOMOC@microsecond?$AA@
CONST	SEGMENT
??_C@_0M@IPLGOMOC@microsecond?$AA@ DB 'microsecond', 00H ; `string'
CONST	ENDS
;	COMDAT ??_C@_06BJCFNGJP@second?$AA@
CONST	SEGMENT
??_C@_06BJCFNGJP@second?$AA@ DB 'second', 00H		; `string'
CONST	ENDS
;	COMDAT ??_C@_06JGJIJFNK@minute?$AA@
CONST	SEGMENT
??_C@_06JGJIJFNK@minute?$AA@ DB 'minute', 00H		; `string'
CONST	ENDS
;	COMDAT ??_C@_04LMOJGCPE@hour?$AA@
CONST	SEGMENT
??_C@_04LMOJGCPE@hour?$AA@ DB 'hour', 00H		; `string'
CONST	ENDS
;	COMDAT ??_C@_0BC@BMDCMDDO@datetime?4timezone?$AA@
CONST	SEGMENT
??_C@_0BC@BMDCMDDO@datetime?4timezone?$AA@ DB 'datetime.timezone', 00H ; `string'
CONST	ENDS
;	COMDAT ??_C@_0P@BIOPACEL@pickle?5support?$AA@
CONST	SEGMENT
??_C@_0P@BIOPACEL@pickle?5support?$AA@ DB 'pickle support', 00H ; `string'
CONST	ENDS
;	COMDAT ??_C@_0N@BDGMCEOD@Return?5None?4?$AA@
CONST	SEGMENT
??_C@_0N@BDGMCEOD@Return?5None?4?$AA@ DB 'Return None.', 00H ; `string'
CONST	ENDS
;	COMDAT ??_C@_0BF@NDKIKJK@Return?5fixed?5offset?4?$AA@
CONST	SEGMENT
??_C@_0BF@NDKIKJK@Return?5fixed?5offset?4?$AA@ DB 'Return fixed offset.', 00H ; `string'
CONST	ENDS
;	COMDAT ??_C@_0GP@EEKHNJLP@If?5name?5is?5specified?5when?5timezo@
CONST	SEGMENT
??_C@_0GP@EEKHNJLP@If?5name?5is?5specified?5when?5timezo@ DB 'If name is '
	DB	'specified when timezone is created, returns the name.  Otherw'
	DB	'ise returns offset as ''UTC(+|-)HH:MM''.', 00H ; `string'
CONST	ENDS
;	COMDAT ??_C@_04MEMAJGDJ@name?$AA@
CONST	SEGMENT
??_C@_04MEMAJGDJ@name?$AA@ DB 'name', 00H		; `string'
CONST	ENDS
;	COMDAT ??_C@_06KLHHMIGM@offset?$AA@
CONST	SEGMENT
??_C@_06KLHHMIGM@offset?$AA@ DB 'offset', 00H		; `string'
CONST	ENDS
;	COMDAT ??_C@_0BA@GEFABIKC@datetime?4tzinfo?$AA@
CONST	SEGMENT
??_C@_0BA@GEFABIKC@datetime?4tzinfo?$AA@ DB 'datetime.tzinfo', 00H ; `string'
CONST	ENDS
;	COMDAT ??_C@_0BA@IKFFDJGA@?9?$DO?5?$CIcls?0?5state?$CJ?$AA@
CONST	SEGMENT
??_C@_0BA@IKFFDJGA@?9?$DO?5?$CIcls?0?5state?$CJ?$AA@ DB '-> (cls, state)', 00H ; `string'
CONST	ENDS
;	COMDAT ??_C@_0CL@PFDHOCLO@datetime?5in?5UTC?5?9?$DO?5datetime?5in?5l@
CONST	SEGMENT
??_C@_0CL@PFDHOCLO@datetime?5in?5UTC?5?9?$DO?5datetime?5in?5l@ DB 'dateti'
	DB	'me in UTC -> datetime in local time.', 00H	; `string'
CONST	ENDS
;	COMDAT ??_C@_07COGHOOJN@fromutc?$AA@
CONST	SEGMENT
??_C@_07COGHOOJN@fromutc?$AA@ DB 'fromutc', 00H		; `string'
CONST	ENDS
;	COMDAT ??_C@_0CP@CILGLPLI@datetime?5?9?$DO?5DST?5offset?5in?5minute@
CONST	SEGMENT
??_C@_0CP@CILGLPLI@datetime?5?9?$DO?5DST?5offset?5in?5minute@ DB 'datetim'
	DB	'e -> DST offset in minutes east of UTC.', 00H ; `string'
CONST	ENDS
;	COMDAT ??_C@_03HHBLCKEM@dst?$AA@
CONST	SEGMENT
??_C@_03HHBLCKEM@dst?$AA@ DB 'dst', 00H			; `string'
CONST	ENDS
;	COMDAT ??_C@_0FG@KHADFGHJ@datetime?5?9?$DO?5timedelta?5showing?5of@
CONST	SEGMENT
??_C@_0FG@KHADFGHJ@datetime?5?9?$DO?5timedelta?5showing?5of@ DB 'datetime'
	DB	' -> timedelta showing offset from UTC, negative values indica'
	DB	'ting West of UTC', 00H			; `string'
CONST	ENDS
;	COMDAT ??_C@_09DGNKAEDJ@utcoffset?$AA@
CONST	SEGMENT
??_C@_09DGNKAEDJ@utcoffset?$AA@ DB 'utcoffset', 00H	; `string'
CONST	ENDS
;	COMDAT ??_C@_0CG@ECFLPKO@datetime?5?9?$DO?5string?5name?5of?5time?5@
CONST	SEGMENT
??_C@_0CG@ECFLPKO@datetime?5?9?$DO?5string?5name?5of?5time?5@ DB 'datetim'
	DB	'e -> string name of time zone.', 00H	; `string'
CONST	ENDS
;	COMDAT ??_C@_0N@NAMJJHIO@__getstate__?$AA@
CONST	SEGMENT
??_C@_0N@NAMJJHIO@__getstate__?$AA@ DB '__getstate__', 00H ; `string'
CONST	ENDS
;	COMDAT ??_C@_0BA@NHLJJDN@__getinitargs__?$AA@
CONST	SEGMENT
??_C@_0BA@NHLJJDN@__getinitargs__?$AA@ DB '__getinitargs__', 00H ; `string'
CONST	ENDS
;	COMDAT ??_C@_0O@GKGBLLNG@datetime?4date?$AA@
CONST	SEGMENT
??_C@_0O@GKGBLLNG@datetime?4date?$AA@ DB 'datetime.date', 00H ; `string'
CONST	ENDS
;	COMDAT ??_C@_0CH@GIJAIIMK@Return?5date?5with?5new?5specified?5f@
CONST	SEGMENT
??_C@_0CH@GIJAIIMK@Return?5date?5with?5new?5specified?5f@ DB 'Return date'
	DB	' with new specified fields.', 00H		; `string'
CONST	ENDS
;	COMDAT ??_C@_0FA@FKOJHDKA@Return?5the?5day?5of?5the?5week?5repre@
CONST	SEGMENT
??_C@_0FA@FKOJHDKA@Return?5the?5day?5of?5the?5week?5repre@ DB 'Return the'
	DB	' day of the week represented by the date.', 0aH, 'Monday == 0'
	DB	' ... Sunday == 6', 00H			; `string'
CONST	ENDS
;	COMDAT ??_C@_07FALBAABE@weekday?$AA@
CONST	SEGMENT
??_C@_07FALBAABE@weekday?$AA@ DB 'weekday', 00H		; `string'
CONST	ENDS
;	COMDAT ??_C@_0ED@NMEOEPCF@Return?5proleptic?5Gregorian?5ordin@
CONST	SEGMENT
??_C@_0ED@NMEOEPCF@Return?5proleptic?5Gregorian?5ordin@ DB 'Return prolep'
	DB	'tic Gregorian ordinal.  January 1 of year 1 is day 1.', 00H ; `string'
CONST	ENDS
;	COMDAT ??_C@_09EONCNCPH@toordinal?$AA@
CONST	SEGMENT
??_C@_09EONCNCPH@toordinal?$AA@ DB 'toordinal', 00H	; `string'
CONST	ENDS
;	COMDAT ??_C@_0FA@KMKAPEAA@Return?5the?5day?5of?5the?5week?5repre@
CONST	SEGMENT
??_C@_0FA@KMKAPEAA@Return?5the?5day?5of?5the?5week?5repre@ DB 'Return the'
	DB	' day of the week represented by the date.', 0aH, 'Monday == 1'
	DB	' ... Sunday == 7', 00H			; `string'
CONST	ENDS
;	COMDAT ??_C@_0L@OLCJLGMC@isoweekday?$AA@
CONST	SEGMENT
??_C@_0L@OLCJLGMC@isoweekday?$AA@ DB 'isoweekday', 00H	; `string'
CONST	ENDS
;	COMDAT ??_C@_0CO@IHBEGEBB@Return?5string?5in?5ISO?58601?5format@
CONST	SEGMENT
??_C@_0CO@IHBEGEBB@Return?5string?5in?5ISO?58601?5format@ DB 'Return stri'
	DB	'ng in ISO 8601 format, YYYY-MM-DD.', 00H	; `string'
CONST	ENDS
;	COMDAT ??_C@_0EA@IKJAEJCA@Return?5a?53?9tuple?5containing?5ISO?5@
CONST	SEGMENT
??_C@_0EA@IKJAEJCA@Return?5a?53?9tuple?5containing?5ISO?5@ DB 'Return a 3'
	DB	'-tuple containing ISO year, week number, and weekday.', 00H ; `string'
CONST	ENDS
;	COMDAT ??_C@_0M@NNCHLCCB@isocalendar?$AA@
CONST	SEGMENT
??_C@_0M@NNCHLCCB@isocalendar?$AA@ DB 'isocalendar', 00H ; `string'
CONST	ENDS
;	COMDAT ??_C@_0DF@CKKAPDOD@Return?5time?5tuple?0?5compatible?5wi@
CONST	SEGMENT
??_C@_0DF@CKKAPDOD@Return?5time?5tuple?0?5compatible?5wi@ DB 'Return time'
	DB	' tuple, compatible with time.localtime().', 00H ; `string'
CONST	ENDS
;	COMDAT ??_C@_0BM@NAMMOMBA@Formats?5self?5with?5strftime?4?$AA@
CONST	SEGMENT
??_C@_0BM@NAMMOMBA@Formats?5self?5with?5strftime?4?$AA@ DB 'Formats self '
	DB	'with strftime.', 00H			; `string'
CONST	ENDS
;	COMDAT ??_C@_0L@MEMCGMKL@__format__?$AA@
CONST	SEGMENT
??_C@_0L@MEMCGMKL@__format__?$AA@ DB '__format__', 00H	; `string'
CONST	ENDS
;	COMDAT ??_C@_0CD@LOCOCHNH@format?5?9?$DO?5strftime?$CI?$CJ?5style?5strin@
CONST	SEGMENT
??_C@_0CD@LOCOCHNH@format?5?9?$DO?5strftime?$CI?$CJ?5style?5strin@ DB 'fo'
	DB	'rmat -> strftime() style string.', 00H	; `string'
CONST	ENDS
;	COMDAT ??_C@_0BN@GEPPPCNC@Return?5ctime?$CI?$CJ?5style?5string?4?$AA@
CONST	SEGMENT
??_C@_0BN@GEPPPCNC@Return?5ctime?$CI?$CJ?5style?5string?4?$AA@ DB 'Return'
	DB	' ctime() style string.', 00H		; `string'
CONST	ENDS
;	COMDAT ??_C@_05NCKEBKLP@ctime?$AA@
CONST	SEGMENT
??_C@_05NCKEBKLP@ctime?$AA@ DB 'ctime', 00H		; `string'
CONST	ENDS
;	COMDAT ??_C@_0EO@GEOOIIOE@Current?5date?5or?5datetime?3?5?5same?5@
CONST	SEGMENT
??_C@_0EO@GEOOIIOE@Current?5date?5or?5datetime?3?5?5same?5@ DB 'Current d'
	DB	'ate or datetime:  same as self.__class__.fromtimestamp(time.t'
	DB	'ime()).', 00H				; `string'
CONST	ENDS
;	COMDAT ??_C@_05MGEAPCOL@today?$AA@
CONST	SEGMENT
??_C@_05MGEAPCOL@today?$AA@ DB 'today', 00H		; `string'
CONST	ENDS
;	COMDAT ??_C@_0DM@HOLBBDCF@int?5?9?$DO?5date?5corresponding?5to?5a?5p@
CONST	SEGMENT
??_C@_0DM@HOLBBDCF@int?5?9?$DO?5date?5corresponding?5to?5a?5p@ DB 'int ->'
	DB	' date corresponding to a proleptic Gregorian ordinal.', 00H ; `string'
CONST	ENDS
;	COMDAT ??_C@_0M@EGBEAMKN@fromordinal?$AA@
CONST	SEGMENT
??_C@_0M@EGBEAMKN@fromordinal?$AA@ DB 'fromordinal', 00H ; `string'
CONST	ENDS
;	COMDAT ??_C@_0ED@ODEPENLP@timestamp?5?9?$DO?5local?5date?5from?5a?5P@
CONST	SEGMENT
??_C@_0ED@ODEPENLP@timestamp?5?9?$DO?5local?5date?5from?5a?5P@ DB 'timest'
	DB	'amp -> local date from a POSIX timestamp (like time.time()).', 00H ; `string'
CONST	ENDS
;	COMDAT ??_C@_06DLEPGFEF@format?$AA@
CONST	SEGMENT
??_C@_06DLEPGFEF@format?$AA@ DB 'format', 00H		; `string'
CONST	ENDS
;	COMDAT ??_C@_09BCIOHOOO@timetuple?$AA@
CONST	SEGMENT
??_C@_09BCIOHOOO@timetuple?$AA@ DB 'timetuple', 00H	; `string'
CONST	ENDS
;	COMDAT ??_C@_09KILOLAPA@isoformat?$AA@
CONST	SEGMENT
??_C@_09KILOLAPA@isoformat?$AA@ DB 'isoformat', 00H	; `string'
CONST	ENDS
;	COMDAT ??_C@_0O@LBDJOPJI@fromtimestamp?$AA@
CONST	SEGMENT
??_C@_0O@LBDJOPJI@fromtimestamp?$AA@ DB 'fromtimestamp', 00H ; `string'
CONST	ENDS
;	COMDAT ??_C@_03NNBHCDBP@day?$AA@
CONST	SEGMENT
??_C@_03NNBHCDBP@day?$AA@ DB 'day', 00H			; `string'
CONST	ENDS
;	COMDAT ??_C@_05MEBAADFH@month?$AA@
CONST	SEGMENT
??_C@_05MEBAADFH@month?$AA@ DB 'month', 00H		; `string'
CONST	ENDS
;	COMDAT ??_C@_04JFPLDHAO@year?$AA@
CONST	SEGMENT
??_C@_04JFPLDHAO@year?$AA@ DB 'year', 00H		; `string'
CONST	ENDS
;	COMDAT ??_C@_0BD@HJBKAPAI@datetime?4timedelta?$AA@
CONST	SEGMENT
??_C@_0BD@HJBKAPAI@datetime?4timedelta?$AA@ DB 'datetime.timedelta', 00H ; `string'
CONST	ENDS
;	COMDAT ??_C@_0BN@JMEDOFNE@__reduce__?$CI?$CJ?5?9?$DO?5?$CIcls?0?5state?$CJ?$AA@
CONST	SEGMENT
??_C@_0BN@JMEDOFNE@__reduce__?$CI?$CJ?5?9?$DO?5?$CIcls?0?5state?$CJ?$AA@ DB '_'
	DB	'_reduce__() -> (cls, state)', 00H		; `string'
CONST	ENDS
;	COMDAT ??_C@_0L@NNMACJIG@__reduce__?$AA@
CONST	SEGMENT
??_C@_0L@NNMACJIG@__reduce__?$AA@ DB '__reduce__', 00H	; `string'
CONST	ENDS
;	COMDAT ??_C@_0BP@FCABBAIC@Total?5seconds?5in?5the?5duration?4?$AA@
CONST	SEGMENT
??_C@_0BP@FCABBAIC@Total?5seconds?5in?5the?5duration?4?$AA@ DB 'Total sec'
	DB	'onds in the duration.', 00H			; `string'
CONST	ENDS
;	COMDAT ??_C@_0O@NKEEINIH@total_seconds?$AA@
CONST	SEGMENT
??_C@_0O@NKEEINIH@total_seconds?$AA@ DB 'total_seconds', 00H ; `string'
CONST	ENDS
;	COMDAT ??_C@_0DG@IHOJEBBG@Number?5of?5microseconds?5?$CI?$DO?$DN?50?5and@
CONST	SEGMENT
??_C@_0DG@IHOJEBBG@Number?5of?5microseconds?5?$CI?$DO?$DN?50?5and@ DB 'Nu'
	DB	'mber of microseconds (>= 0 and less than 1 second).', 00H ; `string'
CONST	ENDS
;	COMDAT ??_C@_0CO@EIOKLPFO@Number?5of?5seconds?5?$CI?$DO?$DN?50?5and?5less@
CONST	SEGMENT
??_C@_0CO@EIOKLPFO@Number?5of?5seconds?5?$CI?$DO?$DN?50?5and?5less@ DB 'N'
	DB	'umber of seconds (>= 0 and less than 1 day).', 00H ; `string'
CONST	ENDS
;	COMDAT ??_C@_0BA@CFKEOBG@Number?5of?5days?4?$AA@
CONST	SEGMENT
??_C@_0BA@CFKEOBG@Number?5of?5days?4?$AA@ DB 'Number of days.', 00H ; `string'
CONST	ENDS
;	COMDAT ??_C@_05EFKAJCNN@weeks?$AA@
CONST	SEGMENT
??_C@_05EFKAJCNN@weeks?$AA@ DB 'weeks', 00H		; `string'
CONST	ENDS
;	COMDAT ??_C@_05LOHOPFFC@hours?$AA@
CONST	SEGMENT
??_C@_05LOHOPFFC@hours?$AA@ DB 'hours', 00H		; `string'
CONST	ENDS
;	COMDAT ??_C@_07GCICIJGK@minutes?$AA@
CONST	SEGMENT
??_C@_07GCICIJGK@minutes?$AA@ DB 'minutes', 00H		; `string'
CONST	ENDS
;	COMDAT ??_C@_0N@JDBMCDJK@milliseconds?$AA@
CONST	SEGMENT
??_C@_0N@JDBMCDJK@milliseconds?$AA@ DB 'milliseconds', 00H ; `string'
CONST	ENDS
;	COMDAT ??_C@_0N@EKJJBPIN@microseconds?$AA@
CONST	SEGMENT
??_C@_0N@EKJJBPIN@microseconds?$AA@ DB 'microseconds', 00H ; `string'
CONST	ENDS
;	COMDAT ??_C@_07GELLIBDG@seconds?$AA@
CONST	SEGMENT
??_C@_07GELLIBDG@seconds?$AA@ DB 'seconds', 00H		; `string'
CONST	ENDS
;	COMDAT ??_C@_04IJMHDAOD@days?$AA@
CONST	SEGMENT
??_C@_04IJMHDAOD@days?$AA@ DB 'days', 00H		; `string'
CONST	ENDS
;	COMDAT ??_C@_0BB@IDBMACFH@as_integer_ratio?$AA@
CONST	SEGMENT
??_C@_0BB@IDBMACFH@as_integer_ratio?$AA@ DB 'as_integer_ratio', 00H ; `string'
CONST	ENDS
;	COMDAT ??_C@_0M@HIOPEIIP@struct_time?$AA@
CONST	SEGMENT
??_C@_0M@HIOPEIIP@struct_time?$AA@ DB 'struct_time', 00H ; `string'
CONST	ENDS
;	COMDAT ??_C@_04CLCEDBPF@time?$AA@
CONST	SEGMENT
??_C@_04CLCEDBPF@time?$AA@ DB 'time', 00H		; `string'
CONST	ENDS
;	COMDAT ??_C@_08EPGBJPHJ@strftime?$AA@
CONST	SEGMENT
??_C@_08EPGBJPHJ@strftime?$AA@ DB 'strftime', 00H	; `string'
CONST	ENDS
;	COMDAT ??_C@_07CLEHDIEJ@replace?$AA@
CONST	SEGMENT
??_C@_07CLEHDIEJ@replace?$AA@ DB 'replace', 00H		; `string'
CONST	ENDS
;	COMDAT ??_C@_03MKABNOCG@Dec?$AA@
CONST	SEGMENT
??_C@_03MKABNOCG@Dec?$AA@ DB 'Dec', 00H			; `string'
CONST	ENDS
;	COMDAT ??_C@_03JPJOFNIA@Nov?$AA@
CONST	SEGMENT
??_C@_03JPJOFNIA@Nov?$AA@ DB 'Nov', 00H			; `string'
CONST	ENDS
;	COMDAT ??_C@_03BMAOKBAD@Oct?$AA@
CONST	SEGMENT
??_C@_03BMAOKBAD@Oct?$AA@ DB 'Oct', 00H			; `string'
CONST	ENDS
;	COMDAT ??_C@_03GGCAPAJC@Sep?$AA@
CONST	SEGMENT
??_C@_03GGCAPAJC@Sep?$AA@ DB 'Sep', 00H			; `string'
CONST	ENDS
;	COMDAT ??_C@_03IFJFEIGA@Aug?$AA@
CONST	SEGMENT
??_C@_03IFJFEIGA@Aug?$AA@ DB 'Aug', 00H			; `string'
CONST	ENDS
;	COMDAT ??_C@_03LBGABGKK@Jul?$AA@
CONST	SEGMENT
??_C@_03LBGABGKK@Jul?$AA@ DB 'Jul', 00H			; `string'
CONST	ENDS
;	COMDAT ??_C@_03IDFGHECI@Jun?$AA@
CONST	SEGMENT
??_C@_03IDFGHECI@Jun?$AA@ DB 'Jun', 00H			; `string'
CONST	ENDS
;	COMDAT ??_C@_03CNMDKL@May?$AA@
CONST	SEGMENT
??_C@_03CNMDKL@May?$AA@ DB 'May', 00H			; `string'
CONST	ENDS
;	COMDAT ??_C@_03LEOLGMJP@Apr?$AA@
CONST	SEGMENT
??_C@_03LEOLGMJP@Apr?$AA@ DB 'Apr', 00H			; `string'
CONST	ENDS
;	COMDAT ??_C@_03ODNJBKGA@Mar?$AA@
CONST	SEGMENT
??_C@_03ODNJBKGA@Mar?$AA@ DB 'Mar', 00H			; `string'
CONST	ENDS
;	COMDAT ??_C@_03HJBDCHOM@Feb?$AA@
CONST	SEGMENT
??_C@_03HJBDCHOM@Feb?$AA@ DB 'Feb', 00H			; `string'
CONST	ENDS
;	COMDAT ??_C@_03JIHJHPIE@Jan?$AA@
CONST	SEGMENT
??_C@_03JIHJHPIE@Jan?$AA@ DB 'Jan', 00H			; `string'
CONST	ENDS
;	COMDAT ??_C@_03KOEHGMDN@Sun?$AA@
CONST	SEGMENT
??_C@_03KOEHGMDN@Sun?$AA@ DB 'Sun', 00H			; `string'
CONST	ENDS
;	COMDAT ??_C@_03FEFJNEK@Sat?$AA@
CONST	SEGMENT
??_C@_03FEFJNEK@Sat?$AA@ DB 'Sat', 00H			; `string'
CONST	ENDS
;	COMDAT ??_C@_03IDIOELNC@Fri?$AA@
CONST	SEGMENT
??_C@_03IDIOELNC@Fri?$AA@ DB 'Fri', 00H			; `string'
CONST	ENDS
;	COMDAT ??_C@_03IOFIKPDN@Thu?$AA@
CONST	SEGMENT
??_C@_03IOFIKPDN@Thu?$AA@ DB 'Thu', 00H			; `string'
CONST	ENDS
;	COMDAT ??_C@_03MHOMLAJA@Wed?$AA@
CONST	SEGMENT
??_C@_03MHOMLAJA@Wed?$AA@ DB 'Wed', 00H			; `string'
CONST	ENDS
;	COMDAT ??_C@_03NAGEINEP@Tue?$AA@
CONST	SEGMENT
??_C@_03NAGEINEP@Tue?$AA@ DB 'Tue', 00H			; `string'
CONST	ENDS
;	COMDAT ??_C@_03PDAGKDH@Mon?$AA@
CONST	SEGMENT
??_C@_03PDAGKDH@Mon?$AA@ DB 'Mon', 00H			; `string'
CONST	ENDS
_TLS	SEGMENT
?PyId_fromutc@?1??datetime_astimezone@@9@9 DQ 0000000000000000H ; `datetime_astimezone'::`2'::PyId_fromutc
	DQ	FLAT:??_C@_07COGHOOJN@fromutc?$AA@
	DQ	0000000000000000H
?PyId_isoformat@?1??datetime_str@@9@9 DQ 0000000000000000H ; `datetime_str'::`2'::PyId_isoformat
	DQ	FLAT:??_C@_09KILOLAPA@isoformat?$AA@
	DQ	0000000000000000H
?PyId__strptime_datetime@?1??datetime_strptime@@9@9 DQ 0000000000000000H ; `datetime_strptime'::`2'::PyId__strptime_datetime
	DQ	FLAT:??_C@_0BD@LIAHNOMG@_strptime_datetime?$AA@
	DQ	0000000000000000H
?PyId_fromutc@?2??datetime_fromtimestamp@@9@9 DQ 0000000000000000H ; `datetime_fromtimestamp'::`3'::PyId_fromutc
	DQ	FLAT:??_C@_07COGHOOJN@fromutc?$AA@
	DQ	0000000000000000H
?PyId_fromutc@?2??datetime_now@@9@9 DQ 0000000000000000H ; `datetime_now'::`3'::PyId_fromutc
	DQ	FLAT:??_C@_07COGHOOJN@fromutc?$AA@
	DQ	0000000000000000H
?PyId_isoformat@?1??time_str@@9@9 DQ 0000000000000000H	; `time_str'::`2'::PyId_isoformat
	DQ	FLAT:??_C@_09KILOLAPA@isoformat?$AA@
	DQ	0000000000000000H
?PyId___getstate__@?1??tzinfo_reduce@@9@9 DQ 0000000000000000H ; `tzinfo_reduce'::`2'::PyId___getstate__
	DQ	FLAT:??_C@_0N@NAMJJHIO@__getstate__?$AA@
	DQ	0000000000000000H
?PyId___getinitargs__@?1??tzinfo_reduce@@9@9 DQ 0000000000000000H ; `tzinfo_reduce'::`2'::PyId___getinitargs__
	DQ	FLAT:??_C@_0BA@NHLJJDN@__getinitargs__?$AA@
	DQ	0000000000000000H
?PyId_strftime@?1??date_format@@9@9 DQ 0000000000000000H ; `date_format'::`2'::PyId_strftime
	DQ	FLAT:??_C@_08EPGBJPHJ@strftime?$AA@
	DQ	0000000000000000H
?PyId_timetuple@?1??date_strftime@@9@9 DQ 0000000000000000H ; `date_strftime'::`2'::PyId_timetuple
	DQ	FLAT:??_C@_09BCIOHOOO@timetuple?$AA@
	DQ	0000000000000000H
?PyId_isoformat@?1??date_str@@9@9 DQ 0000000000000000H	; `date_str'::`2'::PyId_isoformat
	DQ	FLAT:??_C@_09KILOLAPA@isoformat?$AA@
	DQ	0000000000000000H
?PyId_fromtimestamp@?1??date_today@@9@9 DQ 0000000000000000H ; `date_today'::`2'::PyId_fromtimestamp
	DQ	FLAT:??_C@_0O@LBDJOPJI@fromtimestamp?$AA@
	DQ	0000000000000000H
?PyId_as_integer_ratio@?1??truedivide_timedelta_float@@9@9 DQ 0000000000000000H ; `truedivide_timedelta_float'::`2'::PyId_as_integer_ratio
	DQ	FLAT:??_C@_0BB@IDBMACFH@as_integer_ratio?$AA@
	DQ	0000000000000000H
?PyId_as_integer_ratio@?1??multiply_float_timedelta@@9@9 DQ 0000000000000000H ; `multiply_float_timedelta'::`2'::PyId_as_integer_ratio
	DQ	FLAT:??_C@_0BB@IDBMACFH@as_integer_ratio?$AA@
	DQ	0000000000000000H
?PyId_struct_time@?2??build_struct_time@@9@9 DQ 0000000000000000H ; `build_struct_time'::`3'::PyId_struct_time
	DQ	FLAT:??_C@_0M@HIOPEIIP@struct_time?$AA@
	DQ	0000000000000000H
?PyId_time@?2??time_time@@9@9 DQ 0000000000000000H	; `time_time'::`3'::PyId_time
	DQ	FLAT:??_C@_04CLCEDBPF@time?$AA@
	DQ	0000000000000000H
?PyId_strftime@?BC@??wrap_strftime@@9@9 DQ 0000000000000000H ; `wrap_strftime'::`18'::PyId_strftime
	DQ	FLAT:??_C@_08EPGBJPHJ@strftime?$AA@
	DQ	0000000000000000H
?PyId_replace@?1??make_Zreplacement@@9@9 DQ 0000000000000000H ; `make_Zreplacement'::`2'::PyId_replace
	DQ	FLAT:??_C@_07CLEHDIEJ@replace?$AA@
	DQ	0000000000000000H
?PyId_tzname@?1??call_tzname@@9@9 DQ 0000000000000000H	; `call_tzname'::`2'::PyId_tzname
	DQ	FLAT:??_C@_06CNBAGEMF@tzname?$AA@
	DQ	0000000000000000H
_TLS	ENDS
;	COMDAT ??_C@_06CNBAGEMF@tzname?$AA@
CONST	SEGMENT
??_C@_06CNBAGEMF@tzname?$AA@ DB 'tzname', 00H		; `string'
CONST	ENDS
_DATA	SEGMENT
_days_in_month DD 00H
	DD	01fH
	DD	01cH
	DD	01fH
	DD	01eH
	DD	01fH
	DD	01eH
	DD	01fH
	DD	01fH
	DD	01eH
	DD	01fH
	DD	01eH
	DD	01fH
	ORG $+4
_days_before_month DD 00H
	DD	00H
	DD	01fH
	DD	03bH
	DD	05aH
	DD	078H
	DD	097H
	DD	0b5H
	DD	0d4H
	DD	0f3H
	DD	0111H
	DD	0130H
	DD	014eH
	ORG $+4
?DayNames@?1??format_ctime@@9@9 DQ FLAT:??_C@_03PDAGKDH@Mon?$AA@ ; `format_ctime'::`2'::DayNames
	DQ	FLAT:??_C@_03NAGEINEP@Tue?$AA@
	DQ	FLAT:??_C@_03MHOMLAJA@Wed?$AA@
	DQ	FLAT:??_C@_03IOFIKPDN@Thu?$AA@
	DQ	FLAT:??_C@_03IDIOELNC@Fri?$AA@
	DQ	FLAT:??_C@_03FEFJNEK@Sat?$AA@
	DQ	FLAT:??_C@_03KOEHGMDN@Sun?$AA@
	ORG $+8
?MonthNames@?1??format_ctime@@9@9 DQ FLAT:??_C@_03JIHJHPIE@Jan?$AA@ ; `format_ctime'::`2'::MonthNames
	DQ	FLAT:??_C@_03HJBDCHOM@Feb?$AA@
	DQ	FLAT:??_C@_03ODNJBKGA@Mar?$AA@
	DQ	FLAT:??_C@_03LEOLGMJP@Apr?$AA@
	DQ	FLAT:??_C@_03CNMDKL@May?$AA@
	DQ	FLAT:??_C@_03IDFGHECI@Jun?$AA@
	DQ	FLAT:??_C@_03LBGABGKK@Jul?$AA@
	DQ	FLAT:??_C@_03IFJFEIGA@Aug?$AA@
	DQ	FLAT:??_C@_03GGCAPAJC@Sep?$AA@
	DQ	FLAT:??_C@_03BMAOKBAD@Oct?$AA@
	DQ	FLAT:??_C@_03JPJOFNIA@Nov?$AA@
	DQ	FLAT:??_C@_03MKABNOCG@Dec?$AA@
?keywords@?1??delta_new@@9@9 DQ FLAT:??_C@_04IJMHDAOD@days?$AA@ ; `delta_new'::`2'::keywords
	DQ	FLAT:??_C@_07GELLIBDG@seconds?$AA@
	DQ	FLAT:??_C@_0N@EKJJBPIN@microseconds?$AA@
	DQ	FLAT:??_C@_0N@JDBMCDJK@milliseconds?$AA@
	DQ	FLAT:??_C@_07GCICIJGK@minutes?$AA@
	DQ	FLAT:??_C@_05LOHOPFFC@hours?$AA@
	DQ	FLAT:??_C@_05EFKAJCNN@weeks?$AA@
	DQ	0000000000000000H
delta_members DQ FLAT:??_C@_04IJMHDAOD@days?$AA@
	DD	01H
	ORG $+4
	DQ	0000000000000068H
	DD	01H
	ORG $+4
	DQ	FLAT:??_C@_0BA@CFKEOBG@Number?5of?5days?4?$AA@
	DQ	FLAT:??_C@_07GELLIBDG@seconds?$AA@
	DD	01H
	ORG $+4
	DQ	000000000000006cH
	DD	01H
	ORG $+4
	DQ	FLAT:??_C@_0CO@EIOKLPFO@Number?5of?5seconds?5?$CI?$DO?$DN?50?5and?5less@
	DQ	FLAT:??_C@_0N@EKJJBPIN@microseconds?$AA@
	DD	01H
	ORG $+4
	DQ	0000000000000070H
	DD	01H
	ORG $+4
	DQ	FLAT:??_C@_0DG@IHOJEBBG@Number?5of?5microseconds?5?$CI?$DO?$DN?50?5and@
	DQ	0000000000000000H
	ORG $+32
delta_methods DQ FLAT:??_C@_0O@NKEEINIH@total_seconds?$AA@
	DQ	FLAT:delta_total_seconds
	DD	04H
	ORG $+4
	DQ	FLAT:??_C@_0BP@FCABBAIC@Total?5seconds?5in?5the?5duration?4?$AA@
	DQ	FLAT:??_C@_0L@NNMACJIG@__reduce__?$AA@
	DQ	FLAT:delta_reduce
	DD	04H
	ORG $+4
	DQ	FLAT:??_C@_0BN@JMEDOFNE@__reduce__?$CI?$CJ?5?9?$DO?5?$CIcls?0?5state?$CJ?$AA@
	DQ	0000000000000000H
	DQ	0000000000000000H
	ORG $+16
delta_doc DB	'Difference between two datetime values.', 00H
	ORG $+8
delta_as_number DQ FLAT:delta_add
	DQ	FLAT:delta_subtract
	DQ	FLAT:delta_multiply
	DQ	FLAT:delta_remainder
	DQ	FLAT:delta_divmod
	DQ	0000000000000000H
	DQ	FLAT:delta_negative
	DQ	FLAT:delta_positive
	DQ	FLAT:delta_abs
	DQ	FLAT:delta_bool
	DQ	0000000000000000H
	DQ	0000000000000000H
	DQ	0000000000000000H
	DQ	0000000000000000H
	DQ	0000000000000000H
	DQ	0000000000000000H
	DQ	0000000000000000H
	DQ	0000000000000000H
	DQ	0000000000000000H
	DQ	0000000000000000H
	DQ	0000000000000000H
	DQ	0000000000000000H
	DQ	0000000000000000H
	DQ	0000000000000000H
	DQ	0000000000000000H
	DQ	0000000000000000H
	DQ	0000000000000000H
	DQ	0000000000000000H
	DQ	0000000000000000H
	DQ	FLAT:delta_divide
	DQ	FLAT:delta_truedivide
	DQ	0000000000000000H
	DQ	0000000000000000H
	ORG $+8
PyDateTime_DeltaType DQ dead1234beef5678H
	DQ	dead1234beef5678H
	DQ	0000000000000000H
	ORG $+8
	DQ	0000000000000001H
	DQ	0000000000000000H
	DQ	0000000000000000H
	DQ	0000000000000000H
	DQ	dead1234beef5678H
	DQ	dead1234beef5678H
	DQ	0000000000000001H
	DQ	0000000000000000H
	DQ	0000000000000000H
	ORG $+8
	DQ	FLAT:??_C@_0BD@HJBKAPAI@datetime?4timedelta?$AA@
	DQ	0000000000000080H
	DQ	0000000000000000H
	DQ	0000000000000000H
	DQ	0000000000000000H
	DQ	0000000000000000H
	DQ	0000000000000000H
	DQ	0000000000000000H
	DQ	FLAT:delta_repr
	DQ	FLAT:delta_as_number
	DQ	0000000000000000H
	DQ	0000000000000000H
	DQ	FLAT:delta_hash
	DQ	0000000000000000H
	DQ	FLAT:delta_str
	DQ	FLAT:PyObject_GenericGetAttr
	DQ	0000000000000000H
	DQ	0000000000000000H
	DD	040400H
	ORG $+4
	DQ	FLAT:delta_doc
	DQ	0000000000000000H
	DQ	0000000000000000H
	DQ	FLAT:delta_richcompare
	DQ	0000000000000000H
	DQ	0000000000000000H
	DQ	0000000000000000H
	DQ	FLAT:delta_methods
	DQ	FLAT:delta_members
	DQ	0000000000000000H
	DQ	0000000000000000H
	DQ	0000000000000000H
	DQ	0000000000000000H
	DQ	0000000000000000H
	DQ	0000000000000000H
	DQ	0000000000000000H
	DQ	0000000000000000H
	DQ	FLAT:delta_new
	DQ	0000000000000000H
	ORG $+64
date_getset DQ	FLAT:??_C@_04JFPLDHAO@year?$AA@
	DQ	FLAT:date_year
	ORG $+24
	DQ	FLAT:??_C@_05MEBAADFH@month?$AA@
	DQ	FLAT:date_month
	ORG $+24
	DQ	FLAT:??_C@_03NNBHCDBP@day?$AA@
	DQ	FLAT:date_day
	ORG $+24
	DQ	0000000000000000H
	ORG $+32
date_kws DQ	FLAT:??_C@_04JFPLDHAO@year?$AA@
	DQ	FLAT:??_C@_05MEBAADFH@month?$AA@
	DQ	FLAT:??_C@_03NNBHCDBP@day?$AA@
	DQ	0000000000000000H
?keywords@?1??date_strftime@@9@9 DQ FLAT:??_C@_06DLEPGFEF@format?$AA@ ; `date_strftime'::`2'::keywords
	DQ	0000000000000000H
date_methods DQ	FLAT:??_C@_0O@LBDJOPJI@fromtimestamp?$AA@
	DQ	FLAT:date_fromtimestamp
	DD	011H
	ORG $+4
	DQ	FLAT:??_C@_0ED@ODEPENLP@timestamp?5?9?$DO?5local?5date?5from?5a?5P@
	DQ	FLAT:??_C@_0M@EGBEAMKN@fromordinal?$AA@
	DQ	FLAT:date_fromordinal
	DD	011H
	ORG $+4
	DQ	FLAT:??_C@_0DM@HOLBBDCF@int?5?9?$DO?5date?5corresponding?5to?5a?5p@
	DQ	FLAT:??_C@_05MGEAPCOL@today?$AA@
	DQ	FLAT:date_today
	DD	014H
	ORG $+4
	DQ	FLAT:??_C@_0EO@GEOOIIOE@Current?5date?5or?5datetime?3?5?5same?5@
	DQ	FLAT:??_C@_05NCKEBKLP@ctime?$AA@
	DQ	FLAT:date_ctime
	DD	04H
	ORG $+4
	DQ	FLAT:??_C@_0BN@GEPPPCNC@Return?5ctime?$CI?$CJ?5style?5string?4?$AA@
	DQ	FLAT:??_C@_08EPGBJPHJ@strftime?$AA@
	DQ	FLAT:date_strftime
	DD	03H
	ORG $+4
	DQ	FLAT:??_C@_0CD@LOCOCHNH@format?5?9?$DO?5strftime?$CI?$CJ?5style?5strin@
	DQ	FLAT:??_C@_0L@MEMCGMKL@__format__?$AA@
	DQ	FLAT:date_format
	DD	01H
	ORG $+4
	DQ	FLAT:??_C@_0BM@NAMMOMBA@Formats?5self?5with?5strftime?4?$AA@
	DQ	FLAT:??_C@_09BCIOHOOO@timetuple?$AA@
	DQ	FLAT:date_timetuple
	DD	04H
	ORG $+4
	DQ	FLAT:??_C@_0DF@CKKAPDOD@Return?5time?5tuple?0?5compatible?5wi@
	DQ	FLAT:??_C@_0M@NNCHLCCB@isocalendar?$AA@
	DQ	FLAT:date_isocalendar
	DD	04H
	ORG $+4
	DQ	FLAT:??_C@_0EA@IKJAEJCA@Return?5a?53?9tuple?5containing?5ISO?5@
	DQ	FLAT:??_C@_09KILOLAPA@isoformat?$AA@
	DQ	FLAT:date_isoformat
	DD	04H
	ORG $+4
	DQ	FLAT:??_C@_0CO@IHBEGEBB@Return?5string?5in?5ISO?58601?5format@
	DQ	FLAT:??_C@_0L@OLCJLGMC@isoweekday?$AA@
	DQ	FLAT:date_isoweekday
	DD	04H
	ORG $+4
	DQ	FLAT:??_C@_0FA@KMKAPEAA@Return?5the?5day?5of?5the?5week?5repre@
	DQ	FLAT:??_C@_09EONCNCPH@toordinal?$AA@
	DQ	FLAT:date_toordinal
	DD	04H
	ORG $+4
	DQ	FLAT:??_C@_0ED@NMEOEPCF@Return?5proleptic?5Gregorian?5ordin@
	DQ	FLAT:??_C@_07FALBAABE@weekday?$AA@
	DQ	FLAT:date_weekday
	DD	04H
	ORG $+4
	DQ	FLAT:??_C@_0FA@FKOJHDKA@Return?5the?5day?5of?5the?5week?5repre@
	DQ	FLAT:??_C@_07CLEHDIEJ@replace?$AA@
	DQ	FLAT:date_replace
	DD	03H
	ORG $+4
	DQ	FLAT:??_C@_0CH@GIJAIIMK@Return?5date?5with?5new?5specified?5f@
	DQ	FLAT:??_C@_0L@NNMACJIG@__reduce__?$AA@
	DQ	FLAT:date_reduce
	DD	04H
	ORG $+4
	DQ	FLAT:??_C@_0BN@JMEDOFNE@__reduce__?$CI?$CJ?5?9?$DO?5?$CIcls?0?5state?$CJ?$AA@
	DQ	0000000000000000H
	DQ	0000000000000000H
	ORG $+16
date_doc DB	'date(year, month, day) --> date object', 00H
	ORG $+9
date_as_number DQ FLAT:date_add
	DQ	FLAT:date_subtract
	DQ	0000000000000000H
	DQ	0000000000000000H
	DQ	0000000000000000H
	DQ	0000000000000000H
	DQ	0000000000000000H
	DQ	0000000000000000H
	DQ	0000000000000000H
	DQ	0000000000000000H
	ORG $+192
PyDateTime_DateType DQ dead1234beef5678H
	DQ	dead1234beef5678H
	DQ	0000000000000000H
	ORG $+8
	DQ	0000000000000001H
	DQ	0000000000000000H
	DQ	0000000000000000H
	DQ	0000000000000000H
	DQ	dead1234beef5678H
	DQ	dead1234beef5678H
	DQ	0000000000000001H
	DQ	0000000000000000H
	DQ	0000000000000000H
	ORG $+8
	DQ	FLAT:??_C@_0O@GKGBLLNG@datetime?4date?$AA@
	DQ	0000000000000070H
	DQ	0000000000000000H
	DQ	0000000000000000H
	DQ	0000000000000000H
	DQ	0000000000000000H
	DQ	0000000000000000H
	DQ	0000000000000000H
	DQ	FLAT:date_repr
	DQ	FLAT:date_as_number
	DQ	0000000000000000H
	DQ	0000000000000000H
	DQ	FLAT:date_hash
	DQ	0000000000000000H
	DQ	FLAT:date_str
	DQ	FLAT:PyObject_GenericGetAttr
	DQ	0000000000000000H
	DQ	0000000000000000H
	DD	040400H
	ORG $+4
	DQ	FLAT:date_doc
	DQ	0000000000000000H
	DQ	0000000000000000H
	DQ	FLAT:date_richcompare
	DQ	0000000000000000H
	DQ	0000000000000000H
	DQ	0000000000000000H
	DQ	FLAT:date_methods
	DQ	0000000000000000H
	DQ	FLAT:date_getset
	DQ	0000000000000000H
	DQ	0000000000000000H
	DQ	0000000000000000H
	DQ	0000000000000000H
	DQ	0000000000000000H
	DQ	0000000000000000H
	DQ	0000000000000000H
	DQ	FLAT:date_new
	DQ	0000000000000000H
	ORG $+64
tzinfo_methods DQ FLAT:??_C@_06CNBAGEMF@tzname?$AA@
	DQ	FLAT:tzinfo_tzname
	DD	08H
	ORG $+4
	DQ	FLAT:??_C@_0CG@ECFLPKO@datetime?5?9?$DO?5string?5name?5of?5time?5@
	DQ	FLAT:??_C@_09DGNKAEDJ@utcoffset?$AA@
	DQ	FLAT:tzinfo_utcoffset
	DD	08H
	ORG $+4
	DQ	FLAT:??_C@_0FG@KHADFGHJ@datetime?5?9?$DO?5timedelta?5showing?5of@
	DQ	FLAT:??_C@_03HHBLCKEM@dst?$AA@
	DQ	FLAT:tzinfo_dst
	DD	08H
	ORG $+4
	DQ	FLAT:??_C@_0CP@CILGLPLI@datetime?5?9?$DO?5DST?5offset?5in?5minute@
	DQ	FLAT:??_C@_07COGHOOJN@fromutc?$AA@
	DQ	FLAT:tzinfo_fromutc
	DD	08H
	ORG $+4
	DQ	FLAT:??_C@_0CL@PFDHOCLO@datetime?5in?5UTC?5?9?$DO?5datetime?5in?5l@
	DQ	FLAT:??_C@_0L@NNMACJIG@__reduce__?$AA@
	DQ	FLAT:tzinfo_reduce
	DD	04H
	ORG $+4
	DQ	FLAT:??_C@_0BA@IKFFDJGA@?9?$DO?5?$CIcls?0?5state?$CJ?$AA@
	DQ	0000000000000000H
	DQ	0000000000000000H
	ORG $+16
tzinfo_doc DB	'Abstract base class for time zone info objects.', 00H
PyDateTime_TZInfoType DQ dead1234beef5678H
	DQ	dead1234beef5678H
	DQ	0000000000000000H
	ORG $+8
	DQ	0000000000000001H
	DQ	0000000000000000H
	DQ	0000000000000000H
	DQ	0000000000000000H
	DQ	dead1234beef5678H
	DQ	dead1234beef5678H
	DQ	0000000000000001H
	DQ	0000000000000000H
	DQ	0000000000000000H
	ORG $+8
	DQ	FLAT:??_C@_0BA@GEFABIKC@datetime?4tzinfo?$AA@
	DQ	0000000000000060H
	DQ	0000000000000000H
	DQ	0000000000000000H
	DQ	0000000000000000H
	DQ	0000000000000000H
	DQ	0000000000000000H
	DQ	0000000000000000H
	DQ	0000000000000000H
	DQ	0000000000000000H
	DQ	0000000000000000H
	DQ	0000000000000000H
	DQ	0000000000000000H
	DQ	0000000000000000H
	DQ	0000000000000000H
	DQ	FLAT:PyObject_GenericGetAttr
	DQ	0000000000000000H
	DQ	0000000000000000H
	DD	040400H
	ORG $+4
	DQ	FLAT:tzinfo_doc
	DQ	0000000000000000H
	DQ	0000000000000000H
	DQ	0000000000000000H
	DQ	0000000000000000H
	DQ	0000000000000000H
	DQ	0000000000000000H
	DQ	FLAT:tzinfo_methods
	DQ	0000000000000000H
	DQ	0000000000000000H
	DQ	0000000000000000H
	DQ	0000000000000000H
	DQ	0000000000000000H
	DQ	0000000000000000H
	DQ	0000000000000000H
	DQ	0000000000000000H
	DQ	0000000000000000H
	DQ	FLAT:PyType_GenericNew
	DQ	0000000000000000H
	ORG $+64
timezone_kws DQ	FLAT:??_C@_06KLHHMIGM@offset?$AA@
	DQ	FLAT:??_C@_04MEMAJGDJ@name?$AA@
	DQ	0000000000000000H
	ORG $+8
timezone_methods DQ FLAT:??_C@_06CNBAGEMF@tzname?$AA@
	DQ	FLAT:timezone_tzname
	DD	08H
	ORG $+4
	DQ	FLAT:??_C@_0GP@EEKHNJLP@If?5name?5is?5specified?5when?5timezo@
	DQ	FLAT:??_C@_09DGNKAEDJ@utcoffset?$AA@
	DQ	FLAT:timezone_utcoffset
	DD	08H
	ORG $+4
	DQ	FLAT:??_C@_0BF@NDKIKJK@Return?5fixed?5offset?4?$AA@
	DQ	FLAT:??_C@_03HHBLCKEM@dst?$AA@
	DQ	FLAT:timezone_dst
	DD	08H
	ORG $+4
	DQ	FLAT:??_C@_0N@BDGMCEOD@Return?5None?4?$AA@
	DQ	FLAT:??_C@_07COGHOOJN@fromutc?$AA@
	DQ	FLAT:timezone_fromutc
	DD	08H
	ORG $+4
	DQ	FLAT:??_C@_0CL@PFDHOCLO@datetime?5in?5UTC?5?9?$DO?5datetime?5in?5l@
	DQ	FLAT:??_C@_0BA@NHLJJDN@__getinitargs__?$AA@
	DQ	FLAT:timezone_getinitargs
	DD	04H
	ORG $+4
	DQ	FLAT:??_C@_0P@BIOPACEL@pickle?5support?$AA@
	DQ	0000000000000000H
	DQ	0000000000000000H
	ORG $+16
timezone_doc DB	'Fixed offset from UTC implementation of tzinfo.', 00H
PyDateTime_TimeZoneType DQ dead1234beef5678H
	DQ	dead1234beef5678H
	DQ	0000000000000000H
	ORG $+8
	DQ	0000000000000001H
	DQ	0000000000000000H
	DQ	0000000000000000H
	DQ	0000000000000000H
	DQ	dead1234beef5678H
	DQ	dead1234beef5678H
	DQ	0000000000000001H
	DQ	0000000000000000H
	DQ	0000000000000000H
	ORG $+8
	DQ	FLAT:??_C@_0BC@BMDCMDDO@datetime?4timezone?$AA@
	DQ	0000000000000070H
	DQ	0000000000000000H
	DQ	FLAT:timezone_dealloc
	DQ	0000000000000000H
	DQ	0000000000000000H
	DQ	0000000000000000H
	DQ	0000000000000000H
	DQ	FLAT:timezone_repr
	DQ	0000000000000000H
	DQ	0000000000000000H
	DQ	0000000000000000H
	DQ	FLAT:timezone_hash
	DQ	0000000000000000H
	DQ	FLAT:timezone_str
	DQ	0000000000000000H
	DQ	0000000000000000H
	DQ	0000000000000000H
	DD	040000H
	ORG $+4
	DQ	FLAT:timezone_doc
	DQ	0000000000000000H
	DQ	0000000000000000H
	DQ	FLAT:timezone_richcompare
	DQ	0000000000000000H
	DQ	0000000000000000H
	DQ	0000000000000000H
	DQ	FLAT:timezone_methods
	DQ	0000000000000000H
	DQ	0000000000000000H
	DQ	FLAT:PyDateTime_TZInfoType
	DQ	0000000000000000H
	DQ	0000000000000000H
	DQ	0000000000000000H
	DQ	0000000000000000H
	DQ	0000000000000000H
	DQ	0000000000000000H
	DQ	FLAT:timezone_new
	ORG $+72
time_getset DQ	FLAT:??_C@_04LMOJGCPE@hour?$AA@
	DQ	FLAT:time_hour
	ORG $+24
	DQ	FLAT:??_C@_06JGJIJFNK@minute?$AA@
	DQ	FLAT:time_minute
	ORG $+24
	DQ	FLAT:??_C@_06BJCFNGJP@second?$AA@
	DQ	FLAT:py_time_second
	ORG $+24
	DQ	FLAT:??_C@_0M@IPLGOMOC@microsecond?$AA@
	DQ	FLAT:time_microsecond
	ORG $+24
	DQ	FLAT:??_C@_06DBOJKPOI@tzinfo?$AA@
	DQ	FLAT:time_tzinfo
	ORG $+24
	DQ	0000000000000000H
	ORG $+32
time_kws DQ	FLAT:??_C@_04LMOJGCPE@hour?$AA@
	DQ	FLAT:??_C@_06JGJIJFNK@minute?$AA@
	DQ	FLAT:??_C@_06BJCFNGJP@second?$AA@
	DQ	FLAT:??_C@_0M@IPLGOMOC@microsecond?$AA@
	DQ	FLAT:??_C@_06DBOJKPOI@tzinfo?$AA@
	DQ	0000000000000000H
?keywords@?1??time_strftime@@9@9 DQ FLAT:??_C@_06DLEPGFEF@format?$AA@ ; `time_strftime'::`2'::keywords
	DQ	0000000000000000H
time_methods DQ	FLAT:??_C@_09KILOLAPA@isoformat?$AA@
	DQ	FLAT:time_isoformat
	DD	04H
	ORG $+4
	DQ	FLAT:??_C@_0DN@HPEMOKB@Return?5string?5in?5ISO?58601?5format@
	DQ	FLAT:??_C@_08EPGBJPHJ@strftime?$AA@
	DQ	FLAT:time_strftime
	DD	03H
	ORG $+4
	DQ	FLAT:??_C@_0CD@LOCOCHNH@format?5?9?$DO?5strftime?$CI?$CJ?5style?5strin@
	DQ	FLAT:??_C@_0L@MEMCGMKL@__format__?$AA@
	DQ	FLAT:date_format
	DD	01H
	ORG $+4
	DQ	FLAT:??_C@_0BM@NAMMOMBA@Formats?5self?5with?5strftime?4?$AA@
	DQ	FLAT:??_C@_09DGNKAEDJ@utcoffset?$AA@
	DQ	FLAT:time_utcoffset
	DD	04H
	ORG $+4
	DQ	FLAT:??_C@_0CE@LHGMAHOI@Return?5self?4tzinfo?4utcoffset?$CIsel@
	DQ	FLAT:??_C@_06CNBAGEMF@tzname?$AA@
	DQ	FLAT:time_tzname
	DD	04H
	ORG $+4
	DQ	FLAT:??_C@_0CB@BKFJMHAP@Return?5self?4tzinfo?4tzname?$CIself?$CJ?4@
	DQ	FLAT:??_C@_03HHBLCKEM@dst?$AA@
	DQ	FLAT:time_dst
	DD	04H
	ORG $+4
	DQ	FLAT:??_C@_0BO@PCCLEJIH@Return?5self?4tzinfo?4dst?$CIself?$CJ?4?$AA@
	DQ	FLAT:??_C@_07CLEHDIEJ@replace?$AA@
	DQ	FLAT:time_replace
	DD	03H
	ORG $+4
	DQ	FLAT:??_C@_0CH@HGAMGBKA@Return?5time?5with?5new?5specified?5f@
	DQ	FLAT:??_C@_0L@NNMACJIG@__reduce__?$AA@
	DQ	FLAT:time_reduce
	DD	04H
	ORG $+4
	DQ	FLAT:??_C@_0BN@JMEDOFNE@__reduce__?$CI?$CJ?5?9?$DO?5?$CIcls?0?5state?$CJ?$AA@
	DQ	0000000000000000H
	DQ	0000000000000000H
	ORG $+16
time_doc DB	'time([hour[, minute[, second[, microsecond[, tzinfo]]]]]'
	DB	') --> a time object', 0aH, 0aH, 'All arguments are optional. '
	DB	'tzinfo may be None, or an instance of', 0aH, 'a tzinfo subcla'
	DB	'ss. The remaining arguments may be ints.', 0aH, 00H
	ORG $+8
time_as_number DQ 0000000000000000H
	DQ	0000000000000000H
	DQ	0000000000000000H
	DQ	0000000000000000H
	DQ	0000000000000000H
	DQ	0000000000000000H
	DQ	0000000000000000H
	DQ	0000000000000000H
	DQ	0000000000000000H
	DQ	FLAT:time_bool
	ORG $+192
PyDateTime_TimeType DQ dead1234beef5678H
	DQ	dead1234beef5678H
	DQ	0000000000000000H
	ORG $+8
	DQ	0000000000000001H
	DQ	0000000000000000H
	DQ	0000000000000000H
	DQ	0000000000000000H
	DQ	dead1234beef5678H
	DQ	dead1234beef5678H
	DQ	0000000000000001H
	DQ	0000000000000000H
	DQ	0000000000000000H
	ORG $+8
	DQ	FLAT:??_C@_0O@NMMCJMEE@datetime?4time?$AA@
	DQ	0000000000000080H
	DQ	0000000000000000H
	DQ	FLAT:time_dealloc
	DQ	0000000000000000H
	DQ	0000000000000000H
	DQ	0000000000000000H
	DQ	0000000000000000H
	DQ	FLAT:time_repr
	DQ	FLAT:time_as_number
	DQ	0000000000000000H
	DQ	0000000000000000H
	DQ	FLAT:time_hash
	DQ	0000000000000000H
	DQ	FLAT:time_str
	DQ	FLAT:PyObject_GenericGetAttr
	DQ	0000000000000000H
	DQ	0000000000000000H
	DD	040400H
	ORG $+4
	DQ	FLAT:time_doc
	DQ	0000000000000000H
	DQ	0000000000000000H
	DQ	FLAT:time_richcompare
	DQ	0000000000000000H
	DQ	0000000000000000H
	DQ	0000000000000000H
	DQ	FLAT:time_methods
	DQ	0000000000000000H
	DQ	FLAT:time_getset
	DQ	0000000000000000H
	DQ	0000000000000000H
	DQ	0000000000000000H
	DQ	0000000000000000H
	DQ	0000000000000000H
	DQ	0000000000000000H
	DQ	FLAT:time_alloc
	DQ	FLAT:time_new
	DQ	0000000000000000H
	ORG $+64
datetime_getset DQ FLAT:??_C@_04LMOJGCPE@hour?$AA@
	DQ	FLAT:datetime_hour
	ORG $+24
	DQ	FLAT:??_C@_06JGJIJFNK@minute?$AA@
	DQ	FLAT:datetime_minute
	ORG $+24
	DQ	FLAT:??_C@_06BJCFNGJP@second?$AA@
	DQ	FLAT:datetime_second
	ORG $+24
	DQ	FLAT:??_C@_0M@IPLGOMOC@microsecond?$AA@
	DQ	FLAT:datetime_microsecond
	ORG $+24
	DQ	FLAT:??_C@_06DBOJKPOI@tzinfo?$AA@
	DQ	FLAT:datetime_tzinfo
	ORG $+24
	DQ	0000000000000000H
	ORG $+32
datetime_kws DQ	FLAT:??_C@_04JFPLDHAO@year?$AA@
	DQ	FLAT:??_C@_05MEBAADFH@month?$AA@
	DQ	FLAT:??_C@_03NNBHCDBP@day?$AA@
	DQ	FLAT:??_C@_04LMOJGCPE@hour?$AA@
	DQ	FLAT:??_C@_06JGJIJFNK@minute?$AA@
	DQ	FLAT:??_C@_06BJCFNGJP@second?$AA@
	DQ	FLAT:??_C@_0M@IPLGOMOC@microsecond?$AA@
	DQ	FLAT:??_C@_06DBOJKPOI@tzinfo?$AA@
	DQ	0000000000000000H
?keywords@?1??datetime_now@@9@9 DQ FLAT:??_C@_02IGJGHHBN@tz?$AA@ ; `datetime_now'::`2'::keywords
	DQ	0000000000000000H
?keywords@?1??datetime_fromtimestamp@@9@9 DQ FLAT:??_C@_09OMDJNLDP@timestamp?$AA@ ; `datetime_fromtimestamp'::`2'::keywords
	DQ	FLAT:??_C@_02IGJGHHBN@tz?$AA@
	DQ	0000000000000000H
?keywords@?1??datetime_combine@@9@9 DQ FLAT:??_C@_04JNIHBGGH@date?$AA@ ; `datetime_combine'::`2'::keywords
	DQ	FLAT:??_C@_04CLCEDBPF@time?$AA@
	DQ	0000000000000000H
?keywords@?1??datetime_isoformat@@9@9 DQ FLAT:??_C@_03MGBCFPKM@sep?$AA@ ; `datetime_isoformat'::`2'::keywords
	DQ	0000000000000000H
?keywords@?1??datetime_astimezone@@9@9 DQ FLAT:??_C@_02IGJGHHBN@tz?$AA@ ; `datetime_astimezone'::`2'::keywords
	DQ	0000000000000000H
	ORG $+8
datetime_methods DQ FLAT:??_C@_03CGLHMDPP@now?$AA@
	DQ	FLAT:datetime_now
	DD	013H
	ORG $+4
	DQ	FLAT:??_C@_0DD@JPPGJGOI@?$FLtz?$FN?5?9?$DO?5new?5datetime?5with?5tz?8s?5l@
	DQ	FLAT:??_C@_06GKOOHOFL@utcnow?$AA@
	DQ	FLAT:datetime_utcnow
	DD	014H
	ORG $+4
	DQ	FLAT:??_C@_0DF@OGGJLCPO@Return?5a?5new?5datetime?5representi@
	DQ	FLAT:??_C@_0O@LBDJOPJI@fromtimestamp?$AA@
	DQ	FLAT:datetime_fromtimestamp
	DD	013H
	ORG $+4
	DQ	FLAT:??_C@_0DJ@MJHLLJLE@timestamp?$FL?0?5tz?$FN?5?9?$DO?5tz?8s?5local?5ti@
	DQ	FLAT:??_C@_0BB@GBGDJFBJ@utcfromtimestamp?$AA@
	DQ	FLAT:datetime_utcfromtimestamp
	DD	011H
	ORG $+4
	DQ	FLAT:??_C@_0EF@KHGJAJAA@timestamp?5?9?$DO?5UTC?5datetime?5from?5a@
	DQ	FLAT:??_C@_08JKOOHOPP@strptime?$AA@
	DQ	FLAT:datetime_strptime
	DD	011H
	ORG $+4
	DQ	FLAT:??_C@_0EM@OMBKPNCM@string?0?5format?5?9?$DO?5new?5datetime?5p@
	DQ	FLAT:??_C@_07PCDCECCK@combine?$AA@
	DQ	FLAT:datetime_combine
	DD	013H
	ORG $+4
	DQ	FLAT:??_C@_0DG@POLGFJIG@date?0?5time?5?9?$DO?5datetime?5with?5same@
	DQ	FLAT:??_C@_04JNIHBGGH@date?$AA@
	DQ	FLAT:datetime_getdate
	DD	04H
	ORG $+4
	DQ	FLAT:??_C@_0DC@LNOALPPA@Return?5date?5object?5with?5same?5yea@
	DQ	FLAT:??_C@_04CLCEDBPF@time?$AA@
	DQ	FLAT:datetime_gettime
	DD	04H
	ORG $+4
	DQ	FLAT:??_C@_0DI@BHDEBDDH@Return?5time?5object?5with?5same?5tim@
	DQ	FLAT:??_C@_06LODNGPBG@timetz?$AA@
	DQ	FLAT:datetime_gettimetz
	DD	04H
	ORG $+4
	DQ	FLAT:??_C@_0CO@LKCKICLJ@Return?5time?5object?5with?5same?5tim@
	DQ	FLAT:??_C@_05NCKEBKLP@ctime?$AA@
	DQ	FLAT:datetime_ctime
	DD	04H
	ORG $+4
	DQ	FLAT:??_C@_0BN@GEPPPCNC@Return?5ctime?$CI?$CJ?5style?5string?4?$AA@
	DQ	FLAT:??_C@_09BCIOHOOO@timetuple?$AA@
	DQ	FLAT:datetime_timetuple
	DD	04H
	ORG $+4
	DQ	FLAT:??_C@_0DF@CKKAPDOD@Return?5time?5tuple?0?5compatible?5wi@
	DQ	FLAT:??_C@_09OMDJNLDP@timestamp?$AA@
	DQ	FLAT:datetime_timestamp
	DD	04H
	ORG $+4
	DQ	FLAT:??_C@_0CB@CCPKKINL@Return?5POSIX?5timestamp?5as?5float?4@
	DQ	FLAT:??_C@_0N@LHNBNFDP@utctimetuple?$AA@
	DQ	FLAT:datetime_utctimetuple
	DD	04H
	ORG $+4
	DQ	FLAT:??_C@_0DJ@MGNAKBHL@Return?5UTC?5time?5tuple?0?5compatibl@
	DQ	FLAT:??_C@_09KILOLAPA@isoformat?$AA@
	DQ	FLAT:datetime_isoformat
	DD	03H
	ORG $+4
	DQ	FLAT:??_C@_0JA@IBIENBBE@?$FLsep?$FN?5?9?$DO?5string?5in?5ISO?58601?5form@
	DQ	FLAT:??_C@_09DGNKAEDJ@utcoffset?$AA@
	DQ	FLAT:datetime_utcoffset
	DD	04H
	ORG $+4
	DQ	FLAT:??_C@_0CE@LHGMAHOI@Return?5self?4tzinfo?4utcoffset?$CIsel@
	DQ	FLAT:??_C@_06CNBAGEMF@tzname?$AA@
	DQ	FLAT:datetime_tzname
	DD	04H
	ORG $+4
	DQ	FLAT:??_C@_0CB@BKFJMHAP@Return?5self?4tzinfo?4tzname?$CIself?$CJ?4@
	DQ	FLAT:??_C@_03HHBLCKEM@dst?$AA@
	DQ	FLAT:datetime_dst
	DD	04H
	ORG $+4
	DQ	FLAT:??_C@_0BO@PCCLEJIH@Return?5self?4tzinfo?4dst?$CIself?$CJ?4?$AA@
	DQ	FLAT:??_C@_07CLEHDIEJ@replace?$AA@
	DQ	FLAT:datetime_replace
	DD	03H
	ORG $+4
	DQ	FLAT:??_C@_0CL@IFILGCIP@Return?5datetime?5with?5new?5specifi@
	DQ	FLAT:??_C@_0L@ECALMFAG@astimezone?$AA@
	DQ	FLAT:datetime_astimezone
	DD	03H
	ORG $+4
	DQ	FLAT:??_C@_0DA@OEACLEJI@tz?5?9?$DO?5convert?5to?5local?5time?5in?5n@
	DQ	FLAT:??_C@_0L@NNMACJIG@__reduce__?$AA@
	DQ	FLAT:datetime_reduce
	DD	04H
	ORG $+4
	DQ	FLAT:??_C@_0BN@JMEDOFNE@__reduce__?$CI?$CJ?5?9?$DO?5?$CIcls?0?5state?$CJ?$AA@
	DQ	0000000000000000H
	DQ	0000000000000000H
	ORG $+16
datetime_doc DB	'datetime(year, month, day[, hour[, minute[, second[, mic'
	DB	'rosecond[,tzinfo]]]]])', 0aH, 0aH, 'The year, month and day a'
	DB	'rguments are required. tzinfo may be None, or an', 0aH, 'inst'
	DB	'ance of a tzinfo subclass. The remaining arguments may be int'
	DB	's.', 0aH, 00H
	ORG $+1
datetime_as_number DQ FLAT:datetime_add
	DQ	FLAT:datetime_subtract
	DQ	0000000000000000H
	DQ	0000000000000000H
	DQ	0000000000000000H
	DQ	0000000000000000H
	DQ	0000000000000000H
	DQ	0000000000000000H
	DQ	0000000000000000H
	DQ	0000000000000000H
	ORG $+192
PyDateTime_DateTimeType DQ dead1234beef5678H
	DQ	dead1234beef5678H
	DQ	0000000000000000H
	ORG $+8
	DQ	0000000000000001H
	DQ	0000000000000000H
	DQ	0000000000000000H
	DQ	0000000000000000H
	DQ	dead1234beef5678H
	DQ	dead1234beef5678H
	DQ	0000000000000001H
	DQ	0000000000000000H
	DQ	0000000000000000H
	ORG $+8
	DQ	FLAT:??_C@_0BC@JEMBMAD@datetime?4datetime?$AA@
	DQ	0000000000000080H
	DQ	0000000000000000H
	DQ	FLAT:datetime_dealloc
	DQ	0000000000000000H
	DQ	0000000000000000H
	DQ	0000000000000000H
	DQ	0000000000000000H
	DQ	FLAT:datetime_repr
	DQ	FLAT:datetime_as_number
	DQ	0000000000000000H
	DQ	0000000000000000H
	DQ	FLAT:datetime_hash
	DQ	0000000000000000H
	DQ	FLAT:datetime_str
	DQ	FLAT:PyObject_GenericGetAttr
	DQ	0000000000000000H
	DQ	0000000000000000H
	DD	040400H
	ORG $+4
	DQ	FLAT:datetime_doc
	DQ	0000000000000000H
	DQ	0000000000000000H
	DQ	FLAT:datetime_richcompare
	DQ	0000000000000000H
	DQ	0000000000000000H
	DQ	0000000000000000H
	DQ	FLAT:datetime_methods
	DQ	0000000000000000H
	DQ	FLAT:datetime_getset
	DQ	FLAT:PyDateTime_DateType
	DQ	0000000000000000H
	DQ	0000000000000000H
	DQ	0000000000000000H
	DQ	0000000000000000H
	DQ	0000000000000000H
	DQ	FLAT:datetime_alloc
	DQ	FLAT:datetime_new
	DQ	0000000000000000H
	ORG $+64
CAPI	DQ	FLAT:PyDateTime_DateType
	DQ	FLAT:PyDateTime_DateTimeType
	DQ	FLAT:PyDateTime_TimeType
	DQ	FLAT:PyDateTime_DeltaType
	DQ	FLAT:PyDateTime_TZInfoType
	DQ	FLAT:new_date_ex
	DQ	FLAT:new_datetime_ex
	DQ	FLAT:new_time_ex
	DQ	FLAT:new_delta_ex
	DQ	FLAT:datetime_fromtimestamp
	DQ	FLAT:date_fromtimestamp
	ORG $+8
datetimemodule DQ dead1234beef5678H
	DQ	dead1234beef5678H
	DQ	0000000000000000H
	ORG $+8
	DQ	0000000000000001H
	DQ	0000000000000000H
	DQ	0000000000000000H
	DQ	0000000000000000H
	DQ	dead1234beef5678H
	DQ	dead1234beef5678H
	DQ	0000000000000001H
	DQ	0000000000000000H
	DQ	0000000000000000H
	DQ	0000000000000000H
	DQ	0000000000000000H
	ORG $+8
	DQ	FLAT:??_C@_09BLEDGJAH@_datetime?$AA@
	DQ	FLAT:??_C@_0CK@LPNFBAGO@Fast?5implementation?5of?5the?5datet@
	DQ	ffffffffffffffffH
	DQ	FLAT:module_methods
	DQ	0000000000000000H
	DQ	0000000000000000H
	DQ	0000000000000000H
	DQ	0000000000000000H
_DATA	ENDS
EXTRN	PyErr_NoMemory:PROC
EXTRN	_PyObject_DebugMalloc:PROC
;	COMDAT pdata
; File c:\src\pyparallel\modules\_datetimemodule.c
pdata	SEGMENT
$pdata$time_alloc DD imagerel time_alloc
	DD	imagerel time_alloc+97
	DD	imagerel $unwind$time_alloc
pdata	ENDS
;	COMDAT xdata
xdata	SEGMENT
$unwind$time_alloc DD 010e01H
	DD	0620eH
; Function compile flags: /Odtp
xdata	ENDS
;	COMDAT time_alloc
_TEXT	SEGMENT
self$ = 32
tv66 = 40
type$ = 64
aware$ = 72
time_alloc PROC						; COMDAT

; 609  : {

  00000	48 89 54 24 10	 mov	 QWORD PTR [rsp+16], rdx
  00005	48 89 4c 24 08	 mov	 QWORD PTR [rsp+8], rcx
  0000a	48 83 ec 38	 sub	 rsp, 56			; 00000038H

; 610  :     PyObject *self;
; 611  : 
; 612  :     self = (PyObject *)
; 613  :         PyObject_MALLOC(aware ?
; 614  :                         sizeof(PyDateTime_Time) :
; 615  :                 sizeof(_PyDateTime_BaseTime));

  0000e	48 83 7c 24 48
	00		 cmp	 QWORD PTR aware$[rsp], 0
  00014	74 0b		 je	 SHORT $LN4@time_alloc
  00016	48 c7 44 24 28
	80 00 00 00	 mov	 QWORD PTR tv66[rsp], 128 ; 00000080H
  0001f	eb 09		 jmp	 SHORT $LN5@time_alloc
$LN4@time_alloc:
  00021	48 c7 44 24 28
	70 00 00 00	 mov	 QWORD PTR tv66[rsp], 112 ; 00000070H
$LN5@time_alloc:
  0002a	48 8b 4c 24 28	 mov	 rcx, QWORD PTR tv66[rsp]
  0002f	e8 00 00 00 00	 call	 _PyObject_DebugMalloc
  00034	48 89 44 24 20	 mov	 QWORD PTR self$[rsp], rax

; 616  :     if (self == NULL)

  00039	48 83 7c 24 20
	00		 cmp	 QWORD PTR self$[rsp], 0
  0003f	75 07		 jne	 SHORT $LN1@time_alloc

; 617  :         return (PyObject *)PyErr_NoMemory();

  00041	e8 00 00 00 00	 call	 PyErr_NoMemory
  00046	eb 14		 jmp	 SHORT $LN2@time_alloc
$LN1@time_alloc:

; 618  :     PyObject_INIT(self, type);

  00048	48 8b 54 24 40	 mov	 rdx, QWORD PTR type$[rsp]
  0004d	48 8b 4c 24 20	 mov	 rcx, QWORD PTR self$[rsp]
  00052	e8 00 00 00 00	 call	 PyObject_INIT

; 619  :     return self;

  00057	48 8b 44 24 20	 mov	 rax, QWORD PTR self$[rsp]
$LN2@time_alloc:

; 620  : }

  0005c	48 83 c4 38	 add	 rsp, 56			; 00000038H
  00060	c3		 ret	 0
time_alloc ENDP
_TEXT	ENDS
EXTRN	_Py_NewReference:PROC
EXTRN	_PxObject_Init:PROC
EXTRN	_Py_PXCTX:PROC
;	COMDAT pdata
; File c:\src\pyparallel\include\objimpl.h
pdata	SEGMENT
$pdata$PyObject_INIT DD imagerel PyObject_INIT
	DD	imagerel PyObject_INIT+84
	DD	imagerel $unwind$PyObject_INIT
pdata	ENDS
;	COMDAT xdata
xdata	SEGMENT
$unwind$PyObject_INIT DD 010e01H
	DD	0420eH
; Function compile flags: /Odtp
xdata	ENDS
;	COMDAT PyObject_INIT
_TEXT	SEGMENT
op$ = 48
tp$ = 56
PyObject_INIT PROC					; COMDAT

; 236  : {

  00000	48 89 54 24 10	 mov	 QWORD PTR [rsp+16], rdx
  00005	48 89 4c 24 08	 mov	 QWORD PTR [rsp+8], rcx
  0000a	48 83 ec 28	 sub	 rsp, 40			; 00000028H

; 237  :     Px_RETURN(_PxObject_Init(op, tp))

  0000e	e8 00 00 00 00	 call	 _Py_PXCTX
  00013	85 c0		 test	 eax, eax
  00015	74 11		 je	 SHORT $LN1@PyObject_I
  00017	48 8b 54 24 38	 mov	 rdx, QWORD PTR tp$[rsp]
  0001c	48 8b 4c 24 30	 mov	 rcx, QWORD PTR op$[rsp]
  00021	e8 00 00 00 00	 call	 _PxObject_Init
  00026	eb 27		 jmp	 SHORT $LN2@PyObject_I
$LN1@PyObject_I:

; 238  :     Py_TYPE(op) = tp;

  00028	48 8b 44 24 30	 mov	 rax, QWORD PTR op$[rsp]
  0002d	48 8b 4c 24 38	 mov	 rcx, QWORD PTR tp$[rsp]
  00032	48 89 48 58	 mov	 QWORD PTR [rax+88], rcx

; 239  :     _PyObject_InitHead(op);

  00036	48 8b 4c 24 30	 mov	 rcx, QWORD PTR op$[rsp]
  0003b	e8 00 00 00 00	 call	 _PyObject_InitHead

; 240  :     _Py_NewReference(op);

  00040	48 8b 4c 24 30	 mov	 rcx, QWORD PTR op$[rsp]
  00045	e8 00 00 00 00	 call	 _Py_NewReference

; 241  :     return op;

  0004a	48 8b 44 24 30	 mov	 rax, QWORD PTR op$[rsp]
$LN2@PyObject_I:

; 242  : }

  0004f	48 83 c4 28	 add	 rsp, 40			; 00000028H
  00053	c3		 ret	 0
PyObject_INIT ENDP
_TEXT	ENDS
PUBLIC	??_C@_1BI@GPFDFIDP@?$AAP?$AAy?$AA_?$AAT?$AAY?$AAP?$AAE?$AA?$CI?$AAo?$AAp?$AA?$CJ?$AA?$AA@ ; `string'
PUBLIC	??_C@_1EI@MBCBHLGB@?$AAc?$AA?3?$AA?2?$AAs?$AAr?$AAc?$AA?2?$AAp?$AAy?$AAp?$AAa?$AAr?$AAa?$AAl?$AAl?$AAe?$AAl?$AA?2?$AAi?$AAn?$AAc?$AAl?$AAu?$AAd?$AAe?$AA?2?$AAo?$AAb?$AAj?$AAi?$AAm?$AAp@ ; `string'
EXTRN	__imp__wassert:PROC
;	COMDAT pdata
pdata	SEGMENT
$pdata$_PyObject_InitHead DD imagerel _PyObject_InitHead
	DD	imagerel _PyObject_InitHead+182
	DD	imagerel $unwind$_PyObject_InitHead
pdata	ENDS
;	COMDAT xdata
xdata	SEGMENT
$unwind$_PyObject_InitHead DD 010901H
	DD	04209H
xdata	ENDS
;	COMDAT ??_C@_1BI@GPFDFIDP@?$AAP?$AAy?$AA_?$AAT?$AAY?$AAP?$AAE?$AA?$CI?$AAo?$AAp?$AA?$CJ?$AA?$AA@
CONST	SEGMENT
??_C@_1BI@GPFDFIDP@?$AAP?$AAy?$AA_?$AAT?$AAY?$AAP?$AAE?$AA?$CI?$AAo?$AAp?$AA?$CJ?$AA?$AA@ DB 'P'
	DB	00H, 'y', 00H, '_', 00H, 'T', 00H, 'Y', 00H, 'P', 00H, 'E', 00H
	DB	'(', 00H, 'o', 00H, 'p', 00H, ')', 00H, 00H, 00H ; `string'
CONST	ENDS
;	COMDAT ??_C@_1EI@MBCBHLGB@?$AAc?$AA?3?$AA?2?$AAs?$AAr?$AAc?$AA?2?$AAp?$AAy?$AAp?$AAa?$AAr?$AAa?$AAl?$AAl?$AAe?$AAl?$AA?2?$AAi?$AAn?$AAc?$AAl?$AAu?$AAd?$AAe?$AA?2?$AAo?$AAb?$AAj?$AAi?$AAm?$AAp@
CONST	SEGMENT
??_C@_1EI@MBCBHLGB@?$AAc?$AA?3?$AA?2?$AAs?$AAr?$AAc?$AA?2?$AAp?$AAy?$AAp?$AAa?$AAr?$AAa?$AAl?$AAl?$AAe?$AAl?$AA?2?$AAi?$AAn?$AAc?$AAl?$AAu?$AAd?$AAe?$AA?2?$AAo?$AAb?$AAj?$AAi?$AAm?$AAp@ DB 'c'
	DB	00H, ':', 00H, '\', 00H, 's', 00H, 'r', 00H, 'c', 00H, '\', 00H
	DB	'p', 00H, 'y', 00H, 'p', 00H, 'a', 00H, 'r', 00H, 'a', 00H, 'l'
	DB	00H, 'l', 00H, 'e', 00H, 'l', 00H, '\', 00H, 'i', 00H, 'n', 00H
	DB	'c', 00H, 'l', 00H, 'u', 00H, 'd', 00H, 'e', 00H, '\', 00H, 'o'
	DB	00H, 'b', 00H, 'j', 00H, 'i', 00H, 'm', 00H, 'p', 00H, 'l', 00H
	DB	'.', 00H, 'h', 00H, 00H, 00H			; `string'
; Function compile flags: /Odtp
CONST	ENDS
;	COMDAT _PyObject_InitHead
_TEXT	SEGMENT
op$ = 48
_PyObject_InitHead PROC					; COMDAT

; 215  : {

  00000	48 89 4c 24 08	 mov	 QWORD PTR [rsp+8], rcx
  00005	48 83 ec 28	 sub	 rsp, 40			; 00000028H

; 216  :     assert(Py_TYPE(op));

  00009	48 8b 44 24 30	 mov	 rax, QWORD PTR op$[rsp]
  0000e	48 83 78 58 00	 cmp	 QWORD PTR [rax+88], 0
  00013	75 1c		 jne	 SHORT $LN3@PyObject_I@2
  00015	41 b8 d8 00 00
	00		 mov	 r8d, 216		; 000000d8H
  0001b	48 8d 15 00 00
	00 00		 lea	 rdx, OFFSET FLAT:??_C@_1EI@MBCBHLGB@?$AAc?$AA?3?$AA?2?$AAs?$AAr?$AAc?$AA?2?$AAp?$AAy?$AAp?$AAa?$AAr?$AAa?$AAl?$AAl?$AAe?$AAl?$AA?2?$AAi?$AAn?$AAc?$AAl?$AAu?$AAd?$AAe?$AA?2?$AAo?$AAb?$AAj?$AAi?$AAm?$AAp@
  00022	48 8d 0d 00 00
	00 00		 lea	 rcx, OFFSET FLAT:??_C@_1BI@GPFDFIDP@?$AAP?$AAy?$AA_?$AAT?$AAY?$AAP?$AAE?$AA?$CI?$AAo?$AAp?$AA?$CJ?$AA?$AA@
  00029	ff 15 00 00 00
	00		 call	 QWORD PTR __imp__wassert
  0002f	33 c0		 xor	 eax, eax
$LN3@PyObject_I@2:

; 217  :     op->is_px = _Py_NOT_PARALLEL;

  00031	48 8b 44 24 30	 mov	 rax, QWORD PTR op$[rsp]
  00036	48 b9 78 56 ef
	be 34 12 ad de	 mov	 rcx, -2401243008567650696 ; dead1234beef5678H
  00040	48 89 08	 mov	 QWORD PTR [rax], rcx

; 218  :     op->px    = _Py_NOT_PARALLEL;

  00043	48 8b 44 24 30	 mov	 rax, QWORD PTR op$[rsp]
  00048	48 b9 78 56 ef
	be 34 12 ad de	 mov	 rcx, -2401243008567650696 ; dead1234beef5678H
  00052	48 89 48 08	 mov	 QWORD PTR [rax+8], rcx

; 219  :     op->slist_entry.Next = NULL;

  00056	48 8b 44 24 30	 mov	 rax, QWORD PTR op$[rsp]
  0005b	48 c7 40 10 00
	00 00 00	 mov	 QWORD PTR [rax+16], 0

; 220  :     op->px_flags  = Py_PXFLAGS_ISPY;

  00063	48 8b 44 24 30	 mov	 rax, QWORD PTR op$[rsp]
  00068	48 c7 40 20 01
	00 00 00	 mov	 QWORD PTR [rax+32], 1

; 221  :     op->srw_lock  = NULL;

  00070	48 8b 44 24 30	 mov	 rax, QWORD PTR op$[rsp]
  00075	48 c7 40 28 00
	00 00 00	 mov	 QWORD PTR [rax+40], 0

; 222  :     op->event     = NULL;

  0007d	48 8b 44 24 30	 mov	 rax, QWORD PTR op$[rsp]
  00082	48 c7 40 30 00
	00 00 00	 mov	 QWORD PTR [rax+48], 0

; 223  :     op->orig_type = NULL;

  0008a	48 8b 44 24 30	 mov	 rax, QWORD PTR op$[rsp]
  0008f	48 c7 40 38 00
	00 00 00	 mov	 QWORD PTR [rax+56], 0

; 224  : #ifdef Py_TRACE_REFS
; 225  :     op->_ob_next = NULL;

  00097	48 8b 44 24 30	 mov	 rax, QWORD PTR op$[rsp]
  0009c	48 c7 40 40 00
	00 00 00	 mov	 QWORD PTR [rax+64], 0

; 226  :     op->_ob_prev = NULL;

  000a4	48 8b 44 24 30	 mov	 rax, QWORD PTR op$[rsp]
  000a9	48 c7 40 48 00
	00 00 00	 mov	 QWORD PTR [rax+72], 0

; 227  : #else
; 228  :     op->_ob_next = _Py_NOT_PARALLEL;
; 229  :     op->_ob_prev = _Py_NOT_PARALLEL;
; 230  : #endif
; 231  : }

  000b1	48 83 c4 28	 add	 rsp, 40			; 00000028H
  000b5	c3		 ret	 0
_PyObject_InitHead ENDP
_TEXT	ENDS
;	COMDAT pdata
; File c:\src\pyparallel\modules\_datetimemodule.c
pdata	SEGMENT
$pdata$datetime_alloc DD imagerel datetime_alloc
	DD	imagerel datetime_alloc+97
	DD	imagerel $unwind$datetime_alloc
pdata	ENDS
;	COMDAT xdata
xdata	SEGMENT
$unwind$datetime_alloc DD 010e01H
	DD	0620eH
; Function compile flags: /Odtp
xdata	ENDS
;	COMDAT datetime_alloc
_TEXT	SEGMENT
self$ = 32
tv66 = 40
type$ = 64
aware$ = 72
datetime_alloc PROC					; COMDAT

; 624  : {

  00000	48 89 54 24 10	 mov	 QWORD PTR [rsp+16], rdx
  00005	48 89 4c 24 08	 mov	 QWORD PTR [rsp+8], rcx
  0000a	48 83 ec 38	 sub	 rsp, 56			; 00000038H

; 625  :     PyObject *self;
; 626  : 
; 627  :     self = (PyObject *)
; 628  :         PyObject_MALLOC(aware ?
; 629  :                         sizeof(PyDateTime_DateTime) :
; 630  :                 sizeof(_PyDateTime_BaseDateTime));

  0000e	48 83 7c 24 48
	00		 cmp	 QWORD PTR aware$[rsp], 0
  00014	74 0b		 je	 SHORT $LN4@datetime_a
  00016	48 c7 44 24 28
	80 00 00 00	 mov	 QWORD PTR tv66[rsp], 128 ; 00000080H
  0001f	eb 09		 jmp	 SHORT $LN5@datetime_a
$LN4@datetime_a:
  00021	48 c7 44 24 28
	80 00 00 00	 mov	 QWORD PTR tv66[rsp], 128 ; 00000080H
$LN5@datetime_a:
  0002a	48 8b 4c 24 28	 mov	 rcx, QWORD PTR tv66[rsp]
  0002f	e8 00 00 00 00	 call	 _PyObject_DebugMalloc
  00034	48 89 44 24 20	 mov	 QWORD PTR self$[rsp], rax

; 631  :     if (self == NULL)

  00039	48 83 7c 24 20
	00		 cmp	 QWORD PTR self$[rsp], 0
  0003f	75 07		 jne	 SHORT $LN1@datetime_a

; 632  :         return (PyObject *)PyErr_NoMemory();

  00041	e8 00 00 00 00	 call	 PyErr_NoMemory
  00046	eb 14		 jmp	 SHORT $LN2@datetime_a
$LN1@datetime_a:

; 633  :     PyObject_INIT(self, type);

  00048	48 8b 54 24 40	 mov	 rdx, QWORD PTR type$[rsp]
  0004d	48 8b 4c 24 20	 mov	 rcx, QWORD PTR self$[rsp]
  00052	e8 00 00 00 00	 call	 PyObject_INIT

; 634  :     return self;

  00057	48 8b 44 24 20	 mov	 rax, QWORD PTR self$[rsp]
$LN2@datetime_a:

; 635  : }

  0005c	48 83 c4 38	 add	 rsp, 56			; 00000038H
  00060	c3		 ret	 0
datetime_alloc ENDP
_TEXT	ENDS
;	COMDAT pdata
pdata	SEGMENT
$pdata$new_date_ex DD imagerel new_date_ex
	DD	imagerel new_date_ex+87
	DD	imagerel $unwind$new_date_ex
pdata	ENDS
;	COMDAT xdata
xdata	SEGMENT
$unwind$new_date_ex DD 011601H
	DD	06216H
; Function compile flags: /Odtp
xdata	ENDS
;	COMDAT new_date_ex
_TEXT	SEGMENT
self$ = 32
year$ = 64
month$ = 72
day$ = 80
type$ = 88
new_date_ex PROC					; COMDAT

; 659  : {

  00000	4c 89 4c 24 20	 mov	 QWORD PTR [rsp+32], r9
  00005	44 89 44 24 18	 mov	 DWORD PTR [rsp+24], r8d
  0000a	89 54 24 10	 mov	 DWORD PTR [rsp+16], edx
  0000e	89 4c 24 08	 mov	 DWORD PTR [rsp+8], ecx
  00012	48 83 ec 38	 sub	 rsp, 56			; 00000038H

; 660  :     PyDateTime_Date *self;
; 661  : 
; 662  :     self = (PyDateTime_Date *) (type->tp_alloc(type, 0));

  00016	33 d2		 xor	 edx, edx
  00018	48 8b 4c 24 58	 mov	 rcx, QWORD PTR type$[rsp]
  0001d	48 8b 44 24 58	 mov	 rax, QWORD PTR type$[rsp]
  00022	ff 90 88 01 00
	00		 call	 QWORD PTR [rax+392]
  00028	48 89 44 24 20	 mov	 QWORD PTR self$[rsp], rax

; 663  :     if (self != NULL)

  0002d	48 83 7c 24 20
	00		 cmp	 QWORD PTR self$[rsp], 0
  00033	74 18		 je	 SHORT $LN1@new_date_e

; 664  :         set_date_fields(self, year, month, day);

  00035	44 8b 4c 24 50	 mov	 r9d, DWORD PTR day$[rsp]
  0003a	44 8b 44 24 48	 mov	 r8d, DWORD PTR month$[rsp]
  0003f	8b 54 24 40	 mov	 edx, DWORD PTR year$[rsp]
  00043	48 8b 4c 24 20	 mov	 rcx, QWORD PTR self$[rsp]
  00048	e8 00 00 00 00	 call	 set_date_fields
$LN1@new_date_e:

; 665  :     return (PyObject *) self;

  0004d	48 8b 44 24 20	 mov	 rax, QWORD PTR self$[rsp]

; 666  : }

  00052	48 83 c4 38	 add	 rsp, 56			; 00000038H
  00056	c3		 ret	 0
new_date_ex ENDP
; Function compile flags: /Odtp
_TEXT	ENDS
;	COMDAT set_date_fields
_TEXT	SEGMENT
self$ = 8
y$ = 16
m$ = 24
d$ = 32
set_date_fields PROC					; COMDAT

; 645  : {

  00000	44 89 4c 24 20	 mov	 DWORD PTR [rsp+32], r9d
  00005	44 89 44 24 18	 mov	 DWORD PTR [rsp+24], r8d
  0000a	89 54 24 10	 mov	 DWORD PTR [rsp+16], edx
  0000e	48 89 4c 24 08	 mov	 QWORD PTR [rsp+8], rcx

; 646  :     self->hashcode = -1;

  00013	48 8b 44 24 08	 mov	 rax, QWORD PTR self$[rsp]
  00018	48 c7 40 60 ff
	ff ff ff	 mov	 QWORD PTR [rax+96], -1

; 647  :     SET_YEAR(self, y);

  00020	8b 44 24 10	 mov	 eax, DWORD PTR y$[rsp]
  00024	25 00 ff 00 00	 and	 eax, 65280		; 0000ff00H
  00029	c1 f8 08	 sar	 eax, 8
  0002c	48 8b 4c 24 08	 mov	 rcx, QWORD PTR self$[rsp]
  00031	88 41 69	 mov	 BYTE PTR [rcx+105], al
  00034	8b 44 24 10	 mov	 eax, DWORD PTR y$[rsp]
  00038	25 ff 00 00 00	 and	 eax, 255		; 000000ffH
  0003d	48 8b 4c 24 08	 mov	 rcx, QWORD PTR self$[rsp]
  00042	88 41 6a	 mov	 BYTE PTR [rcx+106], al

; 648  :     SET_MONTH(self, m);

  00045	48 8b 44 24 08	 mov	 rax, QWORD PTR self$[rsp]
  0004a	0f b6 4c 24 18	 movzx	 ecx, BYTE PTR m$[rsp]
  0004f	88 48 6b	 mov	 BYTE PTR [rax+107], cl

; 649  :     SET_DAY(self, d);

  00052	48 8b 44 24 08	 mov	 rax, QWORD PTR self$[rsp]
  00057	0f b6 4c 24 20	 movzx	 ecx, BYTE PTR d$[rsp]
  0005c	88 48 6c	 mov	 BYTE PTR [rax+108], cl

; 650  : }

  0005f	c3		 ret	 0
set_date_fields ENDP
_TEXT	ENDS
PUBLIC	_Py_IncRef
EXTRN	_Py_NoneStruct:BYTE
;	COMDAT pdata
pdata	SEGMENT
$pdata$new_datetime_ex DD imagerel new_datetime_ex
	DD	imagerel new_datetime_ex+305
	DD	imagerel $unwind$new_datetime_ex
pdata	ENDS
;	COMDAT xdata
xdata	SEGMENT
$unwind$new_datetime_ex DD 011601H
	DD	08216H
; Function compile flags: /Odtp
xdata	ENDS
;	COMDAT new_datetime_ex
_TEXT	SEGMENT
aware$ = 32
self$ = 40
tv65 = 48
year$ = 80
month$ = 88
day$ = 96
hour$ = 104
minute$ = 112
second$ = 120
usecond$ = 128
tzinfo$ = 136
type$ = 144
new_datetime_ex PROC					; COMDAT

; 675  : {

  00000	44 89 4c 24 20	 mov	 DWORD PTR [rsp+32], r9d
  00005	44 89 44 24 18	 mov	 DWORD PTR [rsp+24], r8d
  0000a	89 54 24 10	 mov	 DWORD PTR [rsp+16], edx
  0000e	89 4c 24 08	 mov	 DWORD PTR [rsp+8], ecx
  00012	48 83 ec 48	 sub	 rsp, 72			; 00000048H

; 676  :     PyDateTime_DateTime *self;
; 677  :     char aware = tzinfo != Py_None;

  00016	48 8d 05 00 00
	00 00		 lea	 rax, OFFSET FLAT:_Py_NoneStruct
  0001d	48 39 84 24 88
	00 00 00	 cmp	 QWORD PTR tzinfo$[rsp], rax
  00025	74 0a		 je	 SHORT $LN5@new_dateti
  00027	c7 44 24 30 01
	00 00 00	 mov	 DWORD PTR tv65[rsp], 1
  0002f	eb 08		 jmp	 SHORT $LN6@new_dateti
$LN5@new_dateti:
  00031	c7 44 24 30 00
	00 00 00	 mov	 DWORD PTR tv65[rsp], 0
$LN6@new_dateti:
  00039	0f b6 44 24 30	 movzx	 eax, BYTE PTR tv65[rsp]
  0003e	88 44 24 20	 mov	 BYTE PTR aware$[rsp], al

; 678  : 
; 679  :     self = (PyDateTime_DateTime *) (type->tp_alloc(type, aware));

  00042	48 0f be 44 24
	20		 movsx	 rax, BYTE PTR aware$[rsp]
  00048	48 8b d0	 mov	 rdx, rax
  0004b	48 8b 8c 24 90
	00 00 00	 mov	 rcx, QWORD PTR type$[rsp]
  00053	48 8b 84 24 90
	00 00 00	 mov	 rax, QWORD PTR type$[rsp]
  0005b	ff 90 88 01 00
	00		 call	 QWORD PTR [rax+392]
  00061	48 89 44 24 28	 mov	 QWORD PTR self$[rsp], rax

; 680  :     if (self != NULL) {

  00066	48 83 7c 24 28
	00		 cmp	 QWORD PTR self$[rsp], 0
  0006c	0f 84 b5 00 00
	00		 je	 $LN2@new_dateti

; 681  :         self->hastzinfo = aware;

  00072	48 8b 44 24 28	 mov	 rax, QWORD PTR self$[rsp]
  00077	0f b6 4c 24 20	 movzx	 ecx, BYTE PTR aware$[rsp]
  0007c	88 48 68	 mov	 BYTE PTR [rax+104], cl

; 682  :         set_date_fields((PyDateTime_Date *)self, year, month, day);

  0007f	44 8b 4c 24 60	 mov	 r9d, DWORD PTR day$[rsp]
  00084	44 8b 44 24 58	 mov	 r8d, DWORD PTR month$[rsp]
  00089	8b 54 24 50	 mov	 edx, DWORD PTR year$[rsp]
  0008d	48 8b 4c 24 28	 mov	 rcx, QWORD PTR self$[rsp]
  00092	e8 00 00 00 00	 call	 set_date_fields

; 683  :         DATE_SET_HOUR(self, hour);

  00097	48 8b 44 24 28	 mov	 rax, QWORD PTR self$[rsp]
  0009c	0f b6 4c 24 68	 movzx	 ecx, BYTE PTR hour$[rsp]
  000a1	88 48 6d	 mov	 BYTE PTR [rax+109], cl

; 684  :         DATE_SET_MINUTE(self, minute);

  000a4	48 8b 44 24 28	 mov	 rax, QWORD PTR self$[rsp]
  000a9	0f b6 4c 24 70	 movzx	 ecx, BYTE PTR minute$[rsp]
  000ae	88 48 6e	 mov	 BYTE PTR [rax+110], cl

; 685  :         DATE_SET_SECOND(self, second);

  000b1	48 8b 44 24 28	 mov	 rax, QWORD PTR self$[rsp]
  000b6	0f b6 4c 24 78	 movzx	 ecx, BYTE PTR second$[rsp]
  000bb	88 48 6f	 mov	 BYTE PTR [rax+111], cl

; 686  :         DATE_SET_MICROSECOND(self, usecond);

  000be	8b 84 24 80 00
	00 00		 mov	 eax, DWORD PTR usecond$[rsp]
  000c5	25 00 00 ff 00	 and	 eax, 16711680		; 00ff0000H
  000ca	c1 f8 10	 sar	 eax, 16
  000cd	48 8b 4c 24 28	 mov	 rcx, QWORD PTR self$[rsp]
  000d2	88 41 70	 mov	 BYTE PTR [rcx+112], al
  000d5	8b 84 24 80 00
	00 00		 mov	 eax, DWORD PTR usecond$[rsp]
  000dc	25 00 ff 00 00	 and	 eax, 65280		; 0000ff00H
  000e1	c1 f8 08	 sar	 eax, 8
  000e4	48 8b 4c 24 28	 mov	 rcx, QWORD PTR self$[rsp]
  000e9	88 41 71	 mov	 BYTE PTR [rcx+113], al
  000ec	8b 84 24 80 00
	00 00		 mov	 eax, DWORD PTR usecond$[rsp]
  000f3	25 ff 00 00 00	 and	 eax, 255		; 000000ffH
  000f8	48 8b 4c 24 28	 mov	 rcx, QWORD PTR self$[rsp]
  000fd	88 41 72	 mov	 BYTE PTR [rcx+114], al

; 687  :         if (aware) {

  00100	0f be 44 24 20	 movsx	 eax, BYTE PTR aware$[rsp]
  00105	85 c0		 test	 eax, eax
  00107	74 1e		 je	 SHORT $LN1@new_dateti

; 688  :             Py_INCREF(tzinfo);

  00109	48 8b 8c 24 88
	00 00 00	 mov	 rcx, QWORD PTR tzinfo$[rsp]
  00111	e8 00 00 00 00	 call	 _Py_IncRef

; 689  :             self->tzinfo = tzinfo;

  00116	48 8b 44 24 28	 mov	 rax, QWORD PTR self$[rsp]
  0011b	48 8b 8c 24 88
	00 00 00	 mov	 rcx, QWORD PTR tzinfo$[rsp]
  00123	48 89 48 78	 mov	 QWORD PTR [rax+120], rcx
$LN1@new_dateti:
$LN2@new_dateti:

; 690  :         }
; 691  :     }
; 692  :     return (PyObject *)self;

  00127	48 8b 44 24 28	 mov	 rax, QWORD PTR self$[rsp]

; 693  : }

  0012c	48 83 c4 48	 add	 rsp, 72			; 00000048H
  00130	c3		 ret	 0
new_datetime_ex ENDP
_TEXT	ENDS
PUBLIC	??_C@_0L@DHGMCEID@_Py_IncRef?$AA@		; `string'
PUBLIC	??_C@_0CD@HDJFDCDP@c?3?2src?2pyparallel?2include?2object@ ; `string'
EXTRN	_Py_RefTotal:QWORD
EXTRN	_PyParallel_Guard:PROC
;	COMDAT pdata
; File c:\src\pyparallel\include\object.h
pdata	SEGMENT
$pdata$_Py_IncRef DD imagerel $LN7
	DD	imagerel $LN7+132
	DD	imagerel $unwind$_Py_IncRef
pdata	ENDS
;	COMDAT xdata
xdata	SEGMENT
$unwind$_Py_IncRef DD 010901H
	DD	06209H
xdata	ENDS
;	COMDAT ??_C@_0L@DHGMCEID@_Py_IncRef?$AA@
CONST	SEGMENT
??_C@_0L@DHGMCEID@_Py_IncRef?$AA@ DB '_Py_IncRef', 00H	; `string'
CONST	ENDS
;	COMDAT ??_C@_0CD@HDJFDCDP@c?3?2src?2pyparallel?2include?2object@
CONST	SEGMENT
??_C@_0CD@HDJFDCDP@c?3?2src?2pyparallel?2include?2object@ DB 'c:\src\pypa'
	DB	'rallel\include\object.h', 00H		; `string'
; Function compile flags: /Odtp
CONST	ENDS
;	COMDAT _Py_IncRef
_TEXT	SEGMENT
op$ = 64
_Py_IncRef PROC						; COMDAT

; 904  : {

$LN7:
  00000	48 89 4c 24 08	 mov	 QWORD PTR [rsp+8], rcx
  00005	48 83 ec 38	 sub	 rsp, 56			; 00000038H

; 905  :     if ((!Py_PXCTX && (Py_ISPY(op) || Px_PERSISTED(op)))) {

  00009	e8 00 00 00 00	 call	 _Py_PXCTX
  0000e	85 c0		 test	 eax, eax
  00010	75 6d		 jne	 SHORT $LN2@Py_IncRef
  00012	c7 44 24 20 02
	00 00 00	 mov	 DWORD PTR [rsp+32], 2
  0001a	4c 8b 4c 24 40	 mov	 r9, QWORD PTR op$[rsp]
  0001f	41 b8 89 03 00
	00		 mov	 r8d, 905		; 00000389H
  00025	48 8d 15 00 00
	00 00		 lea	 rdx, OFFSET FLAT:??_C@_0CD@HDJFDCDP@c?3?2src?2pyparallel?2include?2object@
  0002c	48 8d 0d 00 00
	00 00		 lea	 rcx, OFFSET FLAT:??_C@_0L@DHGMCEID@_Py_IncRef?$AA@
  00033	e8 00 00 00 00	 call	 _PyParallel_Guard
  00038	85 c0		 test	 eax, eax
  0003a	75 12		 jne	 SHORT $LN1@Py_IncRef
  0003c	48 8b 44 24 40	 mov	 rax, QWORD PTR op$[rsp]
  00041	48 8b 40 20	 mov	 rax, QWORD PTR [rax+32]
  00045	48 83 e0 20	 and	 rax, 32			; 00000020H
  00049	48 85 c0	 test	 rax, rax
  0004c	74 31		 je	 SHORT $LN2@Py_IncRef
$LN1@Py_IncRef:

; 906  :         _Py_INC_REFTOTAL;

  0004e	e8 00 00 00 00	 call	 _Py_PXCTX
  00053	85 c0		 test	 eax, eax
  00055	74 02		 je	 SHORT $LN5@Py_IncRef
  00057	eb 11		 jmp	 SHORT $LN6@Py_IncRef
$LN5@Py_IncRef:
  00059	48 8b 05 00 00
	00 00		 mov	 rax, QWORD PTR _Py_RefTotal
  00060	48 ff c0	 inc	 rax
  00063	48 89 05 00 00
	00 00		 mov	 QWORD PTR _Py_RefTotal, rax
$LN6@Py_IncRef:

; 907  :         (((PyObject*)(op))->ob_refcnt++);

  0006a	48 8b 44 24 40	 mov	 rax, QWORD PTR op$[rsp]
  0006f	48 8b 40 50	 mov	 rax, QWORD PTR [rax+80]
  00073	48 ff c0	 inc	 rax
  00076	48 8b 4c 24 40	 mov	 rcx, QWORD PTR op$[rsp]
  0007b	48 89 41 50	 mov	 QWORD PTR [rcx+80], rax
$LN2@Py_IncRef:

; 908  :     }
; 909  : }

  0007f	48 83 c4 38	 add	 rsp, 56			; 00000038H
  00083	c3		 ret	 0
_Py_IncRef ENDP
_TEXT	ENDS
;	COMDAT pdata
; File c:\src\pyparallel\modules\_datetimemodule.c
pdata	SEGMENT
$pdata$new_time_ex DD imagerel new_time_ex
	DD	imagerel new_time_ex+270
	DD	imagerel $unwind$new_time_ex
pdata	ENDS
;	COMDAT xdata
xdata	SEGMENT
$unwind$new_time_ex DD 011601H
	DD	08216H
; Function compile flags: /Odtp
xdata	ENDS
;	COMDAT new_time_ex
_TEXT	SEGMENT
aware$ = 32
self$ = 40
tv65 = 48
hour$ = 80
minute$ = 88
second$ = 96
usecond$ = 104
tzinfo$ = 112
type$ = 120
new_time_ex PROC					; COMDAT

; 703  : {

  00000	44 89 4c 24 20	 mov	 DWORD PTR [rsp+32], r9d
  00005	44 89 44 24 18	 mov	 DWORD PTR [rsp+24], r8d
  0000a	89 54 24 10	 mov	 DWORD PTR [rsp+16], edx
  0000e	89 4c 24 08	 mov	 DWORD PTR [rsp+8], ecx
  00012	48 83 ec 48	 sub	 rsp, 72			; 00000048H

; 704  :     PyDateTime_Time *self;
; 705  :     char aware = tzinfo != Py_None;

  00016	48 8d 05 00 00
	00 00		 lea	 rax, OFFSET FLAT:_Py_NoneStruct
  0001d	48 39 44 24 70	 cmp	 QWORD PTR tzinfo$[rsp], rax
  00022	74 0a		 je	 SHORT $LN5@new_time_e
  00024	c7 44 24 30 01
	00 00 00	 mov	 DWORD PTR tv65[rsp], 1
  0002c	eb 08		 jmp	 SHORT $LN6@new_time_e
$LN5@new_time_e:
  0002e	c7 44 24 30 00
	00 00 00	 mov	 DWORD PTR tv65[rsp], 0
$LN6@new_time_e:
  00036	0f b6 44 24 30	 movzx	 eax, BYTE PTR tv65[rsp]
  0003b	88 44 24 20	 mov	 BYTE PTR aware$[rsp], al

; 706  : 
; 707  :     self = (PyDateTime_Time *) (type->tp_alloc(type, aware));

  0003f	48 0f be 44 24
	20		 movsx	 rax, BYTE PTR aware$[rsp]
  00045	48 8b d0	 mov	 rdx, rax
  00048	48 8b 4c 24 78	 mov	 rcx, QWORD PTR type$[rsp]
  0004d	48 8b 44 24 78	 mov	 rax, QWORD PTR type$[rsp]
  00052	ff 90 88 01 00
	00		 call	 QWORD PTR [rax+392]
  00058	48 89 44 24 28	 mov	 QWORD PTR self$[rsp], rax

; 708  :     if (self != NULL) {

  0005d	48 83 7c 24 28
	00		 cmp	 QWORD PTR self$[rsp], 0
  00063	0f 84 9b 00 00
	00		 je	 $LN2@new_time_e

; 709  :         self->hastzinfo = aware;

  00069	48 8b 44 24 28	 mov	 rax, QWORD PTR self$[rsp]
  0006e	0f b6 4c 24 20	 movzx	 ecx, BYTE PTR aware$[rsp]
  00073	88 48 68	 mov	 BYTE PTR [rax+104], cl

; 710  :         self->hashcode = -1;

  00076	48 8b 44 24 28	 mov	 rax, QWORD PTR self$[rsp]
  0007b	48 c7 40 60 ff
	ff ff ff	 mov	 QWORD PTR [rax+96], -1

; 711  :         TIME_SET_HOUR(self, hour);

  00083	48 8b 44 24 28	 mov	 rax, QWORD PTR self$[rsp]
  00088	0f b6 4c 24 50	 movzx	 ecx, BYTE PTR hour$[rsp]
  0008d	88 48 69	 mov	 BYTE PTR [rax+105], cl

; 712  :         TIME_SET_MINUTE(self, minute);

  00090	48 8b 44 24 28	 mov	 rax, QWORD PTR self$[rsp]
  00095	0f b6 4c 24 58	 movzx	 ecx, BYTE PTR minute$[rsp]
  0009a	88 48 6a	 mov	 BYTE PTR [rax+106], cl

; 713  :         TIME_SET_SECOND(self, second);

  0009d	48 8b 44 24 28	 mov	 rax, QWORD PTR self$[rsp]
  000a2	0f b6 4c 24 60	 movzx	 ecx, BYTE PTR second$[rsp]
  000a7	88 48 6b	 mov	 BYTE PTR [rax+107], cl

; 714  :         TIME_SET_MICROSECOND(self, usecond);

  000aa	8b 44 24 68	 mov	 eax, DWORD PTR usecond$[rsp]
  000ae	25 00 00 ff 00	 and	 eax, 16711680		; 00ff0000H
  000b3	c1 f8 10	 sar	 eax, 16
  000b6	48 8b 4c 24 28	 mov	 rcx, QWORD PTR self$[rsp]
  000bb	88 41 6c	 mov	 BYTE PTR [rcx+108], al
  000be	8b 44 24 68	 mov	 eax, DWORD PTR usecond$[rsp]
  000c2	25 00 ff 00 00	 and	 eax, 65280		; 0000ff00H
  000c7	c1 f8 08	 sar	 eax, 8
  000ca	48 8b 4c 24 28	 mov	 rcx, QWORD PTR self$[rsp]
  000cf	88 41 6d	 mov	 BYTE PTR [rcx+109], al
  000d2	8b 44 24 68	 mov	 eax, DWORD PTR usecond$[rsp]
  000d6	25 ff 00 00 00	 and	 eax, 255		; 000000ffH
  000db	48 8b 4c 24 28	 mov	 rcx, QWORD PTR self$[rsp]
  000e0	88 41 6e	 mov	 BYTE PTR [rcx+110], al

; 715  :         if (aware) {

  000e3	0f be 44 24 20	 movsx	 eax, BYTE PTR aware$[rsp]
  000e8	85 c0		 test	 eax, eax
  000ea	74 18		 je	 SHORT $LN1@new_time_e

; 716  :             Py_INCREF(tzinfo);

  000ec	48 8b 4c 24 70	 mov	 rcx, QWORD PTR tzinfo$[rsp]
  000f1	e8 00 00 00 00	 call	 _Py_IncRef

; 717  :             self->tzinfo = tzinfo;

  000f6	48 8b 44 24 28	 mov	 rax, QWORD PTR self$[rsp]
  000fb	48 8b 4c 24 70	 mov	 rcx, QWORD PTR tzinfo$[rsp]
  00100	48 89 48 70	 mov	 QWORD PTR [rax+112], rcx
$LN1@new_time_e:
$LN2@new_time_e:

; 718  :         }
; 719  :     }
; 720  :     return (PyObject *)self;

  00104	48 8b 44 24 28	 mov	 rax, QWORD PTR self$[rsp]

; 721  : }

  00109	48 83 c4 48	 add	 rsp, 72			; 00000048H
  0010d	c3		 ret	 0
new_time_ex ENDP
_TEXT	ENDS
PUBLIC	??_C@_1FI@KACGPDLI@?$AA0?$AA?5?$AA?$DM?$AA?$DN?$AA?5?$AAm?$AAi?$AAc?$AAr?$AAo?$AAs?$AAe?$AAc?$AAo?$AAn?$AAd?$AAs?$AA?5?$AA?$CG?$AA?$CG?$AA?5?$AAm?$AAi?$AAc?$AAr?$AAo?$AAs?$AAe?$AAc?$AAo?$AAn?$AAd@ ; `string'
PUBLIC	??_C@_1EE@MBFAEOCO@?$AA0?$AA?5?$AA?$DM?$AA?$DN?$AA?5?$AAs?$AAe?$AAc?$AAo?$AAn?$AAd?$AAs?$AA?5?$AA?$CG?$AA?$CG?$AA?5?$AAs?$AAe?$AAc?$AAo?$AAn?$AAd?$AAs?$AA?5?$AA?$DM?$AA?5?$AA2?$AA4?$AA?$CK?$AA3?$AA6?$AA0@ ; `string'
PUBLIC	??_C@_1DK@MIHLFJMJ@?$AA?4?$AA?4?$AA?2?$AAM?$AAo?$AAd?$AAu?$AAl?$AAe?$AAs?$AA?2?$AA_?$AAd?$AAa?$AAt?$AAe?$AAt?$AAi?$AAm?$AAe?$AAm?$AAo?$AAd?$AAu?$AAl?$AAe?$AA?4?$AAc?$AA?$AA@ ; `string'
;	COMDAT pdata
pdata	SEGMENT
$pdata$new_delta_ex DD imagerel new_delta_ex
	DD	imagerel new_delta_ex+246
	DD	imagerel $unwind$new_delta_ex
pdata	ENDS
;	COMDAT xdata
xdata	SEGMENT
$unwind$new_delta_ex DD 011601H
	DD	06216H
xdata	ENDS
;	COMDAT ??_C@_1FI@KACGPDLI@?$AA0?$AA?5?$AA?$DM?$AA?$DN?$AA?5?$AAm?$AAi?$AAc?$AAr?$AAo?$AAs?$AAe?$AAc?$AAo?$AAn?$AAd?$AAs?$AA?5?$AA?$CG?$AA?$CG?$AA?5?$AAm?$AAi?$AAc?$AAr?$AAo?$AAs?$AAe?$AAc?$AAo?$AAn?$AAd@
CONST	SEGMENT
??_C@_1FI@KACGPDLI@?$AA0?$AA?5?$AA?$DM?$AA?$DN?$AA?5?$AAm?$AAi?$AAc?$AAr?$AAo?$AAs?$AAe?$AAc?$AAo?$AAn?$AAd?$AAs?$AA?5?$AA?$CG?$AA?$CG?$AA?5?$AAm?$AAi?$AAc?$AAr?$AAo?$AAs?$AAe?$AAc?$AAo?$AAn?$AAd@ DB '0'
	DB	00H, ' ', 00H, '<', 00H, '=', 00H, ' ', 00H, 'm', 00H, 'i', 00H
	DB	'c', 00H, 'r', 00H, 'o', 00H, 's', 00H, 'e', 00H, 'c', 00H, 'o'
	DB	00H, 'n', 00H, 'd', 00H, 's', 00H, ' ', 00H, '&', 00H, '&', 00H
	DB	' ', 00H, 'm', 00H, 'i', 00H, 'c', 00H, 'r', 00H, 'o', 00H, 's'
	DB	00H, 'e', 00H, 'c', 00H, 'o', 00H, 'n', 00H, 'd', 00H, 's', 00H
	DB	' ', 00H, '<', 00H, ' ', 00H, '1', 00H, '0', 00H, '0', 00H, '0'
	DB	00H, '0', 00H, '0', 00H, '0', 00H, 00H, 00H	; `string'
CONST	ENDS
;	COMDAT ??_C@_1EE@MBFAEOCO@?$AA0?$AA?5?$AA?$DM?$AA?$DN?$AA?5?$AAs?$AAe?$AAc?$AAo?$AAn?$AAd?$AAs?$AA?5?$AA?$CG?$AA?$CG?$AA?5?$AAs?$AAe?$AAc?$AAo?$AAn?$AAd?$AAs?$AA?5?$AA?$DM?$AA?5?$AA2?$AA4?$AA?$CK?$AA3?$AA6?$AA0@
CONST	SEGMENT
??_C@_1EE@MBFAEOCO@?$AA0?$AA?5?$AA?$DM?$AA?$DN?$AA?5?$AAs?$AAe?$AAc?$AAo?$AAn?$AAd?$AAs?$AA?5?$AA?$CG?$AA?$CG?$AA?5?$AAs?$AAe?$AAc?$AAo?$AAn?$AAd?$AAs?$AA?5?$AA?$DM?$AA?5?$AA2?$AA4?$AA?$CK?$AA3?$AA6?$AA0@ DB '0'
	DB	00H, ' ', 00H, '<', 00H, '=', 00H, ' ', 00H, 's', 00H, 'e', 00H
	DB	'c', 00H, 'o', 00H, 'n', 00H, 'd', 00H, 's', 00H, ' ', 00H, '&'
	DB	00H, '&', 00H, ' ', 00H, 's', 00H, 'e', 00H, 'c', 00H, 'o', 00H
	DB	'n', 00H, 'd', 00H, 's', 00H, ' ', 00H, '<', 00H, ' ', 00H, '2'
	DB	00H, '4', 00H, '*', 00H, '3', 00H, '6', 00H, '0', 00H, '0', 00H
	DB	00H, 00H					; `string'
CONST	ENDS
;	COMDAT ??_C@_1DK@MIHLFJMJ@?$AA?4?$AA?4?$AA?2?$AAM?$AAo?$AAd?$AAu?$AAl?$AAe?$AAs?$AA?2?$AA_?$AAd?$AAa?$AAt?$AAe?$AAt?$AAi?$AAm?$AAe?$AAm?$AAo?$AAd?$AAu?$AAl?$AAe?$AA?4?$AAc?$AA?$AA@
CONST	SEGMENT
??_C@_1DK@MIHLFJMJ@?$AA?4?$AA?4?$AA?2?$AAM?$AAo?$AAd?$AAu?$AAl?$AAe?$AAs?$AA?2?$AA_?$AAd?$AAa?$AAt?$AAe?$AAt?$AAi?$AAm?$AAe?$AAm?$AAo?$AAd?$AAu?$AAl?$AAe?$AA?4?$AAc?$AA?$AA@ DB '.'
	DB	00H, '.', 00H, '\', 00H, 'M', 00H, 'o', 00H, 'd', 00H, 'u', 00H
	DB	'l', 00H, 'e', 00H, 's', 00H, '\', 00H, '_', 00H, 'd', 00H, 'a'
	DB	00H, 't', 00H, 'e', 00H, 't', 00H, 'i', 00H, 'm', 00H, 'e', 00H
	DB	'm', 00H, 'o', 00H, 'd', 00H, 'u', 00H, 'l', 00H, 'e', 00H, '.'
	DB	00H, 'c', 00H, 00H, 00H			; `string'
; Function compile flags: /Odtp
CONST	ENDS
;	COMDAT new_delta_ex
_TEXT	SEGMENT
self$ = 32
days$ = 64
seconds$ = 72
microseconds$ = 80
normalize$ = 88
type$ = 96
new_delta_ex PROC					; COMDAT

; 735  : {

  00000	44 89 4c 24 20	 mov	 DWORD PTR [rsp+32], r9d
  00005	44 89 44 24 18	 mov	 DWORD PTR [rsp+24], r8d
  0000a	89 54 24 10	 mov	 DWORD PTR [rsp+16], edx
  0000e	89 4c 24 08	 mov	 DWORD PTR [rsp+8], ecx
  00012	48 83 ec 38	 sub	 rsp, 56			; 00000038H

; 736  :     PyDateTime_Delta *self;
; 737  : 
; 738  :     if (normalize)

  00016	83 7c 24 58 00	 cmp	 DWORD PTR normalize$[rsp], 0
  0001b	74 14		 je	 SHORT $LN3@new_delta_

; 739  :         normalize_d_s_us(&days, &seconds, &microseconds);

  0001d	4c 8d 44 24 50	 lea	 r8, QWORD PTR microseconds$[rsp]
  00022	48 8d 54 24 48	 lea	 rdx, QWORD PTR seconds$[rsp]
  00027	48 8d 4c 24 40	 lea	 rcx, QWORD PTR days$[rsp]
  0002c	e8 00 00 00 00	 call	 normalize_d_s_us
$LN3@new_delta_:

; 740  :     assert(0 <= seconds && seconds < 24*3600);

  00031	83 7c 24 48 00	 cmp	 DWORD PTR seconds$[rsp], 0
  00036	7c 0a		 jl	 SHORT $LN6@new_delta_
  00038	81 7c 24 48 80
	51 01 00	 cmp	 DWORD PTR seconds$[rsp], 86400 ; 00015180H
  00040	7c 1c		 jl	 SHORT $LN7@new_delta_
$LN6@new_delta_:
  00042	41 b8 e4 02 00
	00		 mov	 r8d, 740		; 000002e4H
  00048	48 8d 15 00 00
	00 00		 lea	 rdx, OFFSET FLAT:??_C@_1DK@MIHLFJMJ@?$AA?4?$AA?4?$AA?2?$AAM?$AAo?$AAd?$AAu?$AAl?$AAe?$AAs?$AA?2?$AA_?$AAd?$AAa?$AAt?$AAe?$AAt?$AAi?$AAm?$AAe?$AAm?$AAo?$AAd?$AAu?$AAl?$AAe?$AA?4?$AAc?$AA?$AA@
  0004f	48 8d 0d 00 00
	00 00		 lea	 rcx, OFFSET FLAT:??_C@_1EE@MBFAEOCO@?$AA0?$AA?5?$AA?$DM?$AA?$DN?$AA?5?$AAs?$AAe?$AAc?$AAo?$AAn?$AAd?$AAs?$AA?5?$AA?$CG?$AA?$CG?$AA?5?$AAs?$AAe?$AAc?$AAo?$AAn?$AAd?$AAs?$AA?5?$AA?$DM?$AA?5?$AA2?$AA4?$AA?$CK?$AA3?$AA6?$AA0@
  00056	ff 15 00 00 00
	00		 call	 QWORD PTR __imp__wassert
  0005c	33 c0		 xor	 eax, eax
$LN7@new_delta_:

; 741  :     assert(0 <= microseconds && microseconds < 1000000);

  0005e	83 7c 24 50 00	 cmp	 DWORD PTR microseconds$[rsp], 0
  00063	7c 0a		 jl	 SHORT $LN8@new_delta_
  00065	81 7c 24 50 40
	42 0f 00	 cmp	 DWORD PTR microseconds$[rsp], 1000000 ; 000f4240H
  0006d	7c 1c		 jl	 SHORT $LN9@new_delta_
$LN8@new_delta_:
  0006f	41 b8 e5 02 00
	00		 mov	 r8d, 741		; 000002e5H
  00075	48 8d 15 00 00
	00 00		 lea	 rdx, OFFSET FLAT:??_C@_1DK@MIHLFJMJ@?$AA?4?$AA?4?$AA?2?$AAM?$AAo?$AAd?$AAu?$AAl?$AAe?$AAs?$AA?2?$AA_?$AAd?$AAa?$AAt?$AAe?$AAt?$AAi?$AAm?$AAe?$AAm?$AAo?$AAd?$AAu?$AAl?$AAe?$AA?4?$AAc?$AA?$AA@
  0007c	48 8d 0d 00 00
	00 00		 lea	 rcx, OFFSET FLAT:??_C@_1FI@KACGPDLI@?$AA0?$AA?5?$AA?$DM?$AA?$DN?$AA?5?$AAm?$AAi?$AAc?$AAr?$AAo?$AAs?$AAe?$AAc?$AAo?$AAn?$AAd?$AAs?$AA?5?$AA?$CG?$AA?$CG?$AA?5?$AAm?$AAi?$AAc?$AAr?$AAo?$AAs?$AAe?$AAc?$AAo?$AAn?$AAd@
  00083	ff 15 00 00 00
	00		 call	 QWORD PTR __imp__wassert
  00089	33 c0		 xor	 eax, eax
$LN9@new_delta_:

; 742  : 
; 743  :     if (check_delta_day_range(days) < 0)

  0008b	8b 4c 24 40	 mov	 ecx, DWORD PTR days$[rsp]
  0008f	e8 00 00 00 00	 call	 check_delta_day_range
  00094	85 c0		 test	 eax, eax
  00096	7d 04		 jge	 SHORT $LN2@new_delta_

; 744  :         return NULL;

  00098	33 c0		 xor	 eax, eax
  0009a	eb 55		 jmp	 SHORT $LN4@new_delta_
$LN2@new_delta_:

; 745  : 
; 746  :     self = (PyDateTime_Delta *) (type->tp_alloc(type, 0));

  0009c	33 d2		 xor	 edx, edx
  0009e	48 8b 4c 24 60	 mov	 rcx, QWORD PTR type$[rsp]
  000a3	48 8b 44 24 60	 mov	 rax, QWORD PTR type$[rsp]
  000a8	ff 90 88 01 00
	00		 call	 QWORD PTR [rax+392]
  000ae	48 89 44 24 20	 mov	 QWORD PTR self$[rsp], rax

; 747  :     if (self != NULL) {

  000b3	48 83 7c 24 20
	00		 cmp	 QWORD PTR self$[rsp], 0
  000b9	74 31		 je	 SHORT $LN1@new_delta_

; 748  :         self->hashcode = -1;

  000bb	48 8b 44 24 20	 mov	 rax, QWORD PTR self$[rsp]
  000c0	48 c7 40 60 ff
	ff ff ff	 mov	 QWORD PTR [rax+96], -1

; 749  :         SET_TD_DAYS(self, days);

  000c8	48 8b 44 24 20	 mov	 rax, QWORD PTR self$[rsp]
  000cd	8b 4c 24 40	 mov	 ecx, DWORD PTR days$[rsp]
  000d1	89 48 68	 mov	 DWORD PTR [rax+104], ecx

; 750  :         SET_TD_SECONDS(self, seconds);

  000d4	48 8b 44 24 20	 mov	 rax, QWORD PTR self$[rsp]
  000d9	8b 4c 24 48	 mov	 ecx, DWORD PTR seconds$[rsp]
  000dd	89 48 6c	 mov	 DWORD PTR [rax+108], ecx

; 751  :         SET_TD_MICROSECONDS(self, microseconds);

  000e0	48 8b 44 24 20	 mov	 rax, QWORD PTR self$[rsp]
  000e5	8b 4c 24 50	 mov	 ecx, DWORD PTR microseconds$[rsp]
  000e9	89 48 70	 mov	 DWORD PTR [rax+112], ecx
$LN1@new_delta_:

; 752  :     }
; 753  :     return (PyObject *) self;

  000ec	48 8b 44 24 20	 mov	 rax, QWORD PTR self$[rsp]
$LN4@new_delta_:

; 754  : }

  000f1	48 83 c4 38	 add	 rsp, 56			; 00000038H
  000f5	c3		 ret	 0
new_delta_ex ENDP
_TEXT	ENDS
PUBLIC	??_C@_0CD@GIAJIAD@days?$DN?$CFd?$DL?5must?5have?5magnitude?5?$DM?$DN?5@ ; `string'
EXTRN	PyErr_Format:PROC
EXTRN	PyExc_OverflowError:QWORD
;	COMDAT pdata
pdata	SEGMENT
$pdata$check_delta_day_range DD imagerel check_delta_day_range
	DD	imagerel check_delta_day_range+72
	DD	imagerel $unwind$check_delta_day_range
pdata	ENDS
;	COMDAT xdata
xdata	SEGMENT
$unwind$check_delta_day_range DD 010801H
	DD	04208H
xdata	ENDS
;	COMDAT ??_C@_0CD@GIAJIAD@days?$DN?$CFd?$DL?5must?5have?5magnitude?5?$DM?$DN?5@
CONST	SEGMENT
??_C@_0CD@GIAJIAD@days?$DN?$CFd?$DL?5must?5have?5magnitude?5?$DM?$DN?5@ DB 'd'
	DB	'ays=%d; must have magnitude <= %d', 00H	; `string'
; Function compile flags: /Odtp
CONST	ENDS
;	COMDAT check_delta_day_range
_TEXT	SEGMENT
days$ = 48
check_delta_day_range PROC				; COMDAT

; 378  : {

  00000	89 4c 24 08	 mov	 DWORD PTR [rsp+8], ecx
  00004	48 83 ec 28	 sub	 rsp, 40			; 00000028H

; 379  :     if (-MAX_DELTA_DAYS <= days && days <= MAX_DELTA_DAYS)

  00008	81 7c 24 30 01
	36 65 c4	 cmp	 DWORD PTR days$[rsp], -999999999 ; ffffffffc4653601H
  00010	7c 0e		 jl	 SHORT $LN1@check_delt
  00012	81 7c 24 30 ff
	c9 9a 3b	 cmp	 DWORD PTR days$[rsp], 999999999 ; 3b9ac9ffH
  0001a	7f 04		 jg	 SHORT $LN1@check_delt

; 380  :         return 0;

  0001c	33 c0		 xor	 eax, eax
  0001e	eb 23		 jmp	 SHORT $LN2@check_delt
$LN1@check_delt:

; 381  :     PyErr_Format(PyExc_OverflowError,
; 382  :                  "days=%d; must have magnitude <= %d",
; 383  :                  days, MAX_DELTA_DAYS);

  00020	41 b9 ff c9 9a
	3b		 mov	 r9d, 999999999		; 3b9ac9ffH
  00026	44 8b 44 24 30	 mov	 r8d, DWORD PTR days$[rsp]
  0002b	48 8d 15 00 00
	00 00		 lea	 rdx, OFFSET FLAT:??_C@_0CD@GIAJIAD@days?$DN?$CFd?$DL?5must?5have?5magnitude?5?$DM?$DN?5@
  00032	48 8b 0d 00 00
	00 00		 mov	 rcx, QWORD PTR PyExc_OverflowError
  00039	e8 00 00 00 00	 call	 PyErr_Format

; 384  :     return -1;

  0003e	b8 ff ff ff ff	 mov	 eax, -1
$LN2@check_delt:

; 385  : }

  00043	48 83 c4 28	 add	 rsp, 40			; 00000028H
  00047	c3		 ret	 0
check_delta_day_range ENDP
_TEXT	ENDS
PUBLIC	??_C@_1DE@DFJLENKG@?$AA0?$AA?5?$AA?$DM?$AA?$DN?$AA?5?$AA?$CK?$AAu?$AAs?$AA?5?$AA?$CG?$AA?$CG?$AA?5?$AA?$CK?$AAu?$AAs?$AA?5?$AA?$DM?$AA?5?$AA1?$AA0?$AA0?$AA0?$AA0?$AA0?$AA0?$AA?$AA@ ; `string'
PUBLIC	??_C@_1DA@GMKBNAPO@?$AA0?$AA?5?$AA?$DM?$AA?$DN?$AA?5?$AA?$CK?$AAs?$AA?5?$AA?$CG?$AA?$CG?$AA?5?$AA?$CK?$AAs?$AA?5?$AA?$DM?$AA?5?$AA2?$AA4?$AA?$CK?$AA3?$AA6?$AA0?$AA0?$AA?$AA@ ; `string'
;	COMDAT pdata
pdata	SEGMENT
$pdata$normalize_d_s_us DD imagerel normalize_d_s_us
	DD	imagerel normalize_d_s_us+214
	DD	imagerel $unwind$normalize_d_s_us
pdata	ENDS
;	COMDAT xdata
xdata	SEGMENT
$unwind$normalize_d_s_us DD 011301H
	DD	04213H
xdata	ENDS
;	COMDAT ??_C@_1DE@DFJLENKG@?$AA0?$AA?5?$AA?$DM?$AA?$DN?$AA?5?$AA?$CK?$AAu?$AAs?$AA?5?$AA?$CG?$AA?$CG?$AA?5?$AA?$CK?$AAu?$AAs?$AA?5?$AA?$DM?$AA?5?$AA1?$AA0?$AA0?$AA0?$AA0?$AA0?$AA0?$AA?$AA@
CONST	SEGMENT
??_C@_1DE@DFJLENKG@?$AA0?$AA?5?$AA?$DM?$AA?$DN?$AA?5?$AA?$CK?$AAu?$AAs?$AA?5?$AA?$CG?$AA?$CG?$AA?5?$AA?$CK?$AAu?$AAs?$AA?5?$AA?$DM?$AA?5?$AA1?$AA0?$AA0?$AA0?$AA0?$AA0?$AA0?$AA?$AA@ DB '0'
	DB	00H, ' ', 00H, '<', 00H, '=', 00H, ' ', 00H, '*', 00H, 'u', 00H
	DB	's', 00H, ' ', 00H, '&', 00H, '&', 00H, ' ', 00H, '*', 00H, 'u'
	DB	00H, 's', 00H, ' ', 00H, '<', 00H, ' ', 00H, '1', 00H, '0', 00H
	DB	'0', 00H, '0', 00H, '0', 00H, '0', 00H, '0', 00H, 00H, 00H ; `string'
CONST	ENDS
;	COMDAT ??_C@_1DA@GMKBNAPO@?$AA0?$AA?5?$AA?$DM?$AA?$DN?$AA?5?$AA?$CK?$AAs?$AA?5?$AA?$CG?$AA?$CG?$AA?5?$AA?$CK?$AAs?$AA?5?$AA?$DM?$AA?5?$AA2?$AA4?$AA?$CK?$AA3?$AA6?$AA0?$AA0?$AA?$AA@
CONST	SEGMENT
??_C@_1DA@GMKBNAPO@?$AA0?$AA?5?$AA?$DM?$AA?$DN?$AA?5?$AA?$CK?$AAs?$AA?5?$AA?$CG?$AA?$CG?$AA?5?$AA?$CK?$AAs?$AA?5?$AA?$DM?$AA?5?$AA2?$AA4?$AA?$CK?$AA3?$AA6?$AA0?$AA0?$AA?$AA@ DB '0'
	DB	00H, ' ', 00H, '<', 00H, '=', 00H, ' ', 00H, '*', 00H, 's', 00H
	DB	' ', 00H, '&', 00H, '&', 00H, ' ', 00H, '*', 00H, 's', 00H, ' '
	DB	00H, '<', 00H, ' ', 00H, '2', 00H, '4', 00H, '*', 00H, '3', 00H
	DB	'6', 00H, '0', 00H, '0', 00H, 00H, 00H	; `string'
; Function compile flags: /Odtp
CONST	ENDS
;	COMDAT normalize_d_s_us
_TEXT	SEGMENT
d$ = 48
s$ = 56
us$ = 64
normalize_d_s_us PROC					; COMDAT

; 473  : {

  00000	4c 89 44 24 18	 mov	 QWORD PTR [rsp+24], r8
  00005	48 89 54 24 10	 mov	 QWORD PTR [rsp+16], rdx
  0000a	48 89 4c 24 08	 mov	 QWORD PTR [rsp+8], rcx
  0000f	48 83 ec 28	 sub	 rsp, 40			; 00000028H

; 474  :     if (*us < 0 || *us >= 1000000) {

  00013	48 8b 44 24 40	 mov	 rax, QWORD PTR us$[rsp]
  00018	83 38 00	 cmp	 DWORD PTR [rax], 0
  0001b	7c 0d		 jl	 SHORT $LN3@normalize_
  0001d	48 8b 44 24 40	 mov	 rax, QWORD PTR us$[rsp]
  00022	81 38 40 42 0f
	00		 cmp	 DWORD PTR [rax], 1000000 ; 000f4240H
  00028	7c 15		 jl	 SHORT $LN4@normalize_
$LN3@normalize_:

; 475  :         normalize_pair(s, us, 1000000);

  0002a	41 b8 40 42 0f
	00		 mov	 r8d, 1000000		; 000f4240H
  00030	48 8b 54 24 40	 mov	 rdx, QWORD PTR us$[rsp]
  00035	48 8b 4c 24 38	 mov	 rcx, QWORD PTR s$[rsp]
  0003a	e8 00 00 00 00	 call	 normalize_pair
$LN4@normalize_:

; 476  :         /* |s| can't be bigger than about
; 477  :          * |original s| + |original us|/1000000 now.
; 478  :          */
; 479  : 
; 480  :     }
; 481  :     if (*s < 0 || *s >= 24*3600) {

  0003f	48 8b 44 24 38	 mov	 rax, QWORD PTR s$[rsp]
  00044	83 38 00	 cmp	 DWORD PTR [rax], 0
  00047	7c 0d		 jl	 SHORT $LN1@normalize_
  00049	48 8b 44 24 38	 mov	 rax, QWORD PTR s$[rsp]
  0004e	81 38 80 51 01
	00		 cmp	 DWORD PTR [rax], 86400	; 00015180H
  00054	7c 15		 jl	 SHORT $LN2@normalize_
$LN1@normalize_:

; 482  :         normalize_pair(d, s, 24*3600);

  00056	41 b8 80 51 01
	00		 mov	 r8d, 86400		; 00015180H
  0005c	48 8b 54 24 38	 mov	 rdx, QWORD PTR s$[rsp]
  00061	48 8b 4c 24 30	 mov	 rcx, QWORD PTR d$[rsp]
  00066	e8 00 00 00 00	 call	 normalize_pair
$LN2@normalize_:

; 483  :         /* |d| can't be bigger than about
; 484  :          * |original d| +
; 485  :          * (|original s| + |original us|/1000000) / (24*3600) now.
; 486  :          */
; 487  :     }
; 488  :     assert(0 <= *s && *s < 24*3600);

  0006b	48 8b 44 24 38	 mov	 rax, QWORD PTR s$[rsp]
  00070	83 38 00	 cmp	 DWORD PTR [rax], 0
  00073	7c 0d		 jl	 SHORT $LN7@normalize_
  00075	48 8b 44 24 38	 mov	 rax, QWORD PTR s$[rsp]
  0007a	81 38 80 51 01
	00		 cmp	 DWORD PTR [rax], 86400	; 00015180H
  00080	7c 1c		 jl	 SHORT $LN8@normalize_
$LN7@normalize_:
  00082	41 b8 e8 01 00
	00		 mov	 r8d, 488		; 000001e8H
  00088	48 8d 15 00 00
	00 00		 lea	 rdx, OFFSET FLAT:??_C@_1DK@MIHLFJMJ@?$AA?4?$AA?4?$AA?2?$AAM?$AAo?$AAd?$AAu?$AAl?$AAe?$AAs?$AA?2?$AA_?$AAd?$AAa?$AAt?$AAe?$AAt?$AAi?$AAm?$AAe?$AAm?$AAo?$AAd?$AAu?$AAl?$AAe?$AA?4?$AAc?$AA?$AA@
  0008f	48 8d 0d 00 00
	00 00		 lea	 rcx, OFFSET FLAT:??_C@_1DA@GMKBNAPO@?$AA0?$AA?5?$AA?$DM?$AA?$DN?$AA?5?$AA?$CK?$AAs?$AA?5?$AA?$CG?$AA?$CG?$AA?5?$AA?$CK?$AAs?$AA?5?$AA?$DM?$AA?5?$AA2?$AA4?$AA?$CK?$AA3?$AA6?$AA0?$AA0?$AA?$AA@
  00096	ff 15 00 00 00
	00		 call	 QWORD PTR __imp__wassert
  0009c	33 c0		 xor	 eax, eax
$LN8@normalize_:

; 489  :     assert(0 <= *us && *us < 1000000);

  0009e	48 8b 44 24 40	 mov	 rax, QWORD PTR us$[rsp]
  000a3	83 38 00	 cmp	 DWORD PTR [rax], 0
  000a6	7c 0d		 jl	 SHORT $LN9@normalize_
  000a8	48 8b 44 24 40	 mov	 rax, QWORD PTR us$[rsp]
  000ad	81 38 40 42 0f
	00		 cmp	 DWORD PTR [rax], 1000000 ; 000f4240H
  000b3	7c 1c		 jl	 SHORT $LN10@normalize_
$LN9@normalize_:
  000b5	41 b8 e9 01 00
	00		 mov	 r8d, 489		; 000001e9H
  000bb	48 8d 15 00 00
	00 00		 lea	 rdx, OFFSET FLAT:??_C@_1DK@MIHLFJMJ@?$AA?4?$AA?4?$AA?2?$AAM?$AAo?$AAd?$AAu?$AAl?$AAe?$AAs?$AA?2?$AA_?$AAd?$AAa?$AAt?$AAe?$AAt?$AAi?$AAm?$AAe?$AAm?$AAo?$AAd?$AAu?$AAl?$AAe?$AA?4?$AAc?$AA?$AA@
  000c2	48 8d 0d 00 00
	00 00		 lea	 rcx, OFFSET FLAT:??_C@_1DE@DFJLENKG@?$AA0?$AA?5?$AA?$DM?$AA?$DN?$AA?5?$AA?$CK?$AAu?$AAs?$AA?5?$AA?$CG?$AA?$CG?$AA?5?$AA?$CK?$AAu?$AAs?$AA?5?$AA?$DM?$AA?5?$AA1?$AA0?$AA0?$AA0?$AA0?$AA0?$AA0?$AA?$AA@
  000c9	ff 15 00 00 00
	00		 call	 QWORD PTR __imp__wassert
  000cf	33 c0		 xor	 eax, eax
$LN10@normalize_:

; 490  : }

  000d1	48 83 c4 28	 add	 rsp, 40			; 00000028H
  000d5	c3		 ret	 0
normalize_d_s_us ENDP
_TEXT	ENDS
PUBLIC	??_C@_1DC@BOICJFGB@?$AA0?$AA?5?$AA?$DM?$AA?$DN?$AA?5?$AA?$CK?$AAl?$AAo?$AA?5?$AA?$CG?$AA?$CG?$AA?5?$AA?$CK?$AAl?$AAo?$AA?5?$AA?$DM?$AA?5?$AAf?$AAa?$AAc?$AAt?$AAo?$AAr?$AA?$AA@ ; `string'
PUBLIC	??_C@_1FK@FBOFMDGA@?$AA?$CB?$AA?5?$AAS?$AAI?$AAG?$AAN?$AAE?$AAD?$AA_?$AAA?$AAD?$AAD?$AA_?$AAO?$AAV?$AAE?$AAR?$AAF?$AAL?$AAO?$AAW?$AAE?$AAD?$AA?$CI?$AAn?$AAe?$AAw?$AA_?$AAh?$AAi?$AA?0?$AA?5@ ; `string'
PUBLIC	??_C@_1BC@FMHPNKHK@?$AAl?$AAo?$AA?5?$AA?$CB?$AA?$DN?$AA?5?$AAh?$AAi?$AA?$AA@ ; `string'
PUBLIC	??_C@_1BG@BBCKBPNA@?$AAf?$AAa?$AAc?$AAt?$AAo?$AAr?$AA?5?$AA?$DO?$AA?5?$AA0?$AA?$AA@ ; `string'
;	COMDAT pdata
pdata	SEGMENT
$pdata$normalize_pair DD imagerel normalize_pair
	DD	imagerel normalize_pair+285
	DD	imagerel $unwind$normalize_pair
pdata	ENDS
;	COMDAT xdata
xdata	SEGMENT
$unwind$normalize_pair DD 011301H
	DD	06213H
xdata	ENDS
;	COMDAT ??_C@_1DC@BOICJFGB@?$AA0?$AA?5?$AA?$DM?$AA?$DN?$AA?5?$AA?$CK?$AAl?$AAo?$AA?5?$AA?$CG?$AA?$CG?$AA?5?$AA?$CK?$AAl?$AAo?$AA?5?$AA?$DM?$AA?5?$AAf?$AAa?$AAc?$AAt?$AAo?$AAr?$AA?$AA@
CONST	SEGMENT
??_C@_1DC@BOICJFGB@?$AA0?$AA?5?$AA?$DM?$AA?$DN?$AA?5?$AA?$CK?$AAl?$AAo?$AA?5?$AA?$CG?$AA?$CG?$AA?5?$AA?$CK?$AAl?$AAo?$AA?5?$AA?$DM?$AA?5?$AAf?$AAa?$AAc?$AAt?$AAo?$AAr?$AA?$AA@ DB '0'
	DB	00H, ' ', 00H, '<', 00H, '=', 00H, ' ', 00H, '*', 00H, 'l', 00H
	DB	'o', 00H, ' ', 00H, '&', 00H, '&', 00H, ' ', 00H, '*', 00H, 'l'
	DB	00H, 'o', 00H, ' ', 00H, '<', 00H, ' ', 00H, 'f', 00H, 'a', 00H
	DB	'c', 00H, 't', 00H, 'o', 00H, 'r', 00H, 00H, 00H ; `string'
CONST	ENDS
;	COMDAT ??_C@_1FK@FBOFMDGA@?$AA?$CB?$AA?5?$AAS?$AAI?$AAG?$AAN?$AAE?$AAD?$AA_?$AAA?$AAD?$AAD?$AA_?$AAO?$AAV?$AAE?$AAR?$AAF?$AAL?$AAO?$AAW?$AAE?$AAD?$AA?$CI?$AAn?$AAe?$AAw?$AA_?$AAh?$AAi?$AA?0?$AA?5@
CONST	SEGMENT
??_C@_1FK@FBOFMDGA@?$AA?$CB?$AA?5?$AAS?$AAI?$AAG?$AAN?$AAE?$AAD?$AA_?$AAA?$AAD?$AAD?$AA_?$AAO?$AAV?$AAE?$AAR?$AAF?$AAL?$AAO?$AAW?$AAE?$AAD?$AA?$CI?$AAn?$AAe?$AAw?$AA_?$AAh?$AAi?$AA?0?$AA?5@ DB '!'
	DB	00H, ' ', 00H, 'S', 00H, 'I', 00H, 'G', 00H, 'N', 00H, 'E', 00H
	DB	'D', 00H, '_', 00H, 'A', 00H, 'D', 00H, 'D', 00H, '_', 00H, 'O'
	DB	00H, 'V', 00H, 'E', 00H, 'R', 00H, 'F', 00H, 'L', 00H, 'O', 00H
	DB	'W', 00H, 'E', 00H, 'D', 00H, '(', 00H, 'n', 00H, 'e', 00H, 'w'
	DB	00H, '_', 00H, 'h', 00H, 'i', 00H, ',', 00H, ' ', 00H, '*', 00H
	DB	'h', 00H, 'i', 00H, ',', 00H, ' ', 00H, 'n', 00H, 'u', 00H, 'm'
	DB	00H, '_', 00H, 'h', 00H, 'i', 00H, ')', 00H, 00H, 00H ; `string'
CONST	ENDS
;	COMDAT ??_C@_1BC@FMHPNKHK@?$AAl?$AAo?$AA?5?$AA?$CB?$AA?$DN?$AA?5?$AAh?$AAi?$AA?$AA@
CONST	SEGMENT
??_C@_1BC@FMHPNKHK@?$AAl?$AAo?$AA?5?$AA?$CB?$AA?$DN?$AA?5?$AAh?$AAi?$AA?$AA@ DB 'l'
	DB	00H, 'o', 00H, ' ', 00H, '!', 00H, '=', 00H, ' ', 00H, 'h', 00H
	DB	'i', 00H, 00H, 00H				; `string'
CONST	ENDS
;	COMDAT ??_C@_1BG@BBCKBPNA@?$AAf?$AAa?$AAc?$AAt?$AAo?$AAr?$AA?5?$AA?$DO?$AA?5?$AA0?$AA?$AA@
CONST	SEGMENT
??_C@_1BG@BBCKBPNA@?$AAf?$AAa?$AAc?$AAt?$AAo?$AAr?$AA?5?$AA?$DO?$AA?5?$AA0?$AA?$AA@ DB 'f'
	DB	00H, 'a', 00H, 'c', 00H, 't', 00H, 'o', 00H, 'r', 00H, ' ', 00H
	DB	'>', 00H, ' ', 00H, '0', 00H, 00H, 00H	; `string'
; Function compile flags: /Odtp
CONST	ENDS
;	COMDAT normalize_pair
_TEXT	SEGMENT
new_hi$20681 = 32
num_hi$20680 = 36
hi$ = 64
lo$ = 72
factor$ = 80
normalize_pair PROC					; COMDAT

; 453  : {

  00000	44 89 44 24 18	 mov	 DWORD PTR [rsp+24], r8d
  00005	48 89 54 24 10	 mov	 QWORD PTR [rsp+16], rdx
  0000a	48 89 4c 24 08	 mov	 QWORD PTR [rsp+8], rcx
  0000f	48 83 ec 38	 sub	 rsp, 56			; 00000038H

; 454  :     assert(factor > 0);

  00013	83 7c 24 50 00	 cmp	 DWORD PTR factor$[rsp], 0
  00018	7f 1c		 jg	 SHORT $LN5@normalize_@2
  0001a	41 b8 c6 01 00
	00		 mov	 r8d, 454		; 000001c6H
  00020	48 8d 15 00 00
	00 00		 lea	 rdx, OFFSET FLAT:??_C@_1DK@MIHLFJMJ@?$AA?4?$AA?4?$AA?2?$AAM?$AAo?$AAd?$AAu?$AAl?$AAe?$AAs?$AA?2?$AA_?$AAd?$AAa?$AAt?$AAe?$AAt?$AAi?$AAm?$AAe?$AAm?$AAo?$AAd?$AAu?$AAl?$AAe?$AA?4?$AAc?$AA?$AA@
  00027	48 8d 0d 00 00
	00 00		 lea	 rcx, OFFSET FLAT:??_C@_1BG@BBCKBPNA@?$AAf?$AAa?$AAc?$AAt?$AAo?$AAr?$AA?5?$AA?$DO?$AA?5?$AA0?$AA?$AA@
  0002e	ff 15 00 00 00
	00		 call	 QWORD PTR __imp__wassert
  00034	33 c0		 xor	 eax, eax
$LN5@normalize_@2:

; 455  :     assert(lo != hi);

  00036	48 8b 44 24 40	 mov	 rax, QWORD PTR hi$[rsp]
  0003b	48 39 44 24 48	 cmp	 QWORD PTR lo$[rsp], rax
  00040	75 1c		 jne	 SHORT $LN6@normalize_@2
  00042	41 b8 c7 01 00
	00		 mov	 r8d, 455		; 000001c7H
  00048	48 8d 15 00 00
	00 00		 lea	 rdx, OFFSET FLAT:??_C@_1DK@MIHLFJMJ@?$AA?4?$AA?4?$AA?2?$AAM?$AAo?$AAd?$AAu?$AAl?$AAe?$AAs?$AA?2?$AA_?$AAd?$AAa?$AAt?$AAe?$AAt?$AAi?$AAm?$AAe?$AAm?$AAo?$AAd?$AAu?$AAl?$AAe?$AA?4?$AAc?$AA?$AA@
  0004f	48 8d 0d 00 00
	00 00		 lea	 rcx, OFFSET FLAT:??_C@_1BC@FMHPNKHK@?$AAl?$AAo?$AA?5?$AA?$CB?$AA?$DN?$AA?5?$AAh?$AAi?$AA?$AA@
  00056	ff 15 00 00 00
	00		 call	 QWORD PTR __imp__wassert
  0005c	33 c0		 xor	 eax, eax
$LN6@normalize_@2:

; 456  :     if (*lo < 0 || *lo >= factor) {

  0005e	48 8b 44 24 48	 mov	 rax, QWORD PTR lo$[rsp]
  00063	83 38 00	 cmp	 DWORD PTR [rax], 0
  00066	7c 0d		 jl	 SHORT $LN1@normalize_@2
  00068	48 8b 44 24 48	 mov	 rax, QWORD PTR lo$[rsp]
  0006d	8b 4c 24 50	 mov	 ecx, DWORD PTR factor$[rsp]
  00071	39 08		 cmp	 DWORD PTR [rax], ecx
  00073	7c 70		 jl	 SHORT $LN2@normalize_@2
$LN1@normalize_@2:

; 457  :         const int num_hi = divmod(*lo, factor, lo);

  00075	4c 8b 44 24 48	 mov	 r8, QWORD PTR lo$[rsp]
  0007a	8b 54 24 50	 mov	 edx, DWORD PTR factor$[rsp]
  0007e	48 8b 44 24 48	 mov	 rax, QWORD PTR lo$[rsp]
  00083	8b 08		 mov	 ecx, DWORD PTR [rax]
  00085	e8 00 00 00 00	 call	 divmod
  0008a	89 44 24 24	 mov	 DWORD PTR num_hi$20680[rsp], eax

; 458  :         const int new_hi = *hi + num_hi;

  0008e	48 8b 44 24 40	 mov	 rax, QWORD PTR hi$[rsp]
  00093	8b 00		 mov	 eax, DWORD PTR [rax]
  00095	03 44 24 24	 add	 eax, DWORD PTR num_hi$20680[rsp]
  00099	89 44 24 20	 mov	 DWORD PTR new_hi$20681[rsp], eax

; 459  :         assert(! SIGNED_ADD_OVERFLOWED(new_hi, *hi, num_hi));

  0009d	48 8b 44 24 40	 mov	 rax, QWORD PTR hi$[rsp]
  000a2	8b 00		 mov	 eax, DWORD PTR [rax]
  000a4	8b 4c 24 20	 mov	 ecx, DWORD PTR new_hi$20681[rsp]
  000a8	33 c8		 xor	 ecx, eax
  000aa	8b c1		 mov	 eax, ecx
  000ac	8b 4c 24 24	 mov	 ecx, DWORD PTR num_hi$20680[rsp]
  000b0	8b 54 24 20	 mov	 edx, DWORD PTR new_hi$20681[rsp]
  000b4	33 d1		 xor	 edx, ecx
  000b6	8b ca		 mov	 ecx, edx
  000b8	23 c1		 and	 eax, ecx
  000ba	85 c0		 test	 eax, eax
  000bc	7d 1c		 jge	 SHORT $LN7@normalize_@2
  000be	41 b8 cb 01 00
	00		 mov	 r8d, 459		; 000001cbH
  000c4	48 8d 15 00 00
	00 00		 lea	 rdx, OFFSET FLAT:??_C@_1DK@MIHLFJMJ@?$AA?4?$AA?4?$AA?2?$AAM?$AAo?$AAd?$AAu?$AAl?$AAe?$AAs?$AA?2?$AA_?$AAd?$AAa?$AAt?$AAe?$AAt?$AAi?$AAm?$AAe?$AAm?$AAo?$AAd?$AAu?$AAl?$AAe?$AA?4?$AAc?$AA?$AA@
  000cb	48 8d 0d 00 00
	00 00		 lea	 rcx, OFFSET FLAT:??_C@_1FK@FBOFMDGA@?$AA?$CB?$AA?5?$AAS?$AAI?$AAG?$AAN?$AAE?$AAD?$AA_?$AAA?$AAD?$AAD?$AA_?$AAO?$AAV?$AAE?$AAR?$AAF?$AAL?$AAO?$AAW?$AAE?$AAD?$AA?$CI?$AAn?$AAe?$AAw?$AA_?$AAh?$AAi?$AA?0?$AA?5@
  000d2	ff 15 00 00 00
	00		 call	 QWORD PTR __imp__wassert
  000d8	33 c0		 xor	 eax, eax
$LN7@normalize_@2:

; 460  :         *hi = new_hi;

  000da	48 8b 44 24 40	 mov	 rax, QWORD PTR hi$[rsp]
  000df	8b 4c 24 20	 mov	 ecx, DWORD PTR new_hi$20681[rsp]
  000e3	89 08		 mov	 DWORD PTR [rax], ecx
$LN2@normalize_@2:

; 461  :     }
; 462  :     assert(0 <= *lo && *lo < factor);

  000e5	48 8b 44 24 48	 mov	 rax, QWORD PTR lo$[rsp]
  000ea	83 38 00	 cmp	 DWORD PTR [rax], 0
  000ed	7c 0d		 jl	 SHORT $LN8@normalize_@2
  000ef	48 8b 44 24 48	 mov	 rax, QWORD PTR lo$[rsp]
  000f4	8b 4c 24 50	 mov	 ecx, DWORD PTR factor$[rsp]
  000f8	39 08		 cmp	 DWORD PTR [rax], ecx
  000fa	7c 1c		 jl	 SHORT $LN9@normalize_@2
$LN8@normalize_@2:
  000fc	41 b8 ce 01 00
	00		 mov	 r8d, 462		; 000001ceH
  00102	48 8d 15 00 00
	00 00		 lea	 rdx, OFFSET FLAT:??_C@_1DK@MIHLFJMJ@?$AA?4?$AA?4?$AA?2?$AAM?$AAo?$AAd?$AAu?$AAl?$AAe?$AAs?$AA?2?$AA_?$AAd?$AAa?$AAt?$AAe?$AAt?$AAi?$AAm?$AAe?$AAm?$AAo?$AAd?$AAu?$AAl?$AAe?$AA?4?$AAc?$AA?$AA@
  00109	48 8d 0d 00 00
	00 00		 lea	 rcx, OFFSET FLAT:??_C@_1DC@BOICJFGB@?$AA0?$AA?5?$AA?$DM?$AA?$DN?$AA?5?$AA?$CK?$AAl?$AAo?$AA?5?$AA?$CG?$AA?$CG?$AA?5?$AA?$CK?$AAl?$AAo?$AA?5?$AA?$DM?$AA?5?$AAf?$AAa?$AAc?$AAt?$AAo?$AAr?$AA?$AA@
  00110	ff 15 00 00 00
	00		 call	 QWORD PTR __imp__wassert
  00116	33 c0		 xor	 eax, eax
$LN9@normalize_@2:

; 463  : }

  00118	48 83 c4 38	 add	 rsp, 56			; 00000038H
  0011c	c3		 ret	 0
normalize_pair ENDP
_TEXT	ENDS
PUBLIC	??_C@_1CE@HJNDIGKD@?$AA0?$AA?5?$AA?$DM?$AA?$DN?$AA?5?$AA?$CK?$AAr?$AA?5?$AA?$CG?$AA?$CG?$AA?5?$AA?$CK?$AAr?$AA?5?$AA?$DM?$AA?5?$AAy?$AA?$AA@ ; `string'
PUBLIC	??_C@_1M@BFFEDNPN@?$AAy?$AA?5?$AA?$DO?$AA?5?$AA0?$AA?$AA@ ; `string'
;	COMDAT pdata
pdata	SEGMENT
$pdata$divmod DD imagerel divmod
	DD	imagerel divmod+187
	DD	imagerel $unwind$divmod
pdata	ENDS
;	COMDAT xdata
xdata	SEGMENT
$unwind$divmod DD 011101H
	DD	06211H
xdata	ENDS
;	COMDAT ??_C@_1CE@HJNDIGKD@?$AA0?$AA?5?$AA?$DM?$AA?$DN?$AA?5?$AA?$CK?$AAr?$AA?5?$AA?$CG?$AA?$CG?$AA?5?$AA?$CK?$AAr?$AA?5?$AA?$DM?$AA?5?$AAy?$AA?$AA@
CONST	SEGMENT
??_C@_1CE@HJNDIGKD@?$AA0?$AA?5?$AA?$DM?$AA?$DN?$AA?5?$AA?$CK?$AAr?$AA?5?$AA?$CG?$AA?$CG?$AA?5?$AA?$CK?$AAr?$AA?5?$AA?$DM?$AA?5?$AAy?$AA?$AA@ DB '0'
	DB	00H, ' ', 00H, '<', 00H, '=', 00H, ' ', 00H, '*', 00H, 'r', 00H
	DB	' ', 00H, '&', 00H, '&', 00H, ' ', 00H, '*', 00H, 'r', 00H, ' '
	DB	00H, '<', 00H, ' ', 00H, 'y', 00H, 00H, 00H	; `string'
CONST	ENDS
;	COMDAT ??_C@_1M@BFFEDNPN@?$AAy?$AA?5?$AA?$DO?$AA?5?$AA0?$AA?$AA@
CONST	SEGMENT
??_C@_1M@BFFEDNPN@?$AAy?$AA?5?$AA?$DO?$AA?5?$AA0?$AA?$AA@ DB 'y', 00H, ' '
	DB	00H, '>', 00H, ' ', 00H, '0', 00H, 00H, 00H	; `string'
; Function compile flags: /Odtp
CONST	ENDS
;	COMDAT divmod
_TEXT	SEGMENT
quo$ = 32
x$ = 64
y$ = 72
r$ = 80
divmod	PROC						; COMDAT

; 129  : {

  00000	4c 89 44 24 18	 mov	 QWORD PTR [rsp+24], r8
  00005	89 54 24 10	 mov	 DWORD PTR [rsp+16], edx
  00009	89 4c 24 08	 mov	 DWORD PTR [rsp+8], ecx
  0000d	48 83 ec 38	 sub	 rsp, 56			; 00000038H

; 130  :     int quo;
; 131  : 
; 132  :     assert(y > 0);

  00011	83 7c 24 48 00	 cmp	 DWORD PTR y$[rsp], 0
  00016	7f 1c		 jg	 SHORT $LN4@divmod
  00018	41 b8 84 00 00
	00		 mov	 r8d, 132		; 00000084H
  0001e	48 8d 15 00 00
	00 00		 lea	 rdx, OFFSET FLAT:??_C@_1DK@MIHLFJMJ@?$AA?4?$AA?4?$AA?2?$AAM?$AAo?$AAd?$AAu?$AAl?$AAe?$AAs?$AA?2?$AA_?$AAd?$AAa?$AAt?$AAe?$AAt?$AAi?$AAm?$AAe?$AAm?$AAo?$AAd?$AAu?$AAl?$AAe?$AA?4?$AAc?$AA?$AA@
  00025	48 8d 0d 00 00
	00 00		 lea	 rcx, OFFSET FLAT:??_C@_1M@BFFEDNPN@?$AAy?$AA?5?$AA?$DO?$AA?5?$AA0?$AA?$AA@
  0002c	ff 15 00 00 00
	00		 call	 QWORD PTR __imp__wassert
  00032	33 c0		 xor	 eax, eax
$LN4@divmod:

; 133  :     quo = x / y;

  00034	8b 44 24 40	 mov	 eax, DWORD PTR x$[rsp]
  00038	99		 cdq
  00039	f7 7c 24 48	 idiv	 DWORD PTR y$[rsp]
  0003d	89 44 24 20	 mov	 DWORD PTR quo$[rsp], eax

; 134  :     *r = x - quo * y;

  00041	8b 44 24 20	 mov	 eax, DWORD PTR quo$[rsp]
  00045	0f af 44 24 48	 imul	 eax, DWORD PTR y$[rsp]
  0004a	8b 4c 24 40	 mov	 ecx, DWORD PTR x$[rsp]
  0004e	2b c8		 sub	 ecx, eax
  00050	8b c1		 mov	 eax, ecx
  00052	48 8b 4c 24 50	 mov	 rcx, QWORD PTR r$[rsp]
  00057	89 01		 mov	 DWORD PTR [rcx], eax

; 135  :     if (*r < 0) {

  00059	48 8b 44 24 50	 mov	 rax, QWORD PTR r$[rsp]
  0005e	83 38 00	 cmp	 DWORD PTR [rax], 0
  00061	7d 1c		 jge	 SHORT $LN1@divmod

; 136  :         --quo;

  00063	8b 44 24 20	 mov	 eax, DWORD PTR quo$[rsp]
  00067	ff c8		 dec	 eax
  00069	89 44 24 20	 mov	 DWORD PTR quo$[rsp], eax

; 137  :         *r += y;

  0006d	48 8b 44 24 50	 mov	 rax, QWORD PTR r$[rsp]
  00072	8b 00		 mov	 eax, DWORD PTR [rax]
  00074	03 44 24 48	 add	 eax, DWORD PTR y$[rsp]
  00078	48 8b 4c 24 50	 mov	 rcx, QWORD PTR r$[rsp]
  0007d	89 01		 mov	 DWORD PTR [rcx], eax
$LN1@divmod:

; 138  :     }
; 139  :     assert(0 <= *r && *r < y);

  0007f	48 8b 44 24 50	 mov	 rax, QWORD PTR r$[rsp]
  00084	83 38 00	 cmp	 DWORD PTR [rax], 0
  00087	7c 0d		 jl	 SHORT $LN5@divmod
  00089	48 8b 44 24 50	 mov	 rax, QWORD PTR r$[rsp]
  0008e	8b 4c 24 48	 mov	 ecx, DWORD PTR y$[rsp]
  00092	39 08		 cmp	 DWORD PTR [rax], ecx
  00094	7c 1c		 jl	 SHORT $LN6@divmod
$LN5@divmod:
  00096	41 b8 8b 00 00
	00		 mov	 r8d, 139		; 0000008bH
  0009c	48 8d 15 00 00
	00 00		 lea	 rdx, OFFSET FLAT:??_C@_1DK@MIHLFJMJ@?$AA?4?$AA?4?$AA?2?$AAM?$AAo?$AAd?$AAu?$AAl?$AAe?$AAs?$AA?2?$AA_?$AAd?$AAa?$AAt?$AAe?$AAt?$AAi?$AAm?$AAe?$AAm?$AAo?$AAd?$AAu?$AAl?$AAe?$AA?4?$AAc?$AA?$AA@
  000a3	48 8d 0d 00 00
	00 00		 lea	 rcx, OFFSET FLAT:??_C@_1CE@HJNDIGKD@?$AA0?$AA?5?$AA?$DM?$AA?$DN?$AA?5?$AA?$CK?$AAr?$AA?5?$AA?$CG?$AA?$CG?$AA?5?$AA?$CK?$AAr?$AA?5?$AA?$DM?$AA?5?$AAy?$AA?$AA@
  000aa	ff 15 00 00 00
	00		 call	 QWORD PTR __imp__wassert
  000b0	33 c0		 xor	 eax, eax
$LN6@divmod:

; 140  :     return quo;

  000b2	8b 44 24 20	 mov	 eax, DWORD PTR quo$[rsp]

; 141  : }

  000b6	48 83 c4 38	 add	 rsp, 56			; 00000038H
  000ba	c3		 ret	 0
divmod	ENDP
_TEXT	ENDS
EXTRN	PyType_IsSubtype:PROC
EXTRN	_Py_NotImplementedStruct:BYTE
;	COMDAT pdata
pdata	SEGMENT
$pdata$delta_add DD imagerel delta_add
	DD	imagerel delta_add+251
	DD	imagerel $unwind$delta_add
pdata	ENDS
;	COMDAT xdata
xdata	SEGMENT
$unwind$delta_add DD 010e01H
	DD	0a20eH
; Function compile flags: /Odtp
xdata	ENDS
;	COMDAT delta_add
_TEXT	SEGMENT
result$ = 48
days$21896 = 56
seconds$21899 = 60
microseconds$21902 = 64
left$ = 96
right$ = 104
delta_add PROC						; COMDAT

; 1727 : {

  00000	48 89 54 24 10	 mov	 QWORD PTR [rsp+16], rdx
  00005	48 89 4c 24 08	 mov	 QWORD PTR [rsp+8], rcx
  0000a	48 83 ec 58	 sub	 rsp, 88			; 00000058H

; 1728 :     PyObject *result = Py_NotImplemented;

  0000e	48 8d 05 00 00
	00 00		 lea	 rax, OFFSET FLAT:_Py_NotImplementedStruct
  00015	48 89 44 24 30	 mov	 QWORD PTR result$[rsp], rax

; 1729 : 
; 1730 :     if (PyDelta_Check(left) && PyDelta_Check(right)) {

  0001a	48 8d 05 00 00
	00 00		 lea	 rax, OFFSET FLAT:PyDateTime_DeltaType
  00021	48 8b 4c 24 60	 mov	 rcx, QWORD PTR left$[rsp]
  00026	48 39 41 58	 cmp	 QWORD PTR [rcx+88], rax
  0002a	74 1d		 je	 SHORT $LN3@delta_add
  0002c	48 8d 15 00 00
	00 00		 lea	 rdx, OFFSET FLAT:PyDateTime_DeltaType
  00033	48 8b 44 24 60	 mov	 rax, QWORD PTR left$[rsp]
  00038	48 8b 48 58	 mov	 rcx, QWORD PTR [rax+88]
  0003c	e8 00 00 00 00	 call	 PyType_IsSubtype
  00041	85 c0		 test	 eax, eax
  00043	0f 84 90 00 00
	00		 je	 $LN4@delta_add
$LN3@delta_add:
  00049	48 8d 05 00 00
	00 00		 lea	 rax, OFFSET FLAT:PyDateTime_DeltaType
  00050	48 8b 4c 24 68	 mov	 rcx, QWORD PTR right$[rsp]
  00055	48 39 41 58	 cmp	 QWORD PTR [rcx+88], rax
  00059	74 19		 je	 SHORT $LN2@delta_add
  0005b	48 8d 15 00 00
	00 00		 lea	 rdx, OFFSET FLAT:PyDateTime_DeltaType
  00062	48 8b 44 24 68	 mov	 rax, QWORD PTR right$[rsp]
  00067	48 8b 48 58	 mov	 rcx, QWORD PTR [rax+88]
  0006b	e8 00 00 00 00	 call	 PyType_IsSubtype
  00070	85 c0		 test	 eax, eax
  00072	74 65		 je	 SHORT $LN4@delta_add
$LN2@delta_add:

; 1731 :         /* delta + delta */
; 1732 :         /* The C-level additions can't overflow because of the
; 1733 :          * invariant bounds.
; 1734 :          */
; 1735 :         int days = GET_TD_DAYS(left) + GET_TD_DAYS(right);

  00074	48 8b 44 24 60	 mov	 rax, QWORD PTR left$[rsp]
  00079	8b 40 68	 mov	 eax, DWORD PTR [rax+104]
  0007c	48 8b 4c 24 68	 mov	 rcx, QWORD PTR right$[rsp]
  00081	03 41 68	 add	 eax, DWORD PTR [rcx+104]
  00084	89 44 24 38	 mov	 DWORD PTR days$21896[rsp], eax

; 1736 :         int seconds = GET_TD_SECONDS(left) + GET_TD_SECONDS(right);

  00088	48 8b 44 24 60	 mov	 rax, QWORD PTR left$[rsp]
  0008d	8b 40 6c	 mov	 eax, DWORD PTR [rax+108]
  00090	48 8b 4c 24 68	 mov	 rcx, QWORD PTR right$[rsp]
  00095	03 41 6c	 add	 eax, DWORD PTR [rcx+108]
  00098	89 44 24 3c	 mov	 DWORD PTR seconds$21899[rsp], eax

; 1737 :         int microseconds = GET_TD_MICROSECONDS(left) +
; 1738 :                            GET_TD_MICROSECONDS(right);

  0009c	48 8b 44 24 60	 mov	 rax, QWORD PTR left$[rsp]
  000a1	8b 40 70	 mov	 eax, DWORD PTR [rax+112]
  000a4	48 8b 4c 24 68	 mov	 rcx, QWORD PTR right$[rsp]
  000a9	03 41 70	 add	 eax, DWORD PTR [rcx+112]
  000ac	89 44 24 40	 mov	 DWORD PTR microseconds$21902[rsp], eax

; 1739 :         result = new_delta(days, seconds, microseconds, 1);

  000b0	48 8d 05 00 00
	00 00		 lea	 rax, OFFSET FLAT:PyDateTime_DeltaType
  000b7	48 89 44 24 20	 mov	 QWORD PTR [rsp+32], rax
  000bc	41 b9 01 00 00
	00		 mov	 r9d, 1
  000c2	44 8b 44 24 40	 mov	 r8d, DWORD PTR microseconds$21902[rsp]
  000c7	8b 54 24 3c	 mov	 edx, DWORD PTR seconds$21899[rsp]
  000cb	8b 4c 24 38	 mov	 ecx, DWORD PTR days$21896[rsp]
  000cf	e8 00 00 00 00	 call	 new_delta_ex
  000d4	48 89 44 24 30	 mov	 QWORD PTR result$[rsp], rax
$LN4@delta_add:

; 1740 :     }
; 1741 : 
; 1742 :     if (result == Py_NotImplemented)

  000d9	48 8d 05 00 00
	00 00		 lea	 rax, OFFSET FLAT:_Py_NotImplementedStruct
  000e0	48 39 44 24 30	 cmp	 QWORD PTR result$[rsp], rax
  000e5	75 0a		 jne	 SHORT $LN1@delta_add

; 1743 :         Py_INCREF(result);

  000e7	48 8b 4c 24 30	 mov	 rcx, QWORD PTR result$[rsp]
  000ec	e8 00 00 00 00	 call	 _Py_IncRef
$LN1@delta_add:

; 1744 :     return result;

  000f1	48 8b 44 24 30	 mov	 rax, QWORD PTR result$[rsp]

; 1745 : }

  000f6	48 83 c4 58	 add	 rsp, 88			; 00000058H
  000fa	c3		 ret	 0
delta_add ENDP
_TEXT	ENDS
;	COMDAT pdata
pdata	SEGMENT
$pdata$delta_negative DD imagerel delta_negative
	DD	imagerel delta_negative+82
	DD	imagerel $unwind$delta_negative
pdata	ENDS
;	COMDAT xdata
xdata	SEGMENT
$unwind$delta_negative DD 010901H
	DD	08209H
; Function compile flags: /Odtp
xdata	ENDS
;	COMDAT delta_negative
_TEXT	SEGMENT
tv74 = 48
self$ = 80
delta_negative PROC					; COMDAT

; 1749 : {

  00000	48 89 4c 24 08	 mov	 QWORD PTR [rsp+8], rcx
  00005	48 83 ec 48	 sub	 rsp, 72			; 00000048H

; 1750 :     return new_delta(-GET_TD_DAYS(self),
; 1751 :                      -GET_TD_SECONDS(self),
; 1752 :                      -GET_TD_MICROSECONDS(self),
; 1753 :                      1);

  00009	48 8b 44 24 50	 mov	 rax, QWORD PTR self$[rsp]
  0000e	8b 40 70	 mov	 eax, DWORD PTR [rax+112]
  00011	f7 d8		 neg	 eax
  00013	48 8b 4c 24 50	 mov	 rcx, QWORD PTR self$[rsp]
  00018	8b 49 6c	 mov	 ecx, DWORD PTR [rcx+108]
  0001b	f7 d9		 neg	 ecx
  0001d	48 8b 54 24 50	 mov	 rdx, QWORD PTR self$[rsp]
  00022	8b 52 68	 mov	 edx, DWORD PTR [rdx+104]
  00025	f7 da		 neg	 edx
  00027	89 54 24 30	 mov	 DWORD PTR tv74[rsp], edx
  0002b	4c 8d 05 00 00
	00 00		 lea	 r8, OFFSET FLAT:PyDateTime_DeltaType
  00032	4c 89 44 24 20	 mov	 QWORD PTR [rsp+32], r8
  00037	41 b9 01 00 00
	00		 mov	 r9d, 1
  0003d	44 8b c0	 mov	 r8d, eax
  00040	8b d1		 mov	 edx, ecx
  00042	8b 44 24 30	 mov	 eax, DWORD PTR tv74[rsp]
  00046	8b c8		 mov	 ecx, eax
  00048	e8 00 00 00 00	 call	 new_delta_ex

; 1754 : }

  0004d	48 83 c4 48	 add	 rsp, 72			; 00000048H
  00051	c3		 ret	 0
delta_negative ENDP
_TEXT	ENDS
;	COMDAT pdata
pdata	SEGMENT
$pdata$delta_positive DD imagerel delta_positive
	DD	imagerel delta_positive+59
	DD	imagerel $unwind$delta_positive
pdata	ENDS
;	COMDAT xdata
xdata	SEGMENT
$unwind$delta_positive DD 010901H
	DD	06209H
; Function compile flags: /Odtp
xdata	ENDS
;	COMDAT delta_positive
_TEXT	SEGMENT
self$ = 64
delta_positive PROC					; COMDAT

; 1758 : {

  00000	48 89 4c 24 08	 mov	 QWORD PTR [rsp+8], rcx
  00005	48 83 ec 38	 sub	 rsp, 56			; 00000038H

; 1759 :     /* Could optimize this (by returning self) if this isn't a
; 1760 :      * subclass -- but who uses unary + ?  Approximately nobody.
; 1761 :      */
; 1762 :     return new_delta(GET_TD_DAYS(self),
; 1763 :                      GET_TD_SECONDS(self),
; 1764 :                      GET_TD_MICROSECONDS(self),
; 1765 :                      0);

  00009	48 8d 05 00 00
	00 00		 lea	 rax, OFFSET FLAT:PyDateTime_DeltaType
  00010	48 89 44 24 20	 mov	 QWORD PTR [rsp+32], rax
  00015	45 33 c9	 xor	 r9d, r9d
  00018	48 8b 44 24 40	 mov	 rax, QWORD PTR self$[rsp]
  0001d	44 8b 40 70	 mov	 r8d, DWORD PTR [rax+112]
  00021	48 8b 44 24 40	 mov	 rax, QWORD PTR self$[rsp]
  00026	8b 50 6c	 mov	 edx, DWORD PTR [rax+108]
  00029	48 8b 44 24 40	 mov	 rax, QWORD PTR self$[rsp]
  0002e	8b 48 68	 mov	 ecx, DWORD PTR [rax+104]
  00031	e8 00 00 00 00	 call	 new_delta_ex

; 1766 : }

  00036	48 83 c4 38	 add	 rsp, 56			; 00000038H
  0003a	c3		 ret	 0
delta_positive ENDP
_TEXT	ENDS
PUBLIC	??_C@_1DE@DPFHFDHE@?$AAG?$AAE?$AAT?$AA_?$AAT?$AAD?$AA_?$AAS?$AAE?$AAC?$AAO?$AAN?$AAD?$AAS?$AA?$CI?$AAs?$AAe?$AAl?$AAf?$AA?$CJ?$AA?5?$AA?$DO?$AA?$DN?$AA?5?$AA0?$AA?$AA@ ; `string'
PUBLIC	??_C@_1DO@LIIKIPFL@?$AAG?$AAE?$AAT?$AA_?$AAT?$AAD?$AA_?$AAM?$AAI?$AAC?$AAR?$AAO?$AAS?$AAE?$AAC?$AAO?$AAN?$AAD?$AAS?$AA?$CI?$AAs?$AAe?$AAl?$AAf?$AA?$CJ?$AA?5?$AA?$DO?$AA?$DN?$AA?5?$AA0?$AA?$AA@ ; `string'
;	COMDAT pdata
pdata	SEGMENT
$pdata$delta_abs DD imagerel delta_abs
	DD	imagerel delta_abs+140
	DD	imagerel $unwind$delta_abs
pdata	ENDS
;	COMDAT xdata
xdata	SEGMENT
$unwind$delta_abs DD 010901H
	DD	06209H
xdata	ENDS
;	COMDAT ??_C@_1DE@DPFHFDHE@?$AAG?$AAE?$AAT?$AA_?$AAT?$AAD?$AA_?$AAS?$AAE?$AAC?$AAO?$AAN?$AAD?$AAS?$AA?$CI?$AAs?$AAe?$AAl?$AAf?$AA?$CJ?$AA?5?$AA?$DO?$AA?$DN?$AA?5?$AA0?$AA?$AA@
CONST	SEGMENT
??_C@_1DE@DPFHFDHE@?$AAG?$AAE?$AAT?$AA_?$AAT?$AAD?$AA_?$AAS?$AAE?$AAC?$AAO?$AAN?$AAD?$AAS?$AA?$CI?$AAs?$AAe?$AAl?$AAf?$AA?$CJ?$AA?5?$AA?$DO?$AA?$DN?$AA?5?$AA0?$AA?$AA@ DB 'G'
	DB	00H, 'E', 00H, 'T', 00H, '_', 00H, 'T', 00H, 'D', 00H, '_', 00H
	DB	'S', 00H, 'E', 00H, 'C', 00H, 'O', 00H, 'N', 00H, 'D', 00H, 'S'
	DB	00H, '(', 00H, 's', 00H, 'e', 00H, 'l', 00H, 'f', 00H, ')', 00H
	DB	' ', 00H, '>', 00H, '=', 00H, ' ', 00H, '0', 00H, 00H, 00H ; `string'
CONST	ENDS
;	COMDAT ??_C@_1DO@LIIKIPFL@?$AAG?$AAE?$AAT?$AA_?$AAT?$AAD?$AA_?$AAM?$AAI?$AAC?$AAR?$AAO?$AAS?$AAE?$AAC?$AAO?$AAN?$AAD?$AAS?$AA?$CI?$AAs?$AAe?$AAl?$AAf?$AA?$CJ?$AA?5?$AA?$DO?$AA?$DN?$AA?5?$AA0?$AA?$AA@
CONST	SEGMENT
??_C@_1DO@LIIKIPFL@?$AAG?$AAE?$AAT?$AA_?$AAT?$AAD?$AA_?$AAM?$AAI?$AAC?$AAR?$AAO?$AAS?$AAE?$AAC?$AAO?$AAN?$AAD?$AAS?$AA?$CI?$AAs?$AAe?$AAl?$AAf?$AA?$CJ?$AA?5?$AA?$DO?$AA?$DN?$AA?5?$AA0?$AA?$AA@ DB 'G'
	DB	00H, 'E', 00H, 'T', 00H, '_', 00H, 'T', 00H, 'D', 00H, '_', 00H
	DB	'M', 00H, 'I', 00H, 'C', 00H, 'R', 00H, 'O', 00H, 'S', 00H, 'E'
	DB	00H, 'C', 00H, 'O', 00H, 'N', 00H, 'D', 00H, 'S', 00H, '(', 00H
	DB	's', 00H, 'e', 00H, 'l', 00H, 'f', 00H, ')', 00H, ' ', 00H, '>'
	DB	00H, '=', 00H, ' ', 00H, '0', 00H, 00H, 00H	; `string'
; Function compile flags: /Odtp
CONST	ENDS
;	COMDAT delta_abs
_TEXT	SEGMENT
result$ = 32
self$ = 64
delta_abs PROC						; COMDAT

; 1770 : {

  00000	48 89 4c 24 08	 mov	 QWORD PTR [rsp+8], rcx
  00005	48 83 ec 38	 sub	 rsp, 56			; 00000038H

; 1771 :     PyObject *result;
; 1772 : 
; 1773 :     assert(GET_TD_MICROSECONDS(self) >= 0);

  00009	48 8b 44 24 40	 mov	 rax, QWORD PTR self$[rsp]
  0000e	83 78 70 00	 cmp	 DWORD PTR [rax+112], 0
  00012	7d 1c		 jge	 SHORT $LN5@delta_abs
  00014	41 b8 ed 06 00
	00		 mov	 r8d, 1773		; 000006edH
  0001a	48 8d 15 00 00
	00 00		 lea	 rdx, OFFSET FLAT:??_C@_1DK@MIHLFJMJ@?$AA?4?$AA?4?$AA?2?$AAM?$AAo?$AAd?$AAu?$AAl?$AAe?$AAs?$AA?2?$AA_?$AAd?$AAa?$AAt?$AAe?$AAt?$AAi?$AAm?$AAe?$AAm?$AAo?$AAd?$AAu?$AAl?$AAe?$AA?4?$AAc?$AA?$AA@
  00021	48 8d 0d 00 00
	00 00		 lea	 rcx, OFFSET FLAT:??_C@_1DO@LIIKIPFL@?$AAG?$AAE?$AAT?$AA_?$AAT?$AAD?$AA_?$AAM?$AAI?$AAC?$AAR?$AAO?$AAS?$AAE?$AAC?$AAO?$AAN?$AAD?$AAS?$AA?$CI?$AAs?$AAe?$AAl?$AAf?$AA?$CJ?$AA?5?$AA?$DO?$AA?$DN?$AA?5?$AA0?$AA?$AA@
  00028	ff 15 00 00 00
	00		 call	 QWORD PTR __imp__wassert
  0002e	33 c0		 xor	 eax, eax
$LN5@delta_abs:

; 1774 :     assert(GET_TD_SECONDS(self) >= 0);

  00030	48 8b 44 24 40	 mov	 rax, QWORD PTR self$[rsp]
  00035	83 78 6c 00	 cmp	 DWORD PTR [rax+108], 0
  00039	7d 1c		 jge	 SHORT $LN6@delta_abs
  0003b	41 b8 ee 06 00
	00		 mov	 r8d, 1774		; 000006eeH
  00041	48 8d 15 00 00
	00 00		 lea	 rdx, OFFSET FLAT:??_C@_1DK@MIHLFJMJ@?$AA?4?$AA?4?$AA?2?$AAM?$AAo?$AAd?$AAu?$AAl?$AAe?$AAs?$AA?2?$AA_?$AAd?$AAa?$AAt?$AAe?$AAt?$AAi?$AAm?$AAe?$AAm?$AAo?$AAd?$AAu?$AAl?$AAe?$AA?4?$AAc?$AA?$AA@
  00048	48 8d 0d 00 00
	00 00		 lea	 rcx, OFFSET FLAT:??_C@_1DE@DPFHFDHE@?$AAG?$AAE?$AAT?$AA_?$AAT?$AAD?$AA_?$AAS?$AAE?$AAC?$AAO?$AAN?$AAD?$AAS?$AA?$CI?$AAs?$AAe?$AAl?$AAf?$AA?$CJ?$AA?5?$AA?$DO?$AA?$DN?$AA?5?$AA0?$AA?$AA@
  0004f	ff 15 00 00 00
	00		 call	 QWORD PTR __imp__wassert
  00055	33 c0		 xor	 eax, eax
$LN6@delta_abs:

; 1775 : 
; 1776 :     if (GET_TD_DAYS(self) < 0)

  00057	48 8b 44 24 40	 mov	 rax, QWORD PTR self$[rsp]
  0005c	83 78 68 00	 cmp	 DWORD PTR [rax+104], 0
  00060	7d 11		 jge	 SHORT $LN2@delta_abs

; 1777 :         result = delta_negative(self);

  00062	48 8b 4c 24 40	 mov	 rcx, QWORD PTR self$[rsp]
  00067	e8 00 00 00 00	 call	 delta_negative
  0006c	48 89 44 24 20	 mov	 QWORD PTR result$[rsp], rax

; 1778 :     else

  00071	eb 0f		 jmp	 SHORT $LN1@delta_abs
$LN2@delta_abs:

; 1779 :         result = delta_positive(self);

  00073	48 8b 4c 24 40	 mov	 rcx, QWORD PTR self$[rsp]
  00078	e8 00 00 00 00	 call	 delta_positive
  0007d	48 89 44 24 20	 mov	 QWORD PTR result$[rsp], rax
$LN1@delta_abs:

; 1780 : 
; 1781 :     return result;

  00082	48 8b 44 24 20	 mov	 rax, QWORD PTR result$[rsp]

; 1782 : }

  00087	48 83 c4 38	 add	 rsp, 56			; 00000038H
  0008b	c3		 ret	 0
delta_abs ENDP
_TEXT	ENDS
;	COMDAT pdata
pdata	SEGMENT
$pdata$delta_subtract DD imagerel delta_subtract
	DD	imagerel delta_subtract+257
	DD	imagerel $unwind$delta_subtract
pdata	ENDS
;	COMDAT xdata
xdata	SEGMENT
$unwind$delta_subtract DD 010e01H
	DD	0a20eH
; Function compile flags: /Odtp
xdata	ENDS
;	COMDAT delta_subtract
_TEXT	SEGMENT
result$ = 48
days$21948 = 56
seconds$21951 = 60
microseconds$21954 = 64
left$ = 96
right$ = 104
delta_subtract PROC					; COMDAT

; 1786 : {

  00000	48 89 54 24 10	 mov	 QWORD PTR [rsp+16], rdx
  00005	48 89 4c 24 08	 mov	 QWORD PTR [rsp+8], rcx
  0000a	48 83 ec 58	 sub	 rsp, 88			; 00000058H

; 1787 :     PyObject *result = Py_NotImplemented;

  0000e	48 8d 05 00 00
	00 00		 lea	 rax, OFFSET FLAT:_Py_NotImplementedStruct
  00015	48 89 44 24 30	 mov	 QWORD PTR result$[rsp], rax

; 1788 : 
; 1789 :     if (PyDelta_Check(left) && PyDelta_Check(right)) {

  0001a	48 8d 05 00 00
	00 00		 lea	 rax, OFFSET FLAT:PyDateTime_DeltaType
  00021	48 8b 4c 24 60	 mov	 rcx, QWORD PTR left$[rsp]
  00026	48 39 41 58	 cmp	 QWORD PTR [rcx+88], rax
  0002a	74 1d		 je	 SHORT $LN3@delta_subt
  0002c	48 8d 15 00 00
	00 00		 lea	 rdx, OFFSET FLAT:PyDateTime_DeltaType
  00033	48 8b 44 24 60	 mov	 rax, QWORD PTR left$[rsp]
  00038	48 8b 48 58	 mov	 rcx, QWORD PTR [rax+88]
  0003c	e8 00 00 00 00	 call	 PyType_IsSubtype
  00041	85 c0		 test	 eax, eax
  00043	0f 84 96 00 00
	00		 je	 $LN4@delta_subt
$LN3@delta_subt:
  00049	48 8d 05 00 00
	00 00		 lea	 rax, OFFSET FLAT:PyDateTime_DeltaType
  00050	48 8b 4c 24 68	 mov	 rcx, QWORD PTR right$[rsp]
  00055	48 39 41 58	 cmp	 QWORD PTR [rcx+88], rax
  00059	74 19		 je	 SHORT $LN2@delta_subt
  0005b	48 8d 15 00 00
	00 00		 lea	 rdx, OFFSET FLAT:PyDateTime_DeltaType
  00062	48 8b 44 24 68	 mov	 rax, QWORD PTR right$[rsp]
  00067	48 8b 48 58	 mov	 rcx, QWORD PTR [rax+88]
  0006b	e8 00 00 00 00	 call	 PyType_IsSubtype
  00070	85 c0		 test	 eax, eax
  00072	74 6b		 je	 SHORT $LN4@delta_subt
$LN2@delta_subt:

; 1790 :         /* delta - delta */
; 1791 :         /* The C-level additions can't overflow because of the
; 1792 :          * invariant bounds.
; 1793 :          */
; 1794 :         int days = GET_TD_DAYS(left) - GET_TD_DAYS(right);

  00074	48 8b 44 24 60	 mov	 rax, QWORD PTR left$[rsp]
  00079	48 8b 4c 24 68	 mov	 rcx, QWORD PTR right$[rsp]
  0007e	8b 49 68	 mov	 ecx, DWORD PTR [rcx+104]
  00081	8b 40 68	 mov	 eax, DWORD PTR [rax+104]
  00084	2b c1		 sub	 eax, ecx
  00086	89 44 24 38	 mov	 DWORD PTR days$21948[rsp], eax

; 1795 :         int seconds = GET_TD_SECONDS(left) - GET_TD_SECONDS(right);

  0008a	48 8b 44 24 60	 mov	 rax, QWORD PTR left$[rsp]
  0008f	48 8b 4c 24 68	 mov	 rcx, QWORD PTR right$[rsp]
  00094	8b 49 6c	 mov	 ecx, DWORD PTR [rcx+108]
  00097	8b 40 6c	 mov	 eax, DWORD PTR [rax+108]
  0009a	2b c1		 sub	 eax, ecx
  0009c	89 44 24 3c	 mov	 DWORD PTR seconds$21951[rsp], eax

; 1796 :         int microseconds = GET_TD_MICROSECONDS(left) -
; 1797 :                            GET_TD_MICROSECONDS(right);

  000a0	48 8b 44 24 60	 mov	 rax, QWORD PTR left$[rsp]
  000a5	48 8b 4c 24 68	 mov	 rcx, QWORD PTR right$[rsp]
  000aa	8b 49 70	 mov	 ecx, DWORD PTR [rcx+112]
  000ad	8b 40 70	 mov	 eax, DWORD PTR [rax+112]
  000b0	2b c1		 sub	 eax, ecx
  000b2	89 44 24 40	 mov	 DWORD PTR microseconds$21954[rsp], eax

; 1798 :         result = new_delta(days, seconds, microseconds, 1);

  000b6	48 8d 05 00 00
	00 00		 lea	 rax, OFFSET FLAT:PyDateTime_DeltaType
  000bd	48 89 44 24 20	 mov	 QWORD PTR [rsp+32], rax
  000c2	41 b9 01 00 00
	00		 mov	 r9d, 1
  000c8	44 8b 44 24 40	 mov	 r8d, DWORD PTR microseconds$21954[rsp]
  000cd	8b 54 24 3c	 mov	 edx, DWORD PTR seconds$21951[rsp]
  000d1	8b 4c 24 38	 mov	 ecx, DWORD PTR days$21948[rsp]
  000d5	e8 00 00 00 00	 call	 new_delta_ex
  000da	48 89 44 24 30	 mov	 QWORD PTR result$[rsp], rax
$LN4@delta_subt:

; 1799 :     }
; 1800 : 
; 1801 :     if (result == Py_NotImplemented)

  000df	48 8d 05 00 00
	00 00		 lea	 rax, OFFSET FLAT:_Py_NotImplementedStruct
  000e6	48 39 44 24 30	 cmp	 QWORD PTR result$[rsp], rax
  000eb	75 0a		 jne	 SHORT $LN1@delta_subt

; 1802 :         Py_INCREF(result);

  000ed	48 8b 4c 24 30	 mov	 rcx, QWORD PTR result$[rsp]
  000f2	e8 00 00 00 00	 call	 _Py_IncRef
$LN1@delta_subt:

; 1803 :     return result;

  000f7	48 8b 44 24 30	 mov	 rax, QWORD PTR result$[rsp]

; 1804 : }

  000fc	48 83 c4 58	 add	 rsp, 88			; 00000058H
  00100	c3		 ret	 0
delta_subtract ENDP
_TEXT	ENDS
;	COMDAT pdata
pdata	SEGMENT
$pdata$delta_richcompare DD imagerel delta_richcompare
	DD	imagerel delta_richcompare+122
	DD	imagerel $unwind$delta_richcompare
pdata	ENDS
;	COMDAT xdata
xdata	SEGMENT
$unwind$delta_richcompare DD 011301H
	DD	06213H
; Function compile flags: /Odtp
xdata	ENDS
;	COMDAT delta_richcompare
_TEXT	SEGMENT
diff$21986 = 32
self$ = 64
other$ = 72
op$ = 80
delta_richcompare PROC					; COMDAT

; 1821 : {

  00000	44 89 44 24 18	 mov	 DWORD PTR [rsp+24], r8d
  00005	48 89 54 24 10	 mov	 QWORD PTR [rsp+16], rdx
  0000a	48 89 4c 24 08	 mov	 QWORD PTR [rsp+8], rcx
  0000f	48 83 ec 38	 sub	 rsp, 56			; 00000038H

; 1822 :     if (PyDelta_Check(other)) {

  00013	48 8d 05 00 00
	00 00		 lea	 rax, OFFSET FLAT:PyDateTime_DeltaType
  0001a	48 8b 4c 24 48	 mov	 rcx, QWORD PTR other$[rsp]
  0001f	48 39 41 58	 cmp	 QWORD PTR [rcx+88], rax
  00023	74 19		 je	 SHORT $LN2@delta_rich
  00025	48 8d 15 00 00
	00 00		 lea	 rdx, OFFSET FLAT:PyDateTime_DeltaType
  0002c	48 8b 44 24 48	 mov	 rax, QWORD PTR other$[rsp]
  00031	48 8b 48 58	 mov	 rcx, QWORD PTR [rax+88]
  00035	e8 00 00 00 00	 call	 PyType_IsSubtype
  0003a	85 c0		 test	 eax, eax
  0003c	74 24		 je	 SHORT $LN3@delta_rich
$LN2@delta_rich:

; 1823 :         int diff = delta_cmp(self, other);

  0003e	48 8b 54 24 48	 mov	 rdx, QWORD PTR other$[rsp]
  00043	48 8b 4c 24 40	 mov	 rcx, QWORD PTR self$[rsp]
  00048	e8 00 00 00 00	 call	 delta_cmp
  0004d	89 44 24 20	 mov	 DWORD PTR diff$21986[rsp], eax

; 1824 :         return diff_to_bool(diff, op);

  00051	8b 54 24 50	 mov	 edx, DWORD PTR op$[rsp]
  00055	8b 4c 24 20	 mov	 ecx, DWORD PTR diff$21986[rsp]
  00059	e8 00 00 00 00	 call	 diff_to_bool
  0005e	eb 15		 jmp	 SHORT $LN4@delta_rich

; 1825 :     }
; 1826 :     else {

  00060	eb 13		 jmp	 SHORT $LN1@delta_rich
$LN3@delta_rich:

; 1827 :         Py_RETURN_NOTIMPLEMENTED;

  00062	48 8d 0d 00 00
	00 00		 lea	 rcx, OFFSET FLAT:_Py_NotImplementedStruct
  00069	e8 00 00 00 00	 call	 _Py_IncRef
  0006e	48 8d 05 00 00
	00 00		 lea	 rax, OFFSET FLAT:_Py_NotImplementedStruct
$LN1@delta_rich:
$LN4@delta_rich:

; 1828 :     }
; 1829 : }

  00075	48 83 c4 38	 add	 rsp, 56			; 00000038H
  00079	c3		 ret	 0
delta_richcompare ENDP
_TEXT	ENDS
PUBLIC	??_C@_1BO@MMMNONMK@?$AA?$CB?$AA?5?$AA?$CC?$AAo?$AAp?$AA?5?$AAu?$AAn?$AAk?$AAn?$AAo?$AAw?$AAn?$AA?$CC?$AA?$AA@ ; `string'
PUBLIC	??_C@_0L@JBGBGKIG@op?5unknown?$AA@		; `string'
EXTRN	_Py_FalseStruct:BYTE
EXTRN	_Py_TrueStruct:BYTE
EXTRN	__ImageBase:BYTE
;	COMDAT pdata
pdata	SEGMENT
$pdata$diff_to_bool DD imagerel diff_to_bool
	DD	imagerel diff_to_bool+412
	DD	imagerel $unwind$diff_to_bool
pdata	ENDS
;	COMDAT xdata
xdata	SEGMENT
$unwind$diff_to_bool DD 010c01H
	DD	0c20cH
xdata	ENDS
;	COMDAT ??_C@_1BO@MMMNONMK@?$AA?$CB?$AA?5?$AA?$CC?$AAo?$AAp?$AA?5?$AAu?$AAn?$AAk?$AAn?$AAo?$AAw?$AAn?$AA?$CC?$AA?$AA@
CONST	SEGMENT
??_C@_1BO@MMMNONMK@?$AA?$CB?$AA?5?$AA?$CC?$AAo?$AAp?$AA?5?$AAu?$AAn?$AAk?$AAn?$AAo?$AAw?$AAn?$AA?$CC?$AA?$AA@ DB '!'
	DB	00H, ' ', 00H, '"', 00H, 'o', 00H, 'p', 00H, ' ', 00H, 'u', 00H
	DB	'n', 00H, 'k', 00H, 'n', 00H, 'o', 00H, 'w', 00H, 'n', 00H, '"'
	DB	00H, 00H, 00H				; `string'
CONST	ENDS
;	COMDAT ??_C@_0L@JBGBGKIG@op?5unknown?$AA@
CONST	SEGMENT
??_C@_0L@JBGBGKIG@op?5unknown?$AA@ DB 'op unknown', 00H	; `string'
; Function compile flags: /Odtp
CONST	ENDS
;	COMDAT diff_to_bool
_TEXT	SEGMENT
istrue$ = 32
result$ = 40
tv64 = 48
tv66 = 52
tv68 = 56
tv70 = 60
tv72 = 64
tv74 = 68
tv76 = 72
tv84 = 80
diff$ = 112
op$ = 120
diff_to_bool PROC					; COMDAT

; 1365 : {

  00000	89 54 24 10	 mov	 DWORD PTR [rsp+16], edx
  00004	89 4c 24 08	 mov	 DWORD PTR [rsp+8], ecx
  00008	48 83 ec 68	 sub	 rsp, 104		; 00000068H

; 1366 :     PyObject *result;
; 1367 :     int istrue;
; 1368 : 
; 1369 :     switch (op) {

  0000c	8b 44 24 78	 mov	 eax, DWORD PTR op$[rsp]
  00010	89 44 24 30	 mov	 DWORD PTR tv64[rsp], eax
  00014	83 7c 24 30 05	 cmp	 DWORD PTR tv64[rsp], 5
  00019	0f 87 f3 00 00
	00		 ja	 $LN1@diff_to_bo
  0001f	48 63 44 24 30	 movsxd	 rax, DWORD PTR tv64[rsp]
  00024	48 8d 0d 00 00
	00 00		 lea	 rcx, OFFSET FLAT:__ImageBase
  0002b	8b 84 81 00 00
	00 00		 mov	 eax, DWORD PTR $LN27@diff_to_bo[rcx+rax*4]
  00032	48 03 c1	 add	 rax, rcx
  00035	ff e0		 jmp	 rax
$LN7@diff_to_bo:

; 1370 :         case Py_EQ: istrue = diff == 0; break;

  00037	83 7c 24 70 00	 cmp	 DWORD PTR diff$[rsp], 0
  0003c	75 0a		 jne	 SHORT $LN12@diff_to_bo
  0003e	c7 44 24 34 01
	00 00 00	 mov	 DWORD PTR tv66[rsp], 1
  00046	eb 08		 jmp	 SHORT $LN13@diff_to_bo
$LN12@diff_to_bo:
  00048	c7 44 24 34 00
	00 00 00	 mov	 DWORD PTR tv66[rsp], 0
$LN13@diff_to_bo:
  00050	8b 44 24 34	 mov	 eax, DWORD PTR tv66[rsp]
  00054	89 44 24 20	 mov	 DWORD PTR istrue$[rsp], eax
  00058	e9 e5 00 00 00	 jmp	 $LN8@diff_to_bo
$LN6@diff_to_bo:

; 1371 :         case Py_NE: istrue = diff != 0; break;

  0005d	83 7c 24 70 00	 cmp	 DWORD PTR diff$[rsp], 0
  00062	74 0a		 je	 SHORT $LN14@diff_to_bo
  00064	c7 44 24 38 01
	00 00 00	 mov	 DWORD PTR tv68[rsp], 1
  0006c	eb 08		 jmp	 SHORT $LN15@diff_to_bo
$LN14@diff_to_bo:
  0006e	c7 44 24 38 00
	00 00 00	 mov	 DWORD PTR tv68[rsp], 0
$LN15@diff_to_bo:
  00076	8b 44 24 38	 mov	 eax, DWORD PTR tv68[rsp]
  0007a	89 44 24 20	 mov	 DWORD PTR istrue$[rsp], eax
  0007e	e9 bf 00 00 00	 jmp	 $LN8@diff_to_bo
$LN5@diff_to_bo:

; 1372 :         case Py_LE: istrue = diff <= 0; break;

  00083	83 7c 24 70 00	 cmp	 DWORD PTR diff$[rsp], 0
  00088	7f 0a		 jg	 SHORT $LN16@diff_to_bo
  0008a	c7 44 24 3c 01
	00 00 00	 mov	 DWORD PTR tv70[rsp], 1
  00092	eb 08		 jmp	 SHORT $LN17@diff_to_bo
$LN16@diff_to_bo:
  00094	c7 44 24 3c 00
	00 00 00	 mov	 DWORD PTR tv70[rsp], 0
$LN17@diff_to_bo:
  0009c	8b 44 24 3c	 mov	 eax, DWORD PTR tv70[rsp]
  000a0	89 44 24 20	 mov	 DWORD PTR istrue$[rsp], eax
  000a4	e9 99 00 00 00	 jmp	 $LN8@diff_to_bo
$LN4@diff_to_bo:

; 1373 :         case Py_GE: istrue = diff >= 0; break;

  000a9	83 7c 24 70 00	 cmp	 DWORD PTR diff$[rsp], 0
  000ae	7c 0a		 jl	 SHORT $LN18@diff_to_bo
  000b0	c7 44 24 40 01
	00 00 00	 mov	 DWORD PTR tv72[rsp], 1
  000b8	eb 08		 jmp	 SHORT $LN19@diff_to_bo
$LN18@diff_to_bo:
  000ba	c7 44 24 40 00
	00 00 00	 mov	 DWORD PTR tv72[rsp], 0
$LN19@diff_to_bo:
  000c2	8b 44 24 40	 mov	 eax, DWORD PTR tv72[rsp]
  000c6	89 44 24 20	 mov	 DWORD PTR istrue$[rsp], eax
  000ca	eb 76		 jmp	 SHORT $LN8@diff_to_bo
$LN3@diff_to_bo:

; 1374 :         case Py_LT: istrue = diff < 0; break;

  000cc	83 7c 24 70 00	 cmp	 DWORD PTR diff$[rsp], 0
  000d1	7d 0a		 jge	 SHORT $LN20@diff_to_bo
  000d3	c7 44 24 44 01
	00 00 00	 mov	 DWORD PTR tv74[rsp], 1
  000db	eb 08		 jmp	 SHORT $LN21@diff_to_bo
$LN20@diff_to_bo:
  000dd	c7 44 24 44 00
	00 00 00	 mov	 DWORD PTR tv74[rsp], 0
$LN21@diff_to_bo:
  000e5	8b 44 24 44	 mov	 eax, DWORD PTR tv74[rsp]
  000e9	89 44 24 20	 mov	 DWORD PTR istrue$[rsp], eax
  000ed	eb 53		 jmp	 SHORT $LN8@diff_to_bo
$LN2@diff_to_bo:

; 1375 :         case Py_GT: istrue = diff > 0; break;

  000ef	83 7c 24 70 00	 cmp	 DWORD PTR diff$[rsp], 0
  000f4	7e 0a		 jle	 SHORT $LN22@diff_to_bo
  000f6	c7 44 24 48 01
	00 00 00	 mov	 DWORD PTR tv76[rsp], 1
  000fe	eb 08		 jmp	 SHORT $LN23@diff_to_bo
$LN22@diff_to_bo:
  00100	c7 44 24 48 00
	00 00 00	 mov	 DWORD PTR tv76[rsp], 0
$LN23@diff_to_bo:
  00108	8b 44 24 48	 mov	 eax, DWORD PTR tv76[rsp]
  0010c	89 44 24 20	 mov	 DWORD PTR istrue$[rsp], eax
  00110	eb 30		 jmp	 SHORT $LN8@diff_to_bo
$LN1@diff_to_bo:

; 1376 :         default:
; 1377 :             assert(! "op unknown");

  00112	48 8d 05 00 00
	00 00		 lea	 rax, OFFSET FLAT:??_C@_0L@JBGBGKIG@op?5unknown?$AA@
  00119	48 85 c0	 test	 rax, rax
  0011c	74 1c		 je	 SHORT $LN24@diff_to_bo
  0011e	41 b8 61 05 00
	00		 mov	 r8d, 1377		; 00000561H
  00124	48 8d 15 00 00
	00 00		 lea	 rdx, OFFSET FLAT:??_C@_1DK@MIHLFJMJ@?$AA?4?$AA?4?$AA?2?$AAM?$AAo?$AAd?$AAu?$AAl?$AAe?$AAs?$AA?2?$AA_?$AAd?$AAa?$AAt?$AAe?$AAt?$AAi?$AAm?$AAe?$AAm?$AAo?$AAd?$AAu?$AAl?$AAe?$AA?4?$AAc?$AA?$AA@
  0012b	48 8d 0d 00 00
	00 00		 lea	 rcx, OFFSET FLAT:??_C@_1BO@MMMNONMK@?$AA?$CB?$AA?5?$AA?$CC?$AAo?$AAp?$AA?5?$AAu?$AAn?$AAk?$AAn?$AAo?$AAw?$AAn?$AA?$CC?$AA?$AA@
  00132	ff 15 00 00 00
	00		 call	 QWORD PTR __imp__wassert
  00138	33 c0		 xor	 eax, eax
$LN24@diff_to_bo:

; 1378 :             istrue = 0; /* To shut up compiler */

  0013a	c7 44 24 20 00
	00 00 00	 mov	 DWORD PTR istrue$[rsp], 0
$LN8@diff_to_bo:

; 1379 :     }
; 1380 :     result = istrue ? Py_True : Py_False;

  00142	83 7c 24 20 00	 cmp	 DWORD PTR istrue$[rsp], 0
  00147	74 0e		 je	 SHORT $LN25@diff_to_bo
  00149	48 8d 05 00 00
	00 00		 lea	 rax, OFFSET FLAT:_Py_TrueStruct
  00150	48 89 44 24 50	 mov	 QWORD PTR tv84[rsp], rax
  00155	eb 0c		 jmp	 SHORT $LN26@diff_to_bo
$LN25@diff_to_bo:
  00157	48 8d 05 00 00
	00 00		 lea	 rax, OFFSET FLAT:_Py_FalseStruct
  0015e	48 89 44 24 50	 mov	 QWORD PTR tv84[rsp], rax
$LN26@diff_to_bo:
  00163	48 8b 44 24 50	 mov	 rax, QWORD PTR tv84[rsp]
  00168	48 89 44 24 28	 mov	 QWORD PTR result$[rsp], rax

; 1381 :     Py_INCREF(result);

  0016d	48 8b 4c 24 28	 mov	 rcx, QWORD PTR result$[rsp]
  00172	e8 00 00 00 00	 call	 _Py_IncRef

; 1382 :     return result;

  00177	48 8b 44 24 28	 mov	 rax, QWORD PTR result$[rsp]

; 1383 : }

  0017c	48 83 c4 68	 add	 rsp, 104		; 00000068H
  00180	c3		 ret	 0
  00181	0f 1f 00	 npad	 3
$LN27@diff_to_bo:
  00184	00 00 00 00	 DD	 $LN3@diff_to_bo
  00188	00 00 00 00	 DD	 $LN5@diff_to_bo
  0018c	00 00 00 00	 DD	 $LN7@diff_to_bo
  00190	00 00 00 00	 DD	 $LN6@diff_to_bo
  00194	00 00 00 00	 DD	 $LN2@diff_to_bo
  00198	00 00 00 00	 DD	 $LN4@diff_to_bo
diff_to_bool ENDP
_TEXT	ENDS
;	COMDAT pdata
pdata	SEGMENT
$pdata$delta_cmp DD imagerel delta_cmp
	DD	imagerel delta_cmp+97
	DD	imagerel $unwind$delta_cmp
pdata	ENDS
;	COMDAT xdata
xdata	SEGMENT
$unwind$delta_cmp DD 010e01H
	DD	0220eH
; Function compile flags: /Odtp
xdata	ENDS
;	COMDAT delta_cmp
_TEXT	SEGMENT
diff$ = 0
self$ = 32
other$ = 40
delta_cmp PROC						; COMDAT

; 1808 : {

  00000	48 89 54 24 10	 mov	 QWORD PTR [rsp+16], rdx
  00005	48 89 4c 24 08	 mov	 QWORD PTR [rsp+8], rcx
  0000a	48 83 ec 18	 sub	 rsp, 24

; 1809 :     int diff = GET_TD_DAYS(self) - GET_TD_DAYS(other);

  0000e	48 8b 44 24 20	 mov	 rax, QWORD PTR self$[rsp]
  00013	48 8b 4c 24 28	 mov	 rcx, QWORD PTR other$[rsp]
  00018	8b 49 68	 mov	 ecx, DWORD PTR [rcx+104]
  0001b	8b 40 68	 mov	 eax, DWORD PTR [rax+104]
  0001e	2b c1		 sub	 eax, ecx
  00020	89 04 24	 mov	 DWORD PTR diff$[rsp], eax

; 1810 :     if (diff == 0) {

  00023	83 3c 24 00	 cmp	 DWORD PTR diff$[rsp], 0
  00027	75 30		 jne	 SHORT $LN2@delta_cmp

; 1811 :         diff = GET_TD_SECONDS(self) - GET_TD_SECONDS(other);

  00029	48 8b 44 24 20	 mov	 rax, QWORD PTR self$[rsp]
  0002e	48 8b 4c 24 28	 mov	 rcx, QWORD PTR other$[rsp]
  00033	8b 49 6c	 mov	 ecx, DWORD PTR [rcx+108]
  00036	8b 40 6c	 mov	 eax, DWORD PTR [rax+108]
  00039	2b c1		 sub	 eax, ecx
  0003b	89 04 24	 mov	 DWORD PTR diff$[rsp], eax

; 1812 :         if (diff == 0)

  0003e	83 3c 24 00	 cmp	 DWORD PTR diff$[rsp], 0
  00042	75 15		 jne	 SHORT $LN1@delta_cmp

; 1813 :             diff = GET_TD_MICROSECONDS(self) -
; 1814 :                 GET_TD_MICROSECONDS(other);

  00044	48 8b 44 24 20	 mov	 rax, QWORD PTR self$[rsp]
  00049	48 8b 4c 24 28	 mov	 rcx, QWORD PTR other$[rsp]
  0004e	8b 49 70	 mov	 ecx, DWORD PTR [rcx+112]
  00051	8b 40 70	 mov	 eax, DWORD PTR [rax+112]
  00054	2b c1		 sub	 eax, ecx
  00056	89 04 24	 mov	 DWORD PTR diff$[rsp], eax
$LN1@delta_cmp:
$LN2@delta_cmp:

; 1815 :     }
; 1816 :     return diff;

  00059	8b 04 24	 mov	 eax, DWORD PTR diff$[rsp]

; 1817 : }

  0005c	48 83 c4 18	 add	 rsp, 24
  00060	c3		 ret	 0
delta_cmp ENDP
_TEXT	ENDS
PUBLIC	_Py_DecRef
EXTRN	PyObject_Hash:PROC
;	COMDAT pdata
pdata	SEGMENT
$pdata$delta_hash DD imagerel delta_hash
	DD	imagerel delta_hash+87
	DD	imagerel $unwind$delta_hash
pdata	ENDS
;	COMDAT xdata
xdata	SEGMENT
$unwind$delta_hash DD 010901H
	DD	06209H
; Function compile flags: /Odtp
xdata	ENDS
;	COMDAT delta_hash
_TEXT	SEGMENT
temp$21997 = 32
self$ = 64
delta_hash PROC						; COMDAT

; 1835 : {

  00000	48 89 4c 24 08	 mov	 QWORD PTR [rsp+8], rcx
  00005	48 83 ec 38	 sub	 rsp, 56			; 00000038H

; 1836 :     if (self->hashcode == -1) {

  00009	48 8b 44 24 40	 mov	 rax, QWORD PTR self$[rsp]
  0000e	48 83 78 60 ff	 cmp	 QWORD PTR [rax+96], -1
  00013	75 34		 jne	 SHORT $LN2@delta_hash

; 1837 :         PyObject *temp = delta_getstate(self);

  00015	48 8b 4c 24 40	 mov	 rcx, QWORD PTR self$[rsp]
  0001a	e8 00 00 00 00	 call	 delta_getstate
  0001f	48 89 44 24 20	 mov	 QWORD PTR temp$21997[rsp], rax

; 1838 :         if (temp != NULL) {

  00024	48 83 7c 24 20
	00		 cmp	 QWORD PTR temp$21997[rsp], 0
  0002a	74 1d		 je	 SHORT $LN1@delta_hash

; 1839 :             self->hashcode = PyObject_Hash(temp);

  0002c	48 8b 4c 24 20	 mov	 rcx, QWORD PTR temp$21997[rsp]
  00031	e8 00 00 00 00	 call	 PyObject_Hash
  00036	48 8b 4c 24 40	 mov	 rcx, QWORD PTR self$[rsp]
  0003b	48 89 41 60	 mov	 QWORD PTR [rcx+96], rax

; 1840 :             Py_DECREF(temp);

  0003f	48 8b 4c 24 20	 mov	 rcx, QWORD PTR temp$21997[rsp]
  00044	e8 00 00 00 00	 call	 _Py_DecRef
$LN1@delta_hash:
$LN2@delta_hash:

; 1841 :         }
; 1842 :     }
; 1843 :     return self->hashcode;

  00049	48 8b 44 24 40	 mov	 rax, QWORD PTR self$[rsp]
  0004e	48 8b 40 60	 mov	 rax, QWORD PTR [rax+96]

; 1844 : }

  00052	48 83 c4 38	 add	 rsp, 56			; 00000038H
  00056	c3		 ret	 0
delta_hash ENDP
_TEXT	ENDS
PUBLIC	??_C@_0L@DMHMLFIA@_Py_DecRef?$AA@		; `string'
EXTRN	_Py_Dealloc:PROC
EXTRN	_Py_NegativeRefcount:PROC
EXTRN	Px_DecRef:PROC
;	COMDAT pdata
; File c:\src\pyparallel\include\object.h
pdata	SEGMENT
$pdata$_Py_DecRef DD imagerel $LN13
	DD	imagerel $LN13+257
	DD	imagerel $unwind$_Py_DecRef
pdata	ENDS
;	COMDAT xdata
xdata	SEGMENT
$unwind$_Py_DecRef DD 010901H
	DD	08209H
xdata	ENDS
;	COMDAT ??_C@_0L@DMHMLFIA@_Py_DecRef?$AA@
CONST	SEGMENT
??_C@_0L@DMHMLFIA@_Py_DecRef?$AA@ DB '_Py_DecRef', 00H	; `string'
; Function compile flags: /Odtp
CONST	ENDS
;	COMDAT _Py_DecRef
_TEXT	SEGMENT
tv81 = 48
op$ = 80
_Py_DecRef PROC						; COMDAT

; 923  : {

$LN13:
  00000	48 89 4c 24 08	 mov	 QWORD PTR [rsp+8], rcx
  00005	48 83 ec 48	 sub	 rsp, 72			; 00000048H

; 924  :     if (!Py_PXCTX) {

  00009	e8 00 00 00 00	 call	 _Py_PXCTX
  0000e	85 c0		 test	 eax, eax
  00010	0f 85 e6 00 00
	00		 jne	 $LN8@Py_DecRef

; 925  :         if (Px_PERSISTED(op) || Px_CLONED(op))

  00016	48 8b 44 24 50	 mov	 rax, QWORD PTR op$[rsp]
  0001b	48 8b 40 20	 mov	 rax, QWORD PTR [rax+32]
  0001f	48 83 e0 20	 and	 rax, 32			; 00000020H
  00023	48 85 c0	 test	 rax, rax
  00026	75 14		 jne	 SHORT $LN6@Py_DecRef
  00028	48 8b 44 24 50	 mov	 rax, QWORD PTR op$[rsp]
  0002d	48 8b 40 20	 mov	 rax, QWORD PTR [rax+32]
  00031	48 25 80 00 00
	00		 and	 rax, 128		; 00000080H
  00037	48 85 c0	 test	 rax, rax
  0003a	74 0f		 je	 SHORT $LN7@Py_DecRef
$LN6@Py_DecRef:

; 926  :             Px_DECREF(op);

  0003c	48 8b 4c 24 50	 mov	 rcx, QWORD PTR op$[rsp]
  00041	e8 00 00 00 00	 call	 Px_DecRef
  00046	e9 b1 00 00 00	 jmp	 $LN5@Py_DecRef
$LN7@Py_DecRef:

; 927  :         else if (!Px_ISPX(op)) {

  0004b	48 8b 44 24 50	 mov	 rax, QWORD PTR op$[rsp]
  00050	48 8b 40 20	 mov	 rax, QWORD PTR [rax+32]
  00054	48 83 e0 02	 and	 rax, 2
  00058	48 85 c0	 test	 rax, rax
  0005b	0f 85 9b 00 00
	00		 jne	 $LN4@Py_DecRef

; 928  :             _Py_DEC_REFTOTAL;

  00061	e8 00 00 00 00	 call	 _Py_PXCTX
  00066	85 c0		 test	 eax, eax
  00068	74 02		 je	 SHORT $LN11@Py_DecRef
  0006a	eb 11		 jmp	 SHORT $LN12@Py_DecRef
$LN11@Py_DecRef:
  0006c	48 8b 05 00 00
	00 00		 mov	 rax, QWORD PTR _Py_RefTotal
  00073	48 ff c8	 dec	 rax
  00076	48 89 05 00 00
	00 00		 mov	 QWORD PTR _Py_RefTotal, rax
$LN12@Py_DecRef:

; 929  :             if ((--((PyObject *)(op))->ob_refcnt) != 0) {

  0007d	48 8b 44 24 50	 mov	 rax, QWORD PTR op$[rsp]
  00082	48 8b 40 50	 mov	 rax, QWORD PTR [rax+80]
  00086	48 ff c8	 dec	 rax
  00089	48 89 44 24 30	 mov	 QWORD PTR tv81[rsp], rax
  0008e	48 8b 44 24 50	 mov	 rax, QWORD PTR op$[rsp]
  00093	48 8b 4c 24 30	 mov	 rcx, QWORD PTR tv81[rsp]
  00098	48 89 48 50	 mov	 QWORD PTR [rax+80], rcx
  0009c	48 83 7c 24 30
	00		 cmp	 QWORD PTR tv81[rsp], 0
  000a2	74 4e		 je	 SHORT $LN3@Py_DecRef

; 930  :                 _Py_CHECK_REFCNT(op);

  000a4	c7 44 24 20 10
	00 00 00	 mov	 DWORD PTR [rsp+32], 16
  000ac	4c 8b 4c 24 50	 mov	 r9, QWORD PTR op$[rsp]
  000b1	41 b8 a2 03 00
	00		 mov	 r8d, 930		; 000003a2H
  000b7	48 8d 15 00 00
	00 00		 lea	 rdx, OFFSET FLAT:??_C@_0CD@HDJFDCDP@c?3?2src?2pyparallel?2include?2object@
  000be	48 8d 0d 00 00
	00 00		 lea	 rcx, OFFSET FLAT:??_C@_0L@DMHMLFIA@_Py_DecRef?$AA@
  000c5	e8 00 00 00 00	 call	 _PyParallel_Guard
  000ca	85 c0		 test	 eax, eax
  000cc	75 22		 jne	 SHORT $LN2@Py_DecRef
  000ce	48 8b 44 24 50	 mov	 rax, QWORD PTR op$[rsp]
  000d3	48 83 78 50 00	 cmp	 QWORD PTR [rax+80], 0
  000d8	7d 16		 jge	 SHORT $LN2@Py_DecRef
  000da	4c 8b 44 24 50	 mov	 r8, QWORD PTR op$[rsp]
  000df	ba a2 03 00 00	 mov	 edx, 930		; 000003a2H
  000e4	48 8d 0d 00 00
	00 00		 lea	 rcx, OFFSET FLAT:??_C@_0CD@HDJFDCDP@c?3?2src?2pyparallel?2include?2object@
  000eb	e8 00 00 00 00	 call	 _Py_NegativeRefcount
$LN2@Py_DecRef:

; 931  :             } else

  000f0	eb 0a		 jmp	 SHORT $LN1@Py_DecRef
$LN3@Py_DecRef:

; 932  :                 _Py_Dealloc((PyObject *)(op));

  000f2	48 8b 4c 24 50	 mov	 rcx, QWORD PTR op$[rsp]
  000f7	e8 00 00 00 00	 call	 _Py_Dealloc
$LN1@Py_DecRef:
$LN4@Py_DecRef:
$LN5@Py_DecRef:
$LN8@Py_DecRef:

; 933  :         }
; 934  :     }
; 935  : }

  000fc	48 83 c4 48	 add	 rsp, 72			; 00000048H
  00100	c3		 ret	 0
_Py_DecRef ENDP
_TEXT	ENDS
EXTRN	PyFloat_Type:BYTE
;	COMDAT pdata
; File c:\src\pyparallel\modules\_datetimemodule.c
pdata	SEGMENT
$pdata$delta_multiply DD imagerel delta_multiply
	DD	imagerel delta_multiply+323
	DD	imagerel $unwind$delta_multiply
pdata	ENDS
;	COMDAT xdata
xdata	SEGMENT
$unwind$delta_multiply DD 010e01H
	DD	0620eH
; Function compile flags: /Odtp
xdata	ENDS
;	COMDAT delta_multiply
_TEXT	SEGMENT
result$ = 32
left$ = 64
right$ = 72
delta_multiply PROC					; COMDAT

; 1848 : {

  00000	48 89 54 24 10	 mov	 QWORD PTR [rsp+16], rdx
  00005	48 89 4c 24 08	 mov	 QWORD PTR [rsp+8], rcx
  0000a	48 83 ec 38	 sub	 rsp, 56			; 00000038H

; 1849 :     PyObject *result = Py_NotImplemented;

  0000e	48 8d 05 00 00
	00 00		 lea	 rax, OFFSET FLAT:_Py_NotImplementedStruct
  00015	48 89 44 24 20	 mov	 QWORD PTR result$[rsp], rax

; 1850 : 
; 1851 :     if (PyDelta_Check(left)) {

  0001a	48 8d 05 00 00
	00 00		 lea	 rax, OFFSET FLAT:PyDateTime_DeltaType
  00021	48 8b 4c 24 40	 mov	 rcx, QWORD PTR left$[rsp]
  00026	48 39 41 58	 cmp	 QWORD PTR [rcx+88], rax
  0002a	74 19		 je	 SHORT $LN11@delta_mult
  0002c	48 8d 15 00 00
	00 00		 lea	 rdx, OFFSET FLAT:PyDateTime_DeltaType
  00033	48 8b 44 24 40	 mov	 rax, QWORD PTR left$[rsp]
  00038	48 8b 48 58	 mov	 rcx, QWORD PTR [rax+88]
  0003c	e8 00 00 00 00	 call	 PyType_IsSubtype
  00041	85 c0		 test	 eax, eax
  00043	74 6f		 je	 SHORT $LN12@delta_mult
$LN11@delta_mult:

; 1852 :         /* delta * ??? */
; 1853 :         if (PyLong_Check(right))

  00045	48 8b 44 24 48	 mov	 rax, QWORD PTR right$[rsp]
  0004a	48 8b 40 58	 mov	 rax, QWORD PTR [rax+88]
  0004e	8b 80 00 01 00
	00		 mov	 eax, DWORD PTR [rax+256]
  00054	25 00 00 00 01	 and	 eax, 16777216		; 01000000H
  00059	85 c0		 test	 eax, eax
  0005b	74 16		 je	 SHORT $LN10@delta_mult

; 1854 :             result = multiply_int_timedelta(right,
; 1855 :                             (PyDateTime_Delta *) left);

  0005d	48 8b 54 24 40	 mov	 rdx, QWORD PTR left$[rsp]
  00062	48 8b 4c 24 48	 mov	 rcx, QWORD PTR right$[rsp]
  00067	e8 00 00 00 00	 call	 multiply_int_timedelta
  0006c	48 89 44 24 20	 mov	 QWORD PTR result$[rsp], rax
  00071	eb 3f		 jmp	 SHORT $LN9@delta_mult
$LN10@delta_mult:

; 1856 :         else if (PyFloat_Check(right))

  00073	48 8d 05 00 00
	00 00		 lea	 rax, OFFSET FLAT:PyFloat_Type
  0007a	48 8b 4c 24 48	 mov	 rcx, QWORD PTR right$[rsp]
  0007f	48 39 41 58	 cmp	 QWORD PTR [rcx+88], rax
  00083	74 19		 je	 SHORT $LN7@delta_mult
  00085	48 8d 15 00 00
	00 00		 lea	 rdx, OFFSET FLAT:PyFloat_Type
  0008c	48 8b 44 24 48	 mov	 rax, QWORD PTR right$[rsp]
  00091	48 8b 48 58	 mov	 rcx, QWORD PTR [rax+88]
  00095	e8 00 00 00 00	 call	 PyType_IsSubtype
  0009a	85 c0		 test	 eax, eax
  0009c	74 14		 je	 SHORT $LN8@delta_mult
$LN7@delta_mult:

; 1857 :             result = multiply_float_timedelta(right,
; 1858 :                             (PyDateTime_Delta *) left);

  0009e	48 8b 54 24 40	 mov	 rdx, QWORD PTR left$[rsp]
  000a3	48 8b 4c 24 48	 mov	 rcx, QWORD PTR right$[rsp]
  000a8	e8 00 00 00 00	 call	 multiply_float_timedelta
  000ad	48 89 44 24 20	 mov	 QWORD PTR result$[rsp], rax
$LN8@delta_mult:
$LN9@delta_mult:

; 1859 :     }
; 1860 :     else if (PyLong_Check(left))

  000b2	eb 6d		 jmp	 SHORT $LN6@delta_mult
$LN12@delta_mult:
  000b4	48 8b 44 24 40	 mov	 rax, QWORD PTR left$[rsp]
  000b9	48 8b 40 58	 mov	 rax, QWORD PTR [rax+88]
  000bd	8b 80 00 01 00
	00		 mov	 eax, DWORD PTR [rax+256]
  000c3	25 00 00 00 01	 and	 eax, 16777216		; 01000000H
  000c8	85 c0		 test	 eax, eax
  000ca	74 16		 je	 SHORT $LN5@delta_mult

; 1861 :         result = multiply_int_timedelta(left,
; 1862 :                         (PyDateTime_Delta *) right);

  000cc	48 8b 54 24 48	 mov	 rdx, QWORD PTR right$[rsp]
  000d1	48 8b 4c 24 40	 mov	 rcx, QWORD PTR left$[rsp]
  000d6	e8 00 00 00 00	 call	 multiply_int_timedelta
  000db	48 89 44 24 20	 mov	 QWORD PTR result$[rsp], rax
  000e0	eb 3f		 jmp	 SHORT $LN4@delta_mult
$LN5@delta_mult:

; 1863 :     else if (PyFloat_Check(left))

  000e2	48 8d 05 00 00
	00 00		 lea	 rax, OFFSET FLAT:PyFloat_Type
  000e9	48 8b 4c 24 40	 mov	 rcx, QWORD PTR left$[rsp]
  000ee	48 39 41 58	 cmp	 QWORD PTR [rcx+88], rax
  000f2	74 19		 je	 SHORT $LN2@delta_mult
  000f4	48 8d 15 00 00
	00 00		 lea	 rdx, OFFSET FLAT:PyFloat_Type
  000fb	48 8b 44 24 40	 mov	 rax, QWORD PTR left$[rsp]
  00100	48 8b 48 58	 mov	 rcx, QWORD PTR [rax+88]
  00104	e8 00 00 00 00	 call	 PyType_IsSubtype
  00109	85 c0		 test	 eax, eax
  0010b	74 14		 je	 SHORT $LN3@delta_mult
$LN2@delta_mult:

; 1864 :         result = multiply_float_timedelta(left,
; 1865 :                         (PyDateTime_Delta *) right);

  0010d	48 8b 54 24 48	 mov	 rdx, QWORD PTR right$[rsp]
  00112	48 8b 4c 24 40	 mov	 rcx, QWORD PTR left$[rsp]
  00117	e8 00 00 00 00	 call	 multiply_float_timedelta
  0011c	48 89 44 24 20	 mov	 QWORD PTR result$[rsp], rax
$LN3@delta_mult:
$LN4@delta_mult:
$LN6@delta_mult:

; 1866 : 
; 1867 :     if (result == Py_NotImplemented)

  00121	48 8d 05 00 00
	00 00		 lea	 rax, OFFSET FLAT:_Py_NotImplementedStruct
  00128	48 39 44 24 20	 cmp	 QWORD PTR result$[rsp], rax
  0012d	75 0a		 jne	 SHORT $LN1@delta_mult

; 1868 :         Py_INCREF(result);

  0012f	48 8b 4c 24 20	 mov	 rcx, QWORD PTR result$[rsp]
  00134	e8 00 00 00 00	 call	 _Py_IncRef
$LN1@delta_mult:

; 1869 :     return result;

  00139	48 8b 44 24 20	 mov	 rax, QWORD PTR result$[rsp]

; 1870 : }

  0013e	48 83 c4 38	 add	 rsp, 56			; 00000038H
  00142	c3		 ret	 0
delta_multiply ENDP
_TEXT	ENDS
EXTRN	PyNumber_Multiply:PROC
;	COMDAT pdata
pdata	SEGMENT
$pdata$multiply_int_timedelta DD imagerel multiply_int_timedelta
	DD	imagerel multiply_int_timedelta+125
	DD	imagerel $unwind$multiply_int_timedelta
pdata	ENDS
;	COMDAT xdata
xdata	SEGMENT
$unwind$multiply_int_timedelta DD 010e01H
	DD	0820eH
; Function compile flags: /Odtp
xdata	ENDS
;	COMDAT multiply_int_timedelta
_TEXT	SEGMENT
pyus_out$ = 32
pyus_in$ = 40
result$ = 48
intobj$ = 80
delta$ = 88
multiply_int_timedelta PROC				; COMDAT

; 1557 : {

  00000	48 89 54 24 10	 mov	 QWORD PTR [rsp+16], rdx
  00005	48 89 4c 24 08	 mov	 QWORD PTR [rsp+8], rcx
  0000a	48 83 ec 48	 sub	 rsp, 72			; 00000048H

; 1558 :     PyObject *pyus_in;
; 1559 :     PyObject *pyus_out;
; 1560 :     PyObject *result;
; 1561 : 
; 1562 :     pyus_in = delta_to_microseconds(delta);

  0000e	48 8b 4c 24 58	 mov	 rcx, QWORD PTR delta$[rsp]
  00013	e8 00 00 00 00	 call	 delta_to_microseconds
  00018	48 89 44 24 28	 mov	 QWORD PTR pyus_in$[rsp], rax

; 1563 :     if (pyus_in == NULL)

  0001d	48 83 7c 24 28
	00		 cmp	 QWORD PTR pyus_in$[rsp], 0
  00023	75 04		 jne	 SHORT $LN2@multiply_i

; 1564 :         return NULL;

  00025	33 c0		 xor	 eax, eax
  00027	eb 4f		 jmp	 SHORT $LN3@multiply_i
$LN2@multiply_i:

; 1565 : 
; 1566 :     pyus_out = PyNumber_Multiply(pyus_in, intobj);

  00029	48 8b 54 24 50	 mov	 rdx, QWORD PTR intobj$[rsp]
  0002e	48 8b 4c 24 28	 mov	 rcx, QWORD PTR pyus_in$[rsp]
  00033	e8 00 00 00 00	 call	 PyNumber_Multiply
  00038	48 89 44 24 20	 mov	 QWORD PTR pyus_out$[rsp], rax

; 1567 :     Py_DECREF(pyus_in);

  0003d	48 8b 4c 24 28	 mov	 rcx, QWORD PTR pyus_in$[rsp]
  00042	e8 00 00 00 00	 call	 _Py_DecRef

; 1568 :     if (pyus_out == NULL)

  00047	48 83 7c 24 20
	00		 cmp	 QWORD PTR pyus_out$[rsp], 0
  0004d	75 04		 jne	 SHORT $LN1@multiply_i

; 1569 :         return NULL;

  0004f	33 c0		 xor	 eax, eax
  00051	eb 25		 jmp	 SHORT $LN3@multiply_i
$LN1@multiply_i:

; 1570 : 
; 1571 :     result = microseconds_to_delta(pyus_out);

  00053	48 8d 15 00 00
	00 00		 lea	 rdx, OFFSET FLAT:PyDateTime_DeltaType
  0005a	48 8b 4c 24 20	 mov	 rcx, QWORD PTR pyus_out$[rsp]
  0005f	e8 00 00 00 00	 call	 microseconds_to_delta_ex
  00064	48 89 44 24 30	 mov	 QWORD PTR result$[rsp], rax

; 1572 :     Py_DECREF(pyus_out);

  00069	48 8b 4c 24 20	 mov	 rcx, QWORD PTR pyus_out$[rsp]
  0006e	e8 00 00 00 00	 call	 _Py_DecRef

; 1573 :     return result;

  00073	48 8b 44 24 30	 mov	 rax, QWORD PTR result$[rsp]
$LN3@multiply_i:

; 1574 : }

  00078	48 83 c4 48	 add	 rsp, 72			; 00000048H
  0007c	c3		 ret	 0
multiply_int_timedelta ENDP
_TEXT	ENDS
EXTRN	PyNumber_Add:PROC
EXTRN	PyLong_FromLong:PROC
;	COMDAT pdata
pdata	SEGMENT
$pdata$delta_to_microseconds DD imagerel delta_to_microseconds
	DD	imagerel delta_to_microseconds+404
	DD	imagerel $unwind$delta_to_microseconds
pdata	ENDS
;	COMDAT xdata
xdata	SEGMENT
$unwind$delta_to_microseconds DD 010901H
	DD	08209H
; Function compile flags: /Odtp
xdata	ENDS
;	COMDAT delta_to_microseconds
_TEXT	SEGMENT
x2$ = 32
x1$ = 40
result$ = 48
x3$ = 56
self$ = 80
delta_to_microseconds PROC				; COMDAT

; 1425 : {

  00000	48 89 4c 24 08	 mov	 QWORD PTR [rsp+8], rcx
  00005	48 83 ec 48	 sub	 rsp, 72			; 00000048H

; 1426 :     PyObject *x1 = NULL;

  00009	48 c7 44 24 28
	00 00 00 00	 mov	 QWORD PTR x1$[rsp], 0

; 1427 :     PyObject *x2 = NULL;

  00012	48 c7 44 24 20
	00 00 00 00	 mov	 QWORD PTR x2$[rsp], 0

; 1428 :     PyObject *x3 = NULL;

  0001b	48 c7 44 24 38
	00 00 00 00	 mov	 QWORD PTR x3$[rsp], 0

; 1429 :     PyObject *result = NULL;

  00024	48 c7 44 24 30
	00 00 00 00	 mov	 QWORD PTR result$[rsp], 0

; 1430 : 
; 1431 :     x1 = PyLong_FromLong(GET_TD_DAYS(self));

  0002d	48 8b 44 24 50	 mov	 rax, QWORD PTR self$[rsp]
  00032	8b 48 68	 mov	 ecx, DWORD PTR [rax+104]
  00035	e8 00 00 00 00	 call	 PyLong_FromLong
  0003a	48 89 44 24 28	 mov	 QWORD PTR x1$[rsp], rax

; 1432 :     if (x1 == NULL)

  0003f	48 83 7c 24 28
	00		 cmp	 QWORD PTR x1$[rsp], 0
  00045	75 05		 jne	 SHORT $LN18@delta_to_m

; 1433 :         goto Done;

  00047	e9 f6 00 00 00	 jmp	 $Done$21609
$LN18@delta_to_m:

; 1434 :     x2 = PyNumber_Multiply(x1, seconds_per_day);        /* days in seconds */

  0004c	48 8b 15 00 00
	00 00		 mov	 rdx, QWORD PTR seconds_per_day
  00053	48 8b 4c 24 28	 mov	 rcx, QWORD PTR x1$[rsp]
  00058	e8 00 00 00 00	 call	 PyNumber_Multiply
  0005d	48 89 44 24 20	 mov	 QWORD PTR x2$[rsp], rax

; 1435 :     if (x2 == NULL)

  00062	48 83 7c 24 20
	00		 cmp	 QWORD PTR x2$[rsp], 0
  00068	75 05		 jne	 SHORT $LN17@delta_to_m

; 1436 :         goto Done;

  0006a	e9 d3 00 00 00	 jmp	 $Done$21609
$LN17@delta_to_m:

; 1437 :     Py_DECREF(x1);

  0006f	48 8b 4c 24 28	 mov	 rcx, QWORD PTR x1$[rsp]
  00074	e8 00 00 00 00	 call	 _Py_DecRef

; 1438 :     x1 = NULL;

  00079	48 c7 44 24 28
	00 00 00 00	 mov	 QWORD PTR x1$[rsp], 0

; 1439 : 
; 1440 :     /* x2 has days in seconds */
; 1441 :     x1 = PyLong_FromLong(GET_TD_SECONDS(self));         /* seconds */

  00082	48 8b 44 24 50	 mov	 rax, QWORD PTR self$[rsp]
  00087	8b 48 6c	 mov	 ecx, DWORD PTR [rax+108]
  0008a	e8 00 00 00 00	 call	 PyLong_FromLong
  0008f	48 89 44 24 28	 mov	 QWORD PTR x1$[rsp], rax

; 1442 :     if (x1 == NULL)

  00094	48 83 7c 24 28
	00		 cmp	 QWORD PTR x1$[rsp], 0
  0009a	75 05		 jne	 SHORT $LN16@delta_to_m

; 1443 :         goto Done;

  0009c	e9 a1 00 00 00	 jmp	 $Done$21609
$LN16@delta_to_m:

; 1444 :     x3 = PyNumber_Add(x1, x2);          /* days and seconds in seconds */

  000a1	48 8b 54 24 20	 mov	 rdx, QWORD PTR x2$[rsp]
  000a6	48 8b 4c 24 28	 mov	 rcx, QWORD PTR x1$[rsp]
  000ab	e8 00 00 00 00	 call	 PyNumber_Add
  000b0	48 89 44 24 38	 mov	 QWORD PTR x3$[rsp], rax

; 1445 :     if (x3 == NULL)

  000b5	48 83 7c 24 38
	00		 cmp	 QWORD PTR x3$[rsp], 0
  000bb	75 05		 jne	 SHORT $LN15@delta_to_m

; 1446 :         goto Done;

  000bd	e9 80 00 00 00	 jmp	 $Done$21609
$LN15@delta_to_m:

; 1447 :     Py_DECREF(x1);

  000c2	48 8b 4c 24 28	 mov	 rcx, QWORD PTR x1$[rsp]
  000c7	e8 00 00 00 00	 call	 _Py_DecRef

; 1448 :     Py_DECREF(x2);

  000cc	48 8b 4c 24 20	 mov	 rcx, QWORD PTR x2$[rsp]
  000d1	e8 00 00 00 00	 call	 _Py_DecRef

; 1449 :     /* x1 = */ x2 = NULL;

  000d6	48 c7 44 24 20
	00 00 00 00	 mov	 QWORD PTR x2$[rsp], 0

; 1450 : 
; 1451 :     /* x3 has days+seconds in seconds */
; 1452 :     x1 = PyNumber_Multiply(x3, us_per_second);          /* us */

  000df	48 8b 15 00 00
	00 00		 mov	 rdx, QWORD PTR us_per_second
  000e6	48 8b 4c 24 38	 mov	 rcx, QWORD PTR x3$[rsp]
  000eb	e8 00 00 00 00	 call	 PyNumber_Multiply
  000f0	48 89 44 24 28	 mov	 QWORD PTR x1$[rsp], rax

; 1453 :     if (x1 == NULL)

  000f5	48 83 7c 24 28
	00		 cmp	 QWORD PTR x1$[rsp], 0
  000fb	75 02		 jne	 SHORT $LN14@delta_to_m

; 1454 :         goto Done;

  000fd	eb 43		 jmp	 SHORT $Done$21609
$LN14@delta_to_m:

; 1455 :     Py_DECREF(x3);

  000ff	48 8b 4c 24 38	 mov	 rcx, QWORD PTR x3$[rsp]
  00104	e8 00 00 00 00	 call	 _Py_DecRef

; 1456 :     x3 = NULL;

  00109	48 c7 44 24 38
	00 00 00 00	 mov	 QWORD PTR x3$[rsp], 0

; 1457 : 
; 1458 :     /* x1 has days+seconds in us */
; 1459 :     x2 = PyLong_FromLong(GET_TD_MICROSECONDS(self));

  00112	48 8b 44 24 50	 mov	 rax, QWORD PTR self$[rsp]
  00117	8b 48 70	 mov	 ecx, DWORD PTR [rax+112]
  0011a	e8 00 00 00 00	 call	 PyLong_FromLong
  0011f	48 89 44 24 20	 mov	 QWORD PTR x2$[rsp], rax

; 1460 :     if (x2 == NULL)

  00124	48 83 7c 24 20
	00		 cmp	 QWORD PTR x2$[rsp], 0
  0012a	75 02		 jne	 SHORT $LN13@delta_to_m

; 1461 :         goto Done;

  0012c	eb 14		 jmp	 SHORT $Done$21609
$LN13@delta_to_m:

; 1462 :     result = PyNumber_Add(x1, x2);

  0012e	48 8b 54 24 20	 mov	 rdx, QWORD PTR x2$[rsp]
  00133	48 8b 4c 24 28	 mov	 rcx, QWORD PTR x1$[rsp]
  00138	e8 00 00 00 00	 call	 PyNumber_Add
  0013d	48 89 44 24 30	 mov	 QWORD PTR result$[rsp], rax
$Done$21609:
$LN12@delta_to_m:

; 1463 : 
; 1464 : Done:
; 1465 :     Py_XDECREF(x1);

  00142	48 83 7c 24 28
	00		 cmp	 QWORD PTR x1$[rsp], 0
  00148	74 0a		 je	 SHORT $LN9@delta_to_m
  0014a	48 8b 4c 24 28	 mov	 rcx, QWORD PTR x1$[rsp]
  0014f	e8 00 00 00 00	 call	 _Py_DecRef
$LN9@delta_to_m:
  00154	33 c0		 xor	 eax, eax
  00156	85 c0		 test	 eax, eax
  00158	75 e8		 jne	 SHORT $LN12@delta_to_m
$LN8@delta_to_m:

; 1466 :     Py_XDECREF(x2);

  0015a	48 83 7c 24 20
	00		 cmp	 QWORD PTR x2$[rsp], 0
  00160	74 0a		 je	 SHORT $LN5@delta_to_m
  00162	48 8b 4c 24 20	 mov	 rcx, QWORD PTR x2$[rsp]
  00167	e8 00 00 00 00	 call	 _Py_DecRef
$LN5@delta_to_m:
  0016c	33 c0		 xor	 eax, eax
  0016e	85 c0		 test	 eax, eax
  00170	75 e8		 jne	 SHORT $LN8@delta_to_m
$LN4@delta_to_m:

; 1467 :     Py_XDECREF(x3);

  00172	48 83 7c 24 38
	00		 cmp	 QWORD PTR x3$[rsp], 0
  00178	74 0a		 je	 SHORT $LN1@delta_to_m
  0017a	48 8b 4c 24 38	 mov	 rcx, QWORD PTR x3$[rsp]
  0017f	e8 00 00 00 00	 call	 _Py_DecRef
$LN1@delta_to_m:
  00184	33 c0		 xor	 eax, eax
  00186	85 c0		 test	 eax, eax
  00188	75 e8		 jne	 SHORT $LN4@delta_to_m

; 1468 :     return result;

  0018a	48 8b 44 24 30	 mov	 rax, QWORD PTR result$[rsp]

; 1469 : }

  0018f	48 83 c4 48	 add	 rsp, 72			; 00000048H
  00193	c3		 ret	 0
delta_to_microseconds ENDP
_TEXT	ENDS
PUBLIC	??_C@_0CM@DACIBDGD@normalized?5days?5too?5large?5to?5fit@ ; `string'
PUBLIC	??_C@_1DI@ILDPNEAB@?$AA0?$AA?5?$AA?$DM?$AA?$DN?$AA?5?$AAt?$AAe?$AAm?$AAp?$AA?5?$AA?$CG?$AA?$CG?$AA?5?$AAt?$AAe?$AAm?$AAp?$AA?5?$AA?$DM?$AA?5?$AA2?$AA4?$AA?$CK?$AA3?$AA6?$AA0?$AA0?$AA?$AA@ ; `string'
PUBLIC	??_C@_1CC@DNBCFJEA@?$AAP?$AAy?$AAE?$AAr?$AAr?$AA_?$AAO?$AAc?$AAc?$AAu?$AAr?$AAr?$AAe?$AAd?$AA?$CI?$AA?$CJ?$AA?$AA@ ; `string'
PUBLIC	??_C@_1DI@HACMFIPB@?$AA0?$AA?5?$AA?$DM?$AA?$DN?$AA?5?$AAt?$AAe?$AAm?$AAp?$AA?5?$AA?$CG?$AA?$CG?$AA?5?$AAt?$AAe?$AAm?$AAp?$AA?5?$AA?$DM?$AA?5?$AA1?$AA0?$AA0?$AA0?$AA0?$AA0?$AA0?$AA?$AA@ ; `string'
EXTRN	PyErr_SetString:PROC
EXTRN	PyErr_Occurred:PROC
EXTRN	PyLong_AsLong:PROC
EXTRN	PyTuple_GetItem:PROC
EXTRN	PyNumber_Divmod:PROC
;	COMDAT pdata
pdata	SEGMENT
$pdata$microseconds_to_delta_ex DD imagerel microseconds_to_delta_ex
	DD	imagerel microseconds_to_delta_ex+736
	DD	imagerel $unwind$microseconds_to_delta_ex
pdata	ENDS
;	COMDAT xdata
xdata	SEGMENT
$unwind$microseconds_to_delta_ex DD 010e01H
	DD	0c20eH
xdata	ENDS
;	COMDAT ??_C@_0CM@DACIBDGD@normalized?5days?5too?5large?5to?5fit@
CONST	SEGMENT
??_C@_0CM@DACIBDGD@normalized?5days?5too?5large?5to?5fit@ DB 'normalized '
	DB	'days too large to fit in a C int', 00H	; `string'
CONST	ENDS
;	COMDAT ??_C@_1DI@ILDPNEAB@?$AA0?$AA?5?$AA?$DM?$AA?$DN?$AA?5?$AAt?$AAe?$AAm?$AAp?$AA?5?$AA?$CG?$AA?$CG?$AA?5?$AAt?$AAe?$AAm?$AAp?$AA?5?$AA?$DM?$AA?5?$AA2?$AA4?$AA?$CK?$AA3?$AA6?$AA0?$AA0?$AA?$AA@
CONST	SEGMENT
??_C@_1DI@ILDPNEAB@?$AA0?$AA?5?$AA?$DM?$AA?$DN?$AA?5?$AAt?$AAe?$AAm?$AAp?$AA?5?$AA?$CG?$AA?$CG?$AA?5?$AAt?$AAe?$AAm?$AAp?$AA?5?$AA?$DM?$AA?5?$AA2?$AA4?$AA?$CK?$AA3?$AA6?$AA0?$AA0?$AA?$AA@ DB '0'
	DB	00H, ' ', 00H, '<', 00H, '=', 00H, ' ', 00H, 't', 00H, 'e', 00H
	DB	'm', 00H, 'p', 00H, ' ', 00H, '&', 00H, '&', 00H, ' ', 00H, 't'
	DB	00H, 'e', 00H, 'm', 00H, 'p', 00H, ' ', 00H, '<', 00H, ' ', 00H
	DB	'2', 00H, '4', 00H, '*', 00H, '3', 00H, '6', 00H, '0', 00H, '0'
	DB	00H, 00H, 00H				; `string'
CONST	ENDS
;	COMDAT ??_C@_1CC@DNBCFJEA@?$AAP?$AAy?$AAE?$AAr?$AAr?$AA_?$AAO?$AAc?$AAc?$AAu?$AAr?$AAr?$AAe?$AAd?$AA?$CI?$AA?$CJ?$AA?$AA@
CONST	SEGMENT
??_C@_1CC@DNBCFJEA@?$AAP?$AAy?$AAE?$AAr?$AAr?$AA_?$AAO?$AAc?$AAc?$AAu?$AAr?$AAr?$AAe?$AAd?$AA?$CI?$AA?$CJ?$AA?$AA@ DB 'P'
	DB	00H, 'y', 00H, 'E', 00H, 'r', 00H, 'r', 00H, '_', 00H, 'O', 00H
	DB	'c', 00H, 'c', 00H, 'u', 00H, 'r', 00H, 'r', 00H, 'e', 00H, 'd'
	DB	00H, '(', 00H, ')', 00H, 00H, 00H		; `string'
CONST	ENDS
;	COMDAT ??_C@_1DI@HACMFIPB@?$AA0?$AA?5?$AA?$DM?$AA?$DN?$AA?5?$AAt?$AAe?$AAm?$AAp?$AA?5?$AA?$CG?$AA?$CG?$AA?5?$AAt?$AAe?$AAm?$AAp?$AA?5?$AA?$DM?$AA?5?$AA1?$AA0?$AA0?$AA0?$AA0?$AA0?$AA0?$AA?$AA@
CONST	SEGMENT
??_C@_1DI@HACMFIPB@?$AA0?$AA?5?$AA?$DM?$AA?$DN?$AA?5?$AAt?$AAe?$AAm?$AAp?$AA?5?$AA?$CG?$AA?$CG?$AA?5?$AAt?$AAe?$AAm?$AAp?$AA?5?$AA?$DM?$AA?5?$AA1?$AA0?$AA0?$AA0?$AA0?$AA0?$AA0?$AA?$AA@ DB '0'
	DB	00H, ' ', 00H, '<', 00H, '=', 00H, ' ', 00H, 't', 00H, 'e', 00H
	DB	'm', 00H, 'p', 00H, ' ', 00H, '&', 00H, '&', 00H, ' ', 00H, 't'
	DB	00H, 'e', 00H, 'm', 00H, 'p', 00H, ' ', 00H, '<', 00H, ' ', 00H
	DB	'1', 00H, '0', 00H, '0', 00H, '0', 00H, '0', 00H, '0', 00H, '0'
	DB	00H, 00H, 00H				; `string'
; Function compile flags: /Odtp
CONST	ENDS
;	COMDAT microseconds_to_delta_ex
_TEXT	SEGMENT
num$ = 48
s$ = 56
temp$ = 60
tuple$ = 64
result$ = 72
d$ = 80
us$ = 84
pyus$ = 112
type$ = 120
microseconds_to_delta_ex PROC				; COMDAT

; 1475 : {

  00000	48 89 54 24 10	 mov	 QWORD PTR [rsp+16], rdx
  00005	48 89 4c 24 08	 mov	 QWORD PTR [rsp+8], rcx
  0000a	48 83 ec 68	 sub	 rsp, 104		; 00000068H

; 1476 :     int us;
; 1477 :     int s;
; 1478 :     int d;
; 1479 :     long temp;
; 1480 : 
; 1481 :     PyObject *tuple = NULL;

  0000e	48 c7 44 24 40
	00 00 00 00	 mov	 QWORD PTR tuple$[rsp], 0

; 1482 :     PyObject *num = NULL;

  00017	48 c7 44 24 30
	00 00 00 00	 mov	 QWORD PTR num$[rsp], 0

; 1483 :     PyObject *result = NULL;

  00020	48 c7 44 24 48
	00 00 00 00	 mov	 QWORD PTR result$[rsp], 0

; 1484 : 
; 1485 :     tuple = PyNumber_Divmod(pyus, us_per_second);

  00029	48 8b 15 00 00
	00 00		 mov	 rdx, QWORD PTR us_per_second
  00030	48 8b 4c 24 70	 mov	 rcx, QWORD PTR pyus$[rsp]
  00035	e8 00 00 00 00	 call	 PyNumber_Divmod
  0003a	48 89 44 24 40	 mov	 QWORD PTR tuple$[rsp], rax

; 1486 :     if (tuple == NULL)

  0003f	48 83 7c 24 40
	00		 cmp	 QWORD PTR tuple$[rsp], 0
  00045	75 05		 jne	 SHORT $LN20@microsecon

; 1487 :         goto Done;

  00047	e9 5a 02 00 00	 jmp	 $Done$21662
$LN20@microsecon:

; 1488 : 
; 1489 :     num = PyTuple_GetItem(tuple, 1);            /* us */

  0004c	ba 01 00 00 00	 mov	 edx, 1
  00051	48 8b 4c 24 40	 mov	 rcx, QWORD PTR tuple$[rsp]
  00056	e8 00 00 00 00	 call	 PyTuple_GetItem
  0005b	48 89 44 24 30	 mov	 QWORD PTR num$[rsp], rax

; 1490 :     if (num == NULL)

  00060	48 83 7c 24 30
	00		 cmp	 QWORD PTR num$[rsp], 0
  00066	75 05		 jne	 SHORT $LN19@microsecon

; 1491 :         goto Done;

  00068	e9 39 02 00 00	 jmp	 $Done$21662
$LN19@microsecon:

; 1492 :     temp = PyLong_AsLong(num);

  0006d	48 8b 4c 24 30	 mov	 rcx, QWORD PTR num$[rsp]
  00072	e8 00 00 00 00	 call	 PyLong_AsLong
  00077	89 44 24 3c	 mov	 DWORD PTR temp$[rsp], eax

; 1493 :     num = NULL;

  0007b	48 c7 44 24 30
	00 00 00 00	 mov	 QWORD PTR num$[rsp], 0

; 1494 :     if (temp == -1 && PyErr_Occurred())

  00084	83 7c 24 3c ff	 cmp	 DWORD PTR temp$[rsp], -1
  00089	75 0f		 jne	 SHORT $LN18@microsecon
  0008b	e8 00 00 00 00	 call	 PyErr_Occurred
  00090	48 85 c0	 test	 rax, rax
  00093	74 05		 je	 SHORT $LN18@microsecon

; 1495 :         goto Done;

  00095	e9 0c 02 00 00	 jmp	 $Done$21662
$LN18@microsecon:

; 1496 :     assert(0 <= temp && temp < 1000000);

  0009a	83 7c 24 3c 00	 cmp	 DWORD PTR temp$[rsp], 0
  0009f	7c 0a		 jl	 SHORT $LN23@microsecon
  000a1	81 7c 24 3c 40
	42 0f 00	 cmp	 DWORD PTR temp$[rsp], 1000000 ; 000f4240H
  000a9	7c 1c		 jl	 SHORT $LN24@microsecon
$LN23@microsecon:
  000ab	41 b8 d8 05 00
	00		 mov	 r8d, 1496		; 000005d8H
  000b1	48 8d 15 00 00
	00 00		 lea	 rdx, OFFSET FLAT:??_C@_1DK@MIHLFJMJ@?$AA?4?$AA?4?$AA?2?$AAM?$AAo?$AAd?$AAu?$AAl?$AAe?$AAs?$AA?2?$AA_?$AAd?$AAa?$AAt?$AAe?$AAt?$AAi?$AAm?$AAe?$AAm?$AAo?$AAd?$AAu?$AAl?$AAe?$AA?4?$AAc?$AA?$AA@
  000b8	48 8d 0d 00 00
	00 00		 lea	 rcx, OFFSET FLAT:??_C@_1DI@HACMFIPB@?$AA0?$AA?5?$AA?$DM?$AA?$DN?$AA?5?$AAt?$AAe?$AAm?$AAp?$AA?5?$AA?$CG?$AA?$CG?$AA?5?$AAt?$AAe?$AAm?$AAp?$AA?5?$AA?$DM?$AA?5?$AA1?$AA0?$AA0?$AA0?$AA0?$AA0?$AA0?$AA?$AA@
  000bf	ff 15 00 00 00
	00		 call	 QWORD PTR __imp__wassert
  000c5	33 c0		 xor	 eax, eax
$LN24@microsecon:

; 1497 :     us = (int)temp;

  000c7	8b 44 24 3c	 mov	 eax, DWORD PTR temp$[rsp]
  000cb	89 44 24 54	 mov	 DWORD PTR us$[rsp], eax

; 1498 :     if (us < 0) {

  000cf	83 7c 24 54 00	 cmp	 DWORD PTR us$[rsp], 0
  000d4	7d 2b		 jge	 SHORT $LN17@microsecon

; 1499 :         /* The divisor was positive, so this must be an error. */
; 1500 :         assert(PyErr_Occurred());

  000d6	e8 00 00 00 00	 call	 PyErr_Occurred
  000db	48 85 c0	 test	 rax, rax
  000de	75 1c		 jne	 SHORT $LN25@microsecon
  000e0	41 b8 dc 05 00
	00		 mov	 r8d, 1500		; 000005dcH
  000e6	48 8d 15 00 00
	00 00		 lea	 rdx, OFFSET FLAT:??_C@_1DK@MIHLFJMJ@?$AA?4?$AA?4?$AA?2?$AAM?$AAo?$AAd?$AAu?$AAl?$AAe?$AAs?$AA?2?$AA_?$AAd?$AAa?$AAt?$AAe?$AAt?$AAi?$AAm?$AAe?$AAm?$AAo?$AAd?$AAu?$AAl?$AAe?$AA?4?$AAc?$AA?$AA@
  000ed	48 8d 0d 00 00
	00 00		 lea	 rcx, OFFSET FLAT:??_C@_1CC@DNBCFJEA@?$AAP?$AAy?$AAE?$AAr?$AAr?$AA_?$AAO?$AAc?$AAc?$AAu?$AAr?$AAr?$AAe?$AAd?$AA?$CI?$AA?$CJ?$AA?$AA@
  000f4	ff 15 00 00 00
	00		 call	 QWORD PTR __imp__wassert
  000fa	33 c0		 xor	 eax, eax
$LN25@microsecon:

; 1501 :         goto Done;

  000fc	e9 a5 01 00 00	 jmp	 $Done$21662
$LN17@microsecon:

; 1502 :     }
; 1503 : 
; 1504 :     num = PyTuple_GetItem(tuple, 0);            /* leftover seconds */

  00101	33 d2		 xor	 edx, edx
  00103	48 8b 4c 24 40	 mov	 rcx, QWORD PTR tuple$[rsp]
  00108	e8 00 00 00 00	 call	 PyTuple_GetItem
  0010d	48 89 44 24 30	 mov	 QWORD PTR num$[rsp], rax

; 1505 :     if (num == NULL)

  00112	48 83 7c 24 30
	00		 cmp	 QWORD PTR num$[rsp], 0
  00118	75 05		 jne	 SHORT $LN16@microsecon

; 1506 :         goto Done;

  0011a	e9 87 01 00 00	 jmp	 $Done$21662
$LN16@microsecon:

; 1507 :     Py_INCREF(num);

  0011f	48 8b 4c 24 30	 mov	 rcx, QWORD PTR num$[rsp]
  00124	e8 00 00 00 00	 call	 _Py_IncRef

; 1508 :     Py_DECREF(tuple);

  00129	48 8b 4c 24 40	 mov	 rcx, QWORD PTR tuple$[rsp]
  0012e	e8 00 00 00 00	 call	 _Py_DecRef

; 1509 : 
; 1510 :     tuple = PyNumber_Divmod(num, seconds_per_day);

  00133	48 8b 15 00 00
	00 00		 mov	 rdx, QWORD PTR seconds_per_day
  0013a	48 8b 4c 24 30	 mov	 rcx, QWORD PTR num$[rsp]
  0013f	e8 00 00 00 00	 call	 PyNumber_Divmod
  00144	48 89 44 24 40	 mov	 QWORD PTR tuple$[rsp], rax

; 1511 :     if (tuple == NULL)

  00149	48 83 7c 24 40
	00		 cmp	 QWORD PTR tuple$[rsp], 0
  0014f	75 05		 jne	 SHORT $LN15@microsecon

; 1512 :         goto Done;

  00151	e9 50 01 00 00	 jmp	 $Done$21662
$LN15@microsecon:

; 1513 :     Py_DECREF(num);

  00156	48 8b 4c 24 30	 mov	 rcx, QWORD PTR num$[rsp]
  0015b	e8 00 00 00 00	 call	 _Py_DecRef

; 1514 : 
; 1515 :     num = PyTuple_GetItem(tuple, 1);            /* seconds */

  00160	ba 01 00 00 00	 mov	 edx, 1
  00165	48 8b 4c 24 40	 mov	 rcx, QWORD PTR tuple$[rsp]
  0016a	e8 00 00 00 00	 call	 PyTuple_GetItem
  0016f	48 89 44 24 30	 mov	 QWORD PTR num$[rsp], rax

; 1516 :     if (num == NULL)

  00174	48 83 7c 24 30
	00		 cmp	 QWORD PTR num$[rsp], 0
  0017a	75 05		 jne	 SHORT $LN14@microsecon

; 1517 :         goto Done;

  0017c	e9 25 01 00 00	 jmp	 $Done$21662
$LN14@microsecon:

; 1518 :     temp = PyLong_AsLong(num);

  00181	48 8b 4c 24 30	 mov	 rcx, QWORD PTR num$[rsp]
  00186	e8 00 00 00 00	 call	 PyLong_AsLong
  0018b	89 44 24 3c	 mov	 DWORD PTR temp$[rsp], eax

; 1519 :     num = NULL;

  0018f	48 c7 44 24 30
	00 00 00 00	 mov	 QWORD PTR num$[rsp], 0

; 1520 :     if (temp == -1 && PyErr_Occurred())

  00198	83 7c 24 3c ff	 cmp	 DWORD PTR temp$[rsp], -1
  0019d	75 0f		 jne	 SHORT $LN13@microsecon
  0019f	e8 00 00 00 00	 call	 PyErr_Occurred
  001a4	48 85 c0	 test	 rax, rax
  001a7	74 05		 je	 SHORT $LN13@microsecon

; 1521 :         goto Done;

  001a9	e9 f8 00 00 00	 jmp	 $Done$21662
$LN13@microsecon:

; 1522 :     assert(0 <= temp && temp < 24*3600);

  001ae	83 7c 24 3c 00	 cmp	 DWORD PTR temp$[rsp], 0
  001b3	7c 0a		 jl	 SHORT $LN26@microsecon
  001b5	81 7c 24 3c 80
	51 01 00	 cmp	 DWORD PTR temp$[rsp], 86400 ; 00015180H
  001bd	7c 1c		 jl	 SHORT $LN27@microsecon
$LN26@microsecon:
  001bf	41 b8 f2 05 00
	00		 mov	 r8d, 1522		; 000005f2H
  001c5	48 8d 15 00 00
	00 00		 lea	 rdx, OFFSET FLAT:??_C@_1DK@MIHLFJMJ@?$AA?4?$AA?4?$AA?2?$AAM?$AAo?$AAd?$AAu?$AAl?$AAe?$AAs?$AA?2?$AA_?$AAd?$AAa?$AAt?$AAe?$AAt?$AAi?$AAm?$AAe?$AAm?$AAo?$AAd?$AAu?$AAl?$AAe?$AA?4?$AAc?$AA?$AA@
  001cc	48 8d 0d 00 00
	00 00		 lea	 rcx, OFFSET FLAT:??_C@_1DI@ILDPNEAB@?$AA0?$AA?5?$AA?$DM?$AA?$DN?$AA?5?$AAt?$AAe?$AAm?$AAp?$AA?5?$AA?$CG?$AA?$CG?$AA?5?$AAt?$AAe?$AAm?$AAp?$AA?5?$AA?$DM?$AA?5?$AA2?$AA4?$AA?$CK?$AA3?$AA6?$AA0?$AA0?$AA?$AA@
  001d3	ff 15 00 00 00
	00		 call	 QWORD PTR __imp__wassert
  001d9	33 c0		 xor	 eax, eax
$LN27@microsecon:

; 1523 :     s = (int)temp;

  001db	8b 44 24 3c	 mov	 eax, DWORD PTR temp$[rsp]
  001df	89 44 24 38	 mov	 DWORD PTR s$[rsp], eax

; 1524 : 
; 1525 :     if (s < 0) {

  001e3	83 7c 24 38 00	 cmp	 DWORD PTR s$[rsp], 0
  001e8	7d 2b		 jge	 SHORT $LN12@microsecon

; 1526 :         /* The divisor was positive, so this must be an error. */
; 1527 :         assert(PyErr_Occurred());

  001ea	e8 00 00 00 00	 call	 PyErr_Occurred
  001ef	48 85 c0	 test	 rax, rax
  001f2	75 1c		 jne	 SHORT $LN28@microsecon
  001f4	41 b8 f7 05 00
	00		 mov	 r8d, 1527		; 000005f7H
  001fa	48 8d 15 00 00
	00 00		 lea	 rdx, OFFSET FLAT:??_C@_1DK@MIHLFJMJ@?$AA?4?$AA?4?$AA?2?$AAM?$AAo?$AAd?$AAu?$AAl?$AAe?$AAs?$AA?2?$AA_?$AAd?$AAa?$AAt?$AAe?$AAt?$AAi?$AAm?$AAe?$AAm?$AAo?$AAd?$AAu?$AAl?$AAe?$AA?4?$AAc?$AA?$AA@
  00201	48 8d 0d 00 00
	00 00		 lea	 rcx, OFFSET FLAT:??_C@_1CC@DNBCFJEA@?$AAP?$AAy?$AAE?$AAr?$AAr?$AA_?$AAO?$AAc?$AAc?$AAu?$AAr?$AAr?$AAe?$AAd?$AA?$CI?$AA?$CJ?$AA?$AA@
  00208	ff 15 00 00 00
	00		 call	 QWORD PTR __imp__wassert
  0020e	33 c0		 xor	 eax, eax
$LN28@microsecon:

; 1528 :         goto Done;

  00210	e9 91 00 00 00	 jmp	 $Done$21662
$LN12@microsecon:

; 1529 :     }
; 1530 : 
; 1531 :     num = PyTuple_GetItem(tuple, 0);            /* leftover days */

  00215	33 d2		 xor	 edx, edx
  00217	48 8b 4c 24 40	 mov	 rcx, QWORD PTR tuple$[rsp]
  0021c	e8 00 00 00 00	 call	 PyTuple_GetItem
  00221	48 89 44 24 30	 mov	 QWORD PTR num$[rsp], rax

; 1532 :     if (num == NULL)

  00226	48 83 7c 24 30
	00		 cmp	 QWORD PTR num$[rsp], 0
  0022c	75 02		 jne	 SHORT $LN11@microsecon

; 1533 :         goto Done;

  0022e	eb 76		 jmp	 SHORT $Done$21662
$LN11@microsecon:

; 1534 :     Py_INCREF(num);

  00230	48 8b 4c 24 30	 mov	 rcx, QWORD PTR num$[rsp]
  00235	e8 00 00 00 00	 call	 _Py_IncRef

; 1535 :     temp = PyLong_AsLong(num);

  0023a	48 8b 4c 24 30	 mov	 rcx, QWORD PTR num$[rsp]
  0023f	e8 00 00 00 00	 call	 PyLong_AsLong
  00244	89 44 24 3c	 mov	 DWORD PTR temp$[rsp], eax

; 1536 :     if (temp == -1 && PyErr_Occurred())

  00248	83 7c 24 3c ff	 cmp	 DWORD PTR temp$[rsp], -1
  0024d	75 0c		 jne	 SHORT $LN10@microsecon
  0024f	e8 00 00 00 00	 call	 PyErr_Occurred
  00254	48 85 c0	 test	 rax, rax
  00257	74 02		 je	 SHORT $LN10@microsecon

; 1537 :         goto Done;

  00259	eb 4b		 jmp	 SHORT $Done$21662
$LN10@microsecon:

; 1538 :     d = (int)temp;

  0025b	8b 44 24 3c	 mov	 eax, DWORD PTR temp$[rsp]
  0025f	89 44 24 50	 mov	 DWORD PTR d$[rsp], eax

; 1539 :     if ((long)d != temp) {

  00263	8b 44 24 3c	 mov	 eax, DWORD PTR temp$[rsp]
  00267	39 44 24 50	 cmp	 DWORD PTR d$[rsp], eax
  0026b	74 15		 je	 SHORT $LN9@microsecon

; 1540 :         PyErr_SetString(PyExc_OverflowError, "normalized days too "
; 1541 :                         "large to fit in a C int");

  0026d	48 8d 15 00 00
	00 00		 lea	 rdx, OFFSET FLAT:??_C@_0CM@DACIBDGD@normalized?5days?5too?5large?5to?5fit@
  00274	48 8b 0d 00 00
	00 00		 mov	 rcx, QWORD PTR PyExc_OverflowError
  0027b	e8 00 00 00 00	 call	 PyErr_SetString

; 1542 :         goto Done;

  00280	eb 24		 jmp	 SHORT $Done$21662
$LN9@microsecon:

; 1543 :     }
; 1544 :     result = new_delta_ex(d, s, us, 0, type);

  00282	48 8b 44 24 78	 mov	 rax, QWORD PTR type$[rsp]
  00287	48 89 44 24 20	 mov	 QWORD PTR [rsp+32], rax
  0028c	45 33 c9	 xor	 r9d, r9d
  0028f	44 8b 44 24 54	 mov	 r8d, DWORD PTR us$[rsp]
  00294	8b 54 24 38	 mov	 edx, DWORD PTR s$[rsp]
  00298	8b 4c 24 50	 mov	 ecx, DWORD PTR d$[rsp]
  0029c	e8 00 00 00 00	 call	 new_delta_ex
  002a1	48 89 44 24 48	 mov	 QWORD PTR result$[rsp], rax
$Done$21662:
$LN8@microsecon:

; 1545 : 
; 1546 : Done:
; 1547 :     Py_XDECREF(tuple);

  002a6	48 83 7c 24 40
	00		 cmp	 QWORD PTR tuple$[rsp], 0
  002ac	74 0a		 je	 SHORT $LN5@microsecon
  002ae	48 8b 4c 24 40	 mov	 rcx, QWORD PTR tuple$[rsp]
  002b3	e8 00 00 00 00	 call	 _Py_DecRef
$LN5@microsecon:
  002b8	33 c0		 xor	 eax, eax
  002ba	85 c0		 test	 eax, eax
  002bc	75 e8		 jne	 SHORT $LN8@microsecon
$LN4@microsecon:

; 1548 :     Py_XDECREF(num);

  002be	48 83 7c 24 30
	00		 cmp	 QWORD PTR num$[rsp], 0
  002c4	74 0a		 je	 SHORT $LN1@microsecon
  002c6	48 8b 4c 24 30	 mov	 rcx, QWORD PTR num$[rsp]
  002cb	e8 00 00 00 00	 call	 _Py_DecRef
$LN1@microsecon:
  002d0	33 c0		 xor	 eax, eax
  002d2	85 c0		 test	 eax, eax
  002d4	75 e8		 jne	 SHORT $LN4@microsecon

; 1549 :     return result;

  002d6	48 8b 44 24 48	 mov	 rax, QWORD PTR result$[rsp]

; 1550 : }

  002db	48 83 c4 68	 add	 rsp, 104		; 00000068H
  002df	c3		 ret	 0
microseconds_to_delta_ex ENDP
_TEXT	ENDS
EXTRN	_PyObject_CallMethodId:PROC
EXTRN	_tls_index:DWORD
;	COMDAT pdata
pdata	SEGMENT
$pdata$multiply_float_timedelta DD imagerel multiply_float_timedelta
	DD	imagerel multiply_float_timedelta+318
	DD	imagerel $unwind$multiply_float_timedelta
pdata	ENDS
;	COMDAT xdata
xdata	SEGMENT
$unwind$multiply_float_timedelta DD 010e01H
	DD	0a20eH
; Function compile flags: /Odtp
xdata	ENDS
;	COMDAT multiply_float_timedelta
_TEXT	SEGMENT
ratio$ = 32
pyus_out$ = 40
pyus_in$ = 48
temp$ = 56
result$ = 64
floatobj$ = 96
delta$ = 104
multiply_float_timedelta PROC				; COMDAT

; 1578 : {

  00000	48 89 54 24 10	 mov	 QWORD PTR [rsp+16], rdx
  00005	48 89 4c 24 08	 mov	 QWORD PTR [rsp+8], rcx
  0000a	48 83 ec 58	 sub	 rsp, 88			; 00000058H

; 1579 :     PyObject *result = NULL;

  0000e	48 c7 44 24 40
	00 00 00 00	 mov	 QWORD PTR result$[rsp], 0

; 1580 :     PyObject *pyus_in = NULL, *temp, *pyus_out;

  00017	48 c7 44 24 30
	00 00 00 00	 mov	 QWORD PTR pyus_in$[rsp], 0

; 1581 :     PyObject *ratio = NULL;

  00020	48 c7 44 24 20
	00 00 00 00	 mov	 QWORD PTR ratio$[rsp], 0

; 1582 :     _Py_IDENTIFIER(as_integer_ratio);
; 1583 : 
; 1584 :     pyus_in = delta_to_microseconds(delta);

  00029	48 8b 4c 24 68	 mov	 rcx, QWORD PTR delta$[rsp]
  0002e	e8 00 00 00 00	 call	 delta_to_microseconds
  00033	48 89 44 24 30	 mov	 QWORD PTR pyus_in$[rsp], rax

; 1585 :     if (pyus_in == NULL)

  00038	48 83 7c 24 30
	00		 cmp	 QWORD PTR pyus_in$[rsp], 0
  0003e	75 07		 jne	 SHORT $LN12@multiply_f

; 1586 :         return NULL;

  00040	33 c0		 xor	 eax, eax
  00042	e9 f2 00 00 00	 jmp	 $LN13@multiply_f
$LN12@multiply_f:

; 1587 :     ratio = _PyObject_CallMethodId(floatobj, &PyId_as_integer_ratio, NULL);

  00047	b8 00 00 00 00	 mov	 eax, OFFSET FLAT:?PyId_as_integer_ratio@?1??multiply_float_timedelta@@9@9
  0004c	8b c0		 mov	 eax, eax
  0004e	8b 0d 00 00 00
	00		 mov	 ecx, DWORD PTR _tls_index
  00054	65 48 8b 14 25
	58 00 00 00	 mov	 rdx, QWORD PTR gs:88
  0005d	48 03 04 ca	 add	 rax, QWORD PTR [rdx+rcx*8]
  00061	45 33 c0	 xor	 r8d, r8d
  00064	48 8b d0	 mov	 rdx, rax
  00067	48 8b 4c 24 60	 mov	 rcx, QWORD PTR floatobj$[rsp]
  0006c	e8 00 00 00 00	 call	 _PyObject_CallMethodId
  00071	48 89 44 24 20	 mov	 QWORD PTR ratio$[rsp], rax

; 1588 :     if (ratio == NULL)

  00076	48 83 7c 24 20
	00		 cmp	 QWORD PTR ratio$[rsp], 0
  0007c	75 05		 jne	 SHORT $LN11@multiply_f

; 1589 :         goto error;

  0007e	e9 81 00 00 00	 jmp	 $error$21748
$LN11@multiply_f:

; 1590 :     temp = PyNumber_Multiply(pyus_in, PyTuple_GET_ITEM(ratio, 0));

  00083	48 8b 44 24 20	 mov	 rax, QWORD PTR ratio$[rsp]
  00088	48 8b 50 70	 mov	 rdx, QWORD PTR [rax+112]
  0008c	48 8b 4c 24 30	 mov	 rcx, QWORD PTR pyus_in$[rsp]
  00091	e8 00 00 00 00	 call	 PyNumber_Multiply
  00096	48 89 44 24 38	 mov	 QWORD PTR temp$[rsp], rax

; 1591 :     Py_DECREF(pyus_in);

  0009b	48 8b 4c 24 30	 mov	 rcx, QWORD PTR pyus_in$[rsp]
  000a0	e8 00 00 00 00	 call	 _Py_DecRef

; 1592 :     pyus_in = NULL;

  000a5	48 c7 44 24 30
	00 00 00 00	 mov	 QWORD PTR pyus_in$[rsp], 0

; 1593 :     if (temp == NULL)

  000ae	48 83 7c 24 38
	00		 cmp	 QWORD PTR temp$[rsp], 0
  000b4	75 02		 jne	 SHORT $LN10@multiply_f

; 1594 :         goto error;

  000b6	eb 4c		 jmp	 SHORT $error$21748
$LN10@multiply_f:

; 1595 :     pyus_out = divide_nearest(temp, PyTuple_GET_ITEM(ratio, 1));

  000b8	48 8b 44 24 20	 mov	 rax, QWORD PTR ratio$[rsp]
  000bd	48 8b 50 78	 mov	 rdx, QWORD PTR [rax+120]
  000c1	48 8b 4c 24 38	 mov	 rcx, QWORD PTR temp$[rsp]
  000c6	e8 00 00 00 00	 call	 divide_nearest
  000cb	48 89 44 24 28	 mov	 QWORD PTR pyus_out$[rsp], rax

; 1596 :     Py_DECREF(temp);

  000d0	48 8b 4c 24 38	 mov	 rcx, QWORD PTR temp$[rsp]
  000d5	e8 00 00 00 00	 call	 _Py_DecRef

; 1597 :     if (pyus_out == NULL)

  000da	48 83 7c 24 28
	00		 cmp	 QWORD PTR pyus_out$[rsp], 0
  000e0	75 02		 jne	 SHORT $LN9@multiply_f

; 1598 :         goto error;

  000e2	eb 20		 jmp	 SHORT $error$21748
$LN9@multiply_f:

; 1599 :     result = microseconds_to_delta(pyus_out);

  000e4	48 8d 15 00 00
	00 00		 lea	 rdx, OFFSET FLAT:PyDateTime_DeltaType
  000eb	48 8b 4c 24 28	 mov	 rcx, QWORD PTR pyus_out$[rsp]
  000f0	e8 00 00 00 00	 call	 microseconds_to_delta_ex
  000f5	48 89 44 24 40	 mov	 QWORD PTR result$[rsp], rax

; 1600 :     Py_DECREF(pyus_out);

  000fa	48 8b 4c 24 28	 mov	 rcx, QWORD PTR pyus_out$[rsp]
  000ff	e8 00 00 00 00	 call	 _Py_DecRef
$error$21748:
$LN8@multiply_f:

; 1601 :  error:
; 1602 :     Py_XDECREF(pyus_in);

  00104	48 83 7c 24 30
	00		 cmp	 QWORD PTR pyus_in$[rsp], 0
  0010a	74 0a		 je	 SHORT $LN5@multiply_f
  0010c	48 8b 4c 24 30	 mov	 rcx, QWORD PTR pyus_in$[rsp]
  00111	e8 00 00 00 00	 call	 _Py_DecRef
$LN5@multiply_f:
  00116	33 c0		 xor	 eax, eax
  00118	85 c0		 test	 eax, eax
  0011a	75 e8		 jne	 SHORT $LN8@multiply_f
$LN4@multiply_f:

; 1603 :     Py_XDECREF(ratio);

  0011c	48 83 7c 24 20
	00		 cmp	 QWORD PTR ratio$[rsp], 0
  00122	74 0a		 je	 SHORT $LN1@multiply_f
  00124	48 8b 4c 24 20	 mov	 rcx, QWORD PTR ratio$[rsp]
  00129	e8 00 00 00 00	 call	 _Py_DecRef
$LN1@multiply_f:
  0012e	33 c0		 xor	 eax, eax
  00130	85 c0		 test	 eax, eax
  00132	75 e8		 jne	 SHORT $LN4@multiply_f

; 1604 : 
; 1605 :     return result;

  00134	48 8b 44 24 40	 mov	 rax, QWORD PTR result$[rsp]
$LN13@multiply_f:

; 1606 : }

  00139	48 83 c4 58	 add	 rsp, 88			; 00000058H
  0013d	c3		 ret	 0
multiply_float_timedelta ENDP
_TEXT	ENDS
EXTRN	_PyLong_DivmodNear:PROC
;	COMDAT pdata
pdata	SEGMENT
$pdata$divide_nearest DD imagerel divide_nearest
	DD	imagerel divide_nearest+90
	DD	imagerel $unwind$divide_nearest
pdata	ENDS
;	COMDAT xdata
xdata	SEGMENT
$unwind$divide_nearest DD 010e01H
	DD	0620eH
; Function compile flags: /Odtp
xdata	ENDS
;	COMDAT divide_nearest
_TEXT	SEGMENT
temp$ = 32
result$ = 40
m$ = 64
n$ = 72
divide_nearest PROC					; COMDAT

; 161  : {

  00000	48 89 54 24 10	 mov	 QWORD PTR [rsp+16], rdx
  00005	48 89 4c 24 08	 mov	 QWORD PTR [rsp+8], rcx
  0000a	48 83 ec 38	 sub	 rsp, 56			; 00000038H

; 162  :     PyObject *result;
; 163  :     PyObject *temp;
; 164  : 
; 165  :     temp = _PyLong_DivmodNear(m, n);

  0000e	48 8b 54 24 48	 mov	 rdx, QWORD PTR n$[rsp]
  00013	48 8b 4c 24 40	 mov	 rcx, QWORD PTR m$[rsp]
  00018	e8 00 00 00 00	 call	 _PyLong_DivmodNear
  0001d	48 89 44 24 20	 mov	 QWORD PTR temp$[rsp], rax

; 166  :     if (temp == NULL)

  00022	48 83 7c 24 20
	00		 cmp	 QWORD PTR temp$[rsp], 0
  00028	75 04		 jne	 SHORT $LN1@divide_nea

; 167  :         return NULL;

  0002a	33 c0		 xor	 eax, eax
  0002c	eb 27		 jmp	 SHORT $LN2@divide_nea
$LN1@divide_nea:

; 168  :     result = PyTuple_GET_ITEM(temp, 0);

  0002e	48 8b 44 24 20	 mov	 rax, QWORD PTR temp$[rsp]
  00033	48 8b 40 70	 mov	 rax, QWORD PTR [rax+112]
  00037	48 89 44 24 28	 mov	 QWORD PTR result$[rsp], rax

; 169  :     Py_INCREF(result);

  0003c	48 8b 4c 24 28	 mov	 rcx, QWORD PTR result$[rsp]
  00041	e8 00 00 00 00	 call	 _Py_IncRef

; 170  :     Py_DECREF(temp);

  00046	48 8b 4c 24 20	 mov	 rcx, QWORD PTR temp$[rsp]
  0004b	e8 00 00 00 00	 call	 _Py_DecRef

; 171  : 
; 172  :     return result;

  00050	48 8b 44 24 28	 mov	 rax, QWORD PTR result$[rsp]
$LN2@divide_nea:

; 173  : }

  00055	48 83 c4 38	 add	 rsp, 56			; 00000038H
  00059	c3		 ret	 0
divide_nearest ENDP
_TEXT	ENDS
;	COMDAT pdata
pdata	SEGMENT
$pdata$delta_divide DD imagerel delta_divide
	DD	imagerel delta_divide+212
	DD	imagerel $unwind$delta_divide
pdata	ENDS
;	COMDAT xdata
xdata	SEGMENT
$unwind$delta_divide DD 010e01H
	DD	0620eH
; Function compile flags: /Odtp
xdata	ENDS
;	COMDAT delta_divide
_TEXT	SEGMENT
result$ = 32
left$ = 64
right$ = 72
delta_divide PROC					; COMDAT

; 1874 : {

  00000	48 89 54 24 10	 mov	 QWORD PTR [rsp+16], rdx
  00005	48 89 4c 24 08	 mov	 QWORD PTR [rsp+8], rcx
  0000a	48 83 ec 38	 sub	 rsp, 56			; 00000038H

; 1875 :     PyObject *result = Py_NotImplemented;

  0000e	48 8d 05 00 00
	00 00		 lea	 rax, OFFSET FLAT:_Py_NotImplementedStruct
  00015	48 89 44 24 20	 mov	 QWORD PTR result$[rsp], rax

; 1876 : 
; 1877 :     if (PyDelta_Check(left)) {

  0001a	48 8d 05 00 00
	00 00		 lea	 rax, OFFSET FLAT:PyDateTime_DeltaType
  00021	48 8b 4c 24 40	 mov	 rcx, QWORD PTR left$[rsp]
  00026	48 39 41 58	 cmp	 QWORD PTR [rcx+88], rax
  0002a	74 19		 je	 SHORT $LN6@delta_divi
  0002c	48 8d 15 00 00
	00 00		 lea	 rdx, OFFSET FLAT:PyDateTime_DeltaType
  00033	48 8b 44 24 40	 mov	 rax, QWORD PTR left$[rsp]
  00038	48 8b 48 58	 mov	 rcx, QWORD PTR [rax+88]
  0003c	e8 00 00 00 00	 call	 PyType_IsSubtype
  00041	85 c0		 test	 eax, eax
  00043	74 6d		 je	 SHORT $LN7@delta_divi
$LN6@delta_divi:

; 1878 :         /* delta * ??? */
; 1879 :         if (PyLong_Check(right))

  00045	48 8b 44 24 48	 mov	 rax, QWORD PTR right$[rsp]
  0004a	48 8b 40 58	 mov	 rax, QWORD PTR [rax+88]
  0004e	8b 80 00 01 00
	00		 mov	 eax, DWORD PTR [rax+256]
  00054	25 00 00 00 01	 and	 eax, 16777216		; 01000000H
  00059	85 c0		 test	 eax, eax
  0005b	74 16		 je	 SHORT $LN5@delta_divi

; 1880 :             result = divide_timedelta_int(
; 1881 :                             (PyDateTime_Delta *)left,
; 1882 :                             right);

  0005d	48 8b 54 24 48	 mov	 rdx, QWORD PTR right$[rsp]
  00062	48 8b 4c 24 40	 mov	 rcx, QWORD PTR left$[rsp]
  00067	e8 00 00 00 00	 call	 divide_timedelta_int
  0006c	48 89 44 24 20	 mov	 QWORD PTR result$[rsp], rax
  00071	eb 3f		 jmp	 SHORT $LN4@delta_divi
$LN5@delta_divi:

; 1883 :         else if (PyDelta_Check(right))

  00073	48 8d 05 00 00
	00 00		 lea	 rax, OFFSET FLAT:PyDateTime_DeltaType
  0007a	48 8b 4c 24 48	 mov	 rcx, QWORD PTR right$[rsp]
  0007f	48 39 41 58	 cmp	 QWORD PTR [rcx+88], rax
  00083	74 19		 je	 SHORT $LN2@delta_divi
  00085	48 8d 15 00 00
	00 00		 lea	 rdx, OFFSET FLAT:PyDateTime_DeltaType
  0008c	48 8b 44 24 48	 mov	 rax, QWORD PTR right$[rsp]
  00091	48 8b 48 58	 mov	 rcx, QWORD PTR [rax+88]
  00095	e8 00 00 00 00	 call	 PyType_IsSubtype
  0009a	85 c0		 test	 eax, eax
  0009c	74 14		 je	 SHORT $LN3@delta_divi
$LN2@delta_divi:

; 1884 :             result = divide_timedelta_timedelta(
; 1885 :                             (PyDateTime_Delta *)left,
; 1886 :                             (PyDateTime_Delta *)right);

  0009e	48 8b 54 24 48	 mov	 rdx, QWORD PTR right$[rsp]
  000a3	48 8b 4c 24 40	 mov	 rcx, QWORD PTR left$[rsp]
  000a8	e8 00 00 00 00	 call	 divide_timedelta_timedelta
  000ad	48 89 44 24 20	 mov	 QWORD PTR result$[rsp], rax
$LN3@delta_divi:
$LN4@delta_divi:
$LN7@delta_divi:

; 1887 :     }
; 1888 : 
; 1889 :     if (result == Py_NotImplemented)

  000b2	48 8d 05 00 00
	00 00		 lea	 rax, OFFSET FLAT:_Py_NotImplementedStruct
  000b9	48 39 44 24 20	 cmp	 QWORD PTR result$[rsp], rax
  000be	75 0a		 jne	 SHORT $LN1@delta_divi

; 1890 :         Py_INCREF(result);

  000c0	48 8b 4c 24 20	 mov	 rcx, QWORD PTR result$[rsp]
  000c5	e8 00 00 00 00	 call	 _Py_IncRef
$LN1@delta_divi:

; 1891 :     return result;

  000ca	48 8b 44 24 20	 mov	 rax, QWORD PTR result$[rsp]

; 1892 : }

  000cf	48 83 c4 38	 add	 rsp, 56			; 00000038H
  000d3	c3		 ret	 0
delta_divide ENDP
_TEXT	ENDS
EXTRN	PyNumber_FloorDivide:PROC
;	COMDAT pdata
pdata	SEGMENT
$pdata$divide_timedelta_int DD imagerel divide_timedelta_int
	DD	imagerel divide_timedelta_int+125
	DD	imagerel $unwind$divide_timedelta_int
pdata	ENDS
;	COMDAT xdata
xdata	SEGMENT
$unwind$divide_timedelta_int DD 010e01H
	DD	0820eH
; Function compile flags: /Odtp
xdata	ENDS
;	COMDAT divide_timedelta_int
_TEXT	SEGMENT
pyus_out$ = 32
pyus_in$ = 40
result$ = 48
delta$ = 80
intobj$ = 88
divide_timedelta_int PROC				; COMDAT

; 1610 : {

  00000	48 89 54 24 10	 mov	 QWORD PTR [rsp+16], rdx
  00005	48 89 4c 24 08	 mov	 QWORD PTR [rsp+8], rcx
  0000a	48 83 ec 48	 sub	 rsp, 72			; 00000048H

; 1611 :     PyObject *pyus_in;
; 1612 :     PyObject *pyus_out;
; 1613 :     PyObject *result;
; 1614 : 
; 1615 :     pyus_in = delta_to_microseconds(delta);

  0000e	48 8b 4c 24 50	 mov	 rcx, QWORD PTR delta$[rsp]
  00013	e8 00 00 00 00	 call	 delta_to_microseconds
  00018	48 89 44 24 28	 mov	 QWORD PTR pyus_in$[rsp], rax

; 1616 :     if (pyus_in == NULL)

  0001d	48 83 7c 24 28
	00		 cmp	 QWORD PTR pyus_in$[rsp], 0
  00023	75 04		 jne	 SHORT $LN2@divide_tim

; 1617 :         return NULL;

  00025	33 c0		 xor	 eax, eax
  00027	eb 4f		 jmp	 SHORT $LN3@divide_tim
$LN2@divide_tim:

; 1618 : 
; 1619 :     pyus_out = PyNumber_FloorDivide(pyus_in, intobj);

  00029	48 8b 54 24 58	 mov	 rdx, QWORD PTR intobj$[rsp]
  0002e	48 8b 4c 24 28	 mov	 rcx, QWORD PTR pyus_in$[rsp]
  00033	e8 00 00 00 00	 call	 PyNumber_FloorDivide
  00038	48 89 44 24 20	 mov	 QWORD PTR pyus_out$[rsp], rax

; 1620 :     Py_DECREF(pyus_in);

  0003d	48 8b 4c 24 28	 mov	 rcx, QWORD PTR pyus_in$[rsp]
  00042	e8 00 00 00 00	 call	 _Py_DecRef

; 1621 :     if (pyus_out == NULL)

  00047	48 83 7c 24 20
	00		 cmp	 QWORD PTR pyus_out$[rsp], 0
  0004d	75 04		 jne	 SHORT $LN1@divide_tim

; 1622 :         return NULL;

  0004f	33 c0		 xor	 eax, eax
  00051	eb 25		 jmp	 SHORT $LN3@divide_tim
$LN1@divide_tim:

; 1623 : 
; 1624 :     result = microseconds_to_delta(pyus_out);

  00053	48 8d 15 00 00
	00 00		 lea	 rdx, OFFSET FLAT:PyDateTime_DeltaType
  0005a	48 8b 4c 24 20	 mov	 rcx, QWORD PTR pyus_out$[rsp]
  0005f	e8 00 00 00 00	 call	 microseconds_to_delta_ex
  00064	48 89 44 24 30	 mov	 QWORD PTR result$[rsp], rax

; 1625 :     Py_DECREF(pyus_out);

  00069	48 8b 4c 24 20	 mov	 rcx, QWORD PTR pyus_out$[rsp]
  0006e	e8 00 00 00 00	 call	 _Py_DecRef

; 1626 :     return result;

  00073	48 8b 44 24 30	 mov	 rax, QWORD PTR result$[rsp]
$LN3@divide_tim:

; 1627 : }

  00078	48 83 c4 48	 add	 rsp, 72			; 00000048H
  0007c	c3		 ret	 0
divide_timedelta_int ENDP
_TEXT	ENDS
;	COMDAT pdata
pdata	SEGMENT
$pdata$divide_timedelta_timedelta DD imagerel divide_timedelta_timedelta
	DD	imagerel divide_timedelta_timedelta+128
	DD	imagerel $unwind$divide_timedelta_timedelta
pdata	ENDS
;	COMDAT xdata
xdata	SEGMENT
$unwind$divide_timedelta_timedelta DD 010e01H
	DD	0820eH
; Function compile flags: /Odtp
xdata	ENDS
;	COMDAT divide_timedelta_timedelta
_TEXT	SEGMENT
pyus_left$ = 32
pyus_right$ = 40
result$ = 48
left$ = 80
right$ = 88
divide_timedelta_timedelta PROC				; COMDAT

; 1631 : {

  00000	48 89 54 24 10	 mov	 QWORD PTR [rsp+16], rdx
  00005	48 89 4c 24 08	 mov	 QWORD PTR [rsp+8], rcx
  0000a	48 83 ec 48	 sub	 rsp, 72			; 00000048H

; 1632 :     PyObject *pyus_left;
; 1633 :     PyObject *pyus_right;
; 1634 :     PyObject *result;
; 1635 : 
; 1636 :     pyus_left = delta_to_microseconds(left);

  0000e	48 8b 4c 24 50	 mov	 rcx, QWORD PTR left$[rsp]
  00013	e8 00 00 00 00	 call	 delta_to_microseconds
  00018	48 89 44 24 20	 mov	 QWORD PTR pyus_left$[rsp], rax

; 1637 :     if (pyus_left == NULL)

  0001d	48 83 7c 24 20
	00		 cmp	 QWORD PTR pyus_left$[rsp], 0
  00023	75 04		 jne	 SHORT $LN2@divide_tim@2

; 1638 :         return NULL;

  00025	33 c0		 xor	 eax, eax
  00027	eb 52		 jmp	 SHORT $LN3@divide_tim@2
$LN2@divide_tim@2:

; 1639 : 
; 1640 :     pyus_right = delta_to_microseconds(right);

  00029	48 8b 4c 24 58	 mov	 rcx, QWORD PTR right$[rsp]
  0002e	e8 00 00 00 00	 call	 delta_to_microseconds
  00033	48 89 44 24 28	 mov	 QWORD PTR pyus_right$[rsp], rax

; 1641 :     if (pyus_right == NULL)     {

  00038	48 83 7c 24 28
	00		 cmp	 QWORD PTR pyus_right$[rsp], 0
  0003e	75 0e		 jne	 SHORT $LN1@divide_tim@2

; 1642 :         Py_DECREF(pyus_left);

  00040	48 8b 4c 24 20	 mov	 rcx, QWORD PTR pyus_left$[rsp]
  00045	e8 00 00 00 00	 call	 _Py_DecRef

; 1643 :         return NULL;

  0004a	33 c0		 xor	 eax, eax
  0004c	eb 2d		 jmp	 SHORT $LN3@divide_tim@2
$LN1@divide_tim@2:

; 1644 :     }
; 1645 : 
; 1646 :     result = PyNumber_FloorDivide(pyus_left, pyus_right);

  0004e	48 8b 54 24 28	 mov	 rdx, QWORD PTR pyus_right$[rsp]
  00053	48 8b 4c 24 20	 mov	 rcx, QWORD PTR pyus_left$[rsp]
  00058	e8 00 00 00 00	 call	 PyNumber_FloorDivide
  0005d	48 89 44 24 30	 mov	 QWORD PTR result$[rsp], rax

; 1647 :     Py_DECREF(pyus_left);

  00062	48 8b 4c 24 20	 mov	 rcx, QWORD PTR pyus_left$[rsp]
  00067	e8 00 00 00 00	 call	 _Py_DecRef

; 1648 :     Py_DECREF(pyus_right);

  0006c	48 8b 4c 24 28	 mov	 rcx, QWORD PTR pyus_right$[rsp]
  00071	e8 00 00 00 00	 call	 _Py_DecRef

; 1649 :     return result;

  00076	48 8b 44 24 30	 mov	 rax, QWORD PTR result$[rsp]
$LN3@divide_tim@2:

; 1650 : }

  0007b	48 83 c4 48	 add	 rsp, 72			; 00000048H
  0007f	c3		 ret	 0
divide_timedelta_timedelta ENDP
_TEXT	ENDS
;	COMDAT pdata
pdata	SEGMENT
$pdata$delta_truedivide DD imagerel delta_truedivide
	DD	imagerel delta_truedivide+281
	DD	imagerel $unwind$delta_truedivide
pdata	ENDS
;	COMDAT xdata
xdata	SEGMENT
$unwind$delta_truedivide DD 010e01H
	DD	0620eH
; Function compile flags: /Odtp
xdata	ENDS
;	COMDAT delta_truedivide
_TEXT	SEGMENT
result$ = 32
left$ = 64
right$ = 72
delta_truedivide PROC					; COMDAT

; 1896 : {

  00000	48 89 54 24 10	 mov	 QWORD PTR [rsp+16], rdx
  00005	48 89 4c 24 08	 mov	 QWORD PTR [rsp+8], rcx
  0000a	48 83 ec 38	 sub	 rsp, 56			; 00000038H

; 1897 :     PyObject *result = Py_NotImplemented;

  0000e	48 8d 05 00 00
	00 00		 lea	 rax, OFFSET FLAT:_Py_NotImplementedStruct
  00015	48 89 44 24 20	 mov	 QWORD PTR result$[rsp], rax

; 1898 : 
; 1899 :     if (PyDelta_Check(left)) {

  0001a	48 8d 05 00 00
	00 00		 lea	 rax, OFFSET FLAT:PyDateTime_DeltaType
  00021	48 8b 4c 24 40	 mov	 rcx, QWORD PTR left$[rsp]
  00026	48 39 41 58	 cmp	 QWORD PTR [rcx+88], rax
  0002a	74 1d		 je	 SHORT $LN9@delta_true
  0002c	48 8d 15 00 00
	00 00		 lea	 rdx, OFFSET FLAT:PyDateTime_DeltaType
  00033	48 8b 44 24 40	 mov	 rax, QWORD PTR left$[rsp]
  00038	48 8b 48 58	 mov	 rcx, QWORD PTR [rax+88]
  0003c	e8 00 00 00 00	 call	 PyType_IsSubtype
  00041	85 c0		 test	 eax, eax
  00043	0f 84 ae 00 00
	00		 je	 $LN10@delta_true
$LN9@delta_true:

; 1900 :         if (PyDelta_Check(right))

  00049	48 8d 05 00 00
	00 00		 lea	 rax, OFFSET FLAT:PyDateTime_DeltaType
  00050	48 8b 4c 24 48	 mov	 rcx, QWORD PTR right$[rsp]
  00055	48 39 41 58	 cmp	 QWORD PTR [rcx+88], rax
  00059	74 19		 je	 SHORT $LN7@delta_true
  0005b	48 8d 15 00 00
	00 00		 lea	 rdx, OFFSET FLAT:PyDateTime_DeltaType
  00062	48 8b 44 24 48	 mov	 rax, QWORD PTR right$[rsp]
  00067	48 8b 48 58	 mov	 rcx, QWORD PTR [rax+88]
  0006b	e8 00 00 00 00	 call	 PyType_IsSubtype
  00070	85 c0		 test	 eax, eax
  00072	74 16		 je	 SHORT $LN8@delta_true
$LN7@delta_true:

; 1901 :             result = truedivide_timedelta_timedelta(
; 1902 :                             (PyDateTime_Delta *)left,
; 1903 :                             (PyDateTime_Delta *)right);

  00074	48 8b 54 24 48	 mov	 rdx, QWORD PTR right$[rsp]
  00079	48 8b 4c 24 40	 mov	 rcx, QWORD PTR left$[rsp]
  0007e	e8 00 00 00 00	 call	 truedivide_timedelta_timedelta
  00083	48 89 44 24 20	 mov	 QWORD PTR result$[rsp], rax
  00088	eb 6d		 jmp	 SHORT $LN6@delta_true
$LN8@delta_true:

; 1904 :         else if (PyFloat_Check(right))

  0008a	48 8d 05 00 00
	00 00		 lea	 rax, OFFSET FLAT:PyFloat_Type
  00091	48 8b 4c 24 48	 mov	 rcx, QWORD PTR right$[rsp]
  00096	48 39 41 58	 cmp	 QWORD PTR [rcx+88], rax
  0009a	74 19		 je	 SHORT $LN4@delta_true
  0009c	48 8d 15 00 00
	00 00		 lea	 rdx, OFFSET FLAT:PyFloat_Type
  000a3	48 8b 44 24 48	 mov	 rax, QWORD PTR right$[rsp]
  000a8	48 8b 48 58	 mov	 rcx, QWORD PTR [rax+88]
  000ac	e8 00 00 00 00	 call	 PyType_IsSubtype
  000b1	85 c0		 test	 eax, eax
  000b3	74 16		 je	 SHORT $LN5@delta_true
$LN4@delta_true:

; 1905 :             result = truedivide_timedelta_float(
; 1906 :                             (PyDateTime_Delta *)left, right);

  000b5	48 8b 54 24 48	 mov	 rdx, QWORD PTR right$[rsp]
  000ba	48 8b 4c 24 40	 mov	 rcx, QWORD PTR left$[rsp]
  000bf	e8 00 00 00 00	 call	 truedivide_timedelta_float
  000c4	48 89 44 24 20	 mov	 QWORD PTR result$[rsp], rax
  000c9	eb 2c		 jmp	 SHORT $LN3@delta_true
$LN5@delta_true:

; 1907 :         else if (PyLong_Check(right))

  000cb	48 8b 44 24 48	 mov	 rax, QWORD PTR right$[rsp]
  000d0	48 8b 40 58	 mov	 rax, QWORD PTR [rax+88]
  000d4	8b 80 00 01 00
	00		 mov	 eax, DWORD PTR [rax+256]
  000da	25 00 00 00 01	 and	 eax, 16777216		; 01000000H
  000df	85 c0		 test	 eax, eax
  000e1	74 14		 je	 SHORT $LN2@delta_true

; 1908 :             result = truedivide_timedelta_int(
; 1909 :                             (PyDateTime_Delta *)left, right);

  000e3	48 8b 54 24 48	 mov	 rdx, QWORD PTR right$[rsp]
  000e8	48 8b 4c 24 40	 mov	 rcx, QWORD PTR left$[rsp]
  000ed	e8 00 00 00 00	 call	 truedivide_timedelta_int
  000f2	48 89 44 24 20	 mov	 QWORD PTR result$[rsp], rax
$LN2@delta_true:
$LN3@delta_true:
$LN6@delta_true:
$LN10@delta_true:

; 1910 :     }
; 1911 : 
; 1912 :     if (result == Py_NotImplemented)

  000f7	48 8d 05 00 00
	00 00		 lea	 rax, OFFSET FLAT:_Py_NotImplementedStruct
  000fe	48 39 44 24 20	 cmp	 QWORD PTR result$[rsp], rax
  00103	75 0a		 jne	 SHORT $LN1@delta_true

; 1913 :         Py_INCREF(result);

  00105	48 8b 4c 24 20	 mov	 rcx, QWORD PTR result$[rsp]
  0010a	e8 00 00 00 00	 call	 _Py_IncRef
$LN1@delta_true:

; 1914 :     return result;

  0010f	48 8b 44 24 20	 mov	 rax, QWORD PTR result$[rsp]

; 1915 : }

  00114	48 83 c4 38	 add	 rsp, 56			; 00000038H
  00118	c3		 ret	 0
delta_truedivide ENDP
_TEXT	ENDS
EXTRN	PyNumber_TrueDivide:PROC
;	COMDAT pdata
pdata	SEGMENT
$pdata$truedivide_timedelta_timedelta DD imagerel truedivide_timedelta_timedelta
	DD	imagerel truedivide_timedelta_timedelta+128
	DD	imagerel $unwind$truedivide_timedelta_timedelta
pdata	ENDS
;	COMDAT xdata
xdata	SEGMENT
$unwind$truedivide_timedelta_timedelta DD 010e01H
	DD	0820eH
; Function compile flags: /Odtp
xdata	ENDS
;	COMDAT truedivide_timedelta_timedelta
_TEXT	SEGMENT
pyus_left$ = 32
pyus_right$ = 40
result$ = 48
left$ = 80
right$ = 88
truedivide_timedelta_timedelta PROC			; COMDAT

; 1654 : {

  00000	48 89 54 24 10	 mov	 QWORD PTR [rsp+16], rdx
  00005	48 89 4c 24 08	 mov	 QWORD PTR [rsp+8], rcx
  0000a	48 83 ec 48	 sub	 rsp, 72			; 00000048H

; 1655 :     PyObject *pyus_left;
; 1656 :     PyObject *pyus_right;
; 1657 :     PyObject *result;
; 1658 : 
; 1659 :     pyus_left = delta_to_microseconds(left);

  0000e	48 8b 4c 24 50	 mov	 rcx, QWORD PTR left$[rsp]
  00013	e8 00 00 00 00	 call	 delta_to_microseconds
  00018	48 89 44 24 20	 mov	 QWORD PTR pyus_left$[rsp], rax

; 1660 :     if (pyus_left == NULL)

  0001d	48 83 7c 24 20
	00		 cmp	 QWORD PTR pyus_left$[rsp], 0
  00023	75 04		 jne	 SHORT $LN2@truedivide

; 1661 :         return NULL;

  00025	33 c0		 xor	 eax, eax
  00027	eb 52		 jmp	 SHORT $LN3@truedivide
$LN2@truedivide:

; 1662 : 
; 1663 :     pyus_right = delta_to_microseconds(right);

  00029	48 8b 4c 24 58	 mov	 rcx, QWORD PTR right$[rsp]
  0002e	e8 00 00 00 00	 call	 delta_to_microseconds
  00033	48 89 44 24 28	 mov	 QWORD PTR pyus_right$[rsp], rax

; 1664 :     if (pyus_right == NULL)     {

  00038	48 83 7c 24 28
	00		 cmp	 QWORD PTR pyus_right$[rsp], 0
  0003e	75 0e		 jne	 SHORT $LN1@truedivide

; 1665 :         Py_DECREF(pyus_left);

  00040	48 8b 4c 24 20	 mov	 rcx, QWORD PTR pyus_left$[rsp]
  00045	e8 00 00 00 00	 call	 _Py_DecRef

; 1666 :         return NULL;

  0004a	33 c0		 xor	 eax, eax
  0004c	eb 2d		 jmp	 SHORT $LN3@truedivide
$LN1@truedivide:

; 1667 :     }
; 1668 : 
; 1669 :     result = PyNumber_TrueDivide(pyus_left, pyus_right);

  0004e	48 8b 54 24 28	 mov	 rdx, QWORD PTR pyus_right$[rsp]
  00053	48 8b 4c 24 20	 mov	 rcx, QWORD PTR pyus_left$[rsp]
  00058	e8 00 00 00 00	 call	 PyNumber_TrueDivide
  0005d	48 89 44 24 30	 mov	 QWORD PTR result$[rsp], rax

; 1670 :     Py_DECREF(pyus_left);

  00062	48 8b 4c 24 20	 mov	 rcx, QWORD PTR pyus_left$[rsp]
  00067	e8 00 00 00 00	 call	 _Py_DecRef

; 1671 :     Py_DECREF(pyus_right);

  0006c	48 8b 4c 24 28	 mov	 rcx, QWORD PTR pyus_right$[rsp]
  00071	e8 00 00 00 00	 call	 _Py_DecRef

; 1672 :     return result;

  00076	48 8b 44 24 30	 mov	 rax, QWORD PTR result$[rsp]
$LN3@truedivide:

; 1673 : }

  0007b	48 83 c4 48	 add	 rsp, 72			; 00000048H
  0007f	c3		 ret	 0
truedivide_timedelta_timedelta ENDP
_TEXT	ENDS
;	COMDAT pdata
pdata	SEGMENT
$pdata$truedivide_timedelta_float DD imagerel truedivide_timedelta_float
	DD	imagerel truedivide_timedelta_float+318
	DD	imagerel $unwind$truedivide_timedelta_float
pdata	ENDS
;	COMDAT xdata
xdata	SEGMENT
$unwind$truedivide_timedelta_float DD 010e01H
	DD	0a20eH
; Function compile flags: /Odtp
xdata	ENDS
;	COMDAT truedivide_timedelta_float
_TEXT	SEGMENT
ratio$ = 32
pyus_out$ = 40
pyus_in$ = 48
temp$ = 56
result$ = 64
delta$ = 96
f$ = 104
truedivide_timedelta_float PROC				; COMDAT

; 1677 : {

  00000	48 89 54 24 10	 mov	 QWORD PTR [rsp+16], rdx
  00005	48 89 4c 24 08	 mov	 QWORD PTR [rsp+8], rcx
  0000a	48 83 ec 58	 sub	 rsp, 88			; 00000058H

; 1678 :     PyObject *result = NULL;

  0000e	48 c7 44 24 40
	00 00 00 00	 mov	 QWORD PTR result$[rsp], 0

; 1679 :     PyObject *pyus_in = NULL, *temp, *pyus_out;

  00017	48 c7 44 24 30
	00 00 00 00	 mov	 QWORD PTR pyus_in$[rsp], 0

; 1680 :     PyObject *ratio = NULL;

  00020	48 c7 44 24 20
	00 00 00 00	 mov	 QWORD PTR ratio$[rsp], 0

; 1681 :     _Py_IDENTIFIER(as_integer_ratio);
; 1682 : 
; 1683 :     pyus_in = delta_to_microseconds(delta);

  00029	48 8b 4c 24 60	 mov	 rcx, QWORD PTR delta$[rsp]
  0002e	e8 00 00 00 00	 call	 delta_to_microseconds
  00033	48 89 44 24 30	 mov	 QWORD PTR pyus_in$[rsp], rax

; 1684 :     if (pyus_in == NULL)

  00038	48 83 7c 24 30
	00		 cmp	 QWORD PTR pyus_in$[rsp], 0
  0003e	75 07		 jne	 SHORT $LN12@truedivide@2

; 1685 :         return NULL;

  00040	33 c0		 xor	 eax, eax
  00042	e9 f2 00 00 00	 jmp	 $LN13@truedivide@2
$LN12@truedivide@2:

; 1686 :     ratio = _PyObject_CallMethodId(f, &PyId_as_integer_ratio, NULL);

  00047	b8 00 00 00 00	 mov	 eax, OFFSET FLAT:?PyId_as_integer_ratio@?1??truedivide_timedelta_float@@9@9
  0004c	8b c0		 mov	 eax, eax
  0004e	8b 0d 00 00 00
	00		 mov	 ecx, DWORD PTR _tls_index
  00054	65 48 8b 14 25
	58 00 00 00	 mov	 rdx, QWORD PTR gs:88
  0005d	48 03 04 ca	 add	 rax, QWORD PTR [rdx+rcx*8]
  00061	45 33 c0	 xor	 r8d, r8d
  00064	48 8b d0	 mov	 rdx, rax
  00067	48 8b 4c 24 68	 mov	 rcx, QWORD PTR f$[rsp]
  0006c	e8 00 00 00 00	 call	 _PyObject_CallMethodId
  00071	48 89 44 24 20	 mov	 QWORD PTR ratio$[rsp], rax

; 1687 :     if (ratio == NULL)

  00076	48 83 7c 24 20
	00		 cmp	 QWORD PTR ratio$[rsp], 0
  0007c	75 05		 jne	 SHORT $LN11@truedivide@2

; 1688 :         goto error;

  0007e	e9 81 00 00 00	 jmp	 $error$21844
$LN11@truedivide@2:

; 1689 :     temp = PyNumber_Multiply(pyus_in, PyTuple_GET_ITEM(ratio, 1));

  00083	48 8b 44 24 20	 mov	 rax, QWORD PTR ratio$[rsp]
  00088	48 8b 50 78	 mov	 rdx, QWORD PTR [rax+120]
  0008c	48 8b 4c 24 30	 mov	 rcx, QWORD PTR pyus_in$[rsp]
  00091	e8 00 00 00 00	 call	 PyNumber_Multiply
  00096	48 89 44 24 38	 mov	 QWORD PTR temp$[rsp], rax

; 1690 :     Py_DECREF(pyus_in);

  0009b	48 8b 4c 24 30	 mov	 rcx, QWORD PTR pyus_in$[rsp]
  000a0	e8 00 00 00 00	 call	 _Py_DecRef

; 1691 :     pyus_in = NULL;

  000a5	48 c7 44 24 30
	00 00 00 00	 mov	 QWORD PTR pyus_in$[rsp], 0

; 1692 :     if (temp == NULL)

  000ae	48 83 7c 24 38
	00		 cmp	 QWORD PTR temp$[rsp], 0
  000b4	75 02		 jne	 SHORT $LN10@truedivide@2

; 1693 :         goto error;

  000b6	eb 4c		 jmp	 SHORT $error$21844
$LN10@truedivide@2:

; 1694 :     pyus_out = divide_nearest(temp, PyTuple_GET_ITEM(ratio, 0));

  000b8	48 8b 44 24 20	 mov	 rax, QWORD PTR ratio$[rsp]
  000bd	48 8b 50 70	 mov	 rdx, QWORD PTR [rax+112]
  000c1	48 8b 4c 24 38	 mov	 rcx, QWORD PTR temp$[rsp]
  000c6	e8 00 00 00 00	 call	 divide_nearest
  000cb	48 89 44 24 28	 mov	 QWORD PTR pyus_out$[rsp], rax

; 1695 :     Py_DECREF(temp);

  000d0	48 8b 4c 24 38	 mov	 rcx, QWORD PTR temp$[rsp]
  000d5	e8 00 00 00 00	 call	 _Py_DecRef

; 1696 :     if (pyus_out == NULL)

  000da	48 83 7c 24 28
	00		 cmp	 QWORD PTR pyus_out$[rsp], 0
  000e0	75 02		 jne	 SHORT $LN9@truedivide@2

; 1697 :         goto error;

  000e2	eb 20		 jmp	 SHORT $error$21844
$LN9@truedivide@2:

; 1698 :     result = microseconds_to_delta(pyus_out);

  000e4	48 8d 15 00 00
	00 00		 lea	 rdx, OFFSET FLAT:PyDateTime_DeltaType
  000eb	48 8b 4c 24 28	 mov	 rcx, QWORD PTR pyus_out$[rsp]
  000f0	e8 00 00 00 00	 call	 microseconds_to_delta_ex
  000f5	48 89 44 24 40	 mov	 QWORD PTR result$[rsp], rax

; 1699 :     Py_DECREF(pyus_out);

  000fa	48 8b 4c 24 28	 mov	 rcx, QWORD PTR pyus_out$[rsp]
  000ff	e8 00 00 00 00	 call	 _Py_DecRef
$error$21844:
$LN8@truedivide@2:

; 1700 :  error:
; 1701 :     Py_XDECREF(pyus_in);

  00104	48 83 7c 24 30
	00		 cmp	 QWORD PTR pyus_in$[rsp], 0
  0010a	74 0a		 je	 SHORT $LN5@truedivide@2
  0010c	48 8b 4c 24 30	 mov	 rcx, QWORD PTR pyus_in$[rsp]
  00111	e8 00 00 00 00	 call	 _Py_DecRef
$LN5@truedivide@2:
  00116	33 c0		 xor	 eax, eax
  00118	85 c0		 test	 eax, eax
  0011a	75 e8		 jne	 SHORT $LN8@truedivide@2
$LN4@truedivide@2:

; 1702 :     Py_XDECREF(ratio);

  0011c	48 83 7c 24 20
	00		 cmp	 QWORD PTR ratio$[rsp], 0
  00122	74 0a		 je	 SHORT $LN1@truedivide@2
  00124	48 8b 4c 24 20	 mov	 rcx, QWORD PTR ratio$[rsp]
  00129	e8 00 00 00 00	 call	 _Py_DecRef
$LN1@truedivide@2:
  0012e	33 c0		 xor	 eax, eax
  00130	85 c0		 test	 eax, eax
  00132	75 e8		 jne	 SHORT $LN4@truedivide@2

; 1703 : 
; 1704 :     return result;

  00134	48 8b 44 24 40	 mov	 rax, QWORD PTR result$[rsp]
$LN13@truedivide@2:

; 1705 : }

  00139	48 83 c4 58	 add	 rsp, 88			; 00000058H
  0013d	c3		 ret	 0
truedivide_timedelta_float ENDP
_TEXT	ENDS
;	COMDAT pdata
pdata	SEGMENT
$pdata$truedivide_timedelta_int DD imagerel truedivide_timedelta_int
	DD	imagerel truedivide_timedelta_int+125
	DD	imagerel $unwind$truedivide_timedelta_int
pdata	ENDS
;	COMDAT xdata
xdata	SEGMENT
$unwind$truedivide_timedelta_int DD 010e01H
	DD	0820eH
; Function compile flags: /Odtp
xdata	ENDS
;	COMDAT truedivide_timedelta_int
_TEXT	SEGMENT
pyus_out$ = 32
pyus_in$ = 40
result$ = 48
delta$ = 80
i$ = 88
truedivide_timedelta_int PROC				; COMDAT

; 1709 : {

  00000	48 89 54 24 10	 mov	 QWORD PTR [rsp+16], rdx
  00005	48 89 4c 24 08	 mov	 QWORD PTR [rsp+8], rcx
  0000a	48 83 ec 48	 sub	 rsp, 72			; 00000048H

; 1710 :     PyObject *result;
; 1711 :     PyObject *pyus_in, *pyus_out;
; 1712 :     pyus_in = delta_to_microseconds(delta);

  0000e	48 8b 4c 24 50	 mov	 rcx, QWORD PTR delta$[rsp]
  00013	e8 00 00 00 00	 call	 delta_to_microseconds
  00018	48 89 44 24 28	 mov	 QWORD PTR pyus_in$[rsp], rax

; 1713 :     if (pyus_in == NULL)

  0001d	48 83 7c 24 28
	00		 cmp	 QWORD PTR pyus_in$[rsp], 0
  00023	75 04		 jne	 SHORT $LN2@truedivide@3

; 1714 :         return NULL;

  00025	33 c0		 xor	 eax, eax
  00027	eb 4f		 jmp	 SHORT $LN3@truedivide@3
$LN2@truedivide@3:

; 1715 :     pyus_out = divide_nearest(pyus_in, i);

  00029	48 8b 54 24 58	 mov	 rdx, QWORD PTR i$[rsp]
  0002e	48 8b 4c 24 28	 mov	 rcx, QWORD PTR pyus_in$[rsp]
  00033	e8 00 00 00 00	 call	 divide_nearest
  00038	48 89 44 24 20	 mov	 QWORD PTR pyus_out$[rsp], rax

; 1716 :     Py_DECREF(pyus_in);

  0003d	48 8b 4c 24 28	 mov	 rcx, QWORD PTR pyus_in$[rsp]
  00042	e8 00 00 00 00	 call	 _Py_DecRef

; 1717 :     if (pyus_out == NULL)

  00047	48 83 7c 24 20
	00		 cmp	 QWORD PTR pyus_out$[rsp], 0
  0004d	75 04		 jne	 SHORT $LN1@truedivide@3

; 1718 :         return NULL;

  0004f	33 c0		 xor	 eax, eax
  00051	eb 25		 jmp	 SHORT $LN3@truedivide@3
$LN1@truedivide@3:

; 1719 :     result = microseconds_to_delta(pyus_out);

  00053	48 8d 15 00 00
	00 00		 lea	 rdx, OFFSET FLAT:PyDateTime_DeltaType
  0005a	48 8b 4c 24 20	 mov	 rcx, QWORD PTR pyus_out$[rsp]
  0005f	e8 00 00 00 00	 call	 microseconds_to_delta_ex
  00064	48 89 44 24 30	 mov	 QWORD PTR result$[rsp], rax

; 1720 :     Py_DECREF(pyus_out);

  00069	48 8b 4c 24 20	 mov	 rcx, QWORD PTR pyus_out$[rsp]
  0006e	e8 00 00 00 00	 call	 _Py_DecRef

; 1721 : 
; 1722 :     return result;

  00073	48 8b 44 24 30	 mov	 rax, QWORD PTR result$[rsp]
$LN3@truedivide@3:

; 1723 : }

  00078	48 83 c4 48	 add	 rsp, 72			; 00000048H
  0007c	c3		 ret	 0
truedivide_timedelta_int ENDP
_TEXT	ENDS
EXTRN	PyNumber_Remainder:PROC
;	COMDAT pdata
pdata	SEGMENT
$pdata$delta_remainder DD imagerel delta_remainder
	DD	imagerel delta_remainder+297
	DD	imagerel $unwind$delta_remainder
pdata	ENDS
;	COMDAT xdata
xdata	SEGMENT
$unwind$delta_remainder DD 010e01H
	DD	0820eH
; Function compile flags: /Odtp
xdata	ENDS
;	COMDAT delta_remainder
_TEXT	SEGMENT
pyus_left$ = 32
remainder$ = 40
pyus_right$ = 48
pyus_remainder$ = 56
left$ = 80
right$ = 88
delta_remainder PROC					; COMDAT

; 1919 : {

  00000	48 89 54 24 10	 mov	 QWORD PTR [rsp+16], rdx
  00005	48 89 4c 24 08	 mov	 QWORD PTR [rsp+8], rcx
  0000a	48 83 ec 48	 sub	 rsp, 72			; 00000048H

; 1920 :     PyObject *pyus_left;
; 1921 :     PyObject *pyus_right;
; 1922 :     PyObject *pyus_remainder;
; 1923 :     PyObject *remainder;
; 1924 : 
; 1925 :     if (!PyDelta_Check(left) || !PyDelta_Check(right))

  0000e	48 8d 05 00 00
	00 00		 lea	 rax, OFFSET FLAT:PyDateTime_DeltaType
  00015	48 8b 4c 24 50	 mov	 rcx, QWORD PTR left$[rsp]
  0001a	48 39 41 58	 cmp	 QWORD PTR [rcx+88], rax
  0001e	74 19		 je	 SHORT $LN5@delta_rema
  00020	48 8d 15 00 00
	00 00		 lea	 rdx, OFFSET FLAT:PyDateTime_DeltaType
  00027	48 8b 44 24 50	 mov	 rax, QWORD PTR left$[rsp]
  0002c	48 8b 48 58	 mov	 rcx, QWORD PTR [rax+88]
  00030	e8 00 00 00 00	 call	 PyType_IsSubtype
  00035	85 c0		 test	 eax, eax
  00037	74 2b		 je	 SHORT $LN6@delta_rema
$LN5@delta_rema:
  00039	48 8d 05 00 00
	00 00		 lea	 rax, OFFSET FLAT:PyDateTime_DeltaType
  00040	48 8b 4c 24 58	 mov	 rcx, QWORD PTR right$[rsp]
  00045	48 39 41 58	 cmp	 QWORD PTR [rcx+88], rax
  00049	74 31		 je	 SHORT $LN7@delta_rema
  0004b	48 8d 15 00 00
	00 00		 lea	 rdx, OFFSET FLAT:PyDateTime_DeltaType
  00052	48 8b 44 24 58	 mov	 rax, QWORD PTR right$[rsp]
  00057	48 8b 48 58	 mov	 rcx, QWORD PTR [rax+88]
  0005b	e8 00 00 00 00	 call	 PyType_IsSubtype
  00060	85 c0		 test	 eax, eax
  00062	75 18		 jne	 SHORT $LN7@delta_rema
$LN6@delta_rema:

; 1926 :         Py_RETURN_NOTIMPLEMENTED;

  00064	48 8d 0d 00 00
	00 00		 lea	 rcx, OFFSET FLAT:_Py_NotImplementedStruct
  0006b	e8 00 00 00 00	 call	 _Py_IncRef
  00070	48 8d 05 00 00
	00 00		 lea	 rax, OFFSET FLAT:_Py_NotImplementedStruct
  00077	e9 a8 00 00 00	 jmp	 $LN8@delta_rema
$LN7@delta_rema:

; 1927 : 
; 1928 :     pyus_left = delta_to_microseconds((PyDateTime_Delta *)left);

  0007c	48 8b 4c 24 50	 mov	 rcx, QWORD PTR left$[rsp]
  00081	e8 00 00 00 00	 call	 delta_to_microseconds
  00086	48 89 44 24 20	 mov	 QWORD PTR pyus_left$[rsp], rax

; 1929 :     if (pyus_left == NULL)

  0008b	48 83 7c 24 20
	00		 cmp	 QWORD PTR pyus_left$[rsp], 0
  00091	75 07		 jne	 SHORT $LN4@delta_rema

; 1930 :         return NULL;

  00093	33 c0		 xor	 eax, eax
  00095	e9 8a 00 00 00	 jmp	 $LN8@delta_rema
$LN4@delta_rema:

; 1931 : 
; 1932 :     pyus_right = delta_to_microseconds((PyDateTime_Delta *)right);

  0009a	48 8b 4c 24 58	 mov	 rcx, QWORD PTR right$[rsp]
  0009f	e8 00 00 00 00	 call	 delta_to_microseconds
  000a4	48 89 44 24 30	 mov	 QWORD PTR pyus_right$[rsp], rax

; 1933 :     if (pyus_right == NULL) {

  000a9	48 83 7c 24 30
	00		 cmp	 QWORD PTR pyus_right$[rsp], 0
  000af	75 0e		 jne	 SHORT $LN3@delta_rema

; 1934 :         Py_DECREF(pyus_left);

  000b1	48 8b 4c 24 20	 mov	 rcx, QWORD PTR pyus_left$[rsp]
  000b6	e8 00 00 00 00	 call	 _Py_DecRef

; 1935 :         return NULL;

  000bb	33 c0		 xor	 eax, eax
  000bd	eb 65		 jmp	 SHORT $LN8@delta_rema
$LN3@delta_rema:

; 1936 :     }
; 1937 : 
; 1938 :     pyus_remainder = PyNumber_Remainder(pyus_left, pyus_right);

  000bf	48 8b 54 24 30	 mov	 rdx, QWORD PTR pyus_right$[rsp]
  000c4	48 8b 4c 24 20	 mov	 rcx, QWORD PTR pyus_left$[rsp]
  000c9	e8 00 00 00 00	 call	 PyNumber_Remainder
  000ce	48 89 44 24 38	 mov	 QWORD PTR pyus_remainder$[rsp], rax

; 1939 :     Py_DECREF(pyus_left);

  000d3	48 8b 4c 24 20	 mov	 rcx, QWORD PTR pyus_left$[rsp]
  000d8	e8 00 00 00 00	 call	 _Py_DecRef

; 1940 :     Py_DECREF(pyus_right);

  000dd	48 8b 4c 24 30	 mov	 rcx, QWORD PTR pyus_right$[rsp]
  000e2	e8 00 00 00 00	 call	 _Py_DecRef

; 1941 :     if (pyus_remainder == NULL)

  000e7	48 83 7c 24 38
	00		 cmp	 QWORD PTR pyus_remainder$[rsp], 0
  000ed	75 04		 jne	 SHORT $LN2@delta_rema

; 1942 :         return NULL;

  000ef	33 c0		 xor	 eax, eax
  000f1	eb 31		 jmp	 SHORT $LN8@delta_rema
$LN2@delta_rema:

; 1943 : 
; 1944 :     remainder = microseconds_to_delta(pyus_remainder);

  000f3	48 8d 15 00 00
	00 00		 lea	 rdx, OFFSET FLAT:PyDateTime_DeltaType
  000fa	48 8b 4c 24 38	 mov	 rcx, QWORD PTR pyus_remainder$[rsp]
  000ff	e8 00 00 00 00	 call	 microseconds_to_delta_ex
  00104	48 89 44 24 28	 mov	 QWORD PTR remainder$[rsp], rax

; 1945 :     Py_DECREF(pyus_remainder);

  00109	48 8b 4c 24 38	 mov	 rcx, QWORD PTR pyus_remainder$[rsp]
  0010e	e8 00 00 00 00	 call	 _Py_DecRef

; 1946 :     if (remainder == NULL)

  00113	48 83 7c 24 28
	00		 cmp	 QWORD PTR remainder$[rsp], 0
  00119	75 04		 jne	 SHORT $LN1@delta_rema

; 1947 :         return NULL;

  0011b	33 c0		 xor	 eax, eax
  0011d	eb 05		 jmp	 SHORT $LN8@delta_rema
$LN1@delta_rema:

; 1948 : 
; 1949 :     return remainder;

  0011f	48 8b 44 24 28	 mov	 rax, QWORD PTR remainder$[rsp]
$LN8@delta_rema:

; 1950 : }

  00124	48 83 c4 48	 add	 rsp, 72			; 00000048H
  00128	c3		 ret	 0
delta_remainder ENDP
_TEXT	ENDS
PUBLIC	??_C@_1DE@GADFDJJF@?$AAP?$AAy?$AAT?$AAu?$AAp?$AAl?$AAe?$AA_?$AAS?$AAi?$AAz?$AAe?$AA?$CI?$AAd?$AAi?$AAv?$AAm?$AAo?$AAd?$AA?$CJ?$AA?5?$AA?$DN?$AA?$DN?$AA?5?$AA2?$AA?$AA@ ; `string'
EXTRN	PyTuple_Pack:PROC
EXTRN	PyTuple_Size:PROC
;	COMDAT pdata
pdata	SEGMENT
$pdata$delta_divmod DD imagerel delta_divmod
	DD	imagerel delta_divmod+400
	DD	imagerel $unwind$delta_divmod
pdata	ENDS
;	COMDAT xdata
xdata	SEGMENT
$unwind$delta_divmod DD 010e01H
	DD	0a20eH
xdata	ENDS
;	COMDAT ??_C@_1DE@GADFDJJF@?$AAP?$AAy?$AAT?$AAu?$AAp?$AAl?$AAe?$AA_?$AAS?$AAi?$AAz?$AAe?$AA?$CI?$AAd?$AAi?$AAv?$AAm?$AAo?$AAd?$AA?$CJ?$AA?5?$AA?$DN?$AA?$DN?$AA?5?$AA2?$AA?$AA@
CONST	SEGMENT
??_C@_1DE@GADFDJJF@?$AAP?$AAy?$AAT?$AAu?$AAp?$AAl?$AAe?$AA_?$AAS?$AAi?$AAz?$AAe?$AA?$CI?$AAd?$AAi?$AAv?$AAm?$AAo?$AAd?$AA?$CJ?$AA?5?$AA?$DN?$AA?$DN?$AA?5?$AA2?$AA?$AA@ DB 'P'
	DB	00H, 'y', 00H, 'T', 00H, 'u', 00H, 'p', 00H, 'l', 00H, 'e', 00H
	DB	'_', 00H, 'S', 00H, 'i', 00H, 'z', 00H, 'e', 00H, '(', 00H, 'd'
	DB	00H, 'i', 00H, 'v', 00H, 'm', 00H, 'o', 00H, 'd', 00H, ')', 00H
	DB	' ', 00H, '=', 00H, '=', 00H, ' ', 00H, '2', 00H, 00H, 00H ; `string'
; Function compile flags: /Odtp
CONST	ENDS
;	COMDAT delta_divmod
_TEXT	SEGMENT
divmod$ = 32
pyus_left$ = 40
pyus_right$ = 48
result$ = 56
delta$ = 64
left$ = 96
right$ = 104
delta_divmod PROC					; COMDAT

; 1954 : {

  00000	48 89 54 24 10	 mov	 QWORD PTR [rsp+16], rdx
  00005	48 89 4c 24 08	 mov	 QWORD PTR [rsp+8], rcx
  0000a	48 83 ec 58	 sub	 rsp, 88			; 00000058H

; 1955 :     PyObject *pyus_left;
; 1956 :     PyObject *pyus_right;
; 1957 :     PyObject *divmod;
; 1958 :     PyObject *delta;
; 1959 :     PyObject *result;
; 1960 : 
; 1961 :     if (!PyDelta_Check(left) || !PyDelta_Check(right))

  0000e	48 8d 05 00 00
	00 00		 lea	 rax, OFFSET FLAT:PyDateTime_DeltaType
  00015	48 8b 4c 24 60	 mov	 rcx, QWORD PTR left$[rsp]
  0001a	48 39 41 58	 cmp	 QWORD PTR [rcx+88], rax
  0001e	74 19		 je	 SHORT $LN5@delta_divm
  00020	48 8d 15 00 00
	00 00		 lea	 rdx, OFFSET FLAT:PyDateTime_DeltaType
  00027	48 8b 44 24 60	 mov	 rax, QWORD PTR left$[rsp]
  0002c	48 8b 48 58	 mov	 rcx, QWORD PTR [rax+88]
  00030	e8 00 00 00 00	 call	 PyType_IsSubtype
  00035	85 c0		 test	 eax, eax
  00037	74 2b		 je	 SHORT $LN6@delta_divm
$LN5@delta_divm:
  00039	48 8d 05 00 00
	00 00		 lea	 rax, OFFSET FLAT:PyDateTime_DeltaType
  00040	48 8b 4c 24 68	 mov	 rcx, QWORD PTR right$[rsp]
  00045	48 39 41 58	 cmp	 QWORD PTR [rcx+88], rax
  00049	74 31		 je	 SHORT $LN7@delta_divm
  0004b	48 8d 15 00 00
	00 00		 lea	 rdx, OFFSET FLAT:PyDateTime_DeltaType
  00052	48 8b 44 24 68	 mov	 rax, QWORD PTR right$[rsp]
  00057	48 8b 48 58	 mov	 rcx, QWORD PTR [rax+88]
  0005b	e8 00 00 00 00	 call	 PyType_IsSubtype
  00060	85 c0		 test	 eax, eax
  00062	75 18		 jne	 SHORT $LN7@delta_divm
$LN6@delta_divm:

; 1962 :         Py_RETURN_NOTIMPLEMENTED;

  00064	48 8d 0d 00 00
	00 00		 lea	 rcx, OFFSET FLAT:_Py_NotImplementedStruct
  0006b	e8 00 00 00 00	 call	 _Py_IncRef
  00070	48 8d 05 00 00
	00 00		 lea	 rax, OFFSET FLAT:_Py_NotImplementedStruct
  00077	e9 0f 01 00 00	 jmp	 $LN8@delta_divm
$LN7@delta_divm:

; 1963 : 
; 1964 :     pyus_left = delta_to_microseconds((PyDateTime_Delta *)left);

  0007c	48 8b 4c 24 60	 mov	 rcx, QWORD PTR left$[rsp]
  00081	e8 00 00 00 00	 call	 delta_to_microseconds
  00086	48 89 44 24 28	 mov	 QWORD PTR pyus_left$[rsp], rax

; 1965 :     if (pyus_left == NULL)

  0008b	48 83 7c 24 28
	00		 cmp	 QWORD PTR pyus_left$[rsp], 0
  00091	75 07		 jne	 SHORT $LN4@delta_divm

; 1966 :         return NULL;

  00093	33 c0		 xor	 eax, eax
  00095	e9 f1 00 00 00	 jmp	 $LN8@delta_divm
$LN4@delta_divm:

; 1967 : 
; 1968 :     pyus_right = delta_to_microseconds((PyDateTime_Delta *)right);

  0009a	48 8b 4c 24 68	 mov	 rcx, QWORD PTR right$[rsp]
  0009f	e8 00 00 00 00	 call	 delta_to_microseconds
  000a4	48 89 44 24 30	 mov	 QWORD PTR pyus_right$[rsp], rax

; 1969 :     if (pyus_right == NULL) {

  000a9	48 83 7c 24 30
	00		 cmp	 QWORD PTR pyus_right$[rsp], 0
  000af	75 11		 jne	 SHORT $LN3@delta_divm

; 1970 :         Py_DECREF(pyus_left);

  000b1	48 8b 4c 24 28	 mov	 rcx, QWORD PTR pyus_left$[rsp]
  000b6	e8 00 00 00 00	 call	 _Py_DecRef

; 1971 :         return NULL;

  000bb	33 c0		 xor	 eax, eax
  000bd	e9 c9 00 00 00	 jmp	 $LN8@delta_divm
$LN3@delta_divm:

; 1972 :     }
; 1973 : 
; 1974 :     divmod = PyNumber_Divmod(pyus_left, pyus_right);

  000c2	48 8b 54 24 30	 mov	 rdx, QWORD PTR pyus_right$[rsp]
  000c7	48 8b 4c 24 28	 mov	 rcx, QWORD PTR pyus_left$[rsp]
  000cc	e8 00 00 00 00	 call	 PyNumber_Divmod
  000d1	48 89 44 24 20	 mov	 QWORD PTR divmod$[rsp], rax

; 1975 :     Py_DECREF(pyus_left);

  000d6	48 8b 4c 24 28	 mov	 rcx, QWORD PTR pyus_left$[rsp]
  000db	e8 00 00 00 00	 call	 _Py_DecRef

; 1976 :     Py_DECREF(pyus_right);

  000e0	48 8b 4c 24 30	 mov	 rcx, QWORD PTR pyus_right$[rsp]
  000e5	e8 00 00 00 00	 call	 _Py_DecRef

; 1977 :     if (divmod == NULL)

  000ea	48 83 7c 24 20
	00		 cmp	 QWORD PTR divmod$[rsp], 0
  000f0	75 07		 jne	 SHORT $LN2@delta_divm

; 1978 :         return NULL;

  000f2	33 c0		 xor	 eax, eax
  000f4	e9 92 00 00 00	 jmp	 $LN8@delta_divm
$LN2@delta_divm:

; 1979 : 
; 1980 :     assert(PyTuple_Size(divmod) == 2);

  000f9	48 8b 4c 24 20	 mov	 rcx, QWORD PTR divmod$[rsp]
  000fe	e8 00 00 00 00	 call	 PyTuple_Size
  00103	48 83 f8 02	 cmp	 rax, 2
  00107	74 1c		 je	 SHORT $LN10@delta_divm
  00109	41 b8 bc 07 00
	00		 mov	 r8d, 1980		; 000007bcH
  0010f	48 8d 15 00 00
	00 00		 lea	 rdx, OFFSET FLAT:??_C@_1DK@MIHLFJMJ@?$AA?4?$AA?4?$AA?2?$AAM?$AAo?$AAd?$AAu?$AAl?$AAe?$AAs?$AA?2?$AA_?$AAd?$AAa?$AAt?$AAe?$AAt?$AAi?$AAm?$AAe?$AAm?$AAo?$AAd?$AAu?$AAl?$AAe?$AA?4?$AAc?$AA?$AA@
  00116	48 8d 0d 00 00
	00 00		 lea	 rcx, OFFSET FLAT:??_C@_1DE@GADFDJJF@?$AAP?$AAy?$AAT?$AAu?$AAp?$AAl?$AAe?$AA_?$AAS?$AAi?$AAz?$AAe?$AA?$CI?$AAd?$AAi?$AAv?$AAm?$AAo?$AAd?$AA?$CJ?$AA?5?$AA?$DN?$AA?$DN?$AA?5?$AA2?$AA?$AA@
  0011d	ff 15 00 00 00
	00		 call	 QWORD PTR __imp__wassert
  00123	33 c0		 xor	 eax, eax
$LN10@delta_divm:

; 1981 :     delta = microseconds_to_delta(PyTuple_GET_ITEM(divmod, 1));

  00125	48 8d 15 00 00
	00 00		 lea	 rdx, OFFSET FLAT:PyDateTime_DeltaType
  0012c	48 8b 44 24 20	 mov	 rax, QWORD PTR divmod$[rsp]
  00131	48 8b 48 78	 mov	 rcx, QWORD PTR [rax+120]
  00135	e8 00 00 00 00	 call	 microseconds_to_delta_ex
  0013a	48 89 44 24 40	 mov	 QWORD PTR delta$[rsp], rax

; 1982 :     if (delta == NULL) {

  0013f	48 83 7c 24 40
	00		 cmp	 QWORD PTR delta$[rsp], 0
  00145	75 0e		 jne	 SHORT $LN1@delta_divm

; 1983 :         Py_DECREF(divmod);

  00147	48 8b 4c 24 20	 mov	 rcx, QWORD PTR divmod$[rsp]
  0014c	e8 00 00 00 00	 call	 _Py_DecRef

; 1984 :         return NULL;

  00151	33 c0		 xor	 eax, eax
  00153	eb 36		 jmp	 SHORT $LN8@delta_divm
$LN1@delta_divm:

; 1985 :     }
; 1986 :     result = PyTuple_Pack(2, PyTuple_GET_ITEM(divmod, 0), delta);

  00155	4c 8b 44 24 40	 mov	 r8, QWORD PTR delta$[rsp]
  0015a	48 8b 44 24 20	 mov	 rax, QWORD PTR divmod$[rsp]
  0015f	48 8b 50 70	 mov	 rdx, QWORD PTR [rax+112]
  00163	b9 02 00 00 00	 mov	 ecx, 2
  00168	e8 00 00 00 00	 call	 PyTuple_Pack
  0016d	48 89 44 24 38	 mov	 QWORD PTR result$[rsp], rax

; 1987 :     Py_DECREF(delta);

  00172	48 8b 4c 24 40	 mov	 rcx, QWORD PTR delta$[rsp]
  00177	e8 00 00 00 00	 call	 _Py_DecRef

; 1988 :     Py_DECREF(divmod);

  0017c	48 8b 4c 24 20	 mov	 rcx, QWORD PTR divmod$[rsp]
  00181	e8 00 00 00 00	 call	 _Py_DecRef

; 1989 :     return result;

  00186	48 8b 44 24 38	 mov	 rax, QWORD PTR result$[rsp]
$LN8@delta_divm:

; 1990 : }

  0018b	48 83 c4 58	 add	 rsp, 88			; 00000058H
  0018f	c3		 ret	 0
delta_divmod ENDP
_TEXT	ENDS
PUBLIC	__real@0000000000000000
PUBLIC	??_C@_0BB@DBPOALAA@?$HMOOOOOOO?3__new__?$AA@	; `string'
EXTRN	PyArg_ParseTupleAndKeywords:PROC
EXTRN	_fltused:DWORD
;	COMDAT pdata
pdata	SEGMENT
$pdata$delta_new DD imagerel delta_new
	DD	imagerel delta_new+1116
	DD	imagerel $unwind$delta_new
pdata	ENDS
;	COMDAT xdata
xdata	SEGMENT
$unwind$delta_new DD 021601H
	DD	0190116H
xdata	ENDS
;	COMDAT __real@0000000000000000
CONST	SEGMENT
__real@0000000000000000 DQ 00000000000000000r	; 0
CONST	ENDS
;	COMDAT ??_C@_0BB@DBPOALAA@?$HMOOOOOOO?3__new__?$AA@
CONST	SEGMENT
??_C@_0BB@DBPOALAA@?$HMOOOOOOO?3__new__?$AA@ DB '|OOOOOOO:__new__', 00H ; `string'
; Function compile flags: /Odtp
CONST	ENDS
;	COMDAT delta_new
_TEXT	SEGMENT
day$ = 96
leftover_us$ = 104
y$ = 112
x$ = 120
ms$ = 128
second$ = 136
minute$ = 144
hour$ = 152
self$ = 160
week$ = 168
us$ = 176
temp$22296 = 184
type$ = 208
args$ = 216
kw$ = 224
delta_new PROC						; COMDAT

; 2084 : {

  00000	4c 89 44 24 18	 mov	 QWORD PTR [rsp+24], r8
  00005	48 89 54 24 10	 mov	 QWORD PTR [rsp+16], rdx
  0000a	48 89 4c 24 08	 mov	 QWORD PTR [rsp+8], rcx
  0000f	48 81 ec c8 00
	00 00		 sub	 rsp, 200		; 000000c8H

; 2085 :     PyObject *self = NULL;

  00016	48 c7 84 24 a0
	00 00 00 00 00
	00 00		 mov	 QWORD PTR self$[rsp], 0

; 2086 : 
; 2087 :     /* Argument objects. */
; 2088 :     PyObject *day = NULL;

  00022	48 c7 44 24 60
	00 00 00 00	 mov	 QWORD PTR day$[rsp], 0

; 2089 :     PyObject *second = NULL;

  0002b	48 c7 84 24 88
	00 00 00 00 00
	00 00		 mov	 QWORD PTR second$[rsp], 0

; 2090 :     PyObject *us = NULL;

  00037	48 c7 84 24 b0
	00 00 00 00 00
	00 00		 mov	 QWORD PTR us$[rsp], 0

; 2091 :     PyObject *ms = NULL;

  00043	48 c7 84 24 80
	00 00 00 00 00
	00 00		 mov	 QWORD PTR ms$[rsp], 0

; 2092 :     PyObject *minute = NULL;

  0004f	48 c7 84 24 90
	00 00 00 00 00
	00 00		 mov	 QWORD PTR minute$[rsp], 0

; 2093 :     PyObject *hour = NULL;

  0005b	48 c7 84 24 98
	00 00 00 00 00
	00 00		 mov	 QWORD PTR hour$[rsp], 0

; 2094 :     PyObject *week = NULL;

  00067	48 c7 84 24 a8
	00 00 00 00 00
	00 00		 mov	 QWORD PTR week$[rsp], 0

; 2095 : 
; 2096 :     PyObject *x = NULL;         /* running sum of microseconds */

  00073	48 c7 44 24 78
	00 00 00 00	 mov	 QWORD PTR x$[rsp], 0

; 2097 :     PyObject *y = NULL;         /* temp sum of microseconds */

  0007c	48 c7 44 24 70
	00 00 00 00	 mov	 QWORD PTR y$[rsp], 0

; 2098 :     double leftover_us = 0.0;

  00085	66 0f 57 c0	 xorpd	 xmm0, xmm0
  00089	f2 0f 11 44 24
	68		 movsdx	 QWORD PTR leftover_us$[rsp], xmm0

; 2099 : 
; 2100 :     static char *keywords[] = {
; 2101 :         "days", "seconds", "microseconds", "milliseconds",
; 2102 :         "minutes", "hours", "weeks", NULL
; 2103 :     };
; 2104 : 
; 2105 :     if (PyArg_ParseTupleAndKeywords(args, kw, "|OOOOOOO:__new__",
; 2106 :                                     keywords,
; 2107 :                                     &day, &second, &us,
; 2108 :                                     &ms, &minute, &hour, &week) == 0)

  0008f	48 8d 84 24 a8
	00 00 00	 lea	 rax, QWORD PTR week$[rsp]
  00097	48 89 44 24 50	 mov	 QWORD PTR [rsp+80], rax
  0009c	48 8d 84 24 98
	00 00 00	 lea	 rax, QWORD PTR hour$[rsp]
  000a4	48 89 44 24 48	 mov	 QWORD PTR [rsp+72], rax
  000a9	48 8d 84 24 90
	00 00 00	 lea	 rax, QWORD PTR minute$[rsp]
  000b1	48 89 44 24 40	 mov	 QWORD PTR [rsp+64], rax
  000b6	48 8d 84 24 80
	00 00 00	 lea	 rax, QWORD PTR ms$[rsp]
  000be	48 89 44 24 38	 mov	 QWORD PTR [rsp+56], rax
  000c3	48 8d 84 24 b0
	00 00 00	 lea	 rax, QWORD PTR us$[rsp]
  000cb	48 89 44 24 30	 mov	 QWORD PTR [rsp+48], rax
  000d0	48 8d 84 24 88
	00 00 00	 lea	 rax, QWORD PTR second$[rsp]
  000d8	48 89 44 24 28	 mov	 QWORD PTR [rsp+40], rax
  000dd	48 8d 44 24 60	 lea	 rax, QWORD PTR day$[rsp]
  000e2	48 89 44 24 20	 mov	 QWORD PTR [rsp+32], rax
  000e7	4c 8d 0d 00 00
	00 00		 lea	 r9, OFFSET FLAT:?keywords@?1??delta_new@@9@9
  000ee	4c 8d 05 00 00
	00 00		 lea	 r8, OFFSET FLAT:??_C@_0BB@DBPOALAA@?$HMOOOOOOO?3__new__?$AA@
  000f5	48 8b 94 24 e0
	00 00 00	 mov	 rdx, QWORD PTR kw$[rsp]
  000fd	48 8b 8c 24 d8
	00 00 00	 mov	 rcx, QWORD PTR args$[rsp]
  00105	e8 00 00 00 00	 call	 PyArg_ParseTupleAndKeywords
  0010a	85 c0		 test	 eax, eax
  0010c	75 05		 jne	 SHORT $LN19@delta_new

; 2109 :         goto Done;

  0010e	e9 39 03 00 00	 jmp	 $Done$22263
$LN19@delta_new:

; 2110 : 
; 2111 :     x = PyLong_FromLong(0);

  00113	33 c9		 xor	 ecx, ecx
  00115	e8 00 00 00 00	 call	 PyLong_FromLong
  0011a	48 89 44 24 78	 mov	 QWORD PTR x$[rsp], rax

; 2112 :     if (x == NULL)

  0011f	48 83 7c 24 78
	00		 cmp	 QWORD PTR x$[rsp], 0
  00125	75 05		 jne	 SHORT $LN18@delta_new

; 2113 :         goto Done;

  00127	e9 20 03 00 00	 jmp	 $Done$22263
$LN18@delta_new:

; 2114 : 
; 2115 : #define CLEANUP         \
; 2116 :     Py_DECREF(x);       \
; 2117 :     x = y;              \
; 2118 :     if (x == NULL)      \
; 2119 :         goto Done
; 2120 : 
; 2121 :     if (us) {

  0012c	48 83 bc 24 b0
	00 00 00 00	 cmp	 QWORD PTR us$[rsp], 0
  00135	74 50		 je	 SHORT $LN17@delta_new

; 2122 :         y = accum("microseconds", x, us, us_per_us, &leftover_us);

  00137	48 8d 44 24 68	 lea	 rax, QWORD PTR leftover_us$[rsp]
  0013c	48 89 44 24 20	 mov	 QWORD PTR [rsp+32], rax
  00141	4c 8b 0d 00 00
	00 00		 mov	 r9, QWORD PTR us_per_us
  00148	4c 8b 84 24 b0
	00 00 00	 mov	 r8, QWORD PTR us$[rsp]
  00150	48 8b 54 24 78	 mov	 rdx, QWORD PTR x$[rsp]
  00155	48 8d 0d 00 00
	00 00		 lea	 rcx, OFFSET FLAT:??_C@_0N@EKJJBPIN@microseconds?$AA@
  0015c	e8 00 00 00 00	 call	 accum
  00161	48 89 44 24 70	 mov	 QWORD PTR y$[rsp], rax

; 2123 :         CLEANUP;

  00166	48 8b 4c 24 78	 mov	 rcx, QWORD PTR x$[rsp]
  0016b	e8 00 00 00 00	 call	 _Py_DecRef
  00170	48 8b 44 24 70	 mov	 rax, QWORD PTR y$[rsp]
  00175	48 89 44 24 78	 mov	 QWORD PTR x$[rsp], rax
  0017a	48 83 7c 24 78
	00		 cmp	 QWORD PTR x$[rsp], 0
  00180	75 05		 jne	 SHORT $LN16@delta_new
  00182	e9 c5 02 00 00	 jmp	 $Done$22263
$LN16@delta_new:
$LN17@delta_new:

; 2124 :     }
; 2125 :     if (ms) {

  00187	48 83 bc 24 80
	00 00 00 00	 cmp	 QWORD PTR ms$[rsp], 0
  00190	74 50		 je	 SHORT $LN15@delta_new

; 2126 :         y = accum("milliseconds", x, ms, us_per_ms, &leftover_us);

  00192	48 8d 44 24 68	 lea	 rax, QWORD PTR leftover_us$[rsp]
  00197	48 89 44 24 20	 mov	 QWORD PTR [rsp+32], rax
  0019c	4c 8b 0d 00 00
	00 00		 mov	 r9, QWORD PTR us_per_ms
  001a3	4c 8b 84 24 80
	00 00 00	 mov	 r8, QWORD PTR ms$[rsp]
  001ab	48 8b 54 24 78	 mov	 rdx, QWORD PTR x$[rsp]
  001b0	48 8d 0d 00 00
	00 00		 lea	 rcx, OFFSET FLAT:??_C@_0N@JDBMCDJK@milliseconds?$AA@
  001b7	e8 00 00 00 00	 call	 accum
  001bc	48 89 44 24 70	 mov	 QWORD PTR y$[rsp], rax

; 2127 :         CLEANUP;

  001c1	48 8b 4c 24 78	 mov	 rcx, QWORD PTR x$[rsp]
  001c6	e8 00 00 00 00	 call	 _Py_DecRef
  001cb	48 8b 44 24 70	 mov	 rax, QWORD PTR y$[rsp]
  001d0	48 89 44 24 78	 mov	 QWORD PTR x$[rsp], rax
  001d5	48 83 7c 24 78
	00		 cmp	 QWORD PTR x$[rsp], 0
  001db	75 05		 jne	 SHORT $LN14@delta_new
  001dd	e9 6a 02 00 00	 jmp	 $Done$22263
$LN14@delta_new:
$LN15@delta_new:

; 2128 :     }
; 2129 :     if (second) {

  001e2	48 83 bc 24 88
	00 00 00 00	 cmp	 QWORD PTR second$[rsp], 0
  001eb	74 50		 je	 SHORT $LN13@delta_new

; 2130 :         y = accum("seconds", x, second, us_per_second, &leftover_us);

  001ed	48 8d 44 24 68	 lea	 rax, QWORD PTR leftover_us$[rsp]
  001f2	48 89 44 24 20	 mov	 QWORD PTR [rsp+32], rax
  001f7	4c 8b 0d 00 00
	00 00		 mov	 r9, QWORD PTR us_per_second
  001fe	4c 8b 84 24 88
	00 00 00	 mov	 r8, QWORD PTR second$[rsp]
  00206	48 8b 54 24 78	 mov	 rdx, QWORD PTR x$[rsp]
  0020b	48 8d 0d 00 00
	00 00		 lea	 rcx, OFFSET FLAT:??_C@_07GELLIBDG@seconds?$AA@
  00212	e8 00 00 00 00	 call	 accum
  00217	48 89 44 24 70	 mov	 QWORD PTR y$[rsp], rax

; 2131 :         CLEANUP;

  0021c	48 8b 4c 24 78	 mov	 rcx, QWORD PTR x$[rsp]
  00221	e8 00 00 00 00	 call	 _Py_DecRef
  00226	48 8b 44 24 70	 mov	 rax, QWORD PTR y$[rsp]
  0022b	48 89 44 24 78	 mov	 QWORD PTR x$[rsp], rax
  00230	48 83 7c 24 78
	00		 cmp	 QWORD PTR x$[rsp], 0
  00236	75 05		 jne	 SHORT $LN12@delta_new
  00238	e9 0f 02 00 00	 jmp	 $Done$22263
$LN12@delta_new:
$LN13@delta_new:

; 2132 :     }
; 2133 :     if (minute) {

  0023d	48 83 bc 24 90
	00 00 00 00	 cmp	 QWORD PTR minute$[rsp], 0
  00246	74 50		 je	 SHORT $LN11@delta_new

; 2134 :         y = accum("minutes", x, minute, us_per_minute, &leftover_us);

  00248	48 8d 44 24 68	 lea	 rax, QWORD PTR leftover_us$[rsp]
  0024d	48 89 44 24 20	 mov	 QWORD PTR [rsp+32], rax
  00252	4c 8b 0d 00 00
	00 00		 mov	 r9, QWORD PTR us_per_minute
  00259	4c 8b 84 24 90
	00 00 00	 mov	 r8, QWORD PTR minute$[rsp]
  00261	48 8b 54 24 78	 mov	 rdx, QWORD PTR x$[rsp]
  00266	48 8d 0d 00 00
	00 00		 lea	 rcx, OFFSET FLAT:??_C@_07GCICIJGK@minutes?$AA@
  0026d	e8 00 00 00 00	 call	 accum
  00272	48 89 44 24 70	 mov	 QWORD PTR y$[rsp], rax

; 2135 :         CLEANUP;

  00277	48 8b 4c 24 78	 mov	 rcx, QWORD PTR x$[rsp]
  0027c	e8 00 00 00 00	 call	 _Py_DecRef
  00281	48 8b 44 24 70	 mov	 rax, QWORD PTR y$[rsp]
  00286	48 89 44 24 78	 mov	 QWORD PTR x$[rsp], rax
  0028b	48 83 7c 24 78
	00		 cmp	 QWORD PTR x$[rsp], 0
  00291	75 05		 jne	 SHORT $LN10@delta_new
  00293	e9 b4 01 00 00	 jmp	 $Done$22263
$LN10@delta_new:
$LN11@delta_new:

; 2136 :     }
; 2137 :     if (hour) {

  00298	48 83 bc 24 98
	00 00 00 00	 cmp	 QWORD PTR hour$[rsp], 0
  002a1	74 50		 je	 SHORT $LN9@delta_new

; 2138 :         y = accum("hours", x, hour, us_per_hour, &leftover_us);

  002a3	48 8d 44 24 68	 lea	 rax, QWORD PTR leftover_us$[rsp]
  002a8	48 89 44 24 20	 mov	 QWORD PTR [rsp+32], rax
  002ad	4c 8b 0d 00 00
	00 00		 mov	 r9, QWORD PTR us_per_hour
  002b4	4c 8b 84 24 98
	00 00 00	 mov	 r8, QWORD PTR hour$[rsp]
  002bc	48 8b 54 24 78	 mov	 rdx, QWORD PTR x$[rsp]
  002c1	48 8d 0d 00 00
	00 00		 lea	 rcx, OFFSET FLAT:??_C@_05LOHOPFFC@hours?$AA@
  002c8	e8 00 00 00 00	 call	 accum
  002cd	48 89 44 24 70	 mov	 QWORD PTR y$[rsp], rax

; 2139 :         CLEANUP;

  002d2	48 8b 4c 24 78	 mov	 rcx, QWORD PTR x$[rsp]
  002d7	e8 00 00 00 00	 call	 _Py_DecRef
  002dc	48 8b 44 24 70	 mov	 rax, QWORD PTR y$[rsp]
  002e1	48 89 44 24 78	 mov	 QWORD PTR x$[rsp], rax
  002e6	48 83 7c 24 78
	00		 cmp	 QWORD PTR x$[rsp], 0
  002ec	75 05		 jne	 SHORT $LN8@delta_new
  002ee	e9 59 01 00 00	 jmp	 $Done$22263
$LN8@delta_new:
$LN9@delta_new:

; 2140 :     }
; 2141 :     if (day) {

  002f3	48 83 7c 24 60
	00		 cmp	 QWORD PTR day$[rsp], 0
  002f9	74 4d		 je	 SHORT $LN7@delta_new

; 2142 :         y = accum("days", x, day, us_per_day, &leftover_us);

  002fb	48 8d 44 24 68	 lea	 rax, QWORD PTR leftover_us$[rsp]
  00300	48 89 44 24 20	 mov	 QWORD PTR [rsp+32], rax
  00305	4c 8b 0d 00 00
	00 00		 mov	 r9, QWORD PTR us_per_day
  0030c	4c 8b 44 24 60	 mov	 r8, QWORD PTR day$[rsp]
  00311	48 8b 54 24 78	 mov	 rdx, QWORD PTR x$[rsp]
  00316	48 8d 0d 00 00
	00 00		 lea	 rcx, OFFSET FLAT:??_C@_04IJMHDAOD@days?$AA@
  0031d	e8 00 00 00 00	 call	 accum
  00322	48 89 44 24 70	 mov	 QWORD PTR y$[rsp], rax

; 2143 :         CLEANUP;

  00327	48 8b 4c 24 78	 mov	 rcx, QWORD PTR x$[rsp]
  0032c	e8 00 00 00 00	 call	 _Py_DecRef
  00331	48 8b 44 24 70	 mov	 rax, QWORD PTR y$[rsp]
  00336	48 89 44 24 78	 mov	 QWORD PTR x$[rsp], rax
  0033b	48 83 7c 24 78
	00		 cmp	 QWORD PTR x$[rsp], 0
  00341	75 05		 jne	 SHORT $LN6@delta_new
  00343	e9 04 01 00 00	 jmp	 $Done$22263
$LN6@delta_new:
$LN7@delta_new:

; 2144 :     }
; 2145 :     if (week) {

  00348	48 83 bc 24 a8
	00 00 00 00	 cmp	 QWORD PTR week$[rsp], 0
  00351	74 50		 je	 SHORT $LN5@delta_new

; 2146 :         y = accum("weeks", x, week, us_per_week, &leftover_us);

  00353	48 8d 44 24 68	 lea	 rax, QWORD PTR leftover_us$[rsp]
  00358	48 89 44 24 20	 mov	 QWORD PTR [rsp+32], rax
  0035d	4c 8b 0d 00 00
	00 00		 mov	 r9, QWORD PTR us_per_week
  00364	4c 8b 84 24 a8
	00 00 00	 mov	 r8, QWORD PTR week$[rsp]
  0036c	48 8b 54 24 78	 mov	 rdx, QWORD PTR x$[rsp]
  00371	48 8d 0d 00 00
	00 00		 lea	 rcx, OFFSET FLAT:??_C@_05EFKAJCNN@weeks?$AA@
  00378	e8 00 00 00 00	 call	 accum
  0037d	48 89 44 24 70	 mov	 QWORD PTR y$[rsp], rax

; 2147 :         CLEANUP;

  00382	48 8b 4c 24 78	 mov	 rcx, QWORD PTR x$[rsp]
  00387	e8 00 00 00 00	 call	 _Py_DecRef
  0038c	48 8b 44 24 70	 mov	 rax, QWORD PTR y$[rsp]
  00391	48 89 44 24 78	 mov	 QWORD PTR x$[rsp], rax
  00396	48 83 7c 24 78
	00		 cmp	 QWORD PTR x$[rsp], 0
  0039c	75 05		 jne	 SHORT $LN4@delta_new
  0039e	e9 a9 00 00 00	 jmp	 $Done$22263
$LN4@delta_new:
$LN5@delta_new:

; 2148 :     }
; 2149 :     if (leftover_us) {

  003a3	f2 0f 10 44 24
	68		 movsdx	 xmm0, QWORD PTR leftover_us$[rsp]
  003a9	66 0f 2e 05 00
	00 00 00	 ucomisd xmm0, QWORD PTR __real@0000000000000000
  003b1	7a 02		 jp	 SHORT $LN22@delta_new
  003b3	74 73		 je	 SHORT $LN3@delta_new
$LN22@delta_new:

; 2150 :         /* Round to nearest whole # of us, and add into x. */
; 2151 :         PyObject *temp = PyLong_FromLong(round_to_long(leftover_us));

  003b5	f2 0f 10 44 24
	68		 movsdx	 xmm0, QWORD PTR leftover_us$[rsp]
  003bb	e8 00 00 00 00	 call	 round_to_long
  003c0	8b c8		 mov	 ecx, eax
  003c2	e8 00 00 00 00	 call	 PyLong_FromLong
  003c7	48 89 84 24 b8
	00 00 00	 mov	 QWORD PTR temp$22296[rsp], rax

; 2152 :         if (temp == NULL) {

  003cf	48 83 bc 24 b8
	00 00 00 00	 cmp	 QWORD PTR temp$22296[rsp], 0
  003d8	75 0c		 jne	 SHORT $LN2@delta_new

; 2153 :             Py_DECREF(x);

  003da	48 8b 4c 24 78	 mov	 rcx, QWORD PTR x$[rsp]
  003df	e8 00 00 00 00	 call	 _Py_DecRef

; 2154 :             goto Done;

  003e4	eb 66		 jmp	 SHORT $Done$22263
$LN2@delta_new:

; 2155 :         }
; 2156 :         y = PyNumber_Add(x, temp);

  003e6	48 8b 94 24 b8
	00 00 00	 mov	 rdx, QWORD PTR temp$22296[rsp]
  003ee	48 8b 4c 24 78	 mov	 rcx, QWORD PTR x$[rsp]
  003f3	e8 00 00 00 00	 call	 PyNumber_Add
  003f8	48 89 44 24 70	 mov	 QWORD PTR y$[rsp], rax

; 2157 :         Py_DECREF(temp);

  003fd	48 8b 8c 24 b8
	00 00 00	 mov	 rcx, QWORD PTR temp$22296[rsp]
  00405	e8 00 00 00 00	 call	 _Py_DecRef

; 2158 :         CLEANUP;

  0040a	48 8b 4c 24 78	 mov	 rcx, QWORD PTR x$[rsp]
  0040f	e8 00 00 00 00	 call	 _Py_DecRef
  00414	48 8b 44 24 70	 mov	 rax, QWORD PTR y$[rsp]
  00419	48 89 44 24 78	 mov	 QWORD PTR x$[rsp], rax
  0041e	48 83 7c 24 78
	00		 cmp	 QWORD PTR x$[rsp], 0
  00424	75 02		 jne	 SHORT $LN1@delta_new
  00426	eb 24		 jmp	 SHORT $Done$22263
$LN1@delta_new:
$LN3@delta_new:

; 2159 :     }
; 2160 : 
; 2161 :     self = microseconds_to_delta_ex(x, type);

  00428	48 8b 94 24 d0
	00 00 00	 mov	 rdx, QWORD PTR type$[rsp]
  00430	48 8b 4c 24 78	 mov	 rcx, QWORD PTR x$[rsp]
  00435	e8 00 00 00 00	 call	 microseconds_to_delta_ex
  0043a	48 89 84 24 a0
	00 00 00	 mov	 QWORD PTR self$[rsp], rax

; 2162 :     Py_DECREF(x);

  00442	48 8b 4c 24 78	 mov	 rcx, QWORD PTR x$[rsp]
  00447	e8 00 00 00 00	 call	 _Py_DecRef
$Done$22263:

; 2163 : Done:
; 2164 :     return self;

  0044c	48 8b 84 24 a0
	00 00 00	 mov	 rax, QWORD PTR self$[rsp]

; 2165 : 
; 2166 : #undef CLEANUP
; 2167 : }

  00454	48 81 c4 c8 00
	00 00		 add	 rsp, 200		; 000000c8H
  0045b	c3		 ret	 0
delta_new ENDP
_TEXT	ENDS
PUBLIC	__real@3fe0000000000000
EXTRN	__imp_ceil:PROC
EXTRN	__imp_floor:PROC
;	COMDAT pdata
pdata	SEGMENT
$pdata$round_to_long DD imagerel round_to_long
	DD	imagerel round_to_long+91
	DD	imagerel $unwind$round_to_long
pdata	ENDS
;	COMDAT xdata
xdata	SEGMENT
$unwind$round_to_long DD 010a01H
	DD	0420aH
xdata	ENDS
;	COMDAT __real@3fe0000000000000
CONST	SEGMENT
__real@3fe0000000000000 DQ 03fe0000000000000r	; 0.5
; Function compile flags: /Odtp
CONST	ENDS
;	COMDAT round_to_long
_TEXT	SEGMENT
x$ = 48
round_to_long PROC					; COMDAT

; 148  : {

  00000	f2 0f 11 44 24
	08		 movsdx	 QWORD PTR [rsp+8], xmm0
  00006	48 83 ec 28	 sub	 rsp, 40			; 00000028H

; 149  :     if (x >= 0.0)

  0000a	f2 0f 10 44 24
	30		 movsdx	 xmm0, QWORD PTR x$[rsp]
  00010	66 0f 2f 05 00
	00 00 00	 comisd	 xmm0, QWORD PTR __real@0000000000000000
  00018	72 1c		 jb	 SHORT $LN2@round_to_l

; 150  :         x = floor(x + 0.5);

  0001a	f2 0f 10 44 24
	30		 movsdx	 xmm0, QWORD PTR x$[rsp]
  00020	f2 0f 58 05 00
	00 00 00	 addsd	 xmm0, QWORD PTR __real@3fe0000000000000
  00028	ff 15 00 00 00
	00		 call	 QWORD PTR __imp_floor
  0002e	f2 0f 11 44 24
	30		 movsdx	 QWORD PTR x$[rsp], xmm0

; 151  :     else

  00034	eb 1a		 jmp	 SHORT $LN1@round_to_l
$LN2@round_to_l:

; 152  :         x = ceil(x - 0.5);

  00036	f2 0f 10 44 24
	30		 movsdx	 xmm0, QWORD PTR x$[rsp]
  0003c	f2 0f 5c 05 00
	00 00 00	 subsd	 xmm0, QWORD PTR __real@3fe0000000000000
  00044	ff 15 00 00 00
	00		 call	 QWORD PTR __imp_ceil
  0004a	f2 0f 11 44 24
	30		 movsdx	 QWORD PTR x$[rsp], xmm0
$LN1@round_to_l:

; 153  :     return (long)x;

  00050	f2 0f 2c 44 24
	30		 cvttsd2si eax, QWORD PTR x$[rsp]

; 154  : }

  00056	48 83 c4 28	 add	 rsp, 40			; 00000028H
  0005a	c3		 ret	 0
round_to_long ENDP
_TEXT	ENDS
PUBLIC	??_C@_0DA@BBEBJCPJ@unsupported?5type?5for?5timedelta?5?$CF@ ; `string'
PUBLIC	??_C@_1CK@KMBDOCAH@?$AAP?$AAy?$AAL?$AAo?$AAn?$AAg?$AA_?$AAC?$AAh?$AAe?$AAc?$AAk?$AA?$CI?$AAf?$AAa?$AAc?$AAt?$AAo?$AAr?$AA?$CJ?$AA?$AA@ ; `string'
PUBLIC	__real@bff0000000000000
PUBLIC	??_C@_1BI@LBPPPCD@?$AAn?$AAu?$AAm?$AA?5?$AA?$CB?$AA?$DN?$AA?5?$AAN?$AAU?$AAL?$AAL?$AA?$AA@ ; `string'
EXTRN	PyExc_TypeError:QWORD
EXTRN	PyLong_AsDouble:PROC
EXTRN	PyLong_FromDouble:PROC
EXTRN	__imp_modf:PROC
EXTRN	PyFloat_AsDouble:PROC
;	COMDAT pdata
pdata	SEGMENT
$pdata$accum DD	imagerel accum
	DD	imagerel accum+730
	DD	imagerel $unwind$accum
pdata	ENDS
;	COMDAT xdata
xdata	SEGMENT
$unwind$accum DD 011801H
	DD	0c218H
xdata	ENDS
;	COMDAT ??_C@_0DA@BBEBJCPJ@unsupported?5type?5for?5timedelta?5?$CF@
CONST	SEGMENT
??_C@_0DA@BBEBJCPJ@unsupported?5type?5for?5timedelta?5?$CF@ DB 'unsupport'
	DB	'ed type for timedelta %s component: %s', 00H ; `string'
CONST	ENDS
;	COMDAT ??_C@_1CK@KMBDOCAH@?$AAP?$AAy?$AAL?$AAo?$AAn?$AAg?$AA_?$AAC?$AAh?$AAe?$AAc?$AAk?$AA?$CI?$AAf?$AAa?$AAc?$AAt?$AAo?$AAr?$AA?$CJ?$AA?$AA@
CONST	SEGMENT
??_C@_1CK@KMBDOCAH@?$AAP?$AAy?$AAL?$AAo?$AAn?$AAg?$AA_?$AAC?$AAh?$AAe?$AAc?$AAk?$AA?$CI?$AAf?$AAa?$AAc?$AAt?$AAo?$AAr?$AA?$CJ?$AA?$AA@ DB 'P'
	DB	00H, 'y', 00H, 'L', 00H, 'o', 00H, 'n', 00H, 'g', 00H, '_', 00H
	DB	'C', 00H, 'h', 00H, 'e', 00H, 'c', 00H, 'k', 00H, '(', 00H, 'f'
	DB	00H, 'a', 00H, 'c', 00H, 't', 00H, 'o', 00H, 'r', 00H, ')', 00H
	DB	00H, 00H					; `string'
CONST	ENDS
;	COMDAT __real@bff0000000000000
CONST	SEGMENT
__real@bff0000000000000 DQ 0bff0000000000000r	; -1
CONST	ENDS
;	COMDAT ??_C@_1BI@LBPPPCD@?$AAn?$AAu?$AAm?$AA?5?$AA?$CB?$AA?$DN?$AA?5?$AAN?$AAU?$AAL?$AAL?$AA?$AA@
CONST	SEGMENT
??_C@_1BI@LBPPPCD@?$AAn?$AAu?$AAm?$AA?5?$AA?$CB?$AA?$DN?$AA?5?$AAN?$AAU?$AAL?$AAL?$AA?$AA@ DB 'n'
	DB	00H, 'u', 00H, 'm', 00H, ' ', 00H, '!', 00H, '=', 00H, ' ', 00H
	DB	'N', 00H, 'U', 00H, 'L', 00H, 'L', 00H, 00H, 00H ; `string'
; Function compile flags: /Odtp
CONST	ENDS
;	COMDAT accum
_TEXT	SEGMENT
sum$ = 32
prod$ = 40
y$22195 = 48
x$22194 = 56
intpart$22193 = 64
dnum$22191 = 72
fracpart$22192 = 80
tag$ = 112
sofar$ = 120
num$ = 128
factor$ = 136
leftover$ = 144
accum	PROC						; COMDAT

; 2004 : {

  00000	4c 89 4c 24 20	 mov	 QWORD PTR [rsp+32], r9
  00005	4c 89 44 24 18	 mov	 QWORD PTR [rsp+24], r8
  0000a	48 89 54 24 10	 mov	 QWORD PTR [rsp+16], rdx
  0000f	48 89 4c 24 08	 mov	 QWORD PTR [rsp+8], rcx
  00014	48 83 ec 68	 sub	 rsp, 104		; 00000068H

; 2005 :     PyObject *prod;
; 2006 :     PyObject *sum;
; 2007 : 
; 2008 :     assert(num != NULL);

  00018	48 83 bc 24 80
	00 00 00 00	 cmp	 QWORD PTR num$[rsp], 0
  00021	75 1c		 jne	 SHORT $LN13@accum
  00023	41 b8 d8 07 00
	00		 mov	 r8d, 2008		; 000007d8H
  00029	48 8d 15 00 00
	00 00		 lea	 rdx, OFFSET FLAT:??_C@_1DK@MIHLFJMJ@?$AA?4?$AA?4?$AA?2?$AAM?$AAo?$AAd?$AAu?$AAl?$AAe?$AAs?$AA?2?$AA_?$AAd?$AAa?$AAt?$AAe?$AAt?$AAi?$AAm?$AAe?$AAm?$AAo?$AAd?$AAu?$AAl?$AAe?$AA?4?$AAc?$AA?$AA@
  00030	48 8d 0d 00 00
	00 00		 lea	 rcx, OFFSET FLAT:??_C@_1BI@LBPPPCD@?$AAn?$AAu?$AAm?$AA?5?$AA?$CB?$AA?$DN?$AA?5?$AAN?$AAU?$AAL?$AAL?$AA?$AA@
  00037	ff 15 00 00 00
	00		 call	 QWORD PTR __imp__wassert
  0003d	33 c0		 xor	 eax, eax
$LN13@accum:

; 2009 : 
; 2010 :     if (PyLong_Check(num)) {

  0003f	48 8b 84 24 80
	00 00 00	 mov	 rax, QWORD PTR num$[rsp]
  00047	48 8b 40 58	 mov	 rax, QWORD PTR [rax+88]
  0004b	8b 80 00 01 00
	00		 mov	 eax, DWORD PTR [rax+256]
  00051	25 00 00 00 01	 and	 eax, 16777216		; 01000000H
  00056	85 c0		 test	 eax, eax
  00058	74 51		 je	 SHORT $LN10@accum

; 2011 :         prod = PyNumber_Multiply(num, factor);

  0005a	48 8b 94 24 88
	00 00 00	 mov	 rdx, QWORD PTR factor$[rsp]
  00062	48 8b 8c 24 80
	00 00 00	 mov	 rcx, QWORD PTR num$[rsp]
  0006a	e8 00 00 00 00	 call	 PyNumber_Multiply
  0006f	48 89 44 24 28	 mov	 QWORD PTR prod$[rsp], rax

; 2012 :         if (prod == NULL)

  00074	48 83 7c 24 28
	00		 cmp	 QWORD PTR prod$[rsp], 0
  0007a	75 07		 jne	 SHORT $LN9@accum

; 2013 :             return NULL;

  0007c	33 c0		 xor	 eax, eax
  0007e	e9 52 02 00 00	 jmp	 $LN11@accum
$LN9@accum:

; 2014 :         sum = PyNumber_Add(sofar, prod);

  00083	48 8b 54 24 28	 mov	 rdx, QWORD PTR prod$[rsp]
  00088	48 8b 4c 24 78	 mov	 rcx, QWORD PTR sofar$[rsp]
  0008d	e8 00 00 00 00	 call	 PyNumber_Add
  00092	48 89 44 24 20	 mov	 QWORD PTR sum$[rsp], rax

; 2015 :         Py_DECREF(prod);

  00097	48 8b 4c 24 28	 mov	 rcx, QWORD PTR prod$[rsp]
  0009c	e8 00 00 00 00	 call	 _Py_DecRef

; 2016 :         return sum;

  000a1	48 8b 44 24 20	 mov	 rax, QWORD PTR sum$[rsp]
  000a6	e9 2a 02 00 00	 jmp	 $LN11@accum
$LN10@accum:

; 2017 :     }
; 2018 : 
; 2019 :     if (PyFloat_Check(num)) {

  000ab	48 8d 05 00 00
	00 00		 lea	 rax, OFFSET FLAT:PyFloat_Type
  000b2	48 8b 8c 24 80
	00 00 00	 mov	 rcx, QWORD PTR num$[rsp]
  000ba	48 39 41 58	 cmp	 QWORD PTR [rcx+88], rax
  000be	74 20		 je	 SHORT $LN7@accum
  000c0	48 8d 15 00 00
	00 00		 lea	 rdx, OFFSET FLAT:PyFloat_Type
  000c7	48 8b 84 24 80
	00 00 00	 mov	 rax, QWORD PTR num$[rsp]
  000cf	48 8b 48 58	 mov	 rcx, QWORD PTR [rax+88]
  000d3	e8 00 00 00 00	 call	 PyType_IsSubtype
