; Listing generated by Microsoft (R) Optimizing Compiler Version 16.00.40219.01 

include listing.inc

INCLUDELIB MSVCRTD
INCLUDELIB OLDNAMES

PUBLIC	??_C@_05KBBIEONE@_json?$AA@			; `string'
PUBLIC	??_C@_0L@KHOLHHPB@scanstring?$AA@		; `string'
PUBLIC	??_C@_0BI@DMGDCBIM@encode_basestring_ascii?$AA@	; `string'
PUBLIC	??_C@_0O@LGDFANJB@_json?4Encoder?$AA@		; `string'
PUBLIC	??_C@_0BG@KGHPPKCC@_current_indent_level?$AA@	; `string'
PUBLIC	??_C@_03GJLPFLNF@obj?$AA@			; `string'
PUBLIC	??_C@_09KHELABOC@allow_nan?$AA@			; `string'
PUBLIC	??_C@_0O@HCCDDMCC@_json?4Scanner?$AA@		; `string'
PUBLIC	??_C@_07JKKCBBMM@context?$AA@			; `string'
PUBLIC	??_C@_03DAKNAIGI@idx?$AA@			; `string'
PUBLIC	??_C@_06ICGJLFIM@string?$AA@			; `string'
PUBLIC	??_C@_08PFHNJENM@skipkeys?$AA@			; `string'
PUBLIC	??_C@_09DEHDAHBH@sort_keys?$AA@			; `string'
PUBLIC	??_C@_0P@HDLIMBKH@item_separator?$AA@		; `string'
PUBLIC	??_C@_0O@HOKELHBC@key_separator?$AA@		; `string'
PUBLIC	??_C@_06CHBDMLPJ@indent?$AA@			; `string'
PUBLIC	??_C@_07KLAMFGHC@encoder?$AA@			; `string'
PUBLIC	??_C@_07DLHCIBDH@default?$AA@			; `string'
PUBLIC	??_C@_07LGFKJAB@markers?$AA@			; `string'
PUBLIC	??_C@_0P@GDIKPOIP@parse_constant?$AA@		; `string'
PUBLIC	??_C@_09DPJPPPAP@parse_int?$AA@			; `string'
PUBLIC	??_C@_0M@KEFCOABD@parse_float?$AA@		; `string'
PUBLIC	??_C@_0BC@KHLDCHIO@object_pairs_hook?$AA@	; `string'
PUBLIC	??_C@_0M@LCHLLJKI@object_hook?$AA@		; `string'
PUBLIC	??_C@_06OLFOGHEN@strict?$AA@			; `string'
_BSS	SEGMENT
?sep@?1??join_list_unicode@@9@9 DQ 01H DUP (?)		; `join_list_unicode'::`2'::sep
?errmsg_fn@?1??raise_errmsg@@9@9 DQ 01H DUP (?)		; `raise_errmsg'::`2'::errmsg_fn
?s_null@?2??_encoded_const@@9@9 DQ 01H DUP (?)		; `_encoded_const'::`3'::s_null
?s_true@?4??_encoded_const@@9@9 DQ 01H DUP (?)		; `_encoded_const'::`5'::s_true
?s_false@?6??_encoded_const@@9@9 DQ 01H DUP (?)		; `_encoded_const'::`7'::s_false
?open_dict@?1??encoder_listencode_dict@@9@9 DQ 01H DUP (?) ; `encoder_listencode_dict'::`2'::open_dict
?close_dict@?1??encoder_listencode_dict@@9@9 DQ 01H DUP (?) ; `encoder_listencode_dict'::`2'::close_dict
?empty_dict@?1??encoder_listencode_dict@@9@9 DQ 01H DUP (?) ; `encoder_listencode_dict'::`2'::empty_dict
?open_array@?1??encoder_listencode_list@@9@9 DQ 01H DUP (?) ; `encoder_listencode_list'::`2'::open_array
?close_array@?1??encoder_listencode_list@@9@9 DQ 01H DUP (?) ; `encoder_listencode_list'::`2'::close_array
?empty_array@?1??encoder_listencode_list@@9@9 DQ 01H DUP (?) ; `encoder_listencode_list'::`2'::empty_array
_BSS	ENDS
;	COMDAT ??_C@_05KBBIEONE@_json?$AA@
CONST	SEGMENT
??_C@_05KBBIEONE@_json?$AA@ DB '_json', 00H		; `string'
CONST	ENDS
;	COMDAT ??_C@_0L@KHOLHHPB@scanstring?$AA@
CONST	SEGMENT
??_C@_0L@KHOLHHPB@scanstring?$AA@ DB 'scanstring', 00H	; `string'
CONST	ENDS
;	COMDAT ??_C@_0BI@DMGDCBIM@encode_basestring_ascii?$AA@
CONST	SEGMENT
??_C@_0BI@DMGDCBIM@encode_basestring_ascii?$AA@ DB 'encode_basestring_asc'
	DB	'ii', 00H					; `string'
CONST	ENDS
;	COMDAT ??_C@_0O@LGDFANJB@_json?4Encoder?$AA@
CONST	SEGMENT
??_C@_0O@LGDFANJB@_json?4Encoder?$AA@ DB '_json.Encoder', 00H ; `string'
CONST	ENDS
;	COMDAT ??_C@_0BG@KGHPPKCC@_current_indent_level?$AA@
CONST	SEGMENT
??_C@_0BG@KGHPPKCC@_current_indent_level?$AA@ DB '_current_indent_level', 00H ; `string'
CONST	ENDS
;	COMDAT ??_C@_03GJLPFLNF@obj?$AA@
CONST	SEGMENT
??_C@_03GJLPFLNF@obj?$AA@ DB 'obj', 00H			; `string'
CONST	ENDS
;	COMDAT ??_C@_09KHELABOC@allow_nan?$AA@
CONST	SEGMENT
??_C@_09KHELABOC@allow_nan?$AA@ DB 'allow_nan', 00H	; `string'
CONST	ENDS
;	COMDAT ??_C@_0O@HCCDDMCC@_json?4Scanner?$AA@
CONST	SEGMENT
??_C@_0O@HCCDDMCC@_json?4Scanner?$AA@ DB '_json.Scanner', 00H ; `string'
CONST	ENDS
;	COMDAT ??_C@_07JKKCBBMM@context?$AA@
CONST	SEGMENT
??_C@_07JKKCBBMM@context?$AA@ DB 'context', 00H		; `string'
CONST	ENDS
;	COMDAT ??_C@_03DAKNAIGI@idx?$AA@
CONST	SEGMENT
??_C@_03DAKNAIGI@idx?$AA@ DB 'idx', 00H			; `string'
CONST	ENDS
;	COMDAT ??_C@_06ICGJLFIM@string?$AA@
CONST	SEGMENT
??_C@_06ICGJLFIM@string?$AA@ DB 'string', 00H		; `string'
CONST	ENDS
;	COMDAT ??_C@_08PFHNJENM@skipkeys?$AA@
CONST	SEGMENT
??_C@_08PFHNJENM@skipkeys?$AA@ DB 'skipkeys', 00H	; `string'
CONST	ENDS
;	COMDAT ??_C@_09DEHDAHBH@sort_keys?$AA@
CONST	SEGMENT
??_C@_09DEHDAHBH@sort_keys?$AA@ DB 'sort_keys', 00H	; `string'
CONST	ENDS
;	COMDAT ??_C@_0P@HDLIMBKH@item_separator?$AA@
CONST	SEGMENT
??_C@_0P@HDLIMBKH@item_separator?$AA@ DB 'item_separator', 00H ; `string'
CONST	ENDS
;	COMDAT ??_C@_0O@HOKELHBC@key_separator?$AA@
CONST	SEGMENT
??_C@_0O@HOKELHBC@key_separator?$AA@ DB 'key_separator', 00H ; `string'
CONST	ENDS
;	COMDAT ??_C@_06CHBDMLPJ@indent?$AA@
CONST	SEGMENT
??_C@_06CHBDMLPJ@indent?$AA@ DB 'indent', 00H		; `string'
CONST	ENDS
;	COMDAT ??_C@_07KLAMFGHC@encoder?$AA@
CONST	SEGMENT
??_C@_07KLAMFGHC@encoder?$AA@ DB 'encoder', 00H		; `string'
CONST	ENDS
;	COMDAT ??_C@_07DLHCIBDH@default?$AA@
CONST	SEGMENT
??_C@_07DLHCIBDH@default?$AA@ DB 'default', 00H		; `string'
CONST	ENDS
;	COMDAT ??_C@_07LGFKJAB@markers?$AA@
CONST	SEGMENT
??_C@_07LGFKJAB@markers?$AA@ DB 'markers', 00H		; `string'
CONST	ENDS
_DATA	SEGMENT
scanner_members DQ FLAT:??_C@_06OLFOGHEN@strict?$AA@
	DD	06H
	ORG $+4
	DQ	0000000000000060H
	DD	01H
	ORG $+4
	DQ	FLAT:??_C@_06OLFOGHEN@strict?$AA@
	DQ	FLAT:??_C@_0M@LCHLLJKI@object_hook?$AA@
	DD	06H
	ORG $+4
	DQ	0000000000000068H
	DD	01H
	ORG $+4
	DQ	FLAT:??_C@_0M@LCHLLJKI@object_hook?$AA@
	DQ	FLAT:??_C@_0BC@KHLDCHIO@object_pairs_hook?$AA@
	DD	06H
	ORG $+4
	DQ	0000000000000070H
	DD	01H
	ORG $+4
	ORG $+8
	DQ	FLAT:??_C@_0M@KEFCOABD@parse_float?$AA@
	DD	06H
	ORG $+4
	DQ	0000000000000078H
	DD	01H
	ORG $+4
	DQ	FLAT:??_C@_0M@KEFCOABD@parse_float?$AA@
	DQ	FLAT:??_C@_09DPJPPPAP@parse_int?$AA@
	DD	06H
	ORG $+4
	DQ	0000000000000080H
	DD	01H
	ORG $+4
	DQ	FLAT:??_C@_09DPJPPPAP@parse_int?$AA@
	DQ	FLAT:??_C@_0P@GDIKPOIP@parse_constant?$AA@
	DD	06H
	ORG $+4
	DQ	0000000000000088H
	DD	01H
	ORG $+4
	DQ	FLAT:??_C@_0P@GDIKPOIP@parse_constant?$AA@
	DQ	0000000000000000H
	ORG $+32
?kwlist@?1??scanner_call@@9@9 DQ FLAT:??_C@_06ICGJLFIM@string?$AA@ ; `scanner_call'::`2'::kwlist
	DQ	FLAT:??_C@_03DAKNAIGI@idx?$AA@
	DQ	0000000000000000H
encoder_members DQ FLAT:??_C@_07LGFKJAB@markers?$AA@
	DD	06H
	ORG $+4
	DQ	0000000000000060H
	DD	01H
	ORG $+4
	DQ	FLAT:??_C@_07LGFKJAB@markers?$AA@
	DQ	FLAT:??_C@_07DLHCIBDH@default?$AA@
	DD	06H
	ORG $+4
	DQ	0000000000000068H
	DD	01H
	ORG $+4
	DQ	FLAT:??_C@_07DLHCIBDH@default?$AA@
	DQ	FLAT:??_C@_07KLAMFGHC@encoder?$AA@
	DD	06H
	ORG $+4
	DQ	0000000000000070H
	DD	01H
	ORG $+4
	DQ	FLAT:??_C@_07KLAMFGHC@encoder?$AA@
	DQ	FLAT:??_C@_06CHBDMLPJ@indent?$AA@
	DD	06H
	ORG $+4
	DQ	0000000000000078H
	DD	01H
	ORG $+4
	DQ	FLAT:??_C@_06CHBDMLPJ@indent?$AA@
	DQ	FLAT:??_C@_0O@HOKELHBC@key_separator?$AA@
	DD	06H
	ORG $+4
	DQ	0000000000000080H
	DD	01H
	ORG $+4
	DQ	FLAT:??_C@_0O@HOKELHBC@key_separator?$AA@
	DQ	FLAT:??_C@_0P@HDLIMBKH@item_separator?$AA@
	DD	06H
	ORG $+4
	DQ	0000000000000088H
	DD	01H
	ORG $+4
	DQ	FLAT:??_C@_0P@HDLIMBKH@item_separator?$AA@
	DQ	FLAT:??_C@_09DEHDAHBH@sort_keys?$AA@
	DD	06H
	ORG $+4
	DQ	0000000000000090H
	DD	01H
	ORG $+4
	DQ	FLAT:??_C@_09DEHDAHBH@sort_keys?$AA@
	DQ	FLAT:??_C@_08PFHNJENM@skipkeys?$AA@
	DD	06H
	ORG $+4
	DQ	0000000000000098H
	DD	01H
	ORG $+4
	DQ	FLAT:??_C@_08PFHNJENM@skipkeys?$AA@
	DQ	0000000000000000H
	ORG $+32
scanner_doc DB	'JSON scanner object', 00H
	ORG $+4
pydoc_scanstring DB 'scanstring(string, end, strict=True) -> (string, end'
	DB	')', 0aH, 0aH, 'Scan the string s for a JSON string. End is th'
	DB	'e index of the', 0aH, 'character in s after the quote that st'
	DB	'arted the JSON string.', 0aH, 'Unescapes all valid JSON strin'
	DB	'g escape sequences and raises ValueError', 0aH, 'on attempt t'
	DB	'o decode an invalid string. If strict is False then literal', 0aH
	DB	'control characters are allowed in the string.', 0aH, 0aH, 'Re'
	DB	'turns a tuple of the decoded string and the index of the char'
	DB	'acter in s', 0aH, 'after the end quote.', 00H
	ORG $+2
pydoc_encode_basestring_ascii DB 'encode_basestring_ascii(string) -> stri'
	DB	'ng', 0aH, 0aH, 'Return an ASCII-only JSON representation of a'
	DB	' Python string', 00H
	ORG $+1
?kwlist@?1??scanner_init@@9@9 DQ FLAT:??_C@_07JKKCBBMM@context?$AA@ ; `scanner_init'::`2'::kwlist
	DQ	0000000000000000H
	ORG $+8
PyScannerType DQ dead1234beef5678H
	DQ	dead1234beef5678H
	DQ	0000000000000000H
	ORG $+8
	DQ	0000000000000001H
	DQ	0000000000000000H
	DQ	0000000000000000H
	DQ	0000000000000000H
	DQ	dead1234beef5678H
	DQ	dead1234beef5678H
	DQ	0000000000000001H
	DQ	0000000000000000H
	DQ	0000000000000000H
	ORG $+8
	DQ	FLAT:??_C@_0O@HCCDDMCC@_json?4Scanner?$AA@
	DQ	00000000000000a0H
	DQ	0000000000000000H
	DQ	FLAT:scanner_dealloc
	DQ	0000000000000000H
	DQ	0000000000000000H
	DQ	0000000000000000H
	DQ	0000000000000000H
	DQ	0000000000000000H
	DQ	0000000000000000H
	DQ	0000000000000000H
	DQ	0000000000000000H
	DQ	0000000000000000H
	DQ	FLAT:scanner_call
	DQ	0000000000000000H
	DQ	0000000000000000H
	DQ	0000000000000000H
	DQ	0000000000000000H
	DD	044000H
	ORG $+4
	DQ	FLAT:scanner_doc
	DQ	FLAT:scanner_traverse
	DQ	FLAT:scanner_clear
	DQ	0000000000000000H
	DQ	0000000000000000H
	DQ	0000000000000000H
	DQ	0000000000000000H
	DQ	0000000000000000H
	DQ	FLAT:scanner_members
	DQ	0000000000000000H
	DQ	0000000000000000H
	DQ	0000000000000000H
	DQ	0000000000000000H
	DQ	0000000000000000H
	DQ	0000000000000000H
	DQ	FLAT:scanner_init
	DQ	0000000000000000H
	DQ	FLAT:scanner_new
	DQ	0000000000000000H
	ORG $+64
?kwlist@?1??encoder_init@@9@9 DQ FLAT:??_C@_07LGFKJAB@markers?$AA@ ; `encoder_init'::`2'::kwlist
	DQ	FLAT:??_C@_07DLHCIBDH@default?$AA@
	DQ	FLAT:??_C@_07KLAMFGHC@encoder?$AA@
	DQ	FLAT:??_C@_06CHBDMLPJ@indent?$AA@
	DQ	FLAT:??_C@_0O@HOKELHBC@key_separator?$AA@
	DQ	FLAT:??_C@_0P@HDLIMBKH@item_separator?$AA@
	DQ	FLAT:??_C@_09DEHDAHBH@sort_keys?$AA@
	DQ	FLAT:??_C@_08PFHNJENM@skipkeys?$AA@
	DQ	FLAT:??_C@_09KHELABOC@allow_nan?$AA@
	DQ	0000000000000000H
?kwlist@?1??encoder_call@@9@9 DQ FLAT:??_C@_03GJLPFLNF@obj?$AA@ ; `encoder_call'::`2'::kwlist
	DQ	FLAT:??_C@_0BG@KGHPPKCC@_current_indent_level?$AA@
	DQ	0000000000000000H
encoder_doc DB	'_iterencode(obj, _current_indent_level) -> iterable', 00H
	ORG $+4
PyEncoderType DQ dead1234beef5678H
	DQ	dead1234beef5678H
	DQ	0000000000000000H
	ORG $+8
	DQ	0000000000000001H
	DQ	0000000000000000H
	DQ	0000000000000000H
	DQ	0000000000000000H
	DQ	dead1234beef5678H
	DQ	dead1234beef5678H
	DQ	0000000000000001H
	DQ	0000000000000000H
	DQ	0000000000000000H
	ORG $+8
	DQ	FLAT:??_C@_0O@LGDFANJB@_json?4Encoder?$AA@
	DQ	00000000000000b0H
	DQ	0000000000000000H
	DQ	FLAT:encoder_dealloc
	DQ	0000000000000000H
	DQ	0000000000000000H
	DQ	0000000000000000H
	DQ	0000000000000000H
	DQ	0000000000000000H
	DQ	0000000000000000H
	DQ	0000000000000000H
	DQ	0000000000000000H
	DQ	0000000000000000H
	DQ	FLAT:encoder_call
	DQ	0000000000000000H
	DQ	0000000000000000H
	DQ	0000000000000000H
	DQ	0000000000000000H
	DD	044000H
	ORG $+4
	DQ	FLAT:encoder_doc
	DQ	FLAT:encoder_traverse
	DQ	FLAT:encoder_clear
	DQ	0000000000000000H
	DQ	0000000000000000H
	DQ	0000000000000000H
	DQ	0000000000000000H
	DQ	0000000000000000H
	DQ	FLAT:encoder_members
	DQ	0000000000000000H
	DQ	0000000000000000H
	DQ	0000000000000000H
	DQ	0000000000000000H
	DQ	0000000000000000H
	DQ	0000000000000000H
	DQ	FLAT:encoder_init
	DQ	0000000000000000H
	DQ	FLAT:encoder_new
	DQ	0000000000000000H
	ORG $+64
speedups_methods DQ FLAT:??_C@_0BI@DMGDCBIM@encode_basestring_ascii?$AA@
	DQ	FLAT:py_encode_basestring_ascii
	DD	08H
	ORG $+4
	DQ	FLAT:pydoc_encode_basestring_ascii
	DQ	FLAT:??_C@_0L@KHOLHHPB@scanstring?$AA@
	DQ	FLAT:py_scanstring
	DD	01H
	ORG $+4
	DQ	FLAT:pydoc_scanstring
	DQ	0000000000000000H
	DQ	0000000000000000H
	DD	00H
	ORG $+4
	DQ	0000000000000000H
module_doc DB	'json speedups', 0aH, 00H
	ORG $+1
jsonmodule DQ	dead1234beef5678H
	DQ	dead1234beef5678H
	DQ	0000000000000000H
	ORG $+8
	DQ	0000000000000001H
	DQ	0000000000000000H
	DQ	0000000000000000H
	DQ	0000000000000000H
	DQ	dead1234beef5678H
	DQ	dead1234beef5678H
	DQ	0000000000000001H
	DQ	0000000000000000H
	DQ	0000000000000000H
	DQ	0000000000000000H
	DQ	0000000000000000H
	ORG $+8
	DQ	FLAT:??_C@_05KBBIEONE@_json?$AA@
	DQ	FLAT:module_doc
	DQ	ffffffffffffffffH
	DQ	FLAT:speedups_methods
	DQ	0000000000000000H
	DQ	0000000000000000H
	DQ	0000000000000000H
	DQ	0000000000000000H
_DATA	ENDS
;	COMDAT ??_C@_0P@GDIKPOIP@parse_constant?$AA@
CONST	SEGMENT
??_C@_0P@GDIKPOIP@parse_constant?$AA@ DB 'parse_constant', 00H ; `string'
CONST	ENDS
;	COMDAT ??_C@_09DPJPPPAP@parse_int?$AA@
CONST	SEGMENT
??_C@_09DPJPPPAP@parse_int?$AA@ DB 'parse_int', 00H	; `string'
CONST	ENDS
;	COMDAT ??_C@_0M@KEFCOABD@parse_float?$AA@
CONST	SEGMENT
??_C@_0M@KEFCOABD@parse_float?$AA@ DB 'parse_float', 00H ; `string'
CONST	ENDS
;	COMDAT ??_C@_0BC@KHLDCHIO@object_pairs_hook?$AA@
CONST	SEGMENT
??_C@_0BC@KHLDCHIO@object_pairs_hook?$AA@ DB 'object_pairs_hook', 00H ; `string'
CONST	ENDS
;	COMDAT ??_C@_0M@LCHLLJKI@object_hook?$AA@
CONST	SEGMENT
??_C@_0M@LCHLLJKI@object_hook?$AA@ DB 'object_hook', 00H ; `string'
CONST	ENDS
;	COMDAT ??_C@_06OLFOGHEN@strict?$AA@
CONST	SEGMENT
??_C@_06OLFOGHEN@strict?$AA@ DB 'strict', 00H		; `string'
CONST	ENDS
PUBLIC	??_C@_0CL@OIEJEOOL@first?5argument?5must?5be?5a?5string?0@ ; `string'
PUBLIC	??_C@_0BB@CDAODGJG@OO?$CG?$HMi?3scanstring?$AA@	; `string'
EXTRN	PyErr_Format:PROC
EXTRN	PyExc_TypeError:QWORD
EXTRN	PyArg_ParseTuple:PROC
;	COMDAT pdata
; File c:\src\pyparallel\modules\_json.c
pdata	SEGMENT
$pdata$py_scanstring DD imagerel py_scanstring
	DD	imagerel py_scanstring+200
	DD	imagerel $unwind$py_scanstring
pdata	ENDS
;	COMDAT xdata
xdata	SEGMENT
$unwind$py_scanstring DD 010e01H
	DD	0c20eH
xdata	ENDS
;	COMDAT ??_C@_0CL@OIEJEOOL@first?5argument?5must?5be?5a?5string?0@
CONST	SEGMENT
??_C@_0CL@OIEJEOOL@first?5argument?5must?5be?5a?5string?0@ DB 'first argu'
	DB	'ment must be a string, not %.80s', 00H	; `string'
CONST	ENDS
;	COMDAT ??_C@_0BB@CDAODGJG@OO?$CG?$HMi?3scanstring?$AA@
CONST	SEGMENT
??_C@_0BB@CDAODGJG@OO?$CG?$HMi?3scanstring?$AA@ DB 'OO&|i:scanstring', 00H ; `string'
; Function compile flags: /Odtp
CONST	ENDS
;	COMDAT py_scanstring
_TEXT	SEGMENT
rval$ = 48
strict$ = 56
pystr$ = 64
end$ = 72
next_end$ = 80
self$ = 112
args$ = 120
py_scanstring PROC					; COMDAT

; 512  : {

  00000	48 89 54 24 10	 mov	 QWORD PTR [rsp+16], rdx
  00005	48 89 4c 24 08	 mov	 QWORD PTR [rsp+8], rcx
  0000a	48 83 ec 68	 sub	 rsp, 104		; 00000068H

; 513  :     PyObject *pystr;
; 514  :     PyObject *rval;
; 515  :     Py_ssize_t end;
; 516  :     Py_ssize_t next_end = -1;

  0000e	48 c7 44 24 50
	ff ff ff ff	 mov	 QWORD PTR next_end$[rsp], -1

; 517  :     int strict = 1;

  00017	c7 44 24 38 01
	00 00 00	 mov	 DWORD PTR strict$[rsp], 1

; 518  :     if (!PyArg_ParseTuple(args, "OO&|i:scanstring", &pystr, _convertPyInt_AsSsize_t, &end, &strict)) {

  0001f	48 8d 44 24 38	 lea	 rax, QWORD PTR strict$[rsp]
  00024	48 89 44 24 28	 mov	 QWORD PTR [rsp+40], rax
  00029	48 8d 44 24 48	 lea	 rax, QWORD PTR end$[rsp]
  0002e	48 89 44 24 20	 mov	 QWORD PTR [rsp+32], rax
  00033	4c 8d 0d 00 00
	00 00		 lea	 r9, OFFSET FLAT:_convertPyInt_AsSsize_t
  0003a	4c 8d 44 24 40	 lea	 r8, QWORD PTR pystr$[rsp]
  0003f	48 8d 15 00 00
	00 00		 lea	 rdx, OFFSET FLAT:??_C@_0BB@CDAODGJG@OO?$CG?$HMi?3scanstring?$AA@
  00046	48 8b 4c 24 78	 mov	 rcx, QWORD PTR args$[rsp]
  0004b	e8 00 00 00 00	 call	 PyArg_ParseTuple
  00050	85 c0		 test	 eax, eax
  00052	75 04		 jne	 SHORT $LN3@py_scanstr

; 519  :         return NULL;

  00054	33 c0		 xor	 eax, eax
  00056	eb 6b		 jmp	 SHORT $LN4@py_scanstr
$LN3@py_scanstr:

; 520  :     }
; 521  :     if (PyUnicode_Check(pystr)) {

  00058	48 8b 44 24 40	 mov	 rax, QWORD PTR pystr$[rsp]
  0005d	48 8b 40 58	 mov	 rax, QWORD PTR [rax+88]
  00061	8b 80 00 01 00
	00		 mov	 eax, DWORD PTR [rax+256]
  00067	25 00 00 00 10	 and	 eax, 268435456		; 10000000H
  0006c	85 c0		 test	 eax, eax
  0006e	74 20		 je	 SHORT $LN2@py_scanstr

; 522  :         rval = scanstring_unicode(pystr, end, strict, &next_end);

  00070	4c 8d 4c 24 50	 lea	 r9, QWORD PTR next_end$[rsp]
  00075	44 8b 44 24 38	 mov	 r8d, DWORD PTR strict$[rsp]
  0007a	48 8b 54 24 48	 mov	 rdx, QWORD PTR end$[rsp]
  0007f	48 8b 4c 24 40	 mov	 rcx, QWORD PTR pystr$[rsp]
  00084	e8 00 00 00 00	 call	 scanstring_unicode
  00089	48 89 44 24 30	 mov	 QWORD PTR rval$[rsp], rax

; 523  :     }
; 524  :     else {

  0008e	eb 24		 jmp	 SHORT $LN1@py_scanstr
$LN2@py_scanstr:

; 525  :         PyErr_Format(PyExc_TypeError,
; 526  :                      "first argument must be a string, not %.80s",
; 527  :                      Py_TYPE(pystr)->tp_name);

  00090	48 8b 44 24 40	 mov	 rax, QWORD PTR pystr$[rsp]
  00095	48 8b 40 58	 mov	 rax, QWORD PTR [rax+88]
  00099	4c 8b 40 70	 mov	 r8, QWORD PTR [rax+112]
  0009d	48 8d 15 00 00
	00 00		 lea	 rdx, OFFSET FLAT:??_C@_0CL@OIEJEOOL@first?5argument?5must?5be?5a?5string?0@
  000a4	48 8b 0d 00 00
	00 00		 mov	 rcx, QWORD PTR PyExc_TypeError
  000ab	e8 00 00 00 00	 call	 PyErr_Format

; 528  :         return NULL;

  000b0	33 c0		 xor	 eax, eax
  000b2	eb 0f		 jmp	 SHORT $LN4@py_scanstr
$LN1@py_scanstr:

; 529  :     }
; 530  :     return _build_rval_index_tuple(rval, next_end);

  000b4	48 8b 54 24 50	 mov	 rdx, QWORD PTR next_end$[rsp]
  000b9	48 8b 4c 24 30	 mov	 rcx, QWORD PTR rval$[rsp]
  000be	e8 00 00 00 00	 call	 _build_rval_index_tuple
$LN4@py_scanstr:

; 531  : }

  000c3	48 83 c4 68	 add	 rsp, 104		; 00000068H
  000c7	c3		 ret	 0
py_scanstring ENDP
_TEXT	ENDS
EXTRN	PyErr_Occurred:PROC
EXTRN	PyLong_AsSsize_t:PROC
;	COMDAT pdata
pdata	SEGMENT
$pdata$_convertPyInt_AsSsize_t DD imagerel _convertPyInt_AsSsize_t
	DD	imagerel _convertPyInt_AsSsize_t+67
	DD	imagerel $unwind$_convertPyInt_AsSsize_t
pdata	ENDS
;	COMDAT xdata
xdata	SEGMENT
$unwind$_convertPyInt_AsSsize_t DD 010e01H
	DD	0420eH
; Function compile flags: /Odtp
xdata	ENDS
;	COMDAT _convertPyInt_AsSsize_t
_TEXT	SEGMENT
o$ = 48
size_ptr$ = 56
_convertPyInt_AsSsize_t PROC				; COMDAT

; 144  : {

  00000	48 89 54 24 10	 mov	 QWORD PTR [rsp+16], rdx
  00005	48 89 4c 24 08	 mov	 QWORD PTR [rsp+8], rcx
  0000a	48 83 ec 28	 sub	 rsp, 40			; 00000028H

; 145  :     /* PyObject to Py_ssize_t converter */
; 146  :     *size_ptr = PyLong_AsSsize_t(o);

  0000e	48 8b 4c 24 30	 mov	 rcx, QWORD PTR o$[rsp]
  00013	e8 00 00 00 00	 call	 PyLong_AsSsize_t
  00018	48 8b 4c 24 38	 mov	 rcx, QWORD PTR size_ptr$[rsp]
  0001d	48 89 01	 mov	 QWORD PTR [rcx], rax

; 147  :     if (*size_ptr == -1 && PyErr_Occurred())

  00020	48 8b 44 24 38	 mov	 rax, QWORD PTR size_ptr$[rsp]
  00025	48 83 38 ff	 cmp	 QWORD PTR [rax], -1
  00029	75 0e		 jne	 SHORT $LN1@convertPyI
  0002b	e8 00 00 00 00	 call	 PyErr_Occurred
  00030	48 85 c0	 test	 rax, rax
  00033	74 04		 je	 SHORT $LN1@convertPyI

; 148  :         return 0;

  00035	33 c0		 xor	 eax, eax
  00037	eb 05		 jmp	 SHORT $LN2@convertPyI
$LN1@convertPyI:

; 149  :     return 1;

  00039	b8 01 00 00 00	 mov	 eax, 1
$LN2@convertPyI:

; 150  : }

  0003e	48 83 c4 28	 add	 rsp, 40			; 00000028H
  00042	c3		 ret	 0
_convertPyInt_AsSsize_t ENDP
_TEXT	ENDS
PUBLIC	_Py_DecRef
EXTRN	PyTuple_New:PROC
EXTRN	PyLong_FromSsize_t:PROC
;	COMDAT pdata
pdata	SEGMENT
$pdata$_build_rval_index_tuple DD imagerel _build_rval_index_tuple
	DD	imagerel _build_rval_index_tuple+148
	DD	imagerel $unwind$_build_rval_index_tuple
pdata	ENDS
;	COMDAT xdata
xdata	SEGMENT
$unwind$_build_rval_index_tuple DD 010e01H
	DD	0620eH
; Function compile flags: /Odtp
xdata	ENDS
;	COMDAT _build_rval_index_tuple
_TEXT	SEGMENT
tpl$ = 32
pyidx$ = 40
rval$ = 64
idx$ = 72
_build_rval_index_tuple PROC				; COMDAT

; 279  : _build_rval_index_tuple(PyObject *rval, Py_ssize_t idx) {

  00000	48 89 54 24 10	 mov	 QWORD PTR [rsp+16], rdx
  00005	48 89 4c 24 08	 mov	 QWORD PTR [rsp+8], rcx
  0000a	48 83 ec 38	 sub	 rsp, 56			; 00000038H

; 280  :     /* return (rval, idx) tuple, stealing reference to rval */
; 281  :     PyObject *tpl;
; 282  :     PyObject *pyidx;
; 283  :     /*
; 284  :     steal a reference to rval, returns (rval, idx)
; 285  :     */
; 286  :     if (rval == NULL) {

  0000e	48 83 7c 24 40
	00		 cmp	 QWORD PTR rval$[rsp], 0
  00014	75 04		 jne	 SHORT $LN3@build_rval

; 287  :         return NULL;

  00016	33 c0		 xor	 eax, eax
  00018	eb 75		 jmp	 SHORT $LN4@build_rval
$LN3@build_rval:

; 288  :     }
; 289  :     pyidx = PyLong_FromSsize_t(idx);

  0001a	48 8b 4c 24 48	 mov	 rcx, QWORD PTR idx$[rsp]
  0001f	e8 00 00 00 00	 call	 PyLong_FromSsize_t
  00024	48 89 44 24 28	 mov	 QWORD PTR pyidx$[rsp], rax

; 290  :     if (pyidx == NULL) {

  00029	48 83 7c 24 28
	00		 cmp	 QWORD PTR pyidx$[rsp], 0
  0002f	75 0e		 jne	 SHORT $LN2@build_rval

; 291  :         Py_DECREF(rval);

  00031	48 8b 4c 24 40	 mov	 rcx, QWORD PTR rval$[rsp]
  00036	e8 00 00 00 00	 call	 _Py_DecRef

; 292  :         return NULL;

  0003b	33 c0		 xor	 eax, eax
  0003d	eb 50		 jmp	 SHORT $LN4@build_rval
$LN2@build_rval:

; 293  :     }
; 294  :     tpl = PyTuple_New(2);

  0003f	b9 02 00 00 00	 mov	 ecx, 2
  00044	e8 00 00 00 00	 call	 PyTuple_New
  00049	48 89 44 24 20	 mov	 QWORD PTR tpl$[rsp], rax

; 295  :     if (tpl == NULL) {

  0004e	48 83 7c 24 20
	00		 cmp	 QWORD PTR tpl$[rsp], 0
  00054	75 18		 jne	 SHORT $LN1@build_rval

; 296  :         Py_DECREF(pyidx);

  00056	48 8b 4c 24 28	 mov	 rcx, QWORD PTR pyidx$[rsp]
  0005b	e8 00 00 00 00	 call	 _Py_DecRef

; 297  :         Py_DECREF(rval);

  00060	48 8b 4c 24 40	 mov	 rcx, QWORD PTR rval$[rsp]
  00065	e8 00 00 00 00	 call	 _Py_DecRef

; 298  :         return NULL;

  0006a	33 c0		 xor	 eax, eax
  0006c	eb 21		 jmp	 SHORT $LN4@build_rval
$LN1@build_rval:

; 299  :     }
; 300  :     PyTuple_SET_ITEM(tpl, 0, rval);

  0006e	48 8b 44 24 20	 mov	 rax, QWORD PTR tpl$[rsp]
  00073	48 8b 4c 24 40	 mov	 rcx, QWORD PTR rval$[rsp]
  00078	48 89 48 70	 mov	 QWORD PTR [rax+112], rcx

; 301  :     PyTuple_SET_ITEM(tpl, 1, pyidx);

  0007c	48 8b 44 24 20	 mov	 rax, QWORD PTR tpl$[rsp]
  00081	48 8b 4c 24 28	 mov	 rcx, QWORD PTR pyidx$[rsp]
  00086	48 89 48 78	 mov	 QWORD PTR [rax+120], rcx

; 302  :     return tpl;

  0008a	48 8b 44 24 20	 mov	 rax, QWORD PTR tpl$[rsp]
$LN4@build_rval:

; 303  : }

  0008f	48 83 c4 38	 add	 rsp, 56			; 00000038H
  00093	c3		 ret	 0
_build_rval_index_tuple ENDP
_TEXT	ENDS
PUBLIC	??_C@_0L@DMHMLFIA@_Py_DecRef?$AA@		; `string'
PUBLIC	??_C@_0CD@HDJFDCDP@c?3?2src?2pyparallel?2include?2object@ ; `string'
EXTRN	_Py_Dealloc:PROC
EXTRN	_Py_NegativeRefcount:PROC
EXTRN	_PyParallel_Guard:PROC
EXTRN	_Py_RefTotal:QWORD
EXTRN	Px_DecRef:PROC
EXTRN	_Py_PXCTX:PROC
;	COMDAT pdata
; File c:\src\pyparallel\include\object.h
pdata	SEGMENT
$pdata$_Py_DecRef DD imagerel $LN13
	DD	imagerel $LN13+257
	DD	imagerel $unwind$_Py_DecRef
pdata	ENDS
;	COMDAT xdata
xdata	SEGMENT
$unwind$_Py_DecRef DD 010901H
	DD	08209H
xdata	ENDS
;	COMDAT ??_C@_0L@DMHMLFIA@_Py_DecRef?$AA@
CONST	SEGMENT
??_C@_0L@DMHMLFIA@_Py_DecRef?$AA@ DB '_Py_DecRef', 00H	; `string'
CONST	ENDS
;	COMDAT ??_C@_0CD@HDJFDCDP@c?3?2src?2pyparallel?2include?2object@
CONST	SEGMENT
??_C@_0CD@HDJFDCDP@c?3?2src?2pyparallel?2include?2object@ DB 'c:\src\pypa'
	DB	'rallel\include\object.h', 00H		; `string'
; Function compile flags: /Odtp
CONST	ENDS
;	COMDAT _Py_DecRef
_TEXT	SEGMENT
tv81 = 48
op$ = 80
_Py_DecRef PROC						; COMDAT

; 923  : {

$LN13:
  00000	48 89 4c 24 08	 mov	 QWORD PTR [rsp+8], rcx
  00005	48 83 ec 48	 sub	 rsp, 72			; 00000048H

; 924  :     if (!Py_PXCTX) {

  00009	e8 00 00 00 00	 call	 _Py_PXCTX
  0000e	85 c0		 test	 eax, eax
  00010	0f 85 e6 00 00
	00		 jne	 $LN8@Py_DecRef

; 925  :         if (Px_PERSISTED(op) || Px_CLONED(op))

  00016	48 8b 44 24 50	 mov	 rax, QWORD PTR op$[rsp]
  0001b	48 8b 40 20	 mov	 rax, QWORD PTR [rax+32]
  0001f	48 83 e0 20	 and	 rax, 32			; 00000020H
  00023	48 85 c0	 test	 rax, rax
  00026	75 14		 jne	 SHORT $LN6@Py_DecRef
  00028	48 8b 44 24 50	 mov	 rax, QWORD PTR op$[rsp]
  0002d	48 8b 40 20	 mov	 rax, QWORD PTR [rax+32]
  00031	48 25 80 00 00
	00		 and	 rax, 128		; 00000080H
  00037	48 85 c0	 test	 rax, rax
  0003a	74 0f		 je	 SHORT $LN7@Py_DecRef
$LN6@Py_DecRef:

; 926  :             Px_DECREF(op);

  0003c	48 8b 4c 24 50	 mov	 rcx, QWORD PTR op$[rsp]
  00041	e8 00 00 00 00	 call	 Px_DecRef
  00046	e9 b1 00 00 00	 jmp	 $LN5@Py_DecRef
$LN7@Py_DecRef:

; 927  :         else if (!Px_ISPX(op)) {

  0004b	48 8b 44 24 50	 mov	 rax, QWORD PTR op$[rsp]
  00050	48 8b 40 20	 mov	 rax, QWORD PTR [rax+32]
  00054	48 83 e0 02	 and	 rax, 2
  00058	48 85 c0	 test	 rax, rax
  0005b	0f 85 9b 00 00
	00		 jne	 $LN4@Py_DecRef

; 928  :             _Py_DEC_REFTOTAL;

  00061	e8 00 00 00 00	 call	 _Py_PXCTX
  00066	85 c0		 test	 eax, eax
  00068	74 02		 je	 SHORT $LN11@Py_DecRef
  0006a	eb 11		 jmp	 SHORT $LN12@Py_DecRef
$LN11@Py_DecRef:
  0006c	48 8b 05 00 00
	00 00		 mov	 rax, QWORD PTR _Py_RefTotal
  00073	48 ff c8	 dec	 rax
  00076	48 89 05 00 00
	00 00		 mov	 QWORD PTR _Py_RefTotal, rax
$LN12@Py_DecRef:

; 929  :             if ((--((PyObject *)(op))->ob_refcnt) != 0) {

  0007d	48 8b 44 24 50	 mov	 rax, QWORD PTR op$[rsp]
  00082	48 8b 40 50	 mov	 rax, QWORD PTR [rax+80]
  00086	48 ff c8	 dec	 rax
  00089	48 89 44 24 30	 mov	 QWORD PTR tv81[rsp], rax
  0008e	48 8b 44 24 50	 mov	 rax, QWORD PTR op$[rsp]
  00093	48 8b 4c 24 30	 mov	 rcx, QWORD PTR tv81[rsp]
  00098	48 89 48 50	 mov	 QWORD PTR [rax+80], rcx
  0009c	48 83 7c 24 30
	00		 cmp	 QWORD PTR tv81[rsp], 0
  000a2	74 4e		 je	 SHORT $LN3@Py_DecRef

; 930  :                 _Py_CHECK_REFCNT(op);

  000a4	c7 44 24 20 10
	00 00 00	 mov	 DWORD PTR [rsp+32], 16
  000ac	4c 8b 4c 24 50	 mov	 r9, QWORD PTR op$[rsp]
  000b1	41 b8 a2 03 00
	00		 mov	 r8d, 930		; 000003a2H
  000b7	48 8d 15 00 00
	00 00		 lea	 rdx, OFFSET FLAT:??_C@_0CD@HDJFDCDP@c?3?2src?2pyparallel?2include?2object@
  000be	48 8d 0d 00 00
	00 00		 lea	 rcx, OFFSET FLAT:??_C@_0L@DMHMLFIA@_Py_DecRef?$AA@
  000c5	e8 00 00 00 00	 call	 _PyParallel_Guard
  000ca	85 c0		 test	 eax, eax
  000cc	75 22		 jne	 SHORT $LN2@Py_DecRef
  000ce	48 8b 44 24 50	 mov	 rax, QWORD PTR op$[rsp]
  000d3	48 83 78 50 00	 cmp	 QWORD PTR [rax+80], 0
  000d8	7d 16		 jge	 SHORT $LN2@Py_DecRef
  000da	4c 8b 44 24 50	 mov	 r8, QWORD PTR op$[rsp]
  000df	ba a2 03 00 00	 mov	 edx, 930		; 000003a2H
  000e4	48 8d 0d 00 00
	00 00		 lea	 rcx, OFFSET FLAT:??_C@_0CD@HDJFDCDP@c?3?2src?2pyparallel?2include?2object@
  000eb	e8 00 00 00 00	 call	 _Py_NegativeRefcount
$LN2@Py_DecRef:

; 931  :             } else

  000f0	eb 0a		 jmp	 SHORT $LN1@Py_DecRef
$LN3@Py_DecRef:

; 932  :                 _Py_Dealloc((PyObject *)(op));

  000f2	48 8b 4c 24 50	 mov	 rcx, QWORD PTR op$[rsp]
  000f7	e8 00 00 00 00	 call	 _Py_Dealloc
$LN1@Py_DecRef:
$LN4@Py_DecRef:
$LN5@Py_DecRef:
$LN8@Py_DecRef:

; 933  :         }
; 934  :     }
; 935  : }

  000fc	48 83 c4 48	 add	 rsp, 72			; 00000048H
  00100	c3		 ret	 0
_Py_DecRef ENDP
_TEXT	ENDS
PUBLIC	??_C@_00CNPNBAHC@?$AA@				; `string'
PUBLIC	??_C@_0BG@HFBFLOEL@Invalid?5?2uXXXX?5escape?$AA@ ; `string'
PUBLIC	??_C@_0BA@JFDKNFEA@Invalid?5?2escape?$AA@	; `string'
PUBLIC	??_C@_0BD@PDCADMBJ@scanstring_unicode?$AA@	; `string'
PUBLIC	??_C@_0BD@BIGPLMIN@?4?4?2Modules?2_json?4c?$AA@	; `string'
PUBLIC	??_C@_0CA@GLFFIBAO@Unterminated?5string?5starting?5at?$AA@ ; `string'
PUBLIC	??_C@_0BN@KFIIHLME@Invalid?5control?5character?5at?$AA@ ; `string'
PUBLIC	??_C@_0BF@LLLKOJNO@end?5is?5out?5of?5bounds?$AA@ ; `string'
PUBLIC	??_C@_1EM@FMOHIEKB@?$AA?$CI?$AA?$CI?$AAP?$AAy?$AAU?$AAn?$AAi?$AAc?$AAo?$AAd?$AAe?$AAO?$AAb?$AAj?$AAe?$AAc?$AAt?$AA?$CK?$AA?$CJ?$AA?$CI?$AAp?$AAy?$AAs?$AAt?$AAr?$AA?$CJ?$AA?$CJ?$AA?9?$AA?$DO?$AAd?$AAa?$AAt@ ; `string'
PUBLIC	??_C@_1DE@NACFPDOF@?$AAP?$AAy?$AAU?$AAn?$AAi?$AAc?$AAo?$AAd?$AAe?$AA_?$AAI?$AAS?$AA_?$AAR?$AAE?$AAA?$AAD?$AAY?$AA?$CI?$AAp?$AAy?$AAs?$AAt?$AAr?$AA?$CJ?$AA?$AA@ ; `string'
PUBLIC	??_C@_1CO@GLPHKNNN@?$AAP?$AAy?$AAU?$AAn?$AAi?$AAc?$AAo?$AAd?$AAe?$AA_?$AAC?$AAh?$AAe?$AAc?$AAk?$AA?$CI?$AAp?$AAy?$AAs?$AAt?$AAr?$AA?$CJ?$AA?$AA@ ; `string'
PUBLIC	??_C@_1CG@KOELJAMM@?$AA?4?$AA?4?$AA?2?$AAM?$AAo?$AAd?$AAu?$AAl?$AAe?$AAs?$AA?2?$AA_?$AAj?$AAs?$AAo?$AAn?$AA?4?$AAc?$AA?$AA@ ; `string'
EXTRN	PyUnicode_FromStringAndSize:PROC
EXTRN	__ImageBase:BYTE
EXTRN	PyUnicode_FromKindAndData:PROC
EXTRN	PyList_Append:PROC
EXTRN	PyList_New:PROC
EXTRN	PyErr_SetString:PROC
EXTRN	PyExc_ValueError:QWORD
EXTRN	_PyUnicode_Ready:PROC
EXTRN	__imp__wassert:PROC
;	COMDAT pdata
; File c:\src\pyparallel\modules\_json.c
pdata	SEGMENT
$pdata$scanstring_unicode DD imagerel scanstring_unicode
	DD	imagerel scanstring_unicode+3995
	DD	imagerel $unwind$scanstring_unicode
pdata	ENDS
;	COMDAT xdata
xdata	SEGMENT
$unwind$scanstring_unicode DD 021b01H
	DD	021011bH
xdata	ENDS
;	COMDAT ??_C@_00CNPNBAHC@?$AA@
CONST	SEGMENT
??_C@_00CNPNBAHC@?$AA@ DB 00H				; `string'
CONST	ENDS
;	COMDAT ??_C@_0BG@HFBFLOEL@Invalid?5?2uXXXX?5escape?$AA@
CONST	SEGMENT
??_C@_0BG@HFBFLOEL@Invalid?5?2uXXXX?5escape?$AA@ DB 'Invalid \uXXXX escap'
	DB	'e', 00H					; `string'
CONST	ENDS
;	COMDAT ??_C@_0BA@JFDKNFEA@Invalid?5?2escape?$AA@
CONST	SEGMENT
??_C@_0BA@JFDKNFEA@Invalid?5?2escape?$AA@ DB 'Invalid \escape', 00H ; `string'
CONST	ENDS
;	COMDAT ??_C@_0BD@PDCADMBJ@scanstring_unicode?$AA@
CONST	SEGMENT
??_C@_0BD@PDCADMBJ@scanstring_unicode?$AA@ DB 'scanstring_unicode', 00H ; `string'
CONST	ENDS
;	COMDAT ??_C@_0BD@BIGPLMIN@?4?4?2Modules?2_json?4c?$AA@
CONST	SEGMENT
??_C@_0BD@BIGPLMIN@?4?4?2Modules?2_json?4c?$AA@ DB '..\Modules\_json.c', 00H ; `string'
CONST	ENDS
;	COMDAT ??_C@_0CA@GLFFIBAO@Unterminated?5string?5starting?5at?$AA@
CONST	SEGMENT
??_C@_0CA@GLFFIBAO@Unterminated?5string?5starting?5at?$AA@ DB 'Unterminat'
	DB	'ed string starting at', 00H			; `string'
CONST	ENDS
;	COMDAT ??_C@_0BN@KFIIHLME@Invalid?5control?5character?5at?$AA@
CONST	SEGMENT
??_C@_0BN@KFIIHLME@Invalid?5control?5character?5at?$AA@ DB 'Invalid contr'
	DB	'ol character at', 00H			; `string'
CONST	ENDS
;	COMDAT ??_C@_0BF@LLLKOJNO@end?5is?5out?5of?5bounds?$AA@
CONST	SEGMENT
??_C@_0BF@LLLKOJNO@end?5is?5out?5of?5bounds?$AA@ DB 'end is out of bounds'
	DB	00H						; `string'
CONST	ENDS
;	COMDAT ??_C@_1EM@FMOHIEKB@?$AA?$CI?$AA?$CI?$AAP?$AAy?$AAU?$AAn?$AAi?$AAc?$AAo?$AAd?$AAe?$AAO?$AAb?$AAj?$AAe?$AAc?$AAt?$AA?$CK?$AA?$CJ?$AA?$CI?$AAp?$AAy?$AAs?$AAt?$AAr?$AA?$CJ?$AA?$CJ?$AA?9?$AA?$DO?$AAd?$AAa?$AAt@
CONST	SEGMENT
??_C@_1EM@FMOHIEKB@?$AA?$CI?$AA?$CI?$AAP?$AAy?$AAU?$AAn?$AAi?$AAc?$AAo?$AAd?$AAe?$AAO?$AAb?$AAj?$AAe?$AAc?$AAt?$AA?$CK?$AA?$CJ?$AA?$CI?$AAp?$AAy?$AAs?$AAt?$AAr?$AA?$CJ?$AA?$CJ?$AA?9?$AA?$DO?$AAd?$AAa?$AAt@ DB '('
	DB	00H, '(', 00H, 'P', 00H, 'y', 00H, 'U', 00H, 'n', 00H, 'i', 00H
	DB	'c', 00H, 'o', 00H, 'd', 00H, 'e', 00H, 'O', 00H, 'b', 00H, 'j'
	DB	00H, 'e', 00H, 'c', 00H, 't', 00H, '*', 00H, ')', 00H, '(', 00H
	DB	'p', 00H, 'y', 00H, 's', 00H, 't', 00H, 'r', 00H, ')', 00H, ')'
	DB	00H, '-', 00H, '>', 00H, 'd', 00H, 'a', 00H, 't', 00H, 'a', 00H
	DB	'.', 00H, 'a', 00H, 'n', 00H, 'y', 00H, 00H, 00H ; `string'
CONST	ENDS
;	COMDAT ??_C@_1DE@NACFPDOF@?$AAP?$AAy?$AAU?$AAn?$AAi?$AAc?$AAo?$AAd?$AAe?$AA_?$AAI?$AAS?$AA_?$AAR?$AAE?$AAA?$AAD?$AAY?$AA?$CI?$AAp?$AAy?$AAs?$AAt?$AAr?$AA?$CJ?$AA?$AA@
CONST	SEGMENT
??_C@_1DE@NACFPDOF@?$AAP?$AAy?$AAU?$AAn?$AAi?$AAc?$AAo?$AAd?$AAe?$AA_?$AAI?$AAS?$AA_?$AAR?$AAE?$AAA?$AAD?$AAY?$AA?$CI?$AAp?$AAy?$AAs?$AAt?$AAr?$AA?$CJ?$AA?$AA@ DB 'P'
	DB	00H, 'y', 00H, 'U', 00H, 'n', 00H, 'i', 00H, 'c', 00H, 'o', 00H
	DB	'd', 00H, 'e', 00H, '_', 00H, 'I', 00H, 'S', 00H, '_', 00H, 'R'
	DB	00H, 'E', 00H, 'A', 00H, 'D', 00H, 'Y', 00H, '(', 00H, 'p', 00H
	DB	'y', 00H, 's', 00H, 't', 00H, 'r', 00H, ')', 00H, 00H, 00H ; `string'
CONST	ENDS
;	COMDAT ??_C@_1CO@GLPHKNNN@?$AAP?$AAy?$AAU?$AAn?$AAi?$AAc?$AAo?$AAd?$AAe?$AA_?$AAC?$AAh?$AAe?$AAc?$AAk?$AA?$CI?$AAp?$AAy?$AAs?$AAt?$AAr?$AA?$CJ?$AA?$AA@
CONST	SEGMENT
??_C@_1CO@GLPHKNNN@?$AAP?$AAy?$AAU?$AAn?$AAi?$AAc?$AAo?$AAd?$AAe?$AA_?$AAC?$AAh?$AAe?$AAc?$AAk?$AA?$CI?$AAp?$AAy?$AAs?$AAt?$AAr?$AA?$CJ?$AA?$AA@ DB 'P'
	DB	00H, 'y', 00H, 'U', 00H, 'n', 00H, 'i', 00H, 'c', 00H, 'o', 00H
	DB	'd', 00H, 'e', 00H, '_', 00H, 'C', 00H, 'h', 00H, 'e', 00H, 'c'
	DB	00H, 'k', 00H, '(', 00H, 'p', 00H, 'y', 00H, 's', 00H, 't', 00H
	DB	'r', 00H, ')', 00H, 00H, 00H			; `string'
CONST	ENDS
;	COMDAT ??_C@_1CG@KOELJAMM@?$AA?4?$AA?4?$AA?2?$AAM?$AAo?$AAd?$AAu?$AAl?$AAe?$AAs?$AA?2?$AA_?$AAj?$AAs?$AAo?$AAn?$AA?4?$AAc?$AA?$AA@
CONST	SEGMENT
??_C@_1CG@KOELJAMM@?$AA?4?$AA?4?$AA?2?$AAM?$AAo?$AAd?$AAu?$AAl?$AAe?$AAs?$AA?2?$AA_?$AAj?$AAs?$AAo?$AAn?$AA?4?$AAc?$AA?$AA@ DB '.'
	DB	00H, '.', 00H, '\', 00H, 'M', 00H, 'o', 00H, 'd', 00H, 'u', 00H
	DB	'l', 00H, 'e', 00H, 's', 00H, '\', 00H, '_', 00H, 'j', 00H, 's'
	DB	00H, 'o', 00H, 'n', 00H, '.', 00H, 'c', 00H, 00H, 00H ; `string'
; Function compile flags: /Odtp
CONST	ENDS
;	COMDAT scanstring_unicode
_TEXT	SEGMENT
kind$ = 48
begin$ = 56
rval$ = 64
chunk$ = 72
next$ = 80
len$ = 88
chunks$ = 96
buf$ = 104
c$20804 = 112
_py_tmp$20834 = 120
digit$20869 = 128
c2$20891 = 132
digit$20895 = 136
_py_tmp$20924 = 144
_py_tmp$20948 = 152
_py_tmp$20958 = 160
tv79 = 168
tv163 = 176
tv172 = 184
tv209 = 192
tv208 = 196
tv268 = 200
tv267 = 204
tv271 = 208
tv298 = 212
tv297 = 216
tv300 = 220
tv332 = 224
tv331 = 228
tv347 = 232
tv346 = 236
tv362 = 240
tv361 = 244
tv364 = 248
pystr$ = 272
end$ = 280
strict$ = 288
next_end_ptr$ = 296
scanstring_unicode PROC					; COMDAT

; 322  : {

  00000	4c 89 4c 24 20	 mov	 QWORD PTR [rsp+32], r9
  00005	44 89 44 24 18	 mov	 DWORD PTR [rsp+24], r8d
  0000a	48 89 54 24 10	 mov	 QWORD PTR [rsp+16], rdx
  0000f	48 89 4c 24 08	 mov	 QWORD PTR [rsp+8], rcx
  00014	48 81 ec 08 01
	00 00		 sub	 rsp, 264		; 00000108H

; 323  :     /* Read the JSON string from PyUnicode pystr.
; 324  :     end is the index of the first character after the quote.
; 325  :     if strict is zero then literal control characters are allowed
; 326  :     *next_end_ptr is a return-by-reference index of the character
; 327  :         after the end quote
; 328  : 
; 329  :     Return value is a new PyUnicode
; 330  :     */
; 331  :     PyObject *rval = NULL;

  0001b	48 c7 44 24 40
	00 00 00 00	 mov	 QWORD PTR rval$[rsp], 0

; 332  :     Py_ssize_t len;
; 333  :     Py_ssize_t begin = end - 1;

  00024	48 8b 84 24 18
	01 00 00	 mov	 rax, QWORD PTR end$[rsp]
  0002c	48 ff c8	 dec	 rax
  0002f	48 89 44 24 38	 mov	 QWORD PTR begin$[rsp], rax

; 334  :     Py_ssize_t next /* = begin */;
; 335  :     const void *buf;
; 336  :     int kind;
; 337  :     PyObject *chunks = NULL;

  00034	48 c7 44 24 60
	00 00 00 00	 mov	 QWORD PTR chunks$[rsp], 0

; 338  :     PyObject *chunk = NULL;

  0003d	48 c7 44 24 48
	00 00 00 00	 mov	 QWORD PTR chunk$[rsp], 0

; 339  : 
; 340  :     if (PyUnicode_READY(pystr) == -1)

  00046	48 8b 84 24 10
	01 00 00	 mov	 rax, QWORD PTR pystr$[rsp]
  0004e	48 8b 40 58	 mov	 rax, QWORD PTR [rax+88]
  00052	8b 80 00 01 00
	00		 mov	 eax, DWORD PTR [rax+256]
  00058	25 00 00 00 10	 and	 eax, 268435456		; 10000000H
  0005d	85 c0		 test	 eax, eax
  0005f	75 1c		 jne	 SHORT $LN98@scanstring
  00061	41 b8 54 01 00
	00		 mov	 r8d, 340		; 00000154H
  00067	48 8d 15 00 00
	00 00		 lea	 rdx, OFFSET FLAT:??_C@_1CG@KOELJAMM@?$AA?4?$AA?4?$AA?2?$AAM?$AAo?$AAd?$AAu?$AAl?$AAe?$AAs?$AA?2?$AA_?$AAj?$AAs?$AAo?$AAn?$AA?4?$AAc?$AA?$AA@
  0006e	48 8d 0d 00 00
	00 00		 lea	 rcx, OFFSET FLAT:??_C@_1CO@GLPHKNNN@?$AAP?$AAy?$AAU?$AAn?$AAi?$AAc?$AAo?$AAd?$AAe?$AA_?$AAC?$AAh?$AAe?$AAc?$AAk?$AA?$CI?$AAp?$AAy?$AAs?$AAt?$AAr?$AA?$CJ?$AA?$AA@
  00075	ff 15 00 00 00
	00		 call	 QWORD PTR __imp__wassert
  0007b	33 c0		 xor	 eax, eax
$LN98@scanstring:
  0007d	48 8b 84 24 10
	01 00 00	 mov	 rax, QWORD PTR pystr$[rsp]
  00085	8b 40 70	 mov	 eax, DWORD PTR [rax+112]
  00088	c1 e8 07	 shr	 eax, 7
  0008b	83 e0 01	 and	 eax, 1
  0008e	85 c0		 test	 eax, eax
  00090	74 0d		 je	 SHORT $LN99@scanstring
  00092	c7 84 24 a8 00
	00 00 00 00 00
	00		 mov	 DWORD PTR tv79[rsp], 0
  0009d	eb 14		 jmp	 SHORT $LN100@scanstring
$LN99@scanstring:
  0009f	48 8b 8c 24 10
	01 00 00	 mov	 rcx, QWORD PTR pystr$[rsp]
  000a7	e8 00 00 00 00	 call	 _PyUnicode_Ready
  000ac	89 84 24 a8 00
	00 00		 mov	 DWORD PTR tv79[rsp], eax
$LN100@scanstring:
  000b3	83 bc 24 a8 00
	00 00 ff	 cmp	 DWORD PTR tv79[rsp], -1
  000bb	75 07		 jne	 SHORT $LN95@scanstring

; 341  :         return 0;

  000bd	33 c0		 xor	 eax, eax
  000bf	e9 c5 0d 00 00	 jmp	 $LN96@scanstring
$LN95@scanstring:

; 342  : 
; 343  :     len = PyUnicode_GET_LENGTH(pystr);

  000c4	48 8b 84 24 10
	01 00 00	 mov	 rax, QWORD PTR pystr$[rsp]
  000cc	48 8b 40 58	 mov	 rax, QWORD PTR [rax+88]
  000d0	8b 80 00 01 00
	00		 mov	 eax, DWORD PTR [rax+256]
  000d6	25 00 00 00 10	 and	 eax, 268435456		; 10000000H
  000db	85 c0		 test	 eax, eax
  000dd	75 1c		 jne	 SHORT $LN101@scanstring
  000df	41 b8 57 01 00
	00		 mov	 r8d, 343		; 00000157H
  000e5	48 8d 15 00 00
	00 00		 lea	 rdx, OFFSET FLAT:??_C@_1CG@KOELJAMM@?$AA?4?$AA?4?$AA?2?$AAM?$AAo?$AAd?$AAu?$AAl?$AAe?$AAs?$AA?2?$AA_?$AAj?$AAs?$AAo?$AAn?$AA?4?$AAc?$AA?$AA@
  000ec	48 8d 0d 00 00
	00 00		 lea	 rcx, OFFSET FLAT:??_C@_1CO@GLPHKNNN@?$AAP?$AAy?$AAU?$AAn?$AAi?$AAc?$AAo?$AAd?$AAe?$AA_?$AAC?$AAh?$AAe?$AAc?$AAk?$AA?$CI?$AAp?$AAy?$AAs?$AAt?$AAr?$AA?$CJ?$AA?$AA@
  000f3	ff 15 00 00 00
	00		 call	 QWORD PTR __imp__wassert
  000f9	33 c0		 xor	 eax, eax
$LN101@scanstring:
  000fb	48 8b 84 24 10
	01 00 00	 mov	 rax, QWORD PTR pystr$[rsp]
  00103	8b 40 70	 mov	 eax, DWORD PTR [rax+112]
  00106	c1 e8 07	 shr	 eax, 7
  00109	83 e0 01	 and	 eax, 1
  0010c	85 c0		 test	 eax, eax
  0010e	75 1c		 jne	 SHORT $LN102@scanstring
  00110	41 b8 57 01 00
	00		 mov	 r8d, 343		; 00000157H
  00116	48 8d 15 00 00
	00 00		 lea	 rdx, OFFSET FLAT:??_C@_1CG@KOELJAMM@?$AA?4?$AA?4?$AA?2?$AAM?$AAo?$AAd?$AAu?$AAl?$AAe?$AAs?$AA?2?$AA_?$AAj?$AAs?$AAo?$AAn?$AA?4?$AAc?$AA?$AA@
  0011d	48 8d 0d 00 00
	00 00		 lea	 rcx, OFFSET FLAT:??_C@_1DE@NACFPDOF@?$AAP?$AAy?$AAU?$AAn?$AAi?$AAc?$AAo?$AAd?$AAe?$AA_?$AAI?$AAS?$AA_?$AAR?$AAE?$AAA?$AAD?$AAY?$AA?$CI?$AAp?$AAy?$AAs?$AAt?$AAr?$AA?$CJ?$AA?$AA@
  00124	ff 15 00 00 00
	00		 call	 QWORD PTR __imp__wassert
  0012a	33 c0		 xor	 eax, eax
$LN102@scanstring:
  0012c	48 8b 84 24 10
	01 00 00	 mov	 rax, QWORD PTR pystr$[rsp]
  00134	48 8b 40 60	 mov	 rax, QWORD PTR [rax+96]
  00138	48 89 44 24 58	 mov	 QWORD PTR len$[rsp], rax

; 344  :     buf = PyUnicode_DATA(pystr);

  0013d	48 8b 84 24 10
	01 00 00	 mov	 rax, QWORD PTR pystr$[rsp]
  00145	48 8b 40 58	 mov	 rax, QWORD PTR [rax+88]
  00149	8b 80 00 01 00
	00		 mov	 eax, DWORD PTR [rax+256]
  0014f	25 00 00 00 10	 and	 eax, 268435456		; 10000000H
  00154	85 c0		 test	 eax, eax
  00156	75 1c		 jne	 SHORT $LN103@scanstring
  00158	41 b8 58 01 00
	00		 mov	 r8d, 344		; 00000158H
  0015e	48 8d 15 00 00
	00 00		 lea	 rdx, OFFSET FLAT:??_C@_1CG@KOELJAMM@?$AA?4?$AA?4?$AA?2?$AAM?$AAo?$AAd?$AAu?$AAl?$AAe?$AAs?$AA?2?$AA_?$AAj?$AAs?$AAo?$AAn?$AA?4?$AAc?$AA?$AA@
  00165	48 8d 0d 00 00
	00 00		 lea	 rcx, OFFSET FLAT:??_C@_1CO@GLPHKNNN@?$AAP?$AAy?$AAU?$AAn?$AAi?$AAc?$AAo?$AAd?$AAe?$AA_?$AAC?$AAh?$AAe?$AAc?$AAk?$AA?$CI?$AAp?$AAy?$AAs?$AAt?$AAr?$AA?$CJ?$AA?$AA@
  0016c	ff 15 00 00 00
	00		 call	 QWORD PTR __imp__wassert
  00172	33 c0		 xor	 eax, eax
$LN103@scanstring:
  00174	48 8b 84 24 10
	01 00 00	 mov	 rax, QWORD PTR pystr$[rsp]
  0017c	8b 40 70	 mov	 eax, DWORD PTR [rax+112]
  0017f	c1 e8 05	 shr	 eax, 5
  00182	83 e0 01	 and	 eax, 1
  00185	85 c0		 test	 eax, eax
  00187	0f 84 bd 00 00
	00		 je	 $LN109@scanstring
  0018d	48 8b 84 24 10
	01 00 00	 mov	 rax, QWORD PTR pystr$[rsp]
  00195	48 8b 40 58	 mov	 rax, QWORD PTR [rax+88]
  00199	8b 80 00 01 00
	00		 mov	 eax, DWORD PTR [rax+256]
  0019f	25 00 00 00 10	 and	 eax, 268435456		; 10000000H
  001a4	85 c0		 test	 eax, eax
  001a6	75 1c		 jne	 SHORT $LN104@scanstring
  001a8	41 b8 58 01 00
	00		 mov	 r8d, 344		; 00000158H
  001ae	48 8d 15 00 00
	00 00		 lea	 rdx, OFFSET FLAT:??_C@_1CG@KOELJAMM@?$AA?4?$AA?4?$AA?2?$AAM?$AAo?$AAd?$AAu?$AAl?$AAe?$AAs?$AA?2?$AA_?$AAj?$AAs?$AAo?$AAn?$AA?4?$AAc?$AA?$AA@
  001b5	48 8d 0d 00 00
	00 00		 lea	 rcx, OFFSET FLAT:??_C@_1CO@GLPHKNNN@?$AAP?$AAy?$AAU?$AAn?$AAi?$AAc?$AAo?$AAd?$AAe?$AA_?$AAC?$AAh?$AAe?$AAc?$AAk?$AA?$CI?$AAp?$AAy?$AAs?$AAt?$AAr?$AA?$CJ?$AA?$AA@
  001bc	ff 15 00 00 00
	00		 call	 QWORD PTR __imp__wassert
  001c2	33 c0		 xor	 eax, eax
$LN104@scanstring:
  001c4	48 8b 84 24 10
	01 00 00	 mov	 rax, QWORD PTR pystr$[rsp]
  001cc	8b 40 70	 mov	 eax, DWORD PTR [rax+112]
  001cf	c1 e8 07	 shr	 eax, 7
  001d2	83 e0 01	 and	 eax, 1
  001d5	85 c0		 test	 eax, eax
  001d7	75 1c		 jne	 SHORT $LN105@scanstring
  001d9	41 b8 58 01 00
	00		 mov	 r8d, 344		; 00000158H
  001df	48 8d 15 00 00
	00 00		 lea	 rdx, OFFSET FLAT:??_C@_1CG@KOELJAMM@?$AA?4?$AA?4?$AA?2?$AAM?$AAo?$AAd?$AAu?$AAl?$AAe?$AAs?$AA?2?$AA_?$AAj?$AAs?$AAo?$AAn?$AA?4?$AAc?$AA?$AA@
  001e6	48 8d 0d 00 00
	00 00		 lea	 rcx, OFFSET FLAT:??_C@_1DE@NACFPDOF@?$AAP?$AAy?$AAU?$AAn?$AAi?$AAc?$AAo?$AAd?$AAe?$AA_?$AAI?$AAS?$AA_?$AAR?$AAE?$AAA?$AAD?$AAY?$AA?$CI?$AAp?$AAy?$AAs?$AAt?$AAr?$AA?$CJ?$AA?$AA@
  001ed	ff 15 00 00 00
	00		 call	 QWORD PTR __imp__wassert
  001f3	33 c0		 xor	 eax, eax
$LN105@scanstring:
  001f5	48 8b 84 24 10
	01 00 00	 mov	 rax, QWORD PTR pystr$[rsp]
  001fd	8b 40 70	 mov	 eax, DWORD PTR [rax+112]
  00200	c1 e8 06	 shr	 eax, 6
  00203	83 e0 01	 and	 eax, 1
  00206	85 c0		 test	 eax, eax
  00208	74 18		 je	 SHORT $LN106@scanstring
  0020a	48 8b 84 24 10
	01 00 00	 mov	 rax, QWORD PTR pystr$[rsp]
  00212	48 05 80 00 00
	00		 add	 rax, 128		; 00000080H
  00218	48 89 84 24 b0
	00 00 00	 mov	 QWORD PTR tv163[rsp], rax
  00220	eb 16		 jmp	 SHORT $LN107@scanstring
$LN106@scanstring:
  00222	48 8b 84 24 10
	01 00 00	 mov	 rax, QWORD PTR pystr$[rsp]
  0022a	48 05 a0 00 00
	00		 add	 rax, 160		; 000000a0H
  00230	48 89 84 24 b0
	00 00 00	 mov	 QWORD PTR tv163[rsp], rax
$LN107@scanstring:
  00238	48 8b 84 24 b0
	00 00 00	 mov	 rax, QWORD PTR tv163[rsp]
  00240	48 89 84 24 b8
	00 00 00	 mov	 QWORD PTR tv172[rsp], rax
  00248	eb 45		 jmp	 SHORT $LN110@scanstring
$LN109@scanstring:
  0024a	48 8b 84 24 10
	01 00 00	 mov	 rax, QWORD PTR pystr$[rsp]
  00252	48 83 b8 a0 00
	00 00 00	 cmp	 QWORD PTR [rax+160], 0
  0025a	75 1c		 jne	 SHORT $LN108@scanstring
  0025c	41 b8 58 01 00
	00		 mov	 r8d, 344		; 00000158H
  00262	48 8d 15 00 00
	00 00		 lea	 rdx, OFFSET FLAT:??_C@_1CG@KOELJAMM@?$AA?4?$AA?4?$AA?2?$AAM?$AAo?$AAd?$AAu?$AAl?$AAe?$AAs?$AA?2?$AA_?$AAj?$AAs?$AAo?$AAn?$AA?4?$AAc?$AA?$AA@
  00269	48 8d 0d 00 00
	00 00		 lea	 rcx, OFFSET FLAT:??_C@_1EM@FMOHIEKB@?$AA?$CI?$AA?$CI?$AAP?$AAy?$AAU?$AAn?$AAi?$AAc?$AAo?$AAd?$AAe?$AAO?$AAb?$AAj?$AAe?$AAc?$AAt?$AA?$CK?$AA?$CJ?$AA?$CI?$AAp?$AAy?$AAs?$AAt?$AAr?$AA?$CJ?$AA?$CJ?$AA?9?$AA?$DO?$AAd?$AAa?$AAt@
  00270	ff 15 00 00 00
	00		 call	 QWORD PTR __imp__wassert
  00276	33 c0		 xor	 eax, eax
$LN108@scanstring:
  00278	48 8b 84 24 10
	01 00 00	 mov	 rax, QWORD PTR pystr$[rsp]
  00280	48 8b 80 a0 00
	00 00		 mov	 rax, QWORD PTR [rax+160]
  00287	48 89 84 24 b8
	00 00 00	 mov	 QWORD PTR tv172[rsp], rax
$LN110@scanstring:
  0028f	48 8b 84 24 b8
	00 00 00	 mov	 rax, QWORD PTR tv172[rsp]
  00297	48 89 44 24 68	 mov	 QWORD PTR buf$[rsp], rax

; 345  :     kind = PyUnicode_KIND(pystr);

  0029c	48 8b 84 24 10
	01 00 00	 mov	 rax, QWORD PTR pystr$[rsp]
  002a4	48 8b 40 58	 mov	 rax, QWORD PTR [rax+88]
  002a8	8b 80 00 01 00
	00		 mov	 eax, DWORD PTR [rax+256]
  002ae	25 00 00 00 10	 and	 eax, 268435456		; 10000000H
  002b3	85 c0		 test	 eax, eax
  002b5	75 1c		 jne	 SHORT $LN111@scanstring
  002b7	41 b8 59 01 00
	00		 mov	 r8d, 345		; 00000159H
  002bd	48 8d 15 00 00
	00 00		 lea	 rdx, OFFSET FLAT:??_C@_1CG@KOELJAMM@?$AA?4?$AA?4?$AA?2?$AAM?$AAo?$AAd?$AAu?$AAl?$AAe?$AAs?$AA?2?$AA_?$AAj?$AAs?$AAo?$AAn?$AA?4?$AAc?$AA?$AA@
  002c4	48 8d 0d 00 00
	00 00		 lea	 rcx, OFFSET FLAT:??_C@_1CO@GLPHKNNN@?$AAP?$AAy?$AAU?$AAn?$AAi?$AAc?$AAo?$AAd?$AAe?$AA_?$AAC?$AAh?$AAe?$AAc?$AAk?$AA?$CI?$AAp?$AAy?$AAs?$AAt?$AAr?$AA?$CJ?$AA?$AA@
  002cb	ff 15 00 00 00
	00		 call	 QWORD PTR __imp__wassert
  002d1	33 c0		 xor	 eax, eax
$LN111@scanstring:
  002d3	48 8b 84 24 10
	01 00 00	 mov	 rax, QWORD PTR pystr$[rsp]
  002db	8b 40 70	 mov	 eax, DWORD PTR [rax+112]
  002de	c1 e8 07	 shr	 eax, 7
  002e1	83 e0 01	 and	 eax, 1
  002e4	85 c0		 test	 eax, eax
  002e6	75 1c		 jne	 SHORT $LN112@scanstring
  002e8	41 b8 59 01 00
	00		 mov	 r8d, 345		; 00000159H
  002ee	48 8d 15 00 00
	00 00		 lea	 rdx, OFFSET FLAT:??_C@_1CG@KOELJAMM@?$AA?4?$AA?4?$AA?2?$AAM?$AAo?$AAd?$AAu?$AAl?$AAe?$AAs?$AA?2?$AA_?$AAj?$AAs?$AAo?$AAn?$AA?4?$AAc?$AA?$AA@
  002f5	48 8d 0d 00 00
	00 00		 lea	 rcx, OFFSET FLAT:??_C@_1DE@NACFPDOF@?$AAP?$AAy?$AAU?$AAn?$AAi?$AAc?$AAo?$AAd?$AAe?$AA_?$AAI?$AAS?$AA_?$AAR?$AAE?$AAA?$AAD?$AAY?$AA?$CI?$AAp?$AAy?$AAs?$AAt?$AAr?$AA?$CJ?$AA?$AA@
  002fc	ff 15 00 00 00
	00		 call	 QWORD PTR __imp__wassert
  00302	33 c0		 xor	 eax, eax
$LN112@scanstring:
  00304	48 8b 84 24 10
	01 00 00	 mov	 rax, QWORD PTR pystr$[rsp]
  0030c	8b 40 70	 mov	 eax, DWORD PTR [rax+112]
  0030f	c1 e8 02	 shr	 eax, 2
  00312	83 e0 07	 and	 eax, 7
  00315	89 44 24 30	 mov	 DWORD PTR kind$[rsp], eax

; 346  : 
; 347  :     if (end < 0 || len <= end) {

  00319	48 83 bc 24 18
	01 00 00 00	 cmp	 QWORD PTR end$[rsp], 0
  00322	7c 0f		 jl	 SHORT $LN93@scanstring
  00324	48 8b 84 24 18
	01 00 00	 mov	 rax, QWORD PTR end$[rsp]
  0032c	48 39 44 24 58	 cmp	 QWORD PTR len$[rsp], rax
  00331	7f 18		 jg	 SHORT $LN94@scanstring
$LN93@scanstring:

; 348  :         PyErr_SetString(PyExc_ValueError, "end is out of bounds");

  00333	48 8d 15 00 00
	00 00		 lea	 rdx, OFFSET FLAT:??_C@_0BF@LLLKOJNO@end?5is?5out?5of?5bounds?$AA@
  0033a	48 8b 0d 00 00
	00 00		 mov	 rcx, QWORD PTR PyExc_ValueError
  00341	e8 00 00 00 00	 call	 PyErr_SetString

; 349  :         goto bail;

  00346	e9 fd 0a 00 00	 jmp	 $bail$20800
$LN94@scanstring:
$LN92@scanstring:

; 350  :     }
; 351  :     while (1) {

  0034b	33 c0		 xor	 eax, eax
  0034d	83 f8 01	 cmp	 eax, 1
  00350	0f 84 86 09 00
	00		 je	 $LN91@scanstring

; 352  :         /* Find the end of the string or the next escape */
; 353  :         Py_UCS4 c = 0;

  00356	c7 44 24 70 00
	00 00 00	 mov	 DWORD PTR c$20804[rsp], 0

; 354  :         for (next = end; next < len; next++) {

  0035e	48 8b 84 24 18
	01 00 00	 mov	 rax, QWORD PTR end$[rsp]
  00366	48 89 44 24 50	 mov	 QWORD PTR next$[rsp], rax
  0036b	eb 0d		 jmp	 SHORT $LN90@scanstring
$LN89@scanstring:
  0036d	48 8b 44 24 50	 mov	 rax, QWORD PTR next$[rsp]
  00372	48 ff c0	 inc	 rax
  00375	48 89 44 24 50	 mov	 QWORD PTR next$[rsp], rax
$LN90@scanstring:
  0037a	48 8b 44 24 58	 mov	 rax, QWORD PTR len$[rsp]
  0037f	48 39 44 24 50	 cmp	 QWORD PTR next$[rsp], rax
  00384	0f 8d b4 00 00
	00		 jge	 $LN88@scanstring

; 355  :             c = PyUnicode_READ(kind, buf, next);

  0038a	83 7c 24 30 01	 cmp	 DWORD PTR kind$[rsp], 1
  0038f	75 1c		 jne	 SHORT $LN115@scanstring
  00391	48 8b 44 24 50	 mov	 rax, QWORD PTR next$[rsp]
  00396	48 8b 4c 24 68	 mov	 rcx, QWORD PTR buf$[rsp]
  0039b	48 03 c8	 add	 rcx, rax
  0039e	48 8b c1	 mov	 rax, rcx
  003a1	0f b6 00	 movzx	 eax, BYTE PTR [rax]
  003a4	89 84 24 c0 00
	00 00		 mov	 DWORD PTR tv209[rsp], eax
  003ab	eb 40		 jmp	 SHORT $LN116@scanstring
$LN115@scanstring:
  003ad	83 7c 24 30 02	 cmp	 DWORD PTR kind$[rsp], 2
  003b2	75 17		 jne	 SHORT $LN113@scanstring
  003b4	48 8b 44 24 68	 mov	 rax, QWORD PTR buf$[rsp]
  003b9	48 8b 4c 24 50	 mov	 rcx, QWORD PTR next$[rsp]
  003be	0f b7 04 48	 movzx	 eax, WORD PTR [rax+rcx*2]
  003c2	89 84 24 c4 00
	00 00		 mov	 DWORD PTR tv208[rsp], eax
  003c9	eb 14		 jmp	 SHORT $LN114@scanstring
$LN113@scanstring:
  003cb	48 8b 44 24 68	 mov	 rax, QWORD PTR buf$[rsp]
  003d0	48 8b 4c 24 50	 mov	 rcx, QWORD PTR next$[rsp]
  003d5	8b 04 88	 mov	 eax, DWORD PTR [rax+rcx*4]
  003d8	89 84 24 c4 00
	00 00		 mov	 DWORD PTR tv208[rsp], eax
$LN114@scanstring:
  003df	8b 84 24 c4 00
	00 00		 mov	 eax, DWORD PTR tv208[rsp]
  003e6	89 84 24 c0 00
	00 00		 mov	 DWORD PTR tv209[rsp], eax
$LN116@scanstring:
  003ed	8b 84 24 c0 00
	00 00		 mov	 eax, DWORD PTR tv209[rsp]
  003f4	89 44 24 70	 mov	 DWORD PTR c$20804[rsp], eax

; 356  :             if (c == '"' || c == '\\') {

  003f8	83 7c 24 70 22	 cmp	 DWORD PTR c$20804[rsp], 34 ; 00000022H
  003fd	74 07		 je	 SHORT $LN86@scanstring
  003ff	83 7c 24 70 5c	 cmp	 DWORD PTR c$20804[rsp], 92 ; 0000005cH
  00404	75 04		 jne	 SHORT $LN87@scanstring
$LN86@scanstring:

; 357  :                 break;

  00406	eb 36		 jmp	 SHORT $LN88@scanstring
  00408	eb 2f		 jmp	 SHORT $LN85@scanstring
$LN87@scanstring:

; 358  :             }
; 359  :             else if (strict && c <= 0x1f) {

  0040a	83 bc 24 20 01
	00 00 00	 cmp	 DWORD PTR strict$[rsp], 0
  00412	74 25		 je	 SHORT $LN84@scanstring
  00414	83 7c 24 70 1f	 cmp	 DWORD PTR c$20804[rsp], 31
  00419	77 1e		 ja	 SHORT $LN84@scanstring

; 360  :                 raise_errmsg("Invalid control character at", pystr, next);

  0041b	4c 8b 44 24 50	 mov	 r8, QWORD PTR next$[rsp]
  00420	48 8b 94 24 10
	01 00 00	 mov	 rdx, QWORD PTR pystr$[rsp]
  00428	48 8d 0d 00 00
	00 00		 lea	 rcx, OFFSET FLAT:??_C@_0BN@KFIIHLME@Invalid?5control?5character?5at?$AA@
  0042f	e8 00 00 00 00	 call	 raise_errmsg

; 361  :                 goto bail;

  00434	e9 0f 0a 00 00	 jmp	 $bail$20800
$LN84@scanstring:
$LN85@scanstring:

; 362  :             }
; 363  :         }

  00439	e9 2f ff ff ff	 jmp	 $LN89@scanstring
$LN88@scanstring:

; 364  :         if (!(c == '"' || c == '\\')) {

  0043e	83 7c 24 70 22	 cmp	 DWORD PTR c$20804[rsp], 34 ; 00000022H
  00443	74 25		 je	 SHORT $LN83@scanstring
  00445	83 7c 24 70 5c	 cmp	 DWORD PTR c$20804[rsp], 92 ; 0000005cH
  0044a	74 1e		 je	 SHORT $LN83@scanstring

; 365  :             raise_errmsg("Unterminated string starting at", pystr, begin);

  0044c	4c 8b 44 24 38	 mov	 r8, QWORD PTR begin$[rsp]
  00451	48 8b 94 24 10
	01 00 00	 mov	 rdx, QWORD PTR pystr$[rsp]
  00459	48 8d 0d 00 00
	00 00		 lea	 rcx, OFFSET FLAT:??_C@_0CA@GLFFIBAO@Unterminated?5string?5starting?5at?$AA@
  00460	e8 00 00 00 00	 call	 raise_errmsg

; 366  :             goto bail;

  00465	e9 de 09 00 00	 jmp	 $bail$20800
$LN83@scanstring:

; 367  :         }
; 368  :         /* Pick up this chunk if it's not zero length */
; 369  :         if (next != end) {

  0046a	48 8b 84 24 18
	01 00 00	 mov	 rax, QWORD PTR end$[rsp]
  00472	48 39 44 24 50	 cmp	 QWORD PTR next$[rsp], rax
  00477	0f 84 f1 00 00
	00		 je	 $LN82@scanstring

; 370  :             APPEND_OLD_CHUNK

  0047d	48 83 7c 24 48
	00		 cmp	 QWORD PTR chunk$[rsp], 0
  00483	0f 84 98 00 00
	00		 je	 $LN81@scanstring
  00489	48 83 7c 24 60
	00		 cmp	 QWORD PTR chunks$[rsp], 0
  0048f	75 19		 jne	 SHORT $LN80@scanstring
  00491	33 c9		 xor	 ecx, ecx
  00493	e8 00 00 00 00	 call	 PyList_New
  00498	48 89 44 24 60	 mov	 QWORD PTR chunks$[rsp], rax
  0049d	48 83 7c 24 60
	00		 cmp	 QWORD PTR chunks$[rsp], 0
  004a3	75 05		 jne	 SHORT $LN79@scanstring
  004a5	e9 9e 09 00 00	 jmp	 $bail$20800
$LN79@scanstring:
$LN80@scanstring:
  004aa	48 8b 54 24 48	 mov	 rdx, QWORD PTR chunk$[rsp]
  004af	48 8b 4c 24 60	 mov	 rcx, QWORD PTR chunks$[rsp]
  004b4	e8 00 00 00 00	 call	 PyList_Append
  004b9	85 c0		 test	 eax, eax
  004bb	74 0f		 je	 SHORT $LN78@scanstring
  004bd	48 8b 4c 24 48	 mov	 rcx, QWORD PTR chunk$[rsp]
  004c2	e8 00 00 00 00	 call	 _Py_DecRef
  004c7	e9 7c 09 00 00	 jmp	 $bail$20800
$LN78@scanstring:
$LN77@scanstring:
  004cc	48 83 7c 24 48
	00		 cmp	 QWORD PTR chunk$[rsp], 0
  004d2	74 47		 je	 SHORT $LN74@scanstring
  004d4	c7 44 24 20 10
	00 00 00	 mov	 DWORD PTR [rsp+32], 16
  004dc	4c 8b 4c 24 48	 mov	 r9, QWORD PTR chunk$[rsp]
  004e1	41 b8 72 01 00
	00		 mov	 r8d, 370		; 00000172H
  004e7	48 8d 15 00 00
	00 00		 lea	 rdx, OFFSET FLAT:??_C@_0BD@BIGPLMIN@?4?4?2Modules?2_json?4c?$AA@
  004ee	48 8d 0d 00 00
	00 00		 lea	 rcx, OFFSET FLAT:??_C@_0BD@PDCADMBJ@scanstring_unicode?$AA@
  004f5	e8 00 00 00 00	 call	 _PyParallel_Guard
  004fa	85 c0		 test	 eax, eax
  004fc	75 1d		 jne	 SHORT $LN74@scanstring
  004fe	48 8b 44 24 48	 mov	 rax, QWORD PTR chunk$[rsp]
  00503	48 89 44 24 78	 mov	 QWORD PTR _py_tmp$20834[rsp], rax
  00508	48 c7 44 24 48
	00 00 00 00	 mov	 QWORD PTR chunk$[rsp], 0
  00511	48 8b 4c 24 78	 mov	 rcx, QWORD PTR _py_tmp$20834[rsp]
  00516	e8 00 00 00 00	 call	 _Py_DecRef
$LN74@scanstring:
  0051b	33 c0		 xor	 eax, eax
  0051d	85 c0		 test	 eax, eax
  0051f	75 ab		 jne	 SHORT $LN77@scanstring
$LN81@scanstring:

; 371  :                 chunk = PyUnicode_FromKindAndData(
; 372  :                     kind,
; 373  :                     (char*)buf + kind * end,
; 374  :                     next - end);

  00521	48 8b 84 24 18
	01 00 00	 mov	 rax, QWORD PTR end$[rsp]
  00529	48 8b 4c 24 50	 mov	 rcx, QWORD PTR next$[rsp]
  0052e	48 2b c8	 sub	 rcx, rax
  00531	48 8b c1	 mov	 rax, rcx
  00534	48 63 4c 24 30	 movsxd	 rcx, DWORD PTR kind$[rsp]
  00539	48 0f af 8c 24
	18 01 00 00	 imul	 rcx, QWORD PTR end$[rsp]
  00542	48 8b 54 24 68	 mov	 rdx, QWORD PTR buf$[rsp]
  00547	48 03 d1	 add	 rdx, rcx
  0054a	48 8b ca	 mov	 rcx, rdx
  0054d	4c 8b c0	 mov	 r8, rax
  00550	48 8b d1	 mov	 rdx, rcx
  00553	8b 4c 24 30	 mov	 ecx, DWORD PTR kind$[rsp]
  00557	e8 00 00 00 00	 call	 PyUnicode_FromKindAndData
  0055c	48 89 44 24 48	 mov	 QWORD PTR chunk$[rsp], rax

; 375  :             if (chunk == NULL) {

  00561	48 83 7c 24 48
	00		 cmp	 QWORD PTR chunk$[rsp], 0
  00567	75 05		 jne	 SHORT $LN73@scanstring

; 376  :                 goto bail;

  00569	e9 da 08 00 00	 jmp	 $bail$20800
$LN73@scanstring:
$LN82@scanstring:

; 377  :             }
; 378  :         }
; 379  :         next++;

  0056e	48 8b 44 24 50	 mov	 rax, QWORD PTR next$[rsp]
  00573	48 ff c0	 inc	 rax
  00576	48 89 44 24 50	 mov	 QWORD PTR next$[rsp], rax

; 380  :         if (c == '"') {

  0057b	83 7c 24 70 22	 cmp	 DWORD PTR c$20804[rsp], 34 ; 00000022H
  00580	75 12		 jne	 SHORT $LN72@scanstring

; 381  :             end = next;

  00582	48 8b 44 24 50	 mov	 rax, QWORD PTR next$[rsp]
  00587	48 89 84 24 18
	01 00 00	 mov	 QWORD PTR end$[rsp], rax

; 382  :             break;

  0058f	e9 48 07 00 00	 jmp	 $LN91@scanstring
$LN72@scanstring:

; 383  :         }
; 384  :         if (next == len) {

  00594	48 8b 44 24 58	 mov	 rax, QWORD PTR len$[rsp]
  00599	48 39 44 24 50	 cmp	 QWORD PTR next$[rsp], rax
  0059e	75 1e		 jne	 SHORT $LN71@scanstring

; 385  :             raise_errmsg("Unterminated string starting at", pystr, begin);

  005a0	4c 8b 44 24 38	 mov	 r8, QWORD PTR begin$[rsp]
  005a5	48 8b 94 24 10
	01 00 00	 mov	 rdx, QWORD PTR pystr$[rsp]
  005ad	48 8d 0d 00 00
	00 00		 lea	 rcx, OFFSET FLAT:??_C@_0CA@GLFFIBAO@Unterminated?5string?5starting?5at?$AA@
  005b4	e8 00 00 00 00	 call	 raise_errmsg

; 386  :             goto bail;

  005b9	e9 8a 08 00 00	 jmp	 $bail$20800
$LN71@scanstring:

; 387  :         }
; 388  :         c = PyUnicode_READ(kind, buf, next);

  005be	83 7c 24 30 01	 cmp	 DWORD PTR kind$[rsp], 1
  005c3	75 1c		 jne	 SHORT $LN119@scanstring
  005c5	48 8b 44 24 50	 mov	 rax, QWORD PTR next$[rsp]
  005ca	48 8b 4c 24 68	 mov	 rcx, QWORD PTR buf$[rsp]
  005cf	48 03 c8	 add	 rcx, rax
  005d2	48 8b c1	 mov	 rax, rcx
  005d5	0f b6 00	 movzx	 eax, BYTE PTR [rax]
  005d8	89 84 24 c8 00
	00 00		 mov	 DWORD PTR tv268[rsp], eax
  005df	eb 40		 jmp	 SHORT $LN120@scanstring
$LN119@scanstring:
  005e1	83 7c 24 30 02	 cmp	 DWORD PTR kind$[rsp], 2
  005e6	75 17		 jne	 SHORT $LN117@scanstring
  005e8	48 8b 44 24 68	 mov	 rax, QWORD PTR buf$[rsp]
  005ed	48 8b 4c 24 50	 mov	 rcx, QWORD PTR next$[rsp]
  005f2	0f b7 04 48	 movzx	 eax, WORD PTR [rax+rcx*2]
  005f6	89 84 24 cc 00
	00 00		 mov	 DWORD PTR tv267[rsp], eax
  005fd	eb 14		 jmp	 SHORT $LN118@scanstring
$LN117@scanstring:
  005ff	48 8b 44 24 68	 mov	 rax, QWORD PTR buf$[rsp]
  00604	48 8b 4c 24 50	 mov	 rcx, QWORD PTR next$[rsp]
  00609	8b 04 88	 mov	 eax, DWORD PTR [rax+rcx*4]
  0060c	89 84 24 cc 00
	00 00		 mov	 DWORD PTR tv267[rsp], eax
$LN118@scanstring:
  00613	8b 84 24 cc 00
	00 00		 mov	 eax, DWORD PTR tv267[rsp]
  0061a	89 84 24 c8 00
	00 00		 mov	 DWORD PTR tv268[rsp], eax
$LN120@scanstring:
  00621	8b 84 24 c8 00
	00 00		 mov	 eax, DWORD PTR tv268[rsp]
  00628	89 44 24 70	 mov	 DWORD PTR c$20804[rsp], eax

; 389  :         if (c != 'u') {

  0062c	83 7c 24 70 75	 cmp	 DWORD PTR c$20804[rsp], 117 ; 00000075H
  00631	0f 84 cc 00 00
	00		 je	 $LN70@scanstring

; 390  :             /* Non-unicode backslash escapes */
; 391  :             end = next + 1;

  00637	48 8b 44 24 50	 mov	 rax, QWORD PTR next$[rsp]
  0063c	48 ff c0	 inc	 rax
  0063f	48 89 84 24 18
	01 00 00	 mov	 QWORD PTR end$[rsp], rax

; 392  :             switch (c) {

  00647	8b 44 24 70	 mov	 eax, DWORD PTR c$20804[rsp]
  0064b	89 84 24 d0 00
	00 00		 mov	 DWORD PTR tv271[rsp], eax
  00652	8b 84 24 d0 00
	00 00		 mov	 eax, DWORD PTR tv271[rsp]
  00659	83 e8 22	 sub	 eax, 34			; 00000022H
  0065c	89 84 24 d0 00
	00 00		 mov	 DWORD PTR tv271[rsp], eax
  00663	83 bc 24 d0 00
	00 00 52	 cmp	 DWORD PTR tv271[rsp], 82 ; 00000052H
  0066b	77 5a		 ja	 SHORT $LN59@scanstring
  0066d	8b 84 24 d0 00
	00 00		 mov	 eax, DWORD PTR tv271[rsp]
  00674	48 8d 0d 00 00
	00 00		 lea	 rcx, OFFSET FLAT:__ImageBase
  0067b	0f b6 84 01 00
	00 00 00	 movzx	 eax, BYTE PTR $LN141@scanstring[rcx+rax]
  00683	8b 84 81 00 00
	00 00		 mov	 eax, DWORD PTR $LN142@scanstring[rcx+rax*4]
  0068a	48 03 c1	 add	 rax, rcx
  0068d	ff e0		 jmp	 rax
$LN67@scanstring:

; 393  :                 case '"': break;

  0068f	eb 3e		 jmp	 SHORT $LN68@scanstring
$LN66@scanstring:

; 394  :                 case '\\': break;

  00691	eb 3c		 jmp	 SHORT $LN68@scanstring
$LN65@scanstring:

; 395  :                 case '/': break;

  00693	eb 3a		 jmp	 SHORT $LN68@scanstring
$LN64@scanstring:

; 396  :                 case 'b': c = '\b'; break;

  00695	c7 44 24 70 08
	00 00 00	 mov	 DWORD PTR c$20804[rsp], 8
  0069d	eb 30		 jmp	 SHORT $LN68@scanstring
$LN63@scanstring:

; 397  :                 case 'f': c = '\f'; break;

  0069f	c7 44 24 70 0c
	00 00 00	 mov	 DWORD PTR c$20804[rsp], 12
  006a7	eb 26		 jmp	 SHORT $LN68@scanstring
$LN62@scanstring:

; 398  :                 case 'n': c = '\n'; break;

  006a9	c7 44 24 70 0a
	00 00 00	 mov	 DWORD PTR c$20804[rsp], 10
  006b1	eb 1c		 jmp	 SHORT $LN68@scanstring
$LN61@scanstring:

; 399  :                 case 'r': c = '\r'; break;

  006b3	c7 44 24 70 0d
	00 00 00	 mov	 DWORD PTR c$20804[rsp], 13
  006bb	eb 12		 jmp	 SHORT $LN68@scanstring
$LN60@scanstring:

; 400  :                 case 't': c = '\t'; break;

  006bd	c7 44 24 70 09
	00 00 00	 mov	 DWORD PTR c$20804[rsp], 9
  006c5	eb 08		 jmp	 SHORT $LN68@scanstring
$LN59@scanstring:

; 401  :                 default: c = 0;

  006c7	c7 44 24 70 00
	00 00 00	 mov	 DWORD PTR c$20804[rsp], 0
$LN68@scanstring:

; 402  :             }
; 403  :             if (c == 0) {

  006cf	83 7c 24 70 00	 cmp	 DWORD PTR c$20804[rsp], 0
  006d4	75 28		 jne	 SHORT $LN58@scanstring

; 404  :                 raise_errmsg("Invalid \\escape", pystr, end - 2);

  006d6	48 8b 84 24 18
	01 00 00	 mov	 rax, QWORD PTR end$[rsp]
  006de	48 83 e8 02	 sub	 rax, 2
  006e2	4c 8b c0	 mov	 r8, rax
  006e5	48 8b 94 24 10
	01 00 00	 mov	 rdx, QWORD PTR pystr$[rsp]
  006ed	48 8d 0d 00 00
	00 00		 lea	 rcx, OFFSET FLAT:??_C@_0BA@JFDKNFEA@Invalid?5?2escape?$AA@
  006f4	e8 00 00 00 00	 call	 raise_errmsg

; 405  :                 goto bail;

  006f9	e9 4a 07 00 00	 jmp	 $bail$20800
$LN58@scanstring:

; 406  :             }
; 407  :         }
; 408  :         else {

  006fe	e9 03 05 00 00	 jmp	 $LN57@scanstring
$LN70@scanstring:

; 409  :             c = 0;

  00703	c7 44 24 70 00
	00 00 00	 mov	 DWORD PTR c$20804[rsp], 0

; 410  :             next++;

  0070b	48 8b 44 24 50	 mov	 rax, QWORD PTR next$[rsp]
  00710	48 ff c0	 inc	 rax
  00713	48 89 44 24 50	 mov	 QWORD PTR next$[rsp], rax

; 411  :             end = next + 4;

  00718	48 8b 44 24 50	 mov	 rax, QWORD PTR next$[rsp]
  0071d	48 83 c0 04	 add	 rax, 4
  00721	48 89 84 24 18
	01 00 00	 mov	 QWORD PTR end$[rsp], rax

; 412  :             if (end >= len) {

  00729	48 8b 44 24 58	 mov	 rax, QWORD PTR len$[rsp]
  0072e	48 39 84 24 18
	01 00 00	 cmp	 QWORD PTR end$[rsp], rax
  00736	7c 24		 jl	 SHORT $LN56@scanstring

; 413  :                 raise_errmsg("Invalid \\uXXXX escape", pystr, next - 1);

  00738	48 8b 44 24 50	 mov	 rax, QWORD PTR next$[rsp]
  0073d	48 ff c8	 dec	 rax
  00740	4c 8b c0	 mov	 r8, rax
  00743	48 8b 94 24 10
	01 00 00	 mov	 rdx, QWORD PTR pystr$[rsp]
  0074b	48 8d 0d 00 00
	00 00		 lea	 rcx, OFFSET FLAT:??_C@_0BG@HFBFLOEL@Invalid?5?2uXXXX?5escape?$AA@
  00752	e8 00 00 00 00	 call	 raise_errmsg

; 414  :                 goto bail;

  00757	e9 ec 06 00 00	 jmp	 $bail$20800
$LN56@scanstring:

; 415  :             }
; 416  :             /* Decode 4 hex digits */
; 417  :             for (; next < end; next++) {

  0075c	eb 0d		 jmp	 SHORT $LN55@scanstring
$LN54@scanstring:
  0075e	48 8b 44 24 50	 mov	 rax, QWORD PTR next$[rsp]
  00763	48 ff c0	 inc	 rax
  00766	48 89 44 24 50	 mov	 QWORD PTR next$[rsp], rax
$LN55@scanstring:
  0076b	48 8b 84 24 18
	01 00 00	 mov	 rax, QWORD PTR end$[rsp]
  00773	48 39 44 24 50	 cmp	 QWORD PTR next$[rsp], rax
  00778	0f 8d 3c 01 00
	00		 jge	 $LN53@scanstring

; 418  :                 Py_UCS4 digit = PyUnicode_READ(kind, buf, next);

  0077e	83 7c 24 30 01	 cmp	 DWORD PTR kind$[rsp], 1
  00783	75 1c		 jne	 SHORT $LN123@scanstring
  00785	48 8b 44 24 50	 mov	 rax, QWORD PTR next$[rsp]
  0078a	48 8b 4c 24 68	 mov	 rcx, QWORD PTR buf$[rsp]
  0078f	48 03 c8	 add	 rcx, rax
  00792	48 8b c1	 mov	 rax, rcx
  00795	0f b6 00	 movzx	 eax, BYTE PTR [rax]
  00798	89 84 24 d4 00
	00 00		 mov	 DWORD PTR tv298[rsp], eax
  0079f	eb 40		 jmp	 SHORT $LN124@scanstring
$LN123@scanstring:
  007a1	83 7c 24 30 02	 cmp	 DWORD PTR kind$[rsp], 2
  007a6	75 17		 jne	 SHORT $LN121@scanstring
  007a8	48 8b 44 24 68	 mov	 rax, QWORD PTR buf$[rsp]
  007ad	48 8b 4c 24 50	 mov	 rcx, QWORD PTR next$[rsp]
  007b2	0f b7 04 48	 movzx	 eax, WORD PTR [rax+rcx*2]
  007b6	89 84 24 d8 00
	00 00		 mov	 DWORD PTR tv297[rsp], eax
  007bd	eb 14		 jmp	 SHORT $LN122@scanstring
$LN121@scanstring:
  007bf	48 8b 44 24 68	 mov	 rax, QWORD PTR buf$[rsp]
  007c4	48 8b 4c 24 50	 mov	 rcx, QWORD PTR next$[rsp]
  007c9	8b 04 88	 mov	 eax, DWORD PTR [rax+rcx*4]
  007cc	89 84 24 d8 00
	00 00		 mov	 DWORD PTR tv297[rsp], eax
$LN122@scanstring:
  007d3	8b 84 24 d8 00
	00 00		 mov	 eax, DWORD PTR tv297[rsp]
  007da	89 84 24 d4 00
	00 00		 mov	 DWORD PTR tv298[rsp], eax
$LN124@scanstring:
  007e1	8b 84 24 d4 00
	00 00		 mov	 eax, DWORD PTR tv298[rsp]
  007e8	89 84 24 80 00
	00 00		 mov	 DWORD PTR digit$20869[rsp], eax

; 419  :                 c <<= 4;

  007ef	8b 44 24 70	 mov	 eax, DWORD PTR c$20804[rsp]
  007f3	c1 e0 04	 shl	 eax, 4
  007f6	89 44 24 70	 mov	 DWORD PTR c$20804[rsp], eax

; 420  :                 switch (digit) {

  007fa	8b 84 24 80 00
	00 00		 mov	 eax, DWORD PTR digit$20869[rsp]
  00801	89 84 24 dc 00
	00 00		 mov	 DWORD PTR tv300[rsp], eax
  00808	8b 84 24 dc 00
	00 00		 mov	 eax, DWORD PTR tv300[rsp]
  0080f	83 e8 30	 sub	 eax, 48			; 00000030H
  00812	89 84 24 dc 00
	00 00		 mov	 DWORD PTR tv300[rsp], eax
  00819	83 bc 24 dc 00
	00 00 36	 cmp	 DWORD PTR tv300[rsp], 54 ; 00000036H
  00821	77 6a		 ja	 SHORT $LN47@scanstring
  00823	8b 84 24 dc 00
	00 00		 mov	 eax, DWORD PTR tv300[rsp]
  0082a	48 8d 0d 00 00
	00 00		 lea	 rcx, OFFSET FLAT:__ImageBase
  00831	0f b6 84 01 00
	00 00 00	 movzx	 eax, BYTE PTR $LN139@scanstring[rcx+rax]
  00839	8b 84 81 00 00
	00 00		 mov	 eax, DWORD PTR $LN140@scanstring[rcx+rax*4]
  00840	48 03 c1	 add	 rax, rcx
  00843	ff e0		 jmp	 rax
$LN50@scanstring:

; 421  :                     case '0': case '1': case '2': case '3': case '4':
; 422  :                     case '5': case '6': case '7': case '8': case '9':
; 423  :                         c |= (digit - '0'); break;

  00845	8b 84 24 80 00
	00 00		 mov	 eax, DWORD PTR digit$20869[rsp]
  0084c	83 e8 30	 sub	 eax, 48			; 00000030H
  0084f	8b 4c 24 70	 mov	 ecx, DWORD PTR c$20804[rsp]
  00853	0b c8		 or	 ecx, eax
  00855	8b c1		 mov	 eax, ecx
  00857	89 44 24 70	 mov	 DWORD PTR c$20804[rsp], eax
  0085b	eb 58		 jmp	 SHORT $LN51@scanstring
$LN49@scanstring:

; 424  :                     case 'a': case 'b': case 'c': case 'd': case 'e':
; 425  :                     case 'f':
; 426  :                         c |= (digit - 'a' + 10); break;

  0085d	8b 84 24 80 00
	00 00		 mov	 eax, DWORD PTR digit$20869[rsp]
  00864	83 e8 57	 sub	 eax, 87			; 00000057H
  00867	8b 4c 24 70	 mov	 ecx, DWORD PTR c$20804[rsp]
  0086b	0b c8		 or	 ecx, eax
  0086d	8b c1		 mov	 eax, ecx
  0086f	89 44 24 70	 mov	 DWORD PTR c$20804[rsp], eax
  00873	eb 40		 jmp	 SHORT $LN51@scanstring
$LN48@scanstring:

; 427  :                     case 'A': case 'B': case 'C': case 'D': case 'E':
; 428  :                     case 'F':
; 429  :                         c |= (digit - 'A' + 10); break;

  00875	8b 84 24 80 00
	00 00		 mov	 eax, DWORD PTR digit$20869[rsp]
  0087c	83 e8 37	 sub	 eax, 55			; 00000037H
  0087f	8b 4c 24 70	 mov	 ecx, DWORD PTR c$20804[rsp]
  00883	0b c8		 or	 ecx, eax
  00885	8b c1		 mov	 eax, ecx
  00887	89 44 24 70	 mov	 DWORD PTR c$20804[rsp], eax
  0088b	eb 28		 jmp	 SHORT $LN51@scanstring
$LN47@scanstring:

; 430  :                     default:
; 431  :                         raise_errmsg("Invalid \\uXXXX escape", pystr, end - 5);

  0088d	48 8b 84 24 18
	01 00 00	 mov	 rax, QWORD PTR end$[rsp]
  00895	48 83 e8 05	 sub	 rax, 5
  00899	4c 8b c0	 mov	 r8, rax
  0089c	48 8b 94 24 10
	01 00 00	 mov	 rdx, QWORD PTR pystr$[rsp]
  008a4	48 8d 0d 00 00
	00 00		 lea	 rcx, OFFSET FLAT:??_C@_0BG@HFBFLOEL@Invalid?5?2uXXXX?5escape?$AA@
  008ab	e8 00 00 00 00	 call	 raise_errmsg

; 432  :                         goto bail;

  008b0	e9 93 05 00 00	 jmp	 $bail$20800
$LN51@scanstring:

; 433  :                 }
; 434  :             }

  008b5	e9 a4 fe ff ff	 jmp	 $LN54@scanstring
$LN53@scanstring:

; 435  :             /* Surrogate pair */
; 436  :             if (Py_UNICODE_IS_HIGH_SURROGATE(c) && end + 6 < len &&
; 437  :                 PyUnicode_READ(kind, buf, next++) == '\\' &&
; 438  :                 PyUnicode_READ(kind, buf, next++) == 'u') {

  008ba	81 7c 24 70 00
	d8 00 00	 cmp	 DWORD PTR c$20804[rsp], 55296 ; 0000d800H
  008c2	0f 82 3e 03 00
	00		 jb	 $LN46@scanstring
  008c8	81 7c 24 70 ff
	db 00 00	 cmp	 DWORD PTR c$20804[rsp], 56319 ; 0000dbffH
  008d0	0f 87 30 03 00
	00		 ja	 $LN46@scanstring
  008d6	48 8b 84 24 18
	01 00 00	 mov	 rax, QWORD PTR end$[rsp]
  008de	48 83 c0 06	 add	 rax, 6
  008e2	48 3b 44 24 58	 cmp	 rax, QWORD PTR len$[rsp]
  008e7	0f 8d 19 03 00
	00		 jge	 $LN46@scanstring
  008ed	83 7c 24 30 01	 cmp	 DWORD PTR kind$[rsp], 1
  008f2	75 29		 jne	 SHORT $LN127@scanstring
  008f4	48 8b 44 24 50	 mov	 rax, QWORD PTR next$[rsp]
  008f9	48 8b 4c 24 68	 mov	 rcx, QWORD PTR buf$[rsp]
  008fe	48 03 c8	 add	 rcx, rax
  00901	48 8b c1	 mov	 rax, rcx
  00904	0f b6 00	 movzx	 eax, BYTE PTR [rax]
  00907	89 84 24 e0 00
	00 00		 mov	 DWORD PTR tv332[rsp], eax
  0090e	48 8b 44 24 50	 mov	 rax, QWORD PTR next$[rsp]
  00913	48 ff c0	 inc	 rax
  00916	48 89 44 24 50	 mov	 QWORD PTR next$[rsp], rax
  0091b	eb 5a		 jmp	 SHORT $LN128@scanstring
$LN127@scanstring:
  0091d	83 7c 24 30 02	 cmp	 DWORD PTR kind$[rsp], 2
  00922	75 24		 jne	 SHORT $LN125@scanstring
  00924	48 8b 44 24 68	 mov	 rax, QWORD PTR buf$[rsp]
  00929	48 8b 4c 24 50	 mov	 rcx, QWORD PTR next$[rsp]
  0092e	0f b7 04 48	 movzx	 eax, WORD PTR [rax+rcx*2]
  00932	89 84 24 e4 00
	00 00		 mov	 DWORD PTR tv331[rsp], eax
  00939	48 8b 44 24 50	 mov	 rax, QWORD PTR next$[rsp]
  0093e	48 ff c0	 inc	 rax
  00941	48 89 44 24 50	 mov	 QWORD PTR next$[rsp], rax
  00946	eb 21		 jmp	 SHORT $LN126@scanstring
$LN125@scanstring:
  00948	48 8b 44 24 68	 mov	 rax, QWORD PTR buf$[rsp]
  0094d	48 8b 4c 24 50	 mov	 rcx, QWORD PTR next$[rsp]
  00952	8b 04 88	 mov	 eax, DWORD PTR [rax+rcx*4]
  00955	89 84 24 e4 00
	00 00		 mov	 DWORD PTR tv331[rsp], eax
  0095c	48 8b 44 24 50	 mov	 rax, QWORD PTR next$[rsp]
  00961	48 ff c0	 inc	 rax
  00964	48 89 44 24 50	 mov	 QWORD PTR next$[rsp], rax
$LN126@scanstring:
  00969	8b 84 24 e4 00
	00 00		 mov	 eax, DWORD PTR tv331[rsp]
  00970	89 84 24 e0 00
	00 00		 mov	 DWORD PTR tv332[rsp], eax
$LN128@scanstring:
  00977	83 bc 24 e0 00
	00 00 5c	 cmp	 DWORD PTR tv332[rsp], 92 ; 0000005cH
  0097f	0f 85 81 02 00
	00		 jne	 $LN46@scanstring
  00985	83 7c 24 30 01	 cmp	 DWORD PTR kind$[rsp], 1
  0098a	75 29		 jne	 SHORT $LN131@scanstring
  0098c	48 8b 44 24 50	 mov	 rax, QWORD PTR next$[rsp]
  00991	48 8b 4c 24 68	 mov	 rcx, QWORD PTR buf$[rsp]
  00996	48 03 c8	 add	 rcx, rax
  00999	48 8b c1	 mov	 rax, rcx
  0099c	0f b6 00	 movzx	 eax, BYTE PTR [rax]
  0099f	89 84 24 e8 00
	00 00		 mov	 DWORD PTR tv347[rsp], eax
  009a6	48 8b 44 24 50	 mov	 rax, QWORD PTR next$[rsp]
  009ab	48 ff c0	 inc	 rax
  009ae	48 89 44 24 50	 mov	 QWORD PTR next$[rsp], rax
  009b3	eb 5a		 jmp	 SHORT $LN132@scanstring
$LN131@scanstring:
  009b5	83 7c 24 30 02	 cmp	 DWORD PTR kind$[rsp], 2
  009ba	75 24		 jne	 SHORT $LN129@scanstring
  009bc	48 8b 44 24 68	 mov	 rax, QWORD PTR buf$[rsp]
  009c1	48 8b 4c 24 50	 mov	 rcx, QWORD PTR next$[rsp]
  009c6	0f b7 04 48	 movzx	 eax, WORD PTR [rax+rcx*2]
  009ca	89 84 24 ec 00
	00 00		 mov	 DWORD PTR tv346[rsp], eax
  009d1	48 8b 44 24 50	 mov	 rax, QWORD PTR next$[rsp]
  009d6	48 ff c0	 inc	 rax
  009d9	48 89 44 24 50	 mov	 QWORD PTR next$[rsp], rax
  009de	eb 21		 jmp	 SHORT $LN130@scanstring
$LN129@scanstring:
  009e0	48 8b 44 24 68	 mov	 rax, QWORD PTR buf$[rsp]
  009e5	48 8b 4c 24 50	 mov	 rcx, QWORD PTR next$[rsp]
  009ea	8b 04 88	 mov	 eax, DWORD PTR [rax+rcx*4]
  009ed	89 84 24 ec 00
	00 00		 mov	 DWORD PTR tv346[rsp], eax
  009f4	48 8b 44 24 50	 mov	 rax, QWORD PTR next$[rsp]
  009f9	48 ff c0	 inc	 rax
  009fc	48 89 44 24 50	 mov	 QWORD PTR next$[rsp], rax
$LN130@scanstring:
  00a01	8b 84 24 ec 00
	00 00		 mov	 eax, DWORD PTR tv346[rsp]
  00a08	89 84 24 e8 00
	00 00		 mov	 DWORD PTR tv347[rsp], eax
$LN132@scanstring:
  00a0f	83 bc 24 e8 00
	00 00 75	 cmp	 DWORD PTR tv347[rsp], 117 ; 00000075H
  00a17	0f 85 e9 01 00
	00		 jne	 $LN46@scanstring

; 439  :                 Py_UCS4 c2 = 0;

  00a1d	c7 84 24 84 00
	00 00 00 00 00
	00		 mov	 DWORD PTR c2$20891[rsp], 0

; 440  :                 end += 6;

  00a28	48 8b 84 24 18
	01 00 00	 mov	 rax, QWORD PTR end$[rsp]
  00a30	48 83 c0 06	 add	 rax, 6
  00a34	48 89 84 24 18
	01 00 00	 mov	 QWORD PTR end$[rsp], rax

; 441  :                 /* Decode 4 hex digits */
; 442  :                 for (; next < end; next++) {

  00a3c	eb 0d		 jmp	 SHORT $LN45@scanstring
$LN44@scanstring:
  00a3e	48 8b 44 24 50	 mov	 rax, QWORD PTR next$[rsp]
  00a43	48 ff c0	 inc	 rax
  00a46	48 89 44 24 50	 mov	 QWORD PTR next$[rsp], rax
$LN45@scanstring:
  00a4b	48 8b 84 24 18
	01 00 00	 mov	 rax, QWORD PTR end$[rsp]
  00a53	48 39 44 24 50	 cmp	 QWORD PTR next$[rsp], rax
  00a58	0f 8d 54 01 00
	00		 jge	 $LN43@scanstring

; 443  :                     Py_UCS4 digit = PyUnicode_READ(kind, buf, next);

  00a5e	83 7c 24 30 01	 cmp	 DWORD PTR kind$[rsp], 1
  00a63	75 1c		 jne	 SHORT $LN135@scanstring
  00a65	48 8b 44 24 50	 mov	 rax, QWORD PTR next$[rsp]
  00a6a	48 8b 4c 24 68	 mov	 rcx, QWORD PTR buf$[rsp]
  00a6f	48 03 c8	 add	 rcx, rax
  00a72	48 8b c1	 mov	 rax, rcx
  00a75	0f b6 00	 movzx	 eax, BYTE PTR [rax]
  00a78	89 84 24 f0 00
	00 00		 mov	 DWORD PTR tv362[rsp], eax
  00a7f	eb 40		 jmp	 SHORT $LN136@scanstring
$LN135@scanstring:
  00a81	83 7c 24 30 02	 cmp	 DWORD PTR kind$[rsp], 2
  00a86	75 17		 jne	 SHORT $LN133@scanstring
  00a88	48 8b 44 24 68	 mov	 rax, QWORD PTR buf$[rsp]
  00a8d	48 8b 4c 24 50	 mov	 rcx, QWORD PTR next$[rsp]
  00a92	0f b7 04 48	 movzx	 eax, WORD PTR [rax+rcx*2]
  00a96	89 84 24 f4 00
	00 00		 mov	 DWORD PTR tv361[rsp], eax
  00a9d	eb 14		 jmp	 SHORT $LN134@scanstring
$LN133@scanstring:
  00a9f	48 8b 44 24 68	 mov	 rax, QWORD PTR buf$[rsp]
  00aa4	48 8b 4c 24 50	 mov	 rcx, QWORD PTR next$[rsp]
  00aa9	8b 04 88	 mov	 eax, DWORD PTR [rax+rcx*4]
  00aac	89 84 24 f4 00
	00 00		 mov	 DWORD PTR tv361[rsp], eax
$LN134@scanstring:
  00ab3	8b 84 24 f4 00
	00 00		 mov	 eax, DWORD PTR tv361[rsp]
  00aba	89 84 24 f0 00
	00 00		 mov	 DWORD PTR tv362[rsp], eax
$LN136@scanstring:
  00ac1	8b 84 24 f0 00
	00 00		 mov	 eax, DWORD PTR tv362[rsp]
  00ac8	89 84 24 88 00
	00 00		 mov	 DWORD PTR digit$20895[rsp], eax

; 444  :                     c2 <<= 4;

  00acf	8b 84 24 84 00
	00 00		 mov	 eax, DWORD PTR c2$20891[rsp]
  00ad6	c1 e0 04	 shl	 eax, 4
  00ad9	89 84 24 84 00
	00 00		 mov	 DWORD PTR c2$20891[rsp], eax

; 445  :                     switch (digit) {

  00ae0	8b 84 24 88 00
	00 00		 mov	 eax, DWORD PTR digit$20895[rsp]
  00ae7	89 84 24 f8 00
	00 00		 mov	 DWORD PTR tv364[rsp], eax
  00aee	8b 84 24 f8 00
	00 00		 mov	 eax, DWORD PTR tv364[rsp]
  00af5	83 e8 30	 sub	 eax, 48			; 00000030H
  00af8	89 84 24 f8 00
	00 00		 mov	 DWORD PTR tv364[rsp], eax
  00aff	83 bc 24 f8 00
	00 00 36	 cmp	 DWORD PTR tv364[rsp], 54 ; 00000036H
  00b07	77 7c		 ja	 SHORT $LN37@scanstring
  00b09	8b 84 24 f8 00
	00 00		 mov	 eax, DWORD PTR tv364[rsp]
  00b10	48 8d 0d 00 00
	00 00		 lea	 rcx, OFFSET FLAT:__ImageBase
  00b17	0f b6 84 01 00
	00 00 00	 movzx	 eax, BYTE PTR $LN137@scanstring[rcx+rax]
  00b1f	8b 84 81 00 00
	00 00		 mov	 eax, DWORD PTR $LN138@scanstring[rcx+rax*4]
  00b26	48 03 c1	 add	 rax, rcx
  00b29	ff e0		 jmp	 rax
$LN40@scanstring:

; 446  :                         case '0': case '1': case '2': case '3': case '4':
; 447  :                         case '5': case '6': case '7': case '8': case '9':
; 448  :                             c2 |= (digit - '0'); break;

  00b2b	8b 84 24 88 00
	00 00		 mov	 eax, DWORD PTR digit$20895[rsp]
  00b32	83 e8 30	 sub	 eax, 48			; 00000030H
  00b35	8b 8c 24 84 00
	00 00		 mov	 ecx, DWORD PTR c2$20891[rsp]
  00b3c	0b c8		 or	 ecx, eax
  00b3e	8b c1		 mov	 eax, ecx
  00b40	89 84 24 84 00
	00 00		 mov	 DWORD PTR c2$20891[rsp], eax
  00b47	eb 64		 jmp	 SHORT $LN41@scanstring
$LN39@scanstring:

; 449  :                         case 'a': case 'b': case 'c': case 'd': case 'e':
; 450  :                         case 'f':
; 451  :                             c2 |= (digit - 'a' + 10); break;

  00b49	8b 84 24 88 00
	00 00		 mov	 eax, DWORD PTR digit$20895[rsp]
  00b50	83 e8 57	 sub	 eax, 87			; 00000057H
  00b53	8b 8c 24 84 00
	00 00		 mov	 ecx, DWORD PTR c2$20891[rsp]
  00b5a	0b c8		 or	 ecx, eax
  00b5c	8b c1		 mov	 eax, ecx
  00b5e	89 84 24 84 00
	00 00		 mov	 DWORD PTR c2$20891[rsp], eax
  00b65	eb 46		 jmp	 SHORT $LN41@scanstring
$LN38@scanstring:

; 452  :                         case 'A': case 'B': case 'C': case 'D': case 'E':
; 453  :                         case 'F':
; 454  :                             c2 |= (digit - 'A' + 10); break;

  00b67	8b 84 24 88 00
	00 00		 mov	 eax, DWORD PTR digit$20895[rsp]
  00b6e	83 e8 37	 sub	 eax, 55			; 00000037H
  00b71	8b 8c 24 84 00
	00 00		 mov	 ecx, DWORD PTR c2$20891[rsp]
  00b78	0b c8		 or	 ecx, eax
  00b7a	8b c1		 mov	 eax, ecx
  00b7c	89 84 24 84 00
	00 00		 mov	 DWORD PTR c2$20891[rsp], eax
  00b83	eb 28		 jmp	 SHORT $LN41@scanstring
$LN37@scanstring:

; 455  :                         default:
; 456  :                             raise_errmsg("Invalid \\uXXXX escape", pystr, end - 5);

  00b85	48 8b 84 24 18
	01 00 00	 mov	 rax, QWORD PTR end$[rsp]
  00b8d	48 83 e8 05	 sub	 rax, 5
  00b91	4c 8b c0	 mov	 r8, rax
  00b94	48 8b 94 24 10
	01 00 00	 mov	 rdx, QWORD PTR pystr$[rsp]
  00b9c	48 8d 0d 00 00
	00 00		 lea	 rcx, OFFSET FLAT:??_C@_0BG@HFBFLOEL@Invalid?5?2uXXXX?5escape?$AA@
  00ba3	e8 00 00 00 00	 call	 raise_errmsg

; 457  :                             goto bail;

  00ba8	e9 9b 02 00 00	 jmp	 $bail$20800
$LN41@scanstring:

; 458  :                     }
; 459  :                 }

  00bad	e9 8c fe ff ff	 jmp	 $LN44@scanstring
$LN43@scanstring:

; 460  :                 if (Py_UNICODE_IS_LOW_SURROGATE(c2))

  00bb2	81 bc 24 84 00
	00 00 00 dc 00
	00		 cmp	 DWORD PTR c2$20891[rsp], 56320 ; 0000dc00H
  00bbd	72 33		 jb	 SHORT $LN36@scanstring
  00bbf	81 bc 24 84 00
	00 00 ff df 00
	00		 cmp	 DWORD PTR c2$20891[rsp], 57343 ; 0000dfffH
  00bca	77 26		 ja	 SHORT $LN36@scanstring

; 461  :                     c = Py_UNICODE_JOIN_SURROGATES(c, c2);

  00bcc	8b 44 24 70	 mov	 eax, DWORD PTR c$20804[rsp]
  00bd0	25 ff 03 00 00	 and	 eax, 1023		; 000003ffH
  00bd5	c1 e0 0a	 shl	 eax, 10
  00bd8	8b 8c 24 84 00
	00 00		 mov	 ecx, DWORD PTR c2$20891[rsp]
  00bdf	81 e1 ff 03 00
	00		 and	 ecx, 1023		; 000003ffH
  00be5	0b c1		 or	 eax, ecx
  00be7	05 00 00 01 00	 add	 eax, 65536		; 00010000H
  00bec	89 44 24 70	 mov	 DWORD PTR c$20804[rsp], eax

; 462  :                 else

  00bf0	eb 14		 jmp	 SHORT $LN35@scanstring
$LN36@scanstring:

; 463  :                     end -= 6;

  00bf2	48 8b 84 24 18
	01 00 00	 mov	 rax, QWORD PTR end$[rsp]
  00bfa	48 83 e8 06	 sub	 rax, 6
  00bfe	48 89 84 24 18
	01 00 00	 mov	 QWORD PTR end$[rsp], rax
$LN35@scanstring:
$LN46@scanstring:
$LN57@scanstring:

; 464  :             }
; 465  :         }
; 466  :         APPEND_OLD_CHUNK

  00c06	48 83 7c 24 48
	00		 cmp	 QWORD PTR chunk$[rsp], 0
  00c0c	0f 84 9e 00 00
	00		 je	 $LN34@scanstring
  00c12	48 83 7c 24 60
	00		 cmp	 QWORD PTR chunks$[rsp], 0
  00c18	75 19		 jne	 SHORT $LN33@scanstring
  00c1a	33 c9		 xor	 ecx, ecx
  00c1c	e8 00 00 00 00	 call	 PyList_New
  00c21	48 89 44 24 60	 mov	 QWORD PTR chunks$[rsp], rax
  00c26	48 83 7c 24 60
	00		 cmp	 QWORD PTR chunks$[rsp], 0
  00c2c	75 05		 jne	 SHORT $LN32@scanstring
  00c2e	e9 15 02 00 00	 jmp	 $bail$20800
$LN32@scanstring:
$LN33@scanstring:
  00c33	48 8b 54 24 48	 mov	 rdx, QWORD PTR chunk$[rsp]
  00c38	48 8b 4c 24 60	 mov	 rcx, QWORD PTR chunks$[rsp]
  00c3d	e8 00 00 00 00	 call	 PyList_Append
  00c42	85 c0		 test	 eax, eax
  00c44	74 0f		 je	 SHORT $LN31@scanstring
  00c46	48 8b 4c 24 48	 mov	 rcx, QWORD PTR chunk$[rsp]
  00c4b	e8 00 00 00 00	 call	 _Py_DecRef
  00c50	e9 f3 01 00 00	 jmp	 $bail$20800
$LN31@scanstring:
$LN30@scanstring:
  00c55	48 83 7c 24 48
	00		 cmp	 QWORD PTR chunk$[rsp], 0
  00c5b	74 4d		 je	 SHORT $LN27@scanstring
  00c5d	c7 44 24 20 10
	00 00 00	 mov	 DWORD PTR [rsp+32], 16
  00c65	4c 8b 4c 24 48	 mov	 r9, QWORD PTR chunk$[rsp]
  00c6a	41 b8 d2 01 00
	00		 mov	 r8d, 466		; 000001d2H
  00c70	48 8d 15 00 00
	00 00		 lea	 rdx, OFFSET FLAT:??_C@_0BD@BIGPLMIN@?4?4?2Modules?2_json?4c?$AA@
  00c77	48 8d 0d 00 00
	00 00		 lea	 rcx, OFFSET FLAT:??_C@_0BD@PDCADMBJ@scanstring_unicode?$AA@
  00c7e	e8 00 00 00 00	 call	 _PyParallel_Guard
  00c83	85 c0		 test	 eax, eax
  00c85	75 23		 jne	 SHORT $LN27@scanstring
  00c87	48 8b 44 24 48	 mov	 rax, QWORD PTR chunk$[rsp]
  00c8c	48 89 84 24 90
	00 00 00	 mov	 QWORD PTR _py_tmp$20924[rsp], rax
  00c94	48 c7 44 24 48
	00 00 00 00	 mov	 QWORD PTR chunk$[rsp], 0
  00c9d	48 8b 8c 24 90
	00 00 00	 mov	 rcx, QWORD PTR _py_tmp$20924[rsp]
  00ca5	e8 00 00 00 00	 call	 _Py_DecRef
$LN27@scanstring:
  00caa	33 c0		 xor	 eax, eax
  00cac	85 c0		 test	 eax, eax
  00cae	75 a5		 jne	 SHORT $LN30@scanstring
$LN34@scanstring:

; 467  :         chunk = PyUnicode_FromKindAndData(PyUnicode_4BYTE_KIND, &c, 1);

  00cb0	41 b8 01 00 00
	00		 mov	 r8d, 1
  00cb6	48 8d 54 24 70	 lea	 rdx, QWORD PTR c$20804[rsp]
  00cbb	b9 04 00 00 00	 mov	 ecx, 4
  00cc0	e8 00 00 00 00	 call	 PyUnicode_FromKindAndData
  00cc5	48 89 44 24 48	 mov	 QWORD PTR chunk$[rsp], rax

; 468  :         if (chunk == NULL) {

  00cca	48 83 7c 24 48
	00		 cmp	 QWORD PTR chunk$[rsp], 0
  00cd0	75 05		 jne	 SHORT $LN26@scanstring

; 469  :             goto bail;

  00cd2	e9 71 01 00 00	 jmp	 $bail$20800
$LN26@scanstring:

; 470  :         }
; 471  :     }

  00cd7	e9 6f f6 ff ff	 jmp	 $LN92@scanstring
$LN91@scanstring:

; 472  : 
; 473  :     if (chunks == NULL) {

  00cdc	48 83 7c 24 60
	00		 cmp	 QWORD PTR chunks$[rsp], 0
  00ce2	75 2c		 jne	 SHORT $LN25@scanstring

; 474  :         if (chunk != NULL)

  00ce4	48 83 7c 24 48
	00		 cmp	 QWORD PTR chunk$[rsp], 0
  00cea	74 0c		 je	 SHORT $LN24@scanstring

; 475  :             rval = chunk;

  00cec	48 8b 44 24 48	 mov	 rax, QWORD PTR chunk$[rsp]
  00cf1	48 89 44 24 40	 mov	 QWORD PTR rval$[rsp], rax

; 476  :         else

  00cf6	eb 13		 jmp	 SHORT $LN23@scanstring
$LN24@scanstring:

; 477  :             rval = PyUnicode_FromStringAndSize("", 0);

  00cf8	33 d2		 xor	 edx, edx
  00cfa	48 8d 0d 00 00
	00 00		 lea	 rcx, OFFSET FLAT:??_C@_00CNPNBAHC@?$AA@
  00d01	e8 00 00 00 00	 call	 PyUnicode_FromStringAndSize
  00d06	48 89 44 24 40	 mov	 QWORD PTR rval$[rsp], rax
$LN23@scanstring:

; 478  :     }
; 479  :     else {

  00d0b	e9 1e 01 00 00	 jmp	 $LN22@scanstring
$LN25@scanstring:

; 480  :         APPEND_OLD_CHUNK

  00d10	48 83 7c 24 48
	00		 cmp	 QWORD PTR chunk$[rsp], 0
  00d16	0f 84 9e 00 00
	00		 je	 $LN21@scanstring
  00d1c	48 83 7c 24 60
	00		 cmp	 QWORD PTR chunks$[rsp], 0
  00d22	75 19		 jne	 SHORT $LN20@scanstring
  00d24	33 c9		 xor	 ecx, ecx
  00d26	e8 00 00 00 00	 call	 PyList_New
  00d2b	48 89 44 24 60	 mov	 QWORD PTR chunks$[rsp], rax
  00d30	48 83 7c 24 60
	00		 cmp	 QWORD PTR chunks$[rsp], 0
  00d36	75 05		 jne	 SHORT $LN19@scanstring
  00d38	e9 0b 01 00 00	 jmp	 $bail$20800
$LN19@scanstring:
$LN20@scanstring:
  00d3d	48 8b 54 24 48	 mov	 rdx, QWORD PTR chunk$[rsp]
  00d42	48 8b 4c 24 60	 mov	 rcx, QWORD PTR chunks$[rsp]
  00d47	e8 00 00 00 00	 call	 PyList_Append
  00d4c	85 c0		 test	 eax, eax
  00d4e	74 0f		 je	 SHORT $LN18@scanstring
  00d50	48 8b 4c 24 48	 mov	 rcx, QWORD PTR chunk$[rsp]
  00d55	e8 00 00 00 00	 call	 _Py_DecRef
  00d5a	e9 e9 00 00 00	 jmp	 $bail$20800
$LN18@scanstring:
$LN17@scanstring:
  00d5f	48 83 7c 24 48
	00		 cmp	 QWORD PTR chunk$[rsp], 0
  00d65	74 4d		 je	 SHORT $LN14@scanstring
  00d67	c7 44 24 20 10
	00 00 00	 mov	 DWORD PTR [rsp+32], 16
  00d6f	4c 8b 4c 24 48	 mov	 r9, QWORD PTR chunk$[rsp]
  00d74	41 b8 e0 01 00
	00		 mov	 r8d, 480		; 000001e0H
  00d7a	48 8d 15 00 00
	00 00		 lea	 rdx, OFFSET FLAT:??_C@_0BD@BIGPLMIN@?4?4?2Modules?2_json?4c?$AA@
  00d81	48 8d 0d 00 00
	00 00		 lea	 rcx, OFFSET FLAT:??_C@_0BD@PDCADMBJ@scanstring_unicode?$AA@
  00d88	e8 00 00 00 00	 call	 _PyParallel_Guard
  00d8d	85 c0		 test	 eax, eax
  00d8f	75 23		 jne	 SHORT $LN14@scanstring
  00d91	48 8b 44 24 48	 mov	 rax, QWORD PTR chunk$[rsp]
  00d96	48 89 84 24 98
	00 00 00	 mov	 QWORD PTR _py_tmp$20948[rsp], rax
  00d9e	48 c7 44 24 48
	00 00 00 00	 mov	 QWORD PTR chunk$[rsp], 0
  00da7	48 8b 8c 24 98
	00 00 00	 mov	 rcx, QWORD PTR _py_tmp$20948[rsp]
  00daf	e8 00 00 00 00	 call	 _Py_DecRef
$LN14@scanstring:
  00db4	33 c0		 xor	 eax, eax
  00db6	85 c0		 test	 eax, eax
  00db8	75 a5		 jne	 SHORT $LN17@scanstring
$LN21@scanstring:

; 481  :         rval = join_list_unicode(chunks);

  00dba	48 8b 4c 24 60	 mov	 rcx, QWORD PTR chunks$[rsp]
  00dbf	e8 00 00 00 00	 call	 join_list_unicode
  00dc4	48 89 44 24 40	 mov	 QWORD PTR rval$[rsp], rax

; 482  :         if (rval == NULL) {

  00dc9	48 83 7c 24 40
	00		 cmp	 QWORD PTR rval$[rsp], 0
  00dcf	75 02		 jne	 SHORT $LN13@scanstring

; 483  :             goto bail;

  00dd1	eb 75		 jmp	 SHORT $bail$20800
$LN13@scanstring:
$LN12@scanstring:

; 484  :         }
; 485  :         Py_CLEAR(chunks);

  00dd3	48 83 7c 24 60
	00		 cmp	 QWORD PTR chunks$[rsp], 0
  00dd9	74 4d		 je	 SHORT $LN9@scanstring
  00ddb	c7 44 24 20 10
	00 00 00	 mov	 DWORD PTR [rsp+32], 16
  00de3	4c 8b 4c 24 60	 mov	 r9, QWORD PTR chunks$[rsp]
  00de8	41 b8 e5 01 00
	00		 mov	 r8d, 485		; 000001e5H
  00dee	48 8d 15 00 00
	00 00		 lea	 rdx, OFFSET FLAT:??_C@_0BD@BIGPLMIN@?4?4?2Modules?2_json?4c?$AA@
  00df5	48 8d 0d 00 00
	00 00		 lea	 rcx, OFFSET FLAT:??_C@_0BD@PDCADMBJ@scanstring_unicode?$AA@
  00dfc	e8 00 00 00 00	 call	 _PyParallel_Guard
  00e01	85 c0		 test	 eax, eax
  00e03	75 23		 jne	 SHORT $LN9@scanstring
  00e05	48 8b 44 24 60	 mov	 rax, QWORD PTR chunks$[rsp]
  00e0a	48 89 84 24 a0
	00 00 00	 mov	 QWORD PTR _py_tmp$20958[rsp], rax
  00e12	48 c7 44 24 60
	00 00 00 00	 mov	 QWORD PTR chunks$[rsp], 0
  00e1b	48 8b 8c 24 a0
	00 00 00	 mov	 rcx, QWORD PTR _py_tmp$20958[rsp]
  00e23	e8 00 00 00 00	 call	 _Py_DecRef
$LN9@scanstring:
  00e28	33 c0		 xor	 eax, eax
  00e2a	85 c0		 test	 eax, eax
  00e2c	75 a5		 jne	 SHORT $LN12@scanstring
$LN22@scanstring:

; 486  :     }
; 487  : 
; 488  :     *next_end_ptr = end;

  00e2e	48 8b 84 24 28
	01 00 00	 mov	 rax, QWORD PTR next_end_ptr$[rsp]
  00e36	48 8b 8c 24 18
	01 00 00	 mov	 rcx, QWORD PTR end$[rsp]
  00e3e	48 89 08	 mov	 QWORD PTR [rax], rcx

; 489  :     return rval;

  00e41	48 8b 44 24 40	 mov	 rax, QWORD PTR rval$[rsp]
  00e46	eb 41		 jmp	 SHORT $LN96@scanstring
$bail$20800:

; 490  : bail:
; 491  :     *next_end_ptr = -1;

  00e48	48 8b 84 24 28
	01 00 00	 mov	 rax, QWORD PTR next_end_ptr$[rsp]
  00e50	48 c7 00 ff ff
	ff ff		 mov	 QWORD PTR [rax], -1
$LN8@scanstring:

; 492  :     Py_XDECREF(chunks);

  00e57	48 83 7c 24 60
	00		 cmp	 QWORD PTR chunks$[rsp], 0
  00e5d	74 0a		 je	 SHORT $LN5@scanstring
  00e5f	48 8b 4c 24 60	 mov	 rcx, QWORD PTR chunks$[rsp]
  00e64	e8 00 00 00 00	 call	 _Py_DecRef
$LN5@scanstring:
  00e69	33 c0		 xor	 eax, eax
  00e6b	85 c0		 test	 eax, eax
  00e6d	75 e8		 jne	 SHORT $LN8@scanstring
$LN4@scanstring:

; 493  :     Py_XDECREF(chunk);

  00e6f	48 83 7c 24 48
	00		 cmp	 QWORD PTR chunk$[rsp], 0
  00e75	74 0a		 je	 SHORT $LN1@scanstring
  00e77	48 8b 4c 24 48	 mov	 rcx, QWORD PTR chunk$[rsp]
  00e7c	e8 00 00 00 00	 call	 _Py_DecRef
$LN1@scanstring:
  00e81	33 c0		 xor	 eax, eax
  00e83	85 c0		 test	 eax, eax
  00e85	75 e8		 jne	 SHORT $LN4@scanstring

; 494  :     return NULL;

  00e87	33 c0		 xor	 eax, eax
$LN96@scanstring:

; 495  : }

  00e89	48 81 c4 08 01
	00 00		 add	 rsp, 264		; 00000108H
  00e90	c3		 ret	 0
  00e91	0f 1f 00	 npad	 3
$LN142@scanstring:
  00e94	00 00 00 00	 DD	 $LN67@scanstring
  00e98	00 00 00 00	 DD	 $LN65@scanstring
  00e9c	00 00 00 00	 DD	 $LN66@scanstring
  00ea0	00 00 00 00	 DD	 $LN64@scanstring
  00ea4	00 00 00 00	 DD	 $LN63@scanstring
  00ea8	00 00 00 00	 DD	 $LN62@scanstring
  00eac	00 00 00 00	 DD	 $LN61@scanstring
  00eb0	00 00 00 00	 DD	 $LN60@scanstring
  00eb4	00 00 00 00	 DD	 $LN59@scanstring
$LN141@scanstring:
  00eb8	00		 DB	 0
  00eb9	08		 DB	 8
  00eba	08		 DB	 8
  00ebb	08		 DB	 8
  00ebc	08		 DB	 8
  00ebd	08		 DB	 8
  00ebe	08		 DB	 8
  00ebf	08		 DB	 8
  00ec0	08		 DB	 8
  00ec1	08		 DB	 8
  00ec2	08		 DB	 8
  00ec3	08		 DB	 8
  00ec4	08		 DB	 8
  00ec5	01		 DB	 1
  00ec6	08		 DB	 8
  00ec7	08		 DB	 8
  00ec8	08		 DB	 8
  00ec9	08		 DB	 8
  00eca	08		 DB	 8
  00ecb	08		 DB	 8
  00ecc	08		 DB	 8
  00ecd	08		 DB	 8
  00ece	08		 DB	 8
  00ecf	08		 DB	 8
  00ed0	08		 DB	 8
  00ed1	08		 DB	 8
  00ed2	08		 DB	 8
  00ed3	08		 DB	 8
  00ed4	08		 DB	 8
  00ed5	08		 DB	 8
  00ed6	08		 DB	 8
  00ed7	08		 DB	 8
  00ed8	08		 DB	 8
  00ed9	08		 DB	 8
  00eda	08		 DB	 8
  00edb	08		 DB	 8
  00edc	08		 DB	 8
  00edd	08		 DB	 8
  00ede	08		 DB	 8
  00edf	08		 DB	 8
  00ee0	08		 DB	 8
  00ee1	08		 DB	 8
  00ee2	08		 DB	 8
  00ee3	08		 DB	 8
  00ee4	08		 DB	 8
  00ee5	08		 DB	 8
  00ee6	08		 DB	 8
  00ee7	08		 DB	 8
  00ee8	08		 DB	 8
  00ee9	08		 DB	 8
  00eea	08		 DB	 8
  00eeb	08		 DB	 8
  00eec	08		 DB	 8
  00eed	08		 DB	 8
  00eee	08		 DB	 8
  00eef	08		 DB	 8
  00ef0	08		 DB	 8
  00ef1	08		 DB	 8
  00ef2	02		 DB	 2
  00ef3	08		 DB	 8
  00ef4	08		 DB	 8
  00ef5	08		 DB	 8
  00ef6	08		 DB	 8
  00ef7	08		 DB	 8
  00ef8	03		 DB	 3
  00ef9	08		 DB	 8
  00efa	08		 DB	 8
  00efb	08		 DB	 8
  00efc	04		 DB	 4
  00efd	08		 DB	 8
  00efe	08		 DB	 8
  00eff	08		 DB	 8
  00f00	08		 DB	 8
  00f01	08		 DB	 8
  00f02	08		 DB	 8
  00f03	08		 DB	 8
  00f04	05		 DB	 5
  00f05	08		 DB	 8
  00f06	08		 DB	 8
  00f07	08		 DB	 8
  00f08	06		 DB	 6
  00f09	08		 DB	 8
  00f0a	07		 DB	 7
  00f0b	90		 npad	 1
$LN140@scanstring:
  00f0c	00 00 00 00	 DD	 $LN50@scanstring
  00f10	00 00 00 00	 DD	 $LN48@scanstring
  00f14	00 00 00 00	 DD	 $LN49@scanstring
  00f18	00 00 00 00	 DD	 $LN47@scanstring
$LN139@scanstring:
  00f1c	00		 DB	 0
  00f1d	00		 DB	 0
  00f1e	00		 DB	 0
  00f1f	00		 DB	 0
  00f20	00		 DB	 0
  00f21	00		 DB	 0
  00f22	00		 DB	 0
  00f23	00		 DB	 0
  00f24	00		 DB	 0
  00f25	00		 DB	 0
  00f26	03		 DB	 3
  00f27	03		 DB	 3
  00f28	03		 DB	 3
  00f29	03		 DB	 3
  00f2a	03		 DB	 3
  00f2b	03		 DB	 3
  00f2c	03		 DB	 3
  00f2d	01		 DB	 1
  00f2e	01		 DB	 1
  00f2f	01		 DB	 1
  00f30	01		 DB	 1
  00f31	01		 DB	 1
  00f32	01		 DB	 1
  00f33	03		 DB	 3
  00f34	03		 DB	 3
  00f35	03		 DB	 3
  00f36	03		 DB	 3
  00f37	03		 DB	 3
  00f38	03		 DB	 3
  00f39	03		 DB	 3
  00f3a	03		 DB	 3
  00f3b	03		 DB	 3
  00f3c	03		 DB	 3
  00f3d	03		 DB	 3
  00f3e	03		 DB	 3
  00f3f	03		 DB	 3
  00f40	03		 DB	 3
  00f41	03		 DB	 3
  00f42	03		 DB	 3
  00f43	03		 DB	 3
  00f44	03		 DB	 3
  00f45	03		 DB	 3
  00f46	03		 DB	 3
  00f47	03		 DB	 3
  00f48	03		 DB	 3
  00f49	03		 DB	 3
  00f4a	03		 DB	 3
  00f4b	03		 DB	 3
  00f4c	03		 DB	 3
  00f4d	02		 DB	 2
  00f4e	02		 DB	 2
  00f4f	02		 DB	 2
  00f50	02		 DB	 2
  00f51	02		 DB	 2
  00f52	02		 DB	 2
  00f53	90		 npad	 1
$LN138@scanstring:
  00f54	00 00 00 00	 DD	 $LN40@scanstring
  00f58	00 00 00 00	 DD	 $LN38@scanstring
  00f5c	00 00 00 00	 DD	 $LN39@scanstring
  00f60	00 00 00 00	 DD	 $LN37@scanstring
$LN137@scanstring:
  00f64	00		 DB	 0
  00f65	00		 DB	 0
  00f66	00		 DB	 0
  00f67	00		 DB	 0
  00f68	00		 DB	 0
  00f69	00		 DB	 0
  00f6a	00		 DB	 0
  00f6b	00		 DB	 0
  00f6c	00		 DB	 0
  00f6d	00		 DB	 0
  00f6e	03		 DB	 3
  00f6f	03		 DB	 3
  00f70	03		 DB	 3
  00f71	03		 DB	 3
  00f72	03		 DB	 3
  00f73	03		 DB	 3
  00f74	03		 DB	 3
  00f75	01		 DB	 1
  00f76	01		 DB	 1
  00f77	01		 DB	 1
  00f78	01		 DB	 1
  00f79	01		 DB	 1
  00f7a	01		 DB	 1
  00f7b	03		 DB	 3
  00f7c	03		 DB	 3
  00f7d	03		 DB	 3
  00f7e	03		 DB	 3
  00f7f	03		 DB	 3
  00f80	03		 DB	 3
  00f81	03		 DB	 3
  00f82	03		 DB	 3
  00f83	03		 DB	 3
  00f84	03		 DB	 3
  00f85	03		 DB	 3
  00f86	03		 DB	 3
  00f87	03		 DB	 3
  00f88	03		 DB	 3
  00f89	03		 DB	 3
  00f8a	03		 DB	 3
  00f8b	03		 DB	 3
  00f8c	03		 DB	 3
  00f8d	03		 DB	 3
  00f8e	03		 DB	 3
  00f8f	03		 DB	 3
  00f90	03		 DB	 3
  00f91	03		 DB	 3
  00f92	03		 DB	 3
  00f93	03		 DB	 3
  00f94	03		 DB	 3
  00f95	02		 DB	 2
  00f96	02		 DB	 2
  00f97	02		 DB	 2
  00f98	02		 DB	 2
  00f99	02		 DB	 2
  00f9a	02		 DB	 2
scanstring_unicode ENDP
_TEXT	ENDS
EXTRN	PyUnicode_Join:PROC
;	COMDAT pdata
pdata	SEGMENT
$pdata$join_list_unicode DD imagerel join_list_unicode
	DD	imagerel join_list_unicode+76
	DD	imagerel $unwind$join_list_unicode
pdata	ENDS
;	COMDAT xdata
xdata	SEGMENT
$unwind$join_list_unicode DD 010901H
	DD	04209H
; Function compile flags: /Odtp
xdata	ENDS
;	COMDAT join_list_unicode
_TEXT	SEGMENT
lst$ = 48
join_list_unicode PROC					; COMDAT

; 82   : {

  00000	48 89 4c 24 08	 mov	 QWORD PTR [rsp+8], rcx
  00005	48 83 ec 28	 sub	 rsp, 40			; 00000028H

; 83   :     /* return u''.join(lst) */
; 84   :     static PyObject *sep = NULL;
; 85   :     if (sep == NULL) {

  00009	48 83 3d 00 00
	00 00 00	 cmp	 QWORD PTR ?sep@?1??join_list_unicode@@9@9, 0
  00011	75 23		 jne	 SHORT $LN2@join_list_

; 86   :         sep = PyUnicode_FromStringAndSize("", 0);

  00013	33 d2		 xor	 edx, edx
  00015	48 8d 0d 00 00
	00 00		 lea	 rcx, OFFSET FLAT:??_C@_00CNPNBAHC@?$AA@
  0001c	e8 00 00 00 00	 call	 PyUnicode_FromStringAndSize
  00021	48 89 05 00 00
	00 00		 mov	 QWORD PTR ?sep@?1??join_list_unicode@@9@9, rax

; 87   :         if (sep == NULL)

  00028	48 83 3d 00 00
	00 00 00	 cmp	 QWORD PTR ?sep@?1??join_list_unicode@@9@9, 0
  00030	75 04		 jne	 SHORT $LN1@join_list_

; 88   :             return NULL;

  00032	33 c0		 xor	 eax, eax
  00034	eb 11		 jmp	 SHORT $LN3@join_list_
$LN1@join_list_:
$LN2@join_list_:

; 89   :     }
; 90   :     return PyUnicode_Join(sep, lst);

  00036	48 8b 54 24 30	 mov	 rdx, QWORD PTR lst$[rsp]
  0003b	48 8b 0d 00 00
	00 00		 mov	 rcx, QWORD PTR ?sep@?1??join_list_unicode@@9@9
  00042	e8 00 00 00 00	 call	 PyUnicode_Join
$LN3@join_list_:

; 91   : }

  00047	48 83 c4 28	 add	 rsp, 40			; 00000028H
  0004b	c3		 ret	 0
join_list_unicode ENDP
_TEXT	ENDS
PUBLIC	??_C@_06FFCKFLJH@?$CIzOO?$CG?$CJ?$AA@		; `string'
PUBLIC	??_C@_06MLKCFIBB@errmsg?$AA@			; `string'
PUBLIC	??_C@_0N@COLOHLIN@json?4decoder?$AA@		; `string'
EXTRN	PyErr_SetObject:PROC
EXTRN	PyObject_CallFunction:PROC
EXTRN	PyObject_GetAttrString:PROC
EXTRN	PyImport_ImportModule:PROC
;	COMDAT pdata
pdata	SEGMENT
$pdata$raise_errmsg DD imagerel raise_errmsg
	DD	imagerel raise_errmsg+201
	DD	imagerel $unwind$raise_errmsg
pdata	ENDS
;	COMDAT xdata
xdata	SEGMENT
$unwind$raise_errmsg DD 011301H
	DD	08213H
xdata	ENDS
;	COMDAT ??_C@_06FFCKFLJH@?$CIzOO?$CG?$CJ?$AA@
CONST	SEGMENT
??_C@_06FFCKFLJH@?$CIzOO?$CG?$CJ?$AA@ DB '(zOO&)', 00H	; `string'
CONST	ENDS
;	COMDAT ??_C@_06MLKCFIBB@errmsg?$AA@
CONST	SEGMENT
??_C@_06MLKCFIBB@errmsg?$AA@ DB 'errmsg', 00H		; `string'
CONST	ENDS
;	COMDAT ??_C@_0N@COLOHLIN@json?4decoder?$AA@
CONST	SEGMENT
??_C@_0N@COLOHLIN@json?4decoder?$AA@ DB 'json.decoder', 00H ; `string'
; Function compile flags: /Odtp
CONST	ENDS
;	COMDAT raise_errmsg
_TEXT	SEGMENT
pymsg$ = 48
decoder$20713 = 56
msg$ = 80
s$ = 88
end$ = 96
raise_errmsg PROC					; COMDAT

; 257  : {

  00000	4c 89 44 24 18	 mov	 QWORD PTR [rsp+24], r8
  00005	48 89 54 24 10	 mov	 QWORD PTR [rsp+16], rdx
  0000a	48 89 4c 24 08	 mov	 QWORD PTR [rsp+8], rcx
  0000f	48 83 ec 48	 sub	 rsp, 72			; 00000048H

; 258  :     /* Use the Python function json.decoder.errmsg to raise a nice
; 259  :     looking ValueError exception */
; 260  :     static PyObject *errmsg_fn = NULL;
; 261  :     PyObject *pymsg;
; 262  :     if (errmsg_fn == NULL) {

  00013	48 83 3d 00 00
	00 00 00	 cmp	 QWORD PTR ?errmsg_fn@?1??raise_errmsg@@9@9, 0
  0001b	75 4c		 jne	 SHORT $LN4@raise_errm

; 263  :         PyObject *decoder = PyImport_ImportModule("json.decoder");

  0001d	48 8d 0d 00 00
	00 00		 lea	 rcx, OFFSET FLAT:??_C@_0N@COLOHLIN@json?4decoder?$AA@
  00024	e8 00 00 00 00	 call	 PyImport_ImportModule
  00029	48 89 44 24 38	 mov	 QWORD PTR decoder$20713[rsp], rax

; 264  :         if (decoder == NULL)

  0002e	48 83 7c 24 38
	00		 cmp	 QWORD PTR decoder$20713[rsp], 0
  00034	75 05		 jne	 SHORT $LN3@raise_errm

; 265  :             return;

  00036	e9 89 00 00 00	 jmp	 $LN5@raise_errm
$LN3@raise_errm:

; 266  :         errmsg_fn = PyObject_GetAttrString(decoder, "errmsg");

  0003b	48 8d 15 00 00
	00 00		 lea	 rdx, OFFSET FLAT:??_C@_06MLKCFIBB@errmsg?$AA@
  00042	48 8b 4c 24 38	 mov	 rcx, QWORD PTR decoder$20713[rsp]
  00047	e8 00 00 00 00	 call	 PyObject_GetAttrString
  0004c	48 89 05 00 00
	00 00		 mov	 QWORD PTR ?errmsg_fn@?1??raise_errmsg@@9@9, rax

; 267  :         Py_DECREF(decoder);

  00053	48 8b 4c 24 38	 mov	 rcx, QWORD PTR decoder$20713[rsp]
  00058	e8 00 00 00 00	 call	 _Py_DecRef

; 268  :         if (errmsg_fn == NULL)

  0005d	48 83 3d 00 00
	00 00 00	 cmp	 QWORD PTR ?errmsg_fn@?1??raise_errmsg@@9@9, 0
  00065	75 02		 jne	 SHORT $LN2@raise_errm

; 269  :             return;

  00067	eb 5b		 jmp	 SHORT $LN5@raise_errm
$LN2@raise_errm:
$LN4@raise_errm:

; 270  :     }
; 271  :     pymsg = PyObject_CallFunction(errmsg_fn, "(zOO&)", msg, s, _convertPyInt_FromSsize_t, &end);

  00069	48 8d 44 24 60	 lea	 rax, QWORD PTR end$[rsp]
  0006e	48 89 44 24 28	 mov	 QWORD PTR [rsp+40], rax
  00073	48 8d 05 00 00
	00 00		 lea	 rax, OFFSET FLAT:_convertPyInt_FromSsize_t
  0007a	48 89 44 24 20	 mov	 QWORD PTR [rsp+32], rax
  0007f	4c 8b 4c 24 58	 mov	 r9, QWORD PTR s$[rsp]
  00084	4c 8b 44 24 50	 mov	 r8, QWORD PTR msg$[rsp]
  00089	48 8d 15 00 00
	00 00		 lea	 rdx, OFFSET FLAT:??_C@_06FFCKFLJH@?$CIzOO?$CG?$CJ?$AA@
  00090	48 8b 0d 00 00
	00 00		 mov	 rcx, QWORD PTR ?errmsg_fn@?1??raise_errmsg@@9@9
  00097	e8 00 00 00 00	 call	 PyObject_CallFunction
  0009c	48 89 44 24 30	 mov	 QWORD PTR pymsg$[rsp], rax

; 272  :     if (pymsg) {

  000a1	48 83 7c 24 30
	00		 cmp	 QWORD PTR pymsg$[rsp], 0
  000a7	74 1b		 je	 SHORT $LN1@raise_errm

; 273  :         PyErr_SetObject(PyExc_ValueError, pymsg);

  000a9	48 8b 54 24 30	 mov	 rdx, QWORD PTR pymsg$[rsp]
  000ae	48 8b 0d 00 00
	00 00		 mov	 rcx, QWORD PTR PyExc_ValueError
  000b5	e8 00 00 00 00	 call	 PyErr_SetObject

; 274  :         Py_DECREF(pymsg);

  000ba	48 8b 4c 24 30	 mov	 rcx, QWORD PTR pymsg$[rsp]
  000bf	e8 00 00 00 00	 call	 _Py_DecRef
$LN1@raise_errm:
$LN5@raise_errm:

; 275  :     }
; 276  : }

  000c4	48 83 c4 48	 add	 rsp, 72			; 00000048H
  000c8	c3		 ret	 0
raise_errmsg ENDP
_TEXT	ENDS
;	COMDAT pdata
pdata	SEGMENT
$pdata$_convertPyInt_FromSsize_t DD imagerel _convertPyInt_FromSsize_t
	DD	imagerel _convertPyInt_FromSsize_t+27
	DD	imagerel $unwind$_convertPyInt_FromSsize_t
pdata	ENDS
;	COMDAT xdata
xdata	SEGMENT
$unwind$_convertPyInt_FromSsize_t DD 010901H
	DD	04209H
; Function compile flags: /Odtp
xdata	ENDS
;	COMDAT _convertPyInt_FromSsize_t
_TEXT	SEGMENT
size_ptr$ = 48
_convertPyInt_FromSsize_t PROC				; COMDAT

; 154  : {

  00000	48 89 4c 24 08	 mov	 QWORD PTR [rsp+8], rcx
  00005	48 83 ec 28	 sub	 rsp, 40			; 00000028H

; 155  :     /* Py_ssize_t to PyObject converter */
; 156  :     return PyLong_FromSsize_t(*size_ptr);

  00009	48 8b 44 24 30	 mov	 rax, QWORD PTR size_ptr$[rsp]
  0000e	48 8b 08	 mov	 rcx, QWORD PTR [rax]
  00011	e8 00 00 00 00	 call	 PyLong_FromSsize_t

; 157  : }

  00016	48 83 c4 28	 add	 rsp, 40			; 00000028H
  0001a	c3		 ret	 0
_convertPyInt_FromSsize_t ENDP
_TEXT	ENDS
;	COMDAT pdata
pdata	SEGMENT
$pdata$py_encode_basestring_ascii DD imagerel py_encode_basestring_ascii
	DD	imagerel py_encode_basestring_ascii+101
	DD	imagerel $unwind$py_encode_basestring_ascii
pdata	ENDS
;	COMDAT xdata
xdata	SEGMENT
$unwind$py_encode_basestring_ascii DD 010e01H
	DD	0620eH
; Function compile flags: /Odtp
xdata	ENDS
;	COMDAT py_encode_basestring_ascii
_TEXT	SEGMENT
rval$ = 32
self$ = 64
pystr$ = 72
py_encode_basestring_ascii PROC				; COMDAT

; 541  : {

  00000	48 89 54 24 10	 mov	 QWORD PTR [rsp+16], rdx
  00005	48 89 4c 24 08	 mov	 QWORD PTR [rsp+8], rcx
  0000a	48 83 ec 38	 sub	 rsp, 56			; 00000038H

; 542  :     PyObject *rval;
; 543  :     /* Return an ASCII-only JSON representation of a Python string */
; 544  :     /* METH_O */
; 545  :     if (PyUnicode_Check(pystr)) {

  0000e	48 8b 44 24 48	 mov	 rax, QWORD PTR pystr$[rsp]
  00013	48 8b 40 58	 mov	 rax, QWORD PTR [rax+88]
  00017	8b 80 00 01 00
	00		 mov	 eax, DWORD PTR [rax+256]
  0001d	25 00 00 00 10	 and	 eax, 268435456		; 10000000H
  00022	85 c0		 test	 eax, eax
  00024	74 11		 je	 SHORT $LN2@py_encode_

; 546  :         rval = ascii_escape_unicode(pystr);

  00026	48 8b 4c 24 48	 mov	 rcx, QWORD PTR pystr$[rsp]
  0002b	e8 00 00 00 00	 call	 ascii_escape_unicode
  00030	48 89 44 24 20	 mov	 QWORD PTR rval$[rsp], rax

; 547  :     }
; 548  :     else {

  00035	eb 24		 jmp	 SHORT $LN1@py_encode_
$LN2@py_encode_:

; 549  :         PyErr_Format(PyExc_TypeError,
; 550  :                      "first argument must be a string, not %.80s",
; 551  :                      Py_TYPE(pystr)->tp_name);

  00037	48 8b 44 24 48	 mov	 rax, QWORD PTR pystr$[rsp]
  0003c	48 8b 40 58	 mov	 rax, QWORD PTR [rax+88]
  00040	4c 8b 40 70	 mov	 r8, QWORD PTR [rax+112]
  00044	48 8d 15 00 00
	00 00		 lea	 rdx, OFFSET FLAT:??_C@_0CL@OIEJEOOL@first?5argument?5must?5be?5a?5string?0@
  0004b	48 8b 0d 00 00
	00 00		 mov	 rcx, QWORD PTR PyExc_TypeError
  00052	e8 00 00 00 00	 call	 PyErr_Format

; 552  :         return NULL;

  00057	33 c0		 xor	 eax, eax
  00059	eb 05		 jmp	 SHORT $LN3@py_encode_
$LN1@py_encode_:

; 553  :     }
; 554  :     return rval;

  0005b	48 8b 44 24 20	 mov	 rax, QWORD PTR rval$[rsp]
$LN3@py_encode_:

; 555  : }

  00060	48 83 c4 38	 add	 rsp, 56			; 00000038H
  00064	c3		 ret	 0
py_encode_basestring_ascii ENDP
_TEXT	ENDS
PUBLIC	??_C@_1EK@HLDMPLDK@?$AA_?$AAP?$AAy?$AAU?$AAn?$AAi?$AAc?$AAo?$AAd?$AAe?$AA_?$AAC?$AAh?$AAe?$AAc?$AAk?$AAC?$AAo?$AAn?$AAs?$AAi?$AAs?$AAt?$AAe?$AAn?$AAc?$AAy?$AA?$CI?$AAr?$AAv?$AAa?$AAl@ ; `string'
PUBLIC	??_C@_1EK@DBKDDDKN@?$AA?$CI?$AA?$CI?$AAP?$AAy?$AAU?$AAn?$AAi?$AAc?$AAo?$AAd?$AAe?$AAO?$AAb?$AAj?$AAe?$AAc?$AAt?$AA?$CK?$AA?$CJ?$AA?$CI?$AAr?$AAv?$AAa?$AAl?$AA?$CJ?$AA?$CJ?$AA?9?$AA?$DO?$AAd?$AAa?$AAt?$AAa@ ; `string'
PUBLIC	??_C@_1DC@KOCPPENH@?$AAP?$AAy?$AAU?$AAn?$AAi?$AAc?$AAo?$AAd?$AAe?$AA_?$AAI?$AAS?$AA_?$AAR?$AAE?$AAA?$AAD?$AAY?$AA?$CI?$AAr?$AAv?$AAa?$AAl?$AA?$CJ?$AA?$AA@ ; `string'
PUBLIC	??_C@_1CM@GBEOJNDO@?$AAP?$AAy?$AAU?$AAn?$AAi?$AAc?$AAo?$AAd?$AAe?$AA_?$AAC?$AAh?$AAe?$AAc?$AAk?$AA?$CI?$AAr?$AAv?$AAa?$AAl?$AA?$CJ?$AA?$AA@ ; `string'
EXTRN	_PyUnicode_CheckConsistency:PROC
EXTRN	PyUnicode_New:PROC
;	COMDAT pdata
pdata	SEGMENT
$pdata$ascii_escape_unicode DD imagerel ascii_escape_unicode
	DD	imagerel ascii_escape_unicode+1897
	DD	imagerel $unwind$ascii_escape_unicode
pdata	ENDS
;	COMDAT xdata
xdata	SEGMENT
$unwind$ascii_escape_unicode DD 020c01H
	DD	017010cH
xdata	ENDS
;	COMDAT ??_C@_1EK@HLDMPLDK@?$AA_?$AAP?$AAy?$AAU?$AAn?$AAi?$AAc?$AAo?$AAd?$AAe?$AA_?$AAC?$AAh?$AAe?$AAc?$AAk?$AAC?$AAo?$AAn?$AAs?$AAi?$AAs?$AAt?$AAe?$AAn?$AAc?$AAy?$AA?$CI?$AAr?$AAv?$AAa?$AAl@
CONST	SEGMENT
??_C@_1EK@HLDMPLDK@?$AA_?$AAP?$AAy?$AAU?$AAn?$AAi?$AAc?$AAo?$AAd?$AAe?$AA_?$AAC?$AAh?$AAe?$AAc?$AAk?$AAC?$AAo?$AAn?$AAs?$AAi?$AAs?$AAt?$AAe?$AAn?$AAc?$AAy?$AA?$CI?$AAr?$AAv?$AAa?$AAl@ DB '_'
	DB	00H, 'P', 00H, 'y', 00H, 'U', 00H, 'n', 00H, 'i', 00H, 'c', 00H
	DB	'o', 00H, 'd', 00H, 'e', 00H, '_', 00H, 'C', 00H, 'h', 00H, 'e'
	DB	00H, 'c', 00H, 'k', 00H, 'C', 00H, 'o', 00H, 'n', 00H, 's', 00H
	DB	'i', 00H, 's', 00H, 't', 00H, 'e', 00H, 'n', 00H, 'c', 00H, 'y'
	DB	00H, '(', 00H, 'r', 00H, 'v', 00H, 'a', 00H, 'l', 00H, ',', 00H
	DB	' ', 00H, '1', 00H, ')', 00H, 00H, 00H	; `string'
CONST	ENDS
;	COMDAT ??_C@_1EK@DBKDDDKN@?$AA?$CI?$AA?$CI?$AAP?$AAy?$AAU?$AAn?$AAi?$AAc?$AAo?$AAd?$AAe?$AAO?$AAb?$AAj?$AAe?$AAc?$AAt?$AA?$CK?$AA?$CJ?$AA?$CI?$AAr?$AAv?$AAa?$AAl?$AA?$CJ?$AA?$CJ?$AA?9?$AA?$DO?$AAd?$AAa?$AAt?$AAa@
CONST	SEGMENT
??_C@_1EK@DBKDDDKN@?$AA?$CI?$AA?$CI?$AAP?$AAy?$AAU?$AAn?$AAi?$AAc?$AAo?$AAd?$AAe?$AAO?$AAb?$AAj?$AAe?$AAc?$AAt?$AA?$CK?$AA?$CJ?$AA?$CI?$AAr?$AAv?$AAa?$AAl?$AA?$CJ?$AA?$CJ?$AA?9?$AA?$DO?$AAd?$AAa?$AAt?$AAa@ DB '('
	DB	00H, '(', 00H, 'P', 00H, 'y', 00H, 'U', 00H, 'n', 00H, 'i', 00H
	DB	'c', 00H, 'o', 00H, 'd', 00H, 'e', 00H, 'O', 00H, 'b', 00H, 'j'
	DB	00H, 'e', 00H, 'c', 00H, 't', 00H, '*', 00H, ')', 00H, '(', 00H
	DB	'r', 00H, 'v', 00H, 'a', 00H, 'l', 00H, ')', 00H, ')', 00H, '-'
	DB	00H, '>', 00H, 'd', 00H, 'a', 00H, 't', 00H, 'a', 00H, '.', 00H
	DB	'a', 00H, 'n', 00H, 'y', 00H, 00H, 00H	; `string'
CONST	ENDS
;	COMDAT ??_C@_1DC@KOCPPENH@?$AAP?$AAy?$AAU?$AAn?$AAi?$AAc?$AAo?$AAd?$AAe?$AA_?$AAI?$AAS?$AA_?$AAR?$AAE?$AAA?$AAD?$AAY?$AA?$CI?$AAr?$AAv?$AAa?$AAl?$AA?$CJ?$AA?$AA@
CONST	SEGMENT
??_C@_1DC@KOCPPENH@?$AAP?$AAy?$AAU?$AAn?$AAi?$AAc?$AAo?$AAd?$AAe?$AA_?$AAI?$AAS?$AA_?$AAR?$AAE?$AAA?$AAD?$AAY?$AA?$CI?$AAr?$AAv?$AAa?$AAl?$AA?$CJ?$AA?$AA@ DB 'P'
	DB	00H, 'y', 00H, 'U', 00H, 'n', 00H, 'i', 00H, 'c', 00H, 'o', 00H
	DB	'd', 00H, 'e', 00H, '_', 00H, 'I', 00H, 'S', 00H, '_', 00H, 'R'
	DB	00H, 'E', 00H, 'A', 00H, 'D', 00H, 'Y', 00H, '(', 00H, 'r', 00H
	DB	'v', 00H, 'a', 00H, 'l', 00H, ')', 00H, 00H, 00H ; `string'
CONST	ENDS
;	COMDAT ??_C@_1CM@GBEOJNDO@?$AAP?$AAy?$AAU?$AAn?$AAi?$AAc?$AAo?$AAd?$AAe?$AA_?$AAC?$AAh?$AAe?$AAc?$AAk?$AA?$CI?$AAr?$AAv?$AAa?$AAl?$AA?$CJ?$AA?$AA@
CONST	SEGMENT
??_C@_1CM@GBEOJNDO@?$AAP?$AAy?$AAU?$AAn?$AAi?$AAc?$AAo?$AAd?$AAe?$AA_?$AAC?$AAh?$AAe?$AAc?$AAk?$AA?$CI?$AAr?$AAv?$AAa?$AAl?$AA?$CJ?$AA?$AA@ DB 'P'
	DB	00H, 'y', 00H, 'U', 00H, 'n', 00H, 'i', 00H, 'c', 00H, 'o', 00H
	DB	'd', 00H, 'e', 00H, '_', 00H, 'C', 00H, 'h', 00H, 'e', 00H, 'c'
	DB	00H, 'k', 00H, '(', 00H, 'r', 00H, 'v', 00H, 'a', 00H, 'l', 00H
	DB	')', 00H, 00H, 00H				; `string'
; Function compile flags: /Odtp
CONST	ENDS
;	COMDAT ascii_escape_unicode
_TEXT	SEGMENT
kind$ = 32
rval$ = 40
i$ = 48
output$ = 56
input$ = 64
output_size$ = 72
input_chars$ = 80
chars$ = 88
c$20653 = 96
c$20691 = 100
tv78 = 104
tv162 = 112
tv171 = 120
tv203 = 128
tv202 = 132
tv209 = 136
tv212 = 140
tv254 = 144
tv263 = 152
tv278 = 160
tv277 = 164
pystr$ = 192
ascii_escape_unicode PROC				; COMDAT

; 198  : {

  00000	48 89 4c 24 08	 mov	 QWORD PTR [rsp+8], rcx
  00005	48 81 ec b8 00
	00 00		 sub	 rsp, 184		; 000000b8H

; 199  :     /* Take a PyUnicode pystr and return a new ASCII-only escaped PyUnicode */
; 200  :     Py_ssize_t i;
; 201  :     Py_ssize_t input_chars;
; 202  :     Py_ssize_t output_size;
; 203  :     Py_ssize_t chars;
; 204  :     PyObject *rval;
; 205  :     void *input;
; 206  :     unsigned char *output;
; 207  :     int kind;
; 208  : 
; 209  :     if (PyUnicode_READY(pystr) == -1)

  0000c	48 8b 84 24 c0
	00 00 00	 mov	 rax, QWORD PTR pystr$[rsp]
  00014	48 8b 40 58	 mov	 rax, QWORD PTR [rax+88]
  00018	8b 80 00 01 00
	00		 mov	 eax, DWORD PTR [rax+256]
  0001e	25 00 00 00 10	 and	 eax, 268435456		; 10000000H
  00023	85 c0		 test	 eax, eax
  00025	75 1c		 jne	 SHORT $LN19@ascii_esca
  00027	41 b8 d1 00 00
	00		 mov	 r8d, 209		; 000000d1H
  0002d	48 8d 15 00 00
	00 00		 lea	 rdx, OFFSET FLAT:??_C@_1CG@KOELJAMM@?$AA?4?$AA?4?$AA?2?$AAM?$AAo?$AAd?$AAu?$AAl?$AAe?$AAs?$AA?2?$AA_?$AAj?$AAs?$AAo?$AAn?$AA?4?$AAc?$AA?$AA@
  00034	48 8d 0d 00 00
	00 00		 lea	 rcx, OFFSET FLAT:??_C@_1CO@GLPHKNNN@?$AAP?$AAy?$AAU?$AAn?$AAi?$AAc?$AAo?$AAd?$AAe?$AA_?$AAC?$AAh?$AAe?$AAc?$AAk?$AA?$CI?$AAp?$AAy?$AAs?$AAt?$AAr?$AA?$CJ?$AA?$AA@
  0003b	ff 15 00 00 00
	00		 call	 QWORD PTR __imp__wassert
  00041	33 c0		 xor	 eax, eax
$LN19@ascii_esca:
  00043	48 8b 84 24 c0
	00 00 00	 mov	 rax, QWORD PTR pystr$[rsp]
  0004b	8b 40 70	 mov	 eax, DWORD PTR [rax+112]
  0004e	c1 e8 07	 shr	 eax, 7
  00051	83 e0 01	 and	 eax, 1
  00054	85 c0		 test	 eax, eax
  00056	74 0a		 je	 SHORT $LN20@ascii_esca
  00058	c7 44 24 68 00
	00 00 00	 mov	 DWORD PTR tv78[rsp], 0
  00060	eb 11		 jmp	 SHORT $LN21@ascii_esca
$LN20@ascii_esca:
  00062	48 8b 8c 24 c0
	00 00 00	 mov	 rcx, QWORD PTR pystr$[rsp]
  0006a	e8 00 00 00 00	 call	 _PyUnicode_Ready
  0006f	89 44 24 68	 mov	 DWORD PTR tv78[rsp], eax
$LN21@ascii_esca:
  00073	83 7c 24 68 ff	 cmp	 DWORD PTR tv78[rsp], -1
  00078	75 07		 jne	 SHORT $LN16@ascii_esca

; 210  :         return NULL;

  0007a	33 c0		 xor	 eax, eax
  0007c	e9 80 06 00 00	 jmp	 $LN17@ascii_esca
$LN16@ascii_esca:

; 211  : 
; 212  :     input_chars = PyUnicode_GET_LENGTH(pystr);

  00081	48 8b 84 24 c0
	00 00 00	 mov	 rax, QWORD PTR pystr$[rsp]
  00089	48 8b 40 58	 mov	 rax, QWORD PTR [rax+88]
  0008d	8b 80 00 01 00
	00		 mov	 eax, DWORD PTR [rax+256]
  00093	25 00 00 00 10	 and	 eax, 268435456		; 10000000H
  00098	85 c0		 test	 eax, eax
  0009a	75 1c		 jne	 SHORT $LN22@ascii_esca
  0009c	41 b8 d4 00 00
	00		 mov	 r8d, 212		; 000000d4H
  000a2	48 8d 15 00 00
	00 00		 lea	 rdx, OFFSET FLAT:??_C@_1CG@KOELJAMM@?$AA?4?$AA?4?$AA?2?$AAM?$AAo?$AAd?$AAu?$AAl?$AAe?$AAs?$AA?2?$AA_?$AAj?$AAs?$AAo?$AAn?$AA?4?$AAc?$AA?$AA@
  000a9	48 8d 0d 00 00
	00 00		 lea	 rcx, OFFSET FLAT:??_C@_1CO@GLPHKNNN@?$AAP?$AAy?$AAU?$AAn?$AAi?$AAc?$AAo?$AAd?$AAe?$AA_?$AAC?$AAh?$AAe?$AAc?$AAk?$AA?$CI?$AAp?$AAy?$AAs?$AAt?$AAr?$AA?$CJ?$AA?$AA@
  000b0	ff 15 00 00 00
	00		 call	 QWORD PTR __imp__wassert
  000b6	33 c0		 xor	 eax, eax
$LN22@ascii_esca:
  000b8	48 8b 84 24 c0
	00 00 00	 mov	 rax, QWORD PTR pystr$[rsp]
  000c0	8b 40 70	 mov	 eax, DWORD PTR [rax+112]
  000c3	c1 e8 07	 shr	 eax, 7
  000c6	83 e0 01	 and	 eax, 1
  000c9	85 c0		 test	 eax, eax
  000cb	75 1c		 jne	 SHORT $LN23@ascii_esca
  000cd	41 b8 d4 00 00
	00		 mov	 r8d, 212		; 000000d4H
  000d3	48 8d 15 00 00
	00 00		 lea	 rdx, OFFSET FLAT:??_C@_1CG@KOELJAMM@?$AA?4?$AA?4?$AA?2?$AAM?$AAo?$AAd?$AAu?$AAl?$AAe?$AAs?$AA?2?$AA_?$AAj?$AAs?$AAo?$AAn?$AA?4?$AAc?$AA?$AA@
  000da	48 8d 0d 00 00
	00 00		 lea	 rcx, OFFSET FLAT:??_C@_1DE@NACFPDOF@?$AAP?$AAy?$AAU?$AAn?$AAi?$AAc?$AAo?$AAd?$AAe?$AA_?$AAI?$AAS?$AA_?$AAR?$AAE?$AAA?$AAD?$AAY?$AA?$CI?$AAp?$AAy?$AAs?$AAt?$AAr?$AA?$CJ?$AA?$AA@
  000e1	ff 15 00 00 00
	00		 call	 QWORD PTR __imp__wassert
  000e7	33 c0		 xor	 eax, eax
$LN23@ascii_esca:
  000e9	48 8b 84 24 c0
	00 00 00	 mov	 rax, QWORD PTR pystr$[rsp]
  000f1	48 8b 40 60	 mov	 rax, QWORD PTR [rax+96]
  000f5	48 89 44 24 50	 mov	 QWORD PTR input_chars$[rsp], rax

; 213  :     input = PyUnicode_DATA(pystr);

  000fa	48 8b 84 24 c0
	00 00 00	 mov	 rax, QWORD PTR pystr$[rsp]
  00102	48 8b 40 58	 mov	 rax, QWORD PTR [rax+88]
  00106	8b 80 00 01 00
	00		 mov	 eax, DWORD PTR [rax+256]
  0010c	25 00 00 00 10	 and	 eax, 268435456		; 10000000H
  00111	85 c0		 test	 eax, eax
  00113	75 1c		 jne	 SHORT $LN24@ascii_esca
  00115	41 b8 d5 00 00
	00		 mov	 r8d, 213		; 000000d5H
  0011b	48 8d 15 00 00
	00 00		 lea	 rdx, OFFSET FLAT:??_C@_1CG@KOELJAMM@?$AA?4?$AA?4?$AA?2?$AAM?$AAo?$AAd?$AAu?$AAl?$AAe?$AAs?$AA?2?$AA_?$AAj?$AAs?$AAo?$AAn?$AA?4?$AAc?$AA?$AA@
  00122	48 8d 0d 00 00
	00 00		 lea	 rcx, OFFSET FLAT:??_C@_1CO@GLPHKNNN@?$AAP?$AAy?$AAU?$AAn?$AAi?$AAc?$AAo?$AAd?$AAe?$AA_?$AAC?$AAh?$AAe?$AAc?$AAk?$AA?$CI?$AAp?$AAy?$AAs?$AAt?$AAr?$AA?$CJ?$AA?$AA@
  00129	ff 15 00 00 00
	00		 call	 QWORD PTR __imp__wassert
  0012f	33 c0		 xor	 eax, eax
$LN24@ascii_esca:
  00131	48 8b 84 24 c0
	00 00 00	 mov	 rax, QWORD PTR pystr$[rsp]
  00139	8b 40 70	 mov	 eax, DWORD PTR [rax+112]
  0013c	c1 e8 05	 shr	 eax, 5
  0013f	83 e0 01	 and	 eax, 1
  00142	85 c0		 test	 eax, eax
  00144	0f 84 b1 00 00
	00		 je	 $LN30@ascii_esca
  0014a	48 8b 84 24 c0
	00 00 00	 mov	 rax, QWORD PTR pystr$[rsp]
  00152	48 8b 40 58	 mov	 rax, QWORD PTR [rax+88]
  00156	8b 80 00 01 00
	00		 mov	 eax, DWORD PTR [rax+256]
  0015c	25 00 00 00 10	 and	 eax, 268435456		; 10000000H
  00161	85 c0		 test	 eax, eax
  00163	75 1c		 jne	 SHORT $LN25@ascii_esca
  00165	41 b8 d5 00 00
	00		 mov	 r8d, 213		; 000000d5H
  0016b	48 8d 15 00 00
	00 00		 lea	 rdx, OFFSET FLAT:??_C@_1CG@KOELJAMM@?$AA?4?$AA?4?$AA?2?$AAM?$AAo?$AAd?$AAu?$AAl?$AAe?$AAs?$AA?2?$AA_?$AAj?$AAs?$AAo?$AAn?$AA?4?$AAc?$AA?$AA@
  00172	48 8d 0d 00 00
	00 00		 lea	 rcx, OFFSET FLAT:??_C@_1CO@GLPHKNNN@?$AAP?$AAy?$AAU?$AAn?$AAi?$AAc?$AAo?$AAd?$AAe?$AA_?$AAC?$AAh?$AAe?$AAc?$AAk?$AA?$CI?$AAp?$AAy?$AAs?$AAt?$AAr?$AA?$CJ?$AA?$AA@
  00179	ff 15 00 00 00
	00		 call	 QWORD PTR __imp__wassert
  0017f	33 c0		 xor	 eax, eax
$LN25@ascii_esca:
  00181	48 8b 84 24 c0
	00 00 00	 mov	 rax, QWORD PTR pystr$[rsp]
  00189	8b 40 70	 mov	 eax, DWORD PTR [rax+112]
  0018c	c1 e8 07	 shr	 eax, 7
  0018f	83 e0 01	 and	 eax, 1
  00192	85 c0		 test	 eax, eax
  00194	75 1c		 jne	 SHORT $LN26@ascii_esca
  00196	41 b8 d5 00 00
	00		 mov	 r8d, 213		; 000000d5H
  0019c	48 8d 15 00 00
	00 00		 lea	 rdx, OFFSET FLAT:??_C@_1CG@KOELJAMM@?$AA?4?$AA?4?$AA?2?$AAM?$AAo?$AAd?$AAu?$AAl?$AAe?$AAs?$AA?2?$AA_?$AAj?$AAs?$AAo?$AAn?$AA?4?$AAc?$AA?$AA@
  001a3	48 8d 0d 00 00
	00 00		 lea	 rcx, OFFSET FLAT:??_C@_1DE@NACFPDOF@?$AAP?$AAy?$AAU?$AAn?$AAi?$AAc?$AAo?$AAd?$AAe?$AA_?$AAI?$AAS?$AA_?$AAR?$AAE?$AAA?$AAD?$AAY?$AA?$CI?$AAp?$AAy?$AAs?$AAt?$AAr?$AA?$CJ?$AA?$AA@
  001aa	ff 15 00 00 00
	00		 call	 QWORD PTR __imp__wassert
  001b0	33 c0		 xor	 eax, eax
$LN26@ascii_esca:
  001b2	48 8b 84 24 c0
	00 00 00	 mov	 rax, QWORD PTR pystr$[rsp]
  001ba	8b 40 70	 mov	 eax, DWORD PTR [rax+112]
  001bd	c1 e8 06	 shr	 eax, 6
  001c0	83 e0 01	 and	 eax, 1
  001c3	85 c0		 test	 eax, eax
  001c5	74 15		 je	 SHORT $LN27@ascii_esca
  001c7	48 8b 84 24 c0
	00 00 00	 mov	 rax, QWORD PTR pystr$[rsp]
  001cf	48 05 80 00 00
	00		 add	 rax, 128		; 00000080H
  001d5	48 89 44 24 70	 mov	 QWORD PTR tv162[rsp], rax
  001da	eb 13		 jmp	 SHORT $LN28@ascii_esca
$LN27@ascii_esca:
  001dc	48 8b 84 24 c0
	00 00 00	 mov	 rax, QWORD PTR pystr$[rsp]
  001e4	48 05 a0 00 00
	00		 add	 rax, 160		; 000000a0H
  001ea	48 89 44 24 70	 mov	 QWORD PTR tv162[rsp], rax
$LN28@ascii_esca:
  001ef	48 8b 44 24 70	 mov	 rax, QWORD PTR tv162[rsp]
  001f4	48 89 44 24 78	 mov	 QWORD PTR tv171[rsp], rax
  001f9	eb 42		 jmp	 SHORT $LN31@ascii_esca
$LN30@ascii_esca:
  001fb	48 8b 84 24 c0
	00 00 00	 mov	 rax, QWORD PTR pystr$[rsp]
  00203	48 83 b8 a0 00
	00 00 00	 cmp	 QWORD PTR [rax+160], 0
  0020b	75 1c		 jne	 SHORT $LN29@ascii_esca
  0020d	41 b8 d5 00 00
	00		 mov	 r8d, 213		; 000000d5H
  00213	48 8d 15 00 00
	00 00		 lea	 rdx, OFFSET FLAT:??_C@_1CG@KOELJAMM@?$AA?4?$AA?4?$AA?2?$AAM?$AAo?$AAd?$AAu?$AAl?$AAe?$AAs?$AA?2?$AA_?$AAj?$AAs?$AAo?$AAn?$AA?4?$AAc?$AA?$AA@
  0021a	48 8d 0d 00 00
	00 00		 lea	 rcx, OFFSET FLAT:??_C@_1EM@FMOHIEKB@?$AA?$CI?$AA?$CI?$AAP?$AAy?$AAU?$AAn?$AAi?$AAc?$AAo?$AAd?$AAe?$AAO?$AAb?$AAj?$AAe?$AAc?$AAt?$AA?$CK?$AA?$CJ?$AA?$CI?$AAp?$AAy?$AAs?$AAt?$AAr?$AA?$CJ?$AA?$CJ?$AA?9?$AA?$DO?$AAd?$AAa?$AAt@
  00221	ff 15 00 00 00
	00		 call	 QWORD PTR __imp__wassert
  00227	33 c0		 xor	 eax, eax
$LN29@ascii_esca:
  00229	48 8b 84 24 c0
	00 00 00	 mov	 rax, QWORD PTR pystr$[rsp]
  00231	48 8b 80 a0 00
	00 00		 mov	 rax, QWORD PTR [rax+160]
  00238	48 89 44 24 78	 mov	 QWORD PTR tv171[rsp], rax
$LN31@ascii_esca:
  0023d	48 8b 44 24 78	 mov	 rax, QWORD PTR tv171[rsp]
  00242	48 89 44 24 40	 mov	 QWORD PTR input$[rsp], rax

; 214  :     kind = PyUnicode_KIND(pystr);

  00247	48 8b 84 24 c0
	00 00 00	 mov	 rax, QWORD PTR pystr$[rsp]
  0024f	48 8b 40 58	 mov	 rax, QWORD PTR [rax+88]
  00253	8b 80 00 01 00
	00		 mov	 eax, DWORD PTR [rax+256]
  00259	25 00 00 00 10	 and	 eax, 268435456		; 10000000H
  0025e	85 c0		 test	 eax, eax
  00260	75 1c		 jne	 SHORT $LN32@ascii_esca
  00262	41 b8 d6 00 00
	00		 mov	 r8d, 214		; 000000d6H
  00268	48 8d 15 00 00
	00 00		 lea	 rdx, OFFSET FLAT:??_C@_1CG@KOELJAMM@?$AA?4?$AA?4?$AA?2?$AAM?$AAo?$AAd?$AAu?$AAl?$AAe?$AAs?$AA?2?$AA_?$AAj?$AAs?$AAo?$AAn?$AA?4?$AAc?$AA?$AA@
  0026f	48 8d 0d 00 00
	00 00		 lea	 rcx, OFFSET FLAT:??_C@_1CO@GLPHKNNN@?$AAP?$AAy?$AAU?$AAn?$AAi?$AAc?$AAo?$AAd?$AAe?$AA_?$AAC?$AAh?$AAe?$AAc?$AAk?$AA?$CI?$AAp?$AAy?$AAs?$AAt?$AAr?$AA?$CJ?$AA?$AA@
  00276	ff 15 00 00 00
	00		 call	 QWORD PTR __imp__wassert
  0027c	33 c0		 xor	 eax, eax
$LN32@ascii_esca:
  0027e	48 8b 84 24 c0
	00 00 00	 mov	 rax, QWORD PTR pystr$[rsp]
  00286	8b 40 70	 mov	 eax, DWORD PTR [rax+112]
  00289	c1 e8 07	 shr	 eax, 7
  0028c	83 e0 01	 and	 eax, 1
  0028f	85 c0		 test	 eax, eax
  00291	75 1c		 jne	 SHORT $LN33@ascii_esca
  00293	41 b8 d6 00 00
	00		 mov	 r8d, 214		; 000000d6H
  00299	48 8d 15 00 00
	00 00		 lea	 rdx, OFFSET FLAT:??_C@_1CG@KOELJAMM@?$AA?4?$AA?4?$AA?2?$AAM?$AAo?$AAd?$AAu?$AAl?$AAe?$AAs?$AA?2?$AA_?$AAj?$AAs?$AAo?$AAn?$AA?4?$AAc?$AA?$AA@
  002a0	48 8d 0d 00 00
	00 00		 lea	 rcx, OFFSET FLAT:??_C@_1DE@NACFPDOF@?$AAP?$AAy?$AAU?$AAn?$AAi?$AAc?$AAo?$AAd?$AAe?$AA_?$AAI?$AAS?$AA_?$AAR?$AAE?$AAA?$AAD?$AAY?$AA?$CI?$AAp?$AAy?$AAs?$AAt?$AAr?$AA?$CJ?$AA?$AA@
  002a7	ff 15 00 00 00
	00		 call	 QWORD PTR __imp__wassert
  002ad	33 c0		 xor	 eax, eax
$LN33@ascii_esca:
  002af	48 8b 84 24 c0
	00 00 00	 mov	 rax, QWORD PTR pystr$[rsp]
  002b7	8b 40 70	 mov	 eax, DWORD PTR [rax+112]
  002ba	c1 e8 02	 shr	 eax, 2
  002bd	83 e0 07	 and	 eax, 7
  002c0	89 44 24 20	 mov	 DWORD PTR kind$[rsp], eax

; 215  : 
; 216  :     /* Compute the output size */
; 217  :     for (i = 0, output_size = 2; i < input_chars; i++) {

  002c4	48 c7 44 24 30
	00 00 00 00	 mov	 QWORD PTR i$[rsp], 0
  002cd	48 c7 44 24 48
	02 00 00 00	 mov	 QWORD PTR output_size$[rsp], 2
  002d6	eb 0d		 jmp	 SHORT $LN15@ascii_esca
$LN14@ascii_esca:
  002d8	48 8b 44 24 30	 mov	 rax, QWORD PTR i$[rsp]
  002dd	48 ff c0	 inc	 rax
  002e0	48 89 44 24 30	 mov	 QWORD PTR i$[rsp], rax
$LN15@ascii_esca:
  002e5	48 8b 44 24 50	 mov	 rax, QWORD PTR input_chars$[rsp]
  002ea	48 39 44 24 30	 cmp	 QWORD PTR i$[rsp], rax
  002ef	0f 8d 33 01 00
	00		 jge	 $LN13@ascii_esca

; 218  :         Py_UCS4 c = PyUnicode_READ(kind, input, i);

  002f5	83 7c 24 20 01	 cmp	 DWORD PTR kind$[rsp], 1
  002fa	75 1c		 jne	 SHORT $LN36@ascii_esca
  002fc	48 8b 44 24 30	 mov	 rax, QWORD PTR i$[rsp]
  00301	48 8b 4c 24 40	 mov	 rcx, QWORD PTR input$[rsp]
  00306	48 03 c8	 add	 rcx, rax
  00309	48 8b c1	 mov	 rax, rcx
  0030c	0f b6 00	 movzx	 eax, BYTE PTR [rax]
  0030f	89 84 24 80 00
	00 00		 mov	 DWORD PTR tv203[rsp], eax
  00316	eb 40		 jmp	 SHORT $LN37@ascii_esca
$LN36@ascii_esca:
  00318	83 7c 24 20 02	 cmp	 DWORD PTR kind$[rsp], 2
  0031d	75 17		 jne	 SHORT $LN34@ascii_esca
  0031f	48 8b 44 24 40	 mov	 rax, QWORD PTR input$[rsp]
  00324	48 8b 4c 24 30	 mov	 rcx, QWORD PTR i$[rsp]
  00329	0f b7 04 48	 movzx	 eax, WORD PTR [rax+rcx*2]
  0032d	89 84 24 84 00
	00 00		 mov	 DWORD PTR tv202[rsp], eax
  00334	eb 14		 jmp	 SHORT $LN35@ascii_esca
$LN34@ascii_esca:
  00336	48 8b 44 24 40	 mov	 rax, QWORD PTR input$[rsp]
  0033b	48 8b 4c 24 30	 mov	 rcx, QWORD PTR i$[rsp]
  00340	8b 04 88	 mov	 eax, DWORD PTR [rax+rcx*4]
  00343	89 84 24 84 00
	00 00		 mov	 DWORD PTR tv202[rsp], eax
$LN35@ascii_esca:
  0034a	8b 84 24 84 00
	00 00		 mov	 eax, DWORD PTR tv202[rsp]
  00351	89 84 24 80 00
	00 00		 mov	 DWORD PTR tv203[rsp], eax
$LN37@ascii_esca:
  00358	8b 84 24 80 00
	00 00		 mov	 eax, DWORD PTR tv203[rsp]
  0035f	89 44 24 60	 mov	 DWORD PTR c$20653[rsp], eax

; 219  :         if (S_CHAR(c))

  00363	83 7c 24 60 20	 cmp	 DWORD PTR c$20653[rsp], 32 ; 00000020H
  00368	72 27		 jb	 SHORT $LN12@ascii_esca
  0036a	83 7c 24 60 7e	 cmp	 DWORD PTR c$20653[rsp], 126 ; 0000007eH
  0036f	77 20		 ja	 SHORT $LN12@ascii_esca
  00371	83 7c 24 60 5c	 cmp	 DWORD PTR c$20653[rsp], 92 ; 0000005cH
  00376	74 19		 je	 SHORT $LN12@ascii_esca
  00378	83 7c 24 60 22	 cmp	 DWORD PTR c$20653[rsp], 34 ; 00000022H
  0037d	74 12		 je	 SHORT $LN12@ascii_esca

; 220  :             output_size++;

  0037f	48 8b 44 24 48	 mov	 rax, QWORD PTR output_size$[rsp]
  00384	48 ff c0	 inc	 rax
  00387	48 89 44 24 48	 mov	 QWORD PTR output_size$[rsp], rax

; 221  :         else {

  0038c	e9 92 00 00 00	 jmp	 $LN11@ascii_esca
$LN12@ascii_esca:

; 222  :             switch(c) {

  00391	8b 44 24 60	 mov	 eax, DWORD PTR c$20653[rsp]
  00395	89 84 24 88 00
	00 00		 mov	 DWORD PTR tv209[rsp], eax
  0039c	8b 84 24 88 00
	00 00		 mov	 eax, DWORD PTR tv209[rsp]
  003a3	83 e8 08	 sub	 eax, 8
  003a6	89 84 24 88 00
	00 00		 mov	 DWORD PTR tv209[rsp], eax
  003ad	83 bc 24 88 00
	00 00 54	 cmp	 DWORD PTR tv209[rsp], 84 ; 00000054H
  003b5	77 32		 ja	 SHORT $LN7@ascii_esca
  003b7	8b 84 24 88 00
	00 00		 mov	 eax, DWORD PTR tv209[rsp]
  003be	48 8d 0d 00 00
	00 00		 lea	 rcx, OFFSET FLAT:__ImageBase
  003c5	0f b6 84 01 00
	00 00 00	 movzx	 eax, BYTE PTR $LN53@ascii_esca[rcx+rax]
  003cd	8b 84 81 00 00
	00 00		 mov	 eax, DWORD PTR $LN54@ascii_esca[rcx+rax*4]
  003d4	48 03 c1	 add	 rax, rcx
  003d7	ff e0		 jmp	 rax
$LN8@ascii_esca:

; 223  :             case '\\': case '"': case '\b': case '\f':
; 224  :             case '\n': case '\r': case '\t':
; 225  :                 output_size += 2; break;

  003d9	48 8b 44 24 48	 mov	 rax, QWORD PTR output_size$[rsp]
  003de	48 83 c0 02	 add	 rax, 2
  003e2	48 89 44 24 48	 mov	 QWORD PTR output_size$[rsp], rax
  003e7	eb 3a		 jmp	 SHORT $LN9@ascii_esca
$LN7@ascii_esca:

; 226  :             default:
; 227  :                 output_size += c >= 0x10000 ? 12 : 6;

  003e9	81 7c 24 60 00
	00 01 00	 cmp	 DWORD PTR c$20653[rsp], 65536 ; 00010000H
  003f1	72 0d		 jb	 SHORT $LN38@ascii_esca
  003f3	c7 84 24 8c 00
	00 00 0c 00 00
	00		 mov	 DWORD PTR tv212[rsp], 12
  003fe	eb 0b		 jmp	 SHORT $LN39@ascii_esca
$LN38@ascii_esca:
  00400	c7 84 24 8c 00
	00 00 06 00 00
	00		 mov	 DWORD PTR tv212[rsp], 6
$LN39@ascii_esca:
  0040b	48 63 84 24 8c
	00 00 00	 movsxd	 rax, DWORD PTR tv212[rsp]
  00413	48 8b 4c 24 48	 mov	 rcx, QWORD PTR output_size$[rsp]
  00418	48 03 c8	 add	 rcx, rax
  0041b	48 8b c1	 mov	 rax, rcx
  0041e	48 89 44 24 48	 mov	 QWORD PTR output_size$[rsp], rax
$LN9@ascii_esca:
$LN11@ascii_esca:

; 228  :             }
; 229  :         }
; 230  :     }

  00423	e9 b0 fe ff ff	 jmp	 $LN14@ascii_esca
$LN13@ascii_esca:

; 231  : 
; 232  :     rval = PyUnicode_New(output_size, 127);

  00428	ba 7f 00 00 00	 mov	 edx, 127		; 0000007fH
  0042d	48 8b 4c 24 48	 mov	 rcx, QWORD PTR output_size$[rsp]
  00432	e8 00 00 00 00	 call	 PyUnicode_New
  00437	48 89 44 24 28	 mov	 QWORD PTR rval$[rsp], rax

; 233  :     if (rval == NULL) {

  0043c	48 83 7c 24 28
	00		 cmp	 QWORD PTR rval$[rsp], 0
  00442	75 07		 jne	 SHORT $LN6@ascii_esca

; 234  :         return NULL;

  00444	33 c0		 xor	 eax, eax
  00446	e9 b6 02 00 00	 jmp	 $LN17@ascii_esca
$LN6@ascii_esca:

; 235  :     }
; 236  :     output = PyUnicode_1BYTE_DATA(rval);

  0044b	48 8b 44 24 28	 mov	 rax, QWORD PTR rval$[rsp]
  00450	48 8b 40 58	 mov	 rax, QWORD PTR [rax+88]
  00454	8b 80 00 01 00
	00		 mov	 eax, DWORD PTR [rax+256]
  0045a	25 00 00 00 10	 and	 eax, 268435456		; 10000000H
  0045f	85 c0		 test	 eax, eax
  00461	75 1c		 jne	 SHORT $LN40@ascii_esca
  00463	41 b8 ec 00 00
	00		 mov	 r8d, 236		; 000000ecH
  00469	48 8d 15 00 00
	00 00		 lea	 rdx, OFFSET FLAT:??_C@_1CG@KOELJAMM@?$AA?4?$AA?4?$AA?2?$AAM?$AAo?$AAd?$AAu?$AAl?$AAe?$AAs?$AA?2?$AA_?$AAj?$AAs?$AAo?$AAn?$AA?4?$AAc?$AA?$AA@
  00470	48 8d 0d 00 00
	00 00		 lea	 rcx, OFFSET FLAT:??_C@_1CM@GBEOJNDO@?$AAP?$AAy?$AAU?$AAn?$AAi?$AAc?$AAo?$AAd?$AAe?$AA_?$AAC?$AAh?$AAe?$AAc?$AAk?$AA?$CI?$AAr?$AAv?$AAa?$AAl?$AA?$CJ?$AA?$AA@
  00477	ff 15 00 00 00
	00		 call	 QWORD PTR __imp__wassert
  0047d	33 c0		 xor	 eax, eax
$LN40@ascii_esca:
  0047f	48 8b 44 24 28	 mov	 rax, QWORD PTR rval$[rsp]
  00484	8b 40 70	 mov	 eax, DWORD PTR [rax+112]
  00487	c1 e8 05	 shr	 eax, 5
  0048a	83 e0 01	 and	 eax, 1
  0048d	85 c0		 test	 eax, eax
  0048f	0f 84 ae 00 00
	00		 je	 $LN46@ascii_esca
  00495	48 8b 44 24 28	 mov	 rax, QWORD PTR rval$[rsp]
  0049a	48 8b 40 58	 mov	 rax, QWORD PTR [rax+88]
  0049e	8b 80 00 01 00
	00		 mov	 eax, DWORD PTR [rax+256]
  004a4	25 00 00 00 10	 and	 eax, 268435456		; 10000000H
  004a9	85 c0		 test	 eax, eax
  004ab	75 1c		 jne	 SHORT $LN41@ascii_esca
  004ad	41 b8 ec 00 00
	00		 mov	 r8d, 236		; 000000ecH
  004b3	48 8d 15 00 00
	00 00		 lea	 rdx, OFFSET FLAT:??_C@_1CG@KOELJAMM@?$AA?4?$AA?4?$AA?2?$AAM?$AAo?$AAd?$AAu?$AAl?$AAe?$AAs?$AA?2?$AA_?$AAj?$AAs?$AAo?$AAn?$AA?4?$AAc?$AA?$AA@
  004ba	48 8d 0d 00 00
	00 00		 lea	 rcx, OFFSET FLAT:??_C@_1CM@GBEOJNDO@?$AAP?$AAy?$AAU?$AAn?$AAi?$AAc?$AAo?$AAd?$AAe?$AA_?$AAC?$AAh?$AAe?$AAc?$AAk?$AA?$CI?$AAr?$AAv?$AAa?$AAl?$AA?$CJ?$AA?$AA@
  004c1	ff 15 00 00 00
	00		 call	 QWORD PTR __imp__wassert
  004c7	33 c0		 xor	 eax, eax
$LN41@ascii_esca:
  004c9	48 8b 44 24 28	 mov	 rax, QWORD PTR rval$[rsp]
  004ce	8b 40 70	 mov	 eax, DWORD PTR [rax+112]
  004d1	c1 e8 07	 shr	 eax, 7
  004d4	83 e0 01	 and	 eax, 1
  004d7	85 c0		 test	 eax, eax
  004d9	75 1c		 jne	 SHORT $LN42@ascii_esca
  004db	41 b8 ec 00 00
	00		 mov	 r8d, 236		; 000000ecH
  004e1	48 8d 15 00 00
	00 00		 lea	 rdx, OFFSET FLAT:??_C@_1CG@KOELJAMM@?$AA?4?$AA?4?$AA?2?$AAM?$AAo?$AAd?$AAu?$AAl?$AAe?$AAs?$AA?2?$AA_?$AAj?$AAs?$AAo?$AAn?$AA?4?$AAc?$AA?$AA@
  004e8	48 8d 0d 00 00
	00 00		 lea	 rcx, OFFSET FLAT:??_C@_1DC@KOCPPENH@?$AAP?$AAy?$AAU?$AAn?$AAi?$AAc?$AAo?$AAd?$AAe?$AA_?$AAI?$AAS?$AA_?$AAR?$AAE?$AAA?$AAD?$AAY?$AA?$CI?$AAr?$AAv?$AAa?$AAl?$AA?$CJ?$AA?$AA@
  004ef	ff 15 00 00 00
	00		 call	 QWORD PTR __imp__wassert
  004f5	33 c0		 xor	 eax, eax
$LN42@ascii_esca:
  004f7	48 8b 44 24 28	 mov	 rax, QWORD PTR rval$[rsp]
  004fc	8b 40 70	 mov	 eax, DWORD PTR [rax+112]
  004ff	c1 e8 06	 shr	 eax, 6
  00502	83 e0 01	 and	 eax, 1
  00505	85 c0		 test	 eax, eax
  00507	74 15		 je	 SHORT $LN43@ascii_esca
  00509	48 8b 44 24 28	 mov	 rax, QWORD PTR rval$[rsp]
  0050e	48 05 80 00 00
	00		 add	 rax, 128		; 00000080H
  00514	48 89 84 24 90
	00 00 00	 mov	 QWORD PTR tv254[rsp], rax
  0051c	eb 13		 jmp	 SHORT $LN44@ascii_esca
$LN43@ascii_esca:
  0051e	48 8b 44 24 28	 mov	 rax, QWORD PTR rval$[rsp]
  00523	48 05 a0 00 00
	00		 add	 rax, 160		; 000000a0H
  00529	48 89 84 24 90
	00 00 00	 mov	 QWORD PTR tv254[rsp], rax
$LN44@ascii_esca:
  00531	48 8b 84 24 90
	00 00 00	 mov	 rax, QWORD PTR tv254[rsp]
  00539	48 89 84 24 98
	00 00 00	 mov	 QWORD PTR tv263[rsp], rax
  00541	eb 3f		 jmp	 SHORT $LN47@ascii_esca
$LN46@ascii_esca:
  00543	48 8b 44 24 28	 mov	 rax, QWORD PTR rval$[rsp]
  00548	48 83 b8 a0 00
	00 00 00	 cmp	 QWORD PTR [rax+160], 0
  00550	75 1c		 jne	 SHORT $LN45@ascii_esca
  00552	41 b8 ec 00 00
	00		 mov	 r8d, 236		; 000000ecH
  00558	48 8d 15 00 00
	00 00		 lea	 rdx, OFFSET FLAT:??_C@_1CG@KOELJAMM@?$AA?4?$AA?4?$AA?2?$AAM?$AAo?$AAd?$AAu?$AAl?$AAe?$AAs?$AA?2?$AA_?$AAj?$AAs?$AAo?$AAn?$AA?4?$AAc?$AA?$AA@
  0055f	48 8d 0d 00 00
	00 00		 lea	 rcx, OFFSET FLAT:??_C@_1EK@DBKDDDKN@?$AA?$CI?$AA?$CI?$AAP?$AAy?$AAU?$AAn?$AAi?$AAc?$AAo?$AAd?$AAe?$AAO?$AAb?$AAj?$AAe?$AAc?$AAt?$AA?$CK?$AA?$CJ?$AA?$CI?$AAr?$AAv?$AAa?$AAl?$AA?$CJ?$AA?$CJ?$AA?9?$AA?$DO?$AAd?$AAa?$AAt?$AAa@
  00566	ff 15 00 00 00
	00		 call	 QWORD PTR __imp__wassert
  0056c	33 c0		 xor	 eax, eax
$LN45@ascii_esca:
  0056e	48 8b 44 24 28	 mov	 rax, QWORD PTR rval$[rsp]
  00573	48 8b 80 a0 00
	00 00		 mov	 rax, QWORD PTR [rax+160]
  0057a	48 89 84 24 98
	00 00 00	 mov	 QWORD PTR tv263[rsp], rax
$LN47@ascii_esca:
  00582	48 8b 84 24 98
	00 00 00	 mov	 rax, QWORD PTR tv263[rsp]
  0058a	48 89 44 24 38	 mov	 QWORD PTR output$[rsp], rax

; 237  :     chars = 0;

  0058f	48 c7 44 24 58
	00 00 00 00	 mov	 QWORD PTR chars$[rsp], 0

; 238  :     output[chars++] = '"';

  00598	48 8b 44 24 58	 mov	 rax, QWORD PTR chars$[rsp]
  0059d	48 8b 4c 24 38	 mov	 rcx, QWORD PTR output$[rsp]
  005a2	48 03 c8	 add	 rcx, rax
  005a5	48 8b c1	 mov	 rax, rcx
  005a8	c6 00 22	 mov	 BYTE PTR [rax], 34	; 00000022H
  005ab	48 8b 44 24 58	 mov	 rax, QWORD PTR chars$[rsp]
  005b0	48 ff c0	 inc	 rax
  005b3	48 89 44 24 58	 mov	 QWORD PTR chars$[rsp], rax

; 239  :     for (i = 0; i < input_chars; i++) {

  005b8	48 c7 44 24 30
	00 00 00 00	 mov	 QWORD PTR i$[rsp], 0
  005c1	eb 0d		 jmp	 SHORT $LN5@ascii_esca
$LN4@ascii_esca:
  005c3	48 8b 44 24 30	 mov	 rax, QWORD PTR i$[rsp]
  005c8	48 ff c0	 inc	 rax
  005cb	48 89 44 24 30	 mov	 QWORD PTR i$[rsp], rax
$LN5@ascii_esca:
  005d0	48 8b 44 24 50	 mov	 rax, QWORD PTR input_chars$[rsp]
  005d5	48 39 44 24 30	 cmp	 QWORD PTR i$[rsp], rax
  005da	0f 8d cd 00 00
	00		 jge	 $LN3@ascii_esca

; 240  :         Py_UCS4 c = PyUnicode_READ(kind, input, i);

  005e0	83 7c 24 20 01	 cmp	 DWORD PTR kind$[rsp], 1
  005e5	75 1c		 jne	 SHORT $LN50@ascii_esca
  005e7	48 8b 44 24 30	 mov	 rax, QWORD PTR i$[rsp]
  005ec	48 8b 4c 24 40	 mov	 rcx, QWORD PTR input$[rsp]
  005f1	48 03 c8	 add	 rcx, rax
  005f4	48 8b c1	 mov	 rax, rcx
  005f7	0f b6 00	 movzx	 eax, BYTE PTR [rax]
  005fa	89 84 24 a0 00
	00 00		 mov	 DWORD PTR tv278[rsp], eax
  00601	eb 40		 jmp	 SHORT $LN51@ascii_esca
$LN50@ascii_esca:
  00603	83 7c 24 20 02	 cmp	 DWORD PTR kind$[rsp], 2
  00608	75 17		 jne	 SHORT $LN48@ascii_esca
  0060a	48 8b 44 24 40	 mov	 rax, QWORD PTR input$[rsp]
  0060f	48 8b 4c 24 30	 mov	 rcx, QWORD PTR i$[rsp]
  00614	0f b7 04 48	 movzx	 eax, WORD PTR [rax+rcx*2]
  00618	89 84 24 a4 00
	00 00		 mov	 DWORD PTR tv277[rsp], eax
  0061f	eb 14		 jmp	 SHORT $LN49@ascii_esca
$LN48@ascii_esca:
  00621	48 8b 44 24 40	 mov	 rax, QWORD PTR input$[rsp]
  00626	48 8b 4c 24 30	 mov	 rcx, QWORD PTR i$[rsp]
  0062b	8b 04 88	 mov	 eax, DWORD PTR [rax+rcx*4]
  0062e	89 84 24 a4 00
	00 00		 mov	 DWORD PTR tv277[rsp], eax
$LN49@ascii_esca:
  00635	8b 84 24 a4 00
	00 00		 mov	 eax, DWORD PTR tv277[rsp]
  0063c	89 84 24 a0 00
	00 00		 mov	 DWORD PTR tv278[rsp], eax
$LN51@ascii_esca:
  00643	8b 84 24 a0 00
	00 00		 mov	 eax, DWORD PTR tv278[rsp]
  0064a	89 44 24 64	 mov	 DWORD PTR c$20691[rsp], eax

; 241  :         if (S_CHAR(c)) {

  0064e	83 7c 24 64 20	 cmp	 DWORD PTR c$20691[rsp], 32 ; 00000020H
  00653	72 3b		 jb	 SHORT $LN2@ascii_esca
  00655	83 7c 24 64 7e	 cmp	 DWORD PTR c$20691[rsp], 126 ; 0000007eH
  0065a	77 34		 ja	 SHORT $LN2@ascii_esca
  0065c	83 7c 24 64 5c	 cmp	 DWORD PTR c$20691[rsp], 92 ; 0000005cH
  00661	74 2d		 je	 SHORT $LN2@ascii_esca
  00663	83 7c 24 64 22	 cmp	 DWORD PTR c$20691[rsp], 34 ; 00000022H
  00668	74 26		 je	 SHORT $LN2@ascii_esca

; 242  :             output[chars++] = c;

  0066a	48 8b 44 24 58	 mov	 rax, QWORD PTR chars$[rsp]
  0066f	48 8b 4c 24 38	 mov	 rcx, QWORD PTR output$[rsp]
  00674	48 03 c8	 add	 rcx, rax
  00677	48 8b c1	 mov	 rax, rcx
  0067a	0f b6 4c 24 64	 movzx	 ecx, BYTE PTR c$20691[rsp]
  0067f	88 08		 mov	 BYTE PTR [rax], cl
  00681	48 8b 44 24 58	 mov	 rax, QWORD PTR chars$[rsp]
  00686	48 ff c0	 inc	 rax
  00689	48 89 44 24 58	 mov	 QWORD PTR chars$[rsp], rax

; 243  :         }
; 244  :         else {

  0068e	eb 18		 jmp	 SHORT $LN1@ascii_esca
$LN2@ascii_esca:

; 245  :             chars = ascii_escape_unichar(c, output, chars);

  00690	4c 8b 44 24 58	 mov	 r8, QWORD PTR chars$[rsp]
  00695	48 8b 54 24 38	 mov	 rdx, QWORD PTR output$[rsp]
  0069a	8b 4c 24 64	 mov	 ecx, DWORD PTR c$20691[rsp]
  0069e	e8 00 00 00 00	 call	 ascii_escape_unichar
  006a3	48 89 44 24 58	 mov	 QWORD PTR chars$[rsp], rax
$LN1@ascii_esca:

; 246  :         }
; 247  :     }

  006a8	e9 16 ff ff ff	 jmp	 $LN4@ascii_esca
$LN3@ascii_esca:

; 248  :     output[chars++] = '"';

  006ad	48 8b 44 24 58	 mov	 rax, QWORD PTR chars$[rsp]
  006b2	48 8b 4c 24 38	 mov	 rcx, QWORD PTR output$[rsp]
  006b7	48 03 c8	 add	 rcx, rax
  006ba	48 8b c1	 mov	 rax, rcx
  006bd	c6 00 22	 mov	 BYTE PTR [rax], 34	; 00000022H
  006c0	48 8b 44 24 58	 mov	 rax, QWORD PTR chars$[rsp]
  006c5	48 ff c0	 inc	 rax
  006c8	48 89 44 24 58	 mov	 QWORD PTR chars$[rsp], rax

; 249  : #ifdef Py_DEBUG
; 250  :     assert(_PyUnicode_CheckConsistency(rval, 1));

  006cd	ba 01 00 00 00	 mov	 edx, 1
  006d2	48 8b 4c 24 28	 mov	 rcx, QWORD PTR rval$[rsp]
  006d7	e8 00 00 00 00	 call	 _PyUnicode_CheckConsistency
  006dc	85 c0		 test	 eax, eax
  006de	75 1c		 jne	 SHORT $LN52@ascii_esca
  006e0	41 b8 fa 00 00
	00		 mov	 r8d, 250		; 000000faH
  006e6	48 8d 15 00 00
	00 00		 lea	 rdx, OFFSET FLAT:??_C@_1CG@KOELJAMM@?$AA?4?$AA?4?$AA?2?$AAM?$AAo?$AAd?$AAu?$AAl?$AAe?$AAs?$AA?2?$AA_?$AAj?$AAs?$AAo?$AAn?$AA?4?$AAc?$AA?$AA@
  006ed	48 8d 0d 00 00
	00 00		 lea	 rcx, OFFSET FLAT:??_C@_1EK@HLDMPLDK@?$AA_?$AAP?$AAy?$AAU?$AAn?$AAi?$AAc?$AAo?$AAd?$AAe?$AA_?$AAC?$AAh?$AAe?$AAc?$AAk?$AAC?$AAo?$AAn?$AAs?$AAi?$AAs?$AAt?$AAe?$AAn?$AAc?$AAy?$AA?$CI?$AAr?$AAv?$AAa?$AAl@
  006f4	ff 15 00 00 00
	00		 call	 QWORD PTR __imp__wassert
  006fa	33 c0		 xor	 eax, eax
$LN52@ascii_esca:

; 251  : #endif
; 252  :     return rval;

  006fc	48 8b 44 24 28	 mov	 rax, QWORD PTR rval$[rsp]
$LN17@ascii_esca:

; 253  : }

  00701	48 81 c4 b8 00
	00 00		 add	 rsp, 184		; 000000b8H
  00708	c3		 ret	 0
  00709	0f 1f 00	 npad	 3
$LN54@ascii_esca:
  0070c	00 00 00 00	 DD	 $LN8@ascii_esca
  00710	00 00 00 00	 DD	 $LN7@ascii_esca
$LN53@ascii_esca:
  00714	00		 DB	 0
  00715	00		 DB	 0
  00716	00		 DB	 0
  00717	01		 DB	 1
  00718	00		 DB	 0
  00719	00		 DB	 0
  0071a	01		 DB	 1
  0071b	01		 DB	 1
  0071c	01		 DB	 1
  0071d	01		 DB	 1
  0071e	01		 DB	 1
  0071f	01		 DB	 1
  00720	01		 DB	 1
  00721	01		 DB	 1
  00722	01		 DB	 1
  00723	01		 DB	 1
  00724	01		 DB	 1
  00725	01		 DB	 1
  00726	01		 DB	 1
  00727	01		 DB	 1
  00728	01		 DB	 1
  00729	01		 DB	 1
  0072a	01		 DB	 1
  0072b	01		 DB	 1
  0072c	01		 DB	 1
  0072d	01		 DB	 1
  0072e	00		 DB	 0
  0072f	01		 DB	 1
  00730	01		 DB	 1
  00731	01		 DB	 1
  00732	01		 DB	 1
  00733	01		 DB	 1
  00734	01		 DB	 1
  00735	01		 DB	 1
  00736	01		 DB	 1
  00737	01		 DB	 1
  00738	01		 DB	 1
  00739	01		 DB	 1
  0073a	01		 DB	 1
  0073b	01		 DB	 1
  0073c	01		 DB	 1
  0073d	01		 DB	 1
  0073e	01		 DB	 1
  0073f	01		 DB	 1
  00740	01		 DB	 1
  00741	01		 DB	 1
  00742	01		 DB	 1
  00743	01		 DB	 1
  00744	01		 DB	 1
  00745	01		 DB	 1
  00746	01		 DB	 1
  00747	01		 DB	 1
  00748	01		 DB	 1
  00749	01		 DB	 1
  0074a	01		 DB	 1
  0074b	01		 DB	 1
  0074c	01		 DB	 1
  0074d	01		 DB	 1
  0074e	01		 DB	 1
  0074f	01		 DB	 1
  00750	01		 DB	 1
  00751	01		 DB	 1
  00752	01		 DB	 1
  00753	01		 DB	 1
  00754	01		 DB	 1
  00755	01		 DB	 1
  00756	01		 DB	 1
  00757	01		 DB	 1
  00758	01		 DB	 1
  00759	01		 DB	 1
  0075a	01		 DB	 1
  0075b	01		 DB	 1
  0075c	01		 DB	 1
  0075d	01		 DB	 1
  0075e	01		 DB	 1
  0075f	01		 DB	 1
  00760	01		 DB	 1
  00761	01		 DB	 1
  00762	01		 DB	 1
  00763	01		 DB	 1
  00764	01		 DB	 1
  00765	01		 DB	 1
  00766	01		 DB	 1
  00767	01		 DB	 1
  00768	00		 DB	 0
ascii_escape_unicode ENDP
_TEXT	ENDS
EXTRN	Py_hexdigits:QWORD
;	COMDAT pdata
pdata	SEGMENT
$pdata$ascii_escape_unichar DD imagerel ascii_escape_unichar
	DD	imagerel ascii_escape_unichar+1093
	DD	imagerel $unwind$ascii_escape_unichar
pdata	ENDS
;	COMDAT xdata
xdata	SEGMENT
$unwind$ascii_escape_unichar DD 011201H
	DD	02212H
; Function compile flags: /Odtp
xdata	ENDS
;	COMDAT ascii_escape_unichar
_TEXT	SEGMENT
v$20603 = 0
tv66 = 4
c$ = 32
output$ = 40
chars$ = 48
ascii_escape_unichar PROC				; COMDAT

; 161  : {

  00000	4c 89 44 24 18	 mov	 QWORD PTR [rsp+24], r8
  00005	48 89 54 24 10	 mov	 QWORD PTR [rsp+16], rdx
  0000a	89 4c 24 08	 mov	 DWORD PTR [rsp+8], ecx
  0000e	48 83 ec 18	 sub	 rsp, 24

; 162  :     /* Escape unicode code point c to ASCII escape sequences
; 163  :     in char *output. output must have at least 12 bytes unused to
; 164  :     accommodate an escaped surrogate pair "\uXXXX\uXXXX" */
; 165  :     output[chars++] = '\\';

  00012	48 8b 44 24 30	 mov	 rax, QWORD PTR chars$[rsp]
  00017	48 8b 4c 24 28	 mov	 rcx, QWORD PTR output$[rsp]
  0001c	48 03 c8	 add	 rcx, rax
  0001f	48 8b c1	 mov	 rax, rcx
  00022	c6 00 5c	 mov	 BYTE PTR [rax], 92	; 0000005cH
  00025	48 8b 44 24 30	 mov	 rax, QWORD PTR chars$[rsp]
  0002a	48 ff c0	 inc	 rax
  0002d	48 89 44 24 30	 mov	 QWORD PTR chars$[rsp], rax

; 166  :     switch (c) {

  00032	8b 44 24 20	 mov	 eax, DWORD PTR c$[rsp]
  00036	89 44 24 04	 mov	 DWORD PTR tv66[rsp], eax
  0003a	8b 44 24 04	 mov	 eax, DWORD PTR tv66[rsp]
  0003e	83 e8 08	 sub	 eax, 8
  00041	89 44 24 04	 mov	 DWORD PTR tv66[rsp], eax
  00045	83 7c 24 04 54	 cmp	 DWORD PTR tv66[rsp], 84	; 00000054H
  0004a	0f 87 2a 01 00
	00		 ja	 $LN2@ascii_esca@2
  00050	8b 44 24 04	 mov	 eax, DWORD PTR tv66[rsp]
  00054	48 8d 0d 00 00
	00 00		 lea	 rcx, OFFSET FLAT:__ImageBase
  0005b	0f b6 84 01 00
	00 00 00	 movzx	 eax, BYTE PTR $LN14@ascii_esca@2[rcx+rax]
  00063	8b 84 81 00 00
	00 00		 mov	 eax, DWORD PTR $LN15@ascii_esca@2[rcx+rax*4]
  0006a	48 03 c1	 add	 rax, rcx
  0006d	ff e0		 jmp	 rax
$LN9@ascii_esca@2:

; 167  :         case '\\': output[chars++] = c; break;

  0006f	48 8b 44 24 30	 mov	 rax, QWORD PTR chars$[rsp]
  00074	48 8b 4c 24 28	 mov	 rcx, QWORD PTR output$[rsp]
  00079	48 03 c8	 add	 rcx, rax
  0007c	48 8b c1	 mov	 rax, rcx
  0007f	0f b6 4c 24 20	 movzx	 ecx, BYTE PTR c$[rsp]
  00084	88 08		 mov	 BYTE PTR [rax], cl
  00086	48 8b 44 24 30	 mov	 rax, QWORD PTR chars$[rsp]
  0008b	48 ff c0	 inc	 rax
  0008e	48 89 44 24 30	 mov	 QWORD PTR chars$[rsp], rax
  00093	e9 2b 03 00 00	 jmp	 $LN10@ascii_esca@2
$LN8@ascii_esca@2:

; 168  :         case '"': output[chars++] = c; break;

  00098	48 8b 44 24 30	 mov	 rax, QWORD PTR chars$[rsp]
  0009d	48 8b 4c 24 28	 mov	 rcx, QWORD PTR output$[rsp]
  000a2	48 03 c8	 add	 rcx, rax
  000a5	48 8b c1	 mov	 rax, rcx
  000a8	0f b6 4c 24 20	 movzx	 ecx, BYTE PTR c$[rsp]
  000ad	88 08		 mov	 BYTE PTR [rax], cl
  000af	48 8b 44 24 30	 mov	 rax, QWORD PTR chars$[rsp]
  000b4	48 ff c0	 inc	 rax
  000b7	48 89 44 24 30	 mov	 QWORD PTR chars$[rsp], rax
  000bc	e9 02 03 00 00	 jmp	 $LN10@ascii_esca@2
$LN7@ascii_esca@2:

; 169  :         case '\b': output[chars++] = 'b'; break;

  000c1	48 8b 44 24 30	 mov	 rax, QWORD PTR chars$[rsp]
  000c6	48 8b 4c 24 28	 mov	 rcx, QWORD PTR output$[rsp]
  000cb	48 03 c8	 add	 rcx, rax
  000ce	48 8b c1	 mov	 rax, rcx
  000d1	c6 00 62	 mov	 BYTE PTR [rax], 98	; 00000062H
  000d4	48 8b 44 24 30	 mov	 rax, QWORD PTR chars$[rsp]
  000d9	48 ff c0	 inc	 rax
  000dc	48 89 44 24 30	 mov	 QWORD PTR chars$[rsp], rax
  000e1	e9 dd 02 00 00	 jmp	 $LN10@ascii_esca@2
$LN6@ascii_esca@2:

; 170  :         case '\f': output[chars++] = 'f'; break;

  000e6	48 8b 44 24 30	 mov	 rax, QWORD PTR chars$[rsp]
  000eb	48 8b 4c 24 28	 mov	 rcx, QWORD PTR output$[rsp]
  000f0	48 03 c8	 add	 rcx, rax
  000f3	48 8b c1	 mov	 rax, rcx
  000f6	c6 00 66	 mov	 BYTE PTR [rax], 102	; 00000066H
  000f9	48 8b 44 24 30	 mov	 rax, QWORD PTR chars$[rsp]
  000fe	48 ff c0	 inc	 rax
  00101	48 89 44 24 30	 mov	 QWORD PTR chars$[rsp], rax
  00106	e9 b8 02 00 00	 jmp	 $LN10@ascii_esca@2
$LN5@ascii_esca@2:

; 171  :         case '\n': output[chars++] = 'n'; break;

  0010b	48 8b 44 24 30	 mov	 rax, QWORD PTR chars$[rsp]
  00110	48 8b 4c 24 28	 mov	 rcx, QWORD PTR output$[rsp]
  00115	48 03 c8	 add	 rcx, rax
  00118	48 8b c1	 mov	 rax, rcx
  0011b	c6 00 6e	 mov	 BYTE PTR [rax], 110	; 0000006eH
  0011e	48 8b 44 24 30	 mov	 rax, QWORD PTR chars$[rsp]
  00123	48 ff c0	 inc	 rax
  00126	48 89 44 24 30	 mov	 QWORD PTR chars$[rsp], rax
  0012b	e9 93 02 00 00	 jmp	 $LN10@ascii_esca@2
$LN4@ascii_esca@2:

; 172  :         case '\r': output[chars++] = 'r'; break;

  00130	48 8b 44 24 30	 mov	 rax, QWORD PTR chars$[rsp]
  00135	48 8b 4c 24 28	 mov	 rcx, QWORD PTR output$[rsp]
  0013a	48 03 c8	 add	 rcx, rax
  0013d	48 8b c1	 mov	 rax, rcx
  00140	c6 00 72	 mov	 BYTE PTR [rax], 114	; 00000072H
  00143	48 8b 44 24 30	 mov	 rax, QWORD PTR chars$[rsp]
  00148	48 ff c0	 inc	 rax
  0014b	48 89 44 24 30	 mov	 QWORD PTR chars$[rsp], rax
  00150	e9 6e 02 00 00	 jmp	 $LN10@ascii_esca@2
$LN3@ascii_esca@2:

; 173  :         case '\t': output[chars++] = 't'; break;

  00155	48 8b 44 24 30	 mov	 rax, QWORD PTR chars$[rsp]
  0015a	48 8b 4c 24 28	 mov	 rcx, QWORD PTR output$[rsp]
  0015f	48 03 c8	 add	 rcx, rax
  00162	48 8b c1	 mov	 rax, rcx
  00165	c6 00 74	 mov	 BYTE PTR [rax], 116	; 00000074H
  00168	48 8b 44 24 30	 mov	 rax, QWORD PTR chars$[rsp]
  0016d	48 ff c0	 inc	 rax
  00170	48 89 44 24 30	 mov	 QWORD PTR chars$[rsp], rax
  00175	e9 49 02 00 00	 jmp	 $LN10@ascii_esca@2
$LN2@ascii_esca@2:

; 174  :         default:
; 175  :             if (c >= 0x10000) {

  0017a	81 7c 24 20 00
	00 01 00	 cmp	 DWORD PTR c$[rsp], 65536 ; 00010000H
  00182	0f 82 46 01 00
	00		 jb	 $LN1@ascii_esca@2

; 176  :                 /* UTF-16 surrogate pair */
; 177  :                 Py_UCS4 v = c - 0x10000;

  00188	8b 44 24 20	 mov	 eax, DWORD PTR c$[rsp]
  0018c	2d 00 00 01 00	 sub	 eax, 65536		; 00010000H
  00191	89 04 24	 mov	 DWORD PTR v$20603[rsp], eax

; 178  :                 c = 0xd800 | ((v >> 10) & 0x3ff);

  00194	8b 04 24	 mov	 eax, DWORD PTR v$20603[rsp]
  00197	c1 e8 0a	 shr	 eax, 10
  0019a	25 ff 03 00 00	 and	 eax, 1023		; 000003ffH
  0019f	0d 00 d8 00 00	 or	 eax, 55296		; 0000d800H
  001a4	89 44 24 20	 mov	 DWORD PTR c$[rsp], eax

; 179  :                 output[chars++] = 'u';

  001a8	48 8b 44 24 30	 mov	 rax, QWORD PTR chars$[rsp]
  001ad	48 8b 4c 24 28	 mov	 rcx, QWORD PTR output$[rsp]
  001b2	48 03 c8	 add	 rcx, rax
  001b5	48 8b c1	 mov	 rax, rcx
  001b8	c6 00 75	 mov	 BYTE PTR [rax], 117	; 00000075H
  001bb	48 8b 44 24 30	 mov	 rax, QWORD PTR chars$[rsp]
  001c0	48 ff c0	 inc	 rax
  001c3	48 89 44 24 30	 mov	 QWORD PTR chars$[rsp], rax

; 180  :                 output[chars++] = Py_hexdigits[(c >> 12) & 0xf];

  001c8	8b 44 24 20	 mov	 eax, DWORD PTR c$[rsp]
  001cc	c1 e8 0c	 shr	 eax, 12
  001cf	83 e0 0f	 and	 eax, 15
  001d2	8b c0		 mov	 eax, eax
  001d4	48 8b 4c 24 30	 mov	 rcx, QWORD PTR chars$[rsp]
  001d9	48 8b 54 24 28	 mov	 rdx, QWORD PTR output$[rsp]
  001de	48 03 d1	 add	 rdx, rcx
  001e1	48 8b ca	 mov	 rcx, rdx
  001e4	48 8b 15 00 00
	00 00		 mov	 rdx, QWORD PTR Py_hexdigits
  001eb	0f b6 04 02	 movzx	 eax, BYTE PTR [rdx+rax]
  001ef	88 01		 mov	 BYTE PTR [rcx], al
  001f1	48 8b 44 24 30	 mov	 rax, QWORD PTR chars$[rsp]
  001f6	48 ff c0	 inc	 rax
  001f9	48 89 44 24 30	 mov	 QWORD PTR chars$[rsp], rax

; 181  :                 output[chars++] = Py_hexdigits[(c >>  8) & 0xf];

  001fe	8b 44 24 20	 mov	 eax, DWORD PTR c$[rsp]
  00202	c1 e8 08	 shr	 eax, 8
  00205	83 e0 0f	 and	 eax, 15
  00208	8b c0		 mov	 eax, eax
  0020a	48 8b 4c 24 30	 mov	 rcx, QWORD PTR chars$[rsp]
  0020f	48 8b 54 24 28	 mov	 rdx, QWORD PTR output$[rsp]
  00214	48 03 d1	 add	 rdx, rcx
  00217	48 8b ca	 mov	 rcx, rdx
  0021a	48 8b 15 00 00
	00 00		 mov	 rdx, QWORD PTR Py_hexdigits
  00221	0f b6 04 02	 movzx	 eax, BYTE PTR [rdx+rax]
  00225	88 01		 mov	 BYTE PTR [rcx], al
  00227	48 8b 44 24 30	 mov	 rax, QWORD PTR chars$[rsp]
  0022c	48 ff c0	 inc	 rax
  0022f	48 89 44 24 30	 mov	 QWORD PTR chars$[rsp], rax

; 182  :                 output[chars++] = Py_hexdigits[(c >>  4) & 0xf];

  00234	8b 44 24 20	 mov	 eax, DWORD PTR c$[rsp]
  00238	c1 e8 04	 shr	 eax, 4
  0023b	83 e0 0f	 and	 eax, 15
  0023e	8b c0		 mov	 eax, eax
  00240	48 8b 4c 24 30	 mov	 rcx, QWORD PTR chars$[rsp]
  00245	48 8b 54 24 28	 mov	 rdx, QWORD PTR output$[rsp]
  0024a	48 03 d1	 add	 rdx, rcx
  0024d	48 8b ca	 mov	 rcx, rdx
  00250	48 8b 15 00 00
	00 00		 mov	 rdx, QWORD PTR Py_hexdigits
  00257	0f b6 04 02	 movzx	 eax, BYTE PTR [rdx+rax]
  0025b	88 01		 mov	 BYTE PTR [rcx], al
  0025d	48 8b 44 24 30	 mov	 rax, QWORD PTR chars$[rsp]
  00262	48 ff c0	 inc	 rax
  00265	48 89 44 24 30	 mov	 QWORD PTR chars$[rsp], rax

; 183  :                 output[chars++] = Py_hexdigits[(c      ) & 0xf];

  0026a	8b 44 24 20	 mov	 eax, DWORD PTR c$[rsp]
  0026e	83 e0 0f	 and	 eax, 15
  00271	8b c0		 mov	 eax, eax
  00273	48 8b 4c 24 30	 mov	 rcx, QWORD PTR chars$[rsp]
  00278	48 8b 54 24 28	 mov	 rdx, QWORD PTR output$[rsp]
  0027d	48 03 d1	 add	 rdx, rcx
  00280	48 8b ca	 mov	 rcx, rdx
  00283	48 8b 15 00 00
	00 00		 mov	 rdx, QWORD PTR Py_hexdigits
  0028a	0f b6 04 02	 movzx	 eax, BYTE PTR [rdx+rax]
  0028e	88 01		 mov	 BYTE PTR [rcx], al
  00290	48 8b 44 24 30	 mov	 rax, QWORD PTR chars$[rsp]
  00295	48 ff c0	 inc	 rax
  00298	48 89 44 24 30	 mov	 QWORD PTR chars$[rsp], rax

; 184  :                 c = 0xdc00 | (v & 0x3ff);

  0029d	8b 04 24	 mov	 eax, DWORD PTR v$20603[rsp]
  002a0	25 ff 03 00 00	 and	 eax, 1023		; 000003ffH
  002a5	0d 00 dc 00 00	 or	 eax, 56320		; 0000dc00H
  002aa	89 44 24 20	 mov	 DWORD PTR c$[rsp], eax

; 185  :                 output[chars++] = '\\';

  002ae	48 8b 44 24 30	 mov	 rax, QWORD PTR chars$[rsp]
  002b3	48 8b 4c 24 28	 mov	 rcx, QWORD PTR output$[rsp]
  002b8	48 03 c8	 add	 rcx, rax
  002bb	48 8b c1	 mov	 rax, rcx
  002be	c6 00 5c	 mov	 BYTE PTR [rax], 92	; 0000005cH
  002c1	48 8b 44 24 30	 mov	 rax, QWORD PTR chars$[rsp]
  002c6	48 ff c0	 inc	 rax
  002c9	48 89 44 24 30	 mov	 QWORD PTR chars$[rsp], rax
$LN1@ascii_esca@2:

; 186  :             }
; 187  :             output[chars++] = 'u';

  002ce	48 8b 44 24 30	 mov	 rax, QWORD PTR chars$[rsp]
  002d3	48 8b 4c 24 28	 mov	 rcx, QWORD PTR output$[rsp]
  002d8	48 03 c8	 add	 rcx, rax
  002db	48 8b c1	 mov	 rax, rcx
  002de	c6 00 75	 mov	 BYTE PTR [rax], 117	; 00000075H
  002e1	48 8b 44 24 30	 mov	 rax, QWORD PTR chars$[rsp]
  002e6	48 ff c0	 inc	 rax
  002e9	48 89 44 24 30	 mov	 QWORD PTR chars$[rsp], rax

; 188  :             output[chars++] = Py_hexdigits[(c >> 12) & 0xf];

  002ee	8b 44 24 20	 mov	 eax, DWORD PTR c$[rsp]
  002f2	c1 e8 0c	 shr	 eax, 12
  002f5	83 e0 0f	 and	 eax, 15
  002f8	8b c0		 mov	 eax, eax
  002fa	48 8b 4c 24 30	 mov	 rcx, QWORD PTR chars$[rsp]
  002ff	48 8b 54 24 28	 mov	 rdx, QWORD PTR output$[rsp]
  00304	48 03 d1	 add	 rdx, rcx
  00307	48 8b ca	 mov	 rcx, rdx
  0030a	48 8b 15 00 00
	00 00		 mov	 rdx, QWORD PTR Py_hexdigits
  00311	0f b6 04 02	 movzx	 eax, BYTE PTR [rdx+rax]
  00315	88 01		 mov	 BYTE PTR [rcx], al
  00317	48 8b 44 24 30	 mov	 rax, QWORD PTR chars$[rsp]
  0031c	48 ff c0	 inc	 rax
  0031f	48 89 44 24 30	 mov	 QWORD PTR chars$[rsp], rax

; 189  :             output[chars++] = Py_hexdigits[(c >>  8) & 0xf];

  00324	8b 44 24 20	 mov	 eax, DWORD PTR c$[rsp]
  00328	c1 e8 08	 shr	 eax, 8
  0032b	83 e0 0f	 and	 eax, 15
  0032e	8b c0		 mov	 eax, eax
  00330	48 8b 4c 24 30	 mov	 rcx, QWORD PTR chars$[rsp]
  00335	48 8b 54 24 28	 mov	 rdx, QWORD PTR output$[rsp]
  0033a	48 03 d1	 add	 rdx, rcx
  0033d	48 8b ca	 mov	 rcx, rdx
  00340	48 8b 15 00 00
	00 00		 mov	 rdx, QWORD PTR Py_hexdigits
  00347	0f b6 04 02	 movzx	 eax, BYTE PTR [rdx+rax]
  0034b	88 01		 mov	 BYTE PTR [rcx], al
  0034d	48 8b 44 24 30	 mov	 rax, QWORD PTR chars$[rsp]
  00352	48 ff c0	 inc	 rax
  00355	48 89 44 24 30	 mov	 QWORD PTR chars$[rsp], rax

; 190  :             output[chars++] = Py_hexdigits[(c >>  4) & 0xf];

  0035a	8b 44 24 20	 mov	 eax, DWORD PTR c$[rsp]
  0035e	c1 e8 04	 shr	 eax, 4
  00361	83 e0 0f	 and	 eax, 15
  00364	8b c0		 mov	 eax, eax
  00366	48 8b 4c 24 30	 mov	 rcx, QWORD PTR chars$[rsp]
  0036b	48 8b 54 24 28	 mov	 rdx, QWORD PTR output$[rsp]
  00370	48 03 d1	 add	 rdx, rcx
  00373	48 8b ca	 mov	 rcx, rdx
  00376	48 8b 15 00 00
	00 00		 mov	 rdx, QWORD PTR Py_hexdigits
  0037d	0f b6 04 02	 movzx	 eax, BYTE PTR [rdx+rax]
  00381	88 01		 mov	 BYTE PTR [rcx], al
  00383	48 8b 44 24 30	 mov	 rax, QWORD PTR chars$[rsp]
  00388	48 ff c0	 inc	 rax
  0038b	48 89 44 24 30	 mov	 QWORD PTR chars$[rsp], rax

; 191  :             output[chars++] = Py_hexdigits[(c      ) & 0xf];

  00390	8b 44 24 20	 mov	 eax, DWORD PTR c$[rsp]
  00394	83 e0 0f	 and	 eax, 15
  00397	8b c0		 mov	 eax, eax
  00399	48 8b 4c 24 30	 mov	 rcx, QWORD PTR chars$[rsp]
  0039e	48 8b 54 24 28	 mov	 rdx, QWORD PTR output$[rsp]
  003a3	48 03 d1	 add	 rdx, rcx
  003a6	48 8b ca	 mov	 rcx, rdx
  003a9	48 8b 15 00 00
	00 00		 mov	 rdx, QWORD PTR Py_hexdigits
  003b0	0f b6 04 02	 movzx	 eax, BYTE PTR [rdx+rax]
  003b4	88 01		 mov	 BYTE PTR [rcx], al
  003b6	48 8b 44 24 30	 mov	 rax, QWORD PTR chars$[rsp]
  003bb	48 ff c0	 inc	 rax
  003be	48 89 44 24 30	 mov	 QWORD PTR chars$[rsp], rax
$LN10@ascii_esca@2:

; 192  :     }
; 193  :     return chars;

  003c3	48 8b 44 24 30	 mov	 rax, QWORD PTR chars$[rsp]

; 194  : }

  003c8	48 83 c4 18	 add	 rsp, 24
  003cc	c3		 ret	 0
  003cd	0f 1f 00	 npad	 3
$LN15@ascii_esca@2:
  003d0	00 00 00 00	 DD	 $LN7@ascii_esca@2
  003d4	00 00 00 00	 DD	 $LN3@ascii_esca@2
  003d8	00 00 00 00	 DD	 $LN5@ascii_esca@2
  003dc	00 00 00 00	 DD	 $LN6@ascii_esca@2
  003e0	00 00 00 00	 DD	 $LN4@ascii_esca@2
  003e4	00 00 00 00	 DD	 $LN8@ascii_esca@2
  003e8	00 00 00 00	 DD	 $LN9@ascii_esca@2
  003ec	00 00 00 00	 DD	 $LN2@ascii_esca@2
$LN14@ascii_esca@2:
  003f0	00		 DB	 0
  003f1	01		 DB	 1
  003f2	02		 DB	 2
  003f3	07		 DB	 7
  003f4	03		 DB	 3
  003f5	04		 DB	 4
  003f6	07		 DB	 7
  003f7	07		 DB	 7
  003f8	07		 DB	 7
  003f9	07		 DB	 7
  003fa	07		 DB	 7
  003fb	07		 DB	 7
  003fc	07		 DB	 7
  003fd	07		 DB	 7
  003fe	07		 DB	 7
  003ff	07		 DB	 7
  00400	07		 DB	 7
  00401	07		 DB	 7
  00402	07		 DB	 7
  00403	07		 DB	 7
  00404	07		 DB	 7
  00405	07		 DB	 7
  00406	07		 DB	 7
  00407	07		 DB	 7
  00408	07		 DB	 7
  00409	07		 DB	 7
  0040a	05		 DB	 5
  0040b	07		 DB	 7
  0040c	07		 DB	 7
  0040d	07		 DB	 7
  0040e	07		 DB	 7
  0040f	07		 DB	 7
  00410	07		 DB	 7
  00411	07		 DB	 7
  00412	07		 DB	 7
  00413	07		 DB	 7
  00414	07		 DB	 7
  00415	07		 DB	 7
  00416	07		 DB	 7
  00417	07		 DB	 7
  00418	07		 DB	 7
  00419	07		 DB	 7
  0041a	07		 DB	 7
  0041b	07		 DB	 7
  0041c	07		 DB	 7
  0041d	07		 DB	 7
  0041e	07		 DB	 7
  0041f	07		 DB	 7
  00420	07		 DB	 7
  00421	07		 DB	 7
  00422	07		 DB	 7
  00423	07		 DB	 7
  00424	07		 DB	 7
  00425	07		 DB	 7
  00426	07		 DB	 7
  00427	07		 DB	 7
  00428	07		 DB	 7
  00429	07		 DB	 7
  0042a	07		 DB	 7
  0042b	07		 DB	 7
  0042c	07		 DB	 7
  0042d	07		 DB	 7
  0042e	07		 DB	 7
  0042f	07		 DB	 7
  00430	07		 DB	 7
  00431	07		 DB	 7
  00432	07		 DB	 7
  00433	07		 DB	 7
  00434	07		 DB	 7
  00435	07		 DB	 7
  00436	07		 DB	 7
  00437	07		 DB	 7
  00438	07		 DB	 7
  00439	07		 DB	 7
  0043a	07		 DB	 7
  0043b	07		 DB	 7
  0043c	07		 DB	 7
  0043d	07		 DB	 7
  0043e	07		 DB	 7
  0043f	07		 DB	 7
  00440	07		 DB	 7
  00441	07		 DB	 7
  00442	07		 DB	 7
  00443	07		 DB	 7
  00444	06		 DB	 6
ascii_escape_unichar ENDP
_TEXT	ENDS
;	COMDAT pdata
pdata	SEGMENT
$pdata$scanner_dealloc DD imagerel scanner_dealloc
	DD	imagerel scanner_dealloc+44
	DD	imagerel $unwind$scanner_dealloc
pdata	ENDS
;	COMDAT xdata
xdata	SEGMENT
$unwind$scanner_dealloc DD 010901H
	DD	04209H
; Function compile flags: /Odtp
xdata	ENDS
;	COMDAT scanner_dealloc
_TEXT	SEGMENT
self$ = 48
scanner_dealloc PROC					; COMDAT

; 559  : {

  00000	48 89 4c 24 08	 mov	 QWORD PTR [rsp+8], rcx
  00005	48 83 ec 28	 sub	 rsp, 40			; 00000028H

; 560  :     /* Deallocate scanner object */
; 561  :     scanner_clear(self);

  00009	48 8b 4c 24 30	 mov	 rcx, QWORD PTR self$[rsp]
  0000e	e8 00 00 00 00	 call	 scanner_clear

; 562  :     Py_TYPE(self)->tp_free(self);

  00013	48 8b 44 24 30	 mov	 rax, QWORD PTR self$[rsp]
  00018	48 8b 40 58	 mov	 rax, QWORD PTR [rax+88]
  0001c	48 8b 4c 24 30	 mov	 rcx, QWORD PTR self$[rsp]
  00021	ff 90 98 01 00
	00		 call	 QWORD PTR [rax+408]

; 563  : }

  00027	48 83 c4 28	 add	 rsp, 40			; 00000028H
  0002b	c3		 ret	 0
scanner_dealloc ENDP
_TEXT	ENDS
PUBLIC	??_C@_0BB@GKNIGJBL@scanner_traverse?$AA@	; `string'
PUBLIC	??_C@_1CM@NDGIKJDC@?$AAP?$AAy?$AAS?$AAc?$AAa?$AAn?$AAn?$AAe?$AAr?$AA_?$AAC?$AAh?$AAe?$AAc?$AAk?$AA?$CI?$AAs?$AAe?$AAl?$AAf?$AA?$CJ?$AA?$AA@ ; `string'
EXTRN	_PyParallel_ContextGuardFailure:PROC
EXTRN	PyType_IsSubtype:PROC
;	COMDAT pdata
pdata	SEGMENT
$pdata$scanner_traverse DD imagerel scanner_traverse
	DD	imagerel scanner_traverse+671
	DD	imagerel $unwind$scanner_traverse
pdata	ENDS
;	COMDAT xdata
xdata	SEGMENT
$unwind$scanner_traverse DD 011301H
	DD	08213H
xdata	ENDS
;	COMDAT ??_C@_0BB@GKNIGJBL@scanner_traverse?$AA@
CONST	SEGMENT
??_C@_0BB@GKNIGJBL@scanner_traverse?$AA@ DB 'scanner_traverse', 00H ; `string'
CONST	ENDS
;	COMDAT ??_C@_1CM@NDGIKJDC@?$AAP?$AAy?$AAS?$AAc?$AAa?$AAn?$AAn?$AAe?$AAr?$AA_?$AAC?$AAh?$AAe?$AAc?$AAk?$AA?$CI?$AAs?$AAe?$AAl?$AAf?$AA?$CJ?$AA?$AA@
CONST	SEGMENT
??_C@_1CM@NDGIKJDC@?$AAP?$AAy?$AAS?$AAc?$AAa?$AAn?$AAn?$AAe?$AAr?$AA_?$AAC?$AAh?$AAe?$AAc?$AAk?$AA?$CI?$AAs?$AAe?$AAl?$AAf?$AA?$CJ?$AA?$AA@ DB 'P'
	DB	00H, 'y', 00H, 'S', 00H, 'c', 00H, 'a', 00H, 'n', 00H, 'n', 00H
	DB	'e', 00H, 'r', 00H, '_', 00H, 'C', 00H, 'h', 00H, 'e', 00H, 'c'
	DB	00H, 'k', 00H, '(', 00H, 's', 00H, 'e', 00H, 'l', 00H, 'f', 00H
	DB	')', 00H, 00H, 00H				; `string'
; Function compile flags: /Odtp
CONST	ENDS
;	COMDAT scanner_traverse
_TEXT	SEGMENT
s$ = 32
vret$21030 = 40
vret$21038 = 44
vret$21046 = 48
vret$21054 = 52
vret$21062 = 56
vret$21070 = 60
self$ = 80
visit$ = 88
arg$ = 96
scanner_traverse PROC					; COMDAT

; 567  : {

  00000	4c 89 44 24 18	 mov	 QWORD PTR [rsp+24], r8
  00005	48 89 54 24 10	 mov	 QWORD PTR [rsp+16], rdx
  0000a	48 89 4c 24 08	 mov	 QWORD PTR [rsp+8], rcx
  0000f	48 83 ec 48	 sub	 rsp, 72			; 00000048H

; 568  :     PyScannerObject *s;
; 569  :     assert(PyScanner_Check(self));

  00013	48 8d 05 00 00
	00 00		 lea	 rax, OFFSET FLAT:PyScannerType
  0001a	48 8b 4c 24 50	 mov	 rcx, QWORD PTR self$[rsp]
  0001f	48 39 41 58	 cmp	 QWORD PTR [rcx+88], rax
  00023	74 35		 je	 SHORT $LN39@scanner_tr
  00025	48 8d 15 00 00
	00 00		 lea	 rdx, OFFSET FLAT:PyScannerType
  0002c	48 8b 44 24 50	 mov	 rax, QWORD PTR self$[rsp]
  00031	48 8b 48 58	 mov	 rcx, QWORD PTR [rax+88]
  00035	e8 00 00 00 00	 call	 PyType_IsSubtype
  0003a	85 c0		 test	 eax, eax
  0003c	75 1c		 jne	 SHORT $LN39@scanner_tr
  0003e	41 b8 39 02 00
	00		 mov	 r8d, 569		; 00000239H
  00044	48 8d 15 00 00
	00 00		 lea	 rdx, OFFSET FLAT:??_C@_1CG@KOELJAMM@?$AA?4?$AA?4?$AA?2?$AAM?$AAo?$AAd?$AAu?$AAl?$AAe?$AAs?$AA?2?$AA_?$AAj?$AAs?$AAo?$AAn?$AA?4?$AAc?$AA?$AA@
  0004b	48 8d 0d 00 00
	00 00		 lea	 rcx, OFFSET FLAT:??_C@_1CM@NDGIKJDC@?$AAP?$AAy?$AAS?$AAc?$AAa?$AAn?$AAn?$AAe?$AAr?$AA_?$AAC?$AAh?$AAe?$AAc?$AAk?$AA?$CI?$AAs?$AAe?$AAl?$AAf?$AA?$CJ?$AA?$AA@
  00052	ff 15 00 00 00
	00		 call	 QWORD PTR __imp__wassert
  00058	33 c0		 xor	 eax, eax
$LN39@scanner_tr:

; 570  :     s = (PyScannerObject *)self;

  0005a	48 8b 44 24 50	 mov	 rax, QWORD PTR self$[rsp]
  0005f	48 89 44 24 20	 mov	 QWORD PTR s$[rsp], rax
$LN36@scanner_tr:

; 571  :     Py_VISIT(s->strict);

  00064	e8 00 00 00 00	 call	 _Py_PXCTX
  00069	85 c0		 test	 eax, eax
  0006b	74 1c		 je	 SHORT $LN33@scanner_tr
  0006d	45 33 c9	 xor	 r9d, r9d
  00070	41 b8 3b 02 00
	00		 mov	 r8d, 571		; 0000023bH
  00076	48 8d 15 00 00
	00 00		 lea	 rdx, OFFSET FLAT:??_C@_0BD@BIGPLMIN@?4?4?2Modules?2_json?4c?$AA@
  0007d	48 8d 0d 00 00
	00 00		 lea	 rcx, OFFSET FLAT:??_C@_0BB@GKNIGJBL@scanner_traverse?$AA@
  00084	e8 00 00 00 00	 call	 _PyParallel_ContextGuardFailure
$LN33@scanner_tr:
  00089	48 8b 44 24 20	 mov	 rax, QWORD PTR s$[rsp]
  0008e	48 83 78 60 00	 cmp	 QWORD PTR [rax+96], 0
  00093	74 26		 je	 SHORT $LN32@scanner_tr
  00095	48 8b 54 24 60	 mov	 rdx, QWORD PTR arg$[rsp]
  0009a	48 8b 44 24 20	 mov	 rax, QWORD PTR s$[rsp]
  0009f	48 8b 48 60	 mov	 rcx, QWORD PTR [rax+96]
  000a3	ff 54 24 58	 call	 QWORD PTR visit$[rsp]
  000a7	89 44 24 28	 mov	 DWORD PTR vret$21030[rsp], eax
  000ab	83 7c 24 28 00	 cmp	 DWORD PTR vret$21030[rsp], 0
  000b0	74 09		 je	 SHORT $LN31@scanner_tr
  000b2	8b 44 24 28	 mov	 eax, DWORD PTR vret$21030[rsp]
  000b6	e9 df 01 00 00	 jmp	 $LN37@scanner_tr
$LN31@scanner_tr:
$LN32@scanner_tr:
  000bb	33 c0		 xor	 eax, eax
  000bd	85 c0		 test	 eax, eax
  000bf	75 a3		 jne	 SHORT $LN36@scanner_tr
$LN30@scanner_tr:

; 572  :     Py_VISIT(s->object_hook);

  000c1	e8 00 00 00 00	 call	 _Py_PXCTX
  000c6	85 c0		 test	 eax, eax
  000c8	74 1c		 je	 SHORT $LN27@scanner_tr
  000ca	45 33 c9	 xor	 r9d, r9d
  000cd	41 b8 3c 02 00
	00		 mov	 r8d, 572		; 0000023cH
  000d3	48 8d 15 00 00
	00 00		 lea	 rdx, OFFSET FLAT:??_C@_0BD@BIGPLMIN@?4?4?2Modules?2_json?4c?$AA@
  000da	48 8d 0d 00 00
	00 00		 lea	 rcx, OFFSET FLAT:??_C@_0BB@GKNIGJBL@scanner_traverse?$AA@
  000e1	e8 00 00 00 00	 call	 _PyParallel_ContextGuardFailure
$LN27@scanner_tr:
  000e6	48 8b 44 24 20	 mov	 rax, QWORD PTR s$[rsp]
  000eb	48 83 78 68 00	 cmp	 QWORD PTR [rax+104], 0
  000f0	74 26		 je	 SHORT $LN26@scanner_tr
  000f2	48 8b 54 24 60	 mov	 rdx, QWORD PTR arg$[rsp]
  000f7	48 8b 44 24 20	 mov	 rax, QWORD PTR s$[rsp]
  000fc	48 8b 48 68	 mov	 rcx, QWORD PTR [rax+104]
  00100	ff 54 24 58	 call	 QWORD PTR visit$[rsp]
  00104	89 44 24 2c	 mov	 DWORD PTR vret$21038[rsp], eax
  00108	83 7c 24 2c 00	 cmp	 DWORD PTR vret$21038[rsp], 0
  0010d	74 09		 je	 SHORT $LN25@scanner_tr
  0010f	8b 44 24 2c	 mov	 eax, DWORD PTR vret$21038[rsp]
  00113	e9 82 01 00 00	 jmp	 $LN37@scanner_tr
$LN25@scanner_tr:
$LN26@scanner_tr:
  00118	33 c0		 xor	 eax, eax
  0011a	85 c0		 test	 eax, eax
  0011c	75 a3		 jne	 SHORT $LN30@scanner_tr
$LN24@scanner_tr:

; 573  :     Py_VISIT(s->object_pairs_hook);

  0011e	e8 00 00 00 00	 call	 _Py_PXCTX
  00123	85 c0		 test	 eax, eax
  00125	74 1c		 je	 SHORT $LN21@scanner_tr
  00127	45 33 c9	 xor	 r9d, r9d
  0012a	41 b8 3d 02 00
	00		 mov	 r8d, 573		; 0000023dH
  00130	48 8d 15 00 00
	00 00		 lea	 rdx, OFFSET FLAT:??_C@_0BD@BIGPLMIN@?4?4?2Modules?2_json?4c?$AA@
  00137	48 8d 0d 00 00
	00 00		 lea	 rcx, OFFSET FLAT:??_C@_0BB@GKNIGJBL@scanner_traverse?$AA@
  0013e	e8 00 00 00 00	 call	 _PyParallel_ContextGuardFailure
$LN21@scanner_tr:
  00143	48 8b 44 24 20	 mov	 rax, QWORD PTR s$[rsp]
  00148	48 83 78 70 00	 cmp	 QWORD PTR [rax+112], 0
  0014d	74 26		 je	 SHORT $LN20@scanner_tr
  0014f	48 8b 54 24 60	 mov	 rdx, QWORD PTR arg$[rsp]
  00154	48 8b 44 24 20	 mov	 rax, QWORD PTR s$[rsp]
  00159	48 8b 48 70	 mov	 rcx, QWORD PTR [rax+112]
  0015d	ff 54 24 58	 call	 QWORD PTR visit$[rsp]
  00161	89 44 24 30	 mov	 DWORD PTR vret$21046[rsp], eax
  00165	83 7c 24 30 00	 cmp	 DWORD PTR vret$21046[rsp], 0
  0016a	74 09		 je	 SHORT $LN19@scanner_tr
  0016c	8b 44 24 30	 mov	 eax, DWORD PTR vret$21046[rsp]
  00170	e9 25 01 00 00	 jmp	 $LN37@scanner_tr
$LN19@scanner_tr:
$LN20@scanner_tr:
  00175	33 c0		 xor	 eax, eax
  00177	85 c0		 test	 eax, eax
  00179	75 a3		 jne	 SHORT $LN24@scanner_tr
$LN18@scanner_tr:

; 574  :     Py_VISIT(s->parse_float);

  0017b	e8 00 00 00 00	 call	 _Py_PXCTX
  00180	85 c0		 test	 eax, eax
  00182	74 1c		 je	 SHORT $LN15@scanner_tr
  00184	45 33 c9	 xor	 r9d, r9d
  00187	41 b8 3e 02 00
	00		 mov	 r8d, 574		; 0000023eH
  0018d	48 8d 15 00 00
	00 00		 lea	 rdx, OFFSET FLAT:??_C@_0BD@BIGPLMIN@?4?4?2Modules?2_json?4c?$AA@
  00194	48 8d 0d 00 00
	00 00		 lea	 rcx, OFFSET FLAT:??_C@_0BB@GKNIGJBL@scanner_traverse?$AA@
  0019b	e8 00 00 00 00	 call	 _PyParallel_ContextGuardFailure
$LN15@scanner_tr:
  001a0	48 8b 44 24 20	 mov	 rax, QWORD PTR s$[rsp]
  001a5	48 83 78 78 00	 cmp	 QWORD PTR [rax+120], 0
  001aa	74 26		 je	 SHORT $LN14@scanner_tr
  001ac	48 8b 54 24 60	 mov	 rdx, QWORD PTR arg$[rsp]
  001b1	48 8b 44 24 20	 mov	 rax, QWORD PTR s$[rsp]
  001b6	48 8b 48 78	 mov	 rcx, QWORD PTR [rax+120]
  001ba	ff 54 24 58	 call	 QWORD PTR visit$[rsp]
  001be	89 44 24 34	 mov	 DWORD PTR vret$21054[rsp], eax
  001c2	83 7c 24 34 00	 cmp	 DWORD PTR vret$21054[rsp], 0
  001c7	74 09		 je	 SHORT $LN13@scanner_tr
  001c9	8b 44 24 34	 mov	 eax, DWORD PTR vret$21054[rsp]
  001cd	e9 c8 00 00 00	 jmp	 $LN37@scanner_tr
$LN13@scanner_tr:
$LN14@scanner_tr:
  001d2	33 c0		 xor	 eax, eax
  001d4	85 c0		 test	 eax, eax
  001d6	75 a3		 jne	 SHORT $LN18@scanner_tr
$LN12@scanner_tr:

; 575  :     Py_VISIT(s->parse_int);

  001d8	e8 00 00 00 00	 call	 _Py_PXCTX
  001dd	85 c0		 test	 eax, eax
  001df	74 1c		 je	 SHORT $LN9@scanner_tr
  001e1	45 33 c9	 xor	 r9d, r9d
  001e4	41 b8 3f 02 00
	00		 mov	 r8d, 575		; 0000023fH
  001ea	48 8d 15 00 00
	00 00		 lea	 rdx, OFFSET FLAT:??_C@_0BD@BIGPLMIN@?4?4?2Modules?2_json?4c?$AA@
  001f1	48 8d 0d 00 00
	00 00		 lea	 rcx, OFFSET FLAT:??_C@_0BB@GKNIGJBL@scanner_traverse?$AA@
  001f8	e8 00 00 00 00	 call	 _PyParallel_ContextGuardFailure
$LN9@scanner_tr:
  001fd	48 8b 44 24 20	 mov	 rax, QWORD PTR s$[rsp]
  00202	48 83 b8 80 00
	00 00 00	 cmp	 QWORD PTR [rax+128], 0
  0020a	74 26		 je	 SHORT $LN8@scanner_tr
  0020c	48 8b 54 24 60	 mov	 rdx, QWORD PTR arg$[rsp]
  00211	48 8b 44 24 20	 mov	 rax, QWORD PTR s$[rsp]
  00216	48 8b 88 80 00
	00 00		 mov	 rcx, QWORD PTR [rax+128]
  0021d	ff 54 24 58	 call	 QWORD PTR visit$[rsp]
  00221	89 44 24 38	 mov	 DWORD PTR vret$21062[rsp], eax
  00225	83 7c 24 38 00	 cmp	 DWORD PTR vret$21062[rsp], 0
  0022a	74 06		 je	 SHORT $LN7@scanner_tr
  0022c	8b 44 24 38	 mov	 eax, DWORD PTR vret$21062[rsp]
  00230	eb 68		 jmp	 SHORT $LN37@scanner_tr
$LN7@scanner_tr:
$LN8@scanner_tr:
  00232	33 c0		 xor	 eax, eax
  00234	85 c0		 test	 eax, eax
  00236	75 a0		 jne	 SHORT $LN12@scanner_tr
$LN6@scanner_tr:

; 576  :     Py_VISIT(s->parse_constant);

  00238	e8 00 00 00 00	 call	 _Py_PXCTX
  0023d	85 c0		 test	 eax, eax
  0023f	74 1c		 je	 SHORT $LN3@scanner_tr
  00241	45 33 c9	 xor	 r9d, r9d
  00244	41 b8 40 02 00
	00		 mov	 r8d, 576		; 00000240H
  0024a	48 8d 15 00 00
	00 00		 lea	 rdx, OFFSET FLAT:??_C@_0BD@BIGPLMIN@?4?4?2Modules?2_json?4c?$AA@
  00251	48 8d 0d 00 00
	00 00		 lea	 rcx, OFFSET FLAT:??_C@_0BB@GKNIGJBL@scanner_traverse?$AA@
  00258	e8 00 00 00 00	 call	 _PyParallel_ContextGuardFailure
$LN3@scanner_tr:
  0025d	48 8b 44 24 20	 mov	 rax, QWORD PTR s$[rsp]
  00262	48 83 b8 88 00
	00 00 00	 cmp	 QWORD PTR [rax+136], 0
  0026a	74 26		 je	 SHORT $LN2@scanner_tr
  0026c	48 8b 54 24 60	 mov	 rdx, QWORD PTR arg$[rsp]
  00271	48 8b 44 24 20	 mov	 rax, QWORD PTR s$[rsp]
  00276	48 8b 88 88 00
	00 00		 mov	 rcx, QWORD PTR [rax+136]
  0027d	ff 54 24 58	 call	 QWORD PTR visit$[rsp]
  00281	89 44 24 3c	 mov	 DWORD PTR vret$21070[rsp], eax
  00285	83 7c 24 3c 00	 cmp	 DWORD PTR vret$21070[rsp], 0
  0028a	74 06		 je	 SHORT $LN1@scanner_tr
  0028c	8b 44 24 3c	 mov	 eax, DWORD PTR vret$21070[rsp]
  00290	eb 08		 jmp	 SHORT $LN37@scanner_tr
$LN1@scanner_tr:
$LN2@scanner_tr:
  00292	33 c0		 xor	 eax, eax
  00294	85 c0		 test	 eax, eax
  00296	75 a0		 jne	 SHORT $LN6@scanner_tr

; 577  :     return 0;

  00298	33 c0		 xor	 eax, eax
$LN37@scanner_tr:

; 578  : }

  0029a	48 83 c4 48	 add	 rsp, 72			; 00000048H
  0029e	c3		 ret	 0
scanner_traverse ENDP
_TEXT	ENDS
PUBLIC	??_C@_0O@NCFCJOBO@scanner_clear?$AA@		; `string'
;	COMDAT pdata
pdata	SEGMENT
$pdata$scanner_clear DD imagerel scanner_clear
	DD	imagerel scanner_clear+849
	DD	imagerel $unwind$scanner_clear
pdata	ENDS
;	COMDAT xdata
xdata	SEGMENT
$unwind$scanner_clear DD 010901H
	DD	0e209H
xdata	ENDS
;	COMDAT ??_C@_0O@NCFCJOBO@scanner_clear?$AA@
CONST	SEGMENT
??_C@_0O@NCFCJOBO@scanner_clear?$AA@ DB 'scanner_clear', 00H ; `string'
; Function compile flags: /Odtp
CONST	ENDS
;	COMDAT scanner_clear
_TEXT	SEGMENT
s$ = 48
_py_tmp$21086 = 56
_py_tmp$21094 = 64
_py_tmp$21102 = 72
_py_tmp$21110 = 80
_py_tmp$21118 = 88
_py_tmp$21126 = 96
_py_tmp$21134 = 104
self$ = 128
scanner_clear PROC					; COMDAT

; 582  : {

  00000	48 89 4c 24 08	 mov	 QWORD PTR [rsp+8], rcx
  00005	48 83 ec 78	 sub	 rsp, 120		; 00000078H

; 583  :     PyScannerObject *s;
; 584  :     assert(PyScanner_Check(self));

  00009	48 8d 05 00 00
	00 00		 lea	 rax, OFFSET FLAT:PyScannerType
  00010	48 8b 8c 24 80
	00 00 00	 mov	 rcx, QWORD PTR self$[rsp]
  00018	48 39 41 58	 cmp	 QWORD PTR [rcx+88], rax
  0001c	74 38		 je	 SHORT $LN31@scanner_cl
  0001e	48 8d 15 00 00
	00 00		 lea	 rdx, OFFSET FLAT:PyScannerType
  00025	48 8b 84 24 80
	00 00 00	 mov	 rax, QWORD PTR self$[rsp]
  0002d	48 8b 48 58	 mov	 rcx, QWORD PTR [rax+88]
  00031	e8 00 00 00 00	 call	 PyType_IsSubtype
  00036	85 c0		 test	 eax, eax
  00038	75 1c		 jne	 SHORT $LN31@scanner_cl
  0003a	41 b8 48 02 00
	00		 mov	 r8d, 584		; 00000248H
  00040	48 8d 15 00 00
	00 00		 lea	 rdx, OFFSET FLAT:??_C@_1CG@KOELJAMM@?$AA?4?$AA?4?$AA?2?$AAM?$AAo?$AAd?$AAu?$AAl?$AAe?$AAs?$AA?2?$AA_?$AAj?$AAs?$AAo?$AAn?$AA?4?$AAc?$AA?$AA@
  00047	48 8d 0d 00 00
	00 00		 lea	 rcx, OFFSET FLAT:??_C@_1CM@NDGIKJDC@?$AAP?$AAy?$AAS?$AAc?$AAa?$AAn?$AAn?$AAe?$AAr?$AA_?$AAC?$AAh?$AAe?$AAc?$AAk?$AA?$CI?$AAs?$AAe?$AAl?$AAf?$AA?$CJ?$AA?$AA@
  0004e	ff 15 00 00 00
	00		 call	 QWORD PTR __imp__wassert
  00054	33 c0		 xor	 eax, eax
$LN31@scanner_cl:

; 585  :     s = (PyScannerObject *)self;

  00056	48 8b 84 24 80
	00 00 00	 mov	 rax, QWORD PTR self$[rsp]
  0005e	48 89 44 24 30	 mov	 QWORD PTR s$[rsp], rax
$LN28@scanner_cl:

; 586  :     Py_CLEAR(s->strict);

  00063	48 8b 44 24 30	 mov	 rax, QWORD PTR s$[rsp]
  00068	48 83 78 60 00	 cmp	 QWORD PTR [rax+96], 0
  0006d	74 53		 je	 SHORT $LN25@scanner_cl
  0006f	c7 44 24 20 10
	00 00 00	 mov	 DWORD PTR [rsp+32], 16
  00077	48 8b 44 24 30	 mov	 rax, QWORD PTR s$[rsp]
  0007c	4c 8b 48 60	 mov	 r9, QWORD PTR [rax+96]
  00080	41 b8 4a 02 00
	00		 mov	 r8d, 586		; 0000024aH
  00086	48 8d 15 00 00
	00 00		 lea	 rdx, OFFSET FLAT:??_C@_0BD@BIGPLMIN@?4?4?2Modules?2_json?4c?$AA@
  0008d	48 8d 0d 00 00
	00 00		 lea	 rcx, OFFSET FLAT:??_C@_0O@NCFCJOBO@scanner_clear?$AA@
  00094	e8 00 00 00 00	 call	 _PyParallel_Guard
  00099	85 c0		 test	 eax, eax
  0009b	75 25		 jne	 SHORT $LN25@scanner_cl
  0009d	48 8b 44 24 30	 mov	 rax, QWORD PTR s$[rsp]
  000a2	48 8b 40 60	 mov	 rax, QWORD PTR [rax+96]
  000a6	48 89 44 24 38	 mov	 QWORD PTR _py_tmp$21086[rsp], rax
  000ab	48 8b 44 24 30	 mov	 rax, QWORD PTR s$[rsp]
  000b0	48 c7 40 60 00
	00 00 00	 mov	 QWORD PTR [rax+96], 0
  000b8	48 8b 4c 24 38	 mov	 rcx, QWORD PTR _py_tmp$21086[rsp]
  000bd	e8 00 00 00 00	 call	 _Py_DecRef
$LN25@scanner_cl:
  000c2	33 c0		 xor	 eax, eax
  000c4	85 c0		 test	 eax, eax
  000c6	75 9b		 jne	 SHORT $LN28@scanner_cl
$LN24@scanner_cl:

; 587  :     Py_CLEAR(s->object_hook);

  000c8	48 8b 44 24 30	 mov	 rax, QWORD PTR s$[rsp]
  000cd	48 83 78 68 00	 cmp	 QWORD PTR [rax+104], 0
  000d2	74 53		 je	 SHORT $LN21@scanner_cl
  000d4	c7 44 24 20 10
	00 00 00	 mov	 DWORD PTR [rsp+32], 16
  000dc	48 8b 44 24 30	 mov	 rax, QWORD PTR s$[rsp]
  000e1	4c 8b 48 68	 mov	 r9, QWORD PTR [rax+104]
  000e5	41 b8 4b 02 00
	00		 mov	 r8d, 587		; 0000024bH
  000eb	48 8d 15 00 00
	00 00		 lea	 rdx, OFFSET FLAT:??_C@_0BD@BIGPLMIN@?4?4?2Modules?2_json?4c?$AA@
  000f2	48 8d 0d 00 00
	00 00		 lea	 rcx, OFFSET FLAT:??_C@_0O@NCFCJOBO@scanner_clear?$AA@
  000f9	e8 00 00 00 00	 call	 _PyParallel_Guard
  000fe	85 c0		 test	 eax, eax
  00100	75 25		 jne	 SHORT $LN21@scanner_cl
  00102	48 8b 44 24 30	 mov	 rax, QWORD PTR s$[rsp]
  00107	48 8b 40 68	 mov	 rax, QWORD PTR [rax+104]
  0010b	48 89 44 24 40	 mov	 QWORD PTR _py_tmp$21094[rsp], rax
  00110	48 8b 44 24 30	 mov	 rax, QWORD PTR s$[rsp]
  00115	48 c7 40 68 00
	00 00 00	 mov	 QWORD PTR [rax+104], 0
  0011d	48 8b 4c 24 40	 mov	 rcx, QWORD PTR _py_tmp$21094[rsp]
  00122	e8 00 00 00 00	 call	 _Py_DecRef
$LN21@scanner_cl:
  00127	33 c0		 xor	 eax, eax
  00129	85 c0		 test	 eax, eax
  0012b	75 9b		 jne	 SHORT $LN24@scanner_cl
$LN20@scanner_cl:

; 588  :     Py_CLEAR(s->object_pairs_hook);

  0012d	48 8b 44 24 30	 mov	 rax, QWORD PTR s$[rsp]
  00132	48 83 78 70 00	 cmp	 QWORD PTR [rax+112], 0
  00137	74 53		 je	 SHORT $LN17@scanner_cl
  00139	c7 44 24 20 10
	00 00 00	 mov	 DWORD PTR [rsp+32], 16
  00141	48 8b 44 24 30	 mov	 rax, QWORD PTR s$[rsp]
  00146	4c 8b 48 70	 mov	 r9, QWORD PTR [rax+112]
  0014a	41 b8 4c 02 00
	00		 mov	 r8d, 588		; 0000024cH
  00150	48 8d 15 00 00
	00 00		 lea	 rdx, OFFSET FLAT:??_C@_0BD@BIGPLMIN@?4?4?2Modules?2_json?4c?$AA@
  00157	48 8d 0d 00 00
	00 00		 lea	 rcx, OFFSET FLAT:??_C@_0O@NCFCJOBO@scanner_clear?$AA@
  0015e	e8 00 00 00 00	 call	 _PyParallel_Guard
  00163	85 c0		 test	 eax, eax
  00165	75 25		 jne	 SHORT $LN17@scanner_cl
  00167	48 8b 44 24 30	 mov	 rax, QWORD PTR s$[rsp]
  0016c	48 8b 40 70	 mov	 rax, QWORD PTR [rax+112]
  00170	48 89 44 24 48	 mov	 QWORD PTR _py_tmp$21102[rsp], rax
  00175	48 8b 44 24 30	 mov	 rax, QWORD PTR s$[rsp]
  0017a	48 c7 40 70 00
	00 00 00	 mov	 QWORD PTR [rax+112], 0
  00182	48 8b 4c 24 48	 mov	 rcx, QWORD PTR _py_tmp$21102[rsp]
  00187	e8 00 00 00 00	 call	 _Py_DecRef
$LN17@scanner_cl:
  0018c	33 c0		 xor	 eax, eax
  0018e	85 c0		 test	 eax, eax
  00190	75 9b		 jne	 SHORT $LN20@scanner_cl
$LN16@scanner_cl:

; 589  :     Py_CLEAR(s->parse_float);

  00192	48 8b 44 24 30	 mov	 rax, QWORD PTR s$[rsp]
  00197	48 83 78 78 00	 cmp	 QWORD PTR [rax+120], 0
  0019c	74 53		 je	 SHORT $LN13@scanner_cl
  0019e	c7 44 24 20 10
	00 00 00	 mov	 DWORD PTR [rsp+32], 16
  001a6	48 8b 44 24 30	 mov	 rax, QWORD PTR s$[rsp]
  001ab	4c 8b 48 78	 mov	 r9, QWORD PTR [rax+120]
  001af	41 b8 4d 02 00
	00		 mov	 r8d, 589		; 0000024dH
  001b5	48 8d 15 00 00
	00 00		 lea	 rdx, OFFSET FLAT:??_C@_0BD@BIGPLMIN@?4?4?2Modules?2_json?4c?$AA@
  001bc	48 8d 0d 00 00
	00 00		 lea	 rcx, OFFSET FLAT:??_C@_0O@NCFCJOBO@scanner_clear?$AA@
  001c3	e8 00 00 00 00	 call	 _PyParallel_Guard
  001c8	85 c0		 test	 eax, eax
  001ca	75 25		 jne	 SHORT $LN13@scanner_cl
  001cc	48 8b 44 24 30	 mov	 rax, QWORD PTR s$[rsp]
  001d1	48 8b 40 78	 mov	 rax, QWORD PTR [rax+120]
  001d5	48 89 44 24 50	 mov	 QWORD PTR _py_tmp$21110[rsp], rax
  001da	48 8b 44 24 30	 mov	 rax, QWORD PTR s$[rsp]
  001df	48 c7 40 78 00
	00 00 00	 mov	 QWORD PTR [rax+120], 0
  001e7	48 8b 4c 24 50	 mov	 rcx, QWORD PTR _py_tmp$21110[rsp]
  001ec	e8 00 00 00 00	 call	 _Py_DecRef
$LN13@scanner_cl:
  001f1	33 c0		 xor	 eax, eax
  001f3	85 c0		 test	 eax, eax
  001f5	75 9b		 jne	 SHORT $LN16@scanner_cl
$LN12@scanner_cl:

; 590  :     Py_CLEAR(s->parse_int);

  001f7	48 8b 44 24 30	 mov	 rax, QWORD PTR s$[rsp]
  001fc	48 83 b8 80 00
	00 00 00	 cmp	 QWORD PTR [rax+128], 0
  00204	74 5c		 je	 SHORT $LN9@scanner_cl
  00206	c7 44 24 20 10
	00 00 00	 mov	 DWORD PTR [rsp+32], 16
  0020e	48 8b 44 24 30	 mov	 rax, QWORD PTR s$[rsp]
  00213	4c 8b 88 80 00
	00 00		 mov	 r9, QWORD PTR [rax+128]
  0021a	41 b8 4e 02 00
	00		 mov	 r8d, 590		; 0000024eH
  00220	48 8d 15 00 00
	00 00		 lea	 rdx, OFFSET FLAT:??_C@_0BD@BIGPLMIN@?4?4?2Modules?2_json?4c?$AA@
  00227	48 8d 0d 00 00
	00 00		 lea	 rcx, OFFSET FLAT:??_C@_0O@NCFCJOBO@scanner_clear?$AA@
  0022e	e8 00 00 00 00	 call	 _PyParallel_Guard
  00233	85 c0		 test	 eax, eax
  00235	75 2b		 jne	 SHORT $LN9@scanner_cl
  00237	48 8b 44 24 30	 mov	 rax, QWORD PTR s$[rsp]
  0023c	48 8b 80 80 00
	00 00		 mov	 rax, QWORD PTR [rax+128]
  00243	48 89 44 24 58	 mov	 QWORD PTR _py_tmp$21118[rsp], rax
  00248	48 8b 44 24 30	 mov	 rax, QWORD PTR s$[rsp]
  0024d	48 c7 80 80 00
	00 00 00 00 00
	00		 mov	 QWORD PTR [rax+128], 0
  00258	48 8b 4c 24 58	 mov	 rcx, QWORD PTR _py_tmp$21118[rsp]
  0025d	e8 00 00 00 00	 call	 _Py_DecRef
$LN9@scanner_cl:
  00262	33 c0		 xor	 eax, eax
  00264	85 c0		 test	 eax, eax
  00266	75 8f		 jne	 SHORT $LN12@scanner_cl
$LN8@scanner_cl:

; 591  :     Py_CLEAR(s->parse_constant);

  00268	48 8b 44 24 30	 mov	 rax, QWORD PTR s$[rsp]
  0026d	48 83 b8 88 00
	00 00 00	 cmp	 QWORD PTR [rax+136], 0
  00275	74 5c		 je	 SHORT $LN5@scanner_cl
  00277	c7 44 24 20 10
	00 00 00	 mov	 DWORD PTR [rsp+32], 16
  0027f	48 8b 44 24 30	 mov	 rax, QWORD PTR s$[rsp]
  00284	4c 8b 88 88 00
	00 00		 mov	 r9, QWORD PTR [rax+136]
  0028b	41 b8 4f 02 00
	00		 mov	 r8d, 591		; 0000024fH
  00291	48 8d 15 00 00
	00 00		 lea	 rdx, OFFSET FLAT:??_C@_0BD@BIGPLMIN@?4?4?2Modules?2_json?4c?$AA@
  00298	48 8d 0d 00 00
	00 00		 lea	 rcx, OFFSET FLAT:??_C@_0O@NCFCJOBO@scanner_clear?$AA@
  0029f	e8 00 00 00 00	 call	 _PyParallel_Guard
  002a4	85 c0		 test	 eax, eax
  002a6	75 2b		 jne	 SHORT $LN5@scanner_cl
  002a8	48 8b 44 24 30	 mov	 rax, QWORD PTR s$[rsp]
  002ad	48 8b 80 88 00
	00 00		 mov	 rax, QWORD PTR [rax+136]
  002b4	48 89 44 24 60	 mov	 QWORD PTR _py_tmp$21126[rsp], rax
  002b9	48 8b 44 24 30	 mov	 rax, QWORD PTR s$[rsp]
  002be	48 c7 80 88 00
	00 00 00 00 00
	00		 mov	 QWORD PTR [rax+136], 0
  002c9	48 8b 4c 24 60	 mov	 rcx, QWORD PTR _py_tmp$21126[rsp]
  002ce	e8 00 00 00 00	 call	 _Py_DecRef
$LN5@scanner_cl:
  002d3	33 c0		 xor	 eax, eax
  002d5	85 c0		 test	 eax, eax
  002d7	75 8f		 jne	 SHORT $LN8@scanner_cl
$LN4@scanner_cl:

; 592  :     Py_CLEAR(s->memo);

  002d9	48 8b 44 24 30	 mov	 rax, QWORD PTR s$[rsp]
  002de	48 83 b8 90 00
	00 00 00	 cmp	 QWORD PTR [rax+144], 0
  002e6	74 5c		 je	 SHORT $LN1@scanner_cl
  002e8	c7 44 24 20 10
	00 00 00	 mov	 DWORD PTR [rsp+32], 16
  002f0	48 8b 44 24 30	 mov	 rax, QWORD PTR s$[rsp]
  002f5	4c 8b 88 90 00
	00 00		 mov	 r9, QWORD PTR [rax+144]
  002fc	41 b8 50 02 00
	00		 mov	 r8d, 592		; 00000250H
  00302	48 8d 15 00 00
	00 00		 lea	 rdx, OFFSET FLAT:??_C@_0BD@BIGPLMIN@?4?4?2Modules?2_json?4c?$AA@
  00309	48 8d 0d 00 00
	00 00		 lea	 rcx, OFFSET FLAT:??_C@_0O@NCFCJOBO@scanner_clear?$AA@
  00310	e8 00 00 00 00	 call	 _PyParallel_Guard
  00315	85 c0		 test	 eax, eax
  00317	75 2b		 jne	 SHORT $LN1@scanner_cl
  00319	48 8b 44 24 30	 mov	 rax, QWORD PTR s$[rsp]
  0031e	48 8b 80 90 00
	00 00		 mov	 rax, QWORD PTR [rax+144]
  00325	48 89 44 24 68	 mov	 QWORD PTR _py_tmp$21134[rsp], rax
  0032a	48 8b 44 24 30	 mov	 rax, QWORD PTR s$[rsp]
  0032f	48 c7 80 90 00
	00 00 00 00 00
	00		 mov	 QWORD PTR [rax+144], 0
  0033a	48 8b 4c 24 68	 mov	 rcx, QWORD PTR _py_tmp$21134[rsp]
  0033f	e8 00 00 00 00	 call	 _Py_DecRef
$LN1@scanner_cl:
  00344	33 c0		 xor	 eax, eax
  00346	85 c0		 test	 eax, eax
  00348	75 8f		 jne	 SHORT $LN4@scanner_cl

; 593  :     return 0;

  0034a	33 c0		 xor	 eax, eax

; 594  : }

  0034c	48 83 c4 78	 add	 rsp, 120		; 00000078H
  00350	c3		 ret	 0
scanner_clear ENDP
_TEXT	ENDS
PUBLIC	??_C@_0O@EOFNMIFD@OO?$CG?3scan_once?$AA@	; `string'
EXTRN	PyDict_Clear:PROC
EXTRN	PyArg_ParseTupleAndKeywords:PROC
;	COMDAT pdata
pdata	SEGMENT
$pdata$scanner_call DD imagerel scanner_call
	DD	imagerel scanner_call+337
	DD	imagerel $unwind$scanner_call
pdata	ENDS
;	COMDAT xdata
xdata	SEGMENT
$unwind$scanner_call DD 011301H
	DD	0e213H
xdata	ENDS
;	COMDAT ??_C@_0O@EOFNMIFD@OO?$CG?3scan_once?$AA@
CONST	SEGMENT
??_C@_0O@EOFNMIFD@OO?$CG?3scan_once?$AA@ DB 'OO&:scan_once', 00H ; `string'
; Function compile flags: /Odtp
CONST	ENDS
;	COMDAT scanner_call
_TEXT	SEGMENT
rval$ = 64
s$ = 72
idx$ = 80
pystr$ = 88
next_idx$ = 96
self$ = 128
args$ = 136
kwds$ = 144
scanner_call PROC					; COMDAT

; 1071 : {

  00000	4c 89 44 24 18	 mov	 QWORD PTR [rsp+24], r8
  00005	48 89 54 24 10	 mov	 QWORD PTR [rsp+16], rdx
  0000a	48 89 4c 24 08	 mov	 QWORD PTR [rsp+8], rcx
  0000f	48 83 ec 78	 sub	 rsp, 120		; 00000078H

; 1072 :     /* Python callable interface to scan_once_{str,unicode} */
; 1073 :     PyObject *pystr;
; 1074 :     PyObject *rval;
; 1075 :     Py_ssize_t idx;
; 1076 :     Py_ssize_t next_idx = -1;

  00013	48 c7 44 24 60
	ff ff ff ff	 mov	 QWORD PTR next_idx$[rsp], -1

; 1077 :     static char *kwlist[] = {"string", "idx", NULL};
; 1078 :     PyScannerObject *s;
; 1079 :     assert(PyScanner_Check(self));

  0001c	48 8d 05 00 00
	00 00		 lea	 rax, OFFSET FLAT:PyScannerType
  00023	48 8b 8c 24 80
	00 00 00	 mov	 rcx, QWORD PTR self$[rsp]
  0002b	48 39 41 58	 cmp	 QWORD PTR [rcx+88], rax
  0002f	74 38		 je	 SHORT $LN7@scanner_ca
  00031	48 8d 15 00 00
	00 00		 lea	 rdx, OFFSET FLAT:PyScannerType
  00038	48 8b 84 24 80
	00 00 00	 mov	 rax, QWORD PTR self$[rsp]
  00040	48 8b 48 58	 mov	 rcx, QWORD PTR [rax+88]
  00044	e8 00 00 00 00	 call	 PyType_IsSubtype
  00049	85 c0		 test	 eax, eax
  0004b	75 1c		 jne	 SHORT $LN7@scanner_ca
  0004d	41 b8 37 04 00
	00		 mov	 r8d, 1079		; 00000437H
  00053	48 8d 15 00 00
	00 00		 lea	 rdx, OFFSET FLAT:??_C@_1CG@KOELJAMM@?$AA?4?$AA?4?$AA?2?$AAM?$AAo?$AAd?$AAu?$AAl?$AAe?$AAs?$AA?2?$AA_?$AAj?$AAs?$AAo?$AAn?$AA?4?$AAc?$AA?$AA@
  0005a	48 8d 0d 00 00
	00 00		 lea	 rcx, OFFSET FLAT:??_C@_1CM@NDGIKJDC@?$AAP?$AAy?$AAS?$AAc?$AAa?$AAn?$AAn?$AAe?$AAr?$AA_?$AAC?$AAh?$AAe?$AAc?$AAk?$AA?$CI?$AAs?$AAe?$AAl?$AAf?$AA?$CJ?$AA?$AA@
  00061	ff 15 00 00 00
	00		 call	 QWORD PTR __imp__wassert
  00067	33 c0		 xor	 eax, eax
$LN7@scanner_ca:

; 1080 :     s = (PyScannerObject *)self;

  00069	48 8b 84 24 80
	00 00 00	 mov	 rax, QWORD PTR self$[rsp]
  00071	48 89 44 24 48	 mov	 QWORD PTR s$[rsp], rax

; 1081 :     if (!PyArg_ParseTupleAndKeywords(args, kwds, "OO&:scan_once", kwlist, &pystr, _convertPyInt_AsSsize_t, &idx))

  00076	48 8d 44 24 50	 lea	 rax, QWORD PTR idx$[rsp]
  0007b	48 89 44 24 30	 mov	 QWORD PTR [rsp+48], rax
  00080	48 8d 05 00 00
	00 00		 lea	 rax, OFFSET FLAT:_convertPyInt_AsSsize_t
  00087	48 89 44 24 28	 mov	 QWORD PTR [rsp+40], rax
  0008c	48 8d 44 24 58	 lea	 rax, QWORD PTR pystr$[rsp]
  00091	48 89 44 24 20	 mov	 QWORD PTR [rsp+32], rax
  00096	4c 8d 0d 00 00
	00 00		 lea	 r9, OFFSET FLAT:?kwlist@?1??scanner_call@@9@9
  0009d	4c 8d 05 00 00
	00 00		 lea	 r8, OFFSET FLAT:??_C@_0O@EOFNMIFD@OO?$CG?3scan_once?$AA@
  000a4	48 8b 94 24 90
	00 00 00	 mov	 rdx, QWORD PTR kwds$[rsp]
  000ac	48 8b 8c 24 88
	00 00 00	 mov	 rcx, QWORD PTR args$[rsp]
  000b4	e8 00 00 00 00	 call	 PyArg_ParseTupleAndKeywords
  000b9	85 c0		 test	 eax, eax
  000bb	75 07		 jne	 SHORT $LN4@scanner_ca

; 1082 :         return NULL;

  000bd	33 c0		 xor	 eax, eax
  000bf	e9 88 00 00 00	 jmp	 $LN5@scanner_ca
$LN4@scanner_ca:

; 1083 : 
; 1084 :     if (PyUnicode_Check(pystr)) {

  000c4	48 8b 44 24 58	 mov	 rax, QWORD PTR pystr$[rsp]
  000c9	48 8b 40 58	 mov	 rax, QWORD PTR [rax+88]
  000cd	8b 80 00 01 00
	00		 mov	 eax, DWORD PTR [rax+256]
  000d3	25 00 00 00 10	 and	 eax, 268435456		; 10000000H
  000d8	85 c0		 test	 eax, eax
  000da	74 20		 je	 SHORT $LN3@scanner_ca

; 1085 :         rval = scan_once_unicode(s, pystr, idx, &next_idx);

  000dc	4c 8d 4c 24 60	 lea	 r9, QWORD PTR next_idx$[rsp]
  000e1	4c 8b 44 24 50	 mov	 r8, QWORD PTR idx$[rsp]
  000e6	48 8b 54 24 58	 mov	 rdx, QWORD PTR pystr$[rsp]
  000eb	48 8b 4c 24 48	 mov	 rcx, QWORD PTR s$[rsp]
  000f0	e8 00 00 00 00	 call	 scan_once_unicode
  000f5	48 89 44 24 40	 mov	 QWORD PTR rval$[rsp], rax

; 1086 :     }
; 1087 :     else {

  000fa	eb 24		 jmp	 SHORT $LN2@scanner_ca
$LN3@scanner_ca:

; 1088 :         PyErr_Format(PyExc_TypeError,
; 1089 :                  "first argument must be a string, not %.80s",
; 1090 :                  Py_TYPE(pystr)->tp_name);

  000fc	48 8b 44 24 58	 mov	 rax, QWORD PTR pystr$[rsp]
  00101	48 8b 40 58	 mov	 rax, QWORD PTR [rax+88]
  00105	4c 8b 40 70	 mov	 r8, QWORD PTR [rax+112]
  00109	48 8d 15 00 00
	00 00		 lea	 rdx, OFFSET FLAT:??_C@_0CL@OIEJEOOL@first?5argument?5must?5be?5a?5string?0@
  00110	48 8b 0d 00 00
	00 00		 mov	 rcx, QWORD PTR PyExc_TypeError
  00117	e8 00 00 00 00	 call	 PyErr_Format

; 1091 :         return NULL;

  0011c	33 c0		 xor	 eax, eax
  0011e	eb 2c		 jmp	 SHORT $LN5@scanner_ca
$LN2@scanner_ca:

; 1092 :     }
; 1093 :     PyDict_Clear(s->memo);

  00120	48 8b 44 24 48	 mov	 rax, QWORD PTR s$[rsp]
  00125	48 8b 88 90 00
	00 00		 mov	 rcx, QWORD PTR [rax+144]
  0012c	e8 00 00 00 00	 call	 PyDict_Clear

; 1094 :     if (rval == NULL)

  00131	48 83 7c 24 40
	00		 cmp	 QWORD PTR rval$[rsp], 0
  00137	75 04		 jne	 SHORT $LN1@scanner_ca

; 1095 :         return NULL;

  00139	33 c0		 xor	 eax, eax
  0013b	eb 0f		 jmp	 SHORT $LN5@scanner_ca
$LN1@scanner_ca:

; 1096 :     return _build_rval_index_tuple(rval, next_idx);

  0013d	48 8b 54 24 60	 mov	 rdx, QWORD PTR next_idx$[rsp]
  00142	48 8b 4c 24 40	 mov	 rcx, QWORD PTR rval$[rsp]
  00147	e8 00 00 00 00	 call	 _build_rval_index_tuple
$LN5@scanner_ca:

; 1097 : }

  0014c	48 83 c4 78	 add	 rsp, 120		; 00000078H
  00150	c3		 ret	 0
scanner_call ENDP
_TEXT	ENDS
PUBLIC	??_C@_09BLDCEMOH@?9Infinity?$AA@		; `string'
PUBLIC	??_C@_08KEBCLIFP@Infinity?$AA@			; `string'
PUBLIC	??_C@_03ICJPMMHB@NaN?$AA@			; `string'
PUBLIC	_Py_IncRef
PUBLIC	??_C@_0DD@KJGHDLGJ@?5while?5decoding?5a?5JSON?5array?5fro@ ; `string'
PUBLIC	??_C@_0DE@POAICCIC@?5while?5decoding?5a?5JSON?5object?5fr@ ; `string'
EXTRN	_Py_FalseStruct:BYTE
EXTRN	_Py_TrueStruct:BYTE
EXTRN	_Py_NoneStruct:BYTE
EXTRN	_Py_CheckRecursiveCall:PROC
EXTRN	_Py_CheckRecursionLimit:DWORD
EXTRN	PyThreadState_Get:PROC
EXTRN	PyObject_IsTrue:PROC
EXTRN	PyErr_SetNone:PROC
EXTRN	PyExc_StopIteration:QWORD
;	COMDAT pdata
pdata	SEGMENT
$pdata$scan_once_unicode DD imagerel scan_once_unicode
	DD	imagerel scan_once_unicode+5402
	DD	imagerel $unwind$scan_once_unicode
pdata	ENDS
;	COMDAT xdata
xdata	SEGMENT
$unwind$scan_once_unicode DD 021b01H
	DD	02f011bH
xdata	ENDS
;	COMDAT ??_C@_09BLDCEMOH@?9Infinity?$AA@
CONST	SEGMENT
??_C@_09BLDCEMOH@?9Infinity?$AA@ DB '-Infinity', 00H	; `string'
CONST	ENDS
;	COMDAT ??_C@_08KEBCLIFP@Infinity?$AA@
CONST	SEGMENT
??_C@_08KEBCLIFP@Infinity?$AA@ DB 'Infinity', 00H	; `string'
CONST	ENDS
;	COMDAT ??_C@_03ICJPMMHB@NaN?$AA@
CONST	SEGMENT
??_C@_03ICJPMMHB@NaN?$AA@ DB 'NaN', 00H			; `string'
CONST	ENDS
;	COMDAT ??_C@_0DD@KJGHDLGJ@?5while?5decoding?5a?5JSON?5array?5fro@
CONST	SEGMENT
??_C@_0DD@KJGHDLGJ@?5while?5decoding?5a?5JSON?5array?5fro@ DB ' while dec'
	DB	'oding a JSON array from a unicode string', 00H ; `string'
CONST	ENDS
;	COMDAT ??_C@_0DE@POAICCIC@?5while?5decoding?5a?5JSON?5object?5fr@
CONST	SEGMENT
??_C@_0DE@POAICCIC@?5while?5decoding?5a?5JSON?5object?5fr@ DB ' while dec'
	DB	'oding a JSON object from a unicode string', 00H ; `string'
; Function compile flags: /Odtp
CONST	ENDS
;	COMDAT scan_once_unicode
_TEXT	SEGMENT
kind$ = 32
res$ = 40
length$ = 48
str$ = 56
tv78 = 64
tv145 = 72
tv154 = 80
tv203 = 88
tv202 = 92
tv204 = 96
tv216 = 104
tv236 = 112
tv230 = 120
tv243 = 128
tv263 = 136
tv257 = 144
tv283 = 152
tv282 = 156
tv298 = 160
tv297 = 164
tv313 = 168
tv312 = 172
tv332 = 176
tv331 = 180
tv347 = 184
tv346 = 188
tv362 = 192
tv361 = 196
tv381 = 200
tv380 = 204
tv396 = 208
tv395 = 212
tv411 = 216
tv410 = 220
tv426 = 224
tv425 = 228
tv445 = 232
tv444 = 236
tv460 = 240
tv459 = 244
tv482 = 248
tv481 = 252
tv497 = 256
tv496 = 260
tv512 = 264
tv511 = 268
tv527 = 272
tv526 = 276
tv542 = 280
tv541 = 284
tv557 = 288
tv556 = 292
tv572 = 296
tv571 = 300
tv594 = 304
tv593 = 308
tv609 = 312
tv608 = 316
tv624 = 320
tv623 = 324
tv639 = 328
tv638 = 332
tv654 = 336
tv653 = 340
tv669 = 344
tv668 = 348
tv684 = 352
tv683 = 356
tv699 = 360
tv698 = 364
s$ = 384
pystr$ = 392
idx$ = 400
next_idx_ptr$ = 408
scan_once_unicode PROC					; COMDAT

; 958  : {

  00000	4c 89 4c 24 20	 mov	 QWORD PTR [rsp+32], r9
  00005	4c 89 44 24 18	 mov	 QWORD PTR [rsp+24], r8
  0000a	48 89 54 24 10	 mov	 QWORD PTR [rsp+16], rdx
  0000f	48 89 4c 24 08	 mov	 QWORD PTR [rsp+8], rcx
  00014	48 81 ec 78 01
	00 00		 sub	 rsp, 376		; 00000178H

; 959  :     /* Read one JSON term (of any kind) from PyUnicode pystr.
; 960  :     idx is the index of the first character of the term
; 961  :     *next_idx_ptr is a return-by-reference index to the first character after
; 962  :         the number.
; 963  : 
; 964  :     Returns a new PyObject representation of the term.
; 965  :     */
; 966  :     PyObject *res;
; 967  :     void *str;
; 968  :     int kind;
; 969  :     Py_ssize_t length;
; 970  : 
; 971  :     if (PyUnicode_READY(pystr) == -1)

  0001b	48 8b 84 24 88
	01 00 00	 mov	 rax, QWORD PTR pystr$[rsp]
  00023	48 8b 40 58	 mov	 rax, QWORD PTR [rax+88]
  00027	8b 80 00 01 00
	00		 mov	 eax, DWORD PTR [rax+256]
  0002d	25 00 00 00 10	 and	 eax, 268435456		; 10000000H
  00032	85 c0		 test	 eax, eax
  00034	75 1c		 jne	 SHORT $LN32@scan_once_
  00036	41 b8 cb 03 00
	00		 mov	 r8d, 971		; 000003cbH
  0003c	48 8d 15 00 00
	00 00		 lea	 rdx, OFFSET FLAT:??_C@_1CG@KOELJAMM@?$AA?4?$AA?4?$AA?2?$AAM?$AAo?$AAd?$AAu?$AAl?$AAe?$AAs?$AA?2?$AA_?$AAj?$AAs?$AAo?$AAn?$AA?4?$AAc?$AA?$AA@
  00043	48 8d 0d 00 00
	00 00		 lea	 rcx, OFFSET FLAT:??_C@_1CO@GLPHKNNN@?$AAP?$AAy?$AAU?$AAn?$AAi?$AAc?$AAo?$AAd?$AAe?$AA_?$AAC?$AAh?$AAe?$AAc?$AAk?$AA?$CI?$AAp?$AAy?$AAs?$AAt?$AAr?$AA?$CJ?$AA?$AA@
  0004a	ff 15 00 00 00
	00		 call	 QWORD PTR __imp__wassert
  00050	33 c0		 xor	 eax, eax
$LN32@scan_once_:
  00052	48 8b 84 24 88
	01 00 00	 mov	 rax, QWORD PTR pystr$[rsp]
  0005a	8b 40 70	 mov	 eax, DWORD PTR [rax+112]
  0005d	c1 e8 07	 shr	 eax, 7
  00060	83 e0 01	 and	 eax, 1
  00063	85 c0		 test	 eax, eax
  00065	74 0a		 je	 SHORT $LN33@scan_once_
  00067	c7 44 24 40 00
	00 00 00	 mov	 DWORD PTR tv78[rsp], 0
  0006f	eb 11		 jmp	 SHORT $LN34@scan_once_
$LN33@scan_once_:
  00071	48 8b 8c 24 88
	01 00 00	 mov	 rcx, QWORD PTR pystr$[rsp]
  00079	e8 00 00 00 00	 call	 _PyUnicode_Ready
  0007e	89 44 24 40	 mov	 DWORD PTR tv78[rsp], eax
$LN34@scan_once_:
  00082	83 7c 24 40 ff	 cmp	 DWORD PTR tv78[rsp], -1
  00087	75 07		 jne	 SHORT $LN29@scan_once_

; 972  :         return NULL;

  00089	33 c0		 xor	 eax, eax
  0008b	e9 00 14 00 00	 jmp	 $LN30@scan_once_
$LN29@scan_once_:

; 973  : 
; 974  :     str = PyUnicode_DATA(pystr);

  00090	48 8b 84 24 88
	01 00 00	 mov	 rax, QWORD PTR pystr$[rsp]
  00098	48 8b 40 58	 mov	 rax, QWORD PTR [rax+88]
  0009c	8b 80 00 01 00
	00		 mov	 eax, DWORD PTR [rax+256]
  000a2	25 00 00 00 10	 and	 eax, 268435456		; 10000000H
  000a7	85 c0		 test	 eax, eax
  000a9	75 1c		 jne	 SHORT $LN35@scan_once_
  000ab	41 b8 ce 03 00
	00		 mov	 r8d, 974		; 000003ceH
  000b1	48 8d 15 00 00
	00 00		 lea	 rdx, OFFSET FLAT:??_C@_1CG@KOELJAMM@?$AA?4?$AA?4?$AA?2?$AAM?$AAo?$AAd?$AAu?$AAl?$AAe?$AAs?$AA?2?$AA_?$AAj?$AAs?$AAo?$AAn?$AA?4?$AAc?$AA?$AA@
  000b8	48 8d 0d 00 00
	00 00		 lea	 rcx, OFFSET FLAT:??_C@_1CO@GLPHKNNN@?$AAP?$AAy?$AAU?$AAn?$AAi?$AAc?$AAo?$AAd?$AAe?$AA_?$AAC?$AAh?$AAe?$AAc?$AAk?$AA?$CI?$AAp?$AAy?$AAs?$AAt?$AAr?$AA?$CJ?$AA?$AA@
  000bf	ff 15 00 00 00
	00		 call	 QWORD PTR __imp__wassert
  000c5	33 c0		 xor	 eax, eax
$LN35@scan_once_:
  000c7	48 8b 84 24 88
	01 00 00	 mov	 rax, QWORD PTR pystr$[rsp]
  000cf	8b 40 70	 mov	 eax, DWORD PTR [rax+112]
  000d2	c1 e8 05	 shr	 eax, 5
  000d5	83 e0 01	 and	 eax, 1
  000d8	85 c0		 test	 eax, eax
  000da	0f 84 b1 00 00
	00		 je	 $LN41@scan_once_
  000e0	48 8b 84 24 88
	01 00 00	 mov	 rax, QWORD PTR pystr$[rsp]
  000e8	48 8b 40 58	 mov	 rax, QWORD PTR [rax+88]
  000ec	8b 80 00 01 00
	00		 mov	 eax, DWORD PTR [rax+256]
  000f2	25 00 00 00 10	 and	 eax, 268435456		; 10000000H
  000f7	85 c0		 test	 eax, eax
  000f9	75 1c		 jne	 SHORT $LN36@scan_once_
  000fb	41 b8 ce 03 00
	00		 mov	 r8d, 974		; 000003ceH
  00101	48 8d 15 00 00
	00 00		 lea	 rdx, OFFSET FLAT:??_C@_1CG@KOELJAMM@?$AA?4?$AA?4?$AA?2?$AAM?$AAo?$AAd?$AAu?$AAl?$AAe?$AAs?$AA?2?$AA_?$AAj?$AAs?$AAo?$AAn?$AA?4?$AAc?$AA?$AA@
  00108	48 8d 0d 00 00
	00 00		 lea	 rcx, OFFSET FLAT:??_C@_1CO@GLPHKNNN@?$AAP?$AAy?$AAU?$AAn?$AAi?$AAc?$AAo?$AAd?$AAe?$AA_?$AAC?$AAh?$AAe?$AAc?$AAk?$AA?$CI?$AAp?$AAy?$AAs?$AAt?$AAr?$AA?$CJ?$AA?$AA@
  0010f	ff 15 00 00 00
	00		 call	 QWORD PTR __imp__wassert
  00115	33 c0		 xor	 eax, eax
$LN36@scan_once_:
  00117	48 8b 84 24 88
	01 00 00	 mov	 rax, QWORD PTR pystr$[rsp]
  0011f	8b 40 70	 mov	 eax, DWORD PTR [rax+112]
  00122	c1 e8 07	 shr	 eax, 7
  00125	83 e0 01	 and	 eax, 1
  00128	85 c0		 test	 eax, eax
  0012a	75 1c		 jne	 SHORT $LN37@scan_once_
  0012c	41 b8 ce 03 00
	00		 mov	 r8d, 974		; 000003ceH
  00132	48 8d 15 00 00
	00 00		 lea	 rdx, OFFSET FLAT:??_C@_1CG@KOELJAMM@?$AA?4?$AA?4?$AA?2?$AAM?$AAo?$AAd?$AAu?$AAl?$AAe?$AAs?$AA?2?$AA_?$AAj?$AAs?$AAo?$AAn?$AA?4?$AAc?$AA?$AA@
  00139	48 8d 0d 00 00
	00 00		 lea	 rcx, OFFSET FLAT:??_C@_1DE@NACFPDOF@?$AAP?$AAy?$AAU?$AAn?$AAi?$AAc?$AAo?$AAd?$AAe?$AA_?$AAI?$AAS?$AA_?$AAR?$AAE?$AAA?$AAD?$AAY?$AA?$CI?$AAp?$AAy?$AAs?$AAt?$AAr?$AA?$CJ?$AA?$AA@
  00140	ff 15 00 00 00
	00		 call	 QWORD PTR __imp__wassert
  00146	33 c0		 xor	 eax, eax
$LN37@scan_once_:
  00148	48 8b 84 24 88
	01 00 00	 mov	 rax, QWORD PTR pystr$[rsp]
  00150	8b 40 70	 mov	 eax, DWORD PTR [rax+112]
  00153	c1 e8 06	 shr	 eax, 6
  00156	83 e0 01	 and	 eax, 1
  00159	85 c0		 test	 eax, eax
  0015b	74 15		 je	 SHORT $LN38@scan_once_
  0015d	48 8b 84 24 88
	01 00 00	 mov	 rax, QWORD PTR pystr$[rsp]
  00165	48 05 80 00 00
	00		 add	 rax, 128		; 00000080H
  0016b	48 89 44 24 48	 mov	 QWORD PTR tv145[rsp], rax
  00170	eb 13		 jmp	 SHORT $LN39@scan_once_
$LN38@scan_once_:
  00172	48 8b 84 24 88
	01 00 00	 mov	 rax, QWORD PTR pystr$[rsp]
  0017a	48 05 a0 00 00
	00		 add	 rax, 160		; 000000a0H
  00180	48 89 44 24 48	 mov	 QWORD PTR tv145[rsp], rax
$LN39@scan_once_:
  00185	48 8b 44 24 48	 mov	 rax, QWORD PTR tv145[rsp]
  0018a	48 89 44 24 50	 mov	 QWORD PTR tv154[rsp], rax
  0018f	eb 42		 jmp	 SHORT $LN42@scan_once_
$LN41@scan_once_:
  00191	48 8b 84 24 88
	01 00 00	 mov	 rax, QWORD PTR pystr$[rsp]
  00199	48 83 b8 a0 00
	00 00 00	 cmp	 QWORD PTR [rax+160], 0
  001a1	75 1c		 jne	 SHORT $LN40@scan_once_
  001a3	41 b8 ce 03 00
	00		 mov	 r8d, 974		; 000003ceH
  001a9	48 8d 15 00 00
	00 00		 lea	 rdx, OFFSET FLAT:??_C@_1CG@KOELJAMM@?$AA?4?$AA?4?$AA?2?$AAM?$AAo?$AAd?$AAu?$AAl?$AAe?$AAs?$AA?2?$AA_?$AAj?$AAs?$AAo?$AAn?$AA?4?$AAc?$AA?$AA@
  001b0	48 8d 0d 00 00
	00 00		 lea	 rcx, OFFSET FLAT:??_C@_1EM@FMOHIEKB@?$AA?$CI?$AA?$CI?$AAP?$AAy?$AAU?$AAn?$AAi?$AAc?$AAo?$AAd?$AAe?$AAO?$AAb?$AAj?$AAe?$AAc?$AAt?$AA?$CK?$AA?$CJ?$AA?$CI?$AAp?$AAy?$AAs?$AAt?$AAr?$AA?$CJ?$AA?$CJ?$AA?9?$AA?$DO?$AAd?$AAa?$AAt@
  001b7	ff 15 00 00 00
	00		 call	 QWORD PTR __imp__wassert
  001bd	33 c0		 xor	 eax, eax
$LN40@scan_once_:
  001bf	48 8b 84 24 88
	01 00 00	 mov	 rax, QWORD PTR pystr$[rsp]
  001c7	48 8b 80 a0 00
	00 00		 mov	 rax, QWORD PTR [rax+160]
  001ce	48 89 44 24 50	 mov	 QWORD PTR tv154[rsp], rax
$LN42@scan_once_:
  001d3	48 8b 44 24 50	 mov	 rax, QWORD PTR tv154[rsp]
  001d8	48 89 44 24 38	 mov	 QWORD PTR str$[rsp], rax

; 975  :     kind = PyUnicode_KIND(pystr);

  001dd	48 8b 84 24 88
	01 00 00	 mov	 rax, QWORD PTR pystr$[rsp]
  001e5	48 8b 40 58	 mov	 rax, QWORD PTR [rax+88]
  001e9	8b 80 00 01 00
	00		 mov	 eax, DWORD PTR [rax+256]
  001ef	25 00 00 00 10	 and	 eax, 268435456		; 10000000H
  001f4	85 c0		 test	 eax, eax
  001f6	75 1c		 jne	 SHORT $LN43@scan_once_
  001f8	41 b8 cf 03 00
	00		 mov	 r8d, 975		; 000003cfH
  001fe	48 8d 15 00 00
	00 00		 lea	 rdx, OFFSET FLAT:??_C@_1CG@KOELJAMM@?$AA?4?$AA?4?$AA?2?$AAM?$AAo?$AAd?$AAu?$AAl?$AAe?$AAs?$AA?2?$AA_?$AAj?$AAs?$AAo?$AAn?$AA?4?$AAc?$AA?$AA@
  00205	48 8d 0d 00 00
	00 00		 lea	 rcx, OFFSET FLAT:??_C@_1CO@GLPHKNNN@?$AAP?$AAy?$AAU?$AAn?$AAi?$AAc?$AAo?$AAd?$AAe?$AA_?$AAC?$AAh?$AAe?$AAc?$AAk?$AA?$CI?$AAp?$AAy?$AAs?$AAt?$AAr?$AA?$CJ?$AA?$AA@
  0020c	ff 15 00 00 00
	00		 call	 QWORD PTR __imp__wassert
  00212	33 c0		 xor	 eax, eax
$LN43@scan_once_:
  00214	48 8b 84 24 88
	01 00 00	 mov	 rax, QWORD PTR pystr$[rsp]
  0021c	8b 40 70	 mov	 eax, DWORD PTR [rax+112]
  0021f	c1 e8 07	 shr	 eax, 7
  00222	83 e0 01	 and	 eax, 1
  00225	85 c0		 test	 eax, eax
  00227	75 1c		 jne	 SHORT $LN44@scan_once_
  00229	41 b8 cf 03 00
	00		 mov	 r8d, 975		; 000003cfH
  0022f	48 8d 15 00 00
	00 00		 lea	 rdx, OFFSET FLAT:??_C@_1CG@KOELJAMM@?$AA?4?$AA?4?$AA?2?$AAM?$AAo?$AAd?$AAu?$AAl?$AAe?$AAs?$AA?2?$AA_?$AAj?$AAs?$AAo?$AAn?$AA?4?$AAc?$AA?$AA@
  00236	48 8d 0d 00 00
	00 00		 lea	 rcx, OFFSET FLAT:??_C@_1DE@NACFPDOF@?$AAP?$AAy?$AAU?$AAn?$AAi?$AAc?$AAo?$AAd?$AAe?$AA_?$AAI?$AAS?$AA_?$AAR?$AAE?$AAA?$AAD?$AAY?$AA?$CI?$AAp?$AAy?$AAs?$AAt?$AAr?$AA?$CJ?$AA?$AA@
  0023d	ff 15 00 00 00
	00		 call	 QWORD PTR __imp__wassert
  00243	33 c0		 xor	 eax, eax
$LN44@scan_once_:
  00245	48 8b 84 24 88
	01 00 00	 mov	 rax, QWORD PTR pystr$[rsp]
  0024d	8b 40 70	 mov	 eax, DWORD PTR [rax+112]
  00250	c1 e8 02	 shr	 eax, 2
  00253	83 e0 07	 and	 eax, 7
  00256	89 44 24 20	 mov	 DWORD PTR kind$[rsp], eax

; 976  :     length = PyUnicode_GET_LENGTH(pystr);

  0025a	48 8b 84 24 88
	01 00 00	 mov	 rax, QWORD PTR pystr$[rsp]
  00262	48 8b 40 58	 mov	 rax, QWORD PTR [rax+88]
  00266	8b 80 00 01 00
	00		 mov	 eax, DWORD PTR [rax+256]
  0026c	25 00 00 00 10	 and	 eax, 268435456		; 10000000H
  00271	85 c0		 test	 eax, eax
  00273	75 1c		 jne	 SHORT $LN45@scan_once_
  00275	41 b8 d0 03 00
	00		 mov	 r8d, 976		; 000003d0H
  0027b	48 8d 15 00 00
	00 00		 lea	 rdx, OFFSET FLAT:??_C@_1CG@KOELJAMM@?$AA?4?$AA?4?$AA?2?$AAM?$AAo?$AAd?$AAu?$AAl?$AAe?$AAs?$AA?2?$AA_?$AAj?$AAs?$AAo?$AAn?$AA?4?$AAc?$AA?$AA@
  00282	48 8d 0d 00 00
	00 00		 lea	 rcx, OFFSET FLAT:??_C@_1CO@GLPHKNNN@?$AAP?$AAy?$AAU?$AAn?$AAi?$AAc?$AAo?$AAd?$AAe?$AA_?$AAC?$AAh?$AAe?$AAc?$AAk?$AA?$CI?$AAp?$AAy?$AAs?$AAt?$AAr?$AA?$CJ?$AA?$AA@
  00289	ff 15 00 00 00
	00		 call	 QWORD PTR __imp__wassert
  0028f	33 c0		 xor	 eax, eax
$LN45@scan_once_:
  00291	48 8b 84 24 88
	01 00 00	 mov	 rax, QWORD PTR pystr$[rsp]
  00299	8b 40 70	 mov	 eax, DWORD PTR [rax+112]
  0029c	c1 e8 07	 shr	 eax, 7
  0029f	83 e0 01	 and	 eax, 1
  002a2	85 c0		 test	 eax, eax
  002a4	75 1c		 jne	 SHORT $LN46@scan_once_
  002a6	41 b8 d0 03 00
	00		 mov	 r8d, 976		; 000003d0H
  002ac	48 8d 15 00 00
	00 00		 lea	 rdx, OFFSET FLAT:??_C@_1CG@KOELJAMM@?$AA?4?$AA?4?$AA?2?$AAM?$AAo?$AAd?$AAu?$AAl?$AAe?$AAs?$AA?2?$AA_?$AAj?$AAs?$AAo?$AAn?$AA?4?$AAc?$AA?$AA@
  002b3	48 8d 0d 00 00
	00 00		 lea	 rcx, OFFSET FLAT:??_C@_1DE@NACFPDOF@?$AAP?$AAy?$AAU?$AAn?$AAi?$AAc?$AAo?$AAd?$AAe?$AA_?$AAI?$AAS?$AA_?$AAR?$AAE?$AAA?$AAD?$AAY?$AA?$CI?$AAp?$AAy?$AAs?$AAt?$AAr?$AA?$CJ?$AA?$AA@
  002ba	ff 15 00 00 00
	00		 call	 QWORD PTR __imp__wassert
  002c0	33 c0		 xor	 eax, eax
$LN46@scan_once_:
  002c2	48 8b 84 24 88
	01 00 00	 mov	 rax, QWORD PTR pystr$[rsp]
  002ca	48 8b 40 60	 mov	 rax, QWORD PTR [rax+96]
  002ce	48 89 44 24 30	 mov	 QWORD PTR length$[rsp], rax

; 977  : 
; 978  :     if (idx >= length) {

  002d3	48 8b 44 24 30	 mov	 rax, QWORD PTR length$[rsp]
  002d8	48 39 84 24 90
	01 00 00	 cmp	 QWORD PTR idx$[rsp], rax
  002e0	7c 13		 jl	 SHORT $LN28@scan_once_

; 979  :         PyErr_SetNone(PyExc_StopIteration);

  002e2	48 8b 0d 00 00
	00 00		 mov	 rcx, QWORD PTR PyExc_StopIteration
  002e9	e8 00 00 00 00	 call	 PyErr_SetNone

; 980  :         return NULL;

  002ee	33 c0		 xor	 eax, eax
  002f0	e9 9b 11 00 00	 jmp	 $LN30@scan_once_
$LN28@scan_once_:

; 981  :     }
; 982  : 
; 983  :     switch (PyUnicode_READ(kind, str, idx)) {

  002f5	83 7c 24 20 01	 cmp	 DWORD PTR kind$[rsp], 1
  002fa	75 1c		 jne	 SHORT $LN49@scan_once_
  002fc	48 8b 84 24 90
	01 00 00	 mov	 rax, QWORD PTR idx$[rsp]
  00304	48 8b 4c 24 38	 mov	 rcx, QWORD PTR str$[rsp]
  00309	48 03 c8	 add	 rcx, rax
  0030c	48 8b c1	 mov	 rax, rcx
  0030f	0f b6 00	 movzx	 eax, BYTE PTR [rax]
  00312	89 44 24 58	 mov	 DWORD PTR tv203[rsp], eax
  00316	eb 3a		 jmp	 SHORT $LN50@scan_once_
$LN49@scan_once_:
  00318	83 7c 24 20 02	 cmp	 DWORD PTR kind$[rsp], 2
  0031d	75 17		 jne	 SHORT $LN47@scan_once_
  0031f	48 8b 44 24 38	 mov	 rax, QWORD PTR str$[rsp]
  00324	48 8b 8c 24 90
	01 00 00	 mov	 rcx, QWORD PTR idx$[rsp]
  0032c	0f b7 04 48	 movzx	 eax, WORD PTR [rax+rcx*2]
  00330	89 44 24 5c	 mov	 DWORD PTR tv202[rsp], eax
  00334	eb 14		 jmp	 SHORT $LN48@scan_once_
$LN47@scan_once_:
  00336	48 8b 44 24 38	 mov	 rax, QWORD PTR str$[rsp]
  0033b	48 8b 8c 24 90
	01 00 00	 mov	 rcx, QWORD PTR idx$[rsp]
  00343	8b 04 88	 mov	 eax, DWORD PTR [rax+rcx*4]
  00346	89 44 24 5c	 mov	 DWORD PTR tv202[rsp], eax
$LN48@scan_once_:
  0034a	8b 44 24 5c	 mov	 eax, DWORD PTR tv202[rsp]
  0034e	89 44 24 58	 mov	 DWORD PTR tv203[rsp], eax
$LN50@scan_once_:
  00352	8b 44 24 58	 mov	 eax, DWORD PTR tv203[rsp]
  00356	89 44 24 60	 mov	 DWORD PTR tv204[rsp], eax
  0035a	8b 44 24 60	 mov	 eax, DWORD PTR tv204[rsp]
  0035e	83 e8 22	 sub	 eax, 34			; 00000022H
  00361	89 44 24 60	 mov	 DWORD PTR tv204[rsp], eax
  00365	83 7c 24 60 59	 cmp	 DWORD PTR tv204[rsp], 89 ; 00000059H
  0036a	0f 87 fb 10 00
	00		 ja	 $LN26@scan_once_
  00370	8b 44 24 60	 mov	 eax, DWORD PTR tv204[rsp]
  00374	48 8d 0d 00 00
	00 00		 lea	 rcx, OFFSET FLAT:__ImageBase
  0037b	0f b6 84 01 00
	00 00 00	 movzx	 eax, BYTE PTR $LN163@scan_once_[rcx+rax]
  00383	8b 84 81 00 00
	00 00		 mov	 eax, DWORD PTR $LN164@scan_once_[rcx+rax*4]
  0038a	48 03 c1	 add	 rax, rcx
  0038d	ff e0		 jmp	 rax
$LN25@scan_once_:

; 984  :         case '"':
; 985  :             /* string */
; 986  :             return scanstring_unicode(pystr, idx + 1,
; 987  :                 PyObject_IsTrue(s->strict),
; 988  :                 next_idx_ptr);

  0038f	48 8b 84 24 80
	01 00 00	 mov	 rax, QWORD PTR s$[rsp]
  00397	48 8b 48 60	 mov	 rcx, QWORD PTR [rax+96]
  0039b	e8 00 00 00 00	 call	 PyObject_IsTrue
  003a0	48 8b 8c 24 90
	01 00 00	 mov	 rcx, QWORD PTR idx$[rsp]
  003a8	48 ff c1	 inc	 rcx
  003ab	4c 8b 8c 24 98
	01 00 00	 mov	 r9, QWORD PTR next_idx_ptr$[rsp]
  003b3	44 8b c0	 mov	 r8d, eax
  003b6	48 8b d1	 mov	 rdx, rcx
  003b9	48 8b 8c 24 88
	01 00 00	 mov	 rcx, QWORD PTR pystr$[rsp]
  003c1	e8 00 00 00 00	 call	 scanstring_unicode
  003c6	e9 c5 10 00 00	 jmp	 $LN30@scan_once_
$LN24@scan_once_:

; 989  :         case '{':
; 990  :             /* object */
; 991  :             if (Py_EnterRecursiveCall(" while decoding a JSON object "
; 992  :                                       "from a unicode string"))

  003cb	e8 00 00 00 00	 call	 PyThreadState_Get
  003d0	48 83 c0 18	 add	 rax, 24
  003d4	48 89 44 24 68	 mov	 QWORD PTR tv216[rsp], rax
  003d9	48 8b 44 24 68	 mov	 rax, QWORD PTR tv216[rsp]
  003de	8b 00		 mov	 eax, DWORD PTR [rax]
  003e0	ff c0		 inc	 eax
  003e2	48 8b 4c 24 68	 mov	 rcx, QWORD PTR tv216[rsp]
  003e7	89 01		 mov	 DWORD PTR [rcx], eax
  003e9	48 8b 44 24 68	 mov	 rax, QWORD PTR tv216[rsp]
  003ee	8b 0d 00 00 00
	00		 mov	 ecx, DWORD PTR _Py_CheckRecursionLimit
  003f4	39 08		 cmp	 DWORD PTR [rax], ecx
  003f6	7e 17		 jle	 SHORT $LN23@scan_once_
  003f8	48 8d 0d 00 00
	00 00		 lea	 rcx, OFFSET FLAT:??_C@_0DE@POAICCIC@?5while?5decoding?5a?5JSON?5object?5fr@
  003ff	e8 00 00 00 00	 call	 _Py_CheckRecursiveCall
  00404	85 c0		 test	 eax, eax
  00406	74 07		 je	 SHORT $LN23@scan_once_

; 993  :                 return NULL;

  00408	33 c0		 xor	 eax, eax
  0040a	e9 81 10 00 00	 jmp	 $LN30@scan_once_
$LN23@scan_once_:

; 994  :             res = _parse_object_unicode(s, pystr, idx + 1, next_idx_ptr);

  0040f	48 8b 84 24 90
	01 00 00	 mov	 rax, QWORD PTR idx$[rsp]
  00417	48 ff c0	 inc	 rax
  0041a	4c 8b 8c 24 98
	01 00 00	 mov	 r9, QWORD PTR next_idx_ptr$[rsp]
  00422	4c 8b c0	 mov	 r8, rax
  00425	48 8b 94 24 88
	01 00 00	 mov	 rdx, QWORD PTR pystr$[rsp]
  0042d	48 8b 8c 24 80
	01 00 00	 mov	 rcx, QWORD PTR s$[rsp]
  00435	e8 00 00 00 00	 call	 _parse_object_unicode
  0043a	48 89 44 24 28	 mov	 QWORD PTR res$[rsp], rax
$LN22@scan_once_:

; 995  :             Py_LeaveRecursiveCall();

  0043f	83 3d 00 00 00
	00 64		 cmp	 DWORD PTR _Py_CheckRecursionLimit, 100 ; 00000064H
  00446	7e 0f		 jle	 SHORT $LN51@scan_once_
  00448	8b 05 00 00 00
	00		 mov	 eax, DWORD PTR _Py_CheckRecursionLimit
  0044e	83 e8 32	 sub	 eax, 50			; 00000032H
  00451	89 44 24 70	 mov	 DWORD PTR tv236[rsp], eax
  00455	eb 10		 jmp	 SHORT $LN52@scan_once_
$LN51@scan_once_:
  00457	8b 05 00 00 00
	00		 mov	 eax, DWORD PTR _Py_CheckRecursionLimit
  0045d	c1 f8 02	 sar	 eax, 2
  00460	6b c0 03	 imul	 eax, 3
  00463	89 44 24 70	 mov	 DWORD PTR tv236[rsp], eax
$LN52@scan_once_:
  00467	e8 00 00 00 00	 call	 PyThreadState_Get
  0046c	48 83 c0 18	 add	 rax, 24
  00470	48 89 44 24 78	 mov	 QWORD PTR tv230[rsp], rax
  00475	48 8b 44 24 78	 mov	 rax, QWORD PTR tv230[rsp]
  0047a	8b 00		 mov	 eax, DWORD PTR [rax]
  0047c	ff c8		 dec	 eax
  0047e	48 8b 4c 24 78	 mov	 rcx, QWORD PTR tv230[rsp]
  00483	89 01		 mov	 DWORD PTR [rcx], eax
  00485	48 8b 44 24 78	 mov	 rax, QWORD PTR tv230[rsp]
  0048a	8b 4c 24 70	 mov	 ecx, DWORD PTR tv236[rsp]
  0048e	39 08		 cmp	 DWORD PTR [rax], ecx
  00490	7d 09		 jge	 SHORT $LN19@scan_once_
  00492	e8 00 00 00 00	 call	 PyThreadState_Get
  00497	c6 40 1c 00	 mov	 BYTE PTR [rax+28], 0
$LN19@scan_once_:
  0049b	33 c0		 xor	 eax, eax
  0049d	85 c0		 test	 eax, eax
  0049f	75 9e		 jne	 SHORT $LN22@scan_once_

; 996  :             return res;

  004a1	48 8b 44 24 28	 mov	 rax, QWORD PTR res$[rsp]
  004a6	e9 e5 0f 00 00	 jmp	 $LN30@scan_once_
$LN18@scan_once_:

; 997  :         case '[':
; 998  :             /* array */
; 999  :             if (Py_EnterRecursiveCall(" while decoding a JSON array "
; 1000 :                                       "from a unicode string"))

  004ab	e8 00 00 00 00	 call	 PyThreadState_Get
  004b0	48 83 c0 18	 add	 rax, 24
  004b4	48 89 84 24 80
	00 00 00	 mov	 QWORD PTR tv243[rsp], rax
  004bc	48 8b 84 24 80
	00 00 00	 mov	 rax, QWORD PTR tv243[rsp]
  004c4	8b 00		 mov	 eax, DWORD PTR [rax]
  004c6	ff c0		 inc	 eax
  004c8	48 8b 8c 24 80
	00 00 00	 mov	 rcx, QWORD PTR tv243[rsp]
  004d0	89 01		 mov	 DWORD PTR [rcx], eax
  004d2	48 8b 84 24 80
	00 00 00	 mov	 rax, QWORD PTR tv243[rsp]
  004da	8b 0d 00 00 00
	00		 mov	 ecx, DWORD PTR _Py_CheckRecursionLimit
  004e0	39 08		 cmp	 DWORD PTR [rax], ecx
  004e2	7e 17		 jle	 SHORT $LN17@scan_once_
  004e4	48 8d 0d 00 00
	00 00		 lea	 rcx, OFFSET FLAT:??_C@_0DD@KJGHDLGJ@?5while?5decoding?5a?5JSON?5array?5fro@
  004eb	e8 00 00 00 00	 call	 _Py_CheckRecursiveCall
  004f0	85 c0		 test	 eax, eax
  004f2	74 07		 je	 SHORT $LN17@scan_once_

; 1001 :                 return NULL;

  004f4	33 c0		 xor	 eax, eax
  004f6	e9 95 0f 00 00	 jmp	 $LN30@scan_once_
$LN17@scan_once_:

; 1002 :             res = _parse_array_unicode(s, pystr, idx + 1, next_idx_ptr);

  004fb	48 8b 84 24 90
	01 00 00	 mov	 rax, QWORD PTR idx$[rsp]
  00503	48 ff c0	 inc	 rax
  00506	4c 8b 8c 24 98
	01 00 00	 mov	 r9, QWORD PTR next_idx_ptr$[rsp]
  0050e	4c 8b c0	 mov	 r8, rax
  00511	48 8b 94 24 88
	01 00 00	 mov	 rdx, QWORD PTR pystr$[rsp]
  00519	48 8b 8c 24 80
	01 00 00	 mov	 rcx, QWORD PTR s$[rsp]
  00521	e8 00 00 00 00	 call	 _parse_array_unicode
  00526	48 89 44 24 28	 mov	 QWORD PTR res$[rsp], rax
$LN16@scan_once_:

; 1003 :             Py_LeaveRecursiveCall();

  0052b	83 3d 00 00 00
	00 64		 cmp	 DWORD PTR _Py_CheckRecursionLimit, 100 ; 00000064H
  00532	7e 12		 jle	 SHORT $LN53@scan_once_
  00534	8b 05 00 00 00
	00		 mov	 eax, DWORD PTR _Py_CheckRecursionLimit
  0053a	83 e8 32	 sub	 eax, 50			; 00000032H
  0053d	89 84 24 88 00
	00 00		 mov	 DWORD PTR tv263[rsp], eax
  00544	eb 13		 jmp	 SHORT $LN54@scan_once_
$LN53@scan_once_:
  00546	8b 05 00 00 00
	00		 mov	 eax, DWORD PTR _Py_CheckRecursionLimit
  0054c	c1 f8 02	 sar	 eax, 2
  0054f	6b c0 03	 imul	 eax, 3
  00552	89 84 24 88 00
	00 00		 mov	 DWORD PTR tv263[rsp], eax
$LN54@scan_once_:
  00559	e8 00 00 00 00	 call	 PyThreadState_Get
  0055e	48 83 c0 18	 add	 rax, 24
  00562	48 89 84 24 90
	00 00 00	 mov	 QWORD PTR tv257[rsp], rax
  0056a	48 8b 84 24 90
	00 00 00	 mov	 rax, QWORD PTR tv257[rsp]
  00572	8b 00		 mov	 eax, DWORD PTR [rax]
  00574	ff c8		 dec	 eax
  00576	48 8b 8c 24 90
	00 00 00	 mov	 rcx, QWORD PTR tv257[rsp]
  0057e	89 01		 mov	 DWORD PTR [rcx], eax
  00580	48 8b 84 24 90
	00 00 00	 mov	 rax, QWORD PTR tv257[rsp]
  00588	8b 8c 24 88 00
	00 00		 mov	 ecx, DWORD PTR tv263[rsp]
  0058f	39 08		 cmp	 DWORD PTR [rax], ecx
  00591	7d 09		 jge	 SHORT $LN13@scan_once_
  00593	e8 00 00 00 00	 call	 PyThreadState_Get
  00598	c6 40 1c 00	 mov	 BYTE PTR [rax+28], 0
$LN13@scan_once_:
  0059c	33 c0		 xor	 eax, eax
  0059e	85 c0		 test	 eax, eax
  005a0	75 89		 jne	 SHORT $LN16@scan_once_

; 1004 :             return res;

  005a2	48 8b 44 24 28	 mov	 rax, QWORD PTR res$[rsp]
  005a7	e9 e4 0e 00 00	 jmp	 $LN30@scan_once_
$LN12@scan_once_:

; 1005 :         case 'n':
; 1006 :             /* null */
; 1007 :             if ((idx + 3 < length) && PyUnicode_READ(kind, str, idx + 1) == 'u' && PyUnicode_READ(kind, str, idx + 2) == 'l' && PyUnicode_READ(kind, str, idx + 3) == 'l') {

  005ac	48 8b 84 24 90
	01 00 00	 mov	 rax, QWORD PTR idx$[rsp]
  005b4	48 83 c0 03	 add	 rax, 3
  005b8	48 3b 44 24 30	 cmp	 rax, QWORD PTR length$[rsp]
  005bd	0f 8d a2 01 00
	00		 jge	 $LN11@scan_once_
  005c3	83 7c 24 20 01	 cmp	 DWORD PTR kind$[rsp], 1
  005c8	75 20		 jne	 SHORT $LN57@scan_once_
  005ca	48 8b 84 24 90
	01 00 00	 mov	 rax, QWORD PTR idx$[rsp]
  005d2	48 8b 4c 24 38	 mov	 rcx, QWORD PTR str$[rsp]
  005d7	48 03 c8	 add	 rcx, rax
  005da	48 8b c1	 mov	 rax, rcx
  005dd	0f b6 40 01	 movzx	 eax, BYTE PTR [rax+1]
  005e1	89 84 24 98 00
	00 00		 mov	 DWORD PTR tv283[rsp], eax
  005e8	eb 48		 jmp	 SHORT $LN58@scan_once_
$LN57@scan_once_:
  005ea	83 7c 24 20 02	 cmp	 DWORD PTR kind$[rsp], 2
  005ef	75 1b		 jne	 SHORT $LN55@scan_once_
  005f1	48 8b 44 24 38	 mov	 rax, QWORD PTR str$[rsp]
  005f6	48 8b 8c 24 90
	01 00 00	 mov	 rcx, QWORD PTR idx$[rsp]
  005fe	0f b7 44 48 02	 movzx	 eax, WORD PTR [rax+rcx*2+2]
  00603	89 84 24 9c 00
	00 00		 mov	 DWORD PTR tv282[rsp], eax
  0060a	eb 18		 jmp	 SHORT $LN56@scan_once_
$LN55@scan_once_:
  0060c	48 8b 44 24 38	 mov	 rax, QWORD PTR str$[rsp]
  00611	48 8b 8c 24 90
	01 00 00	 mov	 rcx, QWORD PTR idx$[rsp]
  00619	8b 44 88 04	 mov	 eax, DWORD PTR [rax+rcx*4+4]
  0061d	89 84 24 9c 00
	00 00		 mov	 DWORD PTR tv282[rsp], eax
$LN56@scan_once_:
  00624	8b 84 24 9c 00
	00 00		 mov	 eax, DWORD PTR tv282[rsp]
  0062b	89 84 24 98 00
	00 00		 mov	 DWORD PTR tv283[rsp], eax
$LN58@scan_once_:
  00632	83 bc 24 98 00
	00 00 75	 cmp	 DWORD PTR tv283[rsp], 117 ; 00000075H
  0063a	0f 85 25 01 00
	00		 jne	 $LN11@scan_once_
  00640	83 7c 24 20 01	 cmp	 DWORD PTR kind$[rsp], 1
  00645	75 20		 jne	 SHORT $LN61@scan_once_
  00647	48 8b 84 24 90
	01 00 00	 mov	 rax, QWORD PTR idx$[rsp]
  0064f	48 8b 4c 24 38	 mov	 rcx, QWORD PTR str$[rsp]
  00654	48 03 c8	 add	 rcx, rax
  00657	48 8b c1	 mov	 rax, rcx
  0065a	0f b6 40 02	 movzx	 eax, BYTE PTR [rax+2]
  0065e	89 84 24 a0 00
	00 00		 mov	 DWORD PTR tv298[rsp], eax
  00665	eb 48		 jmp	 SHORT $LN62@scan_once_
$LN61@scan_once_:
  00667	83 7c 24 20 02	 cmp	 DWORD PTR kind$[rsp], 2
  0066c	75 1b		 jne	 SHORT $LN59@scan_once_
  0066e	48 8b 44 24 38	 mov	 rax, QWORD PTR str$[rsp]
  00673	48 8b 8c 24 90
	01 00 00	 mov	 rcx, QWORD PTR idx$[rsp]
  0067b	0f b7 44 48 04	 movzx	 eax, WORD PTR [rax+rcx*2+4]
  00680	89 84 24 a4 00
	00 00		 mov	 DWORD PTR tv297[rsp], eax
  00687	eb 18		 jmp	 SHORT $LN60@scan_once_
$LN59@scan_once_:
  00689	48 8b 44 24 38	 mov	 rax, QWORD PTR str$[rsp]
  0068e	48 8b 8c 24 90
	01 00 00	 mov	 rcx, QWORD PTR idx$[rsp]
  00696	8b 44 88 08	 mov	 eax, DWORD PTR [rax+rcx*4+8]
  0069a	89 84 24 a4 00
	00 00		 mov	 DWORD PTR tv297[rsp], eax
$LN60@scan_once_:
  006a1	8b 84 24 a4 00
	00 00		 mov	 eax, DWORD PTR tv297[rsp]
  006a8	89 84 24 a0 00
	00 00		 mov	 DWORD PTR tv298[rsp], eax
$LN62@scan_once_:
  006af	83 bc 24 a0 00
	00 00 6c	 cmp	 DWORD PTR tv298[rsp], 108 ; 0000006cH
  006b7	0f 85 a8 00 00
	00		 jne	 $LN11@scan_once_
  006bd	83 7c 24 20 01	 cmp	 DWORD PTR kind$[rsp], 1
  006c2	75 20		 jne	 SHORT $LN65@scan_once_
  006c4	48 8b 84 24 90
	01 00 00	 mov	 rax, QWORD PTR idx$[rsp]
  006cc	48 8b 4c 24 38	 mov	 rcx, QWORD PTR str$[rsp]
  006d1	48 03 c8	 add	 rcx, rax
  006d4	48 8b c1	 mov	 rax, rcx
  006d7	0f b6 40 03	 movzx	 eax, BYTE PTR [rax+3]
  006db	89 84 24 a8 00
	00 00		 mov	 DWORD PTR tv313[rsp], eax
  006e2	eb 48		 jmp	 SHORT $LN66@scan_once_
$LN65@scan_once_:
  006e4	83 7c 24 20 02	 cmp	 DWORD PTR kind$[rsp], 2
  006e9	75 1b		 jne	 SHORT $LN63@scan_once_
  006eb	48 8b 44 24 38	 mov	 rax, QWORD PTR str$[rsp]
  006f0	48 8b 8c 24 90
	01 00 00	 mov	 rcx, QWORD PTR idx$[rsp]
  006f8	0f b7 44 48 06	 movzx	 eax, WORD PTR [rax+rcx*2+6]
  006fd	89 84 24 ac 00
	00 00		 mov	 DWORD PTR tv312[rsp], eax
  00704	eb 18		 jmp	 SHORT $LN64@scan_once_
$LN63@scan_once_:
  00706	48 8b 44 24 38	 mov	 rax, QWORD PTR str$[rsp]
  0070b	48 8b 8c 24 90
	01 00 00	 mov	 rcx, QWORD PTR idx$[rsp]
  00713	8b 44 88 0c	 mov	 eax, DWORD PTR [rax+rcx*4+12]
  00717	89 84 24 ac 00
	00 00		 mov	 DWORD PTR tv312[rsp], eax
$LN64@scan_once_:
  0071e	8b 84 24 ac 00
	00 00		 mov	 eax, DWORD PTR tv312[rsp]
  00725	89 84 24 a8 00
	00 00		 mov	 DWORD PTR tv313[rsp], eax
$LN66@scan_once_:
  0072c	83 bc 24 a8 00
	00 00 6c	 cmp	 DWORD PTR tv313[rsp], 108 ; 0000006cH
  00734	75 2f		 jne	 SHORT $LN11@scan_once_

; 1008 :                 Py_INCREF(Py_None);

  00736	48 8d 0d 00 00
	00 00		 lea	 rcx, OFFSET FLAT:_Py_NoneStruct
  0073d	e8 00 00 00 00	 call	 _Py_IncRef

; 1009 :                 *next_idx_ptr = idx + 4;

  00742	48 8b 84 24 90
	01 00 00	 mov	 rax, QWORD PTR idx$[rsp]
  0074a	48 83 c0 04	 add	 rax, 4
  0074e	48 8b 8c 24 98
	01 00 00	 mov	 rcx, QWORD PTR next_idx_ptr$[rsp]
  00756	48 89 01	 mov	 QWORD PTR [rcx], rax

; 1010 :                 return Py_None;

  00759	48 8d 05 00 00
	00 00		 lea	 rax, OFFSET FLAT:_Py_NoneStruct
  00760	e9 2b 0d 00 00	 jmp	 $LN30@scan_once_
$LN11@scan_once_:

; 1011 :             }
; 1012 :             break;

  00765	e9 01 0d 00 00	 jmp	 $LN26@scan_once_
$LN10@scan_once_:

; 1013 :         case 't':
; 1014 :             /* true */
; 1015 :             if ((idx + 3 < length) && PyUnicode_READ(kind, str, idx + 1) == 'r' && PyUnicode_READ(kind, str, idx + 2) == 'u' && PyUnicode_READ(kind, str, idx + 3) == 'e') {

  0076a	48 8b 84 24 90
	01 00 00	 mov	 rax, QWORD PTR idx$[rsp]
  00772	48 83 c0 03	 add	 rax, 3
  00776	48 3b 44 24 30	 cmp	 rax, QWORD PTR length$[rsp]
  0077b	0f 8d a2 01 00
	00		 jge	 $LN9@scan_once_
  00781	83 7c 24 20 01	 cmp	 DWORD PTR kind$[rsp], 1
  00786	75 20		 jne	 SHORT $LN69@scan_once_
  00788	48 8b 84 24 90
	01 00 00	 mov	 rax, QWORD PTR idx$[rsp]
  00790	48 8b 4c 24 38	 mov	 rcx, QWORD PTR str$[rsp]
  00795	48 03 c8	 add	 rcx, rax
  00798	48 8b c1	 mov	 rax, rcx
  0079b	0f b6 40 01	 movzx	 eax, BYTE PTR [rax+1]
  0079f	89 84 24 b0 00
	00 00		 mov	 DWORD PTR tv332[rsp], eax
  007a6	eb 48		 jmp	 SHORT $LN70@scan_once_
$LN69@scan_once_:
  007a8	83 7c 24 20 02	 cmp	 DWORD PTR kind$[rsp], 2
  007ad	75 1b		 jne	 SHORT $LN67@scan_once_
  007af	48 8b 44 24 38	 mov	 rax, QWORD PTR str$[rsp]
  007b4	48 8b 8c 24 90
	01 00 00	 mov	 rcx, QWORD PTR idx$[rsp]
  007bc	0f b7 44 48 02	 movzx	 eax, WORD PTR [rax+rcx*2+2]
  007c1	89 84 24 b4 00
	00 00		 mov	 DWORD PTR tv331[rsp], eax
  007c8	eb 18		 jmp	 SHORT $LN68@scan_once_
$LN67@scan_once_:
  007ca	48 8b 44 24 38	 mov	 rax, QWORD PTR str$[rsp]
  007cf	48 8b 8c 24 90
	01 00 00	 mov	 rcx, QWORD PTR idx$[rsp]
  007d7	8b 44 88 04	 mov	 eax, DWORD PTR [rax+rcx*4+4]
  007db	89 84 24 b4 00
	00 00		 mov	 DWORD PTR tv331[rsp], eax
$LN68@scan_once_:
  007e2	8b 84 24 b4 00
	00 00		 mov	 eax, DWORD PTR tv331[rsp]
  007e9	89 84 24 b0 00
	00 00		 mov	 DWORD PTR tv332[rsp], eax
$LN70@scan_once_:
  007f0	83 bc 24 b0 00
	00 00 72	 cmp	 DWORD PTR tv332[rsp], 114 ; 00000072H
  007f8	0f 85 25 01 00
	00		 jne	 $LN9@scan_once_
  007fe	83 7c 24 20 01	 cmp	 DWORD PTR kind$[rsp], 1
  00803	75 20		 jne	 SHORT $LN73@scan_once_
  00805	48 8b 84 24 90
	01 00 00	 mov	 rax, QWORD PTR idx$[rsp]
  0080d	48 8b 4c 24 38	 mov	 rcx, QWORD PTR str$[rsp]
  00812	48 03 c8	 add	 rcx, rax
  00815	48 8b c1	 mov	 rax, rcx
  00818	0f b6 40 02	 movzx	 eax, BYTE PTR [rax+2]
  0081c	89 84 24 b8 00
	00 00		 mov	 DWORD PTR tv347[rsp], eax
  00823	eb 48		 jmp	 SHORT $LN74@scan_once_
$LN73@scan_once_:
  00825	83 7c 24 20 02	 cmp	 DWORD PTR kind$[rsp], 2
  0082a	75 1b		 jne	 SHORT $LN71@scan_once_
  0082c	48 8b 44 24 38	 mov	 rax, QWORD PTR str$[rsp]
  00831	48 8b 8c 24 90
	01 00 00	 mov	 rcx, QWORD PTR idx$[rsp]
  00839	0f b7 44 48 04	 movzx	 eax, WORD PTR [rax+rcx*2+4]
  0083e	89 84 24 bc 00
	00 00		 mov	 DWORD PTR tv346[rsp], eax
  00845	eb 18		 jmp	 SHORT $LN72@scan_once_
$LN71@scan_once_:
  00847	48 8b 44 24 38	 mov	 rax, QWORD PTR str$[rsp]
  0084c	48 8b 8c 24 90
	01 00 00	 mov	 rcx, QWORD PTR idx$[rsp]
  00854	8b 44 88 08	 mov	 eax, DWORD PTR [rax+rcx*4+8]
  00858	89 84 24 bc 00
	00 00		 mov	 DWORD PTR tv346[rsp], eax
$LN72@scan_once_:
  0085f	8b 84 24 bc 00
	00 00		 mov	 eax, DWORD PTR tv346[rsp]
  00866	89 84 24 b8 00
	00 00		 mov	 DWORD PTR tv347[rsp], eax
$LN74@scan_once_:
  0086d	83 bc 24 b8 00
	00 00 75	 cmp	 DWORD PTR tv347[rsp], 117 ; 00000075H
  00875	0f 85 a8 00 00
	00		 jne	 $LN9@scan_once_
  0087b	83 7c 24 20 01	 cmp	 DWORD PTR kind$[rsp], 1
  00880	75 20		 jne	 SHORT $LN77@scan_once_
  00882	48 8b 84 24 90
	01 00 00	 mov	 rax, QWORD PTR idx$[rsp]
  0088a	48 8b 4c 24 38	 mov	 rcx, QWORD PTR str$[rsp]
  0088f	48 03 c8	 add	 rcx, rax
  00892	48 8b c1	 mov	 rax, rcx
  00895	0f b6 40 03	 movzx	 eax, BYTE PTR [rax+3]
  00899	89 84 24 c0 00
	00 00		 mov	 DWORD PTR tv362[rsp], eax
  008a0	eb 48		 jmp	 SHORT $LN78@scan_once_
$LN77@scan_once_:
  008a2	83 7c 24 20 02	 cmp	 DWORD PTR kind$[rsp], 2
  008a7	75 1b		 jne	 SHORT $LN75@scan_once_
  008a9	48 8b 44 24 38	 mov	 rax, QWORD PTR str$[rsp]
  008ae	48 8b 8c 24 90
	01 00 00	 mov	 rcx, QWORD PTR idx$[rsp]
  008b6	0f b7 44 48 06	 movzx	 eax, WORD PTR [rax+rcx*2+6]
  008bb	89 84 24 c4 00
	00 00		 mov	 DWORD PTR tv361[rsp], eax
  008c2	eb 18		 jmp	 SHORT $LN76@scan_once_
$LN75@scan_once_:
  008c4	48 8b 44 24 38	 mov	 rax, QWORD PTR str$[rsp]
  008c9	48 8b 8c 24 90
	01 00 00	 mov	 rcx, QWORD PTR idx$[rsp]
  008d1	8b 44 88 0c	 mov	 eax, DWORD PTR [rax+rcx*4+12]
  008d5	89 84 24 c4 00
	00 00		 mov	 DWORD PTR tv361[rsp], eax
$LN76@scan_once_:
  008dc	8b 84 24 c4 00
	00 00		 mov	 eax, DWORD PTR tv361[rsp]
  008e3	89 84 24 c0 00
	00 00		 mov	 DWORD PTR tv362[rsp], eax
$LN78@scan_once_:
  008ea	83 bc 24 c0 00
	00 00 65	 cmp	 DWORD PTR tv362[rsp], 101 ; 00000065H
  008f2	75 2f		 jne	 SHORT $LN9@scan_once_

; 1016 :                 Py_INCREF(Py_True);

  008f4	48 8d 0d 00 00
	00 00		 lea	 rcx, OFFSET FLAT:_Py_TrueStruct
  008fb	e8 00 00 00 00	 call	 _Py_IncRef

; 1017 :                 *next_idx_ptr = idx + 4;

  00900	48 8b 84 24 90
	01 00 00	 mov	 rax, QWORD PTR idx$[rsp]
  00908	48 83 c0 04	 add	 rax, 4
  0090c	48 8b 8c 24 98
	01 00 00	 mov	 rcx, QWORD PTR next_idx_ptr$[rsp]
  00914	48 89 01	 mov	 QWORD PTR [rcx], rax

; 1018 :                 return Py_True;

  00917	48 8d 05 00 00
	00 00		 lea	 rax, OFFSET FLAT:_Py_TrueStruct
  0091e	e9 6d 0b 00 00	 jmp	 $LN30@scan_once_
$LN9@scan_once_:

; 1019 :             }
; 1020 :             break;

  00923	e9 43 0b 00 00	 jmp	 $LN26@scan_once_
$LN8@scan_once_:

; 1021 :         case 'f':
; 1022 :             /* false */
; 1023 :             if ((idx + 4 < length) && PyUnicode_READ(kind, str, idx + 1) == 'a' &&
; 1024 :                 PyUnicode_READ(kind, str, idx + 2) == 'l' &&
; 1025 :                 PyUnicode_READ(kind, str, idx + 3) == 's' &&
; 1026 :                 PyUnicode_READ(kind, str, idx + 4) == 'e') {

  00928	48 8b 84 24 90
	01 00 00	 mov	 rax, QWORD PTR idx$[rsp]
  00930	48 83 c0 04	 add	 rax, 4
  00934	48 3b 44 24 30	 cmp	 rax, QWORD PTR length$[rsp]
  00939	0f 8d 1f 02 00
	00		 jge	 $LN7@scan_once_
  0093f	83 7c 24 20 01	 cmp	 DWORD PTR kind$[rsp], 1
  00944	75 20		 jne	 SHORT $LN81@scan_once_
  00946	48 8b 84 24 90
	01 00 00	 mov	 rax, QWORD PTR idx$[rsp]
  0094e	48 8b 4c 24 38	 mov	 rcx, QWORD PTR str$[rsp]
  00953	48 03 c8	 add	 rcx, rax
  00956	48 8b c1	 mov	 rax, rcx
  00959	0f b6 40 01	 movzx	 eax, BYTE PTR [rax+1]
  0095d	89 84 24 c8 00
	00 00		 mov	 DWORD PTR tv381[rsp], eax
  00964	eb 48		 jmp	 SHORT $LN82@scan_once_
$LN81@scan_once_:
  00966	83 7c 24 20 02	 cmp	 DWORD PTR kind$[rsp], 2
  0096b	75 1b		 jne	 SHORT $LN79@scan_once_
  0096d	48 8b 44 24 38	 mov	 rax, QWORD PTR str$[rsp]
  00972	48 8b 8c 24 90
	01 00 00	 mov	 rcx, QWORD PTR idx$[rsp]
  0097a	0f b7 44 48 02	 movzx	 eax, WORD PTR [rax+rcx*2+2]
  0097f	89 84 24 cc 00
	00 00		 mov	 DWORD PTR tv380[rsp], eax
  00986	eb 18		 jmp	 SHORT $LN80@scan_once_
$LN79@scan_once_:
  00988	48 8b 44 24 38	 mov	 rax, QWORD PTR str$[rsp]
  0098d	48 8b 8c 24 90
	01 00 00	 mov	 rcx, QWORD PTR idx$[rsp]
  00995	8b 44 88 04	 mov	 eax, DWORD PTR [rax+rcx*4+4]
  00999	89 84 24 cc 00
	00 00		 mov	 DWORD PTR tv380[rsp], eax
$LN80@scan_once_:
  009a0	8b 84 24 cc 00
	00 00		 mov	 eax, DWORD PTR tv380[rsp]
  009a7	89 84 24 c8 00
	00 00		 mov	 DWORD PTR tv381[rsp], eax
$LN82@scan_once_:
  009ae	83 bc 24 c8 00
	00 00 61	 cmp	 DWORD PTR tv381[rsp], 97 ; 00000061H
  009b6	0f 85 a2 01 00
	00		 jne	 $LN7@scan_once_
  009bc	83 7c 24 20 01	 cmp	 DWORD PTR kind$[rsp], 1
  009c1	75 20		 jne	 SHORT $LN85@scan_once_
  009c3	48 8b 84 24 90
	01 00 00	 mov	 rax, QWORD PTR idx$[rsp]
  009cb	48 8b 4c 24 38	 mov	 rcx, QWORD PTR str$[rsp]
  009d0	48 03 c8	 add	 rcx, rax
  009d3	48 8b c1	 mov	 rax, rcx
  009d6	0f b6 40 02	 movzx	 eax, BYTE PTR [rax+2]
  009da	89 84 24 d0 00
	00 00		 mov	 DWORD PTR tv396[rsp], eax
  009e1	eb 48		 jmp	 SHORT $LN86@scan_once_
$LN85@scan_once_:
  009e3	83 7c 24 20 02	 cmp	 DWORD PTR kind$[rsp], 2
  009e8	75 1b		 jne	 SHORT $LN83@scan_once_
  009ea	48 8b 44 24 38	 mov	 rax, QWORD PTR str$[rsp]
  009ef	48 8b 8c 24 90
	01 00 00	 mov	 rcx, QWORD PTR idx$[rsp]
  009f7	0f b7 44 48 04	 movzx	 eax, WORD PTR [rax+rcx*2+4]
  009fc	89 84 24 d4 00
	00 00		 mov	 DWORD PTR tv395[rsp], eax
  00a03	eb 18		 jmp	 SHORT $LN84@scan_once_
$LN83@scan_once_:
  00a05	48 8b 44 24 38	 mov	 rax, QWORD PTR str$[rsp]
  00a0a	48 8b 8c 24 90
	01 00 00	 mov	 rcx, QWORD PTR idx$[rsp]
  00a12	8b 44 88 08	 mov	 eax, DWORD PTR [rax+rcx*4+8]
  00a16	89 84 24 d4 00
	00 00		 mov	 DWORD PTR tv395[rsp], eax
$LN84@scan_once_:
  00a1d	8b 84 24 d4 00
	00 00		 mov	 eax, DWORD PTR tv395[rsp]
  00a24	89 84 24 d0 00
	00 00		 mov	 DWORD PTR tv396[rsp], eax
$LN86@scan_once_:
  00a2b	83 bc 24 d0 00
	00 00 6c	 cmp	 DWORD PTR tv396[rsp], 108 ; 0000006cH
  00a33	0f 85 25 01 00
	00		 jne	 $LN7@scan_once_
  00a39	83 7c 24 20 01	 cmp	 DWORD PTR kind$[rsp], 1
  00a3e	75 20		 jne	 SHORT $LN89@scan_once_
  00a40	48 8b 84 24 90
	01 00 00	 mov	 rax, QWORD PTR idx$[rsp]
  00a48	48 8b 4c 24 38	 mov	 rcx, QWORD PTR str$[rsp]
  00a4d	48 03 c8	 add	 rcx, rax
  00a50	48 8b c1	 mov	 rax, rcx
  00a53	0f b6 40 03	 movzx	 eax, BYTE PTR [rax+3]
  00a57	89 84 24 d8 00
	00 00		 mov	 DWORD PTR tv411[rsp], eax
  00a5e	eb 48		 jmp	 SHORT $LN90@scan_once_
$LN89@scan_once_:
  00a60	83 7c 24 20 02	 cmp	 DWORD PTR kind$[rsp], 2
  00a65	75 1b		 jne	 SHORT $LN87@scan_once_
  00a67	48 8b 44 24 38	 mov	 rax, QWORD PTR str$[rsp]
  00a6c	48 8b 8c 24 90
	01 00 00	 mov	 rcx, QWORD PTR idx$[rsp]
  00a74	0f b7 44 48 06	 movzx	 eax, WORD PTR [rax+rcx*2+6]
  00a79	89 84 24 dc 00
	00 00		 mov	 DWORD PTR tv410[rsp], eax
  00a80	eb 18		 jmp	 SHORT $LN88@scan_once_
$LN87@scan_once_:
  00a82	48 8b 44 24 38	 mov	 rax, QWORD PTR str$[rsp]
  00a87	48 8b 8c 24 90
	01 00 00	 mov	 rcx, QWORD PTR idx$[rsp]
  00a8f	8b 44 88 0c	 mov	 eax, DWORD PTR [rax+rcx*4+12]
  00a93	89 84 24 dc 00
	00 00		 mov	 DWORD PTR tv410[rsp], eax
$LN88@scan_once_:
  00a9a	8b 84 24 dc 00
	00 00		 mov	 eax, DWORD PTR tv410[rsp]
  00aa1	89 84 24 d8 00
	00 00		 mov	 DWORD PTR tv411[rsp], eax
$LN90@scan_once_:
  00aa8	83 bc 24 d8 00
	00 00 73	 cmp	 DWORD PTR tv411[rsp], 115 ; 00000073H
  00ab0	0f 85 a8 00 00
	00		 jne	 $LN7@scan_once_
  00ab6	83 7c 24 20 01	 cmp	 DWORD PTR kind$[rsp], 1
  00abb	75 20		 jne	 SHORT $LN93@scan_once_
  00abd	48 8b 84 24 90
	01 00 00	 mov	 rax, QWORD PTR idx$[rsp]
  00ac5	48 8b 4c 24 38	 mov	 rcx, QWORD PTR str$[rsp]
  00aca	48 03 c8	 add	 rcx, rax
  00acd	48 8b c1	 mov	 rax, rcx
  00ad0	0f b6 40 04	 movzx	 eax, BYTE PTR [rax+4]
  00ad4	89 84 24 e0 00
	00 00		 mov	 DWORD PTR tv426[rsp], eax
  00adb	eb 48		 jmp	 SHORT $LN94@scan_once_
$LN93@scan_once_:
  00add	83 7c 24 20 02	 cmp	 DWORD PTR kind$[rsp], 2
  00ae2	75 1b		 jne	 SHORT $LN91@scan_once_
  00ae4	48 8b 44 24 38	 mov	 rax, QWORD PTR str$[rsp]
  00ae9	48 8b 8c 24 90
	01 00 00	 mov	 rcx, QWORD PTR idx$[rsp]
  00af1	0f b7 44 48 08	 movzx	 eax, WORD PTR [rax+rcx*2+8]
  00af6	89 84 24 e4 00
	00 00		 mov	 DWORD PTR tv425[rsp], eax
  00afd	eb 18		 jmp	 SHORT $LN92@scan_once_
$LN91@scan_once_:
  00aff	48 8b 44 24 38	 mov	 rax, QWORD PTR str$[rsp]
  00b04	48 8b 8c 24 90
	01 00 00	 mov	 rcx, QWORD PTR idx$[rsp]
  00b0c	8b 44 88 10	 mov	 eax, DWORD PTR [rax+rcx*4+16]
  00b10	89 84 24 e4 00
	00 00		 mov	 DWORD PTR tv425[rsp], eax
$LN92@scan_once_:
  00b17	8b 84 24 e4 00
	00 00		 mov	 eax, DWORD PTR tv425[rsp]
  00b1e	89 84 24 e0 00
	00 00		 mov	 DWORD PTR tv426[rsp], eax
$LN94@scan_once_:
  00b25	83 bc 24 e0 00
	00 00 65	 cmp	 DWORD PTR tv426[rsp], 101 ; 00000065H
  00b2d	75 2f		 jne	 SHORT $LN7@scan_once_

; 1027 :                 Py_INCREF(Py_False);

  00b2f	48 8d 0d 00 00
	00 00		 lea	 rcx, OFFSET FLAT:_Py_FalseStruct
  00b36	e8 00 00 00 00	 call	 _Py_IncRef

; 1028 :                 *next_idx_ptr = idx + 5;

  00b3b	48 8b 84 24 90
	01 00 00	 mov	 rax, QWORD PTR idx$[rsp]
  00b43	48 83 c0 05	 add	 rax, 5
  00b47	48 8b 8c 24 98
	01 00 00	 mov	 rcx, QWORD PTR next_idx_ptr$[rsp]
  00b4f	48 89 01	 mov	 QWORD PTR [rcx], rax

; 1029 :                 return Py_False;

  00b52	48 8d 05 00 00
	00 00		 lea	 rax, OFFSET FLAT:_Py_FalseStruct
  00b59	e9 32 09 00 00	 jmp	 $LN30@scan_once_
$LN7@scan_once_:

; 1030 :             }
; 1031 :             break;

  00b5e	e9 08 09 00 00	 jmp	 $LN26@scan_once_
$LN6@scan_once_:

; 1032 :         case 'N':
; 1033 :             /* NaN */
; 1034 :             if ((idx + 2 < length) && PyUnicode_READ(kind, str, idx + 1) == 'a' &&
; 1035 :                 PyUnicode_READ(kind, str, idx + 2) == 'N') {

  00b63	48 8b 84 24 90
	01 00 00	 mov	 rax, QWORD PTR idx$[rsp]
  00b6b	48 83 c0 02	 add	 rax, 2
  00b6f	48 3b 44 24 30	 cmp	 rax, QWORD PTR length$[rsp]
  00b74	0f 8d 1f 01 00
	00		 jge	 $LN5@scan_once_
  00b7a	83 7c 24 20 01	 cmp	 DWORD PTR kind$[rsp], 1
  00b7f	75 20		 jne	 SHORT $LN97@scan_once_
  00b81	48 8b 84 24 90
	01 00 00	 mov	 rax, QWORD PTR idx$[rsp]
  00b89	48 8b 4c 24 38	 mov	 rcx, QWORD PTR str$[rsp]
  00b8e	48 03 c8	 add	 rcx, rax
  00b91	48 8b c1	 mov	 rax, rcx
  00b94	0f b6 40 01	 movzx	 eax, BYTE PTR [rax+1]
  00b98	89 84 24 e8 00
	00 00		 mov	 DWORD PTR tv445[rsp], eax
  00b9f	eb 48		 jmp	 SHORT $LN98@scan_once_
$LN97@scan_once_:
  00ba1	83 7c 24 20 02	 cmp	 DWORD PTR kind$[rsp], 2
  00ba6	75 1b		 jne	 SHORT $LN95@scan_once_
  00ba8	48 8b 44 24 38	 mov	 rax, QWORD PTR str$[rsp]
  00bad	48 8b 8c 24 90
	01 00 00	 mov	 rcx, QWORD PTR idx$[rsp]
  00bb5	0f b7 44 48 02	 movzx	 eax, WORD PTR [rax+rcx*2+2]
  00bba	89 84 24 ec 00
	00 00		 mov	 DWORD PTR tv444[rsp], eax
  00bc1	eb 18		 jmp	 SHORT $LN96@scan_once_
$LN95@scan_once_:
  00bc3	48 8b 44 24 38	 mov	 rax, QWORD PTR str$[rsp]
  00bc8	48 8b 8c 24 90
	01 00 00	 mov	 rcx, QWORD PTR idx$[rsp]
  00bd0	8b 44 88 04	 mov	 eax, DWORD PTR [rax+rcx*4+4]
  00bd4	89 84 24 ec 00
	00 00		 mov	 DWORD PTR tv444[rsp], eax
$LN96@scan_once_:
  00bdb	8b 84 24 ec 00
	00 00		 mov	 eax, DWORD PTR tv444[rsp]
  00be2	89 84 24 e8 00
	00 00		 mov	 DWORD PTR tv445[rsp], eax
$LN98@scan_once_:
  00be9	83 bc 24 e8 00
	00 00 61	 cmp	 DWORD PTR tv445[rsp], 97 ; 00000061H
  00bf1	0f 85 a2 00 00
	00		 jne	 $LN5@scan_once_
  00bf7	83 7c 24 20 01	 cmp	 DWORD PTR kind$[rsp], 1
  00bfc	75 20		 jne	 SHORT $LN101@scan_once_
  00bfe	48 8b 84 24 90
	01 00 00	 mov	 rax, QWORD PTR idx$[rsp]
  00c06	48 8b 4c 24 38	 mov	 rcx, QWORD PTR str$[rsp]
  00c0b	48 03 c8	 add	 rcx, rax
  00c0e	48 8b c1	 mov	 rax, rcx
  00c11	0f b6 40 02	 movzx	 eax, BYTE PTR [rax+2]
  00c15	89 84 24 f0 00
	00 00		 mov	 DWORD PTR tv460[rsp], eax
  00c1c	eb 48		 jmp	 SHORT $LN102@scan_once_
$LN101@scan_once_:
  00c1e	83 7c 24 20 02	 cmp	 DWORD PTR kind$[rsp], 2
  00c23	75 1b		 jne	 SHORT $LN99@scan_once_
  00c25	48 8b 44 24 38	 mov	 rax, QWORD PTR str$[rsp]
  00c2a	48 8b 8c 24 90
	01 00 00	 mov	 rcx, QWORD PTR idx$[rsp]
  00c32	0f b7 44 48 04	 movzx	 eax, WORD PTR [rax+rcx*2+4]
  00c37	89 84 24 f4 00
	00 00		 mov	 DWORD PTR tv459[rsp], eax
  00c3e	eb 18		 jmp	 SHORT $LN100@scan_once_
$LN99@scan_once_:
  00c40	48 8b 44 24 38	 mov	 rax, QWORD PTR str$[rsp]
  00c45	48 8b 8c 24 90
	01 00 00	 mov	 rcx, QWORD PTR idx$[rsp]
  00c4d	8b 44 88 08	 mov	 eax, DWORD PTR [rax+rcx*4+8]
  00c51	89 84 24 f4 00
	00 00		 mov	 DWORD PTR tv459[rsp], eax
$LN100@scan_once_:
  00c58	8b 84 24 f4 00
	00 00		 mov	 eax, DWORD PTR tv459[rsp]
  00c5f	89 84 24 f0 00
	00 00		 mov	 DWORD PTR tv460[rsp], eax
$LN102@scan_once_:
  00c66	83 bc 24 f0 00
	00 00 4e	 cmp	 DWORD PTR tv460[rsp], 78 ; 0000004eH
  00c6e	75 29		 jne	 SHORT $LN5@scan_once_

; 1036 :                 return _parse_constant(s, "NaN", idx, next_idx_ptr);

  00c70	4c 8b 8c 24 98
	01 00 00	 mov	 r9, QWORD PTR next_idx_ptr$[rsp]
  00c78	4c 8b 84 24 90
	01 00 00	 mov	 r8, QWORD PTR idx$[rsp]
  00c80	48 8d 15 00 00
	00 00		 lea	 rdx, OFFSET FLAT:??_C@_03ICJPMMHB@NaN?$AA@
  00c87	48 8b 8c 24 80
	01 00 00	 mov	 rcx, QWORD PTR s$[rsp]
  00c8f	e8 00 00 00 00	 call	 _parse_constant
  00c94	e9 f7 07 00 00	 jmp	 $LN30@scan_once_
$LN5@scan_once_:

; 1037 :             }
; 1038 :             break;

  00c99	e9 cd 07 00 00	 jmp	 $LN26@scan_once_
$LN4@scan_once_:

; 1039 :         case 'I':
; 1040 :             /* Infinity */
; 1041 :             if ((idx + 7 < length) && PyUnicode_READ(kind, str, idx + 1) == 'n' &&
; 1042 :                 PyUnicode_READ(kind, str, idx + 2) == 'f' &&
; 1043 :                 PyUnicode_READ(kind, str, idx + 3) == 'i' &&
; 1044 :                 PyUnicode_READ(kind, str, idx + 4) == 'n' &&
; 1045 :                 PyUnicode_READ(kind, str, idx + 5) == 'i' &&
; 1046 :                 PyUnicode_READ(kind, str, idx + 6) == 't' &&
; 1047 :                 PyUnicode_READ(kind, str, idx + 7) == 'y') {

  00c9e	48 8b 84 24 90
	01 00 00	 mov	 rax, QWORD PTR idx$[rsp]
  00ca6	48 83 c0 07	 add	 rax, 7
  00caa	48 3b 44 24 30	 cmp	 rax, QWORD PTR length$[rsp]
  00caf	0f 8d 90 03 00
	00		 jge	 $LN3@scan_once_
  00cb5	83 7c 24 20 01	 cmp	 DWORD PTR kind$[rsp], 1
  00cba	75 20		 jne	 SHORT $LN105@scan_once_
  00cbc	48 8b 84 24 90
	01 00 00	 mov	 rax, QWORD PTR idx$[rsp]
  00cc4	48 8b 4c 24 38	 mov	 rcx, QWORD PTR str$[rsp]
  00cc9	48 03 c8	 add	 rcx, rax
  00ccc	48 8b c1	 mov	 rax, rcx
  00ccf	0f b6 40 01	 movzx	 eax, BYTE PTR [rax+1]
  00cd3	89 84 24 f8 00
	00 00		 mov	 DWORD PTR tv482[rsp], eax
  00cda	eb 48		 jmp	 SHORT $LN106@scan_once_
$LN105@scan_once_:
  00cdc	83 7c 24 20 02	 cmp	 DWORD PTR kind$[rsp], 2
  00ce1	75 1b		 jne	 SHORT $LN103@scan_once_
  00ce3	48 8b 44 24 38	 mov	 rax, QWORD PTR str$[rsp]
  00ce8	48 8b 8c 24 90
	01 00 00	 mov	 rcx, QWORD PTR idx$[rsp]
  00cf0	0f b7 44 48 02	 movzx	 eax, WORD PTR [rax+rcx*2+2]
  00cf5	89 84 24 fc 00
	00 00		 mov	 DWORD PTR tv481[rsp], eax
  00cfc	eb 18		 jmp	 SHORT $LN104@scan_once_
$LN103@scan_once_:
  00cfe	48 8b 44 24 38	 mov	 rax, QWORD PTR str$[rsp]
  00d03	48 8b 8c 24 90
	01 00 00	 mov	 rcx, QWORD PTR idx$[rsp]
  00d0b	8b 44 88 04	 mov	 eax, DWORD PTR [rax+rcx*4+4]
  00d0f	89 84 24 fc 00
	00 00		 mov	 DWORD PTR tv481[rsp], eax
$LN104@scan_once_:
  00d16	8b 84 24 fc 00
	00 00		 mov	 eax, DWORD PTR tv481[rsp]
  00d1d	89 84 24 f8 00
	00 00		 mov	 DWORD PTR tv482[rsp], eax
$LN106@scan_once_:
  00d24	83 bc 24 f8 00
	00 00 6e	 cmp	 DWORD PTR tv482[rsp], 110 ; 0000006eH
  00d2c	0f 85 13 03 00
	00		 jne	 $LN3@scan_once_
  00d32	83 7c 24 20 01	 cmp	 DWORD PTR kind$[rsp], 1
  00d37	75 20		 jne	 SHORT $LN109@scan_once_
  00d39	48 8b 84 24 90
	01 00 00	 mov	 rax, QWORD PTR idx$[rsp]
  00d41	48 8b 4c 24 38	 mov	 rcx, QWORD PTR str$[rsp]
  00d46	48 03 c8	 add	 rcx, rax
  00d49	48 8b c1	 mov	 rax, rcx
  00d4c	0f b6 40 02	 movzx	 eax, BYTE PTR [rax+2]
  00d50	89 84 24 00 01
	00 00		 mov	 DWORD PTR tv497[rsp], eax
  00d57	eb 48		 jmp	 SHORT $LN110@scan_once_
$LN109@scan_once_:
  00d59	83 7c 24 20 02	 cmp	 DWORD PTR kind$[rsp], 2
  00d5e	75 1b		 jne	 SHORT $LN107@scan_once_
  00d60	48 8b 44 24 38	 mov	 rax, QWORD PTR str$[rsp]
  00d65	48 8b 8c 24 90
	01 00 00	 mov	 rcx, QWORD PTR idx$[rsp]
  00d6d	0f b7 44 48 04	 movzx	 eax, WORD PTR [rax+rcx*2+4]
  00d72	89 84 24 04 01
	00 00		 mov	 DWORD PTR tv496[rsp], eax
  00d79	eb 18		 jmp	 SHORT $LN108@scan_once_
$LN107@scan_once_:
  00d7b	48 8b 44 24 38	 mov	 rax, QWORD PTR str$[rsp]
  00d80	48 8b 8c 24 90
	01 00 00	 mov	 rcx, QWORD PTR idx$[rsp]
  00d88	8b 44 88 08	 mov	 eax, DWORD PTR [rax+rcx*4+8]
  00d8c	89 84 24 04 01
	00 00		 mov	 DWORD PTR tv496[rsp], eax
$LN108@scan_once_:
  00d93	8b 84 24 04 01
	00 00		 mov	 eax, DWORD PTR tv496[rsp]
  00d9a	89 84 24 00 01
	00 00		 mov	 DWORD PTR tv497[rsp], eax
$LN110@scan_once_:
  00da1	83 bc 24 00 01
	00 00 66	 cmp	 DWORD PTR tv497[rsp], 102 ; 00000066H
  00da9	0f 85 96 02 00
	00		 jne	 $LN3@scan_once_
  00daf	83 7c 24 20 01	 cmp	 DWORD PTR kind$[rsp], 1
  00db4	75 20		 jne	 SHORT $LN113@scan_once_
  00db6	48 8b 84 24 90
	01 00 00	 mov	 rax, QWORD PTR idx$[rsp]
  00dbe	48 8b 4c 24 38	 mov	 rcx, QWORD PTR str$[rsp]
  00dc3	48 03 c8	 add	 rcx, rax
  00dc6	48 8b c1	 mov	 rax, rcx
  00dc9	0f b6 40 03	 movzx	 eax, BYTE PTR [rax+3]
  00dcd	89 84 24 08 01
	00 00		 mov	 DWORD PTR tv512[rsp], eax
  00dd4	eb 48		 jmp	 SHORT $LN114@scan_once_
$LN113@scan_once_:
  00dd6	83 7c 24 20 02	 cmp	 DWORD PTR kind$[rsp], 2
  00ddb	75 1b		 jne	 SHORT $LN111@scan_once_
  00ddd	48 8b 44 24 38	 mov	 rax, QWORD PTR str$[rsp]
  00de2	48 8b 8c 24 90
	01 00 00	 mov	 rcx, QWORD PTR idx$[rsp]
  00dea	0f b7 44 48 06	 movzx	 eax, WORD PTR [rax+rcx*2+6]
  00def	89 84 24 0c 01
	00 00		 mov	 DWORD PTR tv511[rsp], eax
  00df6	eb 18		 jmp	 SHORT $LN112@scan_once_
$LN111@scan_once_:
  00df8	48 8b 44 24 38	 mov	 rax, QWORD PTR str$[rsp]
  00dfd	48 8b 8c 24 90
	01 00 00	 mov	 rcx, QWORD PTR idx$[rsp]
  00e05	8b 44 88 0c	 mov	 eax, DWORD PTR [rax+rcx*4+12]
  00e09	89 84 24 0c 01
	00 00		 mov	 DWORD PTR tv511[rsp], eax
$LN112@scan_once_:
  00e10	8b 84 24 0c 01
	00 00		 mov	 eax, DWORD PTR tv511[rsp]
  00e17	89 84 24 08 01
	00 00		 mov	 DWORD PTR tv512[rsp], eax
$LN114@scan_once_:
  00e1e	83 bc 24 08 01
	00 00 69	 cmp	 DWORD PTR tv512[rsp], 105 ; 00000069H
  00e26	0f 85 19 02 00
	00		 jne	 $LN3@scan_once_
  00e2c	83 7c 24 20 01	 cmp	 DWORD PTR kind$[rsp], 1
  00e31	75 20		 jne	 SHORT $LN117@scan_once_
  00e33	48 8b 84 24 90
	01 00 00	 mov	 rax, QWORD PTR idx$[rsp]
  00e3b	48 8b 4c 24 38	 mov	 rcx, QWORD PTR str$[rsp]
  00e40	48 03 c8	 add	 rcx, rax
  00e43	48 8b c1	 mov	 rax, rcx
  00e46	0f b6 40 04	 movzx	 eax, BYTE PTR [rax+4]
  00e4a	89 84 24 10 01
	00 00		 mov	 DWORD PTR tv527[rsp], eax
  00e51	eb 48		 jmp	 SHORT $LN118@scan_once_
$LN117@scan_once_:
  00e53	83 7c 24 20 02	 cmp	 DWORD PTR kind$[rsp], 2
  00e58	75 1b		 jne	 SHORT $LN115@scan_once_
  00e5a	48 8b 44 24 38	 mov	 rax, QWORD PTR str$[rsp]
  00e5f	48 8b 8c 24 90
	01 00 00	 mov	 rcx, QWORD PTR idx$[rsp]
  00e67	0f b7 44 48 08	 movzx	 eax, WORD PTR [rax+rcx*2+8]
  00e6c	89 84 24 14 01
	00 00		 mov	 DWORD PTR tv526[rsp], eax
  00e73	eb 18		 jmp	 SHORT $LN116@scan_once_
$LN115@scan_once_:
  00e75	48 8b 44 24 38	 mov	 rax, QWORD PTR str$[rsp]
  00e7a	48 8b 8c 24 90
	01 00 00	 mov	 rcx, QWORD PTR idx$[rsp]
  00e82	8b 44 88 10	 mov	 eax, DWORD PTR [rax+rcx*4+16]
  00e86	89 84 24 14 01
	00 00		 mov	 DWORD PTR tv526[rsp], eax
$LN116@scan_once_:
  00e8d	8b 84 24 14 01
	00 00		 mov	 eax, DWORD PTR tv526[rsp]
  00e94	89 84 24 10 01
	00 00		 mov	 DWORD PTR tv527[rsp], eax
$LN118@scan_once_:
  00e9b	83 bc 24 10 01
	00 00 6e	 cmp	 DWORD PTR tv527[rsp], 110 ; 0000006eH
  00ea3	0f 85 9c 01 00
	00		 jne	 $LN3@scan_once_
  00ea9	83 7c 24 20 01	 cmp	 DWORD PTR kind$[rsp], 1
  00eae	75 20		 jne	 SHORT $LN121@scan_once_
  00eb0	48 8b 84 24 90
	01 00 00	 mov	 rax, QWORD PTR idx$[rsp]
  00eb8	48 8b 4c 24 38	 mov	 rcx, QWORD PTR str$[rsp]
  00ebd	48 03 c8	 add	 rcx, rax
  00ec0	48 8b c1	 mov	 rax, rcx
  00ec3	0f b6 40 05	 movzx	 eax, BYTE PTR [rax+5]
  00ec7	89 84 24 18 01
	00 00		 mov	 DWORD PTR tv542[rsp], eax
  00ece	eb 48		 jmp	 SHORT $LN122@scan_once_
$LN121@scan_once_:
  00ed0	83 7c 24 20 02	 cmp	 DWORD PTR kind$[rsp], 2
  00ed5	75 1b		 jne	 SHORT $LN119@scan_once_
  00ed7	48 8b 44 24 38	 mov	 rax, QWORD PTR str$[rsp]
  00edc	48 8b 8c 24 90
	01 00 00	 mov	 rcx, QWORD PTR idx$[rsp]
  00ee4	0f b7 44 48 0a	 movzx	 eax, WORD PTR [rax+rcx*2+10]
  00ee9	89 84 24 1c 01
	00 00		 mov	 DWORD PTR tv541[rsp], eax
  00ef0	eb 18		 jmp	 SHORT $LN120@scan_once_
$LN119@scan_once_:
  00ef2	48 8b 44 24 38	 mov	 rax, QWORD PTR str$[rsp]
  00ef7	48 8b 8c 24 90
	01 00 00	 mov	 rcx, QWORD PTR idx$[rsp]
  00eff	8b 44 88 14	 mov	 eax, DWORD PTR [rax+rcx*4+20]
  00f03	89 84 24 1c 01
	00 00		 mov	 DWORD PTR tv541[rsp], eax
$LN120@scan_once_:
  00f0a	8b 84 24 1c 01
	00 00		 mov	 eax, DWORD PTR tv541[rsp]
  00f11	89 84 24 18 01
	00 00		 mov	 DWORD PTR tv542[rsp], eax
$LN122@scan_once_:
  00f18	83 bc 24 18 01
	00 00 69	 cmp	 DWORD PTR tv542[rsp], 105 ; 00000069H
  00f20	0f 85 1f 01 00
	00		 jne	 $LN3@scan_once_
  00f26	83 7c 24 20 01	 cmp	 DWORD PTR kind$[rsp], 1
  00f2b	75 20		 jne	 SHORT $LN125@scan_once_
  00f2d	48 8b 84 24 90
	01 00 00	 mov	 rax, QWORD PTR idx$[rsp]
  00f35	48 8b 4c 24 38	 mov	 rcx, QWORD PTR str$[rsp]
  00f3a	48 03 c8	 add	 rcx, rax
  00f3d	48 8b c1	 mov	 rax, rcx
  00f40	0f b6 40 06	 movzx	 eax, BYTE PTR [rax+6]
  00f44	89 84 24 20 01
	00 00		 mov	 DWORD PTR tv557[rsp], eax
  00f4b	eb 48		 jmp	 SHORT $LN126@scan_once_
$LN125@scan_once_:
  00f4d	83 7c 24 20 02	 cmp	 DWORD PTR kind$[rsp], 2
  00f52	75 1b		 jne	 SHORT $LN123@scan_once_
  00f54	48 8b 44 24 38	 mov	 rax, QWORD PTR str$[rsp]
  00f59	48 8b 8c 24 90
	01 00 00	 mov	 rcx, QWORD PTR idx$[rsp]
  00f61	0f b7 44 48 0c	 movzx	 eax, WORD PTR [rax+rcx*2+12]
  00f66	89 84 24 24 01
	00 00		 mov	 DWORD PTR tv556[rsp], eax
  00f6d	eb 18		 jmp	 SHORT $LN124@scan_once_
$LN123@scan_once_:
  00f6f	48 8b 44 24 38	 mov	 rax, QWORD PTR str$[rsp]
  00f74	48 8b 8c 24 90
	01 00 00	 mov	 rcx, QWORD PTR idx$[rsp]
  00f7c	8b 44 88 18	 mov	 eax, DWORD PTR [rax+rcx*4+24]
  00f80	89 84 24 24 01
	00 00		 mov	 DWORD PTR tv556[rsp], eax
$LN124@scan_once_:
  00f87	8b 84 24 24 01
	00 00		 mov	 eax, DWORD PTR tv556[rsp]
  00f8e	89 84 24 20 01
	00 00		 mov	 DWORD PTR tv557[rsp], eax
$LN126@scan_once_:
  00f95	83 bc 24 20 01
	00 00 74	 cmp	 DWORD PTR tv557[rsp], 116 ; 00000074H
  00f9d	0f 85 a2 00 00
	00		 jne	 $LN3@scan_once_
  00fa3	83 7c 24 20 01	 cmp	 DWORD PTR kind$[rsp], 1
  00fa8	75 20		 jne	 SHORT $LN129@scan_once_
  00faa	48 8b 84 24 90
	01 00 00	 mov	 rax, QWORD PTR idx$[rsp]
  00fb2	48 8b 4c 24 38	 mov	 rcx, QWORD PTR str$[rsp]
  00fb7	48 03 c8	 add	 rcx, rax
  00fba	48 8b c1	 mov	 rax, rcx
  00fbd	0f b6 40 07	 movzx	 eax, BYTE PTR [rax+7]
  00fc1	89 84 24 28 01
	00 00		 mov	 DWORD PTR tv572[rsp], eax
  00fc8	eb 48		 jmp	 SHORT $LN130@scan_once_
$LN129@scan_once_:
  00fca	83 7c 24 20 02	 cmp	 DWORD PTR kind$[rsp], 2
  00fcf	75 1b		 jne	 SHORT $LN127@scan_once_
  00fd1	48 8b 44 24 38	 mov	 rax, QWORD PTR str$[rsp]
  00fd6	48 8b 8c 24 90
	01 00 00	 mov	 rcx, QWORD PTR idx$[rsp]
  00fde	0f b7 44 48 0e	 movzx	 eax, WORD PTR [rax+rcx*2+14]
  00fe3	89 84 24 2c 01
	00 00		 mov	 DWORD PTR tv571[rsp], eax
  00fea	eb 18		 jmp	 SHORT $LN128@scan_once_
$LN127@scan_once_:
  00fec	48 8b 44 24 38	 mov	 rax, QWORD PTR str$[rsp]
  00ff1	48 8b 8c 24 90
	01 00 00	 mov	 rcx, QWORD PTR idx$[rsp]
  00ff9	8b 44 88 1c	 mov	 eax, DWORD PTR [rax+rcx*4+28]
  00ffd	89 84 24 2c 01
	00 00		 mov	 DWORD PTR tv571[rsp], eax
$LN128@scan_once_:
  01004	8b 84 24 2c 01
	00 00		 mov	 eax, DWORD PTR tv571[rsp]
  0100b	89 84 24 28 01
	00 00		 mov	 DWORD PTR tv572[rsp], eax
$LN130@scan_once_:
  01012	83 bc 24 28 01
	00 00 79	 cmp	 DWORD PTR tv572[rsp], 121 ; 00000079H
  0101a	75 29		 jne	 SHORT $LN3@scan_once_

; 1048 :                 return _parse_constant(s, "Infinity", idx, next_idx_ptr);

  0101c	4c 8b 8c 24 98
	01 00 00	 mov	 r9, QWORD PTR next_idx_ptr$[rsp]
  01024	4c 8b 84 24 90
	01 00 00	 mov	 r8, QWORD PTR idx$[rsp]
  0102c	48 8d 15 00 00
	00 00		 lea	 rdx, OFFSET FLAT:??_C@_08KEBCLIFP@Infinity?$AA@
  01033	48 8b 8c 24 80
	01 00 00	 mov	 rcx, QWORD PTR s$[rsp]
  0103b	e8 00 00 00 00	 call	 _parse_constant
  01040	e9 4b 04 00 00	 jmp	 $LN30@scan_once_
$LN3@scan_once_:

; 1049 :             }
; 1050 :             break;

  01045	e9 21 04 00 00	 jmp	 $LN26@scan_once_
$LN2@scan_once_:

; 1051 :         case '-':
; 1052 :             /* -Infinity */
; 1053 :             if ((idx + 8 < length) && PyUnicode_READ(kind, str, idx + 1) == 'I' &&
; 1054 :                 PyUnicode_READ(kind, str, idx + 2) == 'n' &&
; 1055 :                 PyUnicode_READ(kind, str, idx + 3) == 'f' &&
; 1056 :                 PyUnicode_READ(kind, str, idx + 4) == 'i' &&
; 1057 :                 PyUnicode_READ(kind, str, idx + 5) == 'n' &&
; 1058 :                 PyUnicode_READ(kind, str, idx + 6) == 'i' &&
; 1059 :                 PyUnicode_READ(kind, str, idx + 7) == 't' &&
; 1060 :                 PyUnicode_READ(kind, str, idx + 8) == 'y') {

  0104a	48 8b 84 24 90
	01 00 00	 mov	 rax, QWORD PTR idx$[rsp]
  01052	48 83 c0 08	 add	 rax, 8
  01056	48 3b 44 24 30	 cmp	 rax, QWORD PTR length$[rsp]
  0105b	0f 8d 0a 04 00
	00		 jge	 $LN1@scan_once_
  01061	83 7c 24 20 01	 cmp	 DWORD PTR kind$[rsp], 1
  01066	75 20		 jne	 SHORT $LN133@scan_once_
  01068	48 8b 84 24 90
	01 00 00	 mov	 rax, QWORD PTR idx$[rsp]
  01070	48 8b 4c 24 38	 mov	 rcx, QWORD PTR str$[rsp]
  01075	48 03 c8	 add	 rcx, rax
  01078	48 8b c1	 mov	 rax, rcx
  0107b	0f b6 40 01	 movzx	 eax, BYTE PTR [rax+1]
  0107f	89 84 24 30 01
	00 00		 mov	 DWORD PTR tv594[rsp], eax
  01086	eb 48		 jmp	 SHORT $LN134@scan_once_
$LN133@scan_once_:
  01088	83 7c 24 20 02	 cmp	 DWORD PTR kind$[rsp], 2
  0108d	75 1b		 jne	 SHORT $LN131@scan_once_
  0108f	48 8b 44 24 38	 mov	 rax, QWORD PTR str$[rsp]
  01094	48 8b 8c 24 90
	01 00 00	 mov	 rcx, QWORD PTR idx$[rsp]
  0109c	0f b7 44 48 02	 movzx	 eax, WORD PTR [rax+rcx*2+2]
  010a1	89 84 24 34 01
	00 00		 mov	 DWORD PTR tv593[rsp], eax
  010a8	eb 18		 jmp	 SHORT $LN132@scan_once_
$LN131@scan_once_:
  010aa	48 8b 44 24 38	 mov	 rax, QWORD PTR str$[rsp]
  010af	48 8b 8c 24 90
	01 00 00	 mov	 rcx, QWORD PTR idx$[rsp]
  010b7	8b 44 88 04	 mov	 eax, DWORD PTR [rax+rcx*4+4]
  010bb	89 84 24 34 01
	00 00		 mov	 DWORD PTR tv593[rsp], eax
$LN132@scan_once_:
  010c2	8b 84 24 34 01
	00 00		 mov	 eax, DWORD PTR tv593[rsp]
  010c9	89 84 24 30 01
	00 00		 mov	 DWORD PTR tv594[rsp], eax
$LN134@scan_once_:
  010d0	83 bc 24 30 01
	00 00 49	 cmp	 DWORD PTR tv594[rsp], 73 ; 00000049H
  010d8	0f 85 8d 03 00
	00		 jne	 $LN1@scan_once_
  010de	83 7c 24 20 01	 cmp	 DWORD PTR kind$[rsp], 1
  010e3	75 20		 jne	 SHORT $LN137@scan_once_
  010e5	48 8b 84 24 90
	01 00 00	 mov	 rax, QWORD PTR idx$[rsp]
  010ed	48 8b 4c 24 38	 mov	 rcx, QWORD PTR str$[rsp]
  010f2	48 03 c8	 add	 rcx, rax
  010f5	48 8b c1	 mov	 rax, rcx
  010f8	0f b6 40 02	 movzx	 eax, BYTE PTR [rax+2]
  010fc	89 84 24 38 01
	00 00		 mov	 DWORD PTR tv609[rsp], eax
  01103	eb 48		 jmp	 SHORT $LN138@scan_once_
$LN137@scan_once_:
  01105	83 7c 24 20 02	 cmp	 DWORD PTR kind$[rsp], 2
  0110a	75 1b		 jne	 SHORT $LN135@scan_once_
  0110c	48 8b 44 24 38	 mov	 rax, QWORD PTR str$[rsp]
  01111	48 8b 8c 24 90
	01 00 00	 mov	 rcx, QWORD PTR idx$[rsp]
  01119	0f b7 44 48 04	 movzx	 eax, WORD PTR [rax+rcx*2+4]
  0111e	89 84 24 3c 01
	00 00		 mov	 DWORD PTR tv608[rsp], eax
  01125	eb 18		 jmp	 SHORT $LN136@scan_once_
$LN135@scan_once_:
  01127	48 8b 44 24 38	 mov	 rax, QWORD PTR str$[rsp]
  0112c	48 8b 8c 24 90
	01 00 00	 mov	 rcx, QWORD PTR idx$[rsp]
  01134	8b 44 88 08	 mov	 eax, DWORD PTR [rax+rcx*4+8]
  01138	89 84 24 3c 01
	00 00		 mov	 DWORD PTR tv608[rsp], eax
$LN136@scan_once_:
  0113f	8b 84 24 3c 01
	00 00		 mov	 eax, DWORD PTR tv608[rsp]
  01146	89 84 24 38 01
	00 00		 mov	 DWORD PTR tv609[rsp], eax
$LN138@scan_once_:
  0114d	83 bc 24 38 01
	00 00 6e	 cmp	 DWORD PTR tv609[rsp], 110 ; 0000006eH
  01155	0f 85 10 03 00
	00		 jne	 $LN1@scan_once_
  0115b	83 7c 24 20 01	 cmp	 DWORD PTR kind$[rsp], 1
  01160	75 20		 jne	 SHORT $LN141@scan_once_
  01162	48 8b 84 24 90
	01 00 00	 mov	 rax, QWORD PTR idx$[rsp]
  0116a	48 8b 4c 24 38	 mov	 rcx, QWORD PTR str$[rsp]
  0116f	48 03 c8	 add	 rcx, rax
  01172	48 8b c1	 mov	 rax, rcx
  01175	0f b6 40 03	 movzx	 eax, BYTE PTR [rax+3]
  01179	89 84 24 40 01
	00 00		 mov	 DWORD PTR tv624[rsp], eax
  01180	eb 48		 jmp	 SHORT $LN142@scan_once_
$LN141@scan_once_:
  01182	83 7c 24 20 02	 cmp	 DWORD PTR kind$[rsp], 2
  01187	75 1b		 jne	 SHORT $LN139@scan_once_
  01189	48 8b 44 24 38	 mov	 rax, QWORD PTR str$[rsp]
  0118e	48 8b 8c 24 90
	01 00 00	 mov	 rcx, QWORD PTR idx$[rsp]
  01196	0f b7 44 48 06	 movzx	 eax, WORD PTR [rax+rcx*2+6]
  0119b	89 84 24 44 01
	00 00		 mov	 DWORD PTR tv623[rsp], eax
  011a2	eb 18		 jmp	 SHORT $LN140@scan_once_
$LN139@scan_once_:
  011a4	48 8b 44 24 38	 mov	 rax, QWORD PTR str$[rsp]
  011a9	48 8b 8c 24 90
	01 00 00	 mov	 rcx, QWORD PTR idx$[rsp]
  011b1	8b 44 88 0c	 mov	 eax, DWORD PTR [rax+rcx*4+12]
  011b5	89 84 24 44 01
	00 00		 mov	 DWORD PTR tv623[rsp], eax
$LN140@scan_once_:
  011bc	8b 84 24 44 01
	00 00		 mov	 eax, DWORD PTR tv623[rsp]
  011c3	89 84 24 40 01
	00 00		 mov	 DWORD PTR tv624[rsp], eax
$LN142@scan_once_:
  011ca	83 bc 24 40 01
	00 00 66	 cmp	 DWORD PTR tv624[rsp], 102 ; 00000066H
  011d2	0f 85 93 02 00
	00		 jne	 $LN1@scan_once_
  011d8	83 7c 24 20 01	 cmp	 DWORD PTR kind$[rsp], 1
  011dd	75 20		 jne	 SHORT $LN145@scan_once_
  011df	48 8b 84 24 90
	01 00 00	 mov	 rax, QWORD PTR idx$[rsp]
  011e7	48 8b 4c 24 38	 mov	 rcx, QWORD PTR str$[rsp]
  011ec	48 03 c8	 add	 rcx, rax
  011ef	48 8b c1	 mov	 rax, rcx
  011f2	0f b6 40 04	 movzx	 eax, BYTE PTR [rax+4]
  011f6	89 84 24 48 01
	00 00		 mov	 DWORD PTR tv639[rsp], eax
  011fd	eb 48		 jmp	 SHORT $LN146@scan_once_
$LN145@scan_once_:
  011ff	83 7c 24 20 02	 cmp	 DWORD PTR kind$[rsp], 2
  01204	75 1b		 jne	 SHORT $LN143@scan_once_
  01206	48 8b 44 24 38	 mov	 rax, QWORD PTR str$[rsp]
  0120b	48 8b 8c 24 90
	01 00 00	 mov	 rcx, QWORD PTR idx$[rsp]
  01213	0f b7 44 48 08	 movzx	 eax, WORD PTR [rax+rcx*2+8]
  01218	89 84 24 4c 01
	00 00		 mov	 DWORD PTR tv638[rsp], eax
  0121f	eb 18		 jmp	 SHORT $LN144@scan_once_
$LN143@scan_once_:
  01221	48 8b 44 24 38	 mov	 rax, QWORD PTR str$[rsp]
  01226	48 8b 8c 24 90
	01 00 00	 mov	 rcx, QWORD PTR idx$[rsp]
  0122e	8b 44 88 10	 mov	 eax, DWORD PTR [rax+rcx*4+16]
  01232	89 84 24 4c 01
	00 00		 mov	 DWORD PTR tv638[rsp], eax
$LN144@scan_once_:
  01239	8b 84 24 4c 01
	00 00		 mov	 eax, DWORD PTR tv638[rsp]
  01240	89 84 24 48 01
	00 00		 mov	 DWORD PTR tv639[rsp], eax
$LN146@scan_once_:
  01247	83 bc 24 48 01
	00 00 69	 cmp	 DWORD PTR tv639[rsp], 105 ; 00000069H
  0124f	0f 85 16 02 00
	00		 jne	 $LN1@scan_once_
  01255	83 7c 24 20 01	 cmp	 DWORD PTR kind$[rsp], 1
  0125a	75 20		 jne	 SHORT $LN149@scan_once_
  0125c	48 8b 84 24 90
	01 00 00	 mov	 rax, QWORD PTR idx$[rsp]
  01264	48 8b 4c 24 38	 mov	 rcx, QWORD PTR str$[rsp]
  01269	48 03 c8	 add	 rcx, rax
  0126c	48 8b c1	 mov	 rax, rcx
  0126f	0f b6 40 05	 movzx	 eax, BYTE PTR [rax+5]
  01273	89 84 24 50 01
	00 00		 mov	 DWORD PTR tv654[rsp], eax
  0127a	eb 48		 jmp	 SHORT $LN150@scan_once_
$LN149@scan_once_:
  0127c	83 7c 24 20 02	 cmp	 DWORD PTR kind$[rsp], 2
  01281	75 1b		 jne	 SHORT $LN147@scan_once_
  01283	48 8b 44 24 38	 mov	 rax, QWORD PTR str$[rsp]
  01288	48 8b 8c 24 90
	01 00 00	 mov	 rcx, QWORD PTR idx$[rsp]
  01290	0f b7 44 48 0a	 movzx	 eax, WORD PTR [rax+rcx*2+10]
  01295	89 84 24 54 01
	00 00		 mov	 DWORD PTR tv653[rsp], eax
  0129c	eb 18		 jmp	 SHORT $LN148@scan_once_
$LN147@scan_once_:
  0129e	48 8b 44 24 38	 mov	 rax, QWORD PTR str$[rsp]
  012a3	48 8b 8c 24 90
	01 00 00	 mov	 rcx, QWORD PTR idx$[rsp]
  012ab	8b 44 88 14	 mov	 eax, DWORD PTR [rax+rcx*4+20]
  012af	89 84 24 54 01
	00 00		 mov	 DWORD PTR tv653[rsp], eax
$LN148@scan_once_:
  012b6	8b 84 24 54 01
	00 00		 mov	 eax, DWORD PTR tv653[rsp]
  012bd	89 84 24 50 01
	00 00		 mov	 DWORD PTR tv654[rsp], eax
$LN150@scan_once_:
  012c4	83 bc 24 50 01
	00 00 6e	 cmp	 DWORD PTR tv654[rsp], 110 ; 0000006eH
  012cc	0f 85 99 01 00
	00		 jne	 $LN1@scan_once_
  012d2	83 7c 24 20 01	 cmp	 DWORD PTR kind$[rsp], 1
  012d7	75 20		 jne	 SHORT $LN153@scan_once_
  012d9	48 8b 84 24 90
	01 00 00	 mov	 rax, QWORD PTR idx$[rsp]
  012e1	48 8b 4c 24 38	 mov	 rcx, QWORD PTR str$[rsp]
  012e6	48 03 c8	 add	 rcx, rax
  012e9	48 8b c1	 mov	 rax, rcx
  012ec	0f b6 40 06	 movzx	 eax, BYTE PTR [rax+6]
  012f0	89 84 24 58 01
	00 00		 mov	 DWORD PTR tv669[rsp], eax
  012f7	eb 48		 jmp	 SHORT $LN154@scan_once_
$LN153@scan_once_:
  012f9	83 7c 24 20 02	 cmp	 DWORD PTR kind$[rsp], 2
  012fe	75 1b		 jne	 SHORT $LN151@scan_once_
  01300	48 8b 44 24 38	 mov	 rax, QWORD PTR str$[rsp]
  01305	48 8b 8c 24 90
	01 00 00	 mov	 rcx, QWORD PTR idx$[rsp]
  0130d	0f b7 44 48 0c	 movzx	 eax, WORD PTR [rax+rcx*2+12]
  01312	89 84 24 5c 01
	00 00		 mov	 DWORD PTR tv668[rsp], eax
  01319	eb 18		 jmp	 SHORT $LN152@scan_once_
$LN151@scan_once_:
  0131b	48 8b 44 24 38	 mov	 rax, QWORD PTR str$[rsp]
  01320	48 8b 8c 24 90
	01 00 00	 mov	 rcx, QWORD PTR idx$[rsp]
  01328	8b 44 88 18	 mov	 eax, DWORD PTR [rax+rcx*4+24]
  0132c	89 84 24 5c 01
	00 00		 mov	 DWORD PTR tv668[rsp], eax
$LN152@scan_once_:
  01333	8b 84 24 5c 01
	00 00		 mov	 eax, DWORD PTR tv668[rsp]
  0133a	89 84 24 58 01
	00 00		 mov	 DWORD PTR tv669[rsp], eax
$LN154@scan_once_:
  01341	83 bc 24 58 01
	00 00 69	 cmp	 DWORD PTR tv669[rsp], 105 ; 00000069H
  01349	0f 85 1c 01 00
	00		 jne	 $LN1@scan_once_
  0134f	83 7c 24 20 01	 cmp	 DWORD PTR kind$[rsp], 1
  01354	75 20		 jne	 SHORT $LN157@scan_once_
  01356	48 8b 84 24 90
	01 00 00	 mov	 rax, QWORD PTR idx$[rsp]
  0135e	48 8b 4c 24 38	 mov	 rcx, QWORD PTR str$[rsp]
  01363	48 03 c8	 add	 rcx, rax
  01366	48 8b c1	 mov	 rax, rcx
  01369	0f b6 40 07	 movzx	 eax, BYTE PTR [rax+7]
  0136d	89 84 24 60 01
	00 00		 mov	 DWORD PTR tv684[rsp], eax
  01374	eb 48		 jmp	 SHORT $LN158@scan_once_
$LN157@scan_once_:
  01376	83 7c 24 20 02	 cmp	 DWORD PTR kind$[rsp], 2
  0137b	75 1b		 jne	 SHORT $LN155@scan_once_
  0137d	48 8b 44 24 38	 mov	 rax, QWORD PTR str$[rsp]
  01382	48 8b 8c 24 90
	01 00 00	 mov	 rcx, QWORD PTR idx$[rsp]
  0138a	0f b7 44 48 0e	 movzx	 eax, WORD PTR [rax+rcx*2+14]
  0138f	89 84 24 64 01
	00 00		 mov	 DWORD PTR tv683[rsp], eax
  01396	eb 18		 jmp	 SHORT $LN156@scan_once_
$LN155@scan_once_:
  01398	48 8b 44 24 38	 mov	 rax, QWORD PTR str$[rsp]
  0139d	48 8b 8c 24 90
	01 00 00	 mov	 rcx, QWORD PTR idx$[rsp]
  013a5	8b 44 88 1c	 mov	 eax, DWORD PTR [rax+rcx*4+28]
  013a9	89 84 24 64 01
	00 00		 mov	 DWORD PTR tv683[rsp], eax
$LN156@scan_once_:
  013b0	8b 84 24 64 01
	00 00		 mov	 eax, DWORD PTR tv683[rsp]
  013b7	89 84 24 60 01
	00 00		 mov	 DWORD PTR tv684[rsp], eax
$LN158@scan_once_:
  013be	83 bc 24 60 01
	00 00 74	 cmp	 DWORD PTR tv684[rsp], 116 ; 00000074H
  013c6	0f 85 9f 00 00
	00		 jne	 $LN1@scan_once_
  013cc	83 7c 24 20 01	 cmp	 DWORD PTR kind$[rsp], 1
  013d1	75 20		 jne	 SHORT $LN161@scan_once_
  013d3	48 8b 84 24 90
	01 00 00	 mov	 rax, QWORD PTR idx$[rsp]
  013db	48 8b 4c 24 38	 mov	 rcx, QWORD PTR str$[rsp]
  013e0	48 03 c8	 add	 rcx, rax
