; Listing generated by Microsoft (R) Optimizing Compiler Version 16.00.40219.01 

include listing.inc

INCLUDELIB MSVCRTD
INCLUDELIB OLDNAMES

PUBLIC	??_C@_07LOLKJPHM@_pickle?$AA@			; `string'
PUBLIC	??_C@_05OCDPKIEO@loads?$AA@			; `string'
PUBLIC	??_C@_05HFMFBBBE@dumps?$AA@			; `string'
PUBLIC	??_C@_05DFJCHPDH@input?$AA@			; `string'
PUBLIC	??_C@_03GJLPFLNF@obj?$AA@			; `string'
PUBLIC	??_C@_0BC@CBEKFMIK@_pickle?4Unpickler?$AA@	; `string'
PUBLIC	??_C@_0BL@NOBPPGDL@_pickle?4UnpicklerMemoProxy?$AA@ ; `string'
PUBLIC	??_C@_0BA@NNFEJGCF@persistent_load?$AA@		; `string'
PUBLIC	??_C@_06EOMHCNPI@errors?$AA@			; `string'
PUBLIC	??_C@_08MLPGAEIK@encoding?$AA@			; `string'
PUBLIC	??_C@_04EONOHKEP@load?$AA@			; `string'
PUBLIC	??_C@_08IBFKALI@__dict__?$AA@			; `string'
PUBLIC	??_C@_0N@MOOGCAMH@__setstate__?$AA@		; `string'
PUBLIC	??_C@_06PCICMFGG@append?$AA@			; `string'
PUBLIC	??_C@_07MEBHOIG@__new__?$AA@			; `string'
PUBLIC	??_C@_0BA@NHLJJDN@__getinitargs__?$AA@		; `string'
PUBLIC	??_C@_0L@BHOLNLBJ@find_class?$AA@		; `string'
PUBLIC	??_C@_0BA@LFIFMGAB@_pickle?4Pickler?$AA@	; `string'
PUBLIC	??_C@_04PGONJDDE@memo?$AA@			; `string'
PUBLIC	??_C@_04LBNBHAJC@fast?$AA@			; `string'
PUBLIC	??_C@_03PDOMKJON@bin?$AA@			; `string'
PUBLIC	??_C@_0BJ@DIPNHLKH@_pickle?4PicklerMemoProxy?$AA@ ; `string'
PUBLIC	??_C@_0L@NNMACJIG@__reduce__?$AA@		; `string'
PUBLIC	??_C@_04COAGEIMF@copy?$AA@			; `string'
PUBLIC	??_C@_05MEHLAELG@clear?$AA@			; `string'
PUBLIC	??_C@_0P@MAJNENGA@dispatch_table?$AA@		; `string'
PUBLIC	??_C@_0O@IGFLDCPG@persistent_id?$AA@		; `string'
PUBLIC	??_C@_0M@IDPAOKEI@fix_imports?$AA@		; `string'
PUBLIC	??_C@_08FCFPNNHF@protocol?$AA@			; `string'
PUBLIC	??_C@_04DAMGJPCA@file?$AA@			; `string'
PUBLIC	??_C@_0L@NFDPNOOM@clear_memo?$AA@		; `string'
PUBLIC	??_C@_04GGLOKIEE@dump?$AA@			; `string'
PUBLIC	??_C@_05CFHBDDLG@items?$AA@			; `string'
PUBLIC	??_C@_04EDFDKNFG@I01?6?$AA@			; `string'
PUBLIC	??_C@_04ECJBMHGB@I00?6?$AA@			; `string'
PUBLIC	??_C@_08KBCDPPMN@readline?$AA@			; `string'
PUBLIC	??_C@_04POLDLDMI@read?$AA@			; `string'
PUBLIC	??_C@_04EOCFELL@peek?$AA@			; `string'
PUBLIC	??_C@_05NGFEDHGN@write?$AA@			; `string'
PUBLIC	??_C@_0O@MBIDJBCI@_pickle?4Pdata?$AA@		; `string'
EXTRN	PyObject_GC_Del:PROC
EXTRN	PyType_GenericNew:PROC
EXTRN	PyType_GenericAlloc:PROC
EXTRN	PyObject_GenericSetAttr:PROC
EXTRN	PyObject_GenericGetAttr:PROC
EXTRN	PyObject_HashNotImplemented:PROC
_BSS	SEGMENT
PickleError DQ	01H DUP (?)
PicklingError DQ 01H DUP (?)
UnpicklingError DQ 01H DUP (?)
dispatch_table DQ 01H DUP (?)
extension_registry DQ 01H DUP (?)
inverted_registry DQ 01H DUP (?)
extension_cache DQ 01H DUP (?)
name_mapping_2to3 DQ 01H DUP (?)
import_mapping_2to3 DQ 01H DUP (?)
name_mapping_3to2 DQ 01H DUP (?)
import_mapping_3to2 DQ 01H DUP (?)
empty_tuple DQ	01H DUP (?)
two_tuple DQ	01H DUP (?)
?module_str@?1??whichmodule@@9@9 DQ 01H DUP (?)		; `whichmodule'::`2'::module_str
?main_str@?1??whichmodule@@9@9 DQ 01H DUP (?)		; `whichmodule'::`2'::main_str
?codecs_encode@?2??save_bytes@@9@9 DQ 01H DUP (?)	; `save_bytes'::`3'::codecs_encode
?latin1@?7??save_bytes@@9@9 DQ 01H DUP (?)		; `save_bytes'::`8'::latin1
?name_str@?1??save_global@@9@9 DQ 01H DUP (?)		; `save_global'::`2'::name_str
?newobj_str@?7??save_reduce@@9@9 DQ 01H DUP (?)		; `save_reduce'::`8'::newobj_str
?name_str@?7??save_reduce@@9@9 DQ 01H DUP (?)		; `save_reduce'::`8'::name_str
?reduce_str@?BL@??save@@9@9 DQ 01H DUP (?)		; `save'::`27'::reduce_str
?reduce_ex_str@?BL@??save@@9@9 DQ 01H DUP (?)		; `save'::`27'::reduce_ex_str
_BSS	ENDS
;	COMDAT ??_C@_07LOLKJPHM@_pickle?$AA@
CONST	SEGMENT
??_C@_07LOLKJPHM@_pickle?$AA@ DB '_pickle', 00H		; `string'
CONST	ENDS
;	COMDAT ??_C@_05OCDPKIEO@loads?$AA@
CONST	SEGMENT
??_C@_05OCDPKIEO@loads?$AA@ DB 'loads', 00H		; `string'
CONST	ENDS
;	COMDAT ??_C@_05HFMFBBBE@dumps?$AA@
CONST	SEGMENT
??_C@_05HFMFBBBE@dumps?$AA@ DB 'dumps', 00H		; `string'
CONST	ENDS
;	COMDAT ??_C@_05DFJCHPDH@input?$AA@
CONST	SEGMENT
??_C@_05DFJCHPDH@input?$AA@ DB 'input', 00H		; `string'
CONST	ENDS
;	COMDAT ??_C@_03GJLPFLNF@obj?$AA@
CONST	SEGMENT
??_C@_03GJLPFLNF@obj?$AA@ DB 'obj', 00H			; `string'
CONST	ENDS
;	COMDAT ??_C@_0BC@CBEKFMIK@_pickle?4Unpickler?$AA@
CONST	SEGMENT
??_C@_0BC@CBEKFMIK@_pickle?4Unpickler?$AA@ DB '_pickle.Unpickler', 00H ; `string'
CONST	ENDS
;	COMDAT ??_C@_0BL@NOBPPGDL@_pickle?4UnpicklerMemoProxy?$AA@
CONST	SEGMENT
??_C@_0BL@NOBPPGDL@_pickle?4UnpicklerMemoProxy?$AA@ DB '_pickle.Unpickler'
	DB	'MemoProxy', 00H				; `string'
CONST	ENDS
;	COMDAT ??_C@_0BA@NNFEJGCF@persistent_load?$AA@
CONST	SEGMENT
??_C@_0BA@NNFEJGCF@persistent_load?$AA@ DB 'persistent_load', 00H ; `string'
CONST	ENDS
;	COMDAT ??_C@_06EOMHCNPI@errors?$AA@
CONST	SEGMENT
??_C@_06EOMHCNPI@errors?$AA@ DB 'errors', 00H		; `string'
CONST	ENDS
;	COMDAT ??_C@_08MLPGAEIK@encoding?$AA@
CONST	SEGMENT
??_C@_08MLPGAEIK@encoding?$AA@ DB 'encoding', 00H	; `string'
CONST	ENDS
;	COMDAT ??_C@_04EONOHKEP@load?$AA@
CONST	SEGMENT
??_C@_04EONOHKEP@load?$AA@ DB 'load', 00H		; `string'
CONST	ENDS
;	COMDAT ??_C@_08IBFKALI@__dict__?$AA@
CONST	SEGMENT
??_C@_08IBFKALI@__dict__?$AA@ DB '__dict__', 00H	; `string'
CONST	ENDS
;	COMDAT ??_C@_0N@MOOGCAMH@__setstate__?$AA@
CONST	SEGMENT
??_C@_0N@MOOGCAMH@__setstate__?$AA@ DB '__setstate__', 00H ; `string'
CONST	ENDS
;	COMDAT ??_C@_06PCICMFGG@append?$AA@
CONST	SEGMENT
??_C@_06PCICMFGG@append?$AA@ DB 'append', 00H		; `string'
CONST	ENDS
;	COMDAT ??_C@_07MEBHOIG@__new__?$AA@
CONST	SEGMENT
??_C@_07MEBHOIG@__new__?$AA@ DB '__new__', 00H		; `string'
CONST	ENDS
;	COMDAT ??_C@_0BA@NHLJJDN@__getinitargs__?$AA@
CONST	SEGMENT
??_C@_0BA@NHLJJDN@__getinitargs__?$AA@ DB '__getinitargs__', 00H ; `string'
CONST	ENDS
;	COMDAT ??_C@_0L@BHOLNLBJ@find_class?$AA@
CONST	SEGMENT
??_C@_0L@BHOLNLBJ@find_class?$AA@ DB 'find_class', 00H	; `string'
CONST	ENDS
;	COMDAT ??_C@_0BA@LFIFMGAB@_pickle?4Pickler?$AA@
CONST	SEGMENT
??_C@_0BA@LFIFMGAB@_pickle?4Pickler?$AA@ DB '_pickle.Pickler', 00H ; `string'
CONST	ENDS
;	COMDAT ??_C@_04PGONJDDE@memo?$AA@
CONST	SEGMENT
??_C@_04PGONJDDE@memo?$AA@ DB 'memo', 00H		; `string'
CONST	ENDS
;	COMDAT ??_C@_04LBNBHAJC@fast?$AA@
CONST	SEGMENT
??_C@_04LBNBHAJC@fast?$AA@ DB 'fast', 00H		; `string'
CONST	ENDS
;	COMDAT ??_C@_03PDOMKJON@bin?$AA@
CONST	SEGMENT
??_C@_03PDOMKJON@bin?$AA@ DB 'bin', 00H			; `string'
CONST	ENDS
;	COMDAT ??_C@_0BJ@DIPNHLKH@_pickle?4PicklerMemoProxy?$AA@
CONST	SEGMENT
??_C@_0BJ@DIPNHLKH@_pickle?4PicklerMemoProxy?$AA@ DB '_pickle.PicklerMemo'
	DB	'Proxy', 00H					; `string'
CONST	ENDS
;	COMDAT ??_C@_0L@NNMACJIG@__reduce__?$AA@
CONST	SEGMENT
??_C@_0L@NNMACJIG@__reduce__?$AA@ DB '__reduce__', 00H	; `string'
CONST	ENDS
;	COMDAT ??_C@_04COAGEIMF@copy?$AA@
CONST	SEGMENT
??_C@_04COAGEIMF@copy?$AA@ DB 'copy', 00H		; `string'
CONST	ENDS
;	COMDAT ??_C@_05MEHLAELG@clear?$AA@
CONST	SEGMENT
??_C@_05MEHLAELG@clear?$AA@ DB 'clear', 00H		; `string'
CONST	ENDS
;	COMDAT ??_C@_0P@MAJNENGA@dispatch_table?$AA@
CONST	SEGMENT
??_C@_0P@MAJNENGA@dispatch_table?$AA@ DB 'dispatch_table', 00H ; `string'
CONST	ENDS
;	COMDAT ??_C@_0O@IGFLDCPG@persistent_id?$AA@
CONST	SEGMENT
??_C@_0O@IGFLDCPG@persistent_id?$AA@ DB 'persistent_id', 00H ; `string'
CONST	ENDS
;	COMDAT ??_C@_0M@IDPAOKEI@fix_imports?$AA@
CONST	SEGMENT
??_C@_0M@IDPAOKEI@fix_imports?$AA@ DB 'fix_imports', 00H ; `string'
CONST	ENDS
;	COMDAT ??_C@_08FCFPNNHF@protocol?$AA@
CONST	SEGMENT
??_C@_08FCFPNNHF@protocol?$AA@ DB 'protocol', 00H	; `string'
CONST	ENDS
;	COMDAT ??_C@_04DAMGJPCA@file?$AA@
CONST	SEGMENT
??_C@_04DAMGJPCA@file?$AA@ DB 'file', 00H		; `string'
CONST	ENDS
;	COMDAT ??_C@_0L@NFDPNOOM@clear_memo?$AA@
CONST	SEGMENT
??_C@_0L@NFDPNOOM@clear_memo?$AA@ DB 'clear_memo', 00H	; `string'
CONST	ENDS
;	COMDAT ??_C@_04GGLOKIEE@dump?$AA@
CONST	SEGMENT
??_C@_04GGLOKIEE@dump?$AA@ DB 'dump', 00H		; `string'
CONST	ENDS
;	COMDAT ??_C@_05CFHBDDLG@items?$AA@
CONST	SEGMENT
??_C@_05CFHBDDLG@items?$AA@ DB 'items', 00H		; `string'
CONST	ENDS
;	COMDAT ??_C@_04EDFDKNFG@I01?6?$AA@
CONST	SEGMENT
??_C@_04EDFDKNFG@I01?6?$AA@ DB 'I01', 0aH, 00H		; `string'
CONST	ENDS
;	COMDAT ??_C@_04ECJBMHGB@I00?6?$AA@
CONST	SEGMENT
??_C@_04ECJBMHGB@I00?6?$AA@ DB 'I00', 0aH, 00H		; `string'
CONST	ENDS
;	COMDAT ??_C@_08KBCDPPMN@readline?$AA@
CONST	SEGMENT
??_C@_08KBCDPPMN@readline?$AA@ DB 'readline', 00H	; `string'
CONST	ENDS
;	COMDAT ??_C@_04POLDLDMI@read?$AA@
CONST	SEGMENT
??_C@_04POLDLDMI@read?$AA@ DB 'read', 00H		; `string'
CONST	ENDS
;	COMDAT ??_C@_04EOCFELL@peek?$AA@
CONST	SEGMENT
??_C@_04EOCFELL@peek?$AA@ DB 'peek', 00H		; `string'
CONST	ENDS
CONST	SEGMENT
READ_WHOLE_LINE DQ ffffffffffffffffH
CONST	ENDS
_TLS	SEGMENT
?PyId_persistent_load@?1??Unpickler_init@@9@9 DQ 0000000000000000H ; `Unpickler_init'::`2'::PyId_persistent_load
	DQ	FLAT:??_C@_0BA@NNFEJGCF@persistent_load?$AA@
	DQ	0000000000000000H
?PyId___dict__@?7??load_build@@9@9 DQ 0000000000000000H	; `load_build'::`8'::PyId___dict__
	DQ	FLAT:??_C@_08IBFKALI@__dict__?$AA@
	DQ	0000000000000000H
?PyId___setstate__@?1??load_build@@9@9 DQ 0000000000000000H ; `load_build'::`2'::PyId___setstate__
	DQ	FLAT:??_C@_0N@MOOGCAMH@__setstate__?$AA@
	DQ	0000000000000000H
?PyId_append@?3??do_append@@9@9 DQ 0000000000000000H	; `do_append'::`4'::PyId_append
	DQ	FLAT:??_C@_06PCICMFGG@append?$AA@
	DQ	0000000000000000H
?PyId___new__@?3??instantiate@@9@9 DQ 0000000000000000H	; `instantiate'::`4'::PyId___new__
	DQ	FLAT:??_C@_07MEBHOIG@__new__?$AA@
	DQ	0000000000000000H
?PyId___getinitargs__@?1??instantiate@@9@9 DQ 0000000000000000H ; `instantiate'::`2'::PyId___getinitargs__
	DQ	FLAT:??_C@_0BA@NHLJJDN@__getinitargs__?$AA@
	DQ	0000000000000000H
?PyId_find_class@?1??find_class@@9@9 DQ 0000000000000000H ; `find_class'::`2'::PyId_find_class
	DQ	FLAT:??_C@_0L@BHOLNLBJ@find_class?$AA@
	DQ	0000000000000000H
?PyId_dispatch_table@?1??Pickler_init@@9@9 DQ 0000000000000000H ; `Pickler_init'::`2'::PyId_dispatch_table
	DQ	FLAT:??_C@_0P@MAJNENGA@dispatch_table?$AA@
	DQ	0000000000000000H
?PyId_persistent_id@?1??Pickler_init@@9@9 DQ 0000000000000000H ; `Pickler_init'::`2'::PyId_persistent_id
	DQ	FLAT:??_C@_0O@IGFLDCPG@persistent_id?$AA@
	DQ	0000000000000000H
?PyId_items@?7??save_dict@@9@9 DQ 0000000000000000H	; `save_dict'::`8'::PyId_items
	DQ	FLAT:??_C@_05CFHBDDLG@items?$AA@
	DQ	0000000000000000H
?PyId_readline@?1??_Unpickler_SetInputStream@@9@9 DQ 0000000000000000H ; `_Unpickler_SetInputStream'::`2'::PyId_readline
	DQ	FLAT:??_C@_08KBCDPPMN@readline?$AA@
	DQ	0000000000000000H
?PyId_read@?1??_Unpickler_SetInputStream@@9@9 DQ 0000000000000000H ; `_Unpickler_SetInputStream'::`2'::PyId_read
	DQ	FLAT:??_C@_04POLDLDMI@read?$AA@
	DQ	0000000000000000H
?PyId_peek@?1??_Unpickler_SetInputStream@@9@9 DQ 0000000000000000H ; `_Unpickler_SetInputStream'::`2'::PyId_peek
	DQ	FLAT:??_C@_04EOCFELL@peek?$AA@
	DQ	0000000000000000H
?PyId_write@?1??_Pickler_SetOutputStream@@9@9 DQ 0000000000000000H ; `_Pickler_SetOutputStream'::`2'::PyId_write
	DQ	FLAT:??_C@_05NGFEDHGN@write?$AA@
	DQ	0000000000000000H
_TLS	ENDS
;	COMDAT ??_C@_05NGFEDHGN@write?$AA@
CONST	SEGMENT
??_C@_05NGFEDHGN@write?$AA@ DB 'write', 00H		; `string'
CONST	ENDS
;	COMDAT ??_C@_0O@MBIDJBCI@_pickle?4Pdata?$AA@
CONST	SEGMENT
??_C@_0O@MBIDJBCI@_pickle?4Pdata?$AA@ DB '_pickle.Pdata', 00H ; `string'
CONST	ENDS
_DATA	SEGMENT
pickle_module_doc DB 'Optimized C implementation for the Python pickle mo'
	DB	'dule.', 00H
	ORG $+7
Pdata_Type DQ	dead1234beef5678H
	DQ	dead1234beef5678H
	DQ	0000000000000000H
	ORG $+8
	DQ	0000000000000001H
	DQ	0000000000000000H
	DQ	0000000000000000H
	DQ	0000000000000000H
	DQ	dead1234beef5678H
	DQ	dead1234beef5678H
	DQ	0000000000000001H
	DQ	0000000000000000H
	DQ	0000000000000000H
	ORG $+8
	DQ	FLAT:??_C@_0O@MBIDJBCI@_pickle?4Pdata?$AA@
	DQ	0000000000000080H
	DQ	0000000000000000H
	DQ	FLAT:Pdata_dealloc
	ORG $+336
?buf@?1??save_bool@@9@9 DQ FLAT:??_C@_04ECJBMHGB@I00?6?$AA@ ; `save_bool'::`2'::buf
	DQ	FLAT:??_C@_04EDFDKNFG@I01?6?$AA@
Pickler_clear_memo_doc DB 'clear_memo() -> None. Clears the pickler''s "m'
	DB	'emo".', 0aH, 'The memo is the data structure that remembers w'
	DB	'hich objects the', 0aH, 'pickler has already seen, so that sh'
	DB	'ared or recursive objects are', 0aH, 'pickled by reference an'
	DB	'd not by value.  This method is useful when', 0aH, 're-using '
	DB	'picklers.', 00H
	ORG $+5
Pickler_dump_doc DB 'dump(obj) -> None. Write a pickled representation of'
	DB	' obj to the open file.', 00H
	ORG $+5
Pickler_methods DQ FLAT:??_C@_04GGLOKIEE@dump?$AA@
	DQ	FLAT:Pickler_dump
	DD	01H
	ORG $+4
	DQ	FLAT:Pickler_dump_doc
	DQ	FLAT:??_C@_0L@NFDPNOOM@clear_memo?$AA@
	DQ	FLAT:Pickler_clear_memo
	DD	04H
	ORG $+4
	DQ	FLAT:Pickler_clear_memo_doc
	DQ	0000000000000000H
	DQ	0000000000000000H
	ORG $+16
Pickler_doc DB	'Pickler(file, protocol=None)', 0aH, 'This takes a binary'
	DB	' file for writing a pickle data stream.', 0aH, 0aH, 'The opti'
	DB	'onal protocol argument tells the pickler to use the', 0aH, 'g'
	DB	'iven protocol; supported protocols are 0, 1, 2, 3.  The defau'
	DB	'lt', 0aH, 'protocol is 3; a backward-incompatible protocol de'
	DB	'signed for', 0aH, 'Python 3.0.', 0aH, 0aH, 'Specifying a nega'
	DB	'tive protocol version selects the highest', 0aH, 'protocol ve'
	DB	'rsion supported.  The higher the protocol used, the', 0aH, 'm'
	DB	'ore recent the version of Python needed to read the pickle', 0aH
	DB	'produced.', 0aH, 0aH, 'The file argument must have a write() '
	DB	'method that accepts a single', 0aH, 'bytes argument. It can t'
	DB	'hus be a file object opened for binary', 0aH, 'writing, a io.'
	DB	'BytesIO instance, or any other custom object that', 0aH, 'mee'
	DB	'ts this interface.', 0aH, 0aH, 'If fix_imports is True and pr'
	DB	'otocol is less than 3, pickle will try to', 0aH, 'map the new'
	DB	' Python 3.x names to the old module names used in Python', 0aH
	DB	'2.x, so that the pickle data stream is readable with Python 2'
	DB	'.x.', 0aH, 00H
	ORG $+1
?kwlist@?1??Pickler_init@@9@9 DQ FLAT:??_C@_04DAMGJPCA@file?$AA@ ; `Pickler_init'::`2'::kwlist
	DQ	FLAT:??_C@_08FCFPNNHF@protocol?$AA@
	DQ	FLAT:??_C@_0M@IDPAOKEI@fix_imports?$AA@
	DQ	0000000000000000H
pmp_clear_doc DB 'memo.clear() -> None.  Remove all items from memo.', 00H
	ORG $+5
pmp_copy_doc DB	'memo.copy() -> new_memo.  Copy the memo to a new object.'
	DB	00H
	ORG $+7
pmp_reduce_doc DB 'memo.__reduce__(). Pickling support.', 00H
	ORG $+11
picklerproxy_methods DQ FLAT:??_C@_05MEHLAELG@clear?$AA@
	DQ	FLAT:pmp_clear
	DD	04H
	ORG $+4
	DQ	FLAT:pmp_clear_doc
	DQ	FLAT:??_C@_04COAGEIMF@copy?$AA@
	DQ	FLAT:pmp_copy
	DD	04H
	ORG $+4
	DQ	FLAT:pmp_copy_doc
	DQ	FLAT:??_C@_0L@NNMACJIG@__reduce__?$AA@
	DQ	FLAT:pmp_reduce
	DD	01H
	ORG $+4
	DQ	FLAT:pmp_reduce_doc
	DQ	0000000000000000H
	DQ	0000000000000000H
	ORG $+16
PicklerMemoProxyType DQ dead1234beef5678H
	DQ	dead1234beef5678H
	DQ	0000000000000000H
	ORG $+8
	DQ	0000000000000001H
	DQ	0000000000000000H
	DQ	0000000000000000H
	DQ	0000000000000000H
	DQ	dead1234beef5678H
	DQ	dead1234beef5678H
	DQ	0000000000000001H
	DQ	0000000000000000H
	DQ	0000000000000000H
	ORG $+8
	DQ	FLAT:??_C@_0BJ@DIPNHLKH@_pickle?4PicklerMemoProxy?$AA@
	DQ	0000000000000070H
	DQ	0000000000000000H
	DQ	FLAT:PicklerMemoProxy_dealloc
	DQ	0000000000000000H
	DQ	0000000000000000H
	DQ	0000000000000000H
	DQ	0000000000000000H
	DQ	0000000000000000H
	DQ	0000000000000000H
	DQ	0000000000000000H
	DQ	0000000000000000H
	DQ	FLAT:PyObject_HashNotImplemented
	DQ	0000000000000000H
	DQ	0000000000000000H
	DQ	FLAT:PyObject_GenericGetAttr
	DQ	FLAT:PyObject_GenericSetAttr
	DQ	0000000000000000H
	DD	044400H
	ORG $+4
	DQ	0000000000000000H
	DQ	FLAT:PicklerMemoProxy_traverse
	DQ	FLAT:PicklerMemoProxy_clear
	DQ	0000000000000000H
	DQ	0000000000000000H
	DQ	0000000000000000H
	DQ	0000000000000000H
	DQ	FLAT:picklerproxy_methods
	ORG $+152
Pickler_members DQ FLAT:??_C@_03PDOMKJON@bin?$AA@
	DD	01H
	ORG $+4
	DQ	00000000000000a4H
	ORG $+16
	DQ	FLAT:??_C@_04LBNBHAJC@fast?$AA@
	DD	01H
	ORG $+4
	DQ	00000000000000b0H
	ORG $+16
	DQ	FLAT:??_C@_0P@MAJNENGA@dispatch_table?$AA@
	DD	010H
	ORG $+4
	DQ	0000000000000070H
	ORG $+16
	DQ	0000000000000000H
	ORG $+32
Pickler_getsets DQ FLAT:??_C@_04PGONJDDE@memo?$AA@
	DQ	FLAT:Pickler_get_memo
	DQ	FLAT:Pickler_set_memo
	ORG $+16
	DQ	FLAT:??_C@_0O@IGFLDCPG@persistent_id?$AA@
	DQ	FLAT:Pickler_get_persid
	DQ	FLAT:Pickler_set_persid
	ORG $+16
	DQ	0000000000000000H
	ORG $+32
	ORG $+8
Pickler_Type DQ	dead1234beef5678H
	DQ	dead1234beef5678H
	DQ	0000000000000000H
	ORG $+8
	DQ	0000000000000001H
	DQ	0000000000000000H
	DQ	0000000000000000H
	DQ	0000000000000000H
	DQ	dead1234beef5678H
	DQ	dead1234beef5678H
	DQ	0000000000000001H
	DQ	0000000000000000H
	DQ	0000000000000000H
	ORG $+8
	DQ	FLAT:??_C@_0BA@LFIFMGAB@_pickle?4Pickler?$AA@
	DQ	00000000000000d0H
	DQ	0000000000000000H
	DQ	FLAT:Pickler_dealloc
	DQ	0000000000000000H
	DQ	0000000000000000H
	DQ	0000000000000000H
	DQ	0000000000000000H
	DQ	0000000000000000H
	DQ	0000000000000000H
	DQ	0000000000000000H
	DQ	0000000000000000H
	DQ	0000000000000000H
	DQ	0000000000000000H
	DQ	0000000000000000H
	DQ	0000000000000000H
	DQ	0000000000000000H
	DQ	0000000000000000H
	DD	044400H
	ORG $+4
	DQ	FLAT:Pickler_doc
	DQ	FLAT:Pickler_traverse
	DQ	FLAT:Pickler_clear
	DQ	0000000000000000H
	DQ	0000000000000000H
	DQ	0000000000000000H
	DQ	0000000000000000H
	DQ	FLAT:Pickler_methods
	DQ	FLAT:Pickler_members
	DQ	FLAT:Pickler_getsets
	DQ	0000000000000000H
	DQ	0000000000000000H
	DQ	0000000000000000H
	DQ	0000000000000000H
	DQ	0000000000000000H
	DQ	FLAT:Pickler_init
	DQ	FLAT:PyType_GenericAlloc
	DQ	FLAT:PyType_GenericNew
	DQ	FLAT:PyObject_GC_Del
	DQ	0000000000000000H
	ORG $+56
Unpickler_load_doc DB 'load() -> object. Load a pickle.', 0aH, 'Read a pi'
	DB	'ckled object representation from the open file object given i'
	DB	'n', 0aH, 'the constructor, and return the reconstituted objec'
	DB	't hierarchy specified', 0aH, 'therein.', 0aH, 00H
	ORG $+4
Unpickler_find_class_doc DB 'find_class(module_name, global_name) -> obje'
	DB	'ct.', 0aH, 0aH, 'Return an object from a specified module, im'
	DB	'porting the module if', 0aH, 'necessary.  Subclasses may over'
	DB	'ride this method (e.g. to restrict', 0aH, 'unpickling of arbi'
	DB	'trary classes and functions).', 0aH, 0aH, 'This method is cal'
	DB	'led whenever a class or a function object is', 0aH, 'needed. '
	DB	' Both arguments passed are str objects.', 0aH, 00H
	ORG $+10
Unpickler_methods DQ FLAT:??_C@_04EONOHKEP@load?$AA@
	DQ	FLAT:Unpickler_load
	DD	04H
	ORG $+4
	DQ	FLAT:Unpickler_load_doc
	DQ	FLAT:??_C@_0L@BHOLNLBJ@find_class?$AA@
	DQ	FLAT:Unpickler_find_class
	DD	01H
	ORG $+4
	DQ	FLAT:Unpickler_find_class_doc
	DQ	0000000000000000H
	DQ	0000000000000000H
	ORG $+16
Unpickler_doc DB 'Unpickler(file, *, encoding=''ASCII'', errors=''strict'''
	DB	')', 0aH, 'This takes a binary file for reading a pickle data '
	DB	'stream.', 0aH, 0aH, 'The protocol version of the pickle is de'
	DB	'tected automatically, so no', 0aH, 'proto argument is needed.'
	DB	0aH, 0aH, 'The file-like object must have two methods, a read('
	DB	') method', 0aH, 'that takes an integer argument, and a readli'
	DB	'ne() method that', 0aH, 'requires no arguments.  Both methods'
	DB	' should return bytes.', 0aH, 'Thus file-like object can be a '
	DB	'binary file object opened for', 0aH, 'reading, a BytesIO obje'
	DB	'ct, or any other custom object that', 0aH, 'meets this interf'
	DB	'ace.', 0aH, 0aH, 'Optional keyword arguments are *fix_imports'
	DB	'*, *encoding* and *errors*,', 0aH, 'which are used to control'
	DB	' compatiblity support for pickle stream', 0aH, 'generated by '
	DB	'Python 2.x.  If *fix_imports* is True, pickle will try to', 0aH
	DB	'map the old Python 2.x names to the new names used in Python '
	DB	'3.x.  The', 0aH, '*encoding* and *errors* tell pickle how to '
	DB	'decode 8-bit string', 0aH, 'instances pickled by Python 2.x; '
	DB	'these default to ''ASCII'' and', 0aH, '''strict'', respective'
	DB	'ly.', 0aH, 00H
	ORG $+1
?kwlist@?1??Unpickler_init@@9@9 DQ FLAT:??_C@_04DAMGJPCA@file?$AA@ ; `Unpickler_init'::`2'::kwlist
	DQ	FLAT:??_C@_0M@IDPAOKEI@fix_imports?$AA@
	DQ	FLAT:??_C@_08MLPGAEIK@encoding?$AA@
	DQ	FLAT:??_C@_06EOMHCNPI@errors?$AA@
	DQ	0000000000000000H
ump_clear_doc DB 'memo.clear() -> None.  Remove all items from memo.', 00H
	ORG $+5
ump_copy_doc DB	'memo.copy() -> new_memo.  Copy the memo to a new object.'
	DB	00H
	ORG $+7
ump_reduce_doc DB 'memo.__reduce__(). Pickling support.', 00H
	ORG $+11
unpicklerproxy_methods DQ FLAT:??_C@_05MEHLAELG@clear?$AA@
	DQ	FLAT:ump_clear
	DD	04H
	ORG $+4
	DQ	FLAT:ump_clear_doc
	DQ	FLAT:??_C@_04COAGEIMF@copy?$AA@
	DQ	FLAT:ump_copy
	DD	04H
	ORG $+4
	DQ	FLAT:ump_copy_doc
	DQ	FLAT:??_C@_0L@NNMACJIG@__reduce__?$AA@
	DQ	FLAT:ump_reduce
	DD	01H
	ORG $+4
	DQ	FLAT:ump_reduce_doc
	DQ	0000000000000000H
	DQ	0000000000000000H
	ORG $+16
UnpicklerMemoProxyType DQ dead1234beef5678H
	DQ	dead1234beef5678H
	DQ	0000000000000000H
	ORG $+8
	DQ	0000000000000001H
	DQ	0000000000000000H
	DQ	0000000000000000H
	DQ	0000000000000000H
	DQ	dead1234beef5678H
	DQ	dead1234beef5678H
	DQ	0000000000000001H
	DQ	0000000000000000H
	DQ	0000000000000000H
	ORG $+8
	DQ	FLAT:??_C@_0BL@NOBPPGDL@_pickle?4UnpicklerMemoProxy?$AA@
	DQ	0000000000000070H
	DQ	0000000000000000H
	DQ	FLAT:UnpicklerMemoProxy_dealloc
	DQ	0000000000000000H
	DQ	0000000000000000H
	DQ	0000000000000000H
	DQ	0000000000000000H
	DQ	0000000000000000H
	DQ	0000000000000000H
	DQ	0000000000000000H
	DQ	0000000000000000H
	DQ	FLAT:PyObject_HashNotImplemented
	DQ	0000000000000000H
	DQ	0000000000000000H
	DQ	FLAT:PyObject_GenericGetAttr
	DQ	FLAT:PyObject_GenericSetAttr
	DQ	0000000000000000H
	DD	044400H
	ORG $+4
	DQ	0000000000000000H
	DQ	FLAT:UnpicklerMemoProxy_traverse
	DQ	FLAT:UnpicklerMemoProxy_clear
	DQ	0000000000000000H
	DQ	0000000000000000H
	DQ	0000000000000000H
	DQ	0000000000000000H
	DQ	FLAT:unpicklerproxy_methods
	ORG $+152
Unpickler_getsets DQ FLAT:??_C@_04PGONJDDE@memo?$AA@
	DQ	FLAT:Unpickler_get_memo
	DQ	FLAT:Unpickler_set_memo
	ORG $+16
	DQ	FLAT:??_C@_0BA@NNFEJGCF@persistent_load?$AA@
	DQ	FLAT:Unpickler_get_persload
	DQ	FLAT:Unpickler_set_persload
	ORG $+16
	DQ	0000000000000000H
	ORG $+32
	ORG $+8
Unpickler_Type DQ dead1234beef5678H
	DQ	dead1234beef5678H
	DQ	0000000000000000H
	ORG $+8
	DQ	0000000000000001H
	DQ	0000000000000000H
	DQ	0000000000000000H
	DQ	0000000000000000H
	DQ	dead1234beef5678H
	DQ	dead1234beef5678H
	DQ	0000000000000001H
	DQ	0000000000000000H
	DQ	0000000000000000H
	ORG $+8
	DQ	FLAT:??_C@_0BC@CBEKFMIK@_pickle?4Unpickler?$AA@
	DQ	0000000000000150H
	DQ	0000000000000000H
	DQ	FLAT:Unpickler_dealloc
	DQ	0000000000000000H
	DQ	0000000000000000H
	DQ	0000000000000000H
	DQ	0000000000000000H
	DQ	0000000000000000H
	DQ	0000000000000000H
	DQ	0000000000000000H
	DQ	0000000000000000H
	DQ	0000000000000000H
	DQ	0000000000000000H
	DQ	0000000000000000H
	DQ	0000000000000000H
	DQ	0000000000000000H
	DQ	0000000000000000H
	DD	044400H
	ORG $+4
	DQ	FLAT:Unpickler_doc
	DQ	FLAT:Unpickler_traverse
	DQ	FLAT:Unpickler_clear
	DQ	0000000000000000H
	DQ	0000000000000000H
	DQ	0000000000000000H
	DQ	0000000000000000H
	DQ	FLAT:Unpickler_methods
	DQ	0000000000000000H
	DQ	FLAT:Unpickler_getsets
	DQ	0000000000000000H
	DQ	0000000000000000H
	DQ	0000000000000000H
	DQ	0000000000000000H
	DQ	0000000000000000H
	DQ	FLAT:Unpickler_init
	DQ	FLAT:PyType_GenericAlloc
	DQ	FLAT:PyType_GenericNew
	DQ	FLAT:PyObject_GC_Del
	DQ	0000000000000000H
	ORG $+56
pickle_dump_doc DB 'dump(obj, file, protocol=None, *, fix_imports=True) -'
	DB	'> None', 0aH, 0aH, 'Write a pickled representation of obj to '
	DB	'the open file object file.  This', 0aH, 'is equivalent to ``P'
	DB	'ickler(file, protocol).dump(obj)``, but may be more', 0aH, 'e'
	DB	'fficient.', 0aH, 0aH, 'The optional protocol argument tells t'
	DB	'he pickler to use the given protocol;', 0aH, 'supported proto'
	DB	'cols are 0, 1, 2, 3.  The default protocol is 3; a', 0aH, 'ba'
	DB	'ckward-incompatible protocol designed for Python 3.0.', 0aH, 0aH
	DB	'Specifying a negative protocol version selects the highest pr'
	DB	'otocol version', 0aH, 'supported.  The higher the protocol us'
	DB	'ed, the more recent the version of', 0aH, 'Python needed to r'
	DB	'ead the pickle produced.', 0aH, 0aH, 'The file argument must '
	DB	'have a write() method that accepts a single bytes', 0aH, 'arg'
	DB	'ument.  It can thus be a file object opened for binary writin'
	DB	'g, a', 0aH, 'io.BytesIO instance, or any other custom object '
	DB	'that meets this interface.', 0aH, 0aH, 'If fix_imports is Tru'
	DB	'e and protocol is less than 3, pickle will try to', 0aH, 'map'
	DB	' the new Python 3.x names to the old module names used in Pyt'
	DB	'hon 2.x,', 0aH, 'so that the pickle data stream is readable w'
	DB	'ith Python 2.x.', 0aH, 00H
	ORG $+6
?kwlist@?1??pickle_dump@@9@9 DQ FLAT:??_C@_03GJLPFLNF@obj?$AA@ ; `pickle_dump'::`2'::kwlist
	DQ	FLAT:??_C@_04DAMGJPCA@file?$AA@
	DQ	FLAT:??_C@_08FCFPNNHF@protocol?$AA@
	DQ	FLAT:??_C@_0M@IDPAOKEI@fix_imports?$AA@
	DQ	0000000000000000H
	ORG $+8
pickle_dumps_doc DB 'dumps(obj, protocol=None, *, fix_imports=True) -> by'
	DB	'tes', 0aH, 0aH, 'Return the pickled representation of the obj'
	DB	'ect as a bytes', 0aH, 'object, instead of writing it to a fil'
	DB	'e.', 0aH, 0aH, 'The optional protocol argument tells the pick'
	DB	'ler to use the given protocol;', 0aH, 'supported protocols ar'
	DB	'e 0, 1, 2, 3.  The default protocol is 3; a', 0aH, 'backward-'
	DB	'incompatible protocol designed for Python 3.0.', 0aH, 0aH, 'S'
	DB	'pecifying a negative protocol version selects the highest pro'
	DB	'tocol version', 0aH, 'supported.  The higher the protocol use'
	DB	'd, the more recent the version of', 0aH, 'Python needed to re'
	DB	'ad the pickle produced.', 0aH, 0aH, 'If fix_imports is True a'
	DB	'nd *protocol* is less than 3, pickle will try to', 0aH, 'map '
	DB	'the new Python 3.x names to the old module names used in Pyth'
	DB	'on 2.x,', 0aH, 'so that the pickle data stream is readable wi'
	DB	'th Python 2.x.', 0aH, 00H
	ORG $+3
?kwlist@?1??pickle_dumps@@9@9 DQ FLAT:??_C@_03GJLPFLNF@obj?$AA@ ; `pickle_dumps'::`2'::kwlist
	DQ	FLAT:??_C@_08FCFPNNHF@protocol?$AA@
	DQ	FLAT:??_C@_0M@IDPAOKEI@fix_imports?$AA@
	DQ	0000000000000000H
	ORG $+8
pickle_load_doc DB 'load(file, *, fix_imports=True, encoding=''ASCII'', e'
	DB	'rrors=''strict'') -> object', 0aH, 0aH, 'Read a pickled objec'
	DB	't representation from the open file object file and', 0aH, 'r'
	DB	'eturn the reconstituted object hierarchy specified therein.  '
	DB	'This is', 0aH, 'equivalent to ``Unpickler(file).load()``, but'
	DB	' may be more efficient.', 0aH, 0aH, 'The protocol version of '
	DB	'the pickle is detected automatically, so no protocol', 0aH, 'a'
	DB	'rgument is needed.  Bytes past the pickled object''s represen'
	DB	'tation are', 0aH, 'ignored.', 0aH, 0aH, 'The argument file mu'
	DB	'st have two methods, a read() method that takes an', 0aH, 'in'
	DB	'teger argument, and a readline() method that requires no argu'
	DB	'ments.  Both', 0aH, 'methods should return bytes.  Thus *file'
	DB	'* can be a binary file object opened', 0aH, 'for reading, a B'
	DB	'ytesIO object, or any other custom object that meets this', 0aH
	DB	'interface.', 0aH, 0aH, 'Optional keyword arguments are fix_im'
	DB	'ports, encoding and errors,', 0aH, 'which are used to control'
	DB	' compatiblity support for pickle stream generated', 0aH, 'by '
	DB	'Python 2.x.  If fix_imports is True, pickle will try to map t'
	DB	'he old', 0aH, 'Python 2.x names to the new names used in Pyth'
	DB	'on 3.x.  The encoding and', 0aH, 'errors tell pickle how to d'
	DB	'ecode 8-bit string instances pickled by Python', 0aH, '2.x; t'
	DB	'hese default to ''ASCII'' and ''strict'', respectively.', 0aH
	DB	00H
	ORG $+1
?kwlist@?1??pickle_load@@9@9 DQ FLAT:??_C@_04DAMGJPCA@file?$AA@ ; `pickle_load'::`2'::kwlist
	DQ	FLAT:??_C@_0M@IDPAOKEI@fix_imports?$AA@
	DQ	FLAT:??_C@_08MLPGAEIK@encoding?$AA@
	DQ	FLAT:??_C@_06EOMHCNPI@errors?$AA@
	DQ	0000000000000000H
pickle_loads_doc DB 'loads(input, *, fix_imports=True, encoding=''ASCII'''
	DB	', errors=''strict'') -> object', 0aH, 0aH, 'Read a pickled ob'
	DB	'ject hierarchy from a bytes object and return the', 0aH, 'rec'
	DB	'onstituted object hierarchy specified therein', 0aH, 0aH, 'Th'
	DB	'e protocol version of the pickle is detected automatically, s'
	DB	'o no protocol', 0aH, 'argument is needed.  Bytes past the pic'
	DB	'kled object''s representation are', 0aH, 'ignored.', 0aH, 0aH
	DB	'Optional keyword arguments are fix_imports, encoding and erro'
	DB	'rs, which', 0aH, 'are used to control compatiblity support fo'
	DB	'r pickle stream generated', 0aH, 'by Python 2.x.  If fix_impo'
	DB	'rts is True, pickle will try to map the old', 0aH, 'Python 2.'
	DB	'x names to the new names used in Python 3.x.  The encoding an'
	DB	'd', 0aH, 'errors tell pickle how to decode 8-bit string insta'
	DB	'nces pickled by Python', 0aH, '2.x; these default to ''ASCII'''
	DB	' and ''strict'', respectively.', 0aH, 00H
	ORG $+4
?kwlist@?1??pickle_loads@@9@9 DQ FLAT:??_C@_05DFJCHPDH@input?$AA@ ; `pickle_loads'::`2'::kwlist
	DQ	FLAT:??_C@_0M@IDPAOKEI@fix_imports?$AA@
	DQ	FLAT:??_C@_08MLPGAEIK@encoding?$AA@
	DQ	FLAT:??_C@_06EOMHCNPI@errors?$AA@
	DQ	0000000000000000H
pickle_methods DQ FLAT:??_C@_04GGLOKIEE@dump?$AA@
	DQ	FLAT:pickle_dump
	DD	03H
	ORG $+4
	DQ	FLAT:pickle_dump_doc
	DQ	FLAT:??_C@_05HFMFBBBE@dumps?$AA@
	DQ	FLAT:pickle_dumps
	DD	03H
	ORG $+4
	DQ	FLAT:pickle_dumps_doc
	DQ	FLAT:??_C@_04EONOHKEP@load?$AA@
	DQ	FLAT:pickle_load
	DD	03H
	ORG $+4
	DQ	FLAT:pickle_load_doc
	DQ	FLAT:??_C@_05OCDPKIEO@loads?$AA@
	DQ	FLAT:pickle_loads
	DD	03H
	ORG $+4
	DQ	FLAT:pickle_loads_doc
	DQ	0000000000000000H
	DQ	0000000000000000H
	ORG $+16
_picklemodule DQ dead1234beef5678H
	DQ	dead1234beef5678H
	DQ	0000000000000000H
	ORG $+8
	DQ	0000000000000001H
	DQ	0000000000000000H
	DQ	0000000000000000H
	DQ	0000000000000000H
	DQ	dead1234beef5678H
	DQ	dead1234beef5678H
	DQ	0000000000000001H
	DQ	0000000000000000H
	DQ	0000000000000000H
	DQ	0000000000000000H
	DQ	0000000000000000H
	ORG $+8
	DQ	FLAT:??_C@_07LOLKJPHM@_pickle?$AA@
	DQ	FLAT:pickle_module_doc
	DQ	ffffffffffffffffH
	DQ	FLAT:pickle_methods
	DQ	0000000000000000H
	DQ	0000000000000000H
	DQ	0000000000000000H
	DQ	0000000000000000H
_DATA	ENDS
PUBLIC	_Py_DecRef
EXTRN	_PyObject_DebugFree:PROC
EXTRN	_PyMem_DebugFree:PROC
EXTRN	_PxMem_Free:PROC
EXTRN	_Py_PXCTX:PROC
;	COMDAT pdata
; File c:\src\pyparallel\modules\_pickle.c
pdata	SEGMENT
$pdata$Pdata_dealloc DD imagerel Pdata_dealloc
	DD	imagerel Pdata_dealloc+139
	DD	imagerel $unwind$Pdata_dealloc
pdata	ENDS
;	COMDAT xdata
xdata	SEGMENT
$unwind$Pdata_dealloc DD 010901H
	DD	06209H
; Function compile flags: /Odtp
xdata	ENDS
;	COMDAT Pdata_dealloc
_TEXT	SEGMENT
i$ = 32
tv77 = 40
self$ = 64
Pdata_dealloc PROC					; COMDAT

; 155  : {

  00000	48 89 4c 24 08	 mov	 QWORD PTR [rsp+8], rcx
  00005	48 83 ec 38	 sub	 rsp, 56			; 00000038H

; 156  :     Py_ssize_t i = Py_SIZE(self);

  00009	48 8b 44 24 40	 mov	 rax, QWORD PTR self$[rsp]
  0000e	48 8b 40 60	 mov	 rax, QWORD PTR [rax+96]
  00012	48 89 44 24 20	 mov	 QWORD PTR i$[rsp], rax
$LN2@Pdata_deal:

; 157  :     while (--i >= 0) {

  00017	48 8b 44 24 20	 mov	 rax, QWORD PTR i$[rsp]
  0001c	48 ff c8	 dec	 rax
  0001f	48 89 44 24 20	 mov	 QWORD PTR i$[rsp], rax
  00024	48 83 7c 24 20
	00		 cmp	 QWORD PTR i$[rsp], 0
  0002a	7c 19		 jl	 SHORT $LN1@Pdata_deal

; 158  :         Py_DECREF(self->data[i]);

  0002c	48 8b 44 24 40	 mov	 rax, QWORD PTR self$[rsp]
  00031	48 8b 40 70	 mov	 rax, QWORD PTR [rax+112]
  00035	48 8b 4c 24 20	 mov	 rcx, QWORD PTR i$[rsp]
  0003a	48 8b 0c c8	 mov	 rcx, QWORD PTR [rax+rcx*8]
  0003e	e8 00 00 00 00	 call	 _Py_DecRef

; 159  :     }

  00043	eb d2		 jmp	 SHORT $LN2@Pdata_deal
$LN1@Pdata_deal:

; 160  :     PyMem_FREE(self->data);

  00045	e8 00 00 00 00	 call	 _Py_PXCTX
  0004a	85 c0		 test	 eax, eax
  0004c	74 18		 je	 SHORT $LN5@Pdata_deal
  0004e	48 8b 44 24 40	 mov	 rax, QWORD PTR self$[rsp]
  00053	48 8b 48 70	 mov	 rcx, QWORD PTR [rax+112]
  00057	e8 00 00 00 00	 call	 _PxMem_Free
  0005c	c7 44 24 28 00
	00 00 00	 mov	 DWORD PTR tv77[rsp], 0
  00064	eb 16		 jmp	 SHORT $LN6@Pdata_deal
$LN5@Pdata_deal:
  00066	48 8b 44 24 40	 mov	 rax, QWORD PTR self$[rsp]
  0006b	48 8b 48 70	 mov	 rcx, QWORD PTR [rax+112]
  0006f	e8 00 00 00 00	 call	 _PyMem_DebugFree
  00074	c7 44 24 28 00
	00 00 00	 mov	 DWORD PTR tv77[rsp], 0
$LN6@Pdata_deal:

; 161  :     PyObject_Del(self);

  0007c	48 8b 4c 24 40	 mov	 rcx, QWORD PTR self$[rsp]
  00081	e8 00 00 00 00	 call	 _PyObject_DebugFree

; 162  : }

  00086	48 83 c4 38	 add	 rsp, 56			; 00000038H
  0008a	c3		 ret	 0
Pdata_dealloc ENDP
_TEXT	ENDS
PUBLIC	??_C@_0L@DMHMLFIA@_Py_DecRef?$AA@		; `string'
PUBLIC	??_C@_0CD@HDJFDCDP@c?3?2src?2pyparallel?2include?2object@ ; `string'
EXTRN	_Py_Dealloc:PROC
EXTRN	_Py_NegativeRefcount:PROC
EXTRN	_PyParallel_Guard:PROC
EXTRN	_Py_RefTotal:QWORD
EXTRN	Px_DecRef:PROC
;	COMDAT pdata
; File c:\src\pyparallel\include\object.h
pdata	SEGMENT
$pdata$_Py_DecRef DD imagerel $LN13
	DD	imagerel $LN13+257
	DD	imagerel $unwind$_Py_DecRef
pdata	ENDS
;	COMDAT xdata
xdata	SEGMENT
$unwind$_Py_DecRef DD 010901H
	DD	08209H
xdata	ENDS
;	COMDAT ??_C@_0L@DMHMLFIA@_Py_DecRef?$AA@
CONST	SEGMENT
??_C@_0L@DMHMLFIA@_Py_DecRef?$AA@ DB '_Py_DecRef', 00H	; `string'
CONST	ENDS
;	COMDAT ??_C@_0CD@HDJFDCDP@c?3?2src?2pyparallel?2include?2object@
CONST	SEGMENT
??_C@_0CD@HDJFDCDP@c?3?2src?2pyparallel?2include?2object@ DB 'c:\src\pypa'
	DB	'rallel\include\object.h', 00H		; `string'
; Function compile flags: /Odtp
CONST	ENDS
;	COMDAT _Py_DecRef
_TEXT	SEGMENT
tv81 = 48
op$ = 80
_Py_DecRef PROC						; COMDAT

; 923  : {

$LN13:
  00000	48 89 4c 24 08	 mov	 QWORD PTR [rsp+8], rcx
  00005	48 83 ec 48	 sub	 rsp, 72			; 00000048H

; 924  :     if (!Py_PXCTX) {

  00009	e8 00 00 00 00	 call	 _Py_PXCTX
  0000e	85 c0		 test	 eax, eax
  00010	0f 85 e6 00 00
	00		 jne	 $LN8@Py_DecRef

; 925  :         if (Px_PERSISTED(op) || Px_CLONED(op))

  00016	48 8b 44 24 50	 mov	 rax, QWORD PTR op$[rsp]
  0001b	48 8b 40 20	 mov	 rax, QWORD PTR [rax+32]
  0001f	48 83 e0 20	 and	 rax, 32			; 00000020H
  00023	48 85 c0	 test	 rax, rax
  00026	75 14		 jne	 SHORT $LN6@Py_DecRef
  00028	48 8b 44 24 50	 mov	 rax, QWORD PTR op$[rsp]
  0002d	48 8b 40 20	 mov	 rax, QWORD PTR [rax+32]
  00031	48 25 80 00 00
	00		 and	 rax, 128		; 00000080H
  00037	48 85 c0	 test	 rax, rax
  0003a	74 0f		 je	 SHORT $LN7@Py_DecRef
$LN6@Py_DecRef:

; 926  :             Px_DECREF(op);

  0003c	48 8b 4c 24 50	 mov	 rcx, QWORD PTR op$[rsp]
  00041	e8 00 00 00 00	 call	 Px_DecRef
  00046	e9 b1 00 00 00	 jmp	 $LN5@Py_DecRef
$LN7@Py_DecRef:

; 927  :         else if (!Px_ISPX(op)) {

  0004b	48 8b 44 24 50	 mov	 rax, QWORD PTR op$[rsp]
  00050	48 8b 40 20	 mov	 rax, QWORD PTR [rax+32]
  00054	48 83 e0 02	 and	 rax, 2
  00058	48 85 c0	 test	 rax, rax
  0005b	0f 85 9b 00 00
	00		 jne	 $LN4@Py_DecRef

; 928  :             _Py_DEC_REFTOTAL;

  00061	e8 00 00 00 00	 call	 _Py_PXCTX
  00066	85 c0		 test	 eax, eax
  00068	74 02		 je	 SHORT $LN11@Py_DecRef
  0006a	eb 11		 jmp	 SHORT $LN12@Py_DecRef
$LN11@Py_DecRef:
  0006c	48 8b 05 00 00
	00 00		 mov	 rax, QWORD PTR _Py_RefTotal
  00073	48 ff c8	 dec	 rax
  00076	48 89 05 00 00
	00 00		 mov	 QWORD PTR _Py_RefTotal, rax
$LN12@Py_DecRef:

; 929  :             if ((--((PyObject *)(op))->ob_refcnt) != 0) {

  0007d	48 8b 44 24 50	 mov	 rax, QWORD PTR op$[rsp]
  00082	48 8b 40 50	 mov	 rax, QWORD PTR [rax+80]
  00086	48 ff c8	 dec	 rax
  00089	48 89 44 24 30	 mov	 QWORD PTR tv81[rsp], rax
  0008e	48 8b 44 24 50	 mov	 rax, QWORD PTR op$[rsp]
  00093	48 8b 4c 24 30	 mov	 rcx, QWORD PTR tv81[rsp]
  00098	48 89 48 50	 mov	 QWORD PTR [rax+80], rcx
  0009c	48 83 7c 24 30
	00		 cmp	 QWORD PTR tv81[rsp], 0
  000a2	74 4e		 je	 SHORT $LN3@Py_DecRef

; 930  :                 _Py_CHECK_REFCNT(op);

  000a4	c7 44 24 20 10
	00 00 00	 mov	 DWORD PTR [rsp+32], 16
  000ac	4c 8b 4c 24 50	 mov	 r9, QWORD PTR op$[rsp]
  000b1	41 b8 a2 03 00
	00		 mov	 r8d, 930		; 000003a2H
  000b7	48 8d 15 00 00
	00 00		 lea	 rdx, OFFSET FLAT:??_C@_0CD@HDJFDCDP@c?3?2src?2pyparallel?2include?2object@
  000be	48 8d 0d 00 00
	00 00		 lea	 rcx, OFFSET FLAT:??_C@_0L@DMHMLFIA@_Py_DecRef?$AA@
  000c5	e8 00 00 00 00	 call	 _PyParallel_Guard
  000ca	85 c0		 test	 eax, eax
  000cc	75 22		 jne	 SHORT $LN2@Py_DecRef
  000ce	48 8b 44 24 50	 mov	 rax, QWORD PTR op$[rsp]
  000d3	48 83 78 50 00	 cmp	 QWORD PTR [rax+80], 0
  000d8	7d 16		 jge	 SHORT $LN2@Py_DecRef
  000da	4c 8b 44 24 50	 mov	 r8, QWORD PTR op$[rsp]
  000df	ba a2 03 00 00	 mov	 edx, 930		; 000003a2H
  000e4	48 8d 0d 00 00
	00 00		 lea	 rcx, OFFSET FLAT:??_C@_0CD@HDJFDCDP@c?3?2src?2pyparallel?2include?2object@
  000eb	e8 00 00 00 00	 call	 _Py_NegativeRefcount
$LN2@Py_DecRef:

; 931  :             } else

  000f0	eb 0a		 jmp	 SHORT $LN1@Py_DecRef
$LN3@Py_DecRef:

; 932  :                 _Py_Dealloc((PyObject *)(op));

  000f2	48 8b 4c 24 50	 mov	 rcx, QWORD PTR op$[rsp]
  000f7	e8 00 00 00 00	 call	 _Py_Dealloc
$LN1@Py_DecRef:
$LN4@Py_DecRef:
$LN5@Py_DecRef:
$LN8@Py_DecRef:

; 933  :         }
; 934  :     }
; 935  : }

  000fc	48 83 c4 48	 add	 rsp, 72			; 00000048H
  00100	c3		 ret	 0
_Py_DecRef ENDP
_TEXT	ENDS
PUBLIC	_Py_IncRef
EXTRN	_Py_NoneStruct:BYTE
;	COMDAT pdata
; File c:\src\pyparallel\modules\_pickle.c
pdata	SEGMENT
$pdata$Pickler_clear_memo DD imagerel Pickler_clear_memo
	DD	imagerel Pickler_clear_memo+59
	DD	imagerel $unwind$Pickler_clear_memo
pdata	ENDS
;	COMDAT xdata
xdata	SEGMENT
$unwind$Pickler_clear_memo DD 010901H
	DD	04209H
; Function compile flags: /Odtp
xdata	ENDS
;	COMDAT Pickler_clear_memo
_TEXT	SEGMENT
self$ = 48
Pickler_clear_memo PROC					; COMDAT

; 3377 : {

  00000	48 89 4c 24 08	 mov	 QWORD PTR [rsp+8], rcx
  00005	48 83 ec 28	 sub	 rsp, 40			; 00000028H

; 3378 :     if (self->memo)

  00009	48 8b 44 24 30	 mov	 rax, QWORD PTR self$[rsp]
  0000e	48 83 78 60 00	 cmp	 QWORD PTR [rax+96], 0
  00013	74 0e		 je	 SHORT $LN1@Pickler_cl

; 3379 :         PyMemoTable_Clear(self->memo);

  00015	48 8b 44 24 30	 mov	 rax, QWORD PTR self$[rsp]
  0001a	48 8b 48 60	 mov	 rcx, QWORD PTR [rax+96]
  0001e	e8 00 00 00 00	 call	 PyMemoTable_Clear
$LN1@Pickler_cl:

; 3380 : 
; 3381 :     Py_RETURN_NONE;

  00023	48 8d 0d 00 00
	00 00		 lea	 rcx, OFFSET FLAT:_Py_NoneStruct
  0002a	e8 00 00 00 00	 call	 _Py_IncRef
  0002f	48 8d 05 00 00
	00 00		 lea	 rax, OFFSET FLAT:_Py_NoneStruct

; 3382 : }

  00036	48 83 c4 28	 add	 rsp, 40			; 00000028H
  0003a	c3		 ret	 0
Pickler_clear_memo ENDP
_TEXT	ENDS
PUBLIC	??_C@_0L@DHGMCEID@_Py_IncRef?$AA@		; `string'
;	COMDAT pdata
; File c:\src\pyparallel\include\object.h
pdata	SEGMENT
$pdata$_Py_IncRef DD imagerel $LN7
	DD	imagerel $LN7+132
	DD	imagerel $unwind$_Py_IncRef
pdata	ENDS
;	COMDAT xdata
xdata	SEGMENT
$unwind$_Py_IncRef DD 010901H
	DD	06209H
xdata	ENDS
;	COMDAT ??_C@_0L@DHGMCEID@_Py_IncRef?$AA@
CONST	SEGMENT
??_C@_0L@DHGMCEID@_Py_IncRef?$AA@ DB '_Py_IncRef', 00H	; `string'
; Function compile flags: /Odtp
CONST	ENDS
;	COMDAT _Py_IncRef
_TEXT	SEGMENT
op$ = 64
_Py_IncRef PROC						; COMDAT

; 904  : {

$LN7:
  00000	48 89 4c 24 08	 mov	 QWORD PTR [rsp+8], rcx
  00005	48 83 ec 38	 sub	 rsp, 56			; 00000038H

; 905  :     if ((!Py_PXCTX && (Py_ISPY(op) || Px_PERSISTED(op)))) {

  00009	e8 00 00 00 00	 call	 _Py_PXCTX
  0000e	85 c0		 test	 eax, eax
  00010	75 6d		 jne	 SHORT $LN2@Py_IncRef
  00012	c7 44 24 20 02
	00 00 00	 mov	 DWORD PTR [rsp+32], 2
  0001a	4c 8b 4c 24 40	 mov	 r9, QWORD PTR op$[rsp]
  0001f	41 b8 89 03 00
	00		 mov	 r8d, 905		; 00000389H
  00025	48 8d 15 00 00
	00 00		 lea	 rdx, OFFSET FLAT:??_C@_0CD@HDJFDCDP@c?3?2src?2pyparallel?2include?2object@
  0002c	48 8d 0d 00 00
	00 00		 lea	 rcx, OFFSET FLAT:??_C@_0L@DHGMCEID@_Py_IncRef?$AA@
  00033	e8 00 00 00 00	 call	 _PyParallel_Guard
  00038	85 c0		 test	 eax, eax
  0003a	75 12		 jne	 SHORT $LN1@Py_IncRef
  0003c	48 8b 44 24 40	 mov	 rax, QWORD PTR op$[rsp]
  00041	48 8b 40 20	 mov	 rax, QWORD PTR [rax+32]
  00045	48 83 e0 20	 and	 rax, 32			; 00000020H
  00049	48 85 c0	 test	 rax, rax
  0004c	74 31		 je	 SHORT $LN2@Py_IncRef
$LN1@Py_IncRef:

; 906  :         _Py_INC_REFTOTAL;

  0004e	e8 00 00 00 00	 call	 _Py_PXCTX
  00053	85 c0		 test	 eax, eax
  00055	74 02		 je	 SHORT $LN5@Py_IncRef
  00057	eb 11		 jmp	 SHORT $LN6@Py_IncRef
$LN5@Py_IncRef:
  00059	48 8b 05 00 00
	00 00		 mov	 rax, QWORD PTR _Py_RefTotal
  00060	48 ff c0	 inc	 rax
  00063	48 89 05 00 00
	00 00		 mov	 QWORD PTR _Py_RefTotal, rax
$LN6@Py_IncRef:

; 907  :         (((PyObject*)(op))->ob_refcnt++);

  0006a	48 8b 44 24 40	 mov	 rax, QWORD PTR op$[rsp]
  0006f	48 8b 40 50	 mov	 rax, QWORD PTR [rax+80]
  00073	48 ff c0	 inc	 rax
  00076	48 8b 4c 24 40	 mov	 rcx, QWORD PTR op$[rsp]
  0007b	48 89 41 50	 mov	 QWORD PTR [rcx+80], rax
$LN2@Py_IncRef:

; 908  :     }
; 909  : }

  0007f	48 83 c4 38	 add	 rsp, 56			; 00000038H
  00083	c3		 ret	 0
_Py_IncRef ENDP
_TEXT	ENDS
EXTRN	memset:PROC
;	COMDAT pdata
; File c:\src\pyparallel\modules\_pickle.c
pdata	SEGMENT
$pdata$PyMemoTable_Clear DD imagerel PyMemoTable_Clear
	DD	imagerel PyMemoTable_Clear+156
	DD	imagerel $unwind$PyMemoTable_Clear
pdata	ENDS
;	COMDAT xdata
xdata	SEGMENT
$unwind$PyMemoTable_Clear DD 010901H
	DD	06209H
; Function compile flags: /Odtp
xdata	ENDS
;	COMDAT PyMemoTable_Clear
_TEXT	SEGMENT
i$ = 32
self$ = 64
PyMemoTable_Clear PROC					; COMDAT

; 458  : {

  00000	48 89 4c 24 08	 mov	 QWORD PTR [rsp+8], rcx
  00005	48 83 ec 38	 sub	 rsp, 56			; 00000038H

; 459  :     Py_ssize_t i = self->mt_allocated;

  00009	48 8b 44 24 40	 mov	 rax, QWORD PTR self$[rsp]
  0000e	48 8b 40 10	 mov	 rax, QWORD PTR [rax+16]
  00012	48 89 44 24 20	 mov	 QWORD PTR i$[rsp], rax
$LN6@PyMemoTabl:

; 460  : 
; 461  :     while (--i >= 0) {

  00017	48 8b 44 24 20	 mov	 rax, QWORD PTR i$[rsp]
  0001c	48 ff c8	 dec	 rax
  0001f	48 89 44 24 20	 mov	 QWORD PTR i$[rsp], rax
  00024	48 83 7c 24 20
	00		 cmp	 QWORD PTR i$[rsp], 0
  0002a	7c 3c		 jl	 SHORT $LN5@PyMemoTabl
$LN4@PyMemoTabl:

; 462  :         Py_XDECREF(self->mt_table[i].me_key);

  0002c	48 8b 44 24 20	 mov	 rax, QWORD PTR i$[rsp]
  00031	48 6b c0 10	 imul	 rax, 16
  00035	48 8b 4c 24 40	 mov	 rcx, QWORD PTR self$[rsp]
  0003a	48 8b 49 18	 mov	 rcx, QWORD PTR [rcx+24]
  0003e	48 83 3c 08 00	 cmp	 QWORD PTR [rax+rcx], 0
  00043	74 1b		 je	 SHORT $LN1@PyMemoTabl
  00045	48 8b 44 24 20	 mov	 rax, QWORD PTR i$[rsp]
  0004a	48 6b c0 10	 imul	 rax, 16
  0004e	48 8b 4c 24 40	 mov	 rcx, QWORD PTR self$[rsp]
  00053	48 8b 49 18	 mov	 rcx, QWORD PTR [rcx+24]
  00057	48 8b 0c 01	 mov	 rcx, QWORD PTR [rcx+rax]
  0005b	e8 00 00 00 00	 call	 _Py_DecRef
$LN1@PyMemoTabl:
  00060	33 c0		 xor	 eax, eax
  00062	85 c0		 test	 eax, eax
  00064	75 c6		 jne	 SHORT $LN4@PyMemoTabl

; 463  :     }

  00066	eb af		 jmp	 SHORT $LN6@PyMemoTabl
$LN5@PyMemoTabl:

; 464  :     self->mt_used = 0;

  00068	48 8b 44 24 40	 mov	 rax, QWORD PTR self$[rsp]
  0006d	48 c7 40 08 00
	00 00 00	 mov	 QWORD PTR [rax+8], 0

; 465  :     memset(self->mt_table, 0, self->mt_allocated * sizeof(PyMemoEntry));

  00075	48 8b 44 24 40	 mov	 rax, QWORD PTR self$[rsp]
  0007a	48 8b 40 10	 mov	 rax, QWORD PTR [rax+16]
  0007e	48 6b c0 10	 imul	 rax, 16
  00082	4c 8b c0	 mov	 r8, rax
  00085	33 d2		 xor	 edx, edx
  00087	48 8b 44 24 40	 mov	 rax, QWORD PTR self$[rsp]
  0008c	48 8b 48 18	 mov	 rcx, QWORD PTR [rax+24]
  00090	e8 00 00 00 00	 call	 memset

; 466  :     return 0;

  00095	33 c0		 xor	 eax, eax

; 467  : }

  00097	48 83 c4 38	 add	 rsp, 56			; 00000038H
  0009b	c3		 ret	 0
PyMemoTable_Clear ENDP
_TEXT	ENDS
PUBLIC	??_C@_06CKFCKBHM@O?3dump?$AA@			; `string'
PUBLIC	??_C@_0DD@EIOLGLN@Pickler?4__init__?$CI?$CJ?5was?5not?5calle@ ; `string'
EXTRN	PyArg_ParseTuple:PROC
EXTRN	PyErr_Format:PROC
;	COMDAT pdata
pdata	SEGMENT
$pdata$Pickler_dump DD imagerel Pickler_dump
	DD	imagerel Pickler_dump+178
	DD	imagerel $unwind$Pickler_dump
pdata	ENDS
;	COMDAT xdata
xdata	SEGMENT
$unwind$Pickler_dump DD 010e01H
	DD	0620eH
xdata	ENDS
;	COMDAT ??_C@_06CKFCKBHM@O?3dump?$AA@
CONST	SEGMENT
??_C@_06CKFCKBHM@O?3dump?$AA@ DB 'O:dump', 00H		; `string'
CONST	ENDS
;	COMDAT ??_C@_0DD@EIOLGLN@Pickler?4__init__?$CI?$CJ?5was?5not?5calle@
CONST	SEGMENT
??_C@_0DD@EIOLGLN@Pickler?4__init__?$CI?$CJ?5was?5not?5calle@ DB 'Pickler'
	DB	'.__init__() was not called by %s.__init__()', 00H ; `string'
; Function compile flags: /Odtp
CONST	ENDS
;	COMDAT Pickler_dump
_TEXT	SEGMENT
obj$ = 32
self$ = 64
args$ = 72
Pickler_dump PROC					; COMDAT

; 3389 : {

  00000	48 89 54 24 10	 mov	 QWORD PTR [rsp+16], rdx
  00005	48 89 4c 24 08	 mov	 QWORD PTR [rsp+8], rcx
  0000a	48 83 ec 38	 sub	 rsp, 56			; 00000038H

; 3390 :     PyObject *obj;
; 3391 : 
; 3392 :     /* Check whether the Pickler was initialized correctly (issue3664).
; 3393 :        Developers often forget to call __init__() in their subclasses, which
; 3394 :        would trigger a segfault without this check. */
; 3395 :     if (self->write == NULL) {

  0000e	48 8b 44 24 40	 mov	 rax, QWORD PTR self$[rsp]
  00013	48 83 b8 80 00
	00 00 00	 cmp	 QWORD PTR [rax+128], 0
  0001b	75 24		 jne	 SHORT $LN5@Pickler_du

; 3396 :         PyErr_Format(PicklingError,
; 3397 :                      "Pickler.__init__() was not called by %s.__init__()",
; 3398 :                      Py_TYPE(self)->tp_name);

  0001d	48 8b 44 24 40	 mov	 rax, QWORD PTR self$[rsp]
  00022	48 8b 40 58	 mov	 rax, QWORD PTR [rax+88]
  00026	4c 8b 40 70	 mov	 r8, QWORD PTR [rax+112]
  0002a	48 8d 15 00 00
	00 00		 lea	 rdx, OFFSET FLAT:??_C@_0DD@EIOLGLN@Pickler?4__init__?$CI?$CJ?5was?5not?5calle@
  00031	48 8b 0d 00 00
	00 00		 mov	 rcx, QWORD PTR PicklingError
  00038	e8 00 00 00 00	 call	 PyErr_Format

; 3399 :         return NULL;

  0003d	33 c0		 xor	 eax, eax
  0003f	eb 6c		 jmp	 SHORT $LN6@Pickler_du
$LN5@Pickler_du:

; 3400 :     }
; 3401 : 
; 3402 :     if (!PyArg_ParseTuple(args, "O:dump", &obj))

  00041	4c 8d 44 24 20	 lea	 r8, QWORD PTR obj$[rsp]
  00046	48 8d 15 00 00
	00 00		 lea	 rdx, OFFSET FLAT:??_C@_06CKFCKBHM@O?3dump?$AA@
  0004d	48 8b 4c 24 48	 mov	 rcx, QWORD PTR args$[rsp]
  00052	e8 00 00 00 00	 call	 PyArg_ParseTuple
  00057	85 c0		 test	 eax, eax
  00059	75 04		 jne	 SHORT $LN4@Pickler_du

; 3403 :         return NULL;

  0005b	33 c0		 xor	 eax, eax
  0005d	eb 4e		 jmp	 SHORT $LN6@Pickler_du
$LN4@Pickler_du:

; 3404 : 
; 3405 :     if (_Pickler_ClearBuffer(self) < 0)

  0005f	48 8b 4c 24 40	 mov	 rcx, QWORD PTR self$[rsp]
  00064	e8 00 00 00 00	 call	 _Pickler_ClearBuffer
  00069	85 c0		 test	 eax, eax
  0006b	7d 04		 jge	 SHORT $LN3@Pickler_du

; 3406 :         return NULL;

  0006d	33 c0		 xor	 eax, eax
  0006f	eb 3c		 jmp	 SHORT $LN6@Pickler_du
$LN3@Pickler_du:

; 3407 : 
; 3408 :     if (dump(self, obj) < 0)

  00071	48 8b 54 24 20	 mov	 rdx, QWORD PTR obj$[rsp]
  00076	48 8b 4c 24 40	 mov	 rcx, QWORD PTR self$[rsp]
  0007b	e8 00 00 00 00	 call	 dump
  00080	85 c0		 test	 eax, eax
  00082	7d 04		 jge	 SHORT $LN2@Pickler_du

; 3409 :         return NULL;

  00084	33 c0		 xor	 eax, eax
  00086	eb 25		 jmp	 SHORT $LN6@Pickler_du
$LN2@Pickler_du:

; 3410 : 
; 3411 :     if (_Pickler_FlushToFile(self) < 0)

  00088	48 8b 4c 24 40	 mov	 rcx, QWORD PTR self$[rsp]
  0008d	e8 00 00 00 00	 call	 _Pickler_FlushToFile
  00092	85 c0		 test	 eax, eax
  00094	7d 04		 jge	 SHORT $LN1@Pickler_du

; 3412 :         return NULL;

  00096	33 c0		 xor	 eax, eax
  00098	eb 13		 jmp	 SHORT $LN6@Pickler_du
$LN1@Pickler_du:

; 3413 : 
; 3414 :     Py_RETURN_NONE;

  0009a	48 8d 0d 00 00
	00 00		 lea	 rcx, OFFSET FLAT:_Py_NoneStruct
  000a1	e8 00 00 00 00	 call	 _Py_IncRef
  000a6	48 8d 05 00 00
	00 00		 lea	 rax, OFFSET FLAT:_Py_NoneStruct
$LN6@Pickler_du:

; 3415 : }

  000ad	48 83 c4 38	 add	 rsp, 56			; 00000038H
  000b1	c3		 ret	 0
Pickler_dump ENDP
_TEXT	ENDS
PUBLIC	??_C@_0BF@HANIONFG@_Pickler_ClearBuffer?$AA@	; `string'
PUBLIC	??_C@_0BF@HEFJBIHO@?4?4?2Modules?2_pickle?4c?$AA@ ; `string'
EXTRN	PyBytes_FromStringAndSize:PROC
;	COMDAT pdata
pdata	SEGMENT
$pdata$_Pickler_ClearBuffer DD imagerel _Pickler_ClearBuffer
	DD	imagerel _Pickler_ClearBuffer+198
	DD	imagerel $unwind$_Pickler_ClearBuffer
pdata	ENDS
;	COMDAT xdata
xdata	SEGMENT
$unwind$_Pickler_ClearBuffer DD 010901H
	DD	08209H
xdata	ENDS
;	COMDAT ??_C@_0BF@HANIONFG@_Pickler_ClearBuffer?$AA@
CONST	SEGMENT
??_C@_0BF@HANIONFG@_Pickler_ClearBuffer?$AA@ DB '_Pickler_ClearBuffer', 00H ; `string'
CONST	ENDS
;	COMDAT ??_C@_0BF@HEFJBIHO@?4?4?2Modules?2_pickle?4c?$AA@
CONST	SEGMENT
??_C@_0BF@HEFJBIHO@?4?4?2Modules?2_pickle?4c?$AA@ DB '..\Modules\_pickle.'
	DB	'c', 00H					; `string'
; Function compile flags: /Odtp
CONST	ENDS
;	COMDAT _Pickler_ClearBuffer
_TEXT	SEGMENT
_py_tmp$20842 = 48
self$ = 80
_Pickler_ClearBuffer PROC				; COMDAT

; 665  : {

  00000	48 89 4c 24 08	 mov	 QWORD PTR [rsp+8], rcx
  00005	48 83 ec 48	 sub	 rsp, 72			; 00000048H
$LN5@Pickler_Cl:

; 666  :     Py_CLEAR(self->output_buffer);

  00009	48 8b 44 24 50	 mov	 rax, QWORD PTR self$[rsp]
  0000e	48 83 b8 88 00
	00 00 00	 cmp	 QWORD PTR [rax+136], 0
  00016	74 5c		 je	 SHORT $LN2@Pickler_Cl
  00018	c7 44 24 20 10
	00 00 00	 mov	 DWORD PTR [rsp+32], 16
  00020	48 8b 44 24 50	 mov	 rax, QWORD PTR self$[rsp]
  00025	4c 8b 88 88 00
	00 00		 mov	 r9, QWORD PTR [rax+136]
  0002c	41 b8 9a 02 00
	00		 mov	 r8d, 666		; 0000029aH
  00032	48 8d 15 00 00
	00 00		 lea	 rdx, OFFSET FLAT:??_C@_0BF@HEFJBIHO@?4?4?2Modules?2_pickle?4c?$AA@
  00039	48 8d 0d 00 00
	00 00		 lea	 rcx, OFFSET FLAT:??_C@_0BF@HANIONFG@_Pickler_ClearBuffer?$AA@
  00040	e8 00 00 00 00	 call	 _PyParallel_Guard
  00045	85 c0		 test	 eax, eax
  00047	75 2b		 jne	 SHORT $LN2@Pickler_Cl
  00049	48 8b 44 24 50	 mov	 rax, QWORD PTR self$[rsp]
  0004e	48 8b 80 88 00
	00 00		 mov	 rax, QWORD PTR [rax+136]
  00055	48 89 44 24 30	 mov	 QWORD PTR _py_tmp$20842[rsp], rax
  0005a	48 8b 44 24 50	 mov	 rax, QWORD PTR self$[rsp]
  0005f	48 c7 80 88 00
	00 00 00 00 00
	00		 mov	 QWORD PTR [rax+136], 0
  0006a	48 8b 4c 24 30	 mov	 rcx, QWORD PTR _py_tmp$20842[rsp]
  0006f	e8 00 00 00 00	 call	 _Py_DecRef
$LN2@Pickler_Cl:
  00074	33 c0		 xor	 eax, eax
  00076	85 c0		 test	 eax, eax
  00078	75 8f		 jne	 SHORT $LN5@Pickler_Cl

; 667  :     self->output_buffer =
; 668  :         PyBytes_FromStringAndSize(NULL, self->max_output_len);

  0007a	48 8b 44 24 50	 mov	 rax, QWORD PTR self$[rsp]
  0007f	48 8b 90 98 00
	00 00		 mov	 rdx, QWORD PTR [rax+152]
  00086	33 c9		 xor	 ecx, ecx
  00088	e8 00 00 00 00	 call	 PyBytes_FromStringAndSize
  0008d	48 8b 4c 24 50	 mov	 rcx, QWORD PTR self$[rsp]
  00092	48 89 81 88 00
	00 00		 mov	 QWORD PTR [rcx+136], rax

; 669  :     if (self->output_buffer == NULL)

  00099	48 8b 44 24 50	 mov	 rax, QWORD PTR self$[rsp]
  0009e	48 83 b8 88 00
	00 00 00	 cmp	 QWORD PTR [rax+136], 0
  000a6	75 07		 jne	 SHORT $LN1@Pickler_Cl

; 670  :         return -1;

  000a8	b8 ff ff ff ff	 mov	 eax, -1
  000ad	eb 12		 jmp	 SHORT $LN6@Pickler_Cl
$LN1@Pickler_Cl:

; 671  :     self->output_len = 0;

  000af	48 8b 44 24 50	 mov	 rax, QWORD PTR self$[rsp]
  000b4	48 c7 80 90 00
	00 00 00 00 00
	00		 mov	 QWORD PTR [rax+144], 0

; 672  :     return 0;

  000bf	33 c0		 xor	 eax, eax
$LN6@Pickler_Cl:

; 673  : }

  000c1	48 83 c4 48	 add	 rsp, 72			; 00000048H
  000c5	c3		 ret	 0
_Pickler_ClearBuffer ENDP
_TEXT	ENDS
PUBLIC	??_C@_1CI@DBNOBFI@?$AAs?$AAe?$AAl?$AAf?$AA?9?$AA?$DO?$AAw?$AAr?$AAi?$AAt?$AAe?$AA?5?$AA?$CB?$AA?$DN?$AA?5?$AAN?$AAU?$AAL?$AAL?$AA?$AA@ ; `string'
PUBLIC	??_C@_1CK@DHJKOIMG@?$AA?4?$AA?4?$AA?2?$AAM?$AAo?$AAd?$AAu?$AAl?$AAe?$AAs?$AA?2?$AA_?$AAp?$AAi?$AAc?$AAk?$AAl?$AAe?$AA?4?$AAc?$AA?$AA@ ; `string'
EXTRN	__imp__wassert:PROC
;	COMDAT pdata
pdata	SEGMENT
$pdata$_Pickler_FlushToFile DD imagerel _Pickler_FlushToFile
	DD	imagerel _Pickler_FlushToFile+173
	DD	imagerel $unwind$_Pickler_FlushToFile
pdata	ENDS
;	COMDAT xdata
xdata	SEGMENT
$unwind$_Pickler_FlushToFile DD 010901H
	DD	08209H
xdata	ENDS
;	COMDAT ??_C@_1CI@DBNOBFI@?$AAs?$AAe?$AAl?$AAf?$AA?9?$AA?$DO?$AAw?$AAr?$AAi?$AAt?$AAe?$AA?5?$AA?$CB?$AA?$DN?$AA?5?$AAN?$AAU?$AAL?$AAL?$AA?$AA@
CONST	SEGMENT
??_C@_1CI@DBNOBFI@?$AAs?$AAe?$AAl?$AAf?$AA?9?$AA?$DO?$AAw?$AAr?$AAi?$AAt?$AAe?$AA?5?$AA?$CB?$AA?$DN?$AA?5?$AAN?$AAU?$AAL?$AAL?$AA?$AA@ DB 's'
	DB	00H, 'e', 00H, 'l', 00H, 'f', 00H, '-', 00H, '>', 00H, 'w', 00H
	DB	'r', 00H, 'i', 00H, 't', 00H, 'e', 00H, ' ', 00H, '!', 00H, '='
	DB	00H, ' ', 00H, 'N', 00H, 'U', 00H, 'L', 00H, 'L', 00H, 00H, 00H ; `string'
CONST	ENDS
;	COMDAT ??_C@_1CK@DHJKOIMG@?$AA?4?$AA?4?$AA?2?$AAM?$AAo?$AAd?$AAu?$AAl?$AAe?$AAs?$AA?2?$AA_?$AAp?$AAi?$AAc?$AAk?$AAl?$AAe?$AA?4?$AAc?$AA?$AA@
CONST	SEGMENT
??_C@_1CK@DHJKOIMG@?$AA?4?$AA?4?$AA?2?$AAM?$AAo?$AAd?$AAu?$AAl?$AAe?$AAs?$AA?2?$AA_?$AAp?$AAi?$AAc?$AAk?$AAl?$AAe?$AA?4?$AAc?$AA?$AA@ DB '.'
	DB	00H, '.', 00H, '\', 00H, 'M', 00H, 'o', 00H, 'd', 00H, 'u', 00H
	DB	'l', 00H, 'e', 00H, 's', 00H, '\', 00H, '_', 00H, 'p', 00H, 'i'
	DB	00H, 'c', 00H, 'k', 00H, 'l', 00H, 'e', 00H, '.', 00H, 'c', 00H
	DB	00H, 00H					; `string'
; Function compile flags: /Odtp
CONST	ENDS
;	COMDAT _Pickler_FlushToFile
_TEXT	SEGMENT
output$ = 32
result$ = 40
tv82 = 48
self$ = 80
_Pickler_FlushToFile PROC				; COMDAT

; 690  : {

  00000	48 89 4c 24 08	 mov	 QWORD PTR [rsp+8], rcx
  00005	48 83 ec 48	 sub	 rsp, 72			; 00000048H

; 691  :     PyObject *output, *result;
; 692  : 
; 693  :     assert(self->write != NULL);

  00009	48 8b 44 24 50	 mov	 rax, QWORD PTR self$[rsp]
  0000e	48 83 b8 80 00
	00 00 00	 cmp	 QWORD PTR [rax+128], 0
  00016	75 1c		 jne	 SHORT $LN8@Pickler_Fl
  00018	41 b8 b5 02 00
	00		 mov	 r8d, 693		; 000002b5H
  0001e	48 8d 15 00 00
	00 00		 lea	 rdx, OFFSET FLAT:??_C@_1CK@DHJKOIMG@?$AA?4?$AA?4?$AA?2?$AAM?$AAo?$AAd?$AAu?$AAl?$AAe?$AAs?$AA?2?$AA_?$AAp?$AAi?$AAc?$AAk?$AAl?$AAe?$AA?4?$AAc?$AA?$AA@
  00025	48 8d 0d 00 00
	00 00		 lea	 rcx, OFFSET FLAT:??_C@_1CI@DBNOBFI@?$AAs?$AAe?$AAl?$AAf?$AA?9?$AA?$DO?$AAw?$AAr?$AAi?$AAt?$AAe?$AA?5?$AA?$CB?$AA?$DN?$AA?5?$AAN?$AAU?$AAL?$AAL?$AA?$AA@
  0002c	ff 15 00 00 00
	00		 call	 QWORD PTR __imp__wassert
  00032	33 c0		 xor	 eax, eax
$LN8@Pickler_Fl:

; 694  : 
; 695  :     output = _Pickler_GetString(self);

  00034	48 8b 4c 24 50	 mov	 rcx, QWORD PTR self$[rsp]
  00039	e8 00 00 00 00	 call	 _Pickler_GetString
  0003e	48 89 44 24 20	 mov	 QWORD PTR output$[rsp], rax

; 696  :     if (output == NULL)

  00043	48 83 7c 24 20
	00		 cmp	 QWORD PTR output$[rsp], 0
  00049	75 07		 jne	 SHORT $LN5@Pickler_Fl

; 697  :         return -1;

  0004b	b8 ff ff ff ff	 mov	 eax, -1
  00050	eb 56		 jmp	 SHORT $LN6@Pickler_Fl
$LN5@Pickler_Fl:

; 698  : 
; 699  :     result = _Pickler_FastCall(self, self->write, output);

  00052	4c 8b 44 24 20	 mov	 r8, QWORD PTR output$[rsp]
  00057	48 8b 44 24 50	 mov	 rax, QWORD PTR self$[rsp]
  0005c	48 8b 90 80 00
	00 00		 mov	 rdx, QWORD PTR [rax+128]
  00063	48 8b 4c 24 50	 mov	 rcx, QWORD PTR self$[rsp]
  00068	e8 00 00 00 00	 call	 _Pickler_FastCall
  0006d	48 89 44 24 28	 mov	 QWORD PTR result$[rsp], rax
$LN4@Pickler_Fl:

; 700  :     Py_XDECREF(result);

  00072	48 83 7c 24 28
	00		 cmp	 QWORD PTR result$[rsp], 0
  00078	74 0a		 je	 SHORT $LN1@Pickler_Fl
  0007a	48 8b 4c 24 28	 mov	 rcx, QWORD PTR result$[rsp]
  0007f	e8 00 00 00 00	 call	 _Py_DecRef
$LN1@Pickler_Fl:
  00084	33 c0		 xor	 eax, eax
  00086	85 c0		 test	 eax, eax
  00088	75 e8		 jne	 SHORT $LN4@Pickler_Fl

; 701  :     return (result == NULL) ? -1 : 0;

  0008a	48 83 7c 24 28
	00		 cmp	 QWORD PTR result$[rsp], 0
  00090	75 0a		 jne	 SHORT $LN9@Pickler_Fl
  00092	c7 44 24 30 ff
	ff ff ff	 mov	 DWORD PTR tv82[rsp], -1
  0009a	eb 08		 jmp	 SHORT $LN10@Pickler_Fl
$LN9@Pickler_Fl:
  0009c	c7 44 24 30 00
	00 00 00	 mov	 DWORD PTR tv82[rsp], 0
$LN10@Pickler_Fl:
  000a4	8b 44 24 30	 mov	 eax, DWORD PTR tv82[rsp]
$LN6@Pickler_Fl:

; 702  : }

  000a8	48 83 c4 48	 add	 rsp, 72			; 00000048H
  000ac	c3		 ret	 0
_Pickler_FlushToFile ENDP
_TEXT	ENDS
PUBLIC	??_C@_0BC@OGGBOJLP@_Pickler_FastCall?$AA@	; `string'
EXTRN	PyObject_Call:PROC
EXTRN	PyTuple_New:PROC
;	COMDAT pdata
pdata	SEGMENT
$pdata$_Pickler_FastCall DD imagerel _Pickler_FastCall
	DD	imagerel _Pickler_FastCall+329
	DD	imagerel $unwind$_Pickler_FastCall
pdata	ENDS
;	COMDAT xdata
xdata	SEGMENT
$unwind$_Pickler_FastCall DD 011301H
	DD	0a213H
xdata	ENDS
;	COMDAT ??_C@_0BC@OGGBOJLP@_Pickler_FastCall?$AA@
CONST	SEGMENT
??_C@_0BC@OGGBOJLP@_Pickler_FastCall?$AA@ DB '_Pickler_FastCall', 00H ; `string'
; Function compile flags: /Odtp
CONST	ENDS
;	COMDAT _Pickler_FastCall
_TEXT	SEGMENT
result$ = 48
_py_tmp$20829 = 56
tv67 = 64
self$ = 96
func$ = 104
arg$ = 112
_Pickler_FastCall PROC					; COMDAT

; 652  : {

  00000	4c 89 44 24 18	 mov	 QWORD PTR [rsp+24], r8
  00005	48 89 54 24 10	 mov	 QWORD PTR [rsp+16], rdx
  0000a	48 89 4c 24 08	 mov	 QWORD PTR [rsp+8], rcx
  0000f	48 83 ec 58	 sub	 rsp, 88			; 00000058H

; 653  :     PyObject *result = NULL;

  00013	48 c7 44 24 30
	00 00 00 00	 mov	 QWORD PTR result$[rsp], 0
$LN19@Pickler_Fa:

; 654  : 
; 655  :     ARG_TUP(self, arg);

  0001c	48 8b 44 24 60	 mov	 rax, QWORD PTR self$[rsp]
  00021	48 83 78 78 00	 cmp	 QWORD PTR [rax+120], 0
  00026	75 25		 jne	 SHORT $LN15@Pickler_Fa
  00028	b9 01 00 00 00	 mov	 ecx, 1
  0002d	e8 00 00 00 00	 call	 PyTuple_New
  00032	48 89 44 24 40	 mov	 QWORD PTR tv67[rsp], rax
  00037	48 8b 44 24 60	 mov	 rax, QWORD PTR self$[rsp]
  0003c	48 8b 4c 24 40	 mov	 rcx, QWORD PTR tv67[rsp]
  00041	48 89 48 78	 mov	 QWORD PTR [rax+120], rcx
  00045	48 83 7c 24 40
	00		 cmp	 QWORD PTR tv67[rsp], 0
  0004b	74 3c		 je	 SHORT $LN16@Pickler_Fa
$LN15@Pickler_Fa:
$LN14@Pickler_Fa:
  0004d	48 8b 44 24 60	 mov	 rax, QWORD PTR self$[rsp]
  00052	48 8b 40 78	 mov	 rax, QWORD PTR [rax+120]
  00056	48 83 78 70 00	 cmp	 QWORD PTR [rax+112], 0
  0005b	74 12		 je	 SHORT $LN11@Pickler_Fa
  0005d	48 8b 44 24 60	 mov	 rax, QWORD PTR self$[rsp]
  00062	48 8b 40 78	 mov	 rax, QWORD PTR [rax+120]
  00066	48 8b 48 70	 mov	 rcx, QWORD PTR [rax+112]
  0006a	e8 00 00 00 00	 call	 _Py_DecRef
$LN11@Pickler_Fa:
  0006f	33 c0		 xor	 eax, eax
  00071	85 c0		 test	 eax, eax
  00073	75 d8		 jne	 SHORT $LN14@Pickler_Fa
  00075	48 8b 44 24 60	 mov	 rax, QWORD PTR self$[rsp]
  0007a	48 8b 40 78	 mov	 rax, QWORD PTR [rax+120]
  0007e	48 8b 4c 24 70	 mov	 rcx, QWORD PTR arg$[rsp]
  00083	48 89 48 70	 mov	 QWORD PTR [rax+112], rcx
  00087	eb 0a		 jmp	 SHORT $LN10@Pickler_Fa
$LN16@Pickler_Fa:
  00089	48 8b 4c 24 70	 mov	 rcx, QWORD PTR arg$[rsp]
  0008e	e8 00 00 00 00	 call	 _Py_DecRef
$LN10@Pickler_Fa:
  00093	33 c0		 xor	 eax, eax
  00095	85 c0		 test	 eax, eax
  00097	75 83		 jne	 SHORT $LN19@Pickler_Fa

; 656  :     if (self->arg) {

  00099	48 8b 44 24 60	 mov	 rax, QWORD PTR self$[rsp]
  0009e	48 83 78 78 00	 cmp	 QWORD PTR [rax+120], 0
  000a3	0f 84 96 00 00
	00		 je	 $LN9@Pickler_Fa

; 657  :         result = PyObject_Call(func, self->arg, NULL);

  000a9	45 33 c0	 xor	 r8d, r8d
  000ac	48 8b 44 24 60	 mov	 rax, QWORD PTR self$[rsp]
  000b1	48 8b 50 78	 mov	 rdx, QWORD PTR [rax+120]
  000b5	48 8b 4c 24 68	 mov	 rcx, QWORD PTR func$[rsp]
  000ba	e8 00 00 00 00	 call	 PyObject_Call
  000bf	48 89 44 24 30	 mov	 QWORD PTR result$[rsp], rax
$LN8@Pickler_Fa:

; 658  :         FREE_ARG_TUP(self);

  000c4	48 8b 44 24 60	 mov	 rax, QWORD PTR self$[rsp]
  000c9	48 8b 40 78	 mov	 rax, QWORD PTR [rax+120]
  000cd	48 83 78 50 01	 cmp	 QWORD PTR [rax+80], 1
  000d2	7e 65		 jle	 SHORT $LN5@Pickler_Fa
$LN4@Pickler_Fa:
  000d4	48 8b 44 24 60	 mov	 rax, QWORD PTR self$[rsp]
  000d9	48 83 78 78 00	 cmp	 QWORD PTR [rax+120], 0
  000de	74 53		 je	 SHORT $LN1@Pickler_Fa
  000e0	c7 44 24 20 10
	00 00 00	 mov	 DWORD PTR [rsp+32], 16
  000e8	48 8b 44 24 60	 mov	 rax, QWORD PTR self$[rsp]
  000ed	4c 8b 48 78	 mov	 r9, QWORD PTR [rax+120]
  000f1	41 b8 92 02 00
	00		 mov	 r8d, 658		; 00000292H
  000f7	48 8d 15 00 00
	00 00		 lea	 rdx, OFFSET FLAT:??_C@_0BF@HEFJBIHO@?4?4?2Modules?2_pickle?4c?$AA@
  000fe	48 8d 0d 00 00
	00 00		 lea	 rcx, OFFSET FLAT:??_C@_0BC@OGGBOJLP@_Pickler_FastCall?$AA@
  00105	e8 00 00 00 00	 call	 _PyParallel_Guard
  0010a	85 c0		 test	 eax, eax
  0010c	75 25		 jne	 SHORT $LN1@Pickler_Fa
  0010e	48 8b 44 24 60	 mov	 rax, QWORD PTR self$[rsp]
  00113	48 8b 40 78	 mov	 rax, QWORD PTR [rax+120]
  00117	48 89 44 24 38	 mov	 QWORD PTR _py_tmp$20829[rsp], rax
  0011c	48 8b 44 24 60	 mov	 rax, QWORD PTR self$[rsp]
  00121	48 c7 40 78 00
	00 00 00	 mov	 QWORD PTR [rax+120], 0
  00129	48 8b 4c 24 38	 mov	 rcx, QWORD PTR _py_tmp$20829[rsp]
  0012e	e8 00 00 00 00	 call	 _Py_DecRef
$LN1@Pickler_Fa:
  00133	33 c0		 xor	 eax, eax
  00135	85 c0		 test	 eax, eax
  00137	75 9b		 jne	 SHORT $LN4@Pickler_Fa
$LN5@Pickler_Fa:
  00139	33 c0		 xor	 eax, eax
  0013b	85 c0		 test	 eax, eax
  0013d	75 85		 jne	 SHORT $LN8@Pickler_Fa
$LN9@Pickler_Fa:

; 659  :     }
; 660  :     return result;

  0013f	48 8b 44 24 30	 mov	 rax, QWORD PTR result$[rsp]

; 661  : }

  00144	48 83 c4 58	 add	 rsp, 88			; 00000058H
  00148	c3		 ret	 0
_Pickler_FastCall ENDP
_TEXT	ENDS
PUBLIC	??_C@_1DI@OCEFHDBO@?$AAs?$AAe?$AAl?$AAf?$AA?9?$AA?$DO?$AAo?$AAu?$AAt?$AAp?$AAu?$AAt?$AA_?$AAb?$AAu?$AAf?$AAf?$AAe?$AAr?$AA?5?$AA?$CB?$AA?$DN?$AA?5?$AAN?$AAU?$AAL?$AAL?$AA?$AA@ ; `string'
EXTRN	_PyBytes_Resize:PROC
;	COMDAT pdata
pdata	SEGMENT
$pdata$_Pickler_GetString DD imagerel _Pickler_GetString
	DD	imagerel _Pickler_GetString+125
	DD	imagerel $unwind$_Pickler_GetString
pdata	ENDS
;	COMDAT xdata
xdata	SEGMENT
$unwind$_Pickler_GetString DD 010901H
	DD	06209H
xdata	ENDS
;	COMDAT ??_C@_1DI@OCEFHDBO@?$AAs?$AAe?$AAl?$AAf?$AA?9?$AA?$DO?$AAo?$AAu?$AAt?$AAp?$AAu?$AAt?$AA_?$AAb?$AAu?$AAf?$AAf?$AAe?$AAr?$AA?5?$AA?$CB?$AA?$DN?$AA?5?$AAN?$AAU?$AAL?$AAL?$AA?$AA@
CONST	SEGMENT
??_C@_1DI@OCEFHDBO@?$AAs?$AAe?$AAl?$AAf?$AA?9?$AA?$DO?$AAo?$AAu?$AAt?$AAp?$AAu?$AAt?$AA_?$AAb?$AAu?$AAf?$AAf?$AAe?$AAr?$AA?5?$AA?$CB?$AA?$DN?$AA?5?$AAN?$AAU?$AAL?$AAL?$AA?$AA@ DB 's'
	DB	00H, 'e', 00H, 'l', 00H, 'f', 00H, '-', 00H, '>', 00H, 'o', 00H
	DB	'u', 00H, 't', 00H, 'p', 00H, 'u', 00H, 't', 00H, '_', 00H, 'b'
	DB	00H, 'u', 00H, 'f', 00H, 'f', 00H, 'e', 00H, 'r', 00H, ' ', 00H
	DB	'!', 00H, '=', 00H, ' ', 00H, 'N', 00H, 'U', 00H, 'L', 00H, 'L'
	DB	00H, 00H, 00H				; `string'
; Function compile flags: /Odtp
CONST	ENDS
;	COMDAT _Pickler_GetString
_TEXT	SEGMENT
output_buffer$ = 32
self$ = 64
_Pickler_GetString PROC					; COMDAT

; 677  : {

  00000	48 89 4c 24 08	 mov	 QWORD PTR [rsp+8], rcx
  00005	48 83 ec 38	 sub	 rsp, 56			; 00000038H

; 678  :     PyObject *output_buffer = self->output_buffer;

  00009	48 8b 44 24 40	 mov	 rax, QWORD PTR self$[rsp]
  0000e	48 8b 80 88 00
	00 00		 mov	 rax, QWORD PTR [rax+136]
  00015	48 89 44 24 20	 mov	 QWORD PTR output_buffer$[rsp], rax

; 679  : 
; 680  :     assert(self->output_buffer != NULL);

  0001a	48 8b 44 24 40	 mov	 rax, QWORD PTR self$[rsp]
  0001f	48 83 b8 88 00
	00 00 00	 cmp	 QWORD PTR [rax+136], 0
  00027	75 1c		 jne	 SHORT $LN4@Pickler_Ge
  00029	41 b8 a8 02 00
	00		 mov	 r8d, 680		; 000002a8H
  0002f	48 8d 15 00 00
	00 00		 lea	 rdx, OFFSET FLAT:??_C@_1CK@DHJKOIMG@?$AA?4?$AA?4?$AA?2?$AAM?$AAo?$AAd?$AAu?$AAl?$AAe?$AAs?$AA?2?$AA_?$AAp?$AAi?$AAc?$AAk?$AAl?$AAe?$AA?4?$AAc?$AA?$AA@
  00036	48 8d 0d 00 00
	00 00		 lea	 rcx, OFFSET FLAT:??_C@_1DI@OCEFHDBO@?$AAs?$AAe?$AAl?$AAf?$AA?9?$AA?$DO?$AAo?$AAu?$AAt?$AAp?$AAu?$AAt?$AA_?$AAb?$AAu?$AAf?$AAf?$AAe?$AAr?$AA?5?$AA?$CB?$AA?$DN?$AA?5?$AAN?$AAU?$AAL?$AAL?$AA?$AA@
  0003d	ff 15 00 00 00
	00		 call	 QWORD PTR __imp__wassert
  00043	33 c0		 xor	 eax, eax
$LN4@Pickler_Ge:

; 681  :     self->output_buffer = NULL;

  00045	48 8b 44 24 40	 mov	 rax, QWORD PTR self$[rsp]
  0004a	48 c7 80 88 00
	00 00 00 00 00
	00		 mov	 QWORD PTR [rax+136], 0

; 682  :     /* Resize down to exact size */
; 683  :     if (_PyBytes_Resize(&output_buffer, self->output_len) < 0)

  00055	48 8b 44 24 40	 mov	 rax, QWORD PTR self$[rsp]
  0005a	48 8b 90 90 00
	00 00		 mov	 rdx, QWORD PTR [rax+144]
  00061	48 8d 4c 24 20	 lea	 rcx, QWORD PTR output_buffer$[rsp]
  00066	e8 00 00 00 00	 call	 _PyBytes_Resize
  0006b	85 c0		 test	 eax, eax
  0006d	7d 04		 jge	 SHORT $LN1@Pickler_Ge

; 684  :         return NULL;

  0006f	33 c0		 xor	 eax, eax
  00071	eb 05		 jmp	 SHORT $LN2@Pickler_Ge
$LN1@Pickler_Ge:

; 685  :     return output_buffer;

  00073	48 8b 44 24 20	 mov	 rax, QWORD PTR output_buffer$[rsp]
$LN2@Pickler_Ge:

; 686  : }

  00078	48 83 c4 38	 add	 rsp, 56			; 00000038H
  0007c	c3		 ret	 0
_Pickler_GetString ENDP
_TEXT	ENDS
PUBLIC	??_C@_1EM@PPAIJE@?$AAs?$AAe?$AAl?$AAf?$AA?9?$AA?$DO?$AAp?$AAr?$AAo?$AAt?$AAo?$AA?5?$AA?$DO?$AA?$DN?$AA?5?$AA0?$AA?5?$AA?$CG?$AA?$CG?$AA?5?$AAs?$AAe?$AAl?$AAf?$AA?9?$AA?$DO?$AAp?$AAr?$AAo?$AAt?$AAo?$AA?5@ ; `string'
;	COMDAT pdata
pdata	SEGMENT
$pdata$dump DD	imagerel dump
	DD	imagerel dump+208
	DD	imagerel $unwind$dump
pdata	ENDS
;	COMDAT xdata
xdata	SEGMENT
$unwind$dump DD	010e01H
	DD	0620eH
xdata	ENDS
;	COMDAT ??_C@_1EM@PPAIJE@?$AAs?$AAe?$AAl?$AAf?$AA?9?$AA?$DO?$AAp?$AAr?$AAo?$AAt?$AAo?$AA?5?$AA?$DO?$AA?$DN?$AA?5?$AA0?$AA?5?$AA?$CG?$AA?$CG?$AA?5?$AAs?$AAe?$AAl?$AAf?$AA?9?$AA?$DO?$AAp?$AAr?$AAo?$AAt?$AAo?$AA?5@
CONST	SEGMENT
??_C@_1EM@PPAIJE@?$AAs?$AAe?$AAl?$AAf?$AA?9?$AA?$DO?$AAp?$AAr?$AAo?$AAt?$AAo?$AA?5?$AA?$DO?$AA?$DN?$AA?5?$AA0?$AA?5?$AA?$CG?$AA?$CG?$AA?5?$AAs?$AAe?$AAl?$AAf?$AA?9?$AA?$DO?$AAp?$AAr?$AAo?$AAt?$AAo?$AA?5@ DB 's'
	DB	00H, 'e', 00H, 'l', 00H, 'f', 00H, '-', 00H, '>', 00H, 'p', 00H
	DB	'r', 00H, 'o', 00H, 't', 00H, 'o', 00H, ' ', 00H, '>', 00H, '='
	DB	00H, ' ', 00H, '0', 00H, ' ', 00H, '&', 00H, '&', 00H, ' ', 00H
	DB	's', 00H, 'e', 00H, 'l', 00H, 'f', 00H, '-', 00H, '>', 00H, 'p'
	DB	00H, 'r', 00H, 'o', 00H, 't', 00H, 'o', 00H, ' ', 00H, '<', 00H
	DB	' ', 00H, '2', 00H, '5', 00H, '6', 00H, 00H, 00H ; `string'
; Function compile flags: /Odtp
CONST	ENDS
;	COMDAT dump
_TEXT	SEGMENT
stop_op$ = 32
header$22748 = 36
self$ = 64
obj$ = 72
dump	PROC						; COMDAT

; 3347 : {

  00000	48 89 54 24 10	 mov	 QWORD PTR [rsp+16], rdx
  00005	48 89 4c 24 08	 mov	 QWORD PTR [rsp+8], rcx
  0000a	48 83 ec 38	 sub	 rsp, 56			; 00000038H

; 3348 :     const char stop_op = STOP;

  0000e	c6 44 24 20 2e	 mov	 BYTE PTR stop_op$[rsp], 46 ; 0000002eH

; 3349 : 
; 3350 :     if (self->proto >= 2) {

  00013	48 8b 44 24 40	 mov	 rax, QWORD PTR self$[rsp]
  00018	83 b8 a0 00 00
	00 02		 cmp	 DWORD PTR [rax+160], 2
  0001f	7c 71		 jl	 SHORT $LN4@dump

; 3351 :         char header[2];
; 3352 : 
; 3353 :         header[0] = PROTO;

  00021	c6 44 24 24 80	 mov	 BYTE PTR header$22748[rsp], -128 ; ffffffffffffff80H

; 3354 :         assert(self->proto >= 0 && self->proto < 256);

  00026	48 8b 44 24 40	 mov	 rax, QWORD PTR self$[rsp]
  0002b	83 b8 a0 00 00
	00 00		 cmp	 DWORD PTR [rax+160], 0
  00032	7c 11		 jl	 SHORT $LN7@dump
  00034	48 8b 44 24 40	 mov	 rax, QWORD PTR self$[rsp]
  00039	81 b8 a0 00 00
	00 00 01 00 00	 cmp	 DWORD PTR [rax+160], 256 ; 00000100H
  00043	7c 1c		 jl	 SHORT $LN8@dump
$LN7@dump:
  00045	41 b8 1a 0d 00
	00		 mov	 r8d, 3354		; 00000d1aH
  0004b	48 8d 15 00 00
	00 00		 lea	 rdx, OFFSET FLAT:??_C@_1CK@DHJKOIMG@?$AA?4?$AA?4?$AA?2?$AAM?$AAo?$AAd?$AAu?$AAl?$AAe?$AAs?$AA?2?$AA_?$AAp?$AAi?$AAc?$AAk?$AAl?$AAe?$AA?4?$AAc?$AA?$AA@
  00052	48 8d 0d 00 00
	00 00		 lea	 rcx, OFFSET FLAT:??_C@_1EM@PPAIJE@?$AAs?$AAe?$AAl?$AAf?$AA?9?$AA?$DO?$AAp?$AAr?$AAo?$AAt?$AAo?$AA?5?$AA?$DO?$AA?$DN?$AA?5?$AA0?$AA?5?$AA?$CG?$AA?$CG?$AA?5?$AAs?$AAe?$AAl?$AAf?$AA?9?$AA?$DO?$AAp?$AAr?$AAo?$AAt?$AAo?$AA?5@
  00059	ff 15 00 00 00
	00		 call	 QWORD PTR __imp__wassert
  0005f	33 c0		 xor	 eax, eax
$LN8@dump:

; 3355 :         header[1] = (unsigned char)self->proto;

  00061	48 8b 44 24 40	 mov	 rax, QWORD PTR self$[rsp]
  00066	0f b6 80 a0 00
	00 00		 movzx	 eax, BYTE PTR [rax+160]
  0006d	88 44 24 25	 mov	 BYTE PTR header$22748[rsp+1], al

; 3356 :         if (_Pickler_Write(self, header, 2) < 0)

  00071	41 b8 02 00 00
	00		 mov	 r8d, 2
  00077	48 8d 54 24 24	 lea	 rdx, QWORD PTR header$22748[rsp]
  0007c	48 8b 4c 24 40	 mov	 rcx, QWORD PTR self$[rsp]
  00081	e8 00 00 00 00	 call	 _Pickler_Write
  00086	48 85 c0	 test	 rax, rax
  00089	7d 07		 jge	 SHORT $LN3@dump

; 3357 :             return -1;

  0008b	b8 ff ff ff ff	 mov	 eax, -1
  00090	eb 39		 jmp	 SHORT $LN5@dump
$LN3@dump:
$LN4@dump:

; 3358 :     }
; 3359 : 
; 3360 :     if (save(self, obj, 0) < 0 ||
; 3361 :         _Pickler_Write(self, &stop_op, 1) < 0)

  00092	45 33 c0	 xor	 r8d, r8d
  00095	48 8b 54 24 48	 mov	 rdx, QWORD PTR obj$[rsp]
  0009a	48 8b 4c 24 40	 mov	 rcx, QWORD PTR self$[rsp]
  0009f	e8 00 00 00 00	 call	 save
  000a4	85 c0		 test	 eax, eax
  000a6	7c 1a		 jl	 SHORT $LN1@dump
  000a8	41 b8 01 00 00
	00		 mov	 r8d, 1
  000ae	48 8d 54 24 20	 lea	 rdx, QWORD PTR stop_op$[rsp]
  000b3	48 8b 4c 24 40	 mov	 rcx, QWORD PTR self$[rsp]
  000b8	e8 00 00 00 00	 call	 _Pickler_Write
  000bd	48 85 c0	 test	 rax, rax
  000c0	7d 07		 jge	 SHORT $LN2@dump
$LN1@dump:

; 3362 :         return -1;

  000c2	b8 ff ff ff ff	 mov	 eax, -1
  000c7	eb 02		 jmp	 SHORT $LN5@dump
$LN2@dump:

; 3363 : 
; 3364 :     return 0;

  000c9	33 c0		 xor	 eax, eax
$LN5@dump:

; 3365 : }

  000cb	48 83 c4 38	 add	 rsp, 56			; 00000038H
  000cf	c3		 ret	 0
dump	ENDP
_TEXT	ENDS
PUBLIC	??_C@_1EG@CCEMEJEA@?$AAP?$AAy?$AAB?$AAy?$AAt?$AAe?$AAs?$AA_?$AAC?$AAh?$AAe?$AAc?$AAk?$AA?$CI?$AAs?$AAe?$AAl?$AAf?$AA?9?$AA?$DO?$AAo?$AAu?$AAt?$AAp?$AAu?$AAt?$AA_?$AAb?$AAu?$AAf?$AAf?$AAe@ ; `string'
PUBLIC	??_C@_1BE@EEKACIGI@?$AAs?$AA?5?$AA?$CB?$AA?$DN?$AA?5?$AAN?$AAU?$AAL?$AAL?$AA?$AA@ ; `string'
EXTRN	memcpy:PROC
EXTRN	PyErr_NoMemory:PROC
;	COMDAT pdata
pdata	SEGMENT
$pdata$_Pickler_Write DD imagerel _Pickler_Write
	DD	imagerel _Pickler_Write+735
	DD	imagerel $unwind$_Pickler_Write
pdata	ENDS
;	COMDAT xdata
xdata	SEGMENT
$unwind$_Pickler_Write DD 011301H
	DD	0a213H
xdata	ENDS
;	COMDAT ??_C@_1EG@CCEMEJEA@?$AAP?$AAy?$AAB?$AAy?$AAt?$AAe?$AAs?$AA_?$AAC?$AAh?$AAe?$AAc?$AAk?$AA?$CI?$AAs?$AAe?$AAl?$AAf?$AA?9?$AA?$DO?$AAo?$AAu?$AAt?$AAp?$AAu?$AAt?$AA_?$AAb?$AAu?$AAf?$AAf?$AAe@
CONST	SEGMENT
??_C@_1EG@CCEMEJEA@?$AAP?$AAy?$AAB?$AAy?$AAt?$AAe?$AAs?$AA_?$AAC?$AAh?$AAe?$AAc?$AAk?$AA?$CI?$AAs?$AAe?$AAl?$AAf?$AA?9?$AA?$DO?$AAo?$AAu?$AAt?$AAp?$AAu?$AAt?$AA_?$AAb?$AAu?$AAf?$AAf?$AAe@ DB 'P'
	DB	00H, 'y', 00H, 'B', 00H, 'y', 00H, 't', 00H, 'e', 00H, 's', 00H
	DB	'_', 00H, 'C', 00H, 'h', 00H, 'e', 00H, 'c', 00H, 'k', 00H, '('
	DB	00H, 's', 00H, 'e', 00H, 'l', 00H, 'f', 00H, '-', 00H, '>', 00H
	DB	'o', 00H, 'u', 00H, 't', 00H, 'p', 00H, 'u', 00H, 't', 00H, '_'
	DB	00H, 'b', 00H, 'u', 00H, 'f', 00H, 'f', 00H, 'e', 00H, 'r', 00H
	DB	')', 00H, 00H, 00H				; `string'
CONST	ENDS
;	COMDAT ??_C@_1BE@EEKACIGI@?$AAs?$AA?5?$AA?$CB?$AA?$DN?$AA?5?$AAN?$AAU?$AAL?$AAL?$AA?$AA@
CONST	SEGMENT
??_C@_1BE@EEKACIGI@?$AAs?$AA?5?$AA?$CB?$AA?$DN?$AA?5?$AAN?$AAU?$AAL?$AAL?$AA?$AA@ DB 's'
	DB	00H, ' ', 00H, '!', 00H, '=', 00H, ' ', 00H, 'N', 00H, 'U', 00H
	DB	'L', 00H, 'L', 00H, 00H, 00H			; `string'
; Function compile flags: /Odtp
CONST	ENDS
;	COMDAT _Pickler_Write
_TEXT	SEGMENT
i$ = 32
required$ = 40
buffer$ = 48
output$20899 = 56
result$20898 = 64
tv130 = 72
self$ = 96
s$ = 104
n$ = 112
_Pickler_Write PROC					; COMDAT

; 706  : {

  00000	4c 89 44 24 18	 mov	 QWORD PTR [rsp+24], r8
  00005	48 89 54 24 10	 mov	 QWORD PTR [rsp+16], rdx
  0000a	48 89 4c 24 08	 mov	 QWORD PTR [rsp+8], rcx
  0000f	48 83 ec 58	 sub	 rsp, 88			; 00000058H

; 707  :     Py_ssize_t i, required;
; 708  :     char *buffer;
; 709  : 
; 710  :     assert(s != NULL);

  00013	48 83 7c 24 68
	00		 cmp	 QWORD PTR s$[rsp], 0
  00019	75 1c		 jne	 SHORT $LN21@Pickler_Wr
  0001b	41 b8 c6 02 00
	00		 mov	 r8d, 710		; 000002c6H
  00021	48 8d 15 00 00
	00 00		 lea	 rdx, OFFSET FLAT:??_C@_1CK@DHJKOIMG@?$AA?4?$AA?4?$AA?2?$AAM?$AAo?$AAd?$AAu?$AAl?$AAe?$AAs?$AA?2?$AA_?$AAp?$AAi?$AAc?$AAk?$AAl?$AAe?$AA?4?$AAc?$AA?$AA@
  00028	48 8d 0d 00 00
	00 00		 lea	 rcx, OFFSET FLAT:??_C@_1BE@EEKACIGI@?$AAs?$AA?5?$AA?$CB?$AA?$DN?$AA?5?$AAN?$AAU?$AAL?$AAL?$AA?$AA@
  0002f	ff 15 00 00 00
	00		 call	 QWORD PTR __imp__wassert
  00035	33 c0		 xor	 eax, eax
$LN21@Pickler_Wr:

; 711  : 
; 712  :     required = self->output_len + n;

  00037	48 8b 44 24 60	 mov	 rax, QWORD PTR self$[rsp]
  0003c	48 8b 80 90 00
	00 00		 mov	 rax, QWORD PTR [rax+144]
  00043	48 03 44 24 70	 add	 rax, QWORD PTR n$[rsp]
  00048	48 89 44 24 28	 mov	 QWORD PTR required$[rsp], rax

; 713  :     if (required > self->max_output_len) {

  0004d	48 8b 44 24 60	 mov	 rax, QWORD PTR self$[rsp]
  00052	48 8b 80 98 00
	00 00		 mov	 rax, QWORD PTR [rax+152]
  00059	48 39 44 24 28	 cmp	 QWORD PTR required$[rsp], rax
  0005e	0f 8e 7f 01 00
	00		 jle	 $LN18@Pickler_Wr

; 714  :         if (self->write != NULL && required > MAX_WRITE_BUF_SIZE) {

  00064	48 8b 44 24 60	 mov	 rax, QWORD PTR self$[rsp]
  00069	48 83 b8 80 00
	00 00 00	 cmp	 QWORD PTR [rax+128], 0
  00071	74 3f		 je	 SHORT $LN17@Pickler_Wr
  00073	48 81 7c 24 28
	00 00 01 00	 cmp	 QWORD PTR required$[rsp], 65536 ; 00010000H
  0007c	7e 34		 jle	 SHORT $LN17@Pickler_Wr

; 715  :             /* XXX This reallocates a new buffer every time, which is a bit
; 716  :                wasteful. */
; 717  :             if (_Pickler_FlushToFile(self) < 0)

  0007e	48 8b 4c 24 60	 mov	 rcx, QWORD PTR self$[rsp]
  00083	e8 00 00 00 00	 call	 _Pickler_FlushToFile
  00088	85 c0		 test	 eax, eax
  0008a	7d 0c		 jge	 SHORT $LN16@Pickler_Wr

; 718  :                 return -1;

  0008c	48 c7 c0 ff ff
	ff ff		 mov	 rax, -1
  00093	e9 42 02 00 00	 jmp	 $LN19@Pickler_Wr
$LN16@Pickler_Wr:

; 719  :             if (_Pickler_ClearBuffer(self) < 0)

  00098	48 8b 4c 24 60	 mov	 rcx, QWORD PTR self$[rsp]
  0009d	e8 00 00 00 00	 call	 _Pickler_ClearBuffer
  000a2	85 c0		 test	 eax, eax
  000a4	7d 0c		 jge	 SHORT $LN15@Pickler_Wr

; 720  :                 return -1;

  000a6	48 c7 c0 ff ff
	ff ff		 mov	 rax, -1
  000ad	e9 28 02 00 00	 jmp	 $LN19@Pickler_Wr
$LN15@Pickler_Wr:
$LN17@Pickler_Wr:

; 721  :         }
; 722  :         if (self->write != NULL && n > MAX_WRITE_BUF_SIZE) {

  000b2	48 8b 44 24 60	 mov	 rax, QWORD PTR self$[rsp]
  000b7	48 83 b8 80 00
	00 00 00	 cmp	 QWORD PTR [rax+128], 0
  000bf	0f 84 98 00 00
	00		 je	 $LN14@Pickler_Wr
  000c5	48 81 7c 24 70
	00 00 01 00	 cmp	 QWORD PTR n$[rsp], 65536 ; 00010000H
  000ce	0f 8e 89 00 00
	00		 jle	 $LN14@Pickler_Wr

; 723  :             /* we already flushed above, so the buffer is empty */
; 724  :             PyObject *result;
; 725  :             /* XXX we could spare an intermediate copy and pass
; 726  :                a memoryview instead */
; 727  :             PyObject *output = PyBytes_FromStringAndSize(s, n);

  000d4	48 8b 54 24 70	 mov	 rdx, QWORD PTR n$[rsp]
  000d9	48 8b 4c 24 68	 mov	 rcx, QWORD PTR s$[rsp]
  000de	e8 00 00 00 00	 call	 PyBytes_FromStringAndSize
  000e3	48 89 44 24 38	 mov	 QWORD PTR output$20899[rsp], rax

; 728  :             if (s == NULL)

  000e8	48 83 7c 24 68
	00		 cmp	 QWORD PTR s$[rsp], 0
  000ee	75 0c		 jne	 SHORT $LN13@Pickler_Wr

; 729  :                 return -1;

  000f0	48 c7 c0 ff ff
	ff ff		 mov	 rax, -1
  000f7	e9 de 01 00 00	 jmp	 $LN19@Pickler_Wr
$LN13@Pickler_Wr:

; 730  :             result = _Pickler_FastCall(self, self->write, output);

  000fc	4c 8b 44 24 38	 mov	 r8, QWORD PTR output$20899[rsp]
  00101	48 8b 44 24 60	 mov	 rax, QWORD PTR self$[rsp]
  00106	48 8b 90 80 00
	00 00		 mov	 rdx, QWORD PTR [rax+128]
  0010d	48 8b 4c 24 60	 mov	 rcx, QWORD PTR self$[rsp]
  00112	e8 00 00 00 00	 call	 _Pickler_FastCall
  00117	48 89 44 24 40	 mov	 QWORD PTR result$20898[rsp], rax
$LN12@Pickler_Wr:

; 731  :             Py_XDECREF(result);

  0011c	48 83 7c 24 40
	00		 cmp	 QWORD PTR result$20898[rsp], 0
  00122	74 0a		 je	 SHORT $LN9@Pickler_Wr
  00124	48 8b 4c 24 40	 mov	 rcx, QWORD PTR result$20898[rsp]
  00129	e8 00 00 00 00	 call	 _Py_DecRef
$LN9@Pickler_Wr:
  0012e	33 c0		 xor	 eax, eax
  00130	85 c0		 test	 eax, eax
  00132	75 e8		 jne	 SHORT $LN12@Pickler_Wr

; 732  :             return (result == NULL) ? -1 : 0;

  00134	48 83 7c 24 40
	00		 cmp	 QWORD PTR result$20898[rsp], 0
  0013a	75 0a		 jne	 SHORT $LN22@Pickler_Wr
  0013c	c7 44 24 48 ff
	ff ff ff	 mov	 DWORD PTR tv130[rsp], -1
  00144	eb 08		 jmp	 SHORT $LN23@Pickler_Wr
$LN22@Pickler_Wr:
  00146	c7 44 24 48 00
	00 00 00	 mov	 DWORD PTR tv130[rsp], 0
$LN23@Pickler_Wr:
  0014e	48 63 44 24 48	 movsxd	 rax, DWORD PTR tv130[rsp]
  00153	e9 82 01 00 00	 jmp	 $LN19@Pickler_Wr

; 733  :         }
; 734  :         else {

  00158	e9 86 00 00 00	 jmp	 $LN8@Pickler_Wr
$LN14@Pickler_Wr:

; 735  :             if (self->output_len >= PY_SSIZE_T_MAX / 2 - n) {

  0015d	48 b8 ff ff ff
	ff ff ff ff 3f	 mov	 rax, 4611686018427387903 ; 3fffffffffffffffH
  00167	48 2b 44 24 70	 sub	 rax, QWORD PTR n$[rsp]
  0016c	48 8b 4c 24 60	 mov	 rcx, QWORD PTR self$[rsp]
  00171	48 39 81 90 00
	00 00		 cmp	 QWORD PTR [rcx+144], rax
  00178	7c 11		 jl	 SHORT $LN7@Pickler_Wr

; 736  :                 PyErr_NoMemory();

  0017a	e8 00 00 00 00	 call	 PyErr_NoMemory

; 737  :                 return -1;

  0017f	48 c7 c0 ff ff
	ff ff		 mov	 rax, -1
  00186	e9 4f 01 00 00	 jmp	 $LN19@Pickler_Wr
$LN7@Pickler_Wr:

; 738  :             }
; 739  :             self->max_output_len = (self->output_len + n) / 2 * 3;

  0018b	48 8b 44 24 60	 mov	 rax, QWORD PTR self$[rsp]
  00190	48 8b 80 90 00
	00 00		 mov	 rax, QWORD PTR [rax+144]
  00197	48 03 44 24 70	 add	 rax, QWORD PTR n$[rsp]
  0019c	48 99		 cdq
  0019e	48 2b c2	 sub	 rax, rdx
  001a1	48 d1 f8	 sar	 rax, 1
  001a4	48 6b c0 03	 imul	 rax, 3
  001a8	48 8b 4c 24 60	 mov	 rcx, QWORD PTR self$[rsp]
  001ad	48 89 81 98 00
	00 00		 mov	 QWORD PTR [rcx+152], rax

; 740  :             if (_PyBytes_Resize(&self->output_buffer, self->max_output_len) < 0)

  001b4	48 8b 44 24 60	 mov	 rax, QWORD PTR self$[rsp]
  001b9	48 05 88 00 00
	00		 add	 rax, 136		; 00000088H
  001bf	48 8b 4c 24 60	 mov	 rcx, QWORD PTR self$[rsp]
  001c4	48 8b 91 98 00
	00 00		 mov	 rdx, QWORD PTR [rcx+152]
  001cb	48 8b c8	 mov	 rcx, rax
  001ce	e8 00 00 00 00	 call	 _PyBytes_Resize
  001d3	85 c0		 test	 eax, eax
  001d5	7d 0c		 jge	 SHORT $LN6@Pickler_Wr

; 741  :                 return -1;

  001d7	48 c7 c0 ff ff
	ff ff		 mov	 rax, -1
  001de	e9 f7 00 00 00	 jmp	 $LN19@Pickler_Wr
$LN6@Pickler_Wr:
$LN8@Pickler_Wr:
$LN18@Pickler_Wr:

; 742  :         }
; 743  :     }
; 744  :     buffer = PyBytes_AS_STRING(self->output_buffer);

  001e3	48 8b 44 24 60	 mov	 rax, QWORD PTR self$[rsp]
  001e8	48 8b 80 88 00
	00 00		 mov	 rax, QWORD PTR [rax+136]
  001ef	48 8b 40 58	 mov	 rax, QWORD PTR [rax+88]
  001f3	8b 80 00 01 00
	00		 mov	 eax, DWORD PTR [rax+256]
  001f9	25 00 00 00 08	 and	 eax, 134217728		; 08000000H
  001fe	85 c0		 test	 eax, eax
  00200	75 1c		 jne	 SHORT $LN24@Pickler_Wr
  00202	41 b8 e8 02 00
	00		 mov	 r8d, 744		; 000002e8H
  00208	48 8d 15 00 00
	00 00		 lea	 rdx, OFFSET FLAT:??_C@_1CK@DHJKOIMG@?$AA?4?$AA?4?$AA?2?$AAM?$AAo?$AAd?$AAu?$AAl?$AAe?$AAs?$AA?2?$AA_?$AAp?$AAi?$AAc?$AAk?$AAl?$AAe?$AA?4?$AAc?$AA?$AA@
  0020f	48 8d 0d 00 00
	00 00		 lea	 rcx, OFFSET FLAT:??_C@_1EG@CCEMEJEA@?$AAP?$AAy?$AAB?$AAy?$AAt?$AAe?$AAs?$AA_?$AAC?$AAh?$AAe?$AAc?$AAk?$AA?$CI?$AAs?$AAe?$AAl?$AAf?$AA?9?$AA?$DO?$AAo?$AAu?$AAt?$AAp?$AAu?$AAt?$AA_?$AAb?$AAu?$AAf?$AAf?$AAe@
  00216	ff 15 00 00 00
	00		 call	 QWORD PTR __imp__wassert
  0021c	33 c0		 xor	 eax, eax
$LN24@Pickler_Wr:
  0021e	48 8b 44 24 60	 mov	 rax, QWORD PTR self$[rsp]
  00223	48 8b 80 88 00
	00 00		 mov	 rax, QWORD PTR [rax+136]
  0022a	48 83 c0 78	 add	 rax, 120		; 00000078H
  0022e	48 89 44 24 30	 mov	 QWORD PTR buffer$[rsp], rax

; 745  :     if (n < 8) {

  00233	48 83 7c 24 70
	08		 cmp	 QWORD PTR n$[rsp], 8
  00239	7d 54		 jge	 SHORT $LN5@Pickler_Wr

; 746  :         /* This is faster than memcpy when the string is short. */
; 747  :         for (i = 0; i < n; i++) {

  0023b	48 c7 44 24 20
	00 00 00 00	 mov	 QWORD PTR i$[rsp], 0
  00244	eb 0d		 jmp	 SHORT $LN4@Pickler_Wr
$LN3@Pickler_Wr:
  00246	48 8b 44 24 20	 mov	 rax, QWORD PTR i$[rsp]
  0024b	48 ff c0	 inc	 rax
  0024e	48 89 44 24 20	 mov	 QWORD PTR i$[rsp], rax
$LN4@Pickler_Wr:
  00253	48 8b 44 24 70	 mov	 rax, QWORD PTR n$[rsp]
  00258	48 39 44 24 20	 cmp	 QWORD PTR i$[rsp], rax
  0025d	7d 2e		 jge	 SHORT $LN2@Pickler_Wr

; 748  :             buffer[self->output_len + i] = s[i];

  0025f	48 8b 44 24 60	 mov	 rax, QWORD PTR self$[rsp]
  00264	48 8b 80 90 00
	00 00		 mov	 rax, QWORD PTR [rax+144]
  0026b	48 03 44 24 20	 add	 rax, QWORD PTR i$[rsp]
  00270	48 8b 4c 24 20	 mov	 rcx, QWORD PTR i$[rsp]
  00275	48 8b 54 24 68	 mov	 rdx, QWORD PTR s$[rsp]
  0027a	48 03 d1	 add	 rdx, rcx
  0027d	48 8b ca	 mov	 rcx, rdx
  00280	48 8b 54 24 30	 mov	 rdx, QWORD PTR buffer$[rsp]
  00285	0f b6 09	 movzx	 ecx, BYTE PTR [rcx]
  00288	88 0c 02	 mov	 BYTE PTR [rdx+rax], cl

; 749  :         }

  0028b	eb b9		 jmp	 SHORT $LN3@Pickler_Wr
$LN2@Pickler_Wr:

; 750  :     }
; 751  :     else {

  0028d	eb 29		 jmp	 SHORT $LN1@Pickler_Wr
$LN5@Pickler_Wr:

; 752  :         memcpy(buffer + self->output_len, s, n);

  0028f	48 8b 44 24 60	 mov	 rax, QWORD PTR self$[rsp]
  00294	48 8b 80 90 00
	00 00		 mov	 rax, QWORD PTR [rax+144]
  0029b	48 8b 4c 24 30	 mov	 rcx, QWORD PTR buffer$[rsp]
  002a0	48 03 c8	 add	 rcx, rax
  002a3	48 8b c1	 mov	 rax, rcx
  002a6	4c 8b 44 24 70	 mov	 r8, QWORD PTR n$[rsp]
  002ab	48 8b 54 24 68	 mov	 rdx, QWORD PTR s$[rsp]
  002b0	48 8b c8	 mov	 rcx, rax
  002b3	e8 00 00 00 00	 call	 memcpy
$LN1@Pickler_Wr:

; 753  :     }
; 754  :     self->output_len += n;

  002b8	48 8b 44 24 60	 mov	 rax, QWORD PTR self$[rsp]
  002bd	48 8b 80 90 00
	00 00		 mov	 rax, QWORD PTR [rax+144]
  002c4	48 03 44 24 70	 add	 rax, QWORD PTR n$[rsp]
  002c9	48 8b 4c 24 60	 mov	 rcx, QWORD PTR self$[rsp]
  002ce	48 89 81 90 00
	00 00		 mov	 QWORD PTR [rcx+144], rax

; 755  :     return n;

  002d5	48 8b 44 24 70	 mov	 rax, QWORD PTR n$[rsp]
$LN19@Pickler_Wr:

; 756  : }

  002da	48 83 c4 58	 add	 rsp, 88			; 00000058H
  002de	c3		 ret	 0
_Pickler_Write ENDP
_TEXT	ENDS
PUBLIC	??_C@_0CJ@NPKDNCPF@__reduce__?5must?5return?5a?5string?5@ ; `string'
PUBLIC	??_C@_0CB@HIPCBBLL@can?8t?5pickle?5?8?$CF?4200s?8?5object?3?5?$CFR@ ; `string'
PUBLIC	??_C@_0O@CFEDDKPG@__reduce_ex__?$AA@		; `string'
PUBLIC	??_C@_0BK@BNMNDPHJ@?5while?5pickling?5an?5object?$AA@ ; `string'
EXTRN	PyErr_SetString:PROC
EXTRN	PyExc_AttributeError:QWORD
EXTRN	PyLong_FromLong:PROC
EXTRN	PyObject_GetAttr:PROC
EXTRN	PyUnicode_InternFromString:PROC
EXTRN	PyType_IsSubtype:PROC
EXTRN	PyExc_KeyError:QWORD
EXTRN	PyObject_GetItem:PROC
EXTRN	PyDict_GetItem:PROC
EXTRN	PyCFunction_Type:BYTE
EXTRN	PyErr_Clear:PROC
EXTRN	PyErr_ExceptionMatches:PROC
EXTRN	PyFunction_Type:BYTE
EXTRN	PyType_Type:BYTE
EXTRN	PyTuple_Type:BYTE
EXTRN	PyList_Type:BYTE
EXTRN	PyDict_Type:BYTE
EXTRN	PyUnicode_Type:BYTE
EXTRN	PyBytes_Type:BYTE
EXTRN	PyFloat_Type:BYTE
EXTRN	PyLong_Type:BYTE
EXTRN	_Py_TrueStruct:BYTE
EXTRN	_Py_FalseStruct:BYTE
EXTRN	_Py_NotImplementedStruct:BYTE
EXTRN	_Py_EllipsisObject:BYTE
EXTRN	_Py_CheckRecursiveCall:PROC
EXTRN	_Py_CheckRecursionLimit:DWORD
EXTRN	PyThreadState_Get:PROC
;	COMDAT pdata
pdata	SEGMENT
$pdata$save DD	imagerel save
	DD	imagerel save+1681
	DD	imagerel $unwind$save
pdata	ENDS
;	COMDAT xdata
xdata	SEGMENT
$unwind$save DD	011301H
	DD	0c213H
xdata	ENDS
;	COMDAT ??_C@_0CJ@NPKDNCPF@__reduce__?5must?5return?5a?5string?5@
CONST	SEGMENT
??_C@_0CJ@NPKDNCPF@__reduce__?5must?5return?5a?5string?5@ DB '__reduce__ '
	DB	'must return a string or tuple', 00H		; `string'
CONST	ENDS
;	COMDAT ??_C@_0CB@HIPCBBLL@can?8t?5pickle?5?8?$CF?4200s?8?5object?3?5?$CFR@
CONST	SEGMENT
??_C@_0CB@HIPCBBLL@can?8t?5pickle?5?8?$CF?4200s?8?5object?3?5?$CFR@ DB 'c'
	DB	'an''t pickle ''%.200s'' object: %R', 00H	; `string'
CONST	ENDS
;	COMDAT ??_C@_0O@CFEDDKPG@__reduce_ex__?$AA@
CONST	SEGMENT
??_C@_0O@CFEDDKPG@__reduce_ex__?$AA@ DB '__reduce_ex__', 00H ; `string'
CONST	ENDS
;	COMDAT ??_C@_0BK@BNMNDPHJ@?5while?5pickling?5an?5object?$AA@
CONST	SEGMENT
??_C@_0BK@BNMNDPHJ@?5while?5pickling?5an?5object?$AA@ DB ' while pickling'
	DB	' an object', 00H				; `string'
; Function compile flags: /Odtp
CONST	ENDS
;	COMDAT save
_TEXT	SEGMENT
type$ = 32
reduce_func$ = 40
reduce_value$ = 48
status$ = 56
proto$22707 = 64
tv66 = 72
tv279 = 80
tv273 = 88
self$ = 112
obj$ = 120
pers_save$ = 128
save	PROC						; COMDAT

; 3137 : {

  00000	44 89 44 24 18	 mov	 DWORD PTR [rsp+24], r8d
  00005	48 89 54 24 10	 mov	 QWORD PTR [rsp+16], rdx
  0000a	48 89 4c 24 08	 mov	 QWORD PTR [rsp+8], rcx
  0000f	48 83 ec 68	 sub	 rsp, 104		; 00000068H

; 3138 :     PyTypeObject *type;
; 3139 :     PyObject *reduce_func = NULL;

  00013	48 c7 44 24 28
	00 00 00 00	 mov	 QWORD PTR reduce_func$[rsp], 0

; 3140 :     PyObject *reduce_value = NULL;

  0001c	48 c7 44 24 30
	00 00 00 00	 mov	 QWORD PTR reduce_value$[rsp], 0

; 3141 :     int status = 0;

  00025	c7 44 24 38 00
	00 00 00	 mov	 DWORD PTR status$[rsp], 0

; 3142 : 
; 3143 :     if (Py_EnterRecursiveCall(" while pickling an object"))

  0002d	e8 00 00 00 00	 call	 PyThreadState_Get
  00032	48 83 c0 18	 add	 rax, 24
  00036	48 89 44 24 48	 mov	 QWORD PTR tv66[rsp], rax
  0003b	48 8b 44 24 48	 mov	 rax, QWORD PTR tv66[rsp]
  00040	8b 00		 mov	 eax, DWORD PTR [rax]
  00042	ff c0		 inc	 eax
  00044	48 8b 4c 24 48	 mov	 rcx, QWORD PTR tv66[rsp]
  00049	89 01		 mov	 DWORD PTR [rcx], eax
  0004b	48 8b 44 24 48	 mov	 rax, QWORD PTR tv66[rsp]
  00050	8b 0d 00 00 00
	00		 mov	 ecx, DWORD PTR _Py_CheckRecursionLimit
  00056	39 08		 cmp	 DWORD PTR [rax], ecx
  00058	7e 1a		 jle	 SHORT $LN73@save
  0005a	48 8d 0d 00 00
	00 00		 lea	 rcx, OFFSET FLAT:??_C@_0BK@BNMNDPHJ@?5while?5pickling?5an?5object?$AA@
  00061	e8 00 00 00 00	 call	 _Py_CheckRecursiveCall
  00066	85 c0		 test	 eax, eax
  00068	74 0a		 je	 SHORT $LN73@save

; 3144 :         return -1;

  0006a	b8 ff ff ff ff	 mov	 eax, -1
  0006f	e9 18 06 00 00	 jmp	 $LN74@save
$LN73@save:

; 3145 : 
; 3146 :     /* The extra pers_save argument is necessary to avoid calling save_pers()
; 3147 :        on its returned object. */
; 3148 :     if (!pers_save && self->pers_func) {

  00074	83 bc 24 80 00
	00 00 00	 cmp	 DWORD PTR pers_save$[rsp], 0
  0007c	75 34		 jne	 SHORT $LN72@save
  0007e	48 8b 44 24 70	 mov	 rax, QWORD PTR self$[rsp]
  00083	48 83 78 68 00	 cmp	 QWORD PTR [rax+104], 0
  00088	74 28		 je	 SHORT $LN72@save

; 3149 :         /* save_pers() returns:
; 3150 :             -1   to signal an error;
; 3151 :              0   if it did nothing successfully;
; 3152 :              1   if a persistent id was saved.
; 3153 :          */
; 3154 :         if ((status = save_pers(self, obj, self->pers_func)) != 0)

  0008a	48 8b 44 24 70	 mov	 rax, QWORD PTR self$[rsp]
  0008f	4c 8b 40 68	 mov	 r8, QWORD PTR [rax+104]
  00093	48 8b 54 24 78	 mov	 rdx, QWORD PTR obj$[rsp]
  00098	48 8b 4c 24 70	 mov	 rcx, QWORD PTR self$[rsp]
  0009d	e8 00 00 00 00	 call	 save_pers
  000a2	89 44 24 38	 mov	 DWORD PTR status$[rsp], eax
  000a6	83 7c 24 38 00	 cmp	 DWORD PTR status$[rsp], 0
  000ab	74 05		 je	 SHORT $LN71@save

; 3155 :             goto done;

  000ad	e9 44 05 00 00	 jmp	 $done$22632
$LN71@save:
$LN72@save:

; 3156 :     }
; 3157 : 
; 3158 :     type = Py_TYPE(obj);

  000b2	48 8b 44 24 78	 mov	 rax, QWORD PTR obj$[rsp]
  000b7	48 8b 40 58	 mov	 rax, QWORD PTR [rax+88]
  000bb	48 89 44 24 20	 mov	 QWORD PTR type$[rsp], rax

; 3159 : 
; 3160 :     /* The old cPickle had an optimization that used switch-case statement
; 3161 :        dispatching on the first letter of the type name.  This has was removed
; 3162 :        since benchmarks shown that this optimization was actually slowing
; 3163 :        things down. */
; 3164 : 
; 3165 :     /* Atom types; these aren't memoized, so don't check the memo. */
; 3166 : 
; 3167 :     if (obj == Py_None) {

  000c0	48 8d 05 00 00
	00 00		 lea	 rax, OFFSET FLAT:_Py_NoneStruct
  000c7	48 39 44 24 78	 cmp	 QWORD PTR obj$[rsp], rax
  000cc	75 1d		 jne	 SHORT $LN70@save

; 3168 :         status = save_none(self, obj);

  000ce	48 8b 54 24 78	 mov	 rdx, QWORD PTR obj$[rsp]
  000d3	48 8b 4c 24 70	 mov	 rcx, QWORD PTR self$[rsp]
  000d8	e8 00 00 00 00	 call	 save_none
  000dd	89 44 24 38	 mov	 DWORD PTR status$[rsp], eax

; 3169 :         goto done;

  000e1	e9 10 05 00 00	 jmp	 $done$22632
  000e6	e9 da 00 00 00	 jmp	 $LN69@save
$LN70@save:

; 3170 :     }
; 3171 :     else if (obj == Py_Ellipsis) {

  000eb	48 8d 05 00 00
	00 00		 lea	 rax, OFFSET FLAT:_Py_EllipsisObject
  000f2	48 39 44 24 78	 cmp	 QWORD PTR obj$[rsp], rax
  000f7	75 1d		 jne	 SHORT $LN68@save

; 3172 :         status = save_ellipsis(self, obj);

  000f9	48 8b 54 24 78	 mov	 rdx, QWORD PTR obj$[rsp]
  000fe	48 8b 4c 24 70	 mov	 rcx, QWORD PTR self$[rsp]
  00103	e8 00 00 00 00	 call	 save_ellipsis
  00108	89 44 24 38	 mov	 DWORD PTR status$[rsp], eax

; 3173 :         goto done;

  0010c	e9 e5 04 00 00	 jmp	 $done$22632
  00111	e9 af 00 00 00	 jmp	 $LN67@save
$LN68@save:

; 3174 :     }
; 3175 :     else if (obj == Py_NotImplemented) {

  00116	48 8d 05 00 00
	00 00		 lea	 rax, OFFSET FLAT:_Py_NotImplementedStruct
  0011d	48 39 44 24 78	 cmp	 QWORD PTR obj$[rsp], rax
  00122	75 1d		 jne	 SHORT $LN66@save

; 3176 :         status = save_notimplemented(self, obj);

  00124	48 8b 54 24 78	 mov	 rdx, QWORD PTR obj$[rsp]
  00129	48 8b 4c 24 70	 mov	 rcx, QWORD PTR self$[rsp]
  0012e	e8 00 00 00 00	 call	 save_notimplemented
  00133	89 44 24 38	 mov	 DWORD PTR status$[rsp], eax

; 3177 :         goto done;

  00137	e9 ba 04 00 00	 jmp	 $done$22632
  0013c	e9 84 00 00 00	 jmp	 $LN65@save
$LN66@save:

; 3178 :     }
; 3179 :     else if (obj == Py_False || obj == Py_True) {

  00141	48 8d 05 00 00
	00 00		 lea	 rax, OFFSET FLAT:_Py_FalseStruct
  00148	48 39 44 24 78	 cmp	 QWORD PTR obj$[rsp], rax
  0014d	74 0e		 je	 SHORT $LN63@save
  0014f	48 8d 05 00 00
	00 00		 lea	 rax, OFFSET FLAT:_Py_TrueStruct
  00156	48 39 44 24 78	 cmp	 QWORD PTR obj$[rsp], rax
  0015b	75 1a		 jne	 SHORT $LN64@save
$LN63@save:

; 3180 :         status = save_bool(self, obj);

  0015d	48 8b 54 24 78	 mov	 rdx, QWORD PTR obj$[rsp]
  00162	48 8b 4c 24 70	 mov	 rcx, QWORD PTR self$[rsp]
  00167	e8 00 00 00 00	 call	 save_bool
  0016c	89 44 24 38	 mov	 DWORD PTR status$[rsp], eax

; 3181 :         goto done;

  00170	e9 81 04 00 00	 jmp	 $done$22632
  00175	eb 4e		 jmp	 SHORT $LN62@save
$LN64@save:

; 3182 :     }
; 3183 :     else if (type == &PyLong_Type) {

  00177	48 8d 05 00 00
	00 00		 lea	 rax, OFFSET FLAT:PyLong_Type
  0017e	48 39 44 24 20	 cmp	 QWORD PTR type$[rsp], rax
  00183	75 1a		 jne	 SHORT $LN61@save

; 3184 :         status = save_long(self, obj);

  00185	48 8b 54 24 78	 mov	 rdx, QWORD PTR obj$[rsp]
  0018a	48 8b 4c 24 70	 mov	 rcx, QWORD PTR self$[rsp]
  0018f	e8 00 00 00 00	 call	 save_long
  00194	89 44 24 38	 mov	 DWORD PTR status$[rsp], eax

; 3185 :         goto done;

  00198	e9 59 04 00 00	 jmp	 $done$22632
  0019d	eb 26		 jmp	 SHORT $LN60@save
$LN61@save:

; 3186 :     }
; 3187 :     else if (type == &PyFloat_Type) {

  0019f	48 8d 05 00 00
	00 00		 lea	 rax, OFFSET FLAT:PyFloat_Type
  001a6	48 39 44 24 20	 cmp	 QWORD PTR type$[rsp], rax
  001ab	75 18		 jne	 SHORT $LN59@save

; 3188 :         status = save_float(self, obj);

  001ad	48 8b 54 24 78	 mov	 rdx, QWORD PTR obj$[rsp]
  001b2	48 8b 4c 24 70	 mov	 rcx, QWORD PTR self$[rsp]
  001b7	e8 00 00 00 00	 call	 save_float
  001bc	89 44 24 38	 mov	 DWORD PTR status$[rsp], eax

; 3189 :         goto done;

  001c0	e9 31 04 00 00	 jmp	 $done$22632
$LN59@save:
$LN60@save:
$LN62@save:
$LN65@save:
$LN67@save:
$LN69@save:

; 3190 :     }
; 3191 : 
; 3192 :     /* Check the memo to see if it has the object. If so, generate
; 3193 :        a GET (or BINGET) opcode, instead of pickling the object
; 3194 :        once again. */
; 3195 :     if (PyMemoTable_Get(self->memo, obj)) {

  001c5	48 8b 54 24 78	 mov	 rdx, QWORD PTR obj$[rsp]
  001ca	48 8b 44 24 70	 mov	 rax, QWORD PTR self$[rsp]
  001cf	48 8b 48 60	 mov	 rcx, QWORD PTR [rax+96]
  001d3	e8 00 00 00 00	 call	 PyMemoTable_Get
  001d8	48 85 c0	 test	 rax, rax
  001db	74 1d		 je	 SHORT $LN58@save

; 3196 :         if (memo_get(self, obj) < 0)

  001dd	48 8b 54 24 78	 mov	 rdx, QWORD PTR obj$[rsp]
  001e2	48 8b 4c 24 70	 mov	 rcx, QWORD PTR self$[rsp]
  001e7	e8 00 00 00 00	 call	 memo_get
  001ec	85 c0		 test	 eax, eax
  001ee	7d 05		 jge	 SHORT $LN57@save

; 3197 :             goto error;

  001f0	e9 f9 03 00 00	 jmp	 $error$22650
$LN57@save:

; 3198 :         goto done;

  001f5	e9 fc 03 00 00	 jmp	 $done$22632
$LN58@save:

; 3199 :     }
; 3200 : 
; 3201 :     if (type == &PyBytes_Type) {

  001fa	48 8d 05 00 00
	00 00		 lea	 rax, OFFSET FLAT:PyBytes_Type
  00201	48 39 44 24 20	 cmp	 QWORD PTR type$[rsp], rax
  00206	75 1d		 jne	 SHORT $LN56@save

; 3202 :         status = save_bytes(self, obj);

  00208	48 8b 54 24 78	 mov	 rdx, QWORD PTR obj$[rsp]
  0020d	48 8b 4c 24 70	 mov	 rcx, QWORD PTR self$[rsp]
  00212	e8 00 00 00 00	 call	 save_bytes
  00217	89 44 24 38	 mov	 DWORD PTR status$[rsp], eax

; 3203 :         goto done;

  0021b	e9 d6 03 00 00	 jmp	 $done$22632
  00220	e9 46 01 00 00	 jmp	 $LN55@save
$LN56@save:

; 3204 :     }
; 3205 :     else if (type == &PyUnicode_Type) {

  00225	48 8d 05 00 00
	00 00		 lea	 rax, OFFSET FLAT:PyUnicode_Type
  0022c	48 39 44 24 20	 cmp	 QWORD PTR type$[rsp], rax
  00231	75 1d		 jne	 SHORT $LN54@save

; 3206 :         status = save_unicode(self, obj);

  00233	48 8b 54 24 78	 mov	 rdx, QWORD PTR obj$[rsp]
  00238	48 8b 4c 24 70	 mov	 rcx, QWORD PTR self$[rsp]
  0023d	e8 00 00 00 00	 call	 save_unicode
  00242	89 44 24 38	 mov	 DWORD PTR status$[rsp], eax

; 3207 :         goto done;

  00246	e9 ab 03 00 00	 jmp	 $done$22632
  0024b	e9 1b 01 00 00	 jmp	 $LN53@save
$LN54@save:

; 3208 :     }
; 3209 :     else if (type == &PyDict_Type) {

  00250	48 8d 05 00 00
	00 00		 lea	 rax, OFFSET FLAT:PyDict_Type
  00257	48 39 44 24 20	 cmp	 QWORD PTR type$[rsp], rax
  0025c	75 1d		 jne	 SHORT $LN52@save

; 3210 :         status = save_dict(self, obj);

  0025e	48 8b 54 24 78	 mov	 rdx, QWORD PTR obj$[rsp]
  00263	48 8b 4c 24 70	 mov	 rcx, QWORD PTR self$[rsp]
  00268	e8 00 00 00 00	 call	 save_dict
  0026d	89 44 24 38	 mov	 DWORD PTR status$[rsp], eax

; 3211 :         goto done;

  00271	e9 80 03 00 00	 jmp	 $done$22632
  00276	e9 f0 00 00 00	 jmp	 $LN51@save
$LN52@save:

; 3212 :     }
; 3213 :     else if (type == &PyList_Type) {

  0027b	48 8d 05 00 00
	00 00		 lea	 rax, OFFSET FLAT:PyList_Type
  00282	48 39 44 24 20	 cmp	 QWORD PTR type$[rsp], rax
  00287	75 1d		 jne	 SHORT $LN50@save

; 3214 :         status = save_list(self, obj);

  00289	48 8b 54 24 78	 mov	 rdx, QWORD PTR obj$[rsp]
  0028e	48 8b 4c 24 70	 mov	 rcx, QWORD PTR self$[rsp]
  00293	e8 00 00 00 00	 call	 save_list
  00298	89 44 24 38	 mov	 DWORD PTR status$[rsp], eax

; 3215 :         goto done;

  0029c	e9 55 03 00 00	 jmp	 $done$22632
  002a1	e9 c5 00 00 00	 jmp	 $LN49@save
$LN50@save:

; 3216 :     }
; 3217 :     else if (type == &PyTuple_Type) {

  002a6	48 8d 05 00 00
	00 00		 lea	 rax, OFFSET FLAT:PyTuple_Type
  002ad	48 39 44 24 20	 cmp	 QWORD PTR type$[rsp], rax
  002b2	75 1d		 jne	 SHORT $LN48@save

; 3218 :         status = save_tuple(self, obj);

  002b4	48 8b 54 24 78	 mov	 rdx, QWORD PTR obj$[rsp]
  002b9	48 8b 4c 24 70	 mov	 rcx, QWORD PTR self$[rsp]
  002be	e8 00 00 00 00	 call	 save_tuple
  002c3	89 44 24 38	 mov	 DWORD PTR status$[rsp], eax

; 3219 :         goto done;

  002c7	e9 2a 03 00 00	 jmp	 $done$22632
  002cc	e9 9a 00 00 00	 jmp	 $LN47@save
$LN48@save:

; 3220 :     }
; 3221 :     else if (type == &PyType_Type) {

  002d1	48 8d 05 00 00
	00 00		 lea	 rax, OFFSET FLAT:PyType_Type
  002d8	48 39 44 24 20	 cmp	 QWORD PTR type$[rsp], rax
  002dd	75 1a		 jne	 SHORT $LN46@save

; 3222 :         status = save_type(self, obj);

  002df	48 8b 54 24 78	 mov	 rdx, QWORD PTR obj$[rsp]
  002e4	48 8b 4c 24 70	 mov	 rcx, QWORD PTR self$[rsp]
  002e9	e8 00 00 00 00	 call	 save_type
  002ee	89 44 24 38	 mov	 DWORD PTR status$[rsp], eax

; 3223 :         goto done;

  002f2	e9 ff 02 00 00	 jmp	 $done$22632
  002f7	eb 72		 jmp	 SHORT $LN45@save
$LN46@save:

; 3224 :     }
; 3225 :     else if (type == &PyFunction_Type) {

  002f9	48 8d 05 00 00
	00 00		 lea	 rax, OFFSET FLAT:PyFunction_Type
  00300	48 39 44 24 20	 cmp	 QWORD PTR type$[rsp], rax
  00305	75 3b		 jne	 SHORT $LN44@save

; 3226 :         status = save_global(self, obj, NULL);

  00307	45 33 c0	 xor	 r8d, r8d
  0030a	48 8b 54 24 78	 mov	 rdx, QWORD PTR obj$[rsp]
  0030f	48 8b 4c 24 70	 mov	 rcx, QWORD PTR self$[rsp]
  00314	e8 00 00 00 00	 call	 save_global
  00319	89 44 24 38	 mov	 DWORD PTR status$[rsp], eax

; 3227 :         if (status < 0 && PyErr_ExceptionMatches(PickleError)) {

  0031d	83 7c 24 38 00	 cmp	 DWORD PTR status$[rsp], 0
  00322	7d 17		 jge	 SHORT $LN43@save
  00324	48 8b 0d 00 00
	00 00		 mov	 rcx, QWORD PTR PickleError
  0032b	e8 00 00 00 00	 call	 PyErr_ExceptionMatches
  00330	85 c0		 test	 eax, eax
  00332	74 07		 je	 SHORT $LN43@save

; 3228 :             /* fall back to reduce */
; 3229 :             PyErr_Clear();

  00334	e8 00 00 00 00	 call	 PyErr_Clear

; 3230 :         }
; 3231 :         else {

  00339	eb 05		 jmp	 SHORT $LN42@save
$LN43@save:

; 3232 :             goto done;

  0033b	e9 b6 02 00 00	 jmp	 $done$22632
$LN42@save:

; 3233 :         }

  00340	eb 29		 jmp	 SHORT $LN41@save
$LN44@save:

; 3234 :     }
; 3235 :     else if (type == &PyCFunction_Type) {

  00342	48 8d 05 00 00
	00 00		 lea	 rax, OFFSET FLAT:PyCFunction_Type
  00349	48 39 44 24 20	 cmp	 QWORD PTR type$[rsp], rax
  0034e	75 1b		 jne	 SHORT $LN40@save

; 3236 :         status = save_global(self, obj, NULL);

  00350	45 33 c0	 xor	 r8d, r8d
  00353	48 8b 54 24 78	 mov	 rdx, QWORD PTR obj$[rsp]
  00358	48 8b 4c 24 70	 mov	 rcx, QWORD PTR self$[rsp]
  0035d	e8 00 00 00 00	 call	 save_global
  00362	89 44 24 38	 mov	 DWORD PTR status$[rsp], eax

; 3237 :         goto done;

  00366	e9 8b 02 00 00	 jmp	 $done$22632
$LN40@save:
$LN41@save:
$LN45@save:
$LN47@save:
$LN49@save:
$LN51@save:
$LN53@save:
$LN55@save:

; 3238 :     }
; 3239 : 
; 3240 :     /* XXX: This part needs some unit tests. */
; 3241 : 
; 3242 :     /* Get a reduction callable, and call it.  This may come from
; 3243 :      * self.dispatch_table, copyreg.dispatch_table, the object's
; 3244 :      * __reduce_ex__ method, or the object's __reduce__ method.
; 3245 :      */
; 3246 :     if (self->dispatch_table == NULL) {

  0036b	48 8b 44 24 70	 mov	 rax, QWORD PTR self$[rsp]
  00370	48 83 78 70 00	 cmp	 QWORD PTR [rax+112], 0
  00375	75 30		 jne	 SHORT $LN39@save

; 3247 :         reduce_func = PyDict_GetItem(dispatch_table, (PyObject *)type);

  00377	48 8b 54 24 20	 mov	 rdx, QWORD PTR type$[rsp]
  0037c	48 8b 0d 00 00
	00 00		 mov	 rcx, QWORD PTR dispatch_table
  00383	e8 00 00 00 00	 call	 PyDict_GetItem
  00388	48 89 44 24 28	 mov	 QWORD PTR reduce_func$[rsp], rax
$LN38@save:

; 3248 :         /* PyDict_GetItem() unlike PyObject_GetItem() and
; 3249 :            PyObject_GetAttr() returns a borrowed ref */
; 3250 :         Py_XINCREF(reduce_func);

  0038d	48 83 7c 24 28
	00		 cmp	 QWORD PTR reduce_func$[rsp], 0
  00393	74 0a		 je	 SHORT $LN35@save
  00395	48 8b 4c 24 28	 mov	 rcx, QWORD PTR reduce_func$[rsp]
  0039a	e8 00 00 00 00	 call	 _Py_IncRef
$LN35@save:
  0039f	33 c0		 xor	 eax, eax
  003a1	85 c0		 test	 eax, eax
  003a3	75 e8		 jne	 SHORT $LN38@save

; 3251 :     } else {

  003a5	eb 3c		 jmp	 SHORT $LN34@save
$LN39@save:

; 3252 :         reduce_func = PyObject_GetItem(self->dispatch_table, (PyObject *)type);

  003a7	48 8b 54 24 20	 mov	 rdx, QWORD PTR type$[rsp]
  003ac	48 8b 44 24 70	 mov	 rax, QWORD PTR self$[rsp]
  003b1	48 8b 48 70	 mov	 rcx, QWORD PTR [rax+112]
  003b5	e8 00 00 00 00	 call	 PyObject_GetItem
  003ba	48 89 44 24 28	 mov	 QWORD PTR reduce_func$[rsp], rax

; 3253 :         if (reduce_func == NULL) {

  003bf	48 83 7c 24 28
	00		 cmp	 QWORD PTR reduce_func$[rsp], 0
  003c5	75 1c		 jne	 SHORT $LN33@save

; 3254 :             if (PyErr_ExceptionMatches(PyExc_KeyError))

  003c7	48 8b 0d 00 00
	00 00		 mov	 rcx, QWORD PTR PyExc_KeyError
  003ce	e8 00 00 00 00	 call	 PyErr_ExceptionMatches
  003d3	85 c0		 test	 eax, eax
  003d5	74 07		 je	 SHORT $LN32@save

; 3255 :                 PyErr_Clear();

  003d7	e8 00 00 00 00	 call	 PyErr_Clear

; 3256 :             else

  003dc	eb 05		 jmp	 SHORT $LN31@save
$LN32@save:

; 3257 :                 goto error;

  003de	e9 0b 02 00 00	 jmp	 $error$22650
$LN31@save:
$LN33@save:
$LN34@save:

; 3258 :         }
; 3259 :     }
; 3260 :     if (reduce_func != NULL) {

  003e3	48 83 7c 24 28
	00		 cmp	 QWORD PTR reduce_func$[rsp], 0
  003e9	74 28		 je	 SHORT $LN30@save

; 3261 :         Py_INCREF(obj);

  003eb	48 8b 4c 24 78	 mov	 rcx, QWORD PTR obj$[rsp]
  003f0	e8 00 00 00 00	 call	 _Py_IncRef

; 3262 :         reduce_value = _Pickler_FastCall(self, reduce_func, obj);

  003f5	4c 8b 44 24 78	 mov	 r8, QWORD PTR obj$[rsp]
  003fa	48 8b 54 24 28	 mov	 rdx, QWORD PTR reduce_func$[rsp]
  003ff	48 8b 4c 24 70	 mov	 rcx, QWORD PTR self$[rsp]
  00404	e8 00 00 00 00	 call	 _Pickler_FastCall
  00409	48 89 44 24 30	 mov	 QWORD PTR reduce_value$[rsp], rax
  0040e	e9 54 01 00 00	 jmp	 $LN29@save
$LN30@save:

; 3263 :     }
; 3264 :     else if (PyType_IsSubtype(type, &PyType_Type)) {

  00413	48 8d 15 00 00
	00 00		 lea	 rdx, OFFSET FLAT:PyType_Type
  0041a	48 8b 4c 24 20	 mov	 rcx, QWORD PTR type$[rsp]
  0041f	e8 00 00 00 00	 call	 PyType_IsSubtype
  00424	85 c0		 test	 eax, eax
  00426	74 20		 je	 SHORT $LN28@save

; 3265 :         status = save_global(self, obj, NULL);

  00428	45 33 c0	 xor	 r8d, r8d
  0042b	48 8b 54 24 78	 mov	 rdx, QWORD PTR obj$[rsp]
  00430	48 8b 4c 24 70	 mov	 rcx, QWORD PTR self$[rsp]
  00435	e8 00 00 00 00	 call	 save_global
  0043a	89 44 24 38	 mov	 DWORD PTR status$[rsp], eax

; 3266 :         goto done;

  0043e	e9 b3 01 00 00	 jmp	 $done$22632

; 3267 :     }
; 3268 :     else {

  00443	e9 1f 01 00 00	 jmp	 $LN27@save
$LN28@save:

; 3269 :         static PyObject *reduce_str = NULL;
; 3270 :         static PyObject *reduce_ex_str = NULL;
; 3271 : 
; 3272 :         /* Cache the name of the reduce methods. */
; 3273 :         if (reduce_str == NULL) {

  00448	48 83 3d 00 00
	00 00 00	 cmp	 QWORD PTR ?reduce_str@?BL@??save@@9@9, 0
  00450	75 44		 jne	 SHORT $LN26@save

; 3274 :             reduce_str = PyUnicode_InternFromString("__reduce__");

  00452	48 8d 0d 00 00
	00 00		 lea	 rcx, OFFSET FLAT:??_C@_0L@NNMACJIG@__reduce__?$AA@
  00459	e8 00 00 00 00	 call	 PyUnicode_InternFromString
  0045e	48 89 05 00 00
	00 00		 mov	 QWORD PTR ?reduce_str@?BL@??save@@9@9, rax

; 3275 :             if (reduce_str == NULL)

  00465	48 83 3d 00 00
	00 00 00	 cmp	 QWORD PTR ?reduce_str@?BL@??save@@9@9, 0
  0046d	75 05		 jne	 SHORT $LN25@save

; 3276 :                 goto error;

  0046f	e9 7a 01 00 00	 jmp	 $error$22650
$LN25@save:

; 3277 :             reduce_ex_str = PyUnicode_InternFromString("__reduce_ex__");

  00474	48 8d 0d 00 00
	00 00		 lea	 rcx, OFFSET FLAT:??_C@_0O@CFEDDKPG@__reduce_ex__?$AA@
  0047b	e8 00 00 00 00	 call	 PyUnicode_InternFromString
  00480	48 89 05 00 00
	00 00		 mov	 QWORD PTR ?reduce_ex_str@?BL@??save@@9@9, rax

; 3278 :             if (reduce_ex_str == NULL)

  00487	48 83 3d 00 00
	00 00 00	 cmp	 QWORD PTR ?reduce_ex_str@?BL@??save@@9@9, 0
  0048f	75 05		 jne	 SHORT $LN24@save

; 3279 :                 goto error;

  00491	e9 58 01 00 00	 jmp	 $error$22650
$LN24@save:
$LN26@save:

; 3280 :         }
; 3281 : 
; 3282 :         /* XXX: If the __reduce__ method is defined, __reduce_ex__ is
; 3283 :            automatically defined as __reduce__. While this is convenient, this
; 3284 :            make it impossible to know which method was actually called. Of
; 3285 :            course, this is not a big deal. But still, it would be nice to let
; 3286 :            the user know which method was called when something go
; 3287 :            wrong. Incidentally, this means if __reduce_ex__ is not defined, we
; 3288 :            don't actually have to check for a __reduce__ method. */
; 3289 : 
; 3290 :         /* Check for a __reduce_ex__ method. */
; 3291 :         reduce_func = PyObject_GetAttr(obj, reduce_ex_str);

  00496	48 8b 15 00 00
	00 00		 mov	 rdx, QWORD PTR ?reduce_ex_str@?BL@??save@@9@9
  0049d	48 8b 4c 24 78	 mov	 rcx, QWORD PTR obj$[rsp]
  004a2	e8 00 00 00 00	 call	 PyObject_GetAttr
  004a7	48 89 44 24 28	 mov	 QWORD PTR reduce_func$[rsp], rax

; 3292 :         if (reduce_func != NULL) {

  004ac	48 83 7c 24 28
	00		 cmp	 QWORD PTR reduce_func$[rsp], 0
  004b2	74 38		 je	 SHORT $LN23@save

; 3293 :             PyObject *proto;
; 3294 :             proto = PyLong_FromLong(self->proto);

  004b4	48 8b 44 24 70	 mov	 rax, QWORD PTR self$[rsp]
  004b9	8b 88 a0 00 00
	00		 mov	 ecx, DWORD PTR [rax+160]
  004bf	e8 00 00 00 00	 call	 PyLong_FromLong
  004c4	48 89 44 24 40	 mov	 QWORD PTR proto$22707[rsp], rax

; 3295 :             if (proto != NULL) {

  004c9	48 83 7c 24 40
	00		 cmp	 QWORD PTR proto$22707[rsp], 0
  004cf	74 19		 je	 SHORT $LN22@save

; 3296 :                 reduce_value = _Pickler_FastCall(self, reduce_func, proto);

  004d1	4c 8b 44 24 40	 mov	 r8, QWORD PTR proto$22707[rsp]
  004d6	48 8b 54 24 28	 mov	 rdx, QWORD PTR reduce_func$[rsp]
  004db	48 8b 4c 24 70	 mov	 rcx, QWORD PTR self$[rsp]
  004e0	e8 00 00 00 00	 call	 _Pickler_FastCall
  004e5	48 89 44 24 30	 mov	 QWORD PTR reduce_value$[rsp], rax
$LN22@save:

; 3297 :             }
; 3298 :         }
; 3299 :         else {

  004ea	eb 7b		 jmp	 SHORT $LN21@save
$LN23@save:

; 3300 :             if (PyErr_ExceptionMatches(PyExc_AttributeError))

  004ec	48 8b 0d 00 00
	00 00		 mov	 rcx, QWORD PTR PyExc_AttributeError
  004f3	e8 00 00 00 00	 call	 PyErr_ExceptionMatches
  004f8	85 c0		 test	 eax, eax
  004fa	74 07		 je	 SHORT $LN20@save

; 3301 :                 PyErr_Clear();

  004fc	e8 00 00 00 00	 call	 PyErr_Clear

; 3302 :             else

  00501	eb 05		 jmp	 SHORT $LN19@save
$LN20@save:

; 3303 :                 goto error;

  00503	e9 e6 00 00 00	 jmp	 $error$22650
$LN19@save:

; 3304 :             /* Check for a __reduce__ method. */
; 3305 :             reduce_func = PyObject_GetAttr(obj, reduce_str);

  00508	48 8b 15 00 00
	00 00		 mov	 rdx, QWORD PTR ?reduce_str@?BL@??save@@9@9
  0050f	48 8b 4c 24 78	 mov	 rcx, QWORD PTR obj$[rsp]
  00514	e8 00 00 00 00	 call	 PyObject_GetAttr
  00519	48 89 44 24 28	 mov	 QWORD PTR reduce_func$[rsp], rax

; 3306 :             if (reduce_func != NULL) {

  0051e	48 83 7c 24 28
	00		 cmp	 QWORD PTR reduce_func$[rsp], 0
  00524	74 1b		 je	 SHORT $LN18@save

; 3307 :                 reduce_value = PyObject_Call(reduce_func, empty_tuple, NULL);

  00526	45 33 c0	 xor	 r8d, r8d
  00529	48 8b 15 00 00
	00 00		 mov	 rdx, QWORD PTR empty_tuple
  00530	48 8b 4c 24 28	 mov	 rcx, QWORD PTR reduce_func$[rsp]
  00535	e8 00 00 00 00	 call	 PyObject_Call
  0053a	48 89 44 24 30	 mov	 QWORD PTR reduce_value$[rsp], rax

; 3308 :             }
; 3309 :             else {

  0053f	eb 26		 jmp	 SHORT $LN17@save
$LN18@save:

; 3310 :                 PyErr_Format(PicklingError, "can't pickle '%.200s' object: %R",
; 3311 :                              type->tp_name, obj);

  00541	4c 8b 4c 24 78	 mov	 r9, QWORD PTR obj$[rsp]
  00546	48 8b 44 24 20	 mov	 rax, QWORD PTR type$[rsp]
  0054b	4c 8b 40 70	 mov	 r8, QWORD PTR [rax+112]
  0054f	48 8d 15 00 00
	00 00		 lea	 rdx, OFFSET FLAT:??_C@_0CB@HIPCBBLL@can?8t?5pickle?5?8?$CF?4200s?8?5object?3?5?$CFR@
  00556	48 8b 0d 00 00
	00 00		 mov	 rcx, QWORD PTR PicklingError
  0055d	e8 00 00 00 00	 call	 PyErr_Format

; 3312 :                 goto error;

  00562	e9 87 00 00 00	 jmp	 $error$22650
$LN17@save:
$LN21@save:
$LN27@save:
$LN29@save:

; 3313 :             }
; 3314 :         }
; 3315 :     }
; 3316 : 
; 3317 :     if (reduce_value == NULL)

  00567	48 83 7c 24 30
	00		 cmp	 QWORD PTR reduce_value$[rsp], 0
  0056d	75 02		 jne	 SHORT $LN16@save

; 3318 :         goto error;

  0056f	eb 7d		 jmp	 SHORT $error$22650
$LN16@save:

; 3319 : 
; 3320 :     if (PyUnicode_Check(reduce_value)) {

  00571	48 8b 44 24 30	 mov	 rax, QWORD PTR reduce_value$[rsp]
  00576	48 8b 40 58	 mov	 rax, QWORD PTR [rax+88]
  0057a	8b 80 00 01 00
	00		 mov	 eax, DWORD PTR [rax+256]
  00580	25 00 00 00 10	 and	 eax, 268435456		; 10000000H
  00585	85 c0		 test	 eax, eax
  00587	74 1a		 je	 SHORT $LN15@save

; 3321 :         status = save_global(self, obj, reduce_value);

  00589	4c 8b 44 24 30	 mov	 r8, QWORD PTR reduce_value$[rsp]
  0058e	48 8b 54 24 78	 mov	 rdx, QWORD PTR obj$[rsp]
  00593	48 8b 4c 24 70	 mov	 rcx, QWORD PTR self$[rsp]
  00598	e8 00 00 00 00	 call	 save_global
  0059d	89 44 24 38	 mov	 DWORD PTR status$[rsp], eax

; 3322 :         goto done;

  005a1	eb 53		 jmp	 SHORT $done$22632
$LN15@save:

; 3323 :     }
; 3324 : 
; 3325 :     if (!PyTuple_Check(reduce_value)) {

  005a3	48 8b 44 24 30	 mov	 rax, QWORD PTR reduce_value$[rsp]
  005a8	48 8b 40 58	 mov	 rax, QWORD PTR [rax+88]
  005ac	8b 80 00 01 00
	00		 mov	 eax, DWORD PTR [rax+256]
  005b2	25 00 00 00 04	 and	 eax, 67108864		; 04000000H
  005b7	85 c0		 test	 eax, eax
  005b9	75 15		 jne	 SHORT $LN14@save

; 3326 :         PyErr_SetString(PicklingError,
; 3327 :                         "__reduce__ must return a string or tuple");

  005bb	48 8d 15 00 00
	00 00		 lea	 rdx, OFFSET FLAT:??_C@_0CJ@NPKDNCPF@__reduce__?5must?5return?5a?5string?5@
  005c2	48 8b 0d 00 00
	00 00		 mov	 rcx, QWORD PTR PicklingError
  005c9	e8 00 00 00 00	 call	 PyErr_SetString

; 3328 :         goto error;

  005ce	eb 1e		 jmp	 SHORT $error$22650
$LN14@save:

; 3329 :     }
; 3330 : 
; 3331 :     status = save_reduce(self, reduce_value, obj);

  005d0	4c 8b 44 24 78	 mov	 r8, QWORD PTR obj$[rsp]
  005d5	48 8b 54 24 30	 mov	 rdx, QWORD PTR reduce_value$[rsp]
  005da	48 8b 4c 24 70	 mov	 rcx, QWORD PTR self$[rsp]
  005df	e8 00 00 00 00	 call	 save_reduce
  005e4	89 44 24 38	 mov	 DWORD PTR status$[rsp], eax

; 3332 : 
; 3333 :     if (0) {

  005e8	33 c0		 xor	 eax, eax
  005ea	85 c0		 test	 eax, eax
  005ec	74 08		 je	 SHORT $LN13@save
$error$22650:

; 3334 :   error:
; 3335 :         status = -1;

  005ee	c7 44 24 38 ff
	ff ff ff	 mov	 DWORD PTR status$[rsp], -1
$LN13@save:
$done$22632:
$LN12@save:

; 3336 :     }
; 3337 :   done:
; 3338 :     Py_LeaveRecursiveCall();

  005f6	83 3d 00 00 00
	00 64		 cmp	 DWORD PTR _Py_CheckRecursionLimit, 100 ; 00000064H
  005fd	7e 0f		 jle	 SHORT $LN76@save
  005ff	8b 05 00 00 00
	00		 mov	 eax, DWORD PTR _Py_CheckRecursionLimit
  00605	83 e8 32	 sub	 eax, 50			; 00000032H
  00608	89 44 24 50	 mov	 DWORD PTR tv279[rsp], eax
  0060c	eb 10		 jmp	 SHORT $LN77@save
$LN76@save:
  0060e	8b 05 00 00 00
	00		 mov	 eax, DWORD PTR _Py_CheckRecursionLimit
  00614	c1 f8 02	 sar	 eax, 2
  00617	6b c0 03	 imul	 eax, 3
  0061a	89 44 24 50	 mov	 DWORD PTR tv279[rsp], eax
$LN77@save:
  0061e	e8 00 00 00 00	 call	 PyThreadState_Get
  00623	48 83 c0 18	 add	 rax, 24
  00627	48 89 44 24 58	 mov	 QWORD PTR tv273[rsp], rax
  0062c	48 8b 44 24 58	 mov	 rax, QWORD PTR tv273[rsp]
  00631	8b 00		 mov	 eax, DWORD PTR [rax]
  00633	ff c8		 dec	 eax
  00635	48 8b 4c 24 58	 mov	 rcx, QWORD PTR tv273[rsp]
  0063a	89 01		 mov	 DWORD PTR [rcx], eax
  0063c	48 8b 44 24 58	 mov	 rax, QWORD PTR tv273[rsp]
  00641	8b 4c 24 50	 mov	 ecx, DWORD PTR tv279[rsp]
  00645	39 08		 cmp	 DWORD PTR [rax], ecx
  00647	7d 09		 jge	 SHORT $LN9@save
  00649	e8 00 00 00 00	 call	 PyThreadState_Get
  0064e	c6 40 1c 00	 mov	 BYTE PTR [rax+28], 0
$LN9@save:
  00652	33 c0		 xor	 eax, eax
  00654	85 c0		 test	 eax, eax
  00656	75 9e		 jne	 SHORT $LN12@save
$LN8@save:

; 3339 :     Py_XDECREF(reduce_func);

  00658	48 83 7c 24 28
	00		 cmp	 QWORD PTR reduce_func$[rsp], 0
  0065e	74 0a		 je	 SHORT $LN5@save
  00660	48 8b 4c 24 28	 mov	 rcx, QWORD PTR reduce_func$[rsp]
  00665	e8 00 00 00 00	 call	 _Py_DecRef
$LN5@save:
  0066a	33 c0		 xor	 eax, eax
  0066c	85 c0		 test	 eax, eax
  0066e	75 e8		 jne	 SHORT $LN8@save
$LN4@save:

; 3340 :     Py_XDECREF(reduce_value);

  00670	48 83 7c 24 30
	00		 cmp	 QWORD PTR reduce_value$[rsp], 0
  00676	74 0a		 je	 SHORT $LN1@save
  00678	48 8b 4c 24 30	 mov	 rcx, QWORD PTR reduce_value$[rsp]
  0067d	e8 00 00 00 00	 call	 _Py_DecRef
$LN1@save:
  00682	33 c0		 xor	 eax, eax
  00684	85 c0		 test	 eax, eax
  00686	75 e8		 jne	 SHORT $LN4@save

; 3341 : 
; 3342 :     return status;

  00688	8b 44 24 38	 mov	 eax, DWORD PTR status$[rsp]
$LN74@save:

; 3343 : }

  0068c	48 83 c4 68	 add	 rsp, 104		; 00000068H
  00690	c3		 ret	 0
save	ENDP
_TEXT	ENDS
;	COMDAT pdata
pdata	SEGMENT
$pdata$PyMemoTable_Get DD imagerel PyMemoTable_Get
	DD	imagerel PyMemoTable_Get+63
	DD	imagerel $unwind$PyMemoTable_Get
pdata	ENDS
;	COMDAT xdata
xdata	SEGMENT
$unwind$PyMemoTable_Get DD 010e01H
	DD	0620eH
; Function compile flags: /Odtp
xdata	ENDS
;	COMDAT PyMemoTable_Get
_TEXT	SEGMENT
entry$ = 32
self$ = 64
key$ = 72
PyMemoTable_Get PROC					; COMDAT

; 562  : {

  00000	48 89 54 24 10	 mov	 QWORD PTR [rsp+16], rdx
  00005	48 89 4c 24 08	 mov	 QWORD PTR [rsp+8], rcx
  0000a	48 83 ec 38	 sub	 rsp, 56			; 00000038H

; 563  :     PyMemoEntry *entry = _PyMemoTable_Lookup(self, key);

  0000e	48 8b 54 24 48	 mov	 rdx, QWORD PTR key$[rsp]
  00013	48 8b 4c 24 40	 mov	 rcx, QWORD PTR self$[rsp]
  00018	e8 00 00 00 00	 call	 _PyMemoTable_Lookup
  0001d	48 89 44 24 20	 mov	 QWORD PTR entry$[rsp], rax

; 564  :     if (entry->me_key == NULL)

  00022	48 8b 44 24 20	 mov	 rax, QWORD PTR entry$[rsp]
  00027	48 83 38 00	 cmp	 QWORD PTR [rax], 0
  0002b	75 04		 jne	 SHORT $LN1@PyMemoTabl@2

; 565  :         return NULL;

  0002d	33 c0		 xor	 eax, eax
  0002f	eb 09		 jmp	 SHORT $LN2@PyMemoTabl@2
$LN1@PyMemoTabl@2:

; 566  :     return &entry->me_value;

  00031	48 8b 44 24 20	 mov	 rax, QWORD PTR entry$[rsp]
  00036	48 83 c0 08	 add	 rax, 8
$LN2@PyMemoTabl@2:

; 567  : }

  0003a	48 83 c4 38	 add	 rsp, 56			; 00000038H
  0003e	c3		 ret	 0
PyMemoTable_Get ENDP
_TEXT	ENDS
PUBLIC	??_C@_13COJANIEC@?$AA0?$AA?$AA@			; `string'
;	COMDAT pdata
pdata	SEGMENT
$pdata$_PyMemoTable_Lookup DD imagerel _PyMemoTable_Lookup
	DD	imagerel _PyMemoTable_Lookup+304
	DD	imagerel $unwind$_PyMemoTable_Lookup
pdata	ENDS
;	COMDAT xdata
xdata	SEGMENT
$unwind$_PyMemoTable_Lookup DD 010e01H
	DD	0a20eH
xdata	ENDS
;	COMDAT ??_C@_13COJANIEC@?$AA0?$AA?$AA@
CONST	SEGMENT
??_C@_13COJANIEC@?$AA0?$AA?$AA@ DB '0', 00H, 00H, 00H	; `string'
; Function compile flags: /Odtp
CONST	ENDS
;	COMDAT _PyMemoTable_Lookup
_TEXT	SEGMENT
i$ = 32
mask$ = 40
perturb$ = 48
table$ = 56
hash$ = 64
entry$ = 72
self$ = 96
key$ = 104
_PyMemoTable_Lookup PROC				; COMDAT

; 484  : {

  00000	48 89 54 24 10	 mov	 QWORD PTR [rsp+16], rdx
  00005	48 89 4c 24 08	 mov	 QWORD PTR [rsp+8], rcx
  0000a	48 83 ec 58	 sub	 rsp, 88			; 00000058H

; 485  :     size_t i;
; 486  :     size_t perturb;
; 487  :     size_t mask = (size_t)self->mt_mask;

  0000e	48 8b 44 24 60	 mov	 rax, QWORD PTR self$[rsp]
  00013	48 8b 00	 mov	 rax, QWORD PTR [rax]
  00016	48 89 44 24 28	 mov	 QWORD PTR mask$[rsp], rax

; 488  :     PyMemoEntry *table = self->mt_table;

  0001b	48 8b 44 24 60	 mov	 rax, QWORD PTR self$[rsp]
  00020	48 8b 40 18	 mov	 rax, QWORD PTR [rax+24]
  00024	48 89 44 24 38	 mov	 QWORD PTR table$[rsp], rax

; 489  :     PyMemoEntry *entry;
; 490  :     Py_hash_t hash = (Py_hash_t)key >> 3;

  00029	48 8b 44 24 68	 mov	 rax, QWORD PTR key$[rsp]
  0002e	48 c1 f8 03	 sar	 rax, 3
  00032	48 89 44 24 40	 mov	 QWORD PTR hash$[rsp], rax

; 491  : 
; 492  :     i = hash & mask;

  00037	48 8b 44 24 28	 mov	 rax, QWORD PTR mask$[rsp]
  0003c	48 8b 4c 24 40	 mov	 rcx, QWORD PTR hash$[rsp]
  00041	48 23 c8	 and	 rcx, rax
  00044	48 8b c1	 mov	 rax, rcx
  00047	48 89 44 24 20	 mov	 QWORD PTR i$[rsp], rax

; 493  :     entry = &table[i];

  0004c	48 8b 44 24 20	 mov	 rax, QWORD PTR i$[rsp]
  00051	48 6b c0 10	 imul	 rax, 16
  00055	48 8b 4c 24 38	 mov	 rcx, QWORD PTR table$[rsp]
  0005a	48 03 c8	 add	 rcx, rax
  0005d	48 8b c1	 mov	 rax, rcx
  00060	48 89 44 24 48	 mov	 QWORD PTR entry$[rsp], rax

; 494  :     if (entry->me_key == NULL || entry->me_key == key)

  00065	48 8b 44 24 48	 mov	 rax, QWORD PTR entry$[rsp]
  0006a	48 83 38 00	 cmp	 QWORD PTR [rax], 0
  0006e	74 0f		 je	 SHORT $LN6@PyMemoTabl@3
  00070	48 8b 44 24 48	 mov	 rax, QWORD PTR entry$[rsp]
  00075	48 8b 4c 24 68	 mov	 rcx, QWORD PTR key$[rsp]
  0007a	48 39 08	 cmp	 QWORD PTR [rax], rcx
  0007d	75 0a		 jne	 SHORT $LN7@PyMemoTabl@3
$LN6@PyMemoTabl@3:

; 495  :         return entry;

  0007f	48 8b 44 24 48	 mov	 rax, QWORD PTR entry$[rsp]
  00084	e9 a2 00 00 00	 jmp	 $LN8@PyMemoTabl@3
$LN7@PyMemoTabl@3:

; 496  : 
; 497  :     for (perturb = hash; ; perturb >>= PERTURB_SHIFT) {

  00089	48 8b 44 24 40	 mov	 rax, QWORD PTR hash$[rsp]
  0008e	48 89 44 24 30	 mov	 QWORD PTR perturb$[rsp], rax
  00093	eb 0e		 jmp	 SHORT $LN5@PyMemoTabl@3
$LN4@PyMemoTabl@3:
  00095	48 8b 44 24 30	 mov	 rax, QWORD PTR perturb$[rsp]
  0009a	48 c1 e8 05	 shr	 rax, 5
  0009e	48 89 44 24 30	 mov	 QWORD PTR perturb$[rsp], rax
$LN5@PyMemoTabl@3:

; 498  :         i = (i << 2) + i + perturb + 1;

  000a3	48 8b 44 24 20	 mov	 rax, QWORD PTR i$[rsp]
  000a8	48 8b 4c 24 20	 mov	 rcx, QWORD PTR i$[rsp]
  000ad	48 8d 04 88	 lea	 rax, QWORD PTR [rax+rcx*4]
  000b1	48 8b 4c 24 30	 mov	 rcx, QWORD PTR perturb$[rsp]
  000b6	48 8d 44 08 01	 lea	 rax, QWORD PTR [rax+rcx+1]
  000bb	48 89 44 24 20	 mov	 QWORD PTR i$[rsp], rax

; 499  :         entry = &table[i & mask];

  000c0	48 8b 44 24 28	 mov	 rax, QWORD PTR mask$[rsp]
  000c5	48 8b 4c 24 20	 mov	 rcx, QWORD PTR i$[rsp]
  000ca	48 23 c8	 and	 rcx, rax
  000cd	48 8b c1	 mov	 rax, rcx
  000d0	48 6b c0 10	 imul	 rax, 16
  000d4	48 8b 4c 24 38	 mov	 rcx, QWORD PTR table$[rsp]
  000d9	48 03 c8	 add	 rcx, rax
  000dc	48 8b c1	 mov	 rax, rcx
  000df	48 89 44 24 48	 mov	 QWORD PTR entry$[rsp], rax

; 500  :         if (entry->me_key == NULL || entry->me_key == key)

  000e4	48 8b 44 24 48	 mov	 rax, QWORD PTR entry$[rsp]
  000e9	48 83 38 00	 cmp	 QWORD PTR [rax], 0
  000ed	74 0f		 je	 SHORT $LN1@PyMemoTabl@3
  000ef	48 8b 44 24 48	 mov	 rax, QWORD PTR entry$[rsp]
  000f4	48 8b 4c 24 68	 mov	 rcx, QWORD PTR key$[rsp]
  000f9	48 39 08	 cmp	 QWORD PTR [rax], rcx
  000fc	75 07		 jne	 SHORT $LN2@PyMemoTabl@3
$LN1@PyMemoTabl@3:

; 501  :             return entry;

  000fe	48 8b 44 24 48	 mov	 rax, QWORD PTR entry$[rsp]
  00103	eb 26		 jmp	 SHORT $LN8@PyMemoTabl@3
$LN2@PyMemoTabl@3:

; 502  :     }

  00105	eb 8e		 jmp	 SHORT $LN4@PyMemoTabl@3

; 503  :     assert(0);  /* Never reached */

  00107	33 c0		 xor	 eax, eax
  00109	85 c0		 test	 eax, eax
  0010b	75 1c		 jne	 SHORT $LN10@PyMemoTabl@3
  0010d	41 b8 f7 01 00
	00		 mov	 r8d, 503		; 000001f7H
  00113	48 8d 15 00 00
	00 00		 lea	 rdx, OFFSET FLAT:??_C@_1CK@DHJKOIMG@?$AA?4?$AA?4?$AA?2?$AAM?$AAo?$AAd?$AAu?$AAl?$AAe?$AAs?$AA?2?$AA_?$AAp?$AAi?$AAc?$AAk?$AAl?$AAe?$AA?4?$AAc?$AA?$AA@
  0011a	48 8d 0d 00 00
	00 00		 lea	 rcx, OFFSET FLAT:??_C@_13COJANIEC@?$AA0?$AA?$AA@
  00121	ff 15 00 00 00
	00		 call	 QWORD PTR __imp__wassert
  00127	33 c0		 xor	 eax, eax
$LN10@PyMemoTabl@3:

; 504  :     return NULL;

  00129	33 c0		 xor	 eax, eax
$LN8@PyMemoTabl@3:

; 505  : }

  0012b	48 83 c4 58	 add	 rsp, 88			; 00000058H
  0012f	c3		 ret	 0
_PyMemoTable_Lookup ENDP
_TEXT	ENDS
PUBLIC	??_C@_0CC@JBGEENKP@memo?5id?5too?5large?5for?5LONG_BINGE@ ; `string'
PUBLIC	??_C@_04GDNBDEFH@?$CFId?6?$AA@			; `string'
EXTRN	strlen:PROC
EXTRN	PyOS_snprintf:PROC
EXTRN	PyErr_SetObject:PROC
;	COMDAT pdata
pdata	SEGMENT
$pdata$memo_get DD imagerel memo_get
	DD	imagerel memo_get+376
	DD	imagerel $unwind$memo_get
pdata	ENDS
;	COMDAT xdata
xdata	SEGMENT
$unwind$memo_get DD 010e01H
	DD	0a20eH
xdata	ENDS
;	COMDAT ??_C@_0CC@JBGEENKP@memo?5id?5too?5large?5for?5LONG_BINGE@
CONST	SEGMENT
??_C@_0CC@JBGEENKP@memo?5id?5too?5large?5for?5LONG_BINGE@ DB 'memo id too'
	DB	' large for LONG_BINGET', 00H		; `string'
CONST	ENDS
;	COMDAT ??_C@_04GDNBDEFH@?$CFId?6?$AA@
CONST	SEGMENT
??_C@_04GDNBDEFH@?$CFId?6?$AA@ DB '%Id', 0aH, 00H	; `string'
; Function compile flags: /Odtp
CONST	ENDS
;	COMDAT memo_get
_TEXT	SEGMENT
value$ = 32
pdata$ = 40
len$ = 72
self$ = 96
key$ = 104
memo_get PROC						; COMDAT

; 1228 : {

  00000	48 89 54 24 10	 mov	 QWORD PTR [rsp+16], rdx
  00005	48 89 4c 24 08	 mov	 QWORD PTR [rsp+8], rcx
  0000a	48 83 ec 58	 sub	 rsp, 88			; 00000058H

; 1229 :     Py_ssize_t *value;
; 1230 :     char pdata[30];
; 1231 :     Py_ssize_t len;
; 1232 : 
; 1233 :     value = PyMemoTable_Get(self->memo, key);

  0000e	48 8b 54 24 68	 mov	 rdx, QWORD PTR key$[rsp]
  00013	48 8b 44 24 60	 mov	 rax, QWORD PTR self$[rsp]
  00018	48 8b 48 60	 mov	 rcx, QWORD PTR [rax+96]
  0001c	e8 00 00 00 00	 call	 PyMemoTable_Get
  00021	48 89 44 24 20	 mov	 QWORD PTR value$[rsp], rax

; 1234 :     if (value == NULL)  {

  00026	48 83 7c 24 20
	00		 cmp	 QWORD PTR value$[rsp], 0
  0002c	75 1b		 jne	 SHORT $LN8@memo_get

; 1235 :         PyErr_SetObject(PyExc_KeyError, key);

  0002e	48 8b 54 24 68	 mov	 rdx, QWORD PTR key$[rsp]
  00033	48 8b 0d 00 00
	00 00		 mov	 rcx, QWORD PTR PyExc_KeyError
  0003a	e8 00 00 00 00	 call	 PyErr_SetObject

; 1236 :         return -1;

  0003f	b8 ff ff ff ff	 mov	 eax, -1
  00044	e9 2a 01 00 00	 jmp	 $LN9@memo_get
$LN8@memo_get:

; 1237 :     }
; 1238 : 
; 1239 :     if (!self->bin) {

  00049	48 8b 44 24 60	 mov	 rax, QWORD PTR self$[rsp]
  0004e	83 b8 a4 00 00
	00 00		 cmp	 DWORD PTR [rax+164], 0
  00055	75 3a		 jne	 SHORT $LN7@memo_get

; 1240 :         pdata[0] = GET;

  00057	c6 44 24 28 67	 mov	 BYTE PTR pdata$[rsp], 103 ; 00000067H

; 1241 :         PyOS_snprintf(pdata + 1, sizeof(pdata) - 1,
; 1242 :                       "%" PY_FORMAT_SIZE_T "d\n", *value);

  0005c	48 8d 44 24 29	 lea	 rax, QWORD PTR pdata$[rsp+1]
  00061	48 8b 4c 24 20	 mov	 rcx, QWORD PTR value$[rsp]
  00066	4c 8b 09	 mov	 r9, QWORD PTR [rcx]
  00069	4c 8d 05 00 00
	00 00		 lea	 r8, OFFSET FLAT:??_C@_04GDNBDEFH@?$CFId?6?$AA@
  00070	ba 1d 00 00 00	 mov	 edx, 29
  00075	48 8b c8	 mov	 rcx, rax
  00078	e8 00 00 00 00	 call	 PyOS_snprintf

; 1243 :         len = strlen(pdata);

  0007d	48 8d 4c 24 28	 lea	 rcx, QWORD PTR pdata$[rsp]
  00082	e8 00 00 00 00	 call	 strlen
  00087	48 89 44 24 48	 mov	 QWORD PTR len$[rsp], rax

; 1244 :     }
; 1245 :     else {

  0008c	e9 c0 00 00 00	 jmp	 $LN6@memo_get
$LN7@memo_get:

; 1246 :         if (*value < 256) {

  00091	48 8b 44 24 20	 mov	 rax, QWORD PTR value$[rsp]
  00096	48 81 38 00 01
	00 00		 cmp	 QWORD PTR [rax], 256	; 00000100H
  0009d	7d 25		 jge	 SHORT $LN5@memo_get

; 1247 :             pdata[0] = BINGET;

  0009f	c6 44 24 28 68	 mov	 BYTE PTR pdata$[rsp], 104 ; 00000068H

; 1248 :             pdata[1] = (unsigned char)(*value & 0xff);

  000a4	48 8b 44 24 20	 mov	 rax, QWORD PTR value$[rsp]
  000a9	48 8b 00	 mov	 rax, QWORD PTR [rax]
  000ac	48 25 ff 00 00
	00		 and	 rax, 255		; 000000ffH
  000b2	88 44 24 29	 mov	 BYTE PTR pdata$[rsp+1], al

; 1249 :             len = 2;

  000b6	48 c7 44 24 48
	02 00 00 00	 mov	 QWORD PTR len$[rsp], 2
  000bf	e9 8d 00 00 00	 jmp	 $LN4@memo_get
$LN5@memo_get:

; 1250 :         }
; 1251 :         else if (*value <= 0xffffffffL) {

  000c4	48 8b 44 24 20	 mov	 rax, QWORD PTR value$[rsp]
  000c9	b9 ff ff ff ff	 mov	 ecx, -1
  000ce	48 39 08	 cmp	 QWORD PTR [rax], rcx
  000d1	7f 64		 jg	 SHORT $LN3@memo_get

; 1252 :             pdata[0] = LONG_BINGET;

  000d3	c6 44 24 28 6a	 mov	 BYTE PTR pdata$[rsp], 106 ; 0000006aH

; 1253 :             pdata[1] = (unsigned char)(*value & 0xff);

  000d8	48 8b 44 24 20	 mov	 rax, QWORD PTR value$[rsp]
  000dd	48 8b 00	 mov	 rax, QWORD PTR [rax]
  000e0	48 25 ff 00 00
	00		 and	 rax, 255		; 000000ffH
  000e6	88 44 24 29	 mov	 BYTE PTR pdata$[rsp+1], al

; 1254 :             pdata[2] = (unsigned char)((*value >> 8) & 0xff);

  000ea	48 8b 44 24 20	 mov	 rax, QWORD PTR value$[rsp]
  000ef	48 8b 00	 mov	 rax, QWORD PTR [rax]
  000f2	48 c1 f8 08	 sar	 rax, 8
  000f6	48 25 ff 00 00
	00		 and	 rax, 255		; 000000ffH
  000fc	88 44 24 2a	 mov	 BYTE PTR pdata$[rsp+2], al

; 1255 :             pdata[3] = (unsigned char)((*value >> 16) & 0xff);

  00100	48 8b 44 24 20	 mov	 rax, QWORD PTR value$[rsp]
  00105	48 8b 00	 mov	 rax, QWORD PTR [rax]
  00108	48 c1 f8 10	 sar	 rax, 16
  0010c	48 25 ff 00 00
	00		 and	 rax, 255		; 000000ffH
  00112	88 44 24 2b	 mov	 BYTE PTR pdata$[rsp+3], al

; 1256 :             pdata[4] = (unsigned char)((*value >> 24) & 0xff);

  00116	48 8b 44 24 20	 mov	 rax, QWORD PTR value$[rsp]
  0011b	48 8b 00	 mov	 rax, QWORD PTR [rax]
  0011e	48 c1 f8 18	 sar	 rax, 24
  00122	48 25 ff 00 00
	00		 and	 rax, 255		; 000000ffH
  00128	88 44 24 2c	 mov	 BYTE PTR pdata$[rsp+4], al

; 1257 :             len = 5;

  0012c	48 c7 44 24 48
	05 00 00 00	 mov	 QWORD PTR len$[rsp], 5

; 1258 :         }
; 1259 :         else { /* unlikely */

  00135	eb 1a		 jmp	 SHORT $LN2@memo_get
$LN3@memo_get:

; 1260 :             PyErr_SetString(PicklingError,
; 1261 :                             "memo id too large for LONG_BINGET");

  00137	48 8d 15 00 00
	00 00		 lea	 rdx, OFFSET FLAT:??_C@_0CC@JBGEENKP@memo?5id?5too?5large?5for?5LONG_BINGE@
  0013e	48 8b 0d 00 00
	00 00		 mov	 rcx, QWORD PTR PicklingError
  00145	e8 00 00 00 00	 call	 PyErr_SetString

; 1262 :             return -1;

  0014a	b8 ff ff ff ff	 mov	 eax, -1
  0014f	eb 22		 jmp	 SHORT $LN9@memo_get
$LN2@memo_get:
$LN4@memo_get:
$LN6@memo_get:

; 1263 :         }
; 1264 :     }
; 1265 : 
; 1266 :     if (_Pickler_Write(self, pdata, len) < 0)

  00151	4c 8b 44 24 48	 mov	 r8, QWORD PTR len$[rsp]
  00156	48 8d 54 24 28	 lea	 rdx, QWORD PTR pdata$[rsp]
  0015b	48 8b 4c 24 60	 mov	 rcx, QWORD PTR self$[rsp]
  00160	e8 00 00 00 00	 call	 _Pickler_Write
  00165	48 85 c0	 test	 rax, rax
  00168	7d 07		 jge	 SHORT $LN1@memo_get

; 1267 :         return -1;

  0016a	b8 ff ff ff ff	 mov	 eax, -1
  0016f	eb 02		 jmp	 SHORT $LN9@memo_get
$LN1@memo_get:

; 1268 : 
; 1269 :     return 0;

  00171	33 c0		 xor	 eax, eax
$LN9@memo_get:

; 1270 : }

  00173	48 83 c4 58	 add	 rsp, 88			; 00000058H
  00177	c3		 ret	 0
memo_get ENDP
_TEXT	ENDS
;	COMDAT pdata
pdata	SEGMENT
$pdata$save_none DD imagerel save_none
	DD	imagerel save_none+59
	DD	imagerel $unwind$save_none
pdata	ENDS
;	COMDAT xdata
xdata	SEGMENT
$unwind$save_none DD 010e01H
	DD	0620eH
; Function compile flags: /Odtp
xdata	ENDS
;	COMDAT save_none
_TEXT	SEGMENT
none_op$ = 32
self$ = 64
obj$ = 72
save_none PROC						; COMDAT

; 1464 : {

  00000	48 89 54 24 10	 mov	 QWORD PTR [rsp+16], rdx
  00005	48 89 4c 24 08	 mov	 QWORD PTR [rsp+8], rcx
  0000a	48 83 ec 38	 sub	 rsp, 56			; 00000038H

; 1465 :     const char none_op = NONE;

  0000e	c6 44 24 20 4e	 mov	 BYTE PTR none_op$[rsp], 78 ; 0000004eH

; 1466 :     if (_Pickler_Write(self, &none_op, 1) < 0)

  00013	41 b8 01 00 00
	00		 mov	 r8d, 1
  00019	48 8d 54 24 20	 lea	 rdx, QWORD PTR none_op$[rsp]
  0001e	48 8b 4c 24 40	 mov	 rcx, QWORD PTR self$[rsp]
  00023	e8 00 00 00 00	 call	 _Pickler_Write
  00028	48 85 c0	 test	 rax, rax
  0002b	7d 07		 jge	 SHORT $LN1@save_none

; 1467 :         return -1;

  0002d	b8 ff ff ff ff	 mov	 eax, -1
  00032	eb 02		 jmp	 SHORT $LN2@save_none
$LN1@save_none:

; 1468 : 
; 1469 :     return 0;

  00034	33 c0		 xor	 eax, eax
$LN2@save_none:

; 1470 : }

  00036	48 83 c4 38	 add	 rsp, 56			; 00000038H
  0003a	c3		 ret	 0
save_none ENDP
_TEXT	ENDS
;	COMDAT pdata
pdata	SEGMENT
$pdata$save_bool DD imagerel save_bool
	DD	imagerel save_bool+206
	DD	imagerel $unwind$save_bool
pdata	ENDS
;	COMDAT xdata
xdata	SEGMENT
$unwind$save_bool DD 010e01H
	DD	0820eH
; Function compile flags: /Odtp
xdata	ENDS
;	COMDAT save_bool
_TEXT	SEGMENT
p$ = 32
len$ = 36
bool_op$21471 = 40
tv65 = 44
tv69 = 48
self$ = 80
obj$ = 88
save_bool PROC						; COMDAT

; 1474 : {

  00000	48 89 54 24 10	 mov	 QWORD PTR [rsp+16], rdx
  00005	48 89 4c 24 08	 mov	 QWORD PTR [rsp+8], rcx
  0000a	48 83 ec 48	 sub	 rsp, 72			; 00000048H

; 1475 :     static const char *buf[2] = { FALSE, TRUE };
; 1476 :     const char len[2] = {sizeof(FALSE) - 1, sizeof(TRUE) - 1};

  0000e	c6 44 24 24 04	 mov	 BYTE PTR len$[rsp], 4
  00013	c6 44 24 25 04	 mov	 BYTE PTR len$[rsp+1], 4

; 1477 :     int p = (obj == Py_True);

  00018	48 8d 05 00 00
	00 00		 lea	 rax, OFFSET FLAT:_Py_TrueStruct
  0001f	48 39 44 24 58	 cmp	 QWORD PTR obj$[rsp], rax
  00024	75 0a		 jne	 SHORT $LN7@save_bool
  00026	c7 44 24 2c 01
	00 00 00	 mov	 DWORD PTR tv65[rsp], 1
  0002e	eb 08		 jmp	 SHORT $LN8@save_bool
$LN7@save_bool:
  00030	c7 44 24 2c 00
	00 00 00	 mov	 DWORD PTR tv65[rsp], 0
$LN8@save_bool:
  00038	8b 44 24 2c	 mov	 eax, DWORD PTR tv65[rsp]
  0003c	89 44 24 20	 mov	 DWORD PTR p$[rsp], eax

; 1478 : 
; 1479 :     if (self->proto >= 2) {

  00040	48 8b 44 24 50	 mov	 rax, QWORD PTR self$[rsp]
  00045	83 b8 a0 00 00
	00 02		 cmp	 DWORD PTR [rax+160], 2
  0004c	7c 45		 jl	 SHORT $LN4@save_bool

; 1480 :         const char bool_op = p ? NEWTRUE : NEWFALSE;

  0004e	83 7c 24 20 00	 cmp	 DWORD PTR p$[rsp], 0
  00053	74 0a		 je	 SHORT $LN9@save_bool
  00055	c7 44 24 30 88
	ff ff ff	 mov	 DWORD PTR tv69[rsp], -120 ; ffffffffffffff88H
  0005d	eb 08		 jmp	 SHORT $LN10@save_bool
$LN9@save_bool:
  0005f	c7 44 24 30 89
	ff ff ff	 mov	 DWORD PTR tv69[rsp], -119 ; ffffffffffffff89H
$LN10@save_bool:
  00067	0f b6 44 24 30	 movzx	 eax, BYTE PTR tv69[rsp]
  0006c	88 44 24 28	 mov	 BYTE PTR bool_op$21471[rsp], al

; 1481 :         if (_Pickler_Write(self, &bool_op, 1) < 0)

  00070	41 b8 01 00 00
	00		 mov	 r8d, 1
  00076	48 8d 54 24 28	 lea	 rdx, QWORD PTR bool_op$21471[rsp]
  0007b	48 8b 4c 24 50	 mov	 rcx, QWORD PTR self$[rsp]
  00080	e8 00 00 00 00	 call	 _Pickler_Write
  00085	48 85 c0	 test	 rax, rax
  00088	7d 07		 jge	 SHORT $LN3@save_bool

; 1482 :             return -1;

  0008a	b8 ff ff ff ff	 mov	 eax, -1
  0008f	eb 38		 jmp	 SHORT $LN5@save_bool
$LN3@save_bool:

; 1483 :     }
; 1484 :     else if (_Pickler_Write(self, buf[p], len[p]) < 0)

  00091	eb 34		 jmp	 SHORT $LN2@save_bool
$LN4@save_bool:
  00093	48 63 44 24 20	 movsxd	 rax, DWORD PTR p$[rsp]
  00098	48 0f be 44 04
	24		 movsx	 rax, BYTE PTR len$[rsp+rax]
  0009e	48 63 4c 24 20	 movsxd	 rcx, DWORD PTR p$[rsp]
  000a3	48 8d 15 00 00
	00 00		 lea	 rdx, OFFSET FLAT:?buf@?1??save_bool@@9@9
  000aa	4c 8b c0	 mov	 r8, rax
  000ad	48 8b 14 ca	 mov	 rdx, QWORD PTR [rdx+rcx*8]
  000b1	48 8b 4c 24 50	 mov	 rcx, QWORD PTR self$[rsp]
  000b6	e8 00 00 00 00	 call	 _Pickler_Write
  000bb	48 85 c0	 test	 rax, rax
  000be	7d 07		 jge	 SHORT $LN1@save_bool

; 1485 :         return -1;

  000c0	b8 ff ff ff ff	 mov	 eax, -1
  000c5	eb 02		 jmp	 SHORT $LN5@save_bool
$LN1@save_bool:
$LN2@save_bool:

; 1486 : 
; 1487 :     return 0;

  000c7	33 c0		 xor	 eax, eax
$LN5@save_bool:

; 1488 : }

  000c9	48 83 c4 48	 add	 rsp, 72			; 00000048H
  000cd	c3		 ret	 0
save_bool ENDP
_TEXT	ENDS
PUBLIC	??_C@_02IDNBLKMD@L?6?$AA@			; `string'
PUBLIC	??_C@_1CI@INNPDOMC@?$AAP?$AAy?$AAB?$AAy?$AAt?$AAe?$AAs?$AA_?$AAC?$AAh?$AAe?$AAc?$AAk?$AA?$CI?$AAr?$AAe?$AAp?$AAr?$AA?$CJ?$AA?$AA@ ; `string'
PUBLIC	??_C@_0BI@INABELJF@int?5too?5large?5to?5pickle?$AA@ ; `string'
EXTRN	PyUnicode_AsUTF8AndSize:PROC
EXTRN	PyObject_Repr:PROC
EXTRN	_PyLong_AsByteArray:PROC
EXTRN	PyExc_OverflowError:QWORD
EXTRN	_PyLong_NumBits:PROC
EXTRN	_PyLong_Sign:PROC
EXTRN	PyErr_Occurred:PROC
EXTRN	PyLong_AsLong:PROC
;	COMDAT pdata
pdata	SEGMENT
$pdata$save_long DD imagerel save_long
	DD	imagerel save_long+914
	DD	imagerel $unwind$save_long
pdata	ENDS
;	COMDAT xdata
xdata	SEGMENT
$unwind$save_long DD 021101H
	DD	0110111H
xdata	ENDS
;	COMDAT ??_C@_02IDNBLKMD@L?6?$AA@
CONST	SEGMENT
??_C@_02IDNBLKMD@L?6?$AA@ DB 'L', 0aH, 00H		; `string'
CONST	ENDS
;	COMDAT ??_C@_1CI@INNPDOMC@?$AAP?$AAy?$AAB?$AAy?$AAt?$AAe?$AAs?$AA_?$AAC?$AAh?$AAe?$AAc?$AAk?$AA?$CI?$AAr?$AAe?$AAp?$AAr?$AA?$CJ?$AA?$AA@
CONST	SEGMENT
??_C@_1CI@INNPDOMC@?$AAP?$AAy?$AAB?$AAy?$AAt?$AAe?$AAs?$AA_?$AAC?$AAh?$AAe?$AAc?$AAk?$AA?$CI?$AAr?$AAe?$AAp?$AAr?$AA?$CJ?$AA?$AA@ DB 'P'
	DB	00H, 'y', 00H, 'B', 00H, 'y', 00H, 't', 00H, 'e', 00H, 's', 00H
	DB	'_', 00H, 'C', 00H, 'h', 00H, 'e', 00H, 'c', 00H, 'k', 00H, '('
	DB	00H, 'r', 00H, 'e', 00H, 'p', 00H, 'r', 00H, ')', 00H, 00H, 00H ; `string'
CONST	ENDS
;	COMDAT ??_C@_0BI@INABELJF@int?5too?5large?5to?5pickle?$AA@
CONST	SEGMENT
??_C@_0BI@INABELJF@int?5too?5large?5to?5pickle?$AA@ DB 'int too large to '
	DB	'pickle', 00H				; `string'
; Function compile flags: /Odtp
CONST	ENDS
;	COMDAT save_long
_TEXT	SEGMENT
size$ = 48
val$ = 56
status$ = 60
repr$ = 64
long_op$ = 72
i$21515 = 76
pdata$21513 = 80
sign$21516 = 88
nbytes$21512 = 96
nbits$21511 = 104
header$21514 = 112
string$21549 = 120
self$ = 144
obj$ = 152
save_long PROC						; COMDAT

; 1540 : {

  00000	48 89 54 24 10	 mov	 QWORD PTR [rsp+16], rdx
  00005	48 89 4c 24 08	 mov	 QWORD PTR [rsp+8], rcx
  0000a	48 81 ec 88 00
	00 00		 sub	 rsp, 136		; 00000088H

; 1541 :     PyObject *repr = NULL;

  00011	48 c7 44 24 40
	00 00 00 00	 mov	 QWORD PTR repr$[rsp], 0

; 1542 :     Py_ssize_t size;
; 1543 :     long val = PyLong_AsLong(obj);

  0001a	48 8b 8c 24 98
	00 00 00	 mov	 rcx, QWORD PTR obj$[rsp]
  00022	e8 00 00 00 00	 call	 PyLong_AsLong
  00027	89 44 24 38	 mov	 DWORD PTR val$[rsp], eax

; 1544 :     int status = 0;

  0002b	c7 44 24 3c 00
	00 00 00	 mov	 DWORD PTR status$[rsp], 0

; 1545 : 
; 1546 :     const char long_op = LONG;

  00033	c6 44 24 48 4c	 mov	 BYTE PTR long_op$[rsp], 76 ; 0000004cH

; 1547 : 
; 1548 :     if (val == -1 && PyErr_Occurred()) {

  00038	83 7c 24 38 ff	 cmp	 DWORD PTR val$[rsp], -1
  0003d	75 11		 jne	 SHORT $LN27@save_long
  0003f	e8 00 00 00 00	 call	 PyErr_Occurred
  00044	48 85 c0	 test	 rax, rax
  00047	74 07		 je	 SHORT $LN27@save_long

; 1549 :         /* out of range for int pickling */
; 1550 :         PyErr_Clear();

  00049	e8 00 00 00 00	 call	 PyErr_Clear

; 1551 :     }
; 1552 :     else

  0004e	eb 16		 jmp	 SHORT $LN26@save_long
$LN27@save_long:

; 1553 : #if SIZEOF_LONG > 4
; 1554 :         if (val <= 0x7fffffffL && val >= -0x80000000L)
; 1555 : #endif
; 1556 :             return save_int(self, val);

  00050	8b 54 24 38	 mov	 edx, DWORD PTR val$[rsp]
  00054	48 8b 8c 24 90
	00 00 00	 mov	 rcx, QWORD PTR self$[rsp]
  0005c	e8 00 00 00 00	 call	 save_int
  00061	e9 24 03 00 00	 jmp	 $LN28@save_long
$LN26@save_long:

; 1557 : 
; 1558 :     if (self->proto >= 2) {

  00066	48 8b 84 24 90
	00 00 00	 mov	 rax, QWORD PTR self$[rsp]
  0006e	83 b8 a0 00 00
	00 02		 cmp	 DWORD PTR [rax+160], 2
  00075	0f 8c 51 02 00
	00		 jl	 $LN25@save_long

; 1559 :         /* Linear-time pickling. */
; 1560 :         size_t nbits;
; 1561 :         size_t nbytes;
; 1562 :         unsigned char *pdata;
; 1563 :         char header[5];
; 1564 :         int i;
; 1565 :         int sign = _PyLong_Sign(obj);

  0007b	48 8b 8c 24 98
	00 00 00	 mov	 rcx, QWORD PTR obj$[rsp]
  00083	e8 00 00 00 00	 call	 _PyLong_Sign
  00088	89 44 24 58	 mov	 DWORD PTR sign$21516[rsp], eax

; 1566 : 
; 1567 :         if (sign == 0) {

  0008c	83 7c 24 58 00	 cmp	 DWORD PTR sign$21516[rsp], 0
  00091	75 33		 jne	 SHORT $LN24@save_long

; 1568 :             header[0] = LONG1;

  00093	c6 44 24 70 8a	 mov	 BYTE PTR header$21514[rsp], -118 ; ffffffffffffff8aH

; 1569 :             header[1] = 0;      /* It's 0 -- an empty bytestring. */

  00098	c6 44 24 71 00	 mov	 BYTE PTR header$21514[rsp+1], 0

; 1570 :             if (_Pickler_Write(self, header, 2) < 0)

  0009d	41 b8 02 00 00
	00		 mov	 r8d, 2
  000a3	48 8d 54 24 70	 lea	 rdx, QWORD PTR header$21514[rsp]
  000a8	48 8b 8c 24 90
	00 00 00	 mov	 rcx, QWORD PTR self$[rsp]
  000b0	e8 00 00 00 00	 call	 _Pickler_Write
  000b5	48 85 c0	 test	 rax, rax
  000b8	7d 05		 jge	 SHORT $LN23@save_long

; 1571 :                 goto error;

  000ba	e9 a7 02 00 00	 jmp	 $error$21519
$LN23@save_long:

; 1572 :             return 0;

  000bf	33 c0		 xor	 eax, eax
  000c1	e9 c4 02 00 00	 jmp	 $LN28@save_long
$LN24@save_long:

; 1573 :         }
; 1574 :         nbits = _PyLong_NumBits(obj);

  000c6	48 8b 8c 24 98
	00 00 00	 mov	 rcx, QWORD PTR obj$[rsp]
  000ce	e8 00 00 00 00	 call	 _PyLong_NumBits
  000d3	48 89 44 24 68	 mov	 QWORD PTR nbits$21511[rsp], rax

; 1575 :         if (nbits == (size_t)-1 && PyErr_Occurred())

  000d8	48 83 7c 24 68
	ff		 cmp	 QWORD PTR nbits$21511[rsp], -1
  000de	75 0f		 jne	 SHORT $LN22@save_long
  000e0	e8 00 00 00 00	 call	 PyErr_Occurred
  000e5	48 85 c0	 test	 rax, rax
  000e8	74 05		 je	 SHORT $LN22@save_long

; 1576 :             goto error;

  000ea	e9 77 02 00 00	 jmp	 $error$21519
$LN22@save_long:

; 1577 :         /* How many bytes do we need?  There are nbits >> 3 full
; 1578 :          * bytes of data, and nbits & 7 leftover bits.  If there
; 1579 :          * are any leftover bits, then we clearly need another
; 1580 :          * byte.  Wnat's not so obvious is that we *probably*
; 1581 :          * need another byte even if there aren't any leftovers:
; 1582 :          * the most-significant bit of the most-significant byte
; 1583 :          * acts like a sign bit, and it's usually got a sense
; 1584 :          * opposite of the one we need.  The exception is ints
; 1585 :          * of the form -(2**(8*j-1)) for j > 0.  Such an int is
; 1586 :          * its own 256's-complement, so has the right sign bit
; 1587 :          * even without the extra byte.  That's a pain to check
; 1588 :          * for in advance, though, so we always grab an extra
; 1589 :          * byte at the start, and cut it back later if possible.
; 1590 :          */
; 1591 :         nbytes = (nbits >> 3) + 1;

  000ef	48 8b 44 24 68	 mov	 rax, QWORD PTR nbits$21511[rsp]
  000f4	48 c1 e8 03	 shr	 rax, 3
  000f8	48 ff c0	 inc	 rax
  000fb	48 89 44 24 60	 mov	 QWORD PTR nbytes$21512[rsp], rax

; 1592 :         if (nbytes > 0x7fffffffL) {

  00100	48 81 7c 24 60
	ff ff ff 7f	 cmp	 QWORD PTR nbytes$21512[rsp], 2147483647 ; 7fffffffH
  00109	76 18		 jbe	 SHORT $LN21@save_long

; 1593 :             PyErr_SetString(PyExc_OverflowError,
; 1594 :                             "int too large to pickle");

  0010b	48 8d 15 00 00
	00 00		 lea	 rdx, OFFSET FLAT:??_C@_0BI@INABELJF@int?5too?5large?5to?5pickle?$AA@
  00112	48 8b 0d 00 00
	00 00		 mov	 rcx, QWORD PTR PyExc_OverflowError
  00119	e8 00 00 00 00	 call	 PyErr_SetString

; 1595 :             goto error;

  0011e	e9 43 02 00 00	 jmp	 $error$21519
$LN21@save_long:

; 1596 :         }
; 1597 :         repr = PyBytes_FromStringAndSize(NULL, (Py_ssize_t)nbytes);

  00123	48 8b 54 24 60	 mov	 rdx, QWORD PTR nbytes$21512[rsp]
  00128	33 c9		 xor	 ecx, ecx
  0012a	e8 00 00 00 00	 call	 PyBytes_FromStringAndSize
  0012f	48 89 44 24 40	 mov	 QWORD PTR repr$[rsp], rax

; 1598 :         if (repr == NULL)

  00134	48 83 7c 24 40
	00		 cmp	 QWORD PTR repr$[rsp], 0
  0013a	75 05		 jne	 SHORT $LN20@save_long

; 1599 :             goto error;

  0013c	e9 25 02 00 00	 jmp	 $error$21519
$LN20@save_long:

; 1600 :         pdata = (unsigned char *)PyBytes_AS_STRING(repr);

  00141	48 8b 44 24 40	 mov	 rax, QWORD PTR repr$[rsp]
  00146	48 8b 40 58	 mov	 rax, QWORD PTR [rax+88]
  0014a	8b 80 00 01 00
	00		 mov	 eax, DWORD PTR [rax+256]
  00150	25 00 00 00 08	 and	 eax, 134217728		; 08000000H
  00155	85 c0		 test	 eax, eax
  00157	75 1c		 jne	 SHORT $LN30@save_long
  00159	41 b8 40 06 00
	00		 mov	 r8d, 1600		; 00000640H
  0015f	48 8d 15 00 00
	00 00		 lea	 rdx, OFFSET FLAT:??_C@_1CK@DHJKOIMG@?$AA?4?$AA?4?$AA?2?$AAM?$AAo?$AAd?$AAu?$AAl?$AAe?$AAs?$AA?2?$AA_?$AAp?$AAi?$AAc?$AAk?$AAl?$AAe?$AA?4?$AAc?$AA?$AA@
  00166	48 8d 0d 00 00
	00 00		 lea	 rcx, OFFSET FLAT:??_C@_1CI@INNPDOMC@?$AAP?$AAy?$AAB?$AAy?$AAt?$AAe?$AAs?$AA_?$AAC?$AAh?$AAe?$AAc?$AAk?$AA?$CI?$AAr?$AAe?$AAp?$AAr?$AA?$CJ?$AA?$AA@
  0016d	ff 15 00 00 00
	00		 call	 QWORD PTR __imp__wassert
  00173	33 c0		 xor	 eax, eax
$LN30@save_long:
  00175	48 8b 44 24 40	 mov	 rax, QWORD PTR repr$[rsp]
  0017a	48 83 c0 78	 add	 rax, 120		; 00000078H
  0017e	48 89 44 24 50	 mov	 QWORD PTR pdata$21513[rsp], rax

; 1601 :         i = _PyLong_AsByteArray((PyLongObject *)obj,
; 1602 :                                 pdata, nbytes,
; 1603 :                                 1 /* little endian */ , 1 /* signed */ );

  00183	c7 44 24 20 01
	00 00 00	 mov	 DWORD PTR [rsp+32], 1
  0018b	41 b9 01 00 00
	00		 mov	 r9d, 1
  00191	4c 8b 44 24 60	 mov	 r8, QWORD PTR nbytes$21512[rsp]
  00196	48 8b 54 24 50	 mov	 rdx, QWORD PTR pdata$21513[rsp]
  0019b	48 8b 8c 24 98
	00 00 00	 mov	 rcx, QWORD PTR obj$[rsp]
  001a3	e8 00 00 00 00	 call	 _PyLong_AsByteArray
  001a8	89 44 24 4c	 mov	 DWORD PTR i$21515[rsp], eax

; 1604 :         if (i < 0)

  001ac	83 7c 24 4c 00	 cmp	 DWORD PTR i$21515[rsp], 0
  001b1	7d 05		 jge	 SHORT $LN19@save_long

; 1605 :             goto error;

  001b3	e9 ae 01 00 00	 jmp	 $error$21519
$LN19@save_long:

; 1606 :         /* If the int is negative, this may be a byte more than
; 1607 :          * needed.  This is so iff the MSB is all redundant sign
; 1608 :          * bits.
; 1609 :          */
; 1610 :         if (sign < 0 &&
; 1611 :             nbytes > 1 &&
; 1612 :             pdata[nbytes - 1] == 0xff &&
; 1613 :             (pdata[nbytes - 2] & 0x80) != 0) {

  001b8	83 7c 24 58 00	 cmp	 DWORD PTR sign$21516[rsp], 0
  001bd	7d 4d		 jge	 SHORT $LN18@save_long
  001bf	48 83 7c 24 60
	01		 cmp	 QWORD PTR nbytes$21512[rsp], 1
  001c5	76 45		 jbe	 SHORT $LN18@save_long
  001c7	48 8b 44 24 60	 mov	 rax, QWORD PTR nbytes$21512[rsp]
  001cc	48 8b 4c 24 50	 mov	 rcx, QWORD PTR pdata$21513[rsp]
  001d1	48 03 c8	 add	 rcx, rax
  001d4	48 8b c1	 mov	 rax, rcx
  001d7	0f b6 40 ff	 movzx	 eax, BYTE PTR [rax-1]
  001db	3d ff 00 00 00	 cmp	 eax, 255		; 000000ffH
  001e0	75 2a		 jne	 SHORT $LN18@save_long
  001e2	48 8b 44 24 60	 mov	 rax, QWORD PTR nbytes$21512[rsp]
  001e7	48 8b 4c 24 50	 mov	 rcx, QWORD PTR pdata$21513[rsp]
  001ec	48 03 c8	 add	 rcx, rax
  001ef	48 8b c1	 mov	 rax, rcx
  001f2	0f b6 40 fe	 movzx	 eax, BYTE PTR [rax-2]
  001f6	25 80 00 00 00	 and	 eax, 128		; 00000080H
  001fb	85 c0		 test	 eax, eax
  001fd	74 0d		 je	 SHORT $LN18@save_long

; 1614 :             nbytes--;

  001ff	48 8b 44 24 60	 mov	 rax, QWORD PTR nbytes$21512[rsp]
  00204	48 ff c8	 dec	 rax
  00207	48 89 44 24 60	 mov	 QWORD PTR nbytes$21512[rsp], rax
$LN18@save_long:

; 1615 :         }
; 1616 : 
; 1617 :         if (nbytes < 256) {

  0020c	48 81 7c 24 60
	00 01 00 00	 cmp	 QWORD PTR nbytes$21512[rsp], 256 ; 00000100H
  00215	73 19		 jae	 SHORT $LN17@save_long

; 1618 :             header[0] = LONG1;

  00217	c6 44 24 70 8a	 mov	 BYTE PTR header$21514[rsp], -118 ; ffffffffffffff8aH

; 1619 :             header[1] = (unsigned char)nbytes;

  0021c	0f b6 44 24 60	 movzx	 eax, BYTE PTR nbytes$21512[rsp]
  00221	88 44 24 71	 mov	 BYTE PTR header$21514[rsp+1], al

; 1620 :             size = 2;

  00225	48 c7 44 24 30
	02 00 00 00	 mov	 QWORD PTR size$[rsp], 2

; 1621 :         }
; 1622 :         else {

  0022e	eb 57		 jmp	 SHORT $LN16@save_long
$LN17@save_long:

; 1623 :             header[0] = LONG4;

  00230	c6 44 24 70 8b	 mov	 BYTE PTR header$21514[rsp], -117 ; ffffffffffffff8bH

; 1624 :             size = (Py_ssize_t) nbytes;

  00235	48 8b 44 24 60	 mov	 rax, QWORD PTR nbytes$21512[rsp]
  0023a	48 89 44 24 30	 mov	 QWORD PTR size$[rsp], rax

; 1625 :             for (i = 1; i < 5; i++) {

  0023f	c7 44 24 4c 01
	00 00 00	 mov	 DWORD PTR i$21515[rsp], 1
  00247	eb 0a		 jmp	 SHORT $LN15@save_long
$LN14@save_long:
  00249	8b 44 24 4c	 mov	 eax, DWORD PTR i$21515[rsp]
  0024d	ff c0		 inc	 eax
  0024f	89 44 24 4c	 mov	 DWORD PTR i$21515[rsp], eax
$LN15@save_long:
  00253	83 7c 24 4c 05	 cmp	 DWORD PTR i$21515[rsp], 5
  00258	7d 24		 jge	 SHORT $LN13@save_long

; 1626 :                 header[i] = (unsigned char)(size & 0xff);

  0025a	48 8b 44 24 30	 mov	 rax, QWORD PTR size$[rsp]
  0025f	48 25 ff 00 00
	00		 and	 rax, 255		; 000000ffH
  00265	48 63 4c 24 4c	 movsxd	 rcx, DWORD PTR i$21515[rsp]
  0026a	88 44 0c 70	 mov	 BYTE PTR header$21514[rsp+rcx], al

; 1627 :                 size >>= 8;

  0026e	48 8b 44 24 30	 mov	 rax, QWORD PTR size$[rsp]
  00273	48 c1 f8 08	 sar	 rax, 8
  00277	48 89 44 24 30	 mov	 QWORD PTR size$[rsp], rax

; 1628 :             }

  0027c	eb cb		 jmp	 SHORT $LN14@save_long
$LN13@save_long:

; 1629 :             size = 5;

  0027e	48 c7 44 24 30
	05 00 00 00	 mov	 QWORD PTR size$[rsp], 5
$LN16@save_long:

; 1630 :         }
; 1631 :         if (_Pickler_Write(self, header, size) < 0 ||
; 1632 :             _Pickler_Write(self, (char *)pdata, (int)nbytes) < 0)

  00287	4c 8b 44 24 30	 mov	 r8, QWORD PTR size$[rsp]
  0028c	48 8d 54 24 70	 lea	 rdx, QWORD PTR header$21514[rsp]
  00291	48 8b 8c 24 90
	00 00 00	 mov	 rcx, QWORD PTR self$[rsp]
  00299	e8 00 00 00 00	 call	 _Pickler_Write
  0029e	48 85 c0	 test	 rax, rax
  002a1	7c 1f		 jl	 SHORT $LN11@save_long
  002a3	48 63 44 24 60	 movsxd	 rax, DWORD PTR nbytes$21512[rsp]
  002a8	4c 8b c0	 mov	 r8, rax
  002ab	48 8b 54 24 50	 mov	 rdx, QWORD PTR pdata$21513[rsp]
  002b0	48 8b 8c 24 90
	00 00 00	 mov	 rcx, QWORD PTR self$[rsp]
  002b8	e8 00 00 00 00	 call	 _Pickler_Write
  002bd	48 85 c0	 test	 rax, rax
  002c0	7d 05		 jge	 SHORT $LN12@save_long
$LN11@save_long:

; 1633 :             goto error;

  002c2	e9 9f 00 00 00	 jmp	 $error$21519
$LN12@save_long:

; 1634 :     }
; 1635 :     else {

  002c7	e9 94 00 00 00	 jmp	 $LN10@save_long
$LN25@save_long:

; 1636 :         char *string;
; 1637 : 
; 1638 :         /* proto < 2: write the repr and newline.  This is quadratic-time (in
; 1639 :            the number of digits), in both directions.  We add a trailing 'L'
; 1640 :            to the repr, for compatibility with Python 2.x. */
; 1641 : 
; 1642 :         repr = PyObject_Repr(obj);

  002cc	48 8b 8c 24 98
	00 00 00	 mov	 rcx, QWORD PTR obj$[rsp]
  002d4	e8 00 00 00 00	 call	 PyObject_Repr
  002d9	48 89 44 24 40	 mov	 QWORD PTR repr$[rsp], rax

; 1643 :         if (repr == NULL)

  002de	48 83 7c 24 40
	00		 cmp	 QWORD PTR repr$[rsp], 0
  002e4	75 02		 jne	 SHORT $LN9@save_long

; 1644 :             goto error;

  002e6	eb 7e		 jmp	 SHORT $error$21519
$LN9@save_long:

; 1645 : 
; 1646 :         string = _PyUnicode_AsStringAndSize(repr, &size);

  002e8	48 8d 54 24 30	 lea	 rdx, QWORD PTR size$[rsp]
  002ed	48 8b 4c 24 40	 mov	 rcx, QWORD PTR repr$[rsp]
  002f2	e8 00 00 00 00	 call	 PyUnicode_AsUTF8AndSize
  002f7	48 89 44 24 78	 mov	 QWORD PTR string$21549[rsp], rax

; 1647 :         if (string == NULL)

  002fc	48 83 7c 24 78
	00		 cmp	 QWORD PTR string$21549[rsp], 0
  00302	75 02		 jne	 SHORT $LN8@save_long

; 1648 :             goto error;

  00304	eb 60		 jmp	 SHORT $error$21519
$LN8@save_long:

; 1649 : 
; 1650 :         if (_Pickler_Write(self, &long_op, 1) < 0 ||
; 1651 :             _Pickler_Write(self, string, size) < 0 ||
; 1652 :             _Pickler_Write(self, "L\n", 2) < 0)

  00306	41 b8 01 00 00
	00		 mov	 r8d, 1
  0030c	48 8d 54 24 48	 lea	 rdx, QWORD PTR long_op$[rsp]
  00311	48 8b 8c 24 90
	00 00 00	 mov	 rcx, QWORD PTR self$[rsp]
  00319	e8 00 00 00 00	 call	 _Pickler_Write
  0031e	48 85 c0	 test	 rax, rax
  00321	7c 3b		 jl	 SHORT $LN6@save_long
  00323	4c 8b 44 24 30	 mov	 r8, QWORD PTR size$[rsp]
  00328	48 8b 54 24 78	 mov	 rdx, QWORD PTR string$21549[rsp]
  0032d	48 8b 8c 24 90
	00 00 00	 mov	 rcx, QWORD PTR self$[rsp]
  00335	e8 00 00 00 00	 call	 _Pickler_Write
  0033a	48 85 c0	 test	 rax, rax
  0033d	7c 1f		 jl	 SHORT $LN6@save_long
  0033f	41 b8 02 00 00
	00		 mov	 r8d, 2
  00345	48 8d 15 00 00
	00 00		 lea	 rdx, OFFSET FLAT:??_C@_02IDNBLKMD@L?6?$AA@
  0034c	48 8b 8c 24 90
	00 00 00	 mov	 rcx, QWORD PTR self$[rsp]
  00354	e8 00 00 00 00	 call	 _Pickler_Write
  00359	48 85 c0	 test	 rax, rax
  0035c	7d 02		 jge	 SHORT $LN7@save_long
$LN6@save_long:

; 1653 :             goto error;

  0035e	eb 06		 jmp	 SHORT $error$21519
$LN7@save_long:
$LN10@save_long:

; 1654 :     }
; 1655 : 
; 1656 :     if (0) {

  00360	33 c0		 xor	 eax, eax
  00362	85 c0		 test	 eax, eax
  00364	74 08		 je	 SHORT $LN5@save_long
$error$21519:

; 1657 :   error:
; 1658 :       status = -1;

  00366	c7 44 24 3c ff
	ff ff ff	 mov	 DWORD PTR status$[rsp], -1
$LN5@save_long:
$LN4@save_long:

; 1659 :     }
; 1660 :     Py_XDECREF(repr);

  0036e	48 83 7c 24 40
	00		 cmp	 QWORD PTR repr$[rsp], 0
  00374	74 0a		 je	 SHORT $LN1@save_long
  00376	48 8b 4c 24 40	 mov	 rcx, QWORD PTR repr$[rsp]
  0037b	e8 00 00 00 00	 call	 _Py_DecRef
$LN1@save_long:
  00380	33 c0		 xor	 eax, eax
  00382	85 c0		 test	 eax, eax
  00384	75 e8		 jne	 SHORT $LN4@save_long

; 1661 : 
; 1662 :     return status;

  00386	8b 44 24 3c	 mov	 eax, DWORD PTR status$[rsp]
$LN28@save_long:

; 1663 : }

  0038a	48 81 c4 88 00
	00 00		 add	 rsp, 136		; 00000088H
  00391	c3		 ret	 0
save_long ENDP
_TEXT	ENDS
PUBLIC	??_C@_05HCLFKMOP@?$CFldL?6?$AA@			; `string'
;	COMDAT pdata
pdata	SEGMENT
$pdata$save_int DD imagerel save_int
	DD	imagerel save_int+292
	DD	imagerel $unwind$save_int
pdata	ENDS
;	COMDAT xdata
xdata	SEGMENT
$unwind$save_int DD 010d01H
	DD	0a20dH
xdata	ENDS
;	COMDAT ??_C@_05HCLFKMOP@?$CFldL?6?$AA@
CONST	SEGMENT
??_C@_05HCLFKMOP@?$CFldL?6?$AA@ DB '%ldL', 0aH, 00H	; `string'
; Function compile flags: /Odtp
CONST	ENDS
;	COMDAT save_int
_TEXT	SEGMENT
pdata$ = 32
len$ = 64
self$ = 96
x$ = 104
save_int PROC						; COMDAT

; 1492 : {

  00000	89 54 24 10	 mov	 DWORD PTR [rsp+16], edx
  00004	48 89 4c 24 08	 mov	 QWORD PTR [rsp+8], rcx
  00009	48 83 ec 58	 sub	 rsp, 88			; 00000058H

; 1493 :     char pdata[32];
; 1494 :     Py_ssize_t len = 0;

  0000d	48 c7 44 24 40
	00 00 00 00	 mov	 QWORD PTR len$[rsp], 0

; 1495 : 
; 1496 :     if (!self->bin
; 1497 : #if SIZEOF_LONG > 4
; 1498 :         || x > 0x7fffffffL || x < -0x80000000L
; 1499 : #endif
; 1500 :         ) {

  00016	48 8b 44 24 60	 mov	 rax, QWORD PTR self$[rsp]
  0001b	83 b8 a4 00 00
	00 00		 cmp	 DWORD PTR [rax+164], 0
  00022	75 53		 jne	 SHORT $LN8@save_int

; 1501 :         /* Text-mode pickle, or long too big to fit in the 4-byte
; 1502 :          * signed BININT format:  store as a string.
; 1503 :          */
; 1504 :         pdata[0] = LONG;        /* use LONG for consistency with pickle.py */

  00024	c6 44 24 20 4c	 mov	 BYTE PTR pdata$[rsp], 76 ; 0000004cH

; 1505 :         PyOS_snprintf(pdata + 1, sizeof(pdata) - 1, "%ldL\n", x);

  00029	48 8d 44 24 21	 lea	 rax, QWORD PTR pdata$[rsp+1]
  0002e	44 8b 4c 24 68	 mov	 r9d, DWORD PTR x$[rsp]
  00033	4c 8d 05 00 00
	00 00		 lea	 r8, OFFSET FLAT:??_C@_05HCLFKMOP@?$CFldL?6?$AA@
  0003a	ba 1f 00 00 00	 mov	 edx, 31
  0003f	48 8b c8	 mov	 rcx, rax
  00042	e8 00 00 00 00	 call	 PyOS_snprintf

; 1506 :         if (_Pickler_Write(self, pdata, strlen(pdata)) < 0)

  00047	48 8d 4c 24 20	 lea	 rcx, QWORD PTR pdata$[rsp]
  0004c	e8 00 00 00 00	 call	 strlen
  00051	4c 8b c0	 mov	 r8, rax
  00054	48 8d 54 24 20	 lea	 rdx, QWORD PTR pdata$[rsp]
  00059	48 8b 4c 24 60	 mov	 rcx, QWORD PTR self$[rsp]
  0005e	e8 00 00 00 00	 call	 _Pickler_Write
  00063	48 85 c0	 test	 rax, rax
  00066	7d 0a		 jge	 SHORT $LN7@save_int

; 1507 :             return -1;

  00068	b8 ff ff ff ff	 mov	 eax, -1
  0006d	e9 ad 00 00 00	 jmp	 $LN9@save_int
$LN7@save_int:

; 1508 :     }
; 1509 :     else {

  00072	e9 a6 00 00 00	 jmp	 $LN6@save_int
$LN8@save_int:

; 1510 :         /* Binary pickle and x fits in a signed 4-byte int. */
; 1511 :         pdata[1] = (unsigned char)(x & 0xff);

  00077	8b 44 24 68	 mov	 eax, DWORD PTR x$[rsp]
  0007b	25 ff 00 00 00	 and	 eax, 255		; 000000ffH
  00080	88 44 24 21	 mov	 BYTE PTR pdata$[rsp+1], al

; 1512 :         pdata[2] = (unsigned char)((x >> 8) & 0xff);

  00084	8b 44 24 68	 mov	 eax, DWORD PTR x$[rsp]
  00088	c1 f8 08	 sar	 eax, 8
  0008b	25 ff 00 00 00	 and	 eax, 255		; 000000ffH
  00090	88 44 24 22	 mov	 BYTE PTR pdata$[rsp+2], al

; 1513 :         pdata[3] = (unsigned char)((x >> 16) & 0xff);

  00094	8b 44 24 68	 mov	 eax, DWORD PTR x$[rsp]
  00098	c1 f8 10	 sar	 eax, 16
  0009b	25 ff 00 00 00	 and	 eax, 255		; 000000ffH
  000a0	88 44 24 23	 mov	 BYTE PTR pdata$[rsp+3], al

; 1514 :         pdata[4] = (unsigned char)((x >> 24) & 0xff);

  000a4	8b 44 24 68	 mov	 eax, DWORD PTR x$[rsp]
  000a8	c1 f8 18	 sar	 eax, 24
  000ab	25 ff 00 00 00	 and	 eax, 255		; 000000ffH
  000b0	88 44 24 24	 mov	 BYTE PTR pdata$[rsp+4], al

; 1515 : 
; 1516 :         if ((pdata[4] == 0) && (pdata[3] == 0)) {

  000b4	0f be 44 24 24	 movsx	 eax, BYTE PTR pdata$[rsp+4]
  000b9	85 c0		 test	 eax, eax
  000bb	75 32		 jne	 SHORT $LN5@save_int
  000bd	0f be 44 24 23	 movsx	 eax, BYTE PTR pdata$[rsp+3]
  000c2	85 c0		 test	 eax, eax
  000c4	75 29		 jne	 SHORT $LN5@save_int

; 1517 :             if (pdata[2] == 0) {

  000c6	0f be 44 24 22	 movsx	 eax, BYTE PTR pdata$[rsp+2]
  000cb	85 c0		 test	 eax, eax
  000cd	75 10		 jne	 SHORT $LN4@save_int

; 1518 :                 pdata[0] = BININT1;

  000cf	c6 44 24 20 4b	 mov	 BYTE PTR pdata$[rsp], 75 ; 0000004bH

; 1519 :                 len = 2;

  000d4	48 c7 44 24 40
	02 00 00 00	 mov	 QWORD PTR len$[rsp], 2

; 1520 :             }
; 1521 :             else {

  000dd	eb 0e		 jmp	 SHORT $LN3@save_int
$LN4@save_int:

; 1522 :                 pdata[0] = BININT2;

  000df	c6 44 24 20 4d	 mov	 BYTE PTR pdata$[rsp], 77 ; 0000004dH

; 1523 :                 len = 3;

  000e4	48 c7 44 24 40
	03 00 00 00	 mov	 QWORD PTR len$[rsp], 3
$LN3@save_int:

; 1524 :             }
; 1525 :         }
; 1526 :         else {

  000ed	eb 0e		 jmp	 SHORT $LN2@save_int
$LN5@save_int:

; 1527 :             pdata[0] = BININT;

  000ef	c6 44 24 20 4a	 mov	 BYTE PTR pdata$[rsp], 74 ; 0000004aH

; 1528 :             len = 5;

  000f4	48 c7 44 24 40
	05 00 00 00	 mov	 QWORD PTR len$[rsp], 5
$LN2@save_int:

; 1529 :         }
; 1530 : 
; 1531 :         if (_Pickler_Write(self, pdata, len) < 0)

  000fd	4c 8b 44 24 40	 mov	 r8, QWORD PTR len$[rsp]
  00102	48 8d 54 24 20	 lea	 rdx, QWORD PTR pdata$[rsp]
  00107	48 8b 4c 24 60	 mov	 rcx, QWORD PTR self$[rsp]
  0010c	e8 00 00 00 00	 call	 _Pickler_Write
  00111	48 85 c0	 test	 rax, rax
  00114	7d 07		 jge	 SHORT $LN1@save_int

; 1532 :             return -1;

  00116	b8 ff ff ff ff	 mov	 eax, -1
  0011b	eb 02		 jmp	 SHORT $LN9@save_int
$LN1@save_int:
$LN6@save_int:

; 1533 :     }
; 1534 : 
; 1535 :     return 0;

  0011d	33 c0		 xor	 eax, eax
$LN9@save_int:

; 1536 : }

  0011f	48 83 c4 58	 add	 rsp, 88			; 00000058H
  00123	c3		 ret	 0
save_int ENDP
_TEXT	ENDS
PUBLIC	??_C@_01EEMJAFIK@?6?$AA@			; `string'
EXTRN	PyMem_Free:PROC
EXTRN	PyOS_double_to_string:PROC
EXTRN	_PyFloat_Pack8:PROC
EXTRN	_fltused:DWORD
;	COMDAT pdata
pdata	SEGMENT
$pdata$save_float DD imagerel save_float
	DD	imagerel save_float+323
	DD	imagerel $unwind$save_float
pdata	ENDS
;	COMDAT xdata
xdata	SEGMENT
$unwind$save_float DD 010e01H
	DD	0c20eH
xdata	ENDS
;	COMDAT ??_C@_01EEMJAFIK@?6?$AA@
CONST	SEGMENT
??_C@_01EEMJAFIK@?6?$AA@ DB 0aH, 00H			; `string'
; Function compile flags: /Odtp
CONST	ENDS
;	COMDAT save_float
_TEXT	SEGMENT
x$ = 48
pdata$21573 = 56
buf$21579 = 72
result$21578 = 80
op$21581 = 84
self$ = 112
obj$ = 120
save_float PROC						; COMDAT

; 1667 : {

  00000	48 89 54 24 10	 mov	 QWORD PTR [rsp+16], rdx
  00005	48 89 4c 24 08	 mov	 QWORD PTR [rsp+8], rcx
  0000a	48 83 ec 68	 sub	 rsp, 104		; 00000068H

; 1668 :     double x = PyFloat_AS_DOUBLE((PyFloatObject *)obj);

  0000e	48 8b 44 24 78	 mov	 rax, QWORD PTR obj$[rsp]
  00013	f2 0f 10 40 60	 movsdx	 xmm0, QWORD PTR [rax+96]
  00018	f2 0f 11 44 24
	30		 movsdx	 QWORD PTR x$[rsp], xmm0

; 1669 : 
; 1670 :     if (self->bin) {

  0001e	48 8b 44 24 70	 mov	 rax, QWORD PTR self$[rsp]
  00023	83 b8 a4 00 00
	00 00		 cmp	 DWORD PTR [rax+164], 0
  0002a	74 52		 je	 SHORT $LN8@save_float

; 1671 :         char pdata[9];
; 1672 :         pdata[0] = BINFLOAT;

  0002c	c6 44 24 38 47	 mov	 BYTE PTR pdata$21573[rsp], 71 ; 00000047H

; 1673 :         if (_PyFloat_Pack8(x, (unsigned char *)&pdata[1], 0) < 0)

  00031	48 8d 44 24 39	 lea	 rax, QWORD PTR pdata$21573[rsp+1]
  00036	45 33 c0	 xor	 r8d, r8d
  00039	48 8b d0	 mov	 rdx, rax
  0003c	f2 0f 10 44 24
	30		 movsdx	 xmm0, QWORD PTR x$[rsp]
  00042	e8 00 00 00 00	 call	 _PyFloat_Pack8
  00047	85 c0		 test	 eax, eax
  00049	7d 0a		 jge	 SHORT $LN7@save_float

; 1674 :             return -1;

  0004b	b8 ff ff ff ff	 mov	 eax, -1
  00050	e9 e9 00 00 00	 jmp	 $LN9@save_float
$LN7@save_float:

; 1675 :         if (_Pickler_Write(self, pdata, 9) < 0)

  00055	41 b8 09 00 00
	00		 mov	 r8d, 9
  0005b	48 8d 54 24 38	 lea	 rdx, QWORD PTR pdata$21573[rsp]
  00060	48 8b 4c 24 70	 mov	 rcx, QWORD PTR self$[rsp]
  00065	e8 00 00 00 00	 call	 _Pickler_Write
  0006a	48 85 c0	 test	 rax, rax
  0006d	7d 0a		 jge	 SHORT $LN6@save_float

; 1676 :             return -1;

  0006f	b8 ff ff ff ff	 mov	 eax, -1
  00074	e9 c5 00 00 00	 jmp	 $LN9@save_float
$LN6@save_float:

; 1677 :    }
; 1678 :     else {

  00079	e9 be 00 00 00	 jmp	 $LN5@save_float
$LN8@save_float:

; 1679 :         int result = -1;

  0007e	c7 44 24 50 ff
	ff ff ff	 mov	 DWORD PTR result$21578[rsp], -1

; 1680 :         char *buf = NULL;

  00086	48 c7 44 24 48
	00 00 00 00	 mov	 QWORD PTR buf$21579[rsp], 0

; 1681 :         char op = FLOAT;

  0008f	c6 44 24 54 46	 mov	 BYTE PTR op$21581[rsp], 70 ; 00000046H

; 1682 : 
; 1683 :         if (_Pickler_Write(self, &op, 1) < 0)

  00094	41 b8 01 00 00
	00		 mov	 r8d, 1
  0009a	48 8d 54 24 54	 lea	 rdx, QWORD PTR op$21581[rsp]
  0009f	48 8b 4c 24 70	 mov	 rcx, QWORD PTR self$[rsp]
  000a4	e8 00 00 00 00	 call	 _Pickler_Write
  000a9	48 85 c0	 test	 rax, rax
  000ac	7d 02		 jge	 SHORT $LN4@save_float

; 1684 :             goto done;

  000ae	eb 7c		 jmp	 SHORT $done$21583
$LN4@save_float:

; 1685 : 
; 1686 :         buf = PyOS_double_to_string(x, 'g', 17, 0, NULL);

  000b0	48 c7 44 24 20
	00 00 00 00	 mov	 QWORD PTR [rsp+32], 0
  000b9	45 33 c9	 xor	 r9d, r9d
  000bc	41 b8 11 00 00
	00		 mov	 r8d, 17
  000c2	b2 67		 mov	 dl, 103			; 00000067H
  000c4	f2 0f 10 44 24
	30		 movsdx	 xmm0, QWORD PTR x$[rsp]
  000ca	e8 00 00 00 00	 call	 PyOS_double_to_string
  000cf	48 89 44 24 48	 mov	 QWORD PTR buf$21579[rsp], rax

; 1687 :         if (!buf) {

  000d4	48 83 7c 24 48
	00		 cmp	 QWORD PTR buf$21579[rsp], 0
  000da	75 07		 jne	 SHORT $LN3@save_float

; 1688 :             PyErr_NoMemory();

  000dc	e8 00 00 00 00	 call	 PyErr_NoMemory

; 1689 :             goto done;

  000e1	eb 49		 jmp	 SHORT $done$21583
$LN3@save_float:

; 1690 :         }
; 1691 : 
; 1692 :         if (_Pickler_Write(self, buf, strlen(buf)) < 0)

  000e3	48 8b 4c 24 48	 mov	 rcx, QWORD PTR buf$21579[rsp]
  000e8	e8 00 00 00 00	 call	 strlen
  000ed	4c 8b c0	 mov	 r8, rax
  000f0	48 8b 54 24 48	 mov	 rdx, QWORD PTR buf$21579[rsp]
  000f5	48 8b 4c 24 70	 mov	 rcx, QWORD PTR self$[rsp]
  000fa	e8 00 00 00 00	 call	 _Pickler_Write
  000ff	48 85 c0	 test	 rax, rax
  00102	7d 02		 jge	 SHORT $LN2@save_float

; 1693 :             goto done;

  00104	eb 26		 jmp	 SHORT $done$21583
$LN2@save_float:

; 1694 : 
; 1695 :         if (_Pickler_Write(self, "\n", 1) < 0)

  00106	41 b8 01 00 00
	00		 mov	 r8d, 1
  0010c	48 8d 15 00 00
	00 00		 lea	 rdx, OFFSET FLAT:??_C@_01EEMJAFIK@?6?$AA@
  00113	48 8b 4c 24 70	 mov	 rcx, QWORD PTR self$[rsp]
  00118	e8 00 00 00 00	 call	 _Pickler_Write
  0011d	48 85 c0	 test	 rax, rax
  00120	7d 02		 jge	 SHORT $LN1@save_float

; 1696 :             goto done;

  00122	eb 08		 jmp	 SHORT $done$21583
$LN1@save_float:

; 1697 : 
; 1698 :         result = 0;

  00124	c7 44 24 50 00
	00 00 00	 mov	 DWORD PTR result$21578[rsp], 0
$done$21583:

; 1699 : done:
; 1700 :         PyMem_Free(buf);

  0012c	48 8b 4c 24 48	 mov	 rcx, QWORD PTR buf$21579[rsp]
  00131	e8 00 00 00 00	 call	 PyMem_Free

; 1701 :         return result;

  00136	8b 44 24 50	 mov	 eax, DWORD PTR result$21578[rsp]
  0013a	eb 02		 jmp	 SHORT $LN9@save_float
$LN5@save_float:

; 1702 :     }
; 1703 : 
; 1704 :     return 0;

  0013c	33 c0		 xor	 eax, eax
$LN9@save_float:

; 1705 : }

  0013e	48 83 c4 68	 add	 rsp, 104		; 00000068H
  00142	c3		 ret	 0
save_float ENDP
_TEXT	ENDS
PUBLIC	??_C@_0DC@CDNPLJMA@cannot?5serialize?5a?5bytes?5object?5@ ; `string'
PUBLIC	??_C@_07IDPMLOMJ@?$CIO?$CIOO?$CJ?$CJ?$AA@	; `string'
PUBLIC	??_C@_06CDEFMFPB@latin1?$AA@			; `string'
PUBLIC	??_C@_06OLFOGHEN@strict?$AA@			; `string'
PUBLIC	??_C@_05GJDNHDMK@?$CIO?$CI?$CJ?$CJ?$AA@		; `string'
PUBLIC	??_C@_1CG@BMHHMEBF@?$AAP?$AAy?$AAB?$AAy?$AAt?$AAe?$AAs?$AA_?$AAC?$AAh?$AAe?$AAc?$AAk?$AA?$CI?$AAo?$AAb?$AAj?$AA?$CJ?$AA?$AA@ ; `string'
PUBLIC	??_C@_06GDGADLDP@encode?$AA@			; `string'
PUBLIC	??_C@_06PKGECIG@codecs?$AA@			; `string'
EXTRN	PyUnicode_DecodeLatin1:PROC
EXTRN	Py_BuildValue:PROC
EXTRN	PyObject_GetAttrString:PROC
EXTRN	PyImport_ImportModule:PROC
;	COMDAT pdata
pdata	SEGMENT
$pdata$save_bytes DD imagerel save_bytes
	DD	imagerel save_bytes+962
	DD	imagerel $unwind$save_bytes
pdata	ENDS
;	COMDAT xdata
xdata	SEGMENT
$unwind$save_bytes DD 010e01H
	DD	0c20eH
xdata	ENDS
;	COMDAT ??_C@_0DC@CDNPLJMA@cannot?5serialize?5a?5bytes?5object?5@
CONST	SEGMENT
??_C@_0DC@CDNPLJMA@cannot?5serialize?5a?5bytes?5object?5@ DB 'cannot seri'
	DB	'alize a bytes object larger than 4 GiB', 00H ; `string'
CONST	ENDS
;	COMDAT ??_C@_07IDPMLOMJ@?$CIO?$CIOO?$CJ?$CJ?$AA@
CONST	SEGMENT
??_C@_07IDPMLOMJ@?$CIO?$CIOO?$CJ?$CJ?$AA@ DB '(O(OO))', 00H ; `string'
CONST	ENDS
;	COMDAT ??_C@_06CDEFMFPB@latin1?$AA@
CONST	SEGMENT
??_C@_06CDEFMFPB@latin1?$AA@ DB 'latin1', 00H		; `string'
CONST	ENDS
;	COMDAT ??_C@_06OLFOGHEN@strict?$AA@
CONST	SEGMENT
??_C@_06OLFOGHEN@strict?$AA@ DB 'strict', 00H		; `string'
CONST	ENDS
;	COMDAT ??_C@_05GJDNHDMK@?$CIO?$CI?$CJ?$CJ?$AA@
CONST	SEGMENT
??_C@_05GJDNHDMK@?$CIO?$CI?$CJ?$CJ?$AA@ DB '(O())', 00H	; `string'
CONST	ENDS
;	COMDAT ??_C@_1CG@BMHHMEBF@?$AAP?$AAy?$AAB?$AAy?$AAt?$AAe?$AAs?$AA_?$AAC?$AAh?$AAe?$AAc?$AAk?$AA?$CI?$AAo?$AAb?$AAj?$AA?$CJ?$AA?$AA@
CONST	SEGMENT
??_C@_1CG@BMHHMEBF@?$AAP?$AAy?$AAB?$AAy?$AAt?$AAe?$AAs?$AA_?$AAC?$AAh?$AAe?$AAc?$AAk?$AA?$CI?$AAo?$AAb?$AAj?$AA?$CJ?$AA?$AA@ DB 'P'
	DB	00H, 'y', 00H, 'B', 00H, 'y', 00H, 't', 00H, 'e', 00H, 's', 00H
	DB	'_', 00H, 'C', 00H, 'h', 00H, 'e', 00H, 'c', 00H, 'k', 00H, '('
	DB	00H, 'o', 00H, 'b', 00H, 'j', 00H, ')', 00H, 00H, 00H ; `string'
CONST	ENDS
;	COMDAT ??_C@_06GDGADLDP@encode?$AA@
CONST	SEGMENT
??_C@_06GDGADLDP@encode?$AA@ DB 'encode', 00H		; `string'
CONST	ENDS
;	COMDAT ??_C@_06PKGECIG@codecs?$AA@
CONST	SEGMENT
??_C@_06PKGECIG@codecs?$AA@ DB 'codecs', 00H		; `string'
; Function compile flags: /Odtp
CONST	ENDS
;	COMDAT save_bytes
_TEXT	SEGMENT
reduce_value$21599 = 32
status$21601 = 40
codecs_module$21604 = 48
unicode_str$21623 = 56
len$21645 = 64
size$21643 = 72
header$21644 = 80
self$ = 112
obj$ = 120
save_bytes PROC						; COMDAT

; 1709 : {

  00000	48 89 54 24 10	 mov	 QWORD PTR [rsp+16], rdx
  00005	48 89 4c 24 08	 mov	 QWORD PTR [rsp+8], rcx
  0000a	48 83 ec 68	 sub	 rsp, 104		; 00000068H

; 1710 :     if (self->proto < 3) {

  0000e	48 8b 44 24 70	 mov	 rax, QWORD PTR self$[rsp]
  00013	83 b8 a0 00 00
	00 03		 cmp	 DWORD PTR [rax+160], 3
  0001a	0f 8d 0a 02 00
	00		 jge	 $LN19@save_bytes

; 1711 :         /* Older pickle protocols do not have an opcode for pickling bytes
; 1712 :            objects. Therefore, we need to fake the copy protocol (i.e.,
; 1713 :            the __reduce__ method) to permit bytes object unpickling.
; 1714 : 
; 1715 :            Here we use a hack to be compatible with Python 2. Since in Python
; 1716 :            2 'bytes' is just an alias for 'str' (which has different
; 1717 :            parameters than the actual bytes object), we use codecs.encode
; 1718 :            to create the appropriate 'str' object when unpickled using
; 1719 :            Python 2 *and* the appropriate 'bytes' object when unpickled
; 1720 :            using Python 3. Again this is a hack and we don't need to do this
; 1721 :            with newer protocols. */
; 1722 :         static PyObject *codecs_encode = NULL;
; 1723 :         PyObject *reduce_value = NULL;

  00020	48 c7 44 24 20
	00 00 00 00	 mov	 QWORD PTR reduce_value$21599[rsp], 0

; 1724 :         int status;
; 1725 : 
; 1726 :         if (codecs_encode == NULL) {

  00029	48 83 3d 00 00
	00 00 00	 cmp	 QWORD PTR ?codecs_encode@?2??save_bytes@@9@9, 0
  00031	75 59		 jne	 SHORT $LN18@save_bytes

; 1727 :             PyObject *codecs_module = PyImport_ImportModule("codecs");

  00033	48 8d 0d 00 00
	00 00		 lea	 rcx, OFFSET FLAT:??_C@_06PKGECIG@codecs?$AA@
  0003a	e8 00 00 00 00	 call	 PyImport_ImportModule
  0003f	48 89 44 24 30	 mov	 QWORD PTR codecs_module$21604[rsp], rax

; 1728 :             if (codecs_module == NULL) {

  00044	48 83 7c 24 30
	00		 cmp	 QWORD PTR codecs_module$21604[rsp], 0
  0004a	75 0a		 jne	 SHORT $LN17@save_bytes

; 1729 :                 return -1;

  0004c	b8 ff ff ff ff	 mov	 eax, -1
  00051	e9 67 03 00 00	 jmp	 $LN20@save_bytes
$LN17@save_bytes:

; 1730 :             }
; 1731 :             codecs_encode = PyObject_GetAttrString(codecs_module, "encode");

  00056	48 8d 15 00 00
	00 00		 lea	 rdx, OFFSET FLAT:??_C@_06GDGADLDP@encode?$AA@
  0005d	48 8b 4c 24 30	 mov	 rcx, QWORD PTR codecs_module$21604[rsp]
  00062	e8 00 00 00 00	 call	 PyObject_GetAttrString
  00067	48 89 05 00 00
	00 00		 mov	 QWORD PTR ?codecs_encode@?2??save_bytes@@9@9, rax

; 1732 :             Py_DECREF(codecs_module);

  0006e	48 8b 4c 24 30	 mov	 rcx, QWORD PTR codecs_module$21604[rsp]
  00073	e8 00 00 00 00	 call	 _Py_DecRef

; 1733 :             if (codecs_encode == NULL) {

  00078	48 83 3d 00 00
	00 00 00	 cmp	 QWORD PTR ?codecs_encode@?2??save_bytes@@9@9, 0
  00080	75 0a		 jne	 SHORT $LN16@save_bytes

; 1734 :                 return -1;

  00082	b8 ff ff ff ff	 mov	 eax, -1
  00087	e9 31 03 00 00	 jmp	 $LN20@save_bytes
$LN16@save_bytes:
$LN18@save_bytes:

; 1735 :             }
; 1736 :         }
; 1737 : 
; 1738 :         if (PyBytes_GET_SIZE(obj) == 0) {

  0008c	48 8b 44 24 78	 mov	 rax, QWORD PTR obj$[rsp]
  00091	48 8b 40 58	 mov	 rax, QWORD PTR [rax+88]
  00095	8b 80 00 01 00
	00		 mov	 eax, DWORD PTR [rax+256]
  0009b	25 00 00 00 08	 and	 eax, 134217728		; 08000000H
  000a0	85 c0		 test	 eax, eax
  000a2	75 1c		 jne	 SHORT $LN22@save_bytes
  000a4	41 b8 ca 06 00
	00		 mov	 r8d, 1738		; 000006caH
  000aa	48 8d 15 00 00
	00 00		 lea	 rdx, OFFSET FLAT:??_C@_1CK@DHJKOIMG@?$AA?4?$AA?4?$AA?2?$AAM?$AAo?$AAd?$AAu?$AAl?$AAe?$AAs?$AA?2?$AA_?$AAp?$AAi?$AAc?$AAk?$AAl?$AAe?$AA?4?$AAc?$AA?$AA@
  000b1	48 8d 0d 00 00
	00 00		 lea	 rcx, OFFSET FLAT:??_C@_1CG@BMHHMEBF@?$AAP?$AAy?$AAB?$AAy?$AAt?$AAe?$AAs?$AA_?$AAC?$AAh?$AAe?$AAc?$AAk?$AA?$CI?$AAo?$AAb?$AAj?$AA?$CJ?$AA?$AA@
  000b8	ff 15 00 00 00
	00		 call	 QWORD PTR __imp__wassert
  000be	33 c0		 xor	 eax, eax
$LN22@save_bytes:
  000c0	48 8b 44 24 78	 mov	 rax, QWORD PTR obj$[rsp]
  000c5	48 83 78 60 00	 cmp	 QWORD PTR [rax+96], 0
  000ca	75 1d		 jne	 SHORT $LN15@save_bytes

; 1739 :             reduce_value = Py_BuildValue("(O())", (PyObject*)&PyBytes_Type);

  000cc	48 8d 15 00 00
	00 00		 lea	 rdx, OFFSET FLAT:PyBytes_Type
  000d3	48 8d 0d 00 00
	00 00		 lea	 rcx, OFFSET FLAT:??_C@_05GJDNHDMK@?$CIO?$CI?$CJ?$CJ?$AA@
  000da	e8 00 00 00 00	 call	 Py_BuildValue
  000df	48 89 44 24 20	 mov	 QWORD PTR reduce_value$21599[rsp], rax

; 1740 :         }
; 1741 :         else {

  000e4	e9 ff 00 00 00	 jmp	 $LN14@save_bytes
$LN15@save_bytes:

; 1742 :             static PyObject *latin1 = NULL;
; 1743 :             PyObject *unicode_str =
; 1744 :                 PyUnicode_DecodeLatin1(PyBytes_AS_STRING(obj),
; 1745 :                                        PyBytes_GET_SIZE(obj),
; 1746 :                                        "strict");

  000e9	48 8b 44 24 78	 mov	 rax, QWORD PTR obj$[rsp]
  000ee	48 8b 40 58	 mov	 rax, QWORD PTR [rax+88]
  000f2	8b 80 00 01 00
	00		 mov	 eax, DWORD PTR [rax+256]
  000f8	25 00 00 00 08	 and	 eax, 134217728		; 08000000H
  000fd	85 c0		 test	 eax, eax
  000ff	75 1c		 jne	 SHORT $LN23@save_bytes
  00101	41 b8 d1 06 00
	00		 mov	 r8d, 1745		; 000006d1H
  00107	48 8d 15 00 00
	00 00		 lea	 rdx, OFFSET FLAT:??_C@_1CK@DHJKOIMG@?$AA?4?$AA?4?$AA?2?$AAM?$AAo?$AAd?$AAu?$AAl?$AAe?$AAs?$AA?2?$AA_?$AAp?$AAi?$AAc?$AAk?$AAl?$AAe?$AA?4?$AAc?$AA?$AA@
  0010e	48 8d 0d 00 00
	00 00		 lea	 rcx, OFFSET FLAT:??_C@_1CG@BMHHMEBF@?$AAP?$AAy?$AAB?$AAy?$AAt?$AAe?$AAs?$AA_?$AAC?$AAh?$AAe?$AAc?$AAk?$AA?$CI?$AAo?$AAb?$AAj?$AA?$CJ?$AA?$AA@
  00115	ff 15 00 00 00
	00		 call	 QWORD PTR __imp__wassert
  0011b	33 c0		 xor	 eax, eax
$LN23@save_bytes:
  0011d	48 8b 44 24 78	 mov	 rax, QWORD PTR obj$[rsp]
  00122	48 8b 40 58	 mov	 rax, QWORD PTR [rax+88]
  00126	8b 80 00 01 00
	00		 mov	 eax, DWORD PTR [rax+256]
  0012c	25 00 00 00 08	 and	 eax, 134217728		; 08000000H
  00131	85 c0		 test	 eax, eax
  00133	75 1c		 jne	 SHORT $LN24@save_bytes
  00135	41 b8 d0 06 00
	00		 mov	 r8d, 1744		; 000006d0H
  0013b	48 8d 15 00 00
	00 00		 lea	 rdx, OFFSET FLAT:??_C@_1CK@DHJKOIMG@?$AA?4?$AA?4?$AA?2?$AAM?$AAo?$AAd?$AAu?$AAl?$AAe?$AAs?$AA?2?$AA_?$AAp?$AAi?$AAc?$AAk?$AAl?$AAe?$AA?4?$AAc?$AA?$AA@
  00142	48 8d 0d 00 00
	00 00		 lea	 rcx, OFFSET FLAT:??_C@_1CG@BMHHMEBF@?$AAP?$AAy?$AAB?$AAy?$AAt?$AAe?$AAs?$AA_?$AAC?$AAh?$AAe?$AAc?$AAk?$AA?$CI?$AAo?$AAb?$AAj?$AA?$CJ?$AA?$AA@
  00149	ff 15 00 00 00
	00		 call	 QWORD PTR __imp__wassert
  0014f	33 c0		 xor	 eax, eax
$LN24@save_bytes:
  00151	48 8b 44 24 78	 mov	 rax, QWORD PTR obj$[rsp]
  00156	48 83 c0 78	 add	 rax, 120		; 00000078H
  0015a	4c 8d 05 00 00
	00 00		 lea	 r8, OFFSET FLAT:??_C@_06OLFOGHEN@strict?$AA@
  00161	48 8b 4c 24 78	 mov	 rcx, QWORD PTR obj$[rsp]
  00166	48 8b 51 60	 mov	 rdx, QWORD PTR [rcx+96]
  0016a	48 8b c8	 mov	 rcx, rax
  0016d	e8 00 00 00 00	 call	 PyUnicode_DecodeLatin1
  00172	48 89 44 24 38	 mov	 QWORD PTR unicode_str$21623[rsp], rax

; 1747 :             if (unicode_str == NULL)

  00177	48 83 7c 24 38
	00		 cmp	 QWORD PTR unicode_str$21623[rsp], 0
  0017d	75 0a		 jne	 SHORT $LN13@save_bytes

; 1748 :                 return -1;

  0017f	b8 ff ff ff ff	 mov	 eax, -1
  00184	e9 34 02 00 00	 jmp	 $LN20@save_bytes
$LN13@save_bytes:

; 1749 :             if (latin1 == NULL) {

  00189	48 83 3d 00 00
	00 00 00	 cmp	 QWORD PTR ?latin1@?7??save_bytes@@9@9, 0
  00191	75 27		 jne	 SHORT $LN12@save_bytes

; 1750 :                 latin1 = PyUnicode_InternFromString("latin1");

  00193	48 8d 0d 00 00
	00 00		 lea	 rcx, OFFSET FLAT:??_C@_06CDEFMFPB@latin1?$AA@
  0019a	e8 00 00 00 00	 call	 PyUnicode_InternFromString
  0019f	48 89 05 00 00
	00 00		 mov	 QWORD PTR ?latin1@?7??save_bytes@@9@9, rax

; 1751 :                 if (latin1 == NULL)

  001a6	48 83 3d 00 00
	00 00 00	 cmp	 QWORD PTR ?latin1@?7??save_bytes@@9@9, 0
  001ae	75 0a		 jne	 SHORT $LN11@save_bytes

; 1752 :                     return -1;

  001b0	b8 ff ff ff ff	 mov	 eax, -1
  001b5	e9 03 02 00 00	 jmp	 $LN20@save_bytes
$LN11@save_bytes:
$LN12@save_bytes:

; 1753 :             }
; 1754 :             reduce_value = Py_BuildValue("(O(OO))",
; 1755 :                                          codecs_encode, unicode_str, latin1);

  001ba	4c 8b 0d 00 00
	00 00		 mov	 r9, QWORD PTR ?latin1@?7??save_bytes@@9@9
  001c1	4c 8b 44 24 38	 mov	 r8, QWORD PTR unicode_str$21623[rsp]
  001c6	48 8b 15 00 00
	00 00		 mov	 rdx, QWORD PTR ?codecs_encode@?2??save_bytes@@9@9
  001cd	48 8d 0d 00 00
	00 00		 lea	 rcx, OFFSET FLAT:??_C@_07IDPMLOMJ@?$CIO?$CIOO?$CJ?$CJ?$AA@
  001d4	e8 00 00 00 00	 call	 Py_BuildValue
  001d9	48 89 44 24 20	 mov	 QWORD PTR reduce_value$21599[rsp], rax

; 1756 :             Py_DECREF(unicode_str);

  001de	48 8b 4c 24 38	 mov	 rcx, QWORD PTR unicode_str$21623[rsp]
  001e3	e8 00 00 00 00	 call	 _Py_DecRef
$LN14@save_bytes:

; 1757 :         }
; 1758 : 
; 1759 :         if (reduce_value == NULL)

  001e8	48 83 7c 24 20
	00		 cmp	 QWORD PTR reduce_value$21599[rsp], 0
  001ee	75 0a		 jne	 SHORT $LN10@save_bytes

; 1760 :             return -1;

  001f0	b8 ff ff ff ff	 mov	 eax, -1
  001f5	e9 c3 01 00 00	 jmp	 $LN20@save_bytes
$LN10@save_bytes:

; 1761 : 
; 1762 :         /* save_reduce() will memoize the object automatically. */
; 1763 :         status = save_reduce(self, reduce_value, obj);

  001fa	4c 8b 44 24 78	 mov	 r8, QWORD PTR obj$[rsp]
  001ff	48 8b 54 24 20	 mov	 rdx, QWORD PTR reduce_value$21599[rsp]
  00204	48 8b 4c 24 70	 mov	 rcx, QWORD PTR self$[rsp]
  00209	e8 00 00 00 00	 call	 save_reduce
  0020e	89 44 24 28	 mov	 DWORD PTR status$21601[rsp], eax

; 1764 :         Py_DECREF(reduce_value);

  00212	48 8b 4c 24 20	 mov	 rcx, QWORD PTR reduce_value$21599[rsp]
  00217	e8 00 00 00 00	 call	 _Py_DecRef

; 1765 :         return status;

  0021c	8b 44 24 28	 mov	 eax, DWORD PTR status$21601[rsp]
  00220	e9 98 01 00 00	 jmp	 $LN20@save_bytes

; 1766 :     }
; 1767 :     else {

  00225	e9 93 01 00 00	 jmp	 $LN9@save_bytes
$LN19@save_bytes:

; 1768 :         Py_ssize_t size;
; 1769 :         char header[5];
; 1770 :         Py_ssize_t len;
; 1771 : 
; 1772 :         size = PyBytes_GET_SIZE(obj);

  0022a	48 8b 44 24 78	 mov	 rax, QWORD PTR obj$[rsp]
  0022f	48 8b 40 58	 mov	 rax, QWORD PTR [rax+88]
  00233	8b 80 00 01 00
	00		 mov	 eax, DWORD PTR [rax+256]
  00239	25 00 00 00 08	 and	 eax, 134217728		; 08000000H
  0023e	85 c0		 test	 eax, eax
  00240	75 1c		 jne	 SHORT $LN25@save_bytes
  00242	41 b8 ec 06 00
	00		 mov	 r8d, 1772		; 000006ecH
  00248	48 8d 15 00 00
	00 00		 lea	 rdx, OFFSET FLAT:??_C@_1CK@DHJKOIMG@?$AA?4?$AA?4?$AA?2?$AAM?$AAo?$AAd?$AAu?$AAl?$AAe?$AAs?$AA?2?$AA_?$AAp?$AAi?$AAc?$AAk?$AAl?$AAe?$AA?4?$AAc?$AA?$AA@
  0024f	48 8d 0d 00 00
	00 00		 lea	 rcx, OFFSET FLAT:??_C@_1CG@BMHHMEBF@?$AAP?$AAy?$AAB?$AAy?$AAt?$AAe?$AAs?$AA_?$AAC?$AAh?$AAe?$AAc?$AAk?$AA?$CI?$AAo?$AAb?$AAj?$AA?$CJ?$AA?$AA@
  00256	ff 15 00 00 00
	00		 call	 QWORD PTR __imp__wassert
  0025c	33 c0		 xor	 eax, eax
$LN25@save_bytes:
  0025e	48 8b 44 24 78	 mov	 rax, QWORD PTR obj$[rsp]
  00263	48 8b 40 60	 mov	 rax, QWORD PTR [rax+96]
  00267	48 89 44 24 48	 mov	 QWORD PTR size$21643[rsp], rax

; 1773 :         if (size < 0)

  0026c	48 83 7c 24 48
	00		 cmp	 QWORD PTR size$21643[rsp], 0
  00272	7d 0a		 jge	 SHORT $LN8@save_bytes

; 1774 :             return -1;

  00274	b8 ff ff ff ff	 mov	 eax, -1
  00279	e9 3f 01 00 00	 jmp	 $LN20@save_bytes
$LN8@save_bytes:

; 1775 : 
; 1776 :         if (size < 256) {

  0027e	48 81 7c 24 48
	00 01 00 00	 cmp	 QWORD PTR size$21643[rsp], 256 ; 00000100H
  00287	7d 1c		 jge	 SHORT $LN7@save_bytes

; 1777 :             header[0] = SHORT_BINBYTES;

  00289	c6 44 24 50 43	 mov	 BYTE PTR header$21644[rsp], 67 ; 00000043H

; 1778 :             header[1] = (unsigned char)size;

  0028e	0f b6 44 24 48	 movzx	 eax, BYTE PTR size$21643[rsp]
  00293	88 44 24 51	 mov	 BYTE PTR header$21644[rsp+1], al

; 1779 :             len = 2;

  00297	48 c7 44 24 40
	02 00 00 00	 mov	 QWORD PTR len$21645[rsp], 2
  002a0	e9 81 00 00 00	 jmp	 $LN6@save_bytes
$LN7@save_bytes:

; 1780 :         }
; 1781 :         else if (size <= 0xffffffffL) {

  002a5	b8 ff ff ff ff	 mov	 eax, -1
  002aa	48 39 44 24 48	 cmp	 QWORD PTR size$21643[rsp], rax
  002af	7f 58		 jg	 SHORT $LN5@save_bytes

; 1782 :             header[0] = BINBYTES;

  002b1	c6 44 24 50 42	 mov	 BYTE PTR header$21644[rsp], 66 ; 00000042H

; 1783 :             header[1] = (unsigned char)(size & 0xff);

  002b6	48 8b 44 24 48	 mov	 rax, QWORD PTR size$21643[rsp]
  002bb	48 25 ff 00 00
	00		 and	 rax, 255		; 000000ffH
  002c1	88 44 24 51	 mov	 BYTE PTR header$21644[rsp+1], al

; 1784 :             header[2] = (unsigned char)((size >> 8) & 0xff);

  002c5	48 8b 44 24 48	 mov	 rax, QWORD PTR size$21643[rsp]
  002ca	48 c1 f8 08	 sar	 rax, 8
  002ce	48 25 ff 00 00
	00		 and	 rax, 255		; 000000ffH
  002d4	88 44 24 52	 mov	 BYTE PTR header$21644[rsp+2], al

; 1785 :             header[3] = (unsigned char)((size >> 16) & 0xff);

  002d8	48 8b 44 24 48	 mov	 rax, QWORD PTR size$21643[rsp]
  002dd	48 c1 f8 10	 sar	 rax, 16
  002e1	48 25 ff 00 00
	00		 and	 rax, 255		; 000000ffH
  002e7	88 44 24 53	 mov	 BYTE PTR header$21644[rsp+3], al

; 1786 :             header[4] = (unsigned char)((size >> 24) & 0xff);

  002eb	48 8b 44 24 48	 mov	 rax, QWORD PTR size$21643[rsp]
  002f0	48 c1 f8 18	 sar	 rax, 24
  002f4	48 25 ff 00 00
	00		 and	 rax, 255		; 000000ffH
  002fa	88 44 24 54	 mov	 BYTE PTR header$21644[rsp+4], al

; 1787 :             len = 5;

  002fe	48 c7 44 24 40
	05 00 00 00	 mov	 QWORD PTR len$21645[rsp], 5

; 1788 :         }
; 1789 :         else {

  00307	eb 1d		 jmp	 SHORT $LN4@save_bytes
$LN5@save_bytes:

; 1790 :             PyErr_SetString(PyExc_OverflowError,
; 1791 :                             "cannot serialize a bytes object larger than 4 GiB");

  00309	48 8d 15 00 00
	00 00		 lea	 rdx, OFFSET FLAT:??_C@_0DC@CDNPLJMA@cannot?5serialize?5a?5bytes?5object?5@
  00310	48 8b 0d 00 00
	00 00		 mov	 rcx, QWORD PTR PyExc_OverflowError
  00317	e8 00 00 00 00	 call	 PyErr_SetString

; 1792 :             return -1;          /* string too large */

  0031c	b8 ff ff ff ff	 mov	 eax, -1
  00321	e9 97 00 00 00	 jmp	 $LN20@save_bytes
$LN4@save_bytes:
$LN6@save_bytes:

; 1793 :         }
; 1794 : 
; 1795 :         if (_Pickler_Write(self, header, len) < 0)

  00326	4c 8b 44 24 40	 mov	 r8, QWORD PTR len$21645[rsp]
  0032b	48 8d 54 24 50	 lea	 rdx, QWORD PTR header$21644[rsp]
  00330	48 8b 4c 24 70	 mov	 rcx, QWORD PTR self$[rsp]
  00335	e8 00 00 00 00	 call	 _Pickler_Write
  0033a	48 85 c0	 test	 rax, rax
  0033d	7d 07		 jge	 SHORT $LN3@save_bytes

; 1796 :             return -1;

  0033f	b8 ff ff ff ff	 mov	 eax, -1
  00344	eb 77		 jmp	 SHORT $LN20@save_bytes
$LN3@save_bytes:

; 1797 : 
; 1798 :         if (_Pickler_Write(self, PyBytes_AS_STRING(obj), size) < 0)

  00346	48 8b 44 24 78	 mov	 rax, QWORD PTR obj$[rsp]
  0034b	48 8b 40 58	 mov	 rax, QWORD PTR [rax+88]
  0034f	8b 80 00 01 00
	00		 mov	 eax, DWORD PTR [rax+256]
  00355	25 00 00 00 08	 and	 eax, 134217728		; 08000000H
  0035a	85 c0		 test	 eax, eax
  0035c	75 1c		 jne	 SHORT $LN26@save_bytes
  0035e	41 b8 06 07 00
	00		 mov	 r8d, 1798		; 00000706H
  00364	48 8d 15 00 00
	00 00		 lea	 rdx, OFFSET FLAT:??_C@_1CK@DHJKOIMG@?$AA?4?$AA?4?$AA?2?$AAM?$AAo?$AAd?$AAu?$AAl?$AAe?$AAs?$AA?2?$AA_?$AAp?$AAi?$AAc?$AAk?$AAl?$AAe?$AA?4?$AAc?$AA?$AA@
  0036b	48 8d 0d 00 00
	00 00		 lea	 rcx, OFFSET FLAT:??_C@_1CG@BMHHMEBF@?$AAP?$AAy?$AAB?$AAy?$AAt?$AAe?$AAs?$AA_?$AAC?$AAh?$AAe?$AAc?$AAk?$AA?$CI?$AAo?$AAb?$AAj?$AA?$CJ?$AA?$AA@
  00372	ff 15 00 00 00
	00		 call	 QWORD PTR __imp__wassert
  00378	33 c0		 xor	 eax, eax
$LN26@save_bytes:
  0037a	48 8b 44 24 78	 mov	 rax, QWORD PTR obj$[rsp]
  0037f	48 83 c0 78	 add	 rax, 120		; 00000078H
  00383	4c 8b 44 24 48	 mov	 r8, QWORD PTR size$21643[rsp]
  00388	48 8b d0	 mov	 rdx, rax
  0038b	48 8b 4c 24 70	 mov	 rcx, QWORD PTR self$[rsp]
  00390	e8 00 00 00 00	 call	 _Pickler_Write
  00395	48 85 c0	 test	 rax, rax
  00398	7d 07		 jge	 SHORT $LN2@save_bytes

; 1799 :             return -1;

  0039a	b8 ff ff ff ff	 mov	 eax, -1
  0039f	eb 1c		 jmp	 SHORT $LN20@save_bytes
$LN2@save_bytes:

; 1800 : 
; 1801 :         if (memo_put(self, obj) < 0)

  003a1	48 8b 54 24 78	 mov	 rdx, QWORD PTR obj$[rsp]
  003a6	48 8b 4c 24 70	 mov	 rcx, QWORD PTR self$[rsp]
  003ab	e8 00 00 00 00	 call	 memo_put
  003b0	85 c0		 test	 eax, eax
  003b2	7d 07		 jge	 SHORT $LN1@save_bytes

; 1802 :             return -1;

  003b4	b8 ff ff ff ff	 mov	 eax, -1
  003b9	eb 02		 jmp	 SHORT $LN20@save_bytes
$LN1@save_bytes:

; 1803 : 
; 1804 :         return 0;

  003bb	33 c0		 xor	 eax, eax
$LN9@save_bytes:
$LN20@save_bytes:

; 1805 :     }
; 1806 : }

  003bd	48 83 c4 68	 add	 rsp, 104		; 00000068H
  003c1	c3		 ret	 0
save_bytes ENDP
_TEXT	ENDS
PUBLIC	??_C@_0CC@EAIMIBPJ@memo?5id?5too?5large?5for?5LONG_BINPU@ ; `string'
;	COMDAT pdata
pdata	SEGMENT
$pdata$memo_put DD imagerel memo_put
	DD	imagerel memo_put+376
	DD	imagerel $unwind$memo_put
pdata	ENDS
;	COMDAT xdata
xdata	SEGMENT
$unwind$memo_put DD 010e01H
	DD	0c20eH
xdata	ENDS
;	COMDAT ??_C@_0CC@EAIMIBPJ@memo?5id?5too?5large?5for?5LONG_BINPU@
CONST	SEGMENT
??_C@_0CC@EAIMIBPJ@memo?5id?5too?5large?5for?5LONG_BINPU@ DB 'memo id too'
	DB	' large for LONG_BINPUT', 00H		; `string'
; Function compile flags: /Odtp
CONST	ENDS
;	COMDAT memo_put
_TEXT	SEGMENT
x$ = 32
pdata$ = 40
len$ = 72
status$ = 80
self$ = 112
obj$ = 120
memo_put PROC						; COMDAT

; 1276 : {

  00000	48 89 54 24 10	 mov	 QWORD PTR [rsp+16], rdx
  00005	48 89 4c 24 08	 mov	 QWORD PTR [rsp+8], rcx
  0000a	48 83 ec 68	 sub	 rsp, 104		; 00000068H

; 1277 :     Py_ssize_t x;
; 1278 :     char pdata[30];
; 1279 :     Py_ssize_t len;
; 1280 :     int status = 0;

  0000e	c7 44 24 50 00
	00 00 00	 mov	 DWORD PTR status$[rsp], 0

; 1281 : 
; 1282 :     if (self->fast)

  00016	48 8b 44 24 70	 mov	 rax, QWORD PTR self$[rsp]
  0001b	83 b8 b0 00 00
	00 00		 cmp	 DWORD PTR [rax+176], 0
  00022	74 07		 je	 SHORT $LN10@memo_put

; 1283 :         return 0;

  00024	33 c0		 xor	 eax, eax
  00026	e9 48 01 00 00	 jmp	 $LN11@memo_put
$LN10@memo_put:

; 1284 : 
; 1285 :     x = PyMemoTable_Size(self->memo);

  0002b	48 8b 44 24 70	 mov	 rax, QWORD PTR self$[rsp]
  00030	48 8b 48 60	 mov	 rcx, QWORD PTR [rax+96]
  00034	e8 00 00 00 00	 call	 PyMemoTable_Size
  00039	48 89 44 24 20	 mov	 QWORD PTR x$[rsp], rax

; 1286 :     if (PyMemoTable_Set(self->memo, obj, x) < 0)

  0003e	4c 8b 44 24 20	 mov	 r8, QWORD PTR x$[rsp]
  00043	48 8b 54 24 78	 mov	 rdx, QWORD PTR obj$[rsp]
  00048	48 8b 44 24 70	 mov	 rax, QWORD PTR self$[rsp]
  0004d	48 8b 48 60	 mov	 rcx, QWORD PTR [rax+96]
  00051	e8 00 00 00 00	 call	 PyMemoTable_Set
  00056	85 c0		 test	 eax, eax
  00058	7d 05		 jge	 SHORT $LN9@memo_put

; 1287 :         goto error;

  0005a	e9 08 01 00 00	 jmp	 $error$21346
$LN9@memo_put:

; 1288 : 
; 1289 :     if (!self->bin) {

  0005f	48 8b 44 24 70	 mov	 rax, QWORD PTR self$[rsp]
  00064	83 b8 a4 00 00
	00 00		 cmp	 DWORD PTR [rax+164], 0
  0006b	75 37		 jne	 SHORT $LN8@memo_put

; 1290 :         pdata[0] = PUT;

  0006d	c6 44 24 28 70	 mov	 BYTE PTR pdata$[rsp], 112 ; 00000070H

; 1291 :         PyOS_snprintf(pdata + 1, sizeof(pdata) - 1,
; 1292 :                       "%" PY_FORMAT_SIZE_T "d\n", x);

  00072	48 8d 44 24 29	 lea	 rax, QWORD PTR pdata$[rsp+1]
  00077	4c 8b 4c 24 20	 mov	 r9, QWORD PTR x$[rsp]
  0007c	4c 8d 05 00 00
	00 00		 lea	 r8, OFFSET FLAT:??_C@_04GDNBDEFH@?$CFId?6?$AA@
  00083	ba 1d 00 00 00	 mov	 edx, 29
  00088	48 8b c8	 mov	 rcx, rax
  0008b	e8 00 00 00 00	 call	 PyOS_snprintf

; 1293 :         len = strlen(pdata);

  00090	48 8d 4c 24 28	 lea	 rcx, QWORD PTR pdata$[rsp]
  00095	e8 00 00 00 00	 call	 strlen
  0009a	48 89 44 24 48	 mov	 QWORD PTR len$[rsp], rax

; 1294 :     }
; 1295 :     else {

  0009f	e9 a2 00 00 00	 jmp	 $LN7@memo_put
$LN8@memo_put:

; 1296 :         if (x < 256) {

  000a4	48 81 7c 24 20
	00 01 00 00	 cmp	 QWORD PTR x$[rsp], 256	; 00000100H
  000ad	7d 19		 jge	 SHORT $LN6@memo_put

; 1297 :             pdata[0] = BINPUT;

  000af	c6 44 24 28 71	 mov	 BYTE PTR pdata$[rsp], 113 ; 00000071H

; 1298 :             pdata[1] = (unsigned char)x;

  000b4	0f b6 44 24 20	 movzx	 eax, BYTE PTR x$[rsp]
  000b9	88 44 24 29	 mov	 BYTE PTR pdata$[rsp+1], al

; 1299 :             len = 2;

  000bd	48 c7 44 24 48
	02 00 00 00	 mov	 QWORD PTR len$[rsp], 2
  000c6	eb 7e		 jmp	 SHORT $LN5@memo_put
$LN6@memo_put:

; 1300 :         }
; 1301 :         else if (x <= 0xffffffffL) {

  000c8	b8 ff ff ff ff	 mov	 eax, -1
  000cd	48 39 44 24 20	 cmp	 QWORD PTR x$[rsp], rax
  000d2	7f 58		 jg	 SHORT $LN4@memo_put

; 1302 :             pdata[0] = LONG_BINPUT;

  000d4	c6 44 24 28 72	 mov	 BYTE PTR pdata$[rsp], 114 ; 00000072H

; 1303 :             pdata[1] = (unsigned char)(x & 0xff);

  000d9	48 8b 44 24 20	 mov	 rax, QWORD PTR x$[rsp]
  000de	48 25 ff 00 00
	00		 and	 rax, 255		; 000000ffH
  000e4	88 44 24 29	 mov	 BYTE PTR pdata$[rsp+1], al

; 1304 :             pdata[2] = (unsigned char)((x >> 8) & 0xff);

  000e8	48 8b 44 24 20	 mov	 rax, QWORD PTR x$[rsp]
  000ed	48 c1 f8 08	 sar	 rax, 8
  000f1	48 25 ff 00 00
	00		 and	 rax, 255		; 000000ffH
  000f7	88 44 24 2a	 mov	 BYTE PTR pdata$[rsp+2], al

; 1305 :             pdata[3] = (unsigned char)((x >> 16) & 0xff);

  000fb	48 8b 44 24 20	 mov	 rax, QWORD PTR x$[rsp]
  00100	48 c1 f8 10	 sar	 rax, 16
  00104	48 25 ff 00 00
	00		 and	 rax, 255		; 000000ffH
  0010a	88 44 24 2b	 mov	 BYTE PTR pdata$[rsp+3], al

; 1306 :             pdata[4] = (unsigned char)((x >> 24) & 0xff);

  0010e	48 8b 44 24 20	 mov	 rax, QWORD PTR x$[rsp]
  00113	48 c1 f8 18	 sar	 rax, 24
  00117	48 25 ff 00 00
	00		 and	 rax, 255		; 000000ffH
  0011d	88 44 24 2c	 mov	 BYTE PTR pdata$[rsp+4], al

; 1307 :             len = 5;

  00121	48 c7 44 24 48
	05 00 00 00	 mov	 QWORD PTR len$[rsp], 5

; 1308 :         }
; 1309 :         else { /* unlikely */

  0012a	eb 1a		 jmp	 SHORT $LN3@memo_put
$LN4@memo_put:

; 1310 :             PyErr_SetString(PicklingError,
; 1311 :                             "memo id too large for LONG_BINPUT");

  0012c	48 8d 15 00 00
	00 00		 lea	 rdx, OFFSET FLAT:??_C@_0CC@EAIMIBPJ@memo?5id?5too?5large?5for?5LONG_BINPU@
  00133	48 8b 0d 00 00
	00 00		 mov	 rcx, QWORD PTR PicklingError
  0013a	e8 00 00 00 00	 call	 PyErr_SetString

; 1312 :             return -1;

  0013f	b8 ff ff ff ff	 mov	 eax, -1
  00144	eb 2d		 jmp	 SHORT $LN11@memo_put
$LN3@memo_put:
$LN5@memo_put:
$LN7@memo_put:

; 1313 :         }
; 1314 :     }
; 1315 : 
; 1316 :     if (_Pickler_Write(self, pdata, len) < 0)

  00146	4c 8b 44 24 48	 mov	 r8, QWORD PTR len$[rsp]
  0014b	48 8d 54 24 28	 lea	 rdx, QWORD PTR pdata$[rsp]
  00150	48 8b 4c 24 70	 mov	 rcx, QWORD PTR self$[rsp]
  00155	e8 00 00 00 00	 call	 _Pickler_Write
  0015a	48 85 c0	 test	 rax, rax
  0015d	7d 02		 jge	 SHORT $LN2@memo_put

; 1317 :         goto error;

  0015f	eb 06		 jmp	 SHORT $error$21346
$LN2@memo_put:

; 1318 : 
; 1319 :     if (0) {

  00161	33 c0		 xor	 eax, eax
  00163	85 c0		 test	 eax, eax
  00165	74 08		 je	 SHORT $LN1@memo_put
$error$21346:

; 1320 :   error:
; 1321 :         status = -1;

  00167	c7 44 24 50 ff
	ff ff ff	 mov	 DWORD PTR status$[rsp], -1
$LN1@memo_put:

; 1322 :     }
; 1323 : 
; 1324 :     return status;

  0016f	8b 44 24 50	 mov	 eax, DWORD PTR status$[rsp]
$LN11@memo_put:

; 1325 : }

  00173	48 83 c4 68	 add	 rsp, 104		; 00000068H
  00177	c3		 ret	 0
memo_put ENDP
; Function compile flags: /Odtp
_TEXT	ENDS
;	COMDAT PyMemoTable_Size
_TEXT	SEGMENT
self$ = 8
PyMemoTable_Size PROC					; COMDAT

; 452  : {

  00000	48 89 4c 24 08	 mov	 QWORD PTR [rsp+8], rcx

; 453  :     return self->mt_used;

  00005	48 8b 44 24 08	 mov	 rax, QWORD PTR self$[rsp]
  0000a	48 8b 40 08	 mov	 rax, QWORD PTR [rax+8]

; 454  : }

  0000e	c3		 ret	 0
PyMemoTable_Size ENDP
_TEXT	ENDS
PUBLIC	??_C@_1BI@OEOAAOGG@?$AAk?$AAe?$AAy?$AA?5?$AA?$CB?$AA?$DN?$AA?5?$AAN?$AAU?$AAL?$AAL?$AA?$AA@ ; `string'
;	COMDAT pdata
pdata	SEGMENT
$pdata$PyMemoTable_Set DD imagerel PyMemoTable_Set
	DD	imagerel PyMemoTable_Set+266
	DD	imagerel $unwind$PyMemoTable_Set
pdata	ENDS
;	COMDAT xdata
xdata	SEGMENT
$unwind$PyMemoTable_Set DD 011301H
	DD	06213H
xdata	ENDS
;	COMDAT ??_C@_1BI@OEOAAOGG@?$AAk?$AAe?$AAy?$AA?5?$AA?$CB?$AA?$DN?$AA?5?$AAN?$AAU?$AAL?$AAL?$AA?$AA@
CONST	SEGMENT
??_C@_1BI@OEOAAOGG@?$AAk?$AAe?$AAy?$AA?5?$AA?$CB?$AA?$DN?$AA?5?$AAN?$AAU?$AAL?$AAL?$AA?$AA@ DB 'k'
	DB	00H, 'e', 00H, 'y', 00H, ' ', 00H, '!', 00H, '=', 00H, ' ', 00H
	DB	'N', 00H, 'U', 00H, 'L', 00H, 'L', 00H, 00H, 00H ; `string'
; Function compile flags: /Odtp
CONST	ENDS
;	COMDAT PyMemoTable_Set
_TEXT	SEGMENT
entry$ = 32
tv88 = 40
self$ = 64
key$ = 72
value$ = 80
PyMemoTable_Set PROC					; COMDAT

; 572  : {

  00000	4c 89 44 24 18	 mov	 QWORD PTR [rsp+24], r8
  00005	48 89 54 24 10	 mov	 QWORD PTR [rsp+16], rdx
  0000a	48 89 4c 24 08	 mov	 QWORD PTR [rsp+8], rcx
  0000f	48 83 ec 38	 sub	 rsp, 56			; 00000038H

; 573  :     PyMemoEntry *entry;
; 574  : 
; 575  :     assert(key != NULL);

  00013	48 83 7c 24 48
	00		 cmp	 QWORD PTR key$[rsp], 0
  00019	75 1c		 jne	 SHORT $LN5@PyMemoTabl@4
  0001b	41 b8 3f 02 00
	00		 mov	 r8d, 575		; 0000023fH
  00021	48 8d 15 00 00
	00 00		 lea	 rdx, OFFSET FLAT:??_C@_1CK@DHJKOIMG@?$AA?4?$AA?4?$AA?2?$AAM?$AAo?$AAd?$AAu?$AAl?$AAe?$AAs?$AA?2?$AA_?$AAp?$AAi?$AAc?$AAk?$AAl?$AAe?$AA?4?$AAc?$AA?$AA@
  00028	48 8d 0d 00 00
	00 00		 lea	 rcx, OFFSET FLAT:??_C@_1BI@OEOAAOGG@?$AAk?$AAe?$AAy?$AA?5?$AA?$CB?$AA?$DN?$AA?5?$AAN?$AAU?$AAL?$AAL?$AA?$AA@
  0002f	ff 15 00 00 00
	00		 call	 QWORD PTR __imp__wassert
  00035	33 c0		 xor	 eax, eax
$LN5@PyMemoTabl@4:

; 576  : 
; 577  :     entry = _PyMemoTable_Lookup(self, key);

  00037	48 8b 54 24 48	 mov	 rdx, QWORD PTR key$[rsp]
  0003c	48 8b 4c 24 40	 mov	 rcx, QWORD PTR self$[rsp]
  00041	e8 00 00 00 00	 call	 _PyMemoTable_Lookup
  00046	48 89 44 24 20	 mov	 QWORD PTR entry$[rsp], rax

; 578  :     if (entry->me_key != NULL) {

  0004b	48 8b 44 24 20	 mov	 rax, QWORD PTR entry$[rsp]
  00050	48 83 38 00	 cmp	 QWORD PTR [rax], 0
  00054	74 15		 je	 SHORT $LN2@PyMemoTabl@4

; 579  :         entry->me_value = value;

  00056	48 8b 44 24 20	 mov	 rax, QWORD PTR entry$[rsp]
  0005b	48 8b 4c 24 50	 mov	 rcx, QWORD PTR value$[rsp]
  00060	48 89 48 08	 mov	 QWORD PTR [rax+8], rcx

; 580  :         return 0;

  00064	33 c0		 xor	 eax, eax
  00066	e9 9a 00 00 00	 jmp	 $LN3@PyMemoTabl@4
$LN2@PyMemoTabl@4:

; 581  :     }
; 582  :     Py_INCREF(key);

  0006b	48 8b 4c 24 48	 mov	 rcx, QWORD PTR key$[rsp]
  00070	e8 00 00 00 00	 call	 _Py_IncRef

; 583  :     entry->me_key = key;

  00075	48 8b 44 24 20	 mov	 rax, QWORD PTR entry$[rsp]
  0007a	48 8b 4c 24 48	 mov	 rcx, QWORD PTR key$[rsp]
  0007f	48 89 08	 mov	 QWORD PTR [rax], rcx

; 584  :     entry->me_value = value;

  00082	48 8b 44 24 20	 mov	 rax, QWORD PTR entry$[rsp]
  00087	48 8b 4c 24 50	 mov	 rcx, QWORD PTR value$[rsp]
  0008c	48 89 48 08	 mov	 QWORD PTR [rax+8], rcx

; 585  :     self->mt_used++;

  00090	48 8b 44 24 40	 mov	 rax, QWORD PTR self$[rsp]
  00095	48 8b 40 08	 mov	 rax, QWORD PTR [rax+8]
  00099	48 ff c0	 inc	 rax
  0009c	48 8b 4c 24 40	 mov	 rcx, QWORD PTR self$[rsp]
  000a1	48 89 41 08	 mov	 QWORD PTR [rcx+8], rax

; 586  : 
; 587  :     /* If we added a key, we can safely resize. Otherwise just return!
; 588  :      * If used >= 2/3 size, adjust size. Normally, this quaduples the size.
; 589  :      *
; 590  :      * Quadrupling the size improves average table sparseness
; 591  :      * (reducing collisions) at the cost of some memory. It also halves
; 592  :      * the number of expensive resize operations in a growing memo table.
; 593  :      *
; 594  :      * Very large memo tables (over 50K items) use doubling instead.
; 595  :      * This may help applications with severe memory constraints.
; 596  :      */
; 597  :     if (!(self->mt_used * 3 >= (self->mt_mask + 1) * 2))

  000a5	48 8b 44 24 40	 mov	 rax, QWORD PTR self$[rsp]
  000aa	48 8b 40 08	 mov	 rax, QWORD PTR [rax+8]
  000ae	48 6b c0 03	 imul	 rax, 3
  000b2	48 8b 4c 24 40	 mov	 rcx, QWORD PTR self$[rsp]
  000b7	48 8b 09	 mov	 rcx, QWORD PTR [rcx]
  000ba	48 8d 4c 09 02	 lea	 rcx, QWORD PTR [rcx+rcx+2]
  000bf	48 3b c1	 cmp	 rax, rcx
  000c2	7d 04		 jge	 SHORT $LN1@PyMemoTabl@4

; 598  :         return 0;

  000c4	33 c0		 xor	 eax, eax
  000c6	eb 3d		 jmp	 SHORT $LN3@PyMemoTabl@4
$LN1@PyMemoTabl@4:

; 599  :     return _PyMemoTable_ResizeTable(self,
; 600  :         (self->mt_used > 50000 ? 2 : 4) * self->mt_used);

  000c8	48 8b 44 24 40	 mov	 rax, QWORD PTR self$[rsp]
  000cd	48 81 78 08 50
	c3 00 00	 cmp	 QWORD PTR [rax+8], 50000 ; 0000c350H
  000d5	7e 0a		 jle	 SHORT $LN6@PyMemoTabl@4
  000d7	c7 44 24 28 02
	00 00 00	 mov	 DWORD PTR tv88[rsp], 2
  000df	eb 08		 jmp	 SHORT $LN7@PyMemoTabl@4
$LN6@PyMemoTabl@4:
  000e1	c7 44 24 28 04
	00 00 00	 mov	 DWORD PTR tv88[rsp], 4
$LN7@PyMemoTabl@4:
  000e9	48 63 44 24 28	 movsxd	 rax, DWORD PTR tv88[rsp]
  000ee	48 8b 4c 24 40	 mov	 rcx, QWORD PTR self$[rsp]
  000f3	48 0f af 41 08	 imul	 rax, QWORD PTR [rcx+8]
  000f8	48 8b d0	 mov	 rdx, rax
  000fb	48 8b 4c 24 40	 mov	 rcx, QWORD PTR self$[rsp]
  00100	e8 00 00 00 00	 call	 _PyMemoTable_ResizeTable
$LN3@PyMemoTabl@4:

; 601  : }

  00105	48 83 c4 38	 add	 rsp, 56			; 00000038H
  00109	c3		 ret	 0
PyMemoTable_Set ENDP
_TEXT	ENDS
PUBLIC	??_C@_1EC@HJHONDPL@?$AA?$CI?$AAn?$AAe?$AAw?$AA_?$AAs?$AAi?$AAz?$AAe?$AA?5?$AA?$CG?$AA?5?$AA?$CI?$AAn?$AAe?$AAw?$AA_?$AAs?$AAi?$AAz?$AAe?$AA?5?$AA?9?$AA?5?$AA1?$AA?$CJ?$AA?$CJ?$AA?5?$AA?$DN?$AA?$DN?$AA?5?$AA0@ ; `string'
PUBLIC	??_C@_1BK@EPLMGHNH@?$AAm?$AAi?$AAn?$AA_?$AAs?$AAi?$AAz?$AAe?$AA?5?$AA?$DO?$AA?5?$AA0?$AA?$AA@ ; `string'
EXTRN	_PyMem_DebugMalloc:PROC
EXTRN	_PxMem_Malloc:PROC
;	COMDAT pdata
pdata	SEGMENT
$pdata$_PyMemoTable_ResizeTable DD imagerel _PyMemoTable_ResizeTable
	DD	imagerel _PyMemoTable_ResizeTable+578
	DD	imagerel $unwind$_PyMemoTable_ResizeTable
pdata	ENDS
;	COMDAT xdata
xdata	SEGMENT
$unwind$_PyMemoTable_ResizeTable DD 010e01H
	DD	0c20eH
xdata	ENDS
;	COMDAT ??_C@_1EC@HJHONDPL@?$AA?$CI?$AAn?$AAe?$AAw?$AA_?$AAs?$AAi?$AAz?$AAe?$AA?5?$AA?$CG?$AA?5?$AA?$CI?$AAn?$AAe?$AAw?$AA_?$AAs?$AAi?$AAz?$AAe?$AA?5?$AA?9?$AA?5?$AA1?$AA?$CJ?$AA?$CJ?$AA?5?$AA?$DN?$AA?$DN?$AA?5?$AA0@
CONST	SEGMENT
??_C@_1EC@HJHONDPL@?$AA?$CI?$AAn?$AAe?$AAw?$AA_?$AAs?$AAi?$AAz?$AAe?$AA?5?$AA?$CG?$AA?5?$AA?$CI?$AAn?$AAe?$AAw?$AA_?$AAs?$AAi?$AAz?$AAe?$AA?5?$AA?9?$AA?5?$AA1?$AA?$CJ?$AA?$CJ?$AA?5?$AA?$DN?$AA?$DN?$AA?5?$AA0@ DB '('
	DB	00H, 'n', 00H, 'e', 00H, 'w', 00H, '_', 00H, 's', 00H, 'i', 00H
	DB	'z', 00H, 'e', 00H, ' ', 00H, '&', 00H, ' ', 00H, '(', 00H, 'n'
	DB	00H, 'e', 00H, 'w', 00H, '_', 00H, 's', 00H, 'i', 00H, 'z', 00H
	DB	'e', 00H, ' ', 00H, '-', 00H, ' ', 00H, '1', 00H, ')', 00H, ')'
	DB	00H, ' ', 00H, '=', 00H, '=', 00H, ' ', 00H, '0', 00H, 00H, 00H ; `string'
CONST	ENDS
;	COMDAT ??_C@_1BK@EPLMGHNH@?$AAm?$AAi?$AAn?$AA_?$AAs?$AAi?$AAz?$AAe?$AA?5?$AA?$DO?$AA?5?$AA0?$AA?$AA@
CONST	SEGMENT
??_C@_1BK@EPLMGHNH@?$AAm?$AAi?$AAn?$AA_?$AAs?$AAi?$AAz?$AAe?$AA?5?$AA?$DO?$AA?5?$AA0?$AA?$AA@ DB 'm'
	DB	00H, 'i', 00H, 'n', 00H, '_', 00H, 's', 00H, 'i', 00H, 'z', 00H
	DB	'e', 00H, ' ', 00H, '>', 00H, ' ', 00H, '0', 00H, 00H, 00H ; `string'
; Function compile flags: /Odtp
CONST	ENDS
;	COMDAT _PyMemoTable_ResizeTable
_TEXT	SEGMENT
new_size$ = 32
newentry$ = 40
oldtable$ = 48
to_process$ = 56
oldentry$ = 64
tv90 = 72
tv129 = 80
tv151 = 84
self$ = 112
min_size$ = 120
_PyMemoTable_ResizeTable PROC				; COMDAT

; 510  : {

  00000	48 89 54 24 10	 mov	 QWORD PTR [rsp+16], rdx
  00005	48 89 4c 24 08	 mov	 QWORD PTR [rsp+8], rcx
  0000a	48 83 ec 68	 sub	 rsp, 104		; 00000068H

; 511  :     PyMemoEntry *oldtable = NULL;

  0000e	48 c7 44 24 30
	00 00 00 00	 mov	 QWORD PTR oldtable$[rsp], 0

; 512  :     PyMemoEntry *oldentry, *newentry;
; 513  :     Py_ssize_t new_size = MT_MINSIZE;

  00017	48 c7 44 24 20
	08 00 00 00	 mov	 QWORD PTR new_size$[rsp], 8

; 514  :     Py_ssize_t to_process;
; 515  : 
; 516  :     assert(min_size > 0);

  00020	48 83 7c 24 78
	00		 cmp	 QWORD PTR min_size$[rsp], 0
  00026	7f 1c		 jg	 SHORT $LN11@PyMemoTabl@5
  00028	41 b8 04 02 00
	00		 mov	 r8d, 516		; 00000204H
  0002e	48 8d 15 00 00
	00 00		 lea	 rdx, OFFSET FLAT:??_C@_1CK@DHJKOIMG@?$AA?4?$AA?4?$AA?2?$AAM?$AAo?$AAd?$AAu?$AAl?$AAe?$AAs?$AA?2?$AA_?$AAp?$AAi?$AAc?$AAk?$AAl?$AAe?$AA?4?$AAc?$AA?$AA@
  00035	48 8d 0d 00 00
	00 00		 lea	 rcx, OFFSET FLAT:??_C@_1BK@EPLMGHNH@?$AAm?$AAi?$AAn?$AA_?$AAs?$AAi?$AAz?$AAe?$AA?5?$AA?$DO?$AA?5?$AA0?$AA?$AA@
  0003c	ff 15 00 00 00
	00		 call	 QWORD PTR __imp__wassert
  00042	33 c0		 xor	 eax, eax
$LN11@PyMemoTabl@5:
$LN8@PyMemoTabl@5:

; 517  : 
; 518  :     /* Find the smallest valid table size >= min_size. */
; 519  :     while (new_size < min_size && new_size > 0)

  00044	48 8b 44 24 78	 mov	 rax, QWORD PTR min_size$[rsp]
  00049	48 39 44 24 20	 cmp	 QWORD PTR new_size$[rsp], rax
  0004e	7d 17		 jge	 SHORT $LN7@PyMemoTabl@5
  00050	48 83 7c 24 20
	00		 cmp	 QWORD PTR new_size$[rsp], 0
  00056	7e 0f		 jle	 SHORT $LN7@PyMemoTabl@5

; 520  :         new_size <<= 1;

  00058	48 8b 44 24 20	 mov	 rax, QWORD PTR new_size$[rsp]
  0005d	48 d1 e0	 shl	 rax, 1
  00060	48 89 44 24 20	 mov	 QWORD PTR new_size$[rsp], rax
  00065	eb dd		 jmp	 SHORT $LN8@PyMemoTabl@5
$LN7@PyMemoTabl@5:

; 521  :     if (new_size <= 0) {

  00067	48 83 7c 24 20
	00		 cmp	 QWORD PTR new_size$[rsp], 0
  0006d	7f 0f		 jg	 SHORT $LN6@PyMemoTabl@5

; 522  :         PyErr_NoMemory();

  0006f	e8 00 00 00 00	 call	 PyErr_NoMemory

; 523  :         return -1;

  00074	b8 ff ff ff ff	 mov	 eax, -1
  00079	e9 bf 01 00 00	 jmp	 $LN9@PyMemoTabl@5
$LN6@PyMemoTabl@5:

; 524  :     }
; 525  :     /* new_size needs to be a power of two. */
; 526  :     assert((new_size & (new_size - 1)) == 0);

  0007e	48 8b 44 24 20	 mov	 rax, QWORD PTR new_size$[rsp]
  00083	48 ff c8	 dec	 rax
  00086	48 8b 4c 24 20	 mov	 rcx, QWORD PTR new_size$[rsp]
  0008b	48 23 c8	 and	 rcx, rax
  0008e	48 8b c1	 mov	 rax, rcx
  00091	48 85 c0	 test	 rax, rax
  00094	74 1c		 je	 SHORT $LN12@PyMemoTabl@5
  00096	41 b8 0e 02 00
	00		 mov	 r8d, 526		; 0000020eH
  0009c	48 8d 15 00 00
	00 00		 lea	 rdx, OFFSET FLAT:??_C@_1CK@DHJKOIMG@?$AA?4?$AA?4?$AA?2?$AAM?$AAo?$AAd?$AAu?$AAl?$AAe?$AAs?$AA?2?$AA_?$AAp?$AAi?$AAc?$AAk?$AAl?$AAe?$AA?4?$AAc?$AA?$AA@
  000a3	48 8d 0d 00 00
	00 00		 lea	 rcx, OFFSET FLAT:??_C@_1EC@HJHONDPL@?$AA?$CI?$AAn?$AAe?$AAw?$AA_?$AAs?$AAi?$AAz?$AAe?$AA?5?$AA?$CG?$AA?5?$AA?$CI?$AAn?$AAe?$AAw?$AA_?$AAs?$AAi?$AAz?$AAe?$AA?5?$AA?9?$AA?5?$AA1?$AA?$CJ?$AA?$CJ?$AA?5?$AA?$DN?$AA?$DN?$AA?5?$AA0@
  000aa	ff 15 00 00 00
	00		 call	 QWORD PTR __imp__wassert
  000b0	33 c0		 xor	 eax, eax
$LN12@PyMemoTabl@5:

; 527  : 
; 528  :     /* Allocate new table. */
; 529  :     oldtable = self->mt_table;

  000b2	48 8b 44 24 70	 mov	 rax, QWORD PTR self$[rsp]
  000b7	48 8b 40 18	 mov	 rax, QWORD PTR [rax+24]
  000bb	48 89 44 24 30	 mov	 QWORD PTR oldtable$[rsp], rax

; 530  :     self->mt_table = PyMem_MALLOC(new_size * sizeof(PyMemoEntry));

  000c0	e8 00 00 00 00	 call	 _Py_PXCTX
  000c5	85 c0		 test	 eax, eax
  000c7	74 18		 je	 SHORT $LN13@PyMemoTabl@5
  000c9	48 8b 44 24 20	 mov	 rax, QWORD PTR new_size$[rsp]
  000ce	48 6b c0 10	 imul	 rax, 16
  000d2	48 8b c8	 mov	 rcx, rax
  000d5	e8 00 00 00 00	 call	 _PxMem_Malloc
  000da	48 89 44 24 48	 mov	 QWORD PTR tv90[rsp], rax
  000df	eb 16		 jmp	 SHORT $LN14@PyMemoTabl@5
$LN13@PyMemoTabl@5:
  000e1	48 8b 44 24 20	 mov	 rax, QWORD PTR new_size$[rsp]
  000e6	48 6b c0 10	 imul	 rax, 16
  000ea	48 8b c8	 mov	 rcx, rax
  000ed	e8 00 00 00 00	 call	 _PyMem_DebugMalloc
  000f2	48 89 44 24 48	 mov	 QWORD PTR tv90[rsp], rax
$LN14@PyMemoTabl@5:
  000f7	48 8b 44 24 70	 mov	 rax, QWORD PTR self$[rsp]
  000fc	48 8b 4c 24 48	 mov	 rcx, QWORD PTR tv90[rsp]
  00101	48 89 48 18	 mov	 QWORD PTR [rax+24], rcx

; 531  :     if (self->mt_table == NULL) {

  00105	48 8b 44 24 70	 mov	 rax, QWORD PTR self$[rsp]
  0010a	48 83 78 18 00	 cmp	 QWORD PTR [rax+24], 0
  0010f	75 3e		 jne	 SHORT $LN5@PyMemoTabl@5

; 532  :         PyMem_FREE(oldtable);

  00111	e8 00 00 00 00	 call	 _Py_PXCTX
  00116	85 c0		 test	 eax, eax
  00118	74 14		 je	 SHORT $LN15@PyMemoTabl@5
  0011a	48 8b 4c 24 30	 mov	 rcx, QWORD PTR oldtable$[rsp]
  0011f	e8 00 00 00 00	 call	 _PxMem_Free
  00124	c7 44 24 50 00
	00 00 00	 mov	 DWORD PTR tv129[rsp], 0
  0012c	eb 12		 jmp	 SHORT $LN16@PyMemoTabl@5
$LN15@PyMemoTabl@5:
  0012e	48 8b 4c 24 30	 mov	 rcx, QWORD PTR oldtable$[rsp]
  00133	e8 00 00 00 00	 call	 _PyMem_DebugFree
  00138	c7 44 24 50 00
	00 00 00	 mov	 DWORD PTR tv129[rsp], 0
$LN16@PyMemoTabl@5:

; 533  :         PyErr_NoMemory();

  00140	e8 00 00 00 00	 call	 PyErr_NoMemory

; 534  :         return -1;

  00145	b8 ff ff ff ff	 mov	 eax, -1
  0014a	e9 ee 00 00 00	 jmp	 $LN9@PyMemoTabl@5
$LN5@PyMemoTabl@5:

; 535  :     }
; 536  :     self->mt_allocated = new_size;

  0014f	48 8b 44 24 70	 mov	 rax, QWORD PTR self$[rsp]
  00154	48 8b 4c 24 20	 mov	 rcx, QWORD PTR new_size$[rsp]
  00159	48 89 48 10	 mov	 QWORD PTR [rax+16], rcx

; 537  :     self->mt_mask = new_size - 1;

  0015d	48 8b 44 24 20	 mov	 rax, QWORD PTR new_size$[rsp]
  00162	48 ff c8	 dec	 rax
  00165	48 8b 4c 24 70	 mov	 rcx, QWORD PTR self$[rsp]
  0016a	48 89 01	 mov	 QWORD PTR [rcx], rax

; 538  :     memset(self->mt_table, 0, sizeof(PyMemoEntry) * new_size);

  0016d	48 8b 44 24 20	 mov	 rax, QWORD PTR new_size$[rsp]
  00172	48 6b c0 10	 imul	 rax, 16
  00176	4c 8b c0	 mov	 r8, rax
  00179	33 d2		 xor	 edx, edx
  0017b	48 8b 44 24 70	 mov	 rax, QWORD PTR self$[rsp]
  00180	48 8b 48 18	 mov	 rcx, QWORD PTR [rax+24]
  00184	e8 00 00 00 00	 call	 memset

; 539  : 
; 540  :     /* Copy entries from the old table. */
; 541  :     to_process = self->mt_used;

  00189	48 8b 44 24 70	 mov	 rax, QWORD PTR self$[rsp]
  0018e	48 8b 40 08	 mov	 rax, QWORD PTR [rax+8]
  00192	48 89 44 24 38	 mov	 QWORD PTR to_process$[rsp], rax

; 542  :     for (oldentry = oldtable; to_process > 0; oldentry++) {

  00197	48 8b 44 24 30	 mov	 rax, QWORD PTR oldtable$[rsp]
  0019c	48 89 44 24 40	 mov	 QWORD PTR oldentry$[rsp], rax
  001a1	eb 0e		 jmp	 SHORT $LN4@PyMemoTabl@5
$LN3@PyMemoTabl@5:
  001a3	48 8b 44 24 40	 mov	 rax, QWORD PTR oldentry$[rsp]
  001a8	48 83 c0 10	 add	 rax, 16
  001ac	48 89 44 24 40	 mov	 QWORD PTR oldentry$[rsp], rax
$LN4@PyMemoTabl@5:
  001b1	48 83 7c 24 38
	00		 cmp	 QWORD PTR to_process$[rsp], 0
  001b7	7e 53		 jle	 SHORT $LN2@PyMemoTabl@5

; 543  :         if (oldentry->me_key != NULL) {

  001b9	48 8b 44 24 40	 mov	 rax, QWORD PTR oldentry$[rsp]
  001be	48 83 38 00	 cmp	 QWORD PTR [rax], 0
  001c2	74 46		 je	 SHORT $LN1@PyMemoTabl@5

; 544  :             to_process--;

  001c4	48 8b 44 24 38	 mov	 rax, QWORD PTR to_process$[rsp]
  001c9	48 ff c8	 dec	 rax
  001cc	48 89 44 24 38	 mov	 QWORD PTR to_process$[rsp], rax

; 545  :             /* newentry is a pointer to a chunk of the new
; 546  :                mt_table, so we're setting the key:value pair
; 547  :                in-place. */
; 548  :             newentry = _PyMemoTable_Lookup(self, oldentry->me_key);

  001d1	48 8b 44 24 40	 mov	 rax, QWORD PTR oldentry$[rsp]
  001d6	48 8b 10	 mov	 rdx, QWORD PTR [rax]
  001d9	48 8b 4c 24 70	 mov	 rcx, QWORD PTR self$[rsp]
  001de	e8 00 00 00 00	 call	 _PyMemoTable_Lookup
  001e3	48 89 44 24 28	 mov	 QWORD PTR newentry$[rsp], rax

; 549  :             newentry->me_key = oldentry->me_key;

  001e8	48 8b 44 24 28	 mov	 rax, QWORD PTR newentry$[rsp]
  001ed	48 8b 4c 24 40	 mov	 rcx, QWORD PTR oldentry$[rsp]
  001f2	48 8b 09	 mov	 rcx, QWORD PTR [rcx]
  001f5	48 89 08	 mov	 QWORD PTR [rax], rcx

; 550  :             newentry->me_value = oldentry->me_value;

  001f8	48 8b 44 24 28	 mov	 rax, QWORD PTR newentry$[rsp]
  001fd	48 8b 4c 24 40	 mov	 rcx, QWORD PTR oldentry$[rsp]
  00202	48 8b 49 08	 mov	 rcx, QWORD PTR [rcx+8]
  00206	48 89 48 08	 mov	 QWORD PTR [rax+8], rcx
$LN1@PyMemoTabl@5:

; 551  :         }
; 552  :     }

  0020a	eb 97		 jmp	 SHORT $LN3@PyMemoTabl@5
$LN2@PyMemoTabl@5:

; 553  : 
; 554  :     /* Deallocate the old table. */
; 555  :     PyMem_FREE(oldtable);

  0020c	e8 00 00 00 00	 call	 _Py_PXCTX
  00211	85 c0		 test	 eax, eax
  00213	74 14		 je	 SHORT $LN17@PyMemoTabl@5
  00215	48 8b 4c 24 30	 mov	 rcx, QWORD PTR oldtable$[rsp]
  0021a	e8 00 00 00 00	 call	 _PxMem_Free
  0021f	c7 44 24 54 00
	00 00 00	 mov	 DWORD PTR tv151[rsp], 0
  00227	eb 12		 jmp	 SHORT $LN18@PyMemoTabl@5
$LN17@PyMemoTabl@5:
  00229	48 8b 4c 24 30	 mov	 rcx, QWORD PTR oldtable$[rsp]
  0022e	e8 00 00 00 00	 call	 _PyMem_DebugFree
  00233	c7 44 24 54 00
	00 00 00	 mov	 DWORD PTR tv151[rsp], 0
$LN18@PyMemoTabl@5:

; 556  :     return 0;

  0023b	33 c0		 xor	 eax, eax
$LN9@PyMemoTabl@5:

; 557  : }

  0023d	48 83 c4 68	 add	 rsp, 104		; 00000068H
  00241	c3		 ret	 0
_PyMemoTable_ResizeTable ENDP
_TEXT	ENDS
PUBLIC	??_C@_0CM@LALEGHBC@cannot?5serialize?5a?5string?5larger@ ; `string'
PUBLIC	??_C@_1CO@HFMJJPBH@?$AAP?$AAy?$AAB?$AAy?$AAt?$AAe?$AAs?$AA_?$AAC?$AAh?$AAe?$AAc?$AAk?$AA?$CI?$AAe?$AAn?$AAc?$AAo?$AAd?$AAe?$AAd?$AA?$CJ?$AA?$AA@ ; `string'
PUBLIC	??_C@_05CAMHEFLG@utf?98?$AA@			; `string'
PUBLIC	??_C@_0O@BNPCNOJJ@surrogatepass?$AA@		; `string'
EXTRN	PyUnicode_AsEncodedString:PROC
;	COMDAT pdata
pdata	SEGMENT
$pdata$save_unicode DD imagerel save_unicode
	DD	imagerel save_unicode+702
	DD	imagerel $unwind$save_unicode
pdata	ENDS
;	COMDAT xdata
xdata	SEGMENT
$unwind$save_unicode DD 010e01H
	DD	0820eH
xdata	ENDS
;	COMDAT ??_C@_0CM@LALEGHBC@cannot?5serialize?5a?5string?5larger@
CONST	SEGMENT
??_C@_0CM@LALEGHBC@cannot?5serialize?5a?5string?5larger@ DB 'cannot seria'
	DB	'lize a string larger than 4 GiB', 00H	; `string'
CONST	ENDS
;	COMDAT ??_C@_1CO@HFMJJPBH@?$AAP?$AAy?$AAB?$AAy?$AAt?$AAe?$AAs?$AA_?$AAC?$AAh?$AAe?$AAc?$AAk?$AA?$CI?$AAe?$AAn?$AAc?$AAo?$AAd?$AAe?$AAd?$AA?$CJ?$AA?$AA@
CONST	SEGMENT
??_C@_1CO@HFMJJPBH@?$AAP?$AAy?$AAB?$AAy?$AAt?$AAe?$AAs?$AA_?$AAC?$AAh?$AAe?$AAc?$AAk?$AA?$CI?$AAe?$AAn?$AAc?$AAo?$AAd?$AAe?$AAd?$AA?$CJ?$AA?$AA@ DB 'P'
	DB	00H, 'y', 00H, 'B', 00H, 'y', 00H, 't', 00H, 'e', 00H, 's', 00H
	DB	'_', 00H, 'C', 00H, 'h', 00H, 'e', 00H, 'c', 00H, 'k', 00H, '('
	DB	00H, 'e', 00H, 'n', 00H, 'c', 00H, 'o', 00H, 'd', 00H, 'e', 00H
	DB	'd', 00H, ')', 00H, 00H, 00H			; `string'
CONST	ENDS
;	COMDAT ??_C@_05CAMHEFLG@utf?98?$AA@
CONST	SEGMENT
??_C@_05CAMHEFLG@utf?98?$AA@ DB 'utf-8', 00H		; `string'
CONST	ENDS
;	COMDAT ??_C@_0O@BNPCNOJJ@surrogatepass?$AA@
CONST	SEGMENT
??_C@_0O@BNPCNOJJ@surrogatepass?$AA@ DB 'surrogatepass', 00H ; `string'
; Function compile flags: /Odtp
CONST	ENDS
;	COMDAT save_unicode
_TEXT	SEGMENT
encoded$ = 32
size$ = 40
pdata$21764 = 48
unicode_op$21786 = 56
self$ = 80
obj$ = 88
save_unicode PROC					; COMDAT

; 1877 : {

  00000	48 89 54 24 10	 mov	 QWORD PTR [rsp+16], rdx
  00005	48 89 4c 24 08	 mov	 QWORD PTR [rsp+8], rcx
  0000a	48 83 ec 48	 sub	 rsp, 72			; 00000048H

; 1878 :     Py_ssize_t size;
; 1879 :     PyObject *encoded = NULL;

  0000e	48 c7 44 24 20
	00 00 00 00	 mov	 QWORD PTR encoded$[rsp], 0

; 1880 : 
; 1881 :     if (self->bin) {

  00017	48 8b 44 24 50	 mov	 rax, QWORD PTR self$[rsp]
  0001c	83 b8 a4 00 00
	00 00		 cmp	 DWORD PTR [rax+164], 0
  00023	0f 84 5a 01 00
	00		 je	 $LN15@save_unico

; 1882 :         char pdata[5];
; 1883 : 
; 1884 :         encoded = PyUnicode_AsEncodedString(obj, "utf-8", "surrogatepass");

  00029	4c 8d 05 00 00
	00 00		 lea	 r8, OFFSET FLAT:??_C@_0O@BNPCNOJJ@surrogatepass?$AA@
  00030	48 8d 15 00 00
	00 00		 lea	 rdx, OFFSET FLAT:??_C@_05CAMHEFLG@utf?98?$AA@
  00037	48 8b 4c 24 58	 mov	 rcx, QWORD PTR obj$[rsp]
  0003c	e8 00 00 00 00	 call	 PyUnicode_AsEncodedString
  00041	48 89 44 24 20	 mov	 QWORD PTR encoded$[rsp], rax

; 1885 :         if (encoded == NULL)

  00046	48 83 7c 24 20
	00		 cmp	 QWORD PTR encoded$[rsp], 0
  0004c	75 05		 jne	 SHORT $LN14@save_unico

; 1886 :             goto error;

  0004e	e9 49 02 00 00	 jmp	 $error$21769
$LN14@save_unico:

; 1887 : 
; 1888 :         size = PyBytes_GET_SIZE(encoded);

  00053	48 8b 44 24 20	 mov	 rax, QWORD PTR encoded$[rsp]
  00058	48 8b 40 58	 mov	 rax, QWORD PTR [rax+88]
  0005c	8b 80 00 01 00
	00		 mov	 eax, DWORD PTR [rax+256]
  00062	25 00 00 00 08	 and	 eax, 134217728		; 08000000H
  00067	85 c0		 test	 eax, eax
  00069	75 1c		 jne	 SHORT $LN18@save_unico
  0006b	41 b8 60 07 00
	00		 mov	 r8d, 1888		; 00000760H
  00071	48 8d 15 00 00
	00 00		 lea	 rdx, OFFSET FLAT:??_C@_1CK@DHJKOIMG@?$AA?4?$AA?4?$AA?2?$AAM?$AAo?$AAd?$AAu?$AAl?$AAe?$AAs?$AA?2?$AA_?$AAp?$AAi?$AAc?$AAk?$AAl?$AAe?$AA?4?$AAc?$AA?$AA@
  00078	48 8d 0d 00 00
	00 00		 lea	 rcx, OFFSET FLAT:??_C@_1CO@HFMJJPBH@?$AAP?$AAy?$AAB?$AAy?$AAt?$AAe?$AAs?$AA_?$AAC?$AAh?$AAe?$AAc?$AAk?$AA?$CI?$AAe?$AAn?$AAc?$AAo?$AAd?$AAe?$AAd?$AA?$CJ?$AA?$AA@
  0007f	ff 15 00 00 00
	00		 call	 QWORD PTR __imp__wassert
  00085	33 c0		 xor	 eax, eax
$LN18@save_unico:
  00087	48 8b 44 24 20	 mov	 rax, QWORD PTR encoded$[rsp]
  0008c	48 8b 40 60	 mov	 rax, QWORD PTR [rax+96]
  00090	48 89 44 24 28	 mov	 QWORD PTR size$[rsp], rax

; 1889 :         if (size > 0xffffffffL) {

  00095	b8 ff ff ff ff	 mov	 eax, -1
  0009a	48 39 44 24 28	 cmp	 QWORD PTR size$[rsp], rax
  0009f	7e 18		 jle	 SHORT $LN13@save_unico

; 1890 :             PyErr_SetString(PyExc_OverflowError,
; 1891 :                             "cannot serialize a string larger than 4 GiB");

  000a1	48 8d 15 00 00
	00 00		 lea	 rdx, OFFSET FLAT:??_C@_0CM@LALEGHBC@cannot?5serialize?5a?5string?5larger@
  000a8	48 8b 0d 00 00
	00 00		 mov	 rcx, QWORD PTR PyExc_OverflowError
  000af	e8 00 00 00 00	 call	 PyErr_SetString

; 1892 :             goto error;          /* string too large */

  000b4	e9 e3 01 00 00	 jmp	 $error$21769
$LN13@save_unico:

; 1893 :         }
; 1894 : 
; 1895 :         pdata[0] = BINUNICODE;

  000b9	c6 44 24 30 58	 mov	 BYTE PTR pdata$21764[rsp], 88 ; 00000058H

; 1896 :         pdata[1] = (unsigned char)(size & 0xff);

  000be	48 8b 44 24 28	 mov	 rax, QWORD PTR size$[rsp]
  000c3	48 25 ff 00 00
	00		 and	 rax, 255		; 000000ffH
  000c9	88 44 24 31	 mov	 BYTE PTR pdata$21764[rsp+1], al

; 1897 :         pdata[2] = (unsigned char)((size >> 8) & 0xff);

  000cd	48 8b 44 24 28	 mov	 rax, QWORD PTR size$[rsp]
  000d2	48 c1 f8 08	 sar	 rax, 8
  000d6	48 25 ff 00 00
	00		 and	 rax, 255		; 000000ffH
  000dc	88 44 24 32	 mov	 BYTE PTR pdata$21764[rsp+2], al

; 1898 :         pdata[3] = (unsigned char)((size >> 16) & 0xff);

  000e0	48 8b 44 24 28	 mov	 rax, QWORD PTR size$[rsp]
  000e5	48 c1 f8 10	 sar	 rax, 16
  000e9	48 25 ff 00 00
	00		 and	 rax, 255		; 000000ffH
  000ef	88 44 24 33	 mov	 BYTE PTR pdata$21764[rsp+3], al

; 1899 :         pdata[4] = (unsigned char)((size >> 24) & 0xff);

  000f3	48 8b 44 24 28	 mov	 rax, QWORD PTR size$[rsp]
  000f8	48 c1 f8 18	 sar	 rax, 24
  000fc	48 25 ff 00 00
	00		 and	 rax, 255		; 000000ffH
  00102	88 44 24 34	 mov	 BYTE PTR pdata$21764[rsp+4], al

; 1900 : 
; 1901 :         if (_Pickler_Write(self, pdata, 5) < 0)

  00106	41 b8 05 00 00
	00		 mov	 r8d, 5
  0010c	48 8d 54 24 30	 lea	 rdx, QWORD PTR pdata$21764[rsp]
  00111	48 8b 4c 24 50	 mov	 rcx, QWORD PTR self$[rsp]
  00116	e8 00 00 00 00	 call	 _Pickler_Write
  0011b	48 85 c0	 test	 rax, rax
  0011e	7d 05		 jge	 SHORT $LN12@save_unico

; 1902 :             goto error;

  00120	e9 77 01 00 00	 jmp	 $error$21769
$LN12@save_unico:

; 1903 : 
; 1904 :         if (_Pickler_Write(self, PyBytes_AS_STRING(encoded), size) < 0)

  00125	48 8b 44 24 20	 mov	 rax, QWORD PTR encoded$[rsp]
  0012a	48 8b 40 58	 mov	 rax, QWORD PTR [rax+88]
  0012e	8b 80 00 01 00
	00		 mov	 eax, DWORD PTR [rax+256]
  00134	25 00 00 00 08	 and	 eax, 134217728		; 08000000H
  00139	85 c0		 test	 eax, eax
  0013b	75 1c		 jne	 SHORT $LN19@save_unico
  0013d	41 b8 70 07 00
	00		 mov	 r8d, 1904		; 00000770H
  00143	48 8d 15 00 00
	00 00		 lea	 rdx, OFFSET FLAT:??_C@_1CK@DHJKOIMG@?$AA?4?$AA?4?$AA?2?$AAM?$AAo?$AAd?$AAu?$AAl?$AAe?$AAs?$AA?2?$AA_?$AAp?$AAi?$AAc?$AAk?$AAl?$AAe?$AA?4?$AAc?$AA?$AA@
  0014a	48 8d 0d 00 00
	00 00		 lea	 rcx, OFFSET FLAT:??_C@_1CO@HFMJJPBH@?$AAP?$AAy?$AAB?$AAy?$AAt?$AAe?$AAs?$AA_?$AAC?$AAh?$AAe?$AAc?$AAk?$AA?$CI?$AAe?$AAn?$AAc?$AAo?$AAd?$AAe?$AAd?$AA?$CJ?$AA?$AA@
  00151	ff 15 00 00 00
	00		 call	 QWORD PTR __imp__wassert
  00157	33 c0		 xor	 eax, eax
$LN19@save_unico:
  00159	48 8b 44 24 20	 mov	 rax, QWORD PTR encoded$[rsp]
  0015e	48 83 c0 78	 add	 rax, 120		; 00000078H
  00162	4c 8b 44 24 28	 mov	 r8, QWORD PTR size$[rsp]
  00167	48 8b d0	 mov	 rdx, rax
  0016a	48 8b 4c 24 50	 mov	 rcx, QWORD PTR self$[rsp]
  0016f	e8 00 00 00 00	 call	 _Pickler_Write
  00174	48 85 c0	 test	 rax, rax
  00177	7d 05		 jge	 SHORT $LN11@save_unico

; 1905 :             goto error;

  00179	e9 1e 01 00 00	 jmp	 $error$21769
$LN11@save_unico:

; 1906 :     }
; 1907 :     else {

  0017e	e9 f6 00 00 00	 jmp	 $LN10@save_unico
$LN15@save_unico:

; 1908 :         const char unicode_op = UNICODE;

  00183	c6 44 24 38 56	 mov	 BYTE PTR unicode_op$21786[rsp], 86 ; 00000056H

; 1909 : 
; 1910 :         encoded = raw_unicode_escape(obj);

  00188	48 8b 4c 24 58	 mov	 rcx, QWORD PTR obj$[rsp]
  0018d	e8 00 00 00 00	 call	 raw_unicode_escape
  00192	48 89 44 24 20	 mov	 QWORD PTR encoded$[rsp], rax

; 1911 :         if (encoded == NULL)

  00197	48 83 7c 24 20
	00		 cmp	 QWORD PTR encoded$[rsp], 0
  0019d	75 05		 jne	 SHORT $LN9@save_unico

; 1912 :             goto error;

  0019f	e9 f8 00 00 00	 jmp	 $error$21769
$LN9@save_unico:

; 1913 : 
; 1914 :         if (_Pickler_Write(self, &unicode_op, 1) < 0)

  001a4	41 b8 01 00 00
	00		 mov	 r8d, 1
  001aa	48 8d 54 24 38	 lea	 rdx, QWORD PTR unicode_op$21786[rsp]
  001af	48 8b 4c 24 50	 mov	 rcx, QWORD PTR self$[rsp]
  001b4	e8 00 00 00 00	 call	 _Pickler_Write
  001b9	48 85 c0	 test	 rax, rax
  001bc	7d 05		 jge	 SHORT $LN8@save_unico

; 1915 :             goto error;

  001be	e9 d9 00 00 00	 jmp	 $error$21769
$LN8@save_unico:

; 1916 : 
; 1917 :         size = PyBytes_GET_SIZE(encoded);

  001c3	48 8b 44 24 20	 mov	 rax, QWORD PTR encoded$[rsp]
  001c8	48 8b 40 58	 mov	 rax, QWORD PTR [rax+88]
  001cc	8b 80 00 01 00
	00		 mov	 eax, DWORD PTR [rax+256]
  001d2	25 00 00 00 08	 and	 eax, 134217728		; 08000000H
  001d7	85 c0		 test	 eax, eax
  001d9	75 1c		 jne	 SHORT $LN20@save_unico
  001db	41 b8 7d 07 00
	00		 mov	 r8d, 1917		; 0000077dH
  001e1	48 8d 15 00 00
	00 00		 lea	 rdx, OFFSET FLAT:??_C@_1CK@DHJKOIMG@?$AA?4?$AA?4?$AA?2?$AAM?$AAo?$AAd?$AAu?$AAl?$AAe?$AAs?$AA?2?$AA_?$AAp?$AAi?$AAc?$AAk?$AAl?$AAe?$AA?4?$AAc?$AA?$AA@
  001e8	48 8d 0d 00 00
	00 00		 lea	 rcx, OFFSET FLAT:??_C@_1CO@HFMJJPBH@?$AAP?$AAy?$AAB?$AAy?$AAt?$AAe?$AAs?$AA_?$AAC?$AAh?$AAe?$AAc?$AAk?$AA?$CI?$AAe?$AAn?$AAc?$AAo?$AAd?$AAe?$AAd?$AA?$CJ?$AA?$AA@
  001ef	ff 15 00 00 00
	00		 call	 QWORD PTR __imp__wassert
  001f5	33 c0		 xor	 eax, eax
$LN20@save_unico:
  001f7	48 8b 44 24 20	 mov	 rax, QWORD PTR encoded$[rsp]
  001fc	48 8b 40 60	 mov	 rax, QWORD PTR [rax+96]
  00200	48 89 44 24 28	 mov	 QWORD PTR size$[rsp], rax

; 1918 :         if (_Pickler_Write(self, PyBytes_AS_STRING(encoded), size) < 0)

  00205	48 8b 44 24 20	 mov	 rax, QWORD PTR encoded$[rsp]
  0020a	48 8b 40 58	 mov	 rax, QWORD PTR [rax+88]
  0020e	8b 80 00 01 00
	00		 mov	 eax, DWORD PTR [rax+256]
  00214	25 00 00 00 08	 and	 eax, 134217728		; 08000000H
  00219	85 c0		 test	 eax, eax
  0021b	75 1c		 jne	 SHORT $LN21@save_unico
  0021d	41 b8 7e 07 00
	00		 mov	 r8d, 1918		; 0000077eH
  00223	48 8d 15 00 00
	00 00		 lea	 rdx, OFFSET FLAT:??_C@_1CK@DHJKOIMG@?$AA?4?$AA?4?$AA?2?$AAM?$AAo?$AAd?$AAu?$AAl?$AAe?$AAs?$AA?2?$AA_?$AAp?$AAi?$AAc?$AAk?$AAl?$AAe?$AA?4?$AAc?$AA?$AA@
  0022a	48 8d 0d 00 00
	00 00		 lea	 rcx, OFFSET FLAT:??_C@_1CO@HFMJJPBH@?$AAP?$AAy?$AAB?$AAy?$AAt?$AAe?$AAs?$AA_?$AAC?$AAh?$AAe?$AAc?$AAk?$AA?$CI?$AAe?$AAn?$AAc?$AAo?$AAd?$AAe?$AAd?$AA?$CJ?$AA?$AA@
  00231	ff 15 00 00 00
	00		 call	 QWORD PTR __imp__wassert
  00237	33 c0		 xor	 eax, eax
$LN21@save_unico:
  00239	48 8b 44 24 20	 mov	 rax, QWORD PTR encoded$[rsp]
  0023e	48 83 c0 78	 add	 rax, 120		; 00000078H
  00242	4c 8b 44 24 28	 mov	 r8, QWORD PTR size$[rsp]
  00247	48 8b d0	 mov	 rdx, rax
  0024a	48 8b 4c 24 50	 mov	 rcx, QWORD PTR self$[rsp]
  0024f	e8 00 00 00 00	 call	 _Pickler_Write
  00254	48 85 c0	 test	 rax, rax
  00257	7d 02		 jge	 SHORT $LN7@save_unico

; 1919 :             goto error;

  00259	eb 41		 jmp	 SHORT $error$21769
$LN7@save_unico:

; 1920 : 
; 1921 :         if (_Pickler_Write(self, "\n", 1) < 0)

  0025b	41 b8 01 00 00
	00		 mov	 r8d, 1
  00261	48 8d 15 00 00
	00 00		 lea	 rdx, OFFSET FLAT:??_C@_01EEMJAFIK@?6?$AA@
  00268	48 8b 4c 24 50	 mov	 rcx, QWORD PTR self$[rsp]
  0026d	e8 00 00 00 00	 call	 _Pickler_Write
  00272	48 85 c0	 test	 rax, rax
  00275	7d 02		 jge	 SHORT $LN6@save_unico

; 1922 :             goto error;

  00277	eb 23		 jmp	 SHORT $error$21769
$LN6@save_unico:
$LN10@save_unico:

; 1923 :     }
; 1924 :     if (memo_put(self, obj) < 0)

  00279	48 8b 54 24 58	 mov	 rdx, QWORD PTR obj$[rsp]
  0027e	48 8b 4c 24 50	 mov	 rcx, QWORD PTR self$[rsp]
  00283	e8 00 00 00 00	 call	 memo_put
  00288	85 c0		 test	 eax, eax
  0028a	7d 02		 jge	 SHORT $LN5@save_unico

; 1925 :         goto error;

  0028c	eb 0e		 jmp	 SHORT $error$21769
$LN5@save_unico:

; 1926 : 
; 1927 :     Py_DECREF(encoded);

  0028e	48 8b 4c 24 20	 mov	 rcx, QWORD PTR encoded$[rsp]
  00293	e8 00 00 00 00	 call	 _Py_DecRef

; 1928 :     return 0;

  00298	33 c0		 xor	 eax, eax
  0029a	eb 1d		 jmp	 SHORT $LN16@save_unico
$error$21769:
$LN4@save_unico:

; 1929 : 
; 1930 :   error:
; 1931 :     Py_XDECREF(encoded);

  0029c	48 83 7c 24 20
	00		 cmp	 QWORD PTR encoded$[rsp], 0
  002a2	74 0a		 je	 SHORT $LN1@save_unico
  002a4	48 8b 4c 24 20	 mov	 rcx, QWORD PTR encoded$[rsp]
  002a9	e8 00 00 00 00	 call	 _Py_DecRef
$LN1@save_unico:
  002ae	33 c0		 xor	 eax, eax
  002b0	85 c0		 test	 eax, eax
  002b2	75 e8		 jne	 SHORT $LN4@save_unico

; 1932 :     return -1;

  002b4	b8 ff ff ff ff	 mov	 eax, -1
$LN16@save_unico:

; 1933 : }

  002b9	48 83 c4 48	 add	 rsp, 72			; 00000048H
  002bd	c3		 ret	 0
save_unicode ENDP
_TEXT	ENDS
PUBLIC	??_C@_1DA@BEFBIMLJ@?$AAP?$AAy?$AAB?$AAy?$AAt?$AAe?$AAA?$AAr?$AAr?$AAa?$AAy?$AA_?$AAC?$AAh?$AAe?$AAc?$AAk?$AA?$CI?$AAr?$AAe?$AAp?$AAr?$AA?$CJ?$AA?$AA@ ; `string'
PUBLIC	??_C@_1EI@FHOLGKIM@?$AA?$CI?$AA?$CI?$AAP?$AAy?$AAU?$AAn?$AAi?$AAc?$AAo?$AAd?$AAe?$AAO?$AAb?$AAj?$AAe?$AAc?$AAt?$AA?$CK?$AA?$CJ?$AA?$CI?$AAo?$AAb?$AAj?$AA?$CJ?$AA?$CJ?$AA?9?$AA?$DO?$AAd?$AAa?$AAt?$AAa?$AA?4@ ; `string'
PUBLIC	??_C@_1DA@OCGMGMDG@?$AAP?$AAy?$AAU?$AAn?$AAi?$AAc?$AAo?$AAd?$AAe?$AA_?$AAI?$AAS?$AA_?$AAR?$AAE?$AAA?$AAD?$AAY?$AA?$CI?$AAo?$AAb?$AAj?$AA?$CJ?$AA?$AA@ ; `string'
PUBLIC	??_C@_1CK@KFNFIMBM@?$AAP?$AAy?$AAU?$AAn?$AAi?$AAc?$AAo?$AAd?$AAe?$AA_?$AAC?$AAh?$AAe?$AAc?$AAk?$AA?$CI?$AAo?$AAb?$AAj?$AA?$CJ?$AA?$AA@ ; `string'
EXTRN	Py_hexdigits:QWORD
EXTRN	_PyByteArray_empty_string:BYTE
EXTRN	PyByteArray_Type:BYTE
EXTRN	PyByteArray_FromStringAndSize:PROC
EXTRN	_PyUnicode_Ready:PROC
;	COMDAT pdata
pdata	SEGMENT
$pdata$raw_unicode_escape DD imagerel raw_unicode_escape
	DD	imagerel raw_unicode_escape+2080
	DD	imagerel $unwind$raw_unicode_escape
pdata	ENDS
;	COMDAT xdata
xdata	SEGMENT
$unwind$raw_unicode_escape DD 020c01H
	DD	015010cH
xdata	ENDS
;	COMDAT ??_C@_1DA@BEFBIMLJ@?$AAP?$AAy?$AAB?$AAy?$AAt?$AAe?$AAA?$AAr?$AAr?$AAa?$AAy?$AA_?$AAC?$AAh?$AAe?$AAc?$AAk?$AA?$CI?$AAr?$AAe?$AAp?$AAr?$AA?$CJ?$AA?$AA@
CONST	SEGMENT
??_C@_1DA@BEFBIMLJ@?$AAP?$AAy?$AAB?$AAy?$AAt?$AAe?$AAA?$AAr?$AAr?$AAa?$AAy?$AA_?$AAC?$AAh?$AAe?$AAc?$AAk?$AA?$CI?$AAr?$AAe?$AAp?$AAr?$AA?$CJ?$AA?$AA@ DB 'P'
	DB	00H, 'y', 00H, 'B', 00H, 'y', 00H, 't', 00H, 'e', 00H, 'A', 00H
	DB	'r', 00H, 'r', 00H, 'a', 00H, 'y', 00H, '_', 00H, 'C', 00H, 'h'
	DB	00H, 'e', 00H, 'c', 00H, 'k', 00H, '(', 00H, 'r', 00H, 'e', 00H
	DB	'p', 00H, 'r', 00H, ')', 00H, 00H, 00H	; `string'
CONST	ENDS
;	COMDAT ??_C@_1EI@FHOLGKIM@?$AA?$CI?$AA?$CI?$AAP?$AAy?$AAU?$AAn?$AAi?$AAc?$AAo?$AAd?$AAe?$AAO?$AAb?$AAj?$AAe?$AAc?$AAt?$AA?$CK?$AA?$CJ?$AA?$CI?$AAo?$AAb?$AAj?$AA?$CJ?$AA?$CJ?$AA?9?$AA?$DO?$AAd?$AAa?$AAt?$AAa?$AA?4@
CONST	SEGMENT
??_C@_1EI@FHOLGKIM@?$AA?$CI?$AA?$CI?$AAP?$AAy?$AAU?$AAn?$AAi?$AAc?$AAo?$AAd?$AAe?$AAO?$AAb?$AAj?$AAe?$AAc?$AAt?$AA?$CK?$AA?$CJ?$AA?$CI?$AAo?$AAb?$AAj?$AA?$CJ?$AA?$CJ?$AA?9?$AA?$DO?$AAd?$AAa?$AAt?$AAa?$AA?4@ DB '('
	DB	00H, '(', 00H, 'P', 00H, 'y', 00H, 'U', 00H, 'n', 00H, 'i', 00H
	DB	'c', 00H, 'o', 00H, 'd', 00H, 'e', 00H, 'O', 00H, 'b', 00H, 'j'
	DB	00H, 'e', 00H, 'c', 00H, 't', 00H, '*', 00H, ')', 00H, '(', 00H
	DB	'o', 00H, 'b', 00H, 'j', 00H, ')', 00H, ')', 00H, '-', 00H, '>'
	DB	00H, 'd', 00H, 'a', 00H, 't', 00H, 'a', 00H, '.', 00H, 'a', 00H
	DB	'n', 00H, 'y', 00H, 00H, 00H			; `string'
CONST	ENDS
;	COMDAT ??_C@_1DA@OCGMGMDG@?$AAP?$AAy?$AAU?$AAn?$AAi?$AAc?$AAo?$AAd?$AAe?$AA_?$AAI?$AAS?$AA_?$AAR?$AAE?$AAA?$AAD?$AAY?$AA?$CI?$AAo?$AAb?$AAj?$AA?$CJ?$AA?$AA@
CONST	SEGMENT
??_C@_1DA@OCGMGMDG@?$AAP?$AAy?$AAU?$AAn?$AAi?$AAc?$AAo?$AAd?$AAe?$AA_?$AAI?$AAS?$AA_?$AAR?$AAE?$AAA?$AAD?$AAY?$AA?$CI?$AAo?$AAb?$AAj?$AA?$CJ?$AA?$AA@ DB 'P'
	DB	00H, 'y', 00H, 'U', 00H, 'n', 00H, 'i', 00H, 'c', 00H, 'o', 00H
	DB	'd', 00H, 'e', 00H, '_', 00H, 'I', 00H, 'S', 00H, '_', 00H, 'R'
	DB	00H, 'E', 00H, 'A', 00H, 'D', 00H, 'Y', 00H, '(', 00H, 'o', 00H
	DB	'b', 00H, 'j', 00H, ')', 00H, 00H, 00H	; `string'
CONST	ENDS
;	COMDAT ??_C@_1CK@KFNFIMBM@?$AAP?$AAy?$AAU?$AAn?$AAi?$AAc?$AAo?$AAd?$AAe?$AA_?$AAC?$AAh?$AAe?$AAc?$AAk?$AA?$CI?$AAo?$AAb?$AAj?$AA?$CJ?$AA?$AA@
CONST	SEGMENT
??_C@_1CK@KFNFIMBM@?$AAP?$AAy?$AAU?$AAn?$AAi?$AAc?$AAo?$AAd?$AAe?$AA_?$AAC?$AAh?$AAe?$AAc?$AAk?$AA?$CI?$AAo?$AAb?$AAj?$AA?$CJ?$AA?$AA@ DB 'P'
	DB	00H, 'y', 00H, 'U', 00H, 'n', 00H, 'i', 00H, 'c', 00H, 'o', 00H
	DB	'd', 00H, 'e', 00H, '_', 00H, 'C', 00H, 'h', 00H, 'e', 00H, 'c'
	DB	00H, 'k', 00H, '(', 00H, 'o', 00H, 'b', 00H, 'j', 00H, ')', 00H
	DB	00H, 00H					; `string'
; Function compile flags: /Odtp
CONST	ENDS
;	COMDAT raw_unicode_escape
_TEXT	SEGMENT
kind$ = 32
p$ = 40
i$ = 48
size$ = 56
data$ = 64
expandsize$ = 72
repr$ = 80
result$ = 88
ch$21732 = 96
tv78 = 100
tv162 = 104
tv171 = 112
tv215 = 120
tv228 = 128
tv227 = 132
tv310 = 136
tv328 = 144
obj$ = 176
raw_unicode_escape PROC					; COMDAT

; 1812 : {

  00000	48 89 4c 24 08	 mov	 QWORD PTR [rsp+8], rcx
  00005	48 81 ec a8 00
	00 00		 sub	 rsp, 168		; 000000a8H

; 1813 :     PyObject *repr, *result;
; 1814 :     char *p;
; 1815 :     Py_ssize_t i, size, expandsize;
; 1816 :     void *data;
; 1817 :     unsigned int kind;
; 1818 : 
; 1819 :     if (PyUnicode_READY(obj))

  0000c	48 8b 84 24 b0
	00 00 00	 mov	 rax, QWORD PTR obj$[rsp]
  00014	48 8b 40 58	 mov	 rax, QWORD PTR [rax+88]
  00018	8b 80 00 01 00
	00		 mov	 eax, DWORD PTR [rax+256]
  0001e	25 00 00 00 10	 and	 eax, 268435456		; 10000000H
  00023	85 c0		 test	 eax, eax
  00025	75 1c		 jne	 SHORT $LN17@raw_unicod
  00027	41 b8 1b 07 00
	00		 mov	 r8d, 1819		; 0000071bH
  0002d	48 8d 15 00 00
	00 00		 lea	 rdx, OFFSET FLAT:??_C@_1CK@DHJKOIMG@?$AA?4?$AA?4?$AA?2?$AAM?$AAo?$AAd?$AAu?$AAl?$AAe?$AAs?$AA?2?$AA_?$AAp?$AAi?$AAc?$AAk?$AAl?$AAe?$AA?4?$AAc?$AA?$AA@
  00034	48 8d 0d 00 00
	00 00		 lea	 rcx, OFFSET FLAT:??_C@_1CK@KFNFIMBM@?$AAP?$AAy?$AAU?$AAn?$AAi?$AAc?$AAo?$AAd?$AAe?$AA_?$AAC?$AAh?$AAe?$AAc?$AAk?$AA?$CI?$AAo?$AAb?$AAj?$AA?$CJ?$AA?$AA@
  0003b	ff 15 00 00 00
	00		 call	 QWORD PTR __imp__wassert
  00041	33 c0		 xor	 eax, eax
$LN17@raw_unicod:
  00043	48 8b 84 24 b0
	00 00 00	 mov	 rax, QWORD PTR obj$[rsp]
  0004b	8b 40 70	 mov	 eax, DWORD PTR [rax+112]
  0004e	c1 e8 07	 shr	 eax, 7
  00051	83 e0 01	 and	 eax, 1
  00054	85 c0		 test	 eax, eax
  00056	74 0a		 je	 SHORT $LN18@raw_unicod
  00058	c7 44 24 64 00
	00 00 00	 mov	 DWORD PTR tv78[rsp], 0
  00060	eb 11		 jmp	 SHORT $LN19@raw_unicod
$LN18@raw_unicod:
  00062	48 8b 8c 24 b0
	00 00 00	 mov	 rcx, QWORD PTR obj$[rsp]
  0006a	e8 00 00 00 00	 call	 _PyUnicode_Ready
  0006f	89 44 24 64	 mov	 DWORD PTR tv78[rsp], eax
$LN19@raw_unicod:
  00073	83 7c 24 64 00	 cmp	 DWORD PTR tv78[rsp], 0
  00078	74 07		 je	 SHORT $LN14@raw_unicod

; 1820 :         return NULL;

  0007a	33 c0		 xor	 eax, eax
  0007c	e9 97 07 00 00	 jmp	 $LN15@raw_unicod
$LN14@raw_unicod:

; 1821 : 
; 1822 :     size = PyUnicode_GET_LENGTH(obj);

  00081	48 8b 84 24 b0
	00 00 00	 mov	 rax, QWORD PTR obj$[rsp]
  00089	48 8b 40 58	 mov	 rax, QWORD PTR [rax+88]
  0008d	8b 80 00 01 00
	00		 mov	 eax, DWORD PTR [rax+256]
  00093	25 00 00 00 10	 and	 eax, 268435456		; 10000000H
  00098	85 c0		 test	 eax, eax
  0009a	75 1c		 jne	 SHORT $LN20@raw_unicod
  0009c	41 b8 1e 07 00
	00		 mov	 r8d, 1822		; 0000071eH
  000a2	48 8d 15 00 00
	00 00		 lea	 rdx, OFFSET FLAT:??_C@_1CK@DHJKOIMG@?$AA?4?$AA?4?$AA?2?$AAM?$AAo?$AAd?$AAu?$AAl?$AAe?$AAs?$AA?2?$AA_?$AAp?$AAi?$AAc?$AAk?$AAl?$AAe?$AA?4?$AAc?$AA?$AA@
  000a9	48 8d 0d 00 00
	00 00		 lea	 rcx, OFFSET FLAT:??_C@_1CK@KFNFIMBM@?$AAP?$AAy?$AAU?$AAn?$AAi?$AAc?$AAo?$AAd?$AAe?$AA_?$AAC?$AAh?$AAe?$AAc?$AAk?$AA?$CI?$AAo?$AAb?$AAj?$AA?$CJ?$AA?$AA@
  000b0	ff 15 00 00 00
	00		 call	 QWORD PTR __imp__wassert
  000b6	33 c0		 xor	 eax, eax
$LN20@raw_unicod:
  000b8	48 8b 84 24 b0
	00 00 00	 mov	 rax, QWORD PTR obj$[rsp]
  000c0	8b 40 70	 mov	 eax, DWORD PTR [rax+112]
  000c3	c1 e8 07	 shr	 eax, 7
  000c6	83 e0 01	 and	 eax, 1
  000c9	85 c0		 test	 eax, eax
  000cb	75 1c		 jne	 SHORT $LN21@raw_unicod
  000cd	41 b8 1e 07 00
	00		 mov	 r8d, 1822		; 0000071eH
  000d3	48 8d 15 00 00
	00 00		 lea	 rdx, OFFSET FLAT:??_C@_1CK@DHJKOIMG@?$AA?4?$AA?4?$AA?2?$AAM?$AAo?$AAd?$AAu?$AAl?$AAe?$AAs?$AA?2?$AA_?$AAp?$AAi?$AAc?$AAk?$AAl?$AAe?$AA?4?$AAc?$AA?$AA@
  000da	48 8d 0d 00 00
	00 00		 lea	 rcx, OFFSET FLAT:??_C@_1DA@OCGMGMDG@?$AAP?$AAy?$AAU?$AAn?$AAi?$AAc?$AAo?$AAd?$AAe?$AA_?$AAI?$AAS?$AA_?$AAR?$AAE?$AAA?$AAD?$AAY?$AA?$CI?$AAo?$AAb?$AAj?$AA?$CJ?$AA?$AA@
  000e1	ff 15 00 00 00
	00		 call	 QWORD PTR __imp__wassert
  000e7	33 c0		 xor	 eax, eax
$LN21@raw_unicod:
  000e9	48 8b 84 24 b0
	00 00 00	 mov	 rax, QWORD PTR obj$[rsp]
  000f1	48 8b 40 60	 mov	 rax, QWORD PTR [rax+96]
  000f5	48 89 44 24 38	 mov	 QWORD PTR size$[rsp], rax

; 1823 :     data = PyUnicode_DATA(obj);

  000fa	48 8b 84 24 b0
	00 00 00	 mov	 rax, QWORD PTR obj$[rsp]
  00102	48 8b 40 58	 mov	 rax, QWORD PTR [rax+88]
  00106	8b 80 00 01 00
	00		 mov	 eax, DWORD PTR [rax+256]
  0010c	25 00 00 00 10	 and	 eax, 268435456		; 10000000H
  00111	85 c0		 test	 eax, eax
  00113	75 1c		 jne	 SHORT $LN22@raw_unicod
  00115	41 b8 1f 07 00
	00		 mov	 r8d, 1823		; 0000071fH
  0011b	48 8d 15 00 00
	00 00		 lea	 rdx, OFFSET FLAT:??_C@_1CK@DHJKOIMG@?$AA?4?$AA?4?$AA?2?$AAM?$AAo?$AAd?$AAu?$AAl?$AAe?$AAs?$AA?2?$AA_?$AAp?$AAi?$AAc?$AAk?$AAl?$AAe?$AA?4?$AAc?$AA?$AA@
  00122	48 8d 0d 00 00
	00 00		 lea	 rcx, OFFSET FLAT:??_C@_1CK@KFNFIMBM@?$AAP?$AAy?$AAU?$AAn?$AAi?$AAc?$AAo?$AAd?$AAe?$AA_?$AAC?$AAh?$AAe?$AAc?$AAk?$AA?$CI?$AAo?$AAb?$AAj?$AA?$CJ?$AA?$AA@
  00129	ff 15 00 00 00
	00		 call	 QWORD PTR __imp__wassert
  0012f	33 c0		 xor	 eax, eax
$LN22@raw_unicod:
  00131	48 8b 84 24 b0
	00 00 00	 mov	 rax, QWORD PTR obj$[rsp]
  00139	8b 40 70	 mov	 eax, DWORD PTR [rax+112]
  0013c	c1 e8 05	 shr	 eax, 5
  0013f	83 e0 01	 and	 eax, 1
  00142	85 c0		 test	 eax, eax
  00144	0f 84 b1 00 00
	00		 je	 $LN28@raw_unicod
  0014a	48 8b 84 24 b0
	00 00 00	 mov	 rax, QWORD PTR obj$[rsp]
  00152	48 8b 40 58	 mov	 rax, QWORD PTR [rax+88]
  00156	8b 80 00 01 00
	00		 mov	 eax, DWORD PTR [rax+256]
  0015c	25 00 00 00 10	 and	 eax, 268435456		; 10000000H
  00161	85 c0		 test	 eax, eax
  00163	75 1c		 jne	 SHORT $LN23@raw_unicod
  00165	41 b8 1f 07 00
	00		 mov	 r8d, 1823		; 0000071fH
  0016b	48 8d 15 00 00
	00 00		 lea	 rdx, OFFSET FLAT:??_C@_1CK@DHJKOIMG@?$AA?4?$AA?4?$AA?2?$AAM?$AAo?$AAd?$AAu?$AAl?$AAe?$AAs?$AA?2?$AA_?$AAp?$AAi?$AAc?$AAk?$AAl?$AAe?$AA?4?$AAc?$AA?$AA@
  00172	48 8d 0d 00 00
	00 00		 lea	 rcx, OFFSET FLAT:??_C@_1CK@KFNFIMBM@?$AAP?$AAy?$AAU?$AAn?$AAi?$AAc?$AAo?$AAd?$AAe?$AA_?$AAC?$AAh?$AAe?$AAc?$AAk?$AA?$CI?$AAo?$AAb?$AAj?$AA?$CJ?$AA?$AA@
  00179	ff 15 00 00 00
	00		 call	 QWORD PTR __imp__wassert
  0017f	33 c0		 xor	 eax, eax
$LN23@raw_unicod:
  00181	48 8b 84 24 b0
	00 00 00	 mov	 rax, QWORD PTR obj$[rsp]
  00189	8b 40 70	 mov	 eax, DWORD PTR [rax+112]
  0018c	c1 e8 07	 shr	 eax, 7
  0018f	83 e0 01	 and	 eax, 1
  00192	85 c0		 test	 eax, eax
  00194	75 1c		 jne	 SHORT $LN24@raw_unicod
  00196	41 b8 1f 07 00
	00		 mov	 r8d, 1823		; 0000071fH
  0019c	48 8d 15 00 00
	00 00		 lea	 rdx, OFFSET FLAT:??_C@_1CK@DHJKOIMG@?$AA?4?$AA?4?$AA?2?$AAM?$AAo?$AAd?$AAu?$AAl?$AAe?$AAs?$AA?2?$AA_?$AAp?$AAi?$AAc?$AAk?$AAl?$AAe?$AA?4?$AAc?$AA?$AA@
  001a3	48 8d 0d 00 00
	00 00		 lea	 rcx, OFFSET FLAT:??_C@_1DA@OCGMGMDG@?$AAP?$AAy?$AAU?$AAn?$AAi?$AAc?$AAo?$AAd?$AAe?$AA_?$AAI?$AAS?$AA_?$AAR?$AAE?$AAA?$AAD?$AAY?$AA?$CI?$AAo?$AAb?$AAj?$AA?$CJ?$AA?$AA@
  001aa	ff 15 00 00 00
	00		 call	 QWORD PTR __imp__wassert
  001b0	33 c0		 xor	 eax, eax
$LN24@raw_unicod:
  001b2	48 8b 84 24 b0
	00 00 00	 mov	 rax, QWORD PTR obj$[rsp]
  001ba	8b 40 70	 mov	 eax, DWORD PTR [rax+112]
  001bd	c1 e8 06	 shr	 eax, 6
  001c0	83 e0 01	 and	 eax, 1
  001c3	85 c0		 test	 eax, eax
  001c5	74 15		 je	 SHORT $LN25@raw_unicod
  001c7	48 8b 84 24 b0
	00 00 00	 mov	 rax, QWORD PTR obj$[rsp]
  001cf	48 05 80 00 00
	00		 add	 rax, 128		; 00000080H
  001d5	48 89 44 24 68	 mov	 QWORD PTR tv162[rsp], rax
  001da	eb 13		 jmp	 SHORT $LN26@raw_unicod
$LN25@raw_unicod:
  001dc	48 8b 84 24 b0
	00 00 00	 mov	 rax, QWORD PTR obj$[rsp]
  001e4	48 05 a0 00 00
	00		 add	 rax, 160		; 000000a0H
  001ea	48 89 44 24 68	 mov	 QWORD PTR tv162[rsp], rax
$LN26@raw_unicod:
  001ef	48 8b 44 24 68	 mov	 rax, QWORD PTR tv162[rsp]
  001f4	48 89 44 24 70	 mov	 QWORD PTR tv171[rsp], rax
  001f9	eb 42		 jmp	 SHORT $LN29@raw_unicod
$LN28@raw_unicod:
  001fb	48 8b 84 24 b0
	00 00 00	 mov	 rax, QWORD PTR obj$[rsp]
  00203	48 83 b8 a0 00
	00 00 00	 cmp	 QWORD PTR [rax+160], 0
  0020b	75 1c		 jne	 SHORT $LN27@raw_unicod
  0020d	41 b8 1f 07 00
	00		 mov	 r8d, 1823		; 0000071fH
  00213	48 8d 15 00 00
	00 00		 lea	 rdx, OFFSET FLAT:??_C@_1CK@DHJKOIMG@?$AA?4?$AA?4?$AA?2?$AAM?$AAo?$AAd?$AAu?$AAl?$AAe?$AAs?$AA?2?$AA_?$AAp?$AAi?$AAc?$AAk?$AAl?$AAe?$AA?4?$AAc?$AA?$AA@
  0021a	48 8d 0d 00 00
	00 00		 lea	 rcx, OFFSET FLAT:??_C@_1EI@FHOLGKIM@?$AA?$CI?$AA?$CI?$AAP?$AAy?$AAU?$AAn?$AAi?$AAc?$AAo?$AAd?$AAe?$AAO?$AAb?$AAj?$AAe?$AAc?$AAt?$AA?$CK?$AA?$CJ?$AA?$CI?$AAo?$AAb?$AAj?$AA?$CJ?$AA?$CJ?$AA?9?$AA?$DO?$AAd?$AAa?$AAt?$AAa?$AA?4@
  00221	ff 15 00 00 00
	00		 call	 QWORD PTR __imp__wassert
  00227	33 c0		 xor	 eax, eax
$LN27@raw_unicod:
  00229	48 8b 84 24 b0
	00 00 00	 mov	 rax, QWORD PTR obj$[rsp]
  00231	48 8b 80 a0 00
	00 00		 mov	 rax, QWORD PTR [rax+160]
  00238	48 89 44 24 70	 mov	 QWORD PTR tv171[rsp], rax
$LN29@raw_unicod:
  0023d	48 8b 44 24 70	 mov	 rax, QWORD PTR tv171[rsp]
  00242	48 89 44 24 40	 mov	 QWORD PTR data$[rsp], rax

; 1824 :     kind = PyUnicode_KIND(obj);

  00247	48 8b 84 24 b0
	00 00 00	 mov	 rax, QWORD PTR obj$[rsp]
  0024f	48 8b 40 58	 mov	 rax, QWORD PTR [rax+88]
  00253	8b 80 00 01 00
	00		 mov	 eax, DWORD PTR [rax+256]
  00259	25 00 00 00 10	 and	 eax, 268435456		; 10000000H
  0025e	85 c0		 test	 eax, eax
  00260	75 1c		 jne	 SHORT $LN30@raw_unicod
  00262	41 b8 20 07 00
	00		 mov	 r8d, 1824		; 00000720H
  00268	48 8d 15 00 00
	00 00		 lea	 rdx, OFFSET FLAT:??_C@_1CK@DHJKOIMG@?$AA?4?$AA?4?$AA?2?$AAM?$AAo?$AAd?$AAu?$AAl?$AAe?$AAs?$AA?2?$AA_?$AAp?$AAi?$AAc?$AAk?$AAl?$AAe?$AA?4?$AAc?$AA?$AA@
  0026f	48 8d 0d 00 00
	00 00		 lea	 rcx, OFFSET FLAT:??_C@_1CK@KFNFIMBM@?$AAP?$AAy?$AAU?$AAn?$AAi?$AAc?$AAo?$AAd?$AAe?$AA_?$AAC?$AAh?$AAe?$AAc?$AAk?$AA?$CI?$AAo?$AAb?$AAj?$AA?$CJ?$AA?$AA@
  00276	ff 15 00 00 00
	00		 call	 QWORD PTR __imp__wassert
  0027c	33 c0		 xor	 eax, eax
$LN30@raw_unicod:
  0027e	48 8b 84 24 b0
	00 00 00	 mov	 rax, QWORD PTR obj$[rsp]
  00286	8b 40 70	 mov	 eax, DWORD PTR [rax+112]
  00289	c1 e8 07	 shr	 eax, 7
  0028c	83 e0 01	 and	 eax, 1
  0028f	85 c0		 test	 eax, eax
  00291	75 1c		 jne	 SHORT $LN31@raw_unicod
  00293	41 b8 20 07 00
	00		 mov	 r8d, 1824		; 00000720H
  00299	48 8d 15 00 00
	00 00		 lea	 rdx, OFFSET FLAT:??_C@_1CK@DHJKOIMG@?$AA?4?$AA?4?$AA?2?$AAM?$AAo?$AAd?$AAu?$AAl?$AAe?$AAs?$AA?2?$AA_?$AAp?$AAi?$AAc?$AAk?$AAl?$AAe?$AA?4?$AAc?$AA?$AA@
  002a0	48 8d 0d 00 00
	00 00		 lea	 rcx, OFFSET FLAT:??_C@_1DA@OCGMGMDG@?$AAP?$AAy?$AAU?$AAn?$AAi?$AAc?$AAo?$AAd?$AAe?$AA_?$AAI?$AAS?$AA_?$AAR?$AAE?$AAA?$AAD?$AAY?$AA?$CI?$AAo?$AAb?$AAj?$AA?$CJ?$AA?$AA@
  002a7	ff 15 00 00 00
	00		 call	 QWORD PTR __imp__wassert
  002ad	33 c0		 xor	 eax, eax
$LN31@raw_unicod:
  002af	48 8b 84 24 b0
	00 00 00	 mov	 rax, QWORD PTR obj$[rsp]
  002b7	8b 40 70	 mov	 eax, DWORD PTR [rax+112]
  002ba	c1 e8 02	 shr	 eax, 2
  002bd	83 e0 07	 and	 eax, 7
  002c0	89 44 24 20	 mov	 DWORD PTR kind$[rsp], eax

; 1825 :     if (kind == PyUnicode_4BYTE_KIND)

  002c4	83 7c 24 20 04	 cmp	 DWORD PTR kind$[rsp], 4
  002c9	75 0b		 jne	 SHORT $LN13@raw_unicod

; 1826 :         expandsize = 10;

  002cb	48 c7 44 24 48
	0a 00 00 00	 mov	 QWORD PTR expandsize$[rsp], 10

; 1827 :     else

  002d4	eb 09		 jmp	 SHORT $LN12@raw_unicod
$LN13@raw_unicod:

; 1828 :         expandsize = 6;

  002d6	48 c7 44 24 48
	06 00 00 00	 mov	 QWORD PTR expandsize$[rsp], 6
$LN12@raw_unicod:

; 1829 : 
; 1830 :     if (size > PY_SSIZE_T_MAX / expandsize)

  002df	48 b8 ff ff ff
	ff ff ff ff 7f	 mov	 rax, 9223372036854775807 ; 7fffffffffffffffH
  002e9	48 99		 cdq
  002eb	48 f7 7c 24 48	 idiv	 QWORD PTR expandsize$[rsp]
  002f0	48 39 44 24 38	 cmp	 QWORD PTR size$[rsp], rax
  002f5	7e 0a		 jle	 SHORT $LN11@raw_unicod

; 1831 :         return PyErr_NoMemory();

  002f7	e8 00 00 00 00	 call	 PyErr_NoMemory
  002fc	e9 17 05 00 00	 jmp	 $LN15@raw_unicod
$LN11@raw_unicod:

; 1832 :     repr = PyByteArray_FromStringAndSize(NULL, expandsize * size);

  00301	48 8b 44 24 48	 mov	 rax, QWORD PTR expandsize$[rsp]
  00306	48 0f af 44 24
	38		 imul	 rax, QWORD PTR size$[rsp]
  0030c	48 8b d0	 mov	 rdx, rax
  0030f	33 c9		 xor	 ecx, ecx
  00311	e8 00 00 00 00	 call	 PyByteArray_FromStringAndSize
  00316	48 89 44 24 50	 mov	 QWORD PTR repr$[rsp], rax

; 1833 :     if (repr == NULL)

  0031b	48 83 7c 24 50
	00		 cmp	 QWORD PTR repr$[rsp], 0
  00321	75 07		 jne	 SHORT $LN10@raw_unicod

; 1834 :         return NULL;

  00323	33 c0		 xor	 eax, eax
  00325	e9 ee 04 00 00	 jmp	 $LN15@raw_unicod
$LN10@raw_unicod:

; 1835 :     if (size == 0)

  0032a	48 83 7c 24 38
	00		 cmp	 QWORD PTR size$[rsp], 0
  00330	75 05		 jne	 SHORT $LN9@raw_unicod

; 1836 :         goto done;

  00332	e9 43 04 00 00	 jmp	 $done$21722
$LN9@raw_unicod:

; 1837 : 
; 1838 :     p = PyByteArray_AS_STRING(repr);

  00337	48 8d 05 00 00
	00 00		 lea	 rax, OFFSET FLAT:PyByteArray_Type
  0033e	48 8b 4c 24 50	 mov	 rcx, QWORD PTR repr$[rsp]
  00343	48 39 41 58	 cmp	 QWORD PTR [rcx+88], rax
  00347	74 35		 je	 SHORT $LN32@raw_unicod
  00349	48 8d 15 00 00
	00 00		 lea	 rdx, OFFSET FLAT:PyByteArray_Type
  00350	48 8b 44 24 50	 mov	 rax, QWORD PTR repr$[rsp]
  00355	48 8b 48 58	 mov	 rcx, QWORD PTR [rax+88]
  00359	e8 00 00 00 00	 call	 PyType_IsSubtype
  0035e	85 c0		 test	 eax, eax
  00360	75 1c		 jne	 SHORT $LN32@raw_unicod
  00362	41 b8 2e 07 00
	00		 mov	 r8d, 1838		; 0000072eH
  00368	48 8d 15 00 00
	00 00		 lea	 rdx, OFFSET FLAT:??_C@_1CK@DHJKOIMG@?$AA?4?$AA?4?$AA?2?$AAM?$AAo?$AAd?$AAu?$AAl?$AAe?$AAs?$AA?2?$AA_?$AAp?$AAi?$AAc?$AAk?$AAl?$AAe?$AA?4?$AAc?$AA?$AA@
  0036f	48 8d 0d 00 00
	00 00		 lea	 rcx, OFFSET FLAT:??_C@_1DA@BEFBIMLJ@?$AAP?$AAy?$AAB?$AAy?$AAt?$AAe?$AAA?$AAr?$AAr?$AAa?$AAy?$AA_?$AAC?$AAh?$AAe?$AAc?$AAk?$AA?$CI?$AAr?$AAe?$AAp?$AAr?$AA?$CJ?$AA?$AA@
  00376	ff 15 00 00 00
	00		 call	 QWORD PTR __imp__wassert
  0037c	33 c0		 xor	 eax, eax
$LN32@raw_unicod:
  0037e	48 8b 44 24 50	 mov	 rax, QWORD PTR repr$[rsp]
  00383	48 83 78 60 00	 cmp	 QWORD PTR [rax+96], 0
  00388	74 13		 je	 SHORT $LN33@raw_unicod
  0038a	48 8b 44 24 50	 mov	 rax, QWORD PTR repr$[rsp]
  0038f	48 8b 80 80 00
	00 00		 mov	 rax, QWORD PTR [rax+128]
  00396	48 89 44 24 78	 mov	 QWORD PTR tv215[rsp], rax
  0039b	eb 0c		 jmp	 SHORT $LN34@raw_unicod
$LN33@raw_unicod:
  0039d	48 8d 05 00 00
	00 00		 lea	 rax, OFFSET FLAT:_PyByteArray_empty_string
  003a4	48 89 44 24 78	 mov	 QWORD PTR tv215[rsp], rax
$LN34@raw_unicod:
  003a9	48 8b 44 24 78	 mov	 rax, QWORD PTR tv215[rsp]
  003ae	48 89 44 24 28	 mov	 QWORD PTR p$[rsp], rax

; 1839 :     for (i=0; i < size; i++) {

  003b3	48 c7 44 24 30
	00 00 00 00	 mov	 QWORD PTR i$[rsp], 0
  003bc	eb 0d		 jmp	 SHORT $LN8@raw_unicod
$LN7@raw_unicod:
  003be	48 8b 44 24 30	 mov	 rax, QWORD PTR i$[rsp]
  003c3	48 ff c0	 inc	 rax
  003c6	48 89 44 24 30	 mov	 QWORD PTR i$[rsp], rax
$LN8@raw_unicod:
  003cb	48 8b 44 24 38	 mov	 rax, QWORD PTR size$[rsp]
  003d0	48 39 44 24 30	 cmp	 QWORD PTR i$[rsp], rax
  003d5	0f 8d 0f 03 00
	00		 jge	 $LN6@raw_unicod

; 1840 :         Py_UCS4 ch = PyUnicode_READ(kind, data, i);

  003db	83 7c 24 20 01	 cmp	 DWORD PTR kind$[rsp], 1
  003e0	75 1c		 jne	 SHORT $LN37@raw_unicod
  003e2	48 8b 44 24 30	 mov	 rax, QWORD PTR i$[rsp]
  003e7	48 8b 4c 24 40	 mov	 rcx, QWORD PTR data$[rsp]
  003ec	48 03 c8	 add	 rcx, rax
  003ef	48 8b c1	 mov	 rax, rcx
  003f2	0f b6 00	 movzx	 eax, BYTE PTR [rax]
  003f5	89 84 24 80 00
	00 00		 mov	 DWORD PTR tv228[rsp], eax
  003fc	eb 40		 jmp	 SHORT $LN38@raw_unicod
$LN37@raw_unicod:
  003fe	83 7c 24 20 02	 cmp	 DWORD PTR kind$[rsp], 2
  00403	75 17		 jne	 SHORT $LN35@raw_unicod
  00405	48 8b 44 24 40	 mov	 rax, QWORD PTR data$[rsp]
  0040a	48 8b 4c 24 30	 mov	 rcx, QWORD PTR i$[rsp]
  0040f	0f b7 04 48	 movzx	 eax, WORD PTR [rax+rcx*2]
  00413	89 84 24 84 00
	00 00		 mov	 DWORD PTR tv227[rsp], eax
  0041a	eb 14		 jmp	 SHORT $LN36@raw_unicod
$LN35@raw_unicod:
  0041c	48 8b 44 24 40	 mov	 rax, QWORD PTR data$[rsp]
  00421	48 8b 4c 24 30	 mov	 rcx, QWORD PTR i$[rsp]
  00426	8b 04 88	 mov	 eax, DWORD PTR [rax+rcx*4]
  00429	89 84 24 84 00
	00 00		 mov	 DWORD PTR tv227[rsp], eax
$LN36@raw_unicod:
  00430	8b 84 24 84 00
	00 00		 mov	 eax, DWORD PTR tv227[rsp]
  00437	89 84 24 80 00
	00 00		 mov	 DWORD PTR tv228[rsp], eax
$LN38@raw_unicod:
  0043e	8b 84 24 80 00
	00 00		 mov	 eax, DWORD PTR tv228[rsp]
  00445	89 44 24 60	 mov	 DWORD PTR ch$21732[rsp], eax

; 1841 :         /* Map 32-bit characters to '\Uxxxxxxxx' */
; 1842 :         if (ch >= 0x10000) {

  00449	81 7c 24 60 00
	00 01 00	 cmp	 DWORD PTR ch$21732[rsp], 65536 ; 00010000H
  00451	0f 82 84 01 00
	00		 jb	 $LN5@raw_unicod

; 1843 :             *p++ = '\\';

  00457	48 8b 44 24 28	 mov	 rax, QWORD PTR p$[rsp]
  0045c	c6 00 5c	 mov	 BYTE PTR [rax], 92	; 0000005cH
  0045f	48 8b 44 24 28	 mov	 rax, QWORD PTR p$[rsp]
  00464	48 ff c0	 inc	 rax
  00467	48 89 44 24 28	 mov	 QWORD PTR p$[rsp], rax

; 1844 :             *p++ = 'U';

  0046c	48 8b 44 24 28	 mov	 rax, QWORD PTR p$[rsp]
  00471	c6 00 55	 mov	 BYTE PTR [rax], 85	; 00000055H
  00474	48 8b 44 24 28	 mov	 rax, QWORD PTR p$[rsp]
  00479	48 ff c0	 inc	 rax
  0047c	48 89 44 24 28	 mov	 QWORD PTR p$[rsp], rax

; 1845 :             *p++ = Py_hexdigits[(ch >> 28) & 0xf];

  00481	8b 44 24 60	 mov	 eax, DWORD PTR ch$21732[rsp]
  00485	c1 e8 1c	 shr	 eax, 28
  00488	83 e0 0f	 and	 eax, 15
  0048b	8b c0		 mov	 eax, eax
  0048d	48 8b 4c 24 28	 mov	 rcx, QWORD PTR p$[rsp]
  00492	48 8b 15 00 00
	00 00		 mov	 rdx, QWORD PTR Py_hexdigits
  00499	0f b6 04 02	 movzx	 eax, BYTE PTR [rdx+rax]
  0049d	88 01		 mov	 BYTE PTR [rcx], al
  0049f	48 8b 44 24 28	 mov	 rax, QWORD PTR p$[rsp]
  004a4	48 ff c0	 inc	 rax
  004a7	48 89 44 24 28	 mov	 QWORD PTR p$[rsp], rax

; 1846 :             *p++ = Py_hexdigits[(ch >> 24) & 0xf];

  004ac	8b 44 24 60	 mov	 eax, DWORD PTR ch$21732[rsp]
  004b0	c1 e8 18	 shr	 eax, 24
  004b3	83 e0 0f	 and	 eax, 15
  004b6	8b c0		 mov	 eax, eax
  004b8	48 8b 4c 24 28	 mov	 rcx, QWORD PTR p$[rsp]
  004bd	48 8b 15 00 00
	00 00		 mov	 rdx, QWORD PTR Py_hexdigits
  004c4	0f b6 04 02	 movzx	 eax, BYTE PTR [rdx+rax]
  004c8	88 01		 mov	 BYTE PTR [rcx], al
  004ca	48 8b 44 24 28	 mov	 rax, QWORD PTR p$[rsp]
  004cf	48 ff c0	 inc	 rax
  004d2	48 89 44 24 28	 mov	 QWORD PTR p$[rsp], rax

; 1847 :             *p++ = Py_hexdigits[(ch >> 20) & 0xf];

  004d7	8b 44 24 60	 mov	 eax, DWORD PTR ch$21732[rsp]
  004db	c1 e8 14	 shr	 eax, 20
  004de	83 e0 0f	 and	 eax, 15
  004e1	8b c0		 mov	 eax, eax
  004e3	48 8b 4c 24 28	 mov	 rcx, QWORD PTR p$[rsp]
  004e8	48 8b 15 00 00
	00 00		 mov	 rdx, QWORD PTR Py_hexdigits
  004ef	0f b6 04 02	 movzx	 eax, BYTE PTR [rdx+rax]
  004f3	88 01		 mov	 BYTE PTR [rcx], al
  004f5	48 8b 44 24 28	 mov	 rax, QWORD PTR p$[rsp]
  004fa	48 ff c0	 inc	 rax
  004fd	48 89 44 24 28	 mov	 QWORD PTR p$[rsp], rax

; 1848 :             *p++ = Py_hexdigits[(ch >> 16) & 0xf];

  00502	8b 44 24 60	 mov	 eax, DWORD PTR ch$21732[rsp]
  00506	c1 e8 10	 shr	 eax, 16
  00509	83 e0 0f	 and	 eax, 15
  0050c	8b c0		 mov	 eax, eax
  0050e	48 8b 4c 24 28	 mov	 rcx, QWORD PTR p$[rsp]
  00513	48 8b 15 00 00
	00 00		 mov	 rdx, QWORD PTR Py_hexdigits
  0051a	0f b6 04 02	 movzx	 eax, BYTE PTR [rdx+rax]
  0051e	88 01		 mov	 BYTE PTR [rcx], al
  00520	48 8b 44 24 28	 mov	 rax, QWORD PTR p$[rsp]
  00525	48 ff c0	 inc	 rax
  00528	48 89 44 24 28	 mov	 QWORD PTR p$[rsp], rax

; 1849 :             *p++ = Py_hexdigits[(ch >> 12) & 0xf];

  0052d	8b 44 24 60	 mov	 eax, DWORD PTR ch$21732[rsp]
  00531	c1 e8 0c	 shr	 eax, 12
  00534	83 e0 0f	 and	 eax, 15
  00537	8b c0		 mov	 eax, eax
  00539	48 8b 4c 24 28	 mov	 rcx, QWORD PTR p$[rsp]
  0053e	48 8b 15 00 00
	00 00		 mov	 rdx, QWORD PTR Py_hexdigits
  00545	0f b6 04 02	 movzx	 eax, BYTE PTR [rdx+rax]
  00549	88 01		 mov	 BYTE PTR [rcx], al
  0054b	48 8b 44 24 28	 mov	 rax, QWORD PTR p$[rsp]
  00550	48 ff c0	 inc	 rax
  00553	48 89 44 24 28	 mov	 QWORD PTR p$[rsp], rax

; 1850 :             *p++ = Py_hexdigits[(ch >> 8) & 0xf];

  00558	8b 44 24 60	 mov	 eax, DWORD PTR ch$21732[rsp]
  0055c	c1 e8 08	 shr	 eax, 8
  0055f	83 e0 0f	 and	 eax, 15
  00562	8b c0		 mov	 eax, eax
  00564	48 8b 4c 24 28	 mov	 rcx, QWORD PTR p$[rsp]
  00569	48 8b 15 00 00
	00 00		 mov	 rdx, QWORD PTR Py_hexdigits
  00570	0f b6 04 02	 movzx	 eax, BYTE PTR [rdx+rax]
  00574	88 01		 mov	 BYTE PTR [rcx], al
  00576	48 8b 44 24 28	 mov	 rax, QWORD PTR p$[rsp]
  0057b	48 ff c0	 inc	 rax
  0057e	48 89 44 24 28	 mov	 QWORD PTR p$[rsp], rax

; 1851 :             *p++ = Py_hexdigits[(ch >> 4) & 0xf];

  00583	8b 44 24 60	 mov	 eax, DWORD PTR ch$21732[rsp]
  00587	c1 e8 04	 shr	 eax, 4
  0058a	83 e0 0f	 and	 eax, 15
  0058d	8b c0		 mov	 eax, eax
  0058f	48 8b 4c 24 28	 mov	 rcx, QWORD PTR p$[rsp]
  00594	48 8b 15 00 00
	00 00		 mov	 rdx, QWORD PTR Py_hexdigits
  0059b	0f b6 04 02	 movzx	 eax, BYTE PTR [rdx+rax]
  0059f	88 01		 mov	 BYTE PTR [rcx], al
  005a1	48 8b 44 24 28	 mov	 rax, QWORD PTR p$[rsp]
  005a6	48 ff c0	 inc	 rax
  005a9	48 89 44 24 28	 mov	 QWORD PTR p$[rsp], rax

; 1852 :             *p++ = Py_hexdigits[ch & 15];

  005ae	8b 44 24 60	 mov	 eax, DWORD PTR ch$21732[rsp]
  005b2	83 e0 0f	 and	 eax, 15
  005b5	8b c0		 mov	 eax, eax
  005b7	48 8b 4c 24 28	 mov	 rcx, QWORD PTR p$[rsp]
  005bc	48 8b 15 00 00
	00 00		 mov	 rdx, QWORD PTR Py_hexdigits
  005c3	0f b6 04 02	 movzx	 eax, BYTE PTR [rdx+rax]
  005c7	88 01		 mov	 BYTE PTR [rcx], al
  005c9	48 8b 44 24 28	 mov	 rax, QWORD PTR p$[rsp]
  005ce	48 ff c0	 inc	 rax
  005d1	48 89 44 24 28	 mov	 QWORD PTR p$[rsp], rax
  005d6	e9 0a 01 00 00	 jmp	 $LN4@raw_unicod
$LN5@raw_unicod:

; 1853 :         }
; 1854 :         /* Map 16-bit characters to '\uxxxx' */
; 1855 :         else if (ch >= 256 || ch == '\\' || ch == '\n') {

  005db	81 7c 24 60 00
	01 00 00	 cmp	 DWORD PTR ch$21732[rsp], 256 ; 00000100H
  005e3	73 12		 jae	 SHORT $LN2@raw_unicod
  005e5	83 7c 24 60 5c	 cmp	 DWORD PTR ch$21732[rsp], 92 ; 0000005cH
  005ea	74 0b		 je	 SHORT $LN2@raw_unicod
  005ec	83 7c 24 60 0a	 cmp	 DWORD PTR ch$21732[rsp], 10
  005f1	0f 85 d5 00 00
	00		 jne	 $LN3@raw_unicod
$LN2@raw_unicod:

; 1856 :             *p++ = '\\';

  005f7	48 8b 44 24 28	 mov	 rax, QWORD PTR p$[rsp]
  005fc	c6 00 5c	 mov	 BYTE PTR [rax], 92	; 0000005cH
  005ff	48 8b 44 24 28	 mov	 rax, QWORD PTR p$[rsp]
  00604	48 ff c0	 inc	 rax
  00607	48 89 44 24 28	 mov	 QWORD PTR p$[rsp], rax

; 1857 :             *p++ = 'u';

  0060c	48 8b 44 24 28	 mov	 rax, QWORD PTR p$[rsp]
  00611	c6 00 75	 mov	 BYTE PTR [rax], 117	; 00000075H
  00614	48 8b 44 24 28	 mov	 rax, QWORD PTR p$[rsp]
  00619	48 ff c0	 inc	 rax
  0061c	48 89 44 24 28	 mov	 QWORD PTR p$[rsp], rax

; 1858 :             *p++ = Py_hexdigits[(ch >> 12) & 0xf];

