; Listing generated by Microsoft (R) Optimizing Compiler Version 16.00.40219.01 

include listing.inc

INCLUDELIB MSVCRTD
INCLUDELIB OLDNAMES

PUBLIC	??_C@_05HIFJDKLD@array?$AA@			; `string'
PUBLIC	??_C@_0CF@GMIJNGPM@Internal?4?5Used?5for?5pickling?5supp@ ; `string'
PUBLIC	??_C@_0O@OPHKEACL@arrayiterator?$AA@		; `string'
PUBLIC	??_C@_0N@MOOGCAMH@__setstate__?$AA@		; `string'
PUBLIC	??_C@_0L@NNMACJIG@__reduce__?$AA@		; `string'
PUBLIC	??_C@_0M@DCMOJOBC@array?4array?$AA@		; `string'
PUBLIC	??_C@_00CNPNBAHC@?$AA@				; `string'
PUBLIC	??_C@_0L@HOGGIPGN@__sizeof__?$AA@		; `string'
PUBLIC	??_C@_09JKEMBMBG@tounicode?$AA@			; `string'
PUBLIC	??_C@_07NAJELLCK@tobytes?$AA@			; `string'
PUBLIC	??_C@_08FNIIFOJC@tostring?$AA@			; `string'
PUBLIC	??_C@_06IEBOCBAI@tolist?$AA@			; `string'
PUBLIC	??_C@_06IKANPOPE@tofile?$AA@			; `string'
PUBLIC	??_C@_07KOIEOCCE@reverse?$AA@			; `string'
PUBLIC	??_C@_06LEMKAMD@remove?$AA@			; `string'
PUBLIC	??_C@_0O@CFEDDKPG@__reduce_ex__?$AA@		; `string'
PUBLIC	??_C@_03NJDAHFJE@pop?$AA@			; `string'
PUBLIC	??_C@_06OAOPNKHP@insert?$AA@			; `string'
PUBLIC	??_C@_05FKHKFDID@index?$AA@			; `string'
PUBLIC	??_C@_0M@JCIKMCEM@fromunicode?$AA@		; `string'
PUBLIC	??_C@_09OCNOKPAF@frombytes?$AA@			; `string'
PUBLIC	??_C@_0L@PGGLCJNP@fromstring?$AA@		; `string'
PUBLIC	??_C@_08BGGGONCE@fromlist?$AA@			; `string'
PUBLIC	??_C@_08BIHFDCNI@fromfile?$AA@			; `string'
PUBLIC	??_C@_06BPBOMFNI@extend?$AA@			; `string'
PUBLIC	??_C@_0N@LCDCNIJ@__deepcopy__?$AA@		; `string'
PUBLIC	??_C@_05IOMEMJEC@count?$AA@			; `string'
PUBLIC	??_C@_08MOMBEIKE@__copy__?$AA@			; `string'
PUBLIC	??_C@_08LGNCHIMC@byteswap?$AA@			; `string'
PUBLIC	??_C@_0M@MDHGDJKG@buffer_info?$AA@		; `string'
PUBLIC	??_C@_06PCICMFGG@append?$AA@			; `string'
PUBLIC	??_C@_0CG@DALNPKGO@the?5size?0?5in?5bytes?0?5of?5one?5array@ ; `string'
PUBLIC	??_C@_08BFHIGMPA@itemsize?$AA@			; `string'
PUBLIC	??_C@_0DA@HJNMFPLE@the?5typecode?5character?5used?5to?5c@ ; `string'
PUBLIC	??_C@_08FJHEKLCH@typecode?$AA@			; `string'
PUBLIC	??_C@_08IBFKALI@__dict__?$AA@			; `string'
PUBLIC	??_C@_0BF@FHDBJGA@_array_reconstructor?$AA@	; `string'
PUBLIC	??_C@_05NGFEDHGN@write?$AA@			; `string'
PUBLIC	??_C@_04POLDLDMI@read?$AA@			; `string'
PUBLIC	??_C@_01LPLHEDKD@d?$AA@				; `string'
PUBLIC	??_C@_01INIBCBCB@f?$AA@				; `string'
PUBLIC	??_C@_01BNIGIBBF@Q?$AA@				; `string'
PUBLIC	??_C@_01IIACKFLH@q?$AA@				; `string'
PUBLIC	??_C@_01OCOKONAJ@L?$AA@				; `string'
PUBLIC	??_C@_01HHGOMJKL@l?$AA@				; `string'
PUBLIC	??_C@_01JPJNBJEM@I?$AA@				; `string'
PUBLIC	??_C@_01KBJDNOO@i?$AA@				; `string'
PUBLIC	??_C@_01IGIGCIAN@H?$AA@				; `string'
PUBLIC	??_C@_01BDACAMKP@h?$AA@				; `string'
PUBLIC	??_C@_01OMGOGALD@u?$AA@				; `string'
PUBLIC	??_C@_01HMGJMAIH@B?$AA@				; `string'
PUBLIC	??_C@_01OJONOECF@b?$AA@				; `string'
EXTRN	PyObject_SelfIter:PROC
EXTRN	_PyObject_DebugFree:PROC
EXTRN	PyType_GenericAlloc:PROC
EXTRN	PyObject_GenericGetAttr:PROC
_BSS	SEGMENT
?array_reconstructor@?1??array_reduce_ex@@9@9 DQ 01H DUP (?) ; `array_reduce_ex'::`2'::array_reconstructor
_BSS	ENDS
;	COMDAT ??_C@_05HIFJDKLD@array?$AA@
CONST	SEGMENT
??_C@_05HIFJDKLD@array?$AA@ DB 'array', 00H		; `string'
CONST	ENDS
;	COMDAT ??_C@_0CF@GMIJNGPM@Internal?4?5Used?5for?5pickling?5supp@
CONST	SEGMENT
??_C@_0CF@GMIJNGPM@Internal?4?5Used?5for?5pickling?5supp@ DB 'Internal. U'
	DB	'sed for pickling support.', 00H		; `string'
CONST	ENDS
;	COMDAT ??_C@_0O@OPHKEACL@arrayiterator?$AA@
CONST	SEGMENT
??_C@_0O@OPHKEACL@arrayiterator?$AA@ DB 'arrayiterator', 00H ; `string'
CONST	ENDS
;	COMDAT ??_C@_0N@MOOGCAMH@__setstate__?$AA@
CONST	SEGMENT
??_C@_0N@MOOGCAMH@__setstate__?$AA@ DB '__setstate__', 00H ; `string'
CONST	ENDS
;	COMDAT ??_C@_0L@NNMACJIG@__reduce__?$AA@
CONST	SEGMENT
??_C@_0L@NNMACJIG@__reduce__?$AA@ DB '__reduce__', 00H	; `string'
CONST	ENDS
;	COMDAT ??_C@_0M@DCMOJOBC@array?4array?$AA@
CONST	SEGMENT
??_C@_0M@DCMOJOBC@array?4array?$AA@ DB 'array.array', 00H ; `string'
CONST	ENDS
;	COMDAT ??_C@_00CNPNBAHC@?$AA@
CONST	SEGMENT
??_C@_00CNPNBAHC@?$AA@ DB 00H				; `string'
CONST	ENDS
;	COMDAT ??_C@_0L@HOGGIPGN@__sizeof__?$AA@
CONST	SEGMENT
??_C@_0L@HOGGIPGN@__sizeof__?$AA@ DB '__sizeof__', 00H	; `string'
CONST	ENDS
;	COMDAT ??_C@_09JKEMBMBG@tounicode?$AA@
CONST	SEGMENT
??_C@_09JKEMBMBG@tounicode?$AA@ DB 'tounicode', 00H	; `string'
CONST	ENDS
;	COMDAT ??_C@_07NAJELLCK@tobytes?$AA@
CONST	SEGMENT
??_C@_07NAJELLCK@tobytes?$AA@ DB 'tobytes', 00H		; `string'
CONST	ENDS
;	COMDAT ??_C@_08FNIIFOJC@tostring?$AA@
CONST	SEGMENT
??_C@_08FNIIFOJC@tostring?$AA@ DB 'tostring', 00H	; `string'
CONST	ENDS
;	COMDAT ??_C@_06IEBOCBAI@tolist?$AA@
CONST	SEGMENT
??_C@_06IEBOCBAI@tolist?$AA@ DB 'tolist', 00H		; `string'
CONST	ENDS
;	COMDAT ??_C@_06IKANPOPE@tofile?$AA@
CONST	SEGMENT
??_C@_06IKANPOPE@tofile?$AA@ DB 'tofile', 00H		; `string'
CONST	ENDS
;	COMDAT ??_C@_07KOIEOCCE@reverse?$AA@
CONST	SEGMENT
??_C@_07KOIEOCCE@reverse?$AA@ DB 'reverse', 00H		; `string'
CONST	ENDS
;	COMDAT ??_C@_06LEMKAMD@remove?$AA@
CONST	SEGMENT
??_C@_06LEMKAMD@remove?$AA@ DB 'remove', 00H		; `string'
CONST	ENDS
;	COMDAT ??_C@_0O@CFEDDKPG@__reduce_ex__?$AA@
CONST	SEGMENT
??_C@_0O@CFEDDKPG@__reduce_ex__?$AA@ DB '__reduce_ex__', 00H ; `string'
CONST	ENDS
;	COMDAT ??_C@_03NJDAHFJE@pop?$AA@
CONST	SEGMENT
??_C@_03NJDAHFJE@pop?$AA@ DB 'pop', 00H			; `string'
CONST	ENDS
;	COMDAT ??_C@_06OAOPNKHP@insert?$AA@
CONST	SEGMENT
??_C@_06OAOPNKHP@insert?$AA@ DB 'insert', 00H		; `string'
CONST	ENDS
;	COMDAT ??_C@_05FKHKFDID@index?$AA@
CONST	SEGMENT
??_C@_05FKHKFDID@index?$AA@ DB 'index', 00H		; `string'
CONST	ENDS
;	COMDAT ??_C@_0M@JCIKMCEM@fromunicode?$AA@
CONST	SEGMENT
??_C@_0M@JCIKMCEM@fromunicode?$AA@ DB 'fromunicode', 00H ; `string'
CONST	ENDS
;	COMDAT ??_C@_09OCNOKPAF@frombytes?$AA@
CONST	SEGMENT
??_C@_09OCNOKPAF@frombytes?$AA@ DB 'frombytes', 00H	; `string'
CONST	ENDS
;	COMDAT ??_C@_0L@PGGLCJNP@fromstring?$AA@
CONST	SEGMENT
??_C@_0L@PGGLCJNP@fromstring?$AA@ DB 'fromstring', 00H	; `string'
CONST	ENDS
;	COMDAT ??_C@_08BGGGONCE@fromlist?$AA@
CONST	SEGMENT
??_C@_08BGGGONCE@fromlist?$AA@ DB 'fromlist', 00H	; `string'
CONST	ENDS
;	COMDAT ??_C@_08BIHFDCNI@fromfile?$AA@
CONST	SEGMENT
??_C@_08BIHFDCNI@fromfile?$AA@ DB 'fromfile', 00H	; `string'
CONST	ENDS
;	COMDAT ??_C@_06BPBOMFNI@extend?$AA@
CONST	SEGMENT
??_C@_06BPBOMFNI@extend?$AA@ DB 'extend', 00H		; `string'
CONST	ENDS
;	COMDAT ??_C@_0N@LCDCNIJ@__deepcopy__?$AA@
CONST	SEGMENT
??_C@_0N@LCDCNIJ@__deepcopy__?$AA@ DB '__deepcopy__', 00H ; `string'
CONST	ENDS
;	COMDAT ??_C@_05IOMEMJEC@count?$AA@
CONST	SEGMENT
??_C@_05IOMEMJEC@count?$AA@ DB 'count', 00H		; `string'
CONST	ENDS
;	COMDAT ??_C@_08MOMBEIKE@__copy__?$AA@
CONST	SEGMENT
??_C@_08MOMBEIKE@__copy__?$AA@ DB '__copy__', 00H	; `string'
CONST	ENDS
;	COMDAT ??_C@_08LGNCHIMC@byteswap?$AA@
CONST	SEGMENT
??_C@_08LGNCHIMC@byteswap?$AA@ DB 'byteswap', 00H	; `string'
CONST	ENDS
;	COMDAT ??_C@_0M@MDHGDJKG@buffer_info?$AA@
CONST	SEGMENT
??_C@_0M@MDHGDJKG@buffer_info?$AA@ DB 'buffer_info', 00H ; `string'
CONST	ENDS
;	COMDAT ??_C@_06PCICMFGG@append?$AA@
CONST	SEGMENT
??_C@_06PCICMFGG@append?$AA@ DB 'append', 00H		; `string'
CONST	ENDS
;	COMDAT ??_C@_0CG@DALNPKGO@the?5size?0?5in?5bytes?0?5of?5one?5array@
CONST	SEGMENT
??_C@_0CG@DALNPKGO@the?5size?0?5in?5bytes?0?5of?5one?5array@ DB 'the size'
	DB	', in bytes, of one array item', 00H		; `string'
CONST	ENDS
;	COMDAT ??_C@_08BFHIGMPA@itemsize?$AA@
CONST	SEGMENT
??_C@_08BFHIGMPA@itemsize?$AA@ DB 'itemsize', 00H	; `string'
CONST	ENDS
;	COMDAT ??_C@_0DA@HJNMFPLE@the?5typecode?5character?5used?5to?5c@
CONST	SEGMENT
??_C@_0DA@HJNMFPLE@the?5typecode?5character?5used?5to?5c@ DB 'the typecod'
	DB	'e character used to create the array', 00H	; `string'
CONST	ENDS
;	COMDAT ??_C@_08FJHEKLCH@typecode?$AA@
CONST	SEGMENT
??_C@_08FJHEKLCH@typecode?$AA@ DB 'typecode', 00H	; `string'
CONST	ENDS
;	COMDAT ??_C@_08IBFKALI@__dict__?$AA@
CONST	SEGMENT
??_C@_08IBFKALI@__dict__?$AA@ DB '__dict__', 00H	; `string'
CONST	ENDS
;	COMDAT ??_C@_0BF@FHDBJGA@_array_reconstructor?$AA@
CONST	SEGMENT
??_C@_0BF@FHDBJGA@_array_reconstructor?$AA@ DB '_array_reconstructor', 00H ; `string'
CONST	ENDS
CONST	SEGMENT
mformat_descriptors DQ 0000000000000001H
	DD	00H
	DD	00H
	DQ	0000000000000001H
	DD	01H
	DD	00H
	DQ	0000000000000002H
	DD	00H
	DD	00H
	DQ	0000000000000002H
	DD	00H
	DD	01H
	DQ	0000000000000002H
	DD	01H
	DD	00H
	DQ	0000000000000002H
	DD	01H
	DD	01H
	DQ	0000000000000004H
	DD	00H
	DD	00H
	DQ	0000000000000004H
	DD	00H
	DD	01H
	DQ	0000000000000004H
	DD	01H
	DD	00H
	DQ	0000000000000004H
	DD	01H
	DD	01H
	DQ	0000000000000008H
	DD	00H
	DD	00H
	DQ	0000000000000008H
	DD	00H
	DD	01H
	DQ	0000000000000008H
	DD	01H
	DD	00H
	DQ	0000000000000008H
	DD	01H
	DD	01H
	DQ	0000000000000004H
	DD	00H
	DD	00H
	DQ	0000000000000004H
	DD	00H
	DD	01H
	DQ	0000000000000008H
	DD	00H
	DD	00H
	DQ	0000000000000008H
	DD	00H
	DD	01H
	DQ	0000000000000004H
	DD	00H
	DD	00H
	DQ	0000000000000004H
	DD	00H
	DD	01H
	DQ	0000000000000008H
	DD	00H
	DD	00H
	DQ	0000000000000008H
	DD	00H
	DD	01H
CONST	ENDS
;	COMDAT ??_C@_05NGFEDHGN@write?$AA@
CONST	SEGMENT
??_C@_05NGFEDHGN@write?$AA@ DB 'write', 00H		; `string'
CONST	ENDS
_TLS	SEGMENT
?PyId___dict__@?1??array_reduce_ex@@9@9 DQ 0000000000000000H ; `array_reduce_ex'::`2'::PyId___dict__
	DQ	FLAT:??_C@_08IBFKALI@__dict__?$AA@
	DQ	0000000000000000H
?PyId__array_reconstructor@?1??array_reduce_ex@@9@9 DQ 0000000000000000H ; `array_reduce_ex'::`2'::PyId__array_reconstructor
	DQ	FLAT:??_C@_0BF@FHDBJGA@_array_reconstructor?$AA@
	DQ	0000000000000000H
?PyId_write@?2??array_tofile@@9@9 DQ 0000000000000000H	; `array_tofile'::`3'::PyId_write
	DQ	FLAT:??_C@_05NGFEDHGN@write?$AA@
	DQ	0000000000000000H
?PyId_read@?1??array_fromfile@@9@9 DQ 0000000000000000H	; `array_fromfile'::`2'::PyId_read
	DQ	FLAT:??_C@_04POLDLDMI@read?$AA@
	DQ	0000000000000000H
_TLS	ENDS
;	COMDAT ??_C@_04POLDLDMI@read?$AA@
CONST	SEGMENT
??_C@_04POLDLDMI@read?$AA@ DB 'read', 00H		; `string'
CONST	ENDS
_DATA	SEGMENT
descriptors DB	062H
	ORG $+3
	DD	01H
	DQ	FLAT:b_getitem
	DQ	FLAT:b_setitem
	DQ	FLAT:??_C@_01OJONOECF@b?$AA@
	DD	01H
	DD	01H
	DB	042H
	ORG $+3
	DD	01H
	DQ	FLAT:BB_getitem
	DQ	FLAT:BB_setitem
	DQ	FLAT:??_C@_01HMGJMAIH@B?$AA@
	DD	01H
	DD	00H
	DB	075H
	ORG $+3
	DD	02H
	DQ	FLAT:u_getitem
	DQ	FLAT:u_setitem
	DQ	FLAT:??_C@_01OMGOGALD@u?$AA@
	DD	00H
	DD	00H
	DB	068H
	ORG $+3
	DD	02H
	DQ	FLAT:h_getitem
	DQ	FLAT:h_setitem
	DQ	FLAT:??_C@_01BDACAMKP@h?$AA@
	DD	01H
	DD	01H
	DB	048H
	ORG $+3
	DD	02H
	DQ	FLAT:HH_getitem
	DQ	FLAT:HH_setitem
	DQ	FLAT:??_C@_01IGIGCIAN@H?$AA@
	DD	01H
	DD	00H
	DB	069H
	ORG $+3
	DD	04H
	DQ	FLAT:i_getitem
	DQ	FLAT:i_setitem
	DQ	FLAT:??_C@_01KBJDNOO@i?$AA@
	DD	01H
	DD	01H
	DB	049H
	ORG $+3
	DD	04H
	DQ	FLAT:II_getitem
	DQ	FLAT:II_setitem
	DQ	FLAT:??_C@_01JPJNBJEM@I?$AA@
	DD	01H
	DD	00H
	DB	06cH
	ORG $+3
	DD	04H
	DQ	FLAT:l_getitem
	DQ	FLAT:l_setitem
	DQ	FLAT:??_C@_01HHGOMJKL@l?$AA@
	DD	01H
	DD	01H
	DB	04cH
	ORG $+3
	DD	04H
	DQ	FLAT:LL_getitem
	DQ	FLAT:LL_setitem
	DQ	FLAT:??_C@_01OCOKONAJ@L?$AA@
	DD	01H
	DD	00H
	DB	071H
	ORG $+3
	DD	08H
	DQ	FLAT:q_getitem
	DQ	FLAT:q_setitem
	DQ	FLAT:??_C@_01IIACKFLH@q?$AA@
	DD	01H
	DD	01H
	DB	051H
	ORG $+3
	DD	08H
	DQ	FLAT:QQ_getitem
	DQ	FLAT:QQ_setitem
	DQ	FLAT:??_C@_01BNIGIBBF@Q?$AA@
	DD	01H
	DD	00H
	DB	066H
	ORG $+3
	DD	04H
	DQ	FLAT:f_getitem
	DQ	FLAT:f_setitem
	DQ	FLAT:??_C@_01INIBCBCB@f?$AA@
	DD	00H
	DD	00H
	DB	064H
	ORG $+3
	DD	08H
	DQ	FLAT:d_getitem
	DQ	FLAT:d_setitem
	DQ	FLAT:??_C@_01LPLHEDKD@d?$AA@
	DD	00H
	DD	00H
	DB	00H
	ORG $+3
	DD	00H
	DQ	0000000000000000H
	DQ	0000000000000000H
	DQ	0000000000000000H
	DD	00H
	DD	00H
copy_doc DB	'copy(array)', 0aH, 0aH, ' Return a copy of the array.', 00H
	ORG $+6
count_doc DB	'count(x)', 0aH, 0aH, 'Return number of occurrences of x '
	DB	'in the array.', 00H
	ORG $+6
index_doc DB	'index(x)', 0aH, 0aH, 'Return index of first occurrence o'
	DB	'f x in the array.', 00H
	ORG $+2
remove_doc DB	'remove(x)', 0aH, 0aH, 'Remove the first occurrence of x '
	DB	'in the array.', 00H
	ORG $+6
pop_doc	DB	'pop([i])', 0aH, 0aH, 'Return the i-th element and delete'
	DB	' it from the array. i defaults to -1.', 00H
	ORG $+6
append_doc DB	'append(x)', 0aH, 0aH, 'Append new value x to the end of '
	DB	'the array.', 00H
	ORG $+1
extend_doc DB	'extend(array or iterable)', 0aH, 0aH, ' Append items to '
	DB	'the end of the array.', 00H
	ORG $+6
reverse_doc DB	'reverse()', 0aH, 0aH, 'Reverse the order of the items in'
	DB	' the array.', 00H
insert_doc DB	'insert(i,x)', 0aH, 0aH, 'Insert a new item x into the ar'
	DB	'ray before position i.', 00H
	ORG $+5
fromlist_doc DB	'fromlist(list)', 0aH, 0aH, 'Append items to array from l'
	DB	'ist.', 00H
	ORG $+7
buffer_info_doc DB 'buffer_info() -> (address, length)', 0aH, 0aH, 'Retur'
	DB	'n a tuple (address, length) giving the current memory address'
	DB	' and', 0aH, 'the length in items of the buffer used to hold a'
	DB	'rray''s contents', 0aH, 'The length should be multiplied by t'
	DB	'he itemsize attribute to calculate', 0aH, 'the buffer length '
	DB	'in bytes.', 00H
	ORG $+2
byteswap_doc DB	'byteswap()', 0aH, 0aH, 'Byteswap all items of the array.'
	DB	'  If the items in the array are not 1, 2,', 0aH, '4, or 8 byt'
	DB	'es in size, RuntimeError is raised.', 00H
	ORG $+3
reduce_doc DB	'Return state information for pickling.', 00H
	ORG $+1
fromfile_doc DB	'fromfile(f, n)', 0aH, 0aH, 'Read n objects from the file'
	DB	' object f and append them to the end of the', 0aH, 'array.', 00H
	ORG $+1
tofile_doc DB	'tofile(f)', 0aH, 0aH, 'Write all items (as machine value'
	DB	's) to the file object f.', 00H
	ORG $+3
array_as_mapping DQ FLAT:array_length
	DQ	FLAT:array_subscr
	DQ	FLAT:array_ass_subscr
tolist_doc DB	'tolist() -> list', 0aH, 0aH, 'Convert array to an ordina'
	DB	'ry list with the same items.', 00H
	ORG $+7
fromstring_doc DB 'fromstring(string)', 0aH, 0aH, 'Appends items from the'
	DB	' string, interpreting it as an array of machine', 0aH, 'value'
	DB	's, as if it had been read from a file using the fromfile() me'
	DB	'thod).', 0aH, 0aH, 'This method is deprecated. Use frombytes '
	DB	'instead.', 00H
	ORG $+2
emptybuf DQ	FLAT:??_C@_00CNPNBAHC@?$AA@
frombytes_doc DB 'frombytes(bytestring)', 0aH, 0aH, 'Appends items from t'
	DB	'he string, interpreting it as an array of machine', 0aH, 'val'
	DB	'ues, as if it had been read from a file using the fromfile() '
	DB	'method).', 00H
	ORG $+2
array_as_buffer DQ FLAT:array_buffer_getbuf
	DQ	FLAT:array_buffer_relbuf
setstate_doc DB	'Set state information for unpickling.', 00H
	ORG $+2
tobytes_doc DB	'tobytes() -> bytes', 0aH, 0aH, 'Convert the array to an '
	DB	'array of machine values and return the bytes', 0aH, 'represen'
	DB	'tation.', 00H
	ORG $+7
tostring_doc DB	'tostring() -> bytes', 0aH, 0aH, 'Convert the array to an'
	DB	' array of machine values and return the bytes', 0aH, 'represe'
	DB	'ntation.', 0aH, 0aH, 'This method is deprecated. Use tobytes '
	DB	'instead.', 00H
	ORG $+5
fromunicode_doc DB 'fromunicode(ustr)', 0aH, 0aH, 'Extends this array wit'
	DB	'h data from the unicode string ustr.', 0aH, 'The array must b'
	DB	'e a unicode type array; otherwise a ValueError', 0aH, 'is rai'
	DB	'sed.  Use array.frombytes(ustr.encode(...)) to', 0aH, 'append'
	DB	' Unicode data to an array of some other type.', 00H
	ORG $+10
tounicode_doc DB 'tounicode() -> unicode', 0aH, 0aH, 'Convert the array t'
	DB	'o a unicode string.  The array must be', 0aH, 'a unicode type'
	DB	' array; otherwise a ValueError is raised.  Use', 0aH, 'array.'
	DB	'tobytes().decode() to obtain a unicode string from', 0aH, 'an'
	DB	' array of some other type.', 00H
	ORG $+3
sizeof_doc DB	'__sizeof__() -> int', 0aH, 0aH, 'Size of the array in me'
	DB	'mory, in bytes.', 00H
	ORG $+12
array_getsets DQ FLAT:??_C@_08FJHEKLCH@typecode?$AA@
	DQ	FLAT:array_get_typecode
	DQ	0000000000000000H
	DQ	FLAT:??_C@_0DA@HJNMFPLE@the?5typecode?5character?5used?5to?5c@
	ORG $+8
	DQ	FLAT:??_C@_08BFHIGMPA@itemsize?$AA@
	DQ	FLAT:array_get_itemsize
	DQ	0000000000000000H
	DQ	FLAT:??_C@_0CG@DALNPKGO@the?5size?0?5in?5bytes?0?5of?5one?5array@
	ORG $+8
	DQ	0000000000000000H
	ORG $+32
	ORG $+8
array_methods DQ FLAT:??_C@_06PCICMFGG@append?$AA@
	DQ	FLAT:array_append
	DD	08H
	ORG $+4
	DQ	FLAT:append_doc
	DQ	FLAT:??_C@_0M@MDHGDJKG@buffer_info?$AA@
	DQ	FLAT:array_buffer_info
	DD	04H
	ORG $+4
	DQ	FLAT:buffer_info_doc
	DQ	FLAT:??_C@_08LGNCHIMC@byteswap?$AA@
	DQ	FLAT:array_byteswap
	DD	04H
	ORG $+4
	DQ	FLAT:byteswap_doc
	DQ	FLAT:??_C@_08MOMBEIKE@__copy__?$AA@
	DQ	FLAT:array_copy
	DD	04H
	ORG $+4
	DQ	FLAT:copy_doc
	DQ	FLAT:??_C@_05IOMEMJEC@count?$AA@
	DQ	FLAT:array_count
	DD	08H
	ORG $+4
	DQ	FLAT:count_doc
	DQ	FLAT:??_C@_0N@LCDCNIJ@__deepcopy__?$AA@
	DQ	FLAT:array_copy
	DD	08H
	ORG $+4
	DQ	FLAT:copy_doc
	DQ	FLAT:??_C@_06BPBOMFNI@extend?$AA@
	DQ	FLAT:array_extend
	DD	08H
	ORG $+4
	DQ	FLAT:extend_doc
	DQ	FLAT:??_C@_08BIHFDCNI@fromfile?$AA@
	DQ	FLAT:array_fromfile
	DD	01H
	ORG $+4
	DQ	FLAT:fromfile_doc
	DQ	FLAT:??_C@_08BGGGONCE@fromlist?$AA@
	DQ	FLAT:array_fromlist
	DD	08H
	ORG $+4
	DQ	FLAT:fromlist_doc
	DQ	FLAT:??_C@_0L@PGGLCJNP@fromstring?$AA@
	DQ	FLAT:array_fromstring
	DD	01H
	ORG $+4
	DQ	FLAT:fromstring_doc
	DQ	FLAT:??_C@_09OCNOKPAF@frombytes?$AA@
	DQ	FLAT:array_frombytes
	DD	01H
	ORG $+4
	DQ	FLAT:frombytes_doc
	DQ	FLAT:??_C@_0M@JCIKMCEM@fromunicode?$AA@
	DQ	FLAT:array_fromunicode
	DD	01H
	ORG $+4
	DQ	FLAT:fromunicode_doc
	DQ	FLAT:??_C@_05FKHKFDID@index?$AA@
	DQ	FLAT:array_index
	DD	08H
	ORG $+4
	DQ	FLAT:index_doc
	DQ	FLAT:??_C@_06OAOPNKHP@insert?$AA@
	DQ	FLAT:array_insert
	DD	01H
	ORG $+4
	DQ	FLAT:insert_doc
	DQ	FLAT:??_C@_03NJDAHFJE@pop?$AA@
	DQ	FLAT:array_pop
	DD	01H
	ORG $+4
	DQ	FLAT:pop_doc
	DQ	FLAT:??_C@_0O@CFEDDKPG@__reduce_ex__?$AA@
	DQ	FLAT:array_reduce_ex
	DD	08H
	ORG $+4
	DQ	FLAT:reduce_doc
	DQ	FLAT:??_C@_06LEMKAMD@remove?$AA@
	DQ	FLAT:array_remove
	DD	08H
	ORG $+4
	DQ	FLAT:remove_doc
	DQ	FLAT:??_C@_07KOIEOCCE@reverse?$AA@
	DQ	FLAT:array_reverse
	DD	04H
	ORG $+4
	DQ	FLAT:reverse_doc
	DQ	FLAT:??_C@_06IKANPOPE@tofile?$AA@
	DQ	FLAT:array_tofile
	DD	08H
	ORG $+4
	DQ	FLAT:tofile_doc
	DQ	FLAT:??_C@_06IEBOCBAI@tolist?$AA@
	DQ	FLAT:array_tolist
	DD	04H
	ORG $+4
	DQ	FLAT:tolist_doc
	DQ	FLAT:??_C@_08FNIIFOJC@tostring?$AA@
	DQ	FLAT:array_tostring
	DD	04H
	ORG $+4
	DQ	FLAT:tostring_doc
	DQ	FLAT:??_C@_07NAJELLCK@tobytes?$AA@
	DQ	FLAT:array_tobytes
	DD	04H
	ORG $+4
	DQ	FLAT:tobytes_doc
	DQ	FLAT:??_C@_09JKEMBMBG@tounicode?$AA@
	DQ	FLAT:array_tounicode
	DD	04H
	ORG $+4
	DQ	FLAT:tounicode_doc
	DQ	FLAT:??_C@_0L@HOGGIPGN@__sizeof__?$AA@
	DQ	FLAT:array_sizeof
	DD	04H
	ORG $+4
	DQ	FLAT:sizeof_doc
	DQ	0000000000000000H
	DQ	0000000000000000H
	ORG $+16
array_as_sequence DQ FLAT:array_length
	DQ	FLAT:array_concat
	DQ	FLAT:array_repeat
	DQ	FLAT:array_item
	DQ	0000000000000000H
	DQ	FLAT:array_ass_item
	DQ	0000000000000000H
	DQ	FLAT:array_contains
	DQ	FLAT:array_inplace_concat
	DQ	FLAT:array_inplace_repeat
module_doc DB	'This module defines an object type which can efficiently'
	DB	' represent', 0aH, 'an array of basic values: characters, inte'
	DB	'gers, floating point', 0aH, 'numbers.  Arrays are sequence ty'
	DB	'pes and behave very much like lists,', 0aH, 'except that the '
	DB	'type of objects stored in them is constrained.  The', 0aH, 't'
	DB	'ype is specified at object creation time by using a type code'
	DB	', which', 0aH, 'is a single character.  The following type co'
	DB	'des are defined:', 0aH, 0aH, '    Type code   C Type         '
	DB	'    Minimum size in bytes ', 0aH, '    ''b''         signed i'
	DB	'nteger     1 ', 0aH, '    ''B''         unsigned integer   1 '
	DB	0aH, '    ''u''         Unicode character  2 (see note) ', 0aH
	DB	'    ''h''         signed integer     2 ', 0aH, '    ''H''    '
	DB	'     unsigned integer   2 ', 0aH, '    ''i''         signed i'
	DB	'nteger     2 ', 0aH, '    ''I''         unsigned integer   2 '
	DB	0aH, '    ''l''         signed integer     4 ', 0aH, '    ''L'''
	DB	'         unsigned integer   4 ', 0aH, '    ''q''         sign'
	DB	'ed integer     8 (see note) ', 0aH, '    ''Q''         unsign'
	DB	'ed integer   8 (see note) ', 0aH, '    ''f''         floating'
	DB	' point     4 ', 0aH, '    ''d''         floating point     8 '
	DB	0aH, 0aH, 'NOTE: The ''u'' typecode corresponds to Python''s u'
	DB	'nicode character. On ', 0aH, 'narrow builds this is 2-bytes o'
	DB	'n wide builds this is 4-bytes.', 0aH, 0aH, 'NOTE: The ''q'' a'
	DB	'nd ''Q'' type codes are only available if the platform ', 0aH
	DB	'C compiler used to build Python supports ''long long'', or, o'
	DB	'n Windows, ', 0aH, '''__int64''.', 0aH, 0aH, 'The constructor'
	DB	' is:', 0aH, 0aH, 'array(typecode [, initializer]) -- create a'
	DB	' new array', 0aH, 00H
	ORG $+13
arraytype_doc DB 'array(typecode [, initializer]) -> array', 0aH, 0aH, 'R'
	DB	'eturn a new array whose items are restricted by typecode, and'
	DB	0aH, 'initialized from the optional initializer value, which m'
	DB	'ust be a list,', 0aH, 'string or iterable over elements of th'
	DB	'e appropriate type.', 0aH, 0aH, 'Arrays represent basic value'
	DB	's and behave very much like lists, except', 0aH, 'the type of'
	DB	' objects stored in them is constrained.', 0aH, 0aH, 'Methods:'
	DB	0aH, 0aH, 'append() -- append a new item to the end of the arr'
	DB	'ay', 0aH, 'buffer_info() -- return information giving the cur'
	DB	'rent memory info', 0aH, 'byteswap() -- byteswap all the items'
	DB	' of the array', 0aH, 'count() -- return number of occurrences'
	DB	' of an object', 0aH, 'extend() -- extend array by appending m'
	DB	'ultiple elements from an iterable', 0aH, 'fromfile() -- read '
	DB	'items from a file object', 0aH, 'fromlist() -- append items f'
	DB	'rom the list', 0aH, 'frombytes() -- append items from the str'
	DB	'ing', 0aH, 'index() -- return index of first occurrence of an'
	DB	' object', 0aH, 'insert() -- insert a new item into the array '
	DB	'at a provided position', 0aH, 'pop() -- remove and return ite'
	DB	'm (default last)', 0aH, 'remove() -- remove first occurrence '
	DB	'of an object', 0aH, 'reverse() -- reverse the order of the it'
	DB	'ems in the array', 0aH, 'tofile() -- write all items to a fil'
	DB	'e object', 0aH, 'tolist() -- return the array converted to an'
	DB	' ordinary list', 0aH, 'tobytes() -- return the array converte'
	DB	'd to a string', 0aH, 0aH, 'Attributes:', 0aH, 0aH, 'typecode '
	DB	'-- the typecode character used to create the array', 0aH, 'it'
	DB	'emsize -- the length in bytes of one array item', 0aH, 00H
	ORG $+8
Arraytype DQ	dead1234beef5678H
	DQ	dead1234beef5678H
	DQ	0000000000000000H
	ORG $+8
	DQ	0000000000000001H
	DQ	0000000000000000H
	DQ	0000000000000000H
	DQ	0000000000000000H
	DQ	dead1234beef5678H
	DQ	dead1234beef5678H
	DQ	0000000000000001H
	DQ	0000000000000000H
	DQ	0000000000000000H
	ORG $+8
	DQ	FLAT:??_C@_0M@DCMOJOBC@array?4array?$AA@
	DQ	00000000000000a0H
	DQ	0000000000000000H
	DQ	FLAT:array_dealloc
	DQ	0000000000000000H
	DQ	0000000000000000H
	DQ	0000000000000000H
	DQ	0000000000000000H
	DQ	FLAT:array_repr
	DQ	0000000000000000H
	DQ	FLAT:array_as_sequence
	DQ	FLAT:array_as_mapping
	DQ	0000000000000000H
	DQ	0000000000000000H
	DQ	0000000000000000H
	DQ	FLAT:PyObject_GenericGetAttr
	DQ	0000000000000000H
	DQ	FLAT:array_as_buffer
	DD	040400H
	ORG $+4
	DQ	FLAT:arraytype_doc
	DQ	0000000000000000H
	DQ	0000000000000000H
	DQ	FLAT:array_richcompare
	DQ	0000000000000088H
	DQ	FLAT:array_iter
	DQ	0000000000000000H
	DQ	FLAT:array_methods
	DQ	0000000000000000H
	DQ	FLAT:array_getsets
	DQ	0000000000000000H
	DQ	0000000000000000H
	DQ	0000000000000000H
	DQ	0000000000000000H
	DQ	0000000000000000H
	DQ	0000000000000000H
	DQ	FLAT:PyType_GenericAlloc
	DQ	FLAT:array_new
	DQ	FLAT:_PyObject_DebugFree
	ORG $+64
arrayiter_methods DQ FLAT:??_C@_0L@NNMACJIG@__reduce__?$AA@
	DQ	FLAT:arrayiter_reduce
	DD	04H
	ORG $+4
	DQ	FLAT:reduce_doc
	DQ	FLAT:??_C@_0N@MOOGCAMH@__setstate__?$AA@
	DQ	FLAT:arrayiter_setstate
	DD	08H
	ORG $+4
	DQ	FLAT:setstate_doc
	DQ	0000000000000000H
	DQ	0000000000000000H
	ORG $+16
PyArrayIter_Type DQ dead1234beef5678H
	DQ	dead1234beef5678H
	DQ	0000000000000000H
	ORG $+8
	DQ	0000000000000001H
	DQ	0000000000000000H
	DQ	0000000000000000H
	DQ	0000000000000000H
	DQ	dead1234beef5678H
	DQ	dead1234beef5678H
	DQ	0000000000000001H
	DQ	0000000000000000H
	DQ	0000000000000000H
	ORG $+8
	DQ	FLAT:??_C@_0O@OPHKEACL@arrayiterator?$AA@
	DQ	0000000000000080H
	DQ	0000000000000000H
	DQ	FLAT:arrayiter_dealloc
	DQ	0000000000000000H
	DQ	0000000000000000H
	DQ	0000000000000000H
	DQ	0000000000000000H
	DQ	0000000000000000H
	DQ	0000000000000000H
	DQ	0000000000000000H
	DQ	0000000000000000H
	DQ	0000000000000000H
	DQ	0000000000000000H
	DQ	0000000000000000H
	DQ	FLAT:PyObject_GenericGetAttr
	DQ	0000000000000000H
	DQ	0000000000000000H
	DD	044000H
	ORG $+4
	DQ	0000000000000000H
	DQ	FLAT:arrayiter_traverse
	DQ	0000000000000000H
	DQ	0000000000000000H
	DQ	0000000000000000H
	DQ	FLAT:PyObject_SelfIter
	DQ	FLAT:arrayiter_next
	DQ	FLAT:arrayiter_methods
	ORG $+152
a_methods DQ	FLAT:??_C@_0BF@FHDBJGA@_array_reconstructor?$AA@
	DQ	FLAT:array_reconstructor
	DD	01H
	ORG $+4
	DQ	FLAT:??_C@_0CF@GMIJNGPM@Internal?4?5Used?5for?5pickling?5supp@
	DQ	0000000000000000H
	DQ	0000000000000000H
	DD	00H
	ORG $+4
	DQ	0000000000000000H
arraymodule DQ	dead1234beef5678H
	DQ	dead1234beef5678H
	DQ	0000000000000000H
	ORG $+8
	DQ	0000000000000001H
	DQ	0000000000000000H
	DQ	0000000000000000H
	DQ	0000000000000000H
	DQ	dead1234beef5678H
	DQ	dead1234beef5678H
	DQ	0000000000000001H
	DQ	0000000000000000H
	DQ	0000000000000000H
	DQ	0000000000000000H
	DQ	0000000000000000H
	ORG $+8
	DQ	FLAT:??_C@_05HIFJDKLD@array?$AA@
	DQ	FLAT:module_doc
	DQ	ffffffffffffffffH
	DQ	FLAT:a_methods
	DQ	0000000000000000H
	DQ	0000000000000000H
	DQ	0000000000000000H
	DQ	0000000000000000H
_DATA	ENDS
;	COMDAT ??_C@_01LPLHEDKD@d?$AA@
CONST	SEGMENT
??_C@_01LPLHEDKD@d?$AA@ DB 'd', 00H			; `string'
CONST	ENDS
;	COMDAT ??_C@_01INIBCBCB@f?$AA@
CONST	SEGMENT
??_C@_01INIBCBCB@f?$AA@ DB 'f', 00H			; `string'
CONST	ENDS
;	COMDAT ??_C@_01BNIGIBBF@Q?$AA@
CONST	SEGMENT
??_C@_01BNIGIBBF@Q?$AA@ DB 'Q', 00H			; `string'
CONST	ENDS
;	COMDAT ??_C@_01IIACKFLH@q?$AA@
CONST	SEGMENT
??_C@_01IIACKFLH@q?$AA@ DB 'q', 00H			; `string'
CONST	ENDS
;	COMDAT ??_C@_01OCOKONAJ@L?$AA@
CONST	SEGMENT
??_C@_01OCOKONAJ@L?$AA@ DB 'L', 00H			; `string'
CONST	ENDS
;	COMDAT ??_C@_01HHGOMJKL@l?$AA@
CONST	SEGMENT
??_C@_01HHGOMJKL@l?$AA@ DB 'l', 00H			; `string'
CONST	ENDS
;	COMDAT ??_C@_01JPJNBJEM@I?$AA@
CONST	SEGMENT
??_C@_01JPJNBJEM@I?$AA@ DB 'I', 00H			; `string'
CONST	ENDS
;	COMDAT ??_C@_01KBJDNOO@i?$AA@
CONST	SEGMENT
??_C@_01KBJDNOO@i?$AA@ DB 'i', 00H			; `string'
CONST	ENDS
;	COMDAT ??_C@_01IGIGCIAN@H?$AA@
CONST	SEGMENT
??_C@_01IGIGCIAN@H?$AA@ DB 'H', 00H			; `string'
CONST	ENDS
;	COMDAT ??_C@_01BDACAMKP@h?$AA@
CONST	SEGMENT
??_C@_01BDACAMKP@h?$AA@ DB 'h', 00H			; `string'
CONST	ENDS
;	COMDAT ??_C@_01OMGOGALD@u?$AA@
CONST	SEGMENT
??_C@_01OMGOGALD@u?$AA@ DB 'u', 00H			; `string'
CONST	ENDS
;	COMDAT ??_C@_01HMGJMAIH@B?$AA@
CONST	SEGMENT
??_C@_01HMGJMAIH@B?$AA@ DB 'B', 00H			; `string'
CONST	ENDS
;	COMDAT ??_C@_01OJONOECF@b?$AA@
CONST	SEGMENT
??_C@_01OJONOECF@b?$AA@ DB 'b', 00H			; `string'
CONST	ENDS
EXTRN	PyLong_FromLong:PROC
;	COMDAT pdata
; File c:\src\pyparallel\modules\arraymodule.c
pdata	SEGMENT
$pdata$b_getitem DD imagerel b_getitem
	DD	imagerel b_getitem+73
	DD	imagerel $unwind$b_getitem
pdata	ENDS
;	COMDAT xdata
xdata	SEGMENT
$unwind$b_getitem DD 010e01H
	DD	0620eH
; Function compile flags: /Odtp
xdata	ENDS
;	COMDAT b_getitem
_TEXT	SEGMENT
x$ = 32
ap$ = 64
i$ = 72
b_getitem PROC						; COMDAT

; 124  : {

  00000	48 89 54 24 10	 mov	 QWORD PTR [rsp+16], rdx
  00005	48 89 4c 24 08	 mov	 QWORD PTR [rsp+8], rcx
  0000a	48 83 ec 38	 sub	 rsp, 56			; 00000038H

; 125  :     long x = ((char *)ap->ob_item)[i];

  0000e	48 8b 44 24 40	 mov	 rax, QWORD PTR ap$[rsp]
  00013	48 8b 40 70	 mov	 rax, QWORD PTR [rax+112]
  00017	48 8b 4c 24 48	 mov	 rcx, QWORD PTR i$[rsp]
  0001c	0f be 04 08	 movsx	 eax, BYTE PTR [rax+rcx]
  00020	89 44 24 20	 mov	 DWORD PTR x$[rsp], eax

; 126  :     if (x >= 128)

  00024	81 7c 24 20 80
	00 00 00	 cmp	 DWORD PTR x$[rsp], 128	; 00000080H
  0002c	7c 0d		 jl	 SHORT $LN1@b_getitem

; 127  :         x -= 256;

  0002e	8b 44 24 20	 mov	 eax, DWORD PTR x$[rsp]
  00032	2d 00 01 00 00	 sub	 eax, 256		; 00000100H
  00037	89 44 24 20	 mov	 DWORD PTR x$[rsp], eax
$LN1@b_getitem:

; 128  :     return PyLong_FromLong(x);

  0003b	8b 4c 24 20	 mov	 ecx, DWORD PTR x$[rsp]
  0003f	e8 00 00 00 00	 call	 PyLong_FromLong

; 129  : }

  00044	48 83 c4 38	 add	 rsp, 56			; 00000038H
  00048	c3		 ret	 0
b_getitem ENDP
_TEXT	ENDS
PUBLIC	??_C@_0CE@LPIDPKAF@signed?5char?5is?5greater?5than?5maxi@ ; `string'
PUBLIC	??_C@_0CB@KFFPLEPD@signed?5char?5is?5less?5than?5minimum@ ; `string'
PUBLIC	??_C@_0BN@IIFFHIEL@h?$DLarray?5item?5must?5be?5integer?$AA@ ; `string'
EXTRN	PyErr_SetString:PROC
EXTRN	PyExc_OverflowError:QWORD
EXTRN	_PyArg_Parse_SizeT:PROC
;	COMDAT pdata
pdata	SEGMENT
$pdata$b_setitem DD imagerel b_setitem
	DD	imagerel b_setitem+165
	DD	imagerel $unwind$b_setitem
pdata	ENDS
;	COMDAT xdata
xdata	SEGMENT
$unwind$b_setitem DD 011301H
	DD	06213H
xdata	ENDS
;	COMDAT ??_C@_0CE@LPIDPKAF@signed?5char?5is?5greater?5than?5maxi@
CONST	SEGMENT
??_C@_0CE@LPIDPKAF@signed?5char?5is?5greater?5than?5maxi@ DB 'signed char'
	DB	' is greater than maximum', 00H		; `string'
CONST	ENDS
;	COMDAT ??_C@_0CB@KFFPLEPD@signed?5char?5is?5less?5than?5minimum@
CONST	SEGMENT
??_C@_0CB@KFFPLEPD@signed?5char?5is?5less?5than?5minimum@ DB 'signed char'
	DB	' is less than minimum', 00H			; `string'
CONST	ENDS
;	COMDAT ??_C@_0BN@IIFFHIEL@h?$DLarray?5item?5must?5be?5integer?$AA@
CONST	SEGMENT
??_C@_0BN@IIFFHIEL@h?$DLarray?5item?5must?5be?5integer?$AA@ DB 'h;array i'
	DB	'tem must be integer', 00H			; `string'
; Function compile flags: /Odtp
CONST	ENDS
;	COMDAT b_setitem
_TEXT	SEGMENT
x$ = 32
ap$ = 64
i$ = 72
v$ = 80
b_setitem PROC						; COMDAT

; 133  : {

  00000	4c 89 44 24 18	 mov	 QWORD PTR [rsp+24], r8
  00005	48 89 54 24 10	 mov	 QWORD PTR [rsp+16], rdx
  0000a	48 89 4c 24 08	 mov	 QWORD PTR [rsp+8], rcx
  0000f	48 83 ec 38	 sub	 rsp, 56			; 00000038H

; 134  :     short x;
; 135  :     /* PyArg_Parse's 'b' formatter is for an unsigned char, therefore
; 136  :        must use the next size up that is signed ('h') and manually do
; 137  :        the overflow checking */
; 138  :     if (!PyArg_Parse(v, "h;array item must be integer", &x))

  00013	4c 8d 44 24 20	 lea	 r8, QWORD PTR x$[rsp]
  00018	48 8d 15 00 00
	00 00		 lea	 rdx, OFFSET FLAT:??_C@_0BN@IIFFHIEL@h?$DLarray?5item?5must?5be?5integer?$AA@
  0001f	48 8b 4c 24 50	 mov	 rcx, QWORD PTR v$[rsp]
  00024	e8 00 00 00 00	 call	 _PyArg_Parse_SizeT
  00029	85 c0		 test	 eax, eax
  0002b	75 09		 jne	 SHORT $LN6@b_setitem

; 139  :         return -1;

  0002d	b8 ff ff ff ff	 mov	 eax, -1
  00032	eb 6c		 jmp	 SHORT $LN7@b_setitem
  00034	eb 4a		 jmp	 SHORT $LN5@b_setitem
$LN6@b_setitem:

; 140  :     else if (x < -128) {

  00036	0f bf 44 24 20	 movsx	 eax, WORD PTR x$[rsp]
  0003b	83 f8 80	 cmp	 eax, -128		; ffffffffffffff80H
  0003e	7d 1c		 jge	 SHORT $LN4@b_setitem

; 141  :         PyErr_SetString(PyExc_OverflowError,
; 142  :             "signed char is less than minimum");

  00040	48 8d 15 00 00
	00 00		 lea	 rdx, OFFSET FLAT:??_C@_0CB@KFFPLEPD@signed?5char?5is?5less?5than?5minimum@
  00047	48 8b 0d 00 00
	00 00		 mov	 rcx, QWORD PTR PyExc_OverflowError
  0004e	e8 00 00 00 00	 call	 PyErr_SetString

; 143  :         return -1;

  00053	b8 ff ff ff ff	 mov	 eax, -1
  00058	eb 46		 jmp	 SHORT $LN7@b_setitem
  0005a	eb 24		 jmp	 SHORT $LN3@b_setitem
$LN4@b_setitem:

; 144  :     }
; 145  :     else if (x > 127) {

  0005c	0f bf 44 24 20	 movsx	 eax, WORD PTR x$[rsp]
  00061	83 f8 7f	 cmp	 eax, 127		; 0000007fH
  00064	7e 1a		 jle	 SHORT $LN2@b_setitem

; 146  :         PyErr_SetString(PyExc_OverflowError,
; 147  :             "signed char is greater than maximum");

  00066	48 8d 15 00 00
	00 00		 lea	 rdx, OFFSET FLAT:??_C@_0CE@LPIDPKAF@signed?5char?5is?5greater?5than?5maxi@
  0006d	48 8b 0d 00 00
	00 00		 mov	 rcx, QWORD PTR PyExc_OverflowError
  00074	e8 00 00 00 00	 call	 PyErr_SetString

; 148  :         return -1;

  00079	b8 ff ff ff ff	 mov	 eax, -1
  0007e	eb 20		 jmp	 SHORT $LN7@b_setitem
$LN2@b_setitem:
$LN3@b_setitem:
$LN5@b_setitem:

; 149  :     }
; 150  :     if (i >= 0)

  00080	48 83 7c 24 48
	00		 cmp	 QWORD PTR i$[rsp], 0
  00086	7c 16		 jl	 SHORT $LN1@b_setitem

; 151  :         ((char *)ap->ob_item)[i] = (char)x;

  00088	48 8b 44 24 40	 mov	 rax, QWORD PTR ap$[rsp]
  0008d	48 8b 40 70	 mov	 rax, QWORD PTR [rax+112]
  00091	48 8b 4c 24 48	 mov	 rcx, QWORD PTR i$[rsp]
  00096	0f b6 54 24 20	 movzx	 edx, BYTE PTR x$[rsp]
  0009b	88 14 08	 mov	 BYTE PTR [rax+rcx], dl
$LN1@b_setitem:

; 152  :     return 0;

  0009e	33 c0		 xor	 eax, eax
$LN7@b_setitem:

; 153  : }

  000a0	48 83 c4 38	 add	 rsp, 56			; 00000038H
  000a4	c3		 ret	 0
b_setitem ENDP
_TEXT	ENDS
;	COMDAT pdata
pdata	SEGMENT
$pdata$BB_getitem DD imagerel BB_getitem
	DD	imagerel BB_getitem+50
	DD	imagerel $unwind$BB_getitem
pdata	ENDS
;	COMDAT xdata
xdata	SEGMENT
$unwind$BB_getitem DD 010e01H
	DD	0620eH
; Function compile flags: /Odtp
xdata	ENDS
;	COMDAT BB_getitem
_TEXT	SEGMENT
x$ = 32
ap$ = 64
i$ = 72
BB_getitem PROC						; COMDAT

; 157  : {

  00000	48 89 54 24 10	 mov	 QWORD PTR [rsp+16], rdx
  00005	48 89 4c 24 08	 mov	 QWORD PTR [rsp+8], rcx
  0000a	48 83 ec 38	 sub	 rsp, 56			; 00000038H

; 158  :     long x = ((unsigned char *)ap->ob_item)[i];

  0000e	48 8b 44 24 40	 mov	 rax, QWORD PTR ap$[rsp]
  00013	48 8b 40 70	 mov	 rax, QWORD PTR [rax+112]
  00017	48 8b 4c 24 48	 mov	 rcx, QWORD PTR i$[rsp]
  0001c	0f b6 04 08	 movzx	 eax, BYTE PTR [rax+rcx]
  00020	89 44 24 20	 mov	 DWORD PTR x$[rsp], eax

; 159  :     return PyLong_FromLong(x);

  00024	8b 4c 24 20	 mov	 ecx, DWORD PTR x$[rsp]
  00028	e8 00 00 00 00	 call	 PyLong_FromLong

; 160  : }

  0002d	48 83 c4 38	 add	 rsp, 56			; 00000038H
  00031	c3		 ret	 0
BB_getitem ENDP
_TEXT	ENDS
PUBLIC	??_C@_0BN@OAIGAPKB@b?$DLarray?5item?5must?5be?5integer?$AA@ ; `string'
;	COMDAT pdata
pdata	SEGMENT
$pdata$BB_setitem DD imagerel BB_setitem
	DD	imagerel BB_setitem+89
	DD	imagerel $unwind$BB_setitem
pdata	ENDS
;	COMDAT xdata
xdata	SEGMENT
$unwind$BB_setitem DD 011301H
	DD	06213H
xdata	ENDS
;	COMDAT ??_C@_0BN@OAIGAPKB@b?$DLarray?5item?5must?5be?5integer?$AA@
CONST	SEGMENT
??_C@_0BN@OAIGAPKB@b?$DLarray?5item?5must?5be?5integer?$AA@ DB 'b;array i'
	DB	'tem must be integer', 00H			; `string'
; Function compile flags: /Odtp
CONST	ENDS
;	COMDAT BB_setitem
_TEXT	SEGMENT
x$ = 32
ap$ = 64
i$ = 72
v$ = 80
BB_setitem PROC						; COMDAT

; 164  : {

  00000	4c 89 44 24 18	 mov	 QWORD PTR [rsp+24], r8
  00005	48 89 54 24 10	 mov	 QWORD PTR [rsp+16], rdx
  0000a	48 89 4c 24 08	 mov	 QWORD PTR [rsp+8], rcx
  0000f	48 83 ec 38	 sub	 rsp, 56			; 00000038H

; 165  :     unsigned char x;
; 166  :     /* 'B' == unsigned char, maps to PyArg_Parse's 'b' formatter */
; 167  :     if (!PyArg_Parse(v, "b;array item must be integer", &x))

  00013	4c 8d 44 24 20	 lea	 r8, QWORD PTR x$[rsp]
  00018	48 8d 15 00 00
	00 00		 lea	 rdx, OFFSET FLAT:??_C@_0BN@OAIGAPKB@b?$DLarray?5item?5must?5be?5integer?$AA@
  0001f	48 8b 4c 24 50	 mov	 rcx, QWORD PTR v$[rsp]
  00024	e8 00 00 00 00	 call	 _PyArg_Parse_SizeT
  00029	85 c0		 test	 eax, eax
  0002b	75 07		 jne	 SHORT $LN2@BB_setitem

; 168  :         return -1;

  0002d	b8 ff ff ff ff	 mov	 eax, -1
  00032	eb 20		 jmp	 SHORT $LN3@BB_setitem
$LN2@BB_setitem:

; 169  :     if (i >= 0)

  00034	48 83 7c 24 48
	00		 cmp	 QWORD PTR i$[rsp], 0
  0003a	7c 16		 jl	 SHORT $LN1@BB_setitem

; 170  :         ((char *)ap->ob_item)[i] = x;

  0003c	48 8b 44 24 40	 mov	 rax, QWORD PTR ap$[rsp]
  00041	48 8b 40 70	 mov	 rax, QWORD PTR [rax+112]
  00045	48 8b 4c 24 48	 mov	 rcx, QWORD PTR i$[rsp]
  0004a	0f b6 54 24 20	 movzx	 edx, BYTE PTR x$[rsp]
  0004f	88 14 08	 mov	 BYTE PTR [rax+rcx], dl
$LN1@BB_setitem:

; 171  :     return 0;

  00052	33 c0		 xor	 eax, eax
$LN3@BB_setitem:

; 172  : }

  00054	48 83 c4 38	 add	 rsp, 56			; 00000038H
  00058	c3		 ret	 0
BB_setitem ENDP
_TEXT	ENDS
EXTRN	PyUnicode_FromUnicode:PROC
;	COMDAT pdata
pdata	SEGMENT
$pdata$u_getitem DD imagerel u_getitem
	DD	imagerel u_getitem+50
	DD	imagerel $unwind$u_getitem
pdata	ENDS
;	COMDAT xdata
xdata	SEGMENT
$unwind$u_getitem DD 010e01H
	DD	0420eH
; Function compile flags: /Odtp
xdata	ENDS
;	COMDAT u_getitem
_TEXT	SEGMENT
ap$ = 48
i$ = 56
u_getitem PROC						; COMDAT

; 176  : {

  00000	48 89 54 24 10	 mov	 QWORD PTR [rsp+16], rdx
  00005	48 89 4c 24 08	 mov	 QWORD PTR [rsp+8], rcx
  0000a	48 83 ec 28	 sub	 rsp, 40			; 00000028H

; 177  :     return PyUnicode_FromUnicode(&((Py_UNICODE *) ap->ob_item)[i], 1);

  0000e	48 8b 44 24 30	 mov	 rax, QWORD PTR ap$[rsp]
  00013	48 8b 40 70	 mov	 rax, QWORD PTR [rax+112]
  00017	48 8b 4c 24 38	 mov	 rcx, QWORD PTR i$[rsp]
  0001c	48 8d 04 48	 lea	 rax, QWORD PTR [rax+rcx*2]
  00020	ba 01 00 00 00	 mov	 edx, 1
  00025	48 8b c8	 mov	 rcx, rax
  00028	e8 00 00 00 00	 call	 PyUnicode_FromUnicode

; 178  : }

  0002d	48 83 c4 28	 add	 rsp, 40			; 00000028H
  00031	c3		 ret	 0
u_getitem ENDP
_TEXT	ENDS
PUBLIC	??_C@_0CF@JPMPNLNP@array?5item?5must?5be?5unicode?5chara@ ; `string'
PUBLIC	??_C@_0CI@MFMIOCHL@u?$CD?$DLarray?5item?5must?5be?5unicode?5ch@ ; `string'
EXTRN	PyExc_TypeError:QWORD
;	COMDAT pdata
pdata	SEGMENT
$pdata$u_setitem DD imagerel u_setitem
	DD	imagerel u_setitem+132
	DD	imagerel $unwind$u_setitem
pdata	ENDS
;	COMDAT xdata
xdata	SEGMENT
$unwind$u_setitem DD 011301H
	DD	06213H
xdata	ENDS
;	COMDAT ??_C@_0CF@JPMPNLNP@array?5item?5must?5be?5unicode?5chara@
CONST	SEGMENT
??_C@_0CF@JPMPNLNP@array?5item?5must?5be?5unicode?5chara@ DB 'array item '
	DB	'must be unicode character', 00H		; `string'
CONST	ENDS
;	COMDAT ??_C@_0CI@MFMIOCHL@u?$CD?$DLarray?5item?5must?5be?5unicode?5ch@
CONST	SEGMENT
??_C@_0CI@MFMIOCHL@u?$CD?$DLarray?5item?5must?5be?5unicode?5ch@ DB 'u#;ar'
	DB	'ray item must be unicode character', 00H	; `string'
; Function compile flags: /Odtp
CONST	ENDS
;	COMDAT u_setitem
_TEXT	SEGMENT
p$ = 32
len$ = 40
ap$ = 64
i$ = 72
v$ = 80
u_setitem PROC						; COMDAT

; 182  : {

  00000	4c 89 44 24 18	 mov	 QWORD PTR [rsp+24], r8
  00005	48 89 54 24 10	 mov	 QWORD PTR [rsp+16], rdx
  0000a	48 89 4c 24 08	 mov	 QWORD PTR [rsp+8], rcx
  0000f	48 83 ec 38	 sub	 rsp, 56			; 00000038H

; 183  :     Py_UNICODE *p;
; 184  :     Py_ssize_t len;
; 185  : 
; 186  :     if (!PyArg_Parse(v, "u#;array item must be unicode character", &p, &len))

  00013	4c 8d 4c 24 28	 lea	 r9, QWORD PTR len$[rsp]
  00018	4c 8d 44 24 20	 lea	 r8, QWORD PTR p$[rsp]
  0001d	48 8d 15 00 00
	00 00		 lea	 rdx, OFFSET FLAT:??_C@_0CI@MFMIOCHL@u?$CD?$DLarray?5item?5must?5be?5unicode?5ch@
  00024	48 8b 4c 24 50	 mov	 rcx, QWORD PTR v$[rsp]
  00029	e8 00 00 00 00	 call	 _PyArg_Parse_SizeT
  0002e	85 c0		 test	 eax, eax
  00030	75 07		 jne	 SHORT $LN3@u_setitem

; 187  :         return -1;

  00032	b8 ff ff ff ff	 mov	 eax, -1
  00037	eb 46		 jmp	 SHORT $LN4@u_setitem
$LN3@u_setitem:

; 188  :     if (len != 1) {

  00039	48 83 7c 24 28
	01		 cmp	 QWORD PTR len$[rsp], 1
  0003f	74 1a		 je	 SHORT $LN2@u_setitem

; 189  :         PyErr_SetString(PyExc_TypeError,
; 190  :                         "array item must be unicode character");

  00041	48 8d 15 00 00
	00 00		 lea	 rdx, OFFSET FLAT:??_C@_0CF@JPMPNLNP@array?5item?5must?5be?5unicode?5chara@
  00048	48 8b 0d 00 00
	00 00		 mov	 rcx, QWORD PTR PyExc_TypeError
  0004f	e8 00 00 00 00	 call	 PyErr_SetString

; 191  :         return -1;

  00054	b8 ff ff ff ff	 mov	 eax, -1
  00059	eb 24		 jmp	 SHORT $LN4@u_setitem
$LN2@u_setitem:

; 192  :     }
; 193  :     if (i >= 0)

  0005b	48 83 7c 24 48
	00		 cmp	 QWORD PTR i$[rsp], 0
  00061	7c 1a		 jl	 SHORT $LN1@u_setitem

; 194  :         ((Py_UNICODE *)ap->ob_item)[i] = p[0];

  00063	48 8b 44 24 40	 mov	 rax, QWORD PTR ap$[rsp]
  00068	48 8b 40 70	 mov	 rax, QWORD PTR [rax+112]
  0006c	48 8b 4c 24 48	 mov	 rcx, QWORD PTR i$[rsp]
  00071	48 8b 54 24 20	 mov	 rdx, QWORD PTR p$[rsp]
  00076	0f b7 12	 movzx	 edx, WORD PTR [rdx]
  00079	66 89 14 48	 mov	 WORD PTR [rax+rcx*2], dx
$LN1@u_setitem:

; 195  :     return 0;

  0007d	33 c0		 xor	 eax, eax
$LN4@u_setitem:

; 196  : }

  0007f	48 83 c4 38	 add	 rsp, 56			; 00000038H
  00083	c3		 ret	 0
u_setitem ENDP
_TEXT	ENDS
;	COMDAT pdata
pdata	SEGMENT
$pdata$h_getitem DD imagerel h_getitem
	DD	imagerel h_getitem+44
	DD	imagerel $unwind$h_getitem
pdata	ENDS
;	COMDAT xdata
xdata	SEGMENT
$unwind$h_getitem DD 010e01H
	DD	0420eH
; Function compile flags: /Odtp
xdata	ENDS
;	COMDAT h_getitem
_TEXT	SEGMENT
ap$ = 48
i$ = 56
h_getitem PROC						; COMDAT

; 201  : {

  00000	48 89 54 24 10	 mov	 QWORD PTR [rsp+16], rdx
  00005	48 89 4c 24 08	 mov	 QWORD PTR [rsp+8], rcx
  0000a	48 83 ec 28	 sub	 rsp, 40			; 00000028H

; 202  :     return PyLong_FromLong((long) ((short *)ap->ob_item)[i]);

  0000e	48 8b 44 24 30	 mov	 rax, QWORD PTR ap$[rsp]
  00013	48 8b 40 70	 mov	 rax, QWORD PTR [rax+112]
  00017	48 8b 4c 24 38	 mov	 rcx, QWORD PTR i$[rsp]
  0001c	0f bf 04 48	 movsx	 eax, WORD PTR [rax+rcx*2]
  00020	8b c8		 mov	 ecx, eax
  00022	e8 00 00 00 00	 call	 PyLong_FromLong

; 203  : }

  00027	48 83 c4 28	 add	 rsp, 40			; 00000028H
  0002b	c3		 ret	 0
h_getitem ENDP
_TEXT	ENDS
;	COMDAT pdata
pdata	SEGMENT
$pdata$h_setitem DD imagerel h_setitem
	DD	imagerel h_setitem+90
	DD	imagerel $unwind$h_setitem
pdata	ENDS
;	COMDAT xdata
xdata	SEGMENT
$unwind$h_setitem DD 011301H
	DD	06213H
; Function compile flags: /Odtp
xdata	ENDS
;	COMDAT h_setitem
_TEXT	SEGMENT
x$ = 32
ap$ = 64
i$ = 72
v$ = 80
h_setitem PROC						; COMDAT

; 208  : {

  00000	4c 89 44 24 18	 mov	 QWORD PTR [rsp+24], r8
  00005	48 89 54 24 10	 mov	 QWORD PTR [rsp+16], rdx
  0000a	48 89 4c 24 08	 mov	 QWORD PTR [rsp+8], rcx
  0000f	48 83 ec 38	 sub	 rsp, 56			; 00000038H

; 209  :     short x;
; 210  :     /* 'h' == signed short, maps to PyArg_Parse's 'h' formatter */
; 211  :     if (!PyArg_Parse(v, "h;array item must be integer", &x))

  00013	4c 8d 44 24 20	 lea	 r8, QWORD PTR x$[rsp]
  00018	48 8d 15 00 00
	00 00		 lea	 rdx, OFFSET FLAT:??_C@_0BN@IIFFHIEL@h?$DLarray?5item?5must?5be?5integer?$AA@
  0001f	48 8b 4c 24 50	 mov	 rcx, QWORD PTR v$[rsp]
  00024	e8 00 00 00 00	 call	 _PyArg_Parse_SizeT
  00029	85 c0		 test	 eax, eax
  0002b	75 07		 jne	 SHORT $LN2@h_setitem

; 212  :         return -1;

  0002d	b8 ff ff ff ff	 mov	 eax, -1
  00032	eb 21		 jmp	 SHORT $LN3@h_setitem
$LN2@h_setitem:

; 213  :     if (i >= 0)

  00034	48 83 7c 24 48
	00		 cmp	 QWORD PTR i$[rsp], 0
  0003a	7c 17		 jl	 SHORT $LN1@h_setitem

; 214  :                  ((short *)ap->ob_item)[i] = x;

  0003c	48 8b 44 24 40	 mov	 rax, QWORD PTR ap$[rsp]
  00041	48 8b 40 70	 mov	 rax, QWORD PTR [rax+112]
  00045	48 8b 4c 24 48	 mov	 rcx, QWORD PTR i$[rsp]
  0004a	0f b7 54 24 20	 movzx	 edx, WORD PTR x$[rsp]
  0004f	66 89 14 48	 mov	 WORD PTR [rax+rcx*2], dx
$LN1@h_setitem:

; 215  :     return 0;

  00053	33 c0		 xor	 eax, eax
$LN3@h_setitem:

; 216  : }

  00055	48 83 c4 38	 add	 rsp, 56			; 00000038H
  00059	c3		 ret	 0
h_setitem ENDP
_TEXT	ENDS
;	COMDAT pdata
pdata	SEGMENT
$pdata$HH_getitem DD imagerel HH_getitem
	DD	imagerel HH_getitem+44
	DD	imagerel $unwind$HH_getitem
pdata	ENDS
;	COMDAT xdata
xdata	SEGMENT
$unwind$HH_getitem DD 010e01H
	DD	0420eH
; Function compile flags: /Odtp
xdata	ENDS
;	COMDAT HH_getitem
_TEXT	SEGMENT
ap$ = 48
i$ = 56
HH_getitem PROC						; COMDAT

; 220  : {

  00000	48 89 54 24 10	 mov	 QWORD PTR [rsp+16], rdx
  00005	48 89 4c 24 08	 mov	 QWORD PTR [rsp+8], rcx
  0000a	48 83 ec 28	 sub	 rsp, 40			; 00000028H

; 221  :     return PyLong_FromLong((long) ((unsigned short *)ap->ob_item)[i]);

  0000e	48 8b 44 24 30	 mov	 rax, QWORD PTR ap$[rsp]
  00013	48 8b 40 70	 mov	 rax, QWORD PTR [rax+112]
  00017	48 8b 4c 24 38	 mov	 rcx, QWORD PTR i$[rsp]
  0001c	0f b7 04 48	 movzx	 eax, WORD PTR [rax+rcx*2]
  00020	8b c8		 mov	 ecx, eax
  00022	e8 00 00 00 00	 call	 PyLong_FromLong

; 222  : }

  00027	48 83 c4 28	 add	 rsp, 40			; 00000028H
  0002b	c3		 ret	 0
HH_getitem ENDP
_TEXT	ENDS
PUBLIC	??_C@_0CH@FGIAJPNJ@unsigned?5short?5is?5greater?5than?5m@ ; `string'
PUBLIC	??_C@_0CE@KIHIKEPG@unsigned?5short?5is?5less?5than?5mini@ ; `string'
PUBLIC	??_C@_0BN@OLFCKBGP@i?$DLarray?5item?5must?5be?5integer?$AA@ ; `string'
;	COMDAT pdata
pdata	SEGMENT
$pdata$HH_setitem DD imagerel HH_setitem
	DD	imagerel HH_setitem+163
	DD	imagerel $unwind$HH_setitem
pdata	ENDS
;	COMDAT xdata
xdata	SEGMENT
$unwind$HH_setitem DD 011301H
	DD	06213H
xdata	ENDS
;	COMDAT ??_C@_0CH@FGIAJPNJ@unsigned?5short?5is?5greater?5than?5m@
CONST	SEGMENT
??_C@_0CH@FGIAJPNJ@unsigned?5short?5is?5greater?5than?5m@ DB 'unsigned sh'
	DB	'ort is greater than maximum', 00H		; `string'
CONST	ENDS
;	COMDAT ??_C@_0CE@KIHIKEPG@unsigned?5short?5is?5less?5than?5mini@
CONST	SEGMENT
??_C@_0CE@KIHIKEPG@unsigned?5short?5is?5less?5than?5mini@ DB 'unsigned sh'
	DB	'ort is less than minimum', 00H		; `string'
CONST	ENDS
;	COMDAT ??_C@_0BN@OLFCKBGP@i?$DLarray?5item?5must?5be?5integer?$AA@
CONST	SEGMENT
??_C@_0BN@OLFCKBGP@i?$DLarray?5item?5must?5be?5integer?$AA@ DB 'i;array i'
	DB	'tem must be integer', 00H			; `string'
; Function compile flags: /Odtp
CONST	ENDS
;	COMDAT HH_setitem
_TEXT	SEGMENT
x$ = 32
ap$ = 64
i$ = 72
v$ = 80
HH_setitem PROC						; COMDAT

; 226  : {

  00000	4c 89 44 24 18	 mov	 QWORD PTR [rsp+24], r8
  00005	48 89 54 24 10	 mov	 QWORD PTR [rsp+16], rdx
  0000a	48 89 4c 24 08	 mov	 QWORD PTR [rsp+8], rcx
  0000f	48 83 ec 38	 sub	 rsp, 56			; 00000038H

; 227  :     int x;
; 228  :     /* PyArg_Parse's 'h' formatter is for a signed short, therefore
; 229  :        must use the next size up and manually do the overflow checking */
; 230  :     if (!PyArg_Parse(v, "i;array item must be integer", &x))

  00013	4c 8d 44 24 20	 lea	 r8, QWORD PTR x$[rsp]
  00018	48 8d 15 00 00
	00 00		 lea	 rdx, OFFSET FLAT:??_C@_0BN@OLFCKBGP@i?$DLarray?5item?5must?5be?5integer?$AA@
  0001f	48 8b 4c 24 50	 mov	 rcx, QWORD PTR v$[rsp]
  00024	e8 00 00 00 00	 call	 _PyArg_Parse_SizeT
  00029	85 c0		 test	 eax, eax
  0002b	75 09		 jne	 SHORT $LN6@HH_setitem

; 231  :         return -1;

  0002d	b8 ff ff ff ff	 mov	 eax, -1
  00032	eb 6a		 jmp	 SHORT $LN7@HH_setitem
  00034	eb 47		 jmp	 SHORT $LN5@HH_setitem
$LN6@HH_setitem:

; 232  :     else if (x < 0) {

  00036	83 7c 24 20 00	 cmp	 DWORD PTR x$[rsp], 0
  0003b	7d 1c		 jge	 SHORT $LN4@HH_setitem

; 233  :         PyErr_SetString(PyExc_OverflowError,
; 234  :             "unsigned short is less than minimum");

  0003d	48 8d 15 00 00
	00 00		 lea	 rdx, OFFSET FLAT:??_C@_0CE@KIHIKEPG@unsigned?5short?5is?5less?5than?5mini@
  00044	48 8b 0d 00 00
	00 00		 mov	 rcx, QWORD PTR PyExc_OverflowError
  0004b	e8 00 00 00 00	 call	 PyErr_SetString

; 235  :         return -1;

  00050	b8 ff ff ff ff	 mov	 eax, -1
  00055	eb 47		 jmp	 SHORT $LN7@HH_setitem
  00057	eb 24		 jmp	 SHORT $LN3@HH_setitem
$LN4@HH_setitem:

; 236  :     }
; 237  :     else if (x > USHRT_MAX) {

  00059	81 7c 24 20 ff
	ff 00 00	 cmp	 DWORD PTR x$[rsp], 65535 ; 0000ffffH
  00061	7e 1a		 jle	 SHORT $LN2@HH_setitem

; 238  :         PyErr_SetString(PyExc_OverflowError,
; 239  :             "unsigned short is greater than maximum");

  00063	48 8d 15 00 00
	00 00		 lea	 rdx, OFFSET FLAT:??_C@_0CH@FGIAJPNJ@unsigned?5short?5is?5greater?5than?5m@
  0006a	48 8b 0d 00 00
	00 00		 mov	 rcx, QWORD PTR PyExc_OverflowError
  00071	e8 00 00 00 00	 call	 PyErr_SetString

; 240  :         return -1;

  00076	b8 ff ff ff ff	 mov	 eax, -1
  0007b	eb 21		 jmp	 SHORT $LN7@HH_setitem
$LN2@HH_setitem:
$LN3@HH_setitem:
$LN5@HH_setitem:

; 241  :     }
; 242  :     if (i >= 0)

  0007d	48 83 7c 24 48
	00		 cmp	 QWORD PTR i$[rsp], 0
  00083	7c 17		 jl	 SHORT $LN1@HH_setitem

; 243  :         ((short *)ap->ob_item)[i] = (short)x;

  00085	48 8b 44 24 40	 mov	 rax, QWORD PTR ap$[rsp]
  0008a	48 8b 40 70	 mov	 rax, QWORD PTR [rax+112]
  0008e	48 8b 4c 24 48	 mov	 rcx, QWORD PTR i$[rsp]
  00093	0f b7 54 24 20	 movzx	 edx, WORD PTR x$[rsp]
  00098	66 89 14 48	 mov	 WORD PTR [rax+rcx*2], dx
$LN1@HH_setitem:

; 244  :     return 0;

  0009c	33 c0		 xor	 eax, eax
$LN7@HH_setitem:

; 245  : }

  0009e	48 83 c4 38	 add	 rsp, 56			; 00000038H
  000a2	c3		 ret	 0
HH_setitem ENDP
_TEXT	ENDS
;	COMDAT pdata
pdata	SEGMENT
$pdata$i_getitem DD imagerel i_getitem
	DD	imagerel i_getitem+41
	DD	imagerel $unwind$i_getitem
pdata	ENDS
;	COMDAT xdata
xdata	SEGMENT
$unwind$i_getitem DD 010e01H
	DD	0420eH
; Function compile flags: /Odtp
xdata	ENDS
;	COMDAT i_getitem
_TEXT	SEGMENT
ap$ = 48
i$ = 56
i_getitem PROC						; COMDAT

; 249  : {

  00000	48 89 54 24 10	 mov	 QWORD PTR [rsp+16], rdx
  00005	48 89 4c 24 08	 mov	 QWORD PTR [rsp+8], rcx
  0000a	48 83 ec 28	 sub	 rsp, 40			; 00000028H

; 250  :     return PyLong_FromLong((long) ((int *)ap->ob_item)[i]);

  0000e	48 8b 44 24 30	 mov	 rax, QWORD PTR ap$[rsp]
  00013	48 8b 40 70	 mov	 rax, QWORD PTR [rax+112]
  00017	48 8b 4c 24 38	 mov	 rcx, QWORD PTR i$[rsp]
  0001c	8b 0c 88	 mov	 ecx, DWORD PTR [rax+rcx*4]
  0001f	e8 00 00 00 00	 call	 PyLong_FromLong

; 251  : }

  00024	48 83 c4 28	 add	 rsp, 40			; 00000028H
  00028	c3		 ret	 0
i_getitem ENDP
_TEXT	ENDS
;	COMDAT pdata
pdata	SEGMENT
$pdata$i_setitem DD imagerel i_setitem
	DD	imagerel i_setitem+88
	DD	imagerel $unwind$i_setitem
pdata	ENDS
;	COMDAT xdata
xdata	SEGMENT
$unwind$i_setitem DD 011301H
	DD	06213H
; Function compile flags: /Odtp
xdata	ENDS
;	COMDAT i_setitem
_TEXT	SEGMENT
x$ = 32
ap$ = 64
i$ = 72
v$ = 80
i_setitem PROC						; COMDAT

; 255  : {

  00000	4c 89 44 24 18	 mov	 QWORD PTR [rsp+24], r8
  00005	48 89 54 24 10	 mov	 QWORD PTR [rsp+16], rdx
  0000a	48 89 4c 24 08	 mov	 QWORD PTR [rsp+8], rcx
  0000f	48 83 ec 38	 sub	 rsp, 56			; 00000038H

; 256  :     int x;
; 257  :     /* 'i' == signed int, maps to PyArg_Parse's 'i' formatter */
; 258  :     if (!PyArg_Parse(v, "i;array item must be integer", &x))

  00013	4c 8d 44 24 20	 lea	 r8, QWORD PTR x$[rsp]
  00018	48 8d 15 00 00
	00 00		 lea	 rdx, OFFSET FLAT:??_C@_0BN@OLFCKBGP@i?$DLarray?5item?5must?5be?5integer?$AA@
  0001f	48 8b 4c 24 50	 mov	 rcx, QWORD PTR v$[rsp]
  00024	e8 00 00 00 00	 call	 _PyArg_Parse_SizeT
  00029	85 c0		 test	 eax, eax
  0002b	75 07		 jne	 SHORT $LN2@i_setitem

; 259  :         return -1;

  0002d	b8 ff ff ff ff	 mov	 eax, -1
  00032	eb 1f		 jmp	 SHORT $LN3@i_setitem
$LN2@i_setitem:

; 260  :     if (i >= 0)

  00034	48 83 7c 24 48
	00		 cmp	 QWORD PTR i$[rsp], 0
  0003a	7c 15		 jl	 SHORT $LN1@i_setitem

; 261  :                  ((int *)ap->ob_item)[i] = x;

  0003c	48 8b 44 24 40	 mov	 rax, QWORD PTR ap$[rsp]
  00041	48 8b 40 70	 mov	 rax, QWORD PTR [rax+112]
  00045	48 8b 4c 24 48	 mov	 rcx, QWORD PTR i$[rsp]
  0004a	8b 54 24 20	 mov	 edx, DWORD PTR x$[rsp]
  0004e	89 14 88	 mov	 DWORD PTR [rax+rcx*4], edx
$LN1@i_setitem:

; 262  :     return 0;

  00051	33 c0		 xor	 eax, eax
$LN3@i_setitem:

; 263  : }

  00053	48 83 c4 38	 add	 rsp, 56			; 00000038H
  00057	c3		 ret	 0
i_setitem ENDP
_TEXT	ENDS
EXTRN	PyLong_FromUnsignedLong:PROC
;	COMDAT pdata
pdata	SEGMENT
$pdata$II_getitem DD imagerel II_getitem
	DD	imagerel II_getitem+41
	DD	imagerel $unwind$II_getitem
pdata	ENDS
;	COMDAT xdata
xdata	SEGMENT
$unwind$II_getitem DD 010e01H
	DD	0420eH
; Function compile flags: /Odtp
xdata	ENDS
;	COMDAT II_getitem
_TEXT	SEGMENT
ap$ = 48
i$ = 56
II_getitem PROC						; COMDAT

; 267  : {

  00000	48 89 54 24 10	 mov	 QWORD PTR [rsp+16], rdx
  00005	48 89 4c 24 08	 mov	 QWORD PTR [rsp+8], rcx
  0000a	48 83 ec 28	 sub	 rsp, 40			; 00000028H

; 268  :     return PyLong_FromUnsignedLong(
; 269  :         (unsigned long) ((unsigned int *)ap->ob_item)[i]);

  0000e	48 8b 44 24 30	 mov	 rax, QWORD PTR ap$[rsp]
  00013	48 8b 40 70	 mov	 rax, QWORD PTR [rax+112]
  00017	48 8b 4c 24 38	 mov	 rcx, QWORD PTR i$[rsp]
  0001c	8b 0c 88	 mov	 ecx, DWORD PTR [rax+rcx*4]
  0001f	e8 00 00 00 00	 call	 PyLong_FromUnsignedLong

; 270  : }

  00024	48 83 c4 28	 add	 rsp, 40			; 00000028H
  00028	c3		 ret	 0
II_getitem ENDP
_TEXT	ENDS
PUBLIC	??_C@_0CF@FJOCEHKO@unsigned?5int?5is?5greater?5than?5max@ ; `string'
PUBLIC	??_C@_0CC@EPGGIEKN@unsigned?5int?5is?5less?5than?5minimu@ ; `string'
PUBLIC	??_C@_0BN@NPDLBKJK@l?$DLarray?5item?5must?5be?5integer?$AA@ ; `string'
EXTRN	PyErr_Occurred:PROC
EXTRN	PyLong_AsUnsignedLong:PROC
;	COMDAT pdata
pdata	SEGMENT
$pdata$II_setitem DD imagerel II_setitem
	DD	imagerel II_setitem+229
	DD	imagerel $unwind$II_setitem
pdata	ENDS
;	COMDAT xdata
xdata	SEGMENT
$unwind$II_setitem DD 011301H
	DD	06213H
xdata	ENDS
;	COMDAT ??_C@_0CF@FJOCEHKO@unsigned?5int?5is?5greater?5than?5max@
CONST	SEGMENT
??_C@_0CF@FJOCEHKO@unsigned?5int?5is?5greater?5than?5max@ DB 'unsigned in'
	DB	't is greater than maximum', 00H		; `string'
CONST	ENDS
;	COMDAT ??_C@_0CC@EPGGIEKN@unsigned?5int?5is?5less?5than?5minimu@
CONST	SEGMENT
??_C@_0CC@EPGGIEKN@unsigned?5int?5is?5less?5than?5minimu@ DB 'unsigned in'
	DB	't is less than minimum', 00H		; `string'
CONST	ENDS
;	COMDAT ??_C@_0BN@NPDLBKJK@l?$DLarray?5item?5must?5be?5integer?$AA@
CONST	SEGMENT
??_C@_0BN@NPDLBKJK@l?$DLarray?5item?5must?5be?5integer?$AA@ DB 'l;array i'
	DB	'tem must be integer', 00H			; `string'
; Function compile flags: /Odtp
CONST	ENDS
;	COMDAT II_setitem
_TEXT	SEGMENT
x$ = 32
y$20551 = 36
ap$ = 64
i$ = 72
v$ = 80
II_setitem PROC						; COMDAT

; 274  : {

  00000	4c 89 44 24 18	 mov	 QWORD PTR [rsp+24], r8
  00005	48 89 54 24 10	 mov	 QWORD PTR [rsp+16], rdx
  0000a	48 89 4c 24 08	 mov	 QWORD PTR [rsp+8], rcx
  0000f	48 83 ec 38	 sub	 rsp, 56			; 00000038H

; 275  :     unsigned long x;
; 276  :     if (PyLong_Check(v)) {

  00013	48 8b 44 24 50	 mov	 rax, QWORD PTR v$[rsp]
  00018	48 8b 40 58	 mov	 rax, QWORD PTR [rax+88]
  0001c	8b 80 00 01 00
	00		 mov	 eax, DWORD PTR [rax+256]
  00022	25 00 00 00 01	 and	 eax, 16777216		; 01000000H
  00027	85 c0		 test	 eax, eax
  00029	74 2b		 je	 SHORT $LN7@II_setitem@2

; 277  :         x = PyLong_AsUnsignedLong(v);

  0002b	48 8b 4c 24 50	 mov	 rcx, QWORD PTR v$[rsp]
  00030	e8 00 00 00 00	 call	 PyLong_AsUnsignedLong
  00035	89 44 24 20	 mov	 DWORD PTR x$[rsp], eax

; 278  :         if (x == (unsigned long) -1 && PyErr_Occurred())

  00039	83 7c 24 20 ff	 cmp	 DWORD PTR x$[rsp], -1	; ffffffffH
  0003e	75 14		 jne	 SHORT $LN6@II_setitem@2
  00040	e8 00 00 00 00	 call	 PyErr_Occurred
  00045	48 85 c0	 test	 rax, rax
  00048	74 0a		 je	 SHORT $LN6@II_setitem@2

; 279  :             return -1;

  0004a	b8 ff ff ff ff	 mov	 eax, -1
  0004f	e9 8c 00 00 00	 jmp	 $LN8@II_setitem@2
$LN6@II_setitem@2:

; 280  :     }
; 281  :     else {

  00054	eb 4a		 jmp	 SHORT $LN5@II_setitem@2
$LN7@II_setitem@2:

; 282  :         long y;
; 283  :         if (!PyArg_Parse(v, "l;array item must be integer", &y))

  00056	4c 8d 44 24 24	 lea	 r8, QWORD PTR y$20551[rsp]
  0005b	48 8d 15 00 00
	00 00		 lea	 rdx, OFFSET FLAT:??_C@_0BN@NPDLBKJK@l?$DLarray?5item?5must?5be?5integer?$AA@
  00062	48 8b 4c 24 50	 mov	 rcx, QWORD PTR v$[rsp]
  00067	e8 00 00 00 00	 call	 _PyArg_Parse_SizeT
  0006c	85 c0		 test	 eax, eax
  0006e	75 07		 jne	 SHORT $LN4@II_setitem@2

; 284  :             return -1;

  00070	b8 ff ff ff ff	 mov	 eax, -1
  00075	eb 69		 jmp	 SHORT $LN8@II_setitem@2
$LN4@II_setitem@2:

; 285  :         if (y < 0) {

  00077	83 7c 24 24 00	 cmp	 DWORD PTR y$20551[rsp], 0
  0007c	7d 1a		 jge	 SHORT $LN3@II_setitem@2

; 286  :             PyErr_SetString(PyExc_OverflowError,
; 287  :                 "unsigned int is less than minimum");

  0007e	48 8d 15 00 00
	00 00		 lea	 rdx, OFFSET FLAT:??_C@_0CC@EPGGIEKN@unsigned?5int?5is?5less?5than?5minimu@
  00085	48 8b 0d 00 00
	00 00		 mov	 rcx, QWORD PTR PyExc_OverflowError
  0008c	e8 00 00 00 00	 call	 PyErr_SetString

; 288  :             return -1;

  00091	b8 ff ff ff ff	 mov	 eax, -1
  00096	eb 48		 jmp	 SHORT $LN8@II_setitem@2
$LN3@II_setitem@2:

; 289  :         }
; 290  :         x = (unsigned long)y;

  00098	8b 44 24 24	 mov	 eax, DWORD PTR y$20551[rsp]
  0009c	89 44 24 20	 mov	 DWORD PTR x$[rsp], eax
$LN5@II_setitem@2:

; 291  : 
; 292  :     }
; 293  :     if (x > UINT_MAX) {

  000a0	83 7c 24 20 ff	 cmp	 DWORD PTR x$[rsp], -1	; ffffffffH
  000a5	76 1a		 jbe	 SHORT $LN2@II_setitem@2

; 294  :         PyErr_SetString(PyExc_OverflowError,
; 295  :             "unsigned int is greater than maximum");

  000a7	48 8d 15 00 00
	00 00		 lea	 rdx, OFFSET FLAT:??_C@_0CF@FJOCEHKO@unsigned?5int?5is?5greater?5than?5max@
  000ae	48 8b 0d 00 00
	00 00		 mov	 rcx, QWORD PTR PyExc_OverflowError
  000b5	e8 00 00 00 00	 call	 PyErr_SetString

; 296  :         return -1;

  000ba	b8 ff ff ff ff	 mov	 eax, -1
  000bf	eb 1f		 jmp	 SHORT $LN8@II_setitem@2
$LN2@II_setitem@2:

; 297  :     }
; 298  : 
; 299  :     if (i >= 0)

  000c1	48 83 7c 24 48
	00		 cmp	 QWORD PTR i$[rsp], 0
  000c7	7c 15		 jl	 SHORT $LN1@II_setitem@2

; 300  :         ((unsigned int *)ap->ob_item)[i] = (unsigned int)x;

  000c9	48 8b 44 24 40	 mov	 rax, QWORD PTR ap$[rsp]
  000ce	48 8b 40 70	 mov	 rax, QWORD PTR [rax+112]
  000d2	48 8b 4c 24 48	 mov	 rcx, QWORD PTR i$[rsp]
  000d7	8b 54 24 20	 mov	 edx, DWORD PTR x$[rsp]
  000db	89 14 88	 mov	 DWORD PTR [rax+rcx*4], edx
$LN1@II_setitem@2:

; 301  :     return 0;

  000de	33 c0		 xor	 eax, eax
$LN8@II_setitem@2:

; 302  : }

  000e0	48 83 c4 38	 add	 rsp, 56			; 00000038H
  000e4	c3		 ret	 0
II_setitem ENDP
_TEXT	ENDS
;	COMDAT pdata
pdata	SEGMENT
$pdata$l_getitem DD imagerel l_getitem
	DD	imagerel l_getitem+41
	DD	imagerel $unwind$l_getitem
pdata	ENDS
;	COMDAT xdata
xdata	SEGMENT
$unwind$l_getitem DD 010e01H
	DD	0420eH
; Function compile flags: /Odtp
xdata	ENDS
;	COMDAT l_getitem
_TEXT	SEGMENT
ap$ = 48
i$ = 56
l_getitem PROC						; COMDAT

; 306  : {

  00000	48 89 54 24 10	 mov	 QWORD PTR [rsp+16], rdx
  00005	48 89 4c 24 08	 mov	 QWORD PTR [rsp+8], rcx
  0000a	48 83 ec 28	 sub	 rsp, 40			; 00000028H

; 307  :     return PyLong_FromLong(((long *)ap->ob_item)[i]);

  0000e	48 8b 44 24 30	 mov	 rax, QWORD PTR ap$[rsp]
  00013	48 8b 40 70	 mov	 rax, QWORD PTR [rax+112]
  00017	48 8b 4c 24 38	 mov	 rcx, QWORD PTR i$[rsp]
  0001c	8b 0c 88	 mov	 ecx, DWORD PTR [rax+rcx*4]
  0001f	e8 00 00 00 00	 call	 PyLong_FromLong

; 308  : }

  00024	48 83 c4 28	 add	 rsp, 40			; 00000028H
  00028	c3		 ret	 0
l_getitem ENDP
_TEXT	ENDS
;	COMDAT pdata
pdata	SEGMENT
$pdata$l_setitem DD imagerel l_setitem
	DD	imagerel l_setitem+88
	DD	imagerel $unwind$l_setitem
pdata	ENDS
;	COMDAT xdata
xdata	SEGMENT
$unwind$l_setitem DD 011301H
	DD	06213H
; Function compile flags: /Odtp
xdata	ENDS
;	COMDAT l_setitem
_TEXT	SEGMENT
x$ = 32
ap$ = 64
i$ = 72
v$ = 80
l_setitem PROC						; COMDAT

; 312  : {

  00000	4c 89 44 24 18	 mov	 QWORD PTR [rsp+24], r8
  00005	48 89 54 24 10	 mov	 QWORD PTR [rsp+16], rdx
  0000a	48 89 4c 24 08	 mov	 QWORD PTR [rsp+8], rcx
  0000f	48 83 ec 38	 sub	 rsp, 56			; 00000038H

; 313  :     long x;
; 314  :     if (!PyArg_Parse(v, "l;array item must be integer", &x))

  00013	4c 8d 44 24 20	 lea	 r8, QWORD PTR x$[rsp]
  00018	48 8d 15 00 00
	00 00		 lea	 rdx, OFFSET FLAT:??_C@_0BN@NPDLBKJK@l?$DLarray?5item?5must?5be?5integer?$AA@
  0001f	48 8b 4c 24 50	 mov	 rcx, QWORD PTR v$[rsp]
  00024	e8 00 00 00 00	 call	 _PyArg_Parse_SizeT
  00029	85 c0		 test	 eax, eax
  0002b	75 07		 jne	 SHORT $LN2@l_setitem

; 315  :         return -1;

  0002d	b8 ff ff ff ff	 mov	 eax, -1
  00032	eb 1f		 jmp	 SHORT $LN3@l_setitem
$LN2@l_setitem:

; 316  :     if (i >= 0)

  00034	48 83 7c 24 48
	00		 cmp	 QWORD PTR i$[rsp], 0
  0003a	7c 15		 jl	 SHORT $LN1@l_setitem

; 317  :                  ((long *)ap->ob_item)[i] = x;

  0003c	48 8b 44 24 40	 mov	 rax, QWORD PTR ap$[rsp]
  00041	48 8b 40 70	 mov	 rax, QWORD PTR [rax+112]
  00045	48 8b 4c 24 48	 mov	 rcx, QWORD PTR i$[rsp]
  0004a	8b 54 24 20	 mov	 edx, DWORD PTR x$[rsp]
  0004e	89 14 88	 mov	 DWORD PTR [rax+rcx*4], edx
$LN1@l_setitem:

; 318  :     return 0;

  00051	33 c0		 xor	 eax, eax
$LN3@l_setitem:

; 319  : }

  00053	48 83 c4 38	 add	 rsp, 56			; 00000038H
  00057	c3		 ret	 0
l_setitem ENDP
_TEXT	ENDS
;	COMDAT pdata
pdata	SEGMENT
$pdata$LL_getitem DD imagerel LL_getitem
	DD	imagerel LL_getitem+41
	DD	imagerel $unwind$LL_getitem
pdata	ENDS
;	COMDAT xdata
xdata	SEGMENT
$unwind$LL_getitem DD 010e01H
	DD	0420eH
; Function compile flags: /Odtp
xdata	ENDS
;	COMDAT LL_getitem
_TEXT	SEGMENT
ap$ = 48
i$ = 56
LL_getitem PROC						; COMDAT

; 323  : {

  00000	48 89 54 24 10	 mov	 QWORD PTR [rsp+16], rdx
  00005	48 89 4c 24 08	 mov	 QWORD PTR [rsp+8], rcx
  0000a	48 83 ec 28	 sub	 rsp, 40			; 00000028H

; 324  :     return PyLong_FromUnsignedLong(((unsigned long *)ap->ob_item)[i]);

  0000e	48 8b 44 24 30	 mov	 rax, QWORD PTR ap$[rsp]
  00013	48 8b 40 70	 mov	 rax, QWORD PTR [rax+112]
  00017	48 8b 4c 24 38	 mov	 rcx, QWORD PTR i$[rsp]
  0001c	8b 0c 88	 mov	 ecx, DWORD PTR [rax+rcx*4]
  0001f	e8 00 00 00 00	 call	 PyLong_FromUnsignedLong

; 325  : }

  00024	48 83 c4 28	 add	 rsp, 40			; 00000028H
  00028	c3		 ret	 0
LL_getitem ENDP
_TEXT	ENDS
PUBLIC	??_C@_0CG@PFKJNNEL@unsigned?5long?5is?5greater?5than?5ma@ ; `string'
PUBLIC	??_C@_0CD@GGGBBGOM@unsigned?5long?5is?5less?5than?5minim@ ; `string'
;	COMDAT pdata
pdata	SEGMENT
$pdata$LL_setitem DD imagerel LL_setitem
	DD	imagerel LL_setitem+229
	DD	imagerel $unwind$LL_setitem
pdata	ENDS
;	COMDAT xdata
xdata	SEGMENT
$unwind$LL_setitem DD 011301H
	DD	06213H
xdata	ENDS
;	COMDAT ??_C@_0CG@PFKJNNEL@unsigned?5long?5is?5greater?5than?5ma@
CONST	SEGMENT
??_C@_0CG@PFKJNNEL@unsigned?5long?5is?5greater?5than?5ma@ DB 'unsigned lo'
	DB	'ng is greater than maximum', 00H		; `string'
CONST	ENDS
;	COMDAT ??_C@_0CD@GGGBBGOM@unsigned?5long?5is?5less?5than?5minim@
CONST	SEGMENT
??_C@_0CD@GGGBBGOM@unsigned?5long?5is?5less?5than?5minim@ DB 'unsigned lo'
	DB	'ng is less than minimum', 00H		; `string'
; Function compile flags: /Odtp
CONST	ENDS
;	COMDAT LL_setitem
_TEXT	SEGMENT
x$ = 32
y$20602 = 36
ap$ = 64
i$ = 72
v$ = 80
LL_setitem PROC						; COMDAT

; 329  : {

  00000	4c 89 44 24 18	 mov	 QWORD PTR [rsp+24], r8
  00005	48 89 54 24 10	 mov	 QWORD PTR [rsp+16], rdx
  0000a	48 89 4c 24 08	 mov	 QWORD PTR [rsp+8], rcx
  0000f	48 83 ec 38	 sub	 rsp, 56			; 00000038H

; 330  :     unsigned long x;
; 331  :     if (PyLong_Check(v)) {

  00013	48 8b 44 24 50	 mov	 rax, QWORD PTR v$[rsp]
  00018	48 8b 40 58	 mov	 rax, QWORD PTR [rax+88]
  0001c	8b 80 00 01 00
	00		 mov	 eax, DWORD PTR [rax+256]
  00022	25 00 00 00 01	 and	 eax, 16777216		; 01000000H
  00027	85 c0		 test	 eax, eax
  00029	74 2b		 je	 SHORT $LN7@LL_setitem@3

; 332  :         x = PyLong_AsUnsignedLong(v);

  0002b	48 8b 4c 24 50	 mov	 rcx, QWORD PTR v$[rsp]
  00030	e8 00 00 00 00	 call	 PyLong_AsUnsignedLong
  00035	89 44 24 20	 mov	 DWORD PTR x$[rsp], eax

; 333  :         if (x == (unsigned long) -1 && PyErr_Occurred())

  00039	83 7c 24 20 ff	 cmp	 DWORD PTR x$[rsp], -1	; ffffffffH
  0003e	75 14		 jne	 SHORT $LN6@LL_setitem@3
  00040	e8 00 00 00 00	 call	 PyErr_Occurred
  00045	48 85 c0	 test	 rax, rax
  00048	74 0a		 je	 SHORT $LN6@LL_setitem@3

; 334  :             return -1;

  0004a	b8 ff ff ff ff	 mov	 eax, -1
  0004f	e9 8c 00 00 00	 jmp	 $LN8@LL_setitem@3
$LN6@LL_setitem@3:

; 335  :     }
; 336  :     else {

  00054	eb 4a		 jmp	 SHORT $LN5@LL_setitem@3
$LN7@LL_setitem@3:

; 337  :         long y;
; 338  :         if (!PyArg_Parse(v, "l;array item must be integer", &y))

  00056	4c 8d 44 24 24	 lea	 r8, QWORD PTR y$20602[rsp]
  0005b	48 8d 15 00 00
	00 00		 lea	 rdx, OFFSET FLAT:??_C@_0BN@NPDLBKJK@l?$DLarray?5item?5must?5be?5integer?$AA@
  00062	48 8b 4c 24 50	 mov	 rcx, QWORD PTR v$[rsp]
  00067	e8 00 00 00 00	 call	 _PyArg_Parse_SizeT
  0006c	85 c0		 test	 eax, eax
  0006e	75 07		 jne	 SHORT $LN4@LL_setitem@3

; 339  :             return -1;

  00070	b8 ff ff ff ff	 mov	 eax, -1
  00075	eb 69		 jmp	 SHORT $LN8@LL_setitem@3
$LN4@LL_setitem@3:

; 340  :         if (y < 0) {

  00077	83 7c 24 24 00	 cmp	 DWORD PTR y$20602[rsp], 0
  0007c	7d 1a		 jge	 SHORT $LN3@LL_setitem@3

; 341  :             PyErr_SetString(PyExc_OverflowError,
; 342  :                 "unsigned long is less than minimum");

  0007e	48 8d 15 00 00
	00 00		 lea	 rdx, OFFSET FLAT:??_C@_0CD@GGGBBGOM@unsigned?5long?5is?5less?5than?5minim@
  00085	48 8b 0d 00 00
	00 00		 mov	 rcx, QWORD PTR PyExc_OverflowError
  0008c	e8 00 00 00 00	 call	 PyErr_SetString

; 343  :             return -1;

  00091	b8 ff ff ff ff	 mov	 eax, -1
  00096	eb 48		 jmp	 SHORT $LN8@LL_setitem@3
$LN3@LL_setitem@3:

; 344  :         }
; 345  :         x = (unsigned long)y;

  00098	8b 44 24 24	 mov	 eax, DWORD PTR y$20602[rsp]
  0009c	89 44 24 20	 mov	 DWORD PTR x$[rsp], eax
$LN5@LL_setitem@3:

; 346  : 
; 347  :     }
; 348  :     if (x > ULONG_MAX) {

  000a0	83 7c 24 20 ff	 cmp	 DWORD PTR x$[rsp], -1	; ffffffffH
  000a5	76 1a		 jbe	 SHORT $LN2@LL_setitem@3

; 349  :         PyErr_SetString(PyExc_OverflowError,
; 350  :             "unsigned long is greater than maximum");

  000a7	48 8d 15 00 00
	00 00		 lea	 rdx, OFFSET FLAT:??_C@_0CG@PFKJNNEL@unsigned?5long?5is?5greater?5than?5ma@
  000ae	48 8b 0d 00 00
	00 00		 mov	 rcx, QWORD PTR PyExc_OverflowError
  000b5	e8 00 00 00 00	 call	 PyErr_SetString

; 351  :         return -1;

  000ba	b8 ff ff ff ff	 mov	 eax, -1
  000bf	eb 1f		 jmp	 SHORT $LN8@LL_setitem@3
$LN2@LL_setitem@3:

; 352  :     }
; 353  : 
; 354  :     if (i >= 0)

  000c1	48 83 7c 24 48
	00		 cmp	 QWORD PTR i$[rsp], 0
  000c7	7c 15		 jl	 SHORT $LN1@LL_setitem@3

; 355  :         ((unsigned long *)ap->ob_item)[i] = x;

  000c9	48 8b 44 24 40	 mov	 rax, QWORD PTR ap$[rsp]
  000ce	48 8b 40 70	 mov	 rax, QWORD PTR [rax+112]
  000d2	48 8b 4c 24 48	 mov	 rcx, QWORD PTR i$[rsp]
  000d7	8b 54 24 20	 mov	 edx, DWORD PTR x$[rsp]
  000db	89 14 88	 mov	 DWORD PTR [rax+rcx*4], edx
$LN1@LL_setitem@3:

; 356  :     return 0;

  000de	33 c0		 xor	 eax, eax
$LN8@LL_setitem@3:

; 357  : }

  000e0	48 83 c4 38	 add	 rsp, 56			; 00000038H
  000e4	c3		 ret	 0
LL_setitem ENDP
_TEXT	ENDS
EXTRN	PyLong_FromLongLong:PROC
;	COMDAT pdata
pdata	SEGMENT
$pdata$q_getitem DD imagerel q_getitem
	DD	imagerel q_getitem+42
	DD	imagerel $unwind$q_getitem
pdata	ENDS
;	COMDAT xdata
xdata	SEGMENT
$unwind$q_getitem DD 010e01H
	DD	0420eH
; Function compile flags: /Odtp
xdata	ENDS
;	COMDAT q_getitem
_TEXT	SEGMENT
ap$ = 48
i$ = 56
q_getitem PROC						; COMDAT

; 363  : {

  00000	48 89 54 24 10	 mov	 QWORD PTR [rsp+16], rdx
  00005	48 89 4c 24 08	 mov	 QWORD PTR [rsp+8], rcx
  0000a	48 83 ec 28	 sub	 rsp, 40			; 00000028H

; 364  :     return PyLong_FromLongLong(((PY_LONG_LONG *)ap->ob_item)[i]);

  0000e	48 8b 44 24 30	 mov	 rax, QWORD PTR ap$[rsp]
  00013	48 8b 40 70	 mov	 rax, QWORD PTR [rax+112]
  00017	48 8b 4c 24 38	 mov	 rcx, QWORD PTR i$[rsp]
  0001c	48 8b 0c c8	 mov	 rcx, QWORD PTR [rax+rcx*8]
  00020	e8 00 00 00 00	 call	 PyLong_FromLongLong

; 365  : }

  00025	48 83 c4 28	 add	 rsp, 40			; 00000028H
  00029	c3		 ret	 0
q_getitem ENDP
_TEXT	ENDS
PUBLIC	??_C@_0BN@JNLAGNB@L?$DLarray?5item?5must?5be?5integer?$AA@ ; `string'
;	COMDAT pdata
pdata	SEGMENT
$pdata$q_setitem DD imagerel q_setitem
	DD	imagerel q_setitem+90
	DD	imagerel $unwind$q_setitem
pdata	ENDS
;	COMDAT xdata
xdata	SEGMENT
$unwind$q_setitem DD 011301H
	DD	06213H
xdata	ENDS
;	COMDAT ??_C@_0BN@JNLAGNB@L?$DLarray?5item?5must?5be?5integer?$AA@
CONST	SEGMENT
??_C@_0BN@JNLAGNB@L?$DLarray?5item?5must?5be?5integer?$AA@ DB 'L;array it'
	DB	'em must be integer', 00H			; `string'
; Function compile flags: /Odtp
CONST	ENDS
;	COMDAT q_setitem
_TEXT	SEGMENT
x$ = 32
ap$ = 64
i$ = 72
v$ = 80
q_setitem PROC						; COMDAT

; 369  : {

  00000	4c 89 44 24 18	 mov	 QWORD PTR [rsp+24], r8
  00005	48 89 54 24 10	 mov	 QWORD PTR [rsp+16], rdx
  0000a	48 89 4c 24 08	 mov	 QWORD PTR [rsp+8], rcx
  0000f	48 83 ec 38	 sub	 rsp, 56			; 00000038H

; 370  :     PY_LONG_LONG x;
; 371  :     if (!PyArg_Parse(v, "L;array item must be integer", &x))

  00013	4c 8d 44 24 20	 lea	 r8, QWORD PTR x$[rsp]
  00018	48 8d 15 00 00
	00 00		 lea	 rdx, OFFSET FLAT:??_C@_0BN@JNLAGNB@L?$DLarray?5item?5must?5be?5integer?$AA@
  0001f	48 8b 4c 24 50	 mov	 rcx, QWORD PTR v$[rsp]
  00024	e8 00 00 00 00	 call	 _PyArg_Parse_SizeT
  00029	85 c0		 test	 eax, eax
  0002b	75 07		 jne	 SHORT $LN2@q_setitem

; 372  :         return -1;

  0002d	b8 ff ff ff ff	 mov	 eax, -1
  00032	eb 21		 jmp	 SHORT $LN3@q_setitem
$LN2@q_setitem:

; 373  :     if (i >= 0)

  00034	48 83 7c 24 48
	00		 cmp	 QWORD PTR i$[rsp], 0
  0003a	7c 17		 jl	 SHORT $LN1@q_setitem

; 374  :         ((PY_LONG_LONG *)ap->ob_item)[i] = x;

  0003c	48 8b 44 24 40	 mov	 rax, QWORD PTR ap$[rsp]
  00041	48 8b 40 70	 mov	 rax, QWORD PTR [rax+112]
  00045	48 8b 4c 24 48	 mov	 rcx, QWORD PTR i$[rsp]
  0004a	48 8b 54 24 20	 mov	 rdx, QWORD PTR x$[rsp]
  0004f	48 89 14 c8	 mov	 QWORD PTR [rax+rcx*8], rdx
$LN1@q_setitem:

; 375  :     return 0;

  00053	33 c0		 xor	 eax, eax
$LN3@q_setitem:

; 376  : }

  00055	48 83 c4 38	 add	 rsp, 56			; 00000038H
  00059	c3		 ret	 0
q_setitem ENDP
_TEXT	ENDS
EXTRN	PyLong_FromUnsignedLongLong:PROC
;	COMDAT pdata
pdata	SEGMENT
$pdata$QQ_getitem DD imagerel QQ_getitem
	DD	imagerel QQ_getitem+42
	DD	imagerel $unwind$QQ_getitem
pdata	ENDS
;	COMDAT xdata
xdata	SEGMENT
$unwind$QQ_getitem DD 010e01H
	DD	0420eH
; Function compile flags: /Odtp
xdata	ENDS
;	COMDAT QQ_getitem
_TEXT	SEGMENT
ap$ = 48
i$ = 56
QQ_getitem PROC						; COMDAT

; 380  : {

  00000	48 89 54 24 10	 mov	 QWORD PTR [rsp+16], rdx
  00005	48 89 4c 24 08	 mov	 QWORD PTR [rsp+8], rcx
  0000a	48 83 ec 28	 sub	 rsp, 40			; 00000028H

; 381  :     return PyLong_FromUnsignedLongLong(
; 382  :         ((unsigned PY_LONG_LONG *)ap->ob_item)[i]);

  0000e	48 8b 44 24 30	 mov	 rax, QWORD PTR ap$[rsp]
  00013	48 8b 40 70	 mov	 rax, QWORD PTR [rax+112]
  00017	48 8b 4c 24 38	 mov	 rcx, QWORD PTR i$[rsp]
  0001c	48 8b 0c c8	 mov	 rcx, QWORD PTR [rax+rcx*8]
  00020	e8 00 00 00 00	 call	 PyLong_FromUnsignedLongLong

; 383  : }

  00025	48 83 c4 28	 add	 rsp, 40			; 00000028H
  00029	c3		 ret	 0
QQ_getitem ENDP
_TEXT	ENDS
PUBLIC	??_C@_0CI@CLOIAIHO@unsigned?5long?5long?5is?5less?5than?5@ ; `string'
EXTRN	PyLong_AsUnsignedLongLong:PROC
;	COMDAT pdata
pdata	SEGMENT
$pdata$QQ_setitem DD imagerel QQ_setitem
	DD	imagerel QQ_setitem+200
	DD	imagerel $unwind$QQ_setitem
pdata	ENDS
;	COMDAT xdata
xdata	SEGMENT
$unwind$QQ_setitem DD 011301H
	DD	06213H
xdata	ENDS
;	COMDAT ??_C@_0CI@CLOIAIHO@unsigned?5long?5long?5is?5less?5than?5@
CONST	SEGMENT
??_C@_0CI@CLOIAIHO@unsigned?5long?5long?5is?5less?5than?5@ DB 'unsigned l'
	DB	'ong long is less than minimum', 00H		; `string'
; Function compile flags: /Odtp
CONST	ENDS
;	COMDAT QQ_setitem
_TEXT	SEGMENT
x$ = 32
y$20652 = 40
ap$ = 64
i$ = 72
v$ = 80
QQ_setitem PROC						; COMDAT

; 387  : {

  00000	4c 89 44 24 18	 mov	 QWORD PTR [rsp+24], r8
  00005	48 89 54 24 10	 mov	 QWORD PTR [rsp+16], rdx
  0000a	48 89 4c 24 08	 mov	 QWORD PTR [rsp+8], rcx
  0000f	48 83 ec 38	 sub	 rsp, 56			; 00000038H

; 388  :     unsigned PY_LONG_LONG x;
; 389  :     if (PyLong_Check(v)) {

  00013	48 8b 44 24 50	 mov	 rax, QWORD PTR v$[rsp]
  00018	48 8b 40 58	 mov	 rax, QWORD PTR [rax+88]
  0001c	8b 80 00 01 00
	00		 mov	 eax, DWORD PTR [rax+256]
  00022	25 00 00 00 01	 and	 eax, 16777216		; 01000000H
  00027	85 c0		 test	 eax, eax
  00029	74 2a		 je	 SHORT $LN6@QQ_setitem@2

; 390  :         x = PyLong_AsUnsignedLongLong(v);

  0002b	48 8b 4c 24 50	 mov	 rcx, QWORD PTR v$[rsp]
  00030	e8 00 00 00 00	 call	 PyLong_AsUnsignedLongLong
  00035	48 89 44 24 20	 mov	 QWORD PTR x$[rsp], rax

; 391  :         if (x == (unsigned PY_LONG_LONG) -1 && PyErr_Occurred())

  0003a	48 83 7c 24 20
	ff		 cmp	 QWORD PTR x$[rsp], -1
  00040	75 11		 jne	 SHORT $LN5@QQ_setitem@2
  00042	e8 00 00 00 00	 call	 PyErr_Occurred
  00047	48 85 c0	 test	 rax, rax
  0004a	74 07		 je	 SHORT $LN5@QQ_setitem@2

; 392  :             return -1;

  0004c	b8 ff ff ff ff	 mov	 eax, -1
  00051	eb 70		 jmp	 SHORT $LN7@QQ_setitem@2
$LN5@QQ_setitem@2:

; 393  :     }
; 394  :     else {

  00053	eb 4d		 jmp	 SHORT $LN4@QQ_setitem@2
$LN6@QQ_setitem@2:

; 395  :         PY_LONG_LONG y;
; 396  :         if (!PyArg_Parse(v, "L;array item must be integer", &y))

  00055	4c 8d 44 24 28	 lea	 r8, QWORD PTR y$20652[rsp]
  0005a	48 8d 15 00 00
	00 00		 lea	 rdx, OFFSET FLAT:??_C@_0BN@JNLAGNB@L?$DLarray?5item?5must?5be?5integer?$AA@
  00061	48 8b 4c 24 50	 mov	 rcx, QWORD PTR v$[rsp]
  00066	e8 00 00 00 00	 call	 _PyArg_Parse_SizeT
  0006b	85 c0		 test	 eax, eax
  0006d	75 07		 jne	 SHORT $LN3@QQ_setitem@2

; 397  :             return -1;

  0006f	b8 ff ff ff ff	 mov	 eax, -1
  00074	eb 4d		 jmp	 SHORT $LN7@QQ_setitem@2
$LN3@QQ_setitem@2:

; 398  :         if (y < 0) {

  00076	48 83 7c 24 28
	00		 cmp	 QWORD PTR y$20652[rsp], 0
  0007c	7d 1a		 jge	 SHORT $LN2@QQ_setitem@2

; 399  :             PyErr_SetString(PyExc_OverflowError,
; 400  :                 "unsigned long long is less than minimum");

  0007e	48 8d 15 00 00
	00 00		 lea	 rdx, OFFSET FLAT:??_C@_0CI@CLOIAIHO@unsigned?5long?5long?5is?5less?5than?5@
  00085	48 8b 0d 00 00
	00 00		 mov	 rcx, QWORD PTR PyExc_OverflowError
  0008c	e8 00 00 00 00	 call	 PyErr_SetString

; 401  :             return -1;

  00091	b8 ff ff ff ff	 mov	 eax, -1
  00096	eb 2b		 jmp	 SHORT $LN7@QQ_setitem@2
$LN2@QQ_setitem@2:

; 402  :         }
; 403  :         x = (unsigned PY_LONG_LONG)y;

  00098	48 8b 44 24 28	 mov	 rax, QWORD PTR y$20652[rsp]
  0009d	48 89 44 24 20	 mov	 QWORD PTR x$[rsp], rax
$LN4@QQ_setitem@2:

; 404  :     }
; 405  : 
; 406  :     if (i >= 0)

  000a2	48 83 7c 24 48
	00		 cmp	 QWORD PTR i$[rsp], 0
  000a8	7c 17		 jl	 SHORT $LN1@QQ_setitem@2

; 407  :         ((unsigned PY_LONG_LONG *)ap->ob_item)[i] = x;

  000aa	48 8b 44 24 40	 mov	 rax, QWORD PTR ap$[rsp]
  000af	48 8b 40 70	 mov	 rax, QWORD PTR [rax+112]
  000b3	48 8b 4c 24 48	 mov	 rcx, QWORD PTR i$[rsp]
  000b8	48 8b 54 24 20	 mov	 rdx, QWORD PTR x$[rsp]
  000bd	48 89 14 c8	 mov	 QWORD PTR [rax+rcx*8], rdx
$LN1@QQ_setitem@2:

; 408  :     return 0;

  000c1	33 c0		 xor	 eax, eax
$LN7@QQ_setitem@2:

; 409  : }

  000c3	48 83 c4 38	 add	 rsp, 56			; 00000038H
  000c7	c3		 ret	 0
QQ_setitem ENDP
_TEXT	ENDS
EXTRN	PyFloat_FromDouble:PROC
EXTRN	_fltused:DWORD
;	COMDAT pdata
pdata	SEGMENT
$pdata$f_getitem DD imagerel f_getitem
	DD	imagerel f_getitem+46
	DD	imagerel $unwind$f_getitem
pdata	ENDS
;	COMDAT xdata
xdata	SEGMENT
$unwind$f_getitem DD 010e01H
	DD	0420eH
; Function compile flags: /Odtp
xdata	ENDS
;	COMDAT f_getitem
_TEXT	SEGMENT
ap$ = 48
i$ = 56
f_getitem PROC						; COMDAT

; 414  : {

  00000	48 89 54 24 10	 mov	 QWORD PTR [rsp+16], rdx
  00005	48 89 4c 24 08	 mov	 QWORD PTR [rsp+8], rcx
  0000a	48 83 ec 28	 sub	 rsp, 40			; 00000028H

; 415  :     return PyFloat_FromDouble((double) ((float *)ap->ob_item)[i]);

  0000e	48 8b 44 24 30	 mov	 rax, QWORD PTR ap$[rsp]
  00013	48 8b 40 70	 mov	 rax, QWORD PTR [rax+112]
  00017	48 8b 4c 24 38	 mov	 rcx, QWORD PTR i$[rsp]
  0001c	66 0f 6e 04 88	 movd	 xmm0, DWORD PTR [rax+rcx*4]
  00021	0f 5a c0	 cvtps2pd xmm0, xmm0
  00024	e8 00 00 00 00	 call	 PyFloat_FromDouble

; 416  : }

  00029	48 83 c4 28	 add	 rsp, 40			; 00000028H
  0002d	c3		 ret	 0
f_getitem ENDP
_TEXT	ENDS
PUBLIC	??_C@_0BL@GDNNBMHH@f?$DLarray?5item?5must?5be?5float?$AA@ ; `string'
;	COMDAT pdata
pdata	SEGMENT
$pdata$f_setitem DD imagerel f_setitem
	DD	imagerel f_setitem+92
	DD	imagerel $unwind$f_setitem
pdata	ENDS
;	COMDAT xdata
xdata	SEGMENT
$unwind$f_setitem DD 011301H
	DD	06213H
xdata	ENDS
;	COMDAT ??_C@_0BL@GDNNBMHH@f?$DLarray?5item?5must?5be?5float?$AA@
CONST	SEGMENT
??_C@_0BL@GDNNBMHH@f?$DLarray?5item?5must?5be?5float?$AA@ DB 'f;array ite'
	DB	'm must be float', 00H			; `string'
; Function compile flags: /Odtp
CONST	ENDS
;	COMDAT f_setitem
_TEXT	SEGMENT
x$ = 32
ap$ = 64
i$ = 72
v$ = 80
f_setitem PROC						; COMDAT

; 420  : {

  00000	4c 89 44 24 18	 mov	 QWORD PTR [rsp+24], r8
  00005	48 89 54 24 10	 mov	 QWORD PTR [rsp+16], rdx
  0000a	48 89 4c 24 08	 mov	 QWORD PTR [rsp+8], rcx
  0000f	48 83 ec 38	 sub	 rsp, 56			; 00000038H

; 421  :     float x;
; 422  :     if (!PyArg_Parse(v, "f;array item must be float", &x))

  00013	4c 8d 44 24 20	 lea	 r8, QWORD PTR x$[rsp]
  00018	48 8d 15 00 00
	00 00		 lea	 rdx, OFFSET FLAT:??_C@_0BL@GDNNBMHH@f?$DLarray?5item?5must?5be?5float?$AA@
  0001f	48 8b 4c 24 50	 mov	 rcx, QWORD PTR v$[rsp]
  00024	e8 00 00 00 00	 call	 _PyArg_Parse_SizeT
  00029	85 c0		 test	 eax, eax
  0002b	75 07		 jne	 SHORT $LN2@f_setitem

; 423  :         return -1;

  0002d	b8 ff ff ff ff	 mov	 eax, -1
  00032	eb 23		 jmp	 SHORT $LN3@f_setitem
$LN2@f_setitem:

; 424  :     if (i >= 0)

  00034	48 83 7c 24 48
	00		 cmp	 QWORD PTR i$[rsp], 0
  0003a	7c 19		 jl	 SHORT $LN1@f_setitem

; 425  :                  ((float *)ap->ob_item)[i] = x;

  0003c	48 8b 44 24 40	 mov	 rax, QWORD PTR ap$[rsp]
  00041	48 8b 40 70	 mov	 rax, QWORD PTR [rax+112]
  00045	48 8b 4c 24 48	 mov	 rcx, QWORD PTR i$[rsp]
  0004a	f3 0f 10 44 24
	20		 movss	 xmm0, DWORD PTR x$[rsp]
  00050	f3 0f 11 04 88	 movss	 DWORD PTR [rax+rcx*4], xmm0
$LN1@f_setitem:

; 426  :     return 0;

  00055	33 c0		 xor	 eax, eax
$LN3@f_setitem:

; 427  : }

  00057	48 83 c4 38	 add	 rsp, 56			; 00000038H
  0005b	c3		 ret	 0
f_setitem ENDP
_TEXT	ENDS
;	COMDAT pdata
pdata	SEGMENT
$pdata$d_getitem DD imagerel d_getitem
	DD	imagerel d_getitem+43
	DD	imagerel $unwind$d_getitem
pdata	ENDS
;	COMDAT xdata
xdata	SEGMENT
$unwind$d_getitem DD 010e01H
	DD	0420eH
; Function compile flags: /Odtp
xdata	ENDS
;	COMDAT d_getitem
_TEXT	SEGMENT
ap$ = 48
i$ = 56
d_getitem PROC						; COMDAT

; 431  : {

  00000	48 89 54 24 10	 mov	 QWORD PTR [rsp+16], rdx
  00005	48 89 4c 24 08	 mov	 QWORD PTR [rsp+8], rcx
  0000a	48 83 ec 28	 sub	 rsp, 40			; 00000028H

; 432  :     return PyFloat_FromDouble(((double *)ap->ob_item)[i]);

  0000e	48 8b 44 24 30	 mov	 rax, QWORD PTR ap$[rsp]
  00013	48 8b 40 70	 mov	 rax, QWORD PTR [rax+112]
  00017	48 8b 4c 24 38	 mov	 rcx, QWORD PTR i$[rsp]
  0001c	f2 0f 10 04 c8	 movsdx	 xmm0, QWORD PTR [rax+rcx*8]
  00021	e8 00 00 00 00	 call	 PyFloat_FromDouble

; 433  : }

  00026	48 83 c4 28	 add	 rsp, 40			; 00000028H
  0002a	c3		 ret	 0
d_getitem ENDP
_TEXT	ENDS
PUBLIC	??_C@_0BL@LOMFCKPF@d?$DLarray?5item?5must?5be?5float?$AA@ ; `string'
;	COMDAT pdata
pdata	SEGMENT
$pdata$d_setitem DD imagerel d_setitem
	DD	imagerel d_setitem+92
	DD	imagerel $unwind$d_setitem
pdata	ENDS
;	COMDAT xdata
xdata	SEGMENT
$unwind$d_setitem DD 011301H
	DD	06213H
xdata	ENDS
;	COMDAT ??_C@_0BL@LOMFCKPF@d?$DLarray?5item?5must?5be?5float?$AA@
CONST	SEGMENT
??_C@_0BL@LOMFCKPF@d?$DLarray?5item?5must?5be?5float?$AA@ DB 'd;array ite'
	DB	'm must be float', 00H			; `string'
; Function compile flags: /Odtp
CONST	ENDS
;	COMDAT d_setitem
_TEXT	SEGMENT
x$ = 32
ap$ = 64
i$ = 72
v$ = 80
d_setitem PROC						; COMDAT

; 437  : {

  00000	4c 89 44 24 18	 mov	 QWORD PTR [rsp+24], r8
  00005	48 89 54 24 10	 mov	 QWORD PTR [rsp+16], rdx
  0000a	48 89 4c 24 08	 mov	 QWORD PTR [rsp+8], rcx
  0000f	48 83 ec 38	 sub	 rsp, 56			; 00000038H

; 438  :     double x;
; 439  :     if (!PyArg_Parse(v, "d;array item must be float", &x))

  00013	4c 8d 44 24 20	 lea	 r8, QWORD PTR x$[rsp]
  00018	48 8d 15 00 00
	00 00		 lea	 rdx, OFFSET FLAT:??_C@_0BL@LOMFCKPF@d?$DLarray?5item?5must?5be?5float?$AA@
  0001f	48 8b 4c 24 50	 mov	 rcx, QWORD PTR v$[rsp]
  00024	e8 00 00 00 00	 call	 _PyArg_Parse_SizeT
  00029	85 c0		 test	 eax, eax
  0002b	75 07		 jne	 SHORT $LN2@d_setitem

; 440  :         return -1;

  0002d	b8 ff ff ff ff	 mov	 eax, -1
  00032	eb 23		 jmp	 SHORT $LN3@d_setitem
$LN2@d_setitem:

; 441  :     if (i >= 0)

  00034	48 83 7c 24 48
	00		 cmp	 QWORD PTR i$[rsp], 0
  0003a	7c 19		 jl	 SHORT $LN1@d_setitem

; 442  :                  ((double *)ap->ob_item)[i] = x;

  0003c	48 8b 44 24 40	 mov	 rax, QWORD PTR ap$[rsp]
  00041	48 8b 40 70	 mov	 rax, QWORD PTR [rax+112]
  00045	48 8b 4c 24 48	 mov	 rcx, QWORD PTR i$[rsp]
  0004a	f2 0f 10 44 24
	20		 movsdx	 xmm0, QWORD PTR x$[rsp]
  00050	f2 0f 11 04 c8	 movsdx	 QWORD PTR [rax+rcx*8], xmm0
$LN1@d_setitem:

; 443  :     return 0;

  00055	33 c0		 xor	 eax, eax
$LN3@d_setitem:

; 444  : }

  00057	48 83 c4 38	 add	 rsp, 56			; 00000038H
  0005b	c3		 ret	 0
d_setitem ENDP
_TEXT	ENDS
EXTRN	_PyMem_DebugFree:PROC
EXTRN	_PxMem_Free:PROC
EXTRN	_Py_PXCTX:PROC
EXTRN	PyObject_ClearWeakRefs:PROC
;	COMDAT pdata
pdata	SEGMENT
$pdata$array_dealloc DD imagerel array_dealloc
	DD	imagerel array_dealloc+126
	DD	imagerel $unwind$array_dealloc
pdata	ENDS
;	COMDAT xdata
xdata	SEGMENT
$unwind$array_dealloc DD 010901H
	DD	06209H
; Function compile flags: /Odtp
xdata	ENDS
;	COMDAT array_dealloc
_TEXT	SEGMENT
tv75 = 32
op$ = 64
array_dealloc PROC					; COMDAT

; 557  : {

  00000	48 89 4c 24 08	 mov	 QWORD PTR [rsp+8], rcx
  00005	48 83 ec 38	 sub	 rsp, 56			; 00000038H

; 558  :     if (op->weakreflist != NULL)

  00009	48 8b 44 24 40	 mov	 rax, QWORD PTR op$[rsp]
  0000e	48 83 b8 88 00
	00 00 00	 cmp	 QWORD PTR [rax+136], 0
  00016	74 0a		 je	 SHORT $LN2@array_deal

; 559  :         PyObject_ClearWeakRefs((PyObject *) op);

  00018	48 8b 4c 24 40	 mov	 rcx, QWORD PTR op$[rsp]
  0001d	e8 00 00 00 00	 call	 PyObject_ClearWeakRefs
$LN2@array_deal:

; 560  :     if (op->ob_item != NULL)

  00022	48 8b 44 24 40	 mov	 rax, QWORD PTR op$[rsp]
  00027	48 83 78 70 00	 cmp	 QWORD PTR [rax+112], 0
  0002c	74 37		 je	 SHORT $LN1@array_deal

; 561  :         PyMem_DEL(op->ob_item);

  0002e	e8 00 00 00 00	 call	 _Py_PXCTX
  00033	85 c0		 test	 eax, eax
  00035	74 18		 je	 SHORT $LN5@array_deal
  00037	48 8b 44 24 40	 mov	 rax, QWORD PTR op$[rsp]
  0003c	48 8b 48 70	 mov	 rcx, QWORD PTR [rax+112]
  00040	e8 00 00 00 00	 call	 _PxMem_Free
  00045	c7 44 24 20 00
	00 00 00	 mov	 DWORD PTR tv75[rsp], 0
  0004d	eb 16		 jmp	 SHORT $LN6@array_deal
$LN5@array_deal:
  0004f	48 8b 44 24 40	 mov	 rax, QWORD PTR op$[rsp]
  00054	48 8b 48 70	 mov	 rcx, QWORD PTR [rax+112]
  00058	e8 00 00 00 00	 call	 _PyMem_DebugFree
  0005d	c7 44 24 20 00
	00 00 00	 mov	 DWORD PTR tv75[rsp], 0
$LN6@array_deal:
$LN1@array_deal:

; 562  :     Py_TYPE(op)->tp_free((PyObject *)op);

  00065	48 8b 44 24 40	 mov	 rax, QWORD PTR op$[rsp]
  0006a	48 8b 40 58	 mov	 rax, QWORD PTR [rax+88]
  0006e	48 8b 4c 24 40	 mov	 rcx, QWORD PTR op$[rsp]
  00073	ff 90 98 01 00
	00		 call	 QWORD PTR [rax+408]

; 563  : }

  00079	48 83 c4 38	 add	 rsp, 56			; 00000038H
  0007d	c3		 ret	 0
array_dealloc ENDP
_TEXT	ENDS
PUBLIC	_Py_DecRef
PUBLIC	_Py_IncRef
EXTRN	PyObject_RichCompare:PROC
EXTRN	__ImageBase:BYTE
EXTRN	PyObject_RichCompareBool:PROC
EXTRN	_Py_TrueStruct:BYTE
EXTRN	_Py_FalseStruct:BYTE
EXTRN	_Py_NotImplementedStruct:BYTE
EXTRN	PyType_IsSubtype:PROC
;	COMDAT pdata
pdata	SEGMENT
$pdata$array_richcompare DD imagerel array_richcompare
	DD	imagerel array_richcompare+1120
	DD	imagerel $unwind$array_richcompare
pdata	ENDS
;	COMDAT xdata
xdata	SEGMENT
$unwind$array_richcompare DD 021601H
	DD	0130116H
; Function compile flags: /Odtp
xdata	ENDS
;	COMDAT array_richcompare
_TEXT	SEGMENT
res$ = 32
wi$ = 40
i$ = 48
vi$ = 56
va$ = 64
wa$ = 72
k$ = 80
vs$20872 = 88
ws$20874 = 96
cmp$20876 = 104
tv149 = 108
tv151 = 112
tv153 = 116
tv155 = 120
tv157 = 124
tv159 = 128
tv161 = 132
v$ = 160
w$ = 168
op$ = 176
array_richcompare PROC					; COMDAT

; 567  : {

  00000	44 89 44 24 18	 mov	 DWORD PTR [rsp+24], r8d
  00005	48 89 54 24 10	 mov	 QWORD PTR [rsp+16], rdx
  0000a	48 89 4c 24 08	 mov	 QWORD PTR [rsp+8], rcx
  0000f	48 81 ec 98 00
	00 00		 sub	 rsp, 152		; 00000098H

; 568  :     arrayobject *va, *wa;
; 569  :     PyObject *vi = NULL;

  00016	48 c7 44 24 38
	00 00 00 00	 mov	 QWORD PTR vi$[rsp], 0

; 570  :     PyObject *wi = NULL;

  0001f	48 c7 44 24 28
	00 00 00 00	 mov	 QWORD PTR wi$[rsp], 0

; 571  :     Py_ssize_t i, k;
; 572  :     PyObject *res;
; 573  : 
; 574  :     if (!array_Check(v) || !array_Check(w))

  00028	48 8d 05 00 00
	00 00		 lea	 rax, OFFSET FLAT:Arraytype
  0002f	48 8b 8c 24 a0
	00 00 00	 mov	 rcx, QWORD PTR v$[rsp]
  00037	48 39 41 58	 cmp	 QWORD PTR [rcx+88], rax
  0003b	74 1c		 je	 SHORT $LN36@array_rich
  0003d	48 8d 15 00 00
	00 00		 lea	 rdx, OFFSET FLAT:Arraytype
  00044	48 8b 84 24 a0
	00 00 00	 mov	 rax, QWORD PTR v$[rsp]
  0004c	48 8b 48 58	 mov	 rcx, QWORD PTR [rax+88]
  00050	e8 00 00 00 00	 call	 PyType_IsSubtype
  00055	85 c0		 test	 eax, eax
  00057	74 31		 je	 SHORT $LN37@array_rich
$LN36@array_rich:
  00059	48 8d 05 00 00
	00 00		 lea	 rax, OFFSET FLAT:Arraytype
  00060	48 8b 8c 24 a8
	00 00 00	 mov	 rcx, QWORD PTR w$[rsp]
  00068	48 39 41 58	 cmp	 QWORD PTR [rcx+88], rax
  0006c	74 34		 je	 SHORT $LN38@array_rich
  0006e	48 8d 15 00 00
	00 00		 lea	 rdx, OFFSET FLAT:Arraytype
  00075	48 8b 84 24 a8
	00 00 00	 mov	 rax, QWORD PTR w$[rsp]
  0007d	48 8b 48 58	 mov	 rcx, QWORD PTR [rax+88]
  00081	e8 00 00 00 00	 call	 PyType_IsSubtype
  00086	85 c0		 test	 eax, eax
  00088	75 18		 jne	 SHORT $LN38@array_rich
$LN37@array_rich:

; 575  :         Py_RETURN_NOTIMPLEMENTED;

  0008a	48 8d 0d 00 00
	00 00		 lea	 rcx, OFFSET FLAT:_Py_NotImplementedStruct
  00091	e8 00 00 00 00	 call	 _Py_IncRef
  00096	48 8d 05 00 00
	00 00		 lea	 rax, OFFSET FLAT:_Py_NotImplementedStruct
  0009d	e9 9d 03 00 00	 jmp	 $LN39@array_rich
$LN38@array_rich:

; 576  : 
; 577  :     va = (arrayobject *)v;

  000a2	48 8b 84 24 a0
	00 00 00	 mov	 rax, QWORD PTR v$[rsp]
  000aa	48 89 44 24 40	 mov	 QWORD PTR va$[rsp], rax

; 578  :     wa = (arrayobject *)w;

  000af	48 8b 84 24 a8
	00 00 00	 mov	 rax, QWORD PTR w$[rsp]
  000b7	48 89 44 24 48	 mov	 QWORD PTR wa$[rsp], rax

; 579  : 
; 580  :     if (Py_SIZE(va) != Py_SIZE(wa) && (op == Py_EQ || op == Py_NE)) {

  000bc	48 8b 44 24 40	 mov	 rax, QWORD PTR va$[rsp]
  000c1	48 8b 4c 24 48	 mov	 rcx, QWORD PTR wa$[rsp]
  000c6	48 8b 49 60	 mov	 rcx, QWORD PTR [rcx+96]
  000ca	48 39 48 60	 cmp	 QWORD PTR [rax+96], rcx
  000ce	74 4c		 je	 SHORT $LN35@array_rich
  000d0	83 bc 24 b0 00
	00 00 02	 cmp	 DWORD PTR op$[rsp], 2
  000d8	74 0a		 je	 SHORT $LN34@array_rich
  000da	83 bc 24 b0 00
	00 00 03	 cmp	 DWORD PTR op$[rsp], 3
  000e2	75 38		 jne	 SHORT $LN35@array_rich
$LN34@array_rich:

; 581  :         /* Shortcut: if the lengths differ, the arrays differ */
; 582  :         if (op == Py_EQ)

  000e4	83 bc 24 b0 00
	00 00 02	 cmp	 DWORD PTR op$[rsp], 2
  000ec	75 0e		 jne	 SHORT $LN33@array_rich

; 583  :             res = Py_False;

  000ee	48 8d 05 00 00
	00 00		 lea	 rax, OFFSET FLAT:_Py_FalseStruct
  000f5	48 89 44 24 20	 mov	 QWORD PTR res$[rsp], rax

; 584  :         else

  000fa	eb 0c		 jmp	 SHORT $LN32@array_rich
$LN33@array_rich:

; 585  :             res = Py_True;

  000fc	48 8d 05 00 00
	00 00		 lea	 rax, OFFSET FLAT:_Py_TrueStruct
  00103	48 89 44 24 20	 mov	 QWORD PTR res$[rsp], rax
$LN32@array_rich:

; 586  :         Py_INCREF(res);

  00108	48 8b 4c 24 20	 mov	 rcx, QWORD PTR res$[rsp]
  0010d	e8 00 00 00 00	 call	 _Py_IncRef

; 587  :         return res;

  00112	48 8b 44 24 20	 mov	 rax, QWORD PTR res$[rsp]
  00117	e9 23 03 00 00	 jmp	 $LN39@array_rich
$LN35@array_rich:

; 588  :     }
; 589  : 
; 590  :     /* Search for the first index where items are different */
; 591  :     k = 1;

  0011c	48 c7 44 24 50
	01 00 00 00	 mov	 QWORD PTR k$[rsp], 1

; 592  :     for (i = 0; i < Py_SIZE(va) && i < Py_SIZE(wa); i++) {

  00125	48 c7 44 24 30
	00 00 00 00	 mov	 QWORD PTR i$[rsp], 0
  0012e	eb 0d		 jmp	 SHORT $LN31@array_rich
$LN30@array_rich:
  00130	48 8b 44 24 30	 mov	 rax, QWORD PTR i$[rsp]
  00135	48 ff c0	 inc	 rax
  00138	48 89 44 24 30	 mov	 QWORD PTR i$[rsp], rax
$LN31@array_rich:
  0013d	48 8b 44 24 40	 mov	 rax, QWORD PTR va$[rsp]
  00142	48 8b 40 60	 mov	 rax, QWORD PTR [rax+96]
  00146	48 39 44 24 30	 cmp	 QWORD PTR i$[rsp], rax
  0014b	0f 8d d7 00 00
	00		 jge	 $LN29@array_rich
  00151	48 8b 44 24 48	 mov	 rax, QWORD PTR wa$[rsp]
  00156	48 8b 40 60	 mov	 rax, QWORD PTR [rax+96]
  0015a	48 39 44 24 30	 cmp	 QWORD PTR i$[rsp], rax
  0015f	0f 8d c3 00 00
	00		 jge	 $LN29@array_rich

; 593  :         vi = getarrayitem(v, i);

  00165	48 8b 54 24 30	 mov	 rdx, QWORD PTR i$[rsp]
  0016a	48 8b 8c 24 a0
	00 00 00	 mov	 rcx, QWORD PTR v$[rsp]
  00172	e8 00 00 00 00	 call	 getarrayitem
  00177	48 89 44 24 38	 mov	 QWORD PTR vi$[rsp], rax

; 594  :         wi = getarrayitem(w, i);

  0017c	48 8b 54 24 30	 mov	 rdx, QWORD PTR i$[rsp]
  00181	48 8b 8c 24 a8
	00 00 00	 mov	 rcx, QWORD PTR w$[rsp]
  00189	e8 00 00 00 00	 call	 getarrayitem
  0018e	48 89 44 24 28	 mov	 QWORD PTR wi$[rsp], rax

; 595  :         if (vi == NULL || wi == NULL) {

  00193	48 83 7c 24 38
	00		 cmp	 QWORD PTR vi$[rsp], 0
  00199	74 08		 je	 SHORT $LN27@array_rich
  0019b	48 83 7c 24 28
	00		 cmp	 QWORD PTR wi$[rsp], 0
  001a1	75 37		 jne	 SHORT $LN28@array_rich
$LN27@array_rich:
$LN26@array_rich:

; 596  :             Py_XDECREF(vi);

  001a3	48 83 7c 24 38
	00		 cmp	 QWORD PTR vi$[rsp], 0
  001a9	74 0a		 je	 SHORT $LN23@array_rich
  001ab	48 8b 4c 24 38	 mov	 rcx, QWORD PTR vi$[rsp]
  001b0	e8 00 00 00 00	 call	 _Py_DecRef
$LN23@array_rich:
  001b5	33 c0		 xor	 eax, eax
  001b7	85 c0		 test	 eax, eax
  001b9	75 e8		 jne	 SHORT $LN26@array_rich
$LN22@array_rich:

; 597  :             Py_XDECREF(wi);

  001bb	48 83 7c 24 28
	00		 cmp	 QWORD PTR wi$[rsp], 0
  001c1	74 0a		 je	 SHORT $LN19@array_rich
  001c3	48 8b 4c 24 28	 mov	 rcx, QWORD PTR wi$[rsp]
  001c8	e8 00 00 00 00	 call	 _Py_DecRef
$LN19@array_rich:
  001cd	33 c0		 xor	 eax, eax
  001cf	85 c0		 test	 eax, eax
  001d1	75 e8		 jne	 SHORT $LN22@array_rich

; 598  :             return NULL;

  001d3	33 c0		 xor	 eax, eax
  001d5	e9 65 02 00 00	 jmp	 $LN39@array_rich
$LN28@array_rich:

; 599  :         }
; 600  :         k = PyObject_RichCompareBool(vi, wi, Py_EQ);

  001da	41 b8 02 00 00
	00		 mov	 r8d, 2
  001e0	48 8b 54 24 28	 mov	 rdx, QWORD PTR wi$[rsp]
  001e5	48 8b 4c 24 38	 mov	 rcx, QWORD PTR vi$[rsp]
  001ea	e8 00 00 00 00	 call	 PyObject_RichCompareBool
  001ef	48 98		 cdqe
  001f1	48 89 44 24 50	 mov	 QWORD PTR k$[rsp], rax

; 601  :         if (k == 0)

  001f6	48 83 7c 24 50
	00		 cmp	 QWORD PTR k$[rsp], 0
  001fc	75 02		 jne	 SHORT $LN18@array_rich

; 602  :             break; /* Keeping vi and wi alive! */

  001fe	eb 28		 jmp	 SHORT $LN29@array_rich
$LN18@array_rich:

; 603  :         Py_DECREF(vi);

  00200	48 8b 4c 24 38	 mov	 rcx, QWORD PTR vi$[rsp]
  00205	e8 00 00 00 00	 call	 _Py_DecRef

; 604  :         Py_DECREF(wi);

  0020a	48 8b 4c 24 28	 mov	 rcx, QWORD PTR wi$[rsp]
  0020f	e8 00 00 00 00	 call	 _Py_DecRef

; 605  :         if (k < 0)

  00214	48 83 7c 24 50
	00		 cmp	 QWORD PTR k$[rsp], 0
  0021a	7d 07		 jge	 SHORT $LN17@array_rich

; 606  :             return NULL;

  0021c	33 c0		 xor	 eax, eax
  0021e	e9 1c 02 00 00	 jmp	 $LN39@array_rich
$LN17@array_rich:

; 607  :     }

  00223	e9 08 ff ff ff	 jmp	 $LN30@array_rich
$LN29@array_rich:

; 608  : 
; 609  :     if (k) {

  00228	48 83 7c 24 50
	00		 cmp	 QWORD PTR k$[rsp], 0
  0022e	0f 84 8e 01 00
	00		 je	 $LN16@array_rich

; 610  :         /* No more items to compare -- compare sizes */
; 611  :         Py_ssize_t vs = Py_SIZE(va);

  00234	48 8b 44 24 40	 mov	 rax, QWORD PTR va$[rsp]
  00239	48 8b 40 60	 mov	 rax, QWORD PTR [rax+96]
  0023d	48 89 44 24 58	 mov	 QWORD PTR vs$20872[rsp], rax

; 612  :         Py_ssize_t ws = Py_SIZE(wa);

  00242	48 8b 44 24 48	 mov	 rax, QWORD PTR wa$[rsp]
  00247	48 8b 40 60	 mov	 rax, QWORD PTR [rax+96]
  0024b	48 89 44 24 60	 mov	 QWORD PTR ws$20874[rsp], rax

; 613  :         int cmp;
; 614  :         switch (op) {

  00250	8b 84 24 b0 00
	00 00		 mov	 eax, DWORD PTR op$[rsp]
  00257	89 44 24 6c	 mov	 DWORD PTR tv149[rsp], eax
  0025b	83 7c 24 6c 05	 cmp	 DWORD PTR tv149[rsp], 5
  00260	0f 87 23 01 00
	00		 ja	 $LN7@array_rich
  00266	48 63 44 24 6c	 movsxd	 rax, DWORD PTR tv149[rsp]
  0026b	48 8d 0d 00 00
	00 00		 lea	 rcx, OFFSET FLAT:__ImageBase
  00272	8b 84 81 00 00
	00 00		 mov	 eax, DWORD PTR $LN53@array_rich[rcx+rax*4]
  00279	48 03 c1	 add	 rax, rcx
  0027c	ff e0		 jmp	 rax
$LN13@array_rich:

; 615  :         case Py_LT: cmp = vs <  ws; break;

  0027e	48 8b 44 24 60	 mov	 rax, QWORD PTR ws$20874[rsp]
  00283	48 39 44 24 58	 cmp	 QWORD PTR vs$20872[rsp], rax
  00288	7d 0a		 jge	 SHORT $LN41@array_rich
  0028a	c7 44 24 70 01
	00 00 00	 mov	 DWORD PTR tv151[rsp], 1
  00292	eb 08		 jmp	 SHORT $LN42@array_rich
$LN41@array_rich:
  00294	c7 44 24 70 00
	00 00 00	 mov	 DWORD PTR tv151[rsp], 0
$LN42@array_rich:
  0029c	8b 44 24 70	 mov	 eax, DWORD PTR tv151[rsp]
  002a0	89 44 24 68	 mov	 DWORD PTR cmp$20876[rsp], eax
  002a4	e9 e7 00 00 00	 jmp	 $LN14@array_rich
$LN12@array_rich:

; 616  :         case Py_LE: cmp = vs <= ws; break;

  002a9	48 8b 44 24 60	 mov	 rax, QWORD PTR ws$20874[rsp]
  002ae	48 39 44 24 58	 cmp	 QWORD PTR vs$20872[rsp], rax
  002b3	7f 0a		 jg	 SHORT $LN43@array_rich
  002b5	c7 44 24 74 01
	00 00 00	 mov	 DWORD PTR tv153[rsp], 1
  002bd	eb 08		 jmp	 SHORT $LN44@array_rich
$LN43@array_rich:
  002bf	c7 44 24 74 00
	00 00 00	 mov	 DWORD PTR tv153[rsp], 0
$LN44@array_rich:
  002c7	8b 44 24 74	 mov	 eax, DWORD PTR tv153[rsp]
  002cb	89 44 24 68	 mov	 DWORD PTR cmp$20876[rsp], eax
  002cf	e9 bc 00 00 00	 jmp	 $LN14@array_rich
$LN11@array_rich:

; 617  :         case Py_EQ: cmp = vs == ws; break;

  002d4	48 8b 44 24 60	 mov	 rax, QWORD PTR ws$20874[rsp]
  002d9	48 39 44 24 58	 cmp	 QWORD PTR vs$20872[rsp], rax
  002de	75 0a		 jne	 SHORT $LN45@array_rich
  002e0	c7 44 24 78 01
	00 00 00	 mov	 DWORD PTR tv155[rsp], 1
  002e8	eb 08		 jmp	 SHORT $LN46@array_rich
$LN45@array_rich:
  002ea	c7 44 24 78 00
	00 00 00	 mov	 DWORD PTR tv155[rsp], 0
$LN46@array_rich:
  002f2	8b 44 24 78	 mov	 eax, DWORD PTR tv155[rsp]
  002f6	89 44 24 68	 mov	 DWORD PTR cmp$20876[rsp], eax
  002fa	e9 91 00 00 00	 jmp	 $LN14@array_rich
$LN10@array_rich:

; 618  :         case Py_NE: cmp = vs != ws; break;

  002ff	48 8b 44 24 60	 mov	 rax, QWORD PTR ws$20874[rsp]
  00304	48 39 44 24 58	 cmp	 QWORD PTR vs$20872[rsp], rax
  00309	74 0a		 je	 SHORT $LN47@array_rich
  0030b	c7 44 24 7c 01
	00 00 00	 mov	 DWORD PTR tv157[rsp], 1
  00313	eb 08		 jmp	 SHORT $LN48@array_rich
$LN47@array_rich:
  00315	c7 44 24 7c 00
	00 00 00	 mov	 DWORD PTR tv157[rsp], 0
$LN48@array_rich:
  0031d	8b 44 24 7c	 mov	 eax, DWORD PTR tv157[rsp]
  00321	89 44 24 68	 mov	 DWORD PTR cmp$20876[rsp], eax
  00325	eb 69		 jmp	 SHORT $LN14@array_rich
$LN9@array_rich:

; 619  :         case Py_GT: cmp = vs >  ws; break;

  00327	48 8b 44 24 60	 mov	 rax, QWORD PTR ws$20874[rsp]
  0032c	48 39 44 24 58	 cmp	 QWORD PTR vs$20872[rsp], rax
  00331	7e 0d		 jle	 SHORT $LN49@array_rich
  00333	c7 84 24 80 00
	00 00 01 00 00
	00		 mov	 DWORD PTR tv159[rsp], 1
  0033e	eb 0b		 jmp	 SHORT $LN50@array_rich
$LN49@array_rich:
  00340	c7 84 24 80 00
	00 00 00 00 00
	00		 mov	 DWORD PTR tv159[rsp], 0
$LN50@array_rich:
  0034b	8b 84 24 80 00
	00 00		 mov	 eax, DWORD PTR tv159[rsp]
  00352	89 44 24 68	 mov	 DWORD PTR cmp$20876[rsp], eax
  00356	eb 38		 jmp	 SHORT $LN14@array_rich
$LN8@array_rich:

; 620  :         case Py_GE: cmp = vs >= ws; break;

  00358	48 8b 44 24 60	 mov	 rax, QWORD PTR ws$20874[rsp]
  0035d	48 39 44 24 58	 cmp	 QWORD PTR vs$20872[rsp], rax
  00362	7c 0d		 jl	 SHORT $LN51@array_rich
  00364	c7 84 24 84 00
	00 00 01 00 00
	00		 mov	 DWORD PTR tv161[rsp], 1
  0036f	eb 0b		 jmp	 SHORT $LN52@array_rich
$LN51@array_rich:
  00371	c7 84 24 84 00
	00 00 00 00 00
	00		 mov	 DWORD PTR tv161[rsp], 0
$LN52@array_rich:
  0037c	8b 84 24 84 00
	00 00		 mov	 eax, DWORD PTR tv161[rsp]
  00383	89 44 24 68	 mov	 DWORD PTR cmp$20876[rsp], eax
  00387	eb 07		 jmp	 SHORT $LN14@array_rich
$LN7@array_rich:

; 621  :         default: return NULL; /* cannot happen */

  00389	33 c0		 xor	 eax, eax
  0038b	e9 af 00 00 00	 jmp	 $LN39@array_rich
$LN14@array_rich:

; 622  :         }
; 623  :         if (cmp)

  00390	83 7c 24 68 00	 cmp	 DWORD PTR cmp$20876[rsp], 0
  00395	74 0e		 je	 SHORT $LN6@array_rich

; 624  :             res = Py_True;

  00397	48 8d 05 00 00
	00 00		 lea	 rax, OFFSET FLAT:_Py_TrueStruct
  0039e	48 89 44 24 20	 mov	 QWORD PTR res$[rsp], rax

; 625  :         else

  003a3	eb 0c		 jmp	 SHORT $LN5@array_rich
$LN6@array_rich:

; 626  :             res = Py_False;

  003a5	48 8d 05 00 00
	00 00		 lea	 rax, OFFSET FLAT:_Py_FalseStruct
  003ac	48 89 44 24 20	 mov	 QWORD PTR res$[rsp], rax
$LN5@array_rich:

; 627  :         Py_INCREF(res);

  003b1	48 8b 4c 24 20	 mov	 rcx, QWORD PTR res$[rsp]
  003b6	e8 00 00 00 00	 call	 _Py_IncRef

; 628  :         return res;

  003bb	48 8b 44 24 20	 mov	 rax, QWORD PTR res$[rsp]
  003c0	eb 7d		 jmp	 SHORT $LN39@array_rich
$LN16@array_rich:

; 629  :     }
; 630  : 
; 631  :     /* We have an item that differs.  First, shortcuts for EQ/NE */
; 632  :     if (op == Py_EQ) {

  003c2	83 bc 24 b0 00
	00 00 02	 cmp	 DWORD PTR op$[rsp], 2
  003ca	75 1a		 jne	 SHORT $LN4@array_rich

; 633  :         Py_INCREF(Py_False);

  003cc	48 8d 0d 00 00
	00 00		 lea	 rcx, OFFSET FLAT:_Py_FalseStruct
  003d3	e8 00 00 00 00	 call	 _Py_IncRef

; 634  :         res = Py_False;

  003d8	48 8d 05 00 00
	00 00		 lea	 rax, OFFSET FLAT:_Py_FalseStruct
  003df	48 89 44 24 20	 mov	 QWORD PTR res$[rsp], rax
  003e4	eb 40		 jmp	 SHORT $LN3@array_rich
$LN4@array_rich:

; 635  :     }
; 636  :     else if (op == Py_NE) {

  003e6	83 bc 24 b0 00
	00 00 03	 cmp	 DWORD PTR op$[rsp], 3
  003ee	75 1a		 jne	 SHORT $LN2@array_rich

; 637  :         Py_INCREF(Py_True);

  003f0	48 8d 0d 00 00
	00 00		 lea	 rcx, OFFSET FLAT:_Py_TrueStruct
  003f7	e8 00 00 00 00	 call	 _Py_IncRef

; 638  :         res = Py_True;

  003fc	48 8d 05 00 00
	00 00		 lea	 rax, OFFSET FLAT:_Py_TrueStruct
  00403	48 89 44 24 20	 mov	 QWORD PTR res$[rsp], rax

; 639  :     }
; 640  :     else {

  00408	eb 1c		 jmp	 SHORT $LN1@array_rich
$LN2@array_rich:

; 641  :         /* Compare the final item again using the proper operator */
; 642  :         res = PyObject_RichCompare(vi, wi, op);

  0040a	44 8b 84 24 b0
	00 00 00	 mov	 r8d, DWORD PTR op$[rsp]
  00412	48 8b 54 24 28	 mov	 rdx, QWORD PTR wi$[rsp]
  00417	48 8b 4c 24 38	 mov	 rcx, QWORD PTR vi$[rsp]
  0041c	e8 00 00 00 00	 call	 PyObject_RichCompare
  00421	48 89 44 24 20	 mov	 QWORD PTR res$[rsp], rax
$LN1@array_rich:
$LN3@array_rich:

; 643  :     }
; 644  :     Py_DECREF(vi);

  00426	48 8b 4c 24 38	 mov	 rcx, QWORD PTR vi$[rsp]
  0042b	e8 00 00 00 00	 call	 _Py_DecRef

; 645  :     Py_DECREF(wi);

  00430	48 8b 4c 24 28	 mov	 rcx, QWORD PTR wi$[rsp]
  00435	e8 00 00 00 00	 call	 _Py_DecRef

; 646  :     return res;

  0043a	48 8b 44 24 20	 mov	 rax, QWORD PTR res$[rsp]
$LN39@array_rich:

; 647  : }

  0043f	48 81 c4 98 00
	00 00		 add	 rsp, 152		; 00000098H
  00446	c3		 ret	 0
  00447	90		 npad	 1
$LN53@array_rich:
  00448	00 00 00 00	 DD	 $LN13@array_rich
  0044c	00 00 00 00	 DD	 $LN12@array_rich
  00450	00 00 00 00	 DD	 $LN11@array_rich
  00454	00 00 00 00	 DD	 $LN10@array_rich
  00458	00 00 00 00	 DD	 $LN9@array_rich
  0045c	00 00 00 00	 DD	 $LN8@array_rich
array_richcompare ENDP
_TEXT	ENDS
PUBLIC	??_C@_0L@DHGMCEID@_Py_IncRef?$AA@		; `string'
PUBLIC	??_C@_0CD@HDJFDCDP@c?3?2src?2pyparallel?2include?2object@ ; `string'
EXTRN	_Py_RefTotal:QWORD
EXTRN	_PyParallel_Guard:PROC
;	COMDAT pdata
; File c:\src\pyparallel\include\object.h
pdata	SEGMENT
$pdata$_Py_IncRef DD imagerel $LN7
	DD	imagerel $LN7+132
	DD	imagerel $unwind$_Py_IncRef
pdata	ENDS
;	COMDAT xdata
xdata	SEGMENT
$unwind$_Py_IncRef DD 010901H
	DD	06209H
xdata	ENDS
;	COMDAT ??_C@_0L@DHGMCEID@_Py_IncRef?$AA@
CONST	SEGMENT
??_C@_0L@DHGMCEID@_Py_IncRef?$AA@ DB '_Py_IncRef', 00H	; `string'
CONST	ENDS
;	COMDAT ??_C@_0CD@HDJFDCDP@c?3?2src?2pyparallel?2include?2object@
CONST	SEGMENT
??_C@_0CD@HDJFDCDP@c?3?2src?2pyparallel?2include?2object@ DB 'c:\src\pypa'
	DB	'rallel\include\object.h', 00H		; `string'
; Function compile flags: /Odtp
CONST	ENDS
;	COMDAT _Py_IncRef
_TEXT	SEGMENT
op$ = 64
_Py_IncRef PROC						; COMDAT

; 904  : {

$LN7:
  00000	48 89 4c 24 08	 mov	 QWORD PTR [rsp+8], rcx
  00005	48 83 ec 38	 sub	 rsp, 56			; 00000038H

; 905  :     if ((!Py_PXCTX && (Py_ISPY(op) || Px_PERSISTED(op)))) {

  00009	e8 00 00 00 00	 call	 _Py_PXCTX
  0000e	85 c0		 test	 eax, eax
  00010	75 6d		 jne	 SHORT $LN2@Py_IncRef
  00012	c7 44 24 20 02
	00 00 00	 mov	 DWORD PTR [rsp+32], 2
  0001a	4c 8b 4c 24 40	 mov	 r9, QWORD PTR op$[rsp]
  0001f	41 b8 89 03 00
	00		 mov	 r8d, 905		; 00000389H
  00025	48 8d 15 00 00
	00 00		 lea	 rdx, OFFSET FLAT:??_C@_0CD@HDJFDCDP@c?3?2src?2pyparallel?2include?2object@
  0002c	48 8d 0d 00 00
	00 00		 lea	 rcx, OFFSET FLAT:??_C@_0L@DHGMCEID@_Py_IncRef?$AA@
  00033	e8 00 00 00 00	 call	 _PyParallel_Guard
  00038	85 c0		 test	 eax, eax
  0003a	75 12		 jne	 SHORT $LN1@Py_IncRef
  0003c	48 8b 44 24 40	 mov	 rax, QWORD PTR op$[rsp]
  00041	48 8b 40 20	 mov	 rax, QWORD PTR [rax+32]
  00045	48 83 e0 20	 and	 rax, 32			; 00000020H
  00049	48 85 c0	 test	 rax, rax
  0004c	74 31		 je	 SHORT $LN2@Py_IncRef
$LN1@Py_IncRef:

; 906  :         _Py_INC_REFTOTAL;

  0004e	e8 00 00 00 00	 call	 _Py_PXCTX
  00053	85 c0		 test	 eax, eax
  00055	74 02		 je	 SHORT $LN5@Py_IncRef
  00057	eb 11		 jmp	 SHORT $LN6@Py_IncRef
$LN5@Py_IncRef:
  00059	48 8b 05 00 00
	00 00		 mov	 rax, QWORD PTR _Py_RefTotal
  00060	48 ff c0	 inc	 rax
  00063	48 89 05 00 00
	00 00		 mov	 QWORD PTR _Py_RefTotal, rax
$LN6@Py_IncRef:

; 907  :         (((PyObject*)(op))->ob_refcnt++);

  0006a	48 8b 44 24 40	 mov	 rax, QWORD PTR op$[rsp]
  0006f	48 8b 40 50	 mov	 rax, QWORD PTR [rax+80]
  00073	48 ff c0	 inc	 rax
  00076	48 8b 4c 24 40	 mov	 rcx, QWORD PTR op$[rsp]
  0007b	48 89 41 50	 mov	 QWORD PTR [rcx+80], rax
$LN2@Py_IncRef:

; 908  :     }
; 909  : }

  0007f	48 83 c4 38	 add	 rsp, 56			; 00000038H
  00083	c3		 ret	 0
_Py_IncRef ENDP
_TEXT	ENDS
PUBLIC	??_C@_0L@DMHMLFIA@_Py_DecRef?$AA@		; `string'
EXTRN	_Py_Dealloc:PROC
EXTRN	_Py_NegativeRefcount:PROC
EXTRN	Px_DecRef:PROC
;	COMDAT pdata
pdata	SEGMENT
$pdata$_Py_DecRef DD imagerel $LN13
	DD	imagerel $LN13+257
	DD	imagerel $unwind$_Py_DecRef
pdata	ENDS
;	COMDAT xdata
xdata	SEGMENT
$unwind$_Py_DecRef DD 010901H
	DD	08209H
xdata	ENDS
;	COMDAT ??_C@_0L@DMHMLFIA@_Py_DecRef?$AA@
CONST	SEGMENT
??_C@_0L@DMHMLFIA@_Py_DecRef?$AA@ DB '_Py_DecRef', 00H	; `string'
; Function compile flags: /Odtp
CONST	ENDS
;	COMDAT _Py_DecRef
_TEXT	SEGMENT
tv81 = 48
op$ = 80
_Py_DecRef PROC						; COMDAT

; 923  : {

$LN13:
  00000	48 89 4c 24 08	 mov	 QWORD PTR [rsp+8], rcx
  00005	48 83 ec 48	 sub	 rsp, 72			; 00000048H

; 924  :     if (!Py_PXCTX) {

  00009	e8 00 00 00 00	 call	 _Py_PXCTX
  0000e	85 c0		 test	 eax, eax
  00010	0f 85 e6 00 00
	00		 jne	 $LN8@Py_DecRef

; 925  :         if (Px_PERSISTED(op) || Px_CLONED(op))

  00016	48 8b 44 24 50	 mov	 rax, QWORD PTR op$[rsp]
  0001b	48 8b 40 20	 mov	 rax, QWORD PTR [rax+32]
  0001f	48 83 e0 20	 and	 rax, 32			; 00000020H
  00023	48 85 c0	 test	 rax, rax
  00026	75 14		 jne	 SHORT $LN6@Py_DecRef
  00028	48 8b 44 24 50	 mov	 rax, QWORD PTR op$[rsp]
  0002d	48 8b 40 20	 mov	 rax, QWORD PTR [rax+32]
  00031	48 25 80 00 00
	00		 and	 rax, 128		; 00000080H
  00037	48 85 c0	 test	 rax, rax
  0003a	74 0f		 je	 SHORT $LN7@Py_DecRef
$LN6@Py_DecRef:

; 926  :             Px_DECREF(op);

  0003c	48 8b 4c 24 50	 mov	 rcx, QWORD PTR op$[rsp]
  00041	e8 00 00 00 00	 call	 Px_DecRef
  00046	e9 b1 00 00 00	 jmp	 $LN5@Py_DecRef
$LN7@Py_DecRef:

; 927  :         else if (!Px_ISPX(op)) {

  0004b	48 8b 44 24 50	 mov	 rax, QWORD PTR op$[rsp]
  00050	48 8b 40 20	 mov	 rax, QWORD PTR [rax+32]
  00054	48 83 e0 02	 and	 rax, 2
  00058	48 85 c0	 test	 rax, rax
  0005b	0f 85 9b 00 00
	00		 jne	 $LN4@Py_DecRef

; 928  :             _Py_DEC_REFTOTAL;

  00061	e8 00 00 00 00	 call	 _Py_PXCTX
  00066	85 c0		 test	 eax, eax
  00068	74 02		 je	 SHORT $LN11@Py_DecRef
  0006a	eb 11		 jmp	 SHORT $LN12@Py_DecRef
$LN11@Py_DecRef:
  0006c	48 8b 05 00 00
	00 00		 mov	 rax, QWORD PTR _Py_RefTotal
  00073	48 ff c8	 dec	 rax
  00076	48 89 05 00 00
	00 00		 mov	 QWORD PTR _Py_RefTotal, rax
$LN12@Py_DecRef:

; 929  :             if ((--((PyObject *)(op))->ob_refcnt) != 0) {

  0007d	48 8b 44 24 50	 mov	 rax, QWORD PTR op$[rsp]
  00082	48 8b 40 50	 mov	 rax, QWORD PTR [rax+80]
  00086	48 ff c8	 dec	 rax
  00089	48 89 44 24 30	 mov	 QWORD PTR tv81[rsp], rax
  0008e	48 8b 44 24 50	 mov	 rax, QWORD PTR op$[rsp]
  00093	48 8b 4c 24 30	 mov	 rcx, QWORD PTR tv81[rsp]
  00098	48 89 48 50	 mov	 QWORD PTR [rax+80], rcx
  0009c	48 83 7c 24 30
	00		 cmp	 QWORD PTR tv81[rsp], 0
  000a2	74 4e		 je	 SHORT $LN3@Py_DecRef

; 930  :                 _Py_CHECK_REFCNT(op);

  000a4	c7 44 24 20 10
	00 00 00	 mov	 DWORD PTR [rsp+32], 16
  000ac	4c 8b 4c 24 50	 mov	 r9, QWORD PTR op$[rsp]
  000b1	41 b8 a2 03 00
	00		 mov	 r8d, 930		; 000003a2H
  000b7	48 8d 15 00 00
	00 00		 lea	 rdx, OFFSET FLAT:??_C@_0CD@HDJFDCDP@c?3?2src?2pyparallel?2include?2object@
  000be	48 8d 0d 00 00
	00 00		 lea	 rcx, OFFSET FLAT:??_C@_0L@DMHMLFIA@_Py_DecRef?$AA@
  000c5	e8 00 00 00 00	 call	 _PyParallel_Guard
  000ca	85 c0		 test	 eax, eax
  000cc	75 22		 jne	 SHORT $LN2@Py_DecRef
  000ce	48 8b 44 24 50	 mov	 rax, QWORD PTR op$[rsp]
  000d3	48 83 78 50 00	 cmp	 QWORD PTR [rax+80], 0
  000d8	7d 16		 jge	 SHORT $LN2@Py_DecRef
  000da	4c 8b 44 24 50	 mov	 r8, QWORD PTR op$[rsp]
  000df	ba a2 03 00 00	 mov	 edx, 930		; 000003a2H
  000e4	48 8d 0d 00 00
	00 00		 lea	 rcx, OFFSET FLAT:??_C@_0CD@HDJFDCDP@c?3?2src?2pyparallel?2include?2object@
  000eb	e8 00 00 00 00	 call	 _Py_NegativeRefcount
$LN2@Py_DecRef:

; 931  :             } else

  000f0	eb 0a		 jmp	 SHORT $LN1@Py_DecRef
$LN3@Py_DecRef:

; 932  :                 _Py_Dealloc((PyObject *)(op));

  000f2	48 8b 4c 24 50	 mov	 rcx, QWORD PTR op$[rsp]
  000f7	e8 00 00 00 00	 call	 _Py_Dealloc
$LN1@Py_DecRef:
$LN4@Py_DecRef:
$LN5@Py_DecRef:
$LN8@Py_DecRef:

; 933  :         }
; 934  :     }
; 935  : }

  000fc	48 83 c4 48	 add	 rsp, 72			; 00000048H
  00100	c3		 ret	 0
_Py_DecRef ENDP
_TEXT	ENDS
PUBLIC	??_C@_1CM@HMEDAJIH@?$AAi?$AA?$DO?$AA?$DN?$AA0?$AA?5?$AA?$CG?$AA?$CG?$AA?5?$AAi?$AA?$DM?$AAP?$AAy?$AA_?$AAS?$AAI?$AAZ?$AAE?$AA?$CI?$AAa?$AAp?$AA?$CJ?$AA?$AA@ ; `string'
PUBLIC	??_C@_1CA@OLGPFNA@?$AAa?$AAr?$AAr?$AAa?$AAy?$AA_?$AAC?$AAh?$AAe?$AAc?$AAk?$AA?$CI?$AAo?$AAp?$AA?$CJ?$AA?$AA@ ; `string'
PUBLIC	??_C@_1DC@MOEMMJHJ@?$AA?4?$AA?4?$AA?2?$AAM?$AAo?$AAd?$AAu?$AAl?$AAe?$AAs?$AA?2?$AAa?$AAr?$AAr?$AAa?$AAy?$AAm?$AAo?$AAd?$AAu?$AAl?$AAe?$AA?4?$AAc?$AA?$AA@ ; `string'
EXTRN	__imp__wassert:PROC
;	COMDAT pdata
; File c:\src\pyparallel\modules\arraymodule.c
pdata	SEGMENT
$pdata$getarrayitem DD imagerel getarrayitem
	DD	imagerel getarrayitem+177
	DD	imagerel $unwind$getarrayitem
pdata	ENDS
;	COMDAT xdata
xdata	SEGMENT
$unwind$getarrayitem DD 010e01H
	DD	0620eH
xdata	ENDS
;	COMDAT ??_C@_1CM@HMEDAJIH@?$AAi?$AA?$DO?$AA?$DN?$AA0?$AA?5?$AA?$CG?$AA?$CG?$AA?5?$AAi?$AA?$DM?$AAP?$AAy?$AA_?$AAS?$AAI?$AAZ?$AAE?$AA?$CI?$AAa?$AAp?$AA?$CJ?$AA?$AA@
CONST	SEGMENT
??_C@_1CM@HMEDAJIH@?$AAi?$AA?$DO?$AA?$DN?$AA0?$AA?5?$AA?$CG?$AA?$CG?$AA?5?$AAi?$AA?$DM?$AAP?$AAy?$AA_?$AAS?$AAI?$AAZ?$AAE?$AA?$CI?$AAa?$AAp?$AA?$CJ?$AA?$AA@ DB 'i'
	DB	00H, '>', 00H, '=', 00H, '0', 00H, ' ', 00H, '&', 00H, '&', 00H
	DB	' ', 00H, 'i', 00H, '<', 00H, 'P', 00H, 'y', 00H, '_', 00H, 'S'
	DB	00H, 'I', 00H, 'Z', 00H, 'E', 00H, '(', 00H, 'a', 00H, 'p', 00H
	DB	')', 00H, 00H, 00H				; `string'
CONST	ENDS
;	COMDAT ??_C@_1CA@OLGPFNA@?$AAa?$AAr?$AAr?$AAa?$AAy?$AA_?$AAC?$AAh?$AAe?$AAc?$AAk?$AA?$CI?$AAo?$AAp?$AA?$CJ?$AA?$AA@
CONST	SEGMENT
??_C@_1CA@OLGPFNA@?$AAa?$AAr?$AAr?$AAa?$AAy?$AA_?$AAC?$AAh?$AAe?$AAc?$AAk?$AA?$CI?$AAo?$AAp?$AA?$CJ?$AA?$AA@ DB 'a'
	DB	00H, 'r', 00H, 'r', 00H, 'a', 00H, 'y', 00H, '_', 00H, 'C', 00H
	DB	'h', 00H, 'e', 00H, 'c', 00H, 'k', 00H, '(', 00H, 'o', 00H, 'p'
	DB	00H, ')', 00H, 00H, 00H			; `string'
CONST	ENDS
;	COMDAT ??_C@_1DC@MOEMMJHJ@?$AA?4?$AA?4?$AA?2?$AAM?$AAo?$AAd?$AAu?$AAl?$AAe?$AAs?$AA?2?$AAa?$AAr?$AAr?$AAa?$AAy?$AAm?$AAo?$AAd?$AAu?$AAl?$AAe?$AA?4?$AAc?$AA?$AA@
CONST	SEGMENT
??_C@_1DC@MOEMMJHJ@?$AA?4?$AA?4?$AA?2?$AAM?$AAo?$AAd?$AAu?$AAl?$AAe?$AAs?$AA?2?$AAa?$AAr?$AAr?$AAa?$AAy?$AAm?$AAo?$AAd?$AAu?$AAl?$AAe?$AA?4?$AAc?$AA?$AA@ DB '.'
	DB	00H, '.', 00H, '\', 00H, 'M', 00H, 'o', 00H, 'd', 00H, 'u', 00H
	DB	'l', 00H, 'e', 00H, 's', 00H, '\', 00H, 'a', 00H, 'r', 00H, 'r'
	DB	00H, 'a', 00H, 'y', 00H, 'm', 00H, 'o', 00H, 'd', 00H, 'u', 00H
	DB	'l', 00H, 'e', 00H, '.', 00H, 'c', 00H, 00H, 00H ; `string'
; Function compile flags: /Odtp
CONST	ENDS
;	COMDAT getarrayitem
_TEXT	SEGMENT
ap$ = 32
op$ = 64
i$ = 72
getarrayitem PROC					; COMDAT

; 515  : {

  00000	48 89 54 24 10	 mov	 QWORD PTR [rsp+16], rdx
  00005	48 89 4c 24 08	 mov	 QWORD PTR [rsp+8], rcx
  0000a	48 83 ec 38	 sub	 rsp, 56			; 00000038H

; 516  :     register arrayobject *ap;
; 517  :     assert(array_Check(op));

  0000e	48 8d 05 00 00
	00 00		 lea	 rax, OFFSET FLAT:Arraytype
  00015	48 8b 4c 24 40	 mov	 rcx, QWORD PTR op$[rsp]
  0001a	48 39 41 58	 cmp	 QWORD PTR [rcx+88], rax
  0001e	74 35		 je	 SHORT $LN3@getarrayit
  00020	48 8d 15 00 00
	00 00		 lea	 rdx, OFFSET FLAT:Arraytype
  00027	48 8b 44 24 40	 mov	 rax, QWORD PTR op$[rsp]
  0002c	48 8b 48 58	 mov	 rcx, QWORD PTR [rax+88]
  00030	e8 00 00 00 00	 call	 PyType_IsSubtype
  00035	85 c0		 test	 eax, eax
  00037	75 1c		 jne	 SHORT $LN3@getarrayit
  00039	41 b8 05 02 00
	00		 mov	 r8d, 517		; 00000205H
  0003f	48 8d 15 00 00
	00 00		 lea	 rdx, OFFSET FLAT:??_C@_1DC@MOEMMJHJ@?$AA?4?$AA?4?$AA?2?$AAM?$AAo?$AAd?$AAu?$AAl?$AAe?$AAs?$AA?2?$AAa?$AAr?$AAr?$AAa?$AAy?$AAm?$AAo?$AAd?$AAu?$AAl?$AAe?$AA?4?$AAc?$AA?$AA@
  00046	48 8d 0d 00 00
	00 00		 lea	 rcx, OFFSET FLAT:??_C@_1CA@OLGPFNA@?$AAa?$AAr?$AAr?$AAa?$AAy?$AA_?$AAC?$AAh?$AAe?$AAc?$AAk?$AA?$CI?$AAo?$AAp?$AA?$CJ?$AA?$AA@
  0004d	ff 15 00 00 00
	00		 call	 QWORD PTR __imp__wassert
  00053	33 c0		 xor	 eax, eax
$LN3@getarrayit:

; 518  :     ap = (arrayobject *)op;

  00055	48 8b 44 24 40	 mov	 rax, QWORD PTR op$[rsp]
  0005a	48 89 44 24 20	 mov	 QWORD PTR ap$[rsp], rax

; 519  :     assert(i>=0 && i<Py_SIZE(ap));

  0005f	48 83 7c 24 48
	00		 cmp	 QWORD PTR i$[rsp], 0
  00065	7c 10		 jl	 SHORT $LN4@getarrayit
  00067	48 8b 44 24 20	 mov	 rax, QWORD PTR ap$[rsp]
  0006c	48 8b 40 60	 mov	 rax, QWORD PTR [rax+96]
  00070	48 39 44 24 48	 cmp	 QWORD PTR i$[rsp], rax
  00075	7c 1c		 jl	 SHORT $LN5@getarrayit
$LN4@getarrayit:
  00077	41 b8 07 02 00
	00		 mov	 r8d, 519		; 00000207H
  0007d	48 8d 15 00 00
	00 00		 lea	 rdx, OFFSET FLAT:??_C@_1DC@MOEMMJHJ@?$AA?4?$AA?4?$AA?2?$AAM?$AAo?$AAd?$AAu?$AAl?$AAe?$AAs?$AA?2?$AAa?$AAr?$AAr?$AAa?$AAy?$AAm?$AAo?$AAd?$AAu?$AAl?$AAe?$AA?4?$AAc?$AA?$AA@
  00084	48 8d 0d 00 00
	00 00		 lea	 rcx, OFFSET FLAT:??_C@_1CM@HMEDAJIH@?$AAi?$AA?$DO?$AA?$DN?$AA0?$AA?5?$AA?$CG?$AA?$CG?$AA?5?$AAi?$AA?$DM?$AAP?$AAy?$AA_?$AAS?$AAI?$AAZ?$AAE?$AA?$CI?$AAa?$AAp?$AA?$CJ?$AA?$AA@
  0008b	ff 15 00 00 00
	00		 call	 QWORD PTR __imp__wassert
  00091	33 c0		 xor	 eax, eax
$LN5@getarrayit:

; 520  :     return (*ap->ob_descr->getitem)(ap, i);

  00093	48 8b 44 24 20	 mov	 rax, QWORD PTR ap$[rsp]
  00098	48 8b 80 80 00
	00 00		 mov	 rax, QWORD PTR [rax+128]
  0009f	48 8b 54 24 48	 mov	 rdx, QWORD PTR i$[rsp]
  000a4	48 8b 4c 24 20	 mov	 rcx, QWORD PTR ap$[rsp]
  000a9	ff 50 08	 call	 QWORD PTR [rax+8]

; 521  : }

  000ac	48 83 c4 38	 add	 rsp, 56			; 00000038H
  000b0	c3		 ret	 0
getarrayitem ENDP
; Function compile flags: /Odtp
_TEXT	ENDS
;	COMDAT array_length
_TEXT	SEGMENT
a$ = 8
array_length PROC					; COMDAT

; 651  : {

  00000	48 89 4c 24 08	 mov	 QWORD PTR [rsp+8], rcx

; 652  :     return Py_SIZE(a);

  00005	48 8b 44 24 08	 mov	 rax, QWORD PTR a$[rsp]
  0000a	48 8b 40 60	 mov	 rax, QWORD PTR [rax+96]

; 653  : }

  0000e	c3		 ret	 0
array_length ENDP
_TEXT	ENDS
PUBLIC	??_C@_0BJ@FONIJAGJ@array?5index?5out?5of?5range?$AA@ ; `string'
EXTRN	PyExc_IndexError:QWORD
;	COMDAT pdata
pdata	SEGMENT
$pdata$array_item DD imagerel array_item
	DD	imagerel array_item+81
	DD	imagerel $unwind$array_item
pdata	ENDS
;	COMDAT xdata
xdata	SEGMENT
$unwind$array_item DD 010e01H
	DD	0420eH
xdata	ENDS
;	COMDAT ??_C@_0BJ@FONIJAGJ@array?5index?5out?5of?5range?$AA@
CONST	SEGMENT
??_C@_0BJ@FONIJAGJ@array?5index?5out?5of?5range?$AA@ DB 'array index out '
	DB	'of range', 00H				; `string'
; Function compile flags: /Odtp
CONST	ENDS
;	COMDAT array_item
_TEXT	SEGMENT
a$ = 48
i$ = 56
array_item PROC						; COMDAT

; 657  : {

  00000	48 89 54 24 10	 mov	 QWORD PTR [rsp+16], rdx
  00005	48 89 4c 24 08	 mov	 QWORD PTR [rsp+8], rcx
  0000a	48 83 ec 28	 sub	 rsp, 40			; 00000028H

; 658  :     if (i < 0 || i >= Py_SIZE(a)) {

  0000e	48 83 7c 24 38
	00		 cmp	 QWORD PTR i$[rsp], 0
  00014	7c 10		 jl	 SHORT $LN1@array_item
  00016	48 8b 44 24 30	 mov	 rax, QWORD PTR a$[rsp]
  0001b	48 8b 40 60	 mov	 rax, QWORD PTR [rax+96]
  0001f	48 39 44 24 38	 cmp	 QWORD PTR i$[rsp], rax
  00024	7c 17		 jl	 SHORT $LN2@array_item
$LN1@array_item:

; 659  :         PyErr_SetString(PyExc_IndexError, "array index out of range");

  00026	48 8d 15 00 00
	00 00		 lea	 rdx, OFFSET FLAT:??_C@_0BJ@FONIJAGJ@array?5index?5out?5of?5range?$AA@
  0002d	48 8b 0d 00 00
	00 00		 mov	 rcx, QWORD PTR PyExc_IndexError
  00034	e8 00 00 00 00	 call	 PyErr_SetString

; 660  :         return NULL;

  00039	33 c0		 xor	 eax, eax
  0003b	eb 0f		 jmp	 SHORT $LN3@array_item
$LN2@array_item:

; 661  :     }
; 662  :     return getarrayitem((PyObject *)a, i);

  0003d	48 8b 54 24 38	 mov	 rdx, QWORD PTR i$[rsp]
  00042	48 8b 4c 24 30	 mov	 rcx, QWORD PTR a$[rsp]
  00047	e8 00 00 00 00	 call	 getarrayitem
$LN3@array_item:

; 663  : }

  0004c	48 83 c4 28	 add	 rsp, 40			; 00000028H
  00050	c3		 ret	 0
array_item ENDP
_TEXT	ENDS
;	COMDAT pdata
pdata	SEGMENT
$pdata$array_copy DD imagerel array_copy
	DD	imagerel array_copy+40
	DD	imagerel $unwind$array_copy
pdata	ENDS
;	COMDAT xdata
xdata	SEGMENT
$unwind$array_copy DD 010e01H
	DD	0420eH
; Function compile flags: /Odtp
xdata	ENDS
;	COMDAT array_copy
_TEXT	SEGMENT
a$ = 48
unused$ = 56
array_copy PROC						; COMDAT

; 689  : {

  00000	48 89 54 24 10	 mov	 QWORD PTR [rsp+16], rdx
  00005	48 89 4c 24 08	 mov	 QWORD PTR [rsp+8], rcx
  0000a	48 83 ec 28	 sub	 rsp, 40			; 00000028H

; 690  :     return array_slice(a, 0, Py_SIZE(a));

  0000e	48 8b 44 24 30	 mov	 rax, QWORD PTR a$[rsp]
  00013	4c 8b 40 60	 mov	 r8, QWORD PTR [rax+96]
  00017	33 d2		 xor	 edx, edx
  00019	48 8b 4c 24 30	 mov	 rcx, QWORD PTR a$[rsp]
  0001e	e8 00 00 00 00	 call	 array_slice

; 691  : }

  00023	48 83 c4 28	 add	 rsp, 40			; 00000028H
  00027	c3		 ret	 0
array_copy ENDP
_TEXT	ENDS
EXTRN	memcpy:PROC
;	COMDAT pdata
pdata	SEGMENT
$pdata$array_slice DD imagerel array_slice
	DD	imagerel array_slice+302
	DD	imagerel $unwind$array_slice
pdata	ENDS
;	COMDAT xdata
xdata	SEGMENT
$unwind$array_slice DD 011301H
	DD	06213H
; Function compile flags: /Odtp
xdata	ENDS
;	COMDAT array_slice
_TEXT	SEGMENT
np$ = 32
a$ = 64
ilow$ = 72
ihigh$ = 80
array_slice PROC					; COMDAT

; 667  : {

  00000	4c 89 44 24 18	 mov	 QWORD PTR [rsp+24], r8
  00005	48 89 54 24 10	 mov	 QWORD PTR [rsp+16], rdx
  0000a	48 89 4c 24 08	 mov	 QWORD PTR [rsp+8], rcx
  0000f	48 83 ec 38	 sub	 rsp, 56			; 00000038H

; 668  :     arrayobject *np;
; 669  :     if (ilow < 0)

  00013	48 83 7c 24 48
	00		 cmp	 QWORD PTR ilow$[rsp], 0
  00019	7d 0b		 jge	 SHORT $LN8@array_slic

; 670  :         ilow = 0;

  0001b	48 c7 44 24 48
	00 00 00 00	 mov	 QWORD PTR ilow$[rsp], 0
  00024	eb 1e		 jmp	 SHORT $LN7@array_slic
$LN8@array_slic:

; 671  :     else if (ilow > Py_SIZE(a))

  00026	48 8b 44 24 40	 mov	 rax, QWORD PTR a$[rsp]
  0002b	48 8b 40 60	 mov	 rax, QWORD PTR [rax+96]
  0002f	48 39 44 24 48	 cmp	 QWORD PTR ilow$[rsp], rax
  00034	7e 0e		 jle	 SHORT $LN6@array_slic

; 672  :         ilow = Py_SIZE(a);

  00036	48 8b 44 24 40	 mov	 rax, QWORD PTR a$[rsp]
  0003b	48 8b 40 60	 mov	 rax, QWORD PTR [rax+96]
  0003f	48 89 44 24 48	 mov	 QWORD PTR ilow$[rsp], rax
$LN6@array_slic:
$LN7@array_slic:

; 673  :     if (ihigh < 0)

  00044	48 83 7c 24 50
	00		 cmp	 QWORD PTR ihigh$[rsp], 0
  0004a	7d 09		 jge	 SHORT $LN5@array_slic

; 674  :         ihigh = 0;

  0004c	48 c7 44 24 50
	00 00 00 00	 mov	 QWORD PTR ihigh$[rsp], 0
$LN5@array_slic:

; 675  :     if (ihigh < ilow)

  00055	48 8b 44 24 48	 mov	 rax, QWORD PTR ilow$[rsp]
  0005a	48 39 44 24 50	 cmp	 QWORD PTR ihigh$[rsp], rax
  0005f	7d 0c		 jge	 SHORT $LN4@array_slic

; 676  :         ihigh = ilow;

  00061	48 8b 44 24 48	 mov	 rax, QWORD PTR ilow$[rsp]
  00066	48 89 44 24 50	 mov	 QWORD PTR ihigh$[rsp], rax
  0006b	eb 1e		 jmp	 SHORT $LN3@array_slic
$LN4@array_slic:

; 677  :     else if (ihigh > Py_SIZE(a))

  0006d	48 8b 44 24 40	 mov	 rax, QWORD PTR a$[rsp]
  00072	48 8b 40 60	 mov	 rax, QWORD PTR [rax+96]
  00076	48 39 44 24 50	 cmp	 QWORD PTR ihigh$[rsp], rax
  0007b	7e 0e		 jle	 SHORT $LN2@array_slic

; 678  :         ihigh = Py_SIZE(a);

  0007d	48 8b 44 24 40	 mov	 rax, QWORD PTR a$[rsp]
  00082	48 8b 40 60	 mov	 rax, QWORD PTR [rax+96]
  00086	48 89 44 24 50	 mov	 QWORD PTR ihigh$[rsp], rax
$LN2@array_slic:
$LN3@array_slic:

; 679  :     np = (arrayobject *) newarrayobject(&Arraytype, ihigh - ilow, a->ob_descr);

  0008b	48 8b 44 24 48	 mov	 rax, QWORD PTR ilow$[rsp]
  00090	48 8b 4c 24 50	 mov	 rcx, QWORD PTR ihigh$[rsp]
  00095	48 2b c8	 sub	 rcx, rax
  00098	48 8b c1	 mov	 rax, rcx
  0009b	48 8b 4c 24 40	 mov	 rcx, QWORD PTR a$[rsp]
  000a0	4c 8b 81 80 00
	00 00		 mov	 r8, QWORD PTR [rcx+128]
  000a7	48 8b d0	 mov	 rdx, rax
  000aa	48 8d 0d 00 00
	00 00		 lea	 rcx, OFFSET FLAT:Arraytype
  000b1	e8 00 00 00 00	 call	 newarrayobject
  000b6	48 89 44 24 20	 mov	 QWORD PTR np$[rsp], rax

; 680  :     if (np == NULL)

  000bb	48 83 7c 24 20
	00		 cmp	 QWORD PTR np$[rsp], 0
  000c1	75 04		 jne	 SHORT $LN1@array_slic

; 681  :         return NULL;

  000c3	33 c0		 xor	 eax, eax
  000c5	eb 62		 jmp	 SHORT $LN9@array_slic
$LN1@array_slic:

; 682  :     memcpy(np->ob_item, a->ob_item + ilow * a->ob_descr->itemsize,
; 683  :            (ihigh-ilow) * a->ob_descr->itemsize);

  000c7	48 8b 44 24 48	 mov	 rax, QWORD PTR ilow$[rsp]
  000cc	48 8b 4c 24 50	 mov	 rcx, QWORD PTR ihigh$[rsp]
  000d1	48 2b c8	 sub	 rcx, rax
  000d4	48 8b c1	 mov	 rax, rcx
  000d7	48 8b 4c 24 40	 mov	 rcx, QWORD PTR a$[rsp]
  000dc	48 8b 89 80 00
	00 00		 mov	 rcx, QWORD PTR [rcx+128]
  000e3	48 63 49 04	 movsxd	 rcx, DWORD PTR [rcx+4]
  000e7	48 0f af c1	 imul	 rax, rcx
  000eb	48 8b 4c 24 40	 mov	 rcx, QWORD PTR a$[rsp]
  000f0	48 8b 89 80 00
	00 00		 mov	 rcx, QWORD PTR [rcx+128]
  000f7	48 63 49 04	 movsxd	 rcx, DWORD PTR [rcx+4]
  000fb	48 8b 54 24 48	 mov	 rdx, QWORD PTR ilow$[rsp]
  00100	48 0f af d1	 imul	 rdx, rcx
  00104	48 8b ca	 mov	 rcx, rdx
  00107	48 8b 54 24 40	 mov	 rdx, QWORD PTR a$[rsp]
  0010c	48 03 4a 70	 add	 rcx, QWORD PTR [rdx+112]
  00110	4c 8b c0	 mov	 r8, rax
  00113	48 8b d1	 mov	 rdx, rcx
  00116	48 8b 44 24 20	 mov	 rax, QWORD PTR np$[rsp]
  0011b	48 8b 48 70	 mov	 rcx, QWORD PTR [rax+112]
  0011f	e8 00 00 00 00	 call	 memcpy

; 684  :     return (PyObject *)np;

  00124	48 8b 44 24 20	 mov	 rax, QWORD PTR np$[rsp]
$LN9@array_slic:

; 685  : }

  00129	48 83 c4 38	 add	 rsp, 56			; 00000038H
  0012d	c3		 ret	 0
array_slice ENDP
_TEXT	ENDS
PUBLIC	??_C@_0BJ@DMBOHOAP@?4?4?2Modules?2arraymodule?4c?$AA@ ; `string'
EXTRN	_PyMem_DebugMalloc:PROC
EXTRN	_PxMem_Malloc:PROC
EXTRN	PyErr_NoMemory:PROC
EXTRN	_PyErr_BadInternalCall:PROC
;	COMDAT pdata
pdata	SEGMENT
$pdata$newarrayobject DD imagerel newarrayobject
	DD	imagerel newarrayobject+400
	DD	imagerel $unwind$newarrayobject
pdata	ENDS
;	COMDAT xdata
xdata	SEGMENT
$unwind$newarrayobject DD 011301H
	DD	0a213H
xdata	ENDS
;	COMDAT ??_C@_0BJ@DMBOHOAP@?4?4?2Modules?2arraymodule?4c?$AA@
CONST	SEGMENT
??_C@_0BJ@DMBOHOAP@?4?4?2Modules?2arraymodule?4c?$AA@ DB '..\Modules\arra'
	DB	'ymodule.c', 00H				; `string'
; Function compile flags: /Odtp
CONST	ENDS
;	COMDAT newarrayobject
_TEXT	SEGMENT
nbytes$ = 32
op$ = 40
tv68 = 48
tv95 = 56
tv94 = 64
type$ = 96
size$ = 104
descr$ = 112
newarrayobject PROC					; COMDAT

; 477  : {

  00000	4c 89 44 24 18	 mov	 QWORD PTR [rsp+24], r8
  00005	48 89 54 24 10	 mov	 QWORD PTR [rsp+16], rdx
  0000a	48 89 4c 24 08	 mov	 QWORD PTR [rsp+8], rcx
  0000f	48 83 ec 58	 sub	 rsp, 88			; 00000058H

; 478  :     arrayobject *op;
; 479  :     size_t nbytes;
; 480  : 
; 481  :     if (size < 0) {

  00013	48 83 7c 24 68
	00		 cmp	 QWORD PTR size$[rsp], 0
  00019	7d 18		 jge	 SHORT $LN6@newarrayob

; 482  :         PyErr_BadInternalCall();

  0001b	ba e2 01 00 00	 mov	 edx, 482		; 000001e2H
  00020	48 8d 0d 00 00
	00 00		 lea	 rcx, OFFSET FLAT:??_C@_0BJ@DMBOHOAP@?4?4?2Modules?2arraymodule?4c?$AA@
  00027	e8 00 00 00 00	 call	 _PyErr_BadInternalCall

; 483  :         return NULL;

  0002c	33 c0		 xor	 eax, eax
  0002e	e9 58 01 00 00	 jmp	 $LN7@newarrayob
$LN6@newarrayob:

; 484  :     }
; 485  : 
; 486  :     /* Check for overflow */
; 487  :     if (size > PY_SSIZE_T_MAX / descr->itemsize) {

  00033	48 8b 44 24 70	 mov	 rax, QWORD PTR descr$[rsp]
  00038	48 63 40 04	 movsxd	 rax, DWORD PTR [rax+4]
  0003c	48 89 44 24 30	 mov	 QWORD PTR tv68[rsp], rax
  00041	48 b9 ff ff ff
	ff ff ff ff 7f	 mov	 rcx, 9223372036854775807 ; 7fffffffffffffffH
  0004b	48 8b c1	 mov	 rax, rcx
  0004e	48 99		 cdq
  00050	48 8b 4c 24 30	 mov	 rcx, QWORD PTR tv68[rsp]
  00055	48 f7 f9	 idiv	 rcx
  00058	48 39 44 24 68	 cmp	 QWORD PTR size$[rsp], rax
  0005d	7e 0a		 jle	 SHORT $LN5@newarrayob

; 488  :         return PyErr_NoMemory();

  0005f	e8 00 00 00 00	 call	 PyErr_NoMemory
  00064	e9 22 01 00 00	 jmp	 $LN7@newarrayob
$LN5@newarrayob:

; 489  :     }
; 490  :     nbytes = size * descr->itemsize;

  00069	48 8b 44 24 70	 mov	 rax, QWORD PTR descr$[rsp]
  0006e	48 63 40 04	 movsxd	 rax, DWORD PTR [rax+4]
  00072	48 8b 4c 24 68	 mov	 rcx, QWORD PTR size$[rsp]
  00077	48 0f af c8	 imul	 rcx, rax
  0007b	48 8b c1	 mov	 rax, rcx
  0007e	48 89 44 24 20	 mov	 QWORD PTR nbytes$[rsp], rax

; 491  :     op = (arrayobject *) type->tp_alloc(type, 0);

  00083	33 d2		 xor	 edx, edx
  00085	48 8b 4c 24 60	 mov	 rcx, QWORD PTR type$[rsp]
  0008a	48 8b 44 24 60	 mov	 rax, QWORD PTR type$[rsp]
  0008f	ff 90 88 01 00
	00		 call	 QWORD PTR [rax+392]
  00095	48 89 44 24 28	 mov	 QWORD PTR op$[rsp], rax

; 492  :     if (op == NULL) {

  0009a	48 83 7c 24 28
	00		 cmp	 QWORD PTR op$[rsp], 0
  000a0	75 07		 jne	 SHORT $LN4@newarrayob

; 493  :         return NULL;

  000a2	33 c0		 xor	 eax, eax
  000a4	e9 e2 00 00 00	 jmp	 $LN7@newarrayob
$LN4@newarrayob:

; 494  :     }
; 495  :     op->ob_descr = descr;

  000a9	48 8b 44 24 28	 mov	 rax, QWORD PTR op$[rsp]
  000ae	48 8b 4c 24 70	 mov	 rcx, QWORD PTR descr$[rsp]
  000b3	48 89 88 80 00
	00 00		 mov	 QWORD PTR [rax+128], rcx

; 496  :     op->allocated = size;

  000ba	48 8b 44 24 28	 mov	 rax, QWORD PTR op$[rsp]
  000bf	48 8b 4c 24 68	 mov	 rcx, QWORD PTR size$[rsp]
  000c4	48 89 48 78	 mov	 QWORD PTR [rax+120], rcx

; 497  :     op->weakreflist = NULL;

  000c8	48 8b 44 24 28	 mov	 rax, QWORD PTR op$[rsp]
  000cd	48 c7 80 88 00
	00 00 00 00 00
	00		 mov	 QWORD PTR [rax+136], 0

; 498  :     Py_SIZE(op) = size;

  000d8	48 8b 44 24 28	 mov	 rax, QWORD PTR op$[rsp]
  000dd	48 8b 4c 24 68	 mov	 rcx, QWORD PTR size$[rsp]
  000e2	48 89 48 60	 mov	 QWORD PTR [rax+96], rcx

; 499  :     if (size <= 0) {

  000e6	48 83 7c 24 68
	00		 cmp	 QWORD PTR size$[rsp], 0
  000ec	7f 0f		 jg	 SHORT $LN3@newarrayob

; 500  :         op->ob_item = NULL;

  000ee	48 8b 44 24 28	 mov	 rax, QWORD PTR op$[rsp]
  000f3	48 c7 40 70 00
	00 00 00	 mov	 QWORD PTR [rax+112], 0

; 501  :     }
; 502  :     else {

  000fb	eb 7a		 jmp	 SHORT $LN2@newarrayob
$LN3@newarrayob:

; 503  :         op->ob_item = PyMem_NEW(char, nbytes);

  000fd	48 b8 ff ff ff
	ff ff ff ff 7f	 mov	 rax, 9223372036854775807 ; 7fffffffffffffffH
  00107	48 39 44 24 20	 cmp	 QWORD PTR nbytes$[rsp], rax
  0010c	76 0b		 jbe	 SHORT $LN11@newarrayob
  0010e	48 c7 44 24 38
	00 00 00 00	 mov	 QWORD PTR tv95[rsp], 0
  00117	eb 33		 jmp	 SHORT $LN12@newarrayob
$LN11@newarrayob:
  00119	e8 00 00 00 00	 call	 _Py_PXCTX
  0011e	85 c0		 test	 eax, eax
  00120	74 11		 je	 SHORT $LN9@newarrayob
  00122	48 8b 4c 24 20	 mov	 rcx, QWORD PTR nbytes$[rsp]
  00127	e8 00 00 00 00	 call	 _PxMem_Malloc
  0012c	48 89 44 24 40	 mov	 QWORD PTR tv94[rsp], rax
  00131	eb 0f		 jmp	 SHORT $LN10@newarrayob
$LN9@newarrayob:
  00133	48 8b 4c 24 20	 mov	 rcx, QWORD PTR nbytes$[rsp]
  00138	e8 00 00 00 00	 call	 _PyMem_DebugMalloc
  0013d	48 89 44 24 40	 mov	 QWORD PTR tv94[rsp], rax
$LN10@newarrayob:
  00142	48 8b 44 24 40	 mov	 rax, QWORD PTR tv94[rsp]
  00147	48 89 44 24 38	 mov	 QWORD PTR tv95[rsp], rax
$LN12@newarrayob:
  0014c	48 8b 44 24 28	 mov	 rax, QWORD PTR op$[rsp]
  00151	48 8b 4c 24 38	 mov	 rcx, QWORD PTR tv95[rsp]
  00156	48 89 48 70	 mov	 QWORD PTR [rax+112], rcx

; 504  :         if (op->ob_item == NULL) {

  0015a	48 8b 44 24 28	 mov	 rax, QWORD PTR op$[rsp]
  0015f	48 83 78 70 00	 cmp	 QWORD PTR [rax+112], 0
  00164	75 11		 jne	 SHORT $LN1@newarrayob

; 505  :             Py_DECREF(op);

  00166	48 8b 4c 24 28	 mov	 rcx, QWORD PTR op$[rsp]
  0016b	e8 00 00 00 00	 call	 _Py_DecRef

; 506  :             return PyErr_NoMemory();

  00170	e8 00 00 00 00	 call	 PyErr_NoMemory
  00175	eb 14		 jmp	 SHORT $LN7@newarrayob
$LN1@newarrayob:
$LN2@newarrayob:

; 507  :         }
; 508  :     }
; 509  :     op->ob_exports = 0;

  00177	48 8b 44 24 28	 mov	 rax, QWORD PTR op$[rsp]
  0017c	c7 80 90 00 00
	00 00 00 00 00	 mov	 DWORD PTR [rax+144], 0

; 510  :     return (PyObject *) op;

  00186	48 8b 44 24 28	 mov	 rax, QWORD PTR op$[rsp]
$LN7@newarrayob:

; 511  : }

  0018b	48 83 c4 58	 add	 rsp, 88			; 00000058H
  0018f	c3		 ret	 0
newarrayobject ENDP
_TEXT	ENDS
PUBLIC	??_C@_0CO@HGBNJIFC@can?5only?5append?5array?5?$CInot?5?$CC?$CF?420@ ; `string'
EXTRN	PyErr_BadArgument:PROC
EXTRN	PyErr_Format:PROC
;	COMDAT pdata
pdata	SEGMENT
$pdata$array_concat DD imagerel array_concat
	DD	imagerel array_concat+404
	DD	imagerel $unwind$array_concat
pdata	ENDS
;	COMDAT xdata
xdata	SEGMENT
$unwind$array_concat DD 010e01H
	DD	0620eH
xdata	ENDS
;	COMDAT ??_C@_0CO@HGBNJIFC@can?5only?5append?5array?5?$CInot?5?$CC?$CF?420@
CONST	SEGMENT
??_C@_0CO@HGBNJIFC@can?5only?5append?5array?5?$CInot?5?$CC?$CF?420@ DB 'c'
	DB	'an only append array (not "%.200s") to array', 00H ; `string'
; Function compile flags: /Odtp
CONST	ENDS
;	COMDAT array_concat
_TEXT	SEGMENT
size$ = 32
np$ = 40
a$ = 64
bb$ = 72
array_concat PROC					; COMDAT

; 700  : {

  00000	48 89 54 24 10	 mov	 QWORD PTR [rsp+16], rdx
  00005	48 89 4c 24 08	 mov	 QWORD PTR [rsp+8], rcx
  0000a	48 83 ec 38	 sub	 rsp, 56			; 00000038H

; 701  :     Py_ssize_t size;
; 702  :     arrayobject *np;
; 703  :     if (!array_Check(bb)) {

  0000e	48 8d 05 00 00
	00 00		 lea	 rax, OFFSET FLAT:Arraytype
  00015	48 8b 4c 24 48	 mov	 rcx, QWORD PTR bb$[rsp]
  0001a	48 39 41 58	 cmp	 QWORD PTR [rcx+88], rax
  0001e	74 40		 je	 SHORT $LN4@array_conc
  00020	48 8d 15 00 00
	00 00		 lea	 rdx, OFFSET FLAT:Arraytype
  00027	48 8b 44 24 48	 mov	 rax, QWORD PTR bb$[rsp]
  0002c	48 8b 48 58	 mov	 rcx, QWORD PTR [rax+88]
  00030	e8 00 00 00 00	 call	 PyType_IsSubtype
  00035	85 c0		 test	 eax, eax
  00037	75 27		 jne	 SHORT $LN4@array_conc

; 704  :         PyErr_Format(PyExc_TypeError,
; 705  :              "can only append array (not \"%.200s\") to array",
; 706  :                  Py_TYPE(bb)->tp_name);

  00039	48 8b 44 24 48	 mov	 rax, QWORD PTR bb$[rsp]
  0003e	48 8b 40 58	 mov	 rax, QWORD PTR [rax+88]
  00042	4c 8b 40 70	 mov	 r8, QWORD PTR [rax+112]
  00046	48 8d 15 00 00
	00 00		 lea	 rdx, OFFSET FLAT:??_C@_0CO@HGBNJIFC@can?5only?5append?5array?5?$CInot?5?$CC?$CF?420@
  0004d	48 8b 0d 00 00
	00 00		 mov	 rcx, QWORD PTR PyExc_TypeError
  00054	e8 00 00 00 00	 call	 PyErr_Format

; 707  :         return NULL;

  00059	33 c0		 xor	 eax, eax
  0005b	e9 2f 01 00 00	 jmp	 $LN5@array_conc
$LN4@array_conc:

; 708  :     }
; 709  : #define b ((arrayobject *)bb)
; 710  :     if (a->ob_descr != b->ob_descr) {

  00060	48 8b 44 24 40	 mov	 rax, QWORD PTR a$[rsp]
  00065	48 8b 4c 24 48	 mov	 rcx, QWORD PTR bb$[rsp]
  0006a	48 8b 89 80 00
	00 00		 mov	 rcx, QWORD PTR [rcx+128]
  00071	48 39 88 80 00
	00 00		 cmp	 QWORD PTR [rax+128], rcx
  00078	74 0c		 je	 SHORT $LN3@array_conc

; 711  :         PyErr_BadArgument();

  0007a	e8 00 00 00 00	 call	 PyErr_BadArgument

; 712  :         return NULL;

  0007f	33 c0		 xor	 eax, eax
  00081	e9 09 01 00 00	 jmp	 $LN5@array_conc
$LN3@array_conc:

; 713  :     }
; 714  :     if (Py_SIZE(a) > PY_SSIZE_T_MAX - Py_SIZE(b)) {

  00086	48 b8 ff ff ff
	ff ff ff ff 7f	 mov	 rax, 9223372036854775807 ; 7fffffffffffffffH
  00090	48 8b 4c 24 48	 mov	 rcx, QWORD PTR bb$[rsp]
  00095	48 2b 41 60	 sub	 rax, QWORD PTR [rcx+96]
  00099	48 8b 4c 24 40	 mov	 rcx, QWORD PTR a$[rsp]
  0009e	48 39 41 60	 cmp	 QWORD PTR [rcx+96], rax
  000a2	7e 0a		 jle	 SHORT $LN2@array_conc

; 715  :         return PyErr_NoMemory();

  000a4	e8 00 00 00 00	 call	 PyErr_NoMemory
  000a9	e9 e1 00 00 00	 jmp	 $LN5@array_conc
$LN2@array_conc:

; 716  :     }
; 717  :     size = Py_SIZE(a) + Py_SIZE(b);

  000ae	48 8b 44 24 40	 mov	 rax, QWORD PTR a$[rsp]
  000b3	48 8b 40 60	 mov	 rax, QWORD PTR [rax+96]
  000b7	48 8b 4c 24 48	 mov	 rcx, QWORD PTR bb$[rsp]
  000bc	48 03 41 60	 add	 rax, QWORD PTR [rcx+96]
  000c0	48 89 44 24 20	 mov	 QWORD PTR size$[rsp], rax

; 718  :     np = (arrayobject *) newarrayobject(&Arraytype, size, a->ob_descr);

  000c5	48 8b 44 24 40	 mov	 rax, QWORD PTR a$[rsp]
  000ca	4c 8b 80 80 00
	00 00		 mov	 r8, QWORD PTR [rax+128]
  000d1	48 8b 54 24 20	 mov	 rdx, QWORD PTR size$[rsp]
  000d6	48 8d 0d 00 00
	00 00		 lea	 rcx, OFFSET FLAT:Arraytype
  000dd	e8 00 00 00 00	 call	 newarrayobject
  000e2	48 89 44 24 28	 mov	 QWORD PTR np$[rsp], rax

; 719  :     if (np == NULL) {

  000e7	48 83 7c 24 28
	00		 cmp	 QWORD PTR np$[rsp], 0
  000ed	75 07		 jne	 SHORT $LN1@array_conc

; 720  :         return NULL;

  000ef	33 c0		 xor	 eax, eax
  000f1	e9 99 00 00 00	 jmp	 $LN5@array_conc
$LN1@array_conc:

; 721  :     }
; 722  :     memcpy(np->ob_item, a->ob_item, Py_SIZE(a)*a->ob_descr->itemsize);

  000f6	48 8b 44 24 40	 mov	 rax, QWORD PTR a$[rsp]
  000fb	48 8b 80 80 00
	00 00		 mov	 rax, QWORD PTR [rax+128]
  00102	48 63 40 04	 movsxd	 rax, DWORD PTR [rax+4]
  00106	48 8b 4c 24 40	 mov	 rcx, QWORD PTR a$[rsp]
  0010b	48 8b 49 60	 mov	 rcx, QWORD PTR [rcx+96]
  0010f	48 0f af c8	 imul	 rcx, rax
  00113	48 8b c1	 mov	 rax, rcx
  00116	4c 8b c0	 mov	 r8, rax
  00119	48 8b 44 24 40	 mov	 rax, QWORD PTR a$[rsp]
  0011e	48 8b 50 70	 mov	 rdx, QWORD PTR [rax+112]
  00122	48 8b 44 24 28	 mov	 rax, QWORD PTR np$[rsp]
  00127	48 8b 48 70	 mov	 rcx, QWORD PTR [rax+112]
  0012b	e8 00 00 00 00	 call	 memcpy

; 723  :     memcpy(np->ob_item + Py_SIZE(a)*a->ob_descr->itemsize,
; 724  :            b->ob_item, Py_SIZE(b)*b->ob_descr->itemsize);

  00130	48 8b 44 24 48	 mov	 rax, QWORD PTR bb$[rsp]
  00135	48 8b 80 80 00
	00 00		 mov	 rax, QWORD PTR [rax+128]
  0013c	48 63 40 04	 movsxd	 rax, DWORD PTR [rax+4]
  00140	48 8b 4c 24 48	 mov	 rcx, QWORD PTR bb$[rsp]
  00145	48 8b 49 60	 mov	 rcx, QWORD PTR [rcx+96]
  00149	48 0f af c8	 imul	 rcx, rax
  0014d	48 8b c1	 mov	 rax, rcx
  00150	48 8b 4c 24 40	 mov	 rcx, QWORD PTR a$[rsp]
  00155	48 8b 89 80 00
	00 00		 mov	 rcx, QWORD PTR [rcx+128]
  0015c	48 63 49 04	 movsxd	 rcx, DWORD PTR [rcx+4]
  00160	48 8b 54 24 40	 mov	 rdx, QWORD PTR a$[rsp]
  00165	48 8b 52 60	 mov	 rdx, QWORD PTR [rdx+96]
  00169	48 0f af d1	 imul	 rdx, rcx
  0016d	48 8b ca	 mov	 rcx, rdx
  00170	48 8b 54 24 28	 mov	 rdx, QWORD PTR np$[rsp]
  00175	48 03 4a 70	 add	 rcx, QWORD PTR [rdx+112]
  00179	4c 8b c0	 mov	 r8, rax
  0017c	48 8b 44 24 48	 mov	 rax, QWORD PTR bb$[rsp]
  00181	48 8b 50 70	 mov	 rdx, QWORD PTR [rax+112]
  00185	e8 00 00 00 00	 call	 memcpy

; 725  :     return (PyObject *)np;

  0018a	48 8b 44 24 28	 mov	 rax, QWORD PTR np$[rsp]
$LN5@array_conc:

; 726  : #undef b
; 727  : }

  0018f	48 83 c4 38	 add	 rsp, 56			; 00000038H
  00193	c3		 ret	 0
array_concat ENDP
_TEXT	ENDS
EXTRN	memset:PROC
;	COMDAT pdata
pdata	SEGMENT
$pdata$array_repeat DD imagerel array_repeat
	DD	imagerel array_repeat+793
	DD	imagerel $unwind$array_repeat
pdata	ENDS
;	COMDAT xdata
xdata	SEGMENT
$unwind$array_repeat DD 021101H
	DD	0150111H
; Function compile flags: /Odtp
xdata	ENDS
;	COMDAT array_repeat
_TEXT	SEGMENT
newbytes$ = 32
size$ = 40
oldbytes$ = 48
np$ = 56
done$21020 = 64
t_$21026 = 72
s_$21028 = 80
i_$21024 = 88
n_$21025 = 96
ncopy$21038 = 104
t_$21044 = 112
s_$21046 = 120
i_$21042 = 128
n_$21043 = 136
tv141 = 144
a$ = 176
n$ = 184
array_repeat PROC					; COMDAT

; 731  : {

  00000	48 89 54 24 10	 mov	 QWORD PTR [rsp+16], rdx
  00005	48 89 4c 24 08	 mov	 QWORD PTR [rsp+8], rcx
  0000a	48 81 ec a8 00
	00 00		 sub	 rsp, 168		; 000000a8H

; 732  :     Py_ssize_t size;
; 733  :     arrayobject *np;
; 734  :     Py_ssize_t oldbytes, newbytes;
; 735  :     if (n < 0)

  00011	48 83 bc 24 b8
	00 00 00 00	 cmp	 QWORD PTR n$[rsp], 0
  0001a	7d 0c		 jge	 SHORT $LN24@array_repe

; 736  :         n = 0;

  0001c	48 c7 84 24 b8
	00 00 00 00 00
	00 00		 mov	 QWORD PTR n$[rsp], 0
$LN24@array_repe:

; 737  :     if ((Py_SIZE(a) != 0) && (n > PY_SSIZE_T_MAX / Py_SIZE(a))) {

  00028	48 8b 84 24 b0
	00 00 00	 mov	 rax, QWORD PTR a$[rsp]
  00030	48 83 78 60 00	 cmp	 QWORD PTR [rax+96], 0
  00035	74 2c		 je	 SHORT $LN23@array_repe
  00037	48 b8 ff ff ff
	ff ff ff ff 7f	 mov	 rax, 9223372036854775807 ; 7fffffffffffffffH
  00041	48 99		 cdq
  00043	48 8b 8c 24 b0
	00 00 00	 mov	 rcx, QWORD PTR a$[rsp]
  0004b	48 f7 79 60	 idiv	 QWORD PTR [rcx+96]
  0004f	48 39 84 24 b8
	00 00 00	 cmp	 QWORD PTR n$[rsp], rax
  00057	7e 0a		 jle	 SHORT $LN23@array_repe

; 738  :         return PyErr_NoMemory();

  00059	e8 00 00 00 00	 call	 PyErr_NoMemory
  0005e	e9 ae 02 00 00	 jmp	 $LN25@array_repe
$LN23@array_repe:

; 739  :     }
; 740  :     size = Py_SIZE(a) * n;

  00063	48 8b 84 24 b0
	00 00 00	 mov	 rax, QWORD PTR a$[rsp]
  0006b	48 8b 40 60	 mov	 rax, QWORD PTR [rax+96]
  0006f	48 0f af 84 24
	b8 00 00 00	 imul	 rax, QWORD PTR n$[rsp]
  00078	48 89 44 24 28	 mov	 QWORD PTR size$[rsp], rax

; 741  :     np = (arrayobject *) newarrayobject(&Arraytype, size, a->ob_descr);

  0007d	48 8b 84 24 b0
	00 00 00	 mov	 rax, QWORD PTR a$[rsp]
  00085	4c 8b 80 80 00
	00 00		 mov	 r8, QWORD PTR [rax+128]
  0008c	48 8b 54 24 28	 mov	 rdx, QWORD PTR size$[rsp]
  00091	48 8d 0d 00 00
	00 00		 lea	 rcx, OFFSET FLAT:Arraytype
  00098	e8 00 00 00 00	 call	 newarrayobject
  0009d	48 89 44 24 38	 mov	 QWORD PTR np$[rsp], rax

; 742  :     if (np == NULL)

  000a2	48 83 7c 24 38
	00		 cmp	 QWORD PTR np$[rsp], 0
  000a8	75 07		 jne	 SHORT $LN22@array_repe

; 743  :         return NULL;

  000aa	33 c0		 xor	 eax, eax
  000ac	e9 60 02 00 00	 jmp	 $LN25@array_repe
$LN22@array_repe:

; 744  :     if (n == 0)

  000b1	48 83 bc 24 b8
	00 00 00 00	 cmp	 QWORD PTR n$[rsp], 0
  000ba	75 0a		 jne	 SHORT $LN21@array_repe

; 745  :         return (PyObject *)np;

  000bc	48 8b 44 24 38	 mov	 rax, QWORD PTR np$[rsp]
  000c1	e9 4b 02 00 00	 jmp	 $LN25@array_repe
$LN21@array_repe:

; 746  :     oldbytes = Py_SIZE(a) * a->ob_descr->itemsize;

  000c6	48 8b 84 24 b0
	00 00 00	 mov	 rax, QWORD PTR a$[rsp]
  000ce	48 8b 80 80 00
	00 00		 mov	 rax, QWORD PTR [rax+128]
  000d5	48 63 40 04	 movsxd	 rax, DWORD PTR [rax+4]
  000d9	48 8b 8c 24 b0
	00 00 00	 mov	 rcx, QWORD PTR a$[rsp]
  000e1	48 8b 49 60	 mov	 rcx, QWORD PTR [rcx+96]
  000e5	48 0f af c8	 imul	 rcx, rax
  000e9	48 8b c1	 mov	 rax, rcx
  000ec	48 89 44 24 30	 mov	 QWORD PTR oldbytes$[rsp], rax

; 747  :     newbytes = oldbytes * n;

  000f1	48 8b 44 24 30	 mov	 rax, QWORD PTR oldbytes$[rsp]
  000f6	48 0f af 84 24
	b8 00 00 00	 imul	 rax, QWORD PTR n$[rsp]
  000ff	48 89 44 24 20	 mov	 QWORD PTR newbytes$[rsp], rax

; 748  :     /* this follows the code in unicode_repeat */
; 749  :     if (oldbytes == 1) {

  00104	48 83 7c 24 30
	01		 cmp	 QWORD PTR oldbytes$[rsp], 1
  0010a	75 29		 jne	 SHORT $LN20@array_repe

; 750  :         memset(np->ob_item, a->ob_item[0], newbytes);

  0010c	48 8b 84 24 b0
	00 00 00	 mov	 rax, QWORD PTR a$[rsp]
  00114	48 8b 40 70	 mov	 rax, QWORD PTR [rax+112]
  00118	0f be 00	 movsx	 eax, BYTE PTR [rax]
  0011b	4c 8b 44 24 20	 mov	 r8, QWORD PTR newbytes$[rsp]
  00120	8b d0		 mov	 edx, eax
  00122	48 8b 44 24 38	 mov	 rax, QWORD PTR np$[rsp]
  00127	48 8b 48 70	 mov	 rcx, QWORD PTR [rax+112]
  0012b	e8 00 00 00 00	 call	 memset

; 751  :     } else {

  00130	e9 d7 01 00 00	 jmp	 $LN19@array_repe
$LN20@array_repe:

; 752  :         Py_ssize_t done = oldbytes;

  00135	48 8b 44 24 30	 mov	 rax, QWORD PTR oldbytes$[rsp]
  0013a	48 89 44 24 40	 mov	 QWORD PTR done$21020[rsp], rax
$LN18@array_repe:

; 753  :         Py_MEMCPY(np->ob_item, a->ob_item, oldbytes);

  0013f	48 8b 44 24 30	 mov	 rax, QWORD PTR oldbytes$[rsp]
  00144	48 89 44 24 60	 mov	 QWORD PTR n_$21025[rsp], rax
  00149	48 8b 44 24 38	 mov	 rax, QWORD PTR np$[rsp]
  0014e	48 8b 40 70	 mov	 rax, QWORD PTR [rax+112]
  00152	48 89 44 24 48	 mov	 QWORD PTR t_$21026[rsp], rax
  00157	48 8b 84 24 b0
	00 00 00	 mov	 rax, QWORD PTR a$[rsp]
  0015f	48 8b 40 70	 mov	 rax, QWORD PTR [rax+112]
  00163	48 89 44 24 50	 mov	 QWORD PTR s_$21028[rsp], rax
  00168	48 83 7c 24 60
	10		 cmp	 QWORD PTR n_$21025[rsp], 16
  0016e	72 16		 jb	 SHORT $LN15@array_repe
  00170	4c 8b 44 24 60	 mov	 r8, QWORD PTR n_$21025[rsp]
  00175	48 8b 54 24 50	 mov	 rdx, QWORD PTR s_$21028[rsp]
  0017a	48 8b 4c 24 48	 mov	 rcx, QWORD PTR t_$21026[rsp]
  0017f	e8 00 00 00 00	 call	 memcpy
  00184	eb 4b		 jmp	 SHORT $LN14@array_repe
$LN15@array_repe:
  00186	48 c7 44 24 58
	00 00 00 00	 mov	 QWORD PTR i_$21024[rsp], 0
  0018f	eb 0d		 jmp	 SHORT $LN13@array_repe
$LN12@array_repe:
  00191	48 8b 44 24 58	 mov	 rax, QWORD PTR i_$21024[rsp]
  00196	48 ff c0	 inc	 rax
  00199	48 89 44 24 58	 mov	 QWORD PTR i_$21024[rsp], rax
$LN13@array_repe:
  0019e	48 8b 44 24 60	 mov	 rax, QWORD PTR n_$21025[rsp]
  001a3	48 39 44 24 58	 cmp	 QWORD PTR i_$21024[rsp], rax
  001a8	73 27		 jae	 SHORT $LN11@array_repe
  001aa	48 8b 44 24 58	 mov	 rax, QWORD PTR i_$21024[rsp]
  001af	48 8b 4c 24 48	 mov	 rcx, QWORD PTR t_$21026[rsp]
  001b4	48 03 c8	 add	 rcx, rax
  001b7	48 8b c1	 mov	 rax, rcx
  001ba	48 8b 4c 24 58	 mov	 rcx, QWORD PTR i_$21024[rsp]
  001bf	48 8b 54 24 50	 mov	 rdx, QWORD PTR s_$21028[rsp]
  001c4	48 03 d1	 add	 rdx, rcx
  001c7	48 8b ca	 mov	 rcx, rdx
  001ca	0f b6 09	 movzx	 ecx, BYTE PTR [rcx]
  001cd	88 08		 mov	 BYTE PTR [rax], cl
  001cf	eb c0		 jmp	 SHORT $LN12@array_repe
$LN11@array_repe:
$LN14@array_repe:
  001d1	33 c0		 xor	 eax, eax
  001d3	85 c0		 test	 eax, eax
  001d5	0f 85 64 ff ff
	ff		 jne	 $LN18@array_repe
$LN10@array_repe:

; 754  :         while (done < newbytes) {

  001db	48 8b 44 24 20	 mov	 rax, QWORD PTR newbytes$[rsp]
  001e0	48 39 44 24 40	 cmp	 QWORD PTR done$21020[rsp], rax
  001e5	0f 8d 21 01 00
	00		 jge	 $LN9@array_repe

; 755  :             Py_ssize_t ncopy = (done <= newbytes-done) ? done : newbytes-done;

  001eb	48 8b 44 24 40	 mov	 rax, QWORD PTR done$21020[rsp]
  001f0	48 8b 4c 24 20	 mov	 rcx, QWORD PTR newbytes$[rsp]
  001f5	48 2b c8	 sub	 rcx, rax
  001f8	48 8b c1	 mov	 rax, rcx
  001fb	48 39 44 24 40	 cmp	 QWORD PTR done$21020[rsp], rax
  00200	7f 0f		 jg	 SHORT $LN27@array_repe
  00202	48 8b 44 24 40	 mov	 rax, QWORD PTR done$21020[rsp]
  00207	48 89 84 24 90
	00 00 00	 mov	 QWORD PTR tv141[rsp], rax
  0020f	eb 18		 jmp	 SHORT $LN28@array_repe
$LN27@array_repe:
  00211	48 8b 44 24 40	 mov	 rax, QWORD PTR done$21020[rsp]
  00216	48 8b 4c 24 20	 mov	 rcx, QWORD PTR newbytes$[rsp]
  0021b	48 2b c8	 sub	 rcx, rax
  0021e	48 8b c1	 mov	 rax, rcx
  00221	48 89 84 24 90
	00 00 00	 mov	 QWORD PTR tv141[rsp], rax
$LN28@array_repe:
  00229	48 8b 84 24 90
	00 00 00	 mov	 rax, QWORD PTR tv141[rsp]
  00231	48 89 44 24 68	 mov	 QWORD PTR ncopy$21038[rsp], rax
$LN8@array_repe:

; 756  :             Py_MEMCPY(np->ob_item+done, np->ob_item, ncopy);

  00236	48 8b 44 24 68	 mov	 rax, QWORD PTR ncopy$21038[rsp]
  0023b	48 89 84 24 88
	00 00 00	 mov	 QWORD PTR n_$21043[rsp], rax
  00243	48 8b 44 24 38	 mov	 rax, QWORD PTR np$[rsp]
  00248	48 8b 40 70	 mov	 rax, QWORD PTR [rax+112]
  0024c	48 03 44 24 40	 add	 rax, QWORD PTR done$21020[rsp]
  00251	48 89 44 24 70	 mov	 QWORD PTR t_$21044[rsp], rax
  00256	48 8b 44 24 38	 mov	 rax, QWORD PTR np$[rsp]
  0025b	48 8b 40 70	 mov	 rax, QWORD PTR [rax+112]
  0025f	48 89 44 24 78	 mov	 QWORD PTR s_$21046[rsp], rax
  00264	48 83 bc 24 88
	00 00 00 10	 cmp	 QWORD PTR n_$21043[rsp], 16
  0026d	72 19		 jb	 SHORT $LN5@array_repe
  0026f	4c 8b 84 24 88
	00 00 00	 mov	 r8, QWORD PTR n_$21043[rsp]
  00277	48 8b 54 24 78	 mov	 rdx, QWORD PTR s_$21046[rsp]
  0027c	48 8b 4c 24 70	 mov	 rcx, QWORD PTR t_$21044[rsp]
  00281	e8 00 00 00 00	 call	 memcpy
  00286	eb 60		 jmp	 SHORT $LN4@array_repe
$LN5@array_repe:
  00288	48 c7 84 24 80
	00 00 00 00 00
	00 00		 mov	 QWORD PTR i_$21042[rsp], 0
  00294	eb 13		 jmp	 SHORT $LN3@array_repe
$LN2@array_repe:
  00296	48 8b 84 24 80
	00 00 00	 mov	 rax, QWORD PTR i_$21042[rsp]
  0029e	48 ff c0	 inc	 rax
  002a1	48 89 84 24 80
	00 00 00	 mov	 QWORD PTR i_$21042[rsp], rax
$LN3@array_repe:
  002a9	48 8b 84 24 88
	00 00 00	 mov	 rax, QWORD PTR n_$21043[rsp]
  002b1	48 39 84 24 80
	00 00 00	 cmp	 QWORD PTR i_$21042[rsp], rax
  002b9	73 2d		 jae	 SHORT $LN1@array_repe
  002bb	48 8b 84 24 80
	00 00 00	 mov	 rax, QWORD PTR i_$21042[rsp]
  002c3	48 8b 4c 24 70	 mov	 rcx, QWORD PTR t_$21044[rsp]
  002c8	48 03 c8	 add	 rcx, rax
  002cb	48 8b c1	 mov	 rax, rcx
  002ce	48 8b 8c 24 80
	00 00 00	 mov	 rcx, QWORD PTR i_$21042[rsp]
  002d6	48 8b 54 24 78	 mov	 rdx, QWORD PTR s_$21046[rsp]
  002db	48 03 d1	 add	 rdx, rcx
  002de	48 8b ca	 mov	 rcx, rdx
  002e1	0f b6 09	 movzx	 ecx, BYTE PTR [rcx]
  002e4	88 08		 mov	 BYTE PTR [rax], cl
  002e6	eb ae		 jmp	 SHORT $LN2@array_repe
$LN1@array_repe:
$LN4@array_repe:
  002e8	33 c0		 xor	 eax, eax
  002ea	85 c0		 test	 eax, eax
  002ec	0f 85 44 ff ff
	ff		 jne	 $LN8@array_repe

; 757  :             done += ncopy;

  002f2	48 8b 44 24 68	 mov	 rax, QWORD PTR ncopy$21038[rsp]
  002f7	48 8b 4c 24 40	 mov	 rcx, QWORD PTR done$21020[rsp]
  002fc	48 03 c8	 add	 rcx, rax
  002ff	48 8b c1	 mov	 rax, rcx
  00302	48 89 44 24 40	 mov	 QWORD PTR done$21020[rsp], rax

; 758  :         }

  00307	e9 cf fe ff ff	 jmp	 $LN10@array_repe
$LN9@array_repe:
$LN19@array_repe:

; 759  :     }
; 760  :     return (PyObject *)np;

  0030c	48 8b 44 24 38	 mov	 rax, QWORD PTR np$[rsp]
$LN25@array_repe:

; 761  : }

  00311	48 81 c4 a8 00
	00 00		 add	 rsp, 168		; 000000a8H
  00318	c3		 ret	 0
array_repeat ENDP
_TEXT	ENDS
PUBLIC	??_C@_0CE@DDILIBCI@array?5assignment?5index?5out?5of?5ra@ ; `string'
;	COMDAT pdata
pdata	SEGMENT
$pdata$array_ass_item DD imagerel array_ass_item
	DD	imagerel array_ass_item+145
	DD	imagerel $unwind$array_ass_item
pdata	ENDS
;	COMDAT xdata
xdata	SEGMENT
$unwind$array_ass_item DD 011301H
	DD	04213H
xdata	ENDS
;	COMDAT ??_C@_0CE@DDILIBCI@array?5assignment?5index?5out?5of?5ra@
CONST	SEGMENT
??_C@_0CE@DDILIBCI@array?5assignment?5index?5out?5of?5ra@ DB 'array assig'
	DB	'nment index out of range', 00H		; `string'
; Function compile flags: /Odtp
CONST	ENDS
;	COMDAT array_ass_item
_TEXT	SEGMENT
a$ = 48
i$ = 56
v$ = 64
array_ass_item PROC					; COMDAT

; 838  : {

  00000	4c 89 44 24 18	 mov	 QWORD PTR [rsp+24], r8
  00005	48 89 54 24 10	 mov	 QWORD PTR [rsp+16], rdx
  0000a	48 89 4c 24 08	 mov	 QWORD PTR [rsp+8], rcx
  0000f	48 83 ec 28	 sub	 rsp, 40			; 00000028H

; 839  :     if (i < 0 || i >= Py_SIZE(a)) {

  00013	48 83 7c 24 38
	00		 cmp	 QWORD PTR i$[rsp], 0
  00019	7c 10		 jl	 SHORT $LN2@array_ass_
  0001b	48 8b 44 24 30	 mov	 rax, QWORD PTR a$[rsp]
  00020	48 8b 40 60	 mov	 rax, QWORD PTR [rax+96]
  00024	48 39 44 24 38	 cmp	 QWORD PTR i$[rsp], rax
  00029	7c 1a		 jl	 SHORT $LN3@array_ass_
$LN2@array_ass_:

; 840  :         PyErr_SetString(PyExc_IndexError,
; 841  :                          "array assignment index out of range");

  0002b	48 8d 15 00 00
	00 00		 lea	 rdx, OFFSET FLAT:??_C@_0CE@DDILIBCI@array?5assignment?5index?5out?5of?5ra@
  00032	48 8b 0d 00 00
	00 00		 mov	 rcx, QWORD PTR PyExc_IndexError
  00039	e8 00 00 00 00	 call	 PyErr_SetString

; 842  :         return -1;

  0003e	b8 ff ff ff ff	 mov	 eax, -1
  00043	eb 47		 jmp	 SHORT $LN4@array_ass_
$LN3@array_ass_:

; 843  :     }
; 844  :     if (v == NULL)

  00045	48 83 7c 24 40
	00		 cmp	 QWORD PTR v$[rsp], 0
  0004b	75 21		 jne	 SHORT $LN1@array_ass_

; 845  :         return array_ass_slice(a, i, i+1, v);

  0004d	48 8b 44 24 38	 mov	 rax, QWORD PTR i$[rsp]
  00052	48 ff c0	 inc	 rax
  00055	4c 8b 4c 24 40	 mov	 r9, QWORD PTR v$[rsp]
  0005a	4c 8b c0	 mov	 r8, rax
  0005d	48 8b 54 24 38	 mov	 rdx, QWORD PTR i$[rsp]
  00062	48 8b 4c 24 30	 mov	 rcx, QWORD PTR a$[rsp]
  00067	e8 00 00 00 00	 call	 array_ass_slice
  0006c	eb 1e		 jmp	 SHORT $LN4@array_ass_
$LN1@array_ass_:

; 846  :     return (*a->ob_descr->setitem)(a, i, v);

  0006e	48 8b 44 24 30	 mov	 rax, QWORD PTR a$[rsp]
  00073	48 8b 80 80 00
	00 00		 mov	 rax, QWORD PTR [rax+128]
  0007a	4c 8b 44 24 40	 mov	 r8, QWORD PTR v$[rsp]
  0007f	48 8b 54 24 38	 mov	 rdx, QWORD PTR i$[rsp]
  00084	48 8b 4c 24 30	 mov	 rcx, QWORD PTR a$[rsp]
  00089	ff 50 10	 call	 QWORD PTR [rax+16]
$LN4@array_ass_:

; 847  : }

  0008c	48 83 c4 28	 add	 rsp, 40			; 00000028H
  00090	c3		 ret	 0
array_ass_item ENDP
_TEXT	ENDS
PUBLIC	??_C@_0DB@GJKGCBFK@cannot?5resize?5an?5array?5that?5is?5e@ ; `string'
PUBLIC	??_C@_0DE@JBAHFOA@can?5only?5assign?5array?5?$CInot?5?$CC?$CF?420@ ; `string'
EXTRN	__imp_memmove:PROC
EXTRN	PyExc_BufferError:QWORD
;	COMDAT pdata
pdata	SEGMENT
$pdata$array_ass_slice DD imagerel array_ass_slice
	DD	imagerel array_ass_slice+1016
	DD	imagerel $unwind$array_ass_slice
pdata	ENDS
;	COMDAT xdata
xdata	SEGMENT
$unwind$array_ass_slice DD 011801H
	DD	0a218H
xdata	ENDS
;	COMDAT ??_C@_0DB@GJKGCBFK@cannot?5resize?5an?5array?5that?5is?5e@
CONST	SEGMENT
??_C@_0DB@GJKGCBFK@cannot?5resize?5an?5array?5that?5is?5e@ DB 'cannot res'
	DB	'ize an array that is exporting buffers', 00H ; `string'
CONST	ENDS
;	COMDAT ??_C@_0DE@JBAHFOA@can?5only?5assign?5array?5?$CInot?5?$CC?$CF?420@
CONST	SEGMENT
??_C@_0DE@JBAHFOA@can?5only?5assign?5array?5?$CInot?5?$CC?$CF?420@ DB 'ca'
	DB	'n only assign array (not "%.200s") to array slice', 00H ; `string'
; Function compile flags: /Odtp
CONST	ENDS
;	COMDAT array_ass_slice
_TEXT	SEGMENT
n$ = 32
d$ = 40
item$ = 48
ret$21079 = 56
tv162 = 64
tv195 = 72
a$ = 96
ilow$ = 104
ihigh$ = 112
v$ = 120
array_ass_slice PROC					; COMDAT

; 765  : {

  00000	4c 89 4c 24 20	 mov	 QWORD PTR [rsp+32], r9
  00005	4c 89 44 24 18	 mov	 QWORD PTR [rsp+24], r8
  0000a	48 89 54 24 10	 mov	 QWORD PTR [rsp+16], rdx
  0000f	48 89 4c 24 08	 mov	 QWORD PTR [rsp+8], rcx
  00014	48 83 ec 58	 sub	 rsp, 88			; 00000058H

; 766  :     char *item;
; 767  :     Py_ssize_t n; /* Size of replacement array */
; 768  :     Py_ssize_t d; /* Change in size */
; 769  : #define b ((arrayobject *)v)
; 770  :     if (v == NULL)

  00018	48 83 7c 24 78
	00		 cmp	 QWORD PTR v$[rsp], 0
  0001e	75 0e		 jne	 SHORT $LN22@array_ass_@2

; 771  :         n = 0;

  00020	48 c7 44 24 20
	00 00 00 00	 mov	 QWORD PTR n$[rsp], 0
  00029	e9 f6 00 00 00	 jmp	 $LN21@array_ass_@2
$LN22@array_ass_@2:

; 772  :     else if (array_Check(v)) {

  0002e	48 8d 05 00 00
	00 00		 lea	 rax, OFFSET FLAT:Arraytype
  00035	48 8b 4c 24 78	 mov	 rcx, QWORD PTR v$[rsp]
  0003a	48 39 41 58	 cmp	 QWORD PTR [rcx+88], rax
  0003e	74 1d		 je	 SHORT $LN19@array_ass_@2
  00040	48 8d 15 00 00
	00 00		 lea	 rdx, OFFSET FLAT:Arraytype
  00047	48 8b 44 24 78	 mov	 rax, QWORD PTR v$[rsp]
  0004c	48 8b 48 58	 mov	 rcx, QWORD PTR [rax+88]
  00050	e8 00 00 00 00	 call	 PyType_IsSubtype
  00055	85 c0		 test	 eax, eax
  00057	0f 84 9d 00 00
	00		 je	 $LN20@array_ass_@2
$LN19@array_ass_@2:

; 773  :         n = Py_SIZE(b);

  0005d	48 8b 44 24 78	 mov	 rax, QWORD PTR v$[rsp]
  00062	48 8b 40 60	 mov	 rax, QWORD PTR [rax+96]
  00066	48 89 44 24 20	 mov	 QWORD PTR n$[rsp], rax

; 774  :         if (a == b) {

  0006b	48 8b 44 24 78	 mov	 rax, QWORD PTR v$[rsp]
  00070	48 39 44 24 60	 cmp	 QWORD PTR a$[rsp], rax
  00075	75 58		 jne	 SHORT $LN18@array_ass_@2

; 775  :             /* Special case "a[i:j] = a" -- copy b first */
; 776  :             int ret;
; 777  :             v = array_slice(b, 0, n);

  00077	4c 8b 44 24 20	 mov	 r8, QWORD PTR n$[rsp]
  0007c	33 d2		 xor	 edx, edx
  0007e	48 8b 4c 24 78	 mov	 rcx, QWORD PTR v$[rsp]
  00083	e8 00 00 00 00	 call	 array_slice
  00088	48 89 44 24 78	 mov	 QWORD PTR v$[rsp], rax

; 778  :             if (!v)

  0008d	48 83 7c 24 78
	00		 cmp	 QWORD PTR v$[rsp], 0
  00093	75 0a		 jne	 SHORT $LN17@array_ass_@2

; 779  :                 return -1;

  00095	b8 ff ff ff ff	 mov	 eax, -1
  0009a	e9 54 03 00 00	 jmp	 $LN23@array_ass_@2
$LN17@array_ass_@2:

; 780  :             ret = array_ass_slice(a, ilow, ihigh, v);

  0009f	4c 8b 4c 24 78	 mov	 r9, QWORD PTR v$[rsp]
  000a4	4c 8b 44 24 70	 mov	 r8, QWORD PTR ihigh$[rsp]
  000a9	48 8b 54 24 68	 mov	 rdx, QWORD PTR ilow$[rsp]
  000ae	48 8b 4c 24 60	 mov	 rcx, QWORD PTR a$[rsp]
  000b3	e8 00 00 00 00	 call	 array_ass_slice
  000b8	89 44 24 38	 mov	 DWORD PTR ret$21079[rsp], eax

; 781  :             Py_DECREF(v);

  000bc	48 8b 4c 24 78	 mov	 rcx, QWORD PTR v$[rsp]
  000c1	e8 00 00 00 00	 call	 _Py_DecRef

; 782  :             return ret;

  000c6	8b 44 24 38	 mov	 eax, DWORD PTR ret$21079[rsp]
  000ca	e9 24 03 00 00	 jmp	 $LN23@array_ass_@2
$LN18@array_ass_@2:

; 783  :         }
; 784  :         if (b->ob_descr != a->ob_descr) {

  000cf	48 8b 44 24 78	 mov	 rax, QWORD PTR v$[rsp]
  000d4	48 8b 4c 24 60	 mov	 rcx, QWORD PTR a$[rsp]
  000d9	48 8b 89 80 00
	00 00		 mov	 rcx, QWORD PTR [rcx+128]
  000e0	48 39 88 80 00
	00 00		 cmp	 QWORD PTR [rax+128], rcx
  000e7	74 0f		 je	 SHORT $LN16@array_ass_@2

; 785  :             PyErr_BadArgument();

  000e9	e8 00 00 00 00	 call	 PyErr_BadArgument

; 786  :             return -1;

  000ee	b8 ff ff ff ff	 mov	 eax, -1
  000f3	e9 fb 02 00 00	 jmp	 $LN23@array_ass_@2
$LN16@array_ass_@2:

; 787  :         }
; 788  :     }
; 789  :     else {

  000f8	eb 2a		 jmp	 SHORT $LN15@array_ass_@2
$LN20@array_ass_@2:

; 790  :         PyErr_Format(PyExc_TypeError,
; 791  :          "can only assign array (not \"%.200s\") to array slice",
; 792  :                          Py_TYPE(v)->tp_name);

  000fa	48 8b 44 24 78	 mov	 rax, QWORD PTR v$[rsp]
  000ff	48 8b 40 58	 mov	 rax, QWORD PTR [rax+88]
  00103	4c 8b 40 70	 mov	 r8, QWORD PTR [rax+112]
  00107	48 8d 15 00 00
	00 00		 lea	 rdx, OFFSET FLAT:??_C@_0DE@JBAHFOA@can?5only?5assign?5array?5?$CInot?5?$CC?$CF?420@
  0010e	48 8b 0d 00 00
	00 00		 mov	 rcx, QWORD PTR PyExc_TypeError
  00115	e8 00 00 00 00	 call	 PyErr_Format

; 793  :         return -1;

  0011a	b8 ff ff ff ff	 mov	 eax, -1
  0011f	e9 cf 02 00 00	 jmp	 $LN23@array_ass_@2
$LN15@array_ass_@2:
$LN21@array_ass_@2:

; 794  :     }
; 795  :     if (ilow < 0)

  00124	48 83 7c 24 68
	00		 cmp	 QWORD PTR ilow$[rsp], 0
  0012a	7d 0b		 jge	 SHORT $LN14@array_ass_@2

; 796  :         ilow = 0;

  0012c	48 c7 44 24 68
	00 00 00 00	 mov	 QWORD PTR ilow$[rsp], 0
  00135	eb 1e		 jmp	 SHORT $LN13@array_ass_@2
$LN14@array_ass_@2:

; 797  :     else if (ilow > Py_SIZE(a))

  00137	48 8b 44 24 60	 mov	 rax, QWORD PTR a$[rsp]
  0013c	48 8b 40 60	 mov	 rax, QWORD PTR [rax+96]
  00140	48 39 44 24 68	 cmp	 QWORD PTR ilow$[rsp], rax
  00145	7e 0e		 jle	 SHORT $LN12@array_ass_@2

; 798  :         ilow = Py_SIZE(a);

  00147	48 8b 44 24 60	 mov	 rax, QWORD PTR a$[rsp]
  0014c	48 8b 40 60	 mov	 rax, QWORD PTR [rax+96]
  00150	48 89 44 24 68	 mov	 QWORD PTR ilow$[rsp], rax
$LN12@array_ass_@2:
$LN13@array_ass_@2:

; 799  :     if (ihigh < 0)

  00155	48 83 7c 24 70
	00		 cmp	 QWORD PTR ihigh$[rsp], 0
  0015b	7d 09		 jge	 SHORT $LN11@array_ass_@2

; 800  :         ihigh = 0;

  0015d	48 c7 44 24 70
	00 00 00 00	 mov	 QWORD PTR ihigh$[rsp], 0
$LN11@array_ass_@2:

; 801  :     if (ihigh < ilow)

  00166	48 8b 44 24 68	 mov	 rax, QWORD PTR ilow$[rsp]
  0016b	48 39 44 24 70	 cmp	 QWORD PTR ihigh$[rsp], rax
  00170	7d 0c		 jge	 SHORT $LN10@array_ass_@2

; 802  :         ihigh = ilow;

  00172	48 8b 44 24 68	 mov	 rax, QWORD PTR ilow$[rsp]
  00177	48 89 44 24 70	 mov	 QWORD PTR ihigh$[rsp], rax
  0017c	eb 1e		 jmp	 SHORT $LN9@array_ass_@2
$LN10@array_ass_@2:

; 803  :     else if (ihigh > Py_SIZE(a))

  0017e	48 8b 44 24 60	 mov	 rax, QWORD PTR a$[rsp]
  00183	48 8b 40 60	 mov	 rax, QWORD PTR [rax+96]
  00187	48 39 44 24 70	 cmp	 QWORD PTR ihigh$[rsp], rax
  0018c	7e 0e		 jle	 SHORT $LN8@array_ass_@2

; 804  :         ihigh = Py_SIZE(a);

  0018e	48 8b 44 24 60	 mov	 rax, QWORD PTR a$[rsp]
  00193	48 8b 40 60	 mov	 rax, QWORD PTR [rax+96]
  00197	48 89 44 24 70	 mov	 QWORD PTR ihigh$[rsp], rax
$LN8@array_ass_@2:
$LN9@array_ass_@2:

; 805  :     item = a->ob_item;

  0019c	48 8b 44 24 60	 mov	 rax, QWORD PTR a$[rsp]
  001a1	48 8b 40 70	 mov	 rax, QWORD PTR [rax+112]
  001a5	48 89 44 24 30	 mov	 QWORD PTR item$[rsp], rax

; 806  :     d = n - (ihigh-ilow);

  001aa	48 8b 44 24 68	 mov	 rax, QWORD PTR ilow$[rsp]
  001af	48 8b 4c 24 70	 mov	 rcx, QWORD PTR ihigh$[rsp]
  001b4	48 2b c8	 sub	 rcx, rax
  001b7	48 8b c1	 mov	 rax, rcx
  001ba	48 8b 4c 24 20	 mov	 rcx, QWORD PTR n$[rsp]
  001bf	48 2b c8	 sub	 rcx, rax
  001c2	48 8b c1	 mov	 rax, rcx
  001c5	48 89 44 24 28	 mov	 QWORD PTR d$[rsp], rax

; 807  :     /* Issue #4509: If the array has exported buffers and the slice
; 808  :        assignment would change the size of the array, fail early to make
; 809  :        sure we don't modify it. */
; 810  :     if (d != 0 && a->ob_exports > 0) {

  001ca	48 83 7c 24 28
	00		 cmp	 QWORD PTR d$[rsp], 0
  001d0	74 2b		 je	 SHORT $LN7@array_ass_@2
  001d2	48 8b 44 24 60	 mov	 rax, QWORD PTR a$[rsp]
  001d7	83 b8 90 00 00
	00 00		 cmp	 DWORD PTR [rax+144], 0
  001de	7e 1d		 jle	 SHORT $LN7@array_ass_@2

; 811  :         PyErr_SetString(PyExc_BufferError,
; 812  :             "cannot resize an array that is exporting buffers");

  001e0	48 8d 15 00 00
	00 00		 lea	 rdx, OFFSET FLAT:??_C@_0DB@GJKGCBFK@cannot?5resize?5an?5array?5that?5is?5e@
  001e7	48 8b 0d 00 00
	00 00		 mov	 rcx, QWORD PTR PyExc_BufferError
  001ee	e8 00 00 00 00	 call	 PyErr_SetString

; 813  :         return -1;

  001f3	b8 ff ff ff ff	 mov	 eax, -1
  001f8	e9 f6 01 00 00	 jmp	 $LN23@array_ass_@2
$LN7@array_ass_@2:

; 814  :     }
; 815  :     if (d < 0) { /* Delete -d items */

  001fd	48 83 7c 24 28
	00		 cmp	 QWORD PTR d$[rsp], 0
  00203	0f 8d c3 00 00
	00		 jge	 $LN6@array_ass_@2

; 816  :         memmove(item + (ihigh+d)*a->ob_descr->itemsize,
; 817  :             item + ihigh*a->ob_descr->itemsize,
; 818  :             (Py_SIZE(a)-ihigh)*a->ob_descr->itemsize);

  00209	48 8b 44 24 60	 mov	 rax, QWORD PTR a$[rsp]
  0020e	48 8b 4c 24 70	 mov	 rcx, QWORD PTR ihigh$[rsp]
  00213	48 8b 40 60	 mov	 rax, QWORD PTR [rax+96]
  00217	48 2b c1	 sub	 rax, rcx
  0021a	48 8b 4c 24 60	 mov	 rcx, QWORD PTR a$[rsp]
  0021f	48 8b 89 80 00
	00 00		 mov	 rcx, QWORD PTR [rcx+128]
  00226	48 63 49 04	 movsxd	 rcx, DWORD PTR [rcx+4]
  0022a	48 0f af c1	 imul	 rax, rcx
  0022e	48 8b 4c 24 60	 mov	 rcx, QWORD PTR a$[rsp]
  00233	48 8b 89 80 00
	00 00		 mov	 rcx, QWORD PTR [rcx+128]
  0023a	48 63 49 04	 movsxd	 rcx, DWORD PTR [rcx+4]
  0023e	48 8b 54 24 70	 mov	 rdx, QWORD PTR ihigh$[rsp]
  00243	48 0f af d1	 imul	 rdx, rcx
  00247	48 8b ca	 mov	 rcx, rdx
  0024a	48 8b 54 24 30	 mov	 rdx, QWORD PTR item$[rsp]
  0024f	48 03 d1	 add	 rdx, rcx
  00252	48 8b ca	 mov	 rcx, rdx
  00255	48 8b 54 24 28	 mov	 rdx, QWORD PTR d$[rsp]
  0025a	4c 8b 44 24 70	 mov	 r8, QWORD PTR ihigh$[rsp]
  0025f	4c 03 c2	 add	 r8, rdx
  00262	49 8b d0	 mov	 rdx, r8
  00265	4c 8b 44 24 60	 mov	 r8, QWORD PTR a$[rsp]
  0026a	4d 8b 80 80 00
	00 00		 mov	 r8, QWORD PTR [r8+128]
  00271	4d 63 40 04	 movsxd	 r8, DWORD PTR [r8+4]
  00275	49 0f af d0	 imul	 rdx, r8
  00279	4c 8b 44 24 30	 mov	 r8, QWORD PTR item$[rsp]
  0027e	4c 03 c2	 add	 r8, rdx
  00281	49 8b d0	 mov	 rdx, r8
  00284	48 89 54 24 40	 mov	 QWORD PTR tv162[rsp], rdx
  00289	4c 8b c0	 mov	 r8, rax
  0028c	48 8b d1	 mov	 rdx, rcx
  0028f	48 8b 44 24 40	 mov	 rax, QWORD PTR tv162[rsp]
  00294	48 8b c8	 mov	 rcx, rax
  00297	ff 15 00 00 00
	00		 call	 QWORD PTR __imp_memmove

; 819  :         if (array_resize(a, Py_SIZE(a) + d) == -1)

  0029d	48 8b 44 24 60	 mov	 rax, QWORD PTR a$[rsp]
  002a2	48 8b 40 60	 mov	 rax, QWORD PTR [rax+96]
  002a6	48 03 44 24 28	 add	 rax, QWORD PTR d$[rsp]
  002ab	48 8b d0	 mov	 rdx, rax
  002ae	48 8b 4c 24 60	 mov	 rcx, QWORD PTR a$[rsp]
  002b3	e8 00 00 00 00	 call	 array_resize
  002b8	83 f8 ff	 cmp	 eax, -1
  002bb	75 0a		 jne	 SHORT $LN5@array_ass_@2

; 820  :             return -1;

  002bd	b8 ff ff ff ff	 mov	 eax, -1
  002c2	e9 2c 01 00 00	 jmp	 $LN23@array_ass_@2
$LN5@array_ass_@2:

; 821  :     }
; 822  :     else if (d > 0) { /* Insert d items */

  002c7	e9 c9 00 00 00	 jmp	 $LN4@array_ass_@2
$LN6@array_ass_@2:
  002cc	48 83 7c 24 28
	00		 cmp	 QWORD PTR d$[rsp], 0
  002d2	0f 8e bd 00 00
	00		 jle	 $LN3@array_ass_@2

; 823  :         if (array_resize(a, Py_SIZE(a) + d))

  002d8	48 8b 44 24 60	 mov	 rax, QWORD PTR a$[rsp]
  002dd	48 8b 40 60	 mov	 rax, QWORD PTR [rax+96]
  002e1	48 03 44 24 28	 add	 rax, QWORD PTR d$[rsp]
  002e6	48 8b d0	 mov	 rdx, rax
  002e9	48 8b 4c 24 60	 mov	 rcx, QWORD PTR a$[rsp]
  002ee	e8 00 00 00 00	 call	 array_resize
  002f3	85 c0		 test	 eax, eax
  002f5	74 0a		 je	 SHORT $LN2@array_ass_@2

; 824  :             return -1;

  002f7	b8 ff ff ff ff	 mov	 eax, -1
  002fc	e9 f2 00 00 00	 jmp	 $LN23@array_ass_@2
$LN2@array_ass_@2:

; 825  :         memmove(item + (ihigh+d)*a->ob_descr->itemsize,
; 826  :             item + ihigh*a->ob_descr->itemsize,
; 827  :             (Py_SIZE(a)-ihigh)*a->ob_descr->itemsize);

  00301	48 8b 44 24 60	 mov	 rax, QWORD PTR a$[rsp]
  00306	48 8b 4c 24 70	 mov	 rcx, QWORD PTR ihigh$[rsp]
  0030b	48 8b 40 60	 mov	 rax, QWORD PTR [rax+96]
  0030f	48 2b c1	 sub	 rax, rcx
  00312	48 8b 4c 24 60	 mov	 rcx, QWORD PTR a$[rsp]
  00317	48 8b 89 80 00
	00 00		 mov	 rcx, QWORD PTR [rcx+128]
  0031e	48 63 49 04	 movsxd	 rcx, DWORD PTR [rcx+4]
  00322	48 0f af c1	 imul	 rax, rcx
  00326	48 8b 4c 24 60	 mov	 rcx, QWORD PTR a$[rsp]
  0032b	48 8b 89 80 00
	00 00		 mov	 rcx, QWORD PTR [rcx+128]
  00332	48 63 49 04	 movsxd	 rcx, DWORD PTR [rcx+4]
  00336	48 8b 54 24 70	 mov	 rdx, QWORD PTR ihigh$[rsp]
  0033b	48 0f af d1	 imul	 rdx, rcx
  0033f	48 8b ca	 mov	 rcx, rdx
  00342	48 8b 54 24 30	 mov	 rdx, QWORD PTR item$[rsp]
  00347	48 03 d1	 add	 rdx, rcx
  0034a	48 8b ca	 mov	 rcx, rdx
  0034d	48 8b 54 24 28	 mov	 rdx, QWORD PTR d$[rsp]
  00352	4c 8b 44 24 70	 mov	 r8, QWORD PTR ihigh$[rsp]
  00357	4c 03 c2	 add	 r8, rdx
  0035a	49 8b d0	 mov	 rdx, r8
  0035d	4c 8b 44 24 60	 mov	 r8, QWORD PTR a$[rsp]
  00362	4d 8b 80 80 00
	00 00		 mov	 r8, QWORD PTR [r8+128]
  00369	4d 63 40 04	 movsxd	 r8, DWORD PTR [r8+4]
  0036d	49 0f af d0	 imul	 rdx, r8
  00371	4c 8b 44 24 30	 mov	 r8, QWORD PTR item$[rsp]
  00376	4c 03 c2	 add	 r8, rdx
  00379	49 8b d0	 mov	 rdx, r8
  0037c	48 89 54 24 48	 mov	 QWORD PTR tv195[rsp], rdx
  00381	4c 8b c0	 mov	 r8, rax
  00384	48 8b d1	 mov	 rdx, rcx
  00387	48 8b 44 24 48	 mov	 rax, QWORD PTR tv195[rsp]
  0038c	48 8b c8	 mov	 rcx, rax
  0038f	ff 15 00 00 00
	00		 call	 QWORD PTR __imp_memmove
$LN3@array_ass_@2:
$LN4@array_ass_@2:

; 828  :     }
; 829  :     if (n > 0)

  00395	48 83 7c 24 20
	00		 cmp	 QWORD PTR n$[rsp], 0
  0039b	7e 54		 jle	 SHORT $LN1@array_ass_@2

; 830  :         memcpy(item + ilow*a->ob_descr->itemsize, b->ob_item,
; 831  :                n*b->ob_descr->itemsize);

  0039d	48 8b 44 24 78	 mov	 rax, QWORD PTR v$[rsp]
  003a2	48 8b 80 80 00
	00 00		 mov	 rax, QWORD PTR [rax+128]
  003a9	48 63 40 04	 movsxd	 rax, DWORD PTR [rax+4]
  003ad	48 8b 4c 24 20	 mov	 rcx, QWORD PTR n$[rsp]
  003b2	48 0f af c8	 imul	 rcx, rax
  003b6	48 8b c1	 mov	 rax, rcx
  003b9	48 8b 4c 24 60	 mov	 rcx, QWORD PTR a$[rsp]
  003be	48 8b 89 80 00
	00 00		 mov	 rcx, QWORD PTR [rcx+128]
  003c5	48 63 49 04	 movsxd	 rcx, DWORD PTR [rcx+4]
  003c9	48 8b 54 24 68	 mov	 rdx, QWORD PTR ilow$[rsp]
  003ce	48 0f af d1	 imul	 rdx, rcx
  003d2	48 8b ca	 mov	 rcx, rdx
  003d5	48 8b 54 24 30	 mov	 rdx, QWORD PTR item$[rsp]
  003da	48 03 d1	 add	 rdx, rcx
  003dd	48 8b ca	 mov	 rcx, rdx
  003e0	4c 8b c0	 mov	 r8, rax
  003e3	48 8b 44 24 78	 mov	 rax, QWORD PTR v$[rsp]
  003e8	48 8b 50 70	 mov	 rdx, QWORD PTR [rax+112]
  003ec	e8 00 00 00 00	 call	 memcpy
$LN1@array_ass_@2:

; 832  :     return 0;

  003f1	33 c0		 xor	 eax, eax
$LN23@array_ass_@2:

; 833  : #undef b
; 834  : }

  003f3	48 83 c4 58	 add	 rsp, 88			; 00000058H
  003f7	c3		 ret	 0
array_ass_slice ENDP
_TEXT	ENDS
EXTRN	_PyMem_DebugRealloc:PROC
EXTRN	_PxMem_Realloc:PROC
;	COMDAT pdata
pdata	SEGMENT
$pdata$array_resize DD imagerel array_resize
	DD	imagerel array_resize+637
	DD	imagerel $unwind$array_resize
pdata	ENDS
;	COMDAT xdata
xdata	SEGMENT
$unwind$array_resize DD 010e01H
	DD	0a20eH
; Function compile flags: /Odtp
xdata	ENDS
;	COMDAT array_resize
_TEXT	SEGMENT
_new_size$ = 32
items$ = 40
tv85 = 48
tv92 = 52
tv131 = 56
tv156 = 64
tv155 = 72
self$ = 96
newsize$ = 104
array_resize PROC					; COMDAT

; 50   : {

  00000	48 89 54 24 10	 mov	 QWORD PTR [rsp+16], rdx
  00005	48 89 4c 24 08	 mov	 QWORD PTR [rsp+8], rcx
  0000a	48 83 ec 58	 sub	 rsp, 88			; 00000058H

; 51   :     char *items;
; 52   :     size_t _new_size;
; 53   : 
; 54   :     if (self->ob_exports > 0 && newsize != Py_SIZE(self)) {

  0000e	48 8b 44 24 60	 mov	 rax, QWORD PTR self$[rsp]
  00013	83 b8 90 00 00
	00 00		 cmp	 DWORD PTR [rax+144], 0
  0001a	7e 2d		 jle	 SHORT $LN6@array_resi
  0001c	48 8b 44 24 60	 mov	 rax, QWORD PTR self$[rsp]
  00021	48 8b 40 60	 mov	 rax, QWORD PTR [rax+96]
  00025	48 39 44 24 68	 cmp	 QWORD PTR newsize$[rsp], rax
  0002a	74 1d		 je	 SHORT $LN6@array_resi

; 55   :         PyErr_SetString(PyExc_BufferError,
; 56   :             "cannot resize an array that is exporting buffers");

  0002c	48 8d 15 00 00
	00 00		 lea	 rdx, OFFSET FLAT:??_C@_0DB@GJKGCBFK@cannot?5resize?5an?5array?5that?5is?5e@
  00033	48 8b 0d 00 00
	00 00		 mov	 rcx, QWORD PTR PyExc_BufferError
  0003a	e8 00 00 00 00	 call	 PyErr_SetString

; 57   :         return -1;

  0003f	b8 ff ff ff ff	 mov	 eax, -1
  00044	e9 2f 02 00 00	 jmp	 $LN7@array_resi
$LN6@array_resi:

; 58   :     }
; 59   : 
; 60   :     /* Bypass realloc() when a previous overallocation is large enough
; 61   :        to accommodate the newsize.  If the newsize is 16 smaller than the
; 62   :        current size, then proceed with the realloc() to shrink the array.
; 63   :     */
; 64   : 
; 65   :     if (self->allocated >= newsize &&
; 66   :         Py_SIZE(self) < newsize + 16 &&
; 67   :         self->ob_item != NULL) {

  00049	48 8b 44 24 60	 mov	 rax, QWORD PTR self$[rsp]
  0004e	48 8b 4c 24 68	 mov	 rcx, QWORD PTR newsize$[rsp]
  00053	48 39 48 78	 cmp	 QWORD PTR [rax+120], rcx
  00057	7c 35		 jl	 SHORT $LN5@array_resi
  00059	48 8b 44 24 68	 mov	 rax, QWORD PTR newsize$[rsp]
  0005e	48 83 c0 10	 add	 rax, 16
  00062	48 8b 4c 24 60	 mov	 rcx, QWORD PTR self$[rsp]
  00067	48 39 41 60	 cmp	 QWORD PTR [rcx+96], rax
  0006b	7d 21		 jge	 SHORT $LN5@array_resi
  0006d	48 8b 44 24 60	 mov	 rax, QWORD PTR self$[rsp]
  00072	48 83 78 70 00	 cmp	 QWORD PTR [rax+112], 0
  00077	74 15		 je	 SHORT $LN5@array_resi

; 68   :         Py_SIZE(self) = newsize;

  00079	48 8b 44 24 60	 mov	 rax, QWORD PTR self$[rsp]
  0007e	48 8b 4c 24 68	 mov	 rcx, QWORD PTR newsize$[rsp]
  00083	48 89 48 60	 mov	 QWORD PTR [rax+96], rcx

; 69   :         return 0;

  00087	33 c0		 xor	 eax, eax
  00089	e9 ea 01 00 00	 jmp	 $LN7@array_resi
$LN5@array_resi:

; 70   :     }
; 71   : 
; 72   :     if (newsize == 0) {

  0008e	48 83 7c 24 68
	00		 cmp	 QWORD PTR newsize$[rsp], 0
  00094	75 65		 jne	 SHORT $LN4@array_resi

; 73   :         PyMem_FREE(self->ob_item);

  00096	e8 00 00 00 00	 call	 _Py_PXCTX
  0009b	85 c0		 test	 eax, eax
  0009d	74 18		 je	 SHORT $LN9@array_resi
  0009f	48 8b 44 24 60	 mov	 rax, QWORD PTR self$[rsp]
  000a4	48 8b 48 70	 mov	 rcx, QWORD PTR [rax+112]
  000a8	e8 00 00 00 00	 call	 _PxMem_Free
  000ad	c7 44 24 30 00
	00 00 00	 mov	 DWORD PTR tv85[rsp], 0
  000b5	eb 16		 jmp	 SHORT $LN10@array_resi
$LN9@array_resi:
  000b7	48 8b 44 24 60	 mov	 rax, QWORD PTR self$[rsp]
  000bc	48 8b 48 70	 mov	 rcx, QWORD PTR [rax+112]
  000c0	e8 00 00 00 00	 call	 _PyMem_DebugFree
  000c5	c7 44 24 30 00
	00 00 00	 mov	 DWORD PTR tv85[rsp], 0
$LN10@array_resi:

; 74   :         self->ob_item = NULL;

  000cd	48 8b 44 24 60	 mov	 rax, QWORD PTR self$[rsp]
  000d2	48 c7 40 70 00
	00 00 00	 mov	 QWORD PTR [rax+112], 0

; 75   :         Py_SIZE(self) = 0;

  000da	48 8b 44 24 60	 mov	 rax, QWORD PTR self$[rsp]
  000df	48 c7 40 60 00
	00 00 00	 mov	 QWORD PTR [rax+96], 0

; 76   :         self->allocated = 0;

  000e7	48 8b 44 24 60	 mov	 rax, QWORD PTR self$[rsp]
  000ec	48 c7 40 78 00
	00 00 00	 mov	 QWORD PTR [rax+120], 0

; 77   :         return 0;

  000f4	33 c0		 xor	 eax, eax
  000f6	e9 7d 01 00 00	 jmp	 $LN7@array_resi
$LN4@array_resi:

; 78   :     }
; 79   : 
; 80   :     /* This over-allocates proportional to the array size, making room
; 81   :      * for additional growth.  The over-allocation is mild, but is
; 82   :      * enough to give linear-time amortized behavior over a long
; 83   :      * sequence of appends() in the presence of a poorly-performing
; 84   :      * system realloc().
; 85   :      * The growth pattern is:  0, 4, 8, 16, 25, 34, 46, 56, 67, 79, ...
; 86   :      * Note, the pattern starts out the same as for lists but then
; 87   :      * grows at a smaller rate so that larger arrays only overallocate
; 88   :      * by about 1/16th -- this is done because arrays are presumed to be more
; 89   :      * memory critical.
; 90   :      */
; 91   : 
; 92   :     _new_size = (newsize >> 4) + (Py_SIZE(self) < 8 ? 3 : 7) + newsize;

  000fb	48 8b 44 24 60	 mov	 rax, QWORD PTR self$[rsp]
  00100	48 83 78 60 08	 cmp	 QWORD PTR [rax+96], 8
  00105	7d 0a		 jge	 SHORT $LN11@array_resi
  00107	c7 44 24 34 03
	00 00 00	 mov	 DWORD PTR tv92[rsp], 3
  0010f	eb 08		 jmp	 SHORT $LN12@array_resi
$LN11@array_resi:
  00111	c7 44 24 34 07
	00 00 00	 mov	 DWORD PTR tv92[rsp], 7
$LN12@array_resi:
  00119	48 8b 44 24 68	 mov	 rax, QWORD PTR newsize$[rsp]
  0011e	48 c1 f8 04	 sar	 rax, 4
  00122	48 63 4c 24 34	 movsxd	 rcx, DWORD PTR tv92[rsp]
  00127	48 8b 54 24 68	 mov	 rdx, QWORD PTR newsize$[rsp]
  0012c	48 03 d0	 add	 rdx, rax
  0012f	48 8b c2	 mov	 rax, rdx
  00132	48 03 c8	 add	 rcx, rax
  00135	48 8b c1	 mov	 rax, rcx
  00138	48 89 44 24 20	 mov	 QWORD PTR _new_size$[rsp], rax

; 93   :     items = self->ob_item;

  0013d	48 8b 44 24 60	 mov	 rax, QWORD PTR self$[rsp]
  00142	48 8b 40 70	 mov	 rax, QWORD PTR [rax+112]
  00146	48 89 44 24 28	 mov	 QWORD PTR items$[rsp], rax

; 94   :     /* XXX The following multiplication and division does not optimize away
; 95   :        like it does for lists since the size is not known at compile time */
; 96   :     if (_new_size <= ((~(size_t)0) / self->ob_descr->itemsize))

  0014b	48 8b 44 24 60	 mov	 rax, QWORD PTR self$[rsp]
  00150	48 8b 80 80 00
	00 00		 mov	 rax, QWORD PTR [rax+128]
  00157	48 63 40 04	 movsxd	 rax, DWORD PTR [rax+4]
  0015b	48 89 44 24 38	 mov	 QWORD PTR tv131[rsp], rax
  00160	33 d2		 xor	 edx, edx
  00162	48 c7 c0 ff ff
	ff ff		 mov	 rax, -1
  00169	48 8b 4c 24 38	 mov	 rcx, QWORD PTR tv131[rsp]
  0016e	48 f7 f1	 div	 rcx
  00171	48 39 44 24 20	 cmp	 QWORD PTR _new_size$[rsp], rax
  00176	0f 87 b3 00 00
	00		 ja	 $LN3@array_resi

; 97   :         PyMem_RESIZE(items, char, (_new_size * self->ob_descr->itemsize));

  0017c	48 8b 44 24 60	 mov	 rax, QWORD PTR self$[rsp]
  00181	48 8b 80 80 00
	00 00		 mov	 rax, QWORD PTR [rax+128]
  00188	48 63 40 04	 movsxd	 rax, DWORD PTR [rax+4]
  0018c	48 8b 4c 24 20	 mov	 rcx, QWORD PTR _new_size$[rsp]
  00191	48 0f af c8	 imul	 rcx, rax
  00195	48 8b c1	 mov	 rax, rcx
  00198	48 b9 ff ff ff
	ff ff ff ff 7f	 mov	 rcx, 9223372036854775807 ; 7fffffffffffffffH
  001a2	48 3b c1	 cmp	 rax, rcx
  001a5	76 0b		 jbe	 SHORT $LN15@array_resi
  001a7	48 c7 44 24 40
	00 00 00 00	 mov	 QWORD PTR tv156[rsp], 0
  001b0	eb 71		 jmp	 SHORT $LN16@array_resi
$LN15@array_resi:
  001b2	e8 00 00 00 00	 call	 _Py_PXCTX
  001b7	85 c0		 test	 eax, eax
  001b9	74 30		 je	 SHORT $LN13@array_resi
  001bb	48 8b 44 24 60	 mov	 rax, QWORD PTR self$[rsp]
  001c0	48 8b 80 80 00
	00 00		 mov	 rax, QWORD PTR [rax+128]
  001c7	48 63 40 04	 movsxd	 rax, DWORD PTR [rax+4]
  001cb	48 8b 4c 24 20	 mov	 rcx, QWORD PTR _new_size$[rsp]
  001d0	48 0f af c8	 imul	 rcx, rax
  001d4	48 8b c1	 mov	 rax, rcx
  001d7	48 8b d0	 mov	 rdx, rax
  001da	48 8b 4c 24 28	 mov	 rcx, QWORD PTR items$[rsp]
  001df	e8 00 00 00 00	 call	 _PxMem_Realloc
  001e4	48 89 44 24 48	 mov	 QWORD PTR tv155[rsp], rax
  001e9	eb 2e		 jmp	 SHORT $LN14@array_resi
$LN13@array_resi:
  001eb	48 8b 44 24 60	 mov	 rax, QWORD PTR self$[rsp]
  001f0	48 8b 80 80 00
	00 00		 mov	 rax, QWORD PTR [rax+128]
  001f7	48 63 40 04	 movsxd	 rax, DWORD PTR [rax+4]
  001fb	48 8b 4c 24 20	 mov	 rcx, QWORD PTR _new_size$[rsp]
  00200	48 0f af c8	 imul	 rcx, rax
  00204	48 8b c1	 mov	 rax, rcx
  00207	48 8b d0	 mov	 rdx, rax
  0020a	48 8b 4c 24 28	 mov	 rcx, QWORD PTR items$[rsp]
  0020f	e8 00 00 00 00	 call	 _PyMem_DebugRealloc
  00214	48 89 44 24 48	 mov	 QWORD PTR tv155[rsp], rax
$LN14@array_resi:
  00219	48 8b 44 24 48	 mov	 rax, QWORD PTR tv155[rsp]
  0021e	48 89 44 24 40	 mov	 QWORD PTR tv156[rsp], rax
$LN16@array_resi:
  00223	48 8b 44 24 40	 mov	 rax, QWORD PTR tv156[rsp]
  00228	48 89 44 24 28	 mov	 QWORD PTR items$[rsp], rax

; 98   :     else

  0022d	eb 09		 jmp	 SHORT $LN2@array_resi
$LN3@array_resi:

; 99   :         items = NULL;

  0022f	48 c7 44 24 28
	00 00 00 00	 mov	 QWORD PTR items$[rsp], 0
$LN2@array_resi:

; 100  :     if (items == NULL) {

  00238	48 83 7c 24 28
	00		 cmp	 QWORD PTR items$[rsp], 0
  0023e	75 0c		 jne	 SHORT $LN1@array_resi

; 101  :         PyErr_NoMemory();

  00240	e8 00 00 00 00	 call	 PyErr_NoMemory

; 102  :         return -1;

  00245	b8 ff ff ff ff	 mov	 eax, -1
  0024a	eb 2c		 jmp	 SHORT $LN7@array_resi
$LN1@array_resi:

; 103  :     }
; 104  :     self->ob_item = items;

  0024c	48 8b 44 24 60	 mov	 rax, QWORD PTR self$[rsp]
  00251	48 8b 4c 24 28	 mov	 rcx, QWORD PTR items$[rsp]
  00256	48 89 48 70	 mov	 QWORD PTR [rax+112], rcx

; 105  :     Py_SIZE(self) = newsize;

  0025a	48 8b 44 24 60	 mov	 rax, QWORD PTR self$[rsp]
  0025f	48 8b 4c 24 68	 mov	 rcx, QWORD PTR newsize$[rsp]
  00264	48 89 48 60	 mov	 QWORD PTR [rax+96], rcx

; 106  :     self->allocated = _new_size;

  00268	48 8b 44 24 60	 mov	 rax, QWORD PTR self$[rsp]
  0026d	48 8b 4c 24 20	 mov	 rcx, QWORD PTR _new_size$[rsp]
  00272	48 89 48 78	 mov	 QWORD PTR [rax+120], rcx

; 107  :     return 0;

  00276	33 c0		 xor	 eax, eax
$LN7@array_resi:

; 108  : }

  00278	48 83 c4 58	 add	 rsp, 88			; 00000058H
  0027c	c3		 ret	 0
array_resize ENDP
_TEXT	ENDS
PUBLIC	??_C@_0DA@CFHNCMNJ@can?5only?5extend?5array?5with?5array@ ; `string'
;	COMDAT pdata
pdata	SEGMENT
$pdata$array_inplace_concat DD imagerel array_inplace_concat
	DD	imagerel array_inplace_concat+137
	DD	imagerel $unwind$array_inplace_concat
pdata	ENDS
;	COMDAT xdata
xdata	SEGMENT
$unwind$array_inplace_concat DD 010e01H
	DD	0420eH
xdata	ENDS
;	COMDAT ??_C@_0DA@CFHNCMNJ@can?5only?5extend?5array?5with?5array@
CONST	SEGMENT
??_C@_0DA@CFHNCMNJ@can?5only?5extend?5array?5with?5array@ DB 'can only ex'
	DB	'tend array with array (not "%.200s")', 00H	; `string'
; Function compile flags: /Odtp
CONST	ENDS
;	COMDAT array_inplace_concat
_TEXT	SEGMENT
self$ = 48
bb$ = 56
array_inplace_concat PROC				; COMDAT

; 912  : {

  00000	48 89 54 24 10	 mov	 QWORD PTR [rsp+16], rdx
  00005	48 89 4c 24 08	 mov	 QWORD PTR [rsp+8], rcx
  0000a	48 83 ec 28	 sub	 rsp, 40			; 00000028H

; 913  :     if (!array_Check(bb)) {

  0000e	48 8d 05 00 00
	00 00		 lea	 rax, OFFSET FLAT:Arraytype
  00015	48 8b 4c 24 38	 mov	 rcx, QWORD PTR bb$[rsp]
  0001a	48 39 41 58	 cmp	 QWORD PTR [rcx+88], rax
  0001e	74 3d		 je	 SHORT $LN2@array_inpl
  00020	48 8d 15 00 00
	00 00		 lea	 rdx, OFFSET FLAT:Arraytype
  00027	48 8b 44 24 38	 mov	 rax, QWORD PTR bb$[rsp]
  0002c	48 8b 48 58	 mov	 rcx, QWORD PTR [rax+88]
  00030	e8 00 00 00 00	 call	 PyType_IsSubtype
  00035	85 c0		 test	 eax, eax
  00037	75 24		 jne	 SHORT $LN2@array_inpl

; 914  :         PyErr_Format(PyExc_TypeError,
; 915  :             "can only extend array with array (not \"%.200s\")",
; 916  :             Py_TYPE(bb)->tp_name);

  00039	48 8b 44 24 38	 mov	 rax, QWORD PTR bb$[rsp]
  0003e	48 8b 40 58	 mov	 rax, QWORD PTR [rax+88]
  00042	4c 8b 40 70	 mov	 r8, QWORD PTR [rax+112]
  00046	48 8d 15 00 00
	00 00		 lea	 rdx, OFFSET FLAT:??_C@_0DA@CFHNCMNJ@can?5only?5extend?5array?5with?5array@
  0004d	48 8b 0d 00 00
	00 00		 mov	 rcx, QWORD PTR PyExc_TypeError
  00054	e8 00 00 00 00	 call	 PyErr_Format

; 917  :         return NULL;

  00059	33 c0		 xor	 eax, eax
  0005b	eb 27		 jmp	 SHORT $LN3@array_inpl
$LN2@array_inpl:

; 918  :     }
; 919  :     if (array_do_extend(self, bb) == -1)

  0005d	48 8b 54 24 38	 mov	 rdx, QWORD PTR bb$[rsp]
  00062	48 8b 4c 24 30	 mov	 rcx, QWORD PTR self$[rsp]
  00067	e8 00 00 00 00	 call	 array_do_extend
  0006c	83 f8 ff	 cmp	 eax, -1
  0006f	75 04		 jne	 SHORT $LN1@array_inpl

; 920  :         return NULL;

  00071	33 c0		 xor	 eax, eax
  00073	eb 0f		 jmp	 SHORT $LN3@array_inpl
$LN1@array_inpl:

; 921  :     Py_INCREF(self);

  00075	48 8b 4c 24 30	 mov	 rcx, QWORD PTR self$[rsp]
  0007a	e8 00 00 00 00	 call	 _Py_IncRef

; 922  :     return (PyObject *)self;

  0007f	48 8b 44 24 30	 mov	 rax, QWORD PTR self$[rsp]
$LN3@array_inpl:

; 923  : }

  00084	48 83 c4 28	 add	 rsp, 40			; 00000028H
  00088	c3		 ret	 0
array_inplace_concat ENDP
_TEXT	ENDS
PUBLIC	??_C@_0CI@PPGDJIHM@can?5only?5extend?5with?5array?5of?5sa@ ; `string'
;	COMDAT pdata
pdata	SEGMENT
$pdata$array_do_extend DD imagerel array_do_extend
	DD	imagerel array_do_extend+413
	DD	imagerel $unwind$array_do_extend
pdata	ENDS
;	COMDAT xdata
xdata	SEGMENT
$unwind$array_do_extend DD 010e01H
	DD	0820eH
xdata	ENDS
;	COMDAT ??_C@_0CI@PPGDJIHM@can?5only?5extend?5with?5array?5of?5sa@
CONST	SEGMENT
??_C@_0CI@PPGDJIHM@can?5only?5extend?5with?5array?5of?5sa@ DB 'can only e'
	DB	'xtend with array of same kind', 00H		; `string'
; Function compile flags: /Odtp
CONST	ENDS
;	COMDAT array_do_extend
_TEXT	SEGMENT
oldsize$ = 32
bbsize$ = 40
size$ = 48
tv85 = 56
self$ = 80
bb$ = 88
array_do_extend PROC					; COMDAT

; 881  : {

  00000	48 89 54 24 10	 mov	 QWORD PTR [rsp+16], rdx
  00005	48 89 4c 24 08	 mov	 QWORD PTR [rsp+8], rcx
  0000a	48 83 ec 48	 sub	 rsp, 72			; 00000048H

; 882  :     Py_ssize_t size, oldsize, bbsize;
; 883  : 
; 884  :     if (!array_Check(bb))

  0000e	48 8d 05 00 00
	00 00		 lea	 rax, OFFSET FLAT:Arraytype
  00015	48 8b 4c 24 58	 mov	 rcx, QWORD PTR bb$[rsp]
  0001a	48 39 41 58	 cmp	 QWORD PTR [rcx+88], rax
  0001e	74 2d		 je	 SHORT $LN5@array_do_e
  00020	48 8d 15 00 00
	00 00		 lea	 rdx, OFFSET FLAT:Arraytype
  00027	48 8b 44 24 58	 mov	 rax, QWORD PTR bb$[rsp]
  0002c	48 8b 48 58	 mov	 rcx, QWORD PTR [rax+88]
  00030	e8 00 00 00 00	 call	 PyType_IsSubtype
  00035	85 c0		 test	 eax, eax
  00037	75 14		 jne	 SHORT $LN5@array_do_e

; 885  :         return array_iter_extend(self, bb);

  00039	48 8b 54 24 58	 mov	 rdx, QWORD PTR bb$[rsp]
  0003e	48 8b 4c 24 50	 mov	 rcx, QWORD PTR self$[rsp]
  00043	e8 00 00 00 00	 call	 array_iter_extend
  00048	e9 4b 01 00 00	 jmp	 $LN6@array_do_e
$LN5@array_do_e:

; 886  : #define b ((arrayobject *)bb)
; 887  :     if (self->ob_descr != b->ob_descr) {

  0004d	48 8b 44 24 50	 mov	 rax, QWORD PTR self$[rsp]
  00052	48 8b 4c 24 58	 mov	 rcx, QWORD PTR bb$[rsp]
  00057	48 8b 89 80 00
	00 00		 mov	 rcx, QWORD PTR [rcx+128]
  0005e	48 39 88 80 00
	00 00		 cmp	 QWORD PTR [rax+128], rcx
  00065	74 1d		 je	 SHORT $LN4@array_do_e

; 888  :         PyErr_SetString(PyExc_TypeError,
; 889  :                      "can only extend with array of same kind");

  00067	48 8d 15 00 00
	00 00		 lea	 rdx, OFFSET FLAT:??_C@_0CI@PPGDJIHM@can?5only?5extend?5with?5array?5of?5sa@
  0006e	48 8b 0d 00 00
	00 00		 mov	 rcx, QWORD PTR PyExc_TypeError
  00075	e8 00 00 00 00	 call	 PyErr_SetString

; 890  :         return -1;

  0007a	b8 ff ff ff ff	 mov	 eax, -1
  0007f	e9 14 01 00 00	 jmp	 $LN6@array_do_e
$LN4@array_do_e:

; 891  :     }
; 892  :     if ((Py_SIZE(self) > PY_SSIZE_T_MAX - Py_SIZE(b)) ||
; 893  :         ((Py_SIZE(self) + Py_SIZE(b)) > PY_SSIZE_T_MAX / self->ob_descr->itemsize)) {

  00084	48 b8 ff ff ff
	ff ff ff ff 7f	 mov	 rax, 9223372036854775807 ; 7fffffffffffffffH
  0008e	48 8b 4c 24 58	 mov	 rcx, QWORD PTR bb$[rsp]
  00093	48 2b 41 60	 sub	 rax, QWORD PTR [rcx+96]
  00097	48 8b 4c 24 50	 mov	 rcx, QWORD PTR self$[rsp]
  0009c	48 39 41 60	 cmp	 QWORD PTR [rcx+96], rax
  000a0	7f 43		 jg	 SHORT $LN2@array_do_e
  000a2	48 8b 44 24 50	 mov	 rax, QWORD PTR self$[rsp]
  000a7	48 8b 40 60	 mov	 rax, QWORD PTR [rax+96]
  000ab	48 8b 4c 24 58	 mov	 rcx, QWORD PTR bb$[rsp]
  000b0	48 03 41 60	 add	 rax, QWORD PTR [rcx+96]
  000b4	48 89 44 24 38	 mov	 QWORD PTR tv85[rsp], rax
  000b9	48 8b 4c 24 50	 mov	 rcx, QWORD PTR self$[rsp]
  000be	48 8b 89 80 00
	00 00		 mov	 rcx, QWORD PTR [rcx+128]
  000c5	48 63 49 04	 movsxd	 rcx, DWORD PTR [rcx+4]
  000c9	48 ba ff ff ff
	ff ff ff ff 7f	 mov	 rdx, 9223372036854775807 ; 7fffffffffffffffH
  000d3	48 8b c2	 mov	 rax, rdx
  000d6	48 99		 cdq
  000d8	48 f7 f9	 idiv	 rcx
  000db	48 8b 4c 24 38	 mov	 rcx, QWORD PTR tv85[rsp]
  000e0	48 3b c8	 cmp	 rcx, rax
  000e3	7e 0f		 jle	 SHORT $LN3@array_do_e
$LN2@array_do_e:

; 894  :         PyErr_NoMemory();

  000e5	e8 00 00 00 00	 call	 PyErr_NoMemory

; 895  :         return -1;

  000ea	b8 ff ff ff ff	 mov	 eax, -1
  000ef	e9 a4 00 00 00	 jmp	 $LN6@array_do_e
$LN3@array_do_e:

; 896  :     }
; 897  :     oldsize = Py_SIZE(self);

  000f4	48 8b 44 24 50	 mov	 rax, QWORD PTR self$[rsp]
  000f9	48 8b 40 60	 mov	 rax, QWORD PTR [rax+96]
  000fd	48 89 44 24 20	 mov	 QWORD PTR oldsize$[rsp], rax

; 898  :     /* Get the size of bb before resizing the array since bb could be self. */
; 899  :     bbsize = Py_SIZE(bb);

  00102	48 8b 44 24 58	 mov	 rax, QWORD PTR bb$[rsp]
  00107	48 8b 40 60	 mov	 rax, QWORD PTR [rax+96]
  0010b	48 89 44 24 28	 mov	 QWORD PTR bbsize$[rsp], rax

; 900  :     size = oldsize + Py_SIZE(b);

  00110	48 8b 44 24 58	 mov	 rax, QWORD PTR bb$[rsp]
  00115	48 8b 40 60	 mov	 rax, QWORD PTR [rax+96]
  00119	48 8b 4c 24 20	 mov	 rcx, QWORD PTR oldsize$[rsp]
  0011e	48 03 c8	 add	 rcx, rax
  00121	48 8b c1	 mov	 rax, rcx
  00124	48 89 44 24 30	 mov	 QWORD PTR size$[rsp], rax

; 901  :     if (array_resize(self, size) == -1)

  00129	48 8b 54 24 30	 mov	 rdx, QWORD PTR size$[rsp]
  0012e	48 8b 4c 24 50	 mov	 rcx, QWORD PTR self$[rsp]
  00133	e8 00 00 00 00	 call	 array_resize
  00138	83 f8 ff	 cmp	 eax, -1
  0013b	75 07		 jne	 SHORT $LN1@array_do_e

; 902  :         return -1;

  0013d	b8 ff ff ff ff	 mov	 eax, -1
  00142	eb 54		 jmp	 SHORT $LN6@array_do_e
$LN1@array_do_e:

; 903  :     memcpy(self->ob_item + oldsize * self->ob_descr->itemsize,
; 904  :         b->ob_item, bbsize * b->ob_descr->itemsize);

  00144	48 8b 44 24 58	 mov	 rax, QWORD PTR bb$[rsp]
  00149	48 8b 80 80 00
	00 00		 mov	 rax, QWORD PTR [rax+128]
  00150	48 63 40 04	 movsxd	 rax, DWORD PTR [rax+4]
  00154	48 8b 4c 24 28	 mov	 rcx, QWORD PTR bbsize$[rsp]
  00159	48 0f af c8	 imul	 rcx, rax
  0015d	48 8b c1	 mov	 rax, rcx
  00160	48 8b 4c 24 50	 mov	 rcx, QWORD PTR self$[rsp]
  00165	48 8b 89 80 00
	00 00		 mov	 rcx, QWORD PTR [rcx+128]
  0016c	48 63 49 04	 movsxd	 rcx, DWORD PTR [rcx+4]
  00170	48 8b 54 24 20	 mov	 rdx, QWORD PTR oldsize$[rsp]
  00175	48 0f af d1	 imul	 rdx, rcx
  00179	48 8b ca	 mov	 rcx, rdx
  0017c	48 8b 54 24 50	 mov	 rdx, QWORD PTR self$[rsp]
  00181	48 03 4a 70	 add	 rcx, QWORD PTR [rdx+112]
  00185	4c 8b c0	 mov	 r8, rax
  00188	48 8b 44 24 58	 mov	 rax, QWORD PTR bb$[rsp]
  0018d	48 8b 50 70	 mov	 rdx, QWORD PTR [rax+112]
  00191	e8 00 00 00 00	 call	 memcpy

; 905  : 
; 906  :     return 0;

  00196	33 c0		 xor	 eax, eax
$LN6@array_do_e:

; 907  : #undef b
; 908  : }

  00198	48 83 c4 48	 add	 rsp, 72			; 00000048H
  0019c	c3		 ret	 0
array_do_extend ENDP
_TEXT	ENDS
EXTRN	PyIter_Next:PROC
EXTRN	PyObject_GetIter:PROC
;	COMDAT pdata
pdata	SEGMENT
$pdata$array_iter_extend DD imagerel array_iter_extend
	DD	imagerel array_iter_extend+168
	DD	imagerel $unwind$array_iter_extend
pdata	ENDS
;	COMDAT xdata
xdata	SEGMENT
$unwind$array_iter_extend DD 010e01H
	DD	0620eH
; Function compile flags: /Odtp
xdata	ENDS
;	COMDAT array_iter_extend
_TEXT	SEGMENT
it$ = 32
v$ = 40
self$ = 64
bb$ = 72
array_iter_extend PROC					; COMDAT

; 858  : {

  00000	48 89 54 24 10	 mov	 QWORD PTR [rsp+16], rdx
  00005	48 89 4c 24 08	 mov	 QWORD PTR [rsp+8], rcx
  0000a	48 83 ec 38	 sub	 rsp, 56			; 00000038H

; 859  :     PyObject *it, *v;
; 860  : 
; 861  :     it = PyObject_GetIter(bb);

  0000e	48 8b 4c 24 48	 mov	 rcx, QWORD PTR bb$[rsp]
  00013	e8 00 00 00 00	 call	 PyObject_GetIter
  00018	48 89 44 24 20	 mov	 QWORD PTR it$[rsp], rax

; 862  :     if (it == NULL)

  0001d	48 83 7c 24 20
	00		 cmp	 QWORD PTR it$[rsp], 0
  00023	75 07		 jne	 SHORT $LN5@array_iter

; 863  :         return -1;

  00025	b8 ff ff ff ff	 mov	 eax, -1
  0002a	eb 77		 jmp	 SHORT $LN6@array_iter
$LN5@array_iter:
$LN4@array_iter:

; 864  : 
; 865  :     while ((v = PyIter_Next(it)) != NULL) {

  0002c	48 8b 4c 24 20	 mov	 rcx, QWORD PTR it$[rsp]
  00031	e8 00 00 00 00	 call	 PyIter_Next
  00036	48 89 44 24 28	 mov	 QWORD PTR v$[rsp], rax
  0003b	48 83 7c 24 28
	00		 cmp	 QWORD PTR v$[rsp], 0
  00041	74 43		 je	 SHORT $LN3@array_iter

; 866  :         if (ins1(self, Py_SIZE(self), v) != 0) {

  00043	4c 8b 44 24 28	 mov	 r8, QWORD PTR v$[rsp]
  00048	48 8b 44 24 40	 mov	 rax, QWORD PTR self$[rsp]
  0004d	48 8b 50 60	 mov	 rdx, QWORD PTR [rax+96]
  00051	48 8b 4c 24 40	 mov	 rcx, QWORD PTR self$[rsp]
  00056	e8 00 00 00 00	 call	 ins1
  0005b	85 c0		 test	 eax, eax
  0005d	74 1b		 je	 SHORT $LN2@array_iter

; 867  :             Py_DECREF(v);

  0005f	48 8b 4c 24 28	 mov	 rcx, QWORD PTR v$[rsp]
  00064	e8 00 00 00 00	 call	 _Py_DecRef

; 868  :             Py_DECREF(it);

  00069	48 8b 4c 24 20	 mov	 rcx, QWORD PTR it$[rsp]
  0006e	e8 00 00 00 00	 call	 _Py_DecRef

; 869  :             return -1;

  00073	b8 ff ff ff ff	 mov	 eax, -1
  00078	eb 29		 jmp	 SHORT $LN6@array_iter
$LN2@array_iter:

; 870  :         }
; 871  :         Py_DECREF(v);

  0007a	48 8b 4c 24 28	 mov	 rcx, QWORD PTR v$[rsp]
  0007f	e8 00 00 00 00	 call	 _Py_DecRef

; 872  :     }

  00084	eb a6		 jmp	 SHORT $LN4@array_iter
$LN3@array_iter:

; 873  :     Py_DECREF(it);

  00086	48 8b 4c 24 20	 mov	 rcx, QWORD PTR it$[rsp]
  0008b	e8 00 00 00 00	 call	 _Py_DecRef

; 874  :     if (PyErr_Occurred())

  00090	e8 00 00 00 00	 call	 PyErr_Occurred
  00095	48 85 c0	 test	 rax, rax
  00098	74 07		 je	 SHORT $LN1@array_iter

; 875  :         return -1;

  0009a	b8 ff ff ff ff	 mov	 eax, -1
  0009f	eb 02		 jmp	 SHORT $LN6@array_iter
$LN1@array_iter:

; 876  :     return 0;

  000a1	33 c0		 xor	 eax, eax
$LN6@array_iter:

; 877  : }

  000a3	48 83 c4 38	 add	 rsp, 56			; 00000038H
  000a7	c3		 ret	 0
array_iter_extend ENDP
_TEXT	ENDS
;	COMDAT pdata
pdata	SEGMENT
$pdata$ins1 DD	imagerel ins1
	DD	imagerel ins1+422
	DD	imagerel $unwind$ins1
pdata	ENDS
;	COMDAT xdata
xdata	SEGMENT
$unwind$ins1 DD	011301H
	DD	08213H
; Function compile flags: /Odtp
xdata	ENDS
;	COMDAT ins1
_TEXT	SEGMENT
n$ = 32
items$ = 40
tv136 = 48
self$ = 80
where$ = 88
v$ = 96
ins1	PROC						; COMDAT

; 525  : {

  00000	4c 89 44 24 18	 mov	 QWORD PTR [rsp+24], r8
  00005	48 89 54 24 10	 mov	 QWORD PTR [rsp+16], rdx
  0000a	48 89 4c 24 08	 mov	 QWORD PTR [rsp+8], rcx
  0000f	48 83 ec 48	 sub	 rsp, 72			; 00000048H

; 526  :     char *items;
; 527  :     Py_ssize_t n = Py_SIZE(self);

  00013	48 8b 44 24 50	 mov	 rax, QWORD PTR self$[rsp]
  00018	48 8b 40 60	 mov	 rax, QWORD PTR [rax+96]
  0001c	48 89 44 24 20	 mov	 QWORD PTR n$[rsp], rax

; 528  :     if (v == NULL) {

  00021	48 83 7c 24 60
	00		 cmp	 QWORD PTR v$[rsp], 0
  00027	75 1b		 jne	 SHORT $LN7@ins1

; 529  :         PyErr_BadInternalCall();

  00029	ba 11 02 00 00	 mov	 edx, 529		; 00000211H
  0002e	48 8d 0d 00 00
	00 00		 lea	 rcx, OFFSET FLAT:??_C@_0BJ@DMBOHOAP@?4?4?2Modules?2arraymodule?4c?$AA@
  00035	e8 00 00 00 00	 call	 _PyErr_BadInternalCall

; 530  :         return -1;

  0003a	b8 ff ff ff ff	 mov	 eax, -1
  0003f	e9 5d 01 00 00	 jmp	 $LN8@ins1
$LN7@ins1:

; 531  :     }
; 532  :     if ((*self->ob_descr->setitem)(self, -1, v) < 0)

  00044	48 8b 44 24 50	 mov	 rax, QWORD PTR self$[rsp]
  00049	48 8b 80 80 00
	00 00		 mov	 rax, QWORD PTR [rax+128]
  00050	4c 8b 44 24 60	 mov	 r8, QWORD PTR v$[rsp]
  00055	48 c7 c2 ff ff
	ff ff		 mov	 rdx, -1
  0005c	48 8b 4c 24 50	 mov	 rcx, QWORD PTR self$[rsp]
  00061	ff 50 10	 call	 QWORD PTR [rax+16]
  00064	85 c0		 test	 eax, eax
  00066	7d 0a		 jge	 SHORT $LN6@ins1

; 533  :         return -1;

  00068	b8 ff ff ff ff	 mov	 eax, -1
  0006d	e9 2f 01 00 00	 jmp	 $LN8@ins1
$LN6@ins1:

; 534  : 
; 535  :     if (array_resize(self, n+1) == -1)

  00072	48 8b 44 24 20	 mov	 rax, QWORD PTR n$[rsp]
  00077	48 ff c0	 inc	 rax
  0007a	48 8b d0	 mov	 rdx, rax
  0007d	48 8b 4c 24 50	 mov	 rcx, QWORD PTR self$[rsp]
  00082	e8 00 00 00 00	 call	 array_resize
  00087	83 f8 ff	 cmp	 eax, -1
  0008a	75 0a		 jne	 SHORT $LN5@ins1

; 536  :         return -1;

  0008c	b8 ff ff ff ff	 mov	 eax, -1
  00091	e9 0b 01 00 00	 jmp	 $LN8@ins1
$LN5@ins1:

; 537  :     items = self->ob_item;

  00096	48 8b 44 24 50	 mov	 rax, QWORD PTR self$[rsp]
  0009b	48 8b 40 70	 mov	 rax, QWORD PTR [rax+112]
  0009f	48 89 44 24 28	 mov	 QWORD PTR items$[rsp], rax

; 538  :     if (where < 0) {

  000a4	48 83 7c 24 58
	00		 cmp	 QWORD PTR where$[rsp], 0
  000aa	7d 26		 jge	 SHORT $LN4@ins1

; 539  :         where += n;

  000ac	48 8b 44 24 20	 mov	 rax, QWORD PTR n$[rsp]
  000b1	48 8b 4c 24 58	 mov	 rcx, QWORD PTR where$[rsp]
  000b6	48 03 c8	 add	 rcx, rax
  000b9	48 8b c1	 mov	 rax, rcx
  000bc	48 89 44 24 58	 mov	 QWORD PTR where$[rsp], rax

; 540  :         if (where < 0)

  000c1	48 83 7c 24 58
	00		 cmp	 QWORD PTR where$[rsp], 0
  000c7	7d 09		 jge	 SHORT $LN3@ins1

; 541  :             where = 0;

  000c9	48 c7 44 24 58
	00 00 00 00	 mov	 QWORD PTR where$[rsp], 0
$LN3@ins1:
$LN4@ins1:

; 542  :     }
; 543  :     if (where > n)

  000d2	48 8b 44 24 20	 mov	 rax, QWORD PTR n$[rsp]
  000d7	48 39 44 24 58	 cmp	 QWORD PTR where$[rsp], rax
  000dc	7e 0a		 jle	 SHORT $LN2@ins1

; 544  :         where = n;

  000de	48 8b 44 24 20	 mov	 rax, QWORD PTR n$[rsp]
  000e3	48 89 44 24 58	 mov	 QWORD PTR where$[rsp], rax
$LN2@ins1:

; 545  :     /* appends don't need to call memmove() */
; 546  :     if (where != n)

  000e8	48 8b 44 24 20	 mov	 rax, QWORD PTR n$[rsp]
  000ed	48 39 44 24 58	 cmp	 QWORD PTR where$[rsp], rax
  000f2	0f 84 8b 00 00
	00		 je	 $LN1@ins1

; 547  :         memmove(items + (where+1)*self->ob_descr->itemsize,
; 548  :             items + where*self->ob_descr->itemsize,
; 549  :             (n-where)*self->ob_descr->itemsize);

  000f8	48 8b 44 24 58	 mov	 rax, QWORD PTR where$[rsp]
  000fd	48 8b 4c 24 20	 mov	 rcx, QWORD PTR n$[rsp]
  00102	48 2b c8	 sub	 rcx, rax
  00105	48 8b c1	 mov	 rax, rcx
  00108	48 8b 4c 24 50	 mov	 rcx, QWORD PTR self$[rsp]
  0010d	48 8b 89 80 00
	00 00		 mov	 rcx, QWORD PTR [rcx+128]
  00114	48 63 49 04	 movsxd	 rcx, DWORD PTR [rcx+4]
  00118	48 0f af c1	 imul	 rax, rcx
  0011c	48 8b 4c 24 50	 mov	 rcx, QWORD PTR self$[rsp]
  00121	48 8b 89 80 00
	00 00		 mov	 rcx, QWORD PTR [rcx+128]
  00128	48 63 49 04	 movsxd	 rcx, DWORD PTR [rcx+4]
  0012c	48 8b 54 24 58	 mov	 rdx, QWORD PTR where$[rsp]
  00131	48 0f af d1	 imul	 rdx, rcx
  00135	48 8b ca	 mov	 rcx, rdx
  00138	48 8b 54 24 28	 mov	 rdx, QWORD PTR items$[rsp]
  0013d	48 03 d1	 add	 rdx, rcx
  00140	48 8b ca	 mov	 rcx, rdx
  00143	48 8b 54 24 58	 mov	 rdx, QWORD PTR where$[rsp]
  00148	48 ff c2	 inc	 rdx
  0014b	4c 8b 44 24 50	 mov	 r8, QWORD PTR self$[rsp]
  00150	4d 8b 80 80 00
	00 00		 mov	 r8, QWORD PTR [r8+128]
  00157	4d 63 40 04	 movsxd	 r8, DWORD PTR [r8+4]
  0015b	49 0f af d0	 imul	 rdx, r8
  0015f	4c 8b 44 24 28	 mov	 r8, QWORD PTR items$[rsp]
  00164	4c 03 c2	 add	 r8, rdx
  00167	49 8b d0	 mov	 rdx, r8
  0016a	48 89 54 24 30	 mov	 QWORD PTR tv136[rsp], rdx
  0016f	4c 8b c0	 mov	 r8, rax
  00172	48 8b d1	 mov	 rdx, rcx
  00175	48 8b 44 24 30	 mov	 rax, QWORD PTR tv136[rsp]
  0017a	48 8b c8	 mov	 rcx, rax
  0017d	ff 15 00 00 00
	00		 call	 QWORD PTR __imp_memmove
$LN1@ins1:

; 550  :     return (*self->ob_descr->setitem)(self, where, v);

  00183	48 8b 44 24 50	 mov	 rax, QWORD PTR self$[rsp]
  00188	48 8b 80 80 00
	00 00		 mov	 rax, QWORD PTR [rax+128]
  0018f	4c 8b 44 24 60	 mov	 r8, QWORD PTR v$[rsp]
  00194	48 8b 54 24 58	 mov	 rdx, QWORD PTR where$[rsp]
  00199	48 8b 4c 24 50	 mov	 rcx, QWORD PTR self$[rsp]
  0019e	ff 50 10	 call	 QWORD PTR [rax+16]
$LN8@ins1:

; 551  : }

  001a1	48 83 c4 48	 add	 rsp, 72			; 00000048H
  001a5	c3		 ret	 0
ins1	ENDP
_TEXT	ENDS
;	COMDAT pdata
pdata	SEGMENT
$pdata$array_inplace_repeat DD imagerel array_inplace_repeat
	DD	imagerel array_inplace_repeat+372
	DD	imagerel $unwind$array_inplace_repeat
pdata	ENDS
;	COMDAT xdata
xdata	SEGMENT
$unwind$array_inplace_repeat DD 010e01H
	DD	0a20eH
; Function compile flags: /Odtp
xdata	ENDS
;	COMDAT array_inplace_repeat
_TEXT	SEGMENT
p$ = 32
i$ = 40
size$ = 48
items$ = 56
tv73 = 64
self$ = 96
n$ = 104
array_inplace_repeat PROC				; COMDAT

; 927  : {

  00000	48 89 54 24 10	 mov	 QWORD PTR [rsp+16], rdx
  00005	48 89 4c 24 08	 mov	 QWORD PTR [rsp+8], rcx
  0000a	48 83 ec 58	 sub	 rsp, 88			; 00000058H

; 928  :     char *items, *p;
; 929  :     Py_ssize_t size, i;
; 930  : 
; 931  :     if (Py_SIZE(self) > 0) {

  0000e	48 8b 44 24 60	 mov	 rax, QWORD PTR self$[rsp]
  00013	48 83 78 60 00	 cmp	 QWORD PTR [rax+96], 0
  00018	0f 8e 42 01 00
	00		 jle	 $LN8@array_inpl@2

; 932  :         if (n < 0)

  0001e	48 83 7c 24 68
	00		 cmp	 QWORD PTR n$[rsp], 0
  00024	7d 09		 jge	 SHORT $LN7@array_inpl@2

; 933  :             n = 0;

  00026	48 c7 44 24 68
	00 00 00 00	 mov	 QWORD PTR n$[rsp], 0
$LN7@array_inpl@2:

; 934  :         if ((self->ob_descr->itemsize != 0) &&
; 935  :             (Py_SIZE(self) > PY_SSIZE_T_MAX / self->ob_descr->itemsize)) {

  0002f	48 8b 44 24 60	 mov	 rax, QWORD PTR self$[rsp]
  00034	48 8b 80 80 00
	00 00		 mov	 rax, QWORD PTR [rax+128]
  0003b	83 78 04 00	 cmp	 DWORD PTR [rax+4], 0
  0003f	74 41		 je	 SHORT $LN6@array_inpl@2
  00041	48 8b 44 24 60	 mov	 rax, QWORD PTR self$[rsp]
  00046	48 8b 80 80 00
	00 00		 mov	 rax, QWORD PTR [rax+128]
  0004d	48 63 40 04	 movsxd	 rax, DWORD PTR [rax+4]
  00051	48 89 44 24 40	 mov	 QWORD PTR tv73[rsp], rax
  00056	48 b9 ff ff ff
	ff ff ff ff 7f	 mov	 rcx, 9223372036854775807 ; 7fffffffffffffffH
  00060	48 8b c1	 mov	 rax, rcx
  00063	48 99		 cdq
  00065	48 8b 4c 24 40	 mov	 rcx, QWORD PTR tv73[rsp]
  0006a	48 f7 f9	 idiv	 rcx
  0006d	48 8b 4c 24 60	 mov	 rcx, QWORD PTR self$[rsp]
  00072	48 39 41 60	 cmp	 QWORD PTR [rcx+96], rax
  00076	7e 0a		 jle	 SHORT $LN6@array_inpl@2

; 936  :             return PyErr_NoMemory();

  00078	e8 00 00 00 00	 call	 PyErr_NoMemory
  0007d	e9 ed 00 00 00	 jmp	 $LN9@array_inpl@2
$LN6@array_inpl@2:

; 937  :         }
; 938  :         size = Py_SIZE(self) * self->ob_descr->itemsize;

  00082	48 8b 44 24 60	 mov	 rax, QWORD PTR self$[rsp]
  00087	48 8b 80 80 00
	00 00		 mov	 rax, QWORD PTR [rax+128]
  0008e	48 63 40 04	 movsxd	 rax, DWORD PTR [rax+4]
  00092	48 8b 4c 24 60	 mov	 rcx, QWORD PTR self$[rsp]
  00097	48 8b 49 60	 mov	 rcx, QWORD PTR [rcx+96]
  0009b	48 0f af c8	 imul	 rcx, rax
  0009f	48 8b c1	 mov	 rax, rcx
  000a2	48 89 44 24 30	 mov	 QWORD PTR size$[rsp], rax

; 939  :         if (n > 0 && size > PY_SSIZE_T_MAX / n) {

  000a7	48 83 7c 24 68
	00		 cmp	 QWORD PTR n$[rsp], 0
  000ad	7e 22		 jle	 SHORT $LN5@array_inpl@2
  000af	48 b8 ff ff ff
	ff ff ff ff 7f	 mov	 rax, 9223372036854775807 ; 7fffffffffffffffH
  000b9	48 99		 cdq
  000bb	48 f7 7c 24 68	 idiv	 QWORD PTR n$[rsp]
  000c0	48 39 44 24 30	 cmp	 QWORD PTR size$[rsp], rax
  000c5	7e 0a		 jle	 SHORT $LN5@array_inpl@2

; 940  :             return PyErr_NoMemory();

  000c7	e8 00 00 00 00	 call	 PyErr_NoMemory
  000cc	e9 9e 00 00 00	 jmp	 $LN9@array_inpl@2
$LN5@array_inpl@2:

; 941  :         }
; 942  :         if (array_resize(self, n * Py_SIZE(self)) == -1)

  000d1	48 8b 44 24 60	 mov	 rax, QWORD PTR self$[rsp]
  000d6	48 8b 4c 24 68	 mov	 rcx, QWORD PTR n$[rsp]
  000db	48 0f af 48 60	 imul	 rcx, QWORD PTR [rax+96]
  000e0	48 8b c1	 mov	 rax, rcx
  000e3	48 8b d0	 mov	 rdx, rax
  000e6	48 8b 4c 24 60	 mov	 rcx, QWORD PTR self$[rsp]
  000eb	e8 00 00 00 00	 call	 array_resize
  000f0	83 f8 ff	 cmp	 eax, -1
  000f3	75 04		 jne	 SHORT $LN4@array_inpl@2

; 943  :             return NULL;

  000f5	33 c0		 xor	 eax, eax
  000f7	eb 76		 jmp	 SHORT $LN9@array_inpl@2
$LN4@array_inpl@2:

; 944  :         items = p = self->ob_item;

  000f9	48 8b 44 24 60	 mov	 rax, QWORD PTR self$[rsp]
  000fe	48 8b 40 70	 mov	 rax, QWORD PTR [rax+112]
  00102	48 89 44 24 20	 mov	 QWORD PTR p$[rsp], rax
  00107	48 8b 44 24 20	 mov	 rax, QWORD PTR p$[rsp]
  0010c	48 89 44 24 38	 mov	 QWORD PTR items$[rsp], rax

; 945  :         for (i = 1; i < n; i++) {

  00111	48 c7 44 24 28
	01 00 00 00	 mov	 QWORD PTR i$[rsp], 1
  0011a	eb 0d		 jmp	 SHORT $LN3@array_inpl@2
$LN2@array_inpl@2:
  0011c	48 8b 44 24 28	 mov	 rax, QWORD PTR i$[rsp]
  00121	48 ff c0	 inc	 rax
  00124	48 89 44 24 28	 mov	 QWORD PTR i$[rsp], rax
$LN3@array_inpl@2:
  00129	48 8b 44 24 68	 mov	 rax, QWORD PTR n$[rsp]
  0012e	48 39 44 24 28	 cmp	 QWORD PTR i$[rsp], rax
  00133	7d 2b		 jge	 SHORT $LN1@array_inpl@2

; 946  :             p += size;

  00135	48 8b 44 24 30	 mov	 rax, QWORD PTR size$[rsp]
  0013a	48 8b 4c 24 20	 mov	 rcx, QWORD PTR p$[rsp]
  0013f	48 03 c8	 add	 rcx, rax
  00142	48 8b c1	 mov	 rax, rcx
  00145	48 89 44 24 20	 mov	 QWORD PTR p$[rsp], rax

; 947  :             memcpy(p, items, size);

  0014a	4c 8b 44 24 30	 mov	 r8, QWORD PTR size$[rsp]
  0014f	48 8b 54 24 38	 mov	 rdx, QWORD PTR items$[rsp]
  00154	48 8b 4c 24 20	 mov	 rcx, QWORD PTR p$[rsp]
  00159	e8 00 00 00 00	 call	 memcpy

; 948  :         }

  0015e	eb bc		 jmp	 SHORT $LN2@array_inpl@2
$LN1@array_inpl@2:
$LN8@array_inpl@2:

; 949  :     }
; 950  :     Py_INCREF(self);

  00160	48 8b 4c 24 60	 mov	 rcx, QWORD PTR self$[rsp]
  00165	e8 00 00 00 00	 call	 _Py_IncRef

; 951  :     return (PyObject *)self;

  0016a	48 8b 44 24 60	 mov	 rax, QWORD PTR self$[rsp]
$LN9@array_inpl@2:

; 952  : }

  0016f	48 83 c4 58	 add	 rsp, 88			; 00000058H
  00173	c3		 ret	 0
array_inplace_repeat ENDP
_TEXT	ENDS
EXTRN	PyLong_FromSsize_t:PROC
;	COMDAT pdata
pdata	SEGMENT
$pdata$array_count DD imagerel array_count
	DD	imagerel array_count+168
	DD	imagerel $unwind$array_count
pdata	ENDS
;	COMDAT xdata
xdata	SEGMENT
$unwind$array_count DD 010e01H
	DD	0820eH
; Function compile flags: /Odtp
xdata	ENDS
;	COMDAT array_count
_TEXT	SEGMENT
count$ = 32
i$ = 40
selfi$21263 = 48
cmp$21265 = 56
self$ = 80
v$ = 88
array_count PROC					; COMDAT

; 966  : {

  00000	48 89 54 24 10	 mov	 QWORD PTR [rsp+16], rdx
  00005	48 89 4c 24 08	 mov	 QWORD PTR [rsp+8], rcx
  0000a	48 83 ec 48	 sub	 rsp, 72			; 00000048H

; 967  :     Py_ssize_t count = 0;

  0000e	48 c7 44 24 20
	00 00 00 00	 mov	 QWORD PTR count$[rsp], 0

; 968  :     Py_ssize_t i;
; 969  : 
; 970  :     for (i = 0; i < Py_SIZE(self); i++) {

  00017	48 c7 44 24 28
	00 00 00 00	 mov	 QWORD PTR i$[rsp], 0
  00020	eb 0d		 jmp	 SHORT $LN6@array_coun
$LN5@array_coun:
  00022	48 8b 44 24 28	 mov	 rax, QWORD PTR i$[rsp]
  00027	48 ff c0	 inc	 rax
  0002a	48 89 44 24 28	 mov	 QWORD PTR i$[rsp], rax
$LN6@array_coun:
  0002f	48 8b 44 24 50	 mov	 rax, QWORD PTR self$[rsp]
  00034	48 8b 40 60	 mov	 rax, QWORD PTR [rax+96]
  00038	48 39 44 24 28	 cmp	 QWORD PTR i$[rsp], rax
  0003d	7d 5a		 jge	 SHORT $LN4@array_coun

; 971  :         PyObject *selfi = getarrayitem((PyObject *)self, i);

  0003f	48 8b 54 24 28	 mov	 rdx, QWORD PTR i$[rsp]
  00044	48 8b 4c 24 50	 mov	 rcx, QWORD PTR self$[rsp]
  00049	e8 00 00 00 00	 call	 getarrayitem
  0004e	48 89 44 24 30	 mov	 QWORD PTR selfi$21263[rsp], rax

; 972  :         int cmp = PyObject_RichCompareBool(selfi, v, Py_EQ);

  00053	41 b8 02 00 00
	00		 mov	 r8d, 2
  00059	48 8b 54 24 58	 mov	 rdx, QWORD PTR v$[rsp]
  0005e	48 8b 4c 24 30	 mov	 rcx, QWORD PTR selfi$21263[rsp]
  00063	e8 00 00 00 00	 call	 PyObject_RichCompareBool
  00068	89 44 24 38	 mov	 DWORD PTR cmp$21265[rsp], eax

; 973  :         Py_DECREF(selfi);

  0006c	48 8b 4c 24 30	 mov	 rcx, QWORD PTR selfi$21263[rsp]
  00071	e8 00 00 00 00	 call	 _Py_DecRef

; 974  :         if (cmp > 0)

  00076	83 7c 24 38 00	 cmp	 DWORD PTR cmp$21265[rsp], 0
  0007b	7e 0f		 jle	 SHORT $LN3@array_coun

; 975  :             count++;

  0007d	48 8b 44 24 20	 mov	 rax, QWORD PTR count$[rsp]
  00082	48 ff c0	 inc	 rax
  00085	48 89 44 24 20	 mov	 QWORD PTR count$[rsp], rax
  0008a	eb 0b		 jmp	 SHORT $LN2@array_coun
$LN3@array_coun:

; 976  :         else if (cmp < 0)

  0008c	83 7c 24 38 00	 cmp	 DWORD PTR cmp$21265[rsp], 0
  00091	7d 04		 jge	 SHORT $LN1@array_coun

; 977  :             return NULL;

  00093	33 c0		 xor	 eax, eax
  00095	eb 0c		 jmp	 SHORT $LN7@array_coun
$LN1@array_coun:
$LN2@array_coun:

; 978  :     }

  00097	eb 89		 jmp	 SHORT $LN5@array_coun
$LN4@array_coun:

; 979  :     return PyLong_FromSsize_t(count);

  00099	48 8b 4c 24 20	 mov	 rcx, QWORD PTR count$[rsp]
  0009e	e8 00 00 00 00	 call	 PyLong_FromSsize_t
$LN7@array_coun:

; 980  : }

  000a3	48 83 c4 48	 add	 rsp, 72			; 00000048H
  000a7	c3		 ret	 0
array_count ENDP
_TEXT	ENDS
PUBLIC	??_C@_0BO@LMBGGMKK@array?4index?$CIx?$CJ?3?5x?5not?5in?5list?$AA@ ; `string'
EXTRN	PyExc_ValueError:QWORD
;	COMDAT pdata
pdata	SEGMENT
$pdata$array_index DD imagerel array_index
	DD	imagerel array_index+168
	DD	imagerel $unwind$array_index
pdata	ENDS
;	COMDAT xdata
xdata	SEGMENT
$unwind$array_index DD 010e01H
	DD	0820eH
xdata	ENDS
;	COMDAT ??_C@_0BO@LMBGGMKK@array?4index?$CIx?$CJ?3?5x?5not?5in?5list?$AA@
CONST	SEGMENT
??_C@_0BO@LMBGGMKK@array?4index?$CIx?$CJ?3?5x?5not?5in?5list?$AA@ DB 'arr'
	DB	'ay.index(x): x not in list', 00H		; `string'
; Function compile flags: /Odtp
CONST	ENDS
;	COMDAT array_index
_TEXT	SEGMENT
i$ = 32
selfi$21283 = 40
cmp$21285 = 48
self$ = 80
v$ = 88
array_index PROC					; COMDAT

; 989  : {

  00000	48 89 54 24 10	 mov	 QWORD PTR [rsp+16], rdx
  00005	48 89 4c 24 08	 mov	 QWORD PTR [rsp+8], rcx
  0000a	48 83 ec 48	 sub	 rsp, 72			; 00000048H

; 990  :     Py_ssize_t i;
; 991  : 
; 992  :     for (i = 0; i < Py_SIZE(self); i++) {

  0000e	48 c7 44 24 20
	00 00 00 00	 mov	 QWORD PTR i$[rsp], 0
  00017	eb 0d		 jmp	 SHORT $LN6@array_inde
$LN5@array_inde:
  00019	48 8b 44 24 20	 mov	 rax, QWORD PTR i$[rsp]
  0001e	48 ff c0	 inc	 rax
  00021	48 89 44 24 20	 mov	 QWORD PTR i$[rsp], rax
$LN6@array_inde:
  00026	48 8b 44 24 50	 mov	 rax, QWORD PTR self$[rsp]
  0002b	48 8b 40 60	 mov	 rax, QWORD PTR [rax+96]
  0002f	48 39 44 24 20	 cmp	 QWORD PTR i$[rsp], rax
  00034	7d 58		 jge	 SHORT $LN4@array_inde

; 993  :         PyObject *selfi = getarrayitem((PyObject *)self, i);

  00036	48 8b 54 24 20	 mov	 rdx, QWORD PTR i$[rsp]
  0003b	48 8b 4c 24 50	 mov	 rcx, QWORD PTR self$[rsp]
  00040	e8 00 00 00 00	 call	 getarrayitem
  00045	48 89 44 24 28	 mov	 QWORD PTR selfi$21283[rsp], rax

; 994  :         int cmp = PyObject_RichCompareBool(selfi, v, Py_EQ);

  0004a	41 b8 02 00 00
	00		 mov	 r8d, 2
  00050	48 8b 54 24 58	 mov	 rdx, QWORD PTR v$[rsp]
  00055	48 8b 4c 24 28	 mov	 rcx, QWORD PTR selfi$21283[rsp]
  0005a	e8 00 00 00 00	 call	 PyObject_RichCompareBool
  0005f	89 44 24 30	 mov	 DWORD PTR cmp$21285[rsp], eax

; 995  :         Py_DECREF(selfi);

  00063	48 8b 4c 24 28	 mov	 rcx, QWORD PTR selfi$21283[rsp]
  00068	e8 00 00 00 00	 call	 _Py_DecRef

; 996  :         if (cmp > 0) {

  0006d	83 7c 24 30 00	 cmp	 DWORD PTR cmp$21285[rsp], 0
  00072	7e 0d		 jle	 SHORT $LN3@array_inde

; 997  :             return PyLong_FromLong((long)i);

  00074	8b 4c 24 20	 mov	 ecx, DWORD PTR i$[rsp]
  00078	e8 00 00 00 00	 call	 PyLong_FromLong
  0007d	eb 24		 jmp	 SHORT $LN7@array_inde
  0007f	eb 0b		 jmp	 SHORT $LN2@array_inde
$LN3@array_inde:

; 998  :         }
; 999  :         else if (cmp < 0)

  00081	83 7c 24 30 00	 cmp	 DWORD PTR cmp$21285[rsp], 0
  00086	7d 04		 jge	 SHORT $LN1@array_inde

; 1000 :             return NULL;

  00088	33 c0		 xor	 eax, eax
  0008a	eb 17		 jmp	 SHORT $LN7@array_inde
$LN1@array_inde:
$LN2@array_inde:

; 1001 :     }

  0008c	eb 8b		 jmp	 SHORT $LN5@array_inde
$LN4@array_inde:

; 1002 :     PyErr_SetString(PyExc_ValueError, "array.index(x): x not in list");

  0008e	48 8d 15 00 00
	00 00		 lea	 rdx, OFFSET FLAT:??_C@_0BO@LMBGGMKK@array?4index?$CIx?$CJ?3?5x?5not?5in?5list?$AA@
  00095	48 8b 0d 00 00
	00 00		 mov	 rcx, QWORD PTR PyExc_ValueError
  0009c	e8 00 00 00 00	 call	 PyErr_SetString

; 1003 :     return NULL;

  000a1	33 c0		 xor	 eax, eax
$LN7@array_inde:

; 1004 : }

  000a3	48 83 c4 48	 add	 rsp, 72			; 00000048H
  000a7	c3		 ret	 0
array_index ENDP
_TEXT	ENDS
;	COMDAT pdata
pdata	SEGMENT
$pdata$array_contains DD imagerel array_contains
	DD	imagerel array_contains+135
	DD	imagerel $unwind$array_contains
pdata	ENDS
;	COMDAT xdata
xdata	SEGMENT
$unwind$array_contains DD 010e01H
	DD	0820eH
; Function compile flags: /Odtp
xdata	ENDS
;	COMDAT array_contains
_TEXT	SEGMENT
i$ = 32
cmp$ = 40
selfi$21307 = 48
self$ = 80
v$ = 88
array_contains PROC					; COMDAT

; 1013 : {

  00000	48 89 54 24 10	 mov	 QWORD PTR [rsp+16], rdx
  00005	48 89 4c 24 08	 mov	 QWORD PTR [rsp+8], rcx
  0000a	48 83 ec 48	 sub	 rsp, 72			; 00000048H

; 1014 :     Py_ssize_t i;
; 1015 :     int cmp;
; 1016 : 
; 1017 :     for (i = 0, cmp = 0 ; cmp == 0 && i < Py_SIZE(self); i++) {

  0000e	48 c7 44 24 20
	00 00 00 00	 mov	 QWORD PTR i$[rsp], 0
  00017	c7 44 24 28 00
	00 00 00	 mov	 DWORD PTR cmp$[rsp], 0
  0001f	eb 0d		 jmp	 SHORT $LN3@array_cont
$LN2@array_cont:
  00021	48 8b 44 24 20	 mov	 rax, QWORD PTR i$[rsp]
  00026	48 ff c0	 inc	 rax
  00029	48 89 44 24 20	 mov	 QWORD PTR i$[rsp], rax
$LN3@array_cont:
  0002e	83 7c 24 28 00	 cmp	 DWORD PTR cmp$[rsp], 0
  00033	75 49		 jne	 SHORT $LN1@array_cont
  00035	48 8b 44 24 50	 mov	 rax, QWORD PTR self$[rsp]
  0003a	48 8b 40 60	 mov	 rax, QWORD PTR [rax+96]
  0003e	48 39 44 24 20	 cmp	 QWORD PTR i$[rsp], rax
  00043	7d 39		 jge	 SHORT $LN1@array_cont

; 1018 :         PyObject *selfi = getarrayitem((PyObject *)self, i);

  00045	48 8b 54 24 20	 mov	 rdx, QWORD PTR i$[rsp]
  0004a	48 8b 4c 24 50	 mov	 rcx, QWORD PTR self$[rsp]
  0004f	e8 00 00 00 00	 call	 getarrayitem
  00054	48 89 44 24 30	 mov	 QWORD PTR selfi$21307[rsp], rax

; 1019 :         cmp = PyObject_RichCompareBool(selfi, v, Py_EQ);

  00059	41 b8 02 00 00
	00		 mov	 r8d, 2
  0005f	48 8b 54 24 58	 mov	 rdx, QWORD PTR v$[rsp]
  00064	48 8b 4c 24 30	 mov	 rcx, QWORD PTR selfi$21307[rsp]
  00069	e8 00 00 00 00	 call	 PyObject_RichCompareBool
  0006e	89 44 24 28	 mov	 DWORD PTR cmp$[rsp], eax

; 1020 :         Py_DECREF(selfi);

  00072	48 8b 4c 24 30	 mov	 rcx, QWORD PTR selfi$21307[rsp]
  00077	e8 00 00 00 00	 call	 _Py_DecRef

; 1021 :     }

  0007c	eb a3		 jmp	 SHORT $LN2@array_cont
$LN1@array_cont:

; 1022 :     return cmp;

  0007e	8b 44 24 28	 mov	 eax, DWORD PTR cmp$[rsp]

; 1023 : }

  00082	48 83 c4 48	 add	 rsp, 72			; 00000048H
  00086	c3		 ret	 0
array_contains ENDP
_TEXT	ENDS
PUBLIC	??_C@_0BP@MLCNIPFC@array?4remove?$CIx?$CJ?3?5x?5not?5in?5list?$AA@ ; `string'
EXTRN	_Py_NoneStruct:BYTE
;	COMDAT pdata
pdata	SEGMENT
$pdata$array_remove DD imagerel array_remove
	DD	imagerel array_remove+224
	DD	imagerel $unwind$array_remove
pdata	ENDS
;	COMDAT xdata
xdata	SEGMENT
$unwind$array_remove DD 010e01H
	DD	0820eH
xdata	ENDS
;	COMDAT ??_C@_0BP@MLCNIPFC@array?4remove?$CIx?$CJ?3?5x?5not?5in?5list?$AA@
CONST	SEGMENT
??_C@_0BP@MLCNIPFC@array?4remove?$CIx?$CJ?3?5x?5not?5in?5list?$AA@ DB 'ar'
	DB	'ray.remove(x): x not in list', 00H		; `string'
; Function compile flags: /Odtp
CONST	ENDS
;	COMDAT array_remove
_TEXT	SEGMENT
i$ = 32
selfi$21321 = 40
cmp$21323 = 48
self$ = 80
v$ = 88
array_remove PROC					; COMDAT

; 1027 : {

  00000	48 89 54 24 10	 mov	 QWORD PTR [rsp+16], rdx
  00005	48 89 4c 24 08	 mov	 QWORD PTR [rsp+8], rcx
  0000a	48 83 ec 48	 sub	 rsp, 72			; 00000048H

; 1028 :     int i;
; 1029 : 
; 1030 :     for (i = 0; i < Py_SIZE(self); i++) {

  0000e	c7 44 24 20 00
	00 00 00	 mov	 DWORD PTR i$[rsp], 0
  00016	eb 0a		 jmp	 SHORT $LN7@array_remo
$LN6@array_remo:
  00018	8b 44 24 20	 mov	 eax, DWORD PTR i$[rsp]
  0001c	ff c0		 inc	 eax
  0001e	89 44 24 20	 mov	 DWORD PTR i$[rsp], eax
$LN7@array_remo:
  00022	48 63 44 24 20	 movsxd	 rax, DWORD PTR i$[rsp]
  00027	48 8b 4c 24 50	 mov	 rcx, QWORD PTR self$[rsp]
  0002c	48 3b 41 60	 cmp	 rax, QWORD PTR [rcx+96]
  00030	0f 8d 90 00 00
	00		 jge	 $LN5@array_remo

; 1031 :         PyObject *selfi = getarrayitem((PyObject *)self,i);

  00036	48 63 44 24 20	 movsxd	 rax, DWORD PTR i$[rsp]
  0003b	48 8b d0	 mov	 rdx, rax
  0003e	48 8b 4c 24 50	 mov	 rcx, QWORD PTR self$[rsp]
  00043	e8 00 00 00 00	 call	 getarrayitem
  00048	48 89 44 24 28	 mov	 QWORD PTR selfi$21321[rsp], rax

; 1032 :         int cmp = PyObject_RichCompareBool(selfi, v, Py_EQ);

  0004d	41 b8 02 00 00
	00		 mov	 r8d, 2
  00053	48 8b 54 24 58	 mov	 rdx, QWORD PTR v$[rsp]
  00058	48 8b 4c 24 28	 mov	 rcx, QWORD PTR selfi$21321[rsp]
  0005d	e8 00 00 00 00	 call	 PyObject_RichCompareBool
  00062	89 44 24 30	 mov	 DWORD PTR cmp$21323[rsp], eax

; 1033 :         Py_DECREF(selfi);

  00066	48 8b 4c 24 28	 mov	 rcx, QWORD PTR selfi$21321[rsp]
  0006b	e8 00 00 00 00	 call	 _Py_DecRef

; 1034 :         if (cmp > 0) {

  00070	83 7c 24 30 00	 cmp	 DWORD PTR cmp$21323[rsp], 0
  00075	7e 3f		 jle	 SHORT $LN4@array_remo

; 1035 :             if (array_ass_slice(self, i, i+1,
; 1036 :                                (PyObject *)NULL) != 0)

  00077	8b 44 24 20	 mov	 eax, DWORD PTR i$[rsp]
  0007b	ff c0		 inc	 eax
  0007d	48 98		 cdqe
  0007f	48 63 4c 24 20	 movsxd	 rcx, DWORD PTR i$[rsp]
  00084	45 33 c9	 xor	 r9d, r9d
  00087	4c 8b c0	 mov	 r8, rax
  0008a	48 8b d1	 mov	 rdx, rcx
  0008d	48 8b 4c 24 50	 mov	 rcx, QWORD PTR self$[rsp]
  00092	e8 00 00 00 00	 call	 array_ass_slice
  00097	85 c0		 test	 eax, eax
  00099	74 04		 je	 SHORT $LN3@array_remo

; 1037 :                 return NULL;

  0009b	33 c0		 xor	 eax, eax
  0009d	eb 3c		 jmp	 SHORT $LN8@array_remo
$LN3@array_remo:

; 1038 :             Py_INCREF(Py_None);

  0009f	48 8d 0d 00 00
	00 00		 lea	 rcx, OFFSET FLAT:_Py_NoneStruct
  000a6	e8 00 00 00 00	 call	 _Py_IncRef

; 1039 :             return Py_None;

  000ab	48 8d 05 00 00
	00 00		 lea	 rax, OFFSET FLAT:_Py_NoneStruct
  000b2	eb 27		 jmp	 SHORT $LN8@array_remo
  000b4	eb 0b		 jmp	 SHORT $LN2@array_remo
$LN4@array_remo:

; 1040 :         }
; 1041 :         else if (cmp < 0)

  000b6	83 7c 24 30 00	 cmp	 DWORD PTR cmp$21323[rsp], 0
  000bb	7d 04		 jge	 SHORT $LN1@array_remo

; 1042 :             return NULL;

  000bd	33 c0		 xor	 eax, eax
  000bf	eb 1a		 jmp	 SHORT $LN8@array_remo
$LN1@array_remo:
$LN2@array_remo:

; 1043 :     }

  000c1	e9 52 ff ff ff	 jmp	 $LN6@array_remo
$LN5@array_remo:

; 1044 :     PyErr_SetString(PyExc_ValueError, "array.remove(x): x not in list");

  000c6	48 8d 15 00 00
	00 00		 lea	 rdx, OFFSET FLAT:??_C@_0BP@MLCNIPFC@array?4remove?$CIx?$CJ?3?5x?5not?5in?5list?$AA@
  000cd	48 8b 0d 00 00
	00 00		 mov	 rcx, QWORD PTR PyExc_ValueError
  000d4	e8 00 00 00 00	 call	 PyErr_SetString

; 1045 :     return NULL;

  000d9	33 c0		 xor	 eax, eax
$LN8@array_remo:

; 1046 : }

  000db	48 83 c4 48	 add	 rsp, 72			; 00000048H
  000df	c3		 ret	 0
array_remove ENDP
_TEXT	ENDS
PUBLIC	??_C@_0BH@IJGJGNPF@pop?5index?5out?5of?5range?$AA@ ; `string'
PUBLIC	??_C@_0BF@MIKMJNKA@pop?5from?5empty?5array?$AA@	; `string'
PUBLIC	??_C@_06JHLPABKE@?$HMn?3pop?$AA@		; `string'
EXTRN	_PyArg_ParseTuple_SizeT:PROC
;	COMDAT pdata
pdata	SEGMENT
$pdata$array_pop DD imagerel array_pop
	DD	imagerel array_pop+251
	DD	imagerel $unwind$array_pop
pdata	ENDS
;	COMDAT xdata
xdata	SEGMENT
$unwind$array_pop DD 010e01H
	DD	0620eH
xdata	ENDS
;	COMDAT ??_C@_0BH@IJGJGNPF@pop?5index?5out?5of?5range?$AA@
CONST	SEGMENT
??_C@_0BH@IJGJGNPF@pop?5index?5out?5of?5range?$AA@ DB 'pop index out of r'
	DB	'ange', 00H					; `string'
CONST	ENDS
;	COMDAT ??_C@_0BF@MIKMJNKA@pop?5from?5empty?5array?$AA@
CONST	SEGMENT
??_C@_0BF@MIKMJNKA@pop?5from?5empty?5array?$AA@ DB 'pop from empty array', 00H ; `string'
CONST	ENDS
;	COMDAT ??_C@_06JHLPABKE@?$HMn?3pop?$AA@
CONST	SEGMENT
??_C@_06JHLPABKE@?$HMn?3pop?$AA@ DB '|n:pop', 00H	; `string'
; Function compile flags: /Odtp
CONST	ENDS
;	COMDAT array_pop
_TEXT	SEGMENT
v$ = 32
i$ = 40
self$ = 64
args$ = 72
array_pop PROC						; COMDAT

; 1055 : {

  00000	48 89 54 24 10	 mov	 QWORD PTR [rsp+16], rdx
  00005	48 89 4c 24 08	 mov	 QWORD PTR [rsp+8], rcx
  0000a	48 83 ec 38	 sub	 rsp, 56			; 00000038H

; 1056 :     Py_ssize_t i = -1;

  0000e	48 c7 44 24 28
	ff ff ff ff	 mov	 QWORD PTR i$[rsp], -1

; 1057 :     PyObject *v;
; 1058 :     if (!PyArg_ParseTuple(args, "|n:pop", &i))

  00017	4c 8d 44 24 28	 lea	 r8, QWORD PTR i$[rsp]
  0001c	48 8d 15 00 00
	00 00		 lea	 rdx, OFFSET FLAT:??_C@_06JHLPABKE@?$HMn?3pop?$AA@
  00023	48 8b 4c 24 48	 mov	 rcx, QWORD PTR args$[rsp]
  00028	e8 00 00 00 00	 call	 _PyArg_ParseTuple_SizeT
  0002d	85 c0		 test	 eax, eax
  0002f	75 07		 jne	 SHORT $LN6@array_pop

; 1059 :         return NULL;

  00031	33 c0		 xor	 eax, eax
  00033	e9 be 00 00 00	 jmp	 $LN7@array_pop
$LN6@array_pop:

; 1060 :     if (Py_SIZE(self) == 0) {

  00038	48 8b 44 24 40	 mov	 rax, QWORD PTR self$[rsp]
  0003d	48 83 78 60 00	 cmp	 QWORD PTR [rax+96], 0
  00042	75 1a		 jne	 SHORT $LN5@array_pop

; 1061 :         /* Special-case most common failure cause */
; 1062 :         PyErr_SetString(PyExc_IndexError, "pop from empty array");

  00044	48 8d 15 00 00
	00 00		 lea	 rdx, OFFSET FLAT:??_C@_0BF@MIKMJNKA@pop?5from?5empty?5array?$AA@
  0004b	48 8b 0d 00 00
	00 00		 mov	 rcx, QWORD PTR PyExc_IndexError
  00052	e8 00 00 00 00	 call	 PyErr_SetString

; 1063 :         return NULL;

  00057	33 c0		 xor	 eax, eax
  00059	e9 98 00 00 00	 jmp	 $LN7@array_pop
$LN5@array_pop:

; 1064 :     }
; 1065 :     if (i < 0)

  0005e	48 83 7c 24 28
	00		 cmp	 QWORD PTR i$[rsp], 0
  00064	7d 19		 jge	 SHORT $LN4@array_pop

; 1066 :         i += Py_SIZE(self);

  00066	48 8b 44 24 40	 mov	 rax, QWORD PTR self$[rsp]
  0006b	48 8b 40 60	 mov	 rax, QWORD PTR [rax+96]
  0006f	48 8b 4c 24 28	 mov	 rcx, QWORD PTR i$[rsp]
  00074	48 03 c8	 add	 rcx, rax
  00077	48 8b c1	 mov	 rax, rcx
  0007a	48 89 44 24 28	 mov	 QWORD PTR i$[rsp], rax
$LN4@array_pop:

; 1067 :     if (i < 0 || i >= Py_SIZE(self)) {

  0007f	48 83 7c 24 28
	00		 cmp	 QWORD PTR i$[rsp], 0
  00085	7c 10		 jl	 SHORT $LN2@array_pop
  00087	48 8b 44 24 40	 mov	 rax, QWORD PTR self$[rsp]
  0008c	48 8b 40 60	 mov	 rax, QWORD PTR [rax+96]
  00090	48 39 44 24 28	 cmp	 QWORD PTR i$[rsp], rax
  00095	7c 17		 jl	 SHORT $LN3@array_pop
$LN2@array_pop:

; 1068 :         PyErr_SetString(PyExc_IndexError, "pop index out of range");

  00097	48 8d 15 00 00
	00 00		 lea	 rdx, OFFSET FLAT:??_C@_0BH@IJGJGNPF@pop?5index?5out?5of?5range?$AA@
  0009e	48 8b 0d 00 00
	00 00		 mov	 rcx, QWORD PTR PyExc_IndexError
  000a5	e8 00 00 00 00	 call	 PyErr_SetString

; 1069 :         return NULL;

  000aa	33 c0		 xor	 eax, eax
  000ac	eb 48		 jmp	 SHORT $LN7@array_pop
$LN3@array_pop:

; 1070 :     }
; 1071 :     v = getarrayitem((PyObject *)self,i);

  000ae	48 8b 54 24 28	 mov	 rdx, QWORD PTR i$[rsp]
  000b3	48 8b 4c 24 40	 mov	 rcx, QWORD PTR self$[rsp]
  000b8	e8 00 00 00 00	 call	 getarrayitem
  000bd	48 89 44 24 20	 mov	 QWORD PTR v$[rsp], rax

; 1072 :     if (array_ass_slice(self, i, i+1, (PyObject *)NULL) != 0) {

  000c2	48 8b 44 24 28	 mov	 rax, QWORD PTR i$[rsp]
  000c7	48 ff c0	 inc	 rax
  000ca	45 33 c9	 xor	 r9d, r9d
  000cd	4c 8b c0	 mov	 r8, rax
  000d0	48 8b 54 24 28	 mov	 rdx, QWORD PTR i$[rsp]
  000d5	48 8b 4c 24 40	 mov	 rcx, QWORD PTR self$[rsp]
  000da	e8 00 00 00 00	 call	 array_ass_slice
  000df	85 c0		 test	 eax, eax
  000e1	74 0e		 je	 SHORT $LN1@array_pop

; 1073 :         Py_DECREF(v);

  000e3	48 8b 4c 24 20	 mov	 rcx, QWORD PTR v$[rsp]
  000e8	e8 00 00 00 00	 call	 _Py_DecRef

; 1074 :         return NULL;

  000ed	33 c0		 xor	 eax, eax
  000ef	eb 05		 jmp	 SHORT $LN7@array_pop
$LN1@array_pop:

; 1075 :     }
; 1076 :     return v;

  000f1	48 8b 44 24 20	 mov	 rax, QWORD PTR v$[rsp]
$LN7@array_pop:

; 1077 : }

  000f6	48 83 c4 38	 add	 rsp, 56			; 00000038H
  000fa	c3		 ret	 0
array_pop ENDP
_TEXT	ENDS
;	COMDAT pdata
pdata	SEGMENT
$pdata$array_extend DD imagerel array_extend
	DD	imagerel array_extend+62
	DD	imagerel $unwind$array_extend
pdata	ENDS
;	COMDAT xdata
xdata	SEGMENT
$unwind$array_extend DD 010e01H
	DD	0420eH
; Function compile flags: /Odtp
xdata	ENDS
;	COMDAT array_extend
_TEXT	SEGMENT
self$ = 48
bb$ = 56
array_extend PROC					; COMDAT

; 1086 : {

  00000	48 89 54 24 10	 mov	 QWORD PTR [rsp+16], rdx
  00005	48 89 4c 24 08	 mov	 QWORD PTR [rsp+8], rcx
  0000a	48 83 ec 28	 sub	 rsp, 40			; 00000028H

; 1087 :     if (array_do_extend(self, bb) == -1)

  0000e	48 8b 54 24 38	 mov	 rdx, QWORD PTR bb$[rsp]
  00013	48 8b 4c 24 30	 mov	 rcx, QWORD PTR self$[rsp]
  00018	e8 00 00 00 00	 call	 array_do_extend
  0001d	83 f8 ff	 cmp	 eax, -1
  00020	75 04		 jne	 SHORT $LN1@array_exte

; 1088 :         return NULL;

  00022	33 c0		 xor	 eax, eax
  00024	eb 13		 jmp	 SHORT $LN2@array_exte
$LN1@array_exte:

; 1089 :     Py_INCREF(Py_None);

  00026	48 8d 0d 00 00
	00 00		 lea	 rcx, OFFSET FLAT:_Py_NoneStruct
  0002d	e8 00 00 00 00	 call	 _Py_IncRef

; 1090 :     return Py_None;

  00032	48 8d 05 00 00
	00 00		 lea	 rax, OFFSET FLAT:_Py_NoneStruct
$LN2@array_exte:

; 1091 : }

  00039	48 83 c4 28	 add	 rsp, 40			; 00000028H
  0003d	c3		 ret	 0
array_extend ENDP
_TEXT	ENDS
PUBLIC	??_C@_09EEABNKNH@nO?3insert?$AA@		; `string'
;	COMDAT pdata
pdata	SEGMENT
$pdata$array_insert DD imagerel array_insert
	DD	imagerel array_insert+74
	DD	imagerel $unwind$array_insert
pdata	ENDS
;	COMDAT xdata
xdata	SEGMENT
$unwind$array_insert DD 010e01H
	DD	0620eH
xdata	ENDS
;	COMDAT ??_C@_09EEABNKNH@nO?3insert?$AA@
CONST	SEGMENT
??_C@_09EEABNKNH@nO?3insert?$AA@ DB 'nO:insert', 00H	; `string'
; Function compile flags: /Odtp
CONST	ENDS
;	COMDAT array_insert
_TEXT	SEGMENT
v$ = 32
i$ = 40
self$ = 64
args$ = 72
array_insert PROC					; COMDAT

; 1100 : {

  00000	48 89 54 24 10	 mov	 QWORD PTR [rsp+16], rdx
  00005	48 89 4c 24 08	 mov	 QWORD PTR [rsp+8], rcx
  0000a	48 83 ec 38	 sub	 rsp, 56			; 00000038H

; 1101 :     Py_ssize_t i;
; 1102 :     PyObject *v;
; 1103 :     if (!PyArg_ParseTuple(args, "nO:insert", &i, &v))

  0000e	4c 8d 4c 24 20	 lea	 r9, QWORD PTR v$[rsp]
  00013	4c 8d 44 24 28	 lea	 r8, QWORD PTR i$[rsp]
  00018	48 8d 15 00 00
	00 00		 lea	 rdx, OFFSET FLAT:??_C@_09EEABNKNH@nO?3insert?$AA@
  0001f	48 8b 4c 24 48	 mov	 rcx, QWORD PTR args$[rsp]
  00024	e8 00 00 00 00	 call	 _PyArg_ParseTuple_SizeT
  00029	85 c0		 test	 eax, eax
  0002b	75 04		 jne	 SHORT $LN1@array_inse

; 1104 :         return NULL;

  0002d	33 c0		 xor	 eax, eax
  0002f	eb 14		 jmp	 SHORT $LN2@array_inse
$LN1@array_inse:

; 1105 :     return ins(self, i, v);

  00031	4c 8b 44 24 20	 mov	 r8, QWORD PTR v$[rsp]
  00036	48 8b 54 24 28	 mov	 rdx, QWORD PTR i$[rsp]
  0003b	48 8b 4c 24 40	 mov	 rcx, QWORD PTR self$[rsp]
  00040	e8 00 00 00 00	 call	 ins
$LN2@array_inse:

; 1106 : }

  00045	48 83 c4 38	 add	 rsp, 56			; 00000038H
  00049	c3		 ret	 0
array_insert ENDP
_TEXT	ENDS
;	COMDAT pdata
pdata	SEGMENT
$pdata$ins DD	imagerel ins
	DD	imagerel ins+71
	DD	imagerel $unwind$ins
pdata	ENDS
;	COMDAT xdata
xdata	SEGMENT
$unwind$ins DD	011301H
	DD	04213H
; Function compile flags: /Odtp
xdata	ENDS
;	COMDAT ins
_TEXT	SEGMENT
self$ = 48
where$ = 56
v$ = 64
ins	PROC						; COMDAT

; 957  : {

  00000	4c 89 44 24 18	 mov	 QWORD PTR [rsp+24], r8
  00005	48 89 54 24 10	 mov	 QWORD PTR [rsp+16], rdx
  0000a	48 89 4c 24 08	 mov	 QWORD PTR [rsp+8], rcx
  0000f	48 83 ec 28	 sub	 rsp, 40			; 00000028H

; 958  :     if (ins1(self, where, v) != 0)

  00013	4c 8b 44 24 40	 mov	 r8, QWORD PTR v$[rsp]
  00018	48 8b 54 24 38	 mov	 rdx, QWORD PTR where$[rsp]
  0001d	48 8b 4c 24 30	 mov	 rcx, QWORD PTR self$[rsp]
  00022	e8 00 00 00 00	 call	 ins1
  00027	85 c0		 test	 eax, eax
  00029	74 04		 je	 SHORT $LN1@ins

; 959  :         return NULL;

  0002b	33 c0		 xor	 eax, eax
  0002d	eb 13		 jmp	 SHORT $LN2@ins
$LN1@ins:

; 960  :     Py_INCREF(Py_None);

  0002f	48 8d 0d 00 00
	00 00		 lea	 rcx, OFFSET FLAT:_Py_NoneStruct
  00036	e8 00 00 00 00	 call	 _Py_IncRef

; 961  :     return Py_None;

  0003b	48 8d 05 00 00
	00 00		 lea	 rax, OFFSET FLAT:_Py_NoneStruct
$LN2@ins:

; 962  : }

  00042	48 83 c4 28	 add	 rsp, 40			; 00000028H
  00046	c3		 ret	 0
ins	ENDP
_TEXT	ENDS
EXTRN	PyLong_FromVoidPtr:PROC
EXTRN	PyTuple_New:PROC
;	COMDAT pdata
pdata	SEGMENT
$pdata$array_buffer_info DD imagerel array_buffer_info
	DD	imagerel array_buffer_info+105
	DD	imagerel $unwind$array_buffer_info
pdata	ENDS
;	COMDAT xdata
xdata	SEGMENT
$unwind$array_buffer_info DD 010e01H
	DD	0620eH
; Function compile flags: /Odtp
xdata	ENDS
;	COMDAT array_buffer_info
_TEXT	SEGMENT
retval$ = 32
self$ = 64
unused$ = 72
array_buffer_info PROC					; COMDAT

; 1116 : {

  00000	48 89 54 24 10	 mov	 QWORD PTR [rsp+16], rdx
  00005	48 89 4c 24 08	 mov	 QWORD PTR [rsp+8], rcx
  0000a	48 83 ec 38	 sub	 rsp, 56			; 00000038H

; 1117 :     PyObject* retval = NULL;

  0000e	48 c7 44 24 20
	00 00 00 00	 mov	 QWORD PTR retval$[rsp], 0

; 1118 :     retval = PyTuple_New(2);

  00017	b9 02 00 00 00	 mov	 ecx, 2
  0001c	e8 00 00 00 00	 call	 PyTuple_New
  00021	48 89 44 24 20	 mov	 QWORD PTR retval$[rsp], rax

; 1119 :     if (!retval)

  00026	48 83 7c 24 20
	00		 cmp	 QWORD PTR retval$[rsp], 0
  0002c	75 04		 jne	 SHORT $LN1@array_buff

; 1120 :         return NULL;

  0002e	33 c0		 xor	 eax, eax
  00030	eb 32		 jmp	 SHORT $LN2@array_buff
$LN1@array_buff:

; 1121 : 
; 1122 :     PyTuple_SET_ITEM(retval, 0, PyLong_FromVoidPtr(self->ob_item));

  00032	48 8b 44 24 40	 mov	 rax, QWORD PTR self$[rsp]
  00037	48 8b 48 70	 mov	 rcx, QWORD PTR [rax+112]
  0003b	e8 00 00 00 00	 call	 PyLong_FromVoidPtr
  00040	48 8b 4c 24 20	 mov	 rcx, QWORD PTR retval$[rsp]
  00045	48 89 41 70	 mov	 QWORD PTR [rcx+112], rax

; 1123 :     PyTuple_SET_ITEM(retval, 1, PyLong_FromLong((long)(Py_SIZE(self))));

  00049	48 8b 44 24 40	 mov	 rax, QWORD PTR self$[rsp]
  0004e	8b 48 60	 mov	 ecx, DWORD PTR [rax+96]
  00051	e8 00 00 00 00	 call	 PyLong_FromLong
  00056	48 8b 4c 24 20	 mov	 rcx, QWORD PTR retval$[rsp]
  0005b	48 89 41 78	 mov	 QWORD PTR [rcx+120], rax

; 1124 : 
; 1125 :     return retval;

  0005f	48 8b 44 24 20	 mov	 rax, QWORD PTR retval$[rsp]
$LN2@array_buff:

; 1126 : }

  00064	48 83 c4 38	 add	 rsp, 56			; 00000038H
  00068	c3		 ret	 0
array_buffer_info ENDP
_TEXT	ENDS
;	COMDAT pdata
pdata	SEGMENT
$pdata$array_append DD imagerel array_append
	DD	imagerel array_append+43
	DD	imagerel $unwind$array_append
pdata	ENDS
;	COMDAT xdata
xdata	SEGMENT
$unwind$array_append DD 010e01H
	DD	0420eH
; Function compile flags: /Odtp
xdata	ENDS
;	COMDAT array_append
_TEXT	SEGMENT
self$ = 48
v$ = 56
array_append PROC					; COMDAT

; 1139 : {

  00000	48 89 54 24 10	 mov	 QWORD PTR [rsp+16], rdx
  00005	48 89 4c 24 08	 mov	 QWORD PTR [rsp+8], rcx
  0000a	48 83 ec 28	 sub	 rsp, 40			; 00000028H

; 1140 :     return ins(self, Py_SIZE(self), v);

  0000e	4c 8b 44 24 38	 mov	 r8, QWORD PTR v$[rsp]
  00013	48 8b 44 24 30	 mov	 rax, QWORD PTR self$[rsp]
  00018	48 8b 50 60	 mov	 rdx, QWORD PTR [rax+96]
  0001c	48 8b 4c 24 30	 mov	 rcx, QWORD PTR self$[rsp]
  00021	e8 00 00 00 00	 call	 ins

; 1141 : }

  00026	48 83 c4 28	 add	 rsp, 40			; 00000028H
  0002a	c3		 ret	 0
array_append ENDP
_TEXT	ENDS
PUBLIC	??_C@_0CL@PDOKFCDD@don?8t?5know?5how?5to?5byteswap?5this?5@ ; `string'
EXTRN	PyExc_RuntimeError:QWORD
;	COMDAT pdata
pdata	SEGMENT
$pdata$array_byteswap DD imagerel array_byteswap
	DD	imagerel array_byteswap+641
	DD	imagerel $unwind$array_byteswap
pdata	ENDS
;	COMDAT xdata
xdata	SEGMENT
$unwind$array_byteswap DD 010e01H
	DD	0820eH
xdata	ENDS
;	COMDAT ??_C@_0CL@PDOKFCDD@don?8t?5know?5how?5to?5byteswap?5this?5@
CONST	SEGMENT
??_C@_0CL@PDOKFCDD@don?8t?5know?5how?5to?5byteswap?5this?5@ DB 'don''t kn'
	DB	'ow how to byteswap this array type', 00H	; `string'
; Function compile flags: /Odtp
CONST	ENDS
;	COMDAT array_byteswap
_TEXT	SEGMENT
p$ = 32
i$ = 40
p0$21429 = 48
p0$21435 = 49
p1$21436 = 50
p0$21442 = 51
p2$21444 = 52
p3$21445 = 53
p1$21443 = 54
tv66 = 56
self$ = 80
unused$ = 88
array_byteswap PROC					; COMDAT

; 1151 : {

  00000	48 89 54 24 10	 mov	 QWORD PTR [rsp+16], rdx
  00005	48 89 4c 24 08	 mov	 QWORD PTR [rsp+8], rcx
  0000a	48 83 ec 48	 sub	 rsp, 72			; 00000048H

; 1152 :     char *p;
; 1153 :     Py_ssize_t i;
; 1154 : 
; 1155 :     switch (self->ob_descr->itemsize) {

  0000e	48 8b 44 24 50	 mov	 rax, QWORD PTR self$[rsp]
  00013	48 8b 80 80 00
	00 00		 mov	 rax, QWORD PTR [rax+128]
  0001a	8b 40 04	 mov	 eax, DWORD PTR [rax+4]
  0001d	89 44 24 38	 mov	 DWORD PTR tv66[rsp], eax
  00021	83 7c 24 38 01	 cmp	 DWORD PTR tv66[rsp], 1
  00026	74 22		 je	 SHORT $LN14@array_byte
  00028	83 7c 24 38 02	 cmp	 DWORD PTR tv66[rsp], 2
  0002d	74 20		 je	 SHORT $LN13@array_byte
  0002f	83 7c 24 38 04	 cmp	 DWORD PTR tv66[rsp], 4
  00034	0f 84 86 00 00
	00		 je	 $LN9@array_byte
  0003a	83 7c 24 38 08	 cmp	 DWORD PTR tv66[rsp], 8
  0003f	0f 84 17 01 00
	00		 je	 $LN5@array_byte
  00045	e9 08 02 00 00	 jmp	 $LN1@array_byte
$LN14@array_byte:

; 1156 :     case 1:
; 1157 :         break;

  0004a	e9 1a 02 00 00	 jmp	 $LN15@array_byte
$LN13@array_byte:

; 1158 :     case 2:
; 1159 :         for (p = self->ob_item, i = Py_SIZE(self); --i >= 0; p += 2) {

  0004f	48 8b 44 24 50	 mov	 rax, QWORD PTR self$[rsp]
  00054	48 8b 40 70	 mov	 rax, QWORD PTR [rax+112]
  00058	48 89 44 24 20	 mov	 QWORD PTR p$[rsp], rax
  0005d	48 8b 44 24 50	 mov	 rax, QWORD PTR self$[rsp]
  00062	48 8b 40 60	 mov	 rax, QWORD PTR [rax+96]
  00066	48 89 44 24 28	 mov	 QWORD PTR i$[rsp], rax
  0006b	eb 0e		 jmp	 SHORT $LN12@array_byte
$LN11@array_byte:
  0006d	48 8b 44 24 20	 mov	 rax, QWORD PTR p$[rsp]
  00072	48 83 c0 02	 add	 rax, 2
  00076	48 89 44 24 20	 mov	 QWORD PTR p$[rsp], rax
$LN12@array_byte:
  0007b	48 8b 44 24 28	 mov	 rax, QWORD PTR i$[rsp]
  00080	48 ff c8	 dec	 rax
  00083	48 89 44 24 28	 mov	 QWORD PTR i$[rsp], rax
  00088	48 83 7c 24 28
	00		 cmp	 QWORD PTR i$[rsp], 0
  0008e	7c 2b		 jl	 SHORT $LN10@array_byte

; 1160 :             char p0 = p[0];

  00090	48 8b 44 24 20	 mov	 rax, QWORD PTR p$[rsp]
  00095	0f b6 00	 movzx	 eax, BYTE PTR [rax]
  00098	88 44 24 30	 mov	 BYTE PTR p0$21429[rsp], al

; 1161 :             p[0] = p[1];

  0009c	48 8b 44 24 20	 mov	 rax, QWORD PTR p$[rsp]
  000a1	48 8b 4c 24 20	 mov	 rcx, QWORD PTR p$[rsp]
  000a6	0f b6 49 01	 movzx	 ecx, BYTE PTR [rcx+1]
  000aa	88 08		 mov	 BYTE PTR [rax], cl

; 1162 :             p[1] = p0;

  000ac	48 8b 44 24 20	 mov	 rax, QWORD PTR p$[rsp]
  000b1	0f b6 4c 24 30	 movzx	 ecx, BYTE PTR p0$21429[rsp]
  000b6	88 48 01	 mov	 BYTE PTR [rax+1], cl

; 1163 :         }

  000b9	eb b2		 jmp	 SHORT $LN11@array_byte
$LN10@array_byte:

; 1164 :         break;

  000bb	e9 a9 01 00 00	 jmp	 $LN15@array_byte
$LN9@array_byte:

; 1165 :     case 4:
; 1166 :         for (p = self->ob_item, i = Py_SIZE(self); --i >= 0; p += 4) {

  000c0	48 8b 44 24 50	 mov	 rax, QWORD PTR self$[rsp]
  000c5	48 8b 40 70	 mov	 rax, QWORD PTR [rax+112]
  000c9	48 89 44 24 20	 mov	 QWORD PTR p$[rsp], rax
  000ce	48 8b 44 24 50	 mov	 rax, QWORD PTR self$[rsp]
  000d3	48 8b 40 60	 mov	 rax, QWORD PTR [rax+96]
  000d7	48 89 44 24 28	 mov	 QWORD PTR i$[rsp], rax
  000dc	eb 0e		 jmp	 SHORT $LN8@array_byte
$LN7@array_byte:
  000de	48 8b 44 24 20	 mov	 rax, QWORD PTR p$[rsp]
  000e3	48 83 c0 04	 add	 rax, 4
  000e7	48 89 44 24 20	 mov	 QWORD PTR p$[rsp], rax
$LN8@array_byte:
  000ec	48 8b 44 24 28	 mov	 rax, QWORD PTR i$[rsp]
  000f1	48 ff c8	 dec	 rax
  000f4	48 89 44 24 28	 mov	 QWORD PTR i$[rsp], rax
  000f9	48 83 7c 24 28
	00		 cmp	 QWORD PTR i$[rsp], 0
  000ff	7c 56		 jl	 SHORT $LN6@array_byte

; 1167 :             char p0 = p[0];

  00101	48 8b 44 24 20	 mov	 rax, QWORD PTR p$[rsp]
  00106	0f b6 00	 movzx	 eax, BYTE PTR [rax]
  00109	88 44 24 31	 mov	 BYTE PTR p0$21435[rsp], al

; 1168 :             char p1 = p[1];

  0010d	48 8b 44 24 20	 mov	 rax, QWORD PTR p$[rsp]
  00112	0f b6 40 01	 movzx	 eax, BYTE PTR [rax+1]
  00116	88 44 24 32	 mov	 BYTE PTR p1$21436[rsp], al

; 1169 :             p[0] = p[3];

  0011a	48 8b 44 24 20	 mov	 rax, QWORD PTR p$[rsp]
  0011f	48 8b 4c 24 20	 mov	 rcx, QWORD PTR p$[rsp]
  00124	0f b6 49 03	 movzx	 ecx, BYTE PTR [rcx+3]
  00128	88 08		 mov	 BYTE PTR [rax], cl

; 1170 :             p[1] = p[2];

  0012a	48 8b 44 24 20	 mov	 rax, QWORD PTR p$[rsp]
  0012f	48 8b 4c 24 20	 mov	 rcx, QWORD PTR p$[rsp]
  00134	0f b6 49 02	 movzx	 ecx, BYTE PTR [rcx+2]
  00138	88 48 01	 mov	 BYTE PTR [rax+1], cl

; 1171 :             p[2] = p1;

  0013b	48 8b 44 24 20	 mov	 rax, QWORD PTR p$[rsp]
  00140	0f b6 4c 24 32	 movzx	 ecx, BYTE PTR p1$21436[rsp]
  00145	88 48 02	 mov	 BYTE PTR [rax+2], cl

; 1172 :             p[3] = p0;

  00148	48 8b 44 24 20	 mov	 rax, QWORD PTR p$[rsp]
  0014d	0f b6 4c 24 31	 movzx	 ecx, BYTE PTR p0$21435[rsp]
  00152	88 48 03	 mov	 BYTE PTR [rax+3], cl

; 1173 :         }

  00155	eb 87		 jmp	 SHORT $LN7@array_byte
$LN6@array_byte:

; 1174 :         break;

  00157	e9 0d 01 00 00	 jmp	 $LN15@array_byte
$LN5@array_byte:

; 1175 :     case 8:
; 1176 :         for (p = self->ob_item, i = Py_SIZE(self); --i >= 0; p += 8) {

  0015c	48 8b 44 24 50	 mov	 rax, QWORD PTR self$[rsp]
  00161	48 8b 40 70	 mov	 rax, QWORD PTR [rax+112]
  00165	48 89 44 24 20	 mov	 QWORD PTR p$[rsp], rax
  0016a	48 8b 44 24 50	 mov	 rax, QWORD PTR self$[rsp]
  0016f	48 8b 40 60	 mov	 rax, QWORD PTR [rax+96]
  00173	48 89 44 24 28	 mov	 QWORD PTR i$[rsp], rax
  00178	eb 0e		 jmp	 SHORT $LN4@array_byte
$LN3@array_byte:
  0017a	48 8b 44 24 20	 mov	 rax, QWORD PTR p$[rsp]
  0017f	48 83 c0 08	 add	 rax, 8
  00183	48 89 44 24 20	 mov	 QWORD PTR p$[rsp], rax
$LN4@array_byte:
  00188	48 8b 44 24 28	 mov	 rax, QWORD PTR i$[rsp]
  0018d	48 ff c8	 dec	 rax
  00190	48 89 44 24 28	 mov	 QWORD PTR i$[rsp], rax
  00195	48 83 7c 24 28
	00		 cmp	 QWORD PTR i$[rsp], 0
  0019b	0f 8c af 00 00
	00		 jl	 $LN2@array_byte

; 1177 :             char p0 = p[0];

  001a1	48 8b 44 24 20	 mov	 rax, QWORD PTR p$[rsp]
  001a6	0f b6 00	 movzx	 eax, BYTE PTR [rax]
  001a9	88 44 24 33	 mov	 BYTE PTR p0$21442[rsp], al

; 1178 :             char p1 = p[1];

  001ad	48 8b 44 24 20	 mov	 rax, QWORD PTR p$[rsp]
  001b2	0f b6 40 01	 movzx	 eax, BYTE PTR [rax+1]
  001b6	88 44 24 36	 mov	 BYTE PTR p1$21443[rsp], al

; 1179 :             char p2 = p[2];

  001ba	48 8b 44 24 20	 mov	 rax, QWORD PTR p$[rsp]
  001bf	0f b6 40 02	 movzx	 eax, BYTE PTR [rax+2]
  001c3	88 44 24 34	 mov	 BYTE PTR p2$21444[rsp], al

; 1180 :             char p3 = p[3];

  001c7	48 8b 44 24 20	 mov	 rax, QWORD PTR p$[rsp]
  001cc	0f b6 40 03	 movzx	 eax, BYTE PTR [rax+3]
  001d0	88 44 24 35	 mov	 BYTE PTR p3$21445[rsp], al

; 1181 :             p[0] = p[7];

  001d4	48 8b 44 24 20	 mov	 rax, QWORD PTR p$[rsp]
  001d9	48 8b 4c 24 20	 mov	 rcx, QWORD PTR p$[rsp]
  001de	0f b6 49 07	 movzx	 ecx, BYTE PTR [rcx+7]
  001e2	88 08		 mov	 BYTE PTR [rax], cl

; 1182 :             p[1] = p[6];

  001e4	48 8b 44 24 20	 mov	 rax, QWORD PTR p$[rsp]
  001e9	48 8b 4c 24 20	 mov	 rcx, QWORD PTR p$[rsp]
  001ee	0f b6 49 06	 movzx	 ecx, BYTE PTR [rcx+6]
  001f2	88 48 01	 mov	 BYTE PTR [rax+1], cl

; 1183 :             p[2] = p[5];

  001f5	48 8b 44 24 20	 mov	 rax, QWORD PTR p$[rsp]
  001fa	48 8b 4c 24 20	 mov	 rcx, QWORD PTR p$[rsp]
  001ff	0f b6 49 05	 movzx	 ecx, BYTE PTR [rcx+5]
  00203	88 48 02	 mov	 BYTE PTR [rax+2], cl

; 1184 :             p[3] = p[4];

  00206	48 8b 44 24 20	 mov	 rax, QWORD PTR p$[rsp]
  0020b	48 8b 4c 24 20	 mov	 rcx, QWORD PTR p$[rsp]
  00210	0f b6 49 04	 movzx	 ecx, BYTE PTR [rcx+4]
  00214	88 48 03	 mov	 BYTE PTR [rax+3], cl

; 1185 :             p[4] = p3;

  00217	48 8b 44 24 20	 mov	 rax, QWORD PTR p$[rsp]
  0021c	0f b6 4c 24 35	 movzx	 ecx, BYTE PTR p3$21445[rsp]
  00221	88 48 04	 mov	 BYTE PTR [rax+4], cl

; 1186 :             p[5] = p2;

  00224	48 8b 44 24 20	 mov	 rax, QWORD PTR p$[rsp]
  00229	0f b6 4c 24 34	 movzx	 ecx, BYTE PTR p2$21444[rsp]
  0022e	88 48 05	 mov	 BYTE PTR [rax+5], cl

; 1187 :             p[6] = p1;

  00231	48 8b 44 24 20	 mov	 rax, QWORD PTR p$[rsp]
  00236	0f b6 4c 24 36	 movzx	 ecx, BYTE PTR p1$21443[rsp]
  0023b	88 48 06	 mov	 BYTE PTR [rax+6], cl

; 1188 :             p[7] = p0;

  0023e	48 8b 44 24 20	 mov	 rax, QWORD PTR p$[rsp]
  00243	0f b6 4c 24 33	 movzx	 ecx, BYTE PTR p0$21442[rsp]
  00248	88 48 07	 mov	 BYTE PTR [rax+7], cl

; 1189 :         }

  0024b	e9 2a ff ff ff	 jmp	 $LN3@array_byte
$LN2@array_byte:

; 1190 :         break;

  00250	eb 17		 jmp	 SHORT $LN15@array_byte
$LN1@array_byte:

; 1191 :     default:
; 1192 :         PyErr_SetString(PyExc_RuntimeError,
; 1193 :                    "don't know how to byteswap this array type");

  00252	48 8d 15 00 00
	00 00		 lea	 rdx, OFFSET FLAT:??_C@_0CL@PDOKFCDD@don?8t?5know?5how?5to?5byteswap?5this?5@
  00259	48 8b 0d 00 00
	00 00		 mov	 rcx, QWORD PTR PyExc_RuntimeError
  00260	e8 00 00 00 00	 call	 PyErr_SetString

; 1194 :         return NULL;

  00265	33 c0		 xor	 eax, eax
  00267	eb 13		 jmp	 SHORT $LN17@array_byte
$LN15@array_byte:

; 1195 :     }
; 1196 :     Py_INCREF(Py_None);

  00269	48 8d 0d 00 00
	00 00		 lea	 rcx, OFFSET FLAT:_Py_NoneStruct
  00270	e8 00 00 00 00	 call	 _Py_IncRef

; 1197 :     return Py_None;

  00275	48 8d 05 00 00
	00 00		 lea	 rax, OFFSET FLAT:_Py_NoneStruct
$LN17@array_byte:

; 1198 : }

  0027c	48 83 c4 48	 add	 rsp, 72			; 00000048H
  00280	c3		 ret	 0
array_byteswap ENDP
_TEXT	ENDS
PUBLIC	??_C@_1EA@FAJCDDFK@?$AA?$CI?$AAs?$AAi?$AAz?$AAe?$AA_?$AAt?$AA?$CJ?$AAi?$AAt?$AAe?$AAm?$AAs?$AAi?$AAz?$AAe?$AA?5?$AA?$DM?$AA?$DN?$AA?5?$AAs?$AAi?$AAz?$AAe?$AAo?$AAf?$AA?$CI?$AAt?$AAm?$AAp?$AA?$CJ?$AA?$AA@ ; `string'
;	COMDAT pdata
pdata	SEGMENT
$pdata$array_reverse DD imagerel array_reverse
	DD	imagerel array_reverse+320
	DD	imagerel $unwind$array_reverse
pdata	ENDS
;	COMDAT xdata
xdata	SEGMENT
$unwind$array_reverse DD 021101H
	DD	0290111H
xdata	ENDS
;	COMDAT ??_C@_1EA@FAJCDDFK@?$AA?$CI?$AAs?$AAi?$AAz?$AAe?$AA_?$AAt?$AA?$CJ?$AAi?$AAt?$AAe?$AAm?$AAs?$AAi?$AAz?$AAe?$AA?5?$AA?$DM?$AA?$DN?$AA?5?$AAs?$AAi?$AAz?$AAe?$AAo?$AAf?$AA?$CI?$AAt?$AAm?$AAp?$AA?$CJ?$AA?$AA@
CONST	SEGMENT
??_C@_1EA@FAJCDDFK@?$AA?$CI?$AAs?$AAi?$AAz?$AAe?$AA_?$AAt?$AA?$CJ?$AAi?$AAt?$AAe?$AAm?$AAs?$AAi?$AAz?$AAe?$AA?5?$AA?$DM?$AA?$DN?$AA?5?$AAs?$AAi?$AAz?$AAe?$AAo?$AAf?$AA?$CI?$AAt?$AAm?$AAp?$AA?$CJ?$AA?$AA@ DB '('
	DB	00H, 's', 00H, 'i', 00H, 'z', 00H, 'e', 00H, '_', 00H, 't', 00H
	DB	')', 00H, 'i', 00H, 't', 00H, 'e', 00H, 'm', 00H, 's', 00H, 'i'
	DB	00H, 'z', 00H, 'e', 00H, ' ', 00H, '<', 00H, '=', 00H, ' ', 00H
	DB	's', 00H, 'i', 00H, 'z', 00H, 'e', 00H, 'o', 00H, 'f', 00H, '('
	DB	00H, 't', 00H, 'm', 00H, 'p', 00H, ')', 00H, 00H, 00H ; `string'
; Function compile flags: /Odtp
CONST	ENDS
;	COMDAT array_reverse
_TEXT	SEGMENT
p$ = 32
itemsize$ = 40
tmp$ = 48
q$ = 304
self$ = 336
unused$ = 344
array_reverse PROC					; COMDAT

; 1208 : {

  00000	48 89 54 24 10	 mov	 QWORD PTR [rsp+16], rdx
  00005	48 89 4c 24 08	 mov	 QWORD PTR [rsp+8], rcx
  0000a	48 81 ec 48 01
	00 00		 sub	 rsp, 328		; 00000148H

; 1209 :     register Py_ssize_t itemsize = self->ob_descr->itemsize;

  00011	48 8b 84 24 50
	01 00 00	 mov	 rax, QWORD PTR self$[rsp]
  00019	48 8b 80 80 00
	00 00		 mov	 rax, QWORD PTR [rax+128]
  00020	48 63 40 04	 movsxd	 rax, DWORD PTR [rax+4]
  00024	48 89 44 24 28	 mov	 QWORD PTR itemsize$[rsp], rax

; 1210 :     register char *p, *q;
; 1211 :     /* little buffer to hold items while swapping */
; 1212 :     char tmp[256];      /* 8 is probably enough -- but why skimp */
; 1213 :     assert((size_t)itemsize <= sizeof(tmp));

  00029	48 81 7c 24 28
	00 01 00 00	 cmp	 QWORD PTR itemsize$[rsp], 256 ; 00000100H
  00032	76 1c		 jbe	 SHORT $LN7@array_reve
  00034	41 b8 bd 04 00
	00		 mov	 r8d, 1213		; 000004bdH
  0003a	48 8d 15 00 00
	00 00		 lea	 rdx, OFFSET FLAT:??_C@_1DC@MOEMMJHJ@?$AA?4?$AA?4?$AA?2?$AAM?$AAo?$AAd?$AAu?$AAl?$AAe?$AAs?$AA?2?$AAa?$AAr?$AAr?$AAa?$AAy?$AAm?$AAo?$AAd?$AAu?$AAl?$AAe?$AA?4?$AAc?$AA?$AA@
  00041	48 8d 0d 00 00
	00 00		 lea	 rcx, OFFSET FLAT:??_C@_1EA@FAJCDDFK@?$AA?$CI?$AAs?$AAi?$AAz?$AAe?$AA_?$AAt?$AA?$CJ?$AAi?$AAt?$AAe?$AAm?$AAs?$AAi?$AAz?$AAe?$AA?5?$AA?$DM?$AA?$DN?$AA?5?$AAs?$AAi?$AAz?$AAe?$AAo?$AAf?$AA?$CI?$AAt?$AAm?$AAp?$AA?$CJ?$AA?$AA@
  00048	ff 15 00 00 00
	00		 call	 QWORD PTR __imp__wassert
  0004e	33 c0		 xor	 eax, eax
$LN7@array_reve:

; 1214 : 
; 1215 :     if (Py_SIZE(self) > 1) {

  00050	48 8b 84 24 50
	01 00 00	 mov	 rax, QWORD PTR self$[rsp]
  00058	48 83 78 60 01	 cmp	 QWORD PTR [rax+96], 1
  0005d	0f 8e c2 00 00
	00		 jle	 $LN4@array_reve

; 1216 :         for (p = self->ob_item,
; 1217 :              q = self->ob_item + (Py_SIZE(self) - 1)*itemsize;
; 1218 :              p < q;
; 1219 :              p += itemsize, q -= itemsize) {

  00063	48 8b 84 24 50
	01 00 00	 mov	 rax, QWORD PTR self$[rsp]
  0006b	48 8b 40 70	 mov	 rax, QWORD PTR [rax+112]
  0006f	48 89 44 24 20	 mov	 QWORD PTR p$[rsp], rax
  00074	48 8b 84 24 50
	01 00 00	 mov	 rax, QWORD PTR self$[rsp]
  0007c	48 8b 40 60	 mov	 rax, QWORD PTR [rax+96]
  00080	48 ff c8	 dec	 rax
  00083	48 0f af 44 24
	28		 imul	 rax, QWORD PTR itemsize$[rsp]
  00089	48 8b 8c 24 50
	01 00 00	 mov	 rcx, QWORD PTR self$[rsp]
  00091	48 03 41 70	 add	 rax, QWORD PTR [rcx+112]
  00095	48 89 84 24 30
	01 00 00	 mov	 QWORD PTR q$[rsp], rax
  0009d	eb 30		 jmp	 SHORT $LN3@array_reve
$LN2@array_reve:
  0009f	48 8b 44 24 28	 mov	 rax, QWORD PTR itemsize$[rsp]
  000a4	48 8b 4c 24 20	 mov	 rcx, QWORD PTR p$[rsp]
  000a9	48 03 c8	 add	 rcx, rax
  000ac	48 8b c1	 mov	 rax, rcx
  000af	48 89 44 24 20	 mov	 QWORD PTR p$[rsp], rax
  000b4	48 8b 44 24 28	 mov	 rax, QWORD PTR itemsize$[rsp]
  000b9	48 8b 8c 24 30
	01 00 00	 mov	 rcx, QWORD PTR q$[rsp]
  000c1	48 2b c8	 sub	 rcx, rax
  000c4	48 8b c1	 mov	 rax, rcx
  000c7	48 89 84 24 30
	01 00 00	 mov	 QWORD PTR q$[rsp], rax
$LN3@array_reve:
  000cf	48 8b 84 24 30
	01 00 00	 mov	 rax, QWORD PTR q$[rsp]
  000d7	48 39 44 24 20	 cmp	 QWORD PTR p$[rsp], rax
  000dc	73 47		 jae	 SHORT $LN1@array_reve

; 1220 :             /* memory areas guaranteed disjoint, so memcpy
; 1221 :              * is safe (& memmove may be slower).
; 1222 :              */
; 1223 :             memcpy(tmp, p, itemsize);

  000de	4c 8b 44 24 28	 mov	 r8, QWORD PTR itemsize$[rsp]
  000e3	48 8b 54 24 20	 mov	 rdx, QWORD PTR p$[rsp]
  000e8	48 8d 4c 24 30	 lea	 rcx, QWORD PTR tmp$[rsp]
  000ed	e8 00 00 00 00	 call	 memcpy

; 1224 :             memcpy(p, q, itemsize);

  000f2	4c 8b 44 24 28	 mov	 r8, QWORD PTR itemsize$[rsp]
  000f7	48 8b 94 24 30
	01 00 00	 mov	 rdx, QWORD PTR q$[rsp]
  000ff	48 8b 4c 24 20	 mov	 rcx, QWORD PTR p$[rsp]
  00104	e8 00 00 00 00	 call	 memcpy

; 1225 :             memcpy(q, tmp, itemsize);

  00109	4c 8b 44 24 28	 mov	 r8, QWORD PTR itemsize$[rsp]
  0010e	48 8d 54 24 30	 lea	 rdx, QWORD PTR tmp$[rsp]
  00113	48 8b 8c 24 30
	01 00 00	 mov	 rcx, QWORD PTR q$[rsp]
  0011b	e8 00 00 00 00	 call	 memcpy

; 1226 :         }

  00120	e9 7a ff ff ff	 jmp	 $LN2@array_reve
$LN1@array_reve:
$LN4@array_reve:

; 1227 :     }
; 1228 : 
; 1229 :     Py_INCREF(Py_None);

  00125	48 8d 0d 00 00
	00 00		 lea	 rcx, OFFSET FLAT:_Py_NoneStruct
  0012c	e8 00 00 00 00	 call	 _Py_IncRef

; 1230 :     return Py_None;

  00131	48 8d 05 00 00
	00 00		 lea	 rax, OFFSET FLAT:_Py_NoneStruct

; 1231 : }

  00138	48 81 c4 48 01
	00 00		 add	 rsp, 328		; 00000148H
  0013f	c3		 ret	 0
array_reverse ENDP
_TEXT	ENDS
PUBLIC	??_C@_0CC@GIMCCOCP@read?$CI?$CJ?5didn?8t?5return?5enough?5byte@ ; `string'
PUBLIC	??_C@_03IELNPCCE@?$CIO?$CJ?$AA@			; `string'
PUBLIC	??_C@_1CC@DHEDCFGE@?$AAP?$AAy?$AAB?$AAy?$AAt?$AAe?$AAs?$AA_?$AAC?$AAh?$AAe?$AAc?$AAk?$AA?$CI?$AAb?$AA?$CJ?$AA?$AA@ ; `string'
PUBLIC	??_C@_0BL@MCBECLD@read?$CI?$CJ?5didn?8t?5return?5bytes?$AA@ ; `string'
PUBLIC	??_C@_01EFFIKLCJ@n?$AA@				; `string'
PUBLIC	??_C@_0P@DIJHAIGC@negative?5count?$AA@		; `string'
PUBLIC	??_C@_0M@LKCNGHFH@On?3fromfile?$AA@		; `string'
EXTRN	PyExc_EOFError:QWORD
EXTRN	_Py_BuildValue_SizeT:PROC
EXTRN	_PyObject_CallMethodId_SizeT:PROC
EXTRN	_tls_index:DWORD
;	COMDAT pdata
pdata	SEGMENT
$pdata$array_fromfile DD imagerel array_fromfile
	DD	imagerel array_fromfile+520
	DD	imagerel $unwind$array_fromfile
pdata	ENDS
;	COMDAT xdata
xdata	SEGMENT
$unwind$array_fromfile DD 010e01H
	DD	0c20eH
xdata	ENDS
;	COMDAT ??_C@_0CC@GIMCCOCP@read?$CI?$CJ?5didn?8t?5return?5enough?5byte@
CONST	SEGMENT
??_C@_0CC@GIMCCOCP@read?$CI?$CJ?5didn?8t?5return?5enough?5byte@ DB 'read('
	DB	') didn''t return enough bytes', 00H		; `string'
CONST	ENDS
;	COMDAT ??_C@_03IELNPCCE@?$CIO?$CJ?$AA@
CONST	SEGMENT
??_C@_03IELNPCCE@?$CIO?$CJ?$AA@ DB '(O)', 00H		; `string'
CONST	ENDS
;	COMDAT ??_C@_1CC@DHEDCFGE@?$AAP?$AAy?$AAB?$AAy?$AAt?$AAe?$AAs?$AA_?$AAC?$AAh?$AAe?$AAc?$AAk?$AA?$CI?$AAb?$AA?$CJ?$AA?$AA@
CONST	SEGMENT
??_C@_1CC@DHEDCFGE@?$AAP?$AAy?$AAB?$AAy?$AAt?$AAe?$AAs?$AA_?$AAC?$AAh?$AAe?$AAc?$AAk?$AA?$CI?$AAb?$AA?$CJ?$AA?$AA@ DB 'P'
	DB	00H, 'y', 00H, 'B', 00H, 'y', 00H, 't', 00H, 'e', 00H, 's', 00H
	DB	'_', 00H, 'C', 00H, 'h', 00H, 'e', 00H, 'c', 00H, 'k', 00H, '('
	DB	00H, 'b', 00H, ')', 00H, 00H, 00H		; `string'
CONST	ENDS
;	COMDAT ??_C@_0BL@MCBECLD@read?$CI?$CJ?5didn?8t?5return?5bytes?$AA@
CONST	SEGMENT
??_C@_0BL@MCBECLD@read?$CI?$CJ?5didn?8t?5return?5bytes?$AA@ DB 'read() di'
	DB	'dn''t return bytes', 00H			; `string'
CONST	ENDS
;	COMDAT ??_C@_01EFFIKLCJ@n?$AA@
CONST	SEGMENT
??_C@_01EFFIKLCJ@n?$AA@ DB 'n', 00H			; `string'
CONST	ENDS
;	COMDAT ??_C@_0P@DIJHAIGC@negative?5count?$AA@
CONST	SEGMENT
??_C@_0P@DIJHAIGC@negative?5count?$AA@ DB 'negative count', 00H ; `string'
CONST	ENDS
;	COMDAT ??_C@_0M@LKCNGHFH@On?3fromfile?$AA@
CONST	SEGMENT
??_C@_0M@LKCNGHFH@On?3fromfile?$AA@ DB 'On:fromfile', 00H ; `string'
; Function compile flags: /Odtp
CONST	ENDS
;	COMDAT array_fromfile
_TEXT	SEGMENT
res$ = 32
itemsize$ = 40
n$ = 48
f$ = 56
not_enough_bytes$ = 64
b$ = 72
nbytes$ = 80
tv140 = 88
self$ = 112
args$ = 120
array_fromfile PROC					; COMDAT

; 1244 : {

  00000	48 89 54 24 10	 mov	 QWORD PTR [rsp+16], rdx
  00005	48 89 4c 24 08	 mov	 QWORD PTR [rsp+8], rcx
  0000a	48 83 ec 68	 sub	 rsp, 104		; 00000068H

; 1245 :     PyObject *f, *b, *res;
; 1246 :     Py_ssize_t itemsize = self->ob_descr->itemsize;

  0000e	48 8b 44 24 70	 mov	 rax, QWORD PTR self$[rsp]
  00013	48 8b 80 80 00
	00 00		 mov	 rax, QWORD PTR [rax+128]
  0001a	48 63 40 04	 movsxd	 rax, DWORD PTR [rax+4]
  0001e	48 89 44 24 28	 mov	 QWORD PTR itemsize$[rsp], rax

; 1247 :     Py_ssize_t n, nbytes;
; 1248 :     _Py_IDENTIFIER(read);
; 1249 :     int not_enough_bytes;
; 1250 : 
; 1251 :     if (!PyArg_ParseTuple(args, "On:fromfile", &f, &n))

  00023	4c 8d 4c 24 30	 lea	 r9, QWORD PTR n$[rsp]
  00028	4c 8d 44 24 38	 lea	 r8, QWORD PTR f$[rsp]
  0002d	48 8d 15 00 00
	00 00		 lea	 rdx, OFFSET FLAT:??_C@_0M@LKCNGHFH@On?3fromfile?$AA@
  00034	48 8b 4c 24 78	 mov	 rcx, QWORD PTR args$[rsp]
  00039	e8 00 00 00 00	 call	 _PyArg_ParseTuple_SizeT
  0003e	85 c0		 test	 eax, eax
  00040	75 07		 jne	 SHORT $LN8@array_from

; 1252 :         return NULL;

  00042	33 c0		 xor	 eax, eax
  00044	e9 ba 01 00 00	 jmp	 $LN9@array_from
$LN8@array_from:

; 1253 : 
; 1254 :     if (n < 0) {

  00049	48 83 7c 24 30
	00		 cmp	 QWORD PTR n$[rsp], 0
  0004f	7d 1a		 jge	 SHORT $LN7@array_from

; 1255 :         PyErr_SetString(PyExc_ValueError, "negative count");

  00051	48 8d 15 00 00
	00 00		 lea	 rdx, OFFSET FLAT:??_C@_0P@DIJHAIGC@negative?5count?$AA@
  00058	48 8b 0d 00 00
	00 00		 mov	 rcx, QWORD PTR PyExc_ValueError
  0005f	e8 00 00 00 00	 call	 PyErr_SetString

; 1256 :         return NULL;

  00064	33 c0		 xor	 eax, eax
  00066	e9 98 01 00 00	 jmp	 $LN9@array_from
$LN7@array_from:

; 1257 :     }
; 1258 :     if (n > PY_SSIZE_T_MAX / itemsize) {

  0006b	48 b8 ff ff ff
	ff ff ff ff 7f	 mov	 rax, 9223372036854775807 ; 7fffffffffffffffH
  00075	48 99		 cdq
  00077	48 f7 7c 24 28	 idiv	 QWORD PTR itemsize$[rsp]
  0007c	48 39 44 24 30	 cmp	 QWORD PTR n$[rsp], rax
  00081	7e 0c		 jle	 SHORT $LN6@array_from

; 1259 :         PyErr_NoMemory();

  00083	e8 00 00 00 00	 call	 PyErr_NoMemory

; 1260 :         return NULL;

  00088	33 c0		 xor	 eax, eax
  0008a	e9 74 01 00 00	 jmp	 $LN9@array_from
$LN6@array_from:

; 1261 :     }
; 1262 :     nbytes = n * itemsize;

  0008f	48 8b 44 24 30	 mov	 rax, QWORD PTR n$[rsp]
  00094	48 0f af 44 24
	28		 imul	 rax, QWORD PTR itemsize$[rsp]
  0009a	48 89 44 24 50	 mov	 QWORD PTR nbytes$[rsp], rax

; 1263 : 
; 1264 :     b = _PyObject_CallMethodId(f, &PyId_read, "n", nbytes);

  0009f	b8 00 00 00 00	 mov	 eax, OFFSET FLAT:?PyId_read@?1??array_fromfile@@9@9
  000a4	8b c0		 mov	 eax, eax
  000a6	8b 0d 00 00 00
	00		 mov	 ecx, DWORD PTR _tls_index
  000ac	65 48 8b 14 25
	58 00 00 00	 mov	 rdx, QWORD PTR gs:88
