; Listing generated by Microsoft (R) Optimizing Compiler Version 16.00.40219.01 

include listing.inc

INCLUDELIB MSVCRTD
INCLUDELIB OLDNAMES

PUBLIC	??_C@_05MKDOIIA@False?$AA@			; `string'
PUBLIC	??_C@_04HPMIDMKH@True?$AA@			; `string'
PUBLIC	??_C@_04OHJIHAFH@None?$AA@			; `string'
_DATA	SEGMENT
FORBIDDEN DQ	FLAT:??_C@_04OHJIHAFH@None?$AA@
	DQ	FLAT:??_C@_04HPMIDMKH@True?$AA@
	DQ	FLAT:??_C@_05MKDOIIA@False?$AA@
	DQ	0000000000000000H
_DATA	ENDS
;	COMDAT ??_C@_05MKDOIIA@False?$AA@
CONST	SEGMENT
??_C@_05MKDOIIA@False?$AA@ DB 'False', 00H		; `string'
CONST	ENDS
;	COMDAT ??_C@_04HPMIDMKH@True?$AA@
CONST	SEGMENT
??_C@_04HPMIDMKH@True?$AA@ DB 'True', 00H		; `string'
CONST	ENDS
;	COMDAT ??_C@_04OHJIHAFH@None?$AA@
CONST	SEGMENT
??_C@_04OHJIHAFH@None?$AA@ DB 'None', 00H		; `string'
CONST	ENDS
PUBLIC	??_C@_0BH@GOGEICIH@impossible?5module?5node?$AA@ ; `string'
PUBLIC	??_C@_0CL@ECMMLFPD@Suite?5is?5not?5valid?5in?5the?5CPytho@ ; `string'
PUBLIC	PyAST_Validate
EXTRN	PyExc_SystemError:QWORD
EXTRN	PyErr_SetString:PROC
EXTRN	PyExc_ValueError:QWORD
;	COMDAT pdata
; File c:\src\pyparallel\python\ast.c
pdata	SEGMENT
$pdata$PyAST_Validate DD imagerel $LN10
	DD	imagerel $LN10+180
	DD	imagerel $unwind$PyAST_Validate
pdata	ENDS
;	COMDAT xdata
xdata	SEGMENT
$unwind$PyAST_Validate DD 010901H
	DD	06209H
xdata	ENDS
;	COMDAT ??_C@_0BH@GOGEICIH@impossible?5module?5node?$AA@
CONST	SEGMENT
??_C@_0BH@GOGEICIH@impossible?5module?5node?$AA@ DB 'impossible module no'
	DB	'de', 00H					; `string'
CONST	ENDS
;	COMDAT ??_C@_0CL@ECMMLFPD@Suite?5is?5not?5valid?5in?5the?5CPytho@
CONST	SEGMENT
??_C@_0CL@ECMMLFPD@Suite?5is?5not?5valid?5in?5the?5CPytho@ DB 'Suite is n'
	DB	'ot valid in the CPython compiler', 00H	; `string'
; Function compile flags: /Odtp
CONST	ENDS
;	COMDAT PyAST_Validate
_TEXT	SEGMENT
res$ = 32
tv64 = 36
mod$ = 64
PyAST_Validate PROC					; COMDAT

; 468  : {

$LN10:
  00000	48 89 4c 24 08	 mov	 QWORD PTR [rsp+8], rcx
  00005	48 83 ec 38	 sub	 rsp, 56			; 00000038H

; 469  :     int res = 0;

  00009	c7 44 24 20 00
	00 00 00	 mov	 DWORD PTR res$[rsp], 0

; 470  : 
; 471  :     switch (mod->kind) {

  00011	48 8b 44 24 40	 mov	 rax, QWORD PTR mod$[rsp]
  00016	8b 00		 mov	 eax, DWORD PTR [rax]
  00018	89 44 24 24	 mov	 DWORD PTR tv64[rsp], eax
  0001c	83 7c 24 24 01	 cmp	 DWORD PTR tv64[rsp], 1
  00021	74 17		 je	 SHORT $LN5@PyAST_Vali
  00023	83 7c 24 24 02	 cmp	 DWORD PTR tv64[rsp], 2
  00028	74 24		 je	 SHORT $LN4@PyAST_Vali
  0002a	83 7c 24 24 03	 cmp	 DWORD PTR tv64[rsp], 3
  0002f	74 31		 je	 SHORT $LN3@PyAST_Vali
  00031	83 7c 24 24 04	 cmp	 DWORD PTR tv64[rsp], 4
  00036	74 43		 je	 SHORT $LN2@PyAST_Vali
  00038	eb 56		 jmp	 SHORT $LN1@PyAST_Vali
$LN5@PyAST_Vali:

; 472  :     case Module_kind:
; 473  :         res = validate_stmts(mod->v.Module.body);

  0003a	48 8b 44 24 40	 mov	 rax, QWORD PTR mod$[rsp]
  0003f	48 8b 48 08	 mov	 rcx, QWORD PTR [rax+8]
  00043	e8 00 00 00 00	 call	 validate_stmts
  00048	89 44 24 20	 mov	 DWORD PTR res$[rsp], eax

; 474  :         break;

  0004c	eb 5d		 jmp	 SHORT $LN6@PyAST_Vali
$LN4@PyAST_Vali:

; 475  :     case Interactive_kind:
; 476  :         res = validate_stmts(mod->v.Interactive.body);

  0004e	48 8b 44 24 40	 mov	 rax, QWORD PTR mod$[rsp]
  00053	48 8b 48 08	 mov	 rcx, QWORD PTR [rax+8]
  00057	e8 00 00 00 00	 call	 validate_stmts
  0005c	89 44 24 20	 mov	 DWORD PTR res$[rsp], eax

; 477  :         break;

  00060	eb 49		 jmp	 SHORT $LN6@PyAST_Vali
$LN3@PyAST_Vali:

; 478  :     case Expression_kind:
; 479  :         res = validate_expr(mod->v.Expression.body, Load);

  00062	ba 01 00 00 00	 mov	 edx, 1
  00067	48 8b 44 24 40	 mov	 rax, QWORD PTR mod$[rsp]
  0006c	48 8b 48 08	 mov	 rcx, QWORD PTR [rax+8]
  00070	e8 00 00 00 00	 call	 validate_expr
  00075	89 44 24 20	 mov	 DWORD PTR res$[rsp], eax

; 480  :         break;

  00079	eb 30		 jmp	 SHORT $LN6@PyAST_Vali
$LN2@PyAST_Vali:

; 481  :     case Suite_kind:
; 482  :         PyErr_SetString(PyExc_ValueError, "Suite is not valid in the CPython compiler");

  0007b	48 8d 15 00 00
	00 00		 lea	 rdx, OFFSET FLAT:??_C@_0CL@ECMMLFPD@Suite?5is?5not?5valid?5in?5the?5CPytho@
  00082	48 8b 0d 00 00
	00 00		 mov	 rcx, QWORD PTR PyExc_ValueError
  00089	e8 00 00 00 00	 call	 PyErr_SetString

; 483  :         break;

  0008e	eb 1b		 jmp	 SHORT $LN6@PyAST_Vali
$LN1@PyAST_Vali:

; 484  :     default:
; 485  :         PyErr_SetString(PyExc_SystemError, "impossible module node");

  00090	48 8d 15 00 00
	00 00		 lea	 rdx, OFFSET FLAT:??_C@_0BH@GOGEICIH@impossible?5module?5node?$AA@
  00097	48 8b 0d 00 00
	00 00		 mov	 rcx, QWORD PTR PyExc_SystemError
  0009e	e8 00 00 00 00	 call	 PyErr_SetString

; 486  :         res = 0;

  000a3	c7 44 24 20 00
	00 00 00	 mov	 DWORD PTR res$[rsp], 0
$LN6@PyAST_Vali:

; 487  :         break;
; 488  :     }
; 489  :     return res;

  000ab	8b 44 24 20	 mov	 eax, DWORD PTR res$[rsp]

; 490  : }

  000af	48 83 c4 38	 add	 rsp, 56			; 00000038H
  000b3	c3		 ret	 0
PyAST_Validate ENDP
_TEXT	ENDS
PUBLIC	??_C@_0BG@PAKLMHBH@unexpected?5expression?$AA@	; `string'
PUBLIC	??_C@_0BI@DPNNPPHI@non?9bytes?5type?5in?5Bytes?$AA@ ; `string'
PUBLIC	??_C@_0BH@JMHKCIPG@non?9string?5type?5in?5Str?$AA@ ; `string'
PUBLIC	??_C@_0BI@ECNBNEHA@non?9numeric?5type?5in?5Num?$AA@ ; `string'
PUBLIC	??_C@_0DL@IEHCCJP@Compare?5has?5a?5different?5number?5o@ ; `string'
PUBLIC	??_C@_0BM@HPPBDCNI@Compare?5with?5no?5comparators?$AA@ ; `string'
PUBLIC	??_C@_0DE@EGPJELGA@Dict?5doesn?8t?5have?5the?5same?5numbe@ ; `string'
PUBLIC	??_C@_0BP@DJACLLDP@BoolOp?5with?5less?5than?52?5values?$AA@ ; `string'
PUBLIC	??_C@_0DD@JOHDCPHG@expression?5must?5have?5?$CFs?5context?5@ ; `string'
PUBLIC	??_C@_0DE@FLEFGDAH@expression?5which?5can?8t?5be?5assign@ ; `string'
EXTRN	PyBytes_Type:BYTE
EXTRN	PyUnicode_Type:BYTE
EXTRN	PyExc_TypeError:QWORD
EXTRN	PyComplex_Type:BYTE
EXTRN	PyFloat_Type:BYTE
EXTRN	PyLong_Type:BYTE
EXTRN	PyErr_Format:PROC
EXTRN	__ImageBase:BYTE
;	COMDAT pdata
pdata	SEGMENT
$pdata$validate_expr DD imagerel validate_expr
	DD	imagerel validate_expr+2628
	DD	imagerel $unwind$validate_expr
pdata	ENDS
;	COMDAT xdata
xdata	SEGMENT
$unwind$validate_expr DD 021001H
	DD	0190110H
xdata	ENDS
;	COMDAT ??_C@_0BG@PAKLMHBH@unexpected?5expression?$AA@
CONST	SEGMENT
??_C@_0BG@PAKLMHBH@unexpected?5expression?$AA@ DB 'unexpected expression', 00H ; `string'
CONST	ENDS
;	COMDAT ??_C@_0BI@DPNNPPHI@non?9bytes?5type?5in?5Bytes?$AA@
CONST	SEGMENT
??_C@_0BI@DPNNPPHI@non?9bytes?5type?5in?5Bytes?$AA@ DB 'non-bytes type in'
	DB	' Bytes', 00H				; `string'
CONST	ENDS
;	COMDAT ??_C@_0BH@JMHKCIPG@non?9string?5type?5in?5Str?$AA@
CONST	SEGMENT
??_C@_0BH@JMHKCIPG@non?9string?5type?5in?5Str?$AA@ DB 'non-string type in'
	DB	' Str', 00H					; `string'
CONST	ENDS
;	COMDAT ??_C@_0BI@ECNBNEHA@non?9numeric?5type?5in?5Num?$AA@
CONST	SEGMENT
??_C@_0BI@ECNBNEHA@non?9numeric?5type?5in?5Num?$AA@ DB 'non-numeric type '
	DB	'in Num', 00H				; `string'
CONST	ENDS
;	COMDAT ??_C@_0DL@IEHCCJP@Compare?5has?5a?5different?5number?5o@
CONST	SEGMENT
??_C@_0DL@IEHCCJP@Compare?5has?5a?5different?5number?5o@ DB 'Compare has '
	DB	'a different number of comparators and operands', 00H ; `string'
CONST	ENDS
;	COMDAT ??_C@_0BM@HPPBDCNI@Compare?5with?5no?5comparators?$AA@
CONST	SEGMENT
??_C@_0BM@HPPBDCNI@Compare?5with?5no?5comparators?$AA@ DB 'Compare with n'
	DB	'o comparators', 00H				; `string'
CONST	ENDS
;	COMDAT ??_C@_0DE@EGPJELGA@Dict?5doesn?8t?5have?5the?5same?5numbe@
CONST	SEGMENT
??_C@_0DE@EGPJELGA@Dict?5doesn?8t?5have?5the?5same?5numbe@ DB 'Dict doesn'
	DB	'''t have the same number of keys as values', 00H ; `string'
CONST	ENDS
;	COMDAT ??_C@_0BP@DJACLLDP@BoolOp?5with?5less?5than?52?5values?$AA@
CONST	SEGMENT
??_C@_0BP@DJACLLDP@BoolOp?5with?5less?5than?52?5values?$AA@ DB 'BoolOp wi'
	DB	'th less than 2 values', 00H			; `string'
CONST	ENDS
;	COMDAT ??_C@_0DD@JOHDCPHG@expression?5must?5have?5?$CFs?5context?5@
CONST	SEGMENT
??_C@_0DD@JOHDCPHG@expression?5must?5have?5?$CFs?5context?5@ DB 'expressi'
	DB	'on must have %s context but has %s instead', 00H ; `string'
CONST	ENDS
;	COMDAT ??_C@_0DE@FLEFGDAH@expression?5which?5can?8t?5be?5assign@
CONST	SEGMENT
??_C@_0DE@FLEFGDAH@expression?5which?5can?8t?5be?5assign@ DB 'expression '
	DB	'which can''t be assigned to in %s context', 00H ; `string'
; Function compile flags: /Odtp
CONST	ENDS
;	COMDAT validate_expr
_TEXT	SEGMENT
actual_ctx$ = 32
check_ctx$ = 36
n$21692 = 40
s$21699 = 48
b$21704 = 56
tv64 = 64
tv82 = 72
tv81 = 80
tv94 = 88
tv145 = 96
tv159 = 100
tv175 = 104
tv180 = 112
tv185 = 120
tv201 = 128
tv216 = 132
tv226 = 136
tv236 = 140
tv251 = 144
tv259 = 148
tv268 = 152
tv276 = 160
tv281 = 168
tv296 = 176
tv326 = 180
tv359 = 184
exp$ = 208
ctx$ = 216
validate_expr PROC					; COMDAT

; 144  : {

  00000	89 54 24 10	 mov	 DWORD PTR [rsp+16], edx
  00004	48 89 4c 24 08	 mov	 QWORD PTR [rsp+8], rcx
  00009	48 81 ec c8 00
	00 00		 sub	 rsp, 200		; 000000c8H

; 145  :     int check_ctx = 1;

  00010	c7 44 24 24 01
	00 00 00	 mov	 DWORD PTR check_ctx$[rsp], 1

; 146  :     expr_context_ty actual_ctx;
; 147  : 
; 148  :     /* First check expression context. */
; 149  :     switch (exp->kind) {

  00018	48 8b 84 24 d0
	00 00 00	 mov	 rax, QWORD PTR exp$[rsp]
  00020	8b 00		 mov	 eax, DWORD PTR [rax]
  00022	89 44 24 40	 mov	 DWORD PTR tv64[rsp], eax
  00026	8b 44 24 40	 mov	 eax, DWORD PTR tv64[rsp]
  0002a	83 e8 14	 sub	 eax, 20
  0002d	89 44 24 40	 mov	 DWORD PTR tv64[rsp], eax
  00031	83 7c 24 40 05	 cmp	 DWORD PTR tv64[rsp], 5
  00036	0f 87 81 00 00
	00		 ja	 $LN37@validate_e
  0003c	48 63 44 24 40	 movsxd	 rax, DWORD PTR tv64[rsp]
  00041	48 8d 0d 00 00
	00 00		 lea	 rcx, OFFSET FLAT:__ImageBase
  00048	8b 84 81 00 00
	00 00		 mov	 eax, DWORD PTR $LN87@validate_e[rcx+rax*4]
  0004f	48 03 c1	 add	 rax, rcx
  00052	ff e0		 jmp	 rax
$LN43@validate_e:

; 150  :     case Attribute_kind:
; 151  :         actual_ctx = exp->v.Attribute.ctx;

  00054	48 8b 84 24 d0
	00 00 00	 mov	 rax, QWORD PTR exp$[rsp]
  0005c	8b 40 18	 mov	 eax, DWORD PTR [rax+24]
  0005f	89 44 24 20	 mov	 DWORD PTR actual_ctx$[rsp], eax

; 152  :         break;

  00063	e9 90 00 00 00	 jmp	 $LN44@validate_e
$LN42@validate_e:

; 153  :     case Subscript_kind:
; 154  :         actual_ctx = exp->v.Subscript.ctx;

  00068	48 8b 84 24 d0
	00 00 00	 mov	 rax, QWORD PTR exp$[rsp]
  00070	8b 40 18	 mov	 eax, DWORD PTR [rax+24]
  00073	89 44 24 20	 mov	 DWORD PTR actual_ctx$[rsp], eax

; 155  :         break;

  00077	eb 7f		 jmp	 SHORT $LN44@validate_e
$LN41@validate_e:

; 156  :     case Starred_kind:
; 157  :         actual_ctx = exp->v.Starred.ctx;

  00079	48 8b 84 24 d0
	00 00 00	 mov	 rax, QWORD PTR exp$[rsp]
  00081	8b 40 10	 mov	 eax, DWORD PTR [rax+16]
  00084	89 44 24 20	 mov	 DWORD PTR actual_ctx$[rsp], eax

; 158  :         break;

  00088	eb 6e		 jmp	 SHORT $LN44@validate_e
$LN40@validate_e:

; 159  :     case Name_kind:
; 160  :         actual_ctx = exp->v.Name.ctx;

  0008a	48 8b 84 24 d0
	00 00 00	 mov	 rax, QWORD PTR exp$[rsp]
  00092	8b 40 10	 mov	 eax, DWORD PTR [rax+16]
  00095	89 44 24 20	 mov	 DWORD PTR actual_ctx$[rsp], eax

; 161  :         break;

  00099	eb 5d		 jmp	 SHORT $LN44@validate_e
$LN39@validate_e:

; 162  :     case List_kind:
; 163  :         actual_ctx = exp->v.List.ctx;

  0009b	48 8b 84 24 d0
	00 00 00	 mov	 rax, QWORD PTR exp$[rsp]
  000a3	8b 40 10	 mov	 eax, DWORD PTR [rax+16]
  000a6	89 44 24 20	 mov	 DWORD PTR actual_ctx$[rsp], eax

; 164  :         break;

  000aa	eb 4c		 jmp	 SHORT $LN44@validate_e
$LN38@validate_e:

; 165  :     case Tuple_kind:
; 166  :         actual_ctx = exp->v.Tuple.ctx;

  000ac	48 8b 84 24 d0
	00 00 00	 mov	 rax, QWORD PTR exp$[rsp]
  000b4	8b 40 10	 mov	 eax, DWORD PTR [rax+16]
  000b7	89 44 24 20	 mov	 DWORD PTR actual_ctx$[rsp], eax

; 167  :         break;

  000bb	eb 3b		 jmp	 SHORT $LN44@validate_e
$LN37@validate_e:

; 168  :     default:
; 169  :         if (ctx != Load) {

  000bd	83 bc 24 d8 00
	00 00 01	 cmp	 DWORD PTR ctx$[rsp], 1
  000c5	74 29		 je	 SHORT $LN36@validate_e

; 170  :             PyErr_Format(PyExc_ValueError, "expression which can't be "
; 171  :                          "assigned to in %s context", expr_context_name(ctx));

  000c7	8b 8c 24 d8 00
	00 00		 mov	 ecx, DWORD PTR ctx$[rsp]
  000ce	e8 00 00 00 00	 call	 expr_context_name
  000d3	4c 8b c0	 mov	 r8, rax
  000d6	48 8d 15 00 00
	00 00		 lea	 rdx, OFFSET FLAT:??_C@_0DE@FLEFGDAH@expression?5which?5can?8t?5be?5assign@
  000dd	48 8b 0d 00 00
	00 00		 mov	 rcx, QWORD PTR PyExc_ValueError
  000e4	e8 00 00 00 00	 call	 PyErr_Format

; 172  :             return 0;

  000e9	33 c0		 xor	 eax, eax
  000eb	e9 cf 08 00 00	 jmp	 $LN46@validate_e
$LN36@validate_e:

; 173  :         }
; 174  :         check_ctx = 0;

  000f0	c7 44 24 24 00
	00 00 00	 mov	 DWORD PTR check_ctx$[rsp], 0
$LN44@validate_e:

; 175  :     }
; 176  :     if (check_ctx && actual_ctx != ctx) {

  000f8	83 7c 24 24 00	 cmp	 DWORD PTR check_ctx$[rsp], 0
  000fd	74 4c		 je	 SHORT $LN35@validate_e
  000ff	8b 84 24 d8 00
	00 00		 mov	 eax, DWORD PTR ctx$[rsp]
  00106	39 44 24 20	 cmp	 DWORD PTR actual_ctx$[rsp], eax
  0010a	74 3f		 je	 SHORT $LN35@validate_e

; 177  :         PyErr_Format(PyExc_ValueError, "expression must have %s context but has %s instead",
; 178  :                      expr_context_name(ctx), expr_context_name(actual_ctx));

  0010c	8b 4c 24 20	 mov	 ecx, DWORD PTR actual_ctx$[rsp]
  00110	e8 00 00 00 00	 call	 expr_context_name
  00115	48 89 44 24 48	 mov	 QWORD PTR tv82[rsp], rax
  0011a	8b 8c 24 d8 00
	00 00		 mov	 ecx, DWORD PTR ctx$[rsp]
  00121	e8 00 00 00 00	 call	 expr_context_name
  00126	48 8b 4c 24 48	 mov	 rcx, QWORD PTR tv82[rsp]
  0012b	4c 8b c9	 mov	 r9, rcx
  0012e	4c 8b c0	 mov	 r8, rax
  00131	48 8d 15 00 00
	00 00		 lea	 rdx, OFFSET FLAT:??_C@_0DD@JOHDCPHG@expression?5must?5have?5?$CFs?5context?5@
  00138	48 8b 0d 00 00
	00 00		 mov	 rcx, QWORD PTR PyExc_ValueError
  0013f	e8 00 00 00 00	 call	 PyErr_Format

; 179  :         return 0;

  00144	33 c0		 xor	 eax, eax
  00146	e9 74 08 00 00	 jmp	 $LN46@validate_e
$LN35@validate_e:

; 180  :     }
; 181  : 
; 182  :     /* Now validate expression. */
; 183  :     switch (exp->kind) {

  0014b	48 8b 84 24 d0
	00 00 00	 mov	 rax, QWORD PTR exp$[rsp]
  00153	8b 00		 mov	 eax, DWORD PTR [rax]
  00155	89 44 24 50	 mov	 DWORD PTR tv81[rsp], eax
  00159	8b 44 24 50	 mov	 eax, DWORD PTR tv81[rsp]
  0015d	ff c8		 dec	 eax
  0015f	89 44 24 50	 mov	 DWORD PTR tv81[rsp], eax
  00163	83 7c 24 50 18	 cmp	 DWORD PTR tv81[rsp], 24
  00168	0f 87 3c 08 00
	00		 ja	 $LN1@validate_e
  0016e	48 63 44 24 50	 movsxd	 rax, DWORD PTR tv81[rsp]
  00173	48 8d 0d 00 00
	00 00		 lea	 rcx, OFFSET FLAT:__ImageBase
  0017a	8b 84 81 00 00
	00 00		 mov	 eax, DWORD PTR $LN86@validate_e[rcx+rax*4]
  00181	48 03 c1	 add	 rax, rcx
  00184	ff e0		 jmp	 rax
$LN32@validate_e:

; 184  :     case BoolOp_kind:
; 185  :         if (asdl_seq_LEN(exp->v.BoolOp.values) < 2) {

  00186	48 8b 84 24 d0
	00 00 00	 mov	 rax, QWORD PTR exp$[rsp]
  0018e	48 83 78 10 00	 cmp	 QWORD PTR [rax+16], 0
  00193	75 0b		 jne	 SHORT $LN48@validate_e
  00195	48 c7 44 24 58
	00 00 00 00	 mov	 QWORD PTR tv94[rsp], 0
  0019e	eb 14		 jmp	 SHORT $LN49@validate_e
$LN48@validate_e:
  001a0	48 8b 84 24 d0
	00 00 00	 mov	 rax, QWORD PTR exp$[rsp]
  001a8	48 8b 40 10	 mov	 rax, QWORD PTR [rax+16]
  001ac	48 8b 00	 mov	 rax, QWORD PTR [rax]
  001af	48 89 44 24 58	 mov	 QWORD PTR tv94[rsp], rax
$LN49@validate_e:
  001b4	48 83 7c 24 58
	02		 cmp	 QWORD PTR tv94[rsp], 2
  001ba	7d 1a		 jge	 SHORT $LN31@validate_e

; 186  :             PyErr_SetString(PyExc_ValueError, "BoolOp with less than 2 values");

  001bc	48 8d 15 00 00
	00 00		 lea	 rdx, OFFSET FLAT:??_C@_0BP@DJACLLDP@BoolOp?5with?5less?5than?52?5values?$AA@
  001c3	48 8b 0d 00 00
	00 00		 mov	 rcx, QWORD PTR PyExc_ValueError
  001ca	e8 00 00 00 00	 call	 PyErr_SetString

; 187  :             return 0;

  001cf	33 c0		 xor	 eax, eax
  001d1	e9 e9 07 00 00	 jmp	 $LN46@validate_e
$LN31@validate_e:

; 188  :         }
; 189  :         return validate_exprs(exp->v.BoolOp.values, Load, 0);

  001d6	45 33 c0	 xor	 r8d, r8d
  001d9	ba 01 00 00 00	 mov	 edx, 1
  001de	48 8b 84 24 d0
	00 00 00	 mov	 rax, QWORD PTR exp$[rsp]
  001e6	48 8b 48 10	 mov	 rcx, QWORD PTR [rax+16]
  001ea	e8 00 00 00 00	 call	 validate_exprs
  001ef	e9 cb 07 00 00	 jmp	 $LN46@validate_e
$LN30@validate_e:

; 190  :     case BinOp_kind:
; 191  :         return validate_expr(exp->v.BinOp.left, Load) &&
; 192  :             validate_expr(exp->v.BinOp.right, Load);

  001f4	ba 01 00 00 00	 mov	 edx, 1
  001f9	48 8b 84 24 d0
	00 00 00	 mov	 rax, QWORD PTR exp$[rsp]
  00201	48 8b 48 08	 mov	 rcx, QWORD PTR [rax+8]
  00205	e8 00 00 00 00	 call	 validate_expr
  0020a	85 c0		 test	 eax, eax
  0020c	74 24		 je	 SHORT $LN50@validate_e
  0020e	ba 01 00 00 00	 mov	 edx, 1
  00213	48 8b 84 24 d0
	00 00 00	 mov	 rax, QWORD PTR exp$[rsp]
  0021b	48 8b 48 18	 mov	 rcx, QWORD PTR [rax+24]
  0021f	e8 00 00 00 00	 call	 validate_expr
  00224	85 c0		 test	 eax, eax
  00226	74 0a		 je	 SHORT $LN50@validate_e
  00228	c7 44 24 60 01
	00 00 00	 mov	 DWORD PTR tv145[rsp], 1
  00230	eb 08		 jmp	 SHORT $LN51@validate_e
$LN50@validate_e:
  00232	c7 44 24 60 00
	00 00 00	 mov	 DWORD PTR tv145[rsp], 0
$LN51@validate_e:
  0023a	8b 44 24 60	 mov	 eax, DWORD PTR tv145[rsp]
  0023e	e9 7c 07 00 00	 jmp	 $LN46@validate_e
$LN29@validate_e:

; 193  :     case UnaryOp_kind:
; 194  :         return validate_expr(exp->v.UnaryOp.operand, Load);

  00243	ba 01 00 00 00	 mov	 edx, 1
  00248	48 8b 84 24 d0
	00 00 00	 mov	 rax, QWORD PTR exp$[rsp]
  00250	48 8b 48 10	 mov	 rcx, QWORD PTR [rax+16]
  00254	e8 00 00 00 00	 call	 validate_expr
  00259	e9 61 07 00 00	 jmp	 $LN46@validate_e
$LN28@validate_e:

; 195  :     case Lambda_kind:
; 196  :         return validate_arguments(exp->v.Lambda.args) &&
; 197  :             validate_expr(exp->v.Lambda.body, Load);

  0025e	48 8b 84 24 d0
	00 00 00	 mov	 rax, QWORD PTR exp$[rsp]
  00266	48 8b 48 08	 mov	 rcx, QWORD PTR [rax+8]
  0026a	e8 00 00 00 00	 call	 validate_arguments
  0026f	85 c0		 test	 eax, eax
  00271	74 24		 je	 SHORT $LN52@validate_e
  00273	ba 01 00 00 00	 mov	 edx, 1
  00278	48 8b 84 24 d0
	00 00 00	 mov	 rax, QWORD PTR exp$[rsp]
  00280	48 8b 48 10	 mov	 rcx, QWORD PTR [rax+16]
  00284	e8 00 00 00 00	 call	 validate_expr
  00289	85 c0		 test	 eax, eax
  0028b	74 0a		 je	 SHORT $LN52@validate_e
  0028d	c7 44 24 64 01
	00 00 00	 mov	 DWORD PTR tv159[rsp], 1
  00295	eb 08		 jmp	 SHORT $LN53@validate_e
$LN52@validate_e:
  00297	c7 44 24 64 00
	00 00 00	 mov	 DWORD PTR tv159[rsp], 0
$LN53@validate_e:
  0029f	8b 44 24 64	 mov	 eax, DWORD PTR tv159[rsp]
  002a3	e9 17 07 00 00	 jmp	 $LN46@validate_e
$LN27@validate_e:

; 198  :     case IfExp_kind:
; 199  :         return validate_expr(exp->v.IfExp.test, Load) &&
; 200  :             validate_expr(exp->v.IfExp.body, Load) &&
; 201  :             validate_expr(exp->v.IfExp.orelse, Load);

  002a8	ba 01 00 00 00	 mov	 edx, 1
  002ad	48 8b 84 24 d0
	00 00 00	 mov	 rax, QWORD PTR exp$[rsp]
  002b5	48 8b 48 08	 mov	 rcx, QWORD PTR [rax+8]
  002b9	e8 00 00 00 00	 call	 validate_expr
  002be	85 c0		 test	 eax, eax
  002c0	74 3e		 je	 SHORT $LN54@validate_e
  002c2	ba 01 00 00 00	 mov	 edx, 1
  002c7	48 8b 84 24 d0
	00 00 00	 mov	 rax, QWORD PTR exp$[rsp]
  002cf	48 8b 48 10	 mov	 rcx, QWORD PTR [rax+16]
  002d3	e8 00 00 00 00	 call	 validate_expr
  002d8	85 c0		 test	 eax, eax
  002da	74 24		 je	 SHORT $LN54@validate_e
  002dc	ba 01 00 00 00	 mov	 edx, 1
  002e1	48 8b 84 24 d0
	00 00 00	 mov	 rax, QWORD PTR exp$[rsp]
  002e9	48 8b 48 18	 mov	 rcx, QWORD PTR [rax+24]
  002ed	e8 00 00 00 00	 call	 validate_expr
  002f2	85 c0		 test	 eax, eax
  002f4	74 0a		 je	 SHORT $LN54@validate_e
  002f6	c7 44 24 68 01
	00 00 00	 mov	 DWORD PTR tv175[rsp], 1
  002fe	eb 08		 jmp	 SHORT $LN55@validate_e
$LN54@validate_e:
  00300	c7 44 24 68 00
	00 00 00	 mov	 DWORD PTR tv175[rsp], 0
$LN55@validate_e:
  00308	8b 44 24 68	 mov	 eax, DWORD PTR tv175[rsp]
  0030c	e9 ae 06 00 00	 jmp	 $LN46@validate_e
$LN26@validate_e:

; 202  :     case Dict_kind:
; 203  :         if (asdl_seq_LEN(exp->v.Dict.keys) != asdl_seq_LEN(exp->v.Dict.values)) {

  00311	48 8b 84 24 d0
	00 00 00	 mov	 rax, QWORD PTR exp$[rsp]
  00319	48 83 78 08 00	 cmp	 QWORD PTR [rax+8], 0
  0031e	75 0b		 jne	 SHORT $LN56@validate_e
  00320	48 c7 44 24 70
	00 00 00 00	 mov	 QWORD PTR tv180[rsp], 0
  00329	eb 14		 jmp	 SHORT $LN57@validate_e
$LN56@validate_e:
  0032b	48 8b 84 24 d0
	00 00 00	 mov	 rax, QWORD PTR exp$[rsp]
  00333	48 8b 40 08	 mov	 rax, QWORD PTR [rax+8]
  00337	48 8b 00	 mov	 rax, QWORD PTR [rax]
  0033a	48 89 44 24 70	 mov	 QWORD PTR tv180[rsp], rax
$LN57@validate_e:
  0033f	48 8b 84 24 d0
	00 00 00	 mov	 rax, QWORD PTR exp$[rsp]
  00347	48 83 78 10 00	 cmp	 QWORD PTR [rax+16], 0
  0034c	75 0b		 jne	 SHORT $LN58@validate_e
  0034e	48 c7 44 24 78
	00 00 00 00	 mov	 QWORD PTR tv185[rsp], 0
  00357	eb 14		 jmp	 SHORT $LN59@validate_e
$LN58@validate_e:
  00359	48 8b 84 24 d0
	00 00 00	 mov	 rax, QWORD PTR exp$[rsp]
  00361	48 8b 40 10	 mov	 rax, QWORD PTR [rax+16]
  00365	48 8b 00	 mov	 rax, QWORD PTR [rax]
  00368	48 89 44 24 78	 mov	 QWORD PTR tv185[rsp], rax
$LN59@validate_e:
  0036d	48 8b 44 24 78	 mov	 rax, QWORD PTR tv185[rsp]
  00372	48 39 44 24 70	 cmp	 QWORD PTR tv180[rsp], rax
  00377	74 1a		 je	 SHORT $LN25@validate_e

; 204  :             PyErr_SetString(PyExc_ValueError,
; 205  :                             "Dict doesn't have the same number of keys as values");

  00379	48 8d 15 00 00
	00 00		 lea	 rdx, OFFSET FLAT:??_C@_0DE@EGPJELGA@Dict?5doesn?8t?5have?5the?5same?5numbe@
  00380	48 8b 0d 00 00
	00 00		 mov	 rcx, QWORD PTR PyExc_ValueError
  00387	e8 00 00 00 00	 call	 PyErr_SetString

; 206  :             return 0;

  0038c	33 c0		 xor	 eax, eax
  0038e	e9 2c 06 00 00	 jmp	 $LN46@validate_e
$LN25@validate_e:

; 207  :         }
; 208  :         return validate_exprs(exp->v.Dict.keys, Load, 0) &&
; 209  :             validate_exprs(exp->v.Dict.values, Load, 0);

  00393	45 33 c0	 xor	 r8d, r8d
  00396	ba 01 00 00 00	 mov	 edx, 1
  0039b	48 8b 84 24 d0
	00 00 00	 mov	 rax, QWORD PTR exp$[rsp]
  003a3	48 8b 48 08	 mov	 rcx, QWORD PTR [rax+8]
  003a7	e8 00 00 00 00	 call	 validate_exprs
  003ac	85 c0		 test	 eax, eax
  003ae	74 2a		 je	 SHORT $LN60@validate_e
  003b0	45 33 c0	 xor	 r8d, r8d
  003b3	ba 01 00 00 00	 mov	 edx, 1
  003b8	48 8b 84 24 d0
	00 00 00	 mov	 rax, QWORD PTR exp$[rsp]
  003c0	48 8b 48 10	 mov	 rcx, QWORD PTR [rax+16]
  003c4	e8 00 00 00 00	 call	 validate_exprs
  003c9	85 c0		 test	 eax, eax
  003cb	74 0d		 je	 SHORT $LN60@validate_e
  003cd	c7 84 24 80 00
	00 00 01 00 00
	00		 mov	 DWORD PTR tv201[rsp], 1
  003d8	eb 0b		 jmp	 SHORT $LN61@validate_e
$LN60@validate_e:
  003da	c7 84 24 80 00
	00 00 00 00 00
	00		 mov	 DWORD PTR tv201[rsp], 0
$LN61@validate_e:
  003e5	8b 84 24 80 00
	00 00		 mov	 eax, DWORD PTR tv201[rsp]
  003ec	e9 ce 05 00 00	 jmp	 $LN46@validate_e
$LN24@validate_e:

; 210  :     case Set_kind:
; 211  :         return validate_exprs(exp->v.Set.elts, Load, 0);

  003f1	45 33 c0	 xor	 r8d, r8d
  003f4	ba 01 00 00 00	 mov	 edx, 1
  003f9	48 8b 84 24 d0
	00 00 00	 mov	 rax, QWORD PTR exp$[rsp]
  00401	48 8b 48 08	 mov	 rcx, QWORD PTR [rax+8]
  00405	e8 00 00 00 00	 call	 validate_exprs
  0040a	e9 b0 05 00 00	 jmp	 $LN46@validate_e
$LN23@validate_e:

; 212  : #define COMP(NAME) \
; 213  :         case NAME ## _kind: \
; 214  :             return validate_comprehension(exp->v.NAME.generators) && \
; 215  :                 validate_expr(exp->v.NAME.elt, Load);
; 216  :     COMP(ListComp)

  0040f	48 8b 84 24 d0
	00 00 00	 mov	 rax, QWORD PTR exp$[rsp]
  00417	48 8b 48 10	 mov	 rcx, QWORD PTR [rax+16]
  0041b	e8 00 00 00 00	 call	 validate_comprehension
  00420	85 c0		 test	 eax, eax
  00422	74 27		 je	 SHORT $LN62@validate_e
  00424	ba 01 00 00 00	 mov	 edx, 1
  00429	48 8b 84 24 d0
	00 00 00	 mov	 rax, QWORD PTR exp$[rsp]
  00431	48 8b 48 08	 mov	 rcx, QWORD PTR [rax+8]
  00435	e8 00 00 00 00	 call	 validate_expr
  0043a	85 c0		 test	 eax, eax
  0043c	74 0d		 je	 SHORT $LN62@validate_e
  0043e	c7 84 24 84 00
	00 00 01 00 00
	00		 mov	 DWORD PTR tv216[rsp], 1
  00449	eb 0b		 jmp	 SHORT $LN63@validate_e
$LN62@validate_e:
  0044b	c7 84 24 84 00
	00 00 00 00 00
	00		 mov	 DWORD PTR tv216[rsp], 0
$LN63@validate_e:
  00456	8b 84 24 84 00
	00 00		 mov	 eax, DWORD PTR tv216[rsp]
  0045d	e9 5d 05 00 00	 jmp	 $LN46@validate_e
$LN22@validate_e:

; 217  :     COMP(SetComp)

  00462	48 8b 84 24 d0
	00 00 00	 mov	 rax, QWORD PTR exp$[rsp]
  0046a	48 8b 48 10	 mov	 rcx, QWORD PTR [rax+16]
  0046e	e8 00 00 00 00	 call	 validate_comprehension
  00473	85 c0		 test	 eax, eax
  00475	74 27		 je	 SHORT $LN64@validate_e
  00477	ba 01 00 00 00	 mov	 edx, 1
  0047c	48 8b 84 24 d0
	00 00 00	 mov	 rax, QWORD PTR exp$[rsp]
  00484	48 8b 48 08	 mov	 rcx, QWORD PTR [rax+8]
  00488	e8 00 00 00 00	 call	 validate_expr
  0048d	85 c0		 test	 eax, eax
  0048f	74 0d		 je	 SHORT $LN64@validate_e
  00491	c7 84 24 88 00
	00 00 01 00 00
	00		 mov	 DWORD PTR tv226[rsp], 1
  0049c	eb 0b		 jmp	 SHORT $LN65@validate_e
$LN64@validate_e:
  0049e	c7 84 24 88 00
	00 00 00 00 00
	00		 mov	 DWORD PTR tv226[rsp], 0
$LN65@validate_e:
  004a9	8b 84 24 88 00
	00 00		 mov	 eax, DWORD PTR tv226[rsp]
  004b0	e9 0a 05 00 00	 jmp	 $LN46@validate_e
$LN21@validate_e:

; 218  :     COMP(GeneratorExp)

  004b5	48 8b 84 24 d0
	00 00 00	 mov	 rax, QWORD PTR exp$[rsp]
  004bd	48 8b 48 10	 mov	 rcx, QWORD PTR [rax+16]
  004c1	e8 00 00 00 00	 call	 validate_comprehension
  004c6	85 c0		 test	 eax, eax
  004c8	74 27		 je	 SHORT $LN66@validate_e
  004ca	ba 01 00 00 00	 mov	 edx, 1
  004cf	48 8b 84 24 d0
	00 00 00	 mov	 rax, QWORD PTR exp$[rsp]
  004d7	48 8b 48 08	 mov	 rcx, QWORD PTR [rax+8]
  004db	e8 00 00 00 00	 call	 validate_expr
  004e0	85 c0		 test	 eax, eax
  004e2	74 0d		 je	 SHORT $LN66@validate_e
  004e4	c7 84 24 8c 00
	00 00 01 00 00
	00		 mov	 DWORD PTR tv236[rsp], 1
  004ef	eb 0b		 jmp	 SHORT $LN67@validate_e
$LN66@validate_e:
  004f1	c7 84 24 8c 00
	00 00 00 00 00
	00		 mov	 DWORD PTR tv236[rsp], 0
$LN67@validate_e:
  004fc	8b 84 24 8c 00
	00 00		 mov	 eax, DWORD PTR tv236[rsp]
  00503	e9 b7 04 00 00	 jmp	 $LN46@validate_e
$LN20@validate_e:

; 219  : #undef COMP
; 220  :     case DictComp_kind:
; 221  :         return validate_comprehension(exp->v.DictComp.generators) &&
; 222  :             validate_expr(exp->v.DictComp.key, Load) &&
; 223  :             validate_expr(exp->v.DictComp.value, Load);

  00508	48 8b 84 24 d0
	00 00 00	 mov	 rax, QWORD PTR exp$[rsp]
  00510	48 8b 48 18	 mov	 rcx, QWORD PTR [rax+24]
  00514	e8 00 00 00 00	 call	 validate_comprehension
  00519	85 c0		 test	 eax, eax
  0051b	74 41		 je	 SHORT $LN68@validate_e
  0051d	ba 01 00 00 00	 mov	 edx, 1
  00522	48 8b 84 24 d0
	00 00 00	 mov	 rax, QWORD PTR exp$[rsp]
  0052a	48 8b 48 08	 mov	 rcx, QWORD PTR [rax+8]
  0052e	e8 00 00 00 00	 call	 validate_expr
  00533	85 c0		 test	 eax, eax
  00535	74 27		 je	 SHORT $LN68@validate_e
  00537	ba 01 00 00 00	 mov	 edx, 1
  0053c	48 8b 84 24 d0
	00 00 00	 mov	 rax, QWORD PTR exp$[rsp]
  00544	48 8b 48 10	 mov	 rcx, QWORD PTR [rax+16]
  00548	e8 00 00 00 00	 call	 validate_expr
  0054d	85 c0		 test	 eax, eax
  0054f	74 0d		 je	 SHORT $LN68@validate_e
  00551	c7 84 24 90 00
	00 00 01 00 00
	00		 mov	 DWORD PTR tv251[rsp], 1
  0055c	eb 0b		 jmp	 SHORT $LN69@validate_e
$LN68@validate_e:
  0055e	c7 84 24 90 00
	00 00 00 00 00
	00		 mov	 DWORD PTR tv251[rsp], 0
$LN69@validate_e:
  00569	8b 84 24 90 00
	00 00		 mov	 eax, DWORD PTR tv251[rsp]
  00570	e9 4a 04 00 00	 jmp	 $LN46@validate_e
$LN19@validate_e:

; 224  :     case Yield_kind:
; 225  :         return !exp->v.Yield.value || validate_expr(exp->v.Yield.value, Load);

  00575	48 8b 84 24 d0
	00 00 00	 mov	 rax, QWORD PTR exp$[rsp]
  0057d	48 83 78 08 00	 cmp	 QWORD PTR [rax+8], 0
  00582	74 27		 je	 SHORT $LN70@validate_e
  00584	ba 01 00 00 00	 mov	 edx, 1
  00589	48 8b 84 24 d0
	00 00 00	 mov	 rax, QWORD PTR exp$[rsp]
  00591	48 8b 48 08	 mov	 rcx, QWORD PTR [rax+8]
  00595	e8 00 00 00 00	 call	 validate_expr
  0059a	85 c0		 test	 eax, eax
  0059c	75 0d		 jne	 SHORT $LN70@validate_e
  0059e	c7 84 24 94 00
	00 00 00 00 00
	00		 mov	 DWORD PTR tv259[rsp], 0
  005a9	eb 0b		 jmp	 SHORT $LN71@validate_e
$LN70@validate_e:
  005ab	c7 84 24 94 00
	00 00 01 00 00
	00		 mov	 DWORD PTR tv259[rsp], 1
$LN71@validate_e:
  005b6	8b 84 24 94 00
	00 00		 mov	 eax, DWORD PTR tv259[rsp]
  005bd	e9 fd 03 00 00	 jmp	 $LN46@validate_e
$LN18@validate_e:

; 226  :     case YieldFrom_kind:
; 227  :         return validate_expr(exp->v.YieldFrom.value, Load);

  005c2	ba 01 00 00 00	 mov	 edx, 1
  005c7	48 8b 84 24 d0
	00 00 00	 mov	 rax, QWORD PTR exp$[rsp]
  005cf	48 8b 48 08	 mov	 rcx, QWORD PTR [rax+8]
  005d3	e8 00 00 00 00	 call	 validate_expr
  005d8	e9 e2 03 00 00	 jmp	 $LN46@validate_e
$LN17@validate_e:

; 228  :     case Compare_kind:
; 229  :         if (!asdl_seq_LEN(exp->v.Compare.comparators)) {

  005dd	48 8b 84 24 d0
	00 00 00	 mov	 rax, QWORD PTR exp$[rsp]
  005e5	48 83 78 18 00	 cmp	 QWORD PTR [rax+24], 0
  005ea	75 0e		 jne	 SHORT $LN72@validate_e
  005ec	48 c7 84 24 98
	00 00 00 00 00
	00 00		 mov	 QWORD PTR tv268[rsp], 0
  005f8	eb 17		 jmp	 SHORT $LN73@validate_e
$LN72@validate_e:
  005fa	48 8b 84 24 d0
	00 00 00	 mov	 rax, QWORD PTR exp$[rsp]
  00602	48 8b 40 18	 mov	 rax, QWORD PTR [rax+24]
  00606	48 8b 00	 mov	 rax, QWORD PTR [rax]
  00609	48 89 84 24 98
	00 00 00	 mov	 QWORD PTR tv268[rsp], rax
$LN73@validate_e:
  00611	48 83 bc 24 98
	00 00 00 00	 cmp	 QWORD PTR tv268[rsp], 0
  0061a	75 1a		 jne	 SHORT $LN16@validate_e

; 230  :             PyErr_SetString(PyExc_ValueError, "Compare with no comparators");

  0061c	48 8d 15 00 00
	00 00		 lea	 rdx, OFFSET FLAT:??_C@_0BM@HPPBDCNI@Compare?5with?5no?5comparators?$AA@
  00623	48 8b 0d 00 00
	00 00		 mov	 rcx, QWORD PTR PyExc_ValueError
  0062a	e8 00 00 00 00	 call	 PyErr_SetString

; 231  :             return 0;

  0062f	33 c0		 xor	 eax, eax
  00631	e9 89 03 00 00	 jmp	 $LN46@validate_e
$LN16@validate_e:

; 232  :         }
; 233  :         if (asdl_seq_LEN(exp->v.Compare.comparators) !=
; 234  :             asdl_seq_LEN(exp->v.Compare.ops)) {

  00636	48 8b 84 24 d0
	00 00 00	 mov	 rax, QWORD PTR exp$[rsp]
  0063e	48 83 78 18 00	 cmp	 QWORD PTR [rax+24], 0
  00643	75 0e		 jne	 SHORT $LN74@validate_e
  00645	48 c7 84 24 a0
	00 00 00 00 00
	00 00		 mov	 QWORD PTR tv276[rsp], 0
  00651	eb 17		 jmp	 SHORT $LN75@validate_e
$LN74@validate_e:
  00653	48 8b 84 24 d0
	00 00 00	 mov	 rax, QWORD PTR exp$[rsp]
  0065b	48 8b 40 18	 mov	 rax, QWORD PTR [rax+24]
  0065f	48 8b 00	 mov	 rax, QWORD PTR [rax]
  00662	48 89 84 24 a0
	00 00 00	 mov	 QWORD PTR tv276[rsp], rax
$LN75@validate_e:
  0066a	48 8b 84 24 d0
	00 00 00	 mov	 rax, QWORD PTR exp$[rsp]
  00672	48 83 78 10 00	 cmp	 QWORD PTR [rax+16], 0
  00677	75 0e		 jne	 SHORT $LN76@validate_e
  00679	48 c7 84 24 a8
	00 00 00 00 00
	00 00		 mov	 QWORD PTR tv281[rsp], 0
  00685	eb 17		 jmp	 SHORT $LN77@validate_e
$LN76@validate_e:
  00687	48 8b 84 24 d0
	00 00 00	 mov	 rax, QWORD PTR exp$[rsp]
  0068f	48 8b 40 10	 mov	 rax, QWORD PTR [rax+16]
  00693	48 8b 00	 mov	 rax, QWORD PTR [rax]
  00696	48 89 84 24 a8
	00 00 00	 mov	 QWORD PTR tv281[rsp], rax
$LN77@validate_e:
  0069e	48 8b 84 24 a8
	00 00 00	 mov	 rax, QWORD PTR tv281[rsp]
  006a6	48 39 84 24 a0
	00 00 00	 cmp	 QWORD PTR tv276[rsp], rax
  006ae	74 1a		 je	 SHORT $LN15@validate_e

; 235  :             PyErr_SetString(PyExc_ValueError, "Compare has a different number "
; 236  :                             "of comparators and operands");

  006b0	48 8d 15 00 00
	00 00		 lea	 rdx, OFFSET FLAT:??_C@_0DL@IEHCCJP@Compare?5has?5a?5different?5number?5o@
  006b7	48 8b 0d 00 00
	00 00		 mov	 rcx, QWORD PTR PyExc_ValueError
  006be	e8 00 00 00 00	 call	 PyErr_SetString

; 237  :             return 0;

  006c3	33 c0		 xor	 eax, eax
  006c5	e9 f5 02 00 00	 jmp	 $LN46@validate_e
$LN15@validate_e:

; 238  :         }
; 239  :         return validate_exprs(exp->v.Compare.comparators, Load, 0) &&
; 240  :             validate_expr(exp->v.Compare.left, Load);

  006ca	45 33 c0	 xor	 r8d, r8d
  006cd	ba 01 00 00 00	 mov	 edx, 1
  006d2	48 8b 84 24 d0
	00 00 00	 mov	 rax, QWORD PTR exp$[rsp]
  006da	48 8b 48 18	 mov	 rcx, QWORD PTR [rax+24]
  006de	e8 00 00 00 00	 call	 validate_exprs
  006e3	85 c0		 test	 eax, eax
  006e5	74 27		 je	 SHORT $LN78@validate_e
  006e7	ba 01 00 00 00	 mov	 edx, 1
  006ec	48 8b 84 24 d0
	00 00 00	 mov	 rax, QWORD PTR exp$[rsp]
  006f4	48 8b 48 08	 mov	 rcx, QWORD PTR [rax+8]
  006f8	e8 00 00 00 00	 call	 validate_expr
  006fd	85 c0		 test	 eax, eax
  006ff	74 0d		 je	 SHORT $LN78@validate_e
  00701	c7 84 24 b0 00
	00 00 01 00 00
	00		 mov	 DWORD PTR tv296[rsp], 1
  0070c	eb 0b		 jmp	 SHORT $LN79@validate_e
$LN78@validate_e:
  0070e	c7 84 24 b0 00
	00 00 00 00 00
	00		 mov	 DWORD PTR tv296[rsp], 0
$LN79@validate_e:
  00719	8b 84 24 b0 00
	00 00		 mov	 eax, DWORD PTR tv296[rsp]
  00720	e9 9a 02 00 00	 jmp	 $LN46@validate_e
$LN14@validate_e:

; 241  :     case Call_kind:
; 242  :         return validate_expr(exp->v.Call.func, Load) &&
; 243  :             validate_exprs(exp->v.Call.args, Load, 0) &&
; 244  :             validate_keywords(exp->v.Call.keywords) &&
; 245  :             (!exp->v.Call.starargs || validate_expr(exp->v.Call.starargs, Load)) &&
; 246  :             (!exp->v.Call.kwargs || validate_expr(exp->v.Call.kwargs, Load));

  00725	ba 01 00 00 00	 mov	 edx, 1
  0072a	48 8b 84 24 d0
	00 00 00	 mov	 rax, QWORD PTR exp$[rsp]
  00732	48 8b 48 08	 mov	 rcx, QWORD PTR [rax+8]
  00736	e8 00 00 00 00	 call	 validate_expr
  0073b	85 c0		 test	 eax, eax
  0073d	0f 84 91 00 00
	00		 je	 $LN80@validate_e
  00743	45 33 c0	 xor	 r8d, r8d
  00746	ba 01 00 00 00	 mov	 edx, 1
  0074b	48 8b 84 24 d0
	00 00 00	 mov	 rax, QWORD PTR exp$[rsp]
  00753	48 8b 48 10	 mov	 rcx, QWORD PTR [rax+16]
  00757	e8 00 00 00 00	 call	 validate_exprs
  0075c	85 c0		 test	 eax, eax
  0075e	74 74		 je	 SHORT $LN80@validate_e
  00760	48 8b 84 24 d0
	00 00 00	 mov	 rax, QWORD PTR exp$[rsp]
  00768	48 8b 48 18	 mov	 rcx, QWORD PTR [rax+24]
  0076c	e8 00 00 00 00	 call	 validate_keywords
  00771	85 c0		 test	 eax, eax
  00773	74 5f		 je	 SHORT $LN80@validate_e
  00775	48 8b 84 24 d0
	00 00 00	 mov	 rax, QWORD PTR exp$[rsp]
  0077d	48 83 78 20 00	 cmp	 QWORD PTR [rax+32], 0
  00782	74 1a		 je	 SHORT $LN81@validate_e
  00784	ba 01 00 00 00	 mov	 edx, 1
  00789	48 8b 84 24 d0
	00 00 00	 mov	 rax, QWORD PTR exp$[rsp]
  00791	48 8b 48 20	 mov	 rcx, QWORD PTR [rax+32]
  00795	e8 00 00 00 00	 call	 validate_expr
  0079a	85 c0		 test	 eax, eax
  0079c	74 36		 je	 SHORT $LN80@validate_e
$LN81@validate_e:
  0079e	48 8b 84 24 d0
	00 00 00	 mov	 rax, QWORD PTR exp$[rsp]
  007a6	48 83 78 28 00	 cmp	 QWORD PTR [rax+40], 0
  007ab	74 1a		 je	 SHORT $LN82@validate_e
  007ad	ba 01 00 00 00	 mov	 edx, 1
  007b2	48 8b 84 24 d0
	00 00 00	 mov	 rax, QWORD PTR exp$[rsp]
  007ba	48 8b 48 28	 mov	 rcx, QWORD PTR [rax+40]
  007be	e8 00 00 00 00	 call	 validate_expr
  007c3	85 c0		 test	 eax, eax
  007c5	74 0d		 je	 SHORT $LN80@validate_e
$LN82@validate_e:
  007c7	c7 84 24 b4 00
	00 00 01 00 00
	00		 mov	 DWORD PTR tv326[rsp], 1
  007d2	eb 0b		 jmp	 SHORT $LN83@validate_e
$LN80@validate_e:
  007d4	c7 84 24 b4 00
	00 00 00 00 00
	00		 mov	 DWORD PTR tv326[rsp], 0
$LN83@validate_e:
  007df	8b 84 24 b4 00
	00 00		 mov	 eax, DWORD PTR tv326[rsp]
  007e6	e9 d4 01 00 00	 jmp	 $LN46@validate_e
$LN13@validate_e:

; 247  :     case Num_kind: {
; 248  :         PyObject *n = exp->v.Num.n;

  007eb	48 8b 84 24 d0
	00 00 00	 mov	 rax, QWORD PTR exp$[rsp]
  007f3	48 8b 40 08	 mov	 rax, QWORD PTR [rax+8]
  007f7	48 89 44 24 28	 mov	 QWORD PTR n$21692[rsp], rax

; 249  :         if (!PyLong_CheckExact(n) && !PyFloat_CheckExact(n) &&
; 250  :             !PyComplex_CheckExact(n)) {

  007fc	48 8d 05 00 00
	00 00		 lea	 rax, OFFSET FLAT:PyLong_Type
  00803	48 8b 4c 24 28	 mov	 rcx, QWORD PTR n$21692[rsp]
  00808	48 39 41 58	 cmp	 QWORD PTR [rcx+88], rax
  0080c	74 3e		 je	 SHORT $LN12@validate_e
  0080e	48 8d 05 00 00
	00 00		 lea	 rax, OFFSET FLAT:PyFloat_Type
  00815	48 8b 4c 24 28	 mov	 rcx, QWORD PTR n$21692[rsp]
  0081a	48 39 41 58	 cmp	 QWORD PTR [rcx+88], rax
  0081e	74 2c		 je	 SHORT $LN12@validate_e
  00820	48 8d 05 00 00
	00 00		 lea	 rax, OFFSET FLAT:PyComplex_Type
  00827	48 8b 4c 24 28	 mov	 rcx, QWORD PTR n$21692[rsp]
  0082c	48 39 41 58	 cmp	 QWORD PTR [rcx+88], rax
  00830	74 1a		 je	 SHORT $LN12@validate_e

; 251  :             PyErr_SetString(PyExc_TypeError, "non-numeric type in Num");

  00832	48 8d 15 00 00
	00 00		 lea	 rdx, OFFSET FLAT:??_C@_0BI@ECNBNEHA@non?9numeric?5type?5in?5Num?$AA@
  00839	48 8b 0d 00 00
	00 00		 mov	 rcx, QWORD PTR PyExc_TypeError
  00840	e8 00 00 00 00	 call	 PyErr_SetString

; 252  :             return 0;

  00845	33 c0		 xor	 eax, eax
  00847	e9 73 01 00 00	 jmp	 $LN46@validate_e
$LN12@validate_e:

; 253  :         }
; 254  :         return 1;

  0084c	b8 01 00 00 00	 mov	 eax, 1
  00851	e9 69 01 00 00	 jmp	 $LN46@validate_e
$LN11@validate_e:

; 255  :     }
; 256  :     case Str_kind: {
; 257  :         PyObject *s = exp->v.Str.s;

  00856	48 8b 84 24 d0
	00 00 00	 mov	 rax, QWORD PTR exp$[rsp]
  0085e	48 8b 40 08	 mov	 rax, QWORD PTR [rax+8]
  00862	48 89 44 24 30	 mov	 QWORD PTR s$21699[rsp], rax

; 258  :         if (!PyUnicode_CheckExact(s)) {

  00867	48 8d 05 00 00
	00 00		 lea	 rax, OFFSET FLAT:PyUnicode_Type
  0086e	48 8b 4c 24 30	 mov	 rcx, QWORD PTR s$21699[rsp]
  00873	48 39 41 58	 cmp	 QWORD PTR [rcx+88], rax
  00877	74 1a		 je	 SHORT $LN10@validate_e

; 259  :             PyErr_SetString(PyExc_TypeError, "non-string type in Str");

  00879	48 8d 15 00 00
	00 00		 lea	 rdx, OFFSET FLAT:??_C@_0BH@JMHKCIPG@non?9string?5type?5in?5Str?$AA@
  00880	48 8b 0d 00 00
	00 00		 mov	 rcx, QWORD PTR PyExc_TypeError
  00887	e8 00 00 00 00	 call	 PyErr_SetString

; 260  :             return 0;

  0088c	33 c0		 xor	 eax, eax
  0088e	e9 2c 01 00 00	 jmp	 $LN46@validate_e
$LN10@validate_e:

; 261  :         }
; 262  :         return 1;

  00893	b8 01 00 00 00	 mov	 eax, 1
  00898	e9 22 01 00 00	 jmp	 $LN46@validate_e
$LN9@validate_e:

; 263  :     }
; 264  :     case Bytes_kind: {
; 265  :         PyObject *b = exp->v.Bytes.s;

  0089d	48 8b 84 24 d0
	00 00 00	 mov	 rax, QWORD PTR exp$[rsp]
  008a5	48 8b 40 08	 mov	 rax, QWORD PTR [rax+8]
  008a9	48 89 44 24 38	 mov	 QWORD PTR b$21704[rsp], rax

; 266  :         if (!PyBytes_CheckExact(b)) {

  008ae	48 8d 05 00 00
	00 00		 lea	 rax, OFFSET FLAT:PyBytes_Type
  008b5	48 8b 4c 24 38	 mov	 rcx, QWORD PTR b$21704[rsp]
  008ba	48 39 41 58	 cmp	 QWORD PTR [rcx+88], rax
  008be	74 1a		 je	 SHORT $LN8@validate_e

; 267  :             PyErr_SetString(PyExc_TypeError, "non-bytes type in Bytes");

  008c0	48 8d 15 00 00
	00 00		 lea	 rdx, OFFSET FLAT:??_C@_0BI@DPNNPPHI@non?9bytes?5type?5in?5Bytes?$AA@
  008c7	48 8b 0d 00 00
	00 00		 mov	 rcx, QWORD PTR PyExc_TypeError
  008ce	e8 00 00 00 00	 call	 PyErr_SetString

; 268  :             return 0;

  008d3	33 c0		 xor	 eax, eax
  008d5	e9 e5 00 00 00	 jmp	 $LN46@validate_e
$LN8@validate_e:

; 269  :         }
; 270  :         return 1;

  008da	b8 01 00 00 00	 mov	 eax, 1
  008df	e9 db 00 00 00	 jmp	 $LN46@validate_e
$LN7@validate_e:

; 271  :     }
; 272  :     case Attribute_kind:
; 273  :         return validate_expr(exp->v.Attribute.value, Load);

  008e4	ba 01 00 00 00	 mov	 edx, 1
  008e9	48 8b 84 24 d0
	00 00 00	 mov	 rax, QWORD PTR exp$[rsp]
  008f1	48 8b 48 08	 mov	 rcx, QWORD PTR [rax+8]
  008f5	e8 00 00 00 00	 call	 validate_expr
  008fa	e9 c0 00 00 00	 jmp	 $LN46@validate_e
$LN6@validate_e:

; 274  :     case Subscript_kind:
; 275  :         return validate_slice(exp->v.Subscript.slice) &&
; 276  :             validate_expr(exp->v.Subscript.value, Load);

  008ff	48 8b 84 24 d0
	00 00 00	 mov	 rax, QWORD PTR exp$[rsp]
  00907	48 8b 48 10	 mov	 rcx, QWORD PTR [rax+16]
  0090b	e8 00 00 00 00	 call	 validate_slice
  00910	85 c0		 test	 eax, eax
  00912	74 27		 je	 SHORT $LN84@validate_e
  00914	ba 01 00 00 00	 mov	 edx, 1
  00919	48 8b 84 24 d0
	00 00 00	 mov	 rax, QWORD PTR exp$[rsp]
  00921	48 8b 48 08	 mov	 rcx, QWORD PTR [rax+8]
  00925	e8 00 00 00 00	 call	 validate_expr
  0092a	85 c0		 test	 eax, eax
  0092c	74 0d		 je	 SHORT $LN84@validate_e
  0092e	c7 84 24 b8 00
	00 00 01 00 00
	00		 mov	 DWORD PTR tv359[rsp], 1
  00939	eb 0b		 jmp	 SHORT $LN85@validate_e
$LN84@validate_e:
  0093b	c7 84 24 b8 00
	00 00 00 00 00
	00		 mov	 DWORD PTR tv359[rsp], 0
$LN85@validate_e:
  00946	8b 84 24 b8 00
	00 00		 mov	 eax, DWORD PTR tv359[rsp]
  0094d	eb 70		 jmp	 SHORT $LN46@validate_e
$LN5@validate_e:

; 277  :     case Starred_kind:
; 278  :         return validate_expr(exp->v.Starred.value, ctx);

  0094f	8b 94 24 d8 00
	00 00		 mov	 edx, DWORD PTR ctx$[rsp]
  00956	48 8b 84 24 d0
	00 00 00	 mov	 rax, QWORD PTR exp$[rsp]
  0095e	48 8b 48 08	 mov	 rcx, QWORD PTR [rax+8]
  00962	e8 00 00 00 00	 call	 validate_expr
  00967	eb 56		 jmp	 SHORT $LN46@validate_e
$LN4@validate_e:

; 279  :     case List_kind:
; 280  :         return validate_exprs(exp->v.List.elts, ctx, 0);

  00969	45 33 c0	 xor	 r8d, r8d
  0096c	8b 94 24 d8 00
	00 00		 mov	 edx, DWORD PTR ctx$[rsp]
  00973	48 8b 84 24 d0
	00 00 00	 mov	 rax, QWORD PTR exp$[rsp]
  0097b	48 8b 48 08	 mov	 rcx, QWORD PTR [rax+8]
  0097f	e8 00 00 00 00	 call	 validate_exprs
  00984	eb 39		 jmp	 SHORT $LN46@validate_e
$LN3@validate_e:

; 281  :     case Tuple_kind:
; 282  :         return validate_exprs(exp->v.Tuple.elts, ctx, 0);

  00986	45 33 c0	 xor	 r8d, r8d
  00989	8b 94 24 d8 00
	00 00		 mov	 edx, DWORD PTR ctx$[rsp]
  00990	48 8b 84 24 d0
	00 00 00	 mov	 rax, QWORD PTR exp$[rsp]
  00998	48 8b 48 08	 mov	 rcx, QWORD PTR [rax+8]
  0099c	e8 00 00 00 00	 call	 validate_exprs
  009a1	eb 1c		 jmp	 SHORT $LN46@validate_e
$LN2@validate_e:

; 283  :     /* These last cases don't have any checking. */
; 284  :     case Name_kind:
; 285  :     case Ellipsis_kind:
; 286  :         return 1;

  009a3	b8 01 00 00 00	 mov	 eax, 1
  009a8	eb 15		 jmp	 SHORT $LN46@validate_e
$LN1@validate_e:

; 287  :     default:
; 288  :         PyErr_SetString(PyExc_SystemError, "unexpected expression");

  009aa	48 8d 15 00 00
	00 00		 lea	 rdx, OFFSET FLAT:??_C@_0BG@PAKLMHBH@unexpected?5expression?$AA@
  009b1	48 8b 0d 00 00
	00 00		 mov	 rcx, QWORD PTR PyExc_SystemError
  009b8	e8 00 00 00 00	 call	 PyErr_SetString

; 289  :         return 0;

  009bd	33 c0		 xor	 eax, eax
$LN46@validate_e:

; 290  :     }
; 291  : }

  009bf	48 81 c4 c8 00
	00 00		 add	 rsp, 200		; 000000c8H
  009c6	c3		 ret	 0
  009c7	90		 npad	 1
$LN87@validate_e:
  009c8	00 00 00 00	 DD	 $LN43@validate_e
  009cc	00 00 00 00	 DD	 $LN42@validate_e
  009d0	00 00 00 00	 DD	 $LN41@validate_e
  009d4	00 00 00 00	 DD	 $LN40@validate_e
  009d8	00 00 00 00	 DD	 $LN39@validate_e
  009dc	00 00 00 00	 DD	 $LN38@validate_e
$LN86@validate_e:
  009e0	00 00 00 00	 DD	 $LN32@validate_e
  009e4	00 00 00 00	 DD	 $LN30@validate_e
  009e8	00 00 00 00	 DD	 $LN29@validate_e
  009ec	00 00 00 00	 DD	 $LN28@validate_e
  009f0	00 00 00 00	 DD	 $LN27@validate_e
  009f4	00 00 00 00	 DD	 $LN26@validate_e
  009f8	00 00 00 00	 DD	 $LN24@validate_e
  009fc	00 00 00 00	 DD	 $LN23@validate_e
  00a00	00 00 00 00	 DD	 $LN22@validate_e
  00a04	00 00 00 00	 DD	 $LN20@validate_e
  00a08	00 00 00 00	 DD	 $LN21@validate_e
  00a0c	00 00 00 00	 DD	 $LN19@validate_e
  00a10	00 00 00 00	 DD	 $LN18@validate_e
  00a14	00 00 00 00	 DD	 $LN17@validate_e
  00a18	00 00 00 00	 DD	 $LN14@validate_e
  00a1c	00 00 00 00	 DD	 $LN13@validate_e
  00a20	00 00 00 00	 DD	 $LN11@validate_e
  00a24	00 00 00 00	 DD	 $LN9@validate_e
  00a28	00 00 00 00	 DD	 $LN2@validate_e
  00a2c	00 00 00 00	 DD	 $LN7@validate_e
  00a30	00 00 00 00	 DD	 $LN6@validate_e
  00a34	00 00 00 00	 DD	 $LN5@validate_e
  00a38	00 00 00 00	 DD	 $LN2@validate_e
  00a3c	00 00 00 00	 DD	 $LN4@validate_e
  00a40	00 00 00 00	 DD	 $LN3@validate_e
validate_expr ENDP
_TEXT	ENDS
PUBLIC	??_C@_0CB@FOMOKEA@comprehension?5with?5no?5generators@ ; `string'
;	COMDAT pdata
pdata	SEGMENT
$pdata$validate_comprehension DD imagerel validate_comprehension
	DD	imagerel validate_comprehension+249
	DD	imagerel $unwind$validate_comprehension
pdata	ENDS
;	COMDAT xdata
xdata	SEGMENT
$unwind$validate_comprehension DD 010901H
	DD	08209H
xdata	ENDS
;	COMDAT ??_C@_0CB@FOMOKEA@comprehension?5with?5no?5generators@
CONST	SEGMENT
??_C@_0CB@FOMOKEA@comprehension?5with?5no?5generators@ DB 'comprehension '
	DB	'with no generators', 00H			; `string'
; Function compile flags: /Odtp
CONST	ENDS
;	COMDAT validate_comprehension
_TEXT	SEGMENT
i$ = 32
comp$21541 = 40
tv65 = 48
tv72 = 56
gens$ = 80
validate_comprehension PROC				; COMDAT

; 22   : {

  00000	48 89 4c 24 08	 mov	 QWORD PTR [rsp+8], rcx
  00005	48 83 ec 48	 sub	 rsp, 72			; 00000048H

; 23   :     int i;
; 24   :     if (!asdl_seq_LEN(gens)) {

  00009	48 83 7c 24 50
	00		 cmp	 QWORD PTR gens$[rsp], 0
  0000f	75 0b		 jne	 SHORT $LN9@validate_c
  00011	48 c7 44 24 30
	00 00 00 00	 mov	 QWORD PTR tv65[rsp], 0
  0001a	eb 0d		 jmp	 SHORT $LN10@validate_c
$LN9@validate_c:
  0001c	48 8b 44 24 50	 mov	 rax, QWORD PTR gens$[rsp]
  00021	48 8b 00	 mov	 rax, QWORD PTR [rax]
  00024	48 89 44 24 30	 mov	 QWORD PTR tv65[rsp], rax
$LN10@validate_c:
  00029	48 83 7c 24 30
	00		 cmp	 QWORD PTR tv65[rsp], 0
  0002f	75 1a		 jne	 SHORT $LN6@validate_c

; 25   :         PyErr_SetString(PyExc_ValueError, "comprehension with no generators");

  00031	48 8d 15 00 00
	00 00		 lea	 rdx, OFFSET FLAT:??_C@_0CB@FOMOKEA@comprehension?5with?5no?5generators@
  00038	48 8b 0d 00 00
	00 00		 mov	 rcx, QWORD PTR PyExc_ValueError
  0003f	e8 00 00 00 00	 call	 PyErr_SetString

; 26   :         return 0;

  00044	33 c0		 xor	 eax, eax
  00046	e9 a9 00 00 00	 jmp	 $LN7@validate_c
$LN6@validate_c:

; 27   :     }
; 28   :     for (i = 0; i < asdl_seq_LEN(gens); i++) {

  0004b	c7 44 24 20 00
	00 00 00	 mov	 DWORD PTR i$[rsp], 0
  00053	eb 0a		 jmp	 SHORT $LN5@validate_c
$LN4@validate_c:
  00055	8b 44 24 20	 mov	 eax, DWORD PTR i$[rsp]
  00059	ff c0		 inc	 eax
  0005b	89 44 24 20	 mov	 DWORD PTR i$[rsp], eax
$LN5@validate_c:
  0005f	48 83 7c 24 50
	00		 cmp	 QWORD PTR gens$[rsp], 0
  00065	75 0b		 jne	 SHORT $LN11@validate_c
  00067	48 c7 44 24 38
	00 00 00 00	 mov	 QWORD PTR tv72[rsp], 0
  00070	eb 0d		 jmp	 SHORT $LN12@validate_c
$LN11@validate_c:
  00072	48 8b 44 24 50	 mov	 rax, QWORD PTR gens$[rsp]
  00077	48 8b 00	 mov	 rax, QWORD PTR [rax]
  0007a	48 89 44 24 38	 mov	 QWORD PTR tv72[rsp], rax
$LN12@validate_c:
  0007f	48 63 44 24 20	 movsxd	 rax, DWORD PTR i$[rsp]
  00084	48 3b 44 24 38	 cmp	 rax, QWORD PTR tv72[rsp]
  00089	7d 64		 jge	 SHORT $LN3@validate_c

; 29   :         comprehension_ty comp = asdl_seq_GET(gens, i);

  0008b	48 63 44 24 20	 movsxd	 rax, DWORD PTR i$[rsp]
  00090	48 8b 4c 24 50	 mov	 rcx, QWORD PTR gens$[rsp]
  00095	48 8b 44 c1 08	 mov	 rax, QWORD PTR [rcx+rax*8+8]
  0009a	48 89 44 24 28	 mov	 QWORD PTR comp$21541[rsp], rax

; 30   :         if (!validate_expr(comp->target, Store) ||
; 31   :             !validate_expr(comp->iter, Load) ||
; 32   :             !validate_exprs(comp->ifs, Load, 0))

  0009f	ba 02 00 00 00	 mov	 edx, 2
  000a4	48 8b 44 24 28	 mov	 rax, QWORD PTR comp$21541[rsp]
  000a9	48 8b 08	 mov	 rcx, QWORD PTR [rax]
  000ac	e8 00 00 00 00	 call	 validate_expr
  000b1	85 c0		 test	 eax, eax
  000b3	74 31		 je	 SHORT $LN1@validate_c
  000b5	ba 01 00 00 00	 mov	 edx, 1
  000ba	48 8b 44 24 28	 mov	 rax, QWORD PTR comp$21541[rsp]
  000bf	48 8b 48 08	 mov	 rcx, QWORD PTR [rax+8]
  000c3	e8 00 00 00 00	 call	 validate_expr
  000c8	85 c0		 test	 eax, eax
  000ca	74 1a		 je	 SHORT $LN1@validate_c
  000cc	45 33 c0	 xor	 r8d, r8d
  000cf	ba 01 00 00 00	 mov	 edx, 1
  000d4	48 8b 44 24 28	 mov	 rax, QWORD PTR comp$21541[rsp]
  000d9	48 8b 48 10	 mov	 rcx, QWORD PTR [rax+16]
  000dd	e8 00 00 00 00	 call	 validate_exprs
  000e2	85 c0		 test	 eax, eax
  000e4	75 04		 jne	 SHORT $LN2@validate_c
$LN1@validate_c:

; 33   :             return 0;

  000e6	33 c0		 xor	 eax, eax
  000e8	eb 0a		 jmp	 SHORT $LN7@validate_c
$LN2@validate_c:

; 34   :     }

  000ea	e9 66 ff ff ff	 jmp	 $LN4@validate_c
$LN3@validate_c:

; 35   :     return 1;

  000ef	b8 01 00 00 00	 mov	 eax, 1
$LN7@validate_c:

; 36   : }

  000f4	48 83 c4 48	 add	 rsp, 72			; 00000048H
  000f8	c3		 ret	 0
validate_comprehension ENDP
_TEXT	ENDS
PUBLIC	??_C@_0BD@PJEHJOKI@unknown?5slice?5node?$AA@	; `string'
PUBLIC	??_C@_04FHFMBDKA@dims?$AA@			; `string'
PUBLIC	??_C@_08CIIMGBAD@ExtSlice?$AA@			; `string'
;	COMDAT pdata
pdata	SEGMENT
$pdata$validate_slice DD imagerel validate_slice
	DD	imagerel validate_slice+385
	DD	imagerel $unwind$validate_slice
pdata	ENDS
;	COMDAT xdata
xdata	SEGMENT
$unwind$validate_slice DD 010901H
	DD	08209H
xdata	ENDS
;	COMDAT ??_C@_0BD@PJEHJOKI@unknown?5slice?5node?$AA@
CONST	SEGMENT
??_C@_0BD@PJEHJOKI@unknown?5slice?5node?$AA@ DB 'unknown slice node', 00H ; `string'
CONST	ENDS
;	COMDAT ??_C@_04FHFMBDKA@dims?$AA@
CONST	SEGMENT
??_C@_04FHFMBDKA@dims?$AA@ DB 'dims', 00H		; `string'
CONST	ENDS
;	COMDAT ??_C@_08CIIMGBAD@ExtSlice?$AA@
CONST	SEGMENT
??_C@_08CIIMGBAD@ExtSlice?$AA@ DB 'ExtSlice', 00H	; `string'
; Function compile flags: /Odtp
CONST	ENDS
;	COMDAT validate_slice
_TEXT	SEGMENT
i$21554 = 32
tv64 = 36
tv86 = 40
tv131 = 48
slice$ = 80
validate_slice PROC					; COMDAT

; 40   : {

  00000	48 89 4c 24 08	 mov	 QWORD PTR [rsp+8], rcx
  00005	48 83 ec 48	 sub	 rsp, 72			; 00000048H

; 41   :     switch (slice->kind) {

  00009	48 8b 44 24 50	 mov	 rax, QWORD PTR slice$[rsp]
  0000e	8b 00		 mov	 eax, DWORD PTR [rax]
  00010	89 44 24 24	 mov	 DWORD PTR tv64[rsp], eax
  00014	83 7c 24 24 01	 cmp	 DWORD PTR tv64[rsp], 1
  00019	74 1b		 je	 SHORT $LN9@validate_s
  0001b	83 7c 24 24 02	 cmp	 DWORD PTR tv64[rsp], 2
  00020	0f 84 94 00 00
	00		 je	 $LN8@validate_s
  00026	83 7c 24 24 03	 cmp	 DWORD PTR tv64[rsp], 3
  0002b	0f 84 21 01 00
	00		 je	 $LN2@validate_s
  00031	e9 31 01 00 00	 jmp	 $LN1@validate_s
$LN9@validate_s:

; 42   :     case Slice_kind:
; 43   :         return (!slice->v.Slice.lower || validate_expr(slice->v.Slice.lower, Load)) &&
; 44   :             (!slice->v.Slice.upper || validate_expr(slice->v.Slice.upper, Load)) &&
; 45   :             (!slice->v.Slice.step || validate_expr(slice->v.Slice.step, Load));

  00036	48 8b 44 24 50	 mov	 rax, QWORD PTR slice$[rsp]
  0003b	48 83 78 08 00	 cmp	 QWORD PTR [rax+8], 0
  00040	74 17		 je	 SHORT $LN14@validate_s
  00042	ba 01 00 00 00	 mov	 edx, 1
  00047	48 8b 44 24 50	 mov	 rax, QWORD PTR slice$[rsp]
  0004c	48 8b 48 08	 mov	 rcx, QWORD PTR [rax+8]
  00050	e8 00 00 00 00	 call	 validate_expr
  00055	85 c0		 test	 eax, eax
  00057	74 50		 je	 SHORT $LN16@validate_s
$LN14@validate_s:
  00059	48 8b 44 24 50	 mov	 rax, QWORD PTR slice$[rsp]
  0005e	48 83 78 10 00	 cmp	 QWORD PTR [rax+16], 0
  00063	74 17		 je	 SHORT $LN15@validate_s
  00065	ba 01 00 00 00	 mov	 edx, 1
  0006a	48 8b 44 24 50	 mov	 rax, QWORD PTR slice$[rsp]
  0006f	48 8b 48 10	 mov	 rcx, QWORD PTR [rax+16]
  00073	e8 00 00 00 00	 call	 validate_expr
  00078	85 c0		 test	 eax, eax
  0007a	74 2d		 je	 SHORT $LN16@validate_s
$LN15@validate_s:
  0007c	48 8b 44 24 50	 mov	 rax, QWORD PTR slice$[rsp]
  00081	48 83 78 18 00	 cmp	 QWORD PTR [rax+24], 0
  00086	74 17		 je	 SHORT $LN17@validate_s
  00088	ba 01 00 00 00	 mov	 edx, 1
  0008d	48 8b 44 24 50	 mov	 rax, QWORD PTR slice$[rsp]
  00092	48 8b 48 18	 mov	 rcx, QWORD PTR [rax+24]
  00096	e8 00 00 00 00	 call	 validate_expr
  0009b	85 c0		 test	 eax, eax
  0009d	74 0a		 je	 SHORT $LN16@validate_s
$LN17@validate_s:
  0009f	c7 44 24 28 01
	00 00 00	 mov	 DWORD PTR tv86[rsp], 1
  000a7	eb 08		 jmp	 SHORT $LN18@validate_s
$LN16@validate_s:
  000a9	c7 44 24 28 00
	00 00 00	 mov	 DWORD PTR tv86[rsp], 0
$LN18@validate_s:
  000b1	8b 44 24 28	 mov	 eax, DWORD PTR tv86[rsp]
  000b5	e9 c2 00 00 00	 jmp	 $LN12@validate_s
$LN8@validate_s:

; 46   :     case ExtSlice_kind: {
; 47   :         int i;
; 48   :         if (!validate_nonempty_seq(slice->v.ExtSlice.dims, "dims", "ExtSlice"))

  000ba	4c 8d 05 00 00
	00 00		 lea	 r8, OFFSET FLAT:??_C@_08CIIMGBAD@ExtSlice?$AA@
  000c1	48 8d 15 00 00
	00 00		 lea	 rdx, OFFSET FLAT:??_C@_04FHFMBDKA@dims?$AA@
  000c8	48 8b 44 24 50	 mov	 rax, QWORD PTR slice$[rsp]
  000cd	48 8b 48 08	 mov	 rcx, QWORD PTR [rax+8]
  000d1	e8 00 00 00 00	 call	 validate_nonempty_seq
  000d6	85 c0		 test	 eax, eax
  000d8	75 07		 jne	 SHORT $LN7@validate_s

; 49   :             return 0;

  000da	33 c0		 xor	 eax, eax
  000dc	e9 9b 00 00 00	 jmp	 $LN12@validate_s
$LN7@validate_s:

; 50   :         for (i = 0; i < asdl_seq_LEN(slice->v.ExtSlice.dims); i++)

  000e1	c7 44 24 20 00
	00 00 00	 mov	 DWORD PTR i$21554[rsp], 0
  000e9	eb 0a		 jmp	 SHORT $LN6@validate_s
$LN5@validate_s:
  000eb	8b 44 24 20	 mov	 eax, DWORD PTR i$21554[rsp]
  000ef	ff c0		 inc	 eax
  000f1	89 44 24 20	 mov	 DWORD PTR i$21554[rsp], eax
$LN6@validate_s:
  000f5	48 8b 44 24 50	 mov	 rax, QWORD PTR slice$[rsp]
  000fa	48 83 78 08 00	 cmp	 QWORD PTR [rax+8], 0
  000ff	75 0b		 jne	 SHORT $LN19@validate_s
  00101	48 c7 44 24 30
	00 00 00 00	 mov	 QWORD PTR tv131[rsp], 0
  0010a	eb 11		 jmp	 SHORT $LN20@validate_s
$LN19@validate_s:
  0010c	48 8b 44 24 50	 mov	 rax, QWORD PTR slice$[rsp]
  00111	48 8b 40 08	 mov	 rax, QWORD PTR [rax+8]
  00115	48 8b 00	 mov	 rax, QWORD PTR [rax]
  00118	48 89 44 24 30	 mov	 QWORD PTR tv131[rsp], rax
$LN20@validate_s:
  0011d	48 63 44 24 20	 movsxd	 rax, DWORD PTR i$21554[rsp]
  00122	48 3b 44 24 30	 cmp	 rax, QWORD PTR tv131[rsp]
  00127	7d 22		 jge	 SHORT $LN4@validate_s

; 51   :             if (!validate_slice(asdl_seq_GET(slice->v.ExtSlice.dims, i)))

  00129	48 8b 44 24 50	 mov	 rax, QWORD PTR slice$[rsp]
  0012e	48 8b 40 08	 mov	 rax, QWORD PTR [rax+8]
  00132	48 63 4c 24 20	 movsxd	 rcx, DWORD PTR i$21554[rsp]
  00137	48 8b 4c c8 08	 mov	 rcx, QWORD PTR [rax+rcx*8+8]
  0013c	e8 00 00 00 00	 call	 validate_slice
  00141	85 c0		 test	 eax, eax
  00143	75 04		 jne	 SHORT $LN3@validate_s

; 52   :                 return 0;

  00145	33 c0		 xor	 eax, eax
  00147	eb 33		 jmp	 SHORT $LN12@validate_s
$LN3@validate_s:

; 53   :         return 1;

  00149	eb a0		 jmp	 SHORT $LN5@validate_s
$LN4@validate_s:
  0014b	b8 01 00 00 00	 mov	 eax, 1
  00150	eb 2a		 jmp	 SHORT $LN12@validate_s
$LN2@validate_s:

; 54   :     }
; 55   :     case Index_kind:
; 56   :         return validate_expr(slice->v.Index.value, Load);

  00152	ba 01 00 00 00	 mov	 edx, 1
  00157	48 8b 44 24 50	 mov	 rax, QWORD PTR slice$[rsp]
  0015c	48 8b 48 08	 mov	 rcx, QWORD PTR [rax+8]
  00160	e8 00 00 00 00	 call	 validate_expr
  00165	eb 15		 jmp	 SHORT $LN12@validate_s
$LN1@validate_s:

; 57   :     default:
; 58   :         PyErr_SetString(PyExc_SystemError, "unknown slice node");

  00167	48 8d 15 00 00
	00 00		 lea	 rdx, OFFSET FLAT:??_C@_0BD@PJEHJOKI@unknown?5slice?5node?$AA@
  0016e	48 8b 0d 00 00
	00 00		 mov	 rcx, QWORD PTR PyExc_SystemError
  00175	e8 00 00 00 00	 call	 PyErr_SetString

; 59   :         return 0;

  0017a	33 c0		 xor	 eax, eax
$LN12@validate_s:

; 60   :     }
; 61   : }

  0017c	48 83 c4 48	 add	 rsp, 72			; 00000048H
  00180	c3		 ret	 0
validate_slice ENDP
_TEXT	ENDS
;	COMDAT pdata
pdata	SEGMENT
$pdata$validate_keywords DD imagerel validate_keywords
	DD	imagerel validate_keywords+122
	DD	imagerel $unwind$validate_keywords
pdata	ENDS
;	COMDAT xdata
xdata	SEGMENT
$unwind$validate_keywords DD 010901H
	DD	06209H
; Function compile flags: /Odtp
xdata	ENDS
;	COMDAT validate_keywords
_TEXT	SEGMENT
i$ = 32
tv67 = 40
keywords$ = 64
validate_keywords PROC					; COMDAT

; 65   : {

  00000	48 89 4c 24 08	 mov	 QWORD PTR [rsp+8], rcx
  00005	48 83 ec 38	 sub	 rsp, 56			; 00000038H

; 66   :     int i;
; 67   :     for (i = 0; i < asdl_seq_LEN(keywords); i++)

  00009	c7 44 24 20 00
	00 00 00	 mov	 DWORD PTR i$[rsp], 0
  00011	eb 0a		 jmp	 SHORT $LN4@validate_k
$LN3@validate_k:
  00013	8b 44 24 20	 mov	 eax, DWORD PTR i$[rsp]
  00017	ff c0		 inc	 eax
  00019	89 44 24 20	 mov	 DWORD PTR i$[rsp], eax
$LN4@validate_k:
  0001d	48 83 7c 24 40
	00		 cmp	 QWORD PTR keywords$[rsp], 0
  00023	75 0b		 jne	 SHORT $LN7@validate_k
  00025	48 c7 44 24 28
	00 00 00 00	 mov	 QWORD PTR tv67[rsp], 0
  0002e	eb 0d		 jmp	 SHORT $LN8@validate_k
$LN7@validate_k:
  00030	48 8b 44 24 40	 mov	 rax, QWORD PTR keywords$[rsp]
  00035	48 8b 00	 mov	 rax, QWORD PTR [rax]
  00038	48 89 44 24 28	 mov	 QWORD PTR tv67[rsp], rax
$LN8@validate_k:
  0003d	48 63 44 24 20	 movsxd	 rax, DWORD PTR i$[rsp]
  00042	48 3b 44 24 28	 cmp	 rax, QWORD PTR tv67[rsp]
  00047	7d 27		 jge	 SHORT $LN2@validate_k

; 68   :         if (!validate_expr(((keyword_ty)asdl_seq_GET(keywords, i))->value, Load))

  00049	48 63 44 24 20	 movsxd	 rax, DWORD PTR i$[rsp]
  0004e	48 8b 4c 24 40	 mov	 rcx, QWORD PTR keywords$[rsp]
  00053	48 8b 44 c1 08	 mov	 rax, QWORD PTR [rcx+rax*8+8]
  00058	ba 01 00 00 00	 mov	 edx, 1
  0005d	48 8b 48 08	 mov	 rcx, QWORD PTR [rax+8]
  00061	e8 00 00 00 00	 call	 validate_expr
  00066	85 c0		 test	 eax, eax
  00068	75 04		 jne	 SHORT $LN1@validate_k

; 69   :             return 0;

  0006a	33 c0		 xor	 eax, eax
  0006c	eb 07		 jmp	 SHORT $LN5@validate_k
$LN1@validate_k:

; 70   :     return 1;

  0006e	eb a3		 jmp	 SHORT $LN3@validate_k
$LN2@validate_k:
  00070	b8 01 00 00 00	 mov	 eax, 1
$LN5@validate_k:

; 71   : }

  00075	48 83 c4 38	 add	 rsp, 56			; 00000038H
  00079	c3		 ret	 0
validate_keywords ENDP
_TEXT	ENDS
PUBLIC	??_C@_09GPGAJHPD@?$CIunknown?$CJ?$AA@		; `string'
PUBLIC	??_C@_13COJANIEC@?$AA0?$AA?$AA@			; `string'
PUBLIC	??_C@_1CA@FDBOFCJB@?$AA?4?$AA?4?$AA?2?$AAP?$AAy?$AAt?$AAh?$AAo?$AAn?$AA?2?$AAa?$AAs?$AAt?$AA?4?$AAc?$AA?$AA@ ; `string'
PUBLIC	??_C@_05LOJBNELM@Param?$AA@			; `string'
PUBLIC	??_C@_08NAEMOJFF@AugStore?$AA@			; `string'
PUBLIC	??_C@_07GCIJHPCC@AugLoad?$AA@			; `string'
PUBLIC	??_C@_03ENJJMCOJ@Del?$AA@			; `string'
PUBLIC	??_C@_05OEMPKGID@Store?$AA@			; `string'
PUBLIC	??_C@_04IPBPFFEL@Load?$AA@			; `string'
EXTRN	__imp__wassert:PROC
;	COMDAT pdata
pdata	SEGMENT
$pdata$expr_context_name DD imagerel expr_context_name
	DD	imagerel expr_context_name+184
	DD	imagerel $unwind$expr_context_name
pdata	ENDS
;	COMDAT xdata
xdata	SEGMENT
$unwind$expr_context_name DD 010801H
	DD	06208H
xdata	ENDS
;	COMDAT ??_C@_09GPGAJHPD@?$CIunknown?$CJ?$AA@
CONST	SEGMENT
??_C@_09GPGAJHPD@?$CIunknown?$CJ?$AA@ DB '(unknown)', 00H ; `string'
CONST	ENDS
;	COMDAT ??_C@_13COJANIEC@?$AA0?$AA?$AA@
CONST	SEGMENT
??_C@_13COJANIEC@?$AA0?$AA?$AA@ DB '0', 00H, 00H, 00H	; `string'
CONST	ENDS
;	COMDAT ??_C@_1CA@FDBOFCJB@?$AA?4?$AA?4?$AA?2?$AAP?$AAy?$AAt?$AAh?$AAo?$AAn?$AA?2?$AAa?$AAs?$AAt?$AA?4?$AAc?$AA?$AA@
CONST	SEGMENT
??_C@_1CA@FDBOFCJB@?$AA?4?$AA?4?$AA?2?$AAP?$AAy?$AAt?$AAh?$AAo?$AAn?$AA?2?$AAa?$AAs?$AAt?$AA?4?$AAc?$AA?$AA@ DB '.'
	DB	00H, '.', 00H, '\', 00H, 'P', 00H, 'y', 00H, 't', 00H, 'h', 00H
	DB	'o', 00H, 'n', 00H, '\', 00H, 'a', 00H, 's', 00H, 't', 00H, '.'
	DB	00H, 'c', 00H, 00H, 00H			; `string'
CONST	ENDS
;	COMDAT ??_C@_05LOJBNELM@Param?$AA@
CONST	SEGMENT
??_C@_05LOJBNELM@Param?$AA@ DB 'Param', 00H		; `string'
CONST	ENDS
;	COMDAT ??_C@_08NAEMOJFF@AugStore?$AA@
CONST	SEGMENT
??_C@_08NAEMOJFF@AugStore?$AA@ DB 'AugStore', 00H	; `string'
CONST	ENDS
;	COMDAT ??_C@_07GCIJHPCC@AugLoad?$AA@
CONST	SEGMENT
??_C@_07GCIJHPCC@AugLoad?$AA@ DB 'AugLoad', 00H		; `string'
CONST	ENDS
;	COMDAT ??_C@_03ENJJMCOJ@Del?$AA@
CONST	SEGMENT
??_C@_03ENJJMCOJ@Del?$AA@ DB 'Del', 00H			; `string'
CONST	ENDS
;	COMDAT ??_C@_05OEMPKGID@Store?$AA@
CONST	SEGMENT
??_C@_05OEMPKGID@Store?$AA@ DB 'Store', 00H		; `string'
CONST	ENDS
;	COMDAT ??_C@_04IPBPFFEL@Load?$AA@
CONST	SEGMENT
??_C@_04IPBPFFEL@Load?$AA@ DB 'Load', 00H		; `string'
; Function compile flags: /Odtp
CONST	ENDS
;	COMDAT expr_context_name
_TEXT	SEGMENT
tv64 = 32
ctx$ = 64
expr_context_name PROC					; COMDAT

; 87   : {

  00000	89 4c 24 08	 mov	 DWORD PTR [rsp+8], ecx
  00004	48 83 ec 38	 sub	 rsp, 56			; 00000038H

; 88   :     switch (ctx) {

  00008	8b 44 24 40	 mov	 eax, DWORD PTR ctx$[rsp]
  0000c	89 44 24 20	 mov	 DWORD PTR tv64[rsp], eax
  00010	8b 44 24 20	 mov	 eax, DWORD PTR tv64[rsp]
  00014	ff c8		 dec	 eax
  00016	89 44 24 20	 mov	 DWORD PTR tv64[rsp], eax
  0001a	83 7c 24 20 05	 cmp	 DWORD PTR tv64[rsp], 5
  0001f	77 4e		 ja	 SHORT $LN1@expr_conte
  00021	48 63 44 24 20	 movsxd	 rax, DWORD PTR tv64[rsp]
  00026	48 8d 0d 00 00
	00 00		 lea	 rcx, OFFSET FLAT:__ImageBase
  0002d	8b 84 81 00 00
	00 00		 mov	 eax, DWORD PTR $LN13@expr_conte[rcx+rax*4]
  00034	48 03 c1	 add	 rax, rcx
  00037	ff e0		 jmp	 rax
$LN7@expr_conte:

; 89   :     case Load:
; 90   :         return "Load";

  00039	48 8d 05 00 00
	00 00		 lea	 rax, OFFSET FLAT:??_C@_04IPBPFFEL@Load?$AA@
  00040	eb 56		 jmp	 SHORT $LN10@expr_conte
$LN6@expr_conte:

; 91   :     case Store:
; 92   :         return "Store";

  00042	48 8d 05 00 00
	00 00		 lea	 rax, OFFSET FLAT:??_C@_05OEMPKGID@Store?$AA@
  00049	eb 4d		 jmp	 SHORT $LN10@expr_conte
$LN5@expr_conte:

; 93   :     case Del:
; 94   :         return "Del";

  0004b	48 8d 05 00 00
	00 00		 lea	 rax, OFFSET FLAT:??_C@_03ENJJMCOJ@Del?$AA@
  00052	eb 44		 jmp	 SHORT $LN10@expr_conte
$LN4@expr_conte:

; 95   :     case AugLoad:
; 96   :         return "AugLoad";

  00054	48 8d 05 00 00
	00 00		 lea	 rax, OFFSET FLAT:??_C@_07GCIJHPCC@AugLoad?$AA@
  0005b	eb 3b		 jmp	 SHORT $LN10@expr_conte
$LN3@expr_conte:

; 97   :     case AugStore:
; 98   :         return "AugStore";

  0005d	48 8d 05 00 00
	00 00		 lea	 rax, OFFSET FLAT:??_C@_08NAEMOJFF@AugStore?$AA@
  00064	eb 32		 jmp	 SHORT $LN10@expr_conte
$LN2@expr_conte:

; 99   :     case Param:
; 100  :         return "Param";

  00066	48 8d 05 00 00
	00 00		 lea	 rax, OFFSET FLAT:??_C@_05LOJBNELM@Param?$AA@
  0006d	eb 29		 jmp	 SHORT $LN10@expr_conte
$LN1@expr_conte:

; 101  :     default:
; 102  :         assert(0);

  0006f	33 c0		 xor	 eax, eax
  00071	85 c0		 test	 eax, eax
  00073	75 1c		 jne	 SHORT $LN12@expr_conte
  00075	41 b8 66 00 00
	00		 mov	 r8d, 102		; 00000066H
  0007b	48 8d 15 00 00
	00 00		 lea	 rdx, OFFSET FLAT:??_C@_1CA@FDBOFCJB@?$AA?4?$AA?4?$AA?2?$AAP?$AAy?$AAt?$AAh?$AAo?$AAn?$AA?2?$AAa?$AAs?$AAt?$AA?4?$AAc?$AA?$AA@
  00082	48 8d 0d 00 00
	00 00		 lea	 rcx, OFFSET FLAT:??_C@_13COJANIEC@?$AA0?$AA?$AA@
  00089	ff 15 00 00 00
	00		 call	 QWORD PTR __imp__wassert
  0008f	33 c0		 xor	 eax, eax
$LN12@expr_conte:

; 103  :         return "(unknown)";

  00091	48 8d 05 00 00
	00 00		 lea	 rax, OFFSET FLAT:??_C@_09GPGAJHPD@?$CIunknown?$CJ?$AA@
$LN10@expr_conte:

; 104  :     }
; 105  : }

  00098	48 83 c4 38	 add	 rsp, 56			; 00000038H
  0009c	c3		 ret	 0
  0009d	0f 1f 00	 npad	 3
$LN13@expr_conte:
  000a0	00 00 00 00	 DD	 $LN7@expr_conte
  000a4	00 00 00 00	 DD	 $LN6@expr_conte
  000a8	00 00 00 00	 DD	 $LN5@expr_conte
  000ac	00 00 00 00	 DD	 $LN4@expr_conte
  000b0	00 00 00 00	 DD	 $LN3@expr_conte
  000b4	00 00 00 00	 DD	 $LN2@expr_conte
expr_context_name ENDP
_TEXT	ENDS
PUBLIC	??_C@_0EB@KMIALOCA@length?5of?5kwonlyargs?5is?5not?5the?5@ ; `string'
PUBLIC	??_C@_0DA@BMNOANML@more?5positional?5defaults?5than?5ar@ ; `string'
PUBLIC	??_C@_0CK@OLHMKKCI@kwargannotation?5but?5no?5kwarg?5on?5@ ; `string'
PUBLIC	??_C@_0CM@FFNDHJIA@varargannotation?5but?5no?5vararg?5o@ ; `string'
;	COMDAT pdata
pdata	SEGMENT
$pdata$validate_arguments DD imagerel validate_arguments
	DD	imagerel validate_arguments+531
	DD	imagerel $unwind$validate_arguments
pdata	ENDS
;	COMDAT xdata
xdata	SEGMENT
$unwind$validate_arguments DD 010901H
	DD	0a209H
xdata	ENDS
;	COMDAT ??_C@_0EB@KMIALOCA@length?5of?5kwonlyargs?5is?5not?5the?5@
CONST	SEGMENT
??_C@_0EB@KMIALOCA@length?5of?5kwonlyargs?5is?5not?5the?5@ DB 'length of '
	DB	'kwonlyargs is not the same as kw_defaults on arguments', 00H ; `string'
CONST	ENDS
;	COMDAT ??_C@_0DA@BMNOANML@more?5positional?5defaults?5than?5ar@
CONST	SEGMENT
??_C@_0DA@BMNOANML@more?5positional?5defaults?5than?5ar@ DB 'more positio'
	DB	'nal defaults than args on arguments', 00H	; `string'
CONST	ENDS
;	COMDAT ??_C@_0CK@OLHMKKCI@kwargannotation?5but?5no?5kwarg?5on?5@
CONST	SEGMENT
??_C@_0CK@OLHMKKCI@kwargannotation?5but?5no?5kwarg?5on?5@ DB 'kwargannota'
	DB	'tion but no kwarg on arguments', 00H	; `string'
CONST	ENDS
;	COMDAT ??_C@_0CM@FFNDHJIA@varargannotation?5but?5no?5vararg?5o@
CONST	SEGMENT
??_C@_0CM@FFNDHJIA@varargannotation?5but?5no?5vararg?5o@ DB 'varargannota'
	DB	'tion but no vararg on arguments', 00H	; `string'
; Function compile flags: /Odtp
CONST	ENDS
;	COMDAT validate_arguments
_TEXT	SEGMENT
tv129 = 32
tv132 = 40
tv140 = 48
tv145 = 56
tv161 = 64
args$ = 96
validate_arguments PROC					; COMDAT

; 109  : {

  00000	48 89 4c 24 08	 mov	 QWORD PTR [rsp+8], rcx
  00005	48 83 ec 58	 sub	 rsp, 88			; 00000058H

; 110  :     if (!validate_args(args->args))

  00009	48 8b 44 24 60	 mov	 rax, QWORD PTR args$[rsp]
  0000e	48 8b 08	 mov	 rcx, QWORD PTR [rax]
  00011	e8 00 00 00 00	 call	 validate_args
  00016	85 c0		 test	 eax, eax
  00018	75 07		 jne	 SHORT $LN10@validate_a

; 111  :         return 0;

  0001a	33 c0		 xor	 eax, eax
  0001c	e9 ed 01 00 00	 jmp	 $LN11@validate_a
$LN10@validate_a:

; 112  :     if (args->varargannotation) {

  00021	48 8b 44 24 60	 mov	 rax, QWORD PTR args$[rsp]
  00026	48 83 78 10 00	 cmp	 QWORD PTR [rax+16], 0
  0002b	74 44		 je	 SHORT $LN9@validate_a

; 113  :         if (!args->vararg) {

  0002d	48 8b 44 24 60	 mov	 rax, QWORD PTR args$[rsp]
  00032	48 83 78 08 00	 cmp	 QWORD PTR [rax+8], 0
  00037	75 1a		 jne	 SHORT $LN8@validate_a

; 114  :             PyErr_SetString(PyExc_ValueError, "varargannotation but no vararg on arguments");

  00039	48 8d 15 00 00
	00 00		 lea	 rdx, OFFSET FLAT:??_C@_0CM@FFNDHJIA@varargannotation?5but?5no?5vararg?5o@
  00040	48 8b 0d 00 00
	00 00		 mov	 rcx, QWORD PTR PyExc_ValueError
  00047	e8 00 00 00 00	 call	 PyErr_SetString

; 115  :             return 0;

  0004c	33 c0		 xor	 eax, eax
  0004e	e9 bb 01 00 00	 jmp	 $LN11@validate_a
$LN8@validate_a:

; 116  :         }
; 117  :         if (!validate_expr(args->varargannotation, Load))

  00053	ba 01 00 00 00	 mov	 edx, 1
  00058	48 8b 44 24 60	 mov	 rax, QWORD PTR args$[rsp]
  0005d	48 8b 48 10	 mov	 rcx, QWORD PTR [rax+16]
  00061	e8 00 00 00 00	 call	 validate_expr
  00066	85 c0		 test	 eax, eax
  00068	75 07		 jne	 SHORT $LN7@validate_a

; 118  :             return 0;

  0006a	33 c0		 xor	 eax, eax
  0006c	e9 9d 01 00 00	 jmp	 $LN11@validate_a
$LN7@validate_a:
$LN9@validate_a:

; 119  :     }
; 120  :     if (!validate_args(args->kwonlyargs))

  00071	48 8b 44 24 60	 mov	 rax, QWORD PTR args$[rsp]
  00076	48 8b 48 18	 mov	 rcx, QWORD PTR [rax+24]
  0007a	e8 00 00 00 00	 call	 validate_args
  0007f	85 c0		 test	 eax, eax
  00081	75 07		 jne	 SHORT $LN6@validate_a

; 121  :         return 0;

  00083	33 c0		 xor	 eax, eax
  00085	e9 84 01 00 00	 jmp	 $LN11@validate_a
$LN6@validate_a:

; 122  :     if (args->kwargannotation) {

  0008a	48 8b 44 24 60	 mov	 rax, QWORD PTR args$[rsp]
  0008f	48 83 78 28 00	 cmp	 QWORD PTR [rax+40], 0
  00094	74 44		 je	 SHORT $LN5@validate_a

; 123  :         if (!args->kwarg) {

  00096	48 8b 44 24 60	 mov	 rax, QWORD PTR args$[rsp]
  0009b	48 83 78 20 00	 cmp	 QWORD PTR [rax+32], 0
  000a0	75 1a		 jne	 SHORT $LN4@validate_a

; 124  :             PyErr_SetString(PyExc_ValueError, "kwargannotation but no kwarg on arguments");

  000a2	48 8d 15 00 00
	00 00		 lea	 rdx, OFFSET FLAT:??_C@_0CK@OLHMKKCI@kwargannotation?5but?5no?5kwarg?5on?5@
  000a9	48 8b 0d 00 00
	00 00		 mov	 rcx, QWORD PTR PyExc_ValueError
  000b0	e8 00 00 00 00	 call	 PyErr_SetString

; 125  :             return 0;

  000b5	33 c0		 xor	 eax, eax
  000b7	e9 52 01 00 00	 jmp	 $LN11@validate_a
$LN4@validate_a:

; 126  :         }
; 127  :         if (!validate_expr(args->kwargannotation, Load))

  000bc	ba 01 00 00 00	 mov	 edx, 1
  000c1	48 8b 44 24 60	 mov	 rax, QWORD PTR args$[rsp]
  000c6	48 8b 48 28	 mov	 rcx, QWORD PTR [rax+40]
  000ca	e8 00 00 00 00	 call	 validate_expr
  000cf	85 c0		 test	 eax, eax
  000d1	75 07		 jne	 SHORT $LN3@validate_a

; 128  :             return 0;

  000d3	33 c0		 xor	 eax, eax
  000d5	e9 34 01 00 00	 jmp	 $LN11@validate_a
$LN3@validate_a:
$LN5@validate_a:

; 129  :     }
; 130  :     if (asdl_seq_LEN(args->defaults) > asdl_seq_LEN(args->args)) {

  000da	48 8b 44 24 60	 mov	 rax, QWORD PTR args$[rsp]
  000df	48 83 78 30 00	 cmp	 QWORD PTR [rax+48], 0
  000e4	75 0b		 jne	 SHORT $LN13@validate_a
  000e6	48 c7 44 24 20
	00 00 00 00	 mov	 QWORD PTR tv129[rsp], 0
  000ef	eb 11		 jmp	 SHORT $LN14@validate_a
$LN13@validate_a:
  000f1	48 8b 44 24 60	 mov	 rax, QWORD PTR args$[rsp]
  000f6	48 8b 40 30	 mov	 rax, QWORD PTR [rax+48]
  000fa	48 8b 00	 mov	 rax, QWORD PTR [rax]
  000fd	48 89 44 24 20	 mov	 QWORD PTR tv129[rsp], rax
$LN14@validate_a:
  00102	48 8b 44 24 60	 mov	 rax, QWORD PTR args$[rsp]
  00107	48 83 38 00	 cmp	 QWORD PTR [rax], 0
  0010b	75 0b		 jne	 SHORT $LN15@validate_a
  0010d	48 c7 44 24 28
	00 00 00 00	 mov	 QWORD PTR tv132[rsp], 0
  00116	eb 10		 jmp	 SHORT $LN16@validate_a
$LN15@validate_a:
  00118	48 8b 44 24 60	 mov	 rax, QWORD PTR args$[rsp]
  0011d	48 8b 00	 mov	 rax, QWORD PTR [rax]
  00120	48 8b 00	 mov	 rax, QWORD PTR [rax]
  00123	48 89 44 24 28	 mov	 QWORD PTR tv132[rsp], rax
$LN16@validate_a:
  00128	48 8b 44 24 28	 mov	 rax, QWORD PTR tv132[rsp]
  0012d	48 39 44 24 20	 cmp	 QWORD PTR tv129[rsp], rax
  00132	7e 1a		 jle	 SHORT $LN2@validate_a

; 131  :         PyErr_SetString(PyExc_ValueError, "more positional defaults than args on arguments");

  00134	48 8d 15 00 00
	00 00		 lea	 rdx, OFFSET FLAT:??_C@_0DA@BMNOANML@more?5positional?5defaults?5than?5ar@
  0013b	48 8b 0d 00 00
	00 00		 mov	 rcx, QWORD PTR PyExc_ValueError
  00142	e8 00 00 00 00	 call	 PyErr_SetString

; 132  :         return 0;

  00147	33 c0		 xor	 eax, eax
  00149	e9 c0 00 00 00	 jmp	 $LN11@validate_a
$LN2@validate_a:

; 133  :     }
; 134  :     if (asdl_seq_LEN(args->kw_defaults) != asdl_seq_LEN(args->kwonlyargs)) {

  0014e	48 8b 44 24 60	 mov	 rax, QWORD PTR args$[rsp]
  00153	48 83 78 38 00	 cmp	 QWORD PTR [rax+56], 0
  00158	75 0b		 jne	 SHORT $LN17@validate_a
  0015a	48 c7 44 24 30
	00 00 00 00	 mov	 QWORD PTR tv140[rsp], 0
  00163	eb 11		 jmp	 SHORT $LN18@validate_a
$LN17@validate_a:
  00165	48 8b 44 24 60	 mov	 rax, QWORD PTR args$[rsp]
  0016a	48 8b 40 38	 mov	 rax, QWORD PTR [rax+56]
  0016e	48 8b 00	 mov	 rax, QWORD PTR [rax]
  00171	48 89 44 24 30	 mov	 QWORD PTR tv140[rsp], rax
$LN18@validate_a:
  00176	48 8b 44 24 60	 mov	 rax, QWORD PTR args$[rsp]
  0017b	48 83 78 18 00	 cmp	 QWORD PTR [rax+24], 0
  00180	75 0b		 jne	 SHORT $LN19@validate_a
  00182	48 c7 44 24 38
	00 00 00 00	 mov	 QWORD PTR tv145[rsp], 0
  0018b	eb 11		 jmp	 SHORT $LN20@validate_a
$LN19@validate_a:
  0018d	48 8b 44 24 60	 mov	 rax, QWORD PTR args$[rsp]
  00192	48 8b 40 18	 mov	 rax, QWORD PTR [rax+24]
  00196	48 8b 00	 mov	 rax, QWORD PTR [rax]
  00199	48 89 44 24 38	 mov	 QWORD PTR tv145[rsp], rax
$LN20@validate_a:
  0019e	48 8b 44 24 38	 mov	 rax, QWORD PTR tv145[rsp]
  001a3	48 39 44 24 30	 cmp	 QWORD PTR tv140[rsp], rax
  001a8	74 17		 je	 SHORT $LN1@validate_a

; 135  :         PyErr_SetString(PyExc_ValueError, "length of kwonlyargs is not the same as "
; 136  :                         "kw_defaults on arguments");

  001aa	48 8d 15 00 00
	00 00		 lea	 rdx, OFFSET FLAT:??_C@_0EB@KMIALOCA@length?5of?5kwonlyargs?5is?5not?5the?5@
  001b1	48 8b 0d 00 00
	00 00		 mov	 rcx, QWORD PTR PyExc_ValueError
  001b8	e8 00 00 00 00	 call	 PyErr_SetString

; 137  :         return 0;

  001bd	33 c0		 xor	 eax, eax
  001bf	eb 4d		 jmp	 SHORT $LN11@validate_a
$LN1@validate_a:

; 138  :     }
; 139  :     return validate_exprs(args->defaults, Load, 0) && validate_exprs(args->kw_defaults, Load, 1);

  001c1	45 33 c0	 xor	 r8d, r8d
  001c4	ba 01 00 00 00	 mov	 edx, 1
  001c9	48 8b 44 24 60	 mov	 rax, QWORD PTR args$[rsp]
  001ce	48 8b 48 30	 mov	 rcx, QWORD PTR [rax+48]
  001d2	e8 00 00 00 00	 call	 validate_exprs
  001d7	85 c0		 test	 eax, eax
  001d9	74 27		 je	 SHORT $LN21@validate_a
  001db	41 b8 01 00 00
	00		 mov	 r8d, 1
  001e1	ba 01 00 00 00	 mov	 edx, 1
  001e6	48 8b 44 24 60	 mov	 rax, QWORD PTR args$[rsp]
  001eb	48 8b 48 38	 mov	 rcx, QWORD PTR [rax+56]
  001ef	e8 00 00 00 00	 call	 validate_exprs
  001f4	85 c0		 test	 eax, eax
  001f6	74 0a		 je	 SHORT $LN21@validate_a
  001f8	c7 44 24 40 01
	00 00 00	 mov	 DWORD PTR tv161[rsp], 1
  00200	eb 08		 jmp	 SHORT $LN22@validate_a
$LN21@validate_a:
  00202	c7 44 24 40 00
	00 00 00	 mov	 DWORD PTR tv161[rsp], 0
$LN22@validate_a:
  0020a	8b 44 24 40	 mov	 eax, DWORD PTR tv161[rsp]
$LN11@validate_a:

; 140  : }

  0020e	48 83 c4 58	 add	 rsp, 88			; 00000058H
  00212	c3		 ret	 0
validate_arguments ENDP
_TEXT	ENDS
;	COMDAT pdata
pdata	SEGMENT
$pdata$validate_args DD imagerel validate_args
	DD	imagerel validate_args+144
	DD	imagerel $unwind$validate_args
pdata	ENDS
;	COMDAT xdata
xdata	SEGMENT
$unwind$validate_args DD 010901H
	DD	08209H
; Function compile flags: /Odtp
xdata	ENDS
;	COMDAT validate_args
_TEXT	SEGMENT
i$ = 32
arg$21586 = 40
tv67 = 48
args$ = 80
validate_args PROC					; COMDAT

; 75   : {

  00000	48 89 4c 24 08	 mov	 QWORD PTR [rsp+8], rcx
  00005	48 83 ec 48	 sub	 rsp, 72			; 00000048H

; 76   :     int i;
; 77   :     for (i = 0; i < asdl_seq_LEN(args); i++) {

  00009	c7 44 24 20 00
	00 00 00	 mov	 DWORD PTR i$[rsp], 0
  00011	eb 0a		 jmp	 SHORT $LN4@validate_a@2
$LN3@validate_a@2:
  00013	8b 44 24 20	 mov	 eax, DWORD PTR i$[rsp]
  00017	ff c0		 inc	 eax
  00019	89 44 24 20	 mov	 DWORD PTR i$[rsp], eax
$LN4@validate_a@2:
  0001d	48 83 7c 24 50
	00		 cmp	 QWORD PTR args$[rsp], 0
  00023	75 0b		 jne	 SHORT $LN7@validate_a@2
  00025	48 c7 44 24 30
	00 00 00 00	 mov	 QWORD PTR tv67[rsp], 0
  0002e	eb 0d		 jmp	 SHORT $LN8@validate_a@2
$LN7@validate_a@2:
  00030	48 8b 44 24 50	 mov	 rax, QWORD PTR args$[rsp]
  00035	48 8b 00	 mov	 rax, QWORD PTR [rax]
  00038	48 89 44 24 30	 mov	 QWORD PTR tv67[rsp], rax
$LN8@validate_a@2:
  0003d	48 63 44 24 20	 movsxd	 rax, DWORD PTR i$[rsp]
  00042	48 3b 44 24 30	 cmp	 rax, QWORD PTR tv67[rsp]
  00047	7d 3d		 jge	 SHORT $LN2@validate_a@2

; 78   :         arg_ty arg = asdl_seq_GET(args, i);

  00049	48 63 44 24 20	 movsxd	 rax, DWORD PTR i$[rsp]
  0004e	48 8b 4c 24 50	 mov	 rcx, QWORD PTR args$[rsp]
  00053	48 8b 44 c1 08	 mov	 rax, QWORD PTR [rcx+rax*8+8]
  00058	48 89 44 24 28	 mov	 QWORD PTR arg$21586[rsp], rax

; 79   :         if (arg->annotation && !validate_expr(arg->annotation, Load))

  0005d	48 8b 44 24 28	 mov	 rax, QWORD PTR arg$21586[rsp]
  00062	48 83 78 08 00	 cmp	 QWORD PTR [rax+8], 0
  00067	74 1b		 je	 SHORT $LN1@validate_a@2
  00069	ba 01 00 00 00	 mov	 edx, 1
  0006e	48 8b 44 24 28	 mov	 rax, QWORD PTR arg$21586[rsp]
  00073	48 8b 48 08	 mov	 rcx, QWORD PTR [rax+8]
  00077	e8 00 00 00 00	 call	 validate_expr
  0007c	85 c0		 test	 eax, eax
  0007e	75 04		 jne	 SHORT $LN1@validate_a@2

; 80   :             return 0;

  00080	33 c0		 xor	 eax, eax
  00082	eb 07		 jmp	 SHORT $LN5@validate_a@2
$LN1@validate_a@2:

; 81   :     }

  00084	eb 8d		 jmp	 SHORT $LN3@validate_a@2
$LN2@validate_a@2:

; 82   :     return 1;

  00086	b8 01 00 00 00	 mov	 eax, 1
$LN5@validate_a@2:

; 83   : }

  0008b	48 83 c4 48	 add	 rsp, 72			; 00000048H
  0008f	c3		 ret	 0
validate_args ENDP
_TEXT	ENDS
PUBLIC	??_C@_0P@FFDKEMAL@empty?5?$CFs?5on?5?$CFs?$AA@	; `string'
;	COMDAT pdata
pdata	SEGMENT
$pdata$validate_nonempty_seq DD imagerel validate_nonempty_seq
	DD	imagerel validate_nonempty_seq+102
	DD	imagerel $unwind$validate_nonempty_seq
pdata	ENDS
;	COMDAT xdata
xdata	SEGMENT
$unwind$validate_nonempty_seq DD 011301H
	DD	06213H
xdata	ENDS
;	COMDAT ??_C@_0P@FFDKEMAL@empty?5?$CFs?5on?5?$CFs?$AA@
CONST	SEGMENT
??_C@_0P@FFDKEMAL@empty?5?$CFs?5on?5?$CFs?$AA@ DB 'empty %s on %s', 00H ; `string'
; Function compile flags: /Odtp
CONST	ENDS
;	COMDAT validate_nonempty_seq
_TEXT	SEGMENT
tv65 = 32
seq$ = 64
what$ = 72
owner$ = 80
validate_nonempty_seq PROC				; COMDAT

; 295  : {

  00000	4c 89 44 24 18	 mov	 QWORD PTR [rsp+24], r8
  00005	48 89 54 24 10	 mov	 QWORD PTR [rsp+16], rdx
  0000a	48 89 4c 24 08	 mov	 QWORD PTR [rsp+8], rcx
  0000f	48 83 ec 38	 sub	 rsp, 56			; 00000038H

; 296  :     if (asdl_seq_LEN(seq))

  00013	48 83 7c 24 40
	00		 cmp	 QWORD PTR seq$[rsp], 0
  00019	75 0b		 jne	 SHORT $LN4@validate_n
  0001b	48 c7 44 24 20
	00 00 00 00	 mov	 QWORD PTR tv65[rsp], 0
  00024	eb 0d		 jmp	 SHORT $LN5@validate_n
$LN4@validate_n:
  00026	48 8b 44 24 40	 mov	 rax, QWORD PTR seq$[rsp]
  0002b	48 8b 00	 mov	 rax, QWORD PTR [rax]
  0002e	48 89 44 24 20	 mov	 QWORD PTR tv65[rsp], rax
$LN5@validate_n:
  00033	48 83 7c 24 20
	00		 cmp	 QWORD PTR tv65[rsp], 0
  00039	74 07		 je	 SHORT $LN1@validate_n

; 297  :         return 1;

  0003b	b8 01 00 00 00	 mov	 eax, 1
  00040	eb 1f		 jmp	 SHORT $LN2@validate_n
$LN1@validate_n:

; 298  :     PyErr_Format(PyExc_ValueError, "empty %s on %s", what, owner);

  00042	4c 8b 4c 24 50	 mov	 r9, QWORD PTR owner$[rsp]
  00047	4c 8b 44 24 48	 mov	 r8, QWORD PTR what$[rsp]
  0004c	48 8d 15 00 00
	00 00		 lea	 rdx, OFFSET FLAT:??_C@_0P@FFDKEMAL@empty?5?$CFs?5on?5?$CFs?$AA@
  00053	48 8b 0d 00 00
	00 00		 mov	 rcx, QWORD PTR PyExc_ValueError
  0005a	e8 00 00 00 00	 call	 PyErr_Format

; 299  :     return 0;

  0005f	33 c0		 xor	 eax, eax
$LN2@validate_n:

; 300  : }

  00061	48 83 c4 38	 add	 rsp, 56			; 00000038H
  00065	c3		 ret	 0
validate_nonempty_seq ENDP
_TEXT	ENDS
PUBLIC	??_C@_0CC@JCLOGNHN@None?5disallowed?5in?5statement?5lis@ ; `string'
;	COMDAT pdata
pdata	SEGMENT
$pdata$validate_stmts DD imagerel validate_stmts
	DD	imagerel validate_stmts+156
	DD	imagerel $unwind$validate_stmts
pdata	ENDS
;	COMDAT xdata
xdata	SEGMENT
$unwind$validate_stmts DD 010901H
	DD	08209H
xdata	ENDS
;	COMDAT ??_C@_0CC@JCLOGNHN@None?5disallowed?5in?5statement?5lis@
CONST	SEGMENT
??_C@_0CC@JCLOGNHN@None?5disallowed?5in?5statement?5lis@ DB 'None disallo'
	DB	'wed in statement list', 00H			; `string'
; Function compile flags: /Odtp
CONST	ENDS
;	COMDAT validate_stmts
_TEXT	SEGMENT
i$ = 32
stmt$21825 = 40
tv67 = 48
seq$ = 80
validate_stmts PROC					; COMDAT

; 429  : {

  00000	48 89 4c 24 08	 mov	 QWORD PTR [rsp+8], rcx
  00005	48 83 ec 48	 sub	 rsp, 72			; 00000048H

; 430  :     int i;
; 431  :     for (i = 0; i < asdl_seq_LEN(seq); i++) {

  00009	c7 44 24 20 00
	00 00 00	 mov	 DWORD PTR i$[rsp], 0
  00011	eb 0a		 jmp	 SHORT $LN6@validate_s@2
$LN5@validate_s@2:
  00013	8b 44 24 20	 mov	 eax, DWORD PTR i$[rsp]
  00017	ff c0		 inc	 eax
  00019	89 44 24 20	 mov	 DWORD PTR i$[rsp], eax
$LN6@validate_s@2:
  0001d	48 83 7c 24 50
	00		 cmp	 QWORD PTR seq$[rsp], 0
  00023	75 0b		 jne	 SHORT $LN9@validate_s@2
  00025	48 c7 44 24 30
	00 00 00 00	 mov	 QWORD PTR tv67[rsp], 0
  0002e	eb 0d		 jmp	 SHORT $LN10@validate_s@2
$LN9@validate_s@2:
  00030	48 8b 44 24 50	 mov	 rax, QWORD PTR seq$[rsp]
  00035	48 8b 00	 mov	 rax, QWORD PTR [rax]
  00038	48 89 44 24 30	 mov	 QWORD PTR tv67[rsp], rax
$LN10@validate_s@2:
  0003d	48 63 44 24 20	 movsxd	 rax, DWORD PTR i$[rsp]
  00042	48 3b 44 24 30	 cmp	 rax, QWORD PTR tv67[rsp]
  00047	7d 49		 jge	 SHORT $LN4@validate_s@2

; 432  :         stmt_ty stmt = asdl_seq_GET(seq, i);

  00049	48 63 44 24 20	 movsxd	 rax, DWORD PTR i$[rsp]
  0004e	48 8b 4c 24 50	 mov	 rcx, QWORD PTR seq$[rsp]
  00053	48 8b 44 c1 08	 mov	 rax, QWORD PTR [rcx+rax*8+8]
  00058	48 89 44 24 28	 mov	 QWORD PTR stmt$21825[rsp], rax

; 433  :         if (stmt) {

  0005d	48 83 7c 24 28
	00		 cmp	 QWORD PTR stmt$21825[rsp], 0
  00063	74 14		 je	 SHORT $LN3@validate_s@2

; 434  :             if (!validate_stmt(stmt))

  00065	48 8b 4c 24 28	 mov	 rcx, QWORD PTR stmt$21825[rsp]
  0006a	e8 00 00 00 00	 call	 validate_stmt
  0006f	85 c0		 test	 eax, eax
  00071	75 04		 jne	 SHORT $LN2@validate_s@2

; 435  :                 return 0;

  00073	33 c0		 xor	 eax, eax
  00075	eb 20		 jmp	 SHORT $LN7@validate_s@2
$LN2@validate_s@2:

; 436  :         }
; 437  :         else {

  00077	eb 17		 jmp	 SHORT $LN1@validate_s@2
$LN3@validate_s@2:

; 438  :             PyErr_SetString(PyExc_ValueError,
; 439  :                             "None disallowed in statement list");

  00079	48 8d 15 00 00
	00 00		 lea	 rdx, OFFSET FLAT:??_C@_0CC@JCLOGNHN@None?5disallowed?5in?5statement?5lis@
  00080	48 8b 0d 00 00
	00 00		 mov	 rcx, QWORD PTR PyExc_ValueError
  00087	e8 00 00 00 00	 call	 PyErr_SetString

; 440  :             return 0;

  0008c	33 c0		 xor	 eax, eax
  0008e	eb 07		 jmp	 SHORT $LN7@validate_s@2
$LN1@validate_s@2:

; 441  :         }
; 442  :     }

  00090	eb 81		 jmp	 SHORT $LN5@validate_s@2
$LN4@validate_s@2:

; 443  :     return 1;

  00092	b8 01 00 00 00	 mov	 eax, 1
$LN7@validate_s@2:

; 444  : }

  00097	48 83 c4 48	 add	 rsp, 72			; 00000048H
  0009b	c3		 ret	 0
validate_stmts ENDP
_TEXT	ENDS
PUBLIC	??_C@_0BF@BHMAOFEE@unexpected?5statement?$AA@	; `string'
PUBLIC	??_C@_08BAHOEEIH@Nonlocal?$AA@			; `string'
PUBLIC	??_C@_06JGBJPOPP@Global?$AA@			; `string'
PUBLIC	??_C@_0L@IKBFEFKH@ImportFrom?$AA@		; `string'
PUBLIC	??_C@_0BO@MEDGNNAA@ImportFrom?5level?5less?5than?5?91?$AA@ ; `string'
PUBLIC	??_C@_05FLNDGCKL@names?$AA@			; `string'
PUBLIC	??_C@_06IBNLALPJ@Import?$AA@			; `string'
PUBLIC	??_C@_0O@IFPAFICE@ExceptHandler?$AA@		; `string'
PUBLIC	??_C@_0CG@GECHCPK@Try?5has?5orelse?5but?5no?5except?5han@ ; `string'
PUBLIC	??_C@_0CO@FPIKDLC@Try?5has?5neither?5except?5handlers?5@ ; `string'
PUBLIC	??_C@_03DDFMMGJH@Try?$AA@			; `string'
PUBLIC	??_C@_0CC@OFNEJJFD@Raise?5with?5cause?5but?5no?5exceptio@ ; `string'
PUBLIC	??_C@_05CFHBDDLG@items?$AA@			; `string'
PUBLIC	??_C@_04LBMICJD@With?$AA@			; `string'
PUBLIC	??_C@_02EMFCFMID@If?$AA@			; `string'
PUBLIC	??_C@_05OJJNEPLA@While?$AA@			; `string'
PUBLIC	??_C@_03DOEGLAGL@For?$AA@			; `string'
PUBLIC	??_C@_08OGFMJMG@ClassDef?$AA@			; `string'
PUBLIC	??_C@_0M@POJILEOM@FunctionDef?$AA@		; `string'
;	COMDAT pdata
pdata	SEGMENT
$pdata$validate_stmt DD imagerel validate_stmt
	DD	imagerel validate_stmt+2564
	DD	imagerel $unwind$validate_stmt
pdata	ENDS
;	COMDAT xdata
xdata	SEGMENT
$unwind$validate_stmt DD 020c01H
	DD	017010cH
xdata	ENDS
;	COMDAT ??_C@_0BF@BHMAOFEE@unexpected?5statement?$AA@
CONST	SEGMENT
??_C@_0BF@BHMAOFEE@unexpected?5statement?$AA@ DB 'unexpected statement', 00H ; `string'
CONST	ENDS
;	COMDAT ??_C@_08BAHOEEIH@Nonlocal?$AA@
CONST	SEGMENT
??_C@_08BAHOEEIH@Nonlocal?$AA@ DB 'Nonlocal', 00H	; `string'
CONST	ENDS
;	COMDAT ??_C@_06JGBJPOPP@Global?$AA@
CONST	SEGMENT
??_C@_06JGBJPOPP@Global?$AA@ DB 'Global', 00H		; `string'
CONST	ENDS
;	COMDAT ??_C@_0L@IKBFEFKH@ImportFrom?$AA@
CONST	SEGMENT
??_C@_0L@IKBFEFKH@ImportFrom?$AA@ DB 'ImportFrom', 00H	; `string'
CONST	ENDS
;	COMDAT ??_C@_0BO@MEDGNNAA@ImportFrom?5level?5less?5than?5?91?$AA@
CONST	SEGMENT
??_C@_0BO@MEDGNNAA@ImportFrom?5level?5less?5than?5?91?$AA@ DB 'ImportFrom'
	DB	' level less than -1', 00H			; `string'
CONST	ENDS
;	COMDAT ??_C@_05FLNDGCKL@names?$AA@
CONST	SEGMENT
??_C@_05FLNDGCKL@names?$AA@ DB 'names', 00H		; `string'
CONST	ENDS
;	COMDAT ??_C@_06IBNLALPJ@Import?$AA@
CONST	SEGMENT
??_C@_06IBNLALPJ@Import?$AA@ DB 'Import', 00H		; `string'
CONST	ENDS
;	COMDAT ??_C@_0O@IFPAFICE@ExceptHandler?$AA@
CONST	SEGMENT
??_C@_0O@IFPAFICE@ExceptHandler?$AA@ DB 'ExceptHandler', 00H ; `string'
CONST	ENDS
;	COMDAT ??_C@_0CG@GECHCPK@Try?5has?5orelse?5but?5no?5except?5han@
CONST	SEGMENT
??_C@_0CG@GECHCPK@Try?5has?5orelse?5but?5no?5except?5han@ DB 'Try has ore'
	DB	'lse but no except handlers', 00H		; `string'
CONST	ENDS
;	COMDAT ??_C@_0CO@FPIKDLC@Try?5has?5neither?5except?5handlers?5@
CONST	SEGMENT
??_C@_0CO@FPIKDLC@Try?5has?5neither?5except?5handlers?5@ DB 'Try has neit'
	DB	'her except handlers nor finalbody', 00H	; `string'
CONST	ENDS
;	COMDAT ??_C@_03DDFMMGJH@Try?$AA@
CONST	SEGMENT
??_C@_03DDFMMGJH@Try?$AA@ DB 'Try', 00H			; `string'
CONST	ENDS
;	COMDAT ??_C@_0CC@OFNEJJFD@Raise?5with?5cause?5but?5no?5exceptio@
CONST	SEGMENT
??_C@_0CC@OFNEJJFD@Raise?5with?5cause?5but?5no?5exceptio@ DB 'Raise with '
	DB	'cause but no exception', 00H		; `string'
CONST	ENDS
;	COMDAT ??_C@_05CFHBDDLG@items?$AA@
CONST	SEGMENT
??_C@_05CFHBDDLG@items?$AA@ DB 'items', 00H		; `string'
CONST	ENDS
;	COMDAT ??_C@_04LBMICJD@With?$AA@
CONST	SEGMENT
??_C@_04LBMICJD@With?$AA@ DB 'With', 00H		; `string'
CONST	ENDS
;	COMDAT ??_C@_02EMFCFMID@If?$AA@
CONST	SEGMENT
??_C@_02EMFCFMID@If?$AA@ DB 'If', 00H			; `string'
CONST	ENDS
;	COMDAT ??_C@_05OJJNEPLA@While?$AA@
CONST	SEGMENT
??_C@_05OJJNEPLA@While?$AA@ DB 'While', 00H		; `string'
CONST	ENDS
;	COMDAT ??_C@_03DOEGLAGL@For?$AA@
CONST	SEGMENT
??_C@_03DOEGLAGL@For?$AA@ DB 'For', 00H			; `string'
CONST	ENDS
;	COMDAT ??_C@_08OGFMJMG@ClassDef?$AA@
CONST	SEGMENT
??_C@_08OGFMJMG@ClassDef?$AA@ DB 'ClassDef', 00H	; `string'
CONST	ENDS
;	COMDAT ??_C@_0M@POJILEOM@FunctionDef?$AA@
CONST	SEGMENT
??_C@_0M@POJILEOM@FunctionDef?$AA@ DB 'FunctionDef', 00H ; `string'
; Function compile flags: /Odtp
CONST	ENDS
;	COMDAT validate_stmt
_TEXT	SEGMENT
i$ = 32
item$21772 = 40
handler$21794 = 48
tv64 = 56
tv87 = 60
tv155 = 64
tv163 = 68
tv178 = 72
tv189 = 76
tv209 = 80
tv224 = 84
tv239 = 88
tv252 = 96
tv288 = 104
tv302 = 112
tv308 = 120
tv316 = 128
tv322 = 136
tv332 = 144
tv355 = 152
tv365 = 160
tv371 = 168
tv384 = 172
stmt$ = 192
validate_stmt PROC					; COMDAT

; 317  : {

  00000	48 89 4c 24 08	 mov	 QWORD PTR [rsp+8], rcx
  00005	48 81 ec b8 00
	00 00		 sub	 rsp, 184		; 000000b8H

; 318  :     int i;
; 319  :     switch (stmt->kind) {

  0000c	48 8b 84 24 c0
	00 00 00	 mov	 rax, QWORD PTR stmt$[rsp]
  00014	8b 00		 mov	 eax, DWORD PTR [rax]
  00016	89 44 24 38	 mov	 DWORD PTR tv64[rsp], eax
  0001a	8b 44 24 38	 mov	 eax, DWORD PTR tv64[rsp]
  0001e	ff c8		 dec	 eax
  00020	89 44 24 38	 mov	 DWORD PTR tv64[rsp], eax
  00024	83 7c 24 38 14	 cmp	 DWORD PTR tv64[rsp], 20
  00029	0f 87 64 09 00
	00		 ja	 $LN1@validate_s@3
  0002f	48 63 44 24 38	 movsxd	 rax, DWORD PTR tv64[rsp]
  00034	48 8d 0d 00 00
	00 00		 lea	 rcx, OFFSET FLAT:__ImageBase
  0003b	8b 84 81 00 00
	00 00		 mov	 eax, DWORD PTR $LN88@validate_s@3[rcx+rax*4]
  00042	48 03 c1	 add	 rax, rcx
  00045	ff e0		 jmp	 rax
$LN38@validate_s@3:

; 320  :     case FunctionDef_kind:
; 321  :         return validate_body(stmt->v.FunctionDef.body, "FunctionDef") &&
; 322  :             validate_arguments(stmt->v.FunctionDef.args) &&
; 323  :             validate_exprs(stmt->v.FunctionDef.decorator_list, Load, 0) &&
; 324  :             (!stmt->v.FunctionDef.returns ||
; 325  :              validate_expr(stmt->v.FunctionDef.returns, Load));

  00047	48 8d 15 00 00
	00 00		 lea	 rdx, OFFSET FLAT:??_C@_0M@POJILEOM@FunctionDef?$AA@
  0004e	48 8b 84 24 c0
	00 00 00	 mov	 rax, QWORD PTR stmt$[rsp]
  00056	48 8b 48 18	 mov	 rcx, QWORD PTR [rax+24]
  0005a	e8 00 00 00 00	 call	 validate_body
  0005f	85 c0		 test	 eax, eax
  00061	74 65		 je	 SHORT $LN43@validate_s@3
  00063	48 8b 84 24 c0
	00 00 00	 mov	 rax, QWORD PTR stmt$[rsp]
  0006b	48 8b 48 10	 mov	 rcx, QWORD PTR [rax+16]
  0006f	e8 00 00 00 00	 call	 validate_arguments
  00074	85 c0		 test	 eax, eax
  00076	74 50		 je	 SHORT $LN43@validate_s@3
  00078	45 33 c0	 xor	 r8d, r8d
  0007b	ba 01 00 00 00	 mov	 edx, 1
  00080	48 8b 84 24 c0
	00 00 00	 mov	 rax, QWORD PTR stmt$[rsp]
  00088	48 8b 48 20	 mov	 rcx, QWORD PTR [rax+32]
  0008c	e8 00 00 00 00	 call	 validate_exprs
  00091	85 c0		 test	 eax, eax
  00093	74 33		 je	 SHORT $LN43@validate_s@3
  00095	48 8b 84 24 c0
	00 00 00	 mov	 rax, QWORD PTR stmt$[rsp]
  0009d	48 83 78 28 00	 cmp	 QWORD PTR [rax+40], 0
  000a2	74 1a		 je	 SHORT $LN44@validate_s@3
  000a4	ba 01 00 00 00	 mov	 edx, 1
  000a9	48 8b 84 24 c0
	00 00 00	 mov	 rax, QWORD PTR stmt$[rsp]
  000b1	48 8b 48 28	 mov	 rcx, QWORD PTR [rax+40]
  000b5	e8 00 00 00 00	 call	 validate_expr
  000ba	85 c0		 test	 eax, eax
  000bc	74 0a		 je	 SHORT $LN43@validate_s@3
$LN44@validate_s@3:
  000be	c7 44 24 3c 01
	00 00 00	 mov	 DWORD PTR tv87[rsp], 1
  000c6	eb 08		 jmp	 SHORT $LN45@validate_s@3
$LN43@validate_s@3:
  000c8	c7 44 24 3c 00
	00 00 00	 mov	 DWORD PTR tv87[rsp], 0
$LN45@validate_s@3:
  000d0	8b 44 24 3c	 mov	 eax, DWORD PTR tv87[rsp]
  000d4	e9 cf 08 00 00	 jmp	 $LN41@validate_s@3
$LN37@validate_s@3:

; 326  :     case ClassDef_kind:
; 327  :         return validate_body(stmt->v.ClassDef.body, "ClassDef") &&
; 328  :             validate_exprs(stmt->v.ClassDef.bases, Load, 0) &&
; 329  :             validate_keywords(stmt->v.ClassDef.keywords) &&
; 330  :             validate_exprs(stmt->v.ClassDef.decorator_list, Load, 0) &&
; 331  :             (!stmt->v.ClassDef.starargs || validate_expr(stmt->v.ClassDef.starargs, Load)) &&
; 332  :             (!stmt->v.ClassDef.kwargs || validate_expr(stmt->v.ClassDef.kwargs, Load));

  000d9	48 8d 15 00 00
	00 00		 lea	 rdx, OFFSET FLAT:??_C@_08OGFMJMG@ClassDef?$AA@
  000e0	48 8b 84 24 c0
	00 00 00	 mov	 rax, QWORD PTR stmt$[rsp]
  000e8	48 8b 48 30	 mov	 rcx, QWORD PTR [rax+48]
  000ec	e8 00 00 00 00	 call	 validate_body
  000f1	85 c0		 test	 eax, eax
  000f3	0f 84 af 00 00
	00		 je	 $LN46@validate_s@3
  000f9	45 33 c0	 xor	 r8d, r8d
  000fc	ba 01 00 00 00	 mov	 edx, 1
  00101	48 8b 84 24 c0
	00 00 00	 mov	 rax, QWORD PTR stmt$[rsp]
  00109	48 8b 48 10	 mov	 rcx, QWORD PTR [rax+16]
  0010d	e8 00 00 00 00	 call	 validate_exprs
  00112	85 c0		 test	 eax, eax
  00114	0f 84 8e 00 00
	00		 je	 $LN46@validate_s@3
  0011a	48 8b 84 24 c0
	00 00 00	 mov	 rax, QWORD PTR stmt$[rsp]
  00122	48 8b 48 18	 mov	 rcx, QWORD PTR [rax+24]
  00126	e8 00 00 00 00	 call	 validate_keywords
  0012b	85 c0		 test	 eax, eax
  0012d	74 79		 je	 SHORT $LN46@validate_s@3
  0012f	45 33 c0	 xor	 r8d, r8d
  00132	ba 01 00 00 00	 mov	 edx, 1
  00137	48 8b 84 24 c0
	00 00 00	 mov	 rax, QWORD PTR stmt$[rsp]
  0013f	48 8b 48 38	 mov	 rcx, QWORD PTR [rax+56]
  00143	e8 00 00 00 00	 call	 validate_exprs
  00148	85 c0		 test	 eax, eax
  0014a	74 5c		 je	 SHORT $LN46@validate_s@3
  0014c	48 8b 84 24 c0
	00 00 00	 mov	 rax, QWORD PTR stmt$[rsp]
  00154	48 83 78 20 00	 cmp	 QWORD PTR [rax+32], 0
  00159	74 1a		 je	 SHORT $LN47@validate_s@3
  0015b	ba 01 00 00 00	 mov	 edx, 1
  00160	48 8b 84 24 c0
	00 00 00	 mov	 rax, QWORD PTR stmt$[rsp]
  00168	48 8b 48 20	 mov	 rcx, QWORD PTR [rax+32]
  0016c	e8 00 00 00 00	 call	 validate_expr
  00171	85 c0		 test	 eax, eax
  00173	74 33		 je	 SHORT $LN46@validate_s@3
$LN47@validate_s@3:
  00175	48 8b 84 24 c0
	00 00 00	 mov	 rax, QWORD PTR stmt$[rsp]
  0017d	48 83 78 28 00	 cmp	 QWORD PTR [rax+40], 0
  00182	74 1a		 je	 SHORT $LN48@validate_s@3
  00184	ba 01 00 00 00	 mov	 edx, 1
  00189	48 8b 84 24 c0
	00 00 00	 mov	 rax, QWORD PTR stmt$[rsp]
  00191	48 8b 48 28	 mov	 rcx, QWORD PTR [rax+40]
  00195	e8 00 00 00 00	 call	 validate_expr
  0019a	85 c0		 test	 eax, eax
  0019c	74 0a		 je	 SHORT $LN46@validate_s@3
$LN48@validate_s@3:
  0019e	c7 44 24 40 01
	00 00 00	 mov	 DWORD PTR tv155[rsp], 1
  001a6	eb 08		 jmp	 SHORT $LN49@validate_s@3
$LN46@validate_s@3:
  001a8	c7 44 24 40 00
	00 00 00	 mov	 DWORD PTR tv155[rsp], 0
$LN49@validate_s@3:
  001b0	8b 44 24 40	 mov	 eax, DWORD PTR tv155[rsp]
  001b4	e9 ef 07 00 00	 jmp	 $LN41@validate_s@3
$LN36@validate_s@3:

; 333  :     case Return_kind:
; 334  :         return !stmt->v.Return.value || validate_expr(stmt->v.Return.value, Load);

  001b9	48 8b 84 24 c0
	00 00 00	 mov	 rax, QWORD PTR stmt$[rsp]
  001c1	48 83 78 08 00	 cmp	 QWORD PTR [rax+8], 0
  001c6	74 24		 je	 SHORT $LN50@validate_s@3
  001c8	ba 01 00 00 00	 mov	 edx, 1
  001cd	48 8b 84 24 c0
	00 00 00	 mov	 rax, QWORD PTR stmt$[rsp]
  001d5	48 8b 48 08	 mov	 rcx, QWORD PTR [rax+8]
  001d9	e8 00 00 00 00	 call	 validate_expr
  001de	85 c0		 test	 eax, eax
  001e0	75 0a		 jne	 SHORT $LN50@validate_s@3
  001e2	c7 44 24 44 00
	00 00 00	 mov	 DWORD PTR tv163[rsp], 0
  001ea	eb 08		 jmp	 SHORT $LN51@validate_s@3
$LN50@validate_s@3:
  001ec	c7 44 24 44 01
	00 00 00	 mov	 DWORD PTR tv163[rsp], 1
$LN51@validate_s@3:
  001f4	8b 44 24 44	 mov	 eax, DWORD PTR tv163[rsp]
  001f8	e9 ab 07 00 00	 jmp	 $LN41@validate_s@3
$LN35@validate_s@3:

; 335  :     case Delete_kind:
; 336  :         return validate_assignlist(stmt->v.Delete.targets, Del);

  001fd	ba 03 00 00 00	 mov	 edx, 3
  00202	48 8b 84 24 c0
	00 00 00	 mov	 rax, QWORD PTR stmt$[rsp]
  0020a	48 8b 48 08	 mov	 rcx, QWORD PTR [rax+8]
  0020e	e8 00 00 00 00	 call	 validate_assignlist
  00213	e9 90 07 00 00	 jmp	 $LN41@validate_s@3
$LN34@validate_s@3:

; 337  :     case Assign_kind:
; 338  :         return validate_assignlist(stmt->v.Assign.targets, Store) &&
; 339  :             validate_expr(stmt->v.Assign.value, Load);

  00218	ba 02 00 00 00	 mov	 edx, 2
  0021d	48 8b 84 24 c0
	00 00 00	 mov	 rax, QWORD PTR stmt$[rsp]
  00225	48 8b 48 08	 mov	 rcx, QWORD PTR [rax+8]
  00229	e8 00 00 00 00	 call	 validate_assignlist
  0022e	85 c0		 test	 eax, eax
  00230	74 24		 je	 SHORT $LN52@validate_s@3
  00232	ba 01 00 00 00	 mov	 edx, 1
  00237	48 8b 84 24 c0
	00 00 00	 mov	 rax, QWORD PTR stmt$[rsp]
  0023f	48 8b 48 10	 mov	 rcx, QWORD PTR [rax+16]
  00243	e8 00 00 00 00	 call	 validate_expr
  00248	85 c0		 test	 eax, eax
  0024a	74 0a		 je	 SHORT $LN52@validate_s@3
  0024c	c7 44 24 48 01
	00 00 00	 mov	 DWORD PTR tv178[rsp], 1
  00254	eb 08		 jmp	 SHORT $LN53@validate_s@3
$LN52@validate_s@3:
  00256	c7 44 24 48 00
	00 00 00	 mov	 DWORD PTR tv178[rsp], 0
$LN53@validate_s@3:
  0025e	8b 44 24 48	 mov	 eax, DWORD PTR tv178[rsp]
  00262	e9 41 07 00 00	 jmp	 $LN41@validate_s@3
$LN33@validate_s@3:

; 340  :     case AugAssign_kind:
; 341  :         return validate_expr(stmt->v.AugAssign.target, Store) &&
; 342  :             validate_expr(stmt->v.AugAssign.value, Load);

  00267	ba 02 00 00 00	 mov	 edx, 2
  0026c	48 8b 84 24 c0
	00 00 00	 mov	 rax, QWORD PTR stmt$[rsp]
  00274	48 8b 48 08	 mov	 rcx, QWORD PTR [rax+8]
  00278	e8 00 00 00 00	 call	 validate_expr
  0027d	85 c0		 test	 eax, eax
  0027f	74 24		 je	 SHORT $LN54@validate_s@3
  00281	ba 01 00 00 00	 mov	 edx, 1
  00286	48 8b 84 24 c0
	00 00 00	 mov	 rax, QWORD PTR stmt$[rsp]
  0028e	48 8b 48 18	 mov	 rcx, QWORD PTR [rax+24]
  00292	e8 00 00 00 00	 call	 validate_expr
  00297	85 c0		 test	 eax, eax
  00299	74 0a		 je	 SHORT $LN54@validate_s@3
  0029b	c7 44 24 4c 01
	00 00 00	 mov	 DWORD PTR tv189[rsp], 1
  002a3	eb 08		 jmp	 SHORT $LN55@validate_s@3
$LN54@validate_s@3:
  002a5	c7 44 24 4c 00
	00 00 00	 mov	 DWORD PTR tv189[rsp], 0
$LN55@validate_s@3:
  002ad	8b 44 24 4c	 mov	 eax, DWORD PTR tv189[rsp]
  002b1	e9 f2 06 00 00	 jmp	 $LN41@validate_s@3
$LN32@validate_s@3:

; 343  :     case For_kind:
; 344  :         return validate_expr(stmt->v.For.target, Store) &&
; 345  :             validate_expr(stmt->v.For.iter, Load) &&
; 346  :             validate_body(stmt->v.For.body, "For") &&
; 347  :             validate_stmts(stmt->v.For.orelse);

  002b6	ba 02 00 00 00	 mov	 edx, 2
  002bb	48 8b 84 24 c0
	00 00 00	 mov	 rax, QWORD PTR stmt$[rsp]
  002c3	48 8b 48 08	 mov	 rcx, QWORD PTR [rax+8]
  002c7	e8 00 00 00 00	 call	 validate_expr
  002cc	85 c0		 test	 eax, eax
  002ce	74 55		 je	 SHORT $LN56@validate_s@3
  002d0	ba 01 00 00 00	 mov	 edx, 1
  002d5	48 8b 84 24 c0
	00 00 00	 mov	 rax, QWORD PTR stmt$[rsp]
  002dd	48 8b 48 10	 mov	 rcx, QWORD PTR [rax+16]
  002e1	e8 00 00 00 00	 call	 validate_expr
  002e6	85 c0		 test	 eax, eax
  002e8	74 3b		 je	 SHORT $LN56@validate_s@3
  002ea	48 8d 15 00 00
	00 00		 lea	 rdx, OFFSET FLAT:??_C@_03DOEGLAGL@For?$AA@
  002f1	48 8b 84 24 c0
	00 00 00	 mov	 rax, QWORD PTR stmt$[rsp]
  002f9	48 8b 48 18	 mov	 rcx, QWORD PTR [rax+24]
  002fd	e8 00 00 00 00	 call	 validate_body
  00302	85 c0		 test	 eax, eax
  00304	74 1f		 je	 SHORT $LN56@validate_s@3
  00306	48 8b 84 24 c0
	00 00 00	 mov	 rax, QWORD PTR stmt$[rsp]
  0030e	48 8b 48 20	 mov	 rcx, QWORD PTR [rax+32]
  00312	e8 00 00 00 00	 call	 validate_stmts
  00317	85 c0		 test	 eax, eax
  00319	74 0a		 je	 SHORT $LN56@validate_s@3
  0031b	c7 44 24 50 01
	00 00 00	 mov	 DWORD PTR tv209[rsp], 1
  00323	eb 08		 jmp	 SHORT $LN57@validate_s@3
$LN56@validate_s@3:
  00325	c7 44 24 50 00
	00 00 00	 mov	 DWORD PTR tv209[rsp], 0
$LN57@validate_s@3:
  0032d	8b 44 24 50	 mov	 eax, DWORD PTR tv209[rsp]
  00331	e9 72 06 00 00	 jmp	 $LN41@validate_s@3
$LN31@validate_s@3:

; 348  :     case While_kind:
; 349  :         return validate_expr(stmt->v.While.test, Load) &&
; 350  :             validate_body(stmt->v.While.body, "While") &&
; 351  :             validate_stmts(stmt->v.While.orelse);

  00336	ba 01 00 00 00	 mov	 edx, 1
  0033b	48 8b 84 24 c0
	00 00 00	 mov	 rax, QWORD PTR stmt$[rsp]
  00343	48 8b 48 08	 mov	 rcx, QWORD PTR [rax+8]
  00347	e8 00 00 00 00	 call	 validate_expr
  0034c	85 c0		 test	 eax, eax
  0034e	74 3b		 je	 SHORT $LN58@validate_s@3
  00350	48 8d 15 00 00
	00 00		 lea	 rdx, OFFSET FLAT:??_C@_05OJJNEPLA@While?$AA@
  00357	48 8b 84 24 c0
	00 00 00	 mov	 rax, QWORD PTR stmt$[rsp]
  0035f	48 8b 48 10	 mov	 rcx, QWORD PTR [rax+16]
  00363	e8 00 00 00 00	 call	 validate_body
  00368	85 c0		 test	 eax, eax
  0036a	74 1f		 je	 SHORT $LN58@validate_s@3
  0036c	48 8b 84 24 c0
	00 00 00	 mov	 rax, QWORD PTR stmt$[rsp]
  00374	48 8b 48 18	 mov	 rcx, QWORD PTR [rax+24]
  00378	e8 00 00 00 00	 call	 validate_stmts
  0037d	85 c0		 test	 eax, eax
  0037f	74 0a		 je	 SHORT $LN58@validate_s@3
  00381	c7 44 24 54 01
	00 00 00	 mov	 DWORD PTR tv224[rsp], 1
  00389	eb 08		 jmp	 SHORT $LN59@validate_s@3
$LN58@validate_s@3:
  0038b	c7 44 24 54 00
	00 00 00	 mov	 DWORD PTR tv224[rsp], 0
$LN59@validate_s@3:
  00393	8b 44 24 54	 mov	 eax, DWORD PTR tv224[rsp]
  00397	e9 0c 06 00 00	 jmp	 $LN41@validate_s@3
$LN30@validate_s@3:

; 352  :     case If_kind:
; 353  :         return validate_expr(stmt->v.If.test, Load) &&
; 354  :             validate_body(stmt->v.If.body, "If") &&
; 355  :             validate_stmts(stmt->v.If.orelse);

  0039c	ba 01 00 00 00	 mov	 edx, 1
  003a1	48 8b 84 24 c0
	00 00 00	 mov	 rax, QWORD PTR stmt$[rsp]
  003a9	48 8b 48 08	 mov	 rcx, QWORD PTR [rax+8]
  003ad	e8 00 00 00 00	 call	 validate_expr
  003b2	85 c0		 test	 eax, eax
  003b4	74 3b		 je	 SHORT $LN60@validate_s@3
  003b6	48 8d 15 00 00
	00 00		 lea	 rdx, OFFSET FLAT:??_C@_02EMFCFMID@If?$AA@
  003bd	48 8b 84 24 c0
	00 00 00	 mov	 rax, QWORD PTR stmt$[rsp]
  003c5	48 8b 48 10	 mov	 rcx, QWORD PTR [rax+16]
  003c9	e8 00 00 00 00	 call	 validate_body
  003ce	85 c0		 test	 eax, eax
  003d0	74 1f		 je	 SHORT $LN60@validate_s@3
  003d2	48 8b 84 24 c0
	00 00 00	 mov	 rax, QWORD PTR stmt$[rsp]
  003da	48 8b 48 18	 mov	 rcx, QWORD PTR [rax+24]
  003de	e8 00 00 00 00	 call	 validate_stmts
  003e3	85 c0		 test	 eax, eax
  003e5	74 0a		 je	 SHORT $LN60@validate_s@3
  003e7	c7 44 24 58 01
	00 00 00	 mov	 DWORD PTR tv239[rsp], 1
  003ef	eb 08		 jmp	 SHORT $LN61@validate_s@3
$LN60@validate_s@3:
  003f1	c7 44 24 58 00
	00 00 00	 mov	 DWORD PTR tv239[rsp], 0
$LN61@validate_s@3:
  003f9	8b 44 24 58	 mov	 eax, DWORD PTR tv239[rsp]
  003fd	e9 a6 05 00 00	 jmp	 $LN41@validate_s@3
$LN29@validate_s@3:

; 356  :     case With_kind:
; 357  :         if (!validate_nonempty_seq(stmt->v.With.items, "items", "With"))

  00402	4c 8d 05 00 00
	00 00		 lea	 r8, OFFSET FLAT:??_C@_04LBMICJD@With?$AA@
  00409	48 8d 15 00 00
	00 00		 lea	 rdx, OFFSET FLAT:??_C@_05CFHBDDLG@items?$AA@
  00410	48 8b 84 24 c0
	00 00 00	 mov	 rax, QWORD PTR stmt$[rsp]
  00418	48 8b 48 08	 mov	 rcx, QWORD PTR [rax+8]
  0041c	e8 00 00 00 00	 call	 validate_nonempty_seq
  00421	85 c0		 test	 eax, eax
  00423	75 07		 jne	 SHORT $LN28@validate_s@3

; 358  :             return 0;

  00425	33 c0		 xor	 eax, eax
  00427	e9 7c 05 00 00	 jmp	 $LN41@validate_s@3
$LN28@validate_s@3:

; 359  :         for (i = 0; i < asdl_seq_LEN(stmt->v.With.items); i++) {

  0042c	c7 44 24 20 00
	00 00 00	 mov	 DWORD PTR i$[rsp], 0
  00434	eb 0a		 jmp	 SHORT $LN27@validate_s@3
$LN26@validate_s@3:
  00436	8b 44 24 20	 mov	 eax, DWORD PTR i$[rsp]
  0043a	ff c0		 inc	 eax
  0043c	89 44 24 20	 mov	 DWORD PTR i$[rsp], eax
$LN27@validate_s@3:
  00440	48 8b 84 24 c0
	00 00 00	 mov	 rax, QWORD PTR stmt$[rsp]
  00448	48 83 78 08 00	 cmp	 QWORD PTR [rax+8], 0
  0044d	75 0b		 jne	 SHORT $LN62@validate_s@3
  0044f	48 c7 44 24 60
	00 00 00 00	 mov	 QWORD PTR tv252[rsp], 0
  00458	eb 14		 jmp	 SHORT $LN63@validate_s@3
$LN62@validate_s@3:
  0045a	48 8b 84 24 c0
	00 00 00	 mov	 rax, QWORD PTR stmt$[rsp]
  00462	48 8b 40 08	 mov	 rax, QWORD PTR [rax+8]
  00466	48 8b 00	 mov	 rax, QWORD PTR [rax]
  00469	48 89 44 24 60	 mov	 QWORD PTR tv252[rsp], rax
$LN63@validate_s@3:
  0046e	48 63 44 24 20	 movsxd	 rax, DWORD PTR i$[rsp]
  00473	48 3b 44 24 60	 cmp	 rax, QWORD PTR tv252[rsp]
  00478	7d 60		 jge	 SHORT $LN25@validate_s@3

; 360  :             withitem_ty item = asdl_seq_GET(stmt->v.With.items, i);

  0047a	48 8b 84 24 c0
	00 00 00	 mov	 rax, QWORD PTR stmt$[rsp]
  00482	48 8b 40 08	 mov	 rax, QWORD PTR [rax+8]
  00486	48 63 4c 24 20	 movsxd	 rcx, DWORD PTR i$[rsp]
  0048b	48 8b 44 c8 08	 mov	 rax, QWORD PTR [rax+rcx*8+8]
  00490	48 89 44 24 28	 mov	 QWORD PTR item$21772[rsp], rax

; 361  :             if (!validate_expr(item->context_expr, Load) ||
; 362  :                 (item->optional_vars && !validate_expr(item->optional_vars, Store)))

  00495	ba 01 00 00 00	 mov	 edx, 1
  0049a	48 8b 44 24 28	 mov	 rax, QWORD PTR item$21772[rsp]
  0049f	48 8b 08	 mov	 rcx, QWORD PTR [rax]
  004a2	e8 00 00 00 00	 call	 validate_expr
  004a7	85 c0		 test	 eax, eax
  004a9	74 23		 je	 SHORT $LN23@validate_s@3
  004ab	48 8b 44 24 28	 mov	 rax, QWORD PTR item$21772[rsp]
  004b0	48 83 78 08 00	 cmp	 QWORD PTR [rax+8], 0
  004b5	74 1e		 je	 SHORT $LN24@validate_s@3
  004b7	ba 02 00 00 00	 mov	 edx, 2
  004bc	48 8b 44 24 28	 mov	 rax, QWORD PTR item$21772[rsp]
  004c1	48 8b 48 08	 mov	 rcx, QWORD PTR [rax+8]
  004c5	e8 00 00 00 00	 call	 validate_expr
  004ca	85 c0		 test	 eax, eax
  004cc	75 07		 jne	 SHORT $LN24@validate_s@3
$LN23@validate_s@3:

; 363  :                 return 0;

  004ce	33 c0		 xor	 eax, eax
  004d0	e9 d3 04 00 00	 jmp	 $LN41@validate_s@3
$LN24@validate_s@3:

; 364  :         }

  004d5	e9 5c ff ff ff	 jmp	 $LN26@validate_s@3
$LN25@validate_s@3:

; 365  :         return validate_body(stmt->v.With.body, "With");

  004da	48 8d 15 00 00
	00 00		 lea	 rdx, OFFSET FLAT:??_C@_04LBMICJD@With?$AA@
  004e1	48 8b 84 24 c0
	00 00 00	 mov	 rax, QWORD PTR stmt$[rsp]
  004e9	48 8b 48 10	 mov	 rcx, QWORD PTR [rax+16]
  004ed	e8 00 00 00 00	 call	 validate_body
  004f2	e9 b1 04 00 00	 jmp	 $LN41@validate_s@3
$LN22@validate_s@3:

; 366  :     case Raise_kind:
; 367  :         if (stmt->v.Raise.exc) {

  004f7	48 8b 84 24 c0
	00 00 00	 mov	 rax, QWORD PTR stmt$[rsp]
  004ff	48 83 78 08 00	 cmp	 QWORD PTR [rax+8], 0
  00504	74 5e		 je	 SHORT $LN21@validate_s@3

; 368  :             return validate_expr(stmt->v.Raise.exc, Load) &&
; 369  :                 (!stmt->v.Raise.cause || validate_expr(stmt->v.Raise.cause, Load));

  00506	ba 01 00 00 00	 mov	 edx, 1
  0050b	48 8b 84 24 c0
	00 00 00	 mov	 rax, QWORD PTR stmt$[rsp]
  00513	48 8b 48 08	 mov	 rcx, QWORD PTR [rax+8]
  00517	e8 00 00 00 00	 call	 validate_expr
  0051c	85 c0		 test	 eax, eax
  0051e	74 33		 je	 SHORT $LN65@validate_s@3
  00520	48 8b 84 24 c0
	00 00 00	 mov	 rax, QWORD PTR stmt$[rsp]
  00528	48 83 78 10 00	 cmp	 QWORD PTR [rax+16], 0
  0052d	74 1a		 je	 SHORT $LN64@validate_s@3
  0052f	ba 01 00 00 00	 mov	 edx, 1
  00534	48 8b 84 24 c0
	00 00 00	 mov	 rax, QWORD PTR stmt$[rsp]
  0053c	48 8b 48 10	 mov	 rcx, QWORD PTR [rax+16]
  00540	e8 00 00 00 00	 call	 validate_expr
  00545	85 c0		 test	 eax, eax
  00547	74 0a		 je	 SHORT $LN65@validate_s@3
$LN64@validate_s@3:
  00549	c7 44 24 68 01
	00 00 00	 mov	 DWORD PTR tv288[rsp], 1
  00551	eb 08		 jmp	 SHORT $LN66@validate_s@3
$LN65@validate_s@3:
  00553	c7 44 24 68 00
	00 00 00	 mov	 DWORD PTR tv288[rsp], 0
$LN66@validate_s@3:
  0055b	8b 44 24 68	 mov	 eax, DWORD PTR tv288[rsp]
  0055f	e9 44 04 00 00	 jmp	 $LN41@validate_s@3
$LN21@validate_s@3:

; 370  :         }
; 371  :         if (stmt->v.Raise.cause) {

  00564	48 8b 84 24 c0
	00 00 00	 mov	 rax, QWORD PTR stmt$[rsp]
  0056c	48 83 78 10 00	 cmp	 QWORD PTR [rax+16], 0
  00571	74 1a		 je	 SHORT $LN20@validate_s@3

; 372  :             PyErr_SetString(PyExc_ValueError, "Raise with cause but no exception");

  00573	48 8d 15 00 00
	00 00		 lea	 rdx, OFFSET FLAT:??_C@_0CC@OFNEJJFD@Raise?5with?5cause?5but?5no?5exceptio@
  0057a	48 8b 0d 00 00
	00 00		 mov	 rcx, QWORD PTR PyExc_ValueError
  00581	e8 00 00 00 00	 call	 PyErr_SetString

; 373  :             return 0;

  00586	33 c0		 xor	 eax, eax
  00588	e9 1b 04 00 00	 jmp	 $LN41@validate_s@3
$LN20@validate_s@3:

; 374  :         }
; 375  :         return 1;

  0058d	b8 01 00 00 00	 mov	 eax, 1
  00592	e9 11 04 00 00	 jmp	 $LN41@validate_s@3
$LN19@validate_s@3:

; 376  :     case Try_kind:
; 377  :         if (!validate_body(stmt->v.Try.body, "Try"))

  00597	48 8d 15 00 00
	00 00		 lea	 rdx, OFFSET FLAT:??_C@_03DDFMMGJH@Try?$AA@
  0059e	48 8b 84 24 c0
	00 00 00	 mov	 rax, QWORD PTR stmt$[rsp]
  005a6	48 8b 48 08	 mov	 rcx, QWORD PTR [rax+8]
  005aa	e8 00 00 00 00	 call	 validate_body
  005af	85 c0		 test	 eax, eax
  005b1	75 07		 jne	 SHORT $LN18@validate_s@3

; 378  :             return 0;

  005b3	33 c0		 xor	 eax, eax
  005b5	e9 ee 03 00 00	 jmp	 $LN41@validate_s@3
$LN18@validate_s@3:

; 379  :         if (!asdl_seq_LEN(stmt->v.Try.handlers) &&
; 380  :             !asdl_seq_LEN(stmt->v.Try.finalbody)) {

  005ba	48 8b 84 24 c0
	00 00 00	 mov	 rax, QWORD PTR stmt$[rsp]
  005c2	48 83 78 10 00	 cmp	 QWORD PTR [rax+16], 0
  005c7	75 0b		 jne	 SHORT $LN67@validate_s@3
  005c9	48 c7 44 24 70
	00 00 00 00	 mov	 QWORD PTR tv302[rsp], 0
  005d2	eb 14		 jmp	 SHORT $LN68@validate_s@3
$LN67@validate_s@3:
  005d4	48 8b 84 24 c0
	00 00 00	 mov	 rax, QWORD PTR stmt$[rsp]
  005dc	48 8b 40 10	 mov	 rax, QWORD PTR [rax+16]
  005e0	48 8b 00	 mov	 rax, QWORD PTR [rax]
  005e3	48 89 44 24 70	 mov	 QWORD PTR tv302[rsp], rax
$LN68@validate_s@3:
  005e8	48 83 7c 24 70
	00		 cmp	 QWORD PTR tv302[rsp], 0
  005ee	75 50		 jne	 SHORT $LN17@validate_s@3
  005f0	48 8b 84 24 c0
	00 00 00	 mov	 rax, QWORD PTR stmt$[rsp]
  005f8	48 83 78 20 00	 cmp	 QWORD PTR [rax+32], 0
  005fd	75 0b		 jne	 SHORT $LN69@validate_s@3
  005ff	48 c7 44 24 78
	00 00 00 00	 mov	 QWORD PTR tv308[rsp], 0
  00608	eb 14		 jmp	 SHORT $LN70@validate_s@3
$LN69@validate_s@3:
  0060a	48 8b 84 24 c0
	00 00 00	 mov	 rax, QWORD PTR stmt$[rsp]
  00612	48 8b 40 20	 mov	 rax, QWORD PTR [rax+32]
  00616	48 8b 00	 mov	 rax, QWORD PTR [rax]
  00619	48 89 44 24 78	 mov	 QWORD PTR tv308[rsp], rax
$LN70@validate_s@3:
  0061e	48 83 7c 24 78
	00		 cmp	 QWORD PTR tv308[rsp], 0
  00624	75 1a		 jne	 SHORT $LN17@validate_s@3

; 381  :             PyErr_SetString(PyExc_ValueError, "Try has neither except handlers nor finalbody");

  00626	48 8d 15 00 00
	00 00		 lea	 rdx, OFFSET FLAT:??_C@_0CO@FPIKDLC@Try?5has?5neither?5except?5handlers?5@
  0062d	48 8b 0d 00 00
	00 00		 mov	 rcx, QWORD PTR PyExc_ValueError
  00634	e8 00 00 00 00	 call	 PyErr_SetString

; 382  :             return 0;

  00639	33 c0		 xor	 eax, eax
  0063b	e9 68 03 00 00	 jmp	 $LN41@validate_s@3
$LN17@validate_s@3:

; 383  :         }
; 384  :         if (!asdl_seq_LEN(stmt->v.Try.handlers) &&
; 385  :             asdl_seq_LEN(stmt->v.Try.orelse)) {

  00640	48 8b 84 24 c0
	00 00 00	 mov	 rax, QWORD PTR stmt$[rsp]
  00648	48 83 78 10 00	 cmp	 QWORD PTR [rax+16], 0
  0064d	75 0e		 jne	 SHORT $LN71@validate_s@3
  0064f	48 c7 84 24 80
	00 00 00 00 00
	00 00		 mov	 QWORD PTR tv316[rsp], 0
  0065b	eb 17		 jmp	 SHORT $LN72@validate_s@3
$LN71@validate_s@3:
  0065d	48 8b 84 24 c0
	00 00 00	 mov	 rax, QWORD PTR stmt$[rsp]
  00665	48 8b 40 10	 mov	 rax, QWORD PTR [rax+16]
  00669	48 8b 00	 mov	 rax, QWORD PTR [rax]
  0066c	48 89 84 24 80
	00 00 00	 mov	 QWORD PTR tv316[rsp], rax
$LN72@validate_s@3:
  00674	48 83 bc 24 80
	00 00 00 00	 cmp	 QWORD PTR tv316[rsp], 0
  0067d	75 59		 jne	 SHORT $LN16@validate_s@3
  0067f	48 8b 84 24 c0
	00 00 00	 mov	 rax, QWORD PTR stmt$[rsp]
  00687	48 83 78 18 00	 cmp	 QWORD PTR [rax+24], 0
  0068c	75 0e		 jne	 SHORT $LN73@validate_s@3
  0068e	48 c7 84 24 88
	00 00 00 00 00
	00 00		 mov	 QWORD PTR tv322[rsp], 0
  0069a	eb 17		 jmp	 SHORT $LN74@validate_s@3
$LN73@validate_s@3:
  0069c	48 8b 84 24 c0
	00 00 00	 mov	 rax, QWORD PTR stmt$[rsp]
  006a4	48 8b 40 18	 mov	 rax, QWORD PTR [rax+24]
  006a8	48 8b 00	 mov	 rax, QWORD PTR [rax]
  006ab	48 89 84 24 88
	00 00 00	 mov	 QWORD PTR tv322[rsp], rax
$LN74@validate_s@3:
  006b3	48 83 bc 24 88
	00 00 00 00	 cmp	 QWORD PTR tv322[rsp], 0
  006bc	74 1a		 je	 SHORT $LN16@validate_s@3

; 386  :             PyErr_SetString(PyExc_ValueError, "Try has orelse but no except handlers");

  006be	48 8d 15 00 00
	00 00		 lea	 rdx, OFFSET FLAT:??_C@_0CG@GECHCPK@Try?5has?5orelse?5but?5no?5except?5han@
  006c5	48 8b 0d 00 00
	00 00		 mov	 rcx, QWORD PTR PyExc_ValueError
  006cc	e8 00 00 00 00	 call	 PyErr_SetString

; 387  :             return 0;

  006d1	33 c0		 xor	 eax, eax
  006d3	e9 d0 02 00 00	 jmp	 $LN41@validate_s@3
$LN16@validate_s@3:

; 388  :         }
; 389  :         for (i = 0; i < asdl_seq_LEN(stmt->v.Try.handlers); i++) {

  006d8	c7 44 24 20 00
	00 00 00	 mov	 DWORD PTR i$[rsp], 0
  006e0	eb 0a		 jmp	 SHORT $LN15@validate_s@3
$LN14@validate_s@3:
  006e2	8b 44 24 20	 mov	 eax, DWORD PTR i$[rsp]
  006e6	ff c0		 inc	 eax
  006e8	89 44 24 20	 mov	 DWORD PTR i$[rsp], eax
$LN15@validate_s@3:
  006ec	48 8b 84 24 c0
	00 00 00	 mov	 rax, QWORD PTR stmt$[rsp]
  006f4	48 83 78 10 00	 cmp	 QWORD PTR [rax+16], 0
  006f9	75 0e		 jne	 SHORT $LN75@validate_s@3
  006fb	48 c7 84 24 90
	00 00 00 00 00
	00 00		 mov	 QWORD PTR tv332[rsp], 0
  00707	eb 17		 jmp	 SHORT $LN76@validate_s@3
$LN75@validate_s@3:
  00709	48 8b 84 24 c0
	00 00 00	 mov	 rax, QWORD PTR stmt$[rsp]
  00711	48 8b 40 10	 mov	 rax, QWORD PTR [rax+16]
  00715	48 8b 00	 mov	 rax, QWORD PTR [rax]
  00718	48 89 84 24 90
	00 00 00	 mov	 QWORD PTR tv332[rsp], rax
$LN76@validate_s@3:
  00720	48 63 44 24 20	 movsxd	 rax, DWORD PTR i$[rsp]
  00725	48 3b 84 24 90
	00 00 00	 cmp	 rax, QWORD PTR tv332[rsp]
  0072d	7d 63		 jge	 SHORT $LN13@validate_s@3

; 390  :             excepthandler_ty handler = asdl_seq_GET(stmt->v.Try.handlers, i);

  0072f	48 8b 84 24 c0
	00 00 00	 mov	 rax, QWORD PTR stmt$[rsp]
  00737	48 8b 40 10	 mov	 rax, QWORD PTR [rax+16]
  0073b	48 63 4c 24 20	 movsxd	 rcx, DWORD PTR i$[rsp]
  00740	48 8b 44 c8 08	 mov	 rax, QWORD PTR [rax+rcx*8+8]
  00745	48 89 44 24 30	 mov	 QWORD PTR handler$21794[rsp], rax

; 391  :             if ((handler->v.ExceptHandler.type &&
; 392  :                  !validate_expr(handler->v.ExceptHandler.type, Load)) ||
; 393  :                 !validate_body(handler->v.ExceptHandler.body, "ExceptHandler"))

  0074a	48 8b 44 24 30	 mov	 rax, QWORD PTR handler$21794[rsp]
  0074f	48 83 78 08 00	 cmp	 QWORD PTR [rax+8], 0
  00754	74 17		 je	 SHORT $LN10@validate_s@3
  00756	ba 01 00 00 00	 mov	 edx, 1
  0075b	48 8b 44 24 30	 mov	 rax, QWORD PTR handler$21794[rsp]
  00760	48 8b 48 08	 mov	 rcx, QWORD PTR [rax+8]
  00764	e8 00 00 00 00	 call	 validate_expr
  00769	85 c0		 test	 eax, eax
  0076b	74 19		 je	 SHORT $LN11@validate_s@3
$LN10@validate_s@3:
  0076d	48 8d 15 00 00
	00 00		 lea	 rdx, OFFSET FLAT:??_C@_0O@IFPAFICE@ExceptHandler?$AA@
  00774	48 8b 44 24 30	 mov	 rax, QWORD PTR handler$21794[rsp]
  00779	48 8b 48 18	 mov	 rcx, QWORD PTR [rax+24]
  0077d	e8 00 00 00 00	 call	 validate_body
  00782	85 c0		 test	 eax, eax
  00784	75 07		 jne	 SHORT $LN12@validate_s@3
$LN11@validate_s@3:

; 394  :                 return 0;

  00786	33 c0		 xor	 eax, eax
  00788	e9 1b 02 00 00	 jmp	 $LN41@validate_s@3
$LN12@validate_s@3:

; 395  :         }

  0078d	e9 50 ff ff ff	 jmp	 $LN14@validate_s@3
$LN13@validate_s@3:

; 396  :         return (!asdl_seq_LEN(stmt->v.Try.finalbody) ||
; 397  :                 validate_stmts(stmt->v.Try.finalbody)) &&
; 398  :             (!asdl_seq_LEN(stmt->v.Try.orelse) ||
; 399  :              validate_stmts(stmt->v.Try.orelse));

  00792	48 8b 84 24 c0
	00 00 00	 mov	 rax, QWORD PTR stmt$[rsp]
  0079a	48 83 78 20 00	 cmp	 QWORD PTR [rax+32], 0
  0079f	75 0e		 jne	 SHORT $LN77@validate_s@3
  007a1	48 c7 84 24 98
	00 00 00 00 00
	00 00		 mov	 QWORD PTR tv355[rsp], 0
  007ad	eb 17		 jmp	 SHORT $LN78@validate_s@3
$LN77@validate_s@3:
  007af	48 8b 84 24 c0
	00 00 00	 mov	 rax, QWORD PTR stmt$[rsp]
  007b7	48 8b 40 20	 mov	 rax, QWORD PTR [rax+32]
  007bb	48 8b 00	 mov	 rax, QWORD PTR [rax]
  007be	48 89 84 24 98
	00 00 00	 mov	 QWORD PTR tv355[rsp], rax
$LN78@validate_s@3:
  007c6	48 83 bc 24 98
	00 00 00 00	 cmp	 QWORD PTR tv355[rsp], 0
  007cf	74 15		 je	 SHORT $LN79@validate_s@3
  007d1	48 8b 84 24 c0
	00 00 00	 mov	 rax, QWORD PTR stmt$[rsp]
  007d9	48 8b 48 20	 mov	 rcx, QWORD PTR [rax+32]
  007dd	e8 00 00 00 00	 call	 validate_stmts
  007e2	85 c0		 test	 eax, eax
  007e4	74 61		 je	 SHORT $LN83@validate_s@3
$LN79@validate_s@3:
  007e6	48 8b 84 24 c0
	00 00 00	 mov	 rax, QWORD PTR stmt$[rsp]
  007ee	48 83 78 18 00	 cmp	 QWORD PTR [rax+24], 0
  007f3	75 0e		 jne	 SHORT $LN80@validate_s@3
  007f5	48 c7 84 24 a0
	00 00 00 00 00
	00 00		 mov	 QWORD PTR tv365[rsp], 0
  00801	eb 17		 jmp	 SHORT $LN81@validate_s@3
$LN80@validate_s@3:
  00803	48 8b 84 24 c0
	00 00 00	 mov	 rax, QWORD PTR stmt$[rsp]
  0080b	48 8b 40 18	 mov	 rax, QWORD PTR [rax+24]
  0080f	48 8b 00	 mov	 rax, QWORD PTR [rax]
  00812	48 89 84 24 a0
	00 00 00	 mov	 QWORD PTR tv365[rsp], rax
$LN81@validate_s@3:
  0081a	48 83 bc 24 a0
	00 00 00 00	 cmp	 QWORD PTR tv365[rsp], 0
  00823	74 15		 je	 SHORT $LN82@validate_s@3
  00825	48 8b 84 24 c0
	00 00 00	 mov	 rax, QWORD PTR stmt$[rsp]
  0082d	48 8b 48 18	 mov	 rcx, QWORD PTR [rax+24]
  00831	e8 00 00 00 00	 call	 validate_stmts
  00836	85 c0		 test	 eax, eax
  00838	74 0d		 je	 SHORT $LN83@validate_s@3
$LN82@validate_s@3:
  0083a	c7 84 24 a8 00
	00 00 01 00 00
	00		 mov	 DWORD PTR tv371[rsp], 1
  00845	eb 0b		 jmp	 SHORT $LN84@validate_s@3
$LN83@validate_s@3:
  00847	c7 84 24 a8 00
	00 00 00 00 00
	00		 mov	 DWORD PTR tv371[rsp], 0
$LN84@validate_s@3:
  00852	8b 84 24 a8 00
	00 00		 mov	 eax, DWORD PTR tv371[rsp]
  00859	e9 4a 01 00 00	 jmp	 $LN41@validate_s@3
$LN9@validate_s@3:

; 400  :     case Assert_kind:
; 401  :         return validate_expr(stmt->v.Assert.test, Load) &&
; 402  :             (!stmt->v.Assert.msg || validate_expr(stmt->v.Assert.msg, Load));

  0085e	ba 01 00 00 00	 mov	 edx, 1
  00863	48 8b 84 24 c0
	00 00 00	 mov	 rax, QWORD PTR stmt$[rsp]
  0086b	48 8b 48 08	 mov	 rcx, QWORD PTR [rax+8]
  0086f	e8 00 00 00 00	 call	 validate_expr
  00874	85 c0		 test	 eax, eax
  00876	74 36		 je	 SHORT $LN86@validate_s@3
  00878	48 8b 84 24 c0
	00 00 00	 mov	 rax, QWORD PTR stmt$[rsp]
  00880	48 83 78 10 00	 cmp	 QWORD PTR [rax+16], 0
  00885	74 1a		 je	 SHORT $LN85@validate_s@3
  00887	ba 01 00 00 00	 mov	 edx, 1
  0088c	48 8b 84 24 c0
	00 00 00	 mov	 rax, QWORD PTR stmt$[rsp]
  00894	48 8b 48 10	 mov	 rcx, QWORD PTR [rax+16]
  00898	e8 00 00 00 00	 call	 validate_expr
  0089d	85 c0		 test	 eax, eax
  0089f	74 0d		 je	 SHORT $LN86@validate_s@3
$LN85@validate_s@3:
  008a1	c7 84 24 ac 00
	00 00 01 00 00
	00		 mov	 DWORD PTR tv384[rsp], 1
  008ac	eb 0b		 jmp	 SHORT $LN87@validate_s@3
$LN86@validate_s@3:
  008ae	c7 84 24 ac 00
	00 00 00 00 00
	00		 mov	 DWORD PTR tv384[rsp], 0
$LN87@validate_s@3:
  008b9	8b 84 24 ac 00
	00 00		 mov	 eax, DWORD PTR tv384[rsp]
  008c0	e9 e3 00 00 00	 jmp	 $LN41@validate_s@3
$LN8@validate_s@3:

; 403  :     case Import_kind:
; 404  :         return validate_nonempty_seq(stmt->v.Import.names, "names", "Import");

  008c5	4c 8d 05 00 00
	00 00		 lea	 r8, OFFSET FLAT:??_C@_06IBNLALPJ@Import?$AA@
  008cc	48 8d 15 00 00
	00 00		 lea	 rdx, OFFSET FLAT:??_C@_05FLNDGCKL@names?$AA@
  008d3	48 8b 84 24 c0
	00 00 00	 mov	 rax, QWORD PTR stmt$[rsp]
  008db	48 8b 48 08	 mov	 rcx, QWORD PTR [rax+8]
  008df	e8 00 00 00 00	 call	 validate_nonempty_seq
  008e4	e9 bf 00 00 00	 jmp	 $LN41@validate_s@3
$LN7@validate_s@3:

; 405  :     case ImportFrom_kind:
; 406  :         if (stmt->v.ImportFrom.level < -1) {

  008e9	48 8b 84 24 c0
	00 00 00	 mov	 rax, QWORD PTR stmt$[rsp]
  008f1	83 78 18 ff	 cmp	 DWORD PTR [rax+24], -1
  008f5	7d 1a		 jge	 SHORT $LN6@validate_s@3

; 407  :             PyErr_SetString(PyExc_ValueError, "ImportFrom level less than -1");

  008f7	48 8d 15 00 00
	00 00		 lea	 rdx, OFFSET FLAT:??_C@_0BO@MEDGNNAA@ImportFrom?5level?5less?5than?5?91?$AA@
  008fe	48 8b 0d 00 00
	00 00		 mov	 rcx, QWORD PTR PyExc_ValueError
  00905	e8 00 00 00 00	 call	 PyErr_SetString

; 408  :             return 0;

  0090a	33 c0		 xor	 eax, eax
  0090c	e9 97 00 00 00	 jmp	 $LN41@validate_s@3
$LN6@validate_s@3:

; 409  :         }
; 410  :         return validate_nonempty_seq(stmt->v.ImportFrom.names, "names", "ImportFrom");

  00911	4c 8d 05 00 00
	00 00		 lea	 r8, OFFSET FLAT:??_C@_0L@IKBFEFKH@ImportFrom?$AA@
  00918	48 8d 15 00 00
	00 00		 lea	 rdx, OFFSET FLAT:??_C@_05FLNDGCKL@names?$AA@
  0091f	48 8b 84 24 c0
	00 00 00	 mov	 rax, QWORD PTR stmt$[rsp]
  00927	48 8b 48 10	 mov	 rcx, QWORD PTR [rax+16]
  0092b	e8 00 00 00 00	 call	 validate_nonempty_seq
  00930	eb 76		 jmp	 SHORT $LN41@validate_s@3
$LN5@validate_s@3:

; 411  :     case Global_kind:
; 412  :         return validate_nonempty_seq(stmt->v.Global.names, "names", "Global");

  00932	4c 8d 05 00 00
	00 00		 lea	 r8, OFFSET FLAT:??_C@_06JGBJPOPP@Global?$AA@
  00939	48 8d 15 00 00
	00 00		 lea	 rdx, OFFSET FLAT:??_C@_05FLNDGCKL@names?$AA@
  00940	48 8b 84 24 c0
	00 00 00	 mov	 rax, QWORD PTR stmt$[rsp]
  00948	48 8b 48 08	 mov	 rcx, QWORD PTR [rax+8]
  0094c	e8 00 00 00 00	 call	 validate_nonempty_seq
  00951	eb 55		 jmp	 SHORT $LN41@validate_s@3
$LN4@validate_s@3:

; 413  :     case Nonlocal_kind:
; 414  :         return validate_nonempty_seq(stmt->v.Nonlocal.names, "names", "Nonlocal");

  00953	4c 8d 05 00 00
	00 00		 lea	 r8, OFFSET FLAT:??_C@_08BAHOEEIH@Nonlocal?$AA@
  0095a	48 8d 15 00 00
	00 00		 lea	 rdx, OFFSET FLAT:??_C@_05FLNDGCKL@names?$AA@
  00961	48 8b 84 24 c0
	00 00 00	 mov	 rax, QWORD PTR stmt$[rsp]
  00969	48 8b 48 08	 mov	 rcx, QWORD PTR [rax+8]
  0096d	e8 00 00 00 00	 call	 validate_nonempty_seq
  00972	eb 34		 jmp	 SHORT $LN41@validate_s@3
$LN3@validate_s@3:

; 415  :     case Expr_kind:
; 416  :         return validate_expr(stmt->v.Expr.value, Load);

  00974	ba 01 00 00 00	 mov	 edx, 1
  00979	48 8b 84 24 c0
	00 00 00	 mov	 rax, QWORD PTR stmt$[rsp]
  00981	48 8b 48 08	 mov	 rcx, QWORD PTR [rax+8]
  00985	e8 00 00 00 00	 call	 validate_expr
  0098a	eb 1c		 jmp	 SHORT $LN41@validate_s@3
$LN2@validate_s@3:

; 417  :     case Pass_kind:
; 418  :     case Break_kind:
; 419  :     case Continue_kind:
; 420  :         return 1;

  0098c	b8 01 00 00 00	 mov	 eax, 1
  00991	eb 15		 jmp	 SHORT $LN41@validate_s@3
$LN1@validate_s@3:

; 421  :     default:
; 422  :         PyErr_SetString(PyExc_SystemError, "unexpected statement");

  00993	48 8d 15 00 00
	00 00		 lea	 rdx, OFFSET FLAT:??_C@_0BF@BHMAOFEE@unexpected?5statement?$AA@
  0099a	48 8b 0d 00 00
	00 00		 mov	 rcx, QWORD PTR PyExc_SystemError
  009a1	e8 00 00 00 00	 call	 PyErr_SetString

; 423  :         return 0;

  009a6	33 c0		 xor	 eax, eax
$LN41@validate_s@3:

; 424  :     }
; 425  : }

  009a8	48 81 c4 b8 00
	00 00		 add	 rsp, 184		; 000000b8H
  009af	c3		 ret	 0
$LN88@validate_s@3:
  009b0	00 00 00 00	 DD	 $LN38@validate_s@3
  009b4	00 00 00 00	 DD	 $LN37@validate_s@3
  009b8	00 00 00 00	 DD	 $LN36@validate_s@3
  009bc	00 00 00 00	 DD	 $LN35@validate_s@3
  009c0	00 00 00 00	 DD	 $LN34@validate_s@3
  009c4	00 00 00 00	 DD	 $LN33@validate_s@3
  009c8	00 00 00 00	 DD	 $LN32@validate_s@3
  009cc	00 00 00 00	 DD	 $LN31@validate_s@3
  009d0	00 00 00 00	 DD	 $LN30@validate_s@3
  009d4	00 00 00 00	 DD	 $LN29@validate_s@3
  009d8	00 00 00 00	 DD	 $LN22@validate_s@3
  009dc	00 00 00 00	 DD	 $LN19@validate_s@3
  009e0	00 00 00 00	 DD	 $LN9@validate_s@3
  009e4	00 00 00 00	 DD	 $LN8@validate_s@3
  009e8	00 00 00 00	 DD	 $LN7@validate_s@3
  009ec	00 00 00 00	 DD	 $LN5@validate_s@3
  009f0	00 00 00 00	 DD	 $LN4@validate_s@3
  009f4	00 00 00 00	 DD	 $LN3@validate_s@3
  009f8	00 00 00 00	 DD	 $LN2@validate_s@3
  009fc	00 00 00 00	 DD	 $LN2@validate_s@3
  00a00	00 00 00 00	 DD	 $LN2@validate_s@3
validate_stmt ENDP
_TEXT	ENDS
PUBLIC	??_C@_07KJOMBCLC@targets?$AA@			; `string'
PUBLIC	??_C@_06EDODJIDJ@Assign?$AA@			; `string'
PUBLIC	??_C@_06JBKGCNBB@Delete?$AA@			; `string'
;	COMDAT pdata
pdata	SEGMENT
$pdata$validate_assignlist DD imagerel validate_assignlist
	DD	imagerel validate_assignlist+120
	DD	imagerel $unwind$validate_assignlist
pdata	ENDS
;	COMDAT xdata
xdata	SEGMENT
$unwind$validate_assignlist DD 010d01H
	DD	0620dH
xdata	ENDS
;	COMDAT ??_C@_07KJOMBCLC@targets?$AA@
CONST	SEGMENT
??_C@_07KJOMBCLC@targets?$AA@ DB 'targets', 00H		; `string'
CONST	ENDS
;	COMDAT ??_C@_06EDODJIDJ@Assign?$AA@
CONST	SEGMENT
??_C@_06EDODJIDJ@Assign?$AA@ DB 'Assign', 00H		; `string'
CONST	ENDS
;	COMDAT ??_C@_06JBKGCNBB@Delete?$AA@
CONST	SEGMENT
??_C@_06JBKGCNBB@Delete?$AA@ DB 'Delete', 00H		; `string'
; Function compile flags: /Odtp
CONST	ENDS
;	COMDAT validate_assignlist
_TEXT	SEGMENT
tv66 = 32
tv76 = 40
targets$ = 64
ctx$ = 72
validate_assignlist PROC				; COMDAT

; 304  : {

  00000	89 54 24 10	 mov	 DWORD PTR [rsp+16], edx
  00004	48 89 4c 24 08	 mov	 QWORD PTR [rsp+8], rcx
  00009	48 83 ec 38	 sub	 rsp, 56			; 00000038H

; 305  :     return validate_nonempty_seq(targets, "targets", ctx == Del ? "Delete" : "Assign") &&
; 306  :         validate_exprs(targets, ctx, 0);

  0000d	83 7c 24 48 03	 cmp	 DWORD PTR ctx$[rsp], 3
  00012	75 0e		 jne	 SHORT $LN3@validate_a@3
  00014	48 8d 05 00 00
	00 00		 lea	 rax, OFFSET FLAT:??_C@_06JBKGCNBB@Delete?$AA@
  0001b	48 89 44 24 20	 mov	 QWORD PTR tv66[rsp], rax
  00020	eb 0c		 jmp	 SHORT $LN4@validate_a@3
$LN3@validate_a@3:
  00022	48 8d 05 00 00
	00 00		 lea	 rax, OFFSET FLAT:??_C@_06EDODJIDJ@Assign?$AA@
  00029	48 89 44 24 20	 mov	 QWORD PTR tv66[rsp], rax
$LN4@validate_a@3:
  0002e	4c 8b 44 24 20	 mov	 r8, QWORD PTR tv66[rsp]
  00033	48 8d 15 00 00
	00 00		 lea	 rdx, OFFSET FLAT:??_C@_07KJOMBCLC@targets?$AA@
  0003a	48 8b 4c 24 40	 mov	 rcx, QWORD PTR targets$[rsp]
  0003f	e8 00 00 00 00	 call	 validate_nonempty_seq
  00044	85 c0		 test	 eax, eax
  00046	74 1f		 je	 SHORT $LN5@validate_a@3
  00048	45 33 c0	 xor	 r8d, r8d
  0004b	8b 54 24 48	 mov	 edx, DWORD PTR ctx$[rsp]
  0004f	48 8b 4c 24 40	 mov	 rcx, QWORD PTR targets$[rsp]
  00054	e8 00 00 00 00	 call	 validate_exprs
  00059	85 c0		 test	 eax, eax
  0005b	74 0a		 je	 SHORT $LN5@validate_a@3
  0005d	c7 44 24 28 01
	00 00 00	 mov	 DWORD PTR tv76[rsp], 1
  00065	eb 08		 jmp	 SHORT $LN6@validate_a@3
$LN5@validate_a@3:
  00067	c7 44 24 28 00
	00 00 00	 mov	 DWORD PTR tv76[rsp], 0
$LN6@validate_a@3:
  0006f	8b 44 24 28	 mov	 eax, DWORD PTR tv76[rsp]

; 307  : }

  00073	48 83 c4 38	 add	 rsp, 56			; 00000038H
  00077	c3		 ret	 0
validate_assignlist ENDP
_TEXT	ENDS
PUBLIC	??_C@_04IEJGKNJ@body?$AA@			; `string'
;	COMDAT pdata
pdata	SEGMENT
$pdata$validate_body DD imagerel validate_body
	DD	imagerel validate_body+81
	DD	imagerel $unwind$validate_body
pdata	ENDS
;	COMDAT xdata
xdata	SEGMENT
$unwind$validate_body DD 010e01H
	DD	0620eH
xdata	ENDS
;	COMDAT ??_C@_04IEJGKNJ@body?$AA@
CONST	SEGMENT
??_C@_04IEJGKNJ@body?$AA@ DB 'body', 00H		; `string'
; Function compile flags: /Odtp
CONST	ENDS
;	COMDAT validate_body
_TEXT	SEGMENT
tv72 = 32
body$ = 64
owner$ = 72
validate_body PROC					; COMDAT

; 311  : {

  00000	48 89 54 24 10	 mov	 QWORD PTR [rsp+16], rdx
  00005	48 89 4c 24 08	 mov	 QWORD PTR [rsp+8], rcx
  0000a	48 83 ec 38	 sub	 rsp, 56			; 00000038H

; 312  :     return validate_nonempty_seq(body, "body", owner) && validate_stmts(body);

  0000e	4c 8b 44 24 48	 mov	 r8, QWORD PTR owner$[rsp]
  00013	48 8d 15 00 00
	00 00		 lea	 rdx, OFFSET FLAT:??_C@_04IEJGKNJ@body?$AA@
  0001a	48 8b 4c 24 40	 mov	 rcx, QWORD PTR body$[rsp]
  0001f	e8 00 00 00 00	 call	 validate_nonempty_seq
  00024	85 c0		 test	 eax, eax
  00026	74 18		 je	 SHORT $LN3@validate_b
  00028	48 8b 4c 24 40	 mov	 rcx, QWORD PTR body$[rsp]
  0002d	e8 00 00 00 00	 call	 validate_stmts
  00032	85 c0		 test	 eax, eax
  00034	74 0a		 je	 SHORT $LN3@validate_b
  00036	c7 44 24 20 01
	00 00 00	 mov	 DWORD PTR tv72[rsp], 1
  0003e	eb 08		 jmp	 SHORT $LN4@validate_b
$LN3@validate_b:
  00040	c7 44 24 20 00
	00 00 00	 mov	 DWORD PTR tv72[rsp], 0
$LN4@validate_b:
  00048	8b 44 24 20	 mov	 eax, DWORD PTR tv72[rsp]

; 313  : }

  0004c	48 83 c4 38	 add	 rsp, 56			; 00000038H
  00050	c3		 ret	 0
validate_body ENDP
_TEXT	ENDS
PUBLIC	??_C@_0CD@MDELEHKM@None?5disallowed?5in?5expression?5li@ ; `string'
;	COMDAT pdata
pdata	SEGMENT
$pdata$validate_exprs DD imagerel validate_exprs
	DD	imagerel validate_exprs+179
	DD	imagerel $unwind$validate_exprs
pdata	ENDS
;	COMDAT xdata
xdata	SEGMENT
$unwind$validate_exprs DD 011201H
	DD	08212H
xdata	ENDS
;	COMDAT ??_C@_0CD@MDELEHKM@None?5disallowed?5in?5expression?5li@
CONST	SEGMENT
??_C@_0CD@MDELEHKM@None?5disallowed?5in?5expression?5li@ DB 'None disallo'
	DB	'wed in expression list', 00H		; `string'
; Function compile flags: /Odtp
CONST	ENDS
;	COMDAT validate_exprs
_TEXT	SEGMENT
i$ = 32
expr$21842 = 40
tv67 = 48
exprs$ = 80
ctx$ = 88
null_ok$ = 96
validate_exprs PROC					; COMDAT

; 448  : {

  00000	44 89 44 24 18	 mov	 DWORD PTR [rsp+24], r8d
  00005	89 54 24 10	 mov	 DWORD PTR [rsp+16], edx
  00009	48 89 4c 24 08	 mov	 QWORD PTR [rsp+8], rcx
  0000e	48 83 ec 48	 sub	 rsp, 72			; 00000048H

; 449  :     int i;
; 450  :     for (i = 0; i < asdl_seq_LEN(exprs); i++) {

  00012	c7 44 24 20 00
	00 00 00	 mov	 DWORD PTR i$[rsp], 0
  0001a	eb 0a		 jmp	 SHORT $LN7@validate_e@2
$LN6@validate_e@2:
  0001c	8b 44 24 20	 mov	 eax, DWORD PTR i$[rsp]
  00020	ff c0		 inc	 eax
  00022	89 44 24 20	 mov	 DWORD PTR i$[rsp], eax
$LN7@validate_e@2:
  00026	48 83 7c 24 50
	00		 cmp	 QWORD PTR exprs$[rsp], 0
  0002c	75 0b		 jne	 SHORT $LN10@validate_e@2
  0002e	48 c7 44 24 30
	00 00 00 00	 mov	 QWORD PTR tv67[rsp], 0
  00037	eb 0d		 jmp	 SHORT $LN11@validate_e@2
$LN10@validate_e@2:
  00039	48 8b 44 24 50	 mov	 rax, QWORD PTR exprs$[rsp]
  0003e	48 8b 00	 mov	 rax, QWORD PTR [rax]
  00041	48 89 44 24 30	 mov	 QWORD PTR tv67[rsp], rax
$LN11@validate_e@2:
  00046	48 63 44 24 20	 movsxd	 rax, DWORD PTR i$[rsp]
  0004b	48 3b 44 24 30	 cmp	 rax, QWORD PTR tv67[rsp]
  00050	7d 57		 jge	 SHORT $LN5@validate_e@2

; 451  :         expr_ty expr = asdl_seq_GET(exprs, i);

  00052	48 63 44 24 20	 movsxd	 rax, DWORD PTR i$[rsp]
  00057	48 8b 4c 24 50	 mov	 rcx, QWORD PTR exprs$[rsp]
  0005c	48 8b 44 c1 08	 mov	 rax, QWORD PTR [rcx+rax*8+8]
  00061	48 89 44 24 28	 mov	 QWORD PTR expr$21842[rsp], rax

; 452  :         if (expr) {

  00066	48 83 7c 24 28
	00		 cmp	 QWORD PTR expr$21842[rsp], 0
  0006c	74 18		 je	 SHORT $LN4@validate_e@2

; 453  :             if (!validate_expr(expr, ctx))

  0006e	8b 54 24 58	 mov	 edx, DWORD PTR ctx$[rsp]
  00072	48 8b 4c 24 28	 mov	 rcx, QWORD PTR expr$21842[rsp]
  00077	e8 00 00 00 00	 call	 validate_expr
  0007c	85 c0		 test	 eax, eax
  0007e	75 04		 jne	 SHORT $LN3@validate_e@2

; 454  :                 return 0;

  00080	33 c0		 xor	 eax, eax
  00082	eb 2a		 jmp	 SHORT $LN8@validate_e@2
$LN3@validate_e@2:

; 455  :         }
; 456  :         else if (!null_ok) {

  00084	eb 1e		 jmp	 SHORT $LN2@validate_e@2
$LN4@validate_e@2:
  00086	83 7c 24 60 00	 cmp	 DWORD PTR null_ok$[rsp], 0
  0008b	75 17		 jne	 SHORT $LN1@validate_e@2

; 457  :             PyErr_SetString(PyExc_ValueError,
; 458  :                             "None disallowed in expression list");

  0008d	48 8d 15 00 00
	00 00		 lea	 rdx, OFFSET FLAT:??_C@_0CD@MDELEHKM@None?5disallowed?5in?5expression?5li@
  00094	48 8b 0d 00 00
	00 00		 mov	 rcx, QWORD PTR PyExc_ValueError
  0009b	e8 00 00 00 00	 call	 PyErr_SetString

; 459  :             return 0;

  000a0	33 c0		 xor	 eax, eax
  000a2	eb 0a		 jmp	 SHORT $LN8@validate_e@2
$LN1@validate_e@2:
$LN2@validate_e@2:

; 460  :         }
; 461  :             
; 462  :     }

  000a4	e9 73 ff ff ff	 jmp	 $LN6@validate_e@2
$LN5@validate_e@2:

; 463  :     return 1;

  000a9	b8 01 00 00 00	 mov	 eax, 1
$LN8@validate_e@2:

; 464  : }

  000ae	48 83 c4 48	 add	 rsp, 72			; 00000048H
  000b2	c3		 ret	 0
validate_exprs ENDP
_TEXT	ENDS
PUBLIC	_Py_DecRef
PUBLIC	??_C@_0CD@NFODNNNO@invalid?5node?5?$CFd?5for?5PyAST_FromNo@ ; `string'
PUBLIC	??_C@_1CC@MBELPIFO@?$AAT?$AAY?$AAP?$AAE?$AA?$CI?$AAn?$AA?$CJ?$AA?5?$AA?$DN?$AA?$DN?$AA?5?$AA?$CI?$AA2?$AA6?$AA9?$AA?$CJ?$AA?$AA@ ; `string'
PUBLIC	??_C@_1CE@GEMHJBAF@?$AAT?$AAY?$AAP?$AAE?$AA?$CI?$AAc?$AAh?$AA?$CJ?$AA?5?$AA?$DN?$AA?$DN?$AA?5?$AA?$CI?$AA2?$AA6?$AA9?$AA?$CJ?$AA?$AA@ ; `string'
PUBLIC	??_C@_1EG@CBHLFNGD@?$AA?$CI?$AAs?$AAt?$AAm?$AAt?$AAs?$AA?$CJ?$AA?5?$AA?$CG?$AA?$CG?$AA?5?$AA_?$AAa?$AAs?$AAd?$AAl?$AA_?$AAi?$AA?5?$AA?$DM?$AA?5?$AA?$CI?$AAs?$AAt?$AAm?$AAt?$AAs?$AA?$CJ?$AA?9?$AA?$DO?$AAs?$AAi@ ; `string'
PUBLIC	??_C@_1CE@KPJLECKA@?$AAT?$AAY?$AAP?$AAE?$AA?$CI?$AAc?$AAh?$AA?$CJ?$AA?5?$AA?$DN?$AA?$DN?$AA?5?$AA?$CI?$AA2?$AA6?$AA8?$AA?$CJ?$AA?$AA@ ; `string'
PUBLIC	??_C@_05CAMHEFLG@utf?98?$AA@			; `string'
PUBLIC	PyAST_FromNode
EXTRN	_Py_Interactive:PROC
EXTRN	_Py_Pass:PROC
EXTRN	_Py_Expression:PROC
EXTRN	_Py_Module:PROC
EXTRN	asdl_seq_new:PROC
;	COMDAT pdata
pdata	SEGMENT
$pdata$PyAST_FromNode DD imagerel $LN54
	DD	imagerel $LN54+1851
	DD	imagerel $unwind$PyAST_FromNode
pdata	ENDS
;	COMDAT xdata
xdata	SEGMENT
$unwind$PyAST_FromNode DD 021b01H
	DD	017011bH
xdata	ENDS
;	COMDAT ??_C@_0CD@NFODNNNO@invalid?5node?5?$CFd?5for?5PyAST_FromNo@
CONST	SEGMENT
??_C@_0CD@NFODNNNO@invalid?5node?5?$CFd?5for?5PyAST_FromNo@ DB 'invalid n'
	DB	'ode %d for PyAST_FromNode', 00H		; `string'
CONST	ENDS
;	COMDAT ??_C@_1CC@MBELPIFO@?$AAT?$AAY?$AAP?$AAE?$AA?$CI?$AAn?$AA?$CJ?$AA?5?$AA?$DN?$AA?$DN?$AA?5?$AA?$CI?$AA2?$AA6?$AA9?$AA?$CJ?$AA?$AA@
CONST	SEGMENT
??_C@_1CC@MBELPIFO@?$AAT?$AAY?$AAP?$AAE?$AA?$CI?$AAn?$AA?$CJ?$AA?5?$AA?$DN?$AA?$DN?$AA?5?$AA?$CI?$AA2?$AA6?$AA9?$AA?$CJ?$AA?$AA@ DB 'T'
	DB	00H, 'Y', 00H, 'P', 00H, 'E', 00H, '(', 00H, 'n', 00H, ')', 00H
	DB	' ', 00H, '=', 00H, '=', 00H, ' ', 00H, '(', 00H, '2', 00H, '6'
	DB	00H, '9', 00H, ')', 00H, 00H, 00H		; `string'
CONST	ENDS
;	COMDAT ??_C@_1CE@GEMHJBAF@?$AAT?$AAY?$AAP?$AAE?$AA?$CI?$AAc?$AAh?$AA?$CJ?$AA?5?$AA?$DN?$AA?$DN?$AA?5?$AA?$CI?$AA2?$AA6?$AA9?$AA?$CJ?$AA?$AA@
CONST	SEGMENT
??_C@_1CE@GEMHJBAF@?$AAT?$AAY?$AAP?$AAE?$AA?$CI?$AAc?$AAh?$AA?$CJ?$AA?5?$AA?$DN?$AA?$DN?$AA?5?$AA?$CI?$AA2?$AA6?$AA9?$AA?$CJ?$AA?$AA@ DB 'T'
	DB	00H, 'Y', 00H, 'P', 00H, 'E', 00H, '(', 00H, 'c', 00H, 'h', 00H
	DB	')', 00H, ' ', 00H, '=', 00H, '=', 00H, ' ', 00H, '(', 00H, '2'
	DB	00H, '6', 00H, '9', 00H, ')', 00H, 00H, 00H	; `string'
CONST	ENDS
;	COMDAT ??_C@_1EG@CBHLFNGD@?$AA?$CI?$AAs?$AAt?$AAm?$AAt?$AAs?$AA?$CJ?$AA?5?$AA?$CG?$AA?$CG?$AA?5?$AA_?$AAa?$AAs?$AAd?$AAl?$AA_?$AAi?$AA?5?$AA?$DM?$AA?5?$AA?$CI?$AAs?$AAt?$AAm?$AAt?$AAs?$AA?$CJ?$AA?9?$AA?$DO?$AAs?$AAi@
CONST	SEGMENT
??_C@_1EG@CBHLFNGD@?$AA?$CI?$AAs?$AAt?$AAm?$AAt?$AAs?$AA?$CJ?$AA?5?$AA?$CG?$AA?$CG?$AA?5?$AA_?$AAa?$AAs?$AAd?$AAl?$AA_?$AAi?$AA?5?$AA?$DM?$AA?5?$AA?$CI?$AAs?$AAt?$AAm?$AAt?$AAs?$AA?$CJ?$AA?9?$AA?$DO?$AAs?$AAi@ DB '('
	DB	00H, 's', 00H, 't', 00H, 'm', 00H, 't', 00H, 's', 00H, ')', 00H
	DB	' ', 00H, '&', 00H, '&', 00H, ' ', 00H, '_', 00H, 'a', 00H, 's'
	DB	00H, 'd', 00H, 'l', 00H, '_', 00H, 'i', 00H, ' ', 00H, '<', 00H
	DB	' ', 00H, '(', 00H, 's', 00H, 't', 00H, 'm', 00H, 't', 00H, 's'
	DB	00H, ')', 00H, '-', 00H, '>', 00H, 's', 00H, 'i', 00H, 'z', 00H
	DB	'e', 00H, 00H, 00H				; `string'
CONST	ENDS
;	COMDAT ??_C@_1CE@KPJLECKA@?$AAT?$AAY?$AAP?$AAE?$AA?$CI?$AAc?$AAh?$AA?$CJ?$AA?5?$AA?$DN?$AA?$DN?$AA?5?$AA?$CI?$AA2?$AA6?$AA8?$AA?$CJ?$AA?$AA@
CONST	SEGMENT
??_C@_1CE@KPJLECKA@?$AAT?$AAY?$AAP?$AAE?$AA?$CI?$AAc?$AAh?$AA?$CJ?$AA?5?$AA?$DN?$AA?$DN?$AA?5?$AA?$CI?$AA2?$AA6?$AA8?$AA?$CJ?$AA?$AA@ DB 'T'
	DB	00H, 'Y', 00H, 'P', 00H, 'E', 00H, '(', 00H, 'c', 00H, 'h', 00H
	DB	')', 00H, ' ', 00H, '=', 00H, '=', 00H, ' ', 00H, '(', 00H, '2'
	DB	00H, '6', 00H, '8', 00H, ')', 00H, 00H, 00H	; `string'
CONST	ENDS
;	COMDAT ??_C@_05CAMHEFLG@utf?98?$AA@
CONST	SEGMENT
??_C@_05CAMHEFLG@utf?98?$AA@ DB 'utf-8', 00H		; `string'
; Function compile flags: /Odtp
CONST	ENDS
;	COMDAT PyAST_FromNode
_TEXT	SEGMENT
res$ = 32
i$ = 40
s$ = 48
num$ = 56
stmts$ = 64
k$ = 72
c$ = 80
ch$ = 120
j$ = 128
_asdl_i$22379 = 132
_asdl_i$22389 = 136
testlist_ast$22392 = 144
_asdl_i$22397 = 152
_asdl_i$22404 = 156
_asdl_i$22414 = 160
tv75 = 164
n$ = 192
flags$ = 200
filename$ = 208
arena$ = 216
PyAST_FromNode PROC					; COMDAT

; 682  : {

$LN54:
  00000	4c 89 4c 24 20	 mov	 QWORD PTR [rsp+32], r9
  00005	4c 89 44 24 18	 mov	 QWORD PTR [rsp+24], r8
  0000a	48 89 54 24 10	 mov	 QWORD PTR [rsp+16], rdx
  0000f	48 89 4c 24 08	 mov	 QWORD PTR [rsp+8], rcx
  00014	48 81 ec b8 00
	00 00		 sub	 rsp, 184		; 000000b8H

; 683  :     int i, j, k, num;
; 684  :     asdl_seq *stmts = NULL;

  0001b	48 c7 44 24 40
	00 00 00 00	 mov	 QWORD PTR stmts$[rsp], 0

; 685  :     stmt_ty s;
; 686  :     node *ch;
; 687  :     struct compiling c;
; 688  :     mod_ty res = NULL;

  00024	48 c7 44 24 20
	00 00 00 00	 mov	 QWORD PTR res$[rsp], 0

; 689  : 
; 690  :     c.c_arena = arena;

  0002d	48 8b 84 24 d8
	00 00 00	 mov	 rax, QWORD PTR arena$[rsp]
  00035	48 89 44 24 58	 mov	 QWORD PTR c$[rsp+8], rax

; 691  :     c.c_filename = filename;

  0003a	48 8b 84 24 d0
	00 00 00	 mov	 rax, QWORD PTR filename$[rsp]
  00042	48 89 44 24 60	 mov	 QWORD PTR c$[rsp+16], rax

; 692  :     c.c_normalize = c.c_normalize_args = NULL;

  00047	48 c7 44 24 70
	00 00 00 00	 mov	 QWORD PTR c$[rsp+32], 0
  00050	48 8b 44 24 70	 mov	 rax, QWORD PTR c$[rsp+32]
  00055	48 89 44 24 68	 mov	 QWORD PTR c$[rsp+24], rax

; 693  :     if (flags && flags->cf_flags & PyCF_SOURCE_IS_UTF8) {

  0005a	48 83 bc 24 c8
	00 00 00 00	 cmp	 QWORD PTR flags$[rsp], 0
  00063	74 47		 je	 SHORT $LN38@PyAST_From
  00065	48 8b 84 24 c8
	00 00 00	 mov	 rax, QWORD PTR flags$[rsp]
  0006d	8b 00		 mov	 eax, DWORD PTR [rax]
  0006f	25 00 01 00 00	 and	 eax, 256		; 00000100H
  00074	85 c0		 test	 eax, eax
  00076	74 34		 je	 SHORT $LN38@PyAST_From

; 694  :         c.c_encoding = "utf-8";

  00078	48 8d 05 00 00
	00 00		 lea	 rax, OFFSET FLAT:??_C@_05CAMHEFLG@utf?98?$AA@
  0007f	48 89 44 24 50	 mov	 QWORD PTR c$[rsp], rax

; 695  :         if (TYPE(n) == encoding_decl) {

  00084	48 8b 84 24 c0
	00 00 00	 mov	 rax, QWORD PTR n$[rsp]
  0008c	0f bf 00	 movsx	 eax, WORD PTR [rax]
  0008f	3d 4f 01 00 00	 cmp	 eax, 335		; 0000014fH
  00094	75 14		 jne	 SHORT $LN37@PyAST_From

; 696  : #if 0
; 697  :             ast_error(c, n, "encoding declaration in Unicode string");
; 698  :             goto out;
; 699  : #endif
; 700  :             n = CHILD(n, 0);

  00096	48 8b 84 24 c0
	00 00 00	 mov	 rax, QWORD PTR n$[rsp]
  0009e	48 8b 40 20	 mov	 rax, QWORD PTR [rax+32]
  000a2	48 89 84 24 c0
	00 00 00	 mov	 QWORD PTR n$[rsp], rax
$LN37@PyAST_From:

; 701  :         }

  000aa	eb 45		 jmp	 SHORT $LN36@PyAST_From
$LN38@PyAST_From:

; 702  :     } else if (TYPE(n) == encoding_decl) {

  000ac	48 8b 84 24 c0
	00 00 00	 mov	 rax, QWORD PTR n$[rsp]
  000b4	0f bf 00	 movsx	 eax, WORD PTR [rax]
  000b7	3d 4f 01 00 00	 cmp	 eax, 335		; 0000014fH
  000bc	75 27		 jne	 SHORT $LN35@PyAST_From

; 703  :         c.c_encoding = STR(n);

  000be	48 8b 84 24 c0
	00 00 00	 mov	 rax, QWORD PTR n$[rsp]
  000c6	48 8b 40 08	 mov	 rax, QWORD PTR [rax+8]
  000ca	48 89 44 24 50	 mov	 QWORD PTR c$[rsp], rax

; 704  :         n = CHILD(n, 0);

  000cf	48 8b 84 24 c0
	00 00 00	 mov	 rax, QWORD PTR n$[rsp]
  000d7	48 8b 40 20	 mov	 rax, QWORD PTR [rax+32]
  000db	48 89 84 24 c0
	00 00 00	 mov	 QWORD PTR n$[rsp], rax

; 705  :     } else {

  000e3	eb 0c		 jmp	 SHORT $LN34@PyAST_From
$LN35@PyAST_From:

; 706  :         /* PEP 3120 */
; 707  :         c.c_encoding = "utf-8";

  000e5	48 8d 05 00 00
	00 00		 lea	 rax, OFFSET FLAT:??_C@_05CAMHEFLG@utf?98?$AA@
  000ec	48 89 44 24 50	 mov	 QWORD PTR c$[rsp], rax
$LN34@PyAST_From:
$LN36@PyAST_From:

; 708  :     }
; 709  : 
; 710  :     k = 0;

  000f1	c7 44 24 48 00
	00 00 00	 mov	 DWORD PTR k$[rsp], 0

; 711  :     switch (TYPE(n)) {

  000f9	48 8b 84 24 c0
	00 00 00	 mov	 rax, QWORD PTR n$[rsp]
  00101	0f bf 00	 movsx	 eax, WORD PTR [rax]
  00104	89 84 24 a4 00
	00 00		 mov	 DWORD PTR tv75[rsp], eax
  0010b	81 bc 24 a4 00
	00 00 00 01 00
	00		 cmp	 DWORD PTR tv75[rsp], 256 ; 00000100H
  00116	0f 84 e7 02 00
	00		 je	 $LN16@PyAST_From
  0011c	81 bc 24 a4 00
	00 00 01 01 00
	00		 cmp	 DWORD PTR tv75[rsp], 257 ; 00000101H
  00127	74 16		 je	 SHORT $LN31@PyAST_From
  00129	81 bc 24 a4 00
	00 00 02 01 00
	00		 cmp	 DWORD PTR tv75[rsp], 258 ; 00000102H
  00134	0f 84 7c 02 00
	00		 je	 $LN18@PyAST_From
  0013a	e9 a5 05 00 00	 jmp	 $LN2@PyAST_From
$LN31@PyAST_From:

; 712  :         case file_input:
; 713  :             stmts = asdl_seq_new(num_stmts(n), arena);

  0013f	48 8b 8c 24 c0
	00 00 00	 mov	 rcx, QWORD PTR n$[rsp]
  00147	e8 00 00 00 00	 call	 num_stmts
  0014c	48 98		 cdqe
  0014e	48 8b 94 24 d8
	00 00 00	 mov	 rdx, QWORD PTR arena$[rsp]
  00156	48 8b c8	 mov	 rcx, rax
  00159	e8 00 00 00 00	 call	 asdl_seq_new
  0015e	48 89 44 24 40	 mov	 QWORD PTR stmts$[rsp], rax

; 714  :             if (!stmts)

  00163	48 83 7c 24 40
	00		 cmp	 QWORD PTR stmts$[rsp], 0
  00169	75 05		 jne	 SHORT $LN30@PyAST_From

; 715  :                 goto out;

  0016b	e9 95 05 00 00	 jmp	 $out$22370
$LN30@PyAST_From:

; 716  :             for (i = 0; i < NCH(n) - 1; i++) {

  00170	c7 44 24 28 00
	00 00 00	 mov	 DWORD PTR i$[rsp], 0
  00178	eb 0a		 jmp	 SHORT $LN29@PyAST_From
$LN28@PyAST_From:
  0017a	8b 44 24 28	 mov	 eax, DWORD PTR i$[rsp]
  0017e	ff c0		 inc	 eax
  00180	89 44 24 28	 mov	 DWORD PTR i$[rsp], eax
$LN29@PyAST_From:
  00184	48 8b 84 24 c0
	00 00 00	 mov	 rax, QWORD PTR n$[rsp]
  0018c	8b 40 18	 mov	 eax, DWORD PTR [rax+24]
  0018f	ff c8		 dec	 eax
  00191	39 44 24 28	 cmp	 DWORD PTR i$[rsp], eax
  00195	0f 8d ff 01 00
	00		 jge	 $LN27@PyAST_From

; 717  :                 ch = CHILD(n, i);

  0019b	48 63 44 24 28	 movsxd	 rax, DWORD PTR i$[rsp]
  001a0	48 6b c0 28	 imul	 rax, 40			; 00000028H
  001a4	48 8b 8c 24 c0
	00 00 00	 mov	 rcx, QWORD PTR n$[rsp]
  001ac	48 03 41 20	 add	 rax, QWORD PTR [rcx+32]
  001b0	48 89 44 24 78	 mov	 QWORD PTR ch$[rsp], rax

; 718  :                 if (TYPE(ch) == NEWLINE)

  001b5	48 8b 44 24 78	 mov	 rax, QWORD PTR ch$[rsp]
  001ba	0f bf 00	 movsx	 eax, WORD PTR [rax]
  001bd	83 f8 04	 cmp	 eax, 4
  001c0	75 02		 jne	 SHORT $LN26@PyAST_From

; 719  :                     continue;

  001c2	eb b6		 jmp	 SHORT $LN28@PyAST_From
$LN26@PyAST_From:

; 720  :                 REQ(ch, stmt);

  001c4	48 8b 44 24 78	 mov	 rax, QWORD PTR ch$[rsp]
  001c9	0f bf 00	 movsx	 eax, WORD PTR [rax]
  001cc	3d 0c 01 00 00	 cmp	 eax, 268		; 0000010cH
  001d1	74 1c		 je	 SHORT $LN41@PyAST_From
  001d3	41 b8 d0 02 00
	00		 mov	 r8d, 720		; 000002d0H
  001d9	48 8d 15 00 00
	00 00		 lea	 rdx, OFFSET FLAT:??_C@_1CA@FDBOFCJB@?$AA?4?$AA?4?$AA?2?$AAP?$AAy?$AAt?$AAh?$AAo?$AAn?$AA?2?$AAa?$AAs?$AAt?$AA?4?$AAc?$AA?$AA@
  001e0	48 8d 0d 00 00
	00 00		 lea	 rcx, OFFSET FLAT:??_C@_1CE@KPJLECKA@?$AAT?$AAY?$AAP?$AAE?$AA?$CI?$AAc?$AAh?$AA?$CJ?$AA?5?$AA?$DN?$AA?$DN?$AA?5?$AA?$CI?$AA2?$AA6?$AA8?$AA?$CJ?$AA?$AA@
  001e7	ff 15 00 00 00
	00		 call	 QWORD PTR __imp__wassert
  001ed	33 c0		 xor	 eax, eax
$LN41@PyAST_From:

; 721  :                 num = num_stmts(ch);

  001ef	48 8b 4c 24 78	 mov	 rcx, QWORD PTR ch$[rsp]
  001f4	e8 00 00 00 00	 call	 num_stmts
  001f9	89 44 24 38	 mov	 DWORD PTR num$[rsp], eax

; 722  :                 if (num == 1) {

  001fd	83 7c 24 38 01	 cmp	 DWORD PTR num$[rsp], 1
  00202	0f 85 88 00 00
	00		 jne	 $LN25@PyAST_From

; 723  :                     s = ast_for_stmt(&c, ch);

  00208	48 8b 54 24 78	 mov	 rdx, QWORD PTR ch$[rsp]
  0020d	48 8d 4c 24 50	 lea	 rcx, QWORD PTR c$[rsp]
  00212	e8 00 00 00 00	 call	 ast_for_stmt
  00217	48 89 44 24 30	 mov	 QWORD PTR s$[rsp], rax

; 724  :                     if (!s)

  0021c	48 83 7c 24 30
	00		 cmp	 QWORD PTR s$[rsp], 0
  00222	75 05		 jne	 SHORT $LN24@PyAST_From

; 725  :                         goto out;

  00224	e9 dc 04 00 00	 jmp	 $out$22370
$LN24@PyAST_From:

; 726  :                     asdl_seq_SET(stmts, k++, s);

  00229	8b 44 24 48	 mov	 eax, DWORD PTR k$[rsp]
  0022d	89 84 24 84 00
	00 00		 mov	 DWORD PTR _asdl_i$22379[rsp], eax
  00234	8b 44 24 48	 mov	 eax, DWORD PTR k$[rsp]
  00238	ff c0		 inc	 eax
  0023a	89 44 24 48	 mov	 DWORD PTR k$[rsp], eax
  0023e	48 83 7c 24 40
	00		 cmp	 QWORD PTR stmts$[rsp], 0
  00244	74 12		 je	 SHORT $LN42@PyAST_From
  00246	48 63 84 24 84
	00 00 00	 movsxd	 rax, DWORD PTR _asdl_i$22379[rsp]
  0024e	48 8b 4c 24 40	 mov	 rcx, QWORD PTR stmts$[rsp]
  00253	48 3b 01	 cmp	 rax, QWORD PTR [rcx]
  00256	7c 1c		 jl	 SHORT $LN43@PyAST_From
$LN42@PyAST_From:
  00258	41 b8 d6 02 00
	00		 mov	 r8d, 726		; 000002d6H
  0025e	48 8d 15 00 00
	00 00		 lea	 rdx, OFFSET FLAT:??_C@_1CA@FDBOFCJB@?$AA?4?$AA?4?$AA?2?$AAP?$AAy?$AAt?$AAh?$AAo?$AAn?$AA?2?$AAa?$AAs?$AAt?$AA?4?$AAc?$AA?$AA@
  00265	48 8d 0d 00 00
	00 00		 lea	 rcx, OFFSET FLAT:??_C@_1EG@CBHLFNGD@?$AA?$CI?$AAs?$AAt?$AAm?$AAt?$AAs?$AA?$CJ?$AA?5?$AA?$CG?$AA?$CG?$AA?5?$AA_?$AAa?$AAs?$AAd?$AAl?$AA_?$AAi?$AA?5?$AA?$DM?$AA?5?$AA?$CI?$AAs?$AAt?$AAm?$AAt?$AAs?$AA?$CJ?$AA?9?$AA?$DO?$AAs?$AAi@
  0026c	ff 15 00 00 00
	00		 call	 QWORD PTR __imp__wassert
  00272	33 c0		 xor	 eax, eax
$LN43@PyAST_From:
  00274	48 63 84 24 84
	00 00 00	 movsxd	 rax, DWORD PTR _asdl_i$22379[rsp]
  0027c	48 8b 4c 24 40	 mov	 rcx, QWORD PTR stmts$[rsp]
  00281	48 8b 54 24 30	 mov	 rdx, QWORD PTR s$[rsp]
  00286	48 89 54 c1 08	 mov	 QWORD PTR [rcx+rax*8+8], rdx

; 727  :                 }
; 728  :                 else {

  0028b	e9 05 01 00 00	 jmp	 $LN23@PyAST_From
$LN25@PyAST_From:

; 729  :                     ch = CHILD(ch, 0);

  00290	48 8b 44 24 78	 mov	 rax, QWORD PTR ch$[rsp]
  00295	48 8b 40 20	 mov	 rax, QWORD PTR [rax+32]
  00299	48 89 44 24 78	 mov	 QWORD PTR ch$[rsp], rax

; 730  :                     REQ(ch, simple_stmt);

  0029e	48 8b 44 24 78	 mov	 rax, QWORD PTR ch$[rsp]
  002a3	0f bf 00	 movsx	 eax, WORD PTR [rax]
  002a6	3d 0d 01 00 00	 cmp	 eax, 269		; 0000010dH
  002ab	74 1c		 je	 SHORT $LN44@PyAST_From
  002ad	41 b8 da 02 00
	00		 mov	 r8d, 730		; 000002daH
  002b3	48 8d 15 00 00
	00 00		 lea	 rdx, OFFSET FLAT:??_C@_1CA@FDBOFCJB@?$AA?4?$AA?4?$AA?2?$AAP?$AAy?$AAt?$AAh?$AAo?$AAn?$AA?2?$AAa?$AAs?$AAt?$AA?4?$AAc?$AA?$AA@
  002ba	48 8d 0d 00 00
	00 00		 lea	 rcx, OFFSET FLAT:??_C@_1CE@GEMHJBAF@?$AAT?$AAY?$AAP?$AAE?$AA?$CI?$AAc?$AAh?$AA?$CJ?$AA?5?$AA?$DN?$AA?$DN?$AA?5?$AA?$CI?$AA2?$AA6?$AA9?$AA?$CJ?$AA?$AA@
  002c1	ff 15 00 00 00
	00		 call	 QWORD PTR __imp__wassert
  002c7	33 c0		 xor	 eax, eax
$LN44@PyAST_From:

; 731  :                     for (j = 0; j < num; j++) {

  002c9	c7 84 24 80 00
	00 00 00 00 00
	00		 mov	 DWORD PTR j$[rsp], 0
  002d4	eb 10		 jmp	 SHORT $LN22@PyAST_From
$LN21@PyAST_From:
  002d6	8b 84 24 80 00
	00 00		 mov	 eax, DWORD PTR j$[rsp]
  002dd	ff c0		 inc	 eax
  002df	89 84 24 80 00
	00 00		 mov	 DWORD PTR j$[rsp], eax
$LN22@PyAST_From:
  002e6	8b 44 24 38	 mov	 eax, DWORD PTR num$[rsp]
  002ea	39 84 24 80 00
	00 00		 cmp	 DWORD PTR j$[rsp], eax
  002f1	0f 8d 9e 00 00
	00		 jge	 $LN20@PyAST_From

; 732  :                         s = ast_for_stmt(&c, CHILD(ch, j * 2));

  002f7	8b 84 24 80 00
	00 00		 mov	 eax, DWORD PTR j$[rsp]
  002fe	d1 e0		 shl	 eax, 1
  00300	48 98		 cdqe
  00302	48 6b c0 28	 imul	 rax, 40			; 00000028H
  00306	48 8b 4c 24 78	 mov	 rcx, QWORD PTR ch$[rsp]
  0030b	48 03 41 20	 add	 rax, QWORD PTR [rcx+32]
  0030f	48 8b d0	 mov	 rdx, rax
  00312	48 8d 4c 24 50	 lea	 rcx, QWORD PTR c$[rsp]
  00317	e8 00 00 00 00	 call	 ast_for_stmt
  0031c	48 89 44 24 30	 mov	 QWORD PTR s$[rsp], rax

; 733  :                         if (!s)

  00321	48 83 7c 24 30
	00		 cmp	 QWORD PTR s$[rsp], 0
  00327	75 05		 jne	 SHORT $LN19@PyAST_From

; 734  :                             goto out;

  00329	e9 d7 03 00 00	 jmp	 $out$22370
$LN19@PyAST_From:

; 735  :                         asdl_seq_SET(stmts, k++, s);

  0032e	8b 44 24 48	 mov	 eax, DWORD PTR k$[rsp]
  00332	89 84 24 88 00
	00 00		 mov	 DWORD PTR _asdl_i$22389[rsp], eax
  00339	8b 44 24 48	 mov	 eax, DWORD PTR k$[rsp]
  0033d	ff c0		 inc	 eax
  0033f	89 44 24 48	 mov	 DWORD PTR k$[rsp], eax
  00343	48 83 7c 24 40
	00		 cmp	 QWORD PTR stmts$[rsp], 0
  00349	74 12		 je	 SHORT $LN45@PyAST_From
  0034b	48 63 84 24 88
	00 00 00	 movsxd	 rax, DWORD PTR _asdl_i$22389[rsp]
  00353	48 8b 4c 24 40	 mov	 rcx, QWORD PTR stmts$[rsp]
  00358	48 3b 01	 cmp	 rax, QWORD PTR [rcx]
  0035b	7c 1c		 jl	 SHORT $LN46@PyAST_From
$LN45@PyAST_From:
  0035d	41 b8 df 02 00
	00		 mov	 r8d, 735		; 000002dfH
  00363	48 8d 15 00 00
	00 00		 lea	 rdx, OFFSET FLAT:??_C@_1CA@FDBOFCJB@?$AA?4?$AA?4?$AA?2?$AAP?$AAy?$AAt?$AAh?$AAo?$AAn?$AA?2?$AAa?$AAs?$AAt?$AA?4?$AAc?$AA?$AA@
  0036a	48 8d 0d 00 00
	00 00		 lea	 rcx, OFFSET FLAT:??_C@_1EG@CBHLFNGD@?$AA?$CI?$AAs?$AAt?$AAm?$AAt?$AAs?$AA?$CJ?$AA?5?$AA?$CG?$AA?$CG?$AA?5?$AA_?$AAa?$AAs?$AAd?$AAl?$AA_?$AAi?$AA?5?$AA?$DM?$AA?5?$AA?$CI?$AAs?$AAt?$AAm?$AAt?$AAs?$AA?$CJ?$AA?9?$AA?$DO?$AAs?$AAi@
  00371	ff 15 00 00 00
	00		 call	 QWORD PTR __imp__wassert
  00377	33 c0		 xor	 eax, eax
$LN46@PyAST_From:
  00379	48 63 84 24 88
	00 00 00	 movsxd	 rax, DWORD PTR _asdl_i$22389[rsp]
  00381	48 8b 4c 24 40	 mov	 rcx, QWORD PTR stmts$[rsp]
  00386	48 8b 54 24 30	 mov	 rdx, QWORD PTR s$[rsp]
  0038b	48 89 54 c1 08	 mov	 QWORD PTR [rcx+rax*8+8], rdx

; 736  :                     }

  00390	e9 41 ff ff ff	 jmp	 $LN21@PyAST_From
$LN20@PyAST_From:
$LN23@PyAST_From:

; 737  :                 }
; 738  :             }

  00395	e9 e0 fd ff ff	 jmp	 $LN28@PyAST_From
$LN27@PyAST_From:

; 739  :             res = Module(stmts, arena);

  0039a	48 8b 94 24 d8
	00 00 00	 mov	 rdx, QWORD PTR arena$[rsp]
  003a2	48 8b 4c 24 40	 mov	 rcx, QWORD PTR stmts$[rsp]
  003a7	e8 00 00 00 00	 call	 _Py_Module
  003ac	48 89 44 24 20	 mov	 QWORD PTR res$[rsp], rax

; 740  :             break;

  003b1	e9 4f 03 00 00	 jmp	 $LN32@PyAST_From
$LN18@PyAST_From:

; 741  :         case eval_input: {
; 742  :             expr_ty testlist_ast;
; 743  : 
; 744  :             /* XXX Why not comp_for here? */
; 745  :             testlist_ast = ast_for_testlist(&c, CHILD(n, 0));

  003b6	48 8b 84 24 c0
	00 00 00	 mov	 rax, QWORD PTR n$[rsp]
  003be	48 8b 50 20	 mov	 rdx, QWORD PTR [rax+32]
  003c2	48 8d 4c 24 50	 lea	 rcx, QWORD PTR c$[rsp]
  003c7	e8 00 00 00 00	 call	 ast_for_testlist
  003cc	48 89 84 24 90
	00 00 00	 mov	 QWORD PTR testlist_ast$22392[rsp], rax

; 746  :             if (!testlist_ast)

  003d4	48 83 bc 24 90
	00 00 00 00	 cmp	 QWORD PTR testlist_ast$22392[rsp], 0
  003dd	75 05		 jne	 SHORT $LN17@PyAST_From

; 747  :                 goto out;

  003df	e9 21 03 00 00	 jmp	 $out$22370
$LN17@PyAST_From:

; 748  :             res = Expression(testlist_ast, arena);

  003e4	48 8b 94 24 d8
	00 00 00	 mov	 rdx, QWORD PTR arena$[rsp]
  003ec	48 8b 8c 24 90
	00 00 00	 mov	 rcx, QWORD PTR testlist_ast$22392[rsp]
  003f4	e8 00 00 00 00	 call	 _Py_Expression
  003f9	48 89 44 24 20	 mov	 QWORD PTR res$[rsp], rax

; 749  :             break;

  003fe	e9 02 03 00 00	 jmp	 $LN32@PyAST_From
$LN16@PyAST_From:

; 750  :         }
; 751  :         case single_input:
; 752  :             if (TYPE(CHILD(n, 0)) == NEWLINE) {

  00403	48 8b 84 24 c0
	00 00 00	 mov	 rax, QWORD PTR n$[rsp]
  0040b	48 8b 40 20	 mov	 rax, QWORD PTR [rax+32]
  0040f	0f bf 00	 movsx	 eax, WORD PTR [rax]
  00412	83 f8 04	 cmp	 eax, 4
  00415	0f 85 c7 00 00
	00		 jne	 $LN15@PyAST_From

; 753  :                 stmts = asdl_seq_new(1, arena);

  0041b	48 8b 94 24 d8
	00 00 00	 mov	 rdx, QWORD PTR arena$[rsp]
  00423	b9 01 00 00 00	 mov	 ecx, 1
  00428	e8 00 00 00 00	 call	 asdl_seq_new
  0042d	48 89 44 24 40	 mov	 QWORD PTR stmts$[rsp], rax

; 754  :                 if (!stmts)

  00432	48 83 7c 24 40
	00		 cmp	 QWORD PTR stmts$[rsp], 0
  00438	75 05		 jne	 SHORT $LN14@PyAST_From

; 755  :                     goto out;

  0043a	e9 c6 02 00 00	 jmp	 $out$22370
$LN14@PyAST_From:

; 756  :                 asdl_seq_SET(stmts, 0, Pass(n->n_lineno, n->n_col_offset,
; 757  :                                             arena));

  0043f	c7 84 24 98 00
	00 00 00 00 00
	00		 mov	 DWORD PTR _asdl_i$22397[rsp], 0
  0044a	48 83 7c 24 40
	00		 cmp	 QWORD PTR stmts$[rsp], 0
  00450	74 12		 je	 SHORT $LN47@PyAST_From
  00452	48 63 84 24 98
	00 00 00	 movsxd	 rax, DWORD PTR _asdl_i$22397[rsp]
  0045a	48 8b 4c 24 40	 mov	 rcx, QWORD PTR stmts$[rsp]
  0045f	48 3b 01	 cmp	 rax, QWORD PTR [rcx]
  00462	7c 1c		 jl	 SHORT $LN48@PyAST_From
$LN47@PyAST_From:
  00464	41 b8 f5 02 00
	00		 mov	 r8d, 757		; 000002f5H
  0046a	48 8d 15 00 00
	00 00		 lea	 rdx, OFFSET FLAT:??_C@_1CA@FDBOFCJB@?$AA?4?$AA?4?$AA?2?$AAP?$AAy?$AAt?$AAh?$AAo?$AAn?$AA?2?$AAa?$AAs?$AAt?$AA?4?$AAc?$AA?$AA@
  00471	48 8d 0d 00 00
	00 00		 lea	 rcx, OFFSET FLAT:??_C@_1EG@CBHLFNGD@?$AA?$CI?$AAs?$AAt?$AAm?$AAt?$AAs?$AA?$CJ?$AA?5?$AA?$CG?$AA?$CG?$AA?5?$AA_?$AAa?$AAs?$AAd?$AAl?$AA_?$AAi?$AA?5?$AA?$DM?$AA?5?$AA?$CI?$AAs?$AAt?$AAm?$AAt?$AAs?$AA?$CJ?$AA?9?$AA?$DO?$AAs?$AAi@
  00478	ff 15 00 00 00
	00		 call	 QWORD PTR __imp__wassert
  0047e	33 c0		 xor	 eax, eax
$LN48@PyAST_From:
  00480	4c 8b 84 24 d8
	00 00 00	 mov	 r8, QWORD PTR arena$[rsp]
  00488	48 8b 84 24 c0
	00 00 00	 mov	 rax, QWORD PTR n$[rsp]
  00490	8b 50 14	 mov	 edx, DWORD PTR [rax+20]
  00493	48 8b 84 24 c0
	00 00 00	 mov	 rax, QWORD PTR n$[rsp]
  0049b	8b 48 10	 mov	 ecx, DWORD PTR [rax+16]
  0049e	e8 00 00 00 00	 call	 _Py_Pass
  004a3	48 63 8c 24 98
	00 00 00	 movsxd	 rcx, DWORD PTR _asdl_i$22397[rsp]
  004ab	48 8b 54 24 40	 mov	 rdx, QWORD PTR stmts$[rsp]
  004b0	48 89 44 ca 08	 mov	 QWORD PTR [rdx+rcx*8+8], rax

; 758  :                 if (!asdl_seq_GET(stmts, 0))

  004b5	48 8b 44 24 40	 mov	 rax, QWORD PTR stmts$[rsp]
  004ba	48 83 78 08 00	 cmp	 QWORD PTR [rax+8], 0
  004bf	75 05		 jne	 SHORT $LN13@PyAST_From

; 759  :                     goto out;

  004c1	e9 3f 02 00 00	 jmp	 $out$22370
$LN13@PyAST_From:

; 760  :                 res = Interactive(stmts, arena);

  004c6	48 8b 94 24 d8
	00 00 00	 mov	 rdx, QWORD PTR arena$[rsp]
  004ce	48 8b 4c 24 40	 mov	 rcx, QWORD PTR stmts$[rsp]
  004d3	e8 00 00 00 00	 call	 _Py_Interactive
  004d8	48 89 44 24 20	 mov	 QWORD PTR res$[rsp], rax

; 761  :             }
; 762  :             else {

  004dd	e9 00 02 00 00	 jmp	 $LN12@PyAST_From
$LN15@PyAST_From:

; 763  :                 n = CHILD(n, 0);

  004e2	48 8b 84 24 c0
	00 00 00	 mov	 rax, QWORD PTR n$[rsp]
  004ea	48 8b 40 20	 mov	 rax, QWORD PTR [rax+32]
  004ee	48 89 84 24 c0
	00 00 00	 mov	 QWORD PTR n$[rsp], rax

; 764  :                 num = num_stmts(n);

  004f6	48 8b 8c 24 c0
	00 00 00	 mov	 rcx, QWORD PTR n$[rsp]
  004fe	e8 00 00 00 00	 call	 num_stmts
  00503	89 44 24 38	 mov	 DWORD PTR num$[rsp], eax

; 765  :                 stmts = asdl_seq_new(num, arena);

  00507	48 63 44 24 38	 movsxd	 rax, DWORD PTR num$[rsp]
  0050c	48 8b 94 24 d8
	00 00 00	 mov	 rdx, QWORD PTR arena$[rsp]
  00514	48 8b c8	 mov	 rcx, rax
  00517	e8 00 00 00 00	 call	 asdl_seq_new
  0051c	48 89 44 24 40	 mov	 QWORD PTR stmts$[rsp], rax

; 766  :                 if (!stmts)

  00521	48 83 7c 24 40
	00		 cmp	 QWORD PTR stmts$[rsp], 0
  00527	75 05		 jne	 SHORT $LN11@PyAST_From

; 767  :                     goto out;

  00529	e9 d7 01 00 00	 jmp	 $out$22370
$LN11@PyAST_From:

; 768  :                 if (num == 1) {

  0052e	83 7c 24 38 01	 cmp	 DWORD PTR num$[rsp], 1
  00533	0f 85 81 00 00
	00		 jne	 $LN10@PyAST_From

; 769  :                     s = ast_for_stmt(&c, n);

  00539	48 8b 94 24 c0
	00 00 00	 mov	 rdx, QWORD PTR n$[rsp]
  00541	48 8d 4c 24 50	 lea	 rcx, QWORD PTR c$[rsp]
  00546	e8 00 00 00 00	 call	 ast_for_stmt
  0054b	48 89 44 24 30	 mov	 QWORD PTR s$[rsp], rax

; 770  :                     if (!s)

  00550	48 83 7c 24 30
	00		 cmp	 QWORD PTR s$[rsp], 0
  00556	75 05		 jne	 SHORT $LN9@PyAST_From

; 771  :                         goto out;

  00558	e9 a8 01 00 00	 jmp	 $out$22370
$LN9@PyAST_From:

; 772  :                     asdl_seq_SET(stmts, 0, s);

  0055d	c7 84 24 9c 00
	00 00 00 00 00
	00		 mov	 DWORD PTR _asdl_i$22404[rsp], 0
  00568	48 83 7c 24 40
	00		 cmp	 QWORD PTR stmts$[rsp], 0
  0056e	74 12		 je	 SHORT $LN49@PyAST_From
  00570	48 63 84 24 9c
	00 00 00	 movsxd	 rax, DWORD PTR _asdl_i$22404[rsp]
  00578	48 8b 4c 24 40	 mov	 rcx, QWORD PTR stmts$[rsp]
  0057d	48 3b 01	 cmp	 rax, QWORD PTR [rcx]
  00580	7c 1c		 jl	 SHORT $LN50@PyAST_From
$LN49@PyAST_From:
  00582	41 b8 04 03 00
	00		 mov	 r8d, 772		; 00000304H
  00588	48 8d 15 00 00
	00 00		 lea	 rdx, OFFSET FLAT:??_C@_1CA@FDBOFCJB@?$AA?4?$AA?4?$AA?2?$AAP?$AAy?$AAt?$AAh?$AAo?$AAn?$AA?2?$AAa?$AAs?$AAt?$AA?4?$AAc?$AA?$AA@
  0058f	48 8d 0d 00 00
	00 00		 lea	 rcx, OFFSET FLAT:??_C@_1EG@CBHLFNGD@?$AA?$CI?$AAs?$AAt?$AAm?$AAt?$AAs?$AA?$CJ?$AA?5?$AA?$CG?$AA?$CG?$AA?5?$AA_?$AAa?$AAs?$AAd?$AAl?$AA_?$AAi?$AA?5?$AA?$DM?$AA?5?$AA?$CI?$AAs?$AAt?$AAm?$AAt?$AAs?$AA?$CJ?$AA?9?$AA?$DO?$AAs?$AAi@
  00596	ff 15 00 00 00
	00		 call	 QWORD PTR __imp__wassert
  0059c	33 c0		 xor	 eax, eax
$LN50@PyAST_From:
  0059e	48 63 84 24 9c
	00 00 00	 movsxd	 rax, DWORD PTR _asdl_i$22404[rsp]
  005a6	48 8b 4c 24 40	 mov	 rcx, QWORD PTR stmts$[rsp]
  005ab	48 8b 54 24 30	 mov	 rdx, QWORD PTR s$[rsp]
  005b0	48 89 54 c1 08	 mov	 QWORD PTR [rcx+rax*8+8], rdx

; 773  :                 }
; 774  :                 else {

  005b5	e9 11 01 00 00	 jmp	 $LN8@PyAST_From
$LN10@PyAST_From:

; 775  :                     /* Only a simple_stmt can contain multiple statements. */
; 776  :                     REQ(n, simple_stmt);

  005ba	48 8b 84 24 c0
	00 00 00	 mov	 rax, QWORD PTR n$[rsp]
  005c2	0f bf 00	 movsx	 eax, WORD PTR [rax]
  005c5	3d 0d 01 00 00	 cmp	 eax, 269		; 0000010dH
  005ca	74 1c		 je	 SHORT $LN51@PyAST_From
  005cc	41 b8 08 03 00
	00		 mov	 r8d, 776		; 00000308H
  005d2	48 8d 15 00 00
	00 00		 lea	 rdx, OFFSET FLAT:??_C@_1CA@FDBOFCJB@?$AA?4?$AA?4?$AA?2?$AAP?$AAy?$AAt?$AAh?$AAo?$AAn?$AA?2?$AAa?$AAs?$AAt?$AA?4?$AAc?$AA?$AA@
  005d9	48 8d 0d 00 00
	00 00		 lea	 rcx, OFFSET FLAT:??_C@_1CC@MBELPIFO@?$AAT?$AAY?$AAP?$AAE?$AA?$CI?$AAn?$AA?$CJ?$AA?5?$AA?$DN?$AA?$DN?$AA?5?$AA?$CI?$AA2?$AA6?$AA9?$AA?$CJ?$AA?$AA@
  005e0	ff 15 00 00 00
	00		 call	 QWORD PTR __imp__wassert
  005e6	33 c0		 xor	 eax, eax
$LN51@PyAST_From:

; 777  :                     for (i = 0; i < NCH(n); i += 2) {

  005e8	c7 44 24 28 00
	00 00 00	 mov	 DWORD PTR i$[rsp], 0
  005f0	eb 0b		 jmp	 SHORT $LN7@PyAST_From
$LN6@PyAST_From:
  005f2	8b 44 24 28	 mov	 eax, DWORD PTR i$[rsp]
  005f6	83 c0 02	 add	 eax, 2
  005f9	89 44 24 28	 mov	 DWORD PTR i$[rsp], eax
$LN7@PyAST_From:
  005fd	48 8b 84 24 c0
	00 00 00	 mov	 rax, QWORD PTR n$[rsp]
  00605	8b 40 18	 mov	 eax, DWORD PTR [rax+24]
  00608	39 44 24 28	 cmp	 DWORD PTR i$[rsp], eax
  0060c	0f 8d b9 00 00
	00		 jge	 $LN5@PyAST_From

; 778  :                         if (TYPE(CHILD(n, i)) == NEWLINE)

  00612	48 63 44 24 28	 movsxd	 rax, DWORD PTR i$[rsp]
  00617	48 6b c0 28	 imul	 rax, 40			; 00000028H
  0061b	48 8b 8c 24 c0
	00 00 00	 mov	 rcx, QWORD PTR n$[rsp]
  00623	48 8b 49 20	 mov	 rcx, QWORD PTR [rcx+32]
  00627	0f bf 04 01	 movsx	 eax, WORD PTR [rcx+rax]
  0062b	83 f8 04	 cmp	 eax, 4
  0062e	75 05		 jne	 SHORT $LN4@PyAST_From

; 779  :                             break;

  00630	e9 96 00 00 00	 jmp	 $LN5@PyAST_From
$LN4@PyAST_From:

; 780  :                         s = ast_for_stmt(&c, CHILD(n, i));

  00635	48 63 44 24 28	 movsxd	 rax, DWORD PTR i$[rsp]
  0063a	48 6b c0 28	 imul	 rax, 40			; 00000028H
  0063e	48 8b 8c 24 c0
	00 00 00	 mov	 rcx, QWORD PTR n$[rsp]
  00646	48 03 41 20	 add	 rax, QWORD PTR [rcx+32]
  0064a	48 8b d0	 mov	 rdx, rax
  0064d	48 8d 4c 24 50	 lea	 rcx, QWORD PTR c$[rsp]
  00652	e8 00 00 00 00	 call	 ast_for_stmt
  00657	48 89 44 24 30	 mov	 QWORD PTR s$[rsp], rax

; 781  :                         if (!s)

  0065c	48 83 7c 24 30
	00		 cmp	 QWORD PTR s$[rsp], 0
  00662	75 05		 jne	 SHORT $LN3@PyAST_From

; 782  :                             goto out;

  00664	e9 9c 00 00 00	 jmp	 $out$22370
$LN3@PyAST_From:

; 783  :                         asdl_seq_SET(stmts, i / 2, s);

  00669	8b 44 24 28	 mov	 eax, DWORD PTR i$[rsp]
  0066d	99		 cdq
  0066e	2b c2		 sub	 eax, edx
  00670	d1 f8		 sar	 eax, 1
  00672	89 84 24 a0 00
	00 00		 mov	 DWORD PTR _asdl_i$22414[rsp], eax
  00679	48 83 7c 24 40
	00		 cmp	 QWORD PTR stmts$[rsp], 0
  0067f	74 12		 je	 SHORT $LN52@PyAST_From
  00681	48 63 84 24 a0
	00 00 00	 movsxd	 rax, DWORD PTR _asdl_i$22414[rsp]
  00689	48 8b 4c 24 40	 mov	 rcx, QWORD PTR stmts$[rsp]
  0068e	48 3b 01	 cmp	 rax, QWORD PTR [rcx]
  00691	7c 1c		 jl	 SHORT $LN53@PyAST_From
$LN52@PyAST_From:
  00693	41 b8 0f 03 00
	00		 mov	 r8d, 783		; 0000030fH
  00699	48 8d 15 00 00
	00 00		 lea	 rdx, OFFSET FLAT:??_C@_1CA@FDBOFCJB@?$AA?4?$AA?4?$AA?2?$AAP?$AAy?$AAt?$AAh?$AAo?$AAn?$AA?2?$AAa?$AAs?$AAt?$AA?4?$AAc?$AA?$AA@
  006a0	48 8d 0d 00 00
	00 00		 lea	 rcx, OFFSET FLAT:??_C@_1EG@CBHLFNGD@?$AA?$CI?$AAs?$AAt?$AAm?$AAt?$AAs?$AA?$CJ?$AA?5?$AA?$CG?$AA?$CG?$AA?5?$AA_?$AAa?$AAs?$AAd?$AAl?$AA_?$AAi?$AA?5?$AA?$DM?$AA?5?$AA?$CI?$AAs?$AAt?$AAm?$AAt?$AAs?$AA?$CJ?$AA?9?$AA?$DO?$AAs?$AAi@
  006a7	ff 15 00 00 00
	00		 call	 QWORD PTR __imp__wassert
  006ad	33 c0		 xor	 eax, eax
$LN53@PyAST_From:
  006af	48 63 84 24 a0
	00 00 00	 movsxd	 rax, DWORD PTR _asdl_i$22414[rsp]
  006b7	48 8b 4c 24 40	 mov	 rcx, QWORD PTR stmts$[rsp]
  006bc	48 8b 54 24 30	 mov	 rdx, QWORD PTR s$[rsp]
  006c1	48 89 54 c1 08	 mov	 QWORD PTR [rcx+rax*8+8], rdx

; 784  :                     }

  006c6	e9 27 ff ff ff	 jmp	 $LN6@PyAST_From
$LN5@PyAST_From:
$LN8@PyAST_From:

; 785  :                 }
; 786  : 
; 787  :                 res = Interactive(stmts, arena);

  006cb	48 8b 94 24 d8
	00 00 00	 mov	 rdx, QWORD PTR arena$[rsp]
  006d3	48 8b 4c 24 40	 mov	 rcx, QWORD PTR stmts$[rsp]
  006d8	e8 00 00 00 00	 call	 _Py_Interactive
  006dd	48 89 44 24 20	 mov	 QWORD PTR res$[rsp], rax
$LN12@PyAST_From:

; 788  :             }
; 789  :             break;

  006e2	eb 21		 jmp	 SHORT $LN32@PyAST_From
$LN2@PyAST_From:

; 790  :         default:
; 791  :             PyErr_Format(PyExc_SystemError,
; 792  :                          "invalid node %d for PyAST_FromNode", TYPE(n));

  006e4	48 8b 84 24 c0
	00 00 00	 mov	 rax, QWORD PTR n$[rsp]
  006ec	0f bf 00	 movsx	 eax, WORD PTR [rax]
  006ef	44 8b c0	 mov	 r8d, eax
  006f2	48 8d 15 00 00
	00 00		 lea	 rdx, OFFSET FLAT:??_C@_0CD@NFODNNNO@invalid?5node?5?$CFd?5for?5PyAST_FromNo@
  006f9	48 8b 0d 00 00
	00 00		 mov	 rcx, QWORD PTR PyExc_SystemError
  00700	e8 00 00 00 00	 call	 PyErr_Format
$LN32@PyAST_From:
$out$22370:

; 793  :             goto out;
; 794  :     }
; 795  :  out:
; 796  :     if (c.c_normalize) {

  00705	48 83 7c 24 68
	00		 cmp	 QWORD PTR c$[rsp+24], 0
  0070b	74 21		 je	 SHORT $LN1@PyAST_From

; 797  :         Py_DECREF(c.c_normalize);

  0070d	48 8b 4c 24 68	 mov	 rcx, QWORD PTR c$[rsp+24]
  00712	e8 00 00 00 00	 call	 _Py_DecRef

; 798  :         PyTuple_SET_ITEM(c.c_normalize_args, 1, NULL);

  00717	48 8b 44 24 70	 mov	 rax, QWORD PTR c$[rsp+32]
  0071c	48 c7 40 78 00
	00 00 00	 mov	 QWORD PTR [rax+120], 0

; 799  :         Py_DECREF(c.c_normalize_args);

  00724	48 8b 4c 24 70	 mov	 rcx, QWORD PTR c$[rsp+32]
  00729	e8 00 00 00 00	 call	 _Py_DecRef
$LN1@PyAST_From:

; 800  :     }
; 801  :     return res;

  0072e	48 8b 44 24 20	 mov	 rax, QWORD PTR res$[rsp]

; 802  : }

  00733	48 81 c4 b8 00
	00 00		 add	 rsp, 184		; 000000b8H
  0073a	c3		 ret	 0
PyAST_FromNode ENDP
_TEXT	ENDS
PUBLIC	??_C@_0L@DMHMLFIA@_Py_DecRef?$AA@		; `string'
PUBLIC	??_C@_0CD@HDJFDCDP@c?3?2src?2pyparallel?2include?2object@ ; `string'
EXTRN	_Py_Dealloc:PROC
EXTRN	_Py_NegativeRefcount:PROC
EXTRN	_PyParallel_Guard:PROC
EXTRN	_Py_RefTotal:QWORD
EXTRN	Px_DecRef:PROC
EXTRN	_Py_PXCTX:PROC
;	COMDAT pdata
; File c:\src\pyparallel\include\object.h
pdata	SEGMENT
$pdata$_Py_DecRef DD imagerel $LN13
	DD	imagerel $LN13+257
	DD	imagerel $unwind$_Py_DecRef
pdata	ENDS
;	COMDAT xdata
xdata	SEGMENT
$unwind$_Py_DecRef DD 010901H
	DD	08209H
xdata	ENDS
;	COMDAT ??_C@_0L@DMHMLFIA@_Py_DecRef?$AA@
CONST	SEGMENT
??_C@_0L@DMHMLFIA@_Py_DecRef?$AA@ DB '_Py_DecRef', 00H	; `string'
CONST	ENDS
;	COMDAT ??_C@_0CD@HDJFDCDP@c?3?2src?2pyparallel?2include?2object@
CONST	SEGMENT
??_C@_0CD@HDJFDCDP@c?3?2src?2pyparallel?2include?2object@ DB 'c:\src\pypa'
	DB	'rallel\include\object.h', 00H		; `string'
; Function compile flags: /Odtp
CONST	ENDS
;	COMDAT _Py_DecRef
_TEXT	SEGMENT
tv81 = 48
op$ = 80
_Py_DecRef PROC						; COMDAT

; 923  : {

$LN13:
  00000	48 89 4c 24 08	 mov	 QWORD PTR [rsp+8], rcx
  00005	48 83 ec 48	 sub	 rsp, 72			; 00000048H

; 924  :     if (!Py_PXCTX) {

  00009	e8 00 00 00 00	 call	 _Py_PXCTX
  0000e	85 c0		 test	 eax, eax
  00010	0f 85 e6 00 00
	00		 jne	 $LN8@Py_DecRef

; 925  :         if (Px_PERSISTED(op) || Px_CLONED(op))

  00016	48 8b 44 24 50	 mov	 rax, QWORD PTR op$[rsp]
  0001b	48 8b 40 20	 mov	 rax, QWORD PTR [rax+32]
  0001f	48 83 e0 20	 and	 rax, 32			; 00000020H
  00023	48 85 c0	 test	 rax, rax
  00026	75 14		 jne	 SHORT $LN6@Py_DecRef
  00028	48 8b 44 24 50	 mov	 rax, QWORD PTR op$[rsp]
  0002d	48 8b 40 20	 mov	 rax, QWORD PTR [rax+32]
  00031	48 25 80 00 00
	00		 and	 rax, 128		; 00000080H
  00037	48 85 c0	 test	 rax, rax
  0003a	74 0f		 je	 SHORT $LN7@Py_DecRef
$LN6@Py_DecRef:

; 926  :             Px_DECREF(op);

  0003c	48 8b 4c 24 50	 mov	 rcx, QWORD PTR op$[rsp]
  00041	e8 00 00 00 00	 call	 Px_DecRef
  00046	e9 b1 00 00 00	 jmp	 $LN5@Py_DecRef
$LN7@Py_DecRef:

; 927  :         else if (!Px_ISPX(op)) {

  0004b	48 8b 44 24 50	 mov	 rax, QWORD PTR op$[rsp]
  00050	48 8b 40 20	 mov	 rax, QWORD PTR [rax+32]
  00054	48 83 e0 02	 and	 rax, 2
  00058	48 85 c0	 test	 rax, rax
  0005b	0f 85 9b 00 00
	00		 jne	 $LN4@Py_DecRef

; 928  :             _Py_DEC_REFTOTAL;

  00061	e8 00 00 00 00	 call	 _Py_PXCTX
  00066	85 c0		 test	 eax, eax
  00068	74 02		 je	 SHORT $LN11@Py_DecRef
  0006a	eb 11		 jmp	 SHORT $LN12@Py_DecRef
$LN11@Py_DecRef:
  0006c	48 8b 05 00 00
	00 00		 mov	 rax, QWORD PTR _Py_RefTotal
  00073	48 ff c8	 dec	 rax
  00076	48 89 05 00 00
	00 00		 mov	 QWORD PTR _Py_RefTotal, rax
$LN12@Py_DecRef:

; 929  :             if ((--((PyObject *)(op))->ob_refcnt) != 0) {

  0007d	48 8b 44 24 50	 mov	 rax, QWORD PTR op$[rsp]
  00082	48 8b 40 50	 mov	 rax, QWORD PTR [rax+80]
  00086	48 ff c8	 dec	 rax
  00089	48 89 44 24 30	 mov	 QWORD PTR tv81[rsp], rax
  0008e	48 8b 44 24 50	 mov	 rax, QWORD PTR op$[rsp]
  00093	48 8b 4c 24 30	 mov	 rcx, QWORD PTR tv81[rsp]
  00098	48 89 48 50	 mov	 QWORD PTR [rax+80], rcx
  0009c	48 83 7c 24 30
	00		 cmp	 QWORD PTR tv81[rsp], 0
  000a2	74 4e		 je	 SHORT $LN3@Py_DecRef

; 930  :                 _Py_CHECK_REFCNT(op);

  000a4	c7 44 24 20 10
	00 00 00	 mov	 DWORD PTR [rsp+32], 16
  000ac	4c 8b 4c 24 50	 mov	 r9, QWORD PTR op$[rsp]
  000b1	41 b8 a2 03 00
	00		 mov	 r8d, 930		; 000003a2H
  000b7	48 8d 15 00 00
	00 00		 lea	 rdx, OFFSET FLAT:??_C@_0CD@HDJFDCDP@c?3?2src?2pyparallel?2include?2object@
  000be	48 8d 0d 00 00
	00 00		 lea	 rcx, OFFSET FLAT:??_C@_0L@DMHMLFIA@_Py_DecRef?$AA@
  000c5	e8 00 00 00 00	 call	 _PyParallel_Guard
  000ca	85 c0		 test	 eax, eax
  000cc	75 22		 jne	 SHORT $LN2@Py_DecRef
  000ce	48 8b 44 24 50	 mov	 rax, QWORD PTR op$[rsp]
  000d3	48 83 78 50 00	 cmp	 QWORD PTR [rax+80], 0
  000d8	7d 16		 jge	 SHORT $LN2@Py_DecRef
  000da	4c 8b 44 24 50	 mov	 r8, QWORD PTR op$[rsp]
  000df	ba a2 03 00 00	 mov	 edx, 930		; 000003a2H
  000e4	48 8d 0d 00 00
	00 00		 lea	 rcx, OFFSET FLAT:??_C@_0CD@HDJFDCDP@c?3?2src?2pyparallel?2include?2object@
  000eb	e8 00 00 00 00	 call	 _Py_NegativeRefcount
$LN2@Py_DecRef:

; 931  :             } else

  000f0	eb 0a		 jmp	 SHORT $LN1@Py_DecRef
$LN3@Py_DecRef:

; 932  :                 _Py_Dealloc((PyObject *)(op));

  000f2	48 8b 4c 24 50	 mov	 rcx, QWORD PTR op$[rsp]
  000f7	e8 00 00 00 00	 call	 _Py_Dealloc
$LN1@Py_DecRef:
$LN4@Py_DecRef:
$LN5@Py_DecRef:
$LN8@Py_DecRef:

; 933  :         }
; 934  :     }
; 935  : }

  000fc	48 83 c4 48	 add	 rsp, 72			; 00000048H
  00100	c3		 ret	 0
_Py_DecRef ENDP
_TEXT	ENDS
PUBLIC	??_C@_0BL@JJDIMLMN@Non?9statement?5found?3?5?$CFd?5?$CFd?$AA@ ; `string'
EXTRN	Py_FatalError:PROC
EXTRN	__imp_sprintf:PROC
;	COMDAT pdata
; File c:\src\pyparallel\python\ast.c
pdata	SEGMENT
$pdata$num_stmts DD imagerel num_stmts
	DD	imagerel num_stmts+630
	DD	imagerel $unwind$num_stmts
pdata	ENDS
;	COMDAT xdata
xdata	SEGMENT
$unwind$num_stmts DD 020c01H
	DD	019010cH
xdata	ENDS
;	COMDAT ??_C@_0BL@JJDIMLMN@Non?9statement?5found?3?5?$CFd?5?$CFd?$AA@
CONST	SEGMENT
??_C@_0BL@JJDIMLMN@Non?9statement?5found?3?5?$CFd?5?$CFd?$AA@ DB 'Non-sta'
	DB	'tement found: %d %d', 00H			; `string'
; Function compile flags: /Odtp
CONST	ENDS
;	COMDAT num_stmts
_TEXT	SEGMENT
i$ = 32
l$ = 36
ch$ = 40
buf$22334 = 48
tv65 = 176
n$ = 208
num_stmts PROC						; COMDAT

; 631  : {

  00000	48 89 4c 24 08	 mov	 QWORD PTR [rsp+8], rcx
  00005	48 81 ec c8 00
	00 00		 sub	 rsp, 200		; 000000c8H

; 632  :     int i, l;
; 633  :     node *ch;
; 634  : 
; 635  :     switch (TYPE(n)) {

  0000c	48 8b 84 24 d0
	00 00 00	 mov	 rax, QWORD PTR n$[rsp]
  00014	0f bf 00	 movsx	 eax, WORD PTR [rax]
  00017	89 84 24 b0 00
	00 00		 mov	 DWORD PTR tv65[rsp], eax
  0001e	8b 84 24 b0 00
	00 00		 mov	 eax, DWORD PTR tv65[rsp]
  00025	2d 00 01 00 00	 sub	 eax, 256		; 00000100H
  0002a	89 84 24 b0 00
	00 00		 mov	 DWORD PTR tv65[rsp], eax
  00031	83 bc 24 b0 00
	00 00 2d	 cmp	 DWORD PTR tv65[rsp], 45	; 0000002dH
  00039	0f 87 88 01 00
	00		 ja	 $LN1@num_stmts
  0003f	48 63 84 24 b0
	00 00 00	 movsxd	 rax, DWORD PTR tv65[rsp]
  00047	48 8d 0d 00 00
	00 00		 lea	 rcx, OFFSET FLAT:__ImageBase
  0004e	0f b6 84 01 00
	00 00 00	 movzx	 eax, BYTE PTR $LN24@num_stmts[rcx+rax]
  00056	8b 84 81 00 00
	00 00		 mov	 eax, DWORD PTR $LN25@num_stmts[rcx+rax*4]
  0005d	48 03 c1	 add	 rax, rcx
  00060	ff e0		 jmp	 rax
$LN18@num_stmts:

; 636  :         case single_input:
; 637  :             if (TYPE(CHILD(n, 0)) == NEWLINE)

  00062	48 8b 84 24 d0
	00 00 00	 mov	 rax, QWORD PTR n$[rsp]
  0006a	48 8b 40 20	 mov	 rax, QWORD PTR [rax+32]
  0006e	0f bf 00	 movsx	 eax, WORD PTR [rax]
  00071	83 f8 04	 cmp	 eax, 4
  00074	75 09		 jne	 SHORT $LN17@num_stmts

; 638  :                 return 0;

  00076	33 c0		 xor	 eax, eax
  00078	e9 a4 01 00 00	 jmp	 $LN21@num_stmts

; 639  :             else

  0007d	eb 16		 jmp	 SHORT $LN16@num_stmts
$LN17@num_stmts:

; 640  :                 return num_stmts(CHILD(n, 0));

  0007f	48 8b 84 24 d0
	00 00 00	 mov	 rax, QWORD PTR n$[rsp]
  00087	48 8b 48 20	 mov	 rcx, QWORD PTR [rax+32]
  0008b	e8 00 00 00 00	 call	 num_stmts
  00090	e9 8c 01 00 00	 jmp	 $LN21@num_stmts
$LN16@num_stmts:
$LN15@num_stmts:

; 641  :         case file_input:
; 642  :             l = 0;

  00095	c7 44 24 24 00
	00 00 00	 mov	 DWORD PTR l$[rsp], 0

; 643  :             for (i = 0; i < NCH(n); i++) {

  0009d	c7 44 24 20 00
	00 00 00	 mov	 DWORD PTR i$[rsp], 0
  000a5	eb 0a		 jmp	 SHORT $LN14@num_stmts
$LN13@num_stmts:
  000a7	8b 44 24 20	 mov	 eax, DWORD PTR i$[rsp]
  000ab	ff c0		 inc	 eax
  000ad	89 44 24 20	 mov	 DWORD PTR i$[rsp], eax
$LN14@num_stmts:
  000b1	48 8b 84 24 d0
	00 00 00	 mov	 rax, QWORD PTR n$[rsp]
  000b9	8b 40 18	 mov	 eax, DWORD PTR [rax+24]
  000bc	39 44 24 20	 cmp	 DWORD PTR i$[rsp], eax
  000c0	7d 41		 jge	 SHORT $LN12@num_stmts

; 644  :                 ch = CHILD(n, i);

  000c2	48 63 44 24 20	 movsxd	 rax, DWORD PTR i$[rsp]
  000c7	48 6b c0 28	 imul	 rax, 40			; 00000028H
  000cb	48 8b 8c 24 d0
	00 00 00	 mov	 rcx, QWORD PTR n$[rsp]
  000d3	48 03 41 20	 add	 rax, QWORD PTR [rcx+32]
  000d7	48 89 44 24 28	 mov	 QWORD PTR ch$[rsp], rax

; 645  :                 if (TYPE(ch) == stmt)

  000dc	48 8b 44 24 28	 mov	 rax, QWORD PTR ch$[rsp]
  000e1	0f bf 00	 movsx	 eax, WORD PTR [rax]
  000e4	3d 0c 01 00 00	 cmp	 eax, 268		; 0000010cH
  000e9	75 16		 jne	 SHORT $LN11@num_stmts

; 646  :                     l += num_stmts(ch);

  000eb	48 8b 4c 24 28	 mov	 rcx, QWORD PTR ch$[rsp]
  000f0	e8 00 00 00 00	 call	 num_stmts
  000f5	8b 4c 24 24	 mov	 ecx, DWORD PTR l$[rsp]
  000f9	03 c8		 add	 ecx, eax
  000fb	8b c1		 mov	 eax, ecx
  000fd	89 44 24 24	 mov	 DWORD PTR l$[rsp], eax
$LN11@num_stmts:

; 647  :             }

  00101	eb a4		 jmp	 SHORT $LN13@num_stmts
$LN12@num_stmts:

; 648  :             return l;

  00103	8b 44 24 24	 mov	 eax, DWORD PTR l$[rsp]
  00107	e9 15 01 00 00	 jmp	 $LN21@num_stmts
$LN10@num_stmts:

; 649  :         case stmt:
; 650  :             return num_stmts(CHILD(n, 0));

  0010c	48 8b 84 24 d0
	00 00 00	 mov	 rax, QWORD PTR n$[rsp]
  00114	48 8b 48 20	 mov	 rcx, QWORD PTR [rax+32]
  00118	e8 00 00 00 00	 call	 num_stmts
  0011d	e9 ff 00 00 00	 jmp	 $LN21@num_stmts
$LN9@num_stmts:

; 651  :         case compound_stmt:
; 652  :             return 1;

  00122	b8 01 00 00 00	 mov	 eax, 1
  00127	e9 f5 00 00 00	 jmp	 $LN21@num_stmts
$LN8@num_stmts:

; 653  :         case simple_stmt:
; 654  :             return NCH(n) / 2; /* Divide by 2 to remove count of semi-colons */

  0012c	48 8b 84 24 d0
	00 00 00	 mov	 rax, QWORD PTR n$[rsp]
  00134	8b 40 18	 mov	 eax, DWORD PTR [rax+24]
  00137	99		 cdq
  00138	2b c2		 sub	 eax, edx
  0013a	d1 f8		 sar	 eax, 1
  0013c	e9 e0 00 00 00	 jmp	 $LN21@num_stmts
$LN7@num_stmts:

; 655  :         case suite:
; 656  :             if (NCH(n) == 1)

  00141	48 8b 84 24 d0
	00 00 00	 mov	 rax, QWORD PTR n$[rsp]
  00149	83 78 18 01	 cmp	 DWORD PTR [rax+24], 1
  0014d	75 18		 jne	 SHORT $LN6@num_stmts

; 657  :                 return num_stmts(CHILD(n, 0));

  0014f	48 8b 84 24 d0
	00 00 00	 mov	 rax, QWORD PTR n$[rsp]
  00157	48 8b 48 20	 mov	 rcx, QWORD PTR [rax+32]
  0015b	e8 00 00 00 00	 call	 num_stmts
  00160	e9 bc 00 00 00	 jmp	 $LN21@num_stmts

; 658  :             else {

  00165	eb 60		 jmp	 SHORT $LN5@num_stmts
$LN6@num_stmts:

; 659  :                 l = 0;

  00167	c7 44 24 24 00
	00 00 00	 mov	 DWORD PTR l$[rsp], 0

; 660  :                 for (i = 2; i < (NCH(n) - 1); i++)

  0016f	c7 44 24 20 02
	00 00 00	 mov	 DWORD PTR i$[rsp], 2
  00177	eb 0a		 jmp	 SHORT $LN4@num_stmts
$LN3@num_stmts:
  00179	8b 44 24 20	 mov	 eax, DWORD PTR i$[rsp]
  0017d	ff c0		 inc	 eax
  0017f	89 44 24 20	 mov	 DWORD PTR i$[rsp], eax
$LN4@num_stmts:
  00183	48 8b 84 24 d0
	00 00 00	 mov	 rax, QWORD PTR n$[rsp]
  0018b	8b 40 18	 mov	 eax, DWORD PTR [rax+24]
  0018e	ff c8		 dec	 eax
  00190	39 44 24 20	 cmp	 DWORD PTR i$[rsp], eax
  00194	7d 2b		 jge	 SHORT $LN2@num_stmts

; 661  :                     l += num_stmts(CHILD(n, i));

  00196	48 63 44 24 20	 movsxd	 rax, DWORD PTR i$[rsp]
  0019b	48 6b c0 28	 imul	 rax, 40			; 00000028H
  0019f	48 8b 8c 24 d0
	00 00 00	 mov	 rcx, QWORD PTR n$[rsp]
  001a7	48 03 41 20	 add	 rax, QWORD PTR [rcx+32]
  001ab	48 8b c8	 mov	 rcx, rax
  001ae	e8 00 00 00 00	 call	 num_stmts
  001b3	8b 4c 24 24	 mov	 ecx, DWORD PTR l$[rsp]
  001b7	03 c8		 add	 ecx, eax
  001b9	8b c1		 mov	 eax, ecx
  001bb	89 44 24 24	 mov	 DWORD PTR l$[rsp], eax
  001bf	eb b8		 jmp	 SHORT $LN3@num_stmts
$LN2@num_stmts:

; 662  :                 return l;

  001c1	8b 44 24 24	 mov	 eax, DWORD PTR l$[rsp]
  001c5	eb 5a		 jmp	 SHORT $LN21@num_stmts
$LN5@num_stmts:
$LN1@num_stmts:

; 663  :             }
; 664  :         default: {
; 665  :             char buf[128];
; 666  : 
; 667  :             sprintf(buf, "Non-statement found: %d %d",
; 668  :                     TYPE(n), NCH(n));

  001c7	48 8b 84 24 d0
	00 00 00	 mov	 rax, QWORD PTR n$[rsp]
  001cf	0f bf 00	 movsx	 eax, WORD PTR [rax]
  001d2	48 8b 8c 24 d0
	00 00 00	 mov	 rcx, QWORD PTR n$[rsp]
  001da	44 8b 49 18	 mov	 r9d, DWORD PTR [rcx+24]
  001de	44 8b c0	 mov	 r8d, eax
  001e1	48 8d 15 00 00
	00 00		 lea	 rdx, OFFSET FLAT:??_C@_0BL@JJDIMLMN@Non?9statement?5found?3?5?$CFd?5?$CFd?$AA@
  001e8	48 8d 4c 24 30	 lea	 rcx, QWORD PTR buf$22334[rsp]
  001ed	ff 15 00 00 00
	00		 call	 QWORD PTR __imp_sprintf

; 669  :             Py_FatalError(buf);

  001f3	48 8d 4c 24 30	 lea	 rcx, QWORD PTR buf$22334[rsp]
  001f8	e8 00 00 00 00	 call	 Py_FatalError

; 670  :         }
; 671  :     }
; 672  :     assert(0);

  001fd	33 c0		 xor	 eax, eax
  001ff	85 c0		 test	 eax, eax
  00201	75 1c		 jne	 SHORT $LN23@num_stmts
  00203	41 b8 a0 02 00
	00		 mov	 r8d, 672		; 000002a0H
  00209	48 8d 15 00 00
	00 00		 lea	 rdx, OFFSET FLAT:??_C@_1CA@FDBOFCJB@?$AA?4?$AA?4?$AA?2?$AAP?$AAy?$AAt?$AAh?$AAo?$AAn?$AA?2?$AAa?$AAs?$AAt?$AA?4?$AAc?$AA?$AA@
  00210	48 8d 0d 00 00
	00 00		 lea	 rcx, OFFSET FLAT:??_C@_13COJANIEC@?$AA0?$AA?$AA@
  00217	ff 15 00 00 00
	00		 call	 QWORD PTR __imp__wassert
  0021d	33 c0		 xor	 eax, eax
$LN23@num_stmts:

; 673  :     return 0;

  0021f	33 c0		 xor	 eax, eax
$LN21@num_stmts:

; 674  : }

  00221	48 81 c4 c8 00
	00 00		 add	 rsp, 200		; 000000c8H
  00228	c3		 ret	 0
  00229	0f 1f 00	 npad	 3
$LN25@num_stmts:
  0022c	00 00 00 00	 DD	 $LN18@num_stmts
  00230	00 00 00 00	 DD	 $LN15@num_stmts
  00234	00 00 00 00	 DD	 $LN10@num_stmts
  00238	00 00 00 00	 DD	 $LN8@num_stmts
  0023c	00 00 00 00	 DD	 $LN9@num_stmts
  00240	00 00 00 00	 DD	 $LN7@num_stmts
  00244	00 00 00 00	 DD	 $LN1@num_stmts
$LN24@num_stmts:
  00248	00		 DB	 0
  00249	01		 DB	 1
  0024a	06		 DB	 6
  0024b	06		 DB	 6
  0024c	06		 DB	 6
  0024d	06		 DB	 6
  0024e	06		 DB	 6
  0024f	06		 DB	 6
  00250	06		 DB	 6
  00251	06		 DB	 6
  00252	06		 DB	 6
  00253	06		 DB	 6
  00254	02		 DB	 2
  00255	03		 DB	 3
  00256	06		 DB	 6
  00257	06		 DB	 6
  00258	06		 DB	 6
  00259	06		 DB	 6
  0025a	06		 DB	 6
  0025b	06		 DB	 6
  0025c	06		 DB	 6
  0025d	06		 DB	 6
  0025e	06		 DB	 6
  0025f	06		 DB	 6
  00260	06		 DB	 6
  00261	06		 DB	 6
  00262	06		 DB	 6
  00263	06		 DB	 6
  00264	06		 DB	 6
  00265	06		 DB	 6
  00266	06		 DB	 6
  00267	06		 DB	 6
  00268	06		 DB	 6
  00269	06		 DB	 6
  0026a	06		 DB	 6
  0026b	06		 DB	 6
  0026c	06		 DB	 6
  0026d	04		 DB	 4
  0026e	06		 DB	 6
  0026f	06		 DB	 6
  00270	06		 DB	 6
  00271	06		 DB	 6
  00272	06		 DB	 6
  00273	06		 DB	 6
  00274	06		 DB	 6
  00275	05		 DB	 5
num_stmts ENDP
_TEXT	ENDS
PUBLIC	??_C@_1GK@PMMCKDID@?$AAT?$AAY?$AAP?$AAE?$AA?$CI?$AAn?$AA?$CJ?$AA?5?$AA?$DN?$AA?$DN?$AA?5?$AAt?$AAe?$AAs?$AAt?$AAl?$AAi?$AAs?$AAt?$AA?5?$AA?$HM?$AA?$HM?$AA?5?$AAT?$AAY?$AAP?$AAE?$AA?$CI?$AAn?$AA?$CJ?$AA?5?$AA?$DN@ ; `string'
PUBLIC	??_C@_1DM@PIHOGFBG@?$AAT?$AAY?$AAP?$AAE?$AA?$CI?$AAC?$AAH?$AAI?$AAL?$AAD?$AA?$CI?$AAn?$AA?0?$AA?5?$AA1?$AA?$CJ?$AA?$CJ?$AA?5?$AA?$CB?$AA?$DN?$AA?5?$AAc?$AAo?$AAm?$AAp?$AA_?$AAf?$AAo?$AAr?$AA?$AA@ ; `string'
PUBLIC	??_C@_1BG@OPMIECBC@?$AAN?$AAC?$AAH?$AA?$CI?$AAn?$AA?$CJ?$AA?5?$AA?$DO?$AA?5?$AA0?$AA?$AA@ ; `string'
EXTRN	_Py_Tuple:PROC
;	COMDAT pdata
pdata	SEGMENT
$pdata$ast_for_testlist DD imagerel ast_for_testlist
	DD	imagerel ast_for_testlist+305
	DD	imagerel $unwind$ast_for_testlist
pdata	ENDS
;	COMDAT xdata
xdata	SEGMENT
$unwind$ast_for_testlist DD 010e01H
	DD	0820eH
xdata	ENDS
;	COMDAT ??_C@_1GK@PMMCKDID@?$AAT?$AAY?$AAP?$AAE?$AA?$CI?$AAn?$AA?$CJ?$AA?5?$AA?$DN?$AA?$DN?$AA?5?$AAt?$AAe?$AAs?$AAt?$AAl?$AAi?$AAs?$AAt?$AA?5?$AA?$HM?$AA?$HM?$AA?5?$AAT?$AAY?$AAP?$AAE?$AA?$CI?$AAn?$AA?$CJ?$AA?5?$AA?$DN@
CONST	SEGMENT
??_C@_1GK@PMMCKDID@?$AAT?$AAY?$AAP?$AAE?$AA?$CI?$AAn?$AA?$CJ?$AA?5?$AA?$DN?$AA?$DN?$AA?5?$AAt?$AAe?$AAs?$AAt?$AAl?$AAi?$AAs?$AAt?$AA?5?$AA?$HM?$AA?$HM?$AA?5?$AAT?$AAY?$AAP?$AAE?$AA?$CI?$AAn?$AA?$CJ?$AA?5?$AA?$DN@ DB 'T'
	DB	00H, 'Y', 00H, 'P', 00H, 'E', 00H, '(', 00H, 'n', 00H, ')', 00H
	DB	' ', 00H, '=', 00H, '=', 00H, ' ', 00H, 't', 00H, 'e', 00H, 's'
	DB	00H, 't', 00H, 'l', 00H, 'i', 00H, 's', 00H, 't', 00H, ' ', 00H
	DB	'|', 00H, '|', 00H, ' ', 00H, 'T', 00H, 'Y', 00H, 'P', 00H, 'E'
	DB	00H, '(', 00H, 'n', 00H, ')', 00H, ' ', 00H, '=', 00H, '=', 00H
	DB	' ', 00H, 't', 00H, 'e', 00H, 's', 00H, 't', 00H, 'l', 00H, 'i'
	DB	00H, 's', 00H, 't', 00H, '_', 00H, 's', 00H, 't', 00H, 'a', 00H
	DB	'r', 00H, '_', 00H, 'e', 00H, 'x', 00H, 'p', 00H, 'r', 00H, 00H
	DB	00H						; `string'
CONST	ENDS
;	COMDAT ??_C@_1DM@PIHOGFBG@?$AAT?$AAY?$AAP?$AAE?$AA?$CI?$AAC?$AAH?$AAI?$AAL?$AAD?$AA?$CI?$AAn?$AA?0?$AA?5?$AA1?$AA?$CJ?$AA?$CJ?$AA?5?$AA?$CB?$AA?$DN?$AA?5?$AAc?$AAo?$AAm?$AAp?$AA_?$AAf?$AAo?$AAr?$AA?$AA@
CONST	SEGMENT
??_C@_1DM@PIHOGFBG@?$AAT?$AAY?$AAP?$AAE?$AA?$CI?$AAC?$AAH?$AAI?$AAL?$AAD?$AA?$CI?$AAn?$AA?0?$AA?5?$AA1?$AA?$CJ?$AA?$CJ?$AA?5?$AA?$CB?$AA?$DN?$AA?5?$AAc?$AAo?$AAm?$AAp?$AA_?$AAf?$AAo?$AAr?$AA?$AA@ DB 'T'
	DB	00H, 'Y', 00H, 'P', 00H, 'E', 00H, '(', 00H, 'C', 00H, 'H', 00H
	DB	'I', 00H, 'L', 00H, 'D', 00H, '(', 00H, 'n', 00H, ',', 00H, ' '
	DB	00H, '1', 00H, ')', 00H, ')', 00H, ' ', 00H, '!', 00H, '=', 00H
	DB	' ', 00H, 'c', 00H, 'o', 00H, 'm', 00H, 'p', 00H, '_', 00H, 'f'
	DB	00H, 'o', 00H, 'r', 00H, 00H, 00H		; `string'
CONST	ENDS
;	COMDAT ??_C@_1BG@OPMIECBC@?$AAN?$AAC?$AAH?$AA?$CI?$AAn?$AA?$CJ?$AA?5?$AA?$DO?$AA?5?$AA0?$AA?$AA@
CONST	SEGMENT
??_C@_1BG@OPMIECBC@?$AAN?$AAC?$AAH?$AA?$CI?$AAn?$AA?$CJ?$AA?5?$AA?$DO?$AA?5?$AA0?$AA?$AA@ DB 'N'
	DB	00H, 'C', 00H, 'H', 00H, '(', 00H, 'n', 00H, ')', 00H, ' ', 00H
	DB	'>', 00H, ' ', 00H, '0', 00H, 00H, 00H	; `string'
; Function compile flags: /Odtp
CONST	ENDS
;	COMDAT ast_for_testlist
_TEXT	SEGMENT
tmp$23686 = 48
c$ = 80
n$ = 88
ast_for_testlist PROC					; COMDAT

; 2536 : {

  00000	48 89 54 24 10	 mov	 QWORD PTR [rsp+16], rdx
  00005	48 89 4c 24 08	 mov	 QWORD PTR [rsp+8], rcx
  0000a	48 83 ec 48	 sub	 rsp, 72			; 00000048H

; 2537 :     /* testlist_comp: test (comp_for | (',' test)* [',']) */
; 2538 :     /* testlist: test (',' test)* [','] */
; 2539 :     assert(NCH(n) > 0);

  0000e	48 8b 44 24 58	 mov	 rax, QWORD PTR n$[rsp]
  00013	83 78 18 00	 cmp	 DWORD PTR [rax+24], 0
  00017	7f 1c		 jg	 SHORT $LN9@ast_for_te
  00019	41 b8 eb 09 00
	00		 mov	 r8d, 2539		; 000009ebH
  0001f	48 8d 15 00 00
	00 00		 lea	 rdx, OFFSET FLAT:??_C@_1CA@FDBOFCJB@?$AA?4?$AA?4?$AA?2?$AAP?$AAy?$AAt?$AAh?$AAo?$AAn?$AA?2?$AAa?$AAs?$AAt?$AA?4?$AAc?$AA?$AA@
  00026	48 8d 0d 00 00
	00 00		 lea	 rcx, OFFSET FLAT:??_C@_1BG@OPMIECBC@?$AAN?$AAC?$AAH?$AA?$CI?$AAn?$AA?$CJ?$AA?5?$AA?$DO?$AA?5?$AA0?$AA?$AA@
  0002d	ff 15 00 00 00
	00		 call	 QWORD PTR __imp__wassert
  00033	33 c0		 xor	 eax, eax
$LN9@ast_for_te:

; 2540 :     if (TYPE(n) == testlist_comp) {

  00035	48 8b 44 24 58	 mov	 rax, QWORD PTR n$[rsp]
  0003a	0f bf 00	 movsx	 eax, WORD PTR [rax]
  0003d	3d 41 01 00 00	 cmp	 eax, 321		; 00000141H
  00042	75 3d		 jne	 SHORT $LN6@ast_for_te

; 2541 :         if (NCH(n) > 1)

  00044	48 8b 44 24 58	 mov	 rax, QWORD PTR n$[rsp]
  00049	83 78 18 01	 cmp	 DWORD PTR [rax+24], 1
  0004d	7e 30		 jle	 SHORT $LN5@ast_for_te

; 2542 :             assert(TYPE(CHILD(n, 1)) != comp_for);

  0004f	48 8b 44 24 58	 mov	 rax, QWORD PTR n$[rsp]
  00054	48 8b 40 20	 mov	 rax, QWORD PTR [rax+32]
  00058	0f bf 40 28	 movsx	 eax, WORD PTR [rax+40]
  0005c	3d 4d 01 00 00	 cmp	 eax, 333		; 0000014dH
  00061	75 1c		 jne	 SHORT $LN10@ast_for_te
  00063	41 b8 ee 09 00
	00		 mov	 r8d, 2542		; 000009eeH
  00069	48 8d 15 00 00
	00 00		 lea	 rdx, OFFSET FLAT:??_C@_1CA@FDBOFCJB@?$AA?4?$AA?4?$AA?2?$AAP?$AAy?$AAt?$AAh?$AAo?$AAn?$AA?2?$AAa?$AAs?$AAt?$AA?4?$AAc?$AA?$AA@
  00070	48 8d 0d 00 00
	00 00		 lea	 rcx, OFFSET FLAT:??_C@_1DM@PIHOGFBG@?$AAT?$AAY?$AAP?$AAE?$AA?$CI?$AAC?$AAH?$AAI?$AAL?$AAD?$AA?$CI?$AAn?$AA?0?$AA?5?$AA1?$AA?$CJ?$AA?$CJ?$AA?5?$AA?$CB?$AA?$DN?$AA?5?$AAc?$AAo?$AAm?$AAp?$AA_?$AAf?$AAo?$AAr?$AA?$AA@
  00077	ff 15 00 00 00
	00		 call	 QWORD PTR __imp__wassert
  0007d	33 c0		 xor	 eax, eax
$LN10@ast_for_te:
$LN5@ast_for_te:

; 2543 :     }
; 2544 :     else {

  0007f	eb 3a		 jmp	 SHORT $LN4@ast_for_te
$LN6@ast_for_te:

; 2545 :         assert(TYPE(n) == testlist ||
; 2546 :                TYPE(n) == testlist_star_expr);

  00081	48 8b 44 24 58	 mov	 rax, QWORD PTR n$[rsp]
  00086	0f bf 00	 movsx	 eax, WORD PTR [rax]
  00089	3d 47 01 00 00	 cmp	 eax, 327		; 00000147H
  0008e	74 2b		 je	 SHORT $LN11@ast_for_te
  00090	48 8b 44 24 58	 mov	 rax, QWORD PTR n$[rsp]
  00095	0f bf 00	 movsx	 eax, WORD PTR [rax]
  00098	3d 10 01 00 00	 cmp	 eax, 272		; 00000110H
  0009d	74 1c		 je	 SHORT $LN11@ast_for_te
  0009f	41 b8 f2 09 00
	00		 mov	 r8d, 2546		; 000009f2H
  000a5	48 8d 15 00 00
	00 00		 lea	 rdx, OFFSET FLAT:??_C@_1CA@FDBOFCJB@?$AA?4?$AA?4?$AA?2?$AAP?$AAy?$AAt?$AAh?$AAo?$AAn?$AA?2?$AAa?$AAs?$AAt?$AA?4?$AAc?$AA?$AA@
  000ac	48 8d 0d 00 00
	00 00		 lea	 rcx, OFFSET FLAT:??_C@_1GK@PMMCKDID@?$AAT?$AAY?$AAP?$AAE?$AA?$CI?$AAn?$AA?$CJ?$AA?5?$AA?$DN?$AA?$DN?$AA?5?$AAt?$AAe?$AAs?$AAt?$AAl?$AAi?$AAs?$AAt?$AA?5?$AA?$HM?$AA?$HM?$AA?5?$AAT?$AAY?$AAP?$AAE?$AA?$CI?$AAn?$AA?$CJ?$AA?5?$AA?$DN@
  000b3	ff 15 00 00 00
	00		 call	 QWORD PTR __imp__wassert
  000b9	33 c0		 xor	 eax, eax
$LN11@ast_for_te:
$LN4@ast_for_te:

; 2547 :     }
; 2548 :     if (NCH(n) == 1)

  000bb	48 8b 44 24 58	 mov	 rax, QWORD PTR n$[rsp]
  000c0	83 78 18 01	 cmp	 DWORD PTR [rax+24], 1
  000c4	75 17		 jne	 SHORT $LN3@ast_for_te

; 2549 :         return ast_for_expr(c, CHILD(n, 0));

  000c6	48 8b 44 24 58	 mov	 rax, QWORD PTR n$[rsp]
  000cb	48 8b 50 20	 mov	 rdx, QWORD PTR [rax+32]
  000cf	48 8b 4c 24 50	 mov	 rcx, QWORD PTR c$[rsp]
  000d4	e8 00 00 00 00	 call	 ast_for_expr
  000d9	eb 51		 jmp	 SHORT $LN7@ast_for_te

; 2550 :     else {

  000db	eb 4f		 jmp	 SHORT $LN2@ast_for_te
$LN3@ast_for_te:

; 2551 :         asdl_seq *tmp = seq_for_testlist(c, n);

  000dd	48 8b 54 24 58	 mov	 rdx, QWORD PTR n$[rsp]
  000e2	48 8b 4c 24 50	 mov	 rcx, QWORD PTR c$[rsp]
  000e7	e8 00 00 00 00	 call	 seq_for_testlist
  000ec	48 89 44 24 30	 mov	 QWORD PTR tmp$23686[rsp], rax

; 2552 :         if (!tmp)

  000f1	48 83 7c 24 30
	00		 cmp	 QWORD PTR tmp$23686[rsp], 0
  000f7	75 04		 jne	 SHORT $LN1@ast_for_te

; 2553 :             return NULL;

  000f9	33 c0		 xor	 eax, eax
  000fb	eb 2f		 jmp	 SHORT $LN7@ast_for_te
$LN1@ast_for_te:

; 2554 :         return Tuple(tmp, Load, LINENO(n), n->n_col_offset, c->c_arena);

  000fd	48 8b 44 24 50	 mov	 rax, QWORD PTR c$[rsp]
  00102	48 8b 40 08	 mov	 rax, QWORD PTR [rax+8]
  00106	48 89 44 24 20	 mov	 QWORD PTR [rsp+32], rax
  0010b	48 8b 44 24 58	 mov	 rax, QWORD PTR n$[rsp]
  00110	44 8b 48 14	 mov	 r9d, DWORD PTR [rax+20]
  00114	48 8b 44 24 58	 mov	 rax, QWORD PTR n$[rsp]
  00119	44 8b 40 10	 mov	 r8d, DWORD PTR [rax+16]
  0011d	ba 01 00 00 00	 mov	 edx, 1
  00122	48 8b 4c 24 30	 mov	 rcx, QWORD PTR tmp$23686[rsp]
  00127	e8 00 00 00 00	 call	 _Py_Tuple
$LN2@ast_for_te:
$LN7@ast_for_te:

; 2555 :     }
; 2556 : }

  0012c	48 83 c4 48	 add	 rsp, 72			; 00000048H
  00130	c3		 ret	 0
ast_for_testlist ENDP
_TEXT	ENDS
PUBLIC	??_C@_1DO@GCGEEMDH@?$AA?$CI?$AAs?$AAe?$AAq?$AA?$CJ?$AA?5?$AA?$CG?$AA?$CG?$AA?5?$AA_?$AAa?$AAs?$AAd?$AAl?$AA_?$AAi?$AA?5?$AA?$DM?$AA?5?$AA?$CI?$AAs?$AAe?$AAq?$AA?$CJ?$AA?9?$AA?$DO?$AAs?$AAi?$AAz?$AAe?$AA?$AA@ ; `string'
PUBLIC	??_C@_1CE@GDDEIKJM@?$AAi?$AA?5?$AA?1?$AA?5?$AA2?$AA?5?$AA?$DM?$AA?5?$AAs?$AAe?$AAq?$AA?9?$AA?$DO?$AAs?$AAi?$AAz?$AAe?$AA?$AA@ ; `string'
PUBLIC	??_C@_1IK@OOGJNEEH@?$AAT?$AAY?$AAP?$AAE?$AA?$CI?$AAc?$AAh?$AA?$CJ?$AA?5?$AA?$DN?$AA?$DN?$AA?5?$AAt?$AAe?$AAs?$AAt?$AA?5?$AA?$HM?$AA?$HM?$AA?5?$AAT?$AAY?$AAP?$AAE?$AA?$CI?$AAc?$AAh?$AA?$CJ?$AA?5?$AA?$DN?$AA?$DN?$AA?5@ ; `string'
PUBLIC	??_C@_1KC@EEMNIDCK@?$AAT?$AAY?$AAP?$AAE?$AA?$CI?$AAn?$AA?$CJ?$AA?5?$AA?$DN?$AA?$DN?$AA?5?$AAt?$AAe?$AAs?$AAt?$AAl?$AAi?$AAs?$AAt?$AA?5?$AA?$HM?$AA?$HM?$AA?5?$AAT?$AAY?$AAP?$AAE?$AA?$CI?$AAn?$AA?$CJ?$AA?5?$AA?$DN@ ; `string'
;	COMDAT pdata
pdata	SEGMENT
$pdata$seq_for_testlist DD imagerel seq_for_testlist
	DD	imagerel seq_for_testlist+459
	DD	imagerel $unwind$seq_for_testlist
pdata	ENDS
;	COMDAT xdata
xdata	SEGMENT
$unwind$seq_for_testlist DD 010e01H
	DD	0a20eH
xdata	ENDS
;	COMDAT ??_C@_1DO@GCGEEMDH@?$AA?$CI?$AAs?$AAe?$AAq?$AA?$CJ?$AA?5?$AA?$CG?$AA?$CG?$AA?5?$AA_?$AAa?$AAs?$AAd?$AAl?$AA_?$AAi?$AA?5?$AA?$DM?$AA?5?$AA?$CI?$AAs?$AAe?$AAq?$AA?$CJ?$AA?9?$AA?$DO?$AAs?$AAi?$AAz?$AAe?$AA?$AA@
CONST	SEGMENT
??_C@_1DO@GCGEEMDH@?$AA?$CI?$AAs?$AAe?$AAq?$AA?$CJ?$AA?5?$AA?$CG?$AA?$CG?$AA?5?$AA_?$AAa?$AAs?$AAd?$AAl?$AA_?$AAi?$AA?5?$AA?$DM?$AA?5?$AA?$CI?$AAs?$AAe?$AAq?$AA?$CJ?$AA?9?$AA?$DO?$AAs?$AAi?$AAz?$AAe?$AA?$AA@ DB '('
	DB	00H, 's', 00H, 'e', 00H, 'q', 00H, ')', 00H, ' ', 00H, '&', 00H
	DB	'&', 00H, ' ', 00H, '_', 00H, 'a', 00H, 's', 00H, 'd', 00H, 'l'
	DB	00H, '_', 00H, 'i', 00H, ' ', 00H, '<', 00H, ' ', 00H, '(', 00H
	DB	's', 00H, 'e', 00H, 'q', 00H, ')', 00H, '-', 00H, '>', 00H, 's'
	DB	00H, 'i', 00H, 'z', 00H, 'e', 00H, 00H, 00H	; `string'
CONST	ENDS
;	COMDAT ??_C@_1CE@GDDEIKJM@?$AAi?$AA?5?$AA?1?$AA?5?$AA2?$AA?5?$AA?$DM?$AA?5?$AAs?$AAe?$AAq?$AA?9?$AA?$DO?$AAs?$AAi?$AAz?$AAe?$AA?$AA@
CONST	SEGMENT
??_C@_1CE@GDDEIKJM@?$AAi?$AA?5?$AA?1?$AA?5?$AA2?$AA?5?$AA?$DM?$AA?5?$AAs?$AAe?$AAq?$AA?9?$AA?$DO?$AAs?$AAi?$AAz?$AAe?$AA?$AA@ DB 'i'
	DB	00H, ' ', 00H, '/', 00H, ' ', 00H, '2', 00H, ' ', 00H, '<', 00H
	DB	' ', 00H, 's', 00H, 'e', 00H, 'q', 00H, '-', 00H, '>', 00H, 's'
	DB	00H, 'i', 00H, 'z', 00H, 'e', 00H, 00H, 00H	; `string'
CONST	ENDS
;	COMDAT ??_C@_1IK@OOGJNEEH@?$AAT?$AAY?$AAP?$AAE?$AA?$CI?$AAc?$AAh?$AA?$CJ?$AA?5?$AA?$DN?$AA?$DN?$AA?5?$AAt?$AAe?$AAs?$AAt?$AA?5?$AA?$HM?$AA?$HM?$AA?5?$AAT?$AAY?$AAP?$AAE?$AA?$CI?$AAc?$AAh?$AA?$CJ?$AA?5?$AA?$DN?$AA?$DN?$AA?5@
CONST	SEGMENT
??_C@_1IK@OOGJNEEH@?$AAT?$AAY?$AAP?$AAE?$AA?$CI?$AAc?$AAh?$AA?$CJ?$AA?5?$AA?$DN?$AA?$DN?$AA?5?$AAt?$AAe?$AAs?$AAt?$AA?5?$AA?$HM?$AA?$HM?$AA?5?$AAT?$AAY?$AAP?$AAE?$AA?$CI?$AAc?$AAh?$AA?$CJ?$AA?5?$AA?$DN?$AA?$DN?$AA?5@ DB 'T'
	DB	00H, 'Y', 00H, 'P', 00H, 'E', 00H, '(', 00H, 'c', 00H, 'h', 00H
	DB	')', 00H, ' ', 00H, '=', 00H, '=', 00H, ' ', 00H, 't', 00H, 'e'
	DB	00H, 's', 00H, 't', 00H, ' ', 00H, '|', 00H, '|', 00H, ' ', 00H
	DB	'T', 00H, 'Y', 00H, 'P', 00H, 'E', 00H, '(', 00H, 'c', 00H, 'h'
	DB	00H, ')', 00H, ' ', 00H, '=', 00H, '=', 00H, ' ', 00H, 't', 00H
	DB	'e', 00H, 's', 00H, 't', 00H, '_', 00H, 'n', 00H, 'o', 00H, 'c'
	DB	00H, 'o', 00H, 'n', 00H, 'd', 00H, ' ', 00H, '|', 00H, '|', 00H
	DB	' ', 00H, 'T', 00H, 'Y', 00H, 'P', 00H, 'E', 00H, '(', 00H, 'c'
	DB	00H, 'h', 00H, ')', 00H, ' ', 00H, '=', 00H, '=', 00H, ' ', 00H
	DB	's', 00H, 't', 00H, 'a', 00H, 'r', 00H, '_', 00H, 'e', 00H, 'x'
	DB	00H, 'p', 00H, 'r', 00H, 00H, 00H		; `string'
CONST	ENDS
;	COMDAT ??_C@_1KC@EEMNIDCK@?$AAT?$AAY?$AAP?$AAE?$AA?$CI?$AAn?$AA?$CJ?$AA?5?$AA?$DN?$AA?$DN?$AA?5?$AAt?$AAe?$AAs?$AAt?$AAl?$AAi?$AAs?$AAt?$AA?5?$AA?$HM?$AA?$HM?$AA?5?$AAT?$AAY?$AAP?$AAE?$AA?$CI?$AAn?$AA?$CJ?$AA?5?$AA?$DN@
CONST	SEGMENT
??_C@_1KC@EEMNIDCK@?$AAT?$AAY?$AAP?$AAE?$AA?$CI?$AAn?$AA?$CJ?$AA?5?$AA?$DN?$AA?$DN?$AA?5?$AAt?$AAe?$AAs?$AAt?$AAl?$AAi?$AAs?$AAt?$AA?5?$AA?$HM?$AA?$HM?$AA?5?$AAT?$AAY?$AAP?$AAE?$AA?$CI?$AAn?$AA?$CJ?$AA?5?$AA?$DN@ DB 'T'
	DB	00H, 'Y', 00H, 'P', 00H, 'E', 00H, '(', 00H, 'n', 00H, ')', 00H
	DB	' ', 00H, '=', 00H, '=', 00H, ' ', 00H, 't', 00H, 'e', 00H, 's'
	DB	00H, 't', 00H, 'l', 00H, 'i', 00H, 's', 00H, 't', 00H, ' ', 00H
	DB	'|', 00H, '|', 00H, ' ', 00H, 'T', 00H, 'Y', 00H, 'P', 00H, 'E'
	DB	00H, '(', 00H, 'n', 00H, ')', 00H, ' ', 00H, '=', 00H, '=', 00H
	DB	' ', 00H, 't', 00H, 'e', 00H, 's', 00H, 't', 00H, 'l', 00H, 'i'
	DB	00H, 's', 00H, 't', 00H, '_', 00H, 's', 00H, 't', 00H, 'a', 00H
	DB	'r', 00H, '_', 00H, 'e', 00H, 'x', 00H, 'p', 00H, 'r', 00H, ' '
	DB	00H, '|', 00H, '|', 00H, ' ', 00H, 'T', 00H, 'Y', 00H, 'P', 00H
	DB	'E', 00H, '(', 00H, 'n', 00H, ')', 00H, ' ', 00H, '=', 00H, '='
	DB	00H, ' ', 00H, 't', 00H, 'e', 00H, 's', 00H, 't', 00H, 'l', 00H
	DB	'i', 00H, 's', 00H, 't', 00H, '_', 00H, 'c', 00H, 'o', 00H, 'm'
	DB	00H, 'p', 00H, 00H, 00H			; `string'
; Function compile flags: /Odtp
CONST	ENDS
;	COMDAT seq_for_testlist
_TEXT	SEGMENT
i$ = 32
expression$ = 40
seq$ = 48
ch$22629 = 56
_asdl_i$22636 = 64
c$ = 96
n$ = 104
seq_for_testlist PROC					; COMDAT

; 1089 : {

  00000	48 89 54 24 10	 mov	 QWORD PTR [rsp+16], rdx
  00005	48 89 4c 24 08	 mov	 QWORD PTR [rsp+8], rcx
  0000a	48 83 ec 58	 sub	 rsp, 88			; 00000058H

; 1090 :     /* testlist: test (',' test)* [',']
; 1091 :        testlist_star_expr: test|star_expr (',' test|star_expr)* [',']
; 1092 :     */
; 1093 :     asdl_seq *seq;
; 1094 :     expr_ty expression;
; 1095 :     int i;
; 1096 :     assert(TYPE(n) == testlist || TYPE(n) == testlist_star_expr || TYPE(n) == testlist_comp);

  0000e	48 8b 44 24 68	 mov	 rax, QWORD PTR n$[rsp]
  00013	0f bf 00	 movsx	 eax, WORD PTR [rax]
  00016	3d 47 01 00 00	 cmp	 eax, 327		; 00000147H
  0001b	74 3a		 je	 SHORT $LN8@seq_for_te
  0001d	48 8b 44 24 68	 mov	 rax, QWORD PTR n$[rsp]
  00022	0f bf 00	 movsx	 eax, WORD PTR [rax]
  00025	3d 10 01 00 00	 cmp	 eax, 272		; 00000110H
  0002a	74 2b		 je	 SHORT $LN8@seq_for_te
  0002c	48 8b 44 24 68	 mov	 rax, QWORD PTR n$[rsp]
  00031	0f bf 00	 movsx	 eax, WORD PTR [rax]
  00034	3d 41 01 00 00	 cmp	 eax, 321		; 00000141H
  00039	74 1c		 je	 SHORT $LN8@seq_for_te
  0003b	41 b8 48 04 00
	00		 mov	 r8d, 1096		; 00000448H
  00041	48 8d 15 00 00
	00 00		 lea	 rdx, OFFSET FLAT:??_C@_1CA@FDBOFCJB@?$AA?4?$AA?4?$AA?2?$AAP?$AAy?$AAt?$AAh?$AAo?$AAn?$AA?2?$AAa?$AAs?$AAt?$AA?4?$AAc?$AA?$AA@
  00048	48 8d 0d 00 00
	00 00		 lea	 rcx, OFFSET FLAT:??_C@_1KC@EEMNIDCK@?$AAT?$AAY?$AAP?$AAE?$AA?$CI?$AAn?$AA?$CJ?$AA?5?$AA?$DN?$AA?$DN?$AA?5?$AAt?$AAe?$AAs?$AAt?$AAl?$AAi?$AAs?$AAt?$AA?5?$AA?$HM?$AA?$HM?$AA?5?$AAT?$AAY?$AAP?$AAE?$AA?$CI?$AAn?$AA?$CJ?$AA?5?$AA?$DN@
  0004f	ff 15 00 00 00
	00		 call	 QWORD PTR __imp__wassert
  00055	33 c0		 xor	 eax, eax
$LN8@seq_for_te:

; 1097 : 
; 1098 :     seq = asdl_seq_new((NCH(n) + 1) / 2, c->c_arena);

  00057	48 8b 44 24 68	 mov	 rax, QWORD PTR n$[rsp]
  0005c	8b 40 18	 mov	 eax, DWORD PTR [rax+24]
  0005f	ff c0		 inc	 eax
  00061	99		 cdq
  00062	2b c2		 sub	 eax, edx
  00064	d1 f8		 sar	 eax, 1
  00066	48 98		 cdqe
  00068	48 8b 4c 24 60	 mov	 rcx, QWORD PTR c$[rsp]
  0006d	48 8b 51 08	 mov	 rdx, QWORD PTR [rcx+8]
  00071	48 8b c8	 mov	 rcx, rax
  00074	e8 00 00 00 00	 call	 asdl_seq_new
  00079	48 89 44 24 30	 mov	 QWORD PTR seq$[rsp], rax

; 1099 :     if (!seq)

  0007e	48 83 7c 24 30
	00		 cmp	 QWORD PTR seq$[rsp], 0
  00084	75 07		 jne	 SHORT $LN5@seq_for_te

; 1100 :         return NULL;

  00086	33 c0		 xor	 eax, eax
  00088	e9 39 01 00 00	 jmp	 $LN6@seq_for_te
$LN5@seq_for_te:

; 1101 : 
; 1102 :     for (i = 0; i < NCH(n); i += 2) {

  0008d	c7 44 24 20 00
	00 00 00	 mov	 DWORD PTR i$[rsp], 0
  00095	eb 0b		 jmp	 SHORT $LN4@seq_for_te
$LN3@seq_for_te:
  00097	8b 44 24 20	 mov	 eax, DWORD PTR i$[rsp]
  0009b	83 c0 02	 add	 eax, 2
  0009e	89 44 24 20	 mov	 DWORD PTR i$[rsp], eax
$LN4@seq_for_te:
  000a2	48 8b 44 24 68	 mov	 rax, QWORD PTR n$[rsp]
  000a7	8b 40 18	 mov	 eax, DWORD PTR [rax+24]
  000aa	39 44 24 20	 cmp	 DWORD PTR i$[rsp], eax
  000ae	0f 8d 0d 01 00
	00		 jge	 $LN2@seq_for_te

; 1103 :         const node *ch = CHILD(n, i);

  000b4	48 63 44 24 20	 movsxd	 rax, DWORD PTR i$[rsp]
  000b9	48 6b c0 28	 imul	 rax, 40			; 00000028H
  000bd	48 8b 4c 24 68	 mov	 rcx, QWORD PTR n$[rsp]
  000c2	48 03 41 20	 add	 rax, QWORD PTR [rcx+32]
  000c6	48 89 44 24 38	 mov	 QWORD PTR ch$22629[rsp], rax

; 1104 :         assert(TYPE(ch) == test || TYPE(ch) == test_nocond || TYPE(ch) == star_expr);

  000cb	48 8b 44 24 38	 mov	 rax, QWORD PTR ch$22629[rsp]
  000d0	0f bf 00	 movsx	 eax, WORD PTR [rax]
  000d3	3d 2e 01 00 00	 cmp	 eax, 302		; 0000012eH
  000d8	74 3a		 je	 SHORT $LN9@seq_for_te
  000da	48 8b 44 24 38	 mov	 rax, QWORD PTR ch$22629[rsp]
  000df	0f bf 00	 movsx	 eax, WORD PTR [rax]
  000e2	3d 2f 01 00 00	 cmp	 eax, 303		; 0000012fH
  000e7	74 2b		 je	 SHORT $LN9@seq_for_te
  000e9	48 8b 44 24 38	 mov	 rax, QWORD PTR ch$22629[rsp]
  000ee	0f bf 00	 movsx	 eax, WORD PTR [rax]
  000f1	3d 37 01 00 00	 cmp	 eax, 311		; 00000137H
  000f6	74 1c		 je	 SHORT $LN9@seq_for_te
  000f8	41 b8 50 04 00
	00		 mov	 r8d, 1104		; 00000450H
  000fe	48 8d 15 00 00
	00 00		 lea	 rdx, OFFSET FLAT:??_C@_1CA@FDBOFCJB@?$AA?4?$AA?4?$AA?2?$AAP?$AAy?$AAt?$AAh?$AAo?$AAn?$AA?2?$AAa?$AAs?$AAt?$AA?4?$AAc?$AA?$AA@
  00105	48 8d 0d 00 00
	00 00		 lea	 rcx, OFFSET FLAT:??_C@_1IK@OOGJNEEH@?$AAT?$AAY?$AAP?$AAE?$AA?$CI?$AAc?$AAh?$AA?$CJ?$AA?5?$AA?$DN?$AA?$DN?$AA?5?$AAt?$AAe?$AAs?$AAt?$AA?5?$AA?$HM?$AA?$HM?$AA?5?$AAT?$AAY?$AAP?$AAE?$AA?$CI?$AAc?$AAh?$AA?$CJ?$AA?5?$AA?$DN?$AA?$DN?$AA?5@
  0010c	ff 15 00 00 00
	00		 call	 QWORD PTR __imp__wassert
  00112	33 c0		 xor	 eax, eax
$LN9@seq_for_te:

; 1105 : 
; 1106 :         expression = ast_for_expr(c, ch);

  00114	48 8b 54 24 38	 mov	 rdx, QWORD PTR ch$22629[rsp]
  00119	48 8b 4c 24 60	 mov	 rcx, QWORD PTR c$[rsp]
  0011e	e8 00 00 00 00	 call	 ast_for_expr
  00123	48 89 44 24 28	 mov	 QWORD PTR expression$[rsp], rax

; 1107 :         if (!expression)

  00128	48 83 7c 24 28
	00		 cmp	 QWORD PTR expression$[rsp], 0
  0012e	75 07		 jne	 SHORT $LN1@seq_for_te

; 1108 :             return NULL;

  00130	33 c0		 xor	 eax, eax
  00132	e9 8f 00 00 00	 jmp	 $LN6@seq_for_te
$LN1@seq_for_te:

; 1109 : 
; 1110 :         assert(i / 2 < seq->size);

  00137	8b 44 24 20	 mov	 eax, DWORD PTR i$[rsp]
  0013b	99		 cdq
  0013c	2b c2		 sub	 eax, edx
  0013e	d1 f8		 sar	 eax, 1
  00140	48 98		 cdqe
  00142	48 8b 4c 24 30	 mov	 rcx, QWORD PTR seq$[rsp]
  00147	48 3b 01	 cmp	 rax, QWORD PTR [rcx]
  0014a	7c 1c		 jl	 SHORT $LN10@seq_for_te
  0014c	41 b8 56 04 00
	00		 mov	 r8d, 1110		; 00000456H
  00152	48 8d 15 00 00
	00 00		 lea	 rdx, OFFSET FLAT:??_C@_1CA@FDBOFCJB@?$AA?4?$AA?4?$AA?2?$AAP?$AAy?$AAt?$AAh?$AAo?$AAn?$AA?2?$AAa?$AAs?$AAt?$AA?4?$AAc?$AA?$AA@
  00159	48 8d 0d 00 00
	00 00		 lea	 rcx, OFFSET FLAT:??_C@_1CE@GDDEIKJM@?$AAi?$AA?5?$AA?1?$AA?5?$AA2?$AA?5?$AA?$DM?$AA?5?$AAs?$AAe?$AAq?$AA?9?$AA?$DO?$AAs?$AAi?$AAz?$AAe?$AA?$AA@
  00160	ff 15 00 00 00
	00		 call	 QWORD PTR __imp__wassert
  00166	33 c0		 xor	 eax, eax
$LN10@seq_for_te:

; 1111 :         asdl_seq_SET(seq, i / 2, expression);

  00168	8b 44 24 20	 mov	 eax, DWORD PTR i$[rsp]
  0016c	99		 cdq
  0016d	2b c2		 sub	 eax, edx
  0016f	d1 f8		 sar	 eax, 1
  00171	89 44 24 40	 mov	 DWORD PTR _asdl_i$22636[rsp], eax
  00175	48 83 7c 24 30
	00		 cmp	 QWORD PTR seq$[rsp], 0
  0017b	74 0f		 je	 SHORT $LN11@seq_for_te
  0017d	48 63 44 24 40	 movsxd	 rax, DWORD PTR _asdl_i$22636[rsp]
  00182	48 8b 4c 24 30	 mov	 rcx, QWORD PTR seq$[rsp]
  00187	48 3b 01	 cmp	 rax, QWORD PTR [rcx]
  0018a	7c 1c		 jl	 SHORT $LN12@seq_for_te
$LN11@seq_for_te:
  0018c	41 b8 57 04 00
	00		 mov	 r8d, 1111		; 00000457H
  00192	48 8d 15 00 00
	00 00		 lea	 rdx, OFFSET FLAT:??_C@_1CA@FDBOFCJB@?$AA?4?$AA?4?$AA?2?$AAP?$AAy?$AAt?$AAh?$AAo?$AAn?$AA?2?$AAa?$AAs?$AAt?$AA?4?$AAc?$AA?$AA@
  00199	48 8d 0d 00 00
	00 00		 lea	 rcx, OFFSET FLAT:??_C@_1DO@GCGEEMDH@?$AA?$CI?$AAs?$AAe?$AAq?$AA?$CJ?$AA?5?$AA?$CG?$AA?$CG?$AA?5?$AA_?$AAa?$AAs?$AAd?$AAl?$AA_?$AAi?$AA?5?$AA?$DM?$AA?5?$AA?$CI?$AAs?$AAe?$AAq?$AA?$CJ?$AA?9?$AA?$DO?$AAs?$AAi?$AAz?$AAe?$AA?$AA@
  001a0	ff 15 00 00 00
	00		 call	 QWORD PTR __imp__wassert
  001a6	33 c0		 xor	 eax, eax
$LN12@seq_for_te:
  001a8	48 63 44 24 40	 movsxd	 rax, DWORD PTR _asdl_i$22636[rsp]
  001ad	48 8b 4c 24 30	 mov	 rcx, QWORD PTR seq$[rsp]
  001b2	48 8b 54 24 28	 mov	 rdx, QWORD PTR expression$[rsp]
  001b7	48 89 54 c1 08	 mov	 QWORD PTR [rcx+rax*8+8], rdx

; 1112 :     }

  001bc	e9 d6 fe ff ff	 jmp	 $LN3@seq_for_te
$LN2@seq_for_te:

; 1113 :     return seq;

  001c1	48 8b 44 24 30	 mov	 rax, QWORD PTR seq$[rsp]
$LN6@seq_for_te:

; 1114 : }

  001c6	48 83 c4 58	 add	 rsp, 88			; 00000058H
  001ca	c3		 ret	 0
seq_for_testlist ENDP
_TEXT	ENDS
PUBLIC	??_C@_0BD@JJCKBAKO@unhandled?5expr?3?5?$CFd?$AA@ ; `string'
PUBLIC	??_C@_1EC@HLDPKHLK@?$AA?$CI?$AAc?$AAm?$AAp?$AAs?$AA?$CJ?$AA?5?$AA?$CG?$AA?$CG?$AA?5?$AA_?$AAa?$AAs?$AAd?$AAl?$AA_?$AAi?$AA?5?$AA?$DM?$AA?5?$AA?$CI?$AAc?$AAm?$AAp?$AAs?$AA?$CJ?$AA?9?$AA?$DO?$AAs?$AAi?$AAz?$AAe@ ; `string'
PUBLIC	??_C@_1DO@HAJJNCPB@?$AA?$CI?$AAo?$AAp?$AAs?$AA?$CJ?$AA?5?$AA?$CG?$AA?$CG?$AA?5?$AA_?$AAa?$AAs?$AAd?$AAl?$AA_?$AAi?$AA?5?$AA?$DM?$AA?5?$AA?$CI?$AAo?$AAp?$AAs?$AA?$CJ?$AA?9?$AA?$DO?$AAs?$AAi?$AAz?$AAe?$AA?$AA@ ; `string'
PUBLIC	??_C@_1EA@DLDNABC@?$AA?$CB?$AAs?$AAt?$AAr?$AAc?$AAm?$AAp?$AA?$CI?$AAS?$AAT?$AAR?$AA?$CI?$AAC?$AAH?$AAI?$AAL?$AAD?$AA?$CI?$AAn?$AA?0?$AA?5?$AA1?$AA?$CJ?$AA?$CJ?$AA?0?$AA?5?$AA?$CC?$AAo?$AAr?$AA?$CC?$AA?$CJ?$AA?$AA@ ; `string'
PUBLIC	??_C@_02FODMLBIE@or?$AA@			; `string'
PUBLIC	??_C@_03BOPJPIAM@and?$AA@			; `string'
EXTRN	_Py_Yield:PROC
EXTRN	_Py_YieldFrom:PROC
EXTRN	_Py_Compare:PROC
EXTRN	asdl_int_seq_new:PROC
EXTRN	_Py_UnaryOp:PROC
EXTRN	_Py_BoolOp:PROC
EXTRN	strcmp:PROC
;	COMDAT pdata
pdata	SEGMENT
$pdata$ast_for_expr DD imagerel ast_for_expr
	DD	imagerel ast_for_expr+2135
	DD	imagerel $unwind$ast_for_expr
pdata	ENDS
;	COMDAT xdata
xdata	SEGMENT
$unwind$ast_for_expr DD 021101H
	DD	0170111H
xdata	ENDS
;	COMDAT ??_C@_0BD@JJCKBAKO@unhandled?5expr?3?5?$CFd?$AA@
CONST	SEGMENT
??_C@_0BD@JJCKBAKO@unhandled?5expr?3?5?$CFd?$AA@ DB 'unhandled expr: %d', 00H ; `string'
CONST	ENDS
;	COMDAT ??_C@_1EC@HLDPKHLK@?$AA?$CI?$AAc?$AAm?$AAp?$AAs?$AA?$CJ?$AA?5?$AA?$CG?$AA?$CG?$AA?5?$AA_?$AAa?$AAs?$AAd?$AAl?$AA_?$AAi?$AA?5?$AA?$DM?$AA?5?$AA?$CI?$AAc?$AAm?$AAp?$AAs?$AA?$CJ?$AA?9?$AA?$DO?$AAs?$AAi?$AAz?$AAe@
CONST	SEGMENT
??_C@_1EC@HLDPKHLK@?$AA?$CI?$AAc?$AAm?$AAp?$AAs?$AA?$CJ?$AA?5?$AA?$CG?$AA?$CG?$AA?5?$AA_?$AAa?$AAs?$AAd?$AAl?$AA_?$AAi?$AA?5?$AA?$DM?$AA?5?$AA?$CI?$AAc?$AAm?$AAp?$AAs?$AA?$CJ?$AA?9?$AA?$DO?$AAs?$AAi?$AAz?$AAe@ DB '('
	DB	00H, 'c', 00H, 'm', 00H, 'p', 00H, 's', 00H, ')', 00H, ' ', 00H
	DB	'&', 00H, '&', 00H, ' ', 00H, '_', 00H, 'a', 00H, 's', 00H, 'd'
	DB	00H, 'l', 00H, '_', 00H, 'i', 00H, ' ', 00H, '<', 00H, ' ', 00H
	DB	'(', 00H, 'c', 00H, 'm', 00H, 'p', 00H, 's', 00H, ')', 00H, '-'
	DB	00H, '>', 00H, 's', 00H, 'i', 00H, 'z', 00H, 'e', 00H, 00H, 00H ; `string'
CONST	ENDS
;	COMDAT ??_C@_1DO@HAJJNCPB@?$AA?$CI?$AAo?$AAp?$AAs?$AA?$CJ?$AA?5?$AA?$CG?$AA?$CG?$AA?5?$AA_?$AAa?$AAs?$AAd?$AAl?$AA_?$AAi?$AA?5?$AA?$DM?$AA?5?$AA?$CI?$AAo?$AAp?$AAs?$AA?$CJ?$AA?9?$AA?$DO?$AAs?$AAi?$AAz?$AAe?$AA?$AA@
CONST	SEGMENT
??_C@_1DO@HAJJNCPB@?$AA?$CI?$AAo?$AAp?$AAs?$AA?$CJ?$AA?5?$AA?$CG?$AA?$CG?$AA?5?$AA_?$AAa?$AAs?$AAd?$AAl?$AA_?$AAi?$AA?5?$AA?$DM?$AA?5?$AA?$CI?$AAo?$AAp?$AAs?$AA?$CJ?$AA?9?$AA?$DO?$AAs?$AAi?$AAz?$AAe?$AA?$AA@ DB '('
	DB	00H, 'o', 00H, 'p', 00H, 's', 00H, ')', 00H, ' ', 00H, '&', 00H
	DB	'&', 00H, ' ', 00H, '_', 00H, 'a', 00H, 's', 00H, 'd', 00H, 'l'
	DB	00H, '_', 00H, 'i', 00H, ' ', 00H, '<', 00H, ' ', 00H, '(', 00H
	DB	'o', 00H, 'p', 00H, 's', 00H, ')', 00H, '-', 00H, '>', 00H, 's'
	DB	00H, 'i', 00H, 'z', 00H, 'e', 00H, 00H, 00H	; `string'
CONST	ENDS
;	COMDAT ??_C@_1EA@DLDNABC@?$AA?$CB?$AAs?$AAt?$AAr?$AAc?$AAm?$AAp?$AA?$CI?$AAS?$AAT?$AAR?$AA?$CI?$AAC?$AAH?$AAI?$AAL?$AAD?$AA?$CI?$AAn?$AA?0?$AA?5?$AA1?$AA?$CJ?$AA?$CJ?$AA?0?$AA?5?$AA?$CC?$AAo?$AAr?$AA?$CC?$AA?$CJ?$AA?$AA@
CONST	SEGMENT
??_C@_1EA@DLDNABC@?$AA?$CB?$AAs?$AAt?$AAr?$AAc?$AAm?$AAp?$AA?$CI?$AAS?$AAT?$AAR?$AA?$CI?$AAC?$AAH?$AAI?$AAL?$AAD?$AA?$CI?$AAn?$AA?0?$AA?5?$AA1?$AA?$CJ?$AA?$CJ?$AA?0?$AA?5?$AA?$CC?$AAo?$AAr?$AA?$CC?$AA?$CJ?$AA?$AA@ DB '!'
	DB	00H, 's', 00H, 't', 00H, 'r', 00H, 'c', 00H, 'm', 00H, 'p', 00H
	DB	'(', 00H, 'S', 00H, 'T', 00H, 'R', 00H, '(', 00H, 'C', 00H, 'H'
	DB	00H, 'I', 00H, 'L', 00H, 'D', 00H, '(', 00H, 'n', 00H, ',', 00H
	DB	' ', 00H, '1', 00H, ')', 00H, ')', 00H, ',', 00H, ' ', 00H, '"'
	DB	00H, 'o', 00H, 'r', 00H, '"', 00H, ')', 00H, 00H, 00H ; `string'
CONST	ENDS
;	COMDAT ??_C@_02FODMLBIE@or?$AA@
CONST	SEGMENT
??_C@_02FODMLBIE@or?$AA@ DB 'or', 00H			; `string'
CONST	ENDS
;	COMDAT ??_C@_03BOPJPIAM@and?$AA@
CONST	SEGMENT
??_C@_03BOPJPIAM@and?$AA@ DB 'and', 00H			; `string'
; Function compile flags: /Odtp
CONST	ENDS
;	COMDAT ast_for_expr
_TEXT	SEGMENT
i$ = 48
seq$ = 56
e$23501 = 64
_asdl_i$23504 = 72
expression$23514 = 80
cmps$23522 = 88
ops$23521 = 96
expression$23520 = 104
newoperator$23530 = 112
_asdl_i$23535 = 116
_asdl_i$23538 = 120
en$23549 = 128
exp$23552 = 136
is_from$23551 = 144
an$23547 = 152
tv65 = 160
c$ = 192
n$ = 200
ast_for_expr PROC					; COMDAT

; 2241 : {

  00000	48 89 54 24 10	 mov	 QWORD PTR [rsp+16], rdx
  00005	48 89 4c 24 08	 mov	 QWORD PTR [rsp+8], rcx
  0000a	48 81 ec b8 00
	00 00		 sub	 rsp, 184		; 000000b8H
$LN57@ast_for_ex:
$LN56@ast_for_ex:
$LN55@ast_for_ex:
$LN54@ast_for_ex:
$loop$23484:

; 2242 :     /* handle the full range of simple expressions
; 2243 :        test: or_test ['if' or_test 'else' test] | lambdef
; 2244 :        test_nocond: or_test | lambdef_nocond
; 2245 :        or_test: and_test ('or' and_test)*
; 2246 :        and_test: not_test ('and' not_test)*
; 2247 :        not_test: 'not' not_test | comparison
; 2248 :        comparison: expr (comp_op expr)*
; 2249 :        expr: xor_expr ('|' xor_expr)*
; 2250 :        xor_expr: and_expr ('^' and_expr)*
; 2251 :        and_expr: shift_expr ('&' shift_expr)*
; 2252 :        shift_expr: arith_expr (('<<'|'>>') arith_expr)*
; 2253 :        arith_expr: term (('+'|'-') term)*
; 2254 :        term: factor (('*'|'/'|'%'|'//') factor)*
; 2255 :        factor: ('+'|'-'|'~') factor | power
; 2256 :        power: atom trailer* ('**' factor)*
; 2257 :     */
; 2258 : 
; 2259 :     asdl_seq *seq;
; 2260 :     int i;
; 2261 : 
; 2262 :  loop:
; 2263 :     switch (TYPE(n)) {

  00011	48 8b 84 24 c8
	00 00 00	 mov	 rax, QWORD PTR n$[rsp]
  00019	0f bf 00	 movsx	 eax, WORD PTR [rax]
  0001c	89 84 24 a0 00
	00 00		 mov	 DWORD PTR tv65[rsp], eax
  00023	8b 84 24 a0 00
	00 00		 mov	 eax, DWORD PTR tv65[rsp]
  0002a	2d 2e 01 00 00	 sub	 eax, 302		; 0000012eH
  0002f	89 84 24 a0 00
	00 00		 mov	 DWORD PTR tv65[rsp], eax
  00036	83 bc 24 a0 00
	00 00 22	 cmp	 DWORD PTR tv65[rsp], 34	; 00000022H
  0003e	0f 87 98 07 00
	00		 ja	 $LN1@ast_for_ex
  00044	48 63 84 24 a0
	00 00 00	 movsxd	 rax, DWORD PTR tv65[rsp]
  0004c	48 8d 0d 00 00
	00 00		 lea	 rcx, OFFSET FLAT:__ImageBase
  00053	0f b6 84 01 00
	00 00 00	 movzx	 eax, BYTE PTR $LN58@ast_for_ex[rcx+rax]
  0005b	8b 84 81 00 00
	00 00		 mov	 eax, DWORD PTR $LN59@ast_for_ex[rcx+rax*4]
  00062	48 03 c1	 add	 rax, rcx
  00065	ff e0		 jmp	 rax
$LN42@ast_for_ex:

; 2264 :         case test:
; 2265 :         case test_nocond:
; 2266 :             if (TYPE(CHILD(n, 0)) == lambdef ||
; 2267 :                 TYPE(CHILD(n, 0)) == lambdef_nocond)

  00067	48 8b 84 24 c8
	00 00 00	 mov	 rax, QWORD PTR n$[rsp]
  0006f	48 8b 40 20	 mov	 rax, QWORD PTR [rax+32]
  00073	0f bf 00	 movsx	 eax, WORD PTR [rax]
  00076	3d 30 01 00 00	 cmp	 eax, 304		; 00000130H
  0007b	74 16		 je	 SHORT $LN40@ast_for_ex
  0007d	48 8b 84 24 c8
	00 00 00	 mov	 rax, QWORD PTR n$[rsp]
  00085	48 8b 40 20	 mov	 rax, QWORD PTR [rax+32]
  00089	0f bf 00	 movsx	 eax, WORD PTR [rax]
  0008c	3d 31 01 00 00	 cmp	 eax, 305		; 00000131H
  00091	75 20		 jne	 SHORT $LN41@ast_for_ex
$LN40@ast_for_ex:

; 2268 :                 return ast_for_lambdef(c, CHILD(n, 0));

  00093	48 8b 84 24 c8
	00 00 00	 mov	 rax, QWORD PTR n$[rsp]
  0009b	48 8b 50 20	 mov	 rdx, QWORD PTR [rax+32]
  0009f	48 8b 8c 24 c0
	00 00 00	 mov	 rcx, QWORD PTR c$[rsp]
  000a7	e8 00 00 00 00	 call	 ast_for_lambdef
  000ac	e9 52 07 00 00	 jmp	 $LN45@ast_for_ex
  000b1	eb 28		 jmp	 SHORT $LN39@ast_for_ex
$LN41@ast_for_ex:

; 2269 :             else if (NCH(n) > 1)

  000b3	48 8b 84 24 c8
	00 00 00	 mov	 rax, QWORD PTR n$[rsp]
  000bb	83 78 18 01	 cmp	 DWORD PTR [rax+24], 1
  000bf	7e 1a		 jle	 SHORT $LN38@ast_for_ex

; 2270 :                 return ast_for_ifexpr(c, n);

  000c1	48 8b 94 24 c8
	00 00 00	 mov	 rdx, QWORD PTR n$[rsp]
  000c9	48 8b 8c 24 c0
	00 00 00	 mov	 rcx, QWORD PTR c$[rsp]
  000d1	e8 00 00 00 00	 call	 ast_for_ifexpr
  000d6	e9 28 07 00 00	 jmp	 $LN45@ast_for_ex
$LN38@ast_for_ex:
$LN39@ast_for_ex:
$LN37@ast_for_ex:

; 2271 :             /* Fallthrough */
; 2272 :         case or_test:
; 2273 :         case and_test:
; 2274 :             if (NCH(n) == 1) {

  000db	48 8b 84 24 c8
	00 00 00	 mov	 rax, QWORD PTR n$[rsp]
  000e3	83 78 18 01	 cmp	 DWORD PTR [rax+24], 1
  000e7	75 19		 jne	 SHORT $LN36@ast_for_ex

; 2275 :                 n = CHILD(n, 0);

  000e9	48 8b 84 24 c8
	00 00 00	 mov	 rax, QWORD PTR n$[rsp]
  000f1	48 8b 40 20	 mov	 rax, QWORD PTR [rax+32]
  000f5	48 89 84 24 c8
	00 00 00	 mov	 QWORD PTR n$[rsp], rax

; 2276 :                 goto loop;

  000fd	e9 0f ff ff ff	 jmp	 $loop$23484
$LN36@ast_for_ex:

; 2277 :             }
; 2278 :             seq = asdl_seq_new((NCH(n) + 1) / 2, c->c_arena);

  00102	48 8b 84 24 c8
	00 00 00	 mov	 rax, QWORD PTR n$[rsp]
  0010a	8b 40 18	 mov	 eax, DWORD PTR [rax+24]
  0010d	ff c0		 inc	 eax
  0010f	99		 cdq
  00110	2b c2		 sub	 eax, edx
  00112	d1 f8		 sar	 eax, 1
  00114	48 98		 cdqe
  00116	48 8b 8c 24 c0
	00 00 00	 mov	 rcx, QWORD PTR c$[rsp]
  0011e	48 8b 51 08	 mov	 rdx, QWORD PTR [rcx+8]
  00122	48 8b c8	 mov	 rcx, rax
  00125	e8 00 00 00 00	 call	 asdl_seq_new
  0012a	48 89 44 24 38	 mov	 QWORD PTR seq$[rsp], rax

; 2279 :             if (!seq)

  0012f	48 83 7c 24 38
	00		 cmp	 QWORD PTR seq$[rsp], 0
  00135	75 07		 jne	 SHORT $LN35@ast_for_ex

; 2280 :                 return NULL;

  00137	33 c0		 xor	 eax, eax
  00139	e9 c5 06 00 00	 jmp	 $LN45@ast_for_ex
$LN35@ast_for_ex:

; 2281 :             for (i = 0; i < NCH(n); i += 2) {

  0013e	c7 44 24 30 00
	00 00 00	 mov	 DWORD PTR i$[rsp], 0
  00146	eb 0b		 jmp	 SHORT $LN34@ast_for_ex
$LN33@ast_for_ex:
  00148	8b 44 24 30	 mov	 eax, DWORD PTR i$[rsp]
  0014c	83 c0 02	 add	 eax, 2
  0014f	89 44 24 30	 mov	 DWORD PTR i$[rsp], eax
$LN34@ast_for_ex:
  00153	48 8b 84 24 c8
	00 00 00	 mov	 rax, QWORD PTR n$[rsp]
  0015b	8b 40 18	 mov	 eax, DWORD PTR [rax+24]
  0015e	39 44 24 30	 cmp	 DWORD PTR i$[rsp], eax
  00162	0f 8d 92 00 00
	00		 jge	 $LN32@ast_for_ex

; 2282 :                 expr_ty e = ast_for_expr(c, CHILD(n, i));

  00168	48 63 44 24 30	 movsxd	 rax, DWORD PTR i$[rsp]
  0016d	48 6b c0 28	 imul	 rax, 40			; 00000028H
  00171	48 8b 8c 24 c8
	00 00 00	 mov	 rcx, QWORD PTR n$[rsp]
  00179	48 03 41 20	 add	 rax, QWORD PTR [rcx+32]
  0017d	48 8b d0	 mov	 rdx, rax
  00180	48 8b 8c 24 c0
	00 00 00	 mov	 rcx, QWORD PTR c$[rsp]
  00188	e8 00 00 00 00	 call	 ast_for_expr
  0018d	48 89 44 24 40	 mov	 QWORD PTR e$23501[rsp], rax

; 2283 :                 if (!e)

  00192	48 83 7c 24 40
	00		 cmp	 QWORD PTR e$23501[rsp], 0
  00198	75 07		 jne	 SHORT $LN31@ast_for_ex

; 2284 :                     return NULL;

  0019a	33 c0		 xor	 eax, eax
  0019c	e9 62 06 00 00	 jmp	 $LN45@ast_for_ex
$LN31@ast_for_ex:

; 2285 :                 asdl_seq_SET(seq, i / 2, e);

  001a1	8b 44 24 30	 mov	 eax, DWORD PTR i$[rsp]
  001a5	99		 cdq
  001a6	2b c2		 sub	 eax, edx
  001a8	d1 f8		 sar	 eax, 1
  001aa	89 44 24 48	 mov	 DWORD PTR _asdl_i$23504[rsp], eax
  001ae	48 83 7c 24 38
	00		 cmp	 QWORD PTR seq$[rsp], 0
  001b4	74 0f		 je	 SHORT $LN47@ast_for_ex
  001b6	48 63 44 24 48	 movsxd	 rax, DWORD PTR _asdl_i$23504[rsp]
  001bb	48 8b 4c 24 38	 mov	 rcx, QWORD PTR seq$[rsp]
  001c0	48 3b 01	 cmp	 rax, QWORD PTR [rcx]
  001c3	7c 1c		 jl	 SHORT $LN48@ast_for_ex
$LN47@ast_for_ex:
  001c5	41 b8 ed 08 00
	00		 mov	 r8d, 2285		; 000008edH
  001cb	48 8d 15 00 00
	00 00		 lea	 rdx, OFFSET FLAT:??_C@_1CA@FDBOFCJB@?$AA?4?$AA?4?$AA?2?$AAP?$AAy?$AAt?$AAh?$AAo?$AAn?$AA?2?$AAa?$AAs?$AAt?$AA?4?$AAc?$AA?$AA@
  001d2	48 8d 0d 00 00
	00 00		 lea	 rcx, OFFSET FLAT:??_C@_1DO@GCGEEMDH@?$AA?$CI?$AAs?$AAe?$AAq?$AA?$CJ?$AA?5?$AA?$CG?$AA?$CG?$AA?5?$AA_?$AAa?$AAs?$AAd?$AAl?$AA_?$AAi?$AA?5?$AA?$DM?$AA?5?$AA?$CI?$AAs?$AAe?$AAq?$AA?$CJ?$AA?9?$AA?$DO?$AAs?$AAi?$AAz?$AAe?$AA?$AA@
  001d9	ff 15 00 00 00
	00		 call	 QWORD PTR __imp__wassert
  001df	33 c0		 xor	 eax, eax
$LN48@ast_for_ex:
  001e1	48 63 44 24 48	 movsxd	 rax, DWORD PTR _asdl_i$23504[rsp]
  001e6	48 8b 4c 24 38	 mov	 rcx, QWORD PTR seq$[rsp]
  001eb	48 8b 54 24 40	 mov	 rdx, QWORD PTR e$23501[rsp]
  001f0	48 89 54 c1 08	 mov	 QWORD PTR [rcx+rax*8+8], rdx

; 2286 :             }

  001f5	e9 4e ff ff ff	 jmp	 $LN33@ast_for_ex
$LN32@ast_for_ex:

; 2287 :             if (!strcmp(STR(CHILD(n, 1)), "and"))

  001fa	48 8b 84 24 c8
	00 00 00	 mov	 rax, QWORD PTR n$[rsp]
  00202	48 8b 40 20	 mov	 rax, QWORD PTR [rax+32]
  00206	48 8d 15 00 00
	00 00		 lea	 rdx, OFFSET FLAT:??_C@_03BOPJPIAM@and?$AA@
  0020d	48 8b 48 30	 mov	 rcx, QWORD PTR [rax+48]
  00211	e8 00 00 00 00	 call	 strcmp
  00216	85 c0		 test	 eax, eax
  00218	75 3d		 jne	 SHORT $LN30@ast_for_ex

; 2288 :                 return BoolOp(And, seq, LINENO(n), n->n_col_offset,
; 2289 :                               c->c_arena);

  0021a	48 8b 84 24 c0
	00 00 00	 mov	 rax, QWORD PTR c$[rsp]
  00222	48 8b 40 08	 mov	 rax, QWORD PTR [rax+8]
  00226	48 89 44 24 20	 mov	 QWORD PTR [rsp+32], rax
  0022b	48 8b 84 24 c8
	00 00 00	 mov	 rax, QWORD PTR n$[rsp]
  00233	44 8b 48 14	 mov	 r9d, DWORD PTR [rax+20]
  00237	48 8b 84 24 c8
	00 00 00	 mov	 rax, QWORD PTR n$[rsp]
  0023f	44 8b 40 10	 mov	 r8d, DWORD PTR [rax+16]
  00243	48 8b 54 24 38	 mov	 rdx, QWORD PTR seq$[rsp]
  00248	b9 01 00 00 00	 mov	 ecx, 1
  0024d	e8 00 00 00 00	 call	 _Py_BoolOp
  00252	e9 ac 05 00 00	 jmp	 $LN45@ast_for_ex
$LN30@ast_for_ex:

; 2290 :             assert(!strcmp(STR(CHILD(n, 1)), "or"));

  00257	48 8b 84 24 c8
	00 00 00	 mov	 rax, QWORD PTR n$[rsp]
  0025f	48 8b 40 20	 mov	 rax, QWORD PTR [rax+32]
  00263	48 8d 15 00 00
	00 00		 lea	 rdx, OFFSET FLAT:??_C@_02FODMLBIE@or?$AA@
  0026a	48 8b 48 30	 mov	 rcx, QWORD PTR [rax+48]
  0026e	e8 00 00 00 00	 call	 strcmp
  00273	85 c0		 test	 eax, eax
  00275	74 1c		 je	 SHORT $LN49@ast_for_ex
  00277	41 b8 f2 08 00
	00		 mov	 r8d, 2290		; 000008f2H
  0027d	48 8d 15 00 00
	00 00		 lea	 rdx, OFFSET FLAT:??_C@_1CA@FDBOFCJB@?$AA?4?$AA?4?$AA?2?$AAP?$AAy?$AAt?$AAh?$AAo?$AAn?$AA?2?$AAa?$AAs?$AAt?$AA?4?$AAc?$AA?$AA@
  00284	48 8d 0d 00 00
	00 00		 lea	 rcx, OFFSET FLAT:??_C@_1EA@DLDNABC@?$AA?$CB?$AAs?$AAt?$AAr?$AAc?$AAm?$AAp?$AA?$CI?$AAS?$AAT?$AAR?$AA?$CI?$AAC?$AAH?$AAI?$AAL?$AAD?$AA?$CI?$AAn?$AA?0?$AA?5?$AA1?$AA?$CJ?$AA?$CJ?$AA?0?$AA?5?$AA?$CC?$AAo?$AAr?$AA?$CC?$AA?$CJ?$AA?$AA@
  0028b	ff 15 00 00 00
	00		 call	 QWORD PTR __imp__wassert
  00291	33 c0		 xor	 eax, eax
$LN49@ast_for_ex:

; 2291 :             return BoolOp(Or, seq, LINENO(n), n->n_col_offset, c->c_arena);

  00293	48 8b 84 24 c0
	00 00 00	 mov	 rax, QWORD PTR c$[rsp]
  0029b	48 8b 40 08	 mov	 rax, QWORD PTR [rax+8]
  0029f	48 89 44 24 20	 mov	 QWORD PTR [rsp+32], rax
  002a4	48 8b 84 24 c8
	00 00 00	 mov	 rax, QWORD PTR n$[rsp]
  002ac	44 8b 48 14	 mov	 r9d, DWORD PTR [rax+20]
  002b0	48 8b 84 24 c8
	00 00 00	 mov	 rax, QWORD PTR n$[rsp]
  002b8	44 8b 40 10	 mov	 r8d, DWORD PTR [rax+16]
  002bc	48 8b 54 24 38	 mov	 rdx, QWORD PTR seq$[rsp]
  002c1	b9 02 00 00 00	 mov	 ecx, 2
  002c6	e8 00 00 00 00	 call	 _Py_BoolOp
  002cb	e9 33 05 00 00	 jmp	 $LN45@ast_for_ex
$LN29@ast_for_ex:

; 2292 :         case not_test:
; 2293 :             if (NCH(n) == 1) {

  002d0	48 8b 84 24 c8
	00 00 00	 mov	 rax, QWORD PTR n$[rsp]
  002d8	83 78 18 01	 cmp	 DWORD PTR [rax+24], 1
  002dc	75 1b		 jne	 SHORT $LN28@ast_for_ex

; 2294 :                 n = CHILD(n, 0);

  002de	48 8b 84 24 c8
	00 00 00	 mov	 rax, QWORD PTR n$[rsp]
  002e6	48 8b 40 20	 mov	 rax, QWORD PTR [rax+32]
  002ea	48 89 84 24 c8
	00 00 00	 mov	 QWORD PTR n$[rsp], rax

; 2295 :                 goto loop;

  002f2	e9 1a fd ff ff	 jmp	 $LN54@ast_for_ex

; 2296 :             }
; 2297 :             else {

  002f7	eb 71		 jmp	 SHORT $LN27@ast_for_ex
$LN28@ast_for_ex:

; 2298 :                 expr_ty expression = ast_for_expr(c, CHILD(n, 1));

  002f9	48 8b 84 24 c8
	00 00 00	 mov	 rax, QWORD PTR n$[rsp]
  00301	48 8b 40 20	 mov	 rax, QWORD PTR [rax+32]
  00305	48 83 c0 28	 add	 rax, 40			; 00000028H
  00309	48 8b d0	 mov	 rdx, rax
  0030c	48 8b 8c 24 c0
	00 00 00	 mov	 rcx, QWORD PTR c$[rsp]
  00314	e8 00 00 00 00	 call	 ast_for_expr
  00319	48 89 44 24 50	 mov	 QWORD PTR expression$23514[rsp], rax

; 2299 :                 if (!expression)

  0031e	48 83 7c 24 50
	00		 cmp	 QWORD PTR expression$23514[rsp], 0
  00324	75 07		 jne	 SHORT $LN26@ast_for_ex

; 2300 :                     return NULL;

  00326	33 c0		 xor	 eax, eax
  00328	e9 d6 04 00 00	 jmp	 $LN45@ast_for_ex
$LN26@ast_for_ex:

; 2301 : 
; 2302 :                 return UnaryOp(Not, expression, LINENO(n), n->n_col_offset,
; 2303 :                                c->c_arena);

  0032d	48 8b 84 24 c0
	00 00 00	 mov	 rax, QWORD PTR c$[rsp]
  00335	48 8b 40 08	 mov	 rax, QWORD PTR [rax+8]
  00339	48 89 44 24 20	 mov	 QWORD PTR [rsp+32], rax
  0033e	48 8b 84 24 c8
	00 00 00	 mov	 rax, QWORD PTR n$[rsp]
  00346	44 8b 48 14	 mov	 r9d, DWORD PTR [rax+20]
  0034a	48 8b 84 24 c8
	00 00 00	 mov	 rax, QWORD PTR n$[rsp]
  00352	44 8b 40 10	 mov	 r8d, DWORD PTR [rax+16]
  00356	48 8b 54 24 50	 mov	 rdx, QWORD PTR expression$23514[rsp]
  0035b	b9 02 00 00 00	 mov	 ecx, 2
  00360	e8 00 00 00 00	 call	 _Py_UnaryOp
  00365	e9 99 04 00 00	 jmp	 $LN45@ast_for_ex
$LN27@ast_for_ex:
$LN25@ast_for_ex:

; 2304 :             }
; 2305 :         case comparison:
; 2306 :             if (NCH(n) == 1) {

  0036a	48 8b 84 24 c8
	00 00 00	 mov	 rax, QWORD PTR n$[rsp]
  00372	83 78 18 01	 cmp	 DWORD PTR [rax+24], 1
  00376	75 1e		 jne	 SHORT $LN24@ast_for_ex

; 2307 :                 n = CHILD(n, 0);

  00378	48 8b 84 24 c8
	00 00 00	 mov	 rax, QWORD PTR n$[rsp]
  00380	48 8b 40 20	 mov	 rax, QWORD PTR [rax+32]
  00384	48 89 84 24 c8
	00 00 00	 mov	 QWORD PTR n$[rsp], rax

; 2308 :                 goto loop;

  0038c	e9 80 fc ff ff	 jmp	 $LN55@ast_for_ex

; 2309 :             }
; 2310 :             else {

  00391	e9 2e 02 00 00	 jmp	 $LN23@ast_for_ex
$LN24@ast_for_ex:

; 2311 :                 expr_ty expression;
; 2312 :                 asdl_int_seq *ops;
; 2313 :                 asdl_seq *cmps;
; 2314 :                 ops = asdl_int_seq_new(NCH(n) / 2, c->c_arena);

  00396	48 8b 84 24 c8
	00 00 00	 mov	 rax, QWORD PTR n$[rsp]
  0039e	8b 40 18	 mov	 eax, DWORD PTR [rax+24]
  003a1	99		 cdq
  003a2	2b c2		 sub	 eax, edx
  003a4	d1 f8		 sar	 eax, 1
  003a6	48 98		 cdqe
  003a8	48 8b 8c 24 c0
	00 00 00	 mov	 rcx, QWORD PTR c$[rsp]
  003b0	48 8b 51 08	 mov	 rdx, QWORD PTR [rcx+8]
  003b4	48 8b c8	 mov	 rcx, rax
  003b7	e8 00 00 00 00	 call	 asdl_int_seq_new
  003bc	48 89 44 24 60	 mov	 QWORD PTR ops$23521[rsp], rax

; 2315 :                 if (!ops)

  003c1	48 83 7c 24 60
	00		 cmp	 QWORD PTR ops$23521[rsp], 0
  003c7	75 07		 jne	 SHORT $LN22@ast_for_ex

; 2316 :                     return NULL;

  003c9	33 c0		 xor	 eax, eax
  003cb	e9 33 04 00 00	 jmp	 $LN45@ast_for_ex
$LN22@ast_for_ex:

; 2317 :                 cmps = asdl_seq_new(NCH(n) / 2, c->c_arena);

  003d0	48 8b 84 24 c8
	00 00 00	 mov	 rax, QWORD PTR n$[rsp]
  003d8	8b 40 18	 mov	 eax, DWORD PTR [rax+24]
  003db	99		 cdq
  003dc	2b c2		 sub	 eax, edx
  003de	d1 f8		 sar	 eax, 1
  003e0	48 98		 cdqe
  003e2	48 8b 8c 24 c0
	00 00 00	 mov	 rcx, QWORD PTR c$[rsp]
  003ea	48 8b 51 08	 mov	 rdx, QWORD PTR [rcx+8]
  003ee	48 8b c8	 mov	 rcx, rax
  003f1	e8 00 00 00 00	 call	 asdl_seq_new
  003f6	48 89 44 24 58	 mov	 QWORD PTR cmps$23522[rsp], rax

; 2318 :                 if (!cmps) {

  003fb	48 83 7c 24 58
	00		 cmp	 QWORD PTR cmps$23522[rsp], 0
  00401	75 07		 jne	 SHORT $LN21@ast_for_ex

; 2319 :                     return NULL;

  00403	33 c0		 xor	 eax, eax
  00405	e9 f9 03 00 00	 jmp	 $LN45@ast_for_ex
$LN21@ast_for_ex:

; 2320 :                 }
; 2321 :                 for (i = 1; i < NCH(n); i += 2) {

  0040a	c7 44 24 30 01
	00 00 00	 mov	 DWORD PTR i$[rsp], 1
  00412	eb 0b		 jmp	 SHORT $LN20@ast_for_ex
$LN19@ast_for_ex:
  00414	8b 44 24 30	 mov	 eax, DWORD PTR i$[rsp]
  00418	83 c0 02	 add	 eax, 2
  0041b	89 44 24 30	 mov	 DWORD PTR i$[rsp], eax
$LN20@ast_for_ex:
  0041f	48 8b 84 24 c8
	00 00 00	 mov	 rax, QWORD PTR n$[rsp]
  00427	8b 40 18	 mov	 eax, DWORD PTR [rax+24]
  0042a	39 44 24 30	 cmp	 DWORD PTR i$[rsp], eax
  0042e	0f 8d 1e 01 00
	00		 jge	 $LN18@ast_for_ex

; 2322 :                     cmpop_ty newoperator;
; 2323 : 
; 2324 :                     newoperator = ast_for_comp_op(c, CHILD(n, i));

  00434	48 63 44 24 30	 movsxd	 rax, DWORD PTR i$[rsp]
  00439	48 6b c0 28	 imul	 rax, 40			; 00000028H
  0043d	48 8b 8c 24 c8
	00 00 00	 mov	 rcx, QWORD PTR n$[rsp]
  00445	48 03 41 20	 add	 rax, QWORD PTR [rcx+32]
  00449	48 8b d0	 mov	 rdx, rax
  0044c	48 8b 8c 24 c0
	00 00 00	 mov	 rcx, QWORD PTR c$[rsp]
  00454	e8 00 00 00 00	 call	 ast_for_comp_op
  00459	89 44 24 70	 mov	 DWORD PTR newoperator$23530[rsp], eax

; 2325 :                     if (!newoperator) {

  0045d	83 7c 24 70 00	 cmp	 DWORD PTR newoperator$23530[rsp], 0
  00462	75 07		 jne	 SHORT $LN17@ast_for_ex

; 2326 :                         return NULL;

  00464	33 c0		 xor	 eax, eax
  00466	e9 98 03 00 00	 jmp	 $LN45@ast_for_ex
$LN17@ast_for_ex:

; 2327 :                     }
; 2328 : 
; 2329 :                     expression = ast_for_expr(c, CHILD(n, i + 1));

  0046b	8b 44 24 30	 mov	 eax, DWORD PTR i$[rsp]
  0046f	ff c0		 inc	 eax
  00471	48 98		 cdqe
  00473	48 6b c0 28	 imul	 rax, 40			; 00000028H
  00477	48 8b 8c 24 c8
	00 00 00	 mov	 rcx, QWORD PTR n$[rsp]
  0047f	48 03 41 20	 add	 rax, QWORD PTR [rcx+32]
  00483	48 8b d0	 mov	 rdx, rax
  00486	48 8b 8c 24 c0
	00 00 00	 mov	 rcx, QWORD PTR c$[rsp]
  0048e	e8 00 00 00 00	 call	 ast_for_expr
  00493	48 89 44 24 68	 mov	 QWORD PTR expression$23520[rsp], rax

; 2330 :                     if (!expression) {

  00498	48 83 7c 24 68
	00		 cmp	 QWORD PTR expression$23520[rsp], 0
  0049e	75 07		 jne	 SHORT $LN16@ast_for_ex

; 2331 :                         return NULL;

  004a0	33 c0		 xor	 eax, eax
  004a2	e9 5c 03 00 00	 jmp	 $LN45@ast_for_ex
$LN16@ast_for_ex:

; 2332 :                     }
; 2333 : 
; 2334 :                     asdl_seq_SET(ops, i / 2, newoperator);

  004a7	8b 44 24 30	 mov	 eax, DWORD PTR i$[rsp]
  004ab	99		 cdq
  004ac	2b c2		 sub	 eax, edx
  004ae	d1 f8		 sar	 eax, 1
  004b0	89 44 24 74	 mov	 DWORD PTR _asdl_i$23535[rsp], eax
  004b4	48 83 7c 24 60
	00		 cmp	 QWORD PTR ops$23521[rsp], 0
  004ba	74 0f		 je	 SHORT $LN50@ast_for_ex
  004bc	48 63 44 24 74	 movsxd	 rax, DWORD PTR _asdl_i$23535[rsp]
  004c1	48 8b 4c 24 60	 mov	 rcx, QWORD PTR ops$23521[rsp]
  004c6	48 3b 01	 cmp	 rax, QWORD PTR [rcx]
  004c9	7c 1c		 jl	 SHORT $LN51@ast_for_ex
$LN50@ast_for_ex:
  004cb	41 b8 1e 09 00
	00		 mov	 r8d, 2334		; 0000091eH
  004d1	48 8d 15 00 00
	00 00		 lea	 rdx, OFFSET FLAT:??_C@_1CA@FDBOFCJB@?$AA?4?$AA?4?$AA?2?$AAP?$AAy?$AAt?$AAh?$AAo?$AAn?$AA?2?$AAa?$AAs?$AAt?$AA?4?$AAc?$AA?$AA@
  004d8	48 8d 0d 00 00
	00 00		 lea	 rcx, OFFSET FLAT:??_C@_1DO@HAJJNCPB@?$AA?$CI?$AAo?$AAp?$AAs?$AA?$CJ?$AA?5?$AA?$CG?$AA?$CG?$AA?5?$AA_?$AAa?$AAs?$AAd?$AAl?$AA_?$AAi?$AA?5?$AA?$DM?$AA?5?$AA?$CI?$AAo?$AAp?$AAs?$AA?$CJ?$AA?9?$AA?$DO?$AAs?$AAi?$AAz?$AAe?$AA?$AA@
  004df	ff 15 00 00 00
	00		 call	 QWORD PTR __imp__wassert
  004e5	33 c0		 xor	 eax, eax
$LN51@ast_for_ex:
  004e7	48 63 44 24 74	 movsxd	 rax, DWORD PTR _asdl_i$23535[rsp]
  004ec	48 8b 4c 24 60	 mov	 rcx, QWORD PTR ops$23521[rsp]
  004f1	8b 54 24 70	 mov	 edx, DWORD PTR newoperator$23530[rsp]
  004f5	89 54 81 08	 mov	 DWORD PTR [rcx+rax*4+8], edx

; 2335 :                     asdl_seq_SET(cmps, i / 2, expression);

  004f9	8b 44 24 30	 mov	 eax, DWORD PTR i$[rsp]
  004fd	99		 cdq
  004fe	2b c2		 sub	 eax, edx
  00500	d1 f8		 sar	 eax, 1
  00502	89 44 24 78	 mov	 DWORD PTR _asdl_i$23538[rsp], eax
  00506	48 83 7c 24 58
	00		 cmp	 QWORD PTR cmps$23522[rsp], 0
  0050c	74 0f		 je	 SHORT $LN52@ast_for_ex
  0050e	48 63 44 24 78	 movsxd	 rax, DWORD PTR _asdl_i$23538[rsp]
  00513	48 8b 4c 24 58	 mov	 rcx, QWORD PTR cmps$23522[rsp]
  00518	48 3b 01	 cmp	 rax, QWORD PTR [rcx]
  0051b	7c 1c		 jl	 SHORT $LN53@ast_for_ex
$LN52@ast_for_ex:
  0051d	41 b8 1f 09 00
	00		 mov	 r8d, 2335		; 0000091fH
  00523	48 8d 15 00 00
	00 00		 lea	 rdx, OFFSET FLAT:??_C@_1CA@FDBOFCJB@?$AA?4?$AA?4?$AA?2?$AAP?$AAy?$AAt?$AAh?$AAo?$AAn?$AA?2?$AAa?$AAs?$AAt?$AA?4?$AAc?$AA?$AA@
  0052a	48 8d 0d 00 00
	00 00		 lea	 rcx, OFFSET FLAT:??_C@_1EC@HLDPKHLK@?$AA?$CI?$AAc?$AAm?$AAp?$AAs?$AA?$CJ?$AA?5?$AA?$CG?$AA?$CG?$AA?5?$AA_?$AAa?$AAs?$AAd?$AAl?$AA_?$AAi?$AA?5?$AA?$DM?$AA?5?$AA?$CI?$AAc?$AAm?$AAp?$AAs?$AA?$CJ?$AA?9?$AA?$DO?$AAs?$AAi?$AAz?$AAe@
  00531	ff 15 00 00 00
	00		 call	 QWORD PTR __imp__wassert
  00537	33 c0		 xor	 eax, eax
$LN53@ast_for_ex:
  00539	48 63 44 24 78	 movsxd	 rax, DWORD PTR _asdl_i$23538[rsp]
  0053e	48 8b 4c 24 58	 mov	 rcx, QWORD PTR cmps$23522[rsp]
  00543	48 8b 54 24 68	 mov	 rdx, QWORD PTR expression$23520[rsp]
  00548	48 89 54 c1 08	 mov	 QWORD PTR [rcx+rax*8+8], rdx

; 2336 :                 }

  0054d	e9 c2 fe ff ff	 jmp	 $LN19@ast_for_ex
$LN18@ast_for_ex:

; 2337 :                 expression = ast_for_expr(c, CHILD(n, 0));

  00552	48 8b 84 24 c8
	00 00 00	 mov	 rax, QWORD PTR n$[rsp]
  0055a	48 8b 50 20	 mov	 rdx, QWORD PTR [rax+32]
  0055e	48 8b 8c 24 c0
	00 00 00	 mov	 rcx, QWORD PTR c$[rsp]
  00566	e8 00 00 00 00	 call	 ast_for_expr
  0056b	48 89 44 24 68	 mov	 QWORD PTR expression$23520[rsp], rax

; 2338 :                 if (!expression) {

  00570	48 83 7c 24 68
	00		 cmp	 QWORD PTR expression$23520[rsp], 0
  00576	75 07		 jne	 SHORT $LN15@ast_for_ex

; 2339 :                     return NULL;

  00578	33 c0		 xor	 eax, eax
  0057a	e9 84 02 00 00	 jmp	 $LN45@ast_for_ex
$LN15@ast_for_ex:

; 2340 :                 }
; 2341 : 
; 2342 :                 return Compare(expression, ops, cmps, LINENO(n),
; 2343 :                                n->n_col_offset, c->c_arena);

  0057f	48 8b 84 24 c0
	00 00 00	 mov	 rax, QWORD PTR c$[rsp]
  00587	48 8b 40 08	 mov	 rax, QWORD PTR [rax+8]
  0058b	48 89 44 24 28	 mov	 QWORD PTR [rsp+40], rax
  00590	48 8b 84 24 c8
	00 00 00	 mov	 rax, QWORD PTR n$[rsp]
  00598	8b 40 14	 mov	 eax, DWORD PTR [rax+20]
  0059b	89 44 24 20	 mov	 DWORD PTR [rsp+32], eax
  0059f	48 8b 84 24 c8
	00 00 00	 mov	 rax, QWORD PTR n$[rsp]
  005a7	44 8b 48 10	 mov	 r9d, DWORD PTR [rax+16]
  005ab	4c 8b 44 24 58	 mov	 r8, QWORD PTR cmps$23522[rsp]
  005b0	48 8b 54 24 60	 mov	 rdx, QWORD PTR ops$23521[rsp]
  005b5	48 8b 4c 24 68	 mov	 rcx, QWORD PTR expression$23520[rsp]
  005ba	e8 00 00 00 00	 call	 _Py_Compare
  005bf	e9 3f 02 00 00	 jmp	 $LN45@ast_for_ex
$LN23@ast_for_ex:

; 2344 :             }
; 2345 :             break;

  005c4	e9 38 02 00 00	 jmp	 $LN43@ast_for_ex
$LN14@ast_for_ex:

; 2346 : 
; 2347 :         case star_expr:
; 2348 :             return ast_for_starred(c, n);

  005c9	48 8b 94 24 c8
	00 00 00	 mov	 rdx, QWORD PTR n$[rsp]
  005d1	48 8b 8c 24 c0
	00 00 00	 mov	 rcx, QWORD PTR c$[rsp]
  005d9	e8 00 00 00 00	 call	 ast_for_starred
  005de	e9 20 02 00 00	 jmp	 $LN45@ast_for_ex
$LN13@ast_for_ex:

; 2349 :         /* The next five cases all handle BinOps.  The main body of code
; 2350 :            is the same in each case, but the switch turned inside out to
; 2351 :            reuse the code for each type of operator.
; 2352 :          */
; 2353 :         case expr:
; 2354 :         case xor_expr:
; 2355 :         case and_expr:
; 2356 :         case shift_expr:
; 2357 :         case arith_expr:
; 2358 :         case term:
; 2359 :             if (NCH(n) == 1) {

  005e3	48 8b 84 24 c8
	00 00 00	 mov	 rax, QWORD PTR n$[rsp]
  005eb	83 78 18 01	 cmp	 DWORD PTR [rax+24], 1
  005ef	75 19		 jne	 SHORT $LN12@ast_for_ex

; 2360 :                 n = CHILD(n, 0);

  005f1	48 8b 84 24 c8
	00 00 00	 mov	 rax, QWORD PTR n$[rsp]
  005f9	48 8b 40 20	 mov	 rax, QWORD PTR [rax+32]
  005fd	48 89 84 24 c8
	00 00 00	 mov	 QWORD PTR n$[rsp], rax

; 2361 :                 goto loop;

  00605	e9 07 fa ff ff	 jmp	 $LN56@ast_for_ex
$LN12@ast_for_ex:

; 2362 :             }
; 2363 :             return ast_for_binop(c, n);

  0060a	48 8b 94 24 c8
	00 00 00	 mov	 rdx, QWORD PTR n$[rsp]
  00612	48 8b 8c 24 c0
	00 00 00	 mov	 rcx, QWORD PTR c$[rsp]
  0061a	e8 00 00 00 00	 call	 ast_for_binop
  0061f	e9 df 01 00 00	 jmp	 $LN45@ast_for_ex
$LN11@ast_for_ex:

; 2364 :         case yield_expr: {
; 2365 :             node *an = NULL;

  00624	48 c7 84 24 98
	00 00 00 00 00
	00 00		 mov	 QWORD PTR an$23547[rsp], 0

; 2366 :             node *en = NULL;

  00630	48 c7 84 24 80
	00 00 00 00 00
	00 00		 mov	 QWORD PTR en$23549[rsp], 0

; 2367 :             int is_from = 0;

  0063c	c7 84 24 90 00
	00 00 00 00 00
	00		 mov	 DWORD PTR is_from$23551[rsp], 0

; 2368 :             expr_ty exp = NULL;

  00647	48 c7 84 24 88
	00 00 00 00 00
	00 00		 mov	 QWORD PTR exp$23552[rsp], 0

; 2369 :             if (NCH(n) > 1)

  00653	48 8b 84 24 c8
	00 00 00	 mov	 rax, QWORD PTR n$[rsp]
  0065b	83 78 18 01	 cmp	 DWORD PTR [rax+24], 1
  0065f	7e 18		 jle	 SHORT $LN10@ast_for_ex

; 2370 :                 an = CHILD(n, 1); /* yield_arg */

  00661	48 8b 84 24 c8
	00 00 00	 mov	 rax, QWORD PTR n$[rsp]
  00669	48 8b 40 20	 mov	 rax, QWORD PTR [rax+32]
  0066d	48 83 c0 28	 add	 rax, 40			; 00000028H
  00671	48 89 84 24 98
	00 00 00	 mov	 QWORD PTR an$23547[rsp], rax
$LN10@ast_for_ex:

; 2371 :             if (an) {

  00679	48 83 bc 24 98
	00 00 00 00	 cmp	 QWORD PTR an$23547[rsp], 0
  00682	0f 84 8e 00 00
	00		 je	 $LN9@ast_for_ex

; 2372 :                 en = CHILD(an, NCH(an) - 1);

  00688	48 8b 84 24 98
	00 00 00	 mov	 rax, QWORD PTR an$23547[rsp]
  00690	8b 40 18	 mov	 eax, DWORD PTR [rax+24]
  00693	ff c8		 dec	 eax
  00695	48 98		 cdqe
  00697	48 6b c0 28	 imul	 rax, 40			; 00000028H
  0069b	48 8b 8c 24 98
	00 00 00	 mov	 rcx, QWORD PTR an$23547[rsp]
  006a3	48 03 41 20	 add	 rax, QWORD PTR [rcx+32]
  006a7	48 89 84 24 80
	00 00 00	 mov	 QWORD PTR en$23549[rsp], rax

; 2373 :                 if (NCH(an) == 2) {

  006af	48 8b 84 24 98
	00 00 00	 mov	 rax, QWORD PTR an$23547[rsp]
  006b7	83 78 18 02	 cmp	 DWORD PTR [rax+24], 2
  006bb	75 2a		 jne	 SHORT $LN8@ast_for_ex

; 2374 :                     is_from = 1;

  006bd	c7 84 24 90 00
	00 00 01 00 00
	00		 mov	 DWORD PTR is_from$23551[rsp], 1

; 2375 :                     exp = ast_for_expr(c, en);

  006c8	48 8b 94 24 80
	00 00 00	 mov	 rdx, QWORD PTR en$23549[rsp]
  006d0	48 8b 8c 24 c0
	00 00 00	 mov	 rcx, QWORD PTR c$[rsp]
  006d8	e8 00 00 00 00	 call	 ast_for_expr
  006dd	48 89 84 24 88
	00 00 00	 mov	 QWORD PTR exp$23552[rsp], rax

; 2376 :                 }
; 2377 :                 else

  006e5	eb 1d		 jmp	 SHORT $LN7@ast_for_ex
$LN8@ast_for_ex:

; 2378 :                     exp = ast_for_testlist(c, en);

  006e7	48 8b 94 24 80
	00 00 00	 mov	 rdx, QWORD PTR en$23549[rsp]
  006ef	48 8b 8c 24 c0
	00 00 00	 mov	 rcx, QWORD PTR c$[rsp]
  006f7	e8 00 00 00 00	 call	 ast_for_testlist
  006fc	48 89 84 24 88
	00 00 00	 mov	 QWORD PTR exp$23552[rsp], rax
$LN7@ast_for_ex:

; 2379 :                 if (!exp)

  00704	48 83 bc 24 88
	00 00 00 00	 cmp	 QWORD PTR exp$23552[rsp], 0
  0070d	75 07		 jne	 SHORT $LN6@ast_for_ex

; 2380 :                     return NULL;

  0070f	33 c0		 xor	 eax, eax
  00711	e9 ed 00 00 00	 jmp	 $LN45@ast_for_ex
$LN6@ast_for_ex:
$LN9@ast_for_ex:

; 2381 :             }
; 2382 :             if (is_from)

  00716	83 bc 24 90 00
	00 00 00	 cmp	 DWORD PTR is_from$23551[rsp], 0
  0071e	74 35		 je	 SHORT $LN5@ast_for_ex

; 2383 :                 return YieldFrom(exp, LINENO(n), n->n_col_offset, c->c_arena);

  00720	48 8b 84 24 c0
	00 00 00	 mov	 rax, QWORD PTR c$[rsp]
  00728	4c 8b 48 08	 mov	 r9, QWORD PTR [rax+8]
  0072c	48 8b 84 24 c8
	00 00 00	 mov	 rax, QWORD PTR n$[rsp]
  00734	44 8b 40 14	 mov	 r8d, DWORD PTR [rax+20]
  00738	48 8b 84 24 c8
	00 00 00	 mov	 rax, QWORD PTR n$[rsp]
  00740	8b 50 10	 mov	 edx, DWORD PTR [rax+16]
  00743	48 8b 8c 24 88
	00 00 00	 mov	 rcx, QWORD PTR exp$23552[rsp]
  0074b	e8 00 00 00 00	 call	 _Py_YieldFrom
  00750	e9 ae 00 00 00	 jmp	 $LN45@ast_for_ex
$LN5@ast_for_ex:

; 2384 :             return Yield(exp, LINENO(n), n->n_col_offset, c->c_arena);

  00755	48 8b 84 24 c0
	00 00 00	 mov	 rax, QWORD PTR c$[rsp]
  0075d	4c 8b 48 08	 mov	 r9, QWORD PTR [rax+8]
  00761	48 8b 84 24 c8
	00 00 00	 mov	 rax, QWORD PTR n$[rsp]
  00769	44 8b 40 14	 mov	 r8d, DWORD PTR [rax+20]
  0076d	48 8b 84 24 c8
	00 00 00	 mov	 rax, QWORD PTR n$[rsp]
  00775	8b 50 10	 mov	 edx, DWORD PTR [rax+16]
  00778	48 8b 8c 24 88
	00 00 00	 mov	 rcx, QWORD PTR exp$23552[rsp]
  00780	e8 00 00 00 00	 call	 _Py_Yield
  00785	eb 7c		 jmp	 SHORT $LN45@ast_for_ex
$LN4@ast_for_ex:

; 2385 :         }
; 2386 :         case factor:
; 2387 :             if (NCH(n) == 1) {

  00787	48 8b 84 24 c8
	00 00 00	 mov	 rax, QWORD PTR n$[rsp]
  0078f	83 78 18 01	 cmp	 DWORD PTR [rax+24], 1
  00793	75 19		 jne	 SHORT $LN3@ast_for_ex

; 2388 :                 n = CHILD(n, 0);

  00795	48 8b 84 24 c8
	00 00 00	 mov	 rax, QWORD PTR n$[rsp]
  0079d	48 8b 40 20	 mov	 rax, QWORD PTR [rax+32]
  007a1	48 89 84 24 c8
	00 00 00	 mov	 QWORD PTR n$[rsp], rax

; 2389 :                 goto loop;

  007a9	e9 63 f8 ff ff	 jmp	 $LN57@ast_for_ex
$LN3@ast_for_ex:

; 2390 :             }
; 2391 :             return ast_for_factor(c, n);

  007ae	48 8b 94 24 c8
	00 00 00	 mov	 rdx, QWORD PTR n$[rsp]
  007b6	48 8b 8c 24 c0
	00 00 00	 mov	 rcx, QWORD PTR c$[rsp]
  007be	e8 00 00 00 00	 call	 ast_for_factor
  007c3	eb 3e		 jmp	 SHORT $LN45@ast_for_ex
$LN2@ast_for_ex:

; 2392 :         case power:
; 2393 :             return ast_for_power(c, n);

  007c5	48 8b 94 24 c8
	00 00 00	 mov	 rdx, QWORD PTR n$[rsp]
  007cd	48 8b 8c 24 c0
	00 00 00	 mov	 rcx, QWORD PTR c$[rsp]
  007d5	e8 00 00 00 00	 call	 ast_for_power
  007da	eb 27		 jmp	 SHORT $LN45@ast_for_ex
$LN1@ast_for_ex:

; 2394 :         default:
; 2395 :             PyErr_Format(PyExc_SystemError, "unhandled expr: %d", TYPE(n));

  007dc	48 8b 84 24 c8
	00 00 00	 mov	 rax, QWORD PTR n$[rsp]
  007e4	0f bf 00	 movsx	 eax, WORD PTR [rax]
  007e7	44 8b c0	 mov	 r8d, eax
  007ea	48 8d 15 00 00
	00 00		 lea	 rdx, OFFSET FLAT:??_C@_0BD@JJCKBAKO@unhandled?5expr?3?5?$CFd?$AA@
  007f1	48 8b 0d 00 00
	00 00		 mov	 rcx, QWORD PTR PyExc_SystemError
  007f8	e8 00 00 00 00	 call	 PyErr_Format

; 2396 :             return NULL;

  007fd	33 c0		 xor	 eax, eax
  007ff	eb 02		 jmp	 SHORT $LN45@ast_for_ex
$LN43@ast_for_ex:

; 2397 :     }
; 2398 :     /* should never get here unless if error is set */
; 2399 :     return NULL;

  00801	33 c0		 xor	 eax, eax
$LN45@ast_for_ex:

; 2400 : }

  00803	48 81 c4 b8 00
	00 00		 add	 rsp, 184		; 000000b8H
  0080a	c3		 ret	 0
  0080b	90		 npad	 1
$LN59@ast_for_ex:
  0080c	00 00 00 00	 DD	 $LN42@ast_for_ex
  00810	00 00 00 00	 DD	 $LN37@ast_for_ex
  00814	00 00 00 00	 DD	 $LN29@ast_for_ex
  00818	00 00 00 00	 DD	 $LN25@ast_for_ex
  0081c	00 00 00 00	 DD	 $LN14@ast_for_ex
  00820	00 00 00 00	 DD	 $LN13@ast_for_ex
  00824	00 00 00 00	 DD	 $LN4@ast_for_ex
  00828	00 00 00 00	 DD	 $LN2@ast_for_ex
  0082c	00 00 00 00	 DD	 $LN11@ast_for_ex
  00830	00 00 00 00	 DD	 $LN1@ast_for_ex
$LN58@ast_for_ex:
  00834	00		 DB	 0
  00835	00		 DB	 0
  00836	09		 DB	 9
  00837	09		 DB	 9
  00838	01		 DB	 1
  00839	01		 DB	 1
  0083a	02		 DB	 2
  0083b	03		 DB	 3
  0083c	09		 DB	 9
  0083d	04		 DB	 4
  0083e	05		 DB	 5
  0083f	05		 DB	 5
  00840	05		 DB	 5
  00841	05		 DB	 5
  00842	05		 DB	 5
  00843	05		 DB	 5
  00844	06		 DB	 6
  00845	07		 DB	 7
  00846	09		 DB	 9
  00847	09		 DB	 9
  00848	09		 DB	 9
  00849	09		 DB	 9
  0084a	09		 DB	 9
  0084b	09		 DB	 9
  0084c	09		 DB	 9
  0084d	09		 DB	 9
  0084e	09		 DB	 9
  0084f	09		 DB	 9
  00850	09		 DB	 9
  00851	09		 DB	 9
  00852	09		 DB	 9
  00853	09		 DB	 9
  00854	09		 DB	 9
  00855	09		 DB	 9
  00856	08		 DB	 8
ast_for_expr ENDP
_TEXT	ENDS
PUBLIC	??_C@_0CB@DJMGDDDJ@invalid?5comp_op?3?5has?5?$CFd?5children@ ; `string'
PUBLIC	??_C@_0BH@PIIGKMIP@invalid?5comp_op?3?5?$CFs?5?$CFs?$AA@ ; `string'
PUBLIC	??_C@_0BE@KEKDOHCG@invalid?5comp_op?3?5?$CFs?$AA@ ; `string'
PUBLIC	??_C@_02EDKKPMHH@is?$AA@			; `string'
PUBLIC	??_C@_02LMMGJAGL@in?$AA@			; `string'
PUBLIC	??_C@_1CC@DEDMLLB@?$AAT?$AAY?$AAP?$AAE?$AA?$CI?$AAn?$AA?$CJ?$AA?5?$AA?$DN?$AA?$DN?$AA?5?$AA?$CI?$AA3?$AA1?$AA0?$AA?$CJ?$AA?$AA@ ; `string'
;	COMDAT pdata
pdata	SEGMENT
$pdata$ast_for_comp_op DD imagerel ast_for_comp_op
	DD	imagerel ast_for_comp_op+582
	DD	imagerel $unwind$ast_for_comp_op
pdata	ENDS
;	COMDAT xdata
xdata	SEGMENT
$unwind$ast_for_comp_op DD 010e01H
	DD	0620eH
xdata	ENDS
;	COMDAT ??_C@_0CB@DJMGDDDJ@invalid?5comp_op?3?5has?5?$CFd?5children@
CONST	SEGMENT
??_C@_0CB@DJMGDDDJ@invalid?5comp_op?3?5has?5?$CFd?5children@ DB 'invalid '
	DB	'comp_op: has %d children', 00H		; `string'
CONST	ENDS
;	COMDAT ??_C@_0BH@PIIGKMIP@invalid?5comp_op?3?5?$CFs?5?$CFs?$AA@
CONST	SEGMENT
??_C@_0BH@PIIGKMIP@invalid?5comp_op?3?5?$CFs?5?$CFs?$AA@ DB 'invalid comp'
	DB	'_op: %s %s', 00H				; `string'
CONST	ENDS
;	COMDAT ??_C@_0BE@KEKDOHCG@invalid?5comp_op?3?5?$CFs?$AA@
CONST	SEGMENT
??_C@_0BE@KEKDOHCG@invalid?5comp_op?3?5?$CFs?$AA@ DB 'invalid comp_op: %s'
	DB	00H						; `string'
CONST	ENDS
;	COMDAT ??_C@_02EDKKPMHH@is?$AA@
CONST	SEGMENT
??_C@_02EDKKPMHH@is?$AA@ DB 'is', 00H			; `string'
CONST	ENDS
;	COMDAT ??_C@_02LMMGJAGL@in?$AA@
CONST	SEGMENT
??_C@_02LMMGJAGL@in?$AA@ DB 'in', 00H			; `string'
CONST	ENDS
;	COMDAT ??_C@_1CC@DEDMLLB@?$AAT?$AAY?$AAP?$AAE?$AA?$CI?$AAn?$AA?$CJ?$AA?5?$AA?$DN?$AA?$DN?$AA?5?$AA?$CI?$AA3?$AA1?$AA0?$AA?$CJ?$AA?$AA@
CONST	SEGMENT
??_C@_1CC@DEDMLLB@?$AAT?$AAY?$AAP?$AAE?$AA?$CI?$AAn?$AA?$CJ?$AA?5?$AA?$DN?$AA?$DN?$AA?5?$AA?$CI?$AA3?$AA1?$AA0?$AA?$CJ?$AA?$AA@ DB 'T'
	DB	00H, 'Y', 00H, 'P', 00H, 'E', 00H, '(', 00H, 'n', 00H, ')', 00H
	DB	' ', 00H, '=', 00H, '=', 00H, ' ', 00H, '(', 00H, '3', 00H, '1'
	DB	00H, '0', 00H, ')', 00H, 00H, 00H		; `string'
; Function compile flags: /Odtp
CONST	ENDS
;	COMDAT ast_for_comp_op
_TEXT	SEGMENT
tv74 = 32
tv128 = 36
c$ = 64
n$ = 72
ast_for_comp_op PROC					; COMDAT

; 1037 : {

  00000	48 89 54 24 10	 mov	 QWORD PTR [rsp+16], rdx
  00005	48 89 4c 24 08	 mov	 QWORD PTR [rsp+8], rcx
  0000a	48 83 ec 38	 sub	 rsp, 56			; 00000038H

; 1038 :     /* comp_op: '<'|'>'|'=='|'>='|'<='|'!='|'in'|'not' 'in'|'is'
; 1039 :                |'is' 'not'
; 1040 :     */
; 1041 :     REQ(n, comp_op);

  0000e	48 8b 44 24 48	 mov	 rax, QWORD PTR n$[rsp]
  00013	0f bf 00	 movsx	 eax, WORD PTR [rax]
  00016	3d 36 01 00 00	 cmp	 eax, 310		; 00000136H
  0001b	74 1c		 je	 SHORT $LN24@ast_for_co
  0001d	41 b8 11 04 00
	00		 mov	 r8d, 1041		; 00000411H
  00023	48 8d 15 00 00
	00 00		 lea	 rdx, OFFSET FLAT:??_C@_1CA@FDBOFCJB@?$AA?4?$AA?4?$AA?2?$AAP?$AAy?$AAt?$AAh?$AAo?$AAn?$AA?2?$AAa?$AAs?$AAt?$AA?4?$AAc?$AA?$AA@
  0002a	48 8d 0d 00 00
	00 00		 lea	 rcx, OFFSET FLAT:??_C@_1CC@DEDMLLB@?$AAT?$AAY?$AAP?$AAE?$AA?$CI?$AAn?$AA?$CJ?$AA?5?$AA?$DN?$AA?$DN?$AA?5?$AA?$CI?$AA3?$AA1?$AA0?$AA?$CJ?$AA?$AA@
  00031	ff 15 00 00 00
	00		 call	 QWORD PTR __imp__wassert
  00037	33 c0		 xor	 eax, eax
$LN24@ast_for_co:

; 1042 :     if (NCH(n) == 1) {

  00039	48 8b 44 24 48	 mov	 rax, QWORD PTR n$[rsp]
  0003e	83 78 18 01	 cmp	 DWORD PTR [rax+24], 1
  00042	0f 85 f9 00 00
	00		 jne	 $LN21@ast_for_co

; 1043 :         n = CHILD(n, 0);

  00048	48 8b 44 24 48	 mov	 rax, QWORD PTR n$[rsp]
  0004d	48 8b 40 20	 mov	 rax, QWORD PTR [rax+32]
  00051	48 89 44 24 48	 mov	 QWORD PTR n$[rsp], rax

; 1044 :         switch (TYPE(n)) {

  00056	48 8b 44 24 48	 mov	 rax, QWORD PTR n$[rsp]
  0005b	0f bf 00	 movsx	 eax, WORD PTR [rax]
  0005e	89 44 24 20	 mov	 DWORD PTR tv74[rsp], eax
  00062	8b 44 24 20	 mov	 eax, DWORD PTR tv74[rsp]
  00066	ff c8		 dec	 eax
  00068	89 44 24 20	 mov	 DWORD PTR tv74[rsp], eax
  0006c	83 7c 24 20 1d	 cmp	 DWORD PTR tv74[rsp], 29
  00071	0f 87 a2 00 00
	00		 ja	 $LN9@ast_for_co
  00077	48 63 44 24 20	 movsxd	 rax, DWORD PTR tv74[rsp]
  0007c	48 8d 0d 00 00
	00 00		 lea	 rcx, OFFSET FLAT:__ImageBase
  00083	0f b6 84 01 00
	00 00 00	 movzx	 eax, BYTE PTR $LN25@ast_for_co[rcx+rax]
  0008b	8b 84 81 00 00
	00 00		 mov	 eax, DWORD PTR $LN26@ast_for_co[rcx+rax*4]
  00092	48 03 c1	 add	 rax, rcx
  00095	ff e0		 jmp	 rax
$LN18@ast_for_co:

; 1045 :             case LESS:
; 1046 :                 return Lt;

  00097	b8 03 00 00 00	 mov	 eax, 3
  0009c	e9 5f 01 00 00	 jmp	 $LN22@ast_for_co
$LN17@ast_for_co:

; 1047 :             case GREATER:
; 1048 :                 return Gt;

  000a1	b8 05 00 00 00	 mov	 eax, 5
  000a6	e9 55 01 00 00	 jmp	 $LN22@ast_for_co
$LN16@ast_for_co:

; 1049 :             case EQEQUAL:                       /* == */
; 1050 :                 return Eq;

  000ab	b8 01 00 00 00	 mov	 eax, 1
  000b0	e9 4b 01 00 00	 jmp	 $LN22@ast_for_co
$LN15@ast_for_co:

; 1051 :             case LESSEQUAL:
; 1052 :                 return LtE;

  000b5	b8 04 00 00 00	 mov	 eax, 4
  000ba	e9 41 01 00 00	 jmp	 $LN22@ast_for_co
$LN14@ast_for_co:

; 1053 :             case GREATEREQUAL:
; 1054 :                 return GtE;

  000bf	b8 06 00 00 00	 mov	 eax, 6
  000c4	e9 37 01 00 00	 jmp	 $LN22@ast_for_co
$LN13@ast_for_co:

; 1055 :             case NOTEQUAL:
; 1056 :                 return NotEq;

  000c9	b8 02 00 00 00	 mov	 eax, 2
  000ce	e9 2d 01 00 00	 jmp	 $LN22@ast_for_co
$LN12@ast_for_co:

; 1057 :             case NAME:
; 1058 :                 if (strcmp(STR(n), "in") == 0)

  000d3	48 8d 15 00 00
	00 00		 lea	 rdx, OFFSET FLAT:??_C@_02LMMGJAGL@in?$AA@
  000da	48 8b 44 24 48	 mov	 rax, QWORD PTR n$[rsp]
  000df	48 8b 48 08	 mov	 rcx, QWORD PTR [rax+8]
  000e3	e8 00 00 00 00	 call	 strcmp
  000e8	85 c0		 test	 eax, eax
  000ea	75 0a		 jne	 SHORT $LN11@ast_for_co

; 1059 :                     return In;

  000ec	b8 09 00 00 00	 mov	 eax, 9
  000f1	e9 0a 01 00 00	 jmp	 $LN22@ast_for_co
$LN11@ast_for_co:

; 1060 :                 if (strcmp(STR(n), "is") == 0)

  000f6	48 8d 15 00 00
	00 00		 lea	 rdx, OFFSET FLAT:??_C@_02EDKKPMHH@is?$AA@
  000fd	48 8b 44 24 48	 mov	 rax, QWORD PTR n$[rsp]
  00102	48 8b 48 08	 mov	 rcx, QWORD PTR [rax+8]
  00106	e8 00 00 00 00	 call	 strcmp
  0010b	85 c0		 test	 eax, eax
  0010d	75 0a		 jne	 SHORT $LN10@ast_for_co

; 1061 :                     return Is;

  0010f	b8 07 00 00 00	 mov	 eax, 7
  00114	e9 e7 00 00 00	 jmp	 $LN22@ast_for_co
$LN10@ast_for_co:
$LN9@ast_for_co:

; 1062 :             default:
; 1063 :                 PyErr_Format(PyExc_SystemError, "invalid comp_op: %s",
; 1064 :                              STR(n));

  00119	48 8b 44 24 48	 mov	 rax, QWORD PTR n$[rsp]
  0011e	4c 8b 40 08	 mov	 r8, QWORD PTR [rax+8]
  00122	48 8d 15 00 00
	00 00		 lea	 rdx, OFFSET FLAT:??_C@_0BE@KEKDOHCG@invalid?5comp_op?3?5?$CFs?$AA@
  00129	48 8b 0d 00 00
	00 00		 mov	 rcx, QWORD PTR PyExc_SystemError
  00130	e8 00 00 00 00	 call	 PyErr_Format

; 1065 :                 return (cmpop_ty)0;

  00135	33 c0		 xor	 eax, eax
  00137	e9 c4 00 00 00	 jmp	 $LN22@ast_for_co

; 1066 :         }
; 1067 :     }
; 1068 :     else if (NCH(n) == 2) {

  0013c	e9 a1 00 00 00	 jmp	 $LN8@ast_for_co
$LN21@ast_for_co:
  00141	48 8b 44 24 48	 mov	 rax, QWORD PTR n$[rsp]
  00146	83 78 18 02	 cmp	 DWORD PTR [rax+24], 2
  0014a	0f 85 92 00 00
	00		 jne	 $LN7@ast_for_co

; 1069 :         /* handle "not in" and "is not" */
; 1070 :         switch (TYPE(CHILD(n, 0))) {

  00150	48 8b 44 24 48	 mov	 rax, QWORD PTR n$[rsp]
  00155	48 8b 40 20	 mov	 rax, QWORD PTR [rax+32]
  00159	0f bf 00	 movsx	 eax, WORD PTR [rax]
  0015c	89 44 24 24	 mov	 DWORD PTR tv128[rsp], eax
  00160	83 7c 24 24 01	 cmp	 DWORD PTR tv128[rsp], 1
  00165	74 02		 je	 SHORT $LN4@ast_for_co
  00167	eb 48		 jmp	 SHORT $LN1@ast_for_co
$LN4@ast_for_co:

; 1071 :             case NAME:
; 1072 :                 if (strcmp(STR(CHILD(n, 1)), "in") == 0)

  00169	48 8b 44 24 48	 mov	 rax, QWORD PTR n$[rsp]
  0016e	48 8b 40 20	 mov	 rax, QWORD PTR [rax+32]
  00172	48 8d 15 00 00
	00 00		 lea	 rdx, OFFSET FLAT:??_C@_02LMMGJAGL@in?$AA@
  00179	48 8b 48 30	 mov	 rcx, QWORD PTR [rax+48]
  0017d	e8 00 00 00 00	 call	 strcmp
  00182	85 c0		 test	 eax, eax
  00184	75 07		 jne	 SHORT $LN3@ast_for_co

; 1073 :                     return NotIn;

  00186	b8 0a 00 00 00	 mov	 eax, 10
  0018b	eb 73		 jmp	 SHORT $LN22@ast_for_co
$LN3@ast_for_co:

; 1074 :                 if (strcmp(STR(CHILD(n, 0)), "is") == 0)

  0018d	48 8b 44 24 48	 mov	 rax, QWORD PTR n$[rsp]
  00192	48 8b 40 20	 mov	 rax, QWORD PTR [rax+32]
  00196	48 8d 15 00 00
	00 00		 lea	 rdx, OFFSET FLAT:??_C@_02EDKKPMHH@is?$AA@
  0019d	48 8b 48 08	 mov	 rcx, QWORD PTR [rax+8]
  001a1	e8 00 00 00 00	 call	 strcmp
  001a6	85 c0		 test	 eax, eax
  001a8	75 07		 jne	 SHORT $LN2@ast_for_co

; 1075 :                     return IsNot;

  001aa	b8 08 00 00 00	 mov	 eax, 8
  001af	eb 4f		 jmp	 SHORT $LN22@ast_for_co
$LN2@ast_for_co:
$LN1@ast_for_co:

; 1076 :             default:
; 1077 :                 PyErr_Format(PyExc_SystemError, "invalid comp_op: %s %s",
; 1078 :                              STR(CHILD(n, 0)), STR(CHILD(n, 1)));

  001b1	48 8b 44 24 48	 mov	 rax, QWORD PTR n$[rsp]
  001b6	48 8b 40 20	 mov	 rax, QWORD PTR [rax+32]
  001ba	48 8b 4c 24 48	 mov	 rcx, QWORD PTR n$[rsp]
  001bf	48 8b 49 20	 mov	 rcx, QWORD PTR [rcx+32]
  001c3	4c 8b 48 30	 mov	 r9, QWORD PTR [rax+48]
  001c7	4c 8b 41 08	 mov	 r8, QWORD PTR [rcx+8]
  001cb	48 8d 15 00 00
	00 00		 lea	 rdx, OFFSET FLAT:??_C@_0BH@PIIGKMIP@invalid?5comp_op?3?5?$CFs?5?$CFs?$AA@
  001d2	48 8b 0d 00 00
	00 00		 mov	 rcx, QWORD PTR PyExc_SystemError
  001d9	e8 00 00 00 00	 call	 PyErr_Format

; 1079 :                 return (cmpop_ty)0;

  001de	33 c0		 xor	 eax, eax
  001e0	eb 1e		 jmp	 SHORT $LN22@ast_for_co
$LN7@ast_for_co:
$LN8@ast_for_co:

; 1080 :         }
; 1081 :     }
; 1082 :     PyErr_Format(PyExc_SystemError, "invalid comp_op: has %d children",
; 1083 :                  NCH(n));

  001e2	48 8b 44 24 48	 mov	 rax, QWORD PTR n$[rsp]
  001e7	44 8b 40 18	 mov	 r8d, DWORD PTR [rax+24]
  001eb	48 8d 15 00 00
	00 00		 lea	 rdx, OFFSET FLAT:??_C@_0CB@DJMGDDDJ@invalid?5comp_op?3?5has?5?$CFd?5children@
  001f2	48 8b 0d 00 00
	00 00		 mov	 rcx, QWORD PTR PyExc_SystemError
  001f9	e8 00 00 00 00	 call	 PyErr_Format

; 1084 :     return (cmpop_ty)0;

  001fe	33 c0		 xor	 eax, eax
$LN22@ast_for_co:

; 1085 : }

  00200	48 83 c4 38	 add	 rsp, 56			; 00000038H
  00204	c3		 ret	 0
  00205	0f 1f 00	 npad	 3
$LN26@ast_for_co:
  00208	00 00 00 00	 DD	 $LN12@ast_for_co
  0020c	00 00 00 00	 DD	 $LN18@ast_for_co
  00210	00 00 00 00	 DD	 $LN17@ast_for_co
  00214	00 00 00 00	 DD	 $LN16@ast_for_co
  00218	00 00 00 00	 DD	 $LN13@ast_for_co
  0021c	00 00 00 00	 DD	 $LN15@ast_for_co
  00220	00 00 00 00	 DD	 $LN14@ast_for_co
  00224	00 00 00 00	 DD	 $LN9@ast_for_co
$LN25@ast_for_co:
  00228	00		 DB	 0
  00229	07		 DB	 7
  0022a	07		 DB	 7
  0022b	07		 DB	 7
  0022c	07		 DB	 7
  0022d	07		 DB	 7
  0022e	07		 DB	 7
  0022f	07		 DB	 7
  00230	07		 DB	 7
  00231	07		 DB	 7
  00232	07		 DB	 7
  00233	07		 DB	 7
  00234	07		 DB	 7
  00235	07		 DB	 7
  00236	07		 DB	 7
  00237	07		 DB	 7
  00238	07		 DB	 7
  00239	07		 DB	 7
  0023a	07		 DB	 7
  0023b	01		 DB	 1
  0023c	02		 DB	 2
  0023d	07		 DB	 7
  0023e	07		 DB	 7
  0023f	07		 DB	 7
  00240	07		 DB	 7
  00241	07		 DB	 7
  00242	03		 DB	 3
  00243	04		 DB	 4
  00244	05		 DB	 5
  00245	06		 DB	 6
ast_for_comp_op ENDP
_TEXT	ENDS
EXTRN	_Py_Lambda:PROC
EXTRN	_Py_arguments:PROC
;	COMDAT pdata
