; Listing generated by Microsoft (R) Optimizing Compiler Version 16.00.40219.01 

include listing.inc

INCLUDELIB MSVCRTD
INCLUDELIB OLDNAMES

PUBLIC	??_C@_0P@DKPNDJBA@bytes_iterator?$AA@		; `string'
PUBLIC	??_C@_0N@MOOGCAMH@__setstate__?$AA@		; `string'
PUBLIC	??_C@_0L@NNMACJIG@__reduce__?$AA@		; `string'
PUBLIC	??_C@_0BA@BJLPBKGK@__length_hint__?$AA@		; `string'
PUBLIC	??_C@_05FBJAGGIG@bytes?$AA@			; `string'
PUBLIC	??_C@_09PAJHGGFL@__bytes__?$AA@			; `string'
PUBLIC	??_C@_06OEKOLKIL@source?$AA@			; `string'
PUBLIC	??_C@_0L@HOGGIPGN@__sizeof__?$AA@		; `string'
PUBLIC	??_C@_05DMFNFMHA@zfill?$AA@			; `string'
PUBLIC	??_C@_05NECKJAMC@upper?$AA@			; `string'
PUBLIC	??_C@_09ODNGOEIO@translate?$AA@			; `string'
PUBLIC	??_C@_05PHLGJONK@title?$AA@			; `string'
PUBLIC	??_C@_08EDJLBCEI@swapcase?$AA@			; `string'
PUBLIC	??_C@_05GGNGIGHC@strip?$AA@			; `string'
PUBLIC	??_C@_0L@MPOGHCCL@startswith?$AA@		; `string'
PUBLIC	??_C@_0L@BCMGLLLC@splitlines?$AA@		; `string'
PUBLIC	??_C@_05EHPMMFBK@split?$AA@			; `string'
PUBLIC	??_C@_06DBIPDJKN@rstrip?$AA@			; `string'
PUBLIC	??_C@_06BAKFHKMF@rsplit?$AA@			; `string'
PUBLIC	??_C@_0L@KEEHLNKL@rpartition?$AA@		; `string'
PUBLIC	??_C@_05JKFAKHCP@rjust?$AA@			; `string'
PUBLIC	??_C@_06NCDOMFM@rindex?$AA@			; `string'
PUBLIC	??_C@_05BLFDIAHL@rfind?$AA@			; `string'
PUBLIC	??_C@_07CLEHDIEJ@replace?$AA@			; `string'
PUBLIC	??_C@_09IKAEIPAD@partition?$AA@			; `string'
PUBLIC	??_C@_09PBBLPCAA@maketrans?$AA@			; `string'
PUBLIC	??_C@_06GGONODO@lstrip?$AA@			; `string'
PUBLIC	??_C@_05IPJEPLHL@lower?$AA@			; `string'
PUBLIC	??_C@_05KDIMMEME@ljust?$AA@			; `string'
PUBLIC	??_C@_04DFGCDGNN@join?$AA@			; `string'
PUBLIC	??_C@_07BCOOJPCO@isupper?$AA@			; `string'
PUBLIC	??_C@_07DBHCJBDG@istitle?$AA@			; `string'
PUBLIC	??_C@_07CNBMLEON@isspace?$AA@			; `string'
PUBLIC	??_C@_07EJFAPEJH@islower?$AA@			; `string'
PUBLIC	??_C@_07CFBKIKCH@isdigit?$AA@			; `string'
PUBLIC	??_C@_07EGIOHHOB@isalpha?$AA@			; `string'
PUBLIC	??_C@_07EOADCIGC@isalnum?$AA@			; `string'
PUBLIC	??_C@_05FKHKFDID@index?$AA@			; `string'
PUBLIC	??_C@_07DIMGGDAC@fromhex?$AA@			; `string'
PUBLIC	??_C@_04CKFJHKAP@find?$AA@			; `string'
PUBLIC	??_C@_0L@DEOCELBD@expandtabs?$AA@		; `string'
PUBLIC	??_C@_08MLCMCPNP@endswith?$AA@			; `string'
PUBLIC	??_C@_06KPNAMAEI@decode?$AA@			; `string'
PUBLIC	??_C@_05IOMEMJEC@count?$AA@			; `string'
PUBLIC	??_C@_06BBLOAEEI@center?$AA@			; `string'
PUBLIC	??_C@_0L@NMODNBEH@capitalize?$AA@		; `string'
PUBLIC	??_C@_0P@BCBHENLA@__getnewargs__?$AA@		; `string'
PUBLIC	??_C@_08EMIAAFLA@keepends?$AA@			; `string'
PUBLIC	??_C@_06EOMHCNPI@errors?$AA@			; `string'
PUBLIC	??_C@_08MLPGAEIK@encoding?$AA@			; `string'
PUBLIC	??_C@_08HONNCIIN@maxsplit?$AA@			; `string'
PUBLIC	??_C@_03MGBCFPKM@sep?$AA@			; `string'
PUBLIC	??_C@_08NLCECJOD@?$HMO?3strip?$AA@		; `string'
PUBLIC	??_C@_09LGDKGINA@?$HMO?3rstrip?$AA@		; `string'
PUBLIC	??_C@_09IBNLIPED@?$HMO?3lstrip?$AA@		; `string'
PUBLIC	PyBytes_Type
PUBLIC	PyBytesIter_Type
EXTRN	PyObject_SelfIter:PROC
EXTRN	_PyObject_DebugFree:PROC
EXTRN	PyBaseObject_Type:BYTE
EXTRN	PyObject_GenericGetAttr:PROC
EXTRN	PyType_Type:BYTE
EXTRN	_Py_upper__doc__:BYTE
EXTRN	_Py_title__doc__:BYTE
EXTRN	_Py_swapcase__doc__:BYTE
EXTRN	_Py_maketrans__doc__:BYTE
EXTRN	_Py_lower__doc__:BYTE
EXTRN	_Py_isupper__doc__:BYTE
EXTRN	_Py_istitle__doc__:BYTE
EXTRN	_Py_isspace__doc__:BYTE
EXTRN	_Py_islower__doc__:BYTE
EXTRN	_Py_isdigit__doc__:BYTE
EXTRN	_Py_isalpha__doc__:BYTE
EXTRN	_Py_isalnum__doc__:BYTE
EXTRN	_Py_capitalize__doc__:BYTE
;	COMDAT ??_C@_0P@DKPNDJBA@bytes_iterator?$AA@
CONST	SEGMENT
??_C@_0P@DKPNDJBA@bytes_iterator?$AA@ DB 'bytes_iterator', 00H ; `string'
CONST	ENDS
;	COMDAT ??_C@_0N@MOOGCAMH@__setstate__?$AA@
CONST	SEGMENT
??_C@_0N@MOOGCAMH@__setstate__?$AA@ DB '__setstate__', 00H ; `string'
CONST	ENDS
;	COMDAT ??_C@_0L@NNMACJIG@__reduce__?$AA@
CONST	SEGMENT
??_C@_0L@NNMACJIG@__reduce__?$AA@ DB '__reduce__', 00H	; `string'
CONST	ENDS
;	COMDAT ??_C@_0BA@BJLPBKGK@__length_hint__?$AA@
CONST	SEGMENT
??_C@_0BA@BJLPBKGK@__length_hint__?$AA@ DB '__length_hint__', 00H ; `string'
CONST	ENDS
;	COMDAT ??_C@_05FBJAGGIG@bytes?$AA@
CONST	SEGMENT
??_C@_05FBJAGGIG@bytes?$AA@ DB 'bytes', 00H		; `string'
CONST	ENDS
_TLS	SEGMENT
?PyId___bytes__@?1??bytes_new@@9@9 DQ 0000000000000000H	; `bytes_new'::`2'::PyId___bytes__
	DQ	FLAT:??_C@_09PAJHGGFL@__bytes__?$AA@
	DQ	0000000000000000H
_TLS	ENDS
;	COMDAT ??_C@_09PAJHGGFL@__bytes__?$AA@
CONST	SEGMENT
??_C@_09PAJHGGFL@__bytes__?$AA@ DB '__bytes__', 00H	; `string'
CONST	ENDS
;	COMDAT ??_C@_06OEKOLKIL@source?$AA@
CONST	SEGMENT
??_C@_06OEKOLKIL@source?$AA@ DB 'source', 00H		; `string'
CONST	ENDS
;	COMDAT ??_C@_0L@HOGGIPGN@__sizeof__?$AA@
CONST	SEGMENT
??_C@_0L@HOGGIPGN@__sizeof__?$AA@ DB '__sizeof__', 00H	; `string'
CONST	ENDS
;	COMDAT ??_C@_05DMFNFMHA@zfill?$AA@
CONST	SEGMENT
??_C@_05DMFNFMHA@zfill?$AA@ DB 'zfill', 00H		; `string'
CONST	ENDS
;	COMDAT ??_C@_05NECKJAMC@upper?$AA@
CONST	SEGMENT
??_C@_05NECKJAMC@upper?$AA@ DB 'upper', 00H		; `string'
CONST	ENDS
;	COMDAT ??_C@_09ODNGOEIO@translate?$AA@
CONST	SEGMENT
??_C@_09ODNGOEIO@translate?$AA@ DB 'translate', 00H	; `string'
CONST	ENDS
;	COMDAT ??_C@_05PHLGJONK@title?$AA@
CONST	SEGMENT
??_C@_05PHLGJONK@title?$AA@ DB 'title', 00H		; `string'
CONST	ENDS
;	COMDAT ??_C@_08EDJLBCEI@swapcase?$AA@
CONST	SEGMENT
??_C@_08EDJLBCEI@swapcase?$AA@ DB 'swapcase', 00H	; `string'
CONST	ENDS
;	COMDAT ??_C@_05GGNGIGHC@strip?$AA@
CONST	SEGMENT
??_C@_05GGNGIGHC@strip?$AA@ DB 'strip', 00H		; `string'
CONST	ENDS
;	COMDAT ??_C@_0L@MPOGHCCL@startswith?$AA@
CONST	SEGMENT
??_C@_0L@MPOGHCCL@startswith?$AA@ DB 'startswith', 00H	; `string'
CONST	ENDS
;	COMDAT ??_C@_0L@BCMGLLLC@splitlines?$AA@
CONST	SEGMENT
??_C@_0L@BCMGLLLC@splitlines?$AA@ DB 'splitlines', 00H	; `string'
CONST	ENDS
;	COMDAT ??_C@_05EHPMMFBK@split?$AA@
CONST	SEGMENT
??_C@_05EHPMMFBK@split?$AA@ DB 'split', 00H		; `string'
CONST	ENDS
;	COMDAT ??_C@_06DBIPDJKN@rstrip?$AA@
CONST	SEGMENT
??_C@_06DBIPDJKN@rstrip?$AA@ DB 'rstrip', 00H		; `string'
CONST	ENDS
;	COMDAT ??_C@_06BAKFHKMF@rsplit?$AA@
CONST	SEGMENT
??_C@_06BAKFHKMF@rsplit?$AA@ DB 'rsplit', 00H		; `string'
CONST	ENDS
;	COMDAT ??_C@_0L@KEEHLNKL@rpartition?$AA@
CONST	SEGMENT
??_C@_0L@KEEHLNKL@rpartition?$AA@ DB 'rpartition', 00H	; `string'
CONST	ENDS
;	COMDAT ??_C@_05JKFAKHCP@rjust?$AA@
CONST	SEGMENT
??_C@_05JKFAKHCP@rjust?$AA@ DB 'rjust', 00H		; `string'
CONST	ENDS
;	COMDAT ??_C@_06NCDOMFM@rindex?$AA@
CONST	SEGMENT
??_C@_06NCDOMFM@rindex?$AA@ DB 'rindex', 00H		; `string'
CONST	ENDS
;	COMDAT ??_C@_05BLFDIAHL@rfind?$AA@
CONST	SEGMENT
??_C@_05BLFDIAHL@rfind?$AA@ DB 'rfind', 00H		; `string'
CONST	ENDS
;	COMDAT ??_C@_07CLEHDIEJ@replace?$AA@
CONST	SEGMENT
??_C@_07CLEHDIEJ@replace?$AA@ DB 'replace', 00H		; `string'
CONST	ENDS
;	COMDAT ??_C@_09IKAEIPAD@partition?$AA@
CONST	SEGMENT
??_C@_09IKAEIPAD@partition?$AA@ DB 'partition', 00H	; `string'
CONST	ENDS
;	COMDAT ??_C@_09PBBLPCAA@maketrans?$AA@
CONST	SEGMENT
??_C@_09PBBLPCAA@maketrans?$AA@ DB 'maketrans', 00H	; `string'
CONST	ENDS
;	COMDAT ??_C@_06GGONODO@lstrip?$AA@
CONST	SEGMENT
??_C@_06GGONODO@lstrip?$AA@ DB 'lstrip', 00H		; `string'
CONST	ENDS
;	COMDAT ??_C@_05IPJEPLHL@lower?$AA@
CONST	SEGMENT
??_C@_05IPJEPLHL@lower?$AA@ DB 'lower', 00H		; `string'
CONST	ENDS
;	COMDAT ??_C@_05KDIMMEME@ljust?$AA@
CONST	SEGMENT
??_C@_05KDIMMEME@ljust?$AA@ DB 'ljust', 00H		; `string'
CONST	ENDS
;	COMDAT ??_C@_04DFGCDGNN@join?$AA@
CONST	SEGMENT
??_C@_04DFGCDGNN@join?$AA@ DB 'join', 00H		; `string'
CONST	ENDS
;	COMDAT ??_C@_07BCOOJPCO@isupper?$AA@
CONST	SEGMENT
??_C@_07BCOOJPCO@isupper?$AA@ DB 'isupper', 00H		; `string'
CONST	ENDS
;	COMDAT ??_C@_07DBHCJBDG@istitle?$AA@
CONST	SEGMENT
??_C@_07DBHCJBDG@istitle?$AA@ DB 'istitle', 00H		; `string'
CONST	ENDS
;	COMDAT ??_C@_07CNBMLEON@isspace?$AA@
CONST	SEGMENT
??_C@_07CNBMLEON@isspace?$AA@ DB 'isspace', 00H		; `string'
CONST	ENDS
;	COMDAT ??_C@_07EJFAPEJH@islower?$AA@
CONST	SEGMENT
??_C@_07EJFAPEJH@islower?$AA@ DB 'islower', 00H		; `string'
CONST	ENDS
;	COMDAT ??_C@_07CFBKIKCH@isdigit?$AA@
CONST	SEGMENT
??_C@_07CFBKIKCH@isdigit?$AA@ DB 'isdigit', 00H		; `string'
CONST	ENDS
;	COMDAT ??_C@_07EGIOHHOB@isalpha?$AA@
CONST	SEGMENT
??_C@_07EGIOHHOB@isalpha?$AA@ DB 'isalpha', 00H		; `string'
CONST	ENDS
;	COMDAT ??_C@_07EOADCIGC@isalnum?$AA@
CONST	SEGMENT
??_C@_07EOADCIGC@isalnum?$AA@ DB 'isalnum', 00H		; `string'
CONST	ENDS
;	COMDAT ??_C@_05FKHKFDID@index?$AA@
CONST	SEGMENT
??_C@_05FKHKFDID@index?$AA@ DB 'index', 00H		; `string'
CONST	ENDS
;	COMDAT ??_C@_07DIMGGDAC@fromhex?$AA@
CONST	SEGMENT
??_C@_07DIMGGDAC@fromhex?$AA@ DB 'fromhex', 00H		; `string'
CONST	ENDS
;	COMDAT ??_C@_04CKFJHKAP@find?$AA@
CONST	SEGMENT
??_C@_04CKFJHKAP@find?$AA@ DB 'find', 00H		; `string'
CONST	ENDS
;	COMDAT ??_C@_0L@DEOCELBD@expandtabs?$AA@
CONST	SEGMENT
??_C@_0L@DEOCELBD@expandtabs?$AA@ DB 'expandtabs', 00H	; `string'
CONST	ENDS
;	COMDAT ??_C@_08MLCMCPNP@endswith?$AA@
CONST	SEGMENT
??_C@_08MLCMCPNP@endswith?$AA@ DB 'endswith', 00H	; `string'
CONST	ENDS
;	COMDAT ??_C@_06KPNAMAEI@decode?$AA@
CONST	SEGMENT
??_C@_06KPNAMAEI@decode?$AA@ DB 'decode', 00H		; `string'
CONST	ENDS
;	COMDAT ??_C@_05IOMEMJEC@count?$AA@
CONST	SEGMENT
??_C@_05IOMEMJEC@count?$AA@ DB 'count', 00H		; `string'
CONST	ENDS
;	COMDAT ??_C@_06BBLOAEEI@center?$AA@
CONST	SEGMENT
??_C@_06BBLOAEEI@center?$AA@ DB 'center', 00H		; `string'
CONST	ENDS
;	COMDAT ??_C@_0L@NMODNBEH@capitalize?$AA@
CONST	SEGMENT
??_C@_0L@NMODNBEH@capitalize?$AA@ DB 'capitalize', 00H	; `string'
CONST	ENDS
;	COMDAT ??_C@_0P@BCBHENLA@__getnewargs__?$AA@
CONST	SEGMENT
??_C@_0P@BCBHENLA@__getnewargs__?$AA@ DB '__getnewargs__', 00H ; `string'
CONST	ENDS
;	COMDAT ??_C@_08EMIAAFLA@keepends?$AA@
CONST	SEGMENT
??_C@_08EMIAAFLA@keepends?$AA@ DB 'keepends', 00H	; `string'
CONST	ENDS
;	COMDAT ??_C@_06EOMHCNPI@errors?$AA@
CONST	SEGMENT
??_C@_06EOMHCNPI@errors?$AA@ DB 'errors', 00H		; `string'
CONST	ENDS
;	COMDAT ??_C@_08MLPGAEIK@encoding?$AA@
CONST	SEGMENT
??_C@_08MLPGAEIK@encoding?$AA@ DB 'encoding', 00H	; `string'
CONST	ENDS
;	COMDAT ??_C@_08HONNCIIN@maxsplit?$AA@
CONST	SEGMENT
??_C@_08HONNCIIN@maxsplit?$AA@ DB 'maxsplit', 00H	; `string'
CONST	ENDS
;	COMDAT ??_C@_03MGBCFPKM@sep?$AA@
CONST	SEGMENT
??_C@_03MGBCFPKM@sep?$AA@ DB 'sep', 00H			; `string'
CONST	ENDS
;	COMDAT ??_C@_08NLCECJOD@?$HMO?3strip?$AA@
CONST	SEGMENT
??_C@_08NLCECJOD@?$HMO?3strip?$AA@ DB '|O:strip', 00H	; `string'
CONST	ENDS
;	COMDAT ??_C@_09LGDKGINA@?$HMO?3rstrip?$AA@
CONST	SEGMENT
??_C@_09LGDKGINA@?$HMO?3rstrip?$AA@ DB '|O:rstrip', 00H	; `string'
CONST	ENDS
;	COMDAT ??_C@_09IBNLIPED@?$HMO?3lstrip?$AA@
CONST	SEGMENT
??_C@_09IBNLIPED@?$HMO?3lstrip?$AA@ DB '|O:lstrip', 00H	; `string'
CONST	ENDS
_DATA	SEGMENT
expandtabs__doc__ DB 'B.expandtabs([tabsize]) -> copy of B', 0aH, 0aH, 'R'
	DB	'eturn a copy of B where all tab characters are expanded using'
	DB	' spaces.', 0aH, 'If tabsize is not given, a tab size of 8 cha'
	DB	'racters is assumed.', 00H
	ORG $+3
ljust__doc__ DB	'B.ljust(width[, fillchar]) -> copy of B', 0aH, 0aH, 'Ret'
	DB	'urn B left justified in a string of length width. Padding is', 0aH
	DB	'done using the specified fill character (default is a space).'
	DB	00H
	ORG $+9
rjust__doc__ DB	'B.rjust(width[, fillchar]) -> copy of B', 0aH, 0aH, 'Ret'
	DB	'urn B right justified in a string of length width. Padding is'
	DB	0aH, 'done using the specified fill character (default is a sp'
	DB	'ace)', 00H
	ORG $+9
center__doc__ DB 'B.center(width[, fillchar]) -> copy of B', 0aH, 0aH, 'R'
	DB	'eturn B centered in a string of length width.  Padding is', 0aH
	DB	'done using the specified fill character (default is a space).'
	DB	00H
	ORG $+13
zfill__doc__ DB	'B.zfill(width) -> copy of B', 0aH, 0aH, 'Pad a numeric s'
	DB	'tring B with zeros on the left, to fill a field', 0aH, 'of th'
	DB	'e specified width.  B is never truncated.', 00H
	ORG $+5
bytes_as_sequence DQ FLAT:bytes_length
	DQ	FLAT:bytes_concat
	DQ	FLAT:bytes_repeat
	DQ	FLAT:bytes_item
	DQ	0000000000000000H
	DQ	0000000000000000H
	DQ	0000000000000000H
	DQ	FLAT:bytes_contains
	ORG $+16
bytes_as_mapping DQ FLAT:bytes_length
	DQ	FLAT:bytes_subscript
	DQ	0000000000000000H
bytes_as_buffer DQ FLAT:bytes_buffer_getbuffer
	DQ	0000000000000000H
stripformat DQ	FLAT:??_C@_09IBNLIPED@?$HMO?3lstrip?$AA@
	DQ	FLAT:??_C@_09LGDKGINA@?$HMO?3rstrip?$AA@
	DQ	FLAT:??_C@_08NLCECJOD@?$HMO?3strip?$AA@
split__doc__ DB	'B.split(sep=None, maxsplit=-1) -> list of bytes', 0aH, 0aH
	DB	'Return a list of the sections in B, using sep as the delimite'
	DB	'r.', 0aH, 'If sep is not specified or is None, B is split on '
	DB	'ASCII whitespace', 0aH, 'characters (space, tab, return, newl'
	DB	'ine, formfeed, vertical tab).', 0aH, 'If maxsplit is given, a'
	DB	't most maxsplit splits are done.', 00H
	ORG $+2
?kwlist@?1??bytes_split@@9@9 DQ FLAT:??_C@_03MGBCFPKM@sep?$AA@ ; `bytes_split'::`2'::kwlist
	DQ	FLAT:??_C@_08HONNCIIN@maxsplit?$AA@
	DQ	0000000000000000H
	ORG $+8
partition__doc__ DB 'B.partition(sep) -> (head, sep, tail)', 0aH, 0aH, 'S'
	DB	'earch for the separator sep in B, and return the part before '
	DB	'it,', 0aH, 'the separator itself, and the part after it.  If '
	DB	'the separator is not', 0aH, 'found, returns B and two empty b'
	DB	'ytes objects.', 00H
	ORG $+3
rpartition__doc__ DB 'B.rpartition(sep) -> (head, sep, tail)', 0aH, 0aH, 'S'
	DB	'earch for the separator sep in B, starting at the end of B,', 0aH
	DB	'and return the part before it, the separator itself, and the', 0aH
	DB	'part after it.  If the separator is not found, returns two em'
	DB	'pty', 0aH, 'bytes objects and B.', 00H
	ORG $+8
rsplit__doc__ DB 'B.rsplit(sep=None, maxsplit=-1) -> list of bytes', 0aH, 0aH
	DB	'Return a list of the sections in B, using sep as the delimite'
	DB	'r,', 0aH, 'starting at the end of B and working to the front.'
	DB	0aH, 'If sep is not given, B is split on ASCII whitespace char'
	DB	'acters', 0aH, '(space, tab, return, newline, formfeed, vertic'
	DB	'al tab).', 0aH, 'If maxsplit is given, at most maxsplit split'
	DB	's are done.', 00H
	ORG $+5
?kwlist@?1??bytes_rsplit@@9@9 DQ FLAT:??_C@_03MGBCFPKM@sep?$AA@ ; `bytes_rsplit'::`2'::kwlist
	DQ	FLAT:??_C@_08HONNCIIN@maxsplit?$AA@
	DQ	0000000000000000H
join__doc__ DB	'B.join(iterable_of_bytes) -> bytes', 0aH, 0aH, 'Concaten'
	DB	'ate any number of bytes objects, with B in between each pair.'
	DB	0aH, 'Example: b''.''.join([b''ab'', b''pq'', b''rs'']) -> b'''
	DB	'ab.pq.rs''.', 00H
	ORG $+12
find__doc__ DB	'B.find(sub[, start[, end]]) -> int', 0aH, 0aH, 'Return t'
	DB	'he lowest index in B where substring sub is found,', 0aH, 'su'
	DB	'ch that sub is contained within B[start:end].  Optional', 0aH
	DB	'arguments start and end are interpreted as in slice notation.'
	DB	0aH, 0aH, 'Return -1 on failure.', 00H
	ORG $+2
index__doc__ DB	'B.index(sub[, start[, end]]) -> int', 0aH, 0aH, 'Like B.'
	DB	'find() but raise ValueError when the substring is not found.', 00H
	ORG $+7
rfind__doc__ DB	'B.rfind(sub[, start[, end]]) -> int', 0aH, 0aH, 'Return '
	DB	'the highest index in B where substring sub is found,', 0aH, 's'
	DB	'uch that sub is contained within B[start:end].  Optional', 0aH
	DB	'arguments start and end are interpreted as in slice notation.'
	DB	0aH, 0aH, 'Return -1 on failure.', 00H
rindex__doc__ DB 'B.rindex(sub[, start[, end]]) -> int', 0aH, 0aH, 'Like '
	DB	'B.rfind() but raise ValueError when the substring is not foun'
	DB	'd.', 00H
	ORG $+5
strip__doc__ DB	'B.strip([bytes]) -> bytes', 0aH, 0aH, 'Strip leading and'
	DB	' trailing bytes contained in the argument.', 0aH, 'If the arg'
	DB	'ument is omitted, strip leading and trailing ASCII whitespace'
	DB	'.', 00H
lstrip__doc__ DB 'B.lstrip([bytes]) -> bytes', 0aH, 0aH, 'Strip leading b'
	DB	'ytes contained in the argument.', 0aH, 'If the argument is om'
	DB	'itted, strip leading ASCII whitespace.', 00H
	ORG $+9
rstrip__doc__ DB 'B.rstrip([bytes]) -> bytes', 0aH, 0aH, 'Strip trailing '
	DB	'bytes contained in the argument.', 0aH, 'If the argument is o'
	DB	'mitted, strip trailing ASCII whitespace.', 00H
	ORG $+7
count__doc__ DB	'B.count(sub[, start[, end]]) -> int', 0aH, 0aH, 'Return '
	DB	'the number of non-overlapping occurrences of substring sub in'
	DB	0aH, 'string B[start:end].  Optional arguments start and end a'
	DB	're interpreted', 0aH, 'as in slice notation.', 00H
	ORG $+9
translate__doc__ DB 'B.translate(table[, deletechars]) -> bytes', 0aH, 0aH
	DB	'Return a copy of B, where all characters occurring in the', 0aH
	DB	'optional argument deletechars are removed, and the remaining', 0aH
	DB	'characters have been mapped through the given translation', 0aH
	DB	'table, which must be a bytes object of length 256.', 00H
replace__doc__ DB 'B.replace(old, new[, count]) -> bytes', 0aH, 0aH, 'Ret'
	DB	'urn a copy of B with all occurrences of subsection', 0aH, 'ol'
	DB	'd replaced by new.  If the optional argument count is', 0aH, 'g'
	DB	'iven, only first count occurances are replaced.', 00H
	ORG $+10
startswith__doc__ DB 'B.startswith(prefix[, start[, end]]) -> bool', 0aH, 0aH
	DB	'Return True if B starts with the specified prefix, False othe'
	DB	'rwise.', 0aH, 'With optional start, test B beginning at that '
	DB	'position.', 0aH, 'With optional end, stop comparing B at that'
	DB	' position.', 0aH, 'prefix can also be a tuple of bytes to try'
	DB	'.', 00H
	ORG $+4
endswith__doc__ DB 'B.endswith(suffix[, start[, end]]) -> bool', 0aH, 0aH
	DB	'Return True if B ends with the specified suffix, False otherw'
	DB	'ise.', 0aH, 'With optional start, test B beginning at that po'
	DB	'sition.', 0aH, 'With optional end, stop comparing B at that p'
	DB	'osition.', 0aH, 'suffix can also be a tuple of bytes to try.', 00H
	ORG $+8
decode__doc__ DB 'B.decode(encoding=''utf-8'', errors=''strict'') -> str', 0aH
	DB	0aH, 'Decode B using the codec registered for encoding. Defaul'
	DB	't encoding', 0aH, 'is ''utf-8''. errors may be given to set a'
	DB	' different error', 0aH, 'handling scheme.  Default is ''stric'
	DB	't'' meaning that encoding errors raise', 0aH, 'a UnicodeDecod'
	DB	'eError.  Other possible values are ''ignore'' and ''replace'''
	DB	0aH, 'as well as any other name registerd with codecs.register'
	DB	'_error that is', 0aH, 'able to handle UnicodeDecodeErrors.', 00H
	ORG $+4
?kwlist@?1??bytes_decode@@9@9 DQ FLAT:??_C@_08MLPGAEIK@encoding?$AA@ ; `bytes_decode'::`2'::kwlist
	DQ	FLAT:??_C@_06EOMHCNPI@errors?$AA@
	DQ	0000000000000000H
	ORG $+8
splitlines__doc__ DB 'B.splitlines([keepends]) -> list of lines', 0aH, 0aH
	DB	'Return a list of the lines in B, breaking at line boundaries.'
	DB	0aH, 'Line breaks are not included in the resulting list unles'
	DB	's keepends', 0aH, 'is given and true.', 00H
	ORG $+1
?kwlist@?1??bytes_splitlines@@9@9 DQ FLAT:??_C@_08EMIAAFLA@keepends?$AA@ ; `bytes_splitlines'::`2'::kwlist
	DQ	0000000000000000H
fromhex_doc DB	'bytes.fromhex(string) -> bytes', 0aH, 0aH, 'Create a byt'
	DB	'es object from a string of hexadecimal numbers.', 0aH, 'Space'
	DB	's between two numbers are accepted.', 0aH, 'Example: bytes.fr'
	DB	'omhex(''B9 01EF'') -> b''\xb9\x01\xef''.', 00H
	ORG $+5
sizeof__doc__ DB 'B.__sizeof__() -> size of B in memory, in bytes', 00H
bytes_methods DQ FLAT:??_C@_0P@BCBHENLA@__getnewargs__?$AA@
	DQ	FLAT:bytes_getnewargs
	DD	04H
	ORG $+4
	ORG $+8
	DQ	FLAT:??_C@_0L@NMODNBEH@capitalize?$AA@
	DQ	FLAT:stringlib_capitalize
	DD	04H
	ORG $+4
	DQ	FLAT:_Py_capitalize__doc__
	DQ	FLAT:??_C@_06BBLOAEEI@center?$AA@
	DQ	FLAT:stringlib_center
	DD	01H
	ORG $+4
	DQ	FLAT:center__doc__
	DQ	FLAT:??_C@_05IOMEMJEC@count?$AA@
	DQ	FLAT:bytes_count
	DD	01H
	ORG $+4
	DQ	FLAT:count__doc__
	DQ	FLAT:??_C@_06KPNAMAEI@decode?$AA@
	DQ	FLAT:bytes_decode
	DD	03H
	ORG $+4
	DQ	FLAT:decode__doc__
	DQ	FLAT:??_C@_08MLCMCPNP@endswith?$AA@
	DQ	FLAT:bytes_endswith
	DD	01H
	ORG $+4
	DQ	FLAT:endswith__doc__
	DQ	FLAT:??_C@_0L@DEOCELBD@expandtabs?$AA@
	DQ	FLAT:stringlib_expandtabs
	DD	01H
	ORG $+4
	DQ	FLAT:expandtabs__doc__
	DQ	FLAT:??_C@_04CKFJHKAP@find?$AA@
	DQ	FLAT:bytes_find
	DD	01H
	ORG $+4
	DQ	FLAT:find__doc__
	DQ	FLAT:??_C@_07DIMGGDAC@fromhex?$AA@
	DQ	FLAT:bytes_fromhex
	DD	011H
	ORG $+4
	DQ	FLAT:fromhex_doc
	DQ	FLAT:??_C@_05FKHKFDID@index?$AA@
	DQ	FLAT:bytes_index
	DD	01H
	ORG $+4
	DQ	FLAT:index__doc__
	DQ	FLAT:??_C@_07EOADCIGC@isalnum?$AA@
	DQ	FLAT:stringlib_isalnum
	DD	04H
	ORG $+4
	DQ	FLAT:_Py_isalnum__doc__
	DQ	FLAT:??_C@_07EGIOHHOB@isalpha?$AA@
	DQ	FLAT:stringlib_isalpha
	DD	04H
	ORG $+4
	DQ	FLAT:_Py_isalpha__doc__
	DQ	FLAT:??_C@_07CFBKIKCH@isdigit?$AA@
	DQ	FLAT:stringlib_isdigit
	DD	04H
	ORG $+4
	DQ	FLAT:_Py_isdigit__doc__
	DQ	FLAT:??_C@_07EJFAPEJH@islower?$AA@
	DQ	FLAT:stringlib_islower
	DD	04H
	ORG $+4
	DQ	FLAT:_Py_islower__doc__
	DQ	FLAT:??_C@_07CNBMLEON@isspace?$AA@
	DQ	FLAT:stringlib_isspace
	DD	04H
	ORG $+4
	DQ	FLAT:_Py_isspace__doc__
	DQ	FLAT:??_C@_07DBHCJBDG@istitle?$AA@
	DQ	FLAT:stringlib_istitle
	DD	04H
	ORG $+4
	DQ	FLAT:_Py_istitle__doc__
	DQ	FLAT:??_C@_07BCOOJPCO@isupper?$AA@
	DQ	FLAT:stringlib_isupper
	DD	04H
	ORG $+4
	DQ	FLAT:_Py_isupper__doc__
	DQ	FLAT:??_C@_04DFGCDGNN@join?$AA@
	DQ	FLAT:bytes_join
	DD	08H
	ORG $+4
	DQ	FLAT:join__doc__
	DQ	FLAT:??_C@_05KDIMMEME@ljust?$AA@
	DQ	FLAT:stringlib_ljust
	DD	01H
	ORG $+4
	DQ	FLAT:ljust__doc__
	DQ	FLAT:??_C@_05IPJEPLHL@lower?$AA@
	DQ	FLAT:stringlib_lower
	DD	04H
	ORG $+4
	DQ	FLAT:_Py_lower__doc__
	DQ	FLAT:??_C@_06GGONODO@lstrip?$AA@
	DQ	FLAT:bytes_lstrip
	DD	01H
	ORG $+4
	DQ	FLAT:lstrip__doc__
	DQ	FLAT:??_C@_09PBBLPCAA@maketrans?$AA@
	DQ	FLAT:bytes_maketrans
	DD	021H
	ORG $+4
	DQ	FLAT:_Py_maketrans__doc__
	DQ	FLAT:??_C@_09IKAEIPAD@partition?$AA@
	DQ	FLAT:bytes_partition
	DD	08H
	ORG $+4
	DQ	FLAT:partition__doc__
	DQ	FLAT:??_C@_07CLEHDIEJ@replace?$AA@
	DQ	FLAT:bytes_replace
	DD	01H
	ORG $+4
	DQ	FLAT:replace__doc__
	DQ	FLAT:??_C@_05BLFDIAHL@rfind?$AA@
	DQ	FLAT:bytes_rfind
	DD	01H
	ORG $+4
	DQ	FLAT:rfind__doc__
	DQ	FLAT:??_C@_06NCDOMFM@rindex?$AA@
	DQ	FLAT:bytes_rindex
	DD	01H
	ORG $+4
	DQ	FLAT:rindex__doc__
	DQ	FLAT:??_C@_05JKFAKHCP@rjust?$AA@
	DQ	FLAT:stringlib_rjust
	DD	01H
	ORG $+4
	DQ	FLAT:rjust__doc__
	DQ	FLAT:??_C@_0L@KEEHLNKL@rpartition?$AA@
	DQ	FLAT:bytes_rpartition
	DD	08H
	ORG $+4
	DQ	FLAT:rpartition__doc__
	DQ	FLAT:??_C@_06BAKFHKMF@rsplit?$AA@
	DQ	FLAT:bytes_rsplit
	DD	03H
	ORG $+4
	DQ	FLAT:rsplit__doc__
	DQ	FLAT:??_C@_06DBIPDJKN@rstrip?$AA@
	DQ	FLAT:bytes_rstrip
	DD	01H
	ORG $+4
	DQ	FLAT:rstrip__doc__
	DQ	FLAT:??_C@_05EHPMMFBK@split?$AA@
	DQ	FLAT:bytes_split
	DD	03H
	ORG $+4
	DQ	FLAT:split__doc__
	DQ	FLAT:??_C@_0L@BCMGLLLC@splitlines?$AA@
	DQ	FLAT:bytes_splitlines
	DD	03H
	ORG $+4
	DQ	FLAT:splitlines__doc__
	DQ	FLAT:??_C@_0L@MPOGHCCL@startswith?$AA@
	DQ	FLAT:bytes_startswith
	DD	01H
	ORG $+4
	DQ	FLAT:startswith__doc__
	DQ	FLAT:??_C@_05GGNGIGHC@strip?$AA@
	DQ	FLAT:bytes_strip
	DD	01H
	ORG $+4
	DQ	FLAT:strip__doc__
	DQ	FLAT:??_C@_08EDJLBCEI@swapcase?$AA@
	DQ	FLAT:stringlib_swapcase
	DD	04H
	ORG $+4
	DQ	FLAT:_Py_swapcase__doc__
	DQ	FLAT:??_C@_05PHLGJONK@title?$AA@
	DQ	FLAT:stringlib_title
	DD	04H
	ORG $+4
	DQ	FLAT:_Py_title__doc__
	DQ	FLAT:??_C@_09ODNGOEIO@translate?$AA@
	DQ	FLAT:bytes_translate
	DD	01H
	ORG $+4
	DQ	FLAT:translate__doc__
	DQ	FLAT:??_C@_05NECKJAMC@upper?$AA@
	DQ	FLAT:stringlib_upper
	DD	04H
	ORG $+4
	DQ	FLAT:_Py_upper__doc__
	DQ	FLAT:??_C@_05DMFNFMHA@zfill?$AA@
	DQ	FLAT:stringlib_zfill
	DD	01H
	ORG $+4
	DQ	FLAT:zfill__doc__
	DQ	FLAT:??_C@_0L@HOGGIPGN@__sizeof__?$AA@
	DQ	FLAT:bytes_sizeof
	DD	04H
	ORG $+4
	DQ	FLAT:sizeof__doc__
	DQ	0000000000000000H
	DQ	0000000000000000H
	ORG $+16
?kwlist@?1??bytes_new@@9@9 DQ FLAT:??_C@_06OEKOLKIL@source?$AA@ ; `bytes_new'::`2'::kwlist
	DQ	FLAT:??_C@_08MLPGAEIK@encoding?$AA@
	DQ	FLAT:??_C@_06EOMHCNPI@errors?$AA@
	DQ	0000000000000000H
bytes_doc DB	'bytes(iterable_of_ints) -> bytes', 0aH, 'bytes(string, e'
	DB	'ncoding[, errors]) -> bytes', 0aH, 'bytes(bytes_or_buffer) ->'
	DB	' immutable copy of bytes_or_buffer', 0aH, 'bytes(int) -> byte'
	DB	's object of size given by the parameter initialized with null'
	DB	' bytes', 0aH, 'bytes() -> empty bytes object', 0aH, 0aH, 'Con'
	DB	'struct an immutable array of bytes from:', 0aH, '  - an itera'
	DB	'ble yielding integers in range(256)', 0aH, '  - a text string'
	DB	' encoded using the specified encoding', 0aH, '  - any object '
	DB	'implementing the buffer API.', 0aH, '  - an integer', 00H
	ORG $+5
PyBytes_Type DQ	dead1234beef5678H
	DQ	dead1234beef5678H
	DQ	0000000000000000H
	ORG $+8
	DQ	0000000000000001H
	DQ	0000000000000000H
	DQ	0000000000000000H
	DQ	0000000000000000H
	DQ	dead1234beef5678H
	DQ	dead1234beef5678H
	DQ	0000000000000001H
	DQ	FLAT:PyType_Type
	DQ	0000000000000000H
	ORG $+8
	DQ	FLAT:??_C@_05FBJAGGIG@bytes?$AA@
	DQ	0000000000000079H
	DQ	0000000000000001H
	DQ	FLAT:bytes_dealloc
	DQ	0000000000000000H
	DQ	0000000000000000H
	DQ	0000000000000000H
	DQ	0000000000000000H
	DQ	FLAT:bytes_repr
	DQ	0000000000000000H
	DQ	FLAT:bytes_as_sequence
	DQ	FLAT:bytes_as_mapping
	DQ	FLAT:bytes_hash
	DQ	0000000000000000H
	DQ	FLAT:bytes_str
	DQ	FLAT:PyObject_GenericGetAttr
	DQ	0000000000000000H
	DQ	FLAT:bytes_as_buffer
	DD	08040400H
	ORG $+4
	DQ	FLAT:bytes_doc
	DQ	0000000000000000H
	DQ	0000000000000000H
	DQ	FLAT:bytes_richcompare
	DQ	0000000000000000H
	DQ	FLAT:bytes_iter
	DQ	0000000000000000H
	DQ	FLAT:bytes_methods
	DQ	0000000000000000H
	DQ	0000000000000000H
	DQ	FLAT:PyBaseObject_Type
	DQ	0000000000000000H
	DQ	0000000000000000H
	DQ	0000000000000000H
	DQ	0000000000000000H
	DQ	0000000000000000H
	DQ	0000000000000000H
	DQ	FLAT:bytes_new
	DQ	FLAT:_PyObject_DebugFree
	ORG $+64
length_hint_doc DB 'Private method returning an estimate of len(list(it))'
	DB	'.', 00H
	ORG $+1
reduce_doc DB	'Return state information for pickling.', 00H
	ORG $+1
setstate_doc DB	'Set state information for unpickling.', 00H
	ORG $+10
striter_methods DQ FLAT:??_C@_0BA@BJLPBKGK@__length_hint__?$AA@
	DQ	FLAT:striter_len
	DD	04H
	ORG $+4
	DQ	FLAT:length_hint_doc
	DQ	FLAT:??_C@_0L@NNMACJIG@__reduce__?$AA@
	DQ	FLAT:striter_reduce
	DD	04H
	ORG $+4
	DQ	FLAT:reduce_doc
	DQ	FLAT:??_C@_0N@MOOGCAMH@__setstate__?$AA@
	DQ	FLAT:striter_setstate
	DD	08H
	ORG $+4
	DQ	FLAT:setstate_doc
	DQ	0000000000000000H
	DQ	0000000000000000H
	ORG $+16
PyBytesIter_Type DQ dead1234beef5678H
	DQ	dead1234beef5678H
	DQ	0000000000000000H
	ORG $+8
	DQ	0000000000000001H
	DQ	0000000000000000H
	DQ	0000000000000000H
	DQ	0000000000000000H
	DQ	dead1234beef5678H
	DQ	dead1234beef5678H
	DQ	0000000000000001H
	DQ	FLAT:PyType_Type
	DQ	0000000000000000H
	ORG $+8
	DQ	FLAT:??_C@_0P@DKPNDJBA@bytes_iterator?$AA@
	DQ	0000000000000070H
	DQ	0000000000000000H
	DQ	FLAT:striter_dealloc
	DQ	0000000000000000H
	DQ	0000000000000000H
	DQ	0000000000000000H
	DQ	0000000000000000H
	DQ	0000000000000000H
	DQ	0000000000000000H
	DQ	0000000000000000H
	DQ	0000000000000000H
	DQ	0000000000000000H
	DQ	0000000000000000H
	DQ	0000000000000000H
	DQ	FLAT:PyObject_GenericGetAttr
	DQ	0000000000000000H
	DQ	0000000000000000H
	DD	044000H
	ORG $+4
	DQ	0000000000000000H
	DQ	FLAT:striter_traverse
	DQ	0000000000000000H
	DQ	0000000000000000H
	DQ	0000000000000000H
	DQ	FLAT:PyObject_SelfIter
	DQ	FLAT:striter_next
	DQ	FLAT:striter_methods
	DQ	0000000000000000H
	ORG $+144
_DATA	ENDS
PUBLIC	??_C@_0BJ@GKFHPJMO@byte?5string?5is?5too?5large?$AA@ ; `string'
PUBLIC	_Py_IncRef
PUBLIC	??_C@_0DC@LEOKNIFE@Negative?5size?5passed?5to?5PyBytes_@ ; `string'
PUBLIC	PyBytes_FromStringAndSize
EXTRN	_Py_PXCTX:PROC
EXTRN	memcpy:PROC
EXTRN	PyErr_NoMemory:PROC
EXTRN	_PyObject_DebugMalloc:PROC
EXTRN	PyExc_OverflowError:QWORD
EXTRN	PyErr_SetString:PROC
EXTRN	PyExc_SystemError:QWORD
_BSS	SEGMENT
characters DQ	0100H DUP (?)
nullstring DQ	01H DUP (?)
_BSS	ENDS
;	COMDAT pdata
; File c:\src\pyparallel\objects\bytesobject.c
pdata	SEGMENT
$pdata$PyBytes_FromStringAndSize DD imagerel $LN21
	DD	imagerel $LN21+580
	DD	imagerel $unwind$PyBytes_FromStringAndSize
pdata	ENDS
;	COMDAT xdata
xdata	SEGMENT
$unwind$PyBytes_FromStringAndSize DD 010e01H
	DD	0a20eH
xdata	ENDS
;	COMDAT ??_C@_0BJ@GKFHPJMO@byte?5string?5is?5too?5large?$AA@
CONST	SEGMENT
??_C@_0BJ@GKFHPJMO@byte?5string?5is?5too?5large?$AA@ DB 'byte string is t'
	DB	'oo large', 00H				; `string'
CONST	ENDS
;	COMDAT ??_C@_0DC@LEOKNIFE@Negative?5size?5passed?5to?5PyBytes_@
CONST	SEGMENT
??_C@_0DC@LEOKNIFE@Negative?5size?5passed?5to?5PyBytes_@ DB 'Negative siz'
	DB	'e passed to PyBytes_FromStringAndSize', 00H	; `string'
; Function compile flags: /Odtp
CONST	ENDS
;	COMDAT PyBytes_FromStringAndSize
_TEXT	SEGMENT
op$ = 32
t_$20438 = 40
s_$20440 = 48
i_$20436 = 56
n_$20437 = 64
str$ = 96
size$ = 104
PyBytes_FromStringAndSize PROC				; COMDAT

; 67   : {

$LN21:
  00000	48 89 54 24 10	 mov	 QWORD PTR [rsp+16], rdx
  00005	48 89 4c 24 08	 mov	 QWORD PTR [rsp+8], rcx
  0000a	48 83 ec 58	 sub	 rsp, 88			; 00000058H

; 68   :     register PyBytesObject *op;
; 69   :     if (size < 0) {

  0000e	48 83 7c 24 68
	00		 cmp	 QWORD PTR size$[rsp], 0
  00014	7d 1a		 jge	 SHORT $LN18@PyBytes_Fr

; 70   :         PyErr_SetString(PyExc_SystemError,
; 71   :             "Negative size passed to PyBytes_FromStringAndSize");

  00016	48 8d 15 00 00
	00 00		 lea	 rdx, OFFSET FLAT:??_C@_0DC@LEOKNIFE@Negative?5size?5passed?5to?5PyBytes_@
  0001d	48 8b 0d 00 00
	00 00		 mov	 rcx, QWORD PTR PyExc_SystemError
  00024	e8 00 00 00 00	 call	 PyErr_SetString

; 72   :         return NULL;

  00029	33 c0		 xor	 eax, eax
  0002b	e9 0f 02 00 00	 jmp	 $LN19@PyBytes_Fr
$LN18@PyBytes_Fr:

; 73   :     }
; 74   :     if (size == 0 && (op = nullstring) != NULL) {

  00030	48 83 7c 24 68
	00		 cmp	 QWORD PTR size$[rsp], 0
  00036	75 28		 jne	 SHORT $LN17@PyBytes_Fr
  00038	48 8b 05 00 00
	00 00		 mov	 rax, QWORD PTR nullstring
  0003f	48 89 44 24 20	 mov	 QWORD PTR op$[rsp], rax
  00044	48 83 7c 24 20
	00		 cmp	 QWORD PTR op$[rsp], 0
  0004a	74 14		 je	 SHORT $LN17@PyBytes_Fr

; 75   : #ifdef COUNT_ALLOCS
; 76   :         null_strings++;
; 77   : #endif
; 78   :         Py_INCREF(op);

  0004c	48 8b 4c 24 20	 mov	 rcx, QWORD PTR op$[rsp]
  00051	e8 00 00 00 00	 call	 _Py_IncRef

; 79   :         return (PyObject *)op;

  00056	48 8b 44 24 20	 mov	 rax, QWORD PTR op$[rsp]
  0005b	e9 df 01 00 00	 jmp	 $LN19@PyBytes_Fr
$LN17@PyBytes_Fr:

; 80   :     }
; 81   :     if (size == 1 && str != NULL &&
; 82   :         (op = characters[*str & UCHAR_MAX]) != NULL)

  00060	48 83 7c 24 68
	01		 cmp	 QWORD PTR size$[rsp], 1
  00066	75 43		 jne	 SHORT $LN16@PyBytes_Fr
  00068	48 83 7c 24 60
	00		 cmp	 QWORD PTR str$[rsp], 0
  0006e	74 3b		 je	 SHORT $LN16@PyBytes_Fr
  00070	48 8b 44 24 60	 mov	 rax, QWORD PTR str$[rsp]
  00075	0f be 00	 movsx	 eax, BYTE PTR [rax]
  00078	25 ff 00 00 00	 and	 eax, 255		; 000000ffH
  0007d	48 98		 cdqe
  0007f	48 8d 0d 00 00
	00 00		 lea	 rcx, OFFSET FLAT:characters
  00086	48 8b 04 c1	 mov	 rax, QWORD PTR [rcx+rax*8]
  0008a	48 89 44 24 20	 mov	 QWORD PTR op$[rsp], rax
  0008f	48 83 7c 24 20
	00		 cmp	 QWORD PTR op$[rsp], 0
  00095	74 14		 je	 SHORT $LN16@PyBytes_Fr

; 83   :     {
; 84   : #ifdef COUNT_ALLOCS
; 85   :         one_strings++;
; 86   : #endif
; 87   :         Py_INCREF(op);

  00097	48 8b 4c 24 20	 mov	 rcx, QWORD PTR op$[rsp]
  0009c	e8 00 00 00 00	 call	 _Py_IncRef

; 88   :         return (PyObject *)op;

  000a1	48 8b 44 24 20	 mov	 rax, QWORD PTR op$[rsp]
  000a6	e9 94 01 00 00	 jmp	 $LN19@PyBytes_Fr
$LN16@PyBytes_Fr:

; 89   :     }
; 90   : 
; 91   :     if (size > PY_SSIZE_T_MAX - PyBytesObject_SIZE) {

  000ab	48 b8 86 ff ff
	ff ff ff ff 7f	 mov	 rax, 9223372036854775686 ; 7fffffffffffff86H
  000b5	48 39 44 24 68	 cmp	 QWORD PTR size$[rsp], rax
  000ba	76 1a		 jbe	 SHORT $LN15@PyBytes_Fr

; 92   :         PyErr_SetString(PyExc_OverflowError,
; 93   :                         "byte string is too large");

  000bc	48 8d 15 00 00
	00 00		 lea	 rdx, OFFSET FLAT:??_C@_0BJ@GKFHPJMO@byte?5string?5is?5too?5large?$AA@
  000c3	48 8b 0d 00 00
	00 00		 mov	 rcx, QWORD PTR PyExc_OverflowError
  000ca	e8 00 00 00 00	 call	 PyErr_SetString

; 94   :         return NULL;

  000cf	33 c0		 xor	 eax, eax
  000d1	e9 69 01 00 00	 jmp	 $LN19@PyBytes_Fr
$LN15@PyBytes_Fr:

; 95   :     }
; 96   : 
; 97   :     /* Inline PyObject_NewVar */
; 98   :     op = (PyBytesObject *)PyObject_MALLOC(PyBytesObject_SIZE + size);

  000d6	48 8b 44 24 68	 mov	 rax, QWORD PTR size$[rsp]
  000db	48 83 c0 79	 add	 rax, 121		; 00000079H
  000df	48 8b c8	 mov	 rcx, rax
  000e2	e8 00 00 00 00	 call	 _PyObject_DebugMalloc
  000e7	48 89 44 24 20	 mov	 QWORD PTR op$[rsp], rax

; 99   :     if (op == NULL)

  000ec	48 83 7c 24 20
	00		 cmp	 QWORD PTR op$[rsp], 0
  000f2	75 0a		 jne	 SHORT $LN14@PyBytes_Fr

; 100  :         return PyErr_NoMemory();

  000f4	e8 00 00 00 00	 call	 PyErr_NoMemory
  000f9	e9 41 01 00 00	 jmp	 $LN19@PyBytes_Fr
$LN14@PyBytes_Fr:

; 101  :     PyObject_INIT_VAR((PyVarObject *)op, &PyBytes_Type, size);

  000fe	4c 8b 44 24 68	 mov	 r8, QWORD PTR size$[rsp]
  00103	48 8d 15 00 00
	00 00		 lea	 rdx, OFFSET FLAT:PyBytes_Type
  0010a	48 8b 4c 24 20	 mov	 rcx, QWORD PTR op$[rsp]
  0010f	e8 00 00 00 00	 call	 PyObject_INIT_VAR

; 102  :     op->ob_shash = -1;

  00114	48 8b 44 24 20	 mov	 rax, QWORD PTR op$[rsp]
  00119	48 c7 40 70 ff
	ff ff ff	 mov	 QWORD PTR [rax+112], -1

; 103  :     if (str != NULL)

  00121	48 83 7c 24 60
	00		 cmp	 QWORD PTR str$[rsp], 0
  00127	0f 84 95 00 00
	00		 je	 $LN13@PyBytes_Fr
$LN12@PyBytes_Fr:

; 104  :         Py_MEMCPY(op->ob_sval, str, size);

  0012d	48 8b 44 24 68	 mov	 rax, QWORD PTR size$[rsp]
  00132	48 89 44 24 40	 mov	 QWORD PTR n_$20437[rsp], rax
  00137	48 8b 44 24 20	 mov	 rax, QWORD PTR op$[rsp]
  0013c	48 83 c0 78	 add	 rax, 120		; 00000078H
  00140	48 89 44 24 28	 mov	 QWORD PTR t_$20438[rsp], rax
  00145	48 8b 44 24 60	 mov	 rax, QWORD PTR str$[rsp]
  0014a	48 89 44 24 30	 mov	 QWORD PTR s_$20440[rsp], rax
  0014f	48 83 7c 24 40
	10		 cmp	 QWORD PTR n_$20437[rsp], 16
  00155	72 16		 jb	 SHORT $LN9@PyBytes_Fr
  00157	4c 8b 44 24 40	 mov	 r8, QWORD PTR n_$20437[rsp]
  0015c	48 8b 54 24 30	 mov	 rdx, QWORD PTR s_$20440[rsp]
  00161	48 8b 4c 24 28	 mov	 rcx, QWORD PTR t_$20438[rsp]
  00166	e8 00 00 00 00	 call	 memcpy
  0016b	eb 4b		 jmp	 SHORT $LN8@PyBytes_Fr
$LN9@PyBytes_Fr:
  0016d	48 c7 44 24 38
	00 00 00 00	 mov	 QWORD PTR i_$20436[rsp], 0
  00176	eb 0d		 jmp	 SHORT $LN7@PyBytes_Fr
$LN6@PyBytes_Fr:
  00178	48 8b 44 24 38	 mov	 rax, QWORD PTR i_$20436[rsp]
  0017d	48 ff c0	 inc	 rax
  00180	48 89 44 24 38	 mov	 QWORD PTR i_$20436[rsp], rax
$LN7@PyBytes_Fr:
  00185	48 8b 44 24 40	 mov	 rax, QWORD PTR n_$20437[rsp]
  0018a	48 39 44 24 38	 cmp	 QWORD PTR i_$20436[rsp], rax
  0018f	73 27		 jae	 SHORT $LN5@PyBytes_Fr
  00191	48 8b 44 24 38	 mov	 rax, QWORD PTR i_$20436[rsp]
  00196	48 8b 4c 24 28	 mov	 rcx, QWORD PTR t_$20438[rsp]
  0019b	48 03 c8	 add	 rcx, rax
  0019e	48 8b c1	 mov	 rax, rcx
  001a1	48 8b 4c 24 38	 mov	 rcx, QWORD PTR i_$20436[rsp]
  001a6	48 8b 54 24 30	 mov	 rdx, QWORD PTR s_$20440[rsp]
  001ab	48 03 d1	 add	 rdx, rcx
  001ae	48 8b ca	 mov	 rcx, rdx
  001b1	0f b6 09	 movzx	 ecx, BYTE PTR [rcx]
  001b4	88 08		 mov	 BYTE PTR [rax], cl
  001b6	eb c0		 jmp	 SHORT $LN6@PyBytes_Fr
$LN5@PyBytes_Fr:
$LN8@PyBytes_Fr:
  001b8	33 c0		 xor	 eax, eax
  001ba	85 c0		 test	 eax, eax
  001bc	0f 85 6b ff ff
	ff		 jne	 $LN12@PyBytes_Fr
$LN13@PyBytes_Fr:

; 105  :     op->ob_sval[size] = '\0';

  001c2	48 8b 44 24 68	 mov	 rax, QWORD PTR size$[rsp]
  001c7	48 8b 4c 24 20	 mov	 rcx, QWORD PTR op$[rsp]
  001cc	48 03 c8	 add	 rcx, rax
  001cf	48 8b c1	 mov	 rax, rcx
  001d2	c6 40 78 00	 mov	 BYTE PTR [rax+120], 0

; 106  : 
; 107  :     if (Py_PXCTX)

  001d6	e8 00 00 00 00	 call	 _Py_PXCTX
  001db	85 c0		 test	 eax, eax
  001dd	74 02		 je	 SHORT $LN4@PyBytes_Fr

; 108  :         goto end;

  001df	eb 59		 jmp	 SHORT $end$20448
$LN4@PyBytes_Fr:

; 109  : 
; 110  :     /* share short strings */
; 111  :     if (size == 0) {

  001e1	48 83 7c 24 68
	00		 cmp	 QWORD PTR size$[rsp], 0
  001e7	75 18		 jne	 SHORT $LN3@PyBytes_Fr

; 112  :         nullstring = op;

  001e9	48 8b 44 24 20	 mov	 rax, QWORD PTR op$[rsp]
  001ee	48 89 05 00 00
	00 00		 mov	 QWORD PTR nullstring, rax

; 113  :         Py_INCREF(op);

  001f5	48 8b 4c 24 20	 mov	 rcx, QWORD PTR op$[rsp]
  001fa	e8 00 00 00 00	 call	 _Py_IncRef
  001ff	eb 39		 jmp	 SHORT $LN2@PyBytes_Fr
$LN3@PyBytes_Fr:

; 114  :     } else if (size == 1 && str != NULL) {

  00201	48 83 7c 24 68
	01		 cmp	 QWORD PTR size$[rsp], 1
  00207	75 31		 jne	 SHORT $LN1@PyBytes_Fr
  00209	48 83 7c 24 60
	00		 cmp	 QWORD PTR str$[rsp], 0
  0020f	74 29		 je	 SHORT $LN1@PyBytes_Fr

; 115  :         characters[*str & UCHAR_MAX] = op;

  00211	48 8b 44 24 60	 mov	 rax, QWORD PTR str$[rsp]
  00216	0f be 00	 movsx	 eax, BYTE PTR [rax]
  00219	25 ff 00 00 00	 and	 eax, 255		; 000000ffH
  0021e	48 98		 cdqe
  00220	48 8d 0d 00 00
	00 00		 lea	 rcx, OFFSET FLAT:characters
  00227	48 8b 54 24 20	 mov	 rdx, QWORD PTR op$[rsp]
  0022c	48 89 14 c1	 mov	 QWORD PTR [rcx+rax*8], rdx

; 116  :         Py_INCREF(op);

  00230	48 8b 4c 24 20	 mov	 rcx, QWORD PTR op$[rsp]
  00235	e8 00 00 00 00	 call	 _Py_IncRef
$LN1@PyBytes_Fr:
$LN2@PyBytes_Fr:
$end$20448:

; 117  :     }
; 118  : end:
; 119  :     return (PyObject *) op;

  0023a	48 8b 44 24 20	 mov	 rax, QWORD PTR op$[rsp]
$LN19@PyBytes_Fr:

; 120  : }

  0023f	48 83 c4 58	 add	 rsp, 88			; 00000058H
  00243	c3		 ret	 0
PyBytes_FromStringAndSize ENDP
_TEXT	ENDS
PUBLIC	??_C@_0L@DHGMCEID@_Py_IncRef?$AA@		; `string'
PUBLIC	??_C@_0CD@HDJFDCDP@c?3?2src?2pyparallel?2include?2object@ ; `string'
EXTRN	_Py_RefTotal:QWORD
EXTRN	_PyParallel_Guard:PROC
;	COMDAT pdata
; File c:\src\pyparallel\include\object.h
pdata	SEGMENT
$pdata$_Py_IncRef DD imagerel $LN7
	DD	imagerel $LN7+132
	DD	imagerel $unwind$_Py_IncRef
pdata	ENDS
;	COMDAT xdata
xdata	SEGMENT
$unwind$_Py_IncRef DD 010901H
	DD	06209H
xdata	ENDS
;	COMDAT ??_C@_0L@DHGMCEID@_Py_IncRef?$AA@
CONST	SEGMENT
??_C@_0L@DHGMCEID@_Py_IncRef?$AA@ DB '_Py_IncRef', 00H	; `string'
CONST	ENDS
;	COMDAT ??_C@_0CD@HDJFDCDP@c?3?2src?2pyparallel?2include?2object@
CONST	SEGMENT
??_C@_0CD@HDJFDCDP@c?3?2src?2pyparallel?2include?2object@ DB 'c:\src\pypa'
	DB	'rallel\include\object.h', 00H		; `string'
; Function compile flags: /Odtp
CONST	ENDS
;	COMDAT _Py_IncRef
_TEXT	SEGMENT
op$ = 64
_Py_IncRef PROC						; COMDAT

; 904  : {

$LN7:
  00000	48 89 4c 24 08	 mov	 QWORD PTR [rsp+8], rcx
  00005	48 83 ec 38	 sub	 rsp, 56			; 00000038H

; 905  :     if ((!Py_PXCTX && (Py_ISPY(op) || Px_PERSISTED(op)))) {

  00009	e8 00 00 00 00	 call	 _Py_PXCTX
  0000e	85 c0		 test	 eax, eax
  00010	75 6d		 jne	 SHORT $LN2@Py_IncRef
  00012	c7 44 24 20 02
	00 00 00	 mov	 DWORD PTR [rsp+32], 2
  0001a	4c 8b 4c 24 40	 mov	 r9, QWORD PTR op$[rsp]
  0001f	41 b8 89 03 00
	00		 mov	 r8d, 905		; 00000389H
  00025	48 8d 15 00 00
	00 00		 lea	 rdx, OFFSET FLAT:??_C@_0CD@HDJFDCDP@c?3?2src?2pyparallel?2include?2object@
  0002c	48 8d 0d 00 00
	00 00		 lea	 rcx, OFFSET FLAT:??_C@_0L@DHGMCEID@_Py_IncRef?$AA@
  00033	e8 00 00 00 00	 call	 _PyParallel_Guard
  00038	85 c0		 test	 eax, eax
  0003a	75 12		 jne	 SHORT $LN1@Py_IncRef
  0003c	48 8b 44 24 40	 mov	 rax, QWORD PTR op$[rsp]
  00041	48 8b 40 20	 mov	 rax, QWORD PTR [rax+32]
  00045	48 83 e0 20	 and	 rax, 32			; 00000020H
  00049	48 85 c0	 test	 rax, rax
  0004c	74 31		 je	 SHORT $LN2@Py_IncRef
$LN1@Py_IncRef:

; 906  :         _Py_INC_REFTOTAL;

  0004e	e8 00 00 00 00	 call	 _Py_PXCTX
  00053	85 c0		 test	 eax, eax
  00055	74 02		 je	 SHORT $LN5@Py_IncRef
  00057	eb 11		 jmp	 SHORT $LN6@Py_IncRef
$LN5@Py_IncRef:
  00059	48 8b 05 00 00
	00 00		 mov	 rax, QWORD PTR _Py_RefTotal
  00060	48 ff c0	 inc	 rax
  00063	48 89 05 00 00
	00 00		 mov	 QWORD PTR _Py_RefTotal, rax
$LN6@Py_IncRef:

; 907  :         (((PyObject*)(op))->ob_refcnt++);

  0006a	48 8b 44 24 40	 mov	 rax, QWORD PTR op$[rsp]
  0006f	48 8b 40 50	 mov	 rax, QWORD PTR [rax+80]
  00073	48 ff c0	 inc	 rax
  00076	48 8b 4c 24 40	 mov	 rcx, QWORD PTR op$[rsp]
  0007b	48 89 41 50	 mov	 QWORD PTR [rcx+80], rax
$LN2@Py_IncRef:

; 908  :     }
; 909  : }

  0007f	48 83 c4 38	 add	 rsp, 56			; 00000038H
  00083	c3		 ret	 0
_Py_IncRef ENDP
_TEXT	ENDS
EXTRN	_Py_NewReference:PROC
EXTRN	_PxObject_InitVar:PROC
;	COMDAT pdata
; File c:\src\pyparallel\include\objimpl.h
pdata	SEGMENT
$pdata$PyObject_INIT_VAR DD imagerel PyObject_INIT_VAR
	DD	imagerel PyObject_INIT_VAR+108
	DD	imagerel $unwind$PyObject_INIT_VAR
pdata	ENDS
;	COMDAT xdata
xdata	SEGMENT
$unwind$PyObject_INIT_VAR DD 011301H
	DD	04213H
; Function compile flags: /Odtp
xdata	ENDS
;	COMDAT PyObject_INIT_VAR
_TEXT	SEGMENT
op$ = 48
tp$ = 56
n$ = 64
PyObject_INIT_VAR PROC					; COMDAT

; 247  : {

  00000	4c 89 44 24 18	 mov	 QWORD PTR [rsp+24], r8
  00005	48 89 54 24 10	 mov	 QWORD PTR [rsp+16], rdx
  0000a	48 89 4c 24 08	 mov	 QWORD PTR [rsp+8], rcx
  0000f	48 83 ec 28	 sub	 rsp, 40			; 00000028H

; 248  :     Px_RETURN(_PxObject_InitVar(op, tp, n))

  00013	e8 00 00 00 00	 call	 _Py_PXCTX
  00018	85 c0		 test	 eax, eax
  0001a	74 16		 je	 SHORT $LN1@PyObject_I
  0001c	4c 8b 44 24 40	 mov	 r8, QWORD PTR n$[rsp]
  00021	48 8b 54 24 38	 mov	 rdx, QWORD PTR tp$[rsp]
  00026	48 8b 4c 24 30	 mov	 rcx, QWORD PTR op$[rsp]
  0002b	e8 00 00 00 00	 call	 _PxObject_InitVar
  00030	eb 35		 jmp	 SHORT $LN2@PyObject_I
$LN1@PyObject_I:

; 249  :     Py_SIZE(op) = n;

  00032	48 8b 44 24 30	 mov	 rax, QWORD PTR op$[rsp]
  00037	48 8b 4c 24 40	 mov	 rcx, QWORD PTR n$[rsp]
  0003c	48 89 48 60	 mov	 QWORD PTR [rax+96], rcx

; 250  :     Py_TYPE(op) = tp;

  00040	48 8b 44 24 30	 mov	 rax, QWORD PTR op$[rsp]
  00045	48 8b 4c 24 38	 mov	 rcx, QWORD PTR tp$[rsp]
  0004a	48 89 48 58	 mov	 QWORD PTR [rax+88], rcx

; 251  :     _PyObject_InitHead((PyObject *)op);

  0004e	48 8b 4c 24 30	 mov	 rcx, QWORD PTR op$[rsp]
  00053	e8 00 00 00 00	 call	 _PyObject_InitHead

; 252  :     _Py_NewReference((PyObject *)op);

  00058	48 8b 4c 24 30	 mov	 rcx, QWORD PTR op$[rsp]
  0005d	e8 00 00 00 00	 call	 _Py_NewReference

; 253  :     return op;

  00062	48 8b 44 24 30	 mov	 rax, QWORD PTR op$[rsp]
$LN2@PyObject_I:

; 254  : }

  00067	48 83 c4 28	 add	 rsp, 40			; 00000028H
  0006b	c3		 ret	 0
PyObject_INIT_VAR ENDP
_TEXT	ENDS
PUBLIC	??_C@_1BI@GPFDFIDP@?$AAP?$AAy?$AA_?$AAT?$AAY?$AAP?$AAE?$AA?$CI?$AAo?$AAp?$AA?$CJ?$AA?$AA@ ; `string'
PUBLIC	??_C@_1EI@MBCBHLGB@?$AAc?$AA?3?$AA?2?$AAs?$AAr?$AAc?$AA?2?$AAp?$AAy?$AAp?$AAa?$AAr?$AAa?$AAl?$AAl?$AAe?$AAl?$AA?2?$AAi?$AAn?$AAc?$AAl?$AAu?$AAd?$AAe?$AA?2?$AAo?$AAb?$AAj?$AAi?$AAm?$AAp@ ; `string'
EXTRN	__imp__wassert:PROC
;	COMDAT pdata
pdata	SEGMENT
$pdata$_PyObject_InitHead DD imagerel _PyObject_InitHead
	DD	imagerel _PyObject_InitHead+182
	DD	imagerel $unwind$_PyObject_InitHead
pdata	ENDS
;	COMDAT xdata
xdata	SEGMENT
$unwind$_PyObject_InitHead DD 010901H
	DD	04209H
xdata	ENDS
;	COMDAT ??_C@_1BI@GPFDFIDP@?$AAP?$AAy?$AA_?$AAT?$AAY?$AAP?$AAE?$AA?$CI?$AAo?$AAp?$AA?$CJ?$AA?$AA@
CONST	SEGMENT
??_C@_1BI@GPFDFIDP@?$AAP?$AAy?$AA_?$AAT?$AAY?$AAP?$AAE?$AA?$CI?$AAo?$AAp?$AA?$CJ?$AA?$AA@ DB 'P'
	DB	00H, 'y', 00H, '_', 00H, 'T', 00H, 'Y', 00H, 'P', 00H, 'E', 00H
	DB	'(', 00H, 'o', 00H, 'p', 00H, ')', 00H, 00H, 00H ; `string'
CONST	ENDS
;	COMDAT ??_C@_1EI@MBCBHLGB@?$AAc?$AA?3?$AA?2?$AAs?$AAr?$AAc?$AA?2?$AAp?$AAy?$AAp?$AAa?$AAr?$AAa?$AAl?$AAl?$AAe?$AAl?$AA?2?$AAi?$AAn?$AAc?$AAl?$AAu?$AAd?$AAe?$AA?2?$AAo?$AAb?$AAj?$AAi?$AAm?$AAp@
CONST	SEGMENT
??_C@_1EI@MBCBHLGB@?$AAc?$AA?3?$AA?2?$AAs?$AAr?$AAc?$AA?2?$AAp?$AAy?$AAp?$AAa?$AAr?$AAa?$AAl?$AAl?$AAe?$AAl?$AA?2?$AAi?$AAn?$AAc?$AAl?$AAu?$AAd?$AAe?$AA?2?$AAo?$AAb?$AAj?$AAi?$AAm?$AAp@ DB 'c'
	DB	00H, ':', 00H, '\', 00H, 's', 00H, 'r', 00H, 'c', 00H, '\', 00H
	DB	'p', 00H, 'y', 00H, 'p', 00H, 'a', 00H, 'r', 00H, 'a', 00H, 'l'
	DB	00H, 'l', 00H, 'e', 00H, 'l', 00H, '\', 00H, 'i', 00H, 'n', 00H
	DB	'c', 00H, 'l', 00H, 'u', 00H, 'd', 00H, 'e', 00H, '\', 00H, 'o'
	DB	00H, 'b', 00H, 'j', 00H, 'i', 00H, 'm', 00H, 'p', 00H, 'l', 00H
	DB	'.', 00H, 'h', 00H, 00H, 00H			; `string'
; Function compile flags: /Odtp
CONST	ENDS
;	COMDAT _PyObject_InitHead
_TEXT	SEGMENT
op$ = 48
_PyObject_InitHead PROC					; COMDAT

; 215  : {

  00000	48 89 4c 24 08	 mov	 QWORD PTR [rsp+8], rcx
  00005	48 83 ec 28	 sub	 rsp, 40			; 00000028H

; 216  :     assert(Py_TYPE(op));

  00009	48 8b 44 24 30	 mov	 rax, QWORD PTR op$[rsp]
  0000e	48 83 78 58 00	 cmp	 QWORD PTR [rax+88], 0
  00013	75 1c		 jne	 SHORT $LN3@PyObject_I@2
  00015	41 b8 d8 00 00
	00		 mov	 r8d, 216		; 000000d8H
  0001b	48 8d 15 00 00
	00 00		 lea	 rdx, OFFSET FLAT:??_C@_1EI@MBCBHLGB@?$AAc?$AA?3?$AA?2?$AAs?$AAr?$AAc?$AA?2?$AAp?$AAy?$AAp?$AAa?$AAr?$AAa?$AAl?$AAl?$AAe?$AAl?$AA?2?$AAi?$AAn?$AAc?$AAl?$AAu?$AAd?$AAe?$AA?2?$AAo?$AAb?$AAj?$AAi?$AAm?$AAp@
  00022	48 8d 0d 00 00
	00 00		 lea	 rcx, OFFSET FLAT:??_C@_1BI@GPFDFIDP@?$AAP?$AAy?$AA_?$AAT?$AAY?$AAP?$AAE?$AA?$CI?$AAo?$AAp?$AA?$CJ?$AA?$AA@
  00029	ff 15 00 00 00
	00		 call	 QWORD PTR __imp__wassert
  0002f	33 c0		 xor	 eax, eax
$LN3@PyObject_I@2:

; 217  :     op->is_px = _Py_NOT_PARALLEL;

  00031	48 8b 44 24 30	 mov	 rax, QWORD PTR op$[rsp]
  00036	48 b9 78 56 ef
	be 34 12 ad de	 mov	 rcx, -2401243008567650696 ; dead1234beef5678H
  00040	48 89 08	 mov	 QWORD PTR [rax], rcx

; 218  :     op->px    = _Py_NOT_PARALLEL;

  00043	48 8b 44 24 30	 mov	 rax, QWORD PTR op$[rsp]
  00048	48 b9 78 56 ef
	be 34 12 ad de	 mov	 rcx, -2401243008567650696 ; dead1234beef5678H
  00052	48 89 48 08	 mov	 QWORD PTR [rax+8], rcx

; 219  :     op->slist_entry.Next = NULL;

  00056	48 8b 44 24 30	 mov	 rax, QWORD PTR op$[rsp]
  0005b	48 c7 40 10 00
	00 00 00	 mov	 QWORD PTR [rax+16], 0

; 220  :     op->px_flags  = Py_PXFLAGS_ISPY;

  00063	48 8b 44 24 30	 mov	 rax, QWORD PTR op$[rsp]
  00068	48 c7 40 20 01
	00 00 00	 mov	 QWORD PTR [rax+32], 1

; 221  :     op->srw_lock  = NULL;

  00070	48 8b 44 24 30	 mov	 rax, QWORD PTR op$[rsp]
  00075	48 c7 40 28 00
	00 00 00	 mov	 QWORD PTR [rax+40], 0

; 222  :     op->event     = NULL;

  0007d	48 8b 44 24 30	 mov	 rax, QWORD PTR op$[rsp]
  00082	48 c7 40 30 00
	00 00 00	 mov	 QWORD PTR [rax+48], 0

; 223  :     op->orig_type = NULL;

  0008a	48 8b 44 24 30	 mov	 rax, QWORD PTR op$[rsp]
  0008f	48 c7 40 38 00
	00 00 00	 mov	 QWORD PTR [rax+56], 0

; 224  : #ifdef Py_TRACE_REFS
; 225  :     op->_ob_next = NULL;

  00097	48 8b 44 24 30	 mov	 rax, QWORD PTR op$[rsp]
  0009c	48 c7 40 40 00
	00 00 00	 mov	 QWORD PTR [rax+64], 0

; 226  :     op->_ob_prev = NULL;

  000a4	48 8b 44 24 30	 mov	 rax, QWORD PTR op$[rsp]
  000a9	48 c7 40 48 00
	00 00 00	 mov	 QWORD PTR [rax+72], 0

; 227  : #else
; 228  :     op->_ob_next = _Py_NOT_PARALLEL;
; 229  :     op->_ob_prev = _Py_NOT_PARALLEL;
; 230  : #endif
; 231  : }

  000b1	48 83 c4 28	 add	 rsp, 40			; 00000028H
  000b5	c3		 ret	 0
_PyObject_InitHead ENDP
_TEXT	ENDS
PUBLIC	??_C@_0BI@CPOCIEOB@byte?5string?5is?5too?5long?$AA@ ; `string'
PUBLIC	??_C@_1BI@MFCLPIBM@?$AAs?$AAt?$AAr?$AA?5?$AA?$CB?$AA?$DN?$AA?5?$AAN?$AAU?$AAL?$AAL?$AA?$AA@ ; `string'
PUBLIC	??_C@_1DC@PIHJIEFM@?$AA?4?$AA?4?$AA?2?$AAO?$AAb?$AAj?$AAe?$AAc?$AAt?$AAs?$AA?2?$AAb?$AAy?$AAt?$AAe?$AAs?$AAo?$AAb?$AAj?$AAe?$AAc?$AAt?$AA?4?$AAc?$AA?$AA@ ; `string'
PUBLIC	PyBytes_FromString
EXTRN	strlen:PROC
;	COMDAT pdata
; File c:\src\pyparallel\objects\bytesobject.c
pdata	SEGMENT
$pdata$PyBytes_FromString DD imagerel $LN20
	DD	imagerel $LN20+547
	DD	imagerel $unwind$PyBytes_FromString
pdata	ENDS
;	COMDAT xdata
xdata	SEGMENT
$unwind$PyBytes_FromString DD 010901H
	DD	0a209H
xdata	ENDS
;	COMDAT ??_C@_0BI@CPOCIEOB@byte?5string?5is?5too?5long?$AA@
CONST	SEGMENT
??_C@_0BI@CPOCIEOB@byte?5string?5is?5too?5long?$AA@ DB 'byte string is to'
	DB	'o long', 00H				; `string'
CONST	ENDS
;	COMDAT ??_C@_1BI@MFCLPIBM@?$AAs?$AAt?$AAr?$AA?5?$AA?$CB?$AA?$DN?$AA?5?$AAN?$AAU?$AAL?$AAL?$AA?$AA@
CONST	SEGMENT
??_C@_1BI@MFCLPIBM@?$AAs?$AAt?$AAr?$AA?5?$AA?$CB?$AA?$DN?$AA?5?$AAN?$AAU?$AAL?$AAL?$AA?$AA@ DB 's'
	DB	00H, 't', 00H, 'r', 00H, ' ', 00H, '!', 00H, '=', 00H, ' ', 00H
	DB	'N', 00H, 'U', 00H, 'L', 00H, 'L', 00H, 00H, 00H ; `string'
CONST	ENDS
;	COMDAT ??_C@_1DC@PIHJIEFM@?$AA?4?$AA?4?$AA?2?$AAO?$AAb?$AAj?$AAe?$AAc?$AAt?$AAs?$AA?2?$AAb?$AAy?$AAt?$AAe?$AAs?$AAo?$AAb?$AAj?$AAe?$AAc?$AAt?$AA?4?$AAc?$AA?$AA@
CONST	SEGMENT
??_C@_1DC@PIHJIEFM@?$AA?4?$AA?4?$AA?2?$AAO?$AAb?$AAj?$AAe?$AAc?$AAt?$AAs?$AA?2?$AAb?$AAy?$AAt?$AAe?$AAs?$AAo?$AAb?$AAj?$AAe?$AAc?$AAt?$AA?4?$AAc?$AA?$AA@ DB '.'
	DB	00H, '.', 00H, '\', 00H, 'O', 00H, 'b', 00H, 'j', 00H, 'e', 00H
	DB	'c', 00H, 't', 00H, 's', 00H, '\', 00H, 'b', 00H, 'y', 00H, 't'
	DB	00H, 'e', 00H, 's', 00H, 'o', 00H, 'b', 00H, 'j', 00H, 'e', 00H
	DB	'c', 00H, 't', 00H, '.', 00H, 'c', 00H, 00H, 00H ; `string'
; Function compile flags: /Odtp
CONST	ENDS
;	COMDAT PyBytes_FromString
_TEXT	SEGMENT
size$ = 32
op$ = 40
t_$20493 = 48
s_$20495 = 56
i_$20491 = 64
n_$20492 = 72
str$ = 96
PyBytes_FromString PROC					; COMDAT

; 124  : {

$LN20:
  00000	48 89 4c 24 08	 mov	 QWORD PTR [rsp+8], rcx
  00005	48 83 ec 58	 sub	 rsp, 88			; 00000058H

; 125  :     register size_t size;
; 126  :     register PyBytesObject *op;
; 127  : 
; 128  :     assert(str != NULL);

  00009	48 83 7c 24 60
	00		 cmp	 QWORD PTR str$[rsp], 0
  0000f	75 1c		 jne	 SHORT $LN19@PyBytes_Fr@2
  00011	41 b8 80 00 00
	00		 mov	 r8d, 128		; 00000080H
  00017	48 8d 15 00 00
	00 00		 lea	 rdx, OFFSET FLAT:??_C@_1DC@PIHJIEFM@?$AA?4?$AA?4?$AA?2?$AAO?$AAb?$AAj?$AAe?$AAc?$AAt?$AAs?$AA?2?$AAb?$AAy?$AAt?$AAe?$AAs?$AAo?$AAb?$AAj?$AAe?$AAc?$AAt?$AA?4?$AAc?$AA?$AA@
  0001e	48 8d 0d 00 00
	00 00		 lea	 rcx, OFFSET FLAT:??_C@_1BI@MFCLPIBM@?$AAs?$AAt?$AAr?$AA?5?$AA?$CB?$AA?$DN?$AA?5?$AAN?$AAU?$AAL?$AAL?$AA?$AA@
  00025	ff 15 00 00 00
	00		 call	 QWORD PTR __imp__wassert
  0002b	33 c0		 xor	 eax, eax
$LN19@PyBytes_Fr@2:

; 129  :     size = strlen(str);

  0002d	48 8b 4c 24 60	 mov	 rcx, QWORD PTR str$[rsp]
  00032	e8 00 00 00 00	 call	 strlen
  00037	48 89 44 24 20	 mov	 QWORD PTR size$[rsp], rax

; 130  :     if (size > PY_SSIZE_T_MAX - PyBytesObject_SIZE) {

  0003c	48 b8 86 ff ff
	ff ff ff ff 7f	 mov	 rax, 9223372036854775686 ; 7fffffffffffff86H
  00046	48 39 44 24 20	 cmp	 QWORD PTR size$[rsp], rax
  0004b	76 1a		 jbe	 SHORT $LN16@PyBytes_Fr@2

; 131  :         PyErr_SetString(PyExc_OverflowError,
; 132  :             "byte string is too long");

  0004d	48 8d 15 00 00
	00 00		 lea	 rdx, OFFSET FLAT:??_C@_0BI@CPOCIEOB@byte?5string?5is?5too?5long?$AA@
  00054	48 8b 0d 00 00
	00 00		 mov	 rcx, QWORD PTR PyExc_OverflowError
  0005b	e8 00 00 00 00	 call	 PyErr_SetString

; 133  :         return NULL;

  00060	33 c0		 xor	 eax, eax
  00062	e9 b7 01 00 00	 jmp	 $LN17@PyBytes_Fr@2
$LN16@PyBytes_Fr@2:

; 134  :     }
; 135  :     if (size == 0 && (op = nullstring) != NULL) {

  00067	48 83 7c 24 20
	00		 cmp	 QWORD PTR size$[rsp], 0
  0006d	75 28		 jne	 SHORT $LN15@PyBytes_Fr@2
  0006f	48 8b 05 00 00
	00 00		 mov	 rax, QWORD PTR nullstring
  00076	48 89 44 24 28	 mov	 QWORD PTR op$[rsp], rax
  0007b	48 83 7c 24 28
	00		 cmp	 QWORD PTR op$[rsp], 0
  00081	74 14		 je	 SHORT $LN15@PyBytes_Fr@2

; 136  : #ifdef COUNT_ALLOCS
; 137  :         null_strings++;
; 138  : #endif
; 139  :         Py_INCREF(op);

  00083	48 8b 4c 24 28	 mov	 rcx, QWORD PTR op$[rsp]
  00088	e8 00 00 00 00	 call	 _Py_IncRef

; 140  :         return (PyObject *)op;

  0008d	48 8b 44 24 28	 mov	 rax, QWORD PTR op$[rsp]
  00092	e9 87 01 00 00	 jmp	 $LN17@PyBytes_Fr@2
$LN15@PyBytes_Fr@2:

; 141  :     }
; 142  :     if (size == 1 && (op = characters[*str & UCHAR_MAX]) != NULL) {

  00097	48 83 7c 24 20
	01		 cmp	 QWORD PTR size$[rsp], 1
  0009d	75 3b		 jne	 SHORT $LN14@PyBytes_Fr@2
  0009f	48 8b 44 24 60	 mov	 rax, QWORD PTR str$[rsp]
  000a4	0f be 00	 movsx	 eax, BYTE PTR [rax]
  000a7	25 ff 00 00 00	 and	 eax, 255		; 000000ffH
  000ac	48 98		 cdqe
  000ae	48 8d 0d 00 00
	00 00		 lea	 rcx, OFFSET FLAT:characters
  000b5	48 8b 04 c1	 mov	 rax, QWORD PTR [rcx+rax*8]
  000b9	48 89 44 24 28	 mov	 QWORD PTR op$[rsp], rax
  000be	48 83 7c 24 28
	00		 cmp	 QWORD PTR op$[rsp], 0
  000c4	74 14		 je	 SHORT $LN14@PyBytes_Fr@2

; 143  : #ifdef COUNT_ALLOCS
; 144  :         one_strings++;
; 145  : #endif
; 146  :         Py_INCREF(op);

  000c6	48 8b 4c 24 28	 mov	 rcx, QWORD PTR op$[rsp]
  000cb	e8 00 00 00 00	 call	 _Py_IncRef

; 147  :         return (PyObject *)op;

  000d0	48 8b 44 24 28	 mov	 rax, QWORD PTR op$[rsp]
  000d5	e9 44 01 00 00	 jmp	 $LN17@PyBytes_Fr@2
$LN14@PyBytes_Fr@2:

; 148  :     }
; 149  : 
; 150  :     /* Inline PyObject_NewVar */
; 151  :     op = (PyBytesObject *)PyObject_MALLOC(PyBytesObject_SIZE + size);

  000da	48 8b 44 24 20	 mov	 rax, QWORD PTR size$[rsp]
  000df	48 83 c0 79	 add	 rax, 121		; 00000079H
  000e3	48 8b c8	 mov	 rcx, rax
  000e6	e8 00 00 00 00	 call	 _PyObject_DebugMalloc
  000eb	48 89 44 24 28	 mov	 QWORD PTR op$[rsp], rax

; 152  :     if (op == NULL)

  000f0	48 83 7c 24 28
	00		 cmp	 QWORD PTR op$[rsp], 0
  000f6	75 0a		 jne	 SHORT $LN13@PyBytes_Fr@2

; 153  :         return PyErr_NoMemory();

  000f8	e8 00 00 00 00	 call	 PyErr_NoMemory
  000fd	e9 1c 01 00 00	 jmp	 $LN17@PyBytes_Fr@2
$LN13@PyBytes_Fr@2:

; 154  :     PyObject_INIT_VAR((PyVarObject *)op, &PyBytes_Type, size);

  00102	4c 8b 44 24 20	 mov	 r8, QWORD PTR size$[rsp]
  00107	48 8d 15 00 00
	00 00		 lea	 rdx, OFFSET FLAT:PyBytes_Type
  0010e	48 8b 4c 24 28	 mov	 rcx, QWORD PTR op$[rsp]
  00113	e8 00 00 00 00	 call	 PyObject_INIT_VAR

; 155  :     op->ob_shash = -1;

  00118	48 8b 44 24 28	 mov	 rax, QWORD PTR op$[rsp]
  0011d	48 c7 40 70 ff
	ff ff ff	 mov	 QWORD PTR [rax+112], -1
$LN12@PyBytes_Fr@2:

; 156  :     Py_MEMCPY(op->ob_sval, str, size+1);

  00125	48 8b 44 24 20	 mov	 rax, QWORD PTR size$[rsp]
  0012a	48 ff c0	 inc	 rax
  0012d	48 89 44 24 48	 mov	 QWORD PTR n_$20492[rsp], rax
  00132	48 8b 44 24 28	 mov	 rax, QWORD PTR op$[rsp]
  00137	48 83 c0 78	 add	 rax, 120		; 00000078H
  0013b	48 89 44 24 30	 mov	 QWORD PTR t_$20493[rsp], rax
  00140	48 8b 44 24 60	 mov	 rax, QWORD PTR str$[rsp]
  00145	48 89 44 24 38	 mov	 QWORD PTR s_$20495[rsp], rax
  0014a	48 83 7c 24 48
	10		 cmp	 QWORD PTR n_$20492[rsp], 16
  00150	72 16		 jb	 SHORT $LN9@PyBytes_Fr@2
  00152	4c 8b 44 24 48	 mov	 r8, QWORD PTR n_$20492[rsp]
  00157	48 8b 54 24 38	 mov	 rdx, QWORD PTR s_$20495[rsp]
  0015c	48 8b 4c 24 30	 mov	 rcx, QWORD PTR t_$20493[rsp]
  00161	e8 00 00 00 00	 call	 memcpy
  00166	eb 4b		 jmp	 SHORT $LN8@PyBytes_Fr@2
$LN9@PyBytes_Fr@2:
  00168	48 c7 44 24 40
	00 00 00 00	 mov	 QWORD PTR i_$20491[rsp], 0
  00171	eb 0d		 jmp	 SHORT $LN7@PyBytes_Fr@2
$LN6@PyBytes_Fr@2:
  00173	48 8b 44 24 40	 mov	 rax, QWORD PTR i_$20491[rsp]
  00178	48 ff c0	 inc	 rax
  0017b	48 89 44 24 40	 mov	 QWORD PTR i_$20491[rsp], rax
$LN7@PyBytes_Fr@2:
  00180	48 8b 44 24 48	 mov	 rax, QWORD PTR n_$20492[rsp]
  00185	48 39 44 24 40	 cmp	 QWORD PTR i_$20491[rsp], rax
  0018a	73 27		 jae	 SHORT $LN5@PyBytes_Fr@2
  0018c	48 8b 44 24 40	 mov	 rax, QWORD PTR i_$20491[rsp]
  00191	48 8b 4c 24 30	 mov	 rcx, QWORD PTR t_$20493[rsp]
  00196	48 03 c8	 add	 rcx, rax
  00199	48 8b c1	 mov	 rax, rcx
  0019c	48 8b 4c 24 40	 mov	 rcx, QWORD PTR i_$20491[rsp]
  001a1	48 8b 54 24 38	 mov	 rdx, QWORD PTR s_$20495[rsp]
  001a6	48 03 d1	 add	 rdx, rcx
  001a9	48 8b ca	 mov	 rcx, rdx
  001ac	0f b6 09	 movzx	 ecx, BYTE PTR [rcx]
  001af	88 08		 mov	 BYTE PTR [rax], cl
  001b1	eb c0		 jmp	 SHORT $LN6@PyBytes_Fr@2
$LN5@PyBytes_Fr@2:
$LN8@PyBytes_Fr@2:
  001b3	33 c0		 xor	 eax, eax
  001b5	85 c0		 test	 eax, eax
  001b7	0f 85 68 ff ff
	ff		 jne	 $LN12@PyBytes_Fr@2

; 157  : 
; 158  :     if (Py_PXCTX)

  001bd	e8 00 00 00 00	 call	 _Py_PXCTX
  001c2	85 c0		 test	 eax, eax
  001c4	74 02		 je	 SHORT $LN4@PyBytes_Fr@2

; 159  :         goto end;

  001c6	eb 51		 jmp	 SHORT $end$20503
$LN4@PyBytes_Fr@2:

; 160  : 
; 161  :     /* share short strings */
; 162  :     if (size == 0) {

  001c8	48 83 7c 24 20
	00		 cmp	 QWORD PTR size$[rsp], 0
  001ce	75 18		 jne	 SHORT $LN3@PyBytes_Fr@2

; 163  :         nullstring = op;

  001d0	48 8b 44 24 28	 mov	 rax, QWORD PTR op$[rsp]
  001d5	48 89 05 00 00
	00 00		 mov	 QWORD PTR nullstring, rax

; 164  :         Py_INCREF(op);

  001dc	48 8b 4c 24 28	 mov	 rcx, QWORD PTR op$[rsp]
  001e1	e8 00 00 00 00	 call	 _Py_IncRef
  001e6	eb 31		 jmp	 SHORT $LN2@PyBytes_Fr@2
$LN3@PyBytes_Fr@2:

; 165  :     } else if (size == 1) {

  001e8	48 83 7c 24 20
	01		 cmp	 QWORD PTR size$[rsp], 1
  001ee	75 29		 jne	 SHORT $LN1@PyBytes_Fr@2

; 166  :         characters[*str & UCHAR_MAX] = op;

  001f0	48 8b 44 24 60	 mov	 rax, QWORD PTR str$[rsp]
  001f5	0f be 00	 movsx	 eax, BYTE PTR [rax]
  001f8	25 ff 00 00 00	 and	 eax, 255		; 000000ffH
  001fd	48 98		 cdqe
  001ff	48 8d 0d 00 00
	00 00		 lea	 rcx, OFFSET FLAT:characters
  00206	48 8b 54 24 28	 mov	 rdx, QWORD PTR op$[rsp]
  0020b	48 89 14 c1	 mov	 QWORD PTR [rcx+rax*8], rdx

; 167  :         Py_INCREF(op);

  0020f	48 8b 4c 24 28	 mov	 rcx, QWORD PTR op$[rsp]
  00214	e8 00 00 00 00	 call	 _Py_IncRef
$LN1@PyBytes_Fr@2:
$LN2@PyBytes_Fr@2:
$end$20503:

; 168  :     }
; 169  : end:
; 170  :     return (PyObject *) op;

  00219	48 8b 44 24 28	 mov	 rax, QWORD PTR op$[rsp]
$LN17@PyBytes_Fr@2:

; 171  : }

  0021e	48 83 c4 58	 add	 rsp, 88			; 00000058H
  00222	c3		 ret	 0
PyBytes_FromString ENDP
_TEXT	ENDS
PUBLIC	_PyBytes_Resize
PUBLIC	??_C@_1CM@OKCLHEPD@?$AAP?$AAy?$AAB?$AAy?$AAt?$AAe?$AAs?$AA_?$AAC?$AAh?$AAe?$AAc?$AAk?$AA?$CI?$AAs?$AAt?$AAr?$AAi?$AAn?$AAg?$AA?$CJ?$AA?$AA@ ; `string'
PUBLIC	??_C@_02BBAHNLBA@?$CFp?$AA@			; `string'
PUBLIC	??_C@_02NJNOFBBI@?$CFx?$AA@			; `string'
PUBLIC	??_C@_02IKAHHCAI@?$CFi?$AA@			; `string'
PUBLIC	??_C@_02GMHACPFF@?$CFu?$AA@			; `string'
PUBLIC	??_C@_03GEFEEEBD@?$CFIu?$AA@			; `string'
PUBLIC	??_C@_03FKNCMABI@?$CFlu?$AA@			; `string'
PUBLIC	??_C@_02DPKJAMEF@?$CFd?$AA@			; `string'
PUBLIC	??_C@_03DHINGHAD@?$CFId?$AA@			; `string'
PUBLIC	??_C@_03JALODAI@?$CFld?$AA@			; `string'
PUBLIC	PyBytes_AsString
PUBLIC	??_C@_0EG@OEHELKIM@PyBytes_FromFormatV?$CI?$CJ?3?5?$CFc?5format@ ; `string'
PUBLIC	PyBytes_FromFormatV
EXTRN	strcpy:PROC
EXTRN	__imp_memmove:PROC
EXTRN	__imp_sprintf:PROC
EXTRN	__ImageBase:BYTE
EXTRN	_Py_ctype_table:BYTE
;	COMDAT pdata
pdata	SEGMENT
$pdata$PyBytes_FromFormatV DD imagerel $LN76
	DD	imagerel $LN76+2736
	DD	imagerel $unwind$PyBytes_FromFormatV
pdata	ENDS
;	COMDAT xdata
xdata	SEGMENT
$unwind$PyBytes_FromFormatV DD 021101H
	DD	0150111H
xdata	ENDS
;	COMDAT ??_C@_1CM@OKCLHEPD@?$AAP?$AAy?$AAB?$AAy?$AAt?$AAe?$AAs?$AA_?$AAC?$AAh?$AAe?$AAc?$AAk?$AA?$CI?$AAs?$AAt?$AAr?$AAi?$AAn?$AAg?$AA?$CJ?$AA?$AA@
CONST	SEGMENT
??_C@_1CM@OKCLHEPD@?$AAP?$AAy?$AAB?$AAy?$AAt?$AAe?$AAs?$AA_?$AAC?$AAh?$AAe?$AAc?$AAk?$AA?$CI?$AAs?$AAt?$AAr?$AAi?$AAn?$AAg?$AA?$CJ?$AA?$AA@ DB 'P'
	DB	00H, 'y', 00H, 'B', 00H, 'y', 00H, 't', 00H, 'e', 00H, 's', 00H
	DB	'_', 00H, 'C', 00H, 'h', 00H, 'e', 00H, 'c', 00H, 'k', 00H, '('
	DB	00H, 's', 00H, 't', 00H, 'r', 00H, 'i', 00H, 'n', 00H, 'g', 00H
	DB	')', 00H, 00H, 00H				; `string'
CONST	ENDS
;	COMDAT ??_C@_02BBAHNLBA@?$CFp?$AA@
CONST	SEGMENT
??_C@_02BBAHNLBA@?$CFp?$AA@ DB '%p', 00H		; `string'
CONST	ENDS
;	COMDAT ??_C@_02NJNOFBBI@?$CFx?$AA@
CONST	SEGMENT
??_C@_02NJNOFBBI@?$CFx?$AA@ DB '%x', 00H		; `string'
CONST	ENDS
;	COMDAT ??_C@_02IKAHHCAI@?$CFi?$AA@
CONST	SEGMENT
??_C@_02IKAHHCAI@?$CFi?$AA@ DB '%i', 00H		; `string'
CONST	ENDS
;	COMDAT ??_C@_02GMHACPFF@?$CFu?$AA@
CONST	SEGMENT
??_C@_02GMHACPFF@?$CFu?$AA@ DB '%u', 00H		; `string'
CONST	ENDS
;	COMDAT ??_C@_03GEFEEEBD@?$CFIu?$AA@
CONST	SEGMENT
??_C@_03GEFEEEBD@?$CFIu?$AA@ DB '%Iu', 00H		; `string'
CONST	ENDS
;	COMDAT ??_C@_03FKNCMABI@?$CFlu?$AA@
CONST	SEGMENT
??_C@_03FKNCMABI@?$CFlu?$AA@ DB '%lu', 00H		; `string'
CONST	ENDS
;	COMDAT ??_C@_02DPKJAMEF@?$CFd?$AA@
CONST	SEGMENT
??_C@_02DPKJAMEF@?$CFd?$AA@ DB '%d', 00H		; `string'
CONST	ENDS
;	COMDAT ??_C@_03DHINGHAD@?$CFId?$AA@
CONST	SEGMENT
??_C@_03DHINGHAD@?$CFId?$AA@ DB '%Id', 00H		; `string'
CONST	ENDS
;	COMDAT ??_C@_03JALODAI@?$CFld?$AA@
CONST	SEGMENT
??_C@_03JALODAI@?$CFld?$AA@ DB '%ld', 00H		; `string'
CONST	ENDS
;	COMDAT ??_C@_0EG@OEHELKIM@PyBytes_FromFormatV?$CI?$CJ?3?5?$CFc?5format@
CONST	SEGMENT
??_C@_0EG@OEHELKIM@PyBytes_FromFormatV?$CI?$CJ?3?5?$CFc?5format@ DB 'PyBy'
	DB	'tes_FromFormatV(): %c format expects an integer in range [0; '
	DB	'255]', 00H					; `string'
; Function compile flags: /Odtp
CONST	ENDS
;	COMDAT PyBytes_FromFormatV
_TEXT	SEGMENT
count$ = 32
n$ = 40
s$ = 48
f$ = 56
string$ = 64
p$20524 = 72
c$20537 = 80
p$20598 = 88
longflag$20600 = 96
i$20599 = 104
size_tflag$20601 = 112
c$20624 = 116
t_$20753 = 120
s_$20755 = 128
i_$20751 = 136
n_$20752 = 144
tv94 = 152
tv223 = 156
format$ = 176
vargs$ = 184
PyBytes_FromFormatV PROC				; COMDAT

; 175  : {

$LN76:
  00000	48 89 54 24 10	 mov	 QWORD PTR [rsp+16], rdx
  00005	48 89 4c 24 08	 mov	 QWORD PTR [rsp+8], rcx
  0000a	48 81 ec a8 00
	00 00		 sub	 rsp, 168		; 000000a8H

; 176  :     va_list count;
; 177  :     Py_ssize_t n = 0;

  00011	48 c7 44 24 28
	00 00 00 00	 mov	 QWORD PTR n$[rsp], 0

; 178  :     const char* f;
; 179  :     char *s;
; 180  :     PyObject* string;
; 181  : 
; 182  :     Py_VA_COPY(count, vargs);

  0001a	48 8b 84 24 b8
	00 00 00	 mov	 rax, QWORD PTR vargs$[rsp]
  00022	48 89 44 24 20	 mov	 QWORD PTR count$[rsp], rax

; 183  :     /* step 1: figure out how large a buffer we need */
; 184  :     for (f = format; *f; f++) {

  00027	48 8b 84 24 b0
	00 00 00	 mov	 rax, QWORD PTR format$[rsp]
  0002f	48 89 44 24 38	 mov	 QWORD PTR f$[rsp], rax
  00034	eb 0d		 jmp	 SHORT $LN68@PyBytes_Fr@3
$LN67@PyBytes_Fr@3:
  00036	48 8b 44 24 38	 mov	 rax, QWORD PTR f$[rsp]
  0003b	48 ff c0	 inc	 rax
  0003e	48 89 44 24 38	 mov	 QWORD PTR f$[rsp], rax
$LN68@PyBytes_Fr@3:
  00043	48 8b 44 24 38	 mov	 rax, QWORD PTR f$[rsp]
  00048	0f be 00	 movsx	 eax, BYTE PTR [rax]
  0004b	85 c0		 test	 eax, eax
  0004d	0f 84 05 02 00
	00		 je	 $LN66@PyBytes_Fr@3

; 185  :         if (*f == '%') {

  00053	48 8b 44 24 38	 mov	 rax, QWORD PTR f$[rsp]
  00058	0f be 00	 movsx	 eax, BYTE PTR [rax]
  0005b	83 f8 25	 cmp	 eax, 37			; 00000025H
  0005e	0f 85 e2 01 00
	00		 jne	 $LN65@PyBytes_Fr@3

; 186  :             const char* p = f;

  00064	48 8b 44 24 38	 mov	 rax, QWORD PTR f$[rsp]
  00069	48 89 44 24 48	 mov	 QWORD PTR p$20524[rsp], rax
$LN64@PyBytes_Fr@3:

; 187  :             while (*++f && *f != '%' && !Py_ISALPHA(*f))

  0006e	48 8b 44 24 38	 mov	 rax, QWORD PTR f$[rsp]
  00073	48 ff c0	 inc	 rax
  00076	48 89 44 24 38	 mov	 QWORD PTR f$[rsp], rax
  0007b	48 8b 44 24 38	 mov	 rax, QWORD PTR f$[rsp]
  00080	0f be 00	 movsx	 eax, BYTE PTR [rax]
  00083	85 c0		 test	 eax, eax
  00085	74 30		 je	 SHORT $LN63@PyBytes_Fr@3
  00087	48 8b 44 24 38	 mov	 rax, QWORD PTR f$[rsp]
  0008c	0f be 00	 movsx	 eax, BYTE PTR [rax]
  0008f	83 f8 25	 cmp	 eax, 37			; 00000025H
  00092	74 23		 je	 SHORT $LN63@PyBytes_Fr@3
  00094	48 8b 44 24 38	 mov	 rax, QWORD PTR f$[rsp]
  00099	0f be 00	 movsx	 eax, BYTE PTR [rax]
  0009c	25 ff 00 00 00	 and	 eax, 255		; 000000ffH
  000a1	0f b6 c0	 movzx	 eax, al
  000a4	48 8d 0d 00 00
	00 00		 lea	 rcx, OFFSET FLAT:_Py_ctype_table
  000ab	8b 04 81	 mov	 eax, DWORD PTR [rcx+rax*4]
  000ae	83 e0 03	 and	 eax, 3
  000b1	85 c0		 test	 eax, eax
  000b3	75 02		 jne	 SHORT $LN63@PyBytes_Fr@3

; 188  :                 ;

  000b5	eb b7		 jmp	 SHORT $LN64@PyBytes_Fr@3
$LN63@PyBytes_Fr@3:

; 189  : 
; 190  :             /* skip the 'l' or 'z' in {%ld, %zd, %lu, %zu} since
; 191  :              * they don't affect the amount of space we reserve.
; 192  :              */
; 193  :             if ((*f == 'l' || *f == 'z') &&
; 194  :                             (f[1] == 'd' || f[1] == 'u'))

  000b7	48 8b 44 24 38	 mov	 rax, QWORD PTR f$[rsp]
  000bc	0f be 00	 movsx	 eax, BYTE PTR [rax]
  000bf	83 f8 6c	 cmp	 eax, 108		; 0000006cH
  000c2	74 0d		 je	 SHORT $LN61@PyBytes_Fr@3
  000c4	48 8b 44 24 38	 mov	 rax, QWORD PTR f$[rsp]
  000c9	0f be 00	 movsx	 eax, BYTE PTR [rax]
  000cc	83 f8 7a	 cmp	 eax, 122		; 0000007aH
  000cf	75 29		 jne	 SHORT $LN62@PyBytes_Fr@3
$LN61@PyBytes_Fr@3:
  000d1	48 8b 44 24 38	 mov	 rax, QWORD PTR f$[rsp]
  000d6	0f be 40 01	 movsx	 eax, BYTE PTR [rax+1]
  000da	83 f8 64	 cmp	 eax, 100		; 00000064H
  000dd	74 0e		 je	 SHORT $LN60@PyBytes_Fr@3
  000df	48 8b 44 24 38	 mov	 rax, QWORD PTR f$[rsp]
  000e4	0f be 40 01	 movsx	 eax, BYTE PTR [rax+1]
  000e8	83 f8 75	 cmp	 eax, 117		; 00000075H
  000eb	75 0d		 jne	 SHORT $LN62@PyBytes_Fr@3
$LN60@PyBytes_Fr@3:

; 195  :                 ++f;

  000ed	48 8b 44 24 38	 mov	 rax, QWORD PTR f$[rsp]
  000f2	48 ff c0	 inc	 rax
  000f5	48 89 44 24 38	 mov	 QWORD PTR f$[rsp], rax
$LN62@PyBytes_Fr@3:

; 196  : 
; 197  :             switch (*f) {

  000fa	48 8b 44 24 38	 mov	 rax, QWORD PTR f$[rsp]
  000ff	0f be 00	 movsx	 eax, BYTE PTR [rax]
  00102	89 84 24 98 00
	00 00		 mov	 DWORD PTR tv94[rsp], eax
  00109	8b 84 24 98 00
	00 00		 mov	 eax, DWORD PTR tv94[rsp]
  00110	83 e8 25	 sub	 eax, 37			; 00000025H
  00113	89 84 24 98 00
	00 00		 mov	 DWORD PTR tv94[rsp], eax
  0011a	83 bc 24 98 00
	00 00 53	 cmp	 DWORD PTR tv94[rsp], 83	; 00000053H
  00122	0f 87 00 01 00
	00		 ja	 $LN50@PyBytes_Fr@3
  00128	48 63 84 24 98
	00 00 00	 movsxd	 rax, DWORD PTR tv94[rsp]
  00130	48 8d 0d 00 00
	00 00		 lea	 rcx, OFFSET FLAT:__ImageBase
  00137	0f b6 84 01 00
	00 00 00	 movzx	 eax, BYTE PTR $LN74@PyBytes_Fr@3[rcx+rax]
  0013f	8b 84 81 00 00
	00 00		 mov	 eax, DWORD PTR $LN75@PyBytes_Fr@3[rcx+rax*4]
  00146	48 03 c1	 add	 rax, rcx
  00149	ff e0		 jmp	 rax
$LN57@PyBytes_Fr@3:

; 198  :             case 'c':
; 199  :             {
; 200  :                 int c = va_arg(count, int);

  0014b	48 8b 44 24 20	 mov	 rax, QWORD PTR count$[rsp]
  00150	48 83 c0 08	 add	 rax, 8
  00154	48 89 44 24 20	 mov	 QWORD PTR count$[rsp], rax
  00159	48 8b 44 24 20	 mov	 rax, QWORD PTR count$[rsp]
  0015e	8b 40 f8	 mov	 eax, DWORD PTR [rax-8]
  00161	89 44 24 50	 mov	 DWORD PTR c$20537[rsp], eax

; 201  :                 if (c < 0 || c > 255) {

  00165	83 7c 24 50 00	 cmp	 DWORD PTR c$20537[rsp], 0
  0016a	7c 0a		 jl	 SHORT $LN55@PyBytes_Fr@3
  0016c	81 7c 24 50 ff
	00 00 00	 cmp	 DWORD PTR c$20537[rsp], 255 ; 000000ffH
  00174	7e 1a		 jle	 SHORT $LN56@PyBytes_Fr@3
$LN55@PyBytes_Fr@3:

; 202  :                     PyErr_SetString(PyExc_OverflowError,
; 203  :                                     "PyBytes_FromFormatV(): %c format "
; 204  :                                     "expects an integer in range [0; 255]");

  00176	48 8d 15 00 00
	00 00		 lea	 rdx, OFFSET FLAT:??_C@_0EG@OEHELKIM@PyBytes_FromFormatV?$CI?$CJ?3?5?$CFc?5format@
  0017d	48 8b 0d 00 00
	00 00		 mov	 rcx, QWORD PTR PyExc_OverflowError
  00184	e8 00 00 00 00	 call	 PyErr_SetString

; 205  :                     return NULL;

  00189	33 c0		 xor	 eax, eax
  0018b	e9 33 08 00 00	 jmp	 $LN69@PyBytes_Fr@3
$LN56@PyBytes_Fr@3:

; 206  :                 }
; 207  :                 n++;

  00190	48 8b 44 24 28	 mov	 rax, QWORD PTR n$[rsp]
  00195	48 ff c0	 inc	 rax
  00198	48 89 44 24 28	 mov	 QWORD PTR n$[rsp], rax

; 208  :                 break;

  0019d	e9 a2 00 00 00	 jmp	 $LN58@PyBytes_Fr@3
$LN54@PyBytes_Fr@3:

; 209  :             }
; 210  :             case '%':
; 211  :                 n++;

  001a2	48 8b 44 24 28	 mov	 rax, QWORD PTR n$[rsp]
  001a7	48 ff c0	 inc	 rax
  001aa	48 89 44 24 28	 mov	 QWORD PTR n$[rsp], rax

; 212  :                 break;

  001af	e9 90 00 00 00	 jmp	 $LN58@PyBytes_Fr@3
$LN53@PyBytes_Fr@3:

; 213  :             case 'd': case 'u': case 'i': case 'x':
; 214  :                 (void) va_arg(count, int);

  001b4	48 8b 44 24 20	 mov	 rax, QWORD PTR count$[rsp]
  001b9	48 83 c0 08	 add	 rax, 8
  001bd	48 89 44 24 20	 mov	 QWORD PTR count$[rsp], rax

; 215  :                 /* 20 bytes is enough to hold a 64-bit
; 216  :                    integer.  Decimal takes the most space.
; 217  :                    This isn't enough for octal. */
; 218  :                 n += 20;

  001c2	48 8b 44 24 28	 mov	 rax, QWORD PTR n$[rsp]
  001c7	48 83 c0 14	 add	 rax, 20
  001cb	48 89 44 24 28	 mov	 QWORD PTR n$[rsp], rax

; 219  :                 break;

  001d0	eb 72		 jmp	 SHORT $LN58@PyBytes_Fr@3
$LN52@PyBytes_Fr@3:

; 220  :             case 's':
; 221  :                 s = va_arg(count, char*);

  001d2	48 8b 44 24 20	 mov	 rax, QWORD PTR count$[rsp]
  001d7	48 83 c0 08	 add	 rax, 8
  001db	48 89 44 24 20	 mov	 QWORD PTR count$[rsp], rax
  001e0	48 8b 44 24 20	 mov	 rax, QWORD PTR count$[rsp]
  001e5	48 8b 40 f8	 mov	 rax, QWORD PTR [rax-8]
  001e9	48 89 44 24 30	 mov	 QWORD PTR s$[rsp], rax

; 222  :                 n += strlen(s);

  001ee	48 8b 4c 24 30	 mov	 rcx, QWORD PTR s$[rsp]
  001f3	e8 00 00 00 00	 call	 strlen
  001f8	48 8b 4c 24 28	 mov	 rcx, QWORD PTR n$[rsp]
  001fd	48 03 c8	 add	 rcx, rax
  00200	48 8b c1	 mov	 rax, rcx
  00203	48 89 44 24 28	 mov	 QWORD PTR n$[rsp], rax

; 223  :                 break;

  00208	eb 3a		 jmp	 SHORT $LN58@PyBytes_Fr@3
$LN51@PyBytes_Fr@3:

; 224  :             case 'p':
; 225  :                 (void) va_arg(count, int);

  0020a	48 8b 44 24 20	 mov	 rax, QWORD PTR count$[rsp]
  0020f	48 83 c0 08	 add	 rax, 8
  00213	48 89 44 24 20	 mov	 QWORD PTR count$[rsp], rax

; 226  :                 /* maximum 64-bit pointer representation:
; 227  :                  * 0xffffffffffffffff
; 228  :                  * so 19 characters is enough.
; 229  :                  * XXX I count 18 -- what's the extra for?
; 230  :                  */
; 231  :                 n += 19;

  00218	48 8b 44 24 28	 mov	 rax, QWORD PTR n$[rsp]
  0021d	48 83 c0 13	 add	 rax, 19
  00221	48 89 44 24 28	 mov	 QWORD PTR n$[rsp], rax

; 232  :                 break;

  00226	eb 1c		 jmp	 SHORT $LN58@PyBytes_Fr@3
$LN50@PyBytes_Fr@3:

; 233  :             default:
; 234  :                 /* if we stumble upon an unknown
; 235  :                    formatting code, copy the rest of
; 236  :                    the format string to the output
; 237  :                    string. (we cannot just skip the
; 238  :                    code, since there's no way to know
; 239  :                    what's in the argument list) */
; 240  :                 n += strlen(p);

  00228	48 8b 4c 24 48	 mov	 rcx, QWORD PTR p$20524[rsp]
  0022d	e8 00 00 00 00	 call	 strlen
  00232	48 8b 4c 24 28	 mov	 rcx, QWORD PTR n$[rsp]
  00237	48 03 c8	 add	 rcx, rax
  0023a	48 8b c1	 mov	 rax, rcx
  0023d	48 89 44 24 28	 mov	 QWORD PTR n$[rsp], rax

; 241  :                 goto expand;

  00242	eb 14		 jmp	 SHORT $expand$20589
$LN58@PyBytes_Fr@3:

; 242  :             }
; 243  :         } else

  00244	eb 0d		 jmp	 SHORT $LN49@PyBytes_Fr@3
$LN65@PyBytes_Fr@3:

; 244  :             n++;

  00246	48 8b 44 24 28	 mov	 rax, QWORD PTR n$[rsp]
  0024b	48 ff c0	 inc	 rax
  0024e	48 89 44 24 28	 mov	 QWORD PTR n$[rsp], rax
$LN49@PyBytes_Fr@3:

; 245  :     }

  00253	e9 de fd ff ff	 jmp	 $LN67@PyBytes_Fr@3
$LN66@PyBytes_Fr@3:
$expand$20589:

; 246  :  expand:
; 247  :     /* step 2: fill the buffer */
; 248  :     /* Since we've analyzed how much space we need for the worst case,
; 249  :        use sprintf directly instead of the slower PyOS_snprintf. */
; 250  :     string = PyBytes_FromStringAndSize(NULL, n);

  00258	48 8b 54 24 28	 mov	 rdx, QWORD PTR n$[rsp]
  0025d	33 c9		 xor	 ecx, ecx
  0025f	e8 00 00 00 00	 call	 PyBytes_FromStringAndSize
  00264	48 89 44 24 40	 mov	 QWORD PTR string$[rsp], rax

; 251  :     if (!string)

  00269	48 83 7c 24 40
	00		 cmp	 QWORD PTR string$[rsp], 0
  0026f	75 07		 jne	 SHORT $LN48@PyBytes_Fr@3

; 252  :         return NULL;

  00271	33 c0		 xor	 eax, eax
  00273	e9 4b 07 00 00	 jmp	 $LN69@PyBytes_Fr@3
$LN48@PyBytes_Fr@3:

; 253  : 
; 254  :     s = PyBytes_AsString(string);

  00278	48 8b 4c 24 40	 mov	 rcx, QWORD PTR string$[rsp]
  0027d	e8 00 00 00 00	 call	 PyBytes_AsString
  00282	48 89 44 24 30	 mov	 QWORD PTR s$[rsp], rax

; 255  : 
; 256  :     for (f = format; *f; f++) {

  00287	48 8b 84 24 b0
	00 00 00	 mov	 rax, QWORD PTR format$[rsp]
  0028f	48 89 44 24 38	 mov	 QWORD PTR f$[rsp], rax
  00294	eb 0d		 jmp	 SHORT $LN47@PyBytes_Fr@3
$LN46@PyBytes_Fr@3:
  00296	48 8b 44 24 38	 mov	 rax, QWORD PTR f$[rsp]
  0029b	48 ff c0	 inc	 rax
  0029e	48 89 44 24 38	 mov	 QWORD PTR f$[rsp], rax
$LN47@PyBytes_Fr@3:
  002a3	48 8b 44 24 38	 mov	 rax, QWORD PTR f$[rsp]
  002a8	0f be 00	 movsx	 eax, BYTE PTR [rax]
  002ab	85 c0		 test	 eax, eax
  002ad	0f 84 b6 06 00
	00		 je	 $LN45@PyBytes_Fr@3

; 257  :         if (*f == '%') {

  002b3	48 8b 44 24 38	 mov	 rax, QWORD PTR f$[rsp]
  002b8	0f be 00	 movsx	 eax, BYTE PTR [rax]
  002bb	83 f8 25	 cmp	 eax, 37			; 00000025H
  002be	0f 85 84 06 00
	00		 jne	 $LN44@PyBytes_Fr@3

; 258  :             const char* p = f++;

  002c4	48 8b 44 24 38	 mov	 rax, QWORD PTR f$[rsp]
  002c9	48 89 44 24 58	 mov	 QWORD PTR p$20598[rsp], rax
  002ce	48 8b 44 24 38	 mov	 rax, QWORD PTR f$[rsp]
  002d3	48 ff c0	 inc	 rax
  002d6	48 89 44 24 38	 mov	 QWORD PTR f$[rsp], rax

; 259  :             Py_ssize_t i;
; 260  :             int longflag = 0;

  002db	c7 44 24 60 00
	00 00 00	 mov	 DWORD PTR longflag$20600[rsp], 0

; 261  :             int size_tflag = 0;

  002e3	c7 44 24 70 00
	00 00 00	 mov	 DWORD PTR size_tflag$20601[rsp], 0

; 262  :             /* parse the width.precision part (we're only
; 263  :                interested in the precision value, if any) */
; 264  :             n = 0;

  002eb	48 c7 44 24 28
	00 00 00 00	 mov	 QWORD PTR n$[rsp], 0
$LN43@PyBytes_Fr@3:

; 265  :             while (Py_ISDIGIT(*f))

  002f4	48 8b 44 24 38	 mov	 rax, QWORD PTR f$[rsp]
  002f9	0f be 00	 movsx	 eax, BYTE PTR [rax]
  002fc	25 ff 00 00 00	 and	 eax, 255		; 000000ffH
  00301	0f b6 c0	 movzx	 eax, al
  00304	48 8d 0d 00 00
	00 00		 lea	 rcx, OFFSET FLAT:_Py_ctype_table
  0030b	8b 04 81	 mov	 eax, DWORD PTR [rcx+rax*4]
  0030e	83 e0 04	 and	 eax, 4
  00311	85 c0		 test	 eax, eax
  00313	74 2b		 je	 SHORT $LN42@PyBytes_Fr@3

; 266  :                 n = (n*10) + *f++ - '0';

  00315	48 8b 44 24 28	 mov	 rax, QWORD PTR n$[rsp]
  0031a	48 6b c0 0a	 imul	 rax, 10
  0031e	48 8b 4c 24 38	 mov	 rcx, QWORD PTR f$[rsp]
  00323	48 0f be 09	 movsx	 rcx, BYTE PTR [rcx]
  00327	48 8d 44 08 d0	 lea	 rax, QWORD PTR [rax+rcx-48]
  0032c	48 89 44 24 28	 mov	 QWORD PTR n$[rsp], rax
  00331	48 8b 44 24 38	 mov	 rax, QWORD PTR f$[rsp]
  00336	48 ff c0	 inc	 rax
  00339	48 89 44 24 38	 mov	 QWORD PTR f$[rsp], rax
  0033e	eb b4		 jmp	 SHORT $LN43@PyBytes_Fr@3
$LN42@PyBytes_Fr@3:

; 267  :             if (*f == '.') {

  00340	48 8b 44 24 38	 mov	 rax, QWORD PTR f$[rsp]
  00345	0f be 00	 movsx	 eax, BYTE PTR [rax]
  00348	83 f8 2e	 cmp	 eax, 46			; 0000002eH
  0034b	75 62		 jne	 SHORT $LN41@PyBytes_Fr@3

; 268  :                 f++;

  0034d	48 8b 44 24 38	 mov	 rax, QWORD PTR f$[rsp]
  00352	48 ff c0	 inc	 rax
  00355	48 89 44 24 38	 mov	 QWORD PTR f$[rsp], rax

; 269  :                 n = 0;

  0035a	48 c7 44 24 28
	00 00 00 00	 mov	 QWORD PTR n$[rsp], 0
$LN40@PyBytes_Fr@3:

; 270  :                 while (Py_ISDIGIT(*f))

  00363	48 8b 44 24 38	 mov	 rax, QWORD PTR f$[rsp]
  00368	0f be 00	 movsx	 eax, BYTE PTR [rax]
  0036b	25 ff 00 00 00	 and	 eax, 255		; 000000ffH
  00370	0f b6 c0	 movzx	 eax, al
  00373	48 8d 0d 00 00
	00 00		 lea	 rcx, OFFSET FLAT:_Py_ctype_table
  0037a	8b 04 81	 mov	 eax, DWORD PTR [rcx+rax*4]
  0037d	83 e0 04	 and	 eax, 4
  00380	85 c0		 test	 eax, eax
  00382	74 2b		 je	 SHORT $LN39@PyBytes_Fr@3

; 271  :                     n = (n*10) + *f++ - '0';

  00384	48 8b 44 24 28	 mov	 rax, QWORD PTR n$[rsp]
  00389	48 6b c0 0a	 imul	 rax, 10
  0038d	48 8b 4c 24 38	 mov	 rcx, QWORD PTR f$[rsp]
  00392	48 0f be 09	 movsx	 rcx, BYTE PTR [rcx]
  00396	48 8d 44 08 d0	 lea	 rax, QWORD PTR [rax+rcx-48]
  0039b	48 89 44 24 28	 mov	 QWORD PTR n$[rsp], rax
  003a0	48 8b 44 24 38	 mov	 rax, QWORD PTR f$[rsp]
  003a5	48 ff c0	 inc	 rax
  003a8	48 89 44 24 38	 mov	 QWORD PTR f$[rsp], rax
  003ad	eb b4		 jmp	 SHORT $LN40@PyBytes_Fr@3
$LN39@PyBytes_Fr@3:
$LN41@PyBytes_Fr@3:
$LN38@PyBytes_Fr@3:

; 272  :             }
; 273  :             while (*f && *f != '%' && !Py_ISALPHA(*f))

  003af	48 8b 44 24 38	 mov	 rax, QWORD PTR f$[rsp]
  003b4	0f be 00	 movsx	 eax, BYTE PTR [rax]
  003b7	85 c0		 test	 eax, eax
  003b9	74 3d		 je	 SHORT $LN37@PyBytes_Fr@3
  003bb	48 8b 44 24 38	 mov	 rax, QWORD PTR f$[rsp]
  003c0	0f be 00	 movsx	 eax, BYTE PTR [rax]
  003c3	83 f8 25	 cmp	 eax, 37			; 00000025H
  003c6	74 30		 je	 SHORT $LN37@PyBytes_Fr@3
  003c8	48 8b 44 24 38	 mov	 rax, QWORD PTR f$[rsp]
  003cd	0f be 00	 movsx	 eax, BYTE PTR [rax]
  003d0	25 ff 00 00 00	 and	 eax, 255		; 000000ffH
  003d5	0f b6 c0	 movzx	 eax, al
  003d8	48 8d 0d 00 00
	00 00		 lea	 rcx, OFFSET FLAT:_Py_ctype_table
  003df	8b 04 81	 mov	 eax, DWORD PTR [rcx+rax*4]
  003e2	83 e0 03	 and	 eax, 3
  003e5	85 c0		 test	 eax, eax
  003e7	75 0f		 jne	 SHORT $LN37@PyBytes_Fr@3

; 274  :                 f++;

  003e9	48 8b 44 24 38	 mov	 rax, QWORD PTR f$[rsp]
  003ee	48 ff c0	 inc	 rax
  003f1	48 89 44 24 38	 mov	 QWORD PTR f$[rsp], rax
  003f6	eb b7		 jmp	 SHORT $LN38@PyBytes_Fr@3
$LN37@PyBytes_Fr@3:

; 275  :             /* handle the long flag, but only for %ld and %lu.
; 276  :                others can be added when necessary. */
; 277  :             if (*f == 'l' && (f[1] == 'd' || f[1] == 'u')) {

  003f8	48 8b 44 24 38	 mov	 rax, QWORD PTR f$[rsp]
  003fd	0f be 00	 movsx	 eax, BYTE PTR [rax]
  00400	83 f8 6c	 cmp	 eax, 108		; 0000006cH
  00403	75 31		 jne	 SHORT $LN36@PyBytes_Fr@3
  00405	48 8b 44 24 38	 mov	 rax, QWORD PTR f$[rsp]
  0040a	0f be 40 01	 movsx	 eax, BYTE PTR [rax+1]
  0040e	83 f8 64	 cmp	 eax, 100		; 00000064H
  00411	74 0e		 je	 SHORT $LN35@PyBytes_Fr@3
  00413	48 8b 44 24 38	 mov	 rax, QWORD PTR f$[rsp]
  00418	0f be 40 01	 movsx	 eax, BYTE PTR [rax+1]
  0041c	83 f8 75	 cmp	 eax, 117		; 00000075H
  0041f	75 15		 jne	 SHORT $LN36@PyBytes_Fr@3
$LN35@PyBytes_Fr@3:

; 278  :                 longflag = 1;

  00421	c7 44 24 60 01
	00 00 00	 mov	 DWORD PTR longflag$20600[rsp], 1

; 279  :                 ++f;

  00429	48 8b 44 24 38	 mov	 rax, QWORD PTR f$[rsp]
  0042e	48 ff c0	 inc	 rax
  00431	48 89 44 24 38	 mov	 QWORD PTR f$[rsp], rax
$LN36@PyBytes_Fr@3:

; 280  :             }
; 281  :             /* handle the size_t flag. */
; 282  :             if (*f == 'z' && (f[1] == 'd' || f[1] == 'u')) {

  00436	48 8b 44 24 38	 mov	 rax, QWORD PTR f$[rsp]
  0043b	0f be 00	 movsx	 eax, BYTE PTR [rax]
  0043e	83 f8 7a	 cmp	 eax, 122		; 0000007aH
  00441	75 31		 jne	 SHORT $LN34@PyBytes_Fr@3
  00443	48 8b 44 24 38	 mov	 rax, QWORD PTR f$[rsp]
  00448	0f be 40 01	 movsx	 eax, BYTE PTR [rax+1]
  0044c	83 f8 64	 cmp	 eax, 100		; 00000064H
  0044f	74 0e		 je	 SHORT $LN33@PyBytes_Fr@3
  00451	48 8b 44 24 38	 mov	 rax, QWORD PTR f$[rsp]
  00456	0f be 40 01	 movsx	 eax, BYTE PTR [rax+1]
  0045a	83 f8 75	 cmp	 eax, 117		; 00000075H
  0045d	75 15		 jne	 SHORT $LN34@PyBytes_Fr@3
$LN33@PyBytes_Fr@3:

; 283  :                 size_tflag = 1;

  0045f	c7 44 24 70 01
	00 00 00	 mov	 DWORD PTR size_tflag$20601[rsp], 1

; 284  :                 ++f;

  00467	48 8b 44 24 38	 mov	 rax, QWORD PTR f$[rsp]
  0046c	48 ff c0	 inc	 rax
  0046f	48 89 44 24 38	 mov	 QWORD PTR f$[rsp], rax
$LN34@PyBytes_Fr@3:

; 285  :             }
; 286  : 
; 287  :             switch (*f) {

  00474	48 8b 44 24 38	 mov	 rax, QWORD PTR f$[rsp]
  00479	0f be 00	 movsx	 eax, BYTE PTR [rax]
  0047c	89 84 24 9c 00
	00 00		 mov	 DWORD PTR tv223[rsp], eax
  00483	8b 84 24 9c 00
	00 00		 mov	 eax, DWORD PTR tv223[rsp]
  0048a	83 e8 25	 sub	 eax, 37			; 00000025H
  0048d	89 84 24 9c 00
	00 00		 mov	 DWORD PTR tv223[rsp], eax
  00494	83 bc 24 9c 00
	00 00 53	 cmp	 DWORD PTR tv223[rsp], 83 ; 00000053H
  0049c	0f 87 79 04 00
	00		 ja	 $LN2@PyBytes_Fr@3
  004a2	48 63 84 24 9c
	00 00 00	 movsxd	 rax, DWORD PTR tv223[rsp]
  004aa	48 8d 0d 00 00
	00 00		 lea	 rcx, OFFSET FLAT:__ImageBase
  004b1	0f b6 84 01 00
	00 00 00	 movzx	 eax, BYTE PTR $LN72@PyBytes_Fr@3[rcx+rax]
  004b9	8b 84 81 00 00
	00 00		 mov	 eax, DWORD PTR $LN73@PyBytes_Fr@3[rcx+rax*4]
  004c0	48 03 c1	 add	 rax, rcx
  004c3	ff e0		 jmp	 rax
$LN30@PyBytes_Fr@3:

; 288  :             case 'c':
; 289  :             {
; 290  :                 int c = va_arg(vargs, int);

  004c5	48 8b 84 24 b8
	00 00 00	 mov	 rax, QWORD PTR vargs$[rsp]
  004cd	48 83 c0 08	 add	 rax, 8
  004d1	48 89 84 24 b8
	00 00 00	 mov	 QWORD PTR vargs$[rsp], rax
  004d9	48 8b 84 24 b8
	00 00 00	 mov	 rax, QWORD PTR vargs$[rsp]
  004e1	8b 40 f8	 mov	 eax, DWORD PTR [rax-8]
  004e4	89 44 24 74	 mov	 DWORD PTR c$20624[rsp], eax

; 291  :                 /* c has been checked for overflow in the first step */
; 292  :                 *s++ = (unsigned char)c;

  004e8	48 8b 44 24 30	 mov	 rax, QWORD PTR s$[rsp]
  004ed	0f b6 4c 24 74	 movzx	 ecx, BYTE PTR c$20624[rsp]
  004f2	88 08		 mov	 BYTE PTR [rax], cl
  004f4	48 8b 44 24 30	 mov	 rax, QWORD PTR s$[rsp]
  004f9	48 ff c0	 inc	 rax
  004fc	48 89 44 24 30	 mov	 QWORD PTR s$[rsp], rax

; 293  :                 break;

  00501	e9 40 04 00 00	 jmp	 $LN31@PyBytes_Fr@3
$LN29@PyBytes_Fr@3:

; 294  :             }
; 295  :             case 'd':
; 296  :                 if (longflag)

  00506	83 7c 24 60 00	 cmp	 DWORD PTR longflag$20600[rsp], 0
  0050b	74 34		 je	 SHORT $LN28@PyBytes_Fr@3

; 297  :                     sprintf(s, "%ld", va_arg(vargs, long));

  0050d	48 8b 84 24 b8
	00 00 00	 mov	 rax, QWORD PTR vargs$[rsp]
  00515	48 83 c0 08	 add	 rax, 8
  00519	48 89 84 24 b8
	00 00 00	 mov	 QWORD PTR vargs$[rsp], rax
  00521	48 8b 84 24 b8
	00 00 00	 mov	 rax, QWORD PTR vargs$[rsp]
  00529	44 8b 40 f8	 mov	 r8d, DWORD PTR [rax-8]
  0052d	48 8d 15 00 00
	00 00		 lea	 rdx, OFFSET FLAT:??_C@_03JALODAI@?$CFld?$AA@
  00534	48 8b 4c 24 30	 mov	 rcx, QWORD PTR s$[rsp]
  00539	ff 15 00 00 00
	00		 call	 QWORD PTR __imp_sprintf
  0053f	eb 6d		 jmp	 SHORT $LN27@PyBytes_Fr@3
$LN28@PyBytes_Fr@3:

; 298  :                 else if (size_tflag)

  00541	83 7c 24 70 00	 cmp	 DWORD PTR size_tflag$20601[rsp], 0
  00546	74 34		 je	 SHORT $LN26@PyBytes_Fr@3

; 299  :                     sprintf(s, "%" PY_FORMAT_SIZE_T "d",
; 300  :                         va_arg(vargs, Py_ssize_t));

  00548	48 8b 84 24 b8
	00 00 00	 mov	 rax, QWORD PTR vargs$[rsp]
  00550	48 83 c0 08	 add	 rax, 8
  00554	48 89 84 24 b8
	00 00 00	 mov	 QWORD PTR vargs$[rsp], rax
  0055c	48 8b 84 24 b8
	00 00 00	 mov	 rax, QWORD PTR vargs$[rsp]
  00564	4c 8b 40 f8	 mov	 r8, QWORD PTR [rax-8]
  00568	48 8d 15 00 00
	00 00		 lea	 rdx, OFFSET FLAT:??_C@_03DHINGHAD@?$CFId?$AA@
  0056f	48 8b 4c 24 30	 mov	 rcx, QWORD PTR s$[rsp]
  00574	ff 15 00 00 00
	00		 call	 QWORD PTR __imp_sprintf

; 301  :                 else

  0057a	eb 32		 jmp	 SHORT $LN25@PyBytes_Fr@3
$LN26@PyBytes_Fr@3:

; 302  :                     sprintf(s, "%d", va_arg(vargs, int));

  0057c	48 8b 84 24 b8
	00 00 00	 mov	 rax, QWORD PTR vargs$[rsp]
  00584	48 83 c0 08	 add	 rax, 8
  00588	48 89 84 24 b8
	00 00 00	 mov	 QWORD PTR vargs$[rsp], rax
  00590	48 8b 84 24 b8
	00 00 00	 mov	 rax, QWORD PTR vargs$[rsp]
  00598	44 8b 40 f8	 mov	 r8d, DWORD PTR [rax-8]
  0059c	48 8d 15 00 00
	00 00		 lea	 rdx, OFFSET FLAT:??_C@_02DPKJAMEF@?$CFd?$AA@
  005a3	48 8b 4c 24 30	 mov	 rcx, QWORD PTR s$[rsp]
  005a8	ff 15 00 00 00
	00		 call	 QWORD PTR __imp_sprintf
$LN25@PyBytes_Fr@3:
$LN27@PyBytes_Fr@3:

; 303  :                 s += strlen(s);

  005ae	48 8b 4c 24 30	 mov	 rcx, QWORD PTR s$[rsp]
  005b3	e8 00 00 00 00	 call	 strlen
  005b8	48 8b 4c 24 30	 mov	 rcx, QWORD PTR s$[rsp]
  005bd	48 03 c8	 add	 rcx, rax
  005c0	48 8b c1	 mov	 rax, rcx
  005c3	48 89 44 24 30	 mov	 QWORD PTR s$[rsp], rax

; 304  :                 break;

  005c8	e9 79 03 00 00	 jmp	 $LN31@PyBytes_Fr@3
$LN24@PyBytes_Fr@3:

; 305  :             case 'u':
; 306  :                 if (longflag)

  005cd	83 7c 24 60 00	 cmp	 DWORD PTR longflag$20600[rsp], 0
  005d2	74 34		 je	 SHORT $LN23@PyBytes_Fr@3

; 307  :                     sprintf(s, "%lu",
; 308  :                         va_arg(vargs, unsigned long));

  005d4	48 8b 84 24 b8
	00 00 00	 mov	 rax, QWORD PTR vargs$[rsp]
  005dc	48 83 c0 08	 add	 rax, 8
  005e0	48 89 84 24 b8
	00 00 00	 mov	 QWORD PTR vargs$[rsp], rax
  005e8	48 8b 84 24 b8
	00 00 00	 mov	 rax, QWORD PTR vargs$[rsp]
  005f0	44 8b 40 f8	 mov	 r8d, DWORD PTR [rax-8]
  005f4	48 8d 15 00 00
	00 00		 lea	 rdx, OFFSET FLAT:??_C@_03FKNCMABI@?$CFlu?$AA@
  005fb	48 8b 4c 24 30	 mov	 rcx, QWORD PTR s$[rsp]
  00600	ff 15 00 00 00
	00		 call	 QWORD PTR __imp_sprintf
  00606	eb 6d		 jmp	 SHORT $LN22@PyBytes_Fr@3
$LN23@PyBytes_Fr@3:

; 309  :                 else if (size_tflag)

  00608	83 7c 24 70 00	 cmp	 DWORD PTR size_tflag$20601[rsp], 0
  0060d	74 34		 je	 SHORT $LN21@PyBytes_Fr@3

; 310  :                     sprintf(s, "%" PY_FORMAT_SIZE_T "u",
; 311  :                         va_arg(vargs, size_t));

  0060f	48 8b 84 24 b8
	00 00 00	 mov	 rax, QWORD PTR vargs$[rsp]
  00617	48 83 c0 08	 add	 rax, 8
  0061b	48 89 84 24 b8
	00 00 00	 mov	 QWORD PTR vargs$[rsp], rax
  00623	48 8b 84 24 b8
	00 00 00	 mov	 rax, QWORD PTR vargs$[rsp]
  0062b	4c 8b 40 f8	 mov	 r8, QWORD PTR [rax-8]
  0062f	48 8d 15 00 00
	00 00		 lea	 rdx, OFFSET FLAT:??_C@_03GEFEEEBD@?$CFIu?$AA@
  00636	48 8b 4c 24 30	 mov	 rcx, QWORD PTR s$[rsp]
  0063b	ff 15 00 00 00
	00		 call	 QWORD PTR __imp_sprintf

; 312  :                 else

  00641	eb 32		 jmp	 SHORT $LN20@PyBytes_Fr@3
$LN21@PyBytes_Fr@3:

; 313  :                     sprintf(s, "%u",
; 314  :                         va_arg(vargs, unsigned int));

  00643	48 8b 84 24 b8
	00 00 00	 mov	 rax, QWORD PTR vargs$[rsp]
  0064b	48 83 c0 08	 add	 rax, 8
  0064f	48 89 84 24 b8
	00 00 00	 mov	 QWORD PTR vargs$[rsp], rax
  00657	48 8b 84 24 b8
	00 00 00	 mov	 rax, QWORD PTR vargs$[rsp]
  0065f	44 8b 40 f8	 mov	 r8d, DWORD PTR [rax-8]
  00663	48 8d 15 00 00
	00 00		 lea	 rdx, OFFSET FLAT:??_C@_02GMHACPFF@?$CFu?$AA@
  0066a	48 8b 4c 24 30	 mov	 rcx, QWORD PTR s$[rsp]
  0066f	ff 15 00 00 00
	00		 call	 QWORD PTR __imp_sprintf
$LN20@PyBytes_Fr@3:
$LN22@PyBytes_Fr@3:

; 315  :                 s += strlen(s);

  00675	48 8b 4c 24 30	 mov	 rcx, QWORD PTR s$[rsp]
  0067a	e8 00 00 00 00	 call	 strlen
  0067f	48 8b 4c 24 30	 mov	 rcx, QWORD PTR s$[rsp]
  00684	48 03 c8	 add	 rcx, rax
  00687	48 8b c1	 mov	 rax, rcx
  0068a	48 89 44 24 30	 mov	 QWORD PTR s$[rsp], rax

; 316  :                 break;

  0068f	e9 b2 02 00 00	 jmp	 $LN31@PyBytes_Fr@3
$LN19@PyBytes_Fr@3:

; 317  :             case 'i':
; 318  :                 sprintf(s, "%i", va_arg(vargs, int));

  00694	48 8b 84 24 b8
	00 00 00	 mov	 rax, QWORD PTR vargs$[rsp]
  0069c	48 83 c0 08	 add	 rax, 8
  006a0	48 89 84 24 b8
	00 00 00	 mov	 QWORD PTR vargs$[rsp], rax
  006a8	48 8b 84 24 b8
	00 00 00	 mov	 rax, QWORD PTR vargs$[rsp]
  006b0	44 8b 40 f8	 mov	 r8d, DWORD PTR [rax-8]
  006b4	48 8d 15 00 00
	00 00		 lea	 rdx, OFFSET FLAT:??_C@_02IKAHHCAI@?$CFi?$AA@
  006bb	48 8b 4c 24 30	 mov	 rcx, QWORD PTR s$[rsp]
  006c0	ff 15 00 00 00
	00		 call	 QWORD PTR __imp_sprintf

; 319  :                 s += strlen(s);

  006c6	48 8b 4c 24 30	 mov	 rcx, QWORD PTR s$[rsp]
  006cb	e8 00 00 00 00	 call	 strlen
  006d0	48 8b 4c 24 30	 mov	 rcx, QWORD PTR s$[rsp]
  006d5	48 03 c8	 add	 rcx, rax
  006d8	48 8b c1	 mov	 rax, rcx
  006db	48 89 44 24 30	 mov	 QWORD PTR s$[rsp], rax

; 320  :                 break;

  006e0	e9 61 02 00 00	 jmp	 $LN31@PyBytes_Fr@3
$LN18@PyBytes_Fr@3:

; 321  :             case 'x':
; 322  :                 sprintf(s, "%x", va_arg(vargs, int));

  006e5	48 8b 84 24 b8
	00 00 00	 mov	 rax, QWORD PTR vargs$[rsp]
  006ed	48 83 c0 08	 add	 rax, 8
  006f1	48 89 84 24 b8
	00 00 00	 mov	 QWORD PTR vargs$[rsp], rax
  006f9	48 8b 84 24 b8
	00 00 00	 mov	 rax, QWORD PTR vargs$[rsp]
  00701	44 8b 40 f8	 mov	 r8d, DWORD PTR [rax-8]
  00705	48 8d 15 00 00
	00 00		 lea	 rdx, OFFSET FLAT:??_C@_02NJNOFBBI@?$CFx?$AA@
  0070c	48 8b 4c 24 30	 mov	 rcx, QWORD PTR s$[rsp]
  00711	ff 15 00 00 00
	00		 call	 QWORD PTR __imp_sprintf

; 323  :                 s += strlen(s);

  00717	48 8b 4c 24 30	 mov	 rcx, QWORD PTR s$[rsp]
  0071c	e8 00 00 00 00	 call	 strlen
  00721	48 8b 4c 24 30	 mov	 rcx, QWORD PTR s$[rsp]
  00726	48 03 c8	 add	 rcx, rax
  00729	48 8b c1	 mov	 rax, rcx
  0072c	48 89 44 24 30	 mov	 QWORD PTR s$[rsp], rax

; 324  :                 break;

  00731	e9 10 02 00 00	 jmp	 $LN31@PyBytes_Fr@3
$LN17@PyBytes_Fr@3:

; 325  :             case 's':
; 326  :                 p = va_arg(vargs, char*);

  00736	48 8b 84 24 b8
	00 00 00	 mov	 rax, QWORD PTR vargs$[rsp]
  0073e	48 83 c0 08	 add	 rax, 8
  00742	48 89 84 24 b8
	00 00 00	 mov	 QWORD PTR vargs$[rsp], rax
  0074a	48 8b 84 24 b8
	00 00 00	 mov	 rax, QWORD PTR vargs$[rsp]
  00752	48 8b 40 f8	 mov	 rax, QWORD PTR [rax-8]
  00756	48 89 44 24 58	 mov	 QWORD PTR p$20598[rsp], rax

; 327  :                 i = strlen(p);

  0075b	48 8b 4c 24 58	 mov	 rcx, QWORD PTR p$20598[rsp]
  00760	e8 00 00 00 00	 call	 strlen
  00765	48 89 44 24 68	 mov	 QWORD PTR i$20599[rsp], rax

; 328  :                 if (n > 0 && i > n)

  0076a	48 83 7c 24 28
	00		 cmp	 QWORD PTR n$[rsp], 0
  00770	7e 16		 jle	 SHORT $LN16@PyBytes_Fr@3
  00772	48 8b 44 24 28	 mov	 rax, QWORD PTR n$[rsp]
  00777	48 39 44 24 68	 cmp	 QWORD PTR i$20599[rsp], rax
  0077c	7e 0a		 jle	 SHORT $LN16@PyBytes_Fr@3

; 329  :                     i = n;

  0077e	48 8b 44 24 28	 mov	 rax, QWORD PTR n$[rsp]
  00783	48 89 44 24 68	 mov	 QWORD PTR i$20599[rsp], rax
$LN16@PyBytes_Fr@3:
$LN15@PyBytes_Fr@3:

; 330  :                 Py_MEMCPY(s, p, i);

  00788	48 8b 44 24 68	 mov	 rax, QWORD PTR i$20599[rsp]
  0078d	48 89 84 24 90
	00 00 00	 mov	 QWORD PTR n_$20752[rsp], rax
  00795	48 8b 44 24 30	 mov	 rax, QWORD PTR s$[rsp]
  0079a	48 89 44 24 78	 mov	 QWORD PTR t_$20753[rsp], rax
  0079f	48 8b 44 24 58	 mov	 rax, QWORD PTR p$20598[rsp]
  007a4	48 89 84 24 80
	00 00 00	 mov	 QWORD PTR s_$20755[rsp], rax
  007ac	48 83 bc 24 90
	00 00 00 10	 cmp	 QWORD PTR n_$20752[rsp], 16
  007b5	72 1c		 jb	 SHORT $LN12@PyBytes_Fr@3
  007b7	4c 8b 84 24 90
	00 00 00	 mov	 r8, QWORD PTR n_$20752[rsp]
  007bf	48 8b 94 24 80
	00 00 00	 mov	 rdx, QWORD PTR s_$20755[rsp]
  007c7	48 8b 4c 24 78	 mov	 rcx, QWORD PTR t_$20753[rsp]
  007cc	e8 00 00 00 00	 call	 memcpy
  007d1	eb 63		 jmp	 SHORT $LN11@PyBytes_Fr@3
$LN12@PyBytes_Fr@3:
  007d3	48 c7 84 24 88
	00 00 00 00 00
	00 00		 mov	 QWORD PTR i_$20751[rsp], 0
  007df	eb 13		 jmp	 SHORT $LN10@PyBytes_Fr@3
$LN9@PyBytes_Fr@3:
  007e1	48 8b 84 24 88
	00 00 00	 mov	 rax, QWORD PTR i_$20751[rsp]
  007e9	48 ff c0	 inc	 rax
  007ec	48 89 84 24 88
	00 00 00	 mov	 QWORD PTR i_$20751[rsp], rax
$LN10@PyBytes_Fr@3:
  007f4	48 8b 84 24 90
	00 00 00	 mov	 rax, QWORD PTR n_$20752[rsp]
  007fc	48 39 84 24 88
	00 00 00	 cmp	 QWORD PTR i_$20751[rsp], rax
  00804	73 30		 jae	 SHORT $LN8@PyBytes_Fr@3
  00806	48 8b 84 24 88
	00 00 00	 mov	 rax, QWORD PTR i_$20751[rsp]
  0080e	48 8b 4c 24 78	 mov	 rcx, QWORD PTR t_$20753[rsp]
  00813	48 03 c8	 add	 rcx, rax
  00816	48 8b c1	 mov	 rax, rcx
  00819	48 8b 8c 24 88
	00 00 00	 mov	 rcx, QWORD PTR i_$20751[rsp]
  00821	48 8b 94 24 80
	00 00 00	 mov	 rdx, QWORD PTR s_$20755[rsp]
  00829	48 03 d1	 add	 rdx, rcx
  0082c	48 8b ca	 mov	 rcx, rdx
  0082f	0f b6 09	 movzx	 ecx, BYTE PTR [rcx]
  00832	88 08		 mov	 BYTE PTR [rax], cl
  00834	eb ab		 jmp	 SHORT $LN9@PyBytes_Fr@3
$LN8@PyBytes_Fr@3:
$LN11@PyBytes_Fr@3:
  00836	33 c0		 xor	 eax, eax
  00838	85 c0		 test	 eax, eax
  0083a	0f 85 48 ff ff
	ff		 jne	 $LN15@PyBytes_Fr@3

; 331  :                 s += i;

  00840	48 8b 44 24 68	 mov	 rax, QWORD PTR i$20599[rsp]
  00845	48 8b 4c 24 30	 mov	 rcx, QWORD PTR s$[rsp]
  0084a	48 03 c8	 add	 rcx, rax
  0084d	48 8b c1	 mov	 rax, rcx
  00850	48 89 44 24 30	 mov	 QWORD PTR s$[rsp], rax

; 332  :                 break;

  00855	e9 ec 00 00 00	 jmp	 $LN31@PyBytes_Fr@3
$LN7@PyBytes_Fr@3:

; 333  :             case 'p':
; 334  :                 sprintf(s, "%p", va_arg(vargs, void*));

  0085a	48 8b 84 24 b8
	00 00 00	 mov	 rax, QWORD PTR vargs$[rsp]
  00862	48 83 c0 08	 add	 rax, 8
  00866	48 89 84 24 b8
	00 00 00	 mov	 QWORD PTR vargs$[rsp], rax
  0086e	48 8b 84 24 b8
	00 00 00	 mov	 rax, QWORD PTR vargs$[rsp]
  00876	4c 8b 40 f8	 mov	 r8, QWORD PTR [rax-8]
  0087a	48 8d 15 00 00
	00 00		 lea	 rdx, OFFSET FLAT:??_C@_02BBAHNLBA@?$CFp?$AA@
  00881	48 8b 4c 24 30	 mov	 rcx, QWORD PTR s$[rsp]
  00886	ff 15 00 00 00
	00		 call	 QWORD PTR __imp_sprintf

; 335  :                 /* %p is ill-defined:  ensure leading 0x. */
; 336  :                 if (s[1] == 'X')

  0088c	48 8b 44 24 30	 mov	 rax, QWORD PTR s$[rsp]
  00891	0f be 40 01	 movsx	 eax, BYTE PTR [rax+1]
  00895	83 f8 58	 cmp	 eax, 88			; 00000058H
  00898	75 0b		 jne	 SHORT $LN6@PyBytes_Fr@3

; 337  :                     s[1] = 'x';

  0089a	48 8b 44 24 30	 mov	 rax, QWORD PTR s$[rsp]
  0089f	c6 40 01 78	 mov	 BYTE PTR [rax+1], 120	; 00000078H
  008a3	eb 43		 jmp	 SHORT $LN5@PyBytes_Fr@3
$LN6@PyBytes_Fr@3:

; 338  :                 else if (s[1] != 'x') {

  008a5	48 8b 44 24 30	 mov	 rax, QWORD PTR s$[rsp]
  008aa	0f be 40 01	 movsx	 eax, BYTE PTR [rax+1]
  008ae	83 f8 78	 cmp	 eax, 120		; 00000078H
  008b1	74 35		 je	 SHORT $LN4@PyBytes_Fr@3

; 339  :                     memmove(s+2, s, strlen(s)+1);

  008b3	48 8b 4c 24 30	 mov	 rcx, QWORD PTR s$[rsp]
  008b8	e8 00 00 00 00	 call	 strlen
  008bd	48 ff c0	 inc	 rax
  008c0	48 8b 4c 24 30	 mov	 rcx, QWORD PTR s$[rsp]
  008c5	48 83 c1 02	 add	 rcx, 2
  008c9	4c 8b c0	 mov	 r8, rax
  008cc	48 8b 54 24 30	 mov	 rdx, QWORD PTR s$[rsp]
  008d1	ff 15 00 00 00
	00		 call	 QWORD PTR __imp_memmove

; 340  :                     s[0] = '0';

  008d7	48 8b 44 24 30	 mov	 rax, QWORD PTR s$[rsp]
  008dc	c6 00 30	 mov	 BYTE PTR [rax], 48	; 00000030H

; 341  :                     s[1] = 'x';

  008df	48 8b 44 24 30	 mov	 rax, QWORD PTR s$[rsp]
  008e4	c6 40 01 78	 mov	 BYTE PTR [rax+1], 120	; 00000078H
$LN4@PyBytes_Fr@3:
$LN5@PyBytes_Fr@3:

; 342  :                 }
; 343  :                 s += strlen(s);

  008e8	48 8b 4c 24 30	 mov	 rcx, QWORD PTR s$[rsp]
  008ed	e8 00 00 00 00	 call	 strlen
  008f2	48 8b 4c 24 30	 mov	 rcx, QWORD PTR s$[rsp]
  008f7	48 03 c8	 add	 rcx, rax
  008fa	48 8b c1	 mov	 rax, rcx
  008fd	48 89 44 24 30	 mov	 QWORD PTR s$[rsp], rax

; 344  :                 break;

  00902	eb 42		 jmp	 SHORT $LN31@PyBytes_Fr@3
$LN3@PyBytes_Fr@3:

; 345  :             case '%':
; 346  :                 *s++ = '%';

  00904	48 8b 44 24 30	 mov	 rax, QWORD PTR s$[rsp]
  00909	c6 00 25	 mov	 BYTE PTR [rax], 37	; 00000025H
  0090c	48 8b 44 24 30	 mov	 rax, QWORD PTR s$[rsp]
  00911	48 ff c0	 inc	 rax
  00914	48 89 44 24 30	 mov	 QWORD PTR s$[rsp], rax

; 347  :                 break;

  00919	eb 2b		 jmp	 SHORT $LN31@PyBytes_Fr@3
$LN2@PyBytes_Fr@3:

; 348  :             default:
; 349  :                 strcpy(s, p);

  0091b	48 8b 54 24 58	 mov	 rdx, QWORD PTR p$20598[rsp]
  00920	48 8b 4c 24 30	 mov	 rcx, QWORD PTR s$[rsp]
  00925	e8 00 00 00 00	 call	 strcpy

; 350  :                 s += strlen(s);

  0092a	48 8b 4c 24 30	 mov	 rcx, QWORD PTR s$[rsp]
  0092f	e8 00 00 00 00	 call	 strlen
  00934	48 8b 4c 24 30	 mov	 rcx, QWORD PTR s$[rsp]
  00939	48 03 c8	 add	 rcx, rax
  0093c	48 8b c1	 mov	 rax, rcx
  0093f	48 89 44 24 30	 mov	 QWORD PTR s$[rsp], rax

; 351  :                 goto end;

  00944	eb 23		 jmp	 SHORT $end$20779
$LN31@PyBytes_Fr@3:

; 352  :             }
; 353  :         } else

  00946	eb 1c		 jmp	 SHORT $LN1@PyBytes_Fr@3
$LN44@PyBytes_Fr@3:

; 354  :             *s++ = *f;

  00948	48 8b 44 24 30	 mov	 rax, QWORD PTR s$[rsp]
  0094d	48 8b 4c 24 38	 mov	 rcx, QWORD PTR f$[rsp]
  00952	0f b6 09	 movzx	 ecx, BYTE PTR [rcx]
  00955	88 08		 mov	 BYTE PTR [rax], cl
  00957	48 8b 44 24 30	 mov	 rax, QWORD PTR s$[rsp]
  0095c	48 ff c0	 inc	 rax
  0095f	48 89 44 24 30	 mov	 QWORD PTR s$[rsp], rax
$LN1@PyBytes_Fr@3:

; 355  :     }

  00964	e9 2d f9 ff ff	 jmp	 $LN46@PyBytes_Fr@3
$LN45@PyBytes_Fr@3:
$end$20779:

; 356  : 
; 357  :  end:
; 358  :     _PyBytes_Resize(&string, s - PyBytes_AS_STRING(string));

  00969	48 8b 44 24 40	 mov	 rax, QWORD PTR string$[rsp]
  0096e	48 8b 40 58	 mov	 rax, QWORD PTR [rax+88]
  00972	8b 80 00 01 00
	00		 mov	 eax, DWORD PTR [rax+256]
  00978	25 00 00 00 08	 and	 eax, 134217728		; 08000000H
  0097d	85 c0		 test	 eax, eax
  0097f	75 1c		 jne	 SHORT $LN71@PyBytes_Fr@3
  00981	41 b8 66 01 00
	00		 mov	 r8d, 358		; 00000166H
  00987	48 8d 15 00 00
	00 00		 lea	 rdx, OFFSET FLAT:??_C@_1DC@PIHJIEFM@?$AA?4?$AA?4?$AA?2?$AAO?$AAb?$AAj?$AAe?$AAc?$AAt?$AAs?$AA?2?$AAb?$AAy?$AAt?$AAe?$AAs?$AAo?$AAb?$AAj?$AAe?$AAc?$AAt?$AA?4?$AAc?$AA?$AA@
  0098e	48 8d 0d 00 00
	00 00		 lea	 rcx, OFFSET FLAT:??_C@_1CM@OKCLHEPD@?$AAP?$AAy?$AAB?$AAy?$AAt?$AAe?$AAs?$AA_?$AAC?$AAh?$AAe?$AAc?$AAk?$AA?$CI?$AAs?$AAt?$AAr?$AAi?$AAn?$AAg?$AA?$CJ?$AA?$AA@
  00995	ff 15 00 00 00
	00		 call	 QWORD PTR __imp__wassert
  0099b	33 c0		 xor	 eax, eax
$LN71@PyBytes_Fr@3:
  0099d	48 8b 44 24 40	 mov	 rax, QWORD PTR string$[rsp]
  009a2	48 83 c0 78	 add	 rax, 120		; 00000078H
  009a6	48 8b 4c 24 30	 mov	 rcx, QWORD PTR s$[rsp]
  009ab	48 2b c8	 sub	 rcx, rax
  009ae	48 8b c1	 mov	 rax, rcx
  009b1	48 8b d0	 mov	 rdx, rax
  009b4	48 8d 4c 24 40	 lea	 rcx, QWORD PTR string$[rsp]
  009b9	e8 00 00 00 00	 call	 _PyBytes_Resize

; 359  :     return string;

  009be	48 8b 44 24 40	 mov	 rax, QWORD PTR string$[rsp]
$LN69@PyBytes_Fr@3:

; 360  : }

  009c3	48 81 c4 a8 00
	00 00		 add	 rsp, 168		; 000000a8H
  009ca	c3		 ret	 0
  009cb	90		 npad	 1
$LN75@PyBytes_Fr@3:
  009cc	00 00 00 00	 DD	 $LN54@PyBytes_Fr@3
  009d0	00 00 00 00	 DD	 $LN57@PyBytes_Fr@3
  009d4	00 00 00 00	 DD	 $LN53@PyBytes_Fr@3
  009d8	00 00 00 00	 DD	 $LN51@PyBytes_Fr@3
  009dc	00 00 00 00	 DD	 $LN52@PyBytes_Fr@3
  009e0	00 00 00 00	 DD	 $LN50@PyBytes_Fr@3
$LN74@PyBytes_Fr@3:
  009e4	00		 DB	 0
  009e5	05		 DB	 5
  009e6	05		 DB	 5
  009e7	05		 DB	 5
  009e8	05		 DB	 5
  009e9	05		 DB	 5
  009ea	05		 DB	 5
  009eb	05		 DB	 5
  009ec	05		 DB	 5
  009ed	05		 DB	 5
  009ee	05		 DB	 5
  009ef	05		 DB	 5
  009f0	05		 DB	 5
  009f1	05		 DB	 5
  009f2	05		 DB	 5
  009f3	05		 DB	 5
  009f4	05		 DB	 5
  009f5	05		 DB	 5
  009f6	05		 DB	 5
  009f7	05		 DB	 5
  009f8	05		 DB	 5
  009f9	05		 DB	 5
  009fa	05		 DB	 5
  009fb	05		 DB	 5
  009fc	05		 DB	 5
  009fd	05		 DB	 5
  009fe	05		 DB	 5
  009ff	05		 DB	 5
  00a00	05		 DB	 5
  00a01	05		 DB	 5
  00a02	05		 DB	 5
  00a03	05		 DB	 5
  00a04	05		 DB	 5
  00a05	05		 DB	 5
  00a06	05		 DB	 5
  00a07	05		 DB	 5
  00a08	05		 DB	 5
  00a09	05		 DB	 5
  00a0a	05		 DB	 5
  00a0b	05		 DB	 5
  00a0c	05		 DB	 5
  00a0d	05		 DB	 5
  00a0e	05		 DB	 5
  00a0f	05		 DB	 5
  00a10	05		 DB	 5
  00a11	05		 DB	 5
  00a12	05		 DB	 5
  00a13	05		 DB	 5
  00a14	05		 DB	 5
  00a15	05		 DB	 5
  00a16	05		 DB	 5
  00a17	05		 DB	 5
  00a18	05		 DB	 5
  00a19	05		 DB	 5
  00a1a	05		 DB	 5
  00a1b	05		 DB	 5
  00a1c	05		 DB	 5
  00a1d	05		 DB	 5
  00a1e	05		 DB	 5
  00a1f	05		 DB	 5
  00a20	05		 DB	 5
  00a21	05		 DB	 5
  00a22	01		 DB	 1
  00a23	02		 DB	 2
  00a24	05		 DB	 5
  00a25	05		 DB	 5
  00a26	05		 DB	 5
  00a27	05		 DB	 5
  00a28	02		 DB	 2
  00a29	05		 DB	 5
  00a2a	05		 DB	 5
  00a2b	05		 DB	 5
  00a2c	05		 DB	 5
  00a2d	05		 DB	 5
  00a2e	05		 DB	 5
  00a2f	03		 DB	 3
  00a30	05		 DB	 5
  00a31	05		 DB	 5
  00a32	04		 DB	 4
  00a33	05		 DB	 5
  00a34	02		 DB	 2
  00a35	05		 DB	 5
  00a36	05		 DB	 5
  00a37	02		 DB	 2
$LN73@PyBytes_Fr@3:
  00a38	00 00 00 00	 DD	 $LN3@PyBytes_Fr@3
  00a3c	00 00 00 00	 DD	 $LN30@PyBytes_Fr@3
  00a40	00 00 00 00	 DD	 $LN29@PyBytes_Fr@3
  00a44	00 00 00 00	 DD	 $LN19@PyBytes_Fr@3
  00a48	00 00 00 00	 DD	 $LN7@PyBytes_Fr@3
  00a4c	00 00 00 00	 DD	 $LN17@PyBytes_Fr@3
  00a50	00 00 00 00	 DD	 $LN24@PyBytes_Fr@3
  00a54	00 00 00 00	 DD	 $LN18@PyBytes_Fr@3
  00a58	00 00 00 00	 DD	 $LN2@PyBytes_Fr@3
$LN72@PyBytes_Fr@3:
  00a5c	00		 DB	 0
  00a5d	08		 DB	 8
  00a5e	08		 DB	 8
  00a5f	08		 DB	 8
  00a60	08		 DB	 8
  00a61	08		 DB	 8
  00a62	08		 DB	 8
  00a63	08		 DB	 8
  00a64	08		 DB	 8
  00a65	08		 DB	 8
  00a66	08		 DB	 8
  00a67	08		 DB	 8
  00a68	08		 DB	 8
  00a69	08		 DB	 8
  00a6a	08		 DB	 8
  00a6b	08		 DB	 8
  00a6c	08		 DB	 8
  00a6d	08		 DB	 8
  00a6e	08		 DB	 8
  00a6f	08		 DB	 8
  00a70	08		 DB	 8
  00a71	08		 DB	 8
  00a72	08		 DB	 8
  00a73	08		 DB	 8
  00a74	08		 DB	 8
  00a75	08		 DB	 8
  00a76	08		 DB	 8
  00a77	08		 DB	 8
  00a78	08		 DB	 8
  00a79	08		 DB	 8
  00a7a	08		 DB	 8
  00a7b	08		 DB	 8
  00a7c	08		 DB	 8
  00a7d	08		 DB	 8
  00a7e	08		 DB	 8
  00a7f	08		 DB	 8
  00a80	08		 DB	 8
  00a81	08		 DB	 8
  00a82	08		 DB	 8
  00a83	08		 DB	 8
  00a84	08		 DB	 8
  00a85	08		 DB	 8
  00a86	08		 DB	 8
  00a87	08		 DB	 8
  00a88	08		 DB	 8
  00a89	08		 DB	 8
  00a8a	08		 DB	 8
  00a8b	08		 DB	 8
  00a8c	08		 DB	 8
  00a8d	08		 DB	 8
  00a8e	08		 DB	 8
  00a8f	08		 DB	 8
  00a90	08		 DB	 8
  00a91	08		 DB	 8
  00a92	08		 DB	 8
  00a93	08		 DB	 8
  00a94	08		 DB	 8
  00a95	08		 DB	 8
  00a96	08		 DB	 8
  00a97	08		 DB	 8
  00a98	08		 DB	 8
  00a99	08		 DB	 8
  00a9a	01		 DB	 1
  00a9b	02		 DB	 2
  00a9c	08		 DB	 8
  00a9d	08		 DB	 8
  00a9e	08		 DB	 8
  00a9f	08		 DB	 8
  00aa0	03		 DB	 3
  00aa1	08		 DB	 8
  00aa2	08		 DB	 8
  00aa3	08		 DB	 8
  00aa4	08		 DB	 8
  00aa5	08		 DB	 8
  00aa6	08		 DB	 8
  00aa7	04		 DB	 4
  00aa8	08		 DB	 8
  00aa9	08		 DB	 8
  00aaa	05		 DB	 5
  00aab	08		 DB	 8
  00aac	06		 DB	 6
  00aad	08		 DB	 8
  00aae	08		 DB	 8
  00aaf	07		 DB	 7
PyBytes_FromFormatV ENDP
_TEXT	ENDS
PUBLIC	PyBytes_FromFormat
;	COMDAT pdata
pdata	SEGMENT
$pdata$PyBytes_FromFormat DD imagerel $LN3
	DD	imagerel $LN3+73
	DD	imagerel $unwind$PyBytes_FromFormat
pdata	ENDS
;	COMDAT xdata
xdata	SEGMENT
$unwind$PyBytes_FromFormat DD 011801H
	DD	06218H
; Function compile flags: /Odtp
xdata	ENDS
;	COMDAT PyBytes_FromFormat
_TEXT	SEGMENT
vargs$ = 32
ret$ = 40
format$ = 64
PyBytes_FromFormat PROC					; COMDAT

; 364  : {

$LN3:
  00000	48 89 4c 24 08	 mov	 QWORD PTR [rsp+8], rcx
  00005	48 89 54 24 10	 mov	 QWORD PTR [rsp+16], rdx
  0000a	4c 89 44 24 18	 mov	 QWORD PTR [rsp+24], r8
  0000f	4c 89 4c 24 20	 mov	 QWORD PTR [rsp+32], r9
  00014	48 83 ec 38	 sub	 rsp, 56			; 00000038H

; 365  :     PyObject* ret;
; 366  :     va_list vargs;
; 367  : 
; 368  : #ifdef HAVE_STDARG_PROTOTYPES
; 369  :     va_start(vargs, format);

  00018	48 8d 44 24 48	 lea	 rax, QWORD PTR format$[rsp+8]
  0001d	48 89 44 24 20	 mov	 QWORD PTR vargs$[rsp], rax

; 370  : #else
; 371  :     va_start(vargs);
; 372  : #endif
; 373  :     ret = PyBytes_FromFormatV(format, vargs);

  00022	48 8b 54 24 20	 mov	 rdx, QWORD PTR vargs$[rsp]
  00027	48 8b 4c 24 40	 mov	 rcx, QWORD PTR format$[rsp]
  0002c	e8 00 00 00 00	 call	 PyBytes_FromFormatV
  00031	48 89 44 24 28	 mov	 QWORD PTR ret$[rsp], rax

; 374  :     va_end(vargs);

  00036	48 c7 44 24 20
	00 00 00 00	 mov	 QWORD PTR vargs$[rsp], 0

; 375  :     return ret;

  0003f	48 8b 44 24 28	 mov	 rax, QWORD PTR ret$[rsp]

; 376  : }

  00044	48 83 c4 38	 add	 rsp, 56			; 00000038H
  00048	c3		 ret	 0
PyBytes_FromFormat ENDP
_TEXT	ENDS
;	COMDAT pdata
pdata	SEGMENT
$pdata$bytes_dealloc DD imagerel bytes_dealloc
	DD	imagerel bytes_dealloc+34
	DD	imagerel $unwind$bytes_dealloc
pdata	ENDS
;	COMDAT xdata
xdata	SEGMENT
$unwind$bytes_dealloc DD 010901H
	DD	04209H
; Function compile flags: /Odtp
xdata	ENDS
;	COMDAT bytes_dealloc
_TEXT	SEGMENT
op$ = 48
bytes_dealloc PROC					; COMDAT

; 380  : {

  00000	48 89 4c 24 08	 mov	 QWORD PTR [rsp+8], rcx
  00005	48 83 ec 28	 sub	 rsp, 40			; 00000028H

; 381  :     Py_TYPE(op)->tp_free(op);

  00009	48 8b 44 24 30	 mov	 rax, QWORD PTR op$[rsp]
  0000e	48 8b 40 58	 mov	 rax, QWORD PTR [rax+88]
  00012	48 8b 4c 24 30	 mov	 rcx, QWORD PTR op$[rsp]
  00017	ff 90 98 01 00
	00		 call	 QWORD PTR [rax+408]

; 382  : }

  0001d	48 83 c4 28	 add	 rsp, 40			; 00000028H
  00021	c3		 ret	 0
bytes_dealloc ENDP
_TEXT	ENDS
PUBLIC	??_C@_0DE@GCJJKEKA@decoding?5error?$DL?5unknown?5error?5ha@ ; `string'
PUBLIC	??_C@_06GDPEBLPA@ignore?$AA@			; `string'
PUBLIC	??_C@_0CB@MDFFHBMF@invalid?5?2x?5escape?5at?5position?5?$CFd@ ; `string'
PUBLIC	??_C@_06OLFOGHEN@strict?$AA@			; `string'
PUBLIC	??_C@_0BF@FNHLBDLO@Trailing?5?2?5in?5string?$AA@ ; `string'
PUBLIC	??_C@_1CC@GEFILGEM@?$AAP?$AAy?$AAB?$AAy?$AAt?$AAe?$AAs?$AA_?$AAC?$AAh?$AAe?$AAc?$AAk?$AA?$CI?$AAw?$AA?$CJ?$AA?$AA@ ; `string'
PUBLIC	_Py_DecRef
PUBLIC	PyBytes_DecodeEscape
EXTRN	PyErr_Format:PROC
EXTRN	strcmp:PROC
EXTRN	PyExc_ValueError:QWORD
EXTRN	PyUnicode_AsEncodedString:PROC
EXTRN	PyUnicode_DecodeUTF8:PROC
;	COMDAT pdata
pdata	SEGMENT
$pdata$PyBytes_DecodeEscape DD imagerel $LN65
	DD	imagerel $LN65+2623
	DD	imagerel $unwind$PyBytes_DecodeEscape
pdata	ENDS
;	COMDAT xdata
xdata	SEGMENT
$unwind$PyBytes_DecodeEscape DD 021b01H
	DD	017011bH
xdata	ENDS
;	COMDAT ??_C@_0DE@GCJJKEKA@decoding?5error?$DL?5unknown?5error?5ha@
CONST	SEGMENT
??_C@_0DE@GCJJKEKA@decoding?5error?$DL?5unknown?5error?5ha@ DB 'decoding '
	DB	'error; unknown error handling code: %.400s', 00H ; `string'
CONST	ENDS
;	COMDAT ??_C@_06GDPEBLPA@ignore?$AA@
CONST	SEGMENT
??_C@_06GDPEBLPA@ignore?$AA@ DB 'ignore', 00H		; `string'
CONST	ENDS
;	COMDAT ??_C@_0CB@MDFFHBMF@invalid?5?2x?5escape?5at?5position?5?$CFd@
CONST	SEGMENT
??_C@_0CB@MDFFHBMF@invalid?5?2x?5escape?5at?5position?5?$CFd@ DB 'invalid'
	DB	' \x escape at position %d', 00H		; `string'
CONST	ENDS
;	COMDAT ??_C@_06OLFOGHEN@strict?$AA@
CONST	SEGMENT
??_C@_06OLFOGHEN@strict?$AA@ DB 'strict', 00H		; `string'
CONST	ENDS
;	COMDAT ??_C@_0BF@FNHLBDLO@Trailing?5?2?5in?5string?$AA@
CONST	SEGMENT
??_C@_0BF@FNHLBDLO@Trailing?5?2?5in?5string?$AA@ DB 'Trailing \ in string'
	DB	00H						; `string'
CONST	ENDS
;	COMDAT ??_C@_1CC@GEFILGEM@?$AAP?$AAy?$AAB?$AAy?$AAt?$AAe?$AAs?$AA_?$AAC?$AAh?$AAe?$AAc?$AAk?$AA?$CI?$AAw?$AA?$CJ?$AA?$AA@
CONST	SEGMENT
??_C@_1CC@GEFILGEM@?$AAP?$AAy?$AAB?$AAy?$AAt?$AAe?$AAs?$AA_?$AAC?$AAh?$AAe?$AAc?$AAk?$AA?$CI?$AAw?$AA?$CJ?$AA?$AA@ DB 'P'
	DB	00H, 'y', 00H, 'B', 00H, 'y', 00H, 't', 00H, 'e', 00H, 's', 00H
	DB	'_', 00H, 'C', 00H, 'h', 00H, 'e', 00H, 'c', 00H, 'k', 00H, '('
	DB	00H, 'w', 00H, ')', 00H, 00H, 00H		; `string'
; Function compile flags: /Odtp
CONST	ENDS
;	COMDAT PyBytes_DecodeEscape
_TEXT	SEGMENT
p$ = 32
v$ = 40
newlen$ = 48
end$ = 56
buf$ = 64
c$ = 72
w$20826 = 80
u$20825 = 88
rn$20829 = 96
r$20827 = 104
t$20828 = 112
t_$20851 = 120
s_$20853 = 128
i_$20849 = 136
n_$20850 = 144
x$20886 = 152
tv66 = 160
tv175 = 168
tv176 = 172
s$ = 192
len$ = 200
errors$ = 208
unicode$ = 216
recode_encoding$ = 224
PyBytes_DecodeEscape PROC				; COMDAT

; 394  : {

$LN65:
  00000	4c 89 4c 24 20	 mov	 QWORD PTR [rsp+32], r9
  00005	4c 89 44 24 18	 mov	 QWORD PTR [rsp+24], r8
  0000a	48 89 54 24 10	 mov	 QWORD PTR [rsp+16], rdx
  0000f	48 89 4c 24 08	 mov	 QWORD PTR [rsp+8], rcx
  00014	48 81 ec b8 00
	00 00		 sub	 rsp, 184		; 000000b8H

; 395  :     int c;
; 396  :     char *p, *buf;
; 397  :     const char *end;
; 398  :     PyObject *v;
; 399  :     Py_ssize_t newlen = recode_encoding ? 4*len:len;

  0001b	48 83 bc 24 e0
	00 00 00 00	 cmp	 QWORD PTR recode_encoding$[rsp], 0
  00024	74 16		 je	 SHORT $LN57@PyBytes_De
  00026	48 8b 84 24 c8
	00 00 00	 mov	 rax, QWORD PTR len$[rsp]
  0002e	48 c1 e0 02	 shl	 rax, 2
  00032	48 89 84 24 a0
	00 00 00	 mov	 QWORD PTR tv66[rsp], rax
  0003a	eb 10		 jmp	 SHORT $LN58@PyBytes_De
$LN57@PyBytes_De:
  0003c	48 8b 84 24 c8
	00 00 00	 mov	 rax, QWORD PTR len$[rsp]
  00044	48 89 84 24 a0
	00 00 00	 mov	 QWORD PTR tv66[rsp], rax
$LN58@PyBytes_De:
  0004c	48 8b 84 24 a0
	00 00 00	 mov	 rax, QWORD PTR tv66[rsp]
  00054	48 89 44 24 30	 mov	 QWORD PTR newlen$[rsp], rax

; 400  :     v = PyBytes_FromStringAndSize((char *)NULL, newlen);

  00059	48 8b 54 24 30	 mov	 rdx, QWORD PTR newlen$[rsp]
  0005e	33 c9		 xor	 ecx, ecx
  00060	e8 00 00 00 00	 call	 PyBytes_FromStringAndSize
  00065	48 89 44 24 28	 mov	 QWORD PTR v$[rsp], rax

; 401  :     if (v == NULL)

  0006a	48 83 7c 24 28
	00		 cmp	 QWORD PTR v$[rsp], 0
  00070	75 07		 jne	 SHORT $LN54@PyBytes_De

; 402  :         return NULL;

  00072	33 c0		 xor	 eax, eax
  00074	e9 14 09 00 00	 jmp	 $LN55@PyBytes_De
$LN54@PyBytes_De:

; 403  :     p = buf = PyBytes_AsString(v);

  00079	48 8b 4c 24 28	 mov	 rcx, QWORD PTR v$[rsp]
  0007e	e8 00 00 00 00	 call	 PyBytes_AsString
  00083	48 89 44 24 40	 mov	 QWORD PTR buf$[rsp], rax
  00088	48 8b 44 24 40	 mov	 rax, QWORD PTR buf$[rsp]
  0008d	48 89 44 24 20	 mov	 QWORD PTR p$[rsp], rax

; 404  :     end = s + len;

  00092	48 8b 84 24 c8
	00 00 00	 mov	 rax, QWORD PTR len$[rsp]
  0009a	48 8b 8c 24 c0
	00 00 00	 mov	 rcx, QWORD PTR s$[rsp]
  000a2	48 03 c8	 add	 rcx, rax
  000a5	48 8b c1	 mov	 rax, rcx
  000a8	48 89 44 24 38	 mov	 QWORD PTR end$[rsp], rax
$LN62@PyBytes_De:
$LN53@PyBytes_De:

; 405  :     while (s < end) {

  000ad	48 8b 44 24 38	 mov	 rax, QWORD PTR end$[rsp]
  000b2	48 39 84 24 c0
	00 00 00	 cmp	 QWORD PTR s$[rsp], rax
  000ba	0f 83 86 08 00
	00		 jae	 $LN52@PyBytes_De

; 406  :         if (*s != '\\') {

  000c0	48 8b 84 24 c0
	00 00 00	 mov	 rax, QWORD PTR s$[rsp]
  000c8	0f be 00	 movsx	 eax, BYTE PTR [rax]
  000cb	83 f8 5c	 cmp	 eax, 92			; 0000005cH
  000ce	0f 84 a8 02 00
	00		 je	 $LN51@PyBytes_De
$non_esc$20823:

; 407  :           non_esc:
; 408  :             if (recode_encoding && (*s & 0x80)) {

  000d4	48 83 bc 24 e0
	00 00 00 00	 cmp	 QWORD PTR recode_encoding$[rsp], 0
  000dd	0f 84 62 02 00
	00		 je	 $LN50@PyBytes_De
  000e3	48 8b 84 24 c0
	00 00 00	 mov	 rax, QWORD PTR s$[rsp]
  000eb	0f be 00	 movsx	 eax, BYTE PTR [rax]
  000ee	25 80 00 00 00	 and	 eax, 128		; 00000080H
  000f3	85 c0		 test	 eax, eax
  000f5	0f 84 4a 02 00
	00		 je	 $LN50@PyBytes_De

; 409  :                 PyObject *u, *w;
; 410  :                 char *r;
; 411  :                 const char* t;
; 412  :                 Py_ssize_t rn;
; 413  :                 t = s;

  000fb	48 8b 84 24 c0
	00 00 00	 mov	 rax, QWORD PTR s$[rsp]
  00103	48 89 44 24 70	 mov	 QWORD PTR t$20828[rsp], rax
$LN49@PyBytes_De:

; 414  :                 /* Decode non-ASCII bytes as UTF-8. */
; 415  :                 while (t < end && (*t & 0x80)) t++;

  00108	48 8b 44 24 38	 mov	 rax, QWORD PTR end$[rsp]
  0010d	48 39 44 24 70	 cmp	 QWORD PTR t$20828[rsp], rax
  00112	73 20		 jae	 SHORT $LN48@PyBytes_De
  00114	48 8b 44 24 70	 mov	 rax, QWORD PTR t$20828[rsp]
  00119	0f be 00	 movsx	 eax, BYTE PTR [rax]
  0011c	25 80 00 00 00	 and	 eax, 128		; 00000080H
  00121	85 c0		 test	 eax, eax
  00123	74 0f		 je	 SHORT $LN48@PyBytes_De
  00125	48 8b 44 24 70	 mov	 rax, QWORD PTR t$20828[rsp]
  0012a	48 ff c0	 inc	 rax
  0012d	48 89 44 24 70	 mov	 QWORD PTR t$20828[rsp], rax
  00132	eb d4		 jmp	 SHORT $LN49@PyBytes_De
$LN48@PyBytes_De:

; 416  :                 u = PyUnicode_DecodeUTF8(s, t - s, errors);

  00134	48 8b 84 24 c0
	00 00 00	 mov	 rax, QWORD PTR s$[rsp]
  0013c	48 8b 4c 24 70	 mov	 rcx, QWORD PTR t$20828[rsp]
  00141	48 2b c8	 sub	 rcx, rax
  00144	48 8b c1	 mov	 rax, rcx
  00147	4c 8b 84 24 d0
	00 00 00	 mov	 r8, QWORD PTR errors$[rsp]
  0014f	48 8b d0	 mov	 rdx, rax
  00152	48 8b 8c 24 c0
	00 00 00	 mov	 rcx, QWORD PTR s$[rsp]
  0015a	e8 00 00 00 00	 call	 PyUnicode_DecodeUTF8
  0015f	48 89 44 24 58	 mov	 QWORD PTR u$20825[rsp], rax

; 417  :                 if(!u) goto failed;

  00164	48 83 7c 24 58
	00		 cmp	 QWORD PTR u$20825[rsp], 0
  0016a	75 05		 jne	 SHORT $LN47@PyBytes_De
  0016c	e9 10 08 00 00	 jmp	 $failed$20834
$LN47@PyBytes_De:

; 418  : 
; 419  :                 /* Recode them in target encoding. */
; 420  :                 w = PyUnicode_AsEncodedString(
; 421  :                     u, recode_encoding, errors);

  00171	4c 8b 84 24 d0
	00 00 00	 mov	 r8, QWORD PTR errors$[rsp]
  00179	48 8b 94 24 e0
	00 00 00	 mov	 rdx, QWORD PTR recode_encoding$[rsp]
  00181	48 8b 4c 24 58	 mov	 rcx, QWORD PTR u$20825[rsp]
  00186	e8 00 00 00 00	 call	 PyUnicode_AsEncodedString
  0018b	48 89 44 24 50	 mov	 QWORD PTR w$20826[rsp], rax

; 422  :                 Py_DECREF(u);

  00190	48 8b 4c 24 58	 mov	 rcx, QWORD PTR u$20825[rsp]
  00195	e8 00 00 00 00	 call	 _Py_DecRef

; 423  :                 if (!w)                 goto failed;

  0019a	48 83 7c 24 50
	00		 cmp	 QWORD PTR w$20826[rsp], 0
  001a0	75 05		 jne	 SHORT $LN46@PyBytes_De
  001a2	e9 da 07 00 00	 jmp	 $failed$20834
$LN46@PyBytes_De:

; 424  : 
; 425  :                 /* Append bytes to output buffer. */
; 426  :                 assert(PyBytes_Check(w));

  001a7	48 8b 44 24 50	 mov	 rax, QWORD PTR w$20826[rsp]
  001ac	48 8b 40 58	 mov	 rax, QWORD PTR [rax+88]
  001b0	8b 80 00 01 00
	00		 mov	 eax, DWORD PTR [rax+256]
  001b6	25 00 00 00 08	 and	 eax, 134217728		; 08000000H
  001bb	85 c0		 test	 eax, eax
  001bd	75 1c		 jne	 SHORT $LN59@PyBytes_De
  001bf	41 b8 aa 01 00
	00		 mov	 r8d, 426		; 000001aaH
  001c5	48 8d 15 00 00
	00 00		 lea	 rdx, OFFSET FLAT:??_C@_1DC@PIHJIEFM@?$AA?4?$AA?4?$AA?2?$AAO?$AAb?$AAj?$AAe?$AAc?$AAt?$AAs?$AA?2?$AAb?$AAy?$AAt?$AAe?$AAs?$AAo?$AAb?$AAj?$AAe?$AAc?$AAt?$AA?4?$AAc?$AA?$AA@
  001cc	48 8d 0d 00 00
	00 00		 lea	 rcx, OFFSET FLAT:??_C@_1CC@GEFILGEM@?$AAP?$AAy?$AAB?$AAy?$AAt?$AAe?$AAs?$AA_?$AAC?$AAh?$AAe?$AAc?$AAk?$AA?$CI?$AAw?$AA?$CJ?$AA?$AA@
  001d3	ff 15 00 00 00
	00		 call	 QWORD PTR __imp__wassert
  001d9	33 c0		 xor	 eax, eax
$LN59@PyBytes_De:

; 427  :                 r = PyBytes_AS_STRING(w);

  001db	48 8b 44 24 50	 mov	 rax, QWORD PTR w$20826[rsp]
  001e0	48 8b 40 58	 mov	 rax, QWORD PTR [rax+88]
  001e4	8b 80 00 01 00
	00		 mov	 eax, DWORD PTR [rax+256]
  001ea	25 00 00 00 08	 and	 eax, 134217728		; 08000000H
  001ef	85 c0		 test	 eax, eax
  001f1	75 1c		 jne	 SHORT $LN60@PyBytes_De
  001f3	41 b8 ab 01 00
	00		 mov	 r8d, 427		; 000001abH
  001f9	48 8d 15 00 00
	00 00		 lea	 rdx, OFFSET FLAT:??_C@_1DC@PIHJIEFM@?$AA?4?$AA?4?$AA?2?$AAO?$AAb?$AAj?$AAe?$AAc?$AAt?$AAs?$AA?2?$AAb?$AAy?$AAt?$AAe?$AAs?$AAo?$AAb?$AAj?$AAe?$AAc?$AAt?$AA?4?$AAc?$AA?$AA@
  00200	48 8d 0d 00 00
	00 00		 lea	 rcx, OFFSET FLAT:??_C@_1CC@GEFILGEM@?$AAP?$AAy?$AAB?$AAy?$AAt?$AAe?$AAs?$AA_?$AAC?$AAh?$AAe?$AAc?$AAk?$AA?$CI?$AAw?$AA?$CJ?$AA?$AA@
  00207	ff 15 00 00 00
	00		 call	 QWORD PTR __imp__wassert
  0020d	33 c0		 xor	 eax, eax
$LN60@PyBytes_De:
  0020f	48 8b 44 24 50	 mov	 rax, QWORD PTR w$20826[rsp]
  00214	48 83 c0 78	 add	 rax, 120		; 00000078H
  00218	48 89 44 24 68	 mov	 QWORD PTR r$20827[rsp], rax

; 428  :                 rn = PyBytes_GET_SIZE(w);

  0021d	48 8b 44 24 50	 mov	 rax, QWORD PTR w$20826[rsp]
  00222	48 8b 40 58	 mov	 rax, QWORD PTR [rax+88]
  00226	8b 80 00 01 00
	00		 mov	 eax, DWORD PTR [rax+256]
  0022c	25 00 00 00 08	 and	 eax, 134217728		; 08000000H
  00231	85 c0		 test	 eax, eax
  00233	75 1c		 jne	 SHORT $LN61@PyBytes_De
  00235	41 b8 ac 01 00
	00		 mov	 r8d, 428		; 000001acH
  0023b	48 8d 15 00 00
	00 00		 lea	 rdx, OFFSET FLAT:??_C@_1DC@PIHJIEFM@?$AA?4?$AA?4?$AA?2?$AAO?$AAb?$AAj?$AAe?$AAc?$AAt?$AAs?$AA?2?$AAb?$AAy?$AAt?$AAe?$AAs?$AAo?$AAb?$AAj?$AAe?$AAc?$AAt?$AA?4?$AAc?$AA?$AA@
  00242	48 8d 0d 00 00
	00 00		 lea	 rcx, OFFSET FLAT:??_C@_1CC@GEFILGEM@?$AAP?$AAy?$AAB?$AAy?$AAt?$AAe?$AAs?$AA_?$AAC?$AAh?$AAe?$AAc?$AAk?$AA?$CI?$AAw?$AA?$CJ?$AA?$AA@
  00249	ff 15 00 00 00
	00		 call	 QWORD PTR __imp__wassert
  0024f	33 c0		 xor	 eax, eax
$LN61@PyBytes_De:
  00251	48 8b 44 24 50	 mov	 rax, QWORD PTR w$20826[rsp]
  00256	48 8b 40 60	 mov	 rax, QWORD PTR [rax+96]
  0025a	48 89 44 24 60	 mov	 QWORD PTR rn$20829[rsp], rax
$LN45@PyBytes_De:

; 429  :                 Py_MEMCPY(p, r, rn);

  0025f	48 8b 44 24 60	 mov	 rax, QWORD PTR rn$20829[rsp]
  00264	48 89 84 24 90
	00 00 00	 mov	 QWORD PTR n_$20850[rsp], rax
  0026c	48 8b 44 24 20	 mov	 rax, QWORD PTR p$[rsp]
  00271	48 89 44 24 78	 mov	 QWORD PTR t_$20851[rsp], rax
  00276	48 8b 44 24 68	 mov	 rax, QWORD PTR r$20827[rsp]
  0027b	48 89 84 24 80
	00 00 00	 mov	 QWORD PTR s_$20853[rsp], rax
  00283	48 83 bc 24 90
	00 00 00 10	 cmp	 QWORD PTR n_$20850[rsp], 16
  0028c	72 1c		 jb	 SHORT $LN42@PyBytes_De
  0028e	4c 8b 84 24 90
	00 00 00	 mov	 r8, QWORD PTR n_$20850[rsp]
  00296	48 8b 94 24 80
	00 00 00	 mov	 rdx, QWORD PTR s_$20853[rsp]
  0029e	48 8b 4c 24 78	 mov	 rcx, QWORD PTR t_$20851[rsp]
  002a3	e8 00 00 00 00	 call	 memcpy
  002a8	eb 63		 jmp	 SHORT $LN41@PyBytes_De
$LN42@PyBytes_De:
  002aa	48 c7 84 24 88
	00 00 00 00 00
	00 00		 mov	 QWORD PTR i_$20849[rsp], 0
  002b6	eb 13		 jmp	 SHORT $LN40@PyBytes_De
$LN39@PyBytes_De:
  002b8	48 8b 84 24 88
	00 00 00	 mov	 rax, QWORD PTR i_$20849[rsp]
  002c0	48 ff c0	 inc	 rax
  002c3	48 89 84 24 88
	00 00 00	 mov	 QWORD PTR i_$20849[rsp], rax
$LN40@PyBytes_De:
  002cb	48 8b 84 24 90
	00 00 00	 mov	 rax, QWORD PTR n_$20850[rsp]
  002d3	48 39 84 24 88
	00 00 00	 cmp	 QWORD PTR i_$20849[rsp], rax
  002db	73 30		 jae	 SHORT $LN38@PyBytes_De
  002dd	48 8b 84 24 88
	00 00 00	 mov	 rax, QWORD PTR i_$20849[rsp]
  002e5	48 8b 4c 24 78	 mov	 rcx, QWORD PTR t_$20851[rsp]
  002ea	48 03 c8	 add	 rcx, rax
  002ed	48 8b c1	 mov	 rax, rcx
  002f0	48 8b 8c 24 88
	00 00 00	 mov	 rcx, QWORD PTR i_$20849[rsp]
  002f8	48 8b 94 24 80
	00 00 00	 mov	 rdx, QWORD PTR s_$20853[rsp]
  00300	48 03 d1	 add	 rdx, rcx
  00303	48 8b ca	 mov	 rcx, rdx
  00306	0f b6 09	 movzx	 ecx, BYTE PTR [rcx]
  00309	88 08		 mov	 BYTE PTR [rax], cl
  0030b	eb ab		 jmp	 SHORT $LN39@PyBytes_De
$LN38@PyBytes_De:
$LN41@PyBytes_De:
  0030d	33 c0		 xor	 eax, eax
  0030f	85 c0		 test	 eax, eax
  00311	0f 85 48 ff ff
	ff		 jne	 $LN45@PyBytes_De

; 430  :                 p += rn;

  00317	48 8b 44 24 60	 mov	 rax, QWORD PTR rn$20829[rsp]
  0031c	48 8b 4c 24 20	 mov	 rcx, QWORD PTR p$[rsp]
  00321	48 03 c8	 add	 rcx, rax
  00324	48 8b c1	 mov	 rax, rcx
  00327	48 89 44 24 20	 mov	 QWORD PTR p$[rsp], rax

; 431  :                 Py_DECREF(w);

  0032c	48 8b 4c 24 50	 mov	 rcx, QWORD PTR w$20826[rsp]
  00331	e8 00 00 00 00	 call	 _Py_DecRef

; 432  :                 s = t;

  00336	48 8b 44 24 70	 mov	 rax, QWORD PTR t$20828[rsp]
  0033b	48 89 84 24 c0
	00 00 00	 mov	 QWORD PTR s$[rsp], rax

; 433  :             } else {

  00343	eb 32		 jmp	 SHORT $LN37@PyBytes_De
$LN50@PyBytes_De:

; 434  :                 *p++ = *s++;

  00345	48 8b 44 24 20	 mov	 rax, QWORD PTR p$[rsp]
  0034a	48 8b 8c 24 c0
	00 00 00	 mov	 rcx, QWORD PTR s$[rsp]
  00352	0f b6 09	 movzx	 ecx, BYTE PTR [rcx]
  00355	88 08		 mov	 BYTE PTR [rax], cl
  00357	48 8b 44 24 20	 mov	 rax, QWORD PTR p$[rsp]
  0035c	48 ff c0	 inc	 rax
  0035f	48 89 44 24 20	 mov	 QWORD PTR p$[rsp], rax
  00364	48 8b 84 24 c0
	00 00 00	 mov	 rax, QWORD PTR s$[rsp]
  0036c	48 ff c0	 inc	 rax
  0036f	48 89 84 24 c0
	00 00 00	 mov	 QWORD PTR s$[rsp], rax
$LN37@PyBytes_De:

; 435  :             }
; 436  :             continue;

  00377	e9 31 fd ff ff	 jmp	 $LN53@PyBytes_De
$LN51@PyBytes_De:

; 437  :         }
; 438  :         s++;

  0037c	48 8b 84 24 c0
	00 00 00	 mov	 rax, QWORD PTR s$[rsp]
  00384	48 ff c0	 inc	 rax
  00387	48 89 84 24 c0
	00 00 00	 mov	 QWORD PTR s$[rsp], rax

; 439  :         if (s==end) {

  0038f	48 8b 44 24 38	 mov	 rax, QWORD PTR end$[rsp]
  00394	48 39 84 24 c0
	00 00 00	 cmp	 QWORD PTR s$[rsp], rax
  0039c	75 18		 jne	 SHORT $LN36@PyBytes_De

; 440  :             PyErr_SetString(PyExc_ValueError,
; 441  :                             "Trailing \\ in string");

  0039e	48 8d 15 00 00
	00 00		 lea	 rdx, OFFSET FLAT:??_C@_0BF@FNHLBDLO@Trailing?5?2?5in?5string?$AA@
  003a5	48 8b 0d 00 00
	00 00		 mov	 rcx, QWORD PTR PyExc_ValueError
  003ac	e8 00 00 00 00	 call	 PyErr_SetString

; 442  :             goto failed;

  003b1	e9 cb 05 00 00	 jmp	 $failed$20834
$LN36@PyBytes_De:

; 443  :         }
; 444  :         switch (*s++) {

  003b6	48 8b 84 24 c0
	00 00 00	 mov	 rax, QWORD PTR s$[rsp]
  003be	0f be 00	 movsx	 eax, BYTE PTR [rax]
  003c1	89 84 24 a8 00
	00 00		 mov	 DWORD PTR tv175[rsp], eax
  003c8	48 8b 84 24 c0
	00 00 00	 mov	 rax, QWORD PTR s$[rsp]
  003d0	48 ff c0	 inc	 rax
  003d3	48 89 84 24 c0
	00 00 00	 mov	 QWORD PTR s$[rsp], rax
  003db	8b 84 24 a8 00
	00 00		 mov	 eax, DWORD PTR tv175[rsp]
  003e2	89 84 24 ac 00
	00 00		 mov	 DWORD PTR tv176[rsp], eax
  003e9	8b 84 24 ac 00
	00 00		 mov	 eax, DWORD PTR tv176[rsp]
  003f0	83 e8 0a	 sub	 eax, 10
  003f3	89 84 24 ac 00
	00 00		 mov	 DWORD PTR tv176[rsp], eax
  003fa	83 bc 24 ac 00
	00 00 6e	 cmp	 DWORD PTR tv176[rsp], 110 ; 0000006eH
  00402	0f 87 0c 05 00
	00		 ja	 $LN2@PyBytes_De
  00408	48 63 84 24 ac
	00 00 00	 movsxd	 rax, DWORD PTR tv176[rsp]
  00410	48 8d 0d 00 00
	00 00		 lea	 rcx, OFFSET FLAT:__ImageBase
  00417	0f b6 84 01 00
	00 00 00	 movzx	 eax, BYTE PTR $LN63@PyBytes_De[rcx+rax]
  0041f	8b 84 81 00 00
	00 00		 mov	 eax, DWORD PTR $LN64@PyBytes_De[rcx+rax*4]
  00426	48 03 c1	 add	 rax, rcx
  00429	ff e0		 jmp	 rax
$LN33@PyBytes_De:

; 445  :         /* XXX This assumes ASCII! */
; 446  :         case '\n': break;

  0042b	e9 11 05 00 00	 jmp	 $LN34@PyBytes_De
$LN32@PyBytes_De:

; 447  :         case '\\': *p++ = '\\'; break;

  00430	48 8b 44 24 20	 mov	 rax, QWORD PTR p$[rsp]
  00435	c6 00 5c	 mov	 BYTE PTR [rax], 92	; 0000005cH
  00438	48 8b 44 24 20	 mov	 rax, QWORD PTR p$[rsp]
  0043d	48 ff c0	 inc	 rax
  00440	48 89 44 24 20	 mov	 QWORD PTR p$[rsp], rax
  00445	e9 f7 04 00 00	 jmp	 $LN34@PyBytes_De
$LN31@PyBytes_De:

; 448  :         case '\'': *p++ = '\''; break;

  0044a	48 8b 44 24 20	 mov	 rax, QWORD PTR p$[rsp]
  0044f	c6 00 27	 mov	 BYTE PTR [rax], 39	; 00000027H
  00452	48 8b 44 24 20	 mov	 rax, QWORD PTR p$[rsp]
  00457	48 ff c0	 inc	 rax
  0045a	48 89 44 24 20	 mov	 QWORD PTR p$[rsp], rax
  0045f	e9 dd 04 00 00	 jmp	 $LN34@PyBytes_De
$LN30@PyBytes_De:

; 449  :         case '\"': *p++ = '\"'; break;

  00464	48 8b 44 24 20	 mov	 rax, QWORD PTR p$[rsp]
  00469	c6 00 22	 mov	 BYTE PTR [rax], 34	; 00000022H
  0046c	48 8b 44 24 20	 mov	 rax, QWORD PTR p$[rsp]
  00471	48 ff c0	 inc	 rax
  00474	48 89 44 24 20	 mov	 QWORD PTR p$[rsp], rax
  00479	e9 c3 04 00 00	 jmp	 $LN34@PyBytes_De
$LN29@PyBytes_De:

; 450  :         case 'b': *p++ = '\b'; break;

  0047e	48 8b 44 24 20	 mov	 rax, QWORD PTR p$[rsp]
  00483	c6 00 08	 mov	 BYTE PTR [rax], 8
  00486	48 8b 44 24 20	 mov	 rax, QWORD PTR p$[rsp]
  0048b	48 ff c0	 inc	 rax
  0048e	48 89 44 24 20	 mov	 QWORD PTR p$[rsp], rax
  00493	e9 a9 04 00 00	 jmp	 $LN34@PyBytes_De
$LN28@PyBytes_De:

; 451  :         case 'f': *p++ = '\014'; break; /* FF */

  00498	48 8b 44 24 20	 mov	 rax, QWORD PTR p$[rsp]
  0049d	c6 00 0c	 mov	 BYTE PTR [rax], 12
  004a0	48 8b 44 24 20	 mov	 rax, QWORD PTR p$[rsp]
  004a5	48 ff c0	 inc	 rax
  004a8	48 89 44 24 20	 mov	 QWORD PTR p$[rsp], rax
  004ad	e9 8f 04 00 00	 jmp	 $LN34@PyBytes_De
$LN27@PyBytes_De:

; 452  :         case 't': *p++ = '\t'; break;

  004b2	48 8b 44 24 20	 mov	 rax, QWORD PTR p$[rsp]
  004b7	c6 00 09	 mov	 BYTE PTR [rax], 9
  004ba	48 8b 44 24 20	 mov	 rax, QWORD PTR p$[rsp]
  004bf	48 ff c0	 inc	 rax
  004c2	48 89 44 24 20	 mov	 QWORD PTR p$[rsp], rax
  004c7	e9 75 04 00 00	 jmp	 $LN34@PyBytes_De
$LN26@PyBytes_De:

; 453  :         case 'n': *p++ = '\n'; break;

  004cc	48 8b 44 24 20	 mov	 rax, QWORD PTR p$[rsp]
  004d1	c6 00 0a	 mov	 BYTE PTR [rax], 10
  004d4	48 8b 44 24 20	 mov	 rax, QWORD PTR p$[rsp]
  004d9	48 ff c0	 inc	 rax
  004dc	48 89 44 24 20	 mov	 QWORD PTR p$[rsp], rax
  004e1	e9 5b 04 00 00	 jmp	 $LN34@PyBytes_De
$LN25@PyBytes_De:

; 454  :         case 'r': *p++ = '\r'; break;

  004e6	48 8b 44 24 20	 mov	 rax, QWORD PTR p$[rsp]
  004eb	c6 00 0d	 mov	 BYTE PTR [rax], 13
  004ee	48 8b 44 24 20	 mov	 rax, QWORD PTR p$[rsp]
  004f3	48 ff c0	 inc	 rax
  004f6	48 89 44 24 20	 mov	 QWORD PTR p$[rsp], rax
  004fb	e9 41 04 00 00	 jmp	 $LN34@PyBytes_De
$LN24@PyBytes_De:

; 455  :         case 'v': *p++ = '\013'; break; /* VT */

  00500	48 8b 44 24 20	 mov	 rax, QWORD PTR p$[rsp]
  00505	c6 00 0b	 mov	 BYTE PTR [rax], 11
  00508	48 8b 44 24 20	 mov	 rax, QWORD PTR p$[rsp]
  0050d	48 ff c0	 inc	 rax
  00510	48 89 44 24 20	 mov	 QWORD PTR p$[rsp], rax
  00515	e9 27 04 00 00	 jmp	 $LN34@PyBytes_De
$LN23@PyBytes_De:

; 456  :         case 'a': *p++ = '\007'; break; /* BEL, not classic C */

  0051a	48 8b 44 24 20	 mov	 rax, QWORD PTR p$[rsp]
  0051f	c6 00 07	 mov	 BYTE PTR [rax], 7
  00522	48 8b 44 24 20	 mov	 rax, QWORD PTR p$[rsp]
  00527	48 ff c0	 inc	 rax
  0052a	48 89 44 24 20	 mov	 QWORD PTR p$[rsp], rax
  0052f	e9 0d 04 00 00	 jmp	 $LN34@PyBytes_De
$LN22@PyBytes_De:

; 457  :         case '0': case '1': case '2': case '3':
; 458  :         case '4': case '5': case '6': case '7':
; 459  :             c = s[-1] - '0';

  00534	48 8b 84 24 c0
	00 00 00	 mov	 rax, QWORD PTR s$[rsp]
  0053c	0f be 40 ff	 movsx	 eax, BYTE PTR [rax-1]
  00540	83 e8 30	 sub	 eax, 48			; 00000030H
  00543	89 44 24 48	 mov	 DWORD PTR c$[rsp], eax

; 460  :             if (s < end && '0' <= *s && *s <= '7') {

  00547	48 8b 44 24 38	 mov	 rax, QWORD PTR end$[rsp]
  0054c	48 39 84 24 c0
	00 00 00	 cmp	 QWORD PTR s$[rsp], rax
  00554	0f 83 ab 00 00
	00		 jae	 $LN21@PyBytes_De
  0055a	48 8b 84 24 c0
	00 00 00	 mov	 rax, QWORD PTR s$[rsp]
  00562	0f be 00	 movsx	 eax, BYTE PTR [rax]
  00565	83 f8 30	 cmp	 eax, 48			; 00000030H
  00568	0f 8c 97 00 00
	00		 jl	 $LN21@PyBytes_De
  0056e	48 8b 84 24 c0
	00 00 00	 mov	 rax, QWORD PTR s$[rsp]
  00576	0f be 00	 movsx	 eax, BYTE PTR [rax]
  00579	83 f8 37	 cmp	 eax, 55			; 00000037H
  0057c	0f 8f 83 00 00
	00		 jg	 $LN21@PyBytes_De

; 461  :                 c = (c<<3) + *s++ - '0';

  00582	48 8b 84 24 c0
	00 00 00	 mov	 rax, QWORD PTR s$[rsp]
  0058a	0f be 00	 movsx	 eax, BYTE PTR [rax]
  0058d	8b 4c 24 48	 mov	 ecx, DWORD PTR c$[rsp]
  00591	8d 44 c8 d0	 lea	 eax, DWORD PTR [rax+rcx*8-48]
  00595	89 44 24 48	 mov	 DWORD PTR c$[rsp], eax
  00599	48 8b 84 24 c0
	00 00 00	 mov	 rax, QWORD PTR s$[rsp]
  005a1	48 ff c0	 inc	 rax
  005a4	48 89 84 24 c0
	00 00 00	 mov	 QWORD PTR s$[rsp], rax

; 462  :                 if (s < end && '0' <= *s && *s <= '7')

  005ac	48 8b 44 24 38	 mov	 rax, QWORD PTR end$[rsp]
  005b1	48 39 84 24 c0
	00 00 00	 cmp	 QWORD PTR s$[rsp], rax
  005b9	73 4a		 jae	 SHORT $LN20@PyBytes_De
  005bb	48 8b 84 24 c0
	00 00 00	 mov	 rax, QWORD PTR s$[rsp]
  005c3	0f be 00	 movsx	 eax, BYTE PTR [rax]
  005c6	83 f8 30	 cmp	 eax, 48			; 00000030H
  005c9	7c 3a		 jl	 SHORT $LN20@PyBytes_De
  005cb	48 8b 84 24 c0
	00 00 00	 mov	 rax, QWORD PTR s$[rsp]
  005d3	0f be 00	 movsx	 eax, BYTE PTR [rax]
  005d6	83 f8 37	 cmp	 eax, 55			; 00000037H
  005d9	7f 2a		 jg	 SHORT $LN20@PyBytes_De

; 463  :                     c = (c<<3) + *s++ - '0';

  005db	48 8b 84 24 c0
	00 00 00	 mov	 rax, QWORD PTR s$[rsp]
  005e3	0f be 00	 movsx	 eax, BYTE PTR [rax]
  005e6	8b 4c 24 48	 mov	 ecx, DWORD PTR c$[rsp]
  005ea	8d 44 c8 d0	 lea	 eax, DWORD PTR [rax+rcx*8-48]
  005ee	89 44 24 48	 mov	 DWORD PTR c$[rsp], eax
  005f2	48 8b 84 24 c0
	00 00 00	 mov	 rax, QWORD PTR s$[rsp]
  005fa	48 ff c0	 inc	 rax
  005fd	48 89 84 24 c0
	00 00 00	 mov	 QWORD PTR s$[rsp], rax
$LN20@PyBytes_De:
$LN21@PyBytes_De:

; 464  :             }
; 465  :             *p++ = c;

  00605	48 8b 44 24 20	 mov	 rax, QWORD PTR p$[rsp]
  0060a	0f b6 4c 24 48	 movzx	 ecx, BYTE PTR c$[rsp]
  0060f	88 08		 mov	 BYTE PTR [rax], cl
  00611	48 8b 44 24 20	 mov	 rax, QWORD PTR p$[rsp]
  00616	48 ff c0	 inc	 rax
  00619	48 89 44 24 20	 mov	 QWORD PTR p$[rsp], rax

; 466  :             break;

  0061e	e9 1e 03 00 00	 jmp	 $LN34@PyBytes_De
$LN19@PyBytes_De:

; 467  :         case 'x':
; 468  :             if (s+1 < end && Py_ISXDIGIT(s[0]) && Py_ISXDIGIT(s[1])) {

  00623	48 8b 84 24 c0
	00 00 00	 mov	 rax, QWORD PTR s$[rsp]
  0062b	48 ff c0	 inc	 rax
  0062e	48 3b 44 24 38	 cmp	 rax, QWORD PTR end$[rsp]
  00633	0f 83 ca 01 00
	00		 jae	 $LN18@PyBytes_De
  00639	48 8b 84 24 c0
	00 00 00	 mov	 rax, QWORD PTR s$[rsp]
  00641	0f be 00	 movsx	 eax, BYTE PTR [rax]
  00644	25 ff 00 00 00	 and	 eax, 255		; 000000ffH
  00649	0f b6 c0	 movzx	 eax, al
  0064c	48 8d 0d 00 00
	00 00		 lea	 rcx, OFFSET FLAT:_Py_ctype_table
  00653	8b 04 81	 mov	 eax, DWORD PTR [rcx+rax*4]
  00656	83 e0 10	 and	 eax, 16
  00659	85 c0		 test	 eax, eax
  0065b	0f 84 a2 01 00
	00		 je	 $LN18@PyBytes_De
  00661	48 8b 84 24 c0
	00 00 00	 mov	 rax, QWORD PTR s$[rsp]
  00669	0f be 40 01	 movsx	 eax, BYTE PTR [rax+1]
  0066d	25 ff 00 00 00	 and	 eax, 255		; 000000ffH
  00672	0f b6 c0	 movzx	 eax, al
  00675	48 8d 0d 00 00
	00 00		 lea	 rcx, OFFSET FLAT:_Py_ctype_table
  0067c	8b 04 81	 mov	 eax, DWORD PTR [rcx+rax*4]
  0067f	83 e0 10	 and	 eax, 16
  00682	85 c0		 test	 eax, eax
  00684	0f 84 79 01 00
	00		 je	 $LN18@PyBytes_De

; 469  :                 unsigned int x = 0;

  0068a	c7 84 24 98 00
	00 00 00 00 00
	00		 mov	 DWORD PTR x$20886[rsp], 0

; 470  :                 c = Py_CHARMASK(*s);

  00695	48 8b 84 24 c0
	00 00 00	 mov	 rax, QWORD PTR s$[rsp]
  0069d	0f be 00	 movsx	 eax, BYTE PTR [rax]
  006a0	25 ff 00 00 00	 and	 eax, 255		; 000000ffH
  006a5	0f b6 c0	 movzx	 eax, al
  006a8	89 44 24 48	 mov	 DWORD PTR c$[rsp], eax

; 471  :                 s++;

  006ac	48 8b 84 24 c0
	00 00 00	 mov	 rax, QWORD PTR s$[rsp]
  006b4	48 ff c0	 inc	 rax
  006b7	48 89 84 24 c0
	00 00 00	 mov	 QWORD PTR s$[rsp], rax

; 472  :                 if (Py_ISDIGIT(c))

  006bf	8b 44 24 48	 mov	 eax, DWORD PTR c$[rsp]
  006c3	25 ff 00 00 00	 and	 eax, 255		; 000000ffH
  006c8	0f b6 c0	 movzx	 eax, al
  006cb	48 8d 0d 00 00
	00 00		 lea	 rcx, OFFSET FLAT:_Py_ctype_table
  006d2	8b 04 81	 mov	 eax, DWORD PTR [rcx+rax*4]
  006d5	83 e0 04	 and	 eax, 4
  006d8	85 c0		 test	 eax, eax
  006da	74 10		 je	 SHORT $LN17@PyBytes_De

; 473  :                     x = c - '0';

  006dc	8b 44 24 48	 mov	 eax, DWORD PTR c$[rsp]
  006e0	83 e8 30	 sub	 eax, 48			; 00000030H
  006e3	89 84 24 98 00
	00 00		 mov	 DWORD PTR x$20886[rsp], eax
  006ea	eb 3b		 jmp	 SHORT $LN16@PyBytes_De
$LN17@PyBytes_De:

; 474  :                 else if (Py_ISLOWER(c))

  006ec	8b 44 24 48	 mov	 eax, DWORD PTR c$[rsp]
  006f0	25 ff 00 00 00	 and	 eax, 255		; 000000ffH
  006f5	0f b6 c0	 movzx	 eax, al
  006f8	48 8d 0d 00 00
	00 00		 lea	 rcx, OFFSET FLAT:_Py_ctype_table
  006ff	8b 04 81	 mov	 eax, DWORD PTR [rcx+rax*4]
  00702	83 e0 01	 and	 eax, 1
  00705	85 c0		 test	 eax, eax
  00707	74 10		 je	 SHORT $LN15@PyBytes_De

; 475  :                     x = 10 + c - 'a';

  00709	8b 44 24 48	 mov	 eax, DWORD PTR c$[rsp]
  0070d	83 e8 57	 sub	 eax, 87			; 00000057H
  00710	89 84 24 98 00
	00 00		 mov	 DWORD PTR x$20886[rsp], eax

; 476  :                 else

  00717	eb 0e		 jmp	 SHORT $LN14@PyBytes_De
$LN15@PyBytes_De:

; 477  :                     x = 10 + c - 'A';

  00719	8b 44 24 48	 mov	 eax, DWORD PTR c$[rsp]
  0071d	83 e8 37	 sub	 eax, 55			; 00000037H
  00720	89 84 24 98 00
	00 00		 mov	 DWORD PTR x$20886[rsp], eax
$LN14@PyBytes_De:
$LN16@PyBytes_De:

; 478  :                 x = x << 4;

  00727	8b 84 24 98 00
	00 00		 mov	 eax, DWORD PTR x$20886[rsp]
  0072e	c1 e0 04	 shl	 eax, 4
  00731	89 84 24 98 00
	00 00		 mov	 DWORD PTR x$20886[rsp], eax

; 479  :                 c = Py_CHARMASK(*s);

  00738	48 8b 84 24 c0
	00 00 00	 mov	 rax, QWORD PTR s$[rsp]
  00740	0f be 00	 movsx	 eax, BYTE PTR [rax]
  00743	25 ff 00 00 00	 and	 eax, 255		; 000000ffH
  00748	0f b6 c0	 movzx	 eax, al
  0074b	89 44 24 48	 mov	 DWORD PTR c$[rsp], eax

; 480  :                 s++;

  0074f	48 8b 84 24 c0
	00 00 00	 mov	 rax, QWORD PTR s$[rsp]
  00757	48 ff c0	 inc	 rax
  0075a	48 89 84 24 c0
	00 00 00	 mov	 QWORD PTR s$[rsp], rax

; 481  :                 if (Py_ISDIGIT(c))

  00762	8b 44 24 48	 mov	 eax, DWORD PTR c$[rsp]
  00766	25 ff 00 00 00	 and	 eax, 255		; 000000ffH
  0076b	0f b6 c0	 movzx	 eax, al
  0076e	48 8d 0d 00 00
	00 00		 lea	 rcx, OFFSET FLAT:_Py_ctype_table
  00775	8b 04 81	 mov	 eax, DWORD PTR [rcx+rax*4]
  00778	83 e0 04	 and	 eax, 4
  0077b	85 c0		 test	 eax, eax
  0077d	74 18		 je	 SHORT $LN13@PyBytes_De

; 482  :                     x += c - '0';

  0077f	8b 84 24 98 00
	00 00		 mov	 eax, DWORD PTR x$20886[rsp]
  00786	8b 4c 24 48	 mov	 ecx, DWORD PTR c$[rsp]
  0078a	8d 44 08 d0	 lea	 eax, DWORD PTR [rax+rcx-48]
  0078e	89 84 24 98 00
	00 00		 mov	 DWORD PTR x$20886[rsp], eax
  00795	eb 4b		 jmp	 SHORT $LN12@PyBytes_De
$LN13@PyBytes_De:

; 483  :                 else if (Py_ISLOWER(c))

  00797	8b 44 24 48	 mov	 eax, DWORD PTR c$[rsp]
  0079b	25 ff 00 00 00	 and	 eax, 255		; 000000ffH
  007a0	0f b6 c0	 movzx	 eax, al
  007a3	48 8d 0d 00 00
	00 00		 lea	 rcx, OFFSET FLAT:_Py_ctype_table
  007aa	8b 04 81	 mov	 eax, DWORD PTR [rcx+rax*4]
  007ad	83 e0 01	 and	 eax, 1
  007b0	85 c0		 test	 eax, eax
  007b2	74 18		 je	 SHORT $LN11@PyBytes_De

; 484  :                     x += 10 + c - 'a';

  007b4	8b 84 24 98 00
	00 00		 mov	 eax, DWORD PTR x$20886[rsp]
  007bb	8b 4c 24 48	 mov	 ecx, DWORD PTR c$[rsp]
  007bf	8d 44 08 a9	 lea	 eax, DWORD PTR [rax+rcx-87]
  007c3	89 84 24 98 00
	00 00		 mov	 DWORD PTR x$20886[rsp], eax

; 485  :                 else

  007ca	eb 16		 jmp	 SHORT $LN10@PyBytes_De
$LN11@PyBytes_De:

; 486  :                     x += 10 + c - 'A';

  007cc	8b 84 24 98 00
	00 00		 mov	 eax, DWORD PTR x$20886[rsp]
  007d3	8b 4c 24 48	 mov	 ecx, DWORD PTR c$[rsp]
  007d7	8d 44 08 c9	 lea	 eax, DWORD PTR [rax+rcx-55]
  007db	89 84 24 98 00
	00 00		 mov	 DWORD PTR x$20886[rsp], eax
$LN10@PyBytes_De:
$LN12@PyBytes_De:

; 487  :                 *p++ = x;

  007e2	48 8b 44 24 20	 mov	 rax, QWORD PTR p$[rsp]
  007e7	0f b6 8c 24 98
	00 00 00	 movzx	 ecx, BYTE PTR x$20886[rsp]
  007ef	88 08		 mov	 BYTE PTR [rax], cl
  007f1	48 8b 44 24 20	 mov	 rax, QWORD PTR p$[rsp]
  007f6	48 ff c0	 inc	 rax
  007f9	48 89 44 24 20	 mov	 QWORD PTR p$[rsp], rax

; 488  :                 break;

  007fe	e9 3e 01 00 00	 jmp	 $LN34@PyBytes_De
$LN18@PyBytes_De:

; 489  :             }
; 490  :             if (!errors || strcmp(errors, "strict") == 0) {

  00803	48 83 bc 24 d0
	00 00 00 00	 cmp	 QWORD PTR errors$[rsp], 0
  0080c	74 18		 je	 SHORT $LN8@PyBytes_De
  0080e	48 8d 15 00 00
	00 00		 lea	 rdx, OFFSET FLAT:??_C@_06OLFOGHEN@strict?$AA@
  00815	48 8b 8c 24 d0
	00 00 00	 mov	 rcx, QWORD PTR errors$[rsp]
  0081d	e8 00 00 00 00	 call	 strcmp
  00822	85 c0		 test	 eax, eax
  00824	75 3d		 jne	 SHORT $LN9@PyBytes_De
$LN8@PyBytes_De:

; 491  :                 PyErr_Format(PyExc_ValueError,
; 492  :                              "invalid \\x escape at position %d",
; 493  :                              s - 2 - (end - len));

  00826	48 8b 84 24 c0
	00 00 00	 mov	 rax, QWORD PTR s$[rsp]
  0082e	48 83 e8 02	 sub	 rax, 2
  00832	48 8b 8c 24 c8
	00 00 00	 mov	 rcx, QWORD PTR len$[rsp]
  0083a	48 8b 54 24 38	 mov	 rdx, QWORD PTR end$[rsp]
  0083f	48 2b d1	 sub	 rdx, rcx
  00842	48 8b ca	 mov	 rcx, rdx
  00845	48 2b c1	 sub	 rax, rcx
  00848	4c 8b c0	 mov	 r8, rax
  0084b	48 8d 15 00 00
	00 00		 lea	 rdx, OFFSET FLAT:??_C@_0CB@MDFFHBMF@invalid?5?2x?5escape?5at?5position?5?$CFd@
  00852	48 8b 0d 00 00
	00 00		 mov	 rcx, QWORD PTR PyExc_ValueError
  00859	e8 00 00 00 00	 call	 PyErr_Format

; 494  :                 goto failed;

  0085e	e9 1e 01 00 00	 jmp	 $failed$20834
$LN9@PyBytes_De:

; 495  :             }
; 496  :             if (strcmp(errors, "replace") == 0) {

  00863	48 8d 15 00 00
	00 00		 lea	 rdx, OFFSET FLAT:??_C@_07CLEHDIEJ@replace?$AA@
  0086a	48 8b 8c 24 d0
	00 00 00	 mov	 rcx, QWORD PTR errors$[rsp]
  00872	e8 00 00 00 00	 call	 strcmp
  00877	85 c0		 test	 eax, eax
  00879	75 17		 jne	 SHORT $LN7@PyBytes_De

; 497  :                 *p++ = '?';

  0087b	48 8b 44 24 20	 mov	 rax, QWORD PTR p$[rsp]
  00880	c6 00 3f	 mov	 BYTE PTR [rax], 63	; 0000003fH
  00883	48 8b 44 24 20	 mov	 rax, QWORD PTR p$[rsp]
  00888	48 ff c0	 inc	 rax
  0088b	48 89 44 24 20	 mov	 QWORD PTR p$[rsp], rax
  00890	eb 3a		 jmp	 SHORT $LN6@PyBytes_De
$LN7@PyBytes_De:

; 498  :             } else if (strcmp(errors, "ignore") == 0)

  00892	48 8d 15 00 00
	00 00		 lea	 rdx, OFFSET FLAT:??_C@_06GDPEBLPA@ignore?$AA@
  00899	48 8b 8c 24 d0
	00 00 00	 mov	 rcx, QWORD PTR errors$[rsp]
  008a1	e8 00 00 00 00	 call	 strcmp
  008a6	85 c0		 test	 eax, eax
  008a8	75 02		 jne	 SHORT $LN5@PyBytes_De

; 499  :                 /* do nothing */;
; 500  :             else {

  008aa	eb 20		 jmp	 SHORT $LN4@PyBytes_De
$LN5@PyBytes_De:

; 501  :                 PyErr_Format(PyExc_ValueError,
; 502  :                              "decoding error; unknown "
; 503  :                              "error handling code: %.400s",
; 504  :                              errors);

  008ac	4c 8b 84 24 d0
	00 00 00	 mov	 r8, QWORD PTR errors$[rsp]
  008b4	48 8d 15 00 00
	00 00		 lea	 rdx, OFFSET FLAT:??_C@_0DE@GCJJKEKA@decoding?5error?$DL?5unknown?5error?5ha@
  008bb	48 8b 0d 00 00
	00 00		 mov	 rcx, QWORD PTR PyExc_ValueError
  008c2	e8 00 00 00 00	 call	 PyErr_Format

; 505  :                 goto failed;

  008c7	e9 b5 00 00 00	 jmp	 $failed$20834
$LN4@PyBytes_De:
$LN6@PyBytes_De:

; 506  :             }
; 507  :             /* skip \x */
; 508  :             if (s < end && Py_ISXDIGIT(s[0]))

  008cc	48 8b 44 24 38	 mov	 rax, QWORD PTR end$[rsp]
  008d1	48 39 84 24 c0
	00 00 00	 cmp	 QWORD PTR s$[rsp], rax
  008d9	73 37		 jae	 SHORT $LN3@PyBytes_De
  008db	48 8b 84 24 c0
	00 00 00	 mov	 rax, QWORD PTR s$[rsp]
  008e3	0f be 00	 movsx	 eax, BYTE PTR [rax]
  008e6	25 ff 00 00 00	 and	 eax, 255		; 000000ffH
  008eb	0f b6 c0	 movzx	 eax, al
  008ee	48 8d 0d 00 00
	00 00		 lea	 rcx, OFFSET FLAT:_Py_ctype_table
  008f5	8b 04 81	 mov	 eax, DWORD PTR [rcx+rax*4]
  008f8	83 e0 10	 and	 eax, 16
  008fb	85 c0		 test	 eax, eax
  008fd	74 13		 je	 SHORT $LN3@PyBytes_De

; 509  :                 s++; /* and a hexdigit */

  008ff	48 8b 84 24 c0
	00 00 00	 mov	 rax, QWORD PTR s$[rsp]
  00907	48 ff c0	 inc	 rax
  0090a	48 89 84 24 c0
	00 00 00	 mov	 QWORD PTR s$[rsp], rax
$LN3@PyBytes_De:

; 510  :             break;

  00912	eb 2d		 jmp	 SHORT $LN34@PyBytes_De
$LN2@PyBytes_De:

; 511  :         default:
; 512  :             *p++ = '\\';

  00914	48 8b 44 24 20	 mov	 rax, QWORD PTR p$[rsp]
  00919	c6 00 5c	 mov	 BYTE PTR [rax], 92	; 0000005cH
  0091c	48 8b 44 24 20	 mov	 rax, QWORD PTR p$[rsp]
  00921	48 ff c0	 inc	 rax
  00924	48 89 44 24 20	 mov	 QWORD PTR p$[rsp], rax

; 513  :             s--;

  00929	48 8b 84 24 c0
	00 00 00	 mov	 rax, QWORD PTR s$[rsp]
  00931	48 ff c8	 dec	 rax
  00934	48 89 84 24 c0
	00 00 00	 mov	 QWORD PTR s$[rsp], rax

; 514  :             goto non_esc; /* an arbitrary number of unescaped

  0093c	e9 93 f7 ff ff	 jmp	 $non_esc$20823
$LN34@PyBytes_De:

; 515  :                              UTF-8 bytes may follow. */
; 516  :         }
; 517  :     }

  00941	e9 67 f7 ff ff	 jmp	 $LN62@PyBytes_De
$LN52@PyBytes_De:

; 518  :     if (p-buf < newlen)

  00946	48 8b 44 24 40	 mov	 rax, QWORD PTR buf$[rsp]
  0094b	48 8b 4c 24 20	 mov	 rcx, QWORD PTR p$[rsp]
  00950	48 2b c8	 sub	 rcx, rax
  00953	48 8b c1	 mov	 rax, rcx
  00956	48 3b 44 24 30	 cmp	 rax, QWORD PTR newlen$[rsp]
  0095b	7d 1d		 jge	 SHORT $LN1@PyBytes_De

; 519  :         _PyBytes_Resize(&v, p - buf);

  0095d	48 8b 44 24 40	 mov	 rax, QWORD PTR buf$[rsp]
  00962	48 8b 4c 24 20	 mov	 rcx, QWORD PTR p$[rsp]
  00967	48 2b c8	 sub	 rcx, rax
  0096a	48 8b c1	 mov	 rax, rcx
  0096d	48 8b d0	 mov	 rdx, rax
  00970	48 8d 4c 24 28	 lea	 rcx, QWORD PTR v$[rsp]
  00975	e8 00 00 00 00	 call	 _PyBytes_Resize
$LN1@PyBytes_De:

; 520  :     return v;

  0097a	48 8b 44 24 28	 mov	 rax, QWORD PTR v$[rsp]
  0097f	eb 0c		 jmp	 SHORT $LN55@PyBytes_De
$failed$20834:

; 521  :   failed:
; 522  :     Py_DECREF(v);

  00981	48 8b 4c 24 28	 mov	 rcx, QWORD PTR v$[rsp]
  00986	e8 00 00 00 00	 call	 _Py_DecRef

; 523  :     return NULL;

  0098b	33 c0		 xor	 eax, eax
$LN55@PyBytes_De:

; 524  : }

  0098d	48 81 c4 b8 00
	00 00		 add	 rsp, 184		; 000000b8H
  00994	c3		 ret	 0
  00995	0f 1f 00	 npad	 3
$LN64@PyBytes_De:
  00998	00 00 00 00	 DD	 $LN33@PyBytes_De
  0099c	00 00 00 00	 DD	 $LN30@PyBytes_De
  009a0	00 00 00 00	 DD	 $LN31@PyBytes_De
  009a4	00 00 00 00	 DD	 $LN22@PyBytes_De
  009a8	00 00 00 00	 DD	 $LN32@PyBytes_De
  009ac	00 00 00 00	 DD	 $LN23@PyBytes_De
  009b0	00 00 00 00	 DD	 $LN29@PyBytes_De
  009b4	00 00 00 00	 DD	 $LN28@PyBytes_De
  009b8	00 00 00 00	 DD	 $LN26@PyBytes_De
  009bc	00 00 00 00	 DD	 $LN25@PyBytes_De
  009c0	00 00 00 00	 DD	 $LN27@PyBytes_De
  009c4	00 00 00 00	 DD	 $LN24@PyBytes_De
  009c8	00 00 00 00	 DD	 $LN19@PyBytes_De
  009cc	00 00 00 00	 DD	 $LN2@PyBytes_De
$LN63@PyBytes_De:
  009d0	00		 DB	 0
  009d1	0d		 DB	 13
  009d2	0d		 DB	 13
  009d3	0d		 DB	 13
  009d4	0d		 DB	 13
  009d5	0d		 DB	 13
  009d6	0d		 DB	 13
  009d7	0d		 DB	 13
  009d8	0d		 DB	 13
  009d9	0d		 DB	 13
  009da	0d		 DB	 13
  009db	0d		 DB	 13
  009dc	0d		 DB	 13
  009dd	0d		 DB	 13
  009de	0d		 DB	 13
  009df	0d		 DB	 13
  009e0	0d		 DB	 13
  009e1	0d		 DB	 13
  009e2	0d		 DB	 13
  009e3	0d		 DB	 13
  009e4	0d		 DB	 13
  009e5	0d		 DB	 13
  009e6	0d		 DB	 13
  009e7	0d		 DB	 13
  009e8	01		 DB	 1
  009e9	0d		 DB	 13
  009ea	0d		 DB	 13
  009eb	0d		 DB	 13
  009ec	0d		 DB	 13
  009ed	02		 DB	 2
  009ee	0d		 DB	 13
  009ef	0d		 DB	 13
  009f0	0d		 DB	 13
  009f1	0d		 DB	 13
  009f2	0d		 DB	 13
  009f3	0d		 DB	 13
  009f4	0d		 DB	 13
  009f5	0d		 DB	 13
  009f6	03		 DB	 3
  009f7	03		 DB	 3
  009f8	03		 DB	 3
  009f9	03		 DB	 3
  009fa	03		 DB	 3
  009fb	03		 DB	 3
  009fc	03		 DB	 3
  009fd	03		 DB	 3
  009fe	0d		 DB	 13
  009ff	0d		 DB	 13
  00a00	0d		 DB	 13
  00a01	0d		 DB	 13
  00a02	0d		 DB	 13
  00a03	0d		 DB	 13
  00a04	0d		 DB	 13
  00a05	0d		 DB	 13
  00a06	0d		 DB	 13
  00a07	0d		 DB	 13
  00a08	0d		 DB	 13
  00a09	0d		 DB	 13
  00a0a	0d		 DB	 13
  00a0b	0d		 DB	 13
  00a0c	0d		 DB	 13
  00a0d	0d		 DB	 13
  00a0e	0d		 DB	 13
  00a0f	0d		 DB	 13
  00a10	0d		 DB	 13
  00a11	0d		 DB	 13
  00a12	0d		 DB	 13
  00a13	0d		 DB	 13
  00a14	0d		 DB	 13
  00a15	0d		 DB	 13
  00a16	0d		 DB	 13
  00a17	0d		 DB	 13
  00a18	0d		 DB	 13
  00a19	0d		 DB	 13
  00a1a	0d		 DB	 13
  00a1b	0d		 DB	 13
  00a1c	0d		 DB	 13
  00a1d	0d		 DB	 13
  00a1e	0d		 DB	 13
  00a1f	0d		 DB	 13
  00a20	0d		 DB	 13
  00a21	0d		 DB	 13
  00a22	04		 DB	 4
  00a23	0d		 DB	 13
  00a24	0d		 DB	 13
  00a25	0d		 DB	 13
  00a26	0d		 DB	 13
  00a27	05		 DB	 5
  00a28	06		 DB	 6
  00a29	0d		 DB	 13
  00a2a	0d		 DB	 13
  00a2b	0d		 DB	 13
  00a2c	07		 DB	 7
  00a2d	0d		 DB	 13
  00a2e	0d		 DB	 13
  00a2f	0d		 DB	 13
  00a30	0d		 DB	 13
  00a31	0d		 DB	 13
  00a32	0d		 DB	 13
  00a33	0d		 DB	 13
  00a34	08		 DB	 8
  00a35	0d		 DB	 13
  00a36	0d		 DB	 13
  00a37	0d		 DB	 13
  00a38	09		 DB	 9
  00a39	0d		 DB	 13
  00a3a	0a		 DB	 10
  00a3b	0d		 DB	 13
  00a3c	0b		 DB	 11
  00a3d	0d		 DB	 13
  00a3e	0c		 DB	 12
PyBytes_DecodeEscape ENDP
_TEXT	ENDS
PUBLIC	??_C@_0L@DMHMLFIA@_Py_DecRef?$AA@		; `string'
EXTRN	_Py_Dealloc:PROC
EXTRN	_Py_NegativeRefcount:PROC
EXTRN	Px_DecRef:PROC
;	COMDAT pdata
; File c:\src\pyparallel\include\object.h
pdata	SEGMENT
$pdata$_Py_DecRef DD imagerel $LN13
	DD	imagerel $LN13+257
	DD	imagerel $unwind$_Py_DecRef
pdata	ENDS
;	COMDAT xdata
xdata	SEGMENT
$unwind$_Py_DecRef DD 010901H
	DD	08209H
xdata	ENDS
;	COMDAT ??_C@_0L@DMHMLFIA@_Py_DecRef?$AA@
CONST	SEGMENT
??_C@_0L@DMHMLFIA@_Py_DecRef?$AA@ DB '_Py_DecRef', 00H	; `string'
; Function compile flags: /Odtp
CONST	ENDS
;	COMDAT _Py_DecRef
_TEXT	SEGMENT
tv81 = 48
op$ = 80
_Py_DecRef PROC						; COMDAT

; 923  : {

$LN13:
  00000	48 89 4c 24 08	 mov	 QWORD PTR [rsp+8], rcx
  00005	48 83 ec 48	 sub	 rsp, 72			; 00000048H

; 924  :     if (!Py_PXCTX) {

  00009	e8 00 00 00 00	 call	 _Py_PXCTX
  0000e	85 c0		 test	 eax, eax
  00010	0f 85 e6 00 00
	00		 jne	 $LN8@Py_DecRef

; 925  :         if (Px_PERSISTED(op) || Px_CLONED(op))

  00016	48 8b 44 24 50	 mov	 rax, QWORD PTR op$[rsp]
  0001b	48 8b 40 20	 mov	 rax, QWORD PTR [rax+32]
  0001f	48 83 e0 20	 and	 rax, 32			; 00000020H
  00023	48 85 c0	 test	 rax, rax
  00026	75 14		 jne	 SHORT $LN6@Py_DecRef
  00028	48 8b 44 24 50	 mov	 rax, QWORD PTR op$[rsp]
  0002d	48 8b 40 20	 mov	 rax, QWORD PTR [rax+32]
  00031	48 25 80 00 00
	00		 and	 rax, 128		; 00000080H
  00037	48 85 c0	 test	 rax, rax
  0003a	74 0f		 je	 SHORT $LN7@Py_DecRef
$LN6@Py_DecRef:

; 926  :             Px_DECREF(op);

  0003c	48 8b 4c 24 50	 mov	 rcx, QWORD PTR op$[rsp]
  00041	e8 00 00 00 00	 call	 Px_DecRef
  00046	e9 b1 00 00 00	 jmp	 $LN5@Py_DecRef
$LN7@Py_DecRef:

; 927  :         else if (!Px_ISPX(op)) {

  0004b	48 8b 44 24 50	 mov	 rax, QWORD PTR op$[rsp]
  00050	48 8b 40 20	 mov	 rax, QWORD PTR [rax+32]
  00054	48 83 e0 02	 and	 rax, 2
  00058	48 85 c0	 test	 rax, rax
  0005b	0f 85 9b 00 00
	00		 jne	 $LN4@Py_DecRef

; 928  :             _Py_DEC_REFTOTAL;

  00061	e8 00 00 00 00	 call	 _Py_PXCTX
  00066	85 c0		 test	 eax, eax
  00068	74 02		 je	 SHORT $LN11@Py_DecRef
  0006a	eb 11		 jmp	 SHORT $LN12@Py_DecRef
$LN11@Py_DecRef:
  0006c	48 8b 05 00 00
	00 00		 mov	 rax, QWORD PTR _Py_RefTotal
  00073	48 ff c8	 dec	 rax
  00076	48 89 05 00 00
	00 00		 mov	 QWORD PTR _Py_RefTotal, rax
$LN12@Py_DecRef:

; 929  :             if ((--((PyObject *)(op))->ob_refcnt) != 0) {

  0007d	48 8b 44 24 50	 mov	 rax, QWORD PTR op$[rsp]
  00082	48 8b 40 50	 mov	 rax, QWORD PTR [rax+80]
  00086	48 ff c8	 dec	 rax
  00089	48 89 44 24 30	 mov	 QWORD PTR tv81[rsp], rax
  0008e	48 8b 44 24 50	 mov	 rax, QWORD PTR op$[rsp]
  00093	48 8b 4c 24 30	 mov	 rcx, QWORD PTR tv81[rsp]
  00098	48 89 48 50	 mov	 QWORD PTR [rax+80], rcx
  0009c	48 83 7c 24 30
	00		 cmp	 QWORD PTR tv81[rsp], 0
  000a2	74 4e		 je	 SHORT $LN3@Py_DecRef

; 930  :                 _Py_CHECK_REFCNT(op);

  000a4	c7 44 24 20 10
	00 00 00	 mov	 DWORD PTR [rsp+32], 16
  000ac	4c 8b 4c 24 50	 mov	 r9, QWORD PTR op$[rsp]
  000b1	41 b8 a2 03 00
	00		 mov	 r8d, 930		; 000003a2H
  000b7	48 8d 15 00 00
	00 00		 lea	 rdx, OFFSET FLAT:??_C@_0CD@HDJFDCDP@c?3?2src?2pyparallel?2include?2object@
  000be	48 8d 0d 00 00
	00 00		 lea	 rcx, OFFSET FLAT:??_C@_0L@DMHMLFIA@_Py_DecRef?$AA@
  000c5	e8 00 00 00 00	 call	 _PyParallel_Guard
  000ca	85 c0		 test	 eax, eax
  000cc	75 22		 jne	 SHORT $LN2@Py_DecRef
  000ce	48 8b 44 24 50	 mov	 rax, QWORD PTR op$[rsp]
  000d3	48 83 78 50 00	 cmp	 QWORD PTR [rax+80], 0
  000d8	7d 16		 jge	 SHORT $LN2@Py_DecRef
  000da	4c 8b 44 24 50	 mov	 r8, QWORD PTR op$[rsp]
  000df	ba a2 03 00 00	 mov	 edx, 930		; 000003a2H
  000e4	48 8d 0d 00 00
	00 00		 lea	 rcx, OFFSET FLAT:??_C@_0CD@HDJFDCDP@c?3?2src?2pyparallel?2include?2object@
  000eb	e8 00 00 00 00	 call	 _Py_NegativeRefcount
$LN2@Py_DecRef:

; 931  :             } else

  000f0	eb 0a		 jmp	 SHORT $LN1@Py_DecRef
$LN3@Py_DecRef:

; 932  :                 _Py_Dealloc((PyObject *)(op));

  000f2	48 8b 4c 24 50	 mov	 rcx, QWORD PTR op$[rsp]
  000f7	e8 00 00 00 00	 call	 _Py_Dealloc
$LN1@Py_DecRef:
$LN4@Py_DecRef:
$LN5@Py_DecRef:
$LN8@Py_DecRef:

; 933  :         }
; 934  :     }
; 935  : }

  000fc	48 83 c4 48	 add	 rsp, 72			; 00000048H
  00100	c3		 ret	 0
_Py_DecRef ENDP
_TEXT	ENDS
PUBLIC	??_C@_0BN@KABNEBGK@expected?5bytes?0?5?$CF?4200s?5found?$AA@ ; `string'
PUBLIC	PyBytes_Size
EXTRN	PyExc_TypeError:QWORD
;	COMDAT pdata
; File c:\src\pyparallel\objects\bytesobject.c
pdata	SEGMENT
$pdata$PyBytes_Size DD imagerel $LN4
	DD	imagerel $LN4+88
	DD	imagerel $unwind$PyBytes_Size
pdata	ENDS
;	COMDAT xdata
xdata	SEGMENT
$unwind$PyBytes_Size DD 010901H
	DD	04209H
xdata	ENDS
;	COMDAT ??_C@_0BN@KABNEBGK@expected?5bytes?0?5?$CF?4200s?5found?$AA@
CONST	SEGMENT
??_C@_0BN@KABNEBGK@expected?5bytes?0?5?$CF?4200s?5found?$AA@ DB 'expected'
	DB	' bytes, %.200s found', 00H			; `string'
; Function compile flags: /Odtp
CONST	ENDS
;	COMDAT PyBytes_Size
_TEXT	SEGMENT
op$ = 48
PyBytes_Size PROC					; COMDAT

; 531  : {

$LN4:
  00000	48 89 4c 24 08	 mov	 QWORD PTR [rsp+8], rcx
  00005	48 83 ec 28	 sub	 rsp, 40			; 00000028H

; 532  :     if (!PyBytes_Check(op)) {

  00009	48 8b 44 24 30	 mov	 rax, QWORD PTR op$[rsp]
  0000e	48 8b 40 58	 mov	 rax, QWORD PTR [rax+88]
  00012	8b 80 00 01 00
	00		 mov	 eax, DWORD PTR [rax+256]
  00018	25 00 00 00 08	 and	 eax, 134217728		; 08000000H
  0001d	85 c0		 test	 eax, eax
  0001f	75 29		 jne	 SHORT $LN1@PyBytes_Si

; 533  :         PyErr_Format(PyExc_TypeError,
; 534  :              "expected bytes, %.200s found", Py_TYPE(op)->tp_name);

  00021	48 8b 44 24 30	 mov	 rax, QWORD PTR op$[rsp]
  00026	48 8b 40 58	 mov	 rax, QWORD PTR [rax+88]
  0002a	4c 8b 40 70	 mov	 r8, QWORD PTR [rax+112]
  0002e	48 8d 15 00 00
	00 00		 lea	 rdx, OFFSET FLAT:??_C@_0BN@KABNEBGK@expected?5bytes?0?5?$CF?4200s?5found?$AA@
  00035	48 8b 0d 00 00
	00 00		 mov	 rcx, QWORD PTR PyExc_TypeError
  0003c	e8 00 00 00 00	 call	 PyErr_Format

; 535  :         return -1;

  00041	48 c7 c0 ff ff
	ff ff		 mov	 rax, -1
  00048	eb 09		 jmp	 SHORT $LN2@PyBytes_Si
$LN1@PyBytes_Si:

; 536  :     }
; 537  :     return Py_SIZE(op);

  0004a	48 8b 44 24 30	 mov	 rax, QWORD PTR op$[rsp]
  0004f	48 8b 40 60	 mov	 rax, QWORD PTR [rax+96]
$LN2@PyBytes_Si:

; 538  : }

  00053	48 83 c4 28	 add	 rsp, 40			; 00000028H
  00057	c3		 ret	 0
PyBytes_Size ENDP
_TEXT	ENDS
;	COMDAT pdata
pdata	SEGMENT
$pdata$PyBytes_AsString DD imagerel $LN4
	DD	imagerel $LN4+83
	DD	imagerel $unwind$PyBytes_AsString
pdata	ENDS
;	COMDAT xdata
xdata	SEGMENT
$unwind$PyBytes_AsString DD 010901H
	DD	04209H
; Function compile flags: /Odtp
xdata	ENDS
;	COMDAT PyBytes_AsString
_TEXT	SEGMENT
op$ = 48
PyBytes_AsString PROC					; COMDAT

; 542  : {

$LN4:
  00000	48 89 4c 24 08	 mov	 QWORD PTR [rsp+8], rcx
  00005	48 83 ec 28	 sub	 rsp, 40			; 00000028H

; 543  :     if (!PyBytes_Check(op)) {

  00009	48 8b 44 24 30	 mov	 rax, QWORD PTR op$[rsp]
  0000e	48 8b 40 58	 mov	 rax, QWORD PTR [rax+88]
  00012	8b 80 00 01 00
	00		 mov	 eax, DWORD PTR [rax+256]
  00018	25 00 00 00 08	 and	 eax, 134217728		; 08000000H
  0001d	85 c0		 test	 eax, eax
  0001f	75 24		 jne	 SHORT $LN1@PyBytes_As

; 544  :         PyErr_Format(PyExc_TypeError,
; 545  :              "expected bytes, %.200s found", Py_TYPE(op)->tp_name);

  00021	48 8b 44 24 30	 mov	 rax, QWORD PTR op$[rsp]
  00026	48 8b 40 58	 mov	 rax, QWORD PTR [rax+88]
  0002a	4c 8b 40 70	 mov	 r8, QWORD PTR [rax+112]
  0002e	48 8d 15 00 00
	00 00		 lea	 rdx, OFFSET FLAT:??_C@_0BN@KABNEBGK@expected?5bytes?0?5?$CF?4200s?5found?$AA@
  00035	48 8b 0d 00 00
	00 00		 mov	 rcx, QWORD PTR PyExc_TypeError
  0003c	e8 00 00 00 00	 call	 PyErr_Format

; 546  :         return NULL;

  00041	33 c0		 xor	 eax, eax
  00043	eb 09		 jmp	 SHORT $LN2@PyBytes_As
$LN1@PyBytes_As:

; 547  :     }
; 548  :     return ((PyBytesObject *)op)->ob_sval;

  00045	48 8b 44 24 30	 mov	 rax, QWORD PTR op$[rsp]
  0004a	48 83 c0 78	 add	 rax, 120		; 00000078H
$LN2@PyBytes_As:

; 549  : }

  0004e	48 83 c4 28	 add	 rsp, 40			; 00000028H
  00052	c3		 ret	 0
PyBytes_AsString ENDP
_TEXT	ENDS
PUBLIC	??_C@_0BM@GADJCNIN@expected?5bytes?5with?5no?5null?$AA@ ; `string'
PUBLIC	??_C@_1CG@BMHHMEBF@?$AAP?$AAy?$AAB?$AAy?$AAt?$AAe?$AAs?$AA_?$AAC?$AAh?$AAe?$AAc?$AAk?$AA?$CI?$AAo?$AAb?$AAj?$AA?$CJ?$AA?$AA@ ; `string'
PUBLIC	??_C@_0BJ@IJCMIAIO@?4?4?2Objects?2bytesobject?4c?$AA@ ; `string'
PUBLIC	PyBytes_AsStringAndSize
EXTRN	_PyErr_BadInternalCall:PROC
;	COMDAT pdata
pdata	SEGMENT
$pdata$PyBytes_AsStringAndSize DD imagerel $LN11
	DD	imagerel $LN11+377
	DD	imagerel $unwind$PyBytes_AsStringAndSize
pdata	ENDS
;	COMDAT xdata
xdata	SEGMENT
$unwind$PyBytes_AsStringAndSize DD 011301H
	DD	04213H
xdata	ENDS
;	COMDAT ??_C@_0BM@GADJCNIN@expected?5bytes?5with?5no?5null?$AA@
CONST	SEGMENT
??_C@_0BM@GADJCNIN@expected?5bytes?5with?5no?5null?$AA@ DB 'expected byte'
	DB	's with no null', 00H			; `string'
CONST	ENDS
;	COMDAT ??_C@_1CG@BMHHMEBF@?$AAP?$AAy?$AAB?$AAy?$AAt?$AAe?$AAs?$AA_?$AAC?$AAh?$AAe?$AAc?$AAk?$AA?$CI?$AAo?$AAb?$AAj?$AA?$CJ?$AA?$AA@
CONST	SEGMENT
??_C@_1CG@BMHHMEBF@?$AAP?$AAy?$AAB?$AAy?$AAt?$AAe?$AAs?$AA_?$AAC?$AAh?$AAe?$AAc?$AAk?$AA?$CI?$AAo?$AAb?$AAj?$AA?$CJ?$AA?$AA@ DB 'P'
	DB	00H, 'y', 00H, 'B', 00H, 'y', 00H, 't', 00H, 'e', 00H, 's', 00H
	DB	'_', 00H, 'C', 00H, 'h', 00H, 'e', 00H, 'c', 00H, 'k', 00H, '('
	DB	00H, 'o', 00H, 'b', 00H, 'j', 00H, ')', 00H, 00H, 00H ; `string'
CONST	ENDS
;	COMDAT ??_C@_0BJ@IJCMIAIO@?4?4?2Objects?2bytesobject?4c?$AA@
CONST	SEGMENT
??_C@_0BJ@IJCMIAIO@?4?4?2Objects?2bytesobject?4c?$AA@ DB '..\Objects\byte'
	DB	'sobject.c', 00H				; `string'
; Function compile flags: /Odtp
CONST	ENDS
;	COMDAT PyBytes_AsStringAndSize
_TEXT	SEGMENT
obj$ = 48
s$ = 56
len$ = 64
PyBytes_AsStringAndSize PROC				; COMDAT

; 555  : {

$LN11:
  00000	4c 89 44 24 18	 mov	 QWORD PTR [rsp+24], r8
  00005	48 89 54 24 10	 mov	 QWORD PTR [rsp+16], rdx
  0000a	48 89 4c 24 08	 mov	 QWORD PTR [rsp+8], rcx
  0000f	48 83 ec 28	 sub	 rsp, 40			; 00000028H

; 556  :     if (s == NULL) {

  00013	48 83 7c 24 38
	00		 cmp	 QWORD PTR s$[rsp], 0
  00019	75 1b		 jne	 SHORT $LN5@PyBytes_As@2

; 557  :         PyErr_BadInternalCall();

  0001b	ba 2d 02 00 00	 mov	 edx, 557		; 0000022dH
  00020	48 8d 0d 00 00
	00 00		 lea	 rcx, OFFSET FLAT:??_C@_0BJ@IJCMIAIO@?4?4?2Objects?2bytesobject?4c?$AA@
  00027	e8 00 00 00 00	 call	 _PyErr_BadInternalCall

; 558  :         return -1;

  0002c	b8 ff ff ff ff	 mov	 eax, -1
  00031	e9 3e 01 00 00	 jmp	 $LN6@PyBytes_As@2
$LN5@PyBytes_As@2:

; 559  :     }
; 560  : 
; 561  :     if (!PyBytes_Check(obj)) {

  00036	48 8b 44 24 30	 mov	 rax, QWORD PTR obj$[rsp]
  0003b	48 8b 40 58	 mov	 rax, QWORD PTR [rax+88]
  0003f	8b 80 00 01 00
	00		 mov	 eax, DWORD PTR [rax+256]
  00045	25 00 00 00 08	 and	 eax, 134217728		; 08000000H
  0004a	85 c0		 test	 eax, eax
  0004c	75 2a		 jne	 SHORT $LN4@PyBytes_As@2

; 562  :         PyErr_Format(PyExc_TypeError,
; 563  :              "expected bytes, %.200s found", Py_TYPE(obj)->tp_name);

  0004e	48 8b 44 24 30	 mov	 rax, QWORD PTR obj$[rsp]
  00053	48 8b 40 58	 mov	 rax, QWORD PTR [rax+88]
  00057	4c 8b 40 70	 mov	 r8, QWORD PTR [rax+112]
  0005b	48 8d 15 00 00
	00 00		 lea	 rdx, OFFSET FLAT:??_C@_0BN@KABNEBGK@expected?5bytes?0?5?$CF?4200s?5found?$AA@
  00062	48 8b 0d 00 00
	00 00		 mov	 rcx, QWORD PTR PyExc_TypeError
  00069	e8 00 00 00 00	 call	 PyErr_Format

; 564  :         return -1;

  0006e	b8 ff ff ff ff	 mov	 eax, -1
  00073	e9 fc 00 00 00	 jmp	 $LN6@PyBytes_As@2
$LN4@PyBytes_As@2:

; 565  :     }
; 566  : 
; 567  :     *s = PyBytes_AS_STRING(obj);

  00078	48 8b 44 24 30	 mov	 rax, QWORD PTR obj$[rsp]
  0007d	48 8b 40 58	 mov	 rax, QWORD PTR [rax+88]
  00081	8b 80 00 01 00
	00		 mov	 eax, DWORD PTR [rax+256]
  00087	25 00 00 00 08	 and	 eax, 134217728		; 08000000H
  0008c	85 c0		 test	 eax, eax
  0008e	75 1c		 jne	 SHORT $LN8@PyBytes_As@2
  00090	41 b8 37 02 00
	00		 mov	 r8d, 567		; 00000237H
  00096	48 8d 15 00 00
	00 00		 lea	 rdx, OFFSET FLAT:??_C@_1DC@PIHJIEFM@?$AA?4?$AA?4?$AA?2?$AAO?$AAb?$AAj?$AAe?$AAc?$AAt?$AAs?$AA?2?$AAb?$AAy?$AAt?$AAe?$AAs?$AAo?$AAb?$AAj?$AAe?$AAc?$AAt?$AA?4?$AAc?$AA?$AA@
  0009d	48 8d 0d 00 00
	00 00		 lea	 rcx, OFFSET FLAT:??_C@_1CG@BMHHMEBF@?$AAP?$AAy?$AAB?$AAy?$AAt?$AAe?$AAs?$AA_?$AAC?$AAh?$AAe?$AAc?$AAk?$AA?$CI?$AAo?$AAb?$AAj?$AA?$CJ?$AA?$AA@
  000a4	ff 15 00 00 00
	00		 call	 QWORD PTR __imp__wassert
  000aa	33 c0		 xor	 eax, eax
$LN8@PyBytes_As@2:
  000ac	48 8b 44 24 30	 mov	 rax, QWORD PTR obj$[rsp]
  000b1	48 83 c0 78	 add	 rax, 120		; 00000078H
  000b5	48 8b 4c 24 38	 mov	 rcx, QWORD PTR s$[rsp]
  000ba	48 89 01	 mov	 QWORD PTR [rcx], rax

; 568  :     if (len != NULL)

  000bd	48 83 7c 24 40
	00		 cmp	 QWORD PTR len$[rsp], 0
  000c3	74 47		 je	 SHORT $LN3@PyBytes_As@2

; 569  :         *len = PyBytes_GET_SIZE(obj);

  000c5	48 8b 44 24 30	 mov	 rax, QWORD PTR obj$[rsp]
  000ca	48 8b 40 58	 mov	 rax, QWORD PTR [rax+88]
  000ce	8b 80 00 01 00
	00		 mov	 eax, DWORD PTR [rax+256]
  000d4	25 00 00 00 08	 and	 eax, 134217728		; 08000000H
  000d9	85 c0		 test	 eax, eax
  000db	75 1c		 jne	 SHORT $LN9@PyBytes_As@2
  000dd	41 b8 39 02 00
	00		 mov	 r8d, 569		; 00000239H
  000e3	48 8d 15 00 00
	00 00		 lea	 rdx, OFFSET FLAT:??_C@_1DC@PIHJIEFM@?$AA?4?$AA?4?$AA?2?$AAO?$AAb?$AAj?$AAe?$AAc?$AAt?$AAs?$AA?2?$AAb?$AAy?$AAt?$AAe?$AAs?$AAo?$AAb?$AAj?$AAe?$AAc?$AAt?$AA?4?$AAc?$AA?$AA@
  000ea	48 8d 0d 00 00
	00 00		 lea	 rcx, OFFSET FLAT:??_C@_1CG@BMHHMEBF@?$AAP?$AAy?$AAB?$AAy?$AAt?$AAe?$AAs?$AA_?$AAC?$AAh?$AAe?$AAc?$AAk?$AA?$CI?$AAo?$AAb?$AAj?$AA?$CJ?$AA?$AA@
  000f1	ff 15 00 00 00
	00		 call	 QWORD PTR __imp__wassert
  000f7	33 c0		 xor	 eax, eax
$LN9@PyBytes_As@2:
  000f9	48 8b 44 24 40	 mov	 rax, QWORD PTR len$[rsp]
  000fe	48 8b 4c 24 30	 mov	 rcx, QWORD PTR obj$[rsp]
  00103	48 8b 49 60	 mov	 rcx, QWORD PTR [rcx+96]
  00107	48 89 08	 mov	 QWORD PTR [rax], rcx
  0010a	eb 66		 jmp	 SHORT $LN2@PyBytes_As@2
$LN3@PyBytes_As@2:

; 570  :     else if (strlen(*s) != (size_t)PyBytes_GET_SIZE(obj)) {

  0010c	48 8b 44 24 30	 mov	 rax, QWORD PTR obj$[rsp]
  00111	48 8b 40 58	 mov	 rax, QWORD PTR [rax+88]
  00115	8b 80 00 01 00
	00		 mov	 eax, DWORD PTR [rax+256]
  0011b	25 00 00 00 08	 and	 eax, 134217728		; 08000000H
  00120	85 c0		 test	 eax, eax
  00122	75 1c		 jne	 SHORT $LN10@PyBytes_As@2
  00124	41 b8 3a 02 00
	00		 mov	 r8d, 570		; 0000023aH
  0012a	48 8d 15 00 00
	00 00		 lea	 rdx, OFFSET FLAT:??_C@_1DC@PIHJIEFM@?$AA?4?$AA?4?$AA?2?$AAO?$AAb?$AAj?$AAe?$AAc?$AAt?$AAs?$AA?2?$AAb?$AAy?$AAt?$AAe?$AAs?$AAo?$AAb?$AAj?$AAe?$AAc?$AAt?$AA?4?$AAc?$AA?$AA@
  00131	48 8d 0d 00 00
	00 00		 lea	 rcx, OFFSET FLAT:??_C@_1CG@BMHHMEBF@?$AAP?$AAy?$AAB?$AAy?$AAt?$AAe?$AAs?$AA_?$AAC?$AAh?$AAe?$AAc?$AAk?$AA?$CI?$AAo?$AAb?$AAj?$AA?$CJ?$AA?$AA@
  00138	ff 15 00 00 00
	00		 call	 QWORD PTR __imp__wassert
  0013e	33 c0		 xor	 eax, eax
$LN10@PyBytes_As@2:
  00140	48 8b 44 24 38	 mov	 rax, QWORD PTR s$[rsp]
  00145	48 8b 08	 mov	 rcx, QWORD PTR [rax]
  00148	e8 00 00 00 00	 call	 strlen
  0014d	48 8b 4c 24 30	 mov	 rcx, QWORD PTR obj$[rsp]
  00152	48 3b 41 60	 cmp	 rax, QWORD PTR [rcx+96]
  00156	74 1a		 je	 SHORT $LN1@PyBytes_As@2

; 571  :         PyErr_SetString(PyExc_TypeError,
; 572  :                         "expected bytes with no null");

  00158	48 8d 15 00 00
	00 00		 lea	 rdx, OFFSET FLAT:??_C@_0BM@GADJCNIN@expected?5bytes?5with?5no?5null?$AA@
  0015f	48 8b 0d 00 00
	00 00		 mov	 rcx, QWORD PTR PyExc_TypeError
  00166	e8 00 00 00 00	 call	 PyErr_SetString

; 573  :         return -1;

  0016b	b8 ff ff ff ff	 mov	 eax, -1
  00170	eb 02		 jmp	 SHORT $LN6@PyBytes_As@2
$LN1@PyBytes_As@2:
$LN2@PyBytes_As@2:

; 574  :     }
; 575  :     return 0;

  00172	33 c0		 xor	 eax, eax
$LN6@PyBytes_As@2:

; 576  : }

  00174	48 83 c4 28	 add	 rsp, 40			; 00000028H
  00178	c3		 ret	 0
PyBytes_AsStringAndSize ENDP
_TEXT	ENDS
PUBLIC	??_C@_1CI@KFCJBGEE@?$AAP?$AAy?$AAB?$AAy?$AAt?$AAe?$AAs?$AA_?$AAC?$AAh?$AAe?$AAc?$AAk?$AA?$CI?$AAs?$AAe?$AAl?$AAf?$AA?$CJ?$AA?$AA@ ; `string'
PUBLIC	??_C@_1FI@DHLFHKBK@?$AAc?$AA?3?$AA?2?$AAs?$AAr?$AAc?$AA?2?$AAp?$AAy?$AAp?$AAa?$AAr?$AAa?$AAl?$AAl?$AAe?$AAl?$AA?2?$AAo?$AAb?$AAj?$AAe?$AAc?$AAt?$AAs?$AA?2?$AAs?$AAt?$AAr?$AAi?$AAn?$AAg@ ; `string'
EXTRN	_Py_bytes_isspace:PROC
;	COMDAT pdata
; File c:\src\pyparallel\objects\stringlib\ctype.h
pdata	SEGMENT
$pdata$stringlib_isspace DD imagerel stringlib_isspace
	DD	imagerel stringlib_isspace+144
	DD	imagerel $unwind$stringlib_isspace
pdata	ENDS
;	COMDAT xdata
xdata	SEGMENT
$unwind$stringlib_isspace DD 010901H
	DD	04209H
xdata	ENDS
;	COMDAT ??_C@_1CI@KFCJBGEE@?$AAP?$AAy?$AAB?$AAy?$AAt?$AAe?$AAs?$AA_?$AAC?$AAh?$AAe?$AAc?$AAk?$AA?$CI?$AAs?$AAe?$AAl?$AAf?$AA?$CJ?$AA?$AA@
CONST	SEGMENT
??_C@_1CI@KFCJBGEE@?$AAP?$AAy?$AAB?$AAy?$AAt?$AAe?$AAs?$AA_?$AAC?$AAh?$AAe?$AAc?$AAk?$AA?$CI?$AAs?$AAe?$AAl?$AAf?$AA?$CJ?$AA?$AA@ DB 'P'
	DB	00H, 'y', 00H, 'B', 00H, 'y', 00H, 't', 00H, 'e', 00H, 's', 00H
	DB	'_', 00H, 'C', 00H, 'h', 00H, 'e', 00H, 'c', 00H, 'k', 00H, '('
	DB	00H, 's', 00H, 'e', 00H, 'l', 00H, 'f', 00H, ')', 00H, 00H, 00H ; `string'
CONST	ENDS
;	COMDAT ??_C@_1FI@DHLFHKBK@?$AAc?$AA?3?$AA?2?$AAs?$AAr?$AAc?$AA?2?$AAp?$AAy?$AAp?$AAa?$AAr?$AAa?$AAl?$AAl?$AAe?$AAl?$AA?2?$AAo?$AAb?$AAj?$AAe?$AAc?$AAt?$AAs?$AA?2?$AAs?$AAt?$AAr?$AAi?$AAn?$AAg@
CONST	SEGMENT
??_C@_1FI@DHLFHKBK@?$AAc?$AA?3?$AA?2?$AAs?$AAr?$AAc?$AA?2?$AAp?$AAy?$AAp?$AAa?$AAr?$AAa?$AAl?$AAl?$AAe?$AAl?$AA?2?$AAo?$AAb?$AAj?$AAe?$AAc?$AAt?$AAs?$AA?2?$AAs?$AAt?$AAr?$AAi?$AAn?$AAg@ DB 'c'
	DB	00H, ':', 00H, '\', 00H, 's', 00H, 'r', 00H, 'c', 00H, '\', 00H
	DB	'p', 00H, 'y', 00H, 'p', 00H, 'a', 00H, 'r', 00H, 'a', 00H, 'l'
	DB	00H, 'l', 00H, 'e', 00H, 'l', 00H, '\', 00H, 'o', 00H, 'b', 00H
	DB	'j', 00H, 'e', 00H, 'c', 00H, 't', 00H, 's', 00H, '\', 00H, 's'
	DB	00H, 't', 00H, 'r', 00H, 'i', 00H, 'n', 00H, 'g', 00H, 'l', 00H
	DB	'i', 00H, 'b', 00H, '/', 00H, 'c', 00H, 't', 00H, 'y', 00H, 'p'
	DB	00H, 'e', 00H, '.', 00H, 'h', 00H, 00H, 00H	; `string'
; Function compile flags: /Odtp
CONST	ENDS
;	COMDAT stringlib_isspace
_TEXT	SEGMENT
self$ = 48
stringlib_isspace PROC					; COMDAT

; 8    : {

  00000	48 89 4c 24 08	 mov	 QWORD PTR [rsp+8], rcx
  00005	48 83 ec 28	 sub	 rsp, 40			; 00000028H

; 9    :     return _Py_bytes_isspace(STRINGLIB_STR(self), STRINGLIB_LEN(self));

  00009	48 8b 44 24 30	 mov	 rax, QWORD PTR self$[rsp]
  0000e	48 8b 40 58	 mov	 rax, QWORD PTR [rax+88]
  00012	8b 80 00 01 00
	00		 mov	 eax, DWORD PTR [rax+256]
  00018	25 00 00 00 08	 and	 eax, 134217728		; 08000000H
  0001d	85 c0		 test	 eax, eax
  0001f	75 1c		 jne	 SHORT $LN3@stringlib_
  00021	41 b8 09 00 00
	00		 mov	 r8d, 9
  00027	48 8d 15 00 00
	00 00		 lea	 rdx, OFFSET FLAT:??_C@_1FI@DHLFHKBK@?$AAc?$AA?3?$AA?2?$AAs?$AAr?$AAc?$AA?2?$AAp?$AAy?$AAp?$AAa?$AAr?$AAa?$AAl?$AAl?$AAe?$AAl?$AA?2?$AAo?$AAb?$AAj?$AAe?$AAc?$AAt?$AAs?$AA?2?$AAs?$AAt?$AAr?$AAi?$AAn?$AAg@
  0002e	48 8d 0d 00 00
	00 00		 lea	 rcx, OFFSET FLAT:??_C@_1CI@KFCJBGEE@?$AAP?$AAy?$AAB?$AAy?$AAt?$AAe?$AAs?$AA_?$AAC?$AAh?$AAe?$AAc?$AAk?$AA?$CI?$AAs?$AAe?$AAl?$AAf?$AA?$CJ?$AA?$AA@
  00035	ff 15 00 00 00
	00		 call	 QWORD PTR __imp__wassert
  0003b	33 c0		 xor	 eax, eax
$LN3@stringlib_:
  0003d	48 8b 44 24 30	 mov	 rax, QWORD PTR self$[rsp]
  00042	48 8b 40 58	 mov	 rax, QWORD PTR [rax+88]
  00046	8b 80 00 01 00
	00		 mov	 eax, DWORD PTR [rax+256]
  0004c	25 00 00 00 08	 and	 eax, 134217728		; 08000000H
  00051	85 c0		 test	 eax, eax
  00053	75 1c		 jne	 SHORT $LN4@stringlib_
  00055	41 b8 09 00 00
	00		 mov	 r8d, 9
  0005b	48 8d 15 00 00
	00 00		 lea	 rdx, OFFSET FLAT:??_C@_1FI@DHLFHKBK@?$AAc?$AA?3?$AA?2?$AAs?$AAr?$AAc?$AA?2?$AAp?$AAy?$AAp?$AAa?$AAr?$AAa?$AAl?$AAl?$AAe?$AAl?$AA?2?$AAo?$AAb?$AAj?$AAe?$AAc?$AAt?$AAs?$AA?2?$AAs?$AAt?$AAr?$AAi?$AAn?$AAg@
  00062	48 8d 0d 00 00
	00 00		 lea	 rcx, OFFSET FLAT:??_C@_1CI@KFCJBGEE@?$AAP?$AAy?$AAB?$AAy?$AAt?$AAe?$AAs?$AA_?$AAC?$AAh?$AAe?$AAc?$AAk?$AA?$CI?$AAs?$AAe?$AAl?$AAf?$AA?$CJ?$AA?$AA@
  00069	ff 15 00 00 00
	00		 call	 QWORD PTR __imp__wassert
  0006f	33 c0		 xor	 eax, eax
$LN4@stringlib_:
  00071	48 8b 44 24 30	 mov	 rax, QWORD PTR self$[rsp]
  00076	48 83 c0 78	 add	 rax, 120		; 00000078H
  0007a	48 8b 4c 24 30	 mov	 rcx, QWORD PTR self$[rsp]
  0007f	48 8b 51 60	 mov	 rdx, QWORD PTR [rcx+96]
  00083	48 8b c8	 mov	 rcx, rax
  00086	e8 00 00 00 00	 call	 _Py_bytes_isspace

; 10   : }

  0008b	48 83 c4 28	 add	 rsp, 40			; 00000028H
  0008f	c3		 ret	 0
stringlib_isspace ENDP
_TEXT	ENDS
EXTRN	_Py_bytes_isalpha:PROC
;	COMDAT pdata
pdata	SEGMENT
$pdata$stringlib_isalpha DD imagerel stringlib_isalpha
	DD	imagerel stringlib_isalpha+144
	DD	imagerel $unwind$stringlib_isalpha
pdata	ENDS
;	COMDAT xdata
xdata	SEGMENT
$unwind$stringlib_isalpha DD 010901H
	DD	04209H
; Function compile flags: /Odtp
xdata	ENDS
;	COMDAT stringlib_isalpha
_TEXT	SEGMENT
self$ = 48
stringlib_isalpha PROC					; COMDAT

; 14   : {

  00000	48 89 4c 24 08	 mov	 QWORD PTR [rsp+8], rcx
  00005	48 83 ec 28	 sub	 rsp, 40			; 00000028H

; 15   :     return _Py_bytes_isalpha(STRINGLIB_STR(self), STRINGLIB_LEN(self));

  00009	48 8b 44 24 30	 mov	 rax, QWORD PTR self$[rsp]
  0000e	48 8b 40 58	 mov	 rax, QWORD PTR [rax+88]
  00012	8b 80 00 01 00
	00		 mov	 eax, DWORD PTR [rax+256]
  00018	25 00 00 00 08	 and	 eax, 134217728		; 08000000H
  0001d	85 c0		 test	 eax, eax
  0001f	75 1c		 jne	 SHORT $LN3@stringlib_@2
  00021	41 b8 0f 00 00
	00		 mov	 r8d, 15
  00027	48 8d 15 00 00
	00 00		 lea	 rdx, OFFSET FLAT:??_C@_1FI@DHLFHKBK@?$AAc?$AA?3?$AA?2?$AAs?$AAr?$AAc?$AA?2?$AAp?$AAy?$AAp?$AAa?$AAr?$AAa?$AAl?$AAl?$AAe?$AAl?$AA?2?$AAo?$AAb?$AAj?$AAe?$AAc?$AAt?$AAs?$AA?2?$AAs?$AAt?$AAr?$AAi?$AAn?$AAg@
  0002e	48 8d 0d 00 00
	00 00		 lea	 rcx, OFFSET FLAT:??_C@_1CI@KFCJBGEE@?$AAP?$AAy?$AAB?$AAy?$AAt?$AAe?$AAs?$AA_?$AAC?$AAh?$AAe?$AAc?$AAk?$AA?$CI?$AAs?$AAe?$AAl?$AAf?$AA?$CJ?$AA?$AA@
  00035	ff 15 00 00 00
	00		 call	 QWORD PTR __imp__wassert
  0003b	33 c0		 xor	 eax, eax
$LN3@stringlib_@2:
  0003d	48 8b 44 24 30	 mov	 rax, QWORD PTR self$[rsp]
  00042	48 8b 40 58	 mov	 rax, QWORD PTR [rax+88]
  00046	8b 80 00 01 00
	00		 mov	 eax, DWORD PTR [rax+256]
  0004c	25 00 00 00 08	 and	 eax, 134217728		; 08000000H
  00051	85 c0		 test	 eax, eax
  00053	75 1c		 jne	 SHORT $LN4@stringlib_@2
  00055	41 b8 0f 00 00
	00		 mov	 r8d, 15
  0005b	48 8d 15 00 00
	00 00		 lea	 rdx, OFFSET FLAT:??_C@_1FI@DHLFHKBK@?$AAc?$AA?3?$AA?2?$AAs?$AAr?$AAc?$AA?2?$AAp?$AAy?$AAp?$AAa?$AAr?$AAa?$AAl?$AAl?$AAe?$AAl?$AA?2?$AAo?$AAb?$AAj?$AAe?$AAc?$AAt?$AAs?$AA?2?$AAs?$AAt?$AAr?$AAi?$AAn?$AAg@
  00062	48 8d 0d 00 00
	00 00		 lea	 rcx, OFFSET FLAT:??_C@_1CI@KFCJBGEE@?$AAP?$AAy?$AAB?$AAy?$AAt?$AAe?$AAs?$AA_?$AAC?$AAh?$AAe?$AAc?$AAk?$AA?$CI?$AAs?$AAe?$AAl?$AAf?$AA?$CJ?$AA?$AA@
  00069	ff 15 00 00 00
	00		 call	 QWORD PTR __imp__wassert
  0006f	33 c0		 xor	 eax, eax
$LN4@stringlib_@2:
  00071	48 8b 44 24 30	 mov	 rax, QWORD PTR self$[rsp]
  00076	48 83 c0 78	 add	 rax, 120		; 00000078H
  0007a	48 8b 4c 24 30	 mov	 rcx, QWORD PTR self$[rsp]
  0007f	48 8b 51 60	 mov	 rdx, QWORD PTR [rcx+96]
  00083	48 8b c8	 mov	 rcx, rax
  00086	e8 00 00 00 00	 call	 _Py_bytes_isalpha

; 16   : }

  0008b	48 83 c4 28	 add	 rsp, 40			; 00000028H
  0008f	c3		 ret	 0
stringlib_isalpha ENDP
_TEXT	ENDS
EXTRN	_Py_bytes_isalnum:PROC
;	COMDAT pdata
pdata	SEGMENT
$pdata$stringlib_isalnum DD imagerel stringlib_isalnum
	DD	imagerel stringlib_isalnum+144
	DD	imagerel $unwind$stringlib_isalnum
pdata	ENDS
;	COMDAT xdata
xdata	SEGMENT
$unwind$stringlib_isalnum DD 010901H
	DD	04209H
; Function compile flags: /Odtp
xdata	ENDS
;	COMDAT stringlib_isalnum
_TEXT	SEGMENT
self$ = 48
stringlib_isalnum PROC					; COMDAT

; 20   : {

  00000	48 89 4c 24 08	 mov	 QWORD PTR [rsp+8], rcx
  00005	48 83 ec 28	 sub	 rsp, 40			; 00000028H

; 21   :     return _Py_bytes_isalnum(STRINGLIB_STR(self), STRINGLIB_LEN(self));

  00009	48 8b 44 24 30	 mov	 rax, QWORD PTR self$[rsp]
  0000e	48 8b 40 58	 mov	 rax, QWORD PTR [rax+88]
  00012	8b 80 00 01 00
	00		 mov	 eax, DWORD PTR [rax+256]
  00018	25 00 00 00 08	 and	 eax, 134217728		; 08000000H
  0001d	85 c0		 test	 eax, eax
  0001f	75 1c		 jne	 SHORT $LN3@stringlib_@3
  00021	41 b8 15 00 00
	00		 mov	 r8d, 21
  00027	48 8d 15 00 00
	00 00		 lea	 rdx, OFFSET FLAT:??_C@_1FI@DHLFHKBK@?$AAc?$AA?3?$AA?2?$AAs?$AAr?$AAc?$AA?2?$AAp?$AAy?$AAp?$AAa?$AAr?$AAa?$AAl?$AAl?$AAe?$AAl?$AA?2?$AAo?$AAb?$AAj?$AAe?$AAc?$AAt?$AAs?$AA?2?$AAs?$AAt?$AAr?$AAi?$AAn?$AAg@
  0002e	48 8d 0d 00 00
	00 00		 lea	 rcx, OFFSET FLAT:??_C@_1CI@KFCJBGEE@?$AAP?$AAy?$AAB?$AAy?$AAt?$AAe?$AAs?$AA_?$AAC?$AAh?$AAe?$AAc?$AAk?$AA?$CI?$AAs?$AAe?$AAl?$AAf?$AA?$CJ?$AA?$AA@
  00035	ff 15 00 00 00
	00		 call	 QWORD PTR __imp__wassert
  0003b	33 c0		 xor	 eax, eax
$LN3@stringlib_@3:
  0003d	48 8b 44 24 30	 mov	 rax, QWORD PTR self$[rsp]
  00042	48 8b 40 58	 mov	 rax, QWORD PTR [rax+88]
  00046	8b 80 00 01 00
	00		 mov	 eax, DWORD PTR [rax+256]
  0004c	25 00 00 00 08	 and	 eax, 134217728		; 08000000H
  00051	85 c0		 test	 eax, eax
  00053	75 1c		 jne	 SHORT $LN4@stringlib_@3
  00055	41 b8 15 00 00
	00		 mov	 r8d, 21
  0005b	48 8d 15 00 00
	00 00		 lea	 rdx, OFFSET FLAT:??_C@_1FI@DHLFHKBK@?$AAc?$AA?3?$AA?2?$AAs?$AAr?$AAc?$AA?2?$AAp?$AAy?$AAp?$AAa?$AAr?$AAa?$AAl?$AAl?$AAe?$AAl?$AA?2?$AAo?$AAb?$AAj?$AAe?$AAc?$AAt?$AAs?$AA?2?$AAs?$AAt?$AAr?$AAi?$AAn?$AAg@
  00062	48 8d 0d 00 00
	00 00		 lea	 rcx, OFFSET FLAT:??_C@_1CI@KFCJBGEE@?$AAP?$AAy?$AAB?$AAy?$AAt?$AAe?$AAs?$AA_?$AAC?$AAh?$AAe?$AAc?$AAk?$AA?$CI?$AAs?$AAe?$AAl?$AAf?$AA?$CJ?$AA?$AA@
  00069	ff 15 00 00 00
	00		 call	 QWORD PTR __imp__wassert
  0006f	33 c0		 xor	 eax, eax
$LN4@stringlib_@3:
  00071	48 8b 44 24 30	 mov	 rax, QWORD PTR self$[rsp]
  00076	48 83 c0 78	 add	 rax, 120		; 00000078H
  0007a	48 8b 4c 24 30	 mov	 rcx, QWORD PTR self$[rsp]
  0007f	48 8b 51 60	 mov	 rdx, QWORD PTR [rcx+96]
  00083	48 8b c8	 mov	 rcx, rax
  00086	e8 00 00 00 00	 call	 _Py_bytes_isalnum

; 22   : }

  0008b	48 83 c4 28	 add	 rsp, 40			; 00000028H
  0008f	c3		 ret	 0
stringlib_isalnum ENDP
_TEXT	ENDS
EXTRN	_Py_bytes_isdigit:PROC
;	COMDAT pdata
pdata	SEGMENT
$pdata$stringlib_isdigit DD imagerel stringlib_isdigit
	DD	imagerel stringlib_isdigit+144
	DD	imagerel $unwind$stringlib_isdigit
pdata	ENDS
;	COMDAT xdata
xdata	SEGMENT
$unwind$stringlib_isdigit DD 010901H
	DD	04209H
; Function compile flags: /Odtp
xdata	ENDS
;	COMDAT stringlib_isdigit
_TEXT	SEGMENT
self$ = 48
stringlib_isdigit PROC					; COMDAT

; 26   : {

  00000	48 89 4c 24 08	 mov	 QWORD PTR [rsp+8], rcx
  00005	48 83 ec 28	 sub	 rsp, 40			; 00000028H

; 27   :     return _Py_bytes_isdigit(STRINGLIB_STR(self), STRINGLIB_LEN(self));

  00009	48 8b 44 24 30	 mov	 rax, QWORD PTR self$[rsp]
  0000e	48 8b 40 58	 mov	 rax, QWORD PTR [rax+88]
  00012	8b 80 00 01 00
	00		 mov	 eax, DWORD PTR [rax+256]
  00018	25 00 00 00 08	 and	 eax, 134217728		; 08000000H
  0001d	85 c0		 test	 eax, eax
  0001f	75 1c		 jne	 SHORT $LN3@stringlib_@4
  00021	41 b8 1b 00 00
	00		 mov	 r8d, 27
  00027	48 8d 15 00 00
	00 00		 lea	 rdx, OFFSET FLAT:??_C@_1FI@DHLFHKBK@?$AAc?$AA?3?$AA?2?$AAs?$AAr?$AAc?$AA?2?$AAp?$AAy?$AAp?$AAa?$AAr?$AAa?$AAl?$AAl?$AAe?$AAl?$AA?2?$AAo?$AAb?$AAj?$AAe?$AAc?$AAt?$AAs?$AA?2?$AAs?$AAt?$AAr?$AAi?$AAn?$AAg@
  0002e	48 8d 0d 00 00
	00 00		 lea	 rcx, OFFSET FLAT:??_C@_1CI@KFCJBGEE@?$AAP?$AAy?$AAB?$AAy?$AAt?$AAe?$AAs?$AA_?$AAC?$AAh?$AAe?$AAc?$AAk?$AA?$CI?$AAs?$AAe?$AAl?$AAf?$AA?$CJ?$AA?$AA@
  00035	ff 15 00 00 00
	00		 call	 QWORD PTR __imp__wassert
  0003b	33 c0		 xor	 eax, eax
$LN3@stringlib_@4:
  0003d	48 8b 44 24 30	 mov	 rax, QWORD PTR self$[rsp]
  00042	48 8b 40 58	 mov	 rax, QWORD PTR [rax+88]
  00046	8b 80 00 01 00
	00		 mov	 eax, DWORD PTR [rax+256]
  0004c	25 00 00 00 08	 and	 eax, 134217728		; 08000000H
  00051	85 c0		 test	 eax, eax
  00053	75 1c		 jne	 SHORT $LN4@stringlib_@4
  00055	41 b8 1b 00 00
	00		 mov	 r8d, 27
  0005b	48 8d 15 00 00
	00 00		 lea	 rdx, OFFSET FLAT:??_C@_1FI@DHLFHKBK@?$AAc?$AA?3?$AA?2?$AAs?$AAr?$AAc?$AA?2?$AAp?$AAy?$AAp?$AAa?$AAr?$AAa?$AAl?$AAl?$AAe?$AAl?$AA?2?$AAo?$AAb?$AAj?$AAe?$AAc?$AAt?$AAs?$AA?2?$AAs?$AAt?$AAr?$AAi?$AAn?$AAg@
  00062	48 8d 0d 00 00
	00 00		 lea	 rcx, OFFSET FLAT:??_C@_1CI@KFCJBGEE@?$AAP?$AAy?$AAB?$AAy?$AAt?$AAe?$AAs?$AA_?$AAC?$AAh?$AAe?$AAc?$AAk?$AA?$CI?$AAs?$AAe?$AAl?$AAf?$AA?$CJ?$AA?$AA@
  00069	ff 15 00 00 00
	00		 call	 QWORD PTR __imp__wassert
  0006f	33 c0		 xor	 eax, eax
$LN4@stringlib_@4:
  00071	48 8b 44 24 30	 mov	 rax, QWORD PTR self$[rsp]
  00076	48 83 c0 78	 add	 rax, 120		; 00000078H
  0007a	48 8b 4c 24 30	 mov	 rcx, QWORD PTR self$[rsp]
  0007f	48 8b 51 60	 mov	 rdx, QWORD PTR [rcx+96]
  00083	48 8b c8	 mov	 rcx, rax
  00086	e8 00 00 00 00	 call	 _Py_bytes_isdigit

; 28   : }

  0008b	48 83 c4 28	 add	 rsp, 40			; 00000028H
  0008f	c3		 ret	 0
stringlib_isdigit ENDP
_TEXT	ENDS
EXTRN	_Py_bytes_islower:PROC
;	COMDAT pdata
pdata	SEGMENT
$pdata$stringlib_islower DD imagerel stringlib_islower
	DD	imagerel stringlib_islower+144
	DD	imagerel $unwind$stringlib_islower
pdata	ENDS
;	COMDAT xdata
xdata	SEGMENT
$unwind$stringlib_islower DD 010901H
	DD	04209H
; Function compile flags: /Odtp
xdata	ENDS
;	COMDAT stringlib_islower
_TEXT	SEGMENT
self$ = 48
stringlib_islower PROC					; COMDAT

; 32   : {

  00000	48 89 4c 24 08	 mov	 QWORD PTR [rsp+8], rcx
  00005	48 83 ec 28	 sub	 rsp, 40			; 00000028H

; 33   :     return _Py_bytes_islower(STRINGLIB_STR(self), STRINGLIB_LEN(self));

  00009	48 8b 44 24 30	 mov	 rax, QWORD PTR self$[rsp]
  0000e	48 8b 40 58	 mov	 rax, QWORD PTR [rax+88]
  00012	8b 80 00 01 00
	00		 mov	 eax, DWORD PTR [rax+256]
  00018	25 00 00 00 08	 and	 eax, 134217728		; 08000000H
  0001d	85 c0		 test	 eax, eax
  0001f	75 1c		 jne	 SHORT $LN3@stringlib_@5
  00021	41 b8 21 00 00
	00		 mov	 r8d, 33			; 00000021H
  00027	48 8d 15 00 00
	00 00		 lea	 rdx, OFFSET FLAT:??_C@_1FI@DHLFHKBK@?$AAc?$AA?3?$AA?2?$AAs?$AAr?$AAc?$AA?2?$AAp?$AAy?$AAp?$AAa?$AAr?$AAa?$AAl?$AAl?$AAe?$AAl?$AA?2?$AAo?$AAb?$AAj?$AAe?$AAc?$AAt?$AAs?$AA?2?$AAs?$AAt?$AAr?$AAi?$AAn?$AAg@
  0002e	48 8d 0d 00 00
	00 00		 lea	 rcx, OFFSET FLAT:??_C@_1CI@KFCJBGEE@?$AAP?$AAy?$AAB?$AAy?$AAt?$AAe?$AAs?$AA_?$AAC?$AAh?$AAe?$AAc?$AAk?$AA?$CI?$AAs?$AAe?$AAl?$AAf?$AA?$CJ?$AA?$AA@
  00035	ff 15 00 00 00
	00		 call	 QWORD PTR __imp__wassert
  0003b	33 c0		 xor	 eax, eax
$LN3@stringlib_@5:
  0003d	48 8b 44 24 30	 mov	 rax, QWORD PTR self$[rsp]
  00042	48 8b 40 58	 mov	 rax, QWORD PTR [rax+88]
  00046	8b 80 00 01 00
	00		 mov	 eax, DWORD PTR [rax+256]
  0004c	25 00 00 00 08	 and	 eax, 134217728		; 08000000H
  00051	85 c0		 test	 eax, eax
  00053	75 1c		 jne	 SHORT $LN4@stringlib_@5
  00055	41 b8 21 00 00
	00		 mov	 r8d, 33			; 00000021H
  0005b	48 8d 15 00 00
	00 00		 lea	 rdx, OFFSET FLAT:??_C@_1FI@DHLFHKBK@?$AAc?$AA?3?$AA?2?$AAs?$AAr?$AAc?$AA?2?$AAp?$AAy?$AAp?$AAa?$AAr?$AAa?$AAl?$AAl?$AAe?$AAl?$AA?2?$AAo?$AAb?$AAj?$AAe?$AAc?$AAt?$AAs?$AA?2?$AAs?$AAt?$AAr?$AAi?$AAn?$AAg@
  00062	48 8d 0d 00 00
	00 00		 lea	 rcx, OFFSET FLAT:??_C@_1CI@KFCJBGEE@?$AAP?$AAy?$AAB?$AAy?$AAt?$AAe?$AAs?$AA_?$AAC?$AAh?$AAe?$AAc?$AAk?$AA?$CI?$AAs?$AAe?$AAl?$AAf?$AA?$CJ?$AA?$AA@
  00069	ff 15 00 00 00
	00		 call	 QWORD PTR __imp__wassert
  0006f	33 c0		 xor	 eax, eax
$LN4@stringlib_@5:
  00071	48 8b 44 24 30	 mov	 rax, QWORD PTR self$[rsp]
  00076	48 83 c0 78	 add	 rax, 120		; 00000078H
  0007a	48 8b 4c 24 30	 mov	 rcx, QWORD PTR self$[rsp]
  0007f	48 8b 51 60	 mov	 rdx, QWORD PTR [rcx+96]
  00083	48 8b c8	 mov	 rcx, rax
  00086	e8 00 00 00 00	 call	 _Py_bytes_islower

; 34   : }

  0008b	48 83 c4 28	 add	 rsp, 40			; 00000028H
  0008f	c3		 ret	 0
stringlib_islower ENDP
_TEXT	ENDS
EXTRN	_Py_bytes_isupper:PROC
;	COMDAT pdata
pdata	SEGMENT
$pdata$stringlib_isupper DD imagerel stringlib_isupper
	DD	imagerel stringlib_isupper+144
	DD	imagerel $unwind$stringlib_isupper
pdata	ENDS
;	COMDAT xdata
xdata	SEGMENT
$unwind$stringlib_isupper DD 010901H
	DD	04209H
; Function compile flags: /Odtp
xdata	ENDS
;	COMDAT stringlib_isupper
_TEXT	SEGMENT
self$ = 48
stringlib_isupper PROC					; COMDAT

; 38   : {

  00000	48 89 4c 24 08	 mov	 QWORD PTR [rsp+8], rcx
  00005	48 83 ec 28	 sub	 rsp, 40			; 00000028H

; 39   :     return _Py_bytes_isupper(STRINGLIB_STR(self), STRINGLIB_LEN(self));

  00009	48 8b 44 24 30	 mov	 rax, QWORD PTR self$[rsp]
  0000e	48 8b 40 58	 mov	 rax, QWORD PTR [rax+88]
  00012	8b 80 00 01 00
	00		 mov	 eax, DWORD PTR [rax+256]
  00018	25 00 00 00 08	 and	 eax, 134217728		; 08000000H
  0001d	85 c0		 test	 eax, eax
  0001f	75 1c		 jne	 SHORT $LN3@stringlib_@6
  00021	41 b8 27 00 00
	00		 mov	 r8d, 39			; 00000027H
  00027	48 8d 15 00 00
	00 00		 lea	 rdx, OFFSET FLAT:??_C@_1FI@DHLFHKBK@?$AAc?$AA?3?$AA?2?$AAs?$AAr?$AAc?$AA?2?$AAp?$AAy?$AAp?$AAa?$AAr?$AAa?$AAl?$AAl?$AAe?$AAl?$AA?2?$AAo?$AAb?$AAj?$AAe?$AAc?$AAt?$AAs?$AA?2?$AAs?$AAt?$AAr?$AAi?$AAn?$AAg@
  0002e	48 8d 0d 00 00
	00 00		 lea	 rcx, OFFSET FLAT:??_C@_1CI@KFCJBGEE@?$AAP?$AAy?$AAB?$AAy?$AAt?$AAe?$AAs?$AA_?$AAC?$AAh?$AAe?$AAc?$AAk?$AA?$CI?$AAs?$AAe?$AAl?$AAf?$AA?$CJ?$AA?$AA@
  00035	ff 15 00 00 00
	00		 call	 QWORD PTR __imp__wassert
  0003b	33 c0		 xor	 eax, eax
$LN3@stringlib_@6:
  0003d	48 8b 44 24 30	 mov	 rax, QWORD PTR self$[rsp]
  00042	48 8b 40 58	 mov	 rax, QWORD PTR [rax+88]
  00046	8b 80 00 01 00
	00		 mov	 eax, DWORD PTR [rax+256]
  0004c	25 00 00 00 08	 and	 eax, 134217728		; 08000000H
  00051	85 c0		 test	 eax, eax
  00053	75 1c		 jne	 SHORT $LN4@stringlib_@6
  00055	41 b8 27 00 00
	00		 mov	 r8d, 39			; 00000027H
  0005b	48 8d 15 00 00
	00 00		 lea	 rdx, OFFSET FLAT:??_C@_1FI@DHLFHKBK@?$AAc?$AA?3?$AA?2?$AAs?$AAr?$AAc?$AA?2?$AAp?$AAy?$AAp?$AAa?$AAr?$AAa?$AAl?$AAl?$AAe?$AAl?$AA?2?$AAo?$AAb?$AAj?$AAe?$AAc?$AAt?$AAs?$AA?2?$AAs?$AAt?$AAr?$AAi?$AAn?$AAg@
  00062	48 8d 0d 00 00
	00 00		 lea	 rcx, OFFSET FLAT:??_C@_1CI@KFCJBGEE@?$AAP?$AAy?$AAB?$AAy?$AAt?$AAe?$AAs?$AA_?$AAC?$AAh?$AAe?$AAc?$AAk?$AA?$CI?$AAs?$AAe?$AAl?$AAf?$AA?$CJ?$AA?$AA@
  00069	ff 15 00 00 00
	00		 call	 QWORD PTR __imp__wassert
  0006f	33 c0		 xor	 eax, eax
$LN4@stringlib_@6:
  00071	48 8b 44 24 30	 mov	 rax, QWORD PTR self$[rsp]
  00076	48 83 c0 78	 add	 rax, 120		; 00000078H
  0007a	48 8b 4c 24 30	 mov	 rcx, QWORD PTR self$[rsp]
  0007f	48 8b 51 60	 mov	 rdx, QWORD PTR [rcx+96]
  00083	48 8b c8	 mov	 rcx, rax
  00086	e8 00 00 00 00	 call	 _Py_bytes_isupper

; 40   : }

  0008b	48 83 c4 28	 add	 rsp, 40			; 00000028H
  0008f	c3		 ret	 0
stringlib_isupper ENDP
_TEXT	ENDS
EXTRN	_Py_bytes_istitle:PROC
;	COMDAT pdata
pdata	SEGMENT
$pdata$stringlib_istitle DD imagerel stringlib_istitle
	DD	imagerel stringlib_istitle+144
	DD	imagerel $unwind$stringlib_istitle
pdata	ENDS
;	COMDAT xdata
xdata	SEGMENT
$unwind$stringlib_istitle DD 010901H
	DD	04209H
; Function compile flags: /Odtp
xdata	ENDS
;	COMDAT stringlib_istitle
_TEXT	SEGMENT
self$ = 48
stringlib_istitle PROC					; COMDAT

; 44   : {

  00000	48 89 4c 24 08	 mov	 QWORD PTR [rsp+8], rcx
  00005	48 83 ec 28	 sub	 rsp, 40			; 00000028H

; 45   :     return _Py_bytes_istitle(STRINGLIB_STR(self), STRINGLIB_LEN(self));

  00009	48 8b 44 24 30	 mov	 rax, QWORD PTR self$[rsp]
  0000e	48 8b 40 58	 mov	 rax, QWORD PTR [rax+88]
  00012	8b 80 00 01 00
	00		 mov	 eax, DWORD PTR [rax+256]
  00018	25 00 00 00 08	 and	 eax, 134217728		; 08000000H
  0001d	85 c0		 test	 eax, eax
  0001f	75 1c		 jne	 SHORT $LN3@stringlib_@7
  00021	41 b8 2d 00 00
	00		 mov	 r8d, 45			; 0000002dH
  00027	48 8d 15 00 00
	00 00		 lea	 rdx, OFFSET FLAT:??_C@_1FI@DHLFHKBK@?$AAc?$AA?3?$AA?2?$AAs?$AAr?$AAc?$AA?2?$AAp?$AAy?$AAp?$AAa?$AAr?$AAa?$AAl?$AAl?$AAe?$AAl?$AA?2?$AAo?$AAb?$AAj?$AAe?$AAc?$AAt?$AAs?$AA?2?$AAs?$AAt?$AAr?$AAi?$AAn?$AAg@
  0002e	48 8d 0d 00 00
	00 00		 lea	 rcx, OFFSET FLAT:??_C@_1CI@KFCJBGEE@?$AAP?$AAy?$AAB?$AAy?$AAt?$AAe?$AAs?$AA_?$AAC?$AAh?$AAe?$AAc?$AAk?$AA?$CI?$AAs?$AAe?$AAl?$AAf?$AA?$CJ?$AA?$AA@
  00035	ff 15 00 00 00
	00		 call	 QWORD PTR __imp__wassert
  0003b	33 c0		 xor	 eax, eax
$LN3@stringlib_@7:
  0003d	48 8b 44 24 30	 mov	 rax, QWORD PTR self$[rsp]
  00042	48 8b 40 58	 mov	 rax, QWORD PTR [rax+88]
  00046	8b 80 00 01 00
	00		 mov	 eax, DWORD PTR [rax+256]
  0004c	25 00 00 00 08	 and	 eax, 134217728		; 08000000H
  00051	85 c0		 test	 eax, eax
  00053	75 1c		 jne	 SHORT $LN4@stringlib_@7
  00055	41 b8 2d 00 00
	00		 mov	 r8d, 45			; 0000002dH
  0005b	48 8d 15 00 00
	00 00		 lea	 rdx, OFFSET FLAT:??_C@_1FI@DHLFHKBK@?$AAc?$AA?3?$AA?2?$AAs?$AAr?$AAc?$AA?2?$AAp?$AAy?$AAp?$AAa?$AAr?$AAa?$AAl?$AAl?$AAe?$AAl?$AA?2?$AAo?$AAb?$AAj?$AAe?$AAc?$AAt?$AAs?$AA?2?$AAs?$AAt?$AAr?$AAi?$AAn?$AAg@
  00062	48 8d 0d 00 00
	00 00		 lea	 rcx, OFFSET FLAT:??_C@_1CI@KFCJBGEE@?$AAP?$AAy?$AAB?$AAy?$AAt?$AAe?$AAs?$AA_?$AAC?$AAh?$AAe?$AAc?$AAk?$AA?$CI?$AAs?$AAe?$AAl?$AAf?$AA?$CJ?$AA?$AA@
  00069	ff 15 00 00 00
	00		 call	 QWORD PTR __imp__wassert
  0006f	33 c0		 xor	 eax, eax
$LN4@stringlib_@7:
  00071	48 8b 44 24 30	 mov	 rax, QWORD PTR self$[rsp]
  00076	48 83 c0 78	 add	 rax, 120		; 00000078H
  0007a	48 8b 4c 24 30	 mov	 rcx, QWORD PTR self$[rsp]
  0007f	48 8b 51 60	 mov	 rdx, QWORD PTR [rcx+96]
  00083	48 8b c8	 mov	 rcx, rax
  00086	e8 00 00 00 00	 call	 _Py_bytes_istitle

; 46   : }

  0008b	48 83 c4 28	 add	 rsp, 40			; 00000028H
  0008f	c3		 ret	 0
stringlib_istitle ENDP
_TEXT	ENDS
PUBLIC	??_C@_1CM@IAHHNEOI@?$AAP?$AAy?$AAB?$AAy?$AAt?$AAe?$AAs?$AA_?$AAC?$AAh?$AAe?$AAc?$AAk?$AA?$CI?$AAn?$AAe?$AAw?$AAo?$AAb?$AAj?$AA?$CJ?$AA?$AA@ ; `string'
EXTRN	_Py_bytes_lower:PROC
;	COMDAT pdata
pdata	SEGMENT
$pdata$stringlib_lower DD imagerel stringlib_lower
	DD	imagerel stringlib_lower+298
	DD	imagerel $unwind$stringlib_lower
pdata	ENDS
;	COMDAT xdata
xdata	SEGMENT
$unwind$stringlib_lower DD 010901H
	DD	06209H
xdata	ENDS
;	COMDAT ??_C@_1CM@IAHHNEOI@?$AAP?$AAy?$AAB?$AAy?$AAt?$AAe?$AAs?$AA_?$AAC?$AAh?$AAe?$AAc?$AAk?$AA?$CI?$AAn?$AAe?$AAw?$AAo?$AAb?$AAj?$AA?$CJ?$AA?$AA@
CONST	SEGMENT
??_C@_1CM@IAHHNEOI@?$AAP?$AAy?$AAB?$AAy?$AAt?$AAe?$AAs?$AA_?$AAC?$AAh?$AAe?$AAc?$AAk?$AA?$CI?$AAn?$AAe?$AAw?$AAo?$AAb?$AAj?$AA?$CJ?$AA?$AA@ DB 'P'
	DB	00H, 'y', 00H, 'B', 00H, 'y', 00H, 't', 00H, 'e', 00H, 's', 00H
	DB	'_', 00H, 'C', 00H, 'h', 00H, 'e', 00H, 'c', 00H, 'k', 00H, '('
	DB	00H, 'n', 00H, 'e', 00H, 'w', 00H, 'o', 00H, 'b', 00H, 'j', 00H
	DB	')', 00H, 00H, 00H				; `string'
; Function compile flags: /Odtp
CONST	ENDS
;	COMDAT stringlib_lower
_TEXT	SEGMENT
newobj$ = 32
self$ = 64
stringlib_lower PROC					; COMDAT

; 53   : {

  00000	48 89 4c 24 08	 mov	 QWORD PTR [rsp+8], rcx
  00005	48 83 ec 38	 sub	 rsp, 56			; 00000038H

; 54   :     PyObject* newobj;
; 55   :     newobj = STRINGLIB_NEW(NULL, STRINGLIB_LEN(self));

  00009	48 8b 44 24 40	 mov	 rax, QWORD PTR self$[rsp]
  0000e	48 8b 40 58	 mov	 rax, QWORD PTR [rax+88]
  00012	8b 80 00 01 00
	00		 mov	 eax, DWORD PTR [rax+256]
  00018	25 00 00 00 08	 and	 eax, 134217728		; 08000000H
  0001d	85 c0		 test	 eax, eax
  0001f	75 1c		 jne	 SHORT $LN4@stringlib_@8
  00021	41 b8 37 00 00
	00		 mov	 r8d, 55			; 00000037H
  00027	48 8d 15 00 00
	00 00		 lea	 rdx, OFFSET FLAT:??_C@_1FI@DHLFHKBK@?$AAc?$AA?3?$AA?2?$AAs?$AAr?$AAc?$AA?2?$AAp?$AAy?$AAp?$AAa?$AAr?$AAa?$AAl?$AAl?$AAe?$AAl?$AA?2?$AAo?$AAb?$AAj?$AAe?$AAc?$AAt?$AAs?$AA?2?$AAs?$AAt?$AAr?$AAi?$AAn?$AAg@
  0002e	48 8d 0d 00 00
	00 00		 lea	 rcx, OFFSET FLAT:??_C@_1CI@KFCJBGEE@?$AAP?$AAy?$AAB?$AAy?$AAt?$AAe?$AAs?$AA_?$AAC?$AAh?$AAe?$AAc?$AAk?$AA?$CI?$AAs?$AAe?$AAl?$AAf?$AA?$CJ?$AA?$AA@
  00035	ff 15 00 00 00
	00		 call	 QWORD PTR __imp__wassert
  0003b	33 c0		 xor	 eax, eax
$LN4@stringlib_@8:
  0003d	48 8b 44 24 40	 mov	 rax, QWORD PTR self$[rsp]
  00042	48 8b 50 60	 mov	 rdx, QWORD PTR [rax+96]
  00046	33 c9		 xor	 ecx, ecx
  00048	e8 00 00 00 00	 call	 PyBytes_FromStringAndSize
  0004d	48 89 44 24 20	 mov	 QWORD PTR newobj$[rsp], rax

; 56   :     if (!newobj)

  00052	48 83 7c 24 20
	00		 cmp	 QWORD PTR newobj$[rsp], 0
  00058	75 07		 jne	 SHORT $LN1@stringlib_@8

; 57   :             return NULL;

  0005a	33 c0		 xor	 eax, eax
  0005c	e9 c4 00 00 00	 jmp	 $LN2@stringlib_@8
$LN1@stringlib_@8:

; 58   :     _Py_bytes_lower(STRINGLIB_STR(newobj), STRINGLIB_STR(self),
; 59   :                  STRINGLIB_LEN(self));

  00061	48 8b 44 24 40	 mov	 rax, QWORD PTR self$[rsp]
  00066	48 8b 40 58	 mov	 rax, QWORD PTR [rax+88]
  0006a	8b 80 00 01 00
	00		 mov	 eax, DWORD PTR [rax+256]
  00070	25 00 00 00 08	 and	 eax, 134217728		; 08000000H
  00075	85 c0		 test	 eax, eax
  00077	75 1c		 jne	 SHORT $LN5@stringlib_@8
  00079	41 b8 3b 00 00
	00		 mov	 r8d, 59			; 0000003bH
  0007f	48 8d 15 00 00
	00 00		 lea	 rdx, OFFSET FLAT:??_C@_1FI@DHLFHKBK@?$AAc?$AA?3?$AA?2?$AAs?$AAr?$AAc?$AA?2?$AAp?$AAy?$AAp?$AAa?$AAr?$AAa?$AAl?$AAl?$AAe?$AAl?$AA?2?$AAo?$AAb?$AAj?$AAe?$AAc?$AAt?$AAs?$AA?2?$AAs?$AAt?$AAr?$AAi?$AAn?$AAg@
  00086	48 8d 0d 00 00
	00 00		 lea	 rcx, OFFSET FLAT:??_C@_1CI@KFCJBGEE@?$AAP?$AAy?$AAB?$AAy?$AAt?$AAe?$AAs?$AA_?$AAC?$AAh?$AAe?$AAc?$AAk?$AA?$CI?$AAs?$AAe?$AAl?$AAf?$AA?$CJ?$AA?$AA@
  0008d	ff 15 00 00 00
	00		 call	 QWORD PTR __imp__wassert
  00093	33 c0		 xor	 eax, eax
$LN5@stringlib_@8:
  00095	48 8b 44 24 40	 mov	 rax, QWORD PTR self$[rsp]
  0009a	48 8b 40 58	 mov	 rax, QWORD PTR [rax+88]
  0009e	8b 80 00 01 00
	00		 mov	 eax, DWORD PTR [rax+256]
  000a4	25 00 00 00 08	 and	 eax, 134217728		; 08000000H
  000a9	85 c0		 test	 eax, eax
  000ab	75 1c		 jne	 SHORT $LN6@stringlib_@8
  000ad	41 b8 3a 00 00
	00		 mov	 r8d, 58			; 0000003aH
  000b3	48 8d 15 00 00
	00 00		 lea	 rdx, OFFSET FLAT:??_C@_1FI@DHLFHKBK@?$AAc?$AA?3?$AA?2?$AAs?$AAr?$AAc?$AA?2?$AAp?$AAy?$AAp?$AAa?$AAr?$AAa?$AAl?$AAl?$AAe?$AAl?$AA?2?$AAo?$AAb?$AAj?$AAe?$AAc?$AAt?$AAs?$AA?2?$AAs?$AAt?$AAr?$AAi?$AAn?$AAg@
  000ba	48 8d 0d 00 00
	00 00		 lea	 rcx, OFFSET FLAT:??_C@_1CI@KFCJBGEE@?$AAP?$AAy?$AAB?$AAy?$AAt?$AAe?$AAs?$AA_?$AAC?$AAh?$AAe?$AAc?$AAk?$AA?$CI?$AAs?$AAe?$AAl?$AAf?$AA?$CJ?$AA?$AA@
  000c1	ff 15 00 00 00
	00		 call	 QWORD PTR __imp__wassert
  000c7	33 c0		 xor	 eax, eax
$LN6@stringlib_@8:
  000c9	48 8b 44 24 20	 mov	 rax, QWORD PTR newobj$[rsp]
  000ce	48 8b 40 58	 mov	 rax, QWORD PTR [rax+88]
  000d2	8b 80 00 01 00
	00		 mov	 eax, DWORD PTR [rax+256]
  000d8	25 00 00 00 08	 and	 eax, 134217728		; 08000000H
  000dd	85 c0		 test	 eax, eax
  000df	75 1c		 jne	 SHORT $LN7@stringlib_@8
  000e1	41 b8 3a 00 00
	00		 mov	 r8d, 58			; 0000003aH
  000e7	48 8d 15 00 00
	00 00		 lea	 rdx, OFFSET FLAT:??_C@_1FI@DHLFHKBK@?$AAc?$AA?3?$AA?2?$AAs?$AAr?$AAc?$AA?2?$AAp?$AAy?$AAp?$AAa?$AAr?$AAa?$AAl?$AAl?$AAe?$AAl?$AA?2?$AAo?$AAb?$AAj?$AAe?$AAc?$AAt?$AAs?$AA?2?$AAs?$AAt?$AAr?$AAi?$AAn?$AAg@
  000ee	48 8d 0d 00 00
	00 00		 lea	 rcx, OFFSET FLAT:??_C@_1CM@IAHHNEOI@?$AAP?$AAy?$AAB?$AAy?$AAt?$AAe?$AAs?$AA_?$AAC?$AAh?$AAe?$AAc?$AAk?$AA?$CI?$AAn?$AAe?$AAw?$AAo?$AAb?$AAj?$AA?$CJ?$AA?$AA@
  000f5	ff 15 00 00 00
	00		 call	 QWORD PTR __imp__wassert
  000fb	33 c0		 xor	 eax, eax
$LN7@stringlib_@8:
  000fd	48 8b 44 24 40	 mov	 rax, QWORD PTR self$[rsp]
  00102	48 83 c0 78	 add	 rax, 120		; 00000078H
  00106	48 8b 4c 24 20	 mov	 rcx, QWORD PTR newobj$[rsp]
  0010b	48 83 c1 78	 add	 rcx, 120		; 00000078H
  0010f	48 8b 54 24 40	 mov	 rdx, QWORD PTR self$[rsp]
  00114	4c 8b 42 60	 mov	 r8, QWORD PTR [rdx+96]
  00118	48 8b d0	 mov	 rdx, rax
  0011b	e8 00 00 00 00	 call	 _Py_bytes_lower

; 60   :     return newobj;

  00120	48 8b 44 24 20	 mov	 rax, QWORD PTR newobj$[rsp]
$LN2@stringlib_@8:

; 61   : }

  00125	48 83 c4 38	 add	 rsp, 56			; 00000038H
  00129	c3		 ret	 0
stringlib_lower ENDP
_TEXT	ENDS
EXTRN	_Py_bytes_upper:PROC
;	COMDAT pdata
pdata	SEGMENT
$pdata$stringlib_upper DD imagerel stringlib_upper
	DD	imagerel stringlib_upper+298
	DD	imagerel $unwind$stringlib_upper
pdata	ENDS
;	COMDAT xdata
xdata	SEGMENT
$unwind$stringlib_upper DD 010901H
	DD	06209H
; Function compile flags: /Odtp
xdata	ENDS
;	COMDAT stringlib_upper
_TEXT	SEGMENT
newobj$ = 32
self$ = 64
stringlib_upper PROC					; COMDAT

; 65   : {

  00000	48 89 4c 24 08	 mov	 QWORD PTR [rsp+8], rcx
  00005	48 83 ec 38	 sub	 rsp, 56			; 00000038H

; 66   :     PyObject* newobj;
; 67   :     newobj = STRINGLIB_NEW(NULL, STRINGLIB_LEN(self));

  00009	48 8b 44 24 40	 mov	 rax, QWORD PTR self$[rsp]
  0000e	48 8b 40 58	 mov	 rax, QWORD PTR [rax+88]
  00012	8b 80 00 01 00
	00		 mov	 eax, DWORD PTR [rax+256]
  00018	25 00 00 00 08	 and	 eax, 134217728		; 08000000H
  0001d	85 c0		 test	 eax, eax
  0001f	75 1c		 jne	 SHORT $LN4@stringlib_@9
  00021	41 b8 43 00 00
	00		 mov	 r8d, 67			; 00000043H
  00027	48 8d 15 00 00
	00 00		 lea	 rdx, OFFSET FLAT:??_C@_1FI@DHLFHKBK@?$AAc?$AA?3?$AA?2?$AAs?$AAr?$AAc?$AA?2?$AAp?$AAy?$AAp?$AAa?$AAr?$AAa?$AAl?$AAl?$AAe?$AAl?$AA?2?$AAo?$AAb?$AAj?$AAe?$AAc?$AAt?$AAs?$AA?2?$AAs?$AAt?$AAr?$AAi?$AAn?$AAg@
  0002e	48 8d 0d 00 00
	00 00		 lea	 rcx, OFFSET FLAT:??_C@_1CI@KFCJBGEE@?$AAP?$AAy?$AAB?$AAy?$AAt?$AAe?$AAs?$AA_?$AAC?$AAh?$AAe?$AAc?$AAk?$AA?$CI?$AAs?$AAe?$AAl?$AAf?$AA?$CJ?$AA?$AA@
  00035	ff 15 00 00 00
	00		 call	 QWORD PTR __imp__wassert
  0003b	33 c0		 xor	 eax, eax
$LN4@stringlib_@9:
  0003d	48 8b 44 24 40	 mov	 rax, QWORD PTR self$[rsp]
  00042	48 8b 50 60	 mov	 rdx, QWORD PTR [rax+96]
  00046	33 c9		 xor	 ecx, ecx
  00048	e8 00 00 00 00	 call	 PyBytes_FromStringAndSize
  0004d	48 89 44 24 20	 mov	 QWORD PTR newobj$[rsp], rax

; 68   :     if (!newobj)

  00052	48 83 7c 24 20
	00		 cmp	 QWORD PTR newobj$[rsp], 0
  00058	75 07		 jne	 SHORT $LN1@stringlib_@9

; 69   :             return NULL;

  0005a	33 c0		 xor	 eax, eax
  0005c	e9 c4 00 00 00	 jmp	 $LN2@stringlib_@9
$LN1@stringlib_@9:

; 70   :     _Py_bytes_upper(STRINGLIB_STR(newobj), STRINGLIB_STR(self),
; 71   :                  STRINGLIB_LEN(self));

  00061	48 8b 44 24 40	 mov	 rax, QWORD PTR self$[rsp]
  00066	48 8b 40 58	 mov	 rax, QWORD PTR [rax+88]
  0006a	8b 80 00 01 00
	00		 mov	 eax, DWORD PTR [rax+256]
  00070	25 00 00 00 08	 and	 eax, 134217728		; 08000000H
  00075	85 c0		 test	 eax, eax
  00077	75 1c		 jne	 SHORT $LN5@stringlib_@9
  00079	41 b8 47 00 00
	00		 mov	 r8d, 71			; 00000047H
  0007f	48 8d 15 00 00
	00 00		 lea	 rdx, OFFSET FLAT:??_C@_1FI@DHLFHKBK@?$AAc?$AA?3?$AA?2?$AAs?$AAr?$AAc?$AA?2?$AAp?$AAy?$AAp?$AAa?$AAr?$AAa?$AAl?$AAl?$AAe?$AAl?$AA?2?$AAo?$AAb?$AAj?$AAe?$AAc?$AAt?$AAs?$AA?2?$AAs?$AAt?$AAr?$AAi?$AAn?$AAg@
  00086	48 8d 0d 00 00
	00 00		 lea	 rcx, OFFSET FLAT:??_C@_1CI@KFCJBGEE@?$AAP?$AAy?$AAB?$AAy?$AAt?$AAe?$AAs?$AA_?$AAC?$AAh?$AAe?$AAc?$AAk?$AA?$CI?$AAs?$AAe?$AAl?$AAf?$AA?$CJ?$AA?$AA@
  0008d	ff 15 00 00 00
	00		 call	 QWORD PTR __imp__wassert
  00093	33 c0		 xor	 eax, eax
$LN5@stringlib_@9:
  00095	48 8b 44 24 40	 mov	 rax, QWORD PTR self$[rsp]
  0009a	48 8b 40 58	 mov	 rax, QWORD PTR [rax+88]
  0009e	8b 80 00 01 00
	00		 mov	 eax, DWORD PTR [rax+256]
  000a4	25 00 00 00 08	 and	 eax, 134217728		; 08000000H
  000a9	85 c0		 test	 eax, eax
  000ab	75 1c		 jne	 SHORT $LN6@stringlib_@9
  000ad	41 b8 46 00 00
	00		 mov	 r8d, 70			; 00000046H
  000b3	48 8d 15 00 00
	00 00		 lea	 rdx, OFFSET FLAT:??_C@_1FI@DHLFHKBK@?$AAc?$AA?3?$AA?2?$AAs?$AAr?$AAc?$AA?2?$AAp?$AAy?$AAp?$AAa?$AAr?$AAa?$AAl?$AAl?$AAe?$AAl?$AA?2?$AAo?$AAb?$AAj?$AAe?$AAc?$AAt?$AAs?$AA?2?$AAs?$AAt?$AAr?$AAi?$AAn?$AAg@
  000ba	48 8d 0d 00 00
	00 00		 lea	 rcx, OFFSET FLAT:??_C@_1CI@KFCJBGEE@?$AAP?$AAy?$AAB?$AAy?$AAt?$AAe?$AAs?$AA_?$AAC?$AAh?$AAe?$AAc?$AAk?$AA?$CI?$AAs?$AAe?$AAl?$AAf?$AA?$CJ?$AA?$AA@
  000c1	ff 15 00 00 00
	00		 call	 QWORD PTR __imp__wassert
  000c7	33 c0		 xor	 eax, eax
$LN6@stringlib_@9:
  000c9	48 8b 44 24 20	 mov	 rax, QWORD PTR newobj$[rsp]
  000ce	48 8b 40 58	 mov	 rax, QWORD PTR [rax+88]
  000d2	8b 80 00 01 00
	00		 mov	 eax, DWORD PTR [rax+256]
  000d8	25 00 00 00 08	 and	 eax, 134217728		; 08000000H
  000dd	85 c0		 test	 eax, eax
  000df	75 1c		 jne	 SHORT $LN7@stringlib_@9
  000e1	41 b8 46 00 00
	00		 mov	 r8d, 70			; 00000046H
  000e7	48 8d 15 00 00
	00 00		 lea	 rdx, OFFSET FLAT:??_C@_1FI@DHLFHKBK@?$AAc?$AA?3?$AA?2?$AAs?$AAr?$AAc?$AA?2?$AAp?$AAy?$AAp?$AAa?$AAr?$AAa?$AAl?$AAl?$AAe?$AAl?$AA?2?$AAo?$AAb?$AAj?$AAe?$AAc?$AAt?$AAs?$AA?2?$AAs?$AAt?$AAr?$AAi?$AAn?$AAg@
  000ee	48 8d 0d 00 00
	00 00		 lea	 rcx, OFFSET FLAT:??_C@_1CM@IAHHNEOI@?$AAP?$AAy?$AAB?$AAy?$AAt?$AAe?$AAs?$AA_?$AAC?$AAh?$AAe?$AAc?$AAk?$AA?$CI?$AAn?$AAe?$AAw?$AAo?$AAb?$AAj?$AA?$CJ?$AA?$AA@
  000f5	ff 15 00 00 00
	00		 call	 QWORD PTR __imp__wassert
  000fb	33 c0		 xor	 eax, eax
$LN7@stringlib_@9:
  000fd	48 8b 44 24 40	 mov	 rax, QWORD PTR self$[rsp]
  00102	48 83 c0 78	 add	 rax, 120		; 00000078H
  00106	48 8b 4c 24 20	 mov	 rcx, QWORD PTR newobj$[rsp]
  0010b	48 83 c1 78	 add	 rcx, 120		; 00000078H
  0010f	48 8b 54 24 40	 mov	 rdx, QWORD PTR self$[rsp]
  00114	4c 8b 42 60	 mov	 r8, QWORD PTR [rdx+96]
  00118	48 8b d0	 mov	 rdx, rax
  0011b	e8 00 00 00 00	 call	 _Py_bytes_upper

; 72   :     return newobj;

  00120	48 8b 44 24 20	 mov	 rax, QWORD PTR newobj$[rsp]
$LN2@stringlib_@9:

; 73   : }

  00125	48 83 c4 38	 add	 rsp, 56			; 00000038H
  00129	c3		 ret	 0
stringlib_upper ENDP
_TEXT	ENDS
EXTRN	_Py_bytes_title:PROC
;	COMDAT pdata
pdata	SEGMENT
$pdata$stringlib_title DD imagerel stringlib_title
	DD	imagerel stringlib_title+298
	DD	imagerel $unwind$stringlib_title
pdata	ENDS
;	COMDAT xdata
xdata	SEGMENT
$unwind$stringlib_title DD 010901H
	DD	06209H
; Function compile flags: /Odtp
xdata	ENDS
;	COMDAT stringlib_title
_TEXT	SEGMENT
newobj$ = 32
self$ = 64
stringlib_title PROC					; COMDAT

; 77   : {

  00000	48 89 4c 24 08	 mov	 QWORD PTR [rsp+8], rcx
  00005	48 83 ec 38	 sub	 rsp, 56			; 00000038H

; 78   :     PyObject* newobj;
; 79   :     newobj = STRINGLIB_NEW(NULL, STRINGLIB_LEN(self));

  00009	48 8b 44 24 40	 mov	 rax, QWORD PTR self$[rsp]
  0000e	48 8b 40 58	 mov	 rax, QWORD PTR [rax+88]
  00012	8b 80 00 01 00
	00		 mov	 eax, DWORD PTR [rax+256]
  00018	25 00 00 00 08	 and	 eax, 134217728		; 08000000H
  0001d	85 c0		 test	 eax, eax
  0001f	75 1c		 jne	 SHORT $LN4@stringlib_@10
  00021	41 b8 4f 00 00
	00		 mov	 r8d, 79			; 0000004fH
  00027	48 8d 15 00 00
	00 00		 lea	 rdx, OFFSET FLAT:??_C@_1FI@DHLFHKBK@?$AAc?$AA?3?$AA?2?$AAs?$AAr?$AAc?$AA?2?$AAp?$AAy?$AAp?$AAa?$AAr?$AAa?$AAl?$AAl?$AAe?$AAl?$AA?2?$AAo?$AAb?$AAj?$AAe?$AAc?$AAt?$AAs?$AA?2?$AAs?$AAt?$AAr?$AAi?$AAn?$AAg@
  0002e	48 8d 0d 00 00
	00 00		 lea	 rcx, OFFSET FLAT:??_C@_1CI@KFCJBGEE@?$AAP?$AAy?$AAB?$AAy?$AAt?$AAe?$AAs?$AA_?$AAC?$AAh?$AAe?$AAc?$AAk?$AA?$CI?$AAs?$AAe?$AAl?$AAf?$AA?$CJ?$AA?$AA@
  00035	ff 15 00 00 00
	00		 call	 QWORD PTR __imp__wassert
  0003b	33 c0		 xor	 eax, eax
$LN4@stringlib_@10:
  0003d	48 8b 44 24 40	 mov	 rax, QWORD PTR self$[rsp]
  00042	48 8b 50 60	 mov	 rdx, QWORD PTR [rax+96]
  00046	33 c9		 xor	 ecx, ecx
  00048	e8 00 00 00 00	 call	 PyBytes_FromStringAndSize
  0004d	48 89 44 24 20	 mov	 QWORD PTR newobj$[rsp], rax

; 80   :     if (!newobj)

  00052	48 83 7c 24 20
	00		 cmp	 QWORD PTR newobj$[rsp], 0
  00058	75 07		 jne	 SHORT $LN1@stringlib_@10

; 81   :             return NULL;

  0005a	33 c0		 xor	 eax, eax
  0005c	e9 c4 00 00 00	 jmp	 $LN2@stringlib_@10
$LN1@stringlib_@10:

; 82   :     _Py_bytes_title(STRINGLIB_STR(newobj), STRINGLIB_STR(self),
; 83   :                  STRINGLIB_LEN(self));

  00061	48 8b 44 24 40	 mov	 rax, QWORD PTR self$[rsp]
  00066	48 8b 40 58	 mov	 rax, QWORD PTR [rax+88]
  0006a	8b 80 00 01 00
	00		 mov	 eax, DWORD PTR [rax+256]
  00070	25 00 00 00 08	 and	 eax, 134217728		; 08000000H
  00075	85 c0		 test	 eax, eax
  00077	75 1c		 jne	 SHORT $LN5@stringlib_@10
  00079	41 b8 53 00 00
	00		 mov	 r8d, 83			; 00000053H
  0007f	48 8d 15 00 00
	00 00		 lea	 rdx, OFFSET FLAT:??_C@_1FI@DHLFHKBK@?$AAc?$AA?3?$AA?2?$AAs?$AAr?$AAc?$AA?2?$AAp?$AAy?$AAp?$AAa?$AAr?$AAa?$AAl?$AAl?$AAe?$AAl?$AA?2?$AAo?$AAb?$AAj?$AAe?$AAc?$AAt?$AAs?$AA?2?$AAs?$AAt?$AAr?$AAi?$AAn?$AAg@
  00086	48 8d 0d 00 00
	00 00		 lea	 rcx, OFFSET FLAT:??_C@_1CI@KFCJBGEE@?$AAP?$AAy?$AAB?$AAy?$AAt?$AAe?$AAs?$AA_?$AAC?$AAh?$AAe?$AAc?$AAk?$AA?$CI?$AAs?$AAe?$AAl?$AAf?$AA?$CJ?$AA?$AA@
  0008d	ff 15 00 00 00
	00		 call	 QWORD PTR __imp__wassert
  00093	33 c0		 xor	 eax, eax
$LN5@stringlib_@10:
  00095	48 8b 44 24 40	 mov	 rax, QWORD PTR self$[rsp]
  0009a	48 8b 40 58	 mov	 rax, QWORD PTR [rax+88]
  0009e	8b 80 00 01 00
	00		 mov	 eax, DWORD PTR [rax+256]
  000a4	25 00 00 00 08	 and	 eax, 134217728		; 08000000H
  000a9	85 c0		 test	 eax, eax
  000ab	75 1c		 jne	 SHORT $LN6@stringlib_@10
  000ad	41 b8 52 00 00
	00		 mov	 r8d, 82			; 00000052H
  000b3	48 8d 15 00 00
	00 00		 lea	 rdx, OFFSET FLAT:??_C@_1FI@DHLFHKBK@?$AAc?$AA?3?$AA?2?$AAs?$AAr?$AAc?$AA?2?$AAp?$AAy?$AAp?$AAa?$AAr?$AAa?$AAl?$AAl?$AAe?$AAl?$AA?2?$AAo?$AAb?$AAj?$AAe?$AAc?$AAt?$AAs?$AA?2?$AAs?$AAt?$AAr?$AAi?$AAn?$AAg@
  000ba	48 8d 0d 00 00
	00 00		 lea	 rcx, OFFSET FLAT:??_C@_1CI@KFCJBGEE@?$AAP?$AAy?$AAB?$AAy?$AAt?$AAe?$AAs?$AA_?$AAC?$AAh?$AAe?$AAc?$AAk?$AA?$CI?$AAs?$AAe?$AAl?$AAf?$AA?$CJ?$AA?$AA@
  000c1	ff 15 00 00 00
	00		 call	 QWORD PTR __imp__wassert
  000c7	33 c0		 xor	 eax, eax
$LN6@stringlib_@10:
  000c9	48 8b 44 24 20	 mov	 rax, QWORD PTR newobj$[rsp]
  000ce	48 8b 40 58	 mov	 rax, QWORD PTR [rax+88]
  000d2	8b 80 00 01 00
	00		 mov	 eax, DWORD PTR [rax+256]
  000d8	25 00 00 00 08	 and	 eax, 134217728		; 08000000H
  000dd	85 c0		 test	 eax, eax
  000df	75 1c		 jne	 SHORT $LN7@stringlib_@10
  000e1	41 b8 52 00 00
	00		 mov	 r8d, 82			; 00000052H
  000e7	48 8d 15 00 00
	00 00		 lea	 rdx, OFFSET FLAT:??_C@_1FI@DHLFHKBK@?$AAc?$AA?3?$AA?2?$AAs?$AAr?$AAc?$AA?2?$AAp?$AAy?$AAp?$AAa?$AAr?$AAa?$AAl?$AAl?$AAe?$AAl?$AA?2?$AAo?$AAb?$AAj?$AAe?$AAc?$AAt?$AAs?$AA?2?$AAs?$AAt?$AAr?$AAi?$AAn?$AAg@
  000ee	48 8d 0d 00 00
	00 00		 lea	 rcx, OFFSET FLAT:??_C@_1CM@IAHHNEOI@?$AAP?$AAy?$AAB?$AAy?$AAt?$AAe?$AAs?$AA_?$AAC?$AAh?$AAe?$AAc?$AAk?$AA?$CI?$AAn?$AAe?$AAw?$AAo?$AAb?$AAj?$AA?$CJ?$AA?$AA@
  000f5	ff 15 00 00 00
	00		 call	 QWORD PTR __imp__wassert
  000fb	33 c0		 xor	 eax, eax
$LN7@stringlib_@10:
  000fd	48 8b 44 24 40	 mov	 rax, QWORD PTR self$[rsp]
  00102	48 83 c0 78	 add	 rax, 120		; 00000078H
  00106	48 8b 4c 24 20	 mov	 rcx, QWORD PTR newobj$[rsp]
  0010b	48 83 c1 78	 add	 rcx, 120		; 00000078H
  0010f	48 8b 54 24 40	 mov	 rdx, QWORD PTR self$[rsp]
  00114	4c 8b 42 60	 mov	 r8, QWORD PTR [rdx+96]
  00118	48 8b d0	 mov	 rdx, rax
  0011b	e8 00 00 00 00	 call	 _Py_bytes_title

; 84   :     return newobj;

  00120	48 8b 44 24 20	 mov	 rax, QWORD PTR newobj$[rsp]
$LN2@stringlib_@10:

; 85   : }

  00125	48 83 c4 38	 add	 rsp, 56			; 00000038H
  00129	c3		 ret	 0
stringlib_title ENDP
_TEXT	ENDS
EXTRN	_Py_bytes_capitalize:PROC
;	COMDAT pdata
pdata	SEGMENT
$pdata$stringlib_capitalize DD imagerel stringlib_capitalize
	DD	imagerel stringlib_capitalize+298
	DD	imagerel $unwind$stringlib_capitalize
pdata	ENDS
;	COMDAT xdata
xdata	SEGMENT
$unwind$stringlib_capitalize DD 010901H
	DD	06209H
; Function compile flags: /Odtp
xdata	ENDS
;	COMDAT stringlib_capitalize
_TEXT	SEGMENT
newobj$ = 32
self$ = 64
stringlib_capitalize PROC				; COMDAT

; 89   : {

  00000	48 89 4c 24 08	 mov	 QWORD PTR [rsp+8], rcx
  00005	48 83 ec 38	 sub	 rsp, 56			; 00000038H

; 90   :     PyObject* newobj;
; 91   :     newobj = STRINGLIB_NEW(NULL, STRINGLIB_LEN(self));

  00009	48 8b 44 24 40	 mov	 rax, QWORD PTR self$[rsp]
  0000e	48 8b 40 58	 mov	 rax, QWORD PTR [rax+88]
  00012	8b 80 00 01 00
	00		 mov	 eax, DWORD PTR [rax+256]
  00018	25 00 00 00 08	 and	 eax, 134217728		; 08000000H
  0001d	85 c0		 test	 eax, eax
  0001f	75 1c		 jne	 SHORT $LN4@stringlib_@11
  00021	41 b8 5b 00 00
	00		 mov	 r8d, 91			; 0000005bH
  00027	48 8d 15 00 00
	00 00		 lea	 rdx, OFFSET FLAT:??_C@_1FI@DHLFHKBK@?$AAc?$AA?3?$AA?2?$AAs?$AAr?$AAc?$AA?2?$AAp?$AAy?$AAp?$AAa?$AAr?$AAa?$AAl?$AAl?$AAe?$AAl?$AA?2?$AAo?$AAb?$AAj?$AAe?$AAc?$AAt?$AAs?$AA?2?$AAs?$AAt?$AAr?$AAi?$AAn?$AAg@
  0002e	48 8d 0d 00 00
	00 00		 lea	 rcx, OFFSET FLAT:??_C@_1CI@KFCJBGEE@?$AAP?$AAy?$AAB?$AAy?$AAt?$AAe?$AAs?$AA_?$AAC?$AAh?$AAe?$AAc?$AAk?$AA?$CI?$AAs?$AAe?$AAl?$AAf?$AA?$CJ?$AA?$AA@
  00035	ff 15 00 00 00
	00		 call	 QWORD PTR __imp__wassert
  0003b	33 c0		 xor	 eax, eax
$LN4@stringlib_@11:
  0003d	48 8b 44 24 40	 mov	 rax, QWORD PTR self$[rsp]
  00042	48 8b 50 60	 mov	 rdx, QWORD PTR [rax+96]
  00046	33 c9		 xor	 ecx, ecx
  00048	e8 00 00 00 00	 call	 PyBytes_FromStringAndSize
  0004d	48 89 44 24 20	 mov	 QWORD PTR newobj$[rsp], rax

; 92   :     if (!newobj)

  00052	48 83 7c 24 20
	00		 cmp	 QWORD PTR newobj$[rsp], 0
  00058	75 07		 jne	 SHORT $LN1@stringlib_@11

; 93   :             return NULL;

  0005a	33 c0		 xor	 eax, eax
  0005c	e9 c4 00 00 00	 jmp	 $LN2@stringlib_@11
$LN1@stringlib_@11:

; 94   :     _Py_bytes_capitalize(STRINGLIB_STR(newobj), STRINGLIB_STR(self),
; 95   :                       STRINGLIB_LEN(self));

  00061	48 8b 44 24 40	 mov	 rax, QWORD PTR self$[rsp]
  00066	48 8b 40 58	 mov	 rax, QWORD PTR [rax+88]
  0006a	8b 80 00 01 00
	00		 mov	 eax, DWORD PTR [rax+256]
  00070	25 00 00 00 08	 and	 eax, 134217728		; 08000000H
  00075	85 c0		 test	 eax, eax
  00077	75 1c		 jne	 SHORT $LN5@stringlib_@11
  00079	41 b8 5f 00 00
	00		 mov	 r8d, 95			; 0000005fH
  0007f	48 8d 15 00 00
	00 00		 lea	 rdx, OFFSET FLAT:??_C@_1FI@DHLFHKBK@?$AAc?$AA?3?$AA?2?$AAs?$AAr?$AAc?$AA?2?$AAp?$AAy?$AAp?$AAa?$AAr?$AAa?$AAl?$AAl?$AAe?$AAl?$AA?2?$AAo?$AAb?$AAj?$AAe?$AAc?$AAt?$AAs?$AA?2?$AAs?$AAt?$AAr?$AAi?$AAn?$AAg@
  00086	48 8d 0d 00 00
	00 00		 lea	 rcx, OFFSET FLAT:??_C@_1CI@KFCJBGEE@?$AAP?$AAy?$AAB?$AAy?$AAt?$AAe?$AAs?$AA_?$AAC?$AAh?$AAe?$AAc?$AAk?$AA?$CI?$AAs?$AAe?$AAl?$AAf?$AA?$CJ?$AA?$AA@
  0008d	ff 15 00 00 00
	00		 call	 QWORD PTR __imp__wassert
  00093	33 c0		 xor	 eax, eax
$LN5@stringlib_@11:
  00095	48 8b 44 24 40	 mov	 rax, QWORD PTR self$[rsp]
  0009a	48 8b 40 58	 mov	 rax, QWORD PTR [rax+88]
  0009e	8b 80 00 01 00
	00		 mov	 eax, DWORD PTR [rax+256]
  000a4	25 00 00 00 08	 and	 eax, 134217728		; 08000000H
  000a9	85 c0		 test	 eax, eax
  000ab	75 1c		 jne	 SHORT $LN6@stringlib_@11
  000ad	41 b8 5e 00 00
	00		 mov	 r8d, 94			; 0000005eH
  000b3	48 8d 15 00 00
	00 00		 lea	 rdx, OFFSET FLAT:??_C@_1FI@DHLFHKBK@?$AAc?$AA?3?$AA?2?$AAs?$AAr?$AAc?$AA?2?$AAp?$AAy?$AAp?$AAa?$AAr?$AAa?$AAl?$AAl?$AAe?$AAl?$AA?2?$AAo?$AAb?$AAj?$AAe?$AAc?$AAt?$AAs?$AA?2?$AAs?$AAt?$AAr?$AAi?$AAn?$AAg@
  000ba	48 8d 0d 00 00
	00 00		 lea	 rcx, OFFSET FLAT:??_C@_1CI@KFCJBGEE@?$AAP?$AAy?$AAB?$AAy?$AAt?$AAe?$AAs?$AA_?$AAC?$AAh?$AAe?$AAc?$AAk?$AA?$CI?$AAs?$AAe?$AAl?$AAf?$AA?$CJ?$AA?$AA@
  000c1	ff 15 00 00 00
	00		 call	 QWORD PTR __imp__wassert
  000c7	33 c0		 xor	 eax, eax
$LN6@stringlib_@11:
  000c9	48 8b 44 24 20	 mov	 rax, QWORD PTR newobj$[rsp]
  000ce	48 8b 40 58	 mov	 rax, QWORD PTR [rax+88]
  000d2	8b 80 00 01 00
	00		 mov	 eax, DWORD PTR [rax+256]
  000d8	25 00 00 00 08	 and	 eax, 134217728		; 08000000H
  000dd	85 c0		 test	 eax, eax
  000df	75 1c		 jne	 SHORT $LN7@stringlib_@11
  000e1	41 b8 5e 00 00
	00		 mov	 r8d, 94			; 0000005eH
  000e7	48 8d 15 00 00
	00 00		 lea	 rdx, OFFSET FLAT:??_C@_1FI@DHLFHKBK@?$AAc?$AA?3?$AA?2?$AAs?$AAr?$AAc?$AA?2?$AAp?$AAy?$AAp?$AAa?$AAr?$AAa?$AAl?$AAl?$AAe?$AAl?$AA?2?$AAo?$AAb?$AAj?$AAe?$AAc?$AAt?$AAs?$AA?2?$AAs?$AAt?$AAr?$AAi?$AAn?$AAg@
  000ee	48 8d 0d 00 00
	00 00		 lea	 rcx, OFFSET FLAT:??_C@_1CM@IAHHNEOI@?$AAP?$AAy?$AAB?$AAy?$AAt?$AAe?$AAs?$AA_?$AAC?$AAh?$AAe?$AAc?$AAk?$AA?$CI?$AAn?$AAe?$AAw?$AAo?$AAb?$AAj?$AA?$CJ?$AA?$AA@
  000f5	ff 15 00 00 00
	00		 call	 QWORD PTR __imp__wassert
  000fb	33 c0		 xor	 eax, eax
$LN7@stringlib_@11:
  000fd	48 8b 44 24 40	 mov	 rax, QWORD PTR self$[rsp]
  00102	48 83 c0 78	 add	 rax, 120		; 00000078H
  00106	48 8b 4c 24 20	 mov	 rcx, QWORD PTR newobj$[rsp]
  0010b	48 83 c1 78	 add	 rcx, 120		; 00000078H
  0010f	48 8b 54 24 40	 mov	 rdx, QWORD PTR self$[rsp]
  00114	4c 8b 42 60	 mov	 r8, QWORD PTR [rdx+96]
  00118	48 8b d0	 mov	 rdx, rax
  0011b	e8 00 00 00 00	 call	 _Py_bytes_capitalize

; 96   :     return newobj;

  00120	48 8b 44 24 20	 mov	 rax, QWORD PTR newobj$[rsp]
$LN2@stringlib_@11:

; 97   : }

  00125	48 83 c4 38	 add	 rsp, 56			; 00000038H
  00129	c3		 ret	 0
stringlib_capitalize ENDP
_TEXT	ENDS
EXTRN	_Py_bytes_swapcase:PROC
;	COMDAT pdata
pdata	SEGMENT
$pdata$stringlib_swapcase DD imagerel stringlib_swapcase
	DD	imagerel stringlib_swapcase+298
	DD	imagerel $unwind$stringlib_swapcase
pdata	ENDS
;	COMDAT xdata
xdata	SEGMENT
$unwind$stringlib_swapcase DD 010901H
	DD	06209H
; Function compile flags: /Odtp
xdata	ENDS
;	COMDAT stringlib_swapcase
_TEXT	SEGMENT
newobj$ = 32
self$ = 64
stringlib_swapcase PROC					; COMDAT

; 101  : {

  00000	48 89 4c 24 08	 mov	 QWORD PTR [rsp+8], rcx
  00005	48 83 ec 38	 sub	 rsp, 56			; 00000038H

; 102  :     PyObject* newobj;
; 103  :     newobj = STRINGLIB_NEW(NULL, STRINGLIB_LEN(self));

  00009	48 8b 44 24 40	 mov	 rax, QWORD PTR self$[rsp]
  0000e	48 8b 40 58	 mov	 rax, QWORD PTR [rax+88]
  00012	8b 80 00 01 00
	00		 mov	 eax, DWORD PTR [rax+256]
  00018	25 00 00 00 08	 and	 eax, 134217728		; 08000000H
  0001d	85 c0		 test	 eax, eax
  0001f	75 1c		 jne	 SHORT $LN4@stringlib_@12
  00021	41 b8 67 00 00
	00		 mov	 r8d, 103		; 00000067H
  00027	48 8d 15 00 00
	00 00		 lea	 rdx, OFFSET FLAT:??_C@_1FI@DHLFHKBK@?$AAc?$AA?3?$AA?2?$AAs?$AAr?$AAc?$AA?2?$AAp?$AAy?$AAp?$AAa?$AAr?$AAa?$AAl?$AAl?$AAe?$AAl?$AA?2?$AAo?$AAb?$AAj?$AAe?$AAc?$AAt?$AAs?$AA?2?$AAs?$AAt?$AAr?$AAi?$AAn?$AAg@
  0002e	48 8d 0d 00 00
	00 00		 lea	 rcx, OFFSET FLAT:??_C@_1CI@KFCJBGEE@?$AAP?$AAy?$AAB?$AAy?$AAt?$AAe?$AAs?$AA_?$AAC?$AAh?$AAe?$AAc?$AAk?$AA?$CI?$AAs?$AAe?$AAl?$AAf?$AA?$CJ?$AA?$AA@
  00035	ff 15 00 00 00
	00		 call	 QWORD PTR __imp__wassert
  0003b	33 c0		 xor	 eax, eax
$LN4@stringlib_@12:
  0003d	48 8b 44 24 40	 mov	 rax, QWORD PTR self$[rsp]
  00042	48 8b 50 60	 mov	 rdx, QWORD PTR [rax+96]
  00046	33 c9		 xor	 ecx, ecx
  00048	e8 00 00 00 00	 call	 PyBytes_FromStringAndSize
  0004d	48 89 44 24 20	 mov	 QWORD PTR newobj$[rsp], rax

; 104  :     if (!newobj)

  00052	48 83 7c 24 20
	00		 cmp	 QWORD PTR newobj$[rsp], 0
  00058	75 07		 jne	 SHORT $LN1@stringlib_@12

; 105  :             return NULL;

  0005a	33 c0		 xor	 eax, eax
  0005c	e9 c4 00 00 00	 jmp	 $LN2@stringlib_@12
$LN1@stringlib_@12:

; 106  :     _Py_bytes_swapcase(STRINGLIB_STR(newobj), STRINGLIB_STR(self),
; 107  :                     STRINGLIB_LEN(self));

  00061	48 8b 44 24 40	 mov	 rax, QWORD PTR self$[rsp]
  00066	48 8b 40 58	 mov	 rax, QWORD PTR [rax+88]
  0006a	8b 80 00 01 00
	00		 mov	 eax, DWORD PTR [rax+256]
  00070	25 00 00 00 08	 and	 eax, 134217728		; 08000000H
  00075	85 c0		 test	 eax, eax
  00077	75 1c		 jne	 SHORT $LN5@stringlib_@12
  00079	41 b8 6b 00 00
	00		 mov	 r8d, 107		; 0000006bH
  0007f	48 8d 15 00 00
	00 00		 lea	 rdx, OFFSET FLAT:??_C@_1FI@DHLFHKBK@?$AAc?$AA?3?$AA?2?$AAs?$AAr?$AAc?$AA?2?$AAp?$AAy?$AAp?$AAa?$AAr?$AAa?$AAl?$AAl?$AAe?$AAl?$AA?2?$AAo?$AAb?$AAj?$AAe?$AAc?$AAt?$AAs?$AA?2?$AAs?$AAt?$AAr?$AAi?$AAn?$AAg@
  00086	48 8d 0d 00 00
	00 00		 lea	 rcx, OFFSET FLAT:??_C@_1CI@KFCJBGEE@?$AAP?$AAy?$AAB?$AAy?$AAt?$AAe?$AAs?$AA_?$AAC?$AAh?$AAe?$AAc?$AAk?$AA?$CI?$AAs?$AAe?$AAl?$AAf?$AA?$CJ?$AA?$AA@
  0008d	ff 15 00 00 00
	00		 call	 QWORD PTR __imp__wassert
  00093	33 c0		 xor	 eax, eax
$LN5@stringlib_@12:
  00095	48 8b 44 24 40	 mov	 rax, QWORD PTR self$[rsp]
  0009a	48 8b 40 58	 mov	 rax, QWORD PTR [rax+88]
  0009e	8b 80 00 01 00
	00		 mov	 eax, DWORD PTR [rax+256]
  000a4	25 00 00 00 08	 and	 eax, 134217728		; 08000000H
  000a9	85 c0		 test	 eax, eax
  000ab	75 1c		 jne	 SHORT $LN6@stringlib_@12
  000ad	41 b8 6a 00 00
	00		 mov	 r8d, 106		; 0000006aH
  000b3	48 8d 15 00 00
	00 00		 lea	 rdx, OFFSET FLAT:??_C@_1FI@DHLFHKBK@?$AAc?$AA?3?$AA?2?$AAs?$AAr?$AAc?$AA?2?$AAp?$AAy?$AAp?$AAa?$AAr?$AAa?$AAl?$AAl?$AAe?$AAl?$AA?2?$AAo?$AAb?$AAj?$AAe?$AAc?$AAt?$AAs?$AA?2?$AAs?$AAt?$AAr?$AAi?$AAn?$AAg@
  000ba	48 8d 0d 00 00
	00 00		 lea	 rcx, OFFSET FLAT:??_C@_1CI@KFCJBGEE@?$AAP?$AAy?$AAB?$AAy?$AAt?$AAe?$AAs?$AA_?$AAC?$AAh?$AAe?$AAc?$AAk?$AA?$CI?$AAs?$AAe?$AAl?$AAf?$AA?$CJ?$AA?$AA@
  000c1	ff 15 00 00 00
	00		 call	 QWORD PTR __imp__wassert
  000c7	33 c0		 xor	 eax, eax
$LN6@stringlib_@12:
  000c9	48 8b 44 24 20	 mov	 rax, QWORD PTR newobj$[rsp]
  000ce	48 8b 40 58	 mov	 rax, QWORD PTR [rax+88]
  000d2	8b 80 00 01 00
	00		 mov	 eax, DWORD PTR [rax+256]
  000d8	25 00 00 00 08	 and	 eax, 134217728		; 08000000H
  000dd	85 c0		 test	 eax, eax
  000df	75 1c		 jne	 SHORT $LN7@stringlib_@12
  000e1	41 b8 6a 00 00
	00		 mov	 r8d, 106		; 0000006aH
  000e7	48 8d 15 00 00
	00 00		 lea	 rdx, OFFSET FLAT:??_C@_1FI@DHLFHKBK@?$AAc?$AA?3?$AA?2?$AAs?$AAr?$AAc?$AA?2?$AAp?$AAy?$AAp?$AAa?$AAr?$AAa?$AAl?$AAl?$AAe?$AAl?$AA?2?$AAo?$AAb?$AAj?$AAe?$AAc?$AAt?$AAs?$AA?2?$AAs?$AAt?$AAr?$AAi?$AAn?$AAg@
  000ee	48 8d 0d 00 00
	00 00		 lea	 rcx, OFFSET FLAT:??_C@_1CM@IAHHNEOI@?$AAP?$AAy?$AAB?$AAy?$AAt?$AAe?$AAs?$AA_?$AAC?$AAh?$AAe?$AAc?$AAk?$AA?$CI?$AAn?$AAe?$AAw?$AAo?$AAb?$AAj?$AA?$CJ?$AA?$AA@
  000f5	ff 15 00 00 00
	00		 call	 QWORD PTR __imp__wassert
  000fb	33 c0		 xor	 eax, eax
$LN7@stringlib_@12:
  000fd	48 8b 44 24 40	 mov	 rax, QWORD PTR self$[rsp]
  00102	48 83 c0 78	 add	 rax, 120		; 00000078H
  00106	48 8b 4c 24 20	 mov	 rcx, QWORD PTR newobj$[rsp]
  0010b	48 83 c1 78	 add	 rcx, 120		; 00000078H
  0010f	48 8b 54 24 40	 mov	 rdx, QWORD PTR self$[rsp]
  00114	4c 8b 42 60	 mov	 r8, QWORD PTR [rdx+96]
  00118	48 8b d0	 mov	 rdx, rax
  0011b	e8 00 00 00 00	 call	 _Py_bytes_swapcase

; 108  :     return newobj;

  00120	48 8b 44 24 20	 mov	 rax, QWORD PTR newobj$[rsp]
$LN2@stringlib_@12:

; 109  : }

  00125	48 83 c4 38	 add	 rsp, 56			; 00000038H
  00129	c3		 ret	 0
stringlib_swapcase ENDP
_TEXT	ENDS
PUBLIC	??_C@_1CC@CJJABHEH@?$AAP?$AAy?$AAB?$AAy?$AAt?$AAe?$AAs?$AA_?$AAC?$AAh?$AAe?$AAc?$AAk?$AA?$CI?$AAu?$AA?$CJ?$AA?$AA@ ; `string'
PUBLIC	??_C@_0BD@OLBJEGKI@result?5is?5too?5long?$AA@	; `string'
PUBLIC	??_C@_1GG@INIJJGIB@?$AAc?$AA?3?$AA?2?$AAs?$AAr?$AAc?$AA?2?$AAp?$AAy?$AAp?$AAa?$AAr?$AAa?$AAl?$AAl?$AAe?$AAl?$AA?2?$AAo?$AAb?$AAj?$AAe?$AAc?$AAt?$AAs?$AA?2?$AAs?$AAt?$AAr?$AAi?$AAn?$AAg@ ; `string'
PUBLIC	??_C@_0O@DJDMKPID@?$HMi?3expandtabs?$AA@	; `string'
EXTRN	_PyArg_ParseTuple_SizeT:PROC
;	COMDAT pdata
; File c:\src\pyparallel\objects\stringlib\transmogrify.h
pdata	SEGMENT
$pdata$stringlib_expandtabs DD imagerel stringlib_expandtabs
	DD	imagerel stringlib_expandtabs+1062
	DD	imagerel $unwind$stringlib_expandtabs
pdata	ENDS
;	COMDAT xdata
xdata	SEGMENT
$unwind$stringlib_expandtabs DD 010e01H
	DD	0e20eH
xdata	ENDS
;	COMDAT ??_C@_1CC@CJJABHEH@?$AAP?$AAy?$AAB?$AAy?$AAt?$AAe?$AAs?$AA_?$AAC?$AAh?$AAe?$AAc?$AAk?$AA?$CI?$AAu?$AA?$CJ?$AA?$AA@
CONST	SEGMENT
??_C@_1CC@CJJABHEH@?$AAP?$AAy?$AAB?$AAy?$AAt?$AAe?$AAs?$AA_?$AAC?$AAh?$AAe?$AAc?$AAk?$AA?$CI?$AAu?$AA?$CJ?$AA?$AA@ DB 'P'
	DB	00H, 'y', 00H, 'B', 00H, 'y', 00H, 't', 00H, 'e', 00H, 's', 00H
	DB	'_', 00H, 'C', 00H, 'h', 00H, 'e', 00H, 'c', 00H, 'k', 00H, '('
	DB	00H, 'u', 00H, ')', 00H, 00H, 00H		; `string'
CONST	ENDS
;	COMDAT ??_C@_0BD@OLBJEGKI@result?5is?5too?5long?$AA@
CONST	SEGMENT
??_C@_0BD@OLBJEGKI@result?5is?5too?5long?$AA@ DB 'result is too long', 00H ; `string'
CONST	ENDS
;	COMDAT ??_C@_1GG@INIJJGIB@?$AAc?$AA?3?$AA?2?$AAs?$AAr?$AAc?$AA?2?$AAp?$AAy?$AAp?$AAa?$AAr?$AAa?$AAl?$AAl?$AAe?$AAl?$AA?2?$AAo?$AAb?$AAj?$AAe?$AAc?$AAt?$AAs?$AA?2?$AAs?$AAt?$AAr?$AAi?$AAn?$AAg@
CONST	SEGMENT
??_C@_1GG@INIJJGIB@?$AAc?$AA?3?$AA?2?$AAs?$AAr?$AAc?$AA?2?$AAp?$AAy?$AAp?$AAa?$AAr?$AAa?$AAl?$AAl?$AAe?$AAl?$AA?2?$AAo?$AAb?$AAj?$AAe?$AAc?$AAt?$AAs?$AA?2?$AAs?$AAt?$AAr?$AAi?$AAn?$AAg@ DB 'c'
	DB	00H, ':', 00H, '\', 00H, 's', 00H, 'r', 00H, 'c', 00H, '\', 00H
	DB	'p', 00H, 'y', 00H, 'p', 00H, 'a', 00H, 'r', 00H, 'a', 00H, 'l'
	DB	00H, 'l', 00H, 'e', 00H, 'l', 00H, '\', 00H, 'o', 00H, 'b', 00H
	DB	'j', 00H, 'e', 00H, 'c', 00H, 't', 00H, 's', 00H, '\', 00H, 's'
	DB	00H, 't', 00H, 'r', 00H, 'i', 00H, 'n', 00H, 'g', 00H, 'l', 00H
	DB	'i', 00H, 'b', 00H, '/', 00H, 't', 00H, 'r', 00H, 'a', 00H, 'n'
	DB	00H, 's', 00H, 'm', 00H, 'o', 00H, 'g', 00H, 'r', 00H, 'i', 00H
	DB	'f', 00H, 'y', 00H, '.', 00H, 'h', 00H, 00H, 00H ; `string'
CONST	ENDS
;	COMDAT ??_C@_0O@DJDMKPID@?$HMi?3expandtabs?$AA@
CONST	SEGMENT
??_C@_0O@DJDMKPID@?$HMi?3expandtabs?$AA@ DB '|i:expandtabs', 00H ; `string'
; Function compile flags: /Odtp
CONST	ENDS
;	COMDAT stringlib_expandtabs
_TEXT	SEGMENT
p$ = 32
i$ = 40
u$ = 48
tabsize$ = 56
q$ = 64
e$ = 72
j$ = 80
tv134 = 88
tv183 = 96
self$ = 128
args$ = 136
stringlib_expandtabs PROC				; COMDAT

; 15   : {

  00000	48 89 54 24 10	 mov	 QWORD PTR [rsp+16], rdx
  00005	48 89 4c 24 08	 mov	 QWORD PTR [rsp+8], rcx
  0000a	48 83 ec 78	 sub	 rsp, 120		; 00000078H

; 16   :     const char *e, *p;
; 17   :     char *q;
; 18   :     size_t i, j;
; 19   :     PyObject *u;
; 20   :     int tabsize = 8;

  0000e	c7 44 24 38 08
	00 00 00	 mov	 DWORD PTR tabsize$[rsp], 8

; 21   : 
; 22   :     if (!PyArg_ParseTuple(args, "|i:expandtabs", &tabsize))

  00016	4c 8d 44 24 38	 lea	 r8, QWORD PTR tabsize$[rsp]
  0001b	48 8d 15 00 00
	00 00		 lea	 rdx, OFFSET FLAT:??_C@_0O@DJDMKPID@?$HMi?3expandtabs?$AA@
  00022	48 8b 8c 24 88
	00 00 00	 mov	 rcx, QWORD PTR args$[rsp]
  0002a	e8 00 00 00 00	 call	 _PyArg_ParseTuple_SizeT
  0002f	85 c0		 test	 eax, eax
  00031	75 07		 jne	 SHORT $LN23@stringlib_@13

; 23   :         return NULL;

  00033	33 c0		 xor	 eax, eax
  00035	e9 e7 03 00 00	 jmp	 $LN24@stringlib_@13
$LN23@stringlib_@13:

; 24   : 
; 25   :     /* First pass: determine size of output string */
; 26   :     i = j = 0;

  0003a	48 c7 44 24 50
	00 00 00 00	 mov	 QWORD PTR j$[rsp], 0
  00043	48 8b 44 24 50	 mov	 rax, QWORD PTR j$[rsp]
  00048	48 89 44 24 28	 mov	 QWORD PTR i$[rsp], rax

; 27   :     e = STRINGLIB_STR(self) + STRINGLIB_LEN(self);

  0004d	48 8b 84 24 80
	00 00 00	 mov	 rax, QWORD PTR self$[rsp]
  00055	48 8b 40 58	 mov	 rax, QWORD PTR [rax+88]
  00059	8b 80 00 01 00
	00		 mov	 eax, DWORD PTR [rax+256]
  0005f	25 00 00 00 08	 and	 eax, 134217728		; 08000000H
  00064	85 c0		 test	 eax, eax
  00066	75 1c		 jne	 SHORT $LN26@stringlib_@13
  00068	41 b8 1b 00 00
	00		 mov	 r8d, 27
  0006e	48 8d 15 00 00
	00 00		 lea	 rdx, OFFSET FLAT:??_C@_1GG@INIJJGIB@?$AAc?$AA?3?$AA?2?$AAs?$AAr?$AAc?$AA?2?$AAp?$AAy?$AAp?$AAa?$AAr?$AAa?$AAl?$AAl?$AAe?$AAl?$AA?2?$AAo?$AAb?$AAj?$AAe?$AAc?$AAt?$AAs?$AA?2?$AAs?$AAt?$AAr?$AAi?$AAn?$AAg@
  00075	48 8d 0d 00 00
	00 00		 lea	 rcx, OFFSET FLAT:??_C@_1CI@KFCJBGEE@?$AAP?$AAy?$AAB?$AAy?$AAt?$AAe?$AAs?$AA_?$AAC?$AAh?$AAe?$AAc?$AAk?$AA?$CI?$AAs?$AAe?$AAl?$AAf?$AA?$CJ?$AA?$AA@
  0007c	ff 15 00 00 00
	00		 call	 QWORD PTR __imp__wassert
  00082	33 c0		 xor	 eax, eax
$LN26@stringlib_@13:
  00084	48 8b 84 24 80
	00 00 00	 mov	 rax, QWORD PTR self$[rsp]
  0008c	48 8b 40 58	 mov	 rax, QWORD PTR [rax+88]
  00090	8b 80 00 01 00
	00		 mov	 eax, DWORD PTR [rax+256]
  00096	25 00 00 00 08	 and	 eax, 134217728		; 08000000H
  0009b	85 c0		 test	 eax, eax
  0009d	75 1c		 jne	 SHORT $LN27@stringlib_@13
  0009f	41 b8 1b 00 00
	00		 mov	 r8d, 27
  000a5	48 8d 15 00 00
	00 00		 lea	 rdx, OFFSET FLAT:??_C@_1GG@INIJJGIB@?$AAc?$AA?3?$AA?2?$AAs?$AAr?$AAc?$AA?2?$AAp?$AAy?$AAp?$AAa?$AAr?$AAa?$AAl?$AAl?$AAe?$AAl?$AA?2?$AAo?$AAb?$AAj?$AAe?$AAc?$AAt?$AAs?$AA?2?$AAs?$AAt?$AAr?$AAi?$AAn?$AAg@
  000ac	48 8d 0d 00 00
	00 00		 lea	 rcx, OFFSET FLAT:??_C@_1CI@KFCJBGEE@?$AAP?$AAy?$AAB?$AAy?$AAt?$AAe?$AAs?$AA_?$AAC?$AAh?$AAe?$AAc?$AAk?$AA?$CI?$AAs?$AAe?$AAl?$AAf?$AA?$CJ?$AA?$AA@
  000b3	ff 15 00 00 00
	00		 call	 QWORD PTR __imp__wassert
  000b9	33 c0		 xor	 eax, eax
$LN27@stringlib_@13:
  000bb	48 8b 84 24 80
	00 00 00	 mov	 rax, QWORD PTR self$[rsp]
  000c3	48 8b 40 60	 mov	 rax, QWORD PTR [rax+96]
  000c7	48 8b 8c 24 80
	00 00 00	 mov	 rcx, QWORD PTR self$[rsp]
  000cf	48 8d 44 01 78	 lea	 rax, QWORD PTR [rcx+rax+120]
  000d4	48 89 44 24 48	 mov	 QWORD PTR e$[rsp], rax

; 28   :     for (p = STRINGLIB_STR(self); p < e; p++)

  000d9	48 8b 84 24 80
	00 00 00	 mov	 rax, QWORD PTR self$[rsp]
  000e1	48 8b 40 58	 mov	 rax, QWORD PTR [rax+88]
  000e5	8b 80 00 01 00
	00		 mov	 eax, DWORD PTR [rax+256]
  000eb	25 00 00 00 08	 and	 eax, 134217728		; 08000000H
  000f0	85 c0		 test	 eax, eax
  000f2	75 1c		 jne	 SHORT $LN28@stringlib_@13
  000f4	41 b8 1c 00 00
	00		 mov	 r8d, 28
  000fa	48 8d 15 00 00
	00 00		 lea	 rdx, OFFSET FLAT:??_C@_1GG@INIJJGIB@?$AAc?$AA?3?$AA?2?$AAs?$AAr?$AAc?$AA?2?$AAp?$AAy?$AAp?$AAa?$AAr?$AAa?$AAl?$AAl?$AAe?$AAl?$AA?2?$AAo?$AAb?$AAj?$AAe?$AAc?$AAt?$AAs?$AA?2?$AAs?$AAt?$AAr?$AAi?$AAn?$AAg@
  00101	48 8d 0d 00 00
	00 00		 lea	 rcx, OFFSET FLAT:??_C@_1CI@KFCJBGEE@?$AAP?$AAy?$AAB?$AAy?$AAt?$AAe?$AAs?$AA_?$AAC?$AAh?$AAe?$AAc?$AAk?$AA?$CI?$AAs?$AAe?$AAl?$AAf?$AA?$CJ?$AA?$AA@
  00108	ff 15 00 00 00
	00		 call	 QWORD PTR __imp__wassert
  0010e	33 c0		 xor	 eax, eax
$LN28@stringlib_@13:
  00110	48 8b 84 24 80
	00 00 00	 mov	 rax, QWORD PTR self$[rsp]
  00118	48 83 c0 78	 add	 rax, 120		; 00000078H
  0011c	48 89 44 24 20	 mov	 QWORD PTR p$[rsp], rax
  00121	eb 0d		 jmp	 SHORT $LN22@stringlib_@13
$LN21@stringlib_@13:
  00123	48 8b 44 24 20	 mov	 rax, QWORD PTR p$[rsp]
  00128	48 ff c0	 inc	 rax
  0012b	48 89 44 24 20	 mov	 QWORD PTR p$[rsp], rax
$LN22@stringlib_@13:
  00130	48 8b 44 24 48	 mov	 rax, QWORD PTR e$[rsp]
  00135	48 39 44 24 20	 cmp	 QWORD PTR p$[rsp], rax
  0013a	0f 83 ed 00 00
	00		 jae	 $LN20@stringlib_@13

; 29   :         if (*p == '\t') {

  00140	48 8b 44 24 20	 mov	 rax, QWORD PTR p$[rsp]
  00145	0f be 00	 movsx	 eax, BYTE PTR [rax]
  00148	83 f8 09	 cmp	 eax, 9
  0014b	75 6b		 jne	 SHORT $LN19@stringlib_@13

; 30   :             if (tabsize > 0) {

  0014d	83 7c 24 38 00	 cmp	 DWORD PTR tabsize$[rsp], 0
  00152	7e 62		 jle	 SHORT $LN18@stringlib_@13

; 31   :                 j += tabsize - (j % tabsize);

  00154	48 63 44 24 38	 movsxd	 rax, DWORD PTR tabsize$[rsp]
  00159	48 89 44 24 58	 mov	 QWORD PTR tv134[rsp], rax
  0015e	48 63 4c 24 38	 movsxd	 rcx, DWORD PTR tabsize$[rsp]
  00163	33 d2		 xor	 edx, edx
  00165	48 8b 44 24 50	 mov	 rax, QWORD PTR j$[rsp]
  0016a	48 f7 f1	 div	 rcx
  0016d	48 8b c2	 mov	 rax, rdx
  00170	48 8b 4c 24 58	 mov	 rcx, QWORD PTR tv134[rsp]
  00175	48 2b c8	 sub	 rcx, rax
  00178	48 8b c1	 mov	 rax, rcx
  0017b	48 8b 4c 24 50	 mov	 rcx, QWORD PTR j$[rsp]
  00180	48 03 c8	 add	 rcx, rax
  00183	48 8b c1	 mov	 rax, rcx
  00186	48 89 44 24 50	 mov	 QWORD PTR j$[rsp], rax

; 32   :                 if (j > PY_SSIZE_T_MAX) {

  0018b	48 b8 ff ff ff
	ff ff ff ff 7f	 mov	 rax, 9223372036854775807 ; 7fffffffffffffffH
  00195	48 39 44 24 50	 cmp	 QWORD PTR j$[rsp], rax
  0019a	76 1a		 jbe	 SHORT $LN17@stringlib_@13

; 33   :                     PyErr_SetString(PyExc_OverflowError,
; 34   :                                     "result is too long");

  0019c	48 8d 15 00 00
	00 00		 lea	 rdx, OFFSET FLAT:??_C@_0BD@OLBJEGKI@result?5is?5too?5long?$AA@
  001a3	48 8b 0d 00 00
	00 00		 mov	 rcx, QWORD PTR PyExc_OverflowError
  001aa	e8 00 00 00 00	 call	 PyErr_SetString

; 35   :                     return NULL;

  001af	33 c0		 xor	 eax, eax
  001b1	e9 6b 02 00 00	 jmp	 $LN24@stringlib_@13
$LN17@stringlib_@13:
$LN18@stringlib_@13:

; 36   :                 }
; 37   :             }
; 38   :         }
; 39   :         else {

  001b6	eb 70		 jmp	 SHORT $LN16@stringlib_@13
$LN19@stringlib_@13:

; 40   :             j++;

  001b8	48 8b 44 24 50	 mov	 rax, QWORD PTR j$[rsp]
  001bd	48 ff c0	 inc	 rax
  001c0	48 89 44 24 50	 mov	 QWORD PTR j$[rsp], rax

; 41   :             if (*p == '\n' || *p == '\r') {

  001c5	48 8b 44 24 20	 mov	 rax, QWORD PTR p$[rsp]
  001ca	0f be 00	 movsx	 eax, BYTE PTR [rax]
  001cd	83 f8 0a	 cmp	 eax, 10
  001d0	74 0d		 je	 SHORT $LN14@stringlib_@13
  001d2	48 8b 44 24 20	 mov	 rax, QWORD PTR p$[rsp]
  001d7	0f be 00	 movsx	 eax, BYTE PTR [rax]
  001da	83 f8 0d	 cmp	 eax, 13
  001dd	75 49		 jne	 SHORT $LN15@stringlib_@13
$LN14@stringlib_@13:

; 42   :                 i += j;

  001df	48 8b 44 24 50	 mov	 rax, QWORD PTR j$[rsp]
  001e4	48 8b 4c 24 28	 mov	 rcx, QWORD PTR i$[rsp]
  001e9	48 03 c8	 add	 rcx, rax
  001ec	48 8b c1	 mov	 rax, rcx
  001ef	48 89 44 24 28	 mov	 QWORD PTR i$[rsp], rax

; 43   :                 j = 0;

  001f4	48 c7 44 24 50
	00 00 00 00	 mov	 QWORD PTR j$[rsp], 0

; 44   :                 if (i > PY_SSIZE_T_MAX) {

  001fd	48 b8 ff ff ff
	ff ff ff ff 7f	 mov	 rax, 9223372036854775807 ; 7fffffffffffffffH
  00207	48 39 44 24 28	 cmp	 QWORD PTR i$[rsp], rax
  0020c	76 1a		 jbe	 SHORT $LN13@stringlib_@13

; 45   :                     PyErr_SetString(PyExc_OverflowError,
; 46   :                                     "result is too long");

  0020e	48 8d 15 00 00
	00 00		 lea	 rdx, OFFSET FLAT:??_C@_0BD@OLBJEGKI@result?5is?5too?5long?$AA@
  00215	48 8b 0d 00 00
	00 00		 mov	 rcx, QWORD PTR PyExc_OverflowError
  0021c	e8 00 00 00 00	 call	 PyErr_SetString

; 47   :                     return NULL;

  00221	33 c0		 xor	 eax, eax
  00223	e9 f9 01 00 00	 jmp	 $LN24@stringlib_@13
$LN13@stringlib_@13:
$LN15@stringlib_@13:
$LN16@stringlib_@13:

; 48   :                 }
; 49   :             }
; 50   :         }

  00228	e9 f6 fe ff ff	 jmp	 $LN21@stringlib_@13
$LN20@stringlib_@13:

; 51   : 
; 52   :     if ((i + j) > PY_SSIZE_T_MAX) {

  0022d	48 8b 44 24 50	 mov	 rax, QWORD PTR j$[rsp]
  00232	48 8b 4c 24 28	 mov	 rcx, QWORD PTR i$[rsp]
  00237	48 03 c8	 add	 rcx, rax
  0023a	48 8b c1	 mov	 rax, rcx
  0023d	48 b9 ff ff ff
	ff ff ff ff 7f	 mov	 rcx, 9223372036854775807 ; 7fffffffffffffffH
  00247	48 3b c1	 cmp	 rax, rcx
  0024a	76 1a		 jbe	 SHORT $LN12@stringlib_@13

; 53   :         PyErr_SetString(PyExc_OverflowError, "result is too long");

  0024c	48 8d 15 00 00
	00 00		 lea	 rdx, OFFSET FLAT:??_C@_0BD@OLBJEGKI@result?5is?5too?5long?$AA@
  00253	48 8b 0d 00 00
	00 00		 mov	 rcx, QWORD PTR PyExc_OverflowError
  0025a	e8 00 00 00 00	 call	 PyErr_SetString

; 54   :         return NULL;

  0025f	33 c0		 xor	 eax, eax
  00261	e9 bb 01 00 00	 jmp	 $LN24@stringlib_@13
$LN12@stringlib_@13:

; 55   :     }
; 56   : 
; 57   :     /* Second pass: create output string and fill it */
; 58   :     u = STRINGLIB_NEW(NULL, i + j);

  00266	48 8b 44 24 50	 mov	 rax, QWORD PTR j$[rsp]
  0026b	48 8b 4c 24 28	 mov	 rcx, QWORD PTR i$[rsp]
  00270	48 03 c8	 add	 rcx, rax
  00273	48 8b c1	 mov	 rax, rcx
  00276	48 8b d0	 mov	 rdx, rax
  00279	33 c9		 xor	 ecx, ecx
  0027b	e8 00 00 00 00	 call	 PyBytes_FromStringAndSize
  00280	48 89 44 24 30	 mov	 QWORD PTR u$[rsp], rax

; 59   :     if (!u)

  00285	48 83 7c 24 30
	00		 cmp	 QWORD PTR u$[rsp], 0
  0028b	75 07		 jne	 SHORT $LN11@stringlib_@13

; 60   :         return NULL;

  0028d	33 c0		 xor	 eax, eax
  0028f	e9 8d 01 00 00	 jmp	 $LN24@stringlib_@13
$LN11@stringlib_@13:

; 61   : 
; 62   :     j = 0;

  00294	48 c7 44 24 50
	00 00 00 00	 mov	 QWORD PTR j$[rsp], 0

; 63   :     q = STRINGLIB_STR(u);

  0029d	48 8b 44 24 30	 mov	 rax, QWORD PTR u$[rsp]
  002a2	48 8b 40 58	 mov	 rax, QWORD PTR [rax+88]
  002a6	8b 80 00 01 00
	00		 mov	 eax, DWORD PTR [rax+256]
  002ac	25 00 00 00 08	 and	 eax, 134217728		; 08000000H
  002b1	85 c0		 test	 eax, eax
  002b3	75 1c		 jne	 SHORT $LN29@stringlib_@13
  002b5	41 b8 3f 00 00
	00		 mov	 r8d, 63			; 0000003fH
  002bb	48 8d 15 00 00
	00 00		 lea	 rdx, OFFSET FLAT:??_C@_1GG@INIJJGIB@?$AAc?$AA?3?$AA?2?$AAs?$AAr?$AAc?$AA?2?$AAp?$AAy?$AAp?$AAa?$AAr?$AAa?$AAl?$AAl?$AAe?$AAl?$AA?2?$AAo?$AAb?$AAj?$AAe?$AAc?$AAt?$AAs?$AA?2?$AAs?$AAt?$AAr?$AAi?$AAn?$AAg@
  002c2	48 8d 0d 00 00
	00 00		 lea	 rcx, OFFSET FLAT:??_C@_1CC@CJJABHEH@?$AAP?$AAy?$AAB?$AAy?$AAt?$AAe?$AAs?$AA_?$AAC?$AAh?$AAe?$AAc?$AAk?$AA?$CI?$AAu?$AA?$CJ?$AA?$AA@
  002c9	ff 15 00 00 00
	00		 call	 QWORD PTR __imp__wassert
  002cf	33 c0		 xor	 eax, eax
$LN29@stringlib_@13:
  002d1	48 8b 44 24 30	 mov	 rax, QWORD PTR u$[rsp]
  002d6	48 83 c0 78	 add	 rax, 120		; 00000078H
  002da	48 89 44 24 40	 mov	 QWORD PTR q$[rsp], rax

; 64   : 
; 65   :     for (p = STRINGLIB_STR(self); p < e; p++)

  002df	48 8b 84 24 80
	00 00 00	 mov	 rax, QWORD PTR self$[rsp]
  002e7	48 8b 40 58	 mov	 rax, QWORD PTR [rax+88]
  002eb	8b 80 00 01 00
	00		 mov	 eax, DWORD PTR [rax+256]
  002f1	25 00 00 00 08	 and	 eax, 134217728		; 08000000H
  002f6	85 c0		 test	 eax, eax
  002f8	75 1c		 jne	 SHORT $LN30@stringlib_@13
  002fa	41 b8 41 00 00
	00		 mov	 r8d, 65			; 00000041H
  00300	48 8d 15 00 00
	00 00		 lea	 rdx, OFFSET FLAT:??_C@_1GG@INIJJGIB@?$AAc?$AA?3?$AA?2?$AAs?$AAr?$AAc?$AA?2?$AAp?$AAy?$AAp?$AAa?$AAr?$AAa?$AAl?$AAl?$AAe?$AAl?$AA?2?$AAo?$AAb?$AAj?$AAe?$AAc?$AAt?$AAs?$AA?2?$AAs?$AAt?$AAr?$AAi?$AAn?$AAg@
  00307	48 8d 0d 00 00
	00 00		 lea	 rcx, OFFSET FLAT:??_C@_1CI@KFCJBGEE@?$AAP?$AAy?$AAB?$AAy?$AAt?$AAe?$AAs?$AA_?$AAC?$AAh?$AAe?$AAc?$AAk?$AA?$CI?$AAs?$AAe?$AAl?$AAf?$AA?$CJ?$AA?$AA@
  0030e	ff 15 00 00 00
	00		 call	 QWORD PTR __imp__wassert
  00314	33 c0		 xor	 eax, eax
$LN30@stringlib_@13:
  00316	48 8b 84 24 80
	00 00 00	 mov	 rax, QWORD PTR self$[rsp]
  0031e	48 83 c0 78	 add	 rax, 120		; 00000078H
  00322	48 89 44 24 20	 mov	 QWORD PTR p$[rsp], rax
  00327	eb 0d		 jmp	 SHORT $LN10@stringlib_@13
$LN9@stringlib_@13:
  00329	48 8b 44 24 20	 mov	 rax, QWORD PTR p$[rsp]
  0032e	48 ff c0	 inc	 rax
  00331	48 89 44 24 20	 mov	 QWORD PTR p$[rsp], rax
$LN10@stringlib_@13:
  00336	48 8b 44 24 48	 mov	 rax, QWORD PTR e$[rsp]
  0033b	48 39 44 24 20	 cmp	 QWORD PTR p$[rsp], rax
  00340	0f 83 d6 00 00
	00		 jae	 $LN8@stringlib_@13

; 66   :         if (*p == '\t') {

  00346	48 8b 44 24 20	 mov	 rax, QWORD PTR p$[rsp]
  0034b	0f be 00	 movsx	 eax, BYTE PTR [rax]
  0034e	83 f8 09	 cmp	 eax, 9
  00351	75 78		 jne	 SHORT $LN7@stringlib_@13

; 67   :             if (tabsize > 0) {

  00353	83 7c 24 38 00	 cmp	 DWORD PTR tabsize$[rsp], 0
  00358	7e 6f		 jle	 SHORT $LN6@stringlib_@13

; 68   :                 i = tabsize - (j % tabsize);

  0035a	48 63 44 24 38	 movsxd	 rax, DWORD PTR tabsize$[rsp]
  0035f	48 89 44 24 60	 mov	 QWORD PTR tv183[rsp], rax
  00364	48 63 4c 24 38	 movsxd	 rcx, DWORD PTR tabsize$[rsp]
  00369	33 d2		 xor	 edx, edx
  0036b	48 8b 44 24 50	 mov	 rax, QWORD PTR j$[rsp]
  00370	48 f7 f1	 div	 rcx
  00373	48 8b c2	 mov	 rax, rdx
  00376	48 8b 4c 24 60	 mov	 rcx, QWORD PTR tv183[rsp]
  0037b	48 2b c8	 sub	 rcx, rax
  0037e	48 8b c1	 mov	 rax, rcx
  00381	48 89 44 24 28	 mov	 QWORD PTR i$[rsp], rax

; 69   :                 j += i;

  00386	48 8b 44 24 28	 mov	 rax, QWORD PTR i$[rsp]
  0038b	48 8b 4c 24 50	 mov	 rcx, QWORD PTR j$[rsp]
  00390	48 03 c8	 add	 rcx, rax
  00393	48 8b c1	 mov	 rax, rcx
  00396	48 89 44 24 50	 mov	 QWORD PTR j$[rsp], rax
$LN5@stringlib_@13:

; 70   :                 while (i--)

  0039b	48 8b 44 24 28	 mov	 rax, QWORD PTR i$[rsp]
  003a0	48 8b 4c 24 28	 mov	 rcx, QWORD PTR i$[rsp]
  003a5	48 ff c9	 dec	 rcx
  003a8	48 89 4c 24 28	 mov	 QWORD PTR i$[rsp], rcx
  003ad	48 85 c0	 test	 rax, rax
  003b0	74 17		 je	 SHORT $LN4@stringlib_@13

; 71   :                     *q++ = ' ';

  003b2	48 8b 44 24 40	 mov	 rax, QWORD PTR q$[rsp]
  003b7	c6 00 20	 mov	 BYTE PTR [rax], 32	; 00000020H
  003ba	48 8b 44 24 40	 mov	 rax, QWORD PTR q$[rsp]
  003bf	48 ff c0	 inc	 rax
  003c2	48 89 44 24 40	 mov	 QWORD PTR q$[rsp], rax
  003c7	eb d2		 jmp	 SHORT $LN5@stringlib_@13
$LN4@stringlib_@13:
$LN6@stringlib_@13:

; 72   :             }
; 73   :         }
; 74   :         else {

  003c9	eb 4c		 jmp	 SHORT $LN3@stringlib_@13
$LN7@stringlib_@13:

; 75   :             j++;

  003cb	48 8b 44 24 50	 mov	 rax, QWORD PTR j$[rsp]
  003d0	48 ff c0	 inc	 rax
  003d3	48 89 44 24 50	 mov	 QWORD PTR j$[rsp], rax

; 76   :             *q++ = *p;

  003d8	48 8b 44 24 40	 mov	 rax, QWORD PTR q$[rsp]
  003dd	48 8b 4c 24 20	 mov	 rcx, QWORD PTR p$[rsp]
  003e2	0f b6 09	 movzx	 ecx, BYTE PTR [rcx]
  003e5	88 08		 mov	 BYTE PTR [rax], cl
  003e7	48 8b 44 24 40	 mov	 rax, QWORD PTR q$[rsp]
  003ec	48 ff c0	 inc	 rax
  003ef	48 89 44 24 40	 mov	 QWORD PTR q$[rsp], rax

; 77   :             if (*p == '\n' || *p == '\r')

  003f4	48 8b 44 24 20	 mov	 rax, QWORD PTR p$[rsp]
  003f9	0f be 00	 movsx	 eax, BYTE PTR [rax]
  003fc	83 f8 0a	 cmp	 eax, 10
  003ff	74 0d		 je	 SHORT $LN1@stringlib_@13
  00401	48 8b 44 24 20	 mov	 rax, QWORD PTR p$[rsp]
  00406	0f be 00	 movsx	 eax, BYTE PTR [rax]
  00409	83 f8 0d	 cmp	 eax, 13
  0040c	75 09		 jne	 SHORT $LN2@stringlib_@13
$LN1@stringlib_@13:

; 78   :                 j = 0;

  0040e	48 c7 44 24 50
	00 00 00 00	 mov	 QWORD PTR j$[rsp], 0
$LN2@stringlib_@13:
$LN3@stringlib_@13:

; 79   :         }

  00417	e9 0d ff ff ff	 jmp	 $LN9@stringlib_@13
$LN8@stringlib_@13:

; 80   : 
; 81   :     return u;

  0041c	48 8b 44 24 30	 mov	 rax, QWORD PTR u$[rsp]
$LN24@stringlib_@13:

; 82   : }

  00421	48 83 c4 78	 add	 rsp, 120		; 00000078H
  00425	c3		 ret	 0
stringlib_expandtabs ENDP
_TEXT	ENDS
PUBLIC	??_C@_09HKAKFEFH@n?$HMc?3ljust?$AA@		; `string'
;	COMDAT pdata
pdata	SEGMENT
$pdata$stringlib_ljust DD imagerel stringlib_ljust
	DD	imagerel stringlib_ljust+258
	DD	imagerel $unwind$stringlib_ljust
pdata	ENDS
;	COMDAT xdata
xdata	SEGMENT
$unwind$stringlib_ljust DD 010e01H
	DD	0620eH
xdata	ENDS
;	COMDAT ??_C@_09HKAKFEFH@n?$HMc?3ljust?$AA@
CONST	SEGMENT
??_C@_09HKAKFEFH@n?$HMc?3ljust?$AA@ DB 'n|c:ljust', 00H	; `string'
; Function compile flags: /Odtp
CONST	ENDS
;	COMDAT stringlib_ljust
_TEXT	SEGMENT
width$ = 32
fillchar$ = 40
self$ = 64
args$ = 72
stringlib_ljust PROC					; COMDAT

; 129  : {

  00000	48 89 54 24 10	 mov	 QWORD PTR [rsp+16], rdx
  00005	48 89 4c 24 08	 mov	 QWORD PTR [rsp+8], rcx
  0000a	48 83 ec 38	 sub	 rsp, 56			; 00000038H

; 130  :     Py_ssize_t width;
; 131  :     char fillchar = ' ';

  0000e	c6 44 24 28 20	 mov	 BYTE PTR fillchar$[rsp], 32 ; 00000020H

; 132  : 
; 133  :     if (!PyArg_ParseTuple(args, "n|c:ljust", &width, &fillchar))

  00013	4c 8d 4c 24 28	 lea	 r9, QWORD PTR fillchar$[rsp]
  00018	4c 8d 44 24 20	 lea	 r8, QWORD PTR width$[rsp]
  0001d	48 8d 15 00 00
	00 00		 lea	 rdx, OFFSET FLAT:??_C@_09HKAKFEFH@n?$HMc?3ljust?$AA@
  00024	48 8b 4c 24 48	 mov	 rcx, QWORD PTR args$[rsp]
  00029	e8 00 00 00 00	 call	 _PyArg_ParseTuple_SizeT
  0002e	85 c0		 test	 eax, eax
  00030	75 07		 jne	 SHORT $LN2@stringlib_@14

; 134  :         return NULL;

  00032	33 c0		 xor	 eax, eax
  00034	e9 c4 00 00 00	 jmp	 $LN3@stringlib_@14
$LN2@stringlib_@14:

; 135  : 
; 136  :     if (STRINGLIB_LEN(self) >= width && STRINGLIB_CHECK_EXACT(self)) {

  00039	48 8b 44 24 40	 mov	 rax, QWORD PTR self$[rsp]
  0003e	48 8b 40 58	 mov	 rax, QWORD PTR [rax+88]
  00042	8b 80 00 01 00
	00		 mov	 eax, DWORD PTR [rax+256]
  00048	25 00 00 00 08	 and	 eax, 134217728		; 08000000H
  0004d	85 c0		 test	 eax, eax
  0004f	75 1c		 jne	 SHORT $LN5@stringlib_@14
  00051	41 b8 88 00 00
	00		 mov	 r8d, 136		; 00000088H
  00057	48 8d 15 00 00
	00 00		 lea	 rdx, OFFSET FLAT:??_C@_1GG@INIJJGIB@?$AAc?$AA?3?$AA?2?$AAs?$AAr?$AAc?$AA?2?$AAp?$AAy?$AAp?$AAa?$AAr?$AAa?$AAl?$AAl?$AAe?$AAl?$AA?2?$AAo?$AAb?$AAj?$AAe?$AAc?$AAt?$AAs?$AA?2?$AAs?$AAt?$AAr?$AAi?$AAn?$AAg@
  0005e	48 8d 0d 00 00
	00 00		 lea	 rcx, OFFSET FLAT:??_C@_1CI@KFCJBGEE@?$AAP?$AAy?$AAB?$AAy?$AAt?$AAe?$AAs?$AA_?$AAC?$AAh?$AAe?$AAc?$AAk?$AA?$CI?$AAs?$AAe?$AAl?$AAf?$AA?$CJ?$AA?$AA@
  00065	ff 15 00 00 00
	00		 call	 QWORD PTR __imp__wassert
  0006b	33 c0		 xor	 eax, eax
$LN5@stringlib_@14:
  0006d	48 8b 44 24 40	 mov	 rax, QWORD PTR self$[rsp]
  00072	48 8b 4c 24 20	 mov	 rcx, QWORD PTR width$[rsp]
  00077	48 39 48 60	 cmp	 QWORD PTR [rax+96], rcx
  0007b	7c 23		 jl	 SHORT $LN1@stringlib_@14
  0007d	48 8d 05 00 00
	00 00		 lea	 rax, OFFSET FLAT:PyBytes_Type
  00084	48 8b 4c 24 40	 mov	 rcx, QWORD PTR self$[rsp]
  00089	48 39 41 58	 cmp	 QWORD PTR [rcx+88], rax
  0008d	75 11		 jne	 SHORT $LN1@stringlib_@14

; 137  : #if STRINGLIB_MUTABLE
; 138  :         /* We're defined as returning a copy;  If the object is mutable
; 139  :          * that means we must make an identical copy. */
; 140  :         return STRINGLIB_NEW(STRINGLIB_STR(self), STRINGLIB_LEN(self));
; 141  : #else
; 142  :         Py_INCREF(self);

  0008f	48 8b 4c 24 40	 mov	 rcx, QWORD PTR self$[rsp]
  00094	e8 00 00 00 00	 call	 _Py_IncRef

; 143  :         return (PyObject*) self;

  00099	48 8b 44 24 40	 mov	 rax, QWORD PTR self$[rsp]
  0009e	eb 5d		 jmp	 SHORT $LN3@stringlib_@14
$LN1@stringlib_@14:

; 144  : #endif
; 145  :     }
; 146  : 
; 147  :     return pad(self, 0, width - STRINGLIB_LEN(self), fillchar);

  000a0	48 8b 44 24 40	 mov	 rax, QWORD PTR self$[rsp]
  000a5	48 8b 40 58	 mov	 rax, QWORD PTR [rax+88]
  000a9	8b 80 00 01 00
	00		 mov	 eax, DWORD PTR [rax+256]
  000af	25 00 00 00 08	 and	 eax, 134217728		; 08000000H
  000b4	85 c0		 test	 eax, eax
  000b6	75 1c		 jne	 SHORT $LN6@stringlib_@14
  000b8	41 b8 93 00 00
	00		 mov	 r8d, 147		; 00000093H
  000be	48 8d 15 00 00
	00 00		 lea	 rdx, OFFSET FLAT:??_C@_1GG@INIJJGIB@?$AAc?$AA?3?$AA?2?$AAs?$AAr?$AAc?$AA?2?$AAp?$AAy?$AAp?$AAa?$AAr?$AAa?$AAl?$AAl?$AAe?$AAl?$AA?2?$AAo?$AAb?$AAj?$AAe?$AAc?$AAt?$AAs?$AA?2?$AAs?$AAt?$AAr?$AAi?$AAn?$AAg@
  000c5	48 8d 0d 00 00
	00 00		 lea	 rcx, OFFSET FLAT:??_C@_1CI@KFCJBGEE@?$AAP?$AAy?$AAB?$AAy?$AAt?$AAe?$AAs?$AA_?$AAC?$AAh?$AAe?$AAc?$AAk?$AA?$CI?$AAs?$AAe?$AAl?$AAf?$AA?$CJ?$AA?$AA@
  000cc	ff 15 00 00 00
	00		 call	 QWORD PTR __imp__wassert
  000d2	33 c0		 xor	 eax, eax
$LN6@stringlib_@14:
  000d4	48 8b 44 24 40	 mov	 rax, QWORD PTR self$[rsp]
  000d9	48 8b 40 60	 mov	 rax, QWORD PTR [rax+96]
  000dd	48 8b 4c 24 20	 mov	 rcx, QWORD PTR width$[rsp]
  000e2	48 2b c8	 sub	 rcx, rax
  000e5	48 8b c1	 mov	 rax, rcx
  000e8	44 0f b6 4c 24
	28		 movzx	 r9d, BYTE PTR fillchar$[rsp]
  000ee	4c 8b c0	 mov	 r8, rax
  000f1	33 d2		 xor	 edx, edx
  000f3	48 8b 4c 24 40	 mov	 rcx, QWORD PTR self$[rsp]
  000f8	e8 00 00 00 00	 call	 pad
$LN3@stringlib_@14:

; 148  : }

  000fd	48 83 c4 38	 add	 rsp, 56			; 00000038H
  00101	c3		 ret	 0
stringlib_ljust ENDP
_TEXT	ENDS
EXTRN	memset:PROC
;	COMDAT pdata
pdata	SEGMENT
$pdata$pad DD	imagerel pad
	DD	imagerel pad+788
	DD	imagerel $unwind$pad
pdata	ENDS
;	COMDAT xdata
xdata	SEGMENT
$unwind$pad DD	011801H
	DD	0a218H
; Function compile flags: /Odtp
xdata	ENDS
;	COMDAT pad
_TEXT	SEGMENT
u$ = 32
t_$22016 = 40
s_$22021 = 48
i_$22011 = 56
n_$22012 = 64
self$ = 96
left$ = 104
right$ = 112
fill$ = 120
pad	PROC						; COMDAT

; 86   : {

  00000	44 88 4c 24 20	 mov	 BYTE PTR [rsp+32], r9b
  00005	4c 89 44 24 18	 mov	 QWORD PTR [rsp+24], r8
  0000a	48 89 54 24 10	 mov	 QWORD PTR [rsp+16], rdx
  0000f	48 89 4c 24 08	 mov	 QWORD PTR [rsp+8], rcx
  00014	48 83 ec 58	 sub	 rsp, 88			; 00000058H

; 87   :     PyObject *u;
; 88   : 
; 89   :     if (left < 0)

  00018	48 83 7c 24 68
	00		 cmp	 QWORD PTR left$[rsp], 0
  0001e	7d 09		 jge	 SHORT $LN14@pad

; 90   :         left = 0;

  00020	48 c7 44 24 68
	00 00 00 00	 mov	 QWORD PTR left$[rsp], 0
$LN14@pad:

; 91   :     if (right < 0)

  00029	48 83 7c 24 70
	00		 cmp	 QWORD PTR right$[rsp], 0
  0002f	7d 09		 jge	 SHORT $LN13@pad

; 92   :         right = 0;

  00031	48 c7 44 24 70
	00 00 00 00	 mov	 QWORD PTR right$[rsp], 0
$LN13@pad:

; 93   : 
; 94   :     if (left == 0 && right == 0 && STRINGLIB_CHECK_EXACT(self)) {

  0003a	48 83 7c 24 68
	00		 cmp	 QWORD PTR left$[rsp], 0
  00040	75 2e		 jne	 SHORT $LN12@pad
  00042	48 83 7c 24 70
	00		 cmp	 QWORD PTR right$[rsp], 0
  00048	75 26		 jne	 SHORT $LN12@pad
  0004a	48 8d 05 00 00
	00 00		 lea	 rax, OFFSET FLAT:PyBytes_Type
  00051	48 8b 4c 24 60	 mov	 rcx, QWORD PTR self$[rsp]
  00056	48 39 41 58	 cmp	 QWORD PTR [rcx+88], rax
  0005a	75 14		 jne	 SHORT $LN12@pad

; 95   : #if STRINGLIB_MUTABLE
; 96   :         /* We're defined as returning a copy;  If the object is mutable
; 97   :          * that means we must make an identical copy. */
; 98   :         return STRINGLIB_NEW(STRINGLIB_STR(self), STRINGLIB_LEN(self));
; 99   : #else
; 100  :         Py_INCREF(self);

  0005c	48 8b 4c 24 60	 mov	 rcx, QWORD PTR self$[rsp]
  00061	e8 00 00 00 00	 call	 _Py_IncRef

; 101  :         return (PyObject *)self;

  00066	48 8b 44 24 60	 mov	 rax, QWORD PTR self$[rsp]
  0006b	e9 9f 02 00 00	 jmp	 $LN15@pad
$LN12@pad:

; 102  : #endif /* STRINGLIB_MUTABLE */
; 103  :     }
; 104  : 
; 105  :     u = STRINGLIB_NEW(NULL,
; 106  : 				   left + STRINGLIB_LEN(self) + right);

  00070	48 8b 44 24 60	 mov	 rax, QWORD PTR self$[rsp]
  00075	48 8b 40 58	 mov	 rax, QWORD PTR [rax+88]
  00079	8b 80 00 01 00
	00		 mov	 eax, DWORD PTR [rax+256]
  0007f	25 00 00 00 08	 and	 eax, 134217728		; 08000000H
  00084	85 c0		 test	 eax, eax
  00086	75 1c		 jne	 SHORT $LN17@pad
  00088	41 b8 6a 00 00
	00		 mov	 r8d, 106		; 0000006aH
  0008e	48 8d 15 00 00
	00 00		 lea	 rdx, OFFSET FLAT:??_C@_1GG@INIJJGIB@?$AAc?$AA?3?$AA?2?$AAs?$AAr?$AAc?$AA?2?$AAp?$AAy?$AAp?$AAa?$AAr?$AAa?$AAl?$AAl?$AAe?$AAl?$AA?2?$AAo?$AAb?$AAj?$AAe?$AAc?$AAt?$AAs?$AA?2?$AAs?$AAt?$AAr?$AAi?$AAn?$AAg@
  00095	48 8d 0d 00 00
	00 00		 lea	 rcx, OFFSET FLAT:??_C@_1CI@KFCJBGEE@?$AAP?$AAy?$AAB?$AAy?$AAt?$AAe?$AAs?$AA_?$AAC?$AAh?$AAe?$AAc?$AAk?$AA?$CI?$AAs?$AAe?$AAl?$AAf?$AA?$CJ?$AA?$AA@
  0009c	ff 15 00 00 00
	00		 call	 QWORD PTR __imp__wassert
  000a2	33 c0		 xor	 eax, eax
$LN17@pad:
  000a4	48 8b 44 24 60	 mov	 rax, QWORD PTR self$[rsp]
  000a9	48 8b 40 60	 mov	 rax, QWORD PTR [rax+96]
  000ad	48 8b 4c 24 68	 mov	 rcx, QWORD PTR left$[rsp]
  000b2	48 03 c8	 add	 rcx, rax
  000b5	48 8b c1	 mov	 rax, rcx
  000b8	48 03 44 24 70	 add	 rax, QWORD PTR right$[rsp]
  000bd	48 8b d0	 mov	 rdx, rax
  000c0	33 c9		 xor	 ecx, ecx
  000c2	e8 00 00 00 00	 call	 PyBytes_FromStringAndSize
  000c7	48 89 44 24 20	 mov	 QWORD PTR u$[rsp], rax

; 107  :     if (u) {

  000cc	48 83 7c 24 20
	00		 cmp	 QWORD PTR u$[rsp], 0
  000d2	0f 84 32 02 00
	00		 je	 $LN11@pad

; 108  :         if (left)

  000d8	48 83 7c 24 68
	00		 cmp	 QWORD PTR left$[rsp], 0
  000de	74 4e		 je	 SHORT $LN10@pad

; 109  :             memset(STRINGLIB_STR(u), fill, left);

  000e0	48 8b 44 24 20	 mov	 rax, QWORD PTR u$[rsp]
  000e5	48 8b 40 58	 mov	 rax, QWORD PTR [rax+88]
  000e9	8b 80 00 01 00
	00		 mov	 eax, DWORD PTR [rax+256]
  000ef	25 00 00 00 08	 and	 eax, 134217728		; 08000000H
  000f4	85 c0		 test	 eax, eax
  000f6	75 1c		 jne	 SHORT $LN18@pad
  000f8	41 b8 6d 00 00
	00		 mov	 r8d, 109		; 0000006dH
  000fe	48 8d 15 00 00
	00 00		 lea	 rdx, OFFSET FLAT:??_C@_1GG@INIJJGIB@?$AAc?$AA?3?$AA?2?$AAs?$AAr?$AAc?$AA?2?$AAp?$AAy?$AAp?$AAa?$AAr?$AAa?$AAl?$AAl?$AAe?$AAl?$AA?2?$AAo?$AAb?$AAj?$AAe?$AAc?$AAt?$AAs?$AA?2?$AAs?$AAt?$AAr?$AAi?$AAn?$AAg@
  00105	48 8d 0d 00 00
	00 00		 lea	 rcx, OFFSET FLAT:??_C@_1CC@CJJABHEH@?$AAP?$AAy?$AAB?$AAy?$AAt?$AAe?$AAs?$AA_?$AAC?$AAh?$AAe?$AAc?$AAk?$AA?$CI?$AAu?$AA?$CJ?$AA?$AA@
  0010c	ff 15 00 00 00
	00		 call	 QWORD PTR __imp__wassert
  00112	33 c0		 xor	 eax, eax
$LN18@pad:
  00114	0f be 44 24 78	 movsx	 eax, BYTE PTR fill$[rsp]
  00119	48 8b 4c 24 20	 mov	 rcx, QWORD PTR u$[rsp]
  0011e	48 83 c1 78	 add	 rcx, 120		; 00000078H
  00122	4c 8b 44 24 68	 mov	 r8, QWORD PTR left$[rsp]
  00127	8b d0		 mov	 edx, eax
  00129	e8 00 00 00 00	 call	 memset
$LN10@pad:
$LN9@pad:

; 110  :         Py_MEMCPY(STRINGLIB_STR(u) + left,
; 111  : 	       STRINGLIB_STR(self),
; 112  : 	       STRINGLIB_LEN(self));

  0012e	48 8b 44 24 60	 mov	 rax, QWORD PTR self$[rsp]
  00133	48 8b 40 58	 mov	 rax, QWORD PTR [rax+88]
  00137	8b 80 00 01 00
	00		 mov	 eax, DWORD PTR [rax+256]
  0013d	25 00 00 00 08	 and	 eax, 134217728		; 08000000H
  00142	85 c0		 test	 eax, eax
  00144	75 1c		 jne	 SHORT $LN19@pad
  00146	41 b8 70 00 00
	00		 mov	 r8d, 112		; 00000070H
  0014c	48 8d 15 00 00
	00 00		 lea	 rdx, OFFSET FLAT:??_C@_1GG@INIJJGIB@?$AAc?$AA?3?$AA?2?$AAs?$AAr?$AAc?$AA?2?$AAp?$AAy?$AAp?$AAa?$AAr?$AAa?$AAl?$AAl?$AAe?$AAl?$AA?2?$AAo?$AAb?$AAj?$AAe?$AAc?$AAt?$AAs?$AA?2?$AAs?$AAt?$AAr?$AAi?$AAn?$AAg@
  00153	48 8d 0d 00 00
	00 00		 lea	 rcx, OFFSET FLAT:??_C@_1CI@KFCJBGEE@?$AAP?$AAy?$AAB?$AAy?$AAt?$AAe?$AAs?$AA_?$AAC?$AAh?$AAe?$AAc?$AAk?$AA?$CI?$AAs?$AAe?$AAl?$AAf?$AA?$CJ?$AA?$AA@
  0015a	ff 15 00 00 00
	00		 call	 QWORD PTR __imp__wassert
  00160	33 c0		 xor	 eax, eax
$LN19@pad:
  00162	48 8b 44 24 60	 mov	 rax, QWORD PTR self$[rsp]
  00167	48 8b 40 60	 mov	 rax, QWORD PTR [rax+96]
  0016b	48 89 44 24 40	 mov	 QWORD PTR n_$22012[rsp], rax
  00170	48 8b 44 24 20	 mov	 rax, QWORD PTR u$[rsp]
  00175	48 8b 40 58	 mov	 rax, QWORD PTR [rax+88]
  00179	8b 80 00 01 00
	00		 mov	 eax, DWORD PTR [rax+256]
  0017f	25 00 00 00 08	 and	 eax, 134217728		; 08000000H
  00184	85 c0		 test	 eax, eax
  00186	75 1c		 jne	 SHORT $LN20@pad
  00188	41 b8 70 00 00
	00		 mov	 r8d, 112		; 00000070H
  0018e	48 8d 15 00 00
	00 00		 lea	 rdx, OFFSET FLAT:??_C@_1GG@INIJJGIB@?$AAc?$AA?3?$AA?2?$AAs?$AAr?$AAc?$AA?2?$AAp?$AAy?$AAp?$AAa?$AAr?$AAa?$AAl?$AAl?$AAe?$AAl?$AA?2?$AAo?$AAb?$AAj?$AAe?$AAc?$AAt?$AAs?$AA?2?$AAs?$AAt?$AAr?$AAi?$AAn?$AAg@
  00195	48 8d 0d 00 00
	00 00		 lea	 rcx, OFFSET FLAT:??_C@_1CC@CJJABHEH@?$AAP?$AAy?$AAB?$AAy?$AAt?$AAe?$AAs?$AA_?$AAC?$AAh?$AAe?$AAc?$AAk?$AA?$CI?$AAu?$AA?$CJ?$AA?$AA@
  0019c	ff 15 00 00 00
	00		 call	 QWORD PTR __imp__wassert
  001a2	33 c0		 xor	 eax, eax
$LN20@pad:
  001a4	48 8b 44 24 20	 mov	 rax, QWORD PTR u$[rsp]
  001a9	48 8b 4c 24 68	 mov	 rcx, QWORD PTR left$[rsp]
  001ae	48 8d 44 08 78	 lea	 rax, QWORD PTR [rax+rcx+120]
  001b3	48 89 44 24 28	 mov	 QWORD PTR t_$22016[rsp], rax
  001b8	48 8b 44 24 60	 mov	 rax, QWORD PTR self$[rsp]
  001bd	48 8b 40 58	 mov	 rax, QWORD PTR [rax+88]
  001c1	8b 80 00 01 00
	00		 mov	 eax, DWORD PTR [rax+256]
  001c7	25 00 00 00 08	 and	 eax, 134217728		; 08000000H
  001cc	85 c0		 test	 eax, eax
  001ce	75 1c		 jne	 SHORT $LN21@pad
  001d0	41 b8 70 00 00
	00		 mov	 r8d, 112		; 00000070H
  001d6	48 8d 15 00 00
	00 00		 lea	 rdx, OFFSET FLAT:??_C@_1GG@INIJJGIB@?$AAc?$AA?3?$AA?2?$AAs?$AAr?$AAc?$AA?2?$AAp?$AAy?$AAp?$AAa?$AAr?$AAa?$AAl?$AAl?$AAe?$AAl?$AA?2?$AAo?$AAb?$AAj?$AAe?$AAc?$AAt?$AAs?$AA?2?$AAs?$AAt?$AAr?$AAi?$AAn?$AAg@
  001dd	48 8d 0d 00 00
	00 00		 lea	 rcx, OFFSET FLAT:??_C@_1CI@KFCJBGEE@?$AAP?$AAy?$AAB?$AAy?$AAt?$AAe?$AAs?$AA_?$AAC?$AAh?$AAe?$AAc?$AAk?$AA?$CI?$AAs?$AAe?$AAl?$AAf?$AA?$CJ?$AA?$AA@
  001e4	ff 15 00 00 00
	00		 call	 QWORD PTR __imp__wassert
  001ea	33 c0		 xor	 eax, eax
$LN21@pad:
  001ec	48 8b 44 24 60	 mov	 rax, QWORD PTR self$[rsp]
  001f1	48 83 c0 78	 add	 rax, 120		; 00000078H
  001f5	48 89 44 24 30	 mov	 QWORD PTR s_$22021[rsp], rax
  001fa	48 83 7c 24 40
	10		 cmp	 QWORD PTR n_$22012[rsp], 16
  00200	72 16		 jb	 SHORT $LN6@pad
  00202	4c 8b 44 24 40	 mov	 r8, QWORD PTR n_$22012[rsp]
  00207	48 8b 54 24 30	 mov	 rdx, QWORD PTR s_$22021[rsp]
  0020c	48 8b 4c 24 28	 mov	 rcx, QWORD PTR t_$22016[rsp]
  00211	e8 00 00 00 00	 call	 memcpy
  00216	eb 4b		 jmp	 SHORT $LN5@pad
$LN6@pad:
  00218	48 c7 44 24 38
	00 00 00 00	 mov	 QWORD PTR i_$22011[rsp], 0
  00221	eb 0d		 jmp	 SHORT $LN4@pad
$LN3@pad:
  00223	48 8b 44 24 38	 mov	 rax, QWORD PTR i_$22011[rsp]
  00228	48 ff c0	 inc	 rax
  0022b	48 89 44 24 38	 mov	 QWORD PTR i_$22011[rsp], rax
$LN4@pad:
  00230	48 8b 44 24 40	 mov	 rax, QWORD PTR n_$22012[rsp]
  00235	48 39 44 24 38	 cmp	 QWORD PTR i_$22011[rsp], rax
  0023a	73 27		 jae	 SHORT $LN2@pad
  0023c	48 8b 44 24 38	 mov	 rax, QWORD PTR i_$22011[rsp]
  00241	48 8b 4c 24 28	 mov	 rcx, QWORD PTR t_$22016[rsp]
  00246	48 03 c8	 add	 rcx, rax
  00249	48 8b c1	 mov	 rax, rcx
  0024c	48 8b 4c 24 38	 mov	 rcx, QWORD PTR i_$22011[rsp]
  00251	48 8b 54 24 30	 mov	 rdx, QWORD PTR s_$22021[rsp]
  00256	48 03 d1	 add	 rdx, rcx
  00259	48 8b ca	 mov	 rcx, rdx
  0025c	0f b6 09	 movzx	 ecx, BYTE PTR [rcx]
  0025f	88 08		 mov	 BYTE PTR [rax], cl
  00261	eb c0		 jmp	 SHORT $LN3@pad
$LN2@pad:
$LN5@pad:
  00263	33 c0		 xor	 eax, eax
  00265	85 c0		 test	 eax, eax
  00267	0f 85 c1 fe ff
	ff		 jne	 $LN9@pad

; 113  :         if (right)

  0026d	48 83 7c 24 70
	00		 cmp	 QWORD PTR right$[rsp], 0
  00273	0f 84 91 00 00
	00		 je	 $LN1@pad

; 114  :             memset(STRINGLIB_STR(u) + left + STRINGLIB_LEN(self),
; 115  : 		   fill, right);

  00279	48 8b 44 24 20	 mov	 rax, QWORD PTR u$[rsp]
  0027e	48 8b 40 58	 mov	 rax, QWORD PTR [rax+88]
  00282	8b 80 00 01 00
	00		 mov	 eax, DWORD PTR [rax+256]
  00288	25 00 00 00 08	 and	 eax, 134217728		; 08000000H
  0028d	85 c0		 test	 eax, eax
  0028f	75 1c		 jne	 SHORT $LN22@pad
  00291	41 b8 72 00 00
	00		 mov	 r8d, 114		; 00000072H
  00297	48 8d 15 00 00
	00 00		 lea	 rdx, OFFSET FLAT:??_C@_1GG@INIJJGIB@?$AAc?$AA?3?$AA?2?$AAs?$AAr?$AAc?$AA?2?$AAp?$AAy?$AAp?$AAa?$AAr?$AAa?$AAl?$AAl?$AAe?$AAl?$AA?2?$AAo?$AAb?$AAj?$AAe?$AAc?$AAt?$AAs?$AA?2?$AAs?$AAt?$AAr?$AAi?$AAn?$AAg@
  0029e	48 8d 0d 00 00
	00 00		 lea	 rcx, OFFSET FLAT:??_C@_1CC@CJJABHEH@?$AAP?$AAy?$AAB?$AAy?$AAt?$AAe?$AAs?$AA_?$AAC?$AAh?$AAe?$AAc?$AAk?$AA?$CI?$AAu?$AA?$CJ?$AA?$AA@
  002a5	ff 15 00 00 00
	00		 call	 QWORD PTR __imp__wassert
  002ab	33 c0		 xor	 eax, eax
$LN22@pad:
  002ad	48 8b 44 24 60	 mov	 rax, QWORD PTR self$[rsp]
  002b2	48 8b 40 58	 mov	 rax, QWORD PTR [rax+88]
  002b6	8b 80 00 01 00
	00		 mov	 eax, DWORD PTR [rax+256]
  002bc	25 00 00 00 08	 and	 eax, 134217728		; 08000000H
  002c1	85 c0		 test	 eax, eax
  002c3	75 1c		 jne	 SHORT $LN23@pad
  002c5	41 b8 72 00 00
	00		 mov	 r8d, 114		; 00000072H
  002cb	48 8d 15 00 00
	00 00		 lea	 rdx, OFFSET FLAT:??_C@_1GG@INIJJGIB@?$AAc?$AA?3?$AA?2?$AAs?$AAr?$AAc?$AA?2?$AAp?$AAy?$AAp?$AAa?$AAr?$AAa?$AAl?$AAl?$AAe?$AAl?$AA?2?$AAo?$AAb?$AAj?$AAe?$AAc?$AAt?$AAs?$AA?2?$AAs?$AAt?$AAr?$AAi?$AAn?$AAg@
  002d2	48 8d 0d 00 00
	00 00		 lea	 rcx, OFFSET FLAT:??_C@_1CI@KFCJBGEE@?$AAP?$AAy?$AAB?$AAy?$AAt?$AAe?$AAs?$AA_?$AAC?$AAh?$AAe?$AAc?$AAk?$AA?$CI?$AAs?$AAe?$AAl?$AAf?$AA?$CJ?$AA?$AA@
  002d9	ff 15 00 00 00
	00		 call	 QWORD PTR __imp__wassert
  002df	33 c0		 xor	 eax, eax
$LN23@pad:
  002e1	0f be 44 24 78	 movsx	 eax, BYTE PTR fill$[rsp]
  002e6	48 8b 4c 24 20	 mov	 rcx, QWORD PTR u$[rsp]
  002eb	48 8b 54 24 68	 mov	 rdx, QWORD PTR left$[rsp]
  002f0	48 8d 4c 11 78	 lea	 rcx, QWORD PTR [rcx+rdx+120]
  002f5	48 8b 54 24 60	 mov	 rdx, QWORD PTR self$[rsp]
