; Listing generated by Microsoft (R) Optimizing Compiler Version 16.00.40219.01 

include listing.inc

INCLUDELIB MSVCRTD
INCLUDELIB OLDNAMES

PUBLIC	??_C@_0BD@FCNILHGP@bytearray_iterator?$AA@	; `string'
PUBLIC	??_C@_0N@MOOGCAMH@__setstate__?$AA@		; `string'
PUBLIC	??_C@_0BA@BJLPBKGK@__length_hint__?$AA@		; `string'
PUBLIC	??_C@_09FCJHKOIN@bytearray?$AA@			; `string'
PUBLIC	??_C@_05DMFNFMHA@zfill?$AA@			; `string'
PUBLIC	??_C@_05NECKJAMC@upper?$AA@			; `string'
PUBLIC	??_C@_09ODNGOEIO@translate?$AA@			; `string'
PUBLIC	??_C@_05PHLGJONK@title?$AA@			; `string'
PUBLIC	??_C@_08EDJLBCEI@swapcase?$AA@			; `string'
PUBLIC	??_C@_05GGNGIGHC@strip?$AA@			; `string'
PUBLIC	??_C@_0L@MPOGHCCL@startswith?$AA@		; `string'
PUBLIC	??_C@_0L@BCMGLLLC@splitlines?$AA@		; `string'
PUBLIC	??_C@_05EHPMMFBK@split?$AA@			; `string'
PUBLIC	??_C@_06DBIPDJKN@rstrip?$AA@			; `string'
PUBLIC	??_C@_06BAKFHKMF@rsplit?$AA@			; `string'
PUBLIC	??_C@_0L@KEEHLNKL@rpartition?$AA@		; `string'
PUBLIC	??_C@_05JKFAKHCP@rjust?$AA@			; `string'
PUBLIC	??_C@_06NCDOMFM@rindex?$AA@			; `string'
PUBLIC	??_C@_05BLFDIAHL@rfind?$AA@			; `string'
PUBLIC	??_C@_07KOIEOCCE@reverse?$AA@			; `string'
PUBLIC	??_C@_07CLEHDIEJ@replace?$AA@			; `string'
PUBLIC	??_C@_06LEMKAMD@remove?$AA@			; `string'
PUBLIC	??_C@_03NJDAHFJE@pop?$AA@			; `string'
PUBLIC	??_C@_09IKAEIPAD@partition?$AA@			; `string'
PUBLIC	??_C@_09PBBLPCAA@maketrans?$AA@			; `string'
PUBLIC	??_C@_06GGONODO@lstrip?$AA@			; `string'
PUBLIC	??_C@_05IPJEPLHL@lower?$AA@			; `string'
PUBLIC	??_C@_05KDIMMEME@ljust?$AA@			; `string'
PUBLIC	??_C@_04DFGCDGNN@join?$AA@			; `string'
PUBLIC	??_C@_07BCOOJPCO@isupper?$AA@			; `string'
PUBLIC	??_C@_07DBHCJBDG@istitle?$AA@			; `string'
PUBLIC	??_C@_07CNBMLEON@isspace?$AA@			; `string'
PUBLIC	??_C@_07EJFAPEJH@islower?$AA@			; `string'
PUBLIC	??_C@_07CFBKIKCH@isdigit?$AA@			; `string'
PUBLIC	??_C@_07EGIOHHOB@isalpha?$AA@			; `string'
PUBLIC	??_C@_07EOADCIGC@isalnum?$AA@			; `string'
PUBLIC	??_C@_06OAOPNKHP@insert?$AA@			; `string'
PUBLIC	??_C@_05FKHKFDID@index?$AA@			; `string'
PUBLIC	??_C@_07DIMGGDAC@fromhex?$AA@			; `string'
PUBLIC	??_C@_04CKFJHKAP@find?$AA@			; `string'
PUBLIC	??_C@_06BPBOMFNI@extend?$AA@			; `string'
PUBLIC	??_C@_0L@DEOCELBD@expandtabs?$AA@		; `string'
PUBLIC	??_C@_08MLCMCPNP@endswith?$AA@			; `string'
PUBLIC	??_C@_06KPNAMAEI@decode?$AA@			; `string'
PUBLIC	??_C@_05IOMEMJEC@count?$AA@			; `string'
PUBLIC	??_C@_04COAGEIMF@copy?$AA@			; `string'
PUBLIC	??_C@_05MEHLAELG@clear?$AA@			; `string'
PUBLIC	??_C@_06BBLOAEEI@center?$AA@			; `string'
PUBLIC	??_C@_0L@NMODNBEH@capitalize?$AA@		; `string'
PUBLIC	??_C@_06PCICMFGG@append?$AA@			; `string'
PUBLIC	??_C@_0L@HOGGIPGN@__sizeof__?$AA@		; `string'
PUBLIC	??_C@_0O@CFEDDKPG@__reduce_ex__?$AA@		; `string'
PUBLIC	??_C@_0L@NNMACJIG@__reduce__?$AA@		; `string'
PUBLIC	??_C@_09LONCBNBJ@__alloc__?$AA@			; `string'
PUBLIC	PyByteArray_Concat
PUBLIC	??_C@_08IBFKALI@__dict__?$AA@			; `string'
PUBLIC	??_C@_08EMIAAFLA@keepends?$AA@			; `string'
PUBLIC	??_C@_08HONNCIIN@maxsplit?$AA@			; `string'
PUBLIC	??_C@_03MGBCFPKM@sep?$AA@			; `string'
PUBLIC	??_C@_06EOMHCNPI@errors?$AA@			; `string'
PUBLIC	??_C@_08MLPGAEIK@encoding?$AA@			; `string'
PUBLIC	??_C@_06OEKOLKIL@source?$AA@			; `string'
PUBLIC	_PyByteArray_empty_string
PUBLIC	PyByteArray_Type
PUBLIC	PyByteArrayIter_Type
EXTRN	PyObject_SelfIter:PROC
EXTRN	_PyObject_DebugFree:PROC
EXTRN	PyType_GenericNew:PROC
EXTRN	PyType_GenericAlloc:PROC
EXTRN	PyObject_GenericGetAttr:PROC
EXTRN	PyType_Type:BYTE
EXTRN	_Py_upper__doc__:BYTE
EXTRN	_Py_title__doc__:BYTE
EXTRN	_Py_swapcase__doc__:BYTE
EXTRN	_Py_maketrans__doc__:BYTE
EXTRN	_Py_lower__doc__:BYTE
EXTRN	_Py_isupper__doc__:BYTE
EXTRN	_Py_istitle__doc__:BYTE
EXTRN	_Py_isspace__doc__:BYTE
EXTRN	_Py_islower__doc__:BYTE
EXTRN	_Py_isdigit__doc__:BYTE
EXTRN	_Py_isalpha__doc__:BYTE
EXTRN	_Py_isalnum__doc__:BYTE
EXTRN	_Py_capitalize__doc__:BYTE
_BSS	SEGMENT
_PyByteArray_empty_string DB 01H DUP (?)
_BSS	ENDS
;	COMDAT ??_C@_0BD@FCNILHGP@bytearray_iterator?$AA@
CONST	SEGMENT
??_C@_0BD@FCNILHGP@bytearray_iterator?$AA@ DB 'bytearray_iterator', 00H ; `string'
CONST	ENDS
;	COMDAT ??_C@_0N@MOOGCAMH@__setstate__?$AA@
CONST	SEGMENT
??_C@_0N@MOOGCAMH@__setstate__?$AA@ DB '__setstate__', 00H ; `string'
CONST	ENDS
;	COMDAT ??_C@_0BA@BJLPBKGK@__length_hint__?$AA@
CONST	SEGMENT
??_C@_0BA@BJLPBKGK@__length_hint__?$AA@ DB '__length_hint__', 00H ; `string'
CONST	ENDS
;	COMDAT ??_C@_09FCJHKOIN@bytearray?$AA@
CONST	SEGMENT
??_C@_09FCJHKOIN@bytearray?$AA@ DB 'bytearray', 00H	; `string'
CONST	ENDS
;	COMDAT ??_C@_05DMFNFMHA@zfill?$AA@
CONST	SEGMENT
??_C@_05DMFNFMHA@zfill?$AA@ DB 'zfill', 00H		; `string'
CONST	ENDS
;	COMDAT ??_C@_05NECKJAMC@upper?$AA@
CONST	SEGMENT
??_C@_05NECKJAMC@upper?$AA@ DB 'upper', 00H		; `string'
CONST	ENDS
;	COMDAT ??_C@_09ODNGOEIO@translate?$AA@
CONST	SEGMENT
??_C@_09ODNGOEIO@translate?$AA@ DB 'translate', 00H	; `string'
CONST	ENDS
;	COMDAT ??_C@_05PHLGJONK@title?$AA@
CONST	SEGMENT
??_C@_05PHLGJONK@title?$AA@ DB 'title', 00H		; `string'
CONST	ENDS
;	COMDAT ??_C@_08EDJLBCEI@swapcase?$AA@
CONST	SEGMENT
??_C@_08EDJLBCEI@swapcase?$AA@ DB 'swapcase', 00H	; `string'
CONST	ENDS
;	COMDAT ??_C@_05GGNGIGHC@strip?$AA@
CONST	SEGMENT
??_C@_05GGNGIGHC@strip?$AA@ DB 'strip', 00H		; `string'
CONST	ENDS
;	COMDAT ??_C@_0L@MPOGHCCL@startswith?$AA@
CONST	SEGMENT
??_C@_0L@MPOGHCCL@startswith?$AA@ DB 'startswith', 00H	; `string'
CONST	ENDS
;	COMDAT ??_C@_0L@BCMGLLLC@splitlines?$AA@
CONST	SEGMENT
??_C@_0L@BCMGLLLC@splitlines?$AA@ DB 'splitlines', 00H	; `string'
CONST	ENDS
;	COMDAT ??_C@_05EHPMMFBK@split?$AA@
CONST	SEGMENT
??_C@_05EHPMMFBK@split?$AA@ DB 'split', 00H		; `string'
CONST	ENDS
;	COMDAT ??_C@_06DBIPDJKN@rstrip?$AA@
CONST	SEGMENT
??_C@_06DBIPDJKN@rstrip?$AA@ DB 'rstrip', 00H		; `string'
CONST	ENDS
;	COMDAT ??_C@_06BAKFHKMF@rsplit?$AA@
CONST	SEGMENT
??_C@_06BAKFHKMF@rsplit?$AA@ DB 'rsplit', 00H		; `string'
CONST	ENDS
;	COMDAT ??_C@_0L@KEEHLNKL@rpartition?$AA@
CONST	SEGMENT
??_C@_0L@KEEHLNKL@rpartition?$AA@ DB 'rpartition', 00H	; `string'
CONST	ENDS
;	COMDAT ??_C@_05JKFAKHCP@rjust?$AA@
CONST	SEGMENT
??_C@_05JKFAKHCP@rjust?$AA@ DB 'rjust', 00H		; `string'
CONST	ENDS
;	COMDAT ??_C@_06NCDOMFM@rindex?$AA@
CONST	SEGMENT
??_C@_06NCDOMFM@rindex?$AA@ DB 'rindex', 00H		; `string'
CONST	ENDS
;	COMDAT ??_C@_05BLFDIAHL@rfind?$AA@
CONST	SEGMENT
??_C@_05BLFDIAHL@rfind?$AA@ DB 'rfind', 00H		; `string'
CONST	ENDS
;	COMDAT ??_C@_07KOIEOCCE@reverse?$AA@
CONST	SEGMENT
??_C@_07KOIEOCCE@reverse?$AA@ DB 'reverse', 00H		; `string'
CONST	ENDS
;	COMDAT ??_C@_07CLEHDIEJ@replace?$AA@
CONST	SEGMENT
??_C@_07CLEHDIEJ@replace?$AA@ DB 'replace', 00H		; `string'
CONST	ENDS
;	COMDAT ??_C@_06LEMKAMD@remove?$AA@
CONST	SEGMENT
??_C@_06LEMKAMD@remove?$AA@ DB 'remove', 00H		; `string'
CONST	ENDS
;	COMDAT ??_C@_03NJDAHFJE@pop?$AA@
CONST	SEGMENT
??_C@_03NJDAHFJE@pop?$AA@ DB 'pop', 00H			; `string'
CONST	ENDS
;	COMDAT ??_C@_09IKAEIPAD@partition?$AA@
CONST	SEGMENT
??_C@_09IKAEIPAD@partition?$AA@ DB 'partition', 00H	; `string'
CONST	ENDS
;	COMDAT ??_C@_09PBBLPCAA@maketrans?$AA@
CONST	SEGMENT
??_C@_09PBBLPCAA@maketrans?$AA@ DB 'maketrans', 00H	; `string'
CONST	ENDS
;	COMDAT ??_C@_06GGONODO@lstrip?$AA@
CONST	SEGMENT
??_C@_06GGONODO@lstrip?$AA@ DB 'lstrip', 00H		; `string'
CONST	ENDS
;	COMDAT ??_C@_05IPJEPLHL@lower?$AA@
CONST	SEGMENT
??_C@_05IPJEPLHL@lower?$AA@ DB 'lower', 00H		; `string'
CONST	ENDS
;	COMDAT ??_C@_05KDIMMEME@ljust?$AA@
CONST	SEGMENT
??_C@_05KDIMMEME@ljust?$AA@ DB 'ljust', 00H		; `string'
CONST	ENDS
;	COMDAT ??_C@_04DFGCDGNN@join?$AA@
CONST	SEGMENT
??_C@_04DFGCDGNN@join?$AA@ DB 'join', 00H		; `string'
CONST	ENDS
;	COMDAT ??_C@_07BCOOJPCO@isupper?$AA@
CONST	SEGMENT
??_C@_07BCOOJPCO@isupper?$AA@ DB 'isupper', 00H		; `string'
CONST	ENDS
;	COMDAT ??_C@_07DBHCJBDG@istitle?$AA@
CONST	SEGMENT
??_C@_07DBHCJBDG@istitle?$AA@ DB 'istitle', 00H		; `string'
CONST	ENDS
;	COMDAT ??_C@_07CNBMLEON@isspace?$AA@
CONST	SEGMENT
??_C@_07CNBMLEON@isspace?$AA@ DB 'isspace', 00H		; `string'
CONST	ENDS
;	COMDAT ??_C@_07EJFAPEJH@islower?$AA@
CONST	SEGMENT
??_C@_07EJFAPEJH@islower?$AA@ DB 'islower', 00H		; `string'
CONST	ENDS
;	COMDAT ??_C@_07CFBKIKCH@isdigit?$AA@
CONST	SEGMENT
??_C@_07CFBKIKCH@isdigit?$AA@ DB 'isdigit', 00H		; `string'
CONST	ENDS
;	COMDAT ??_C@_07EGIOHHOB@isalpha?$AA@
CONST	SEGMENT
??_C@_07EGIOHHOB@isalpha?$AA@ DB 'isalpha', 00H		; `string'
CONST	ENDS
;	COMDAT ??_C@_07EOADCIGC@isalnum?$AA@
CONST	SEGMENT
??_C@_07EOADCIGC@isalnum?$AA@ DB 'isalnum', 00H		; `string'
CONST	ENDS
;	COMDAT ??_C@_06OAOPNKHP@insert?$AA@
CONST	SEGMENT
??_C@_06OAOPNKHP@insert?$AA@ DB 'insert', 00H		; `string'
CONST	ENDS
;	COMDAT ??_C@_05FKHKFDID@index?$AA@
CONST	SEGMENT
??_C@_05FKHKFDID@index?$AA@ DB 'index', 00H		; `string'
CONST	ENDS
;	COMDAT ??_C@_07DIMGGDAC@fromhex?$AA@
CONST	SEGMENT
??_C@_07DIMGGDAC@fromhex?$AA@ DB 'fromhex', 00H		; `string'
CONST	ENDS
;	COMDAT ??_C@_04CKFJHKAP@find?$AA@
CONST	SEGMENT
??_C@_04CKFJHKAP@find?$AA@ DB 'find', 00H		; `string'
CONST	ENDS
;	COMDAT ??_C@_06BPBOMFNI@extend?$AA@
CONST	SEGMENT
??_C@_06BPBOMFNI@extend?$AA@ DB 'extend', 00H		; `string'
CONST	ENDS
;	COMDAT ??_C@_0L@DEOCELBD@expandtabs?$AA@
CONST	SEGMENT
??_C@_0L@DEOCELBD@expandtabs?$AA@ DB 'expandtabs', 00H	; `string'
CONST	ENDS
;	COMDAT ??_C@_08MLCMCPNP@endswith?$AA@
CONST	SEGMENT
??_C@_08MLCMCPNP@endswith?$AA@ DB 'endswith', 00H	; `string'
CONST	ENDS
;	COMDAT ??_C@_06KPNAMAEI@decode?$AA@
CONST	SEGMENT
??_C@_06KPNAMAEI@decode?$AA@ DB 'decode', 00H		; `string'
CONST	ENDS
;	COMDAT ??_C@_05IOMEMJEC@count?$AA@
CONST	SEGMENT
??_C@_05IOMEMJEC@count?$AA@ DB 'count', 00H		; `string'
CONST	ENDS
;	COMDAT ??_C@_04COAGEIMF@copy?$AA@
CONST	SEGMENT
??_C@_04COAGEIMF@copy?$AA@ DB 'copy', 00H		; `string'
CONST	ENDS
;	COMDAT ??_C@_05MEHLAELG@clear?$AA@
CONST	SEGMENT
??_C@_05MEHLAELG@clear?$AA@ DB 'clear', 00H		; `string'
CONST	ENDS
;	COMDAT ??_C@_06BBLOAEEI@center?$AA@
CONST	SEGMENT
??_C@_06BBLOAEEI@center?$AA@ DB 'center', 00H		; `string'
CONST	ENDS
;	COMDAT ??_C@_0L@NMODNBEH@capitalize?$AA@
CONST	SEGMENT
??_C@_0L@NMODNBEH@capitalize?$AA@ DB 'capitalize', 00H	; `string'
CONST	ENDS
;	COMDAT ??_C@_06PCICMFGG@append?$AA@
CONST	SEGMENT
??_C@_06PCICMFGG@append?$AA@ DB 'append', 00H		; `string'
CONST	ENDS
;	COMDAT ??_C@_0L@HOGGIPGN@__sizeof__?$AA@
CONST	SEGMENT
??_C@_0L@HOGGIPGN@__sizeof__?$AA@ DB '__sizeof__', 00H	; `string'
CONST	ENDS
;	COMDAT ??_C@_0O@CFEDDKPG@__reduce_ex__?$AA@
CONST	SEGMENT
??_C@_0O@CFEDDKPG@__reduce_ex__?$AA@ DB '__reduce_ex__', 00H ; `string'
CONST	ENDS
;	COMDAT ??_C@_0L@NNMACJIG@__reduce__?$AA@
CONST	SEGMENT
??_C@_0L@NNMACJIG@__reduce__?$AA@ DB '__reduce__', 00H	; `string'
CONST	ENDS
;	COMDAT ??_C@_09LONCBNBJ@__alloc__?$AA@
CONST	SEGMENT
??_C@_09LONCBNBJ@__alloc__?$AA@ DB '__alloc__', 00H	; `string'
CONST	ENDS
_TLS	SEGMENT
?PyId___dict__@?1??_common_reduce@@9@9 DQ 0000000000000000H ; `_common_reduce'::`2'::PyId___dict__
	DQ	FLAT:??_C@_08IBFKALI@__dict__?$AA@
	DQ	0000000000000000H
_TLS	ENDS
;	COMDAT ??_C@_08IBFKALI@__dict__?$AA@
CONST	SEGMENT
??_C@_08IBFKALI@__dict__?$AA@ DB '__dict__', 00H	; `string'
CONST	ENDS
;	COMDAT ??_C@_08EMIAAFLA@keepends?$AA@
CONST	SEGMENT
??_C@_08EMIAAFLA@keepends?$AA@ DB 'keepends', 00H	; `string'
CONST	ENDS
;	COMDAT ??_C@_08HONNCIIN@maxsplit?$AA@
CONST	SEGMENT
??_C@_08HONNCIIN@maxsplit?$AA@ DB 'maxsplit', 00H	; `string'
CONST	ENDS
;	COMDAT ??_C@_03MGBCFPKM@sep?$AA@
CONST	SEGMENT
??_C@_03MGBCFPKM@sep?$AA@ DB 'sep', 00H			; `string'
CONST	ENDS
_DATA	SEGMENT
?kwlist@?1??bytearray_init@@9@9 DQ FLAT:??_C@_06OEKOLKIL@source?$AA@ ; `bytearray_init'::`2'::kwlist
	DQ	FLAT:??_C@_08MLPGAEIK@encoding?$AA@
	DQ	FLAT:??_C@_06EOMHCNPI@errors?$AA@
	DQ	0000000000000000H
expandtabs__doc__ DB 'B.expandtabs([tabsize]) -> copy of B', 0aH, 0aH, 'R'
	DB	'eturn a copy of B where all tab characters are expanded using'
	DB	' spaces.', 0aH, 'If tabsize is not given, a tab size of 8 cha'
	DB	'racters is assumed.', 00H
	ORG $+3
ljust__doc__ DB	'B.ljust(width[, fillchar]) -> copy of B', 0aH, 0aH, 'Ret'
	DB	'urn B left justified in a string of length width. Padding is', 0aH
	DB	'done using the specified fill character (default is a space).'
	DB	00H
	ORG $+9
rjust__doc__ DB	'B.rjust(width[, fillchar]) -> copy of B', 0aH, 0aH, 'Ret'
	DB	'urn B right justified in a string of length width. Padding is'
	DB	0aH, 'done using the specified fill character (default is a sp'
	DB	'ace)', 00H
	ORG $+9
center__doc__ DB 'B.center(width[, fillchar]) -> copy of B', 0aH, 0aH, 'R'
	DB	'eturn B centered in a string of length width.  Padding is', 0aH
	DB	'done using the specified fill character (default is a space).'
	DB	00H
	ORG $+13
zfill__doc__ DB	'B.zfill(width) -> copy of B', 0aH, 0aH, 'Pad a numeric s'
	DB	'tring B with zeros on the left, to fill a field', 0aH, 'of th'
	DB	'e specified width.  B is never truncated.', 00H
	ORG $+5
find__doc__ DB	'B.find(sub[, start[, end]]) -> int', 0aH, 0aH, 'Return t'
	DB	'he lowest index in B where subsection sub is found,', 0aH, 's'
	DB	'uch that sub is contained within B[start,end].  Optional', 0aH
	DB	'arguments start and end are interpreted as in slice notation.'
	DB	0aH, 0aH, 'Return -1 on failure.', 00H
	ORG $+1
count__doc__ DB	'B.count(sub[, start[, end]]) -> int', 0aH, 0aH, 'Return '
	DB	'the number of non-overlapping occurrences of subsection sub i'
	DB	'n', 0aH, 'bytes B[start:end].  Optional arguments start and e'
	DB	'nd are interpreted', 0aH, 'as in slice notation.', 00H
	ORG $+1
clear__doc__ DB	'B.clear() -> None', 0aH, 0aH, 'Remove all items from B.', 00H
	ORG $+4
copy__doc__ DB	'B.copy() -> bytearray', 0aH, 0aH, 'Return a copy of B.', 00H
	ORG $+13
index__doc__ DB	'B.index(sub[, start[, end]]) -> int', 0aH, 0aH, 'Like B.'
	DB	'find() but raise ValueError when the subsection is not found.'
	DB	00H
	ORG $+6
rfind__doc__ DB	'B.rfind(sub[, start[, end]]) -> int', 0aH, 0aH, 'Return '
	DB	'the highest index in B where subsection sub is found,', 0aH, 's'
	DB	'uch that sub is contained within B[start,end].  Optional', 0aH
	DB	'arguments start and end are interpreted as in slice notation.'
	DB	0aH, 0aH, 'Return -1 on failure.', 00H
	ORG $+15
rindex__doc__ DB 'B.rindex(sub[, start[, end]]) -> int', 0aH, 0aH, 'Like '
	DB	'B.rfind() but raise ValueError when the subsection is not fou'
	DB	'nd.', 00H
	ORG $+4
startswith__doc__ DB 'B.startswith(prefix[, start[, end]]) -> bool', 0aH, 0aH
	DB	'Return True if B starts with the specified prefix, False othe'
	DB	'rwise.', 0aH, 'With optional start, test B beginning at that '
	DB	'position.', 0aH, 'With optional end, stop comparing B at that'
	DB	' position.', 0aH, 'prefix can also be a tuple of bytes to try'
	DB	'.', 00H
	ORG $+4
endswith__doc__ DB 'B.endswith(suffix[, start[, end]]) -> bool', 0aH, 0aH
	DB	'Return True if B ends with the specified suffix, False otherw'
	DB	'ise.', 0aH, 'With optional start, test B beginning at that po'
	DB	'sition.', 0aH, 'With optional end, stop comparing B at that p'
	DB	'osition.', 0aH, 'suffix can also be a tuple of bytes to try.', 00H
	ORG $+8
translate__doc__ DB 'B.translate(table[, deletechars]) -> bytearray', 0aH
	DB	0aH, 'Return a copy of B, where all characters occurring in th'
	DB	'e', 0aH, 'optional argument deletechars are removed, and the '
	DB	'remaining', 0aH, 'characters have been mapped through the giv'
	DB	'en translation', 0aH, 'table, which must be a bytes object of'
	DB	' length 256.', 00H
	ORG $+12
replace__doc__ DB 'B.replace(old, new[, count]) -> bytearray', 0aH, 0aH, 'R'
	DB	'eturn a copy of B with all occurrences of subsection', 0aH, 'o'
	DB	'ld replaced by new.  If the optional argument count is', 0aH, 'g'
	DB	'iven, only the first count occurrences are replaced.', 00H
	ORG $+1
split__doc__ DB	'B.split(sep=None, maxsplit=-1) -> list of bytearrays', 0aH
	DB	0aH, 'Return a list of the sections in B, using sep as the del'
	DB	'imiter.', 0aH, 'If sep is not given, B is split on ASCII whit'
	DB	'espace characters', 0aH, '(space, tab, return, newline, formf'
	DB	'eed, vertical tab).', 0aH, 'If maxsplit is given, at most max'
	DB	'split splits are done.', 00H
	ORG $+4
?kwlist@?1??bytearray_split@@9@9 DQ FLAT:??_C@_03MGBCFPKM@sep?$AA@ ; `bytearray_split'::`2'::kwlist
	DQ	FLAT:??_C@_08HONNCIIN@maxsplit?$AA@
	DQ	0000000000000000H
partition__doc__ DB 'B.partition(sep) -> (head, sep, tail)', 0aH, 0aH, 'S'
	DB	'earch for the separator sep in B, and return the part before '
	DB	'it,', 0aH, 'the separator itself, and the part after it.  If '
	DB	'the separator is not', 0aH, 'found, returns B and two empty b'
	DB	'ytearray objects.', 00H
	ORG $+15
rpartition__doc__ DB 'B.rpartition(sep) -> (head, sep, tail)', 0aH, 0aH, 'S'
	DB	'earch for the separator sep in B, starting at the end of B,', 0aH
	DB	'and return the part before it, the separator itself, and the', 0aH
	DB	'part after it.  If the separator is not found, returns two em'
	DB	'pty', 0aH, 'bytearray objects and B.', 00H
	ORG $+4
rsplit__doc__ DB 'B.rsplit(sep=None, maxsplit=-1) -> list of bytearrays', 0aH
	DB	0aH, 'Return a list of the sections in B, using sep as the del'
	DB	'imiter,', 0aH, 'starting at the end of B and working to the f'
	DB	'ront.', 0aH, 'If sep is not given, B is split on ASCII whites'
	DB	'pace characters', 0aH, '(space, tab, return, newline, formfee'
	DB	'd, vertical tab).', 0aH, 'If maxsplit is given, at most maxsp'
	DB	'lit splits are done.', 00H
?kwlist@?1??bytearray_rsplit@@9@9 DQ FLAT:??_C@_03MGBCFPKM@sep?$AA@ ; `bytearray_rsplit'::`2'::kwlist
	DQ	FLAT:??_C@_08HONNCIIN@maxsplit?$AA@
	DQ	0000000000000000H
reverse__doc__ DB 'B.reverse() -> None', 0aH, 0aH, 'Reverse the order of '
	DB	'the values in B in place.', 00H
	ORG $+12
insert__doc__ DB 'B.insert(index, int) -> None', 0aH, 0aH, 'Insert a sing'
	DB	'le item into the bytearray before the given index.', 00H
	ORG $+2
append__doc__ DB 'B.append(int) -> None', 0aH, 0aH, 'Append a single item'
	DB	' to the end of B.', 00H
	ORG $+3
extend__doc__ DB 'B.extend(iterable_of_ints) -> None', 0aH, 0aH, 'Append '
	DB	'all the elements from the iterator or sequence to the', 0aH, 'e'
	DB	'nd of B.', 00H
	ORG $+5
pop__doc__ DB	'B.pop([index]) -> int', 0aH, 0aH, 'Remove and return a s'
	DB	'ingle item from B. If no index', 0aH, 'argument is given, wil'
	DB	'l pop the last value.', 00H
	ORG $+9
remove__doc__ DB 'B.remove(int) -> None', 0aH, 0aH, 'Remove the first occ'
	DB	'urrence of a value in B.', 00H
	ORG $+12
strip__doc__ DB	'B.strip([bytes]) -> bytearray', 0aH, 0aH, 'Strip leading'
	DB	' and trailing bytes contained in the argument', 0aH, 'and ret'
	DB	'urn the result as a new bytearray.', 0aH, 'If the argument is'
	DB	' omitted, strip ASCII whitespace.', 00H
	ORG $+8
lstrip__doc__ DB 'B.lstrip([bytes]) -> bytearray', 0aH, 0aH, 'Strip leadi'
	DB	'ng bytes contained in the argument', 0aH, 'and return the res'
	DB	'ult as a new bytearray.', 0aH, 'If the argument is omitted, s'
	DB	'trip leading ASCII whitespace.', 00H
	ORG $+12
rstrip__doc__ DB 'B.rstrip([bytes]) -> bytearray', 0aH, 0aH, 'Strip trail'
	DB	'ing bytes contained in the argument', 0aH, 'and return the re'
	DB	'sult as a new bytearray.', 0aH, 'If the argument is omitted, '
	DB	'strip trailing ASCII whitespace.', 00H
	ORG $+10
decode_doc DB	'B.decode(encoding=''utf-8'', errors=''strict'') -> str', 0aH
	DB	0aH, 'Decode B using the codec registered for encoding. Defaul'
	DB	't encoding', 0aH, 'is ''utf-8''. errors may be given to set a'
	DB	' different error', 0aH, 'handling scheme.  Default is ''stric'
	DB	't'' meaning that encoding errors raise', 0aH, 'a UnicodeDecod'
	DB	'eError.  Other possible values are ''ignore'' and ''replace'''
	DB	0aH, 'as well as any other name registered with codecs.registe'
	DB	'r_error that is', 0aH, 'able to handle UnicodeDecodeErrors.', 00H
	ORG $+3
?kwlist@?1??bytearray_decode@@9@9 DQ FLAT:??_C@_08MLPGAEIK@encoding?$AA@ ; `bytearray_decode'::`2'::kwlist
	DQ	FLAT:??_C@_06EOMHCNPI@errors?$AA@
	DQ	0000000000000000H
	ORG $+8
alloc_doc DB	'B.__alloc__() -> int', 0aH, 0aH, 'Return the number of b'
	DB	'ytes actually allocated.', 00H
	ORG $+11
join_doc DB	'B.join(iterable_of_bytes) -> bytearray', 0aH, 0aH, 'Conc'
	DB	'atenate any number of bytes/bytearray objects, with B', 0aH, 'i'
	DB	'n between each pair, and return the result as a new bytearray'
	DB	'.', 00H
	ORG $+14
splitlines__doc__ DB 'B.splitlines([keepends]) -> list of lines', 0aH, 0aH
	DB	'Return a list of the lines in B, breaking at line boundaries.'
	DB	0aH, 'Line breaks are not included in the resulting list unles'
	DB	's keepends', 0aH, 'is given and true.', 00H
	ORG $+1
?kwlist@?1??bytearray_splitlines@@9@9 DQ FLAT:??_C@_08EMIAAFLA@keepends?$AA@ ; `bytearray_splitlines'::`2'::kwlist
	DQ	0000000000000000H
fromhex_doc DB	'bytearray.fromhex(string) -> bytearray (static method)', 0aH
	DB	0aH, 'Create a bytearray object from a string of hexadecimal n'
	DB	'umbers.', 0aH, 'Spaces between two numbers are accepted.', 0aH
	DB	'Example: bytearray.fromhex(''B9 01EF'') -> bytearray(b''\xb9\'
	DB	'x01\xef'').', 00H
	ORG $+2
reduce_doc DB	'Return state information for pickling.', 00H
	ORG $+1
reduce_ex_doc DB 'Return state information for pickling.', 00H
	ORG $+9
sizeof_doc DB	'B.__sizeof__() -> int', 0aH, ' ', 0aH, 'Returns the size'
	DB	' of B in memory, in bytes', 00H
	ORG $+14
bytearray_as_sequence DQ FLAT:bytearray_length
	DQ	FLAT:PyByteArray_Concat
	DQ	FLAT:bytearray_repeat
	DQ	FLAT:bytearray_getitem
	DQ	0000000000000000H
	DQ	FLAT:bytearray_setitem
	DQ	0000000000000000H
	DQ	FLAT:bytearray_contains
	DQ	FLAT:bytearray_iconcat
	DQ	FLAT:bytearray_irepeat
bytearray_as_mapping DQ FLAT:bytearray_length
	DQ	FLAT:bytearray_subscript
	DQ	FLAT:bytearray_ass_subscript
bytearray_as_buffer DQ FLAT:bytearray_getbuffer
	DQ	FLAT:bytearray_releasebuffer
	ORG $+8
bytearray_methods DQ FLAT:??_C@_09LONCBNBJ@__alloc__?$AA@
	DQ	FLAT:bytearray_alloc
	DD	04H
	ORG $+4
	DQ	FLAT:alloc_doc
	DQ	FLAT:??_C@_0L@NNMACJIG@__reduce__?$AA@
	DQ	FLAT:bytearray_reduce
	DD	04H
	ORG $+4
	DQ	FLAT:reduce_doc
	DQ	FLAT:??_C@_0O@CFEDDKPG@__reduce_ex__?$AA@
	DQ	FLAT:bytearray_reduce_ex
	DD	01H
	ORG $+4
	DQ	FLAT:reduce_ex_doc
	DQ	FLAT:??_C@_0L@HOGGIPGN@__sizeof__?$AA@
	DQ	FLAT:bytearray_sizeof
	DD	04H
	ORG $+4
	DQ	FLAT:sizeof_doc
	DQ	FLAT:??_C@_06PCICMFGG@append?$AA@
	DQ	FLAT:bytearray_append
	DD	08H
	ORG $+4
	DQ	FLAT:append__doc__
	DQ	FLAT:??_C@_0L@NMODNBEH@capitalize?$AA@
	DQ	FLAT:stringlib_capitalize
	DD	04H
	ORG $+4
	DQ	FLAT:_Py_capitalize__doc__
	DQ	FLAT:??_C@_06BBLOAEEI@center?$AA@
	DQ	FLAT:stringlib_center
	DD	01H
	ORG $+4
	DQ	FLAT:center__doc__
	DQ	FLAT:??_C@_05MEHLAELG@clear?$AA@
	DQ	FLAT:bytearray_clear
	DD	04H
	ORG $+4
	DQ	FLAT:clear__doc__
	DQ	FLAT:??_C@_04COAGEIMF@copy?$AA@
	DQ	FLAT:bytearray_copy
	DD	04H
	ORG $+4
	DQ	FLAT:copy__doc__
	DQ	FLAT:??_C@_05IOMEMJEC@count?$AA@
	DQ	FLAT:bytearray_count
	DD	01H
	ORG $+4
	DQ	FLAT:count__doc__
	DQ	FLAT:??_C@_06KPNAMAEI@decode?$AA@
	DQ	FLAT:bytearray_decode
	DD	03H
	ORG $+4
	DQ	FLAT:decode_doc
	DQ	FLAT:??_C@_08MLCMCPNP@endswith?$AA@
	DQ	FLAT:bytearray_endswith
	DD	01H
	ORG $+4
	DQ	FLAT:endswith__doc__
	DQ	FLAT:??_C@_0L@DEOCELBD@expandtabs?$AA@
	DQ	FLAT:stringlib_expandtabs
	DD	01H
	ORG $+4
	DQ	FLAT:expandtabs__doc__
	DQ	FLAT:??_C@_06BPBOMFNI@extend?$AA@
	DQ	FLAT:bytearray_extend
	DD	08H
	ORG $+4
	DQ	FLAT:extend__doc__
	DQ	FLAT:??_C@_04CKFJHKAP@find?$AA@
	DQ	FLAT:bytearray_find
	DD	01H
	ORG $+4
	DQ	FLAT:find__doc__
	DQ	FLAT:??_C@_07DIMGGDAC@fromhex?$AA@
	DQ	FLAT:bytearray_fromhex
	DD	011H
	ORG $+4
	DQ	FLAT:fromhex_doc
	DQ	FLAT:??_C@_05FKHKFDID@index?$AA@
	DQ	FLAT:bytearray_index
	DD	01H
	ORG $+4
	DQ	FLAT:index__doc__
	DQ	FLAT:??_C@_06OAOPNKHP@insert?$AA@
	DQ	FLAT:bytearray_insert
	DD	01H
	ORG $+4
	DQ	FLAT:insert__doc__
	DQ	FLAT:??_C@_07EOADCIGC@isalnum?$AA@
	DQ	FLAT:stringlib_isalnum
	DD	04H
	ORG $+4
	DQ	FLAT:_Py_isalnum__doc__
	DQ	FLAT:??_C@_07EGIOHHOB@isalpha?$AA@
	DQ	FLAT:stringlib_isalpha
	DD	04H
	ORG $+4
	DQ	FLAT:_Py_isalpha__doc__
	DQ	FLAT:??_C@_07CFBKIKCH@isdigit?$AA@
	DQ	FLAT:stringlib_isdigit
	DD	04H
	ORG $+4
	DQ	FLAT:_Py_isdigit__doc__
	DQ	FLAT:??_C@_07EJFAPEJH@islower?$AA@
	DQ	FLAT:stringlib_islower
	DD	04H
	ORG $+4
	DQ	FLAT:_Py_islower__doc__
	DQ	FLAT:??_C@_07CNBMLEON@isspace?$AA@
	DQ	FLAT:stringlib_isspace
	DD	04H
	ORG $+4
	DQ	FLAT:_Py_isspace__doc__
	DQ	FLAT:??_C@_07DBHCJBDG@istitle?$AA@
	DQ	FLAT:stringlib_istitle
	DD	04H
	ORG $+4
	DQ	FLAT:_Py_istitle__doc__
	DQ	FLAT:??_C@_07BCOOJPCO@isupper?$AA@
	DQ	FLAT:stringlib_isupper
	DD	04H
	ORG $+4
	DQ	FLAT:_Py_isupper__doc__
	DQ	FLAT:??_C@_04DFGCDGNN@join?$AA@
	DQ	FLAT:bytearray_join
	DD	08H
	ORG $+4
	DQ	FLAT:join_doc
	DQ	FLAT:??_C@_05KDIMMEME@ljust?$AA@
	DQ	FLAT:stringlib_ljust
	DD	01H
	ORG $+4
	DQ	FLAT:ljust__doc__
	DQ	FLAT:??_C@_05IPJEPLHL@lower?$AA@
	DQ	FLAT:stringlib_lower
	DD	04H
	ORG $+4
	DQ	FLAT:_Py_lower__doc__
	DQ	FLAT:??_C@_06GGONODO@lstrip?$AA@
	DQ	FLAT:bytearray_lstrip
	DD	01H
	ORG $+4
	DQ	FLAT:lstrip__doc__
	DQ	FLAT:??_C@_09PBBLPCAA@maketrans?$AA@
	DQ	FLAT:bytearray_maketrans
	DD	021H
	ORG $+4
	DQ	FLAT:_Py_maketrans__doc__
	DQ	FLAT:??_C@_09IKAEIPAD@partition?$AA@
	DQ	FLAT:bytearray_partition
	DD	08H
	ORG $+4
	DQ	FLAT:partition__doc__
	DQ	FLAT:??_C@_03NJDAHFJE@pop?$AA@
	DQ	FLAT:bytearray_pop
	DD	01H
	ORG $+4
	DQ	FLAT:pop__doc__
	DQ	FLAT:??_C@_06LEMKAMD@remove?$AA@
	DQ	FLAT:bytearray_remove
	DD	08H
	ORG $+4
	DQ	FLAT:remove__doc__
	DQ	FLAT:??_C@_07CLEHDIEJ@replace?$AA@
	DQ	FLAT:bytearray_replace
	DD	01H
	ORG $+4
	DQ	FLAT:replace__doc__
	DQ	FLAT:??_C@_07KOIEOCCE@reverse?$AA@
	DQ	FLAT:bytearray_reverse
	DD	04H
	ORG $+4
	DQ	FLAT:reverse__doc__
	DQ	FLAT:??_C@_05BLFDIAHL@rfind?$AA@
	DQ	FLAT:bytearray_rfind
	DD	01H
	ORG $+4
	DQ	FLAT:rfind__doc__
	DQ	FLAT:??_C@_06NCDOMFM@rindex?$AA@
	DQ	FLAT:bytearray_rindex
	DD	01H
	ORG $+4
	DQ	FLAT:rindex__doc__
	DQ	FLAT:??_C@_05JKFAKHCP@rjust?$AA@
	DQ	FLAT:stringlib_rjust
	DD	01H
	ORG $+4
	DQ	FLAT:rjust__doc__
	DQ	FLAT:??_C@_0L@KEEHLNKL@rpartition?$AA@
	DQ	FLAT:bytearray_rpartition
	DD	08H
	ORG $+4
	DQ	FLAT:rpartition__doc__
	DQ	FLAT:??_C@_06BAKFHKMF@rsplit?$AA@
	DQ	FLAT:bytearray_rsplit
	DD	03H
	ORG $+4
	DQ	FLAT:rsplit__doc__
	DQ	FLAT:??_C@_06DBIPDJKN@rstrip?$AA@
	DQ	FLAT:bytearray_rstrip
	DD	01H
	ORG $+4
	DQ	FLAT:rstrip__doc__
	DQ	FLAT:??_C@_05EHPMMFBK@split?$AA@
	DQ	FLAT:bytearray_split
	DD	03H
	ORG $+4
	DQ	FLAT:split__doc__
	DQ	FLAT:??_C@_0L@BCMGLLLC@splitlines?$AA@
	DQ	FLAT:bytearray_splitlines
	DD	03H
	ORG $+4
	DQ	FLAT:splitlines__doc__
	DQ	FLAT:??_C@_0L@MPOGHCCL@startswith?$AA@
	DQ	FLAT:bytearray_startswith
	DD	01H
	ORG $+4
	DQ	FLAT:startswith__doc__
	DQ	FLAT:??_C@_05GGNGIGHC@strip?$AA@
	DQ	FLAT:bytearray_strip
	DD	01H
	ORG $+4
	DQ	FLAT:strip__doc__
	DQ	FLAT:??_C@_08EDJLBCEI@swapcase?$AA@
	DQ	FLAT:stringlib_swapcase
	DD	04H
	ORG $+4
	DQ	FLAT:_Py_swapcase__doc__
	DQ	FLAT:??_C@_05PHLGJONK@title?$AA@
	DQ	FLAT:stringlib_title
	DD	04H
	ORG $+4
	DQ	FLAT:_Py_title__doc__
	DQ	FLAT:??_C@_09ODNGOEIO@translate?$AA@
	DQ	FLAT:bytearray_translate
	DD	01H
	ORG $+4
	DQ	FLAT:translate__doc__
	DQ	FLAT:??_C@_05NECKJAMC@upper?$AA@
	DQ	FLAT:stringlib_upper
	DD	04H
	ORG $+4
	DQ	FLAT:_Py_upper__doc__
	DQ	FLAT:??_C@_05DMFNFMHA@zfill?$AA@
	DQ	FLAT:stringlib_zfill
	DD	01H
	ORG $+4
	DQ	FLAT:zfill__doc__
	DQ	0000000000000000H
	ORG $+24
bytearray_doc DB 'bytearray(iterable_of_ints) -> bytearray', 0aH, 'bytear'
	DB	'ray(string, encoding[, errors]) -> bytearray', 0aH, 'bytearra'
	DB	'y(bytes_or_buffer) -> mutable copy of bytes_or_buffer', 0aH, 'b'
	DB	'ytearray(int) -> bytes array of size given by the parameter i'
	DB	'nitialized with null bytes', 0aH, 'bytearray() -> empty bytes'
	DB	' array', 0aH, 0aH, 'Construct an mutable bytearray object fro'
	DB	'm:', 0aH, '  - an iterable yielding integers in range(256)', 0aH
	DB	'  - a text string encoded using the specified encoding', 0aH, ' '
	DB	' - a bytes or a buffer object', 0aH, '  - any object implemen'
	DB	'ting the buffer API.', 0aH, '  - an integer', 00H
	ORG $+14
PyByteArray_Type DQ dead1234beef5678H
	DQ	dead1234beef5678H
	DQ	0000000000000000H
	ORG $+8
	DQ	0000000000000001H
	DQ	0000000000000000H
	DQ	0000000000000000H
	DQ	0000000000000000H
	DQ	dead1234beef5678H
	DQ	dead1234beef5678H
	DQ	0000000000000001H
	DQ	FLAT:PyType_Type
	DQ	0000000000000000H
	ORG $+8
	DQ	FLAT:??_C@_09FCJHKOIN@bytearray?$AA@
	DQ	0000000000000090H
	DQ	0000000000000000H
	DQ	FLAT:bytearray_dealloc
	DQ	0000000000000000H
	DQ	0000000000000000H
	DQ	0000000000000000H
	DQ	0000000000000000H
	DQ	FLAT:bytearray_repr
	DQ	0000000000000000H
	DQ	FLAT:bytearray_as_sequence
	DQ	FLAT:bytearray_as_mapping
	DQ	0000000000000000H
	DQ	0000000000000000H
	DQ	FLAT:bytearray_str
	DQ	FLAT:PyObject_GenericGetAttr
	DQ	0000000000000000H
	DQ	FLAT:bytearray_as_buffer
	DD	040400H
	ORG $+4
	DQ	FLAT:bytearray_doc
	DQ	0000000000000000H
	DQ	0000000000000000H
	DQ	FLAT:bytearray_richcompare
	DQ	0000000000000000H
	DQ	FLAT:bytearray_iter
	DQ	0000000000000000H
	DQ	FLAT:bytearray_methods
	DQ	0000000000000000H
	DQ	0000000000000000H
	DQ	0000000000000000H
	DQ	0000000000000000H
	DQ	0000000000000000H
	DQ	0000000000000000H
	DQ	0000000000000000H
	DQ	FLAT:bytearray_init
	DQ	FLAT:PyType_GenericAlloc
	DQ	FLAT:PyType_GenericNew
	DQ	FLAT:_PyObject_DebugFree
	ORG $+64
length_hint_doc DB 'Private method returning an estimate of len(list(it))'
	DB	'.', 00H
	ORG $+1
setstate_doc DB	'Set state information for unpickling.', 00H
	ORG $+2
bytearrayiter_methods DQ FLAT:??_C@_0BA@BJLPBKGK@__length_hint__?$AA@
	DQ	FLAT:bytearrayiter_length_hint
	DD	04H
	ORG $+4
	DQ	FLAT:length_hint_doc
	DQ	FLAT:??_C@_0L@NNMACJIG@__reduce__?$AA@
	DQ	FLAT:bytearrayiter_reduce
	DD	04H
	ORG $+4
	DQ	FLAT:reduce_doc
	DQ	FLAT:??_C@_0N@MOOGCAMH@__setstate__?$AA@
	DQ	FLAT:bytearrayiter_setstate
	DD	08H
	ORG $+4
	DQ	FLAT:setstate_doc
	DQ	0000000000000000H
	DQ	0000000000000000H
	ORG $+16
PyByteArrayIter_Type DQ dead1234beef5678H
	DQ	dead1234beef5678H
	DQ	0000000000000000H
	ORG $+8
	DQ	0000000000000001H
	DQ	0000000000000000H
	DQ	0000000000000000H
	DQ	0000000000000000H
	DQ	dead1234beef5678H
	DQ	dead1234beef5678H
	DQ	0000000000000001H
	DQ	FLAT:PyType_Type
	DQ	0000000000000000H
	ORG $+8
	DQ	FLAT:??_C@_0BD@FCNILHGP@bytearray_iterator?$AA@
	DQ	0000000000000070H
	DQ	0000000000000000H
	DQ	FLAT:bytearrayiter_dealloc
	DQ	0000000000000000H
	DQ	0000000000000000H
	DQ	0000000000000000H
	DQ	0000000000000000H
	DQ	0000000000000000H
	DQ	0000000000000000H
	DQ	0000000000000000H
	DQ	0000000000000000H
	DQ	0000000000000000H
	DQ	0000000000000000H
	DQ	0000000000000000H
	DQ	FLAT:PyObject_GenericGetAttr
	DQ	0000000000000000H
	DQ	0000000000000000H
	DD	044000H
	ORG $+4
	DQ	0000000000000000H
	DQ	FLAT:bytearrayiter_traverse
	DQ	0000000000000000H
	DQ	0000000000000000H
	DQ	0000000000000000H
	DQ	FLAT:PyObject_SelfIter
	DQ	FLAT:bytearrayiter_next
	DQ	FLAT:bytearrayiter_methods
	DQ	0000000000000000H
	ORG $+144
_DATA	ENDS
;	COMDAT ??_C@_06EOMHCNPI@errors?$AA@
CONST	SEGMENT
??_C@_06EOMHCNPI@errors?$AA@ DB 'errors', 00H		; `string'
CONST	ENDS
;	COMDAT ??_C@_08MLPGAEIK@encoding?$AA@
CONST	SEGMENT
??_C@_08MLPGAEIK@encoding?$AA@ DB 'encoding', 00H	; `string'
CONST	ENDS
;	COMDAT ??_C@_06OEKOLKIL@source?$AA@
CONST	SEGMENT
??_C@_06OEKOLKIL@source?$AA@ DB 'source', 00H		; `string'
CONST	ENDS
PUBLIC	PyByteArray_Fini
; Function compile flags: /Odtp
; File c:\src\pyparallel\objects\bytearrayobject.c
;	COMDAT PyByteArray_Fini
_TEXT	SEGMENT
PyByteArray_Fini PROC					; COMDAT

; 13   : }

  00000	c3		 ret	 0
PyByteArray_Fini ENDP
_TEXT	ENDS
PUBLIC	PyByteArray_Init
; Function compile flags: /Odtp
;	COMDAT PyByteArray_Init
_TEXT	SEGMENT
PyByteArray_Init PROC					; COMDAT

; 18   :     return 1;

  00000	b8 01 00 00 00	 mov	 eax, 1

; 19   : }

  00005	c3		 ret	 0
PyByteArray_Init ENDP
_TEXT	ENDS
PUBLIC	??_C@_1CO@PHBFBFIE@?$AAP?$AAy?$AAB?$AAy?$AAt?$AAe?$AAA?$AAr?$AAr?$AAa?$AAy?$AA_?$AAC?$AAh?$AAe?$AAc?$AAk?$AA?$CI?$AAo?$AAb?$AAj?$AA?$CJ?$AA?$AA@ ; `string'
PUBLIC	??_C@_1DK@NEEHIPOB@?$AA?4?$AA?4?$AA?2?$AAO?$AAb?$AAj?$AAe?$AAc?$AAt?$AAs?$AA?2?$AAb?$AAy?$AAt?$AAe?$AAa?$AAr?$AAr?$AAa?$AAy?$AAo?$AAb?$AAj?$AAe?$AAc?$AAt?$AA?4?$AAc?$AA?$AA@ ; `string'
EXTRN	PyBuffer_FillInfo:PROC
EXTRN	__imp__wassert:PROC
EXTRN	PyType_IsSubtype:PROC
;	COMDAT pdata
pdata	SEGMENT
$pdata$bytearray_getbuffer DD imagerel bytearray_getbuffer
	DD	imagerel bytearray_getbuffer+259
	DD	imagerel $unwind$bytearray_getbuffer
pdata	ENDS
;	COMDAT xdata
xdata	SEGMENT
$unwind$bytearray_getbuffer DD 011301H
	DD	0a213H
xdata	ENDS
;	COMDAT ??_C@_1CO@PHBFBFIE@?$AAP?$AAy?$AAB?$AAy?$AAt?$AAe?$AAA?$AAr?$AAr?$AAa?$AAy?$AA_?$AAC?$AAh?$AAe?$AAc?$AAk?$AA?$CI?$AAo?$AAb?$AAj?$AA?$CJ?$AA?$AA@
CONST	SEGMENT
??_C@_1CO@PHBFBFIE@?$AAP?$AAy?$AAB?$AAy?$AAt?$AAe?$AAA?$AAr?$AAr?$AAa?$AAy?$AA_?$AAC?$AAh?$AAe?$AAc?$AAk?$AA?$CI?$AAo?$AAb?$AAj?$AA?$CJ?$AA?$AA@ DB 'P'
	DB	00H, 'y', 00H, 'B', 00H, 'y', 00H, 't', 00H, 'e', 00H, 'A', 00H
	DB	'r', 00H, 'r', 00H, 'a', 00H, 'y', 00H, '_', 00H, 'C', 00H, 'h'
	DB	00H, 'e', 00H, 'c', 00H, 'k', 00H, '(', 00H, 'o', 00H, 'b', 00H
	DB	'j', 00H, ')', 00H, 00H, 00H			; `string'
CONST	ENDS
;	COMDAT ??_C@_1DK@NEEHIPOB@?$AA?4?$AA?4?$AA?2?$AAO?$AAb?$AAj?$AAe?$AAc?$AAt?$AAs?$AA?2?$AAb?$AAy?$AAt?$AAe?$AAa?$AAr?$AAr?$AAa?$AAy?$AAo?$AAb?$AAj?$AAe?$AAc?$AAt?$AA?4?$AAc?$AA?$AA@
CONST	SEGMENT
??_C@_1DK@NEEHIPOB@?$AA?4?$AA?4?$AA?2?$AAO?$AAb?$AAj?$AAe?$AAc?$AAt?$AAs?$AA?2?$AAb?$AAy?$AAt?$AAe?$AAa?$AAr?$AAr?$AAa?$AAy?$AAo?$AAb?$AAj?$AAe?$AAc?$AAt?$AA?4?$AAc?$AA?$AA@ DB '.'
	DB	00H, '.', 00H, '\', 00H, 'O', 00H, 'b', 00H, 'j', 00H, 'e', 00H
	DB	'c', 00H, 't', 00H, 's', 00H, '\', 00H, 'b', 00H, 'y', 00H, 't'
	DB	00H, 'e', 00H, 'a', 00H, 'r', 00H, 'r', 00H, 'a', 00H, 'y', 00H
	DB	'o', 00H, 'b', 00H, 'j', 00H, 'e', 00H, 'c', 00H, 't', 00H, '.'
	DB	00H, 'c', 00H, 00H, 00H			; `string'
; Function compile flags: /Odtp
CONST	ENDS
;	COMDAT bytearray_getbuffer
_TEXT	SEGMENT
ptr$ = 48
ret$ = 56
tv83 = 64
obj$ = 96
view$ = 104
flags$ = 112
bytearray_getbuffer PROC				; COMDAT

; 56   : {

  00000	44 89 44 24 18	 mov	 DWORD PTR [rsp+24], r8d
  00005	48 89 54 24 10	 mov	 QWORD PTR [rsp+16], rdx
  0000a	48 89 4c 24 08	 mov	 QWORD PTR [rsp+8], rcx
  0000f	48 83 ec 58	 sub	 rsp, 88			; 00000058H

; 57   :     int ret;
; 58   :     void *ptr;
; 59   :     if (view == NULL) {

  00013	48 83 7c 24 68
	00		 cmp	 QWORD PTR view$[rsp], 0
  00019	75 19		 jne	 SHORT $LN2@bytearray_

; 60   :         obj->ob_exports++;

  0001b	48 8b 44 24 60	 mov	 rax, QWORD PTR obj$[rsp]
  00020	8b 40 70	 mov	 eax, DWORD PTR [rax+112]
  00023	ff c0		 inc	 eax
  00025	48 8b 4c 24 60	 mov	 rcx, QWORD PTR obj$[rsp]
  0002a	89 41 70	 mov	 DWORD PTR [rcx+112], eax

; 61   :         return 0;

  0002d	33 c0		 xor	 eax, eax
  0002f	e9 ca 00 00 00	 jmp	 $LN3@bytearray_
$LN2@bytearray_:

; 62   :     }
; 63   :     ptr = (void *) PyByteArray_AS_STRING(obj);

  00034	48 8d 05 00 00
	00 00		 lea	 rax, OFFSET FLAT:PyByteArray_Type
  0003b	48 8b 4c 24 60	 mov	 rcx, QWORD PTR obj$[rsp]
  00040	48 39 41 58	 cmp	 QWORD PTR [rcx+88], rax
  00044	74 35		 je	 SHORT $LN5@bytearray_
  00046	48 8d 15 00 00
	00 00		 lea	 rdx, OFFSET FLAT:PyByteArray_Type
  0004d	48 8b 44 24 60	 mov	 rax, QWORD PTR obj$[rsp]
  00052	48 8b 48 58	 mov	 rcx, QWORD PTR [rax+88]
  00056	e8 00 00 00 00	 call	 PyType_IsSubtype
  0005b	85 c0		 test	 eax, eax
  0005d	75 1c		 jne	 SHORT $LN5@bytearray_
  0005f	41 b8 3f 00 00
	00		 mov	 r8d, 63			; 0000003fH
  00065	48 8d 15 00 00
	00 00		 lea	 rdx, OFFSET FLAT:??_C@_1DK@NEEHIPOB@?$AA?4?$AA?4?$AA?2?$AAO?$AAb?$AAj?$AAe?$AAc?$AAt?$AAs?$AA?2?$AAb?$AAy?$AAt?$AAe?$AAa?$AAr?$AAr?$AAa?$AAy?$AAo?$AAb?$AAj?$AAe?$AAc?$AAt?$AA?4?$AAc?$AA?$AA@
  0006c	48 8d 0d 00 00
	00 00		 lea	 rcx, OFFSET FLAT:??_C@_1CO@PHBFBFIE@?$AAP?$AAy?$AAB?$AAy?$AAt?$AAe?$AAA?$AAr?$AAr?$AAa?$AAy?$AA_?$AAC?$AAh?$AAe?$AAc?$AAk?$AA?$CI?$AAo?$AAb?$AAj?$AA?$CJ?$AA?$AA@
  00073	ff 15 00 00 00
	00		 call	 QWORD PTR __imp__wassert
  00079	33 c0		 xor	 eax, eax
$LN5@bytearray_:
  0007b	48 8b 44 24 60	 mov	 rax, QWORD PTR obj$[rsp]
  00080	48 83 78 60 00	 cmp	 QWORD PTR [rax+96], 0
  00085	74 13		 je	 SHORT $LN6@bytearray_
  00087	48 8b 44 24 60	 mov	 rax, QWORD PTR obj$[rsp]
  0008c	48 8b 80 80 00
	00 00		 mov	 rax, QWORD PTR [rax+128]
  00093	48 89 44 24 40	 mov	 QWORD PTR tv83[rsp], rax
  00098	eb 0c		 jmp	 SHORT $LN7@bytearray_
$LN6@bytearray_:
  0009a	48 8d 05 00 00
	00 00		 lea	 rax, OFFSET FLAT:_PyByteArray_empty_string
  000a1	48 89 44 24 40	 mov	 QWORD PTR tv83[rsp], rax
$LN7@bytearray_:
  000a6	48 8b 44 24 40	 mov	 rax, QWORD PTR tv83[rsp]
  000ab	48 89 44 24 30	 mov	 QWORD PTR ptr$[rsp], rax

; 64   :     ret = PyBuffer_FillInfo(view, (PyObject*)obj, ptr, Py_SIZE(obj), 0, flags);

  000b0	8b 44 24 70	 mov	 eax, DWORD PTR flags$[rsp]
  000b4	89 44 24 28	 mov	 DWORD PTR [rsp+40], eax
  000b8	c7 44 24 20 00
	00 00 00	 mov	 DWORD PTR [rsp+32], 0
  000c0	48 8b 44 24 60	 mov	 rax, QWORD PTR obj$[rsp]
  000c5	4c 8b 48 60	 mov	 r9, QWORD PTR [rax+96]
  000c9	4c 8b 44 24 30	 mov	 r8, QWORD PTR ptr$[rsp]
  000ce	48 8b 54 24 60	 mov	 rdx, QWORD PTR obj$[rsp]
  000d3	48 8b 4c 24 68	 mov	 rcx, QWORD PTR view$[rsp]
  000d8	e8 00 00 00 00	 call	 PyBuffer_FillInfo
  000dd	89 44 24 38	 mov	 DWORD PTR ret$[rsp], eax

; 65   :     if (ret >= 0) {

  000e1	83 7c 24 38 00	 cmp	 DWORD PTR ret$[rsp], 0
  000e6	7c 12		 jl	 SHORT $LN1@bytearray_

; 66   :         obj->ob_exports++;

  000e8	48 8b 44 24 60	 mov	 rax, QWORD PTR obj$[rsp]
  000ed	8b 40 70	 mov	 eax, DWORD PTR [rax+112]
  000f0	ff c0		 inc	 eax
  000f2	48 8b 4c 24 60	 mov	 rcx, QWORD PTR obj$[rsp]
  000f7	89 41 70	 mov	 DWORD PTR [rcx+112], eax
$LN1@bytearray_:

; 67   :     }
; 68   :     return ret;

  000fa	8b 44 24 38	 mov	 eax, DWORD PTR ret$[rsp]
$LN3@bytearray_:

; 69   : }

  000fe	48 83 c4 58	 add	 rsp, 88			; 00000058H
  00102	c3		 ret	 0
bytearray_getbuffer ENDP
; Function compile flags: /Odtp
_TEXT	ENDS
;	COMDAT bytearray_releasebuffer
_TEXT	SEGMENT
obj$ = 8
view$ = 16
bytearray_releasebuffer PROC				; COMDAT

; 73   : {

  00000	48 89 54 24 10	 mov	 QWORD PTR [rsp+16], rdx
  00005	48 89 4c 24 08	 mov	 QWORD PTR [rsp+8], rcx

; 74   :     obj->ob_exports--;

  0000a	48 8b 44 24 08	 mov	 rax, QWORD PTR obj$[rsp]
  0000f	8b 40 70	 mov	 eax, DWORD PTR [rax+112]
  00012	ff c8		 dec	 eax
  00014	48 8b 4c 24 08	 mov	 rcx, QWORD PTR obj$[rsp]
  00019	89 41 70	 mov	 DWORD PTR [rcx+112], eax

; 75   : }

  0001c	c3		 ret	 0
bytearray_releasebuffer ENDP
_TEXT	ENDS
PUBLIC	PyByteArray_FromObject
EXTRN	PyObject_CallFunctionObjArgs:PROC
;	COMDAT pdata
pdata	SEGMENT
$pdata$PyByteArray_FromObject DD imagerel $LN3
	DD	imagerel $LN3+34
	DD	imagerel $unwind$PyByteArray_FromObject
pdata	ENDS
;	COMDAT xdata
xdata	SEGMENT
$unwind$PyByteArray_FromObject DD 010901H
	DD	04209H
; Function compile flags: /Odtp
xdata	ENDS
;	COMDAT PyByteArray_FromObject
_TEXT	SEGMENT
input$ = 48
PyByteArray_FromObject PROC				; COMDAT

; 110  : {

$LN3:
  00000	48 89 4c 24 08	 mov	 QWORD PTR [rsp+8], rcx
  00005	48 83 ec 28	 sub	 rsp, 40			; 00000028H

; 111  :     return PyObject_CallFunctionObjArgs((PyObject *)&PyByteArray_Type,
; 112  :                                         input, NULL);

  00009	45 33 c0	 xor	 r8d, r8d
  0000c	48 8b 54 24 30	 mov	 rdx, QWORD PTR input$[rsp]
  00011	48 8d 0d 00 00
	00 00		 lea	 rcx, OFFSET FLAT:PyByteArray_Type
  00018	e8 00 00 00 00	 call	 PyObject_CallFunctionObjArgs

; 113  : }

  0001d	48 83 c4 28	 add	 rsp, 40			; 00000028H
  00021	c3		 ret	 0
PyByteArray_FromObject ENDP
_TEXT	ENDS
PUBLIC	_Py_DecRef
PUBLIC	??_C@_0DG@DPPIIPAI@Negative?5size?5passed?5to?5PyByteAr@ ; `string'
PUBLIC	PyByteArray_FromStringAndSize
EXTRN	memcpy:PROC
EXTRN	_PyObject_DebugMalloc:PROC
EXTRN	_PyObject_New:PROC
EXTRN	_PxObject_New:PROC
EXTRN	_Py_PXCTX:PROC
EXTRN	PyErr_NoMemory:PROC
EXTRN	PyErr_SetString:PROC
EXTRN	PyExc_SystemError:QWORD
;	COMDAT pdata
pdata	SEGMENT
$pdata$PyByteArray_FromStringAndSize DD imagerel $LN12
	DD	imagerel $LN12+364
	DD	imagerel $unwind$PyByteArray_FromStringAndSize
pdata	ENDS
;	COMDAT xdata
xdata	SEGMENT
$unwind$PyByteArray_FromStringAndSize DD 010e01H
	DD	0820eH
xdata	ENDS
;	COMDAT ??_C@_0DG@DPPIIPAI@Negative?5size?5passed?5to?5PyByteAr@
CONST	SEGMENT
??_C@_0DG@DPPIIPAI@Negative?5size?5passed?5to?5PyByteAr@ DB 'Negative siz'
	DB	'e passed to PyByteArray_FromStringAndSize', 00H ; `string'
; Function compile flags: /Odtp
CONST	ENDS
;	COMDAT PyByteArray_FromStringAndSize
_TEXT	SEGMENT
alloc$ = 32
new$ = 40
tv75 = 48
bytes$ = 80
size$ = 88
PyByteArray_FromStringAndSize PROC			; COMDAT

; 117  : {

$LN12:
  00000	48 89 54 24 10	 mov	 QWORD PTR [rsp+16], rdx
  00005	48 89 4c 24 08	 mov	 QWORD PTR [rsp+8], rcx
  0000a	48 83 ec 48	 sub	 rsp, 72			; 00000048H

; 118  :     PyByteArrayObject *new;
; 119  :     Py_ssize_t alloc;
; 120  : 
; 121  :     if (size < 0) {

  0000e	48 83 7c 24 58
	00		 cmp	 QWORD PTR size$[rsp], 0
  00014	7d 1a		 jge	 SHORT $LN7@PyByteArra

; 122  :         PyErr_SetString(PyExc_SystemError,
; 123  :             "Negative size passed to PyByteArray_FromStringAndSize");

  00016	48 8d 15 00 00
	00 00		 lea	 rdx, OFFSET FLAT:??_C@_0DG@DPPIIPAI@Negative?5size?5passed?5to?5PyByteAr@
  0001d	48 8b 0d 00 00
	00 00		 mov	 rcx, QWORD PTR PyExc_SystemError
  00024	e8 00 00 00 00	 call	 PyErr_SetString

; 124  :         return NULL;

  00029	33 c0		 xor	 eax, eax
  0002b	e9 37 01 00 00	 jmp	 $LN8@PyByteArra
$LN7@PyByteArra:

; 125  :     }
; 126  : 
; 127  :     /* Prevent buffer overflow when setting alloc to size+1. */
; 128  :     if (size == PY_SSIZE_T_MAX) {

  00030	48 b8 ff ff ff
	ff ff ff ff 7f	 mov	 rax, 9223372036854775807 ; 7fffffffffffffffH
  0003a	48 39 44 24 58	 cmp	 QWORD PTR size$[rsp], rax
  0003f	75 0a		 jne	 SHORT $LN6@PyByteArra

; 129  :         return PyErr_NoMemory();

  00041	e8 00 00 00 00	 call	 PyErr_NoMemory
  00046	e9 1c 01 00 00	 jmp	 $LN8@PyByteArra
$LN6@PyByteArra:

; 130  :     }
; 131  : 
; 132  :     new = PyObject_New(PyByteArrayObject, &PyByteArray_Type);

  0004b	e8 00 00 00 00	 call	 _Py_PXCTX
  00050	85 c0		 test	 eax, eax
  00052	74 13		 je	 SHORT $LN10@PyByteArra
  00054	48 8d 0d 00 00
	00 00		 lea	 rcx, OFFSET FLAT:PyByteArray_Type
  0005b	e8 00 00 00 00	 call	 _PxObject_New
  00060	48 89 44 24 30	 mov	 QWORD PTR tv75[rsp], rax
  00065	eb 11		 jmp	 SHORT $LN11@PyByteArra
$LN10@PyByteArra:
  00067	48 8d 0d 00 00
	00 00		 lea	 rcx, OFFSET FLAT:PyByteArray_Type
  0006e	e8 00 00 00 00	 call	 _PyObject_New
  00073	48 89 44 24 30	 mov	 QWORD PTR tv75[rsp], rax
$LN11@PyByteArra:
  00078	48 8b 44 24 30	 mov	 rax, QWORD PTR tv75[rsp]
  0007d	48 89 44 24 28	 mov	 QWORD PTR new$[rsp], rax

; 133  :     if (new == NULL)

  00082	48 83 7c 24 28
	00		 cmp	 QWORD PTR new$[rsp], 0
  00088	75 07		 jne	 SHORT $LN5@PyByteArra

; 134  :         return NULL;

  0008a	33 c0		 xor	 eax, eax
  0008c	e9 d6 00 00 00	 jmp	 $LN8@PyByteArra
$LN5@PyByteArra:

; 135  : 
; 136  :     if (size == 0) {

  00091	48 83 7c 24 58
	00		 cmp	 QWORD PTR size$[rsp], 0
  00097	75 1e		 jne	 SHORT $LN4@PyByteArra

; 137  :         new->ob_bytes = NULL;

  00099	48 8b 44 24 28	 mov	 rax, QWORD PTR new$[rsp]
  0009e	48 c7 80 80 00
	00 00 00 00 00
	00		 mov	 QWORD PTR [rax+128], 0

; 138  :         alloc = 0;

  000a9	48 c7 44 24 20
	00 00 00 00	 mov	 QWORD PTR alloc$[rsp], 0

; 139  :     }
; 140  :     else {

  000b2	e9 83 00 00 00	 jmp	 $LN3@PyByteArra
$LN4@PyByteArra:

; 141  :         alloc = size + 1;

  000b7	48 8b 44 24 58	 mov	 rax, QWORD PTR size$[rsp]
  000bc	48 ff c0	 inc	 rax
  000bf	48 89 44 24 20	 mov	 QWORD PTR alloc$[rsp], rax

; 142  :         new->ob_bytes = PyObject_Malloc(alloc);

  000c4	48 8b 4c 24 20	 mov	 rcx, QWORD PTR alloc$[rsp]
  000c9	e8 00 00 00 00	 call	 _PyObject_DebugMalloc
  000ce	48 8b 4c 24 28	 mov	 rcx, QWORD PTR new$[rsp]
  000d3	48 89 81 80 00
	00 00		 mov	 QWORD PTR [rcx+128], rax

; 143  :         if (new->ob_bytes == NULL) {

  000da	48 8b 44 24 28	 mov	 rax, QWORD PTR new$[rsp]
  000df	48 83 b8 80 00
	00 00 00	 cmp	 QWORD PTR [rax+128], 0
  000e7	75 11		 jne	 SHORT $LN2@PyByteArra

; 144  :             Py_DECREF(new);

  000e9	48 8b 4c 24 28	 mov	 rcx, QWORD PTR new$[rsp]
  000ee	e8 00 00 00 00	 call	 _Py_DecRef

; 145  :             return PyErr_NoMemory();

  000f3	e8 00 00 00 00	 call	 PyErr_NoMemory
  000f8	eb 6d		 jmp	 SHORT $LN8@PyByteArra
$LN2@PyByteArra:

; 146  :         }
; 147  :         if (bytes != NULL && size > 0)

  000fa	48 83 7c 24 50
	00		 cmp	 QWORD PTR bytes$[rsp], 0
  00100	74 23		 je	 SHORT $LN1@PyByteArra
  00102	48 83 7c 24 58
	00		 cmp	 QWORD PTR size$[rsp], 0
  00108	7e 1b		 jle	 SHORT $LN1@PyByteArra

; 148  :             memcpy(new->ob_bytes, bytes, size);

  0010a	4c 8b 44 24 58	 mov	 r8, QWORD PTR size$[rsp]
  0010f	48 8b 54 24 50	 mov	 rdx, QWORD PTR bytes$[rsp]
  00114	48 8b 44 24 28	 mov	 rax, QWORD PTR new$[rsp]
  00119	48 8b 88 80 00
	00 00		 mov	 rcx, QWORD PTR [rax+128]
  00120	e8 00 00 00 00	 call	 memcpy
$LN1@PyByteArra:

; 149  :         new->ob_bytes[size] = '\0';  /* Trailing null byte */

  00125	48 8b 44 24 28	 mov	 rax, QWORD PTR new$[rsp]
  0012a	48 8b 80 80 00
	00 00		 mov	 rax, QWORD PTR [rax+128]
  00131	48 8b 4c 24 58	 mov	 rcx, QWORD PTR size$[rsp]
  00136	c6 04 08 00	 mov	 BYTE PTR [rax+rcx], 0
$LN3@PyByteArra:

; 150  :     }
; 151  :     Py_SIZE(new) = size;

  0013a	48 8b 44 24 28	 mov	 rax, QWORD PTR new$[rsp]
  0013f	48 8b 4c 24 58	 mov	 rcx, QWORD PTR size$[rsp]
  00144	48 89 48 60	 mov	 QWORD PTR [rax+96], rcx

; 152  :     new->ob_alloc = alloc;

  00148	48 8b 44 24 28	 mov	 rax, QWORD PTR new$[rsp]
  0014d	48 8b 4c 24 20	 mov	 rcx, QWORD PTR alloc$[rsp]
  00152	48 89 48 78	 mov	 QWORD PTR [rax+120], rcx

; 153  :     new->ob_exports = 0;

  00156	48 8b 44 24 28	 mov	 rax, QWORD PTR new$[rsp]
  0015b	c7 40 70 00 00
	00 00		 mov	 DWORD PTR [rax+112], 0

; 154  : 
; 155  :     return (PyObject *)new;

  00162	48 8b 44 24 28	 mov	 rax, QWORD PTR new$[rsp]
$LN8@PyByteArra:

; 156  : }

  00167	48 83 c4 48	 add	 rsp, 72			; 00000048H
  0016b	c3		 ret	 0
PyByteArray_FromStringAndSize ENDP
_TEXT	ENDS
PUBLIC	??_C@_0L@DMHMLFIA@_Py_DecRef?$AA@		; `string'
PUBLIC	??_C@_0CD@HDJFDCDP@c?3?2src?2pyparallel?2include?2object@ ; `string'
EXTRN	_Py_Dealloc:PROC
EXTRN	_Py_NegativeRefcount:PROC
EXTRN	_PyParallel_Guard:PROC
EXTRN	_Py_RefTotal:QWORD
EXTRN	Px_DecRef:PROC
;	COMDAT pdata
; File c:\src\pyparallel\include\object.h
pdata	SEGMENT
$pdata$_Py_DecRef DD imagerel $LN13
	DD	imagerel $LN13+257
	DD	imagerel $unwind$_Py_DecRef
pdata	ENDS
;	COMDAT xdata
xdata	SEGMENT
$unwind$_Py_DecRef DD 010901H
	DD	08209H
xdata	ENDS
;	COMDAT ??_C@_0L@DMHMLFIA@_Py_DecRef?$AA@
CONST	SEGMENT
??_C@_0L@DMHMLFIA@_Py_DecRef?$AA@ DB '_Py_DecRef', 00H	; `string'
CONST	ENDS
;	COMDAT ??_C@_0CD@HDJFDCDP@c?3?2src?2pyparallel?2include?2object@
CONST	SEGMENT
??_C@_0CD@HDJFDCDP@c?3?2src?2pyparallel?2include?2object@ DB 'c:\src\pypa'
	DB	'rallel\include\object.h', 00H		; `string'
; Function compile flags: /Odtp
CONST	ENDS
;	COMDAT _Py_DecRef
_TEXT	SEGMENT
tv81 = 48
op$ = 80
_Py_DecRef PROC						; COMDAT

; 923  : {

$LN13:
  00000	48 89 4c 24 08	 mov	 QWORD PTR [rsp+8], rcx
  00005	48 83 ec 48	 sub	 rsp, 72			; 00000048H

; 924  :     if (!Py_PXCTX) {

  00009	e8 00 00 00 00	 call	 _Py_PXCTX
  0000e	85 c0		 test	 eax, eax
  00010	0f 85 e6 00 00
	00		 jne	 $LN8@Py_DecRef

; 925  :         if (Px_PERSISTED(op) || Px_CLONED(op))

  00016	48 8b 44 24 50	 mov	 rax, QWORD PTR op$[rsp]
  0001b	48 8b 40 20	 mov	 rax, QWORD PTR [rax+32]
  0001f	48 83 e0 20	 and	 rax, 32			; 00000020H
  00023	48 85 c0	 test	 rax, rax
  00026	75 14		 jne	 SHORT $LN6@Py_DecRef
  00028	48 8b 44 24 50	 mov	 rax, QWORD PTR op$[rsp]
  0002d	48 8b 40 20	 mov	 rax, QWORD PTR [rax+32]
  00031	48 25 80 00 00
	00		 and	 rax, 128		; 00000080H
  00037	48 85 c0	 test	 rax, rax
  0003a	74 0f		 je	 SHORT $LN7@Py_DecRef
$LN6@Py_DecRef:

; 926  :             Px_DECREF(op);

  0003c	48 8b 4c 24 50	 mov	 rcx, QWORD PTR op$[rsp]
  00041	e8 00 00 00 00	 call	 Px_DecRef
  00046	e9 b1 00 00 00	 jmp	 $LN5@Py_DecRef
$LN7@Py_DecRef:

; 927  :         else if (!Px_ISPX(op)) {

  0004b	48 8b 44 24 50	 mov	 rax, QWORD PTR op$[rsp]
  00050	48 8b 40 20	 mov	 rax, QWORD PTR [rax+32]
  00054	48 83 e0 02	 and	 rax, 2
  00058	48 85 c0	 test	 rax, rax
  0005b	0f 85 9b 00 00
	00		 jne	 $LN4@Py_DecRef

; 928  :             _Py_DEC_REFTOTAL;

  00061	e8 00 00 00 00	 call	 _Py_PXCTX
  00066	85 c0		 test	 eax, eax
  00068	74 02		 je	 SHORT $LN11@Py_DecRef
  0006a	eb 11		 jmp	 SHORT $LN12@Py_DecRef
$LN11@Py_DecRef:
  0006c	48 8b 05 00 00
	00 00		 mov	 rax, QWORD PTR _Py_RefTotal
  00073	48 ff c8	 dec	 rax
  00076	48 89 05 00 00
	00 00		 mov	 QWORD PTR _Py_RefTotal, rax
$LN12@Py_DecRef:

; 929  :             if ((--((PyObject *)(op))->ob_refcnt) != 0) {

  0007d	48 8b 44 24 50	 mov	 rax, QWORD PTR op$[rsp]
  00082	48 8b 40 50	 mov	 rax, QWORD PTR [rax+80]
  00086	48 ff c8	 dec	 rax
  00089	48 89 44 24 30	 mov	 QWORD PTR tv81[rsp], rax
  0008e	48 8b 44 24 50	 mov	 rax, QWORD PTR op$[rsp]
  00093	48 8b 4c 24 30	 mov	 rcx, QWORD PTR tv81[rsp]
  00098	48 89 48 50	 mov	 QWORD PTR [rax+80], rcx
  0009c	48 83 7c 24 30
	00		 cmp	 QWORD PTR tv81[rsp], 0
  000a2	74 4e		 je	 SHORT $LN3@Py_DecRef

; 930  :                 _Py_CHECK_REFCNT(op);

  000a4	c7 44 24 20 10
	00 00 00	 mov	 DWORD PTR [rsp+32], 16
  000ac	4c 8b 4c 24 50	 mov	 r9, QWORD PTR op$[rsp]
  000b1	41 b8 a2 03 00
	00		 mov	 r8d, 930		; 000003a2H
  000b7	48 8d 15 00 00
	00 00		 lea	 rdx, OFFSET FLAT:??_C@_0CD@HDJFDCDP@c?3?2src?2pyparallel?2include?2object@
  000be	48 8d 0d 00 00
	00 00		 lea	 rcx, OFFSET FLAT:??_C@_0L@DMHMLFIA@_Py_DecRef?$AA@
  000c5	e8 00 00 00 00	 call	 _PyParallel_Guard
  000ca	85 c0		 test	 eax, eax
  000cc	75 22		 jne	 SHORT $LN2@Py_DecRef
  000ce	48 8b 44 24 50	 mov	 rax, QWORD PTR op$[rsp]
  000d3	48 83 78 50 00	 cmp	 QWORD PTR [rax+80], 0
  000d8	7d 16		 jge	 SHORT $LN2@Py_DecRef
  000da	4c 8b 44 24 50	 mov	 r8, QWORD PTR op$[rsp]
  000df	ba a2 03 00 00	 mov	 edx, 930		; 000003a2H
  000e4	48 8d 0d 00 00
	00 00		 lea	 rcx, OFFSET FLAT:??_C@_0CD@HDJFDCDP@c?3?2src?2pyparallel?2include?2object@
  000eb	e8 00 00 00 00	 call	 _Py_NegativeRefcount
$LN2@Py_DecRef:

; 931  :             } else

  000f0	eb 0a		 jmp	 SHORT $LN1@Py_DecRef
$LN3@Py_DecRef:

; 932  :                 _Py_Dealloc((PyObject *)(op));

  000f2	48 8b 4c 24 50	 mov	 rcx, QWORD PTR op$[rsp]
  000f7	e8 00 00 00 00	 call	 _Py_Dealloc
$LN1@Py_DecRef:
$LN4@Py_DecRef:
$LN5@Py_DecRef:
$LN8@Py_DecRef:

; 933  :         }
; 934  :     }
; 935  : }

  000fc	48 83 c4 48	 add	 rsp, 72			; 00000048H
  00100	c3		 ret	 0
_Py_DecRef ENDP
_TEXT	ENDS
PUBLIC	??_C@_1DA@DMKHKEDP@?$AAP?$AAy?$AAB?$AAy?$AAt?$AAe?$AAA?$AAr?$AAr?$AAa?$AAy?$AA_?$AAC?$AAh?$AAe?$AAc?$AAk?$AA?$CI?$AAs?$AAe?$AAl?$AAf?$AA?$CJ?$AA?$AA@ ; `string'
PUBLIC	??_C@_1BK@KLMFOMEM@?$AAs?$AAe?$AAl?$AAf?$AA?5?$AA?$CB?$AA?$DN?$AA?5?$AAN?$AAU?$AAL?$AAL?$AA?$AA@ ; `string'
PUBLIC	PyByteArray_Size
;	COMDAT pdata
; File c:\src\pyparallel\objects\bytearrayobject.c
pdata	SEGMENT
$pdata$PyByteArray_Size DD imagerel $LN6
	DD	imagerel $LN6+201
	DD	imagerel $unwind$PyByteArray_Size
pdata	ENDS
;	COMDAT xdata
xdata	SEGMENT
$unwind$PyByteArray_Size DD 010901H
	DD	04209H
xdata	ENDS
;	COMDAT ??_C@_1DA@DMKHKEDP@?$AAP?$AAy?$AAB?$AAy?$AAt?$AAe?$AAA?$AAr?$AAr?$AAa?$AAy?$AA_?$AAC?$AAh?$AAe?$AAc?$AAk?$AA?$CI?$AAs?$AAe?$AAl?$AAf?$AA?$CJ?$AA?$AA@
CONST	SEGMENT
??_C@_1DA@DMKHKEDP@?$AAP?$AAy?$AAB?$AAy?$AAt?$AAe?$AAA?$AAr?$AAr?$AAa?$AAy?$AA_?$AAC?$AAh?$AAe?$AAc?$AAk?$AA?$CI?$AAs?$AAe?$AAl?$AAf?$AA?$CJ?$AA?$AA@ DB 'P'
	DB	00H, 'y', 00H, 'B', 00H, 'y', 00H, 't', 00H, 'e', 00H, 'A', 00H
	DB	'r', 00H, 'r', 00H, 'a', 00H, 'y', 00H, '_', 00H, 'C', 00H, 'h'
	DB	00H, 'e', 00H, 'c', 00H, 'k', 00H, '(', 00H, 's', 00H, 'e', 00H
	DB	'l', 00H, 'f', 00H, ')', 00H, 00H, 00H	; `string'
CONST	ENDS
;	COMDAT ??_C@_1BK@KLMFOMEM@?$AAs?$AAe?$AAl?$AAf?$AA?5?$AA?$CB?$AA?$DN?$AA?5?$AAN?$AAU?$AAL?$AAL?$AA?$AA@
CONST	SEGMENT
??_C@_1BK@KLMFOMEM@?$AAs?$AAe?$AAl?$AAf?$AA?5?$AA?$CB?$AA?$DN?$AA?5?$AAN?$AAU?$AAL?$AAL?$AA?$AA@ DB 's'
	DB	00H, 'e', 00H, 'l', 00H, 'f', 00H, ' ', 00H, '!', 00H, '=', 00H
	DB	' ', 00H, 'N', 00H, 'U', 00H, 'L', 00H, 'L', 00H, 00H, 00H ; `string'
; Function compile flags: /Odtp
CONST	ENDS
;	COMDAT PyByteArray_Size
_TEXT	SEGMENT
self$ = 48
PyByteArray_Size PROC					; COMDAT

; 160  : {

$LN6:
  00000	48 89 4c 24 08	 mov	 QWORD PTR [rsp+8], rcx
  00005	48 83 ec 28	 sub	 rsp, 40			; 00000028H

; 161  :     assert(self != NULL);

  00009	48 83 7c 24 30
	00		 cmp	 QWORD PTR self$[rsp], 0
  0000f	75 1c		 jne	 SHORT $LN3@PyByteArra@2
  00011	41 b8 a1 00 00
	00		 mov	 r8d, 161		; 000000a1H
  00017	48 8d 15 00 00
	00 00		 lea	 rdx, OFFSET FLAT:??_C@_1DK@NEEHIPOB@?$AA?4?$AA?4?$AA?2?$AAO?$AAb?$AAj?$AAe?$AAc?$AAt?$AAs?$AA?2?$AAb?$AAy?$AAt?$AAe?$AAa?$AAr?$AAr?$AAa?$AAy?$AAo?$AAb?$AAj?$AAe?$AAc?$AAt?$AA?4?$AAc?$AA?$AA@
  0001e	48 8d 0d 00 00
	00 00		 lea	 rcx, OFFSET FLAT:??_C@_1BK@KLMFOMEM@?$AAs?$AAe?$AAl?$AAf?$AA?5?$AA?$CB?$AA?$DN?$AA?5?$AAN?$AAU?$AAL?$AAL?$AA?$AA@
  00025	ff 15 00 00 00
	00		 call	 QWORD PTR __imp__wassert
  0002b	33 c0		 xor	 eax, eax
$LN3@PyByteArra@2:

; 162  :     assert(PyByteArray_Check(self));

  0002d	48 8d 05 00 00
	00 00		 lea	 rax, OFFSET FLAT:PyByteArray_Type
  00034	48 8b 4c 24 30	 mov	 rcx, QWORD PTR self$[rsp]
  00039	48 39 41 58	 cmp	 QWORD PTR [rcx+88], rax
  0003d	74 35		 je	 SHORT $LN4@PyByteArra@2
  0003f	48 8d 15 00 00
	00 00		 lea	 rdx, OFFSET FLAT:PyByteArray_Type
  00046	48 8b 44 24 30	 mov	 rax, QWORD PTR self$[rsp]
  0004b	48 8b 48 58	 mov	 rcx, QWORD PTR [rax+88]
  0004f	e8 00 00 00 00	 call	 PyType_IsSubtype
  00054	85 c0		 test	 eax, eax
  00056	75 1c		 jne	 SHORT $LN4@PyByteArra@2
  00058	41 b8 a2 00 00
	00		 mov	 r8d, 162		; 000000a2H
  0005e	48 8d 15 00 00
	00 00		 lea	 rdx, OFFSET FLAT:??_C@_1DK@NEEHIPOB@?$AA?4?$AA?4?$AA?2?$AAO?$AAb?$AAj?$AAe?$AAc?$AAt?$AAs?$AA?2?$AAb?$AAy?$AAt?$AAe?$AAa?$AAr?$AAr?$AAa?$AAy?$AAo?$AAb?$AAj?$AAe?$AAc?$AAt?$AA?4?$AAc?$AA?$AA@
  00065	48 8d 0d 00 00
	00 00		 lea	 rcx, OFFSET FLAT:??_C@_1DA@DMKHKEDP@?$AAP?$AAy?$AAB?$AAy?$AAt?$AAe?$AAA?$AAr?$AAr?$AAa?$AAy?$AA_?$AAC?$AAh?$AAe?$AAc?$AAk?$AA?$CI?$AAs?$AAe?$AAl?$AAf?$AA?$CJ?$AA?$AA@
  0006c	ff 15 00 00 00
	00		 call	 QWORD PTR __imp__wassert
  00072	33 c0		 xor	 eax, eax
$LN4@PyByteArra@2:

; 163  : 
; 164  :     return PyByteArray_GET_SIZE(self);

  00074	48 8d 05 00 00
	00 00		 lea	 rax, OFFSET FLAT:PyByteArray_Type
  0007b	48 8b 4c 24 30	 mov	 rcx, QWORD PTR self$[rsp]
  00080	48 39 41 58	 cmp	 QWORD PTR [rcx+88], rax
  00084	74 35		 je	 SHORT $LN5@PyByteArra@2
  00086	48 8d 15 00 00
	00 00		 lea	 rdx, OFFSET FLAT:PyByteArray_Type
  0008d	48 8b 44 24 30	 mov	 rax, QWORD PTR self$[rsp]
  00092	48 8b 48 58	 mov	 rcx, QWORD PTR [rax+88]
  00096	e8 00 00 00 00	 call	 PyType_IsSubtype
  0009b	85 c0		 test	 eax, eax
  0009d	75 1c		 jne	 SHORT $LN5@PyByteArra@2
  0009f	41 b8 a4 00 00
	00		 mov	 r8d, 164		; 000000a4H
  000a5	48 8d 15 00 00
	00 00		 lea	 rdx, OFFSET FLAT:??_C@_1DK@NEEHIPOB@?$AA?4?$AA?4?$AA?2?$AAO?$AAb?$AAj?$AAe?$AAc?$AAt?$AAs?$AA?2?$AAb?$AAy?$AAt?$AAe?$AAa?$AAr?$AAr?$AAa?$AAy?$AAo?$AAb?$AAj?$AAe?$AAc?$AAt?$AA?4?$AAc?$AA?$AA@
  000ac	48 8d 0d 00 00
	00 00		 lea	 rcx, OFFSET FLAT:??_C@_1DA@DMKHKEDP@?$AAP?$AAy?$AAB?$AAy?$AAt?$AAe?$AAA?$AAr?$AAr?$AAa?$AAy?$AA_?$AAC?$AAh?$AAe?$AAc?$AAk?$AA?$CI?$AAs?$AAe?$AAl?$AAf?$AA?$CJ?$AA?$AA@
  000b3	ff 15 00 00 00
	00		 call	 QWORD PTR __imp__wassert
  000b9	33 c0		 xor	 eax, eax
$LN5@PyByteArra@2:
  000bb	48 8b 44 24 30	 mov	 rax, QWORD PTR self$[rsp]
  000c0	48 8b 40 60	 mov	 rax, QWORD PTR [rax+96]

; 165  : }

  000c4	48 83 c4 28	 add	 rsp, 40			; 00000028H
  000c8	c3		 ret	 0
PyByteArray_Size ENDP
_TEXT	ENDS
PUBLIC	PyByteArray_AsString
;	COMDAT pdata
pdata	SEGMENT
$pdata$PyByteArray_AsString DD imagerel $LN8
	DD	imagerel $LN8+240
	DD	imagerel $unwind$PyByteArray_AsString
pdata	ENDS
;	COMDAT xdata
xdata	SEGMENT
$unwind$PyByteArray_AsString DD 010901H
	DD	06209H
; Function compile flags: /Odtp
xdata	ENDS
;	COMDAT PyByteArray_AsString
_TEXT	SEGMENT
tv94 = 32
self$ = 64
PyByteArray_AsString PROC				; COMDAT

; 169  : {

$LN8:
  00000	48 89 4c 24 08	 mov	 QWORD PTR [rsp+8], rcx
  00005	48 83 ec 38	 sub	 rsp, 56			; 00000038H

; 170  :     assert(self != NULL);

  00009	48 83 7c 24 40
	00		 cmp	 QWORD PTR self$[rsp], 0
  0000f	75 1c		 jne	 SHORT $LN3@PyByteArra@3
  00011	41 b8 aa 00 00
	00		 mov	 r8d, 170		; 000000aaH
  00017	48 8d 15 00 00
	00 00		 lea	 rdx, OFFSET FLAT:??_C@_1DK@NEEHIPOB@?$AA?4?$AA?4?$AA?2?$AAO?$AAb?$AAj?$AAe?$AAc?$AAt?$AAs?$AA?2?$AAb?$AAy?$AAt?$AAe?$AAa?$AAr?$AAr?$AAa?$AAy?$AAo?$AAb?$AAj?$AAe?$AAc?$AAt?$AA?4?$AAc?$AA?$AA@
  0001e	48 8d 0d 00 00
	00 00		 lea	 rcx, OFFSET FLAT:??_C@_1BK@KLMFOMEM@?$AAs?$AAe?$AAl?$AAf?$AA?5?$AA?$CB?$AA?$DN?$AA?5?$AAN?$AAU?$AAL?$AAL?$AA?$AA@
  00025	ff 15 00 00 00
	00		 call	 QWORD PTR __imp__wassert
  0002b	33 c0		 xor	 eax, eax
$LN3@PyByteArra@3:

; 171  :     assert(PyByteArray_Check(self));

  0002d	48 8d 05 00 00
	00 00		 lea	 rax, OFFSET FLAT:PyByteArray_Type
  00034	48 8b 4c 24 40	 mov	 rcx, QWORD PTR self$[rsp]
  00039	48 39 41 58	 cmp	 QWORD PTR [rcx+88], rax
  0003d	74 35		 je	 SHORT $LN4@PyByteArra@3
  0003f	48 8d 15 00 00
	00 00		 lea	 rdx, OFFSET FLAT:PyByteArray_Type
  00046	48 8b 44 24 40	 mov	 rax, QWORD PTR self$[rsp]
  0004b	48 8b 48 58	 mov	 rcx, QWORD PTR [rax+88]
  0004f	e8 00 00 00 00	 call	 PyType_IsSubtype
  00054	85 c0		 test	 eax, eax
  00056	75 1c		 jne	 SHORT $LN4@PyByteArra@3
  00058	41 b8 ab 00 00
	00		 mov	 r8d, 171		; 000000abH
  0005e	48 8d 15 00 00
	00 00		 lea	 rdx, OFFSET FLAT:??_C@_1DK@NEEHIPOB@?$AA?4?$AA?4?$AA?2?$AAO?$AAb?$AAj?$AAe?$AAc?$AAt?$AAs?$AA?2?$AAb?$AAy?$AAt?$AAe?$AAa?$AAr?$AAr?$AAa?$AAy?$AAo?$AAb?$AAj?$AAe?$AAc?$AAt?$AA?4?$AAc?$AA?$AA@
  00065	48 8d 0d 00 00
	00 00		 lea	 rcx, OFFSET FLAT:??_C@_1DA@DMKHKEDP@?$AAP?$AAy?$AAB?$AAy?$AAt?$AAe?$AAA?$AAr?$AAr?$AAa?$AAy?$AA_?$AAC?$AAh?$AAe?$AAc?$AAk?$AA?$CI?$AAs?$AAe?$AAl?$AAf?$AA?$CJ?$AA?$AA@
  0006c	ff 15 00 00 00
	00		 call	 QWORD PTR __imp__wassert
  00072	33 c0		 xor	 eax, eax
$LN4@PyByteArra@3:

; 172  : 
; 173  :     return PyByteArray_AS_STRING(self);

  00074	48 8d 05 00 00
	00 00		 lea	 rax, OFFSET FLAT:PyByteArray_Type
  0007b	48 8b 4c 24 40	 mov	 rcx, QWORD PTR self$[rsp]
  00080	48 39 41 58	 cmp	 QWORD PTR [rcx+88], rax
  00084	74 35		 je	 SHORT $LN5@PyByteArra@3
  00086	48 8d 15 00 00
	00 00		 lea	 rdx, OFFSET FLAT:PyByteArray_Type
  0008d	48 8b 44 24 40	 mov	 rax, QWORD PTR self$[rsp]
  00092	48 8b 48 58	 mov	 rcx, QWORD PTR [rax+88]
  00096	e8 00 00 00 00	 call	 PyType_IsSubtype
  0009b	85 c0		 test	 eax, eax
  0009d	75 1c		 jne	 SHORT $LN5@PyByteArra@3
  0009f	41 b8 ad 00 00
	00		 mov	 r8d, 173		; 000000adH
  000a5	48 8d 15 00 00
	00 00		 lea	 rdx, OFFSET FLAT:??_C@_1DK@NEEHIPOB@?$AA?4?$AA?4?$AA?2?$AAO?$AAb?$AAj?$AAe?$AAc?$AAt?$AAs?$AA?2?$AAb?$AAy?$AAt?$AAe?$AAa?$AAr?$AAr?$AAa?$AAy?$AAo?$AAb?$AAj?$AAe?$AAc?$AAt?$AA?4?$AAc?$AA?$AA@
  000ac	48 8d 0d 00 00
	00 00		 lea	 rcx, OFFSET FLAT:??_C@_1DA@DMKHKEDP@?$AAP?$AAy?$AAB?$AAy?$AAt?$AAe?$AAA?$AAr?$AAr?$AAa?$AAy?$AA_?$AAC?$AAh?$AAe?$AAc?$AAk?$AA?$CI?$AAs?$AAe?$AAl?$AAf?$AA?$CJ?$AA?$AA@
  000b3	ff 15 00 00 00
	00		 call	 QWORD PTR __imp__wassert
  000b9	33 c0		 xor	 eax, eax
$LN5@PyByteArra@3:
  000bb	48 8b 44 24 40	 mov	 rax, QWORD PTR self$[rsp]
  000c0	48 83 78 60 00	 cmp	 QWORD PTR [rax+96], 0
  000c5	74 13		 je	 SHORT $LN6@PyByteArra@3
  000c7	48 8b 44 24 40	 mov	 rax, QWORD PTR self$[rsp]
  000cc	48 8b 80 80 00
	00 00		 mov	 rax, QWORD PTR [rax+128]
  000d3	48 89 44 24 20	 mov	 QWORD PTR tv94[rsp], rax
  000d8	eb 0c		 jmp	 SHORT $LN7@PyByteArra@3
$LN6@PyByteArra@3:
  000da	48 8d 05 00 00
	00 00		 lea	 rax, OFFSET FLAT:_PyByteArray_empty_string
  000e1	48 89 44 24 20	 mov	 QWORD PTR tv94[rsp], rax
$LN7@PyByteArra@3:
  000e6	48 8b 44 24 20	 mov	 rax, QWORD PTR tv94[rsp]

; 174  : }

  000eb	48 83 c4 38	 add	 rsp, 56			; 00000038H
  000ef	c3		 ret	 0
PyByteArray_AsString ENDP
_TEXT	ENDS
PUBLIC	__real@3ff2000000000000
PUBLIC	??_C@_1BE@CLGGJIAE@?$AAs?$AAi?$AAz?$AAe?$AA?5?$AA?$DO?$AA?$DN?$AA?5?$AA0?$AA?$AA@ ; `string'
PUBLIC	PyByteArray_Resize
EXTRN	_PyObject_DebugRealloc:PROC
EXTRN	_fltused:DWORD
;	COMDAT pdata
pdata	SEGMENT
$pdata$PyByteArray_Resize DD imagerel $LN17
	DD	imagerel $LN17+542
	DD	imagerel $unwind$PyByteArray_Resize
pdata	ENDS
;	COMDAT xdata
xdata	SEGMENT
$unwind$PyByteArray_Resize DD 010e01H
	DD	0820eH
xdata	ENDS
;	COMDAT __real@3ff2000000000000
CONST	SEGMENT
__real@3ff2000000000000 DQ 03ff2000000000000r	; 1.125
CONST	ENDS
;	COMDAT ??_C@_1BE@CLGGJIAE@?$AAs?$AAi?$AAz?$AAe?$AA?5?$AA?$DO?$AA?$DN?$AA?5?$AA0?$AA?$AA@
CONST	SEGMENT
??_C@_1BE@CLGGJIAE@?$AAs?$AAi?$AAz?$AAe?$AA?5?$AA?$DO?$AA?$DN?$AA?5?$AA0?$AA?$AA@ DB 's'
	DB	00H, 'i', 00H, 'z', 00H, 'e', 00H, ' ', 00H, '>', 00H, '=', 00H
	DB	' ', 00H, '0', 00H, 00H, 00H			; `string'
; Function compile flags: /Odtp
CONST	ENDS
;	COMDAT PyByteArray_Resize
_TEXT	SEGMENT
sval$ = 32
alloc$ = 40
tv137 = 48
self$ = 80
size$ = 88
PyByteArray_Resize PROC					; COMDAT

; 178  : {

$LN17:
  00000	48 89 54 24 10	 mov	 QWORD PTR [rsp+16], rdx
  00005	48 89 4c 24 08	 mov	 QWORD PTR [rsp+8], rcx
  0000a	48 83 ec 48	 sub	 rsp, 72			; 00000048H

; 179  :     void *sval;
; 180  :     Py_ssize_t alloc = ((PyByteArrayObject *)self)->ob_alloc;

  0000e	48 8b 44 24 50	 mov	 rax, QWORD PTR self$[rsp]
  00013	48 8b 40 78	 mov	 rax, QWORD PTR [rax+120]
  00017	48 89 44 24 28	 mov	 QWORD PTR alloc$[rsp], rax

; 181  : 
; 182  :     assert(self != NULL);

  0001c	48 83 7c 24 50
	00		 cmp	 QWORD PTR self$[rsp], 0
  00022	75 1c		 jne	 SHORT $LN12@PyByteArra@4
  00024	41 b8 b6 00 00
	00		 mov	 r8d, 182		; 000000b6H
  0002a	48 8d 15 00 00
	00 00		 lea	 rdx, OFFSET FLAT:??_C@_1DK@NEEHIPOB@?$AA?4?$AA?4?$AA?2?$AAO?$AAb?$AAj?$AAe?$AAc?$AAt?$AAs?$AA?2?$AAb?$AAy?$AAt?$AAe?$AAa?$AAr?$AAr?$AAa?$AAy?$AAo?$AAb?$AAj?$AAe?$AAc?$AAt?$AA?4?$AAc?$AA?$AA@
  00031	48 8d 0d 00 00
	00 00		 lea	 rcx, OFFSET FLAT:??_C@_1BK@KLMFOMEM@?$AAs?$AAe?$AAl?$AAf?$AA?5?$AA?$CB?$AA?$DN?$AA?5?$AAN?$AAU?$AAL?$AAL?$AA?$AA@
  00038	ff 15 00 00 00
	00		 call	 QWORD PTR __imp__wassert
  0003e	33 c0		 xor	 eax, eax
$LN12@PyByteArra@4:

; 183  :     assert(PyByteArray_Check(self));

  00040	48 8d 05 00 00
	00 00		 lea	 rax, OFFSET FLAT:PyByteArray_Type
  00047	48 8b 4c 24 50	 mov	 rcx, QWORD PTR self$[rsp]
  0004c	48 39 41 58	 cmp	 QWORD PTR [rcx+88], rax
  00050	74 35		 je	 SHORT $LN13@PyByteArra@4
  00052	48 8d 15 00 00
	00 00		 lea	 rdx, OFFSET FLAT:PyByteArray_Type
  00059	48 8b 44 24 50	 mov	 rax, QWORD PTR self$[rsp]
  0005e	48 8b 48 58	 mov	 rcx, QWORD PTR [rax+88]
  00062	e8 00 00 00 00	 call	 PyType_IsSubtype
  00067	85 c0		 test	 eax, eax
  00069	75 1c		 jne	 SHORT $LN13@PyByteArra@4
  0006b	41 b8 b7 00 00
	00		 mov	 r8d, 183		; 000000b7H
  00071	48 8d 15 00 00
	00 00		 lea	 rdx, OFFSET FLAT:??_C@_1DK@NEEHIPOB@?$AA?4?$AA?4?$AA?2?$AAO?$AAb?$AAj?$AAe?$AAc?$AAt?$AAs?$AA?2?$AAb?$AAy?$AAt?$AAe?$AAa?$AAr?$AAr?$AAa?$AAy?$AAo?$AAb?$AAj?$AAe?$AAc?$AAt?$AA?4?$AAc?$AA?$AA@
  00078	48 8d 0d 00 00
	00 00		 lea	 rcx, OFFSET FLAT:??_C@_1DA@DMKHKEDP@?$AAP?$AAy?$AAB?$AAy?$AAt?$AAe?$AAA?$AAr?$AAr?$AAa?$AAy?$AA_?$AAC?$AAh?$AAe?$AAc?$AAk?$AA?$CI?$AAs?$AAe?$AAl?$AAf?$AA?$CJ?$AA?$AA@
  0007f	ff 15 00 00 00
	00		 call	 QWORD PTR __imp__wassert
  00085	33 c0		 xor	 eax, eax
$LN13@PyByteArra@4:

; 184  :     assert(size >= 0);

  00087	48 83 7c 24 58
	00		 cmp	 QWORD PTR size$[rsp], 0
  0008d	7d 1c		 jge	 SHORT $LN14@PyByteArra@4
  0008f	41 b8 b8 00 00
	00		 mov	 r8d, 184		; 000000b8H
  00095	48 8d 15 00 00
	00 00		 lea	 rdx, OFFSET FLAT:??_C@_1DK@NEEHIPOB@?$AA?4?$AA?4?$AA?2?$AAO?$AAb?$AAj?$AAe?$AAc?$AAt?$AAs?$AA?2?$AAb?$AAy?$AAt?$AAe?$AAa?$AAr?$AAr?$AAa?$AAy?$AAo?$AAb?$AAj?$AAe?$AAc?$AAt?$AA?4?$AAc?$AA?$AA@
  0009c	48 8d 0d 00 00
	00 00		 lea	 rcx, OFFSET FLAT:??_C@_1BE@CLGGJIAE@?$AAs?$AAi?$AAz?$AAe?$AA?5?$AA?$DO?$AA?$DN?$AA?5?$AA0?$AA?$AA@
  000a3	ff 15 00 00 00
	00		 call	 QWORD PTR __imp__wassert
  000a9	33 c0		 xor	 eax, eax
$LN14@PyByteArra@4:

; 185  : 
; 186  :     if (size == Py_SIZE(self)) {

  000ab	48 8b 44 24 50	 mov	 rax, QWORD PTR self$[rsp]
  000b0	48 8b 40 60	 mov	 rax, QWORD PTR [rax+96]
  000b4	48 39 44 24 58	 cmp	 QWORD PTR size$[rsp], rax
  000b9	75 07		 jne	 SHORT $LN9@PyByteArra@4

; 187  :         return 0;

  000bb	33 c0		 xor	 eax, eax
  000bd	e9 57 01 00 00	 jmp	 $LN10@PyByteArra@4
$LN9@PyByteArra@4:

; 188  :     }
; 189  :     if (!_canresize((PyByteArrayObject *)self)) {

  000c2	48 8b 4c 24 50	 mov	 rcx, QWORD PTR self$[rsp]
  000c7	e8 00 00 00 00	 call	 _canresize
  000cc	85 c0		 test	 eax, eax
  000ce	75 0a		 jne	 SHORT $LN8@PyByteArra@4

; 190  :         return -1;

  000d0	b8 ff ff ff ff	 mov	 eax, -1
  000d5	e9 3f 01 00 00	 jmp	 $LN10@PyByteArra@4
$LN8@PyByteArra@4:

; 191  :     }
; 192  : 
; 193  :     if (size < alloc / 2) {

  000da	48 8b 44 24 28	 mov	 rax, QWORD PTR alloc$[rsp]
  000df	48 99		 cdq
  000e1	48 2b c2	 sub	 rax, rdx
  000e4	48 d1 f8	 sar	 rax, 1
  000e7	48 39 44 24 58	 cmp	 QWORD PTR size$[rsp], rax
  000ec	7d 12		 jge	 SHORT $LN7@PyByteArra@4

; 194  :         /* Major downsize; resize down to exact size */
; 195  :         alloc = size + 1;

  000ee	48 8b 44 24 58	 mov	 rax, QWORD PTR size$[rsp]
  000f3	48 ff c0	 inc	 rax
  000f6	48 89 44 24 28	 mov	 QWORD PTR alloc$[rsp], rax
  000fb	e9 a6 00 00 00	 jmp	 $LN6@PyByteArra@4
$LN7@PyByteArra@4:

; 196  :     }
; 197  :     else if (size < alloc) {

  00100	48 8b 44 24 28	 mov	 rax, QWORD PTR alloc$[rsp]
  00105	48 39 44 24 58	 cmp	 QWORD PTR size$[rsp], rax
  0010a	7d 2c		 jge	 SHORT $LN5@PyByteArra@4

; 198  :         /* Within allocated size; quick exit */
; 199  :         Py_SIZE(self) = size;

  0010c	48 8b 44 24 50	 mov	 rax, QWORD PTR self$[rsp]
  00111	48 8b 4c 24 58	 mov	 rcx, QWORD PTR size$[rsp]
  00116	48 89 48 60	 mov	 QWORD PTR [rax+96], rcx

; 200  :         ((PyByteArrayObject *)self)->ob_bytes[size] = '\0'; /* Trailing null */

  0011a	48 8b 44 24 50	 mov	 rax, QWORD PTR self$[rsp]
  0011f	48 8b 80 80 00
	00 00		 mov	 rax, QWORD PTR [rax+128]
  00126	48 8b 4c 24 58	 mov	 rcx, QWORD PTR size$[rsp]
  0012b	c6 04 08 00	 mov	 BYTE PTR [rax+rcx], 0

; 201  :         return 0;

  0012f	33 c0		 xor	 eax, eax
  00131	e9 e3 00 00 00	 jmp	 $LN10@PyByteArra@4
  00136	eb 6e		 jmp	 SHORT $LN4@PyByteArra@4
$LN5@PyByteArra@4:

; 202  :     }
; 203  :     else if (size <= alloc * 1.125) {

  00138	66 0f ef c0	 pxor	 xmm0, xmm0
  0013c	f2 48 0f 2a 44
	24 58		 cvtsi2sd xmm0, QWORD PTR size$[rsp]
  00143	66 0f ef c9	 pxor	 xmm1, xmm1
  00147	f2 48 0f 2a 4c
	24 28		 cvtsi2sd xmm1, QWORD PTR alloc$[rsp]
  0014e	f2 0f 59 0d 00
	00 00 00	 mulsd	 xmm1, QWORD PTR __real@3ff2000000000000
  00156	66 0f 2f c8	 comisd	 xmm1, xmm0
  0015a	72 3d		 jb	 SHORT $LN3@PyByteArra@4

; 204  :         /* Moderate upsize; overallocate similar to list_resize() */
; 205  :         alloc = size + (size >> 3) + (size < 9 ? 3 : 6);

  0015c	48 83 7c 24 58
	09		 cmp	 QWORD PTR size$[rsp], 9
  00162	7d 0a		 jge	 SHORT $LN15@PyByteArra@4
  00164	c7 44 24 30 03
	00 00 00	 mov	 DWORD PTR tv137[rsp], 3
  0016c	eb 08		 jmp	 SHORT $LN16@PyByteArra@4
$LN15@PyByteArra@4:
  0016e	c7 44 24 30 06
	00 00 00	 mov	 DWORD PTR tv137[rsp], 6
$LN16@PyByteArra@4:
  00176	48 8b 44 24 58	 mov	 rax, QWORD PTR size$[rsp]
  0017b	48 c1 f8 03	 sar	 rax, 3
  0017f	48 8b 4c 24 58	 mov	 rcx, QWORD PTR size$[rsp]
  00184	48 03 c8	 add	 rcx, rax
  00187	48 8b c1	 mov	 rax, rcx
  0018a	48 63 4c 24 30	 movsxd	 rcx, DWORD PTR tv137[rsp]
  0018f	48 03 c1	 add	 rax, rcx
  00192	48 89 44 24 28	 mov	 QWORD PTR alloc$[rsp], rax

; 206  :     }
; 207  :     else {

  00197	eb 0d		 jmp	 SHORT $LN2@PyByteArra@4
$LN3@PyByteArra@4:

; 208  :         /* Major upsize; resize up to exact size */
; 209  :         alloc = size + 1;

  00199	48 8b 44 24 58	 mov	 rax, QWORD PTR size$[rsp]
  0019e	48 ff c0	 inc	 rax
  001a1	48 89 44 24 28	 mov	 QWORD PTR alloc$[rsp], rax
$LN2@PyByteArra@4:
$LN4@PyByteArra@4:
$LN6@PyByteArra@4:

; 210  :     }
; 211  : 
; 212  :     sval = PyObject_Realloc(((PyByteArrayObject *)self)->ob_bytes, alloc);

  001a6	48 8b 54 24 28	 mov	 rdx, QWORD PTR alloc$[rsp]
  001ab	48 8b 44 24 50	 mov	 rax, QWORD PTR self$[rsp]
  001b0	48 8b 88 80 00
	00 00		 mov	 rcx, QWORD PTR [rax+128]
  001b7	e8 00 00 00 00	 call	 _PyObject_DebugRealloc
  001bc	48 89 44 24 20	 mov	 QWORD PTR sval$[rsp], rax

; 213  :     if (sval == NULL) {

  001c1	48 83 7c 24 20
	00		 cmp	 QWORD PTR sval$[rsp], 0
  001c7	75 0c		 jne	 SHORT $LN1@PyByteArra@4

; 214  :         PyErr_NoMemory();

  001c9	e8 00 00 00 00	 call	 PyErr_NoMemory

; 215  :         return -1;

  001ce	b8 ff ff ff ff	 mov	 eax, -1
  001d3	eb 44		 jmp	 SHORT $LN10@PyByteArra@4
$LN1@PyByteArra@4:

; 216  :     }
; 217  : 
; 218  :     ((PyByteArrayObject *)self)->ob_bytes = sval;

  001d5	48 8b 44 24 50	 mov	 rax, QWORD PTR self$[rsp]
  001da	48 8b 4c 24 20	 mov	 rcx, QWORD PTR sval$[rsp]
  001df	48 89 88 80 00
	00 00		 mov	 QWORD PTR [rax+128], rcx

; 219  :     Py_SIZE(self) = size;

  001e6	48 8b 44 24 50	 mov	 rax, QWORD PTR self$[rsp]
  001eb	48 8b 4c 24 58	 mov	 rcx, QWORD PTR size$[rsp]
  001f0	48 89 48 60	 mov	 QWORD PTR [rax+96], rcx

; 220  :     ((PyByteArrayObject *)self)->ob_alloc = alloc;

  001f4	48 8b 44 24 50	 mov	 rax, QWORD PTR self$[rsp]
  001f9	48 8b 4c 24 28	 mov	 rcx, QWORD PTR alloc$[rsp]
  001fe	48 89 48 78	 mov	 QWORD PTR [rax+120], rcx

; 221  :     ((PyByteArrayObject *)self)->ob_bytes[size] = '\0'; /* Trailing null byte */

  00202	48 8b 44 24 50	 mov	 rax, QWORD PTR self$[rsp]
  00207	48 8b 80 80 00
	00 00		 mov	 rax, QWORD PTR [rax+128]
  0020e	48 8b 4c 24 58	 mov	 rcx, QWORD PTR size$[rsp]
  00213	c6 04 08 00	 mov	 BYTE PTR [rax+rcx], 0

; 222  : 
; 223  :     return 0;

  00217	33 c0		 xor	 eax, eax
$LN10@PyByteArra@4:

; 224  : }

  00219	48 83 c4 48	 add	 rsp, 72			; 00000048H
  0021d	c3		 ret	 0
PyByteArray_Resize ENDP
_TEXT	ENDS
PUBLIC	??_C@_0DE@NPKPJNBF@Existing?5exports?5of?5data?3?5object@ ; `string'
EXTRN	PyExc_BufferError:QWORD
;	COMDAT pdata
pdata	SEGMENT
$pdata$_canresize DD imagerel _canresize
	DD	imagerel _canresize+53
	DD	imagerel $unwind$_canresize
pdata	ENDS
;	COMDAT xdata
xdata	SEGMENT
$unwind$_canresize DD 010901H
	DD	04209H
xdata	ENDS
;	COMDAT ??_C@_0DE@NPKPJNBF@Existing?5exports?5of?5data?3?5object@
CONST	SEGMENT
??_C@_0DE@NPKPJNBF@Existing?5exports?5of?5data?3?5object@ DB 'Existing ex'
	DB	'ports of data: object cannot be re-sized', 00H ; `string'
; Function compile flags: /Odtp
CONST	ENDS
;	COMDAT _canresize
_TEXT	SEGMENT
self$ = 48
_canresize PROC						; COMDAT

; 97   : {

  00000	48 89 4c 24 08	 mov	 QWORD PTR [rsp+8], rcx
  00005	48 83 ec 28	 sub	 rsp, 40			; 00000028H

; 98   :     if (self->ob_exports > 0) {

  00009	48 8b 44 24 30	 mov	 rax, QWORD PTR self$[rsp]
  0000e	83 78 70 00	 cmp	 DWORD PTR [rax+112], 0
  00012	7e 17		 jle	 SHORT $LN1@canresize

; 99   :         PyErr_SetString(PyExc_BufferError,
; 100  :                 "Existing exports of data: object cannot be re-sized");

  00014	48 8d 15 00 00
	00 00		 lea	 rdx, OFFSET FLAT:??_C@_0DE@NPKPJNBF@Existing?5exports?5of?5data?3?5object@
  0001b	48 8b 0d 00 00
	00 00		 mov	 rcx, QWORD PTR PyExc_BufferError
  00022	e8 00 00 00 00	 call	 PyErr_SetString

; 101  :         return 0;

  00027	33 c0		 xor	 eax, eax
  00029	eb 05		 jmp	 SHORT $LN2@canresize
$LN1@canresize:

; 102  :     }
; 103  :     return 1;

  0002b	b8 01 00 00 00	 mov	 eax, 1
$LN2@canresize:

; 104  : }

  00030	48 83 c4 28	 add	 rsp, 40			; 00000028H
  00034	c3		 ret	 0
_canresize ENDP
_TEXT	ENDS
PUBLIC	??_C@_0BO@KJMEMNEM@can?8t?5concat?5?$CF?4100s?5to?5?$CF?4100s?$AA@ ; `string'
EXTRN	PyBuffer_Release:PROC
EXTRN	PyErr_Format:PROC
EXTRN	PyExc_TypeError:QWORD
;	COMDAT pdata
pdata	SEGMENT
$pdata$PyByteArray_Concat DD imagerel $LN9
	DD	imagerel $LN9+339
	DD	imagerel $unwind$PyByteArray_Concat
pdata	ENDS
;	COMDAT xdata
xdata	SEGMENT
$unwind$PyByteArray_Concat DD 021101H
	DD	01b0111H
xdata	ENDS
;	COMDAT ??_C@_0BO@KJMEMNEM@can?8t?5concat?5?$CF?4100s?5to?5?$CF?4100s?$AA@
CONST	SEGMENT
??_C@_0BO@KJMEMNEM@can?8t?5concat?5?$CF?4100s?5to?5?$CF?4100s?$AA@ DB 'ca'
	DB	'n''t concat %.100s to %.100s', 00H		; `string'
; Function compile flags: /Odtp
CONST	ENDS
;	COMDAT PyByteArray_Concat
_TEXT	SEGMENT
va$ = 32
size$ = 112
result$ = 120
vb$ = 128
a$ = 224
b$ = 232
PyByteArray_Concat PROC					; COMDAT

; 228  : {

$LN9:
  00000	48 89 54 24 10	 mov	 QWORD PTR [rsp+16], rdx
  00005	48 89 4c 24 08	 mov	 QWORD PTR [rsp+8], rcx
  0000a	48 81 ec d8 00
	00 00		 sub	 rsp, 216		; 000000d8H

; 229  :     Py_ssize_t size;
; 230  :     Py_buffer va, vb;
; 231  :     PyByteArrayObject *result = NULL;

  00011	48 c7 44 24 78
	00 00 00 00	 mov	 QWORD PTR result$[rsp], 0

; 232  : 
; 233  :     va.len = -1;

  0001a	48 c7 44 24 30
	ff ff ff ff	 mov	 QWORD PTR va$[rsp+16], -1

; 234  :     vb.len = -1;

  00023	48 c7 84 24 90
	00 00 00 ff ff
	ff ff		 mov	 QWORD PTR vb$[rsp+16], -1

; 235  :     if (_getbuffer(a, &va) < 0  ||
; 236  :         _getbuffer(b, &vb) < 0) {

  0002f	48 8d 54 24 20	 lea	 rdx, QWORD PTR va$[rsp]
  00034	48 8b 8c 24 e0
	00 00 00	 mov	 rcx, QWORD PTR a$[rsp]
  0003c	e8 00 00 00 00	 call	 _getbuffer
  00041	48 85 c0	 test	 rax, rax
  00044	7c 1a		 jl	 SHORT $LN5@PyByteArra@5
  00046	48 8d 94 24 80
	00 00 00	 lea	 rdx, QWORD PTR vb$[rsp]
  0004e	48 8b 8c 24 e8
	00 00 00	 mov	 rcx, QWORD PTR b$[rsp]
  00056	e8 00 00 00 00	 call	 _getbuffer
  0005b	48 85 c0	 test	 rax, rax
  0005e	7d 38		 jge	 SHORT $LN6@PyByteArra@5
$LN5@PyByteArra@5:

; 237  :             PyErr_Format(PyExc_TypeError, "can't concat %.100s to %.100s",
; 238  :                          Py_TYPE(a)->tp_name, Py_TYPE(b)->tp_name);

  00060	48 8b 84 24 e8
	00 00 00	 mov	 rax, QWORD PTR b$[rsp]
  00068	48 8b 40 58	 mov	 rax, QWORD PTR [rax+88]
  0006c	48 8b 8c 24 e0
	00 00 00	 mov	 rcx, QWORD PTR a$[rsp]
  00074	48 8b 49 58	 mov	 rcx, QWORD PTR [rcx+88]
  00078	4c 8b 48 70	 mov	 r9, QWORD PTR [rax+112]
  0007c	4c 8b 41 70	 mov	 r8, QWORD PTR [rcx+112]
  00080	48 8d 15 00 00
	00 00		 lea	 rdx, OFFSET FLAT:??_C@_0BO@KJMEMNEM@can?8t?5concat?5?$CF?4100s?5to?5?$CF?4100s?$AA@
  00087	48 8b 0d 00 00
	00 00		 mov	 rcx, QWORD PTR PyExc_TypeError
  0008e	e8 00 00 00 00	 call	 PyErr_Format

; 239  :             goto done;

  00093	e9 84 00 00 00	 jmp	 $done$20600
$LN6@PyByteArra@5:

; 240  :     }
; 241  : 
; 242  :     size = va.len + vb.len;

  00098	48 8b 84 24 90
	00 00 00	 mov	 rax, QWORD PTR vb$[rsp+16]
  000a0	48 8b 4c 24 30	 mov	 rcx, QWORD PTR va$[rsp+16]
  000a5	48 03 c8	 add	 rcx, rax
  000a8	48 8b c1	 mov	 rax, rcx
  000ab	48 89 44 24 70	 mov	 QWORD PTR size$[rsp], rax

; 243  :     if (size < 0) {

  000b0	48 83 7c 24 70
	00		 cmp	 QWORD PTR size$[rsp], 0
  000b6	7d 07		 jge	 SHORT $LN4@PyByteArra@5

; 244  :             PyErr_NoMemory();

  000b8	e8 00 00 00 00	 call	 PyErr_NoMemory

; 245  :             goto done;

  000bd	eb 5d		 jmp	 SHORT $done$20600
$LN4@PyByteArra@5:

; 246  :     }
; 247  : 
; 248  :     result = (PyByteArrayObject *) PyByteArray_FromStringAndSize(NULL, size);

  000bf	48 8b 54 24 70	 mov	 rdx, QWORD PTR size$[rsp]
  000c4	33 c9		 xor	 ecx, ecx
  000c6	e8 00 00 00 00	 call	 PyByteArray_FromStringAndSize
  000cb	48 89 44 24 78	 mov	 QWORD PTR result$[rsp], rax

; 249  :     if (result != NULL) {

  000d0	48 83 7c 24 78
	00		 cmp	 QWORD PTR result$[rsp], 0
  000d6	74 44		 je	 SHORT $LN3@PyByteArra@5

; 250  :         memcpy(result->ob_bytes, va.buf, va.len);

  000d8	4c 8b 44 24 30	 mov	 r8, QWORD PTR va$[rsp+16]
  000dd	48 8b 54 24 20	 mov	 rdx, QWORD PTR va$[rsp]
  000e2	48 8b 44 24 78	 mov	 rax, QWORD PTR result$[rsp]
  000e7	48 8b 88 80 00
	00 00		 mov	 rcx, QWORD PTR [rax+128]
  000ee	e8 00 00 00 00	 call	 memcpy

; 251  :         memcpy(result->ob_bytes + va.len, vb.buf, vb.len);

  000f3	48 8b 44 24 78	 mov	 rax, QWORD PTR result$[rsp]
  000f8	48 8b 80 80 00
	00 00		 mov	 rax, QWORD PTR [rax+128]
  000ff	48 03 44 24 30	 add	 rax, QWORD PTR va$[rsp+16]
  00104	4c 8b 84 24 90
	00 00 00	 mov	 r8, QWORD PTR vb$[rsp+16]
  0010c	48 8b 94 24 80
	00 00 00	 mov	 rdx, QWORD PTR vb$[rsp]
  00114	48 8b c8	 mov	 rcx, rax
  00117	e8 00 00 00 00	 call	 memcpy
$LN3@PyByteArra@5:
$done$20600:

; 252  :     }
; 253  : 
; 254  :   done:
; 255  :     if (va.len != -1)

  0011c	48 83 7c 24 30
	ff		 cmp	 QWORD PTR va$[rsp+16], -1
  00122	74 0a		 je	 SHORT $LN2@PyByteArra@5

; 256  :         PyBuffer_Release(&va);

  00124	48 8d 4c 24 20	 lea	 rcx, QWORD PTR va$[rsp]
  00129	e8 00 00 00 00	 call	 PyBuffer_Release
$LN2@PyByteArra@5:

; 257  :     if (vb.len != -1)

  0012e	48 83 bc 24 90
	00 00 00 ff	 cmp	 QWORD PTR vb$[rsp+16], -1
  00137	74 0d		 je	 SHORT $LN1@PyByteArra@5

; 258  :         PyBuffer_Release(&vb);

  00139	48 8d 8c 24 80
	00 00 00	 lea	 rcx, QWORD PTR vb$[rsp]
  00141	e8 00 00 00 00	 call	 PyBuffer_Release
$LN1@PyByteArra@5:

; 259  :     return (PyObject *)result;

  00146	48 8b 44 24 78	 mov	 rax, QWORD PTR result$[rsp]

; 260  : }

  0014b	48 81 c4 d8 00
	00 00		 add	 rsp, 216		; 000000d8H
  00152	c3		 ret	 0
PyByteArray_Concat ENDP
_TEXT	ENDS
PUBLIC	??_C@_0CL@HMLNEJOC@Type?5?$CF?4100s?5doesn?8t?5support?5the?5@ ; `string'
;	COMDAT pdata
pdata	SEGMENT
$pdata$_getbuffer DD imagerel _getbuffer
	DD	imagerel _getbuffer+142
	DD	imagerel $unwind$_getbuffer
pdata	ENDS
;	COMDAT xdata
xdata	SEGMENT
$unwind$_getbuffer DD 010e01H
	DD	0620eH
xdata	ENDS
;	COMDAT ??_C@_0CL@HMLNEJOC@Type?5?$CF?4100s?5doesn?8t?5support?5the?5@
CONST	SEGMENT
??_C@_0CL@HMLNEJOC@Type?5?$CF?4100s?5doesn?8t?5support?5the?5@ DB 'Type %'
	DB	'.100s doesn''t support the buffer API', 00H	; `string'
; Function compile flags: /Odtp
CONST	ENDS
;	COMDAT _getbuffer
_TEXT	SEGMENT
buffer$ = 32
obj$ = 64
view$ = 72
_getbuffer PROC						; COMDAT

; 79   : {

  00000	48 89 54 24 10	 mov	 QWORD PTR [rsp+16], rdx
  00005	48 89 4c 24 08	 mov	 QWORD PTR [rsp+8], rcx
  0000a	48 83 ec 38	 sub	 rsp, 56			; 00000038H

; 80   :     PyBufferProcs *buffer = Py_TYPE(obj)->tp_as_buffer;

  0000e	48 8b 44 24 40	 mov	 rax, QWORD PTR obj$[rsp]
  00013	48 8b 40 58	 mov	 rax, QWORD PTR [rax+88]
  00017	48 8b 80 f8 00
	00 00		 mov	 rax, QWORD PTR [rax+248]
  0001e	48 89 44 24 20	 mov	 QWORD PTR buffer$[rsp], rax

; 81   : 
; 82   :     if (buffer == NULL || buffer->bf_getbuffer == NULL)

  00023	48 83 7c 24 20
	00		 cmp	 QWORD PTR buffer$[rsp], 0
  00029	74 0b		 je	 SHORT $LN2@getbuffer
  0002b	48 8b 44 24 20	 mov	 rax, QWORD PTR buffer$[rsp]
  00030	48 83 38 00	 cmp	 QWORD PTR [rax], 0
  00034	75 29		 jne	 SHORT $LN3@getbuffer
$LN2@getbuffer:

; 83   :     {
; 84   :         PyErr_Format(PyExc_TypeError,
; 85   :                      "Type %.100s doesn't support the buffer API",
; 86   :                      Py_TYPE(obj)->tp_name);

  00036	48 8b 44 24 40	 mov	 rax, QWORD PTR obj$[rsp]
  0003b	48 8b 40 58	 mov	 rax, QWORD PTR [rax+88]
  0003f	4c 8b 40 70	 mov	 r8, QWORD PTR [rax+112]
  00043	48 8d 15 00 00
	00 00		 lea	 rdx, OFFSET FLAT:??_C@_0CL@HMLNEJOC@Type?5?$CF?4100s?5doesn?8t?5support?5the?5@
  0004a	48 8b 0d 00 00
	00 00		 mov	 rcx, QWORD PTR PyExc_TypeError
  00051	e8 00 00 00 00	 call	 PyErr_Format

; 87   :         return -1;

  00056	48 c7 c0 ff ff
	ff ff		 mov	 rax, -1
  0005d	eb 2a		 jmp	 SHORT $LN4@getbuffer
$LN3@getbuffer:

; 88   :     }
; 89   : 
; 90   :     if (buffer->bf_getbuffer(obj, view, PyBUF_SIMPLE) < 0)

  0005f	45 33 c0	 xor	 r8d, r8d
  00062	48 8b 54 24 48	 mov	 rdx, QWORD PTR view$[rsp]
  00067	48 8b 4c 24 40	 mov	 rcx, QWORD PTR obj$[rsp]
  0006c	48 8b 44 24 20	 mov	 rax, QWORD PTR buffer$[rsp]
  00071	ff 10		 call	 QWORD PTR [rax]
  00073	85 c0		 test	 eax, eax
  00075	7d 09		 jge	 SHORT $LN1@getbuffer

; 91   :             return -1;

  00077	48 c7 c0 ff ff
	ff ff		 mov	 rax, -1
  0007e	eb 09		 jmp	 SHORT $LN4@getbuffer
$LN1@getbuffer:

; 92   :     return view->len;

  00080	48 8b 44 24 48	 mov	 rax, QWORD PTR view$[rsp]
  00085	48 8b 40 10	 mov	 rax, QWORD PTR [rax+16]
$LN4@getbuffer:

; 93   : }

  00089	48 83 c4 38	 add	 rsp, 56			; 00000038H
  0008d	c3		 ret	 0
_getbuffer ENDP
; Function compile flags: /Odtp
_TEXT	ENDS
;	COMDAT bytearray_length
_TEXT	SEGMENT
self$ = 8
bytearray_length PROC					; COMDAT

; 266  : {

  00000	48 89 4c 24 08	 mov	 QWORD PTR [rsp+8], rcx

; 267  :     return Py_SIZE(self);

  00005	48 8b 44 24 08	 mov	 rax, QWORD PTR self$[rsp]
  0000a	48 8b 40 60	 mov	 rax, QWORD PTR [rax+96]

; 268  : }

  0000e	c3		 ret	 0
bytearray_length ENDP
_TEXT	ENDS
PUBLIC	_Py_IncRef
;	COMDAT pdata
pdata	SEGMENT
$pdata$bytearray_iconcat DD imagerel bytearray_iconcat
	DD	imagerel bytearray_iconcat+361
	DD	imagerel $unwind$bytearray_iconcat
pdata	ENDS
;	COMDAT xdata
xdata	SEGMENT
$unwind$bytearray_iconcat DD 021101H
	DD	0130111H
; Function compile flags: /Odtp
xdata	ENDS
;	COMDAT bytearray_iconcat
_TEXT	SEGMENT
mysize$ = 32
vo$ = 48
size$ = 128
self$ = 160
other$ = 168
bytearray_iconcat PROC					; COMDAT

; 272  : {

  00000	48 89 54 24 10	 mov	 QWORD PTR [rsp+16], rdx
  00005	48 89 4c 24 08	 mov	 QWORD PTR [rsp+8], rcx
  0000a	48 81 ec 98 00
	00 00		 sub	 rsp, 152		; 00000098H

; 273  :     Py_ssize_t mysize;
; 274  :     Py_ssize_t size;
; 275  :     Py_buffer vo;
; 276  : 
; 277  :     if (_getbuffer(other, &vo) < 0) {

  00011	48 8d 54 24 30	 lea	 rdx, QWORD PTR vo$[rsp]
  00016	48 8b 8c 24 a8
	00 00 00	 mov	 rcx, QWORD PTR other$[rsp]
  0001e	e8 00 00 00 00	 call	 _getbuffer
  00023	48 85 c0	 test	 rax, rax
  00026	7d 3a		 jge	 SHORT $LN5@bytearray_@2

; 278  :         PyErr_Format(PyExc_TypeError, "can't concat %.100s to %.100s",
; 279  :                      Py_TYPE(other)->tp_name, Py_TYPE(self)->tp_name);

  00028	48 8b 84 24 a0
	00 00 00	 mov	 rax, QWORD PTR self$[rsp]
  00030	48 8b 40 58	 mov	 rax, QWORD PTR [rax+88]
  00034	48 8b 8c 24 a8
	00 00 00	 mov	 rcx, QWORD PTR other$[rsp]
  0003c	48 8b 49 58	 mov	 rcx, QWORD PTR [rcx+88]
  00040	4c 8b 48 70	 mov	 r9, QWORD PTR [rax+112]
  00044	4c 8b 41 70	 mov	 r8, QWORD PTR [rcx+112]
  00048	48 8d 15 00 00
	00 00		 lea	 rdx, OFFSET FLAT:??_C@_0BO@KJMEMNEM@can?8t?5concat?5?$CF?4100s?5to?5?$CF?4100s?$AA@
  0004f	48 8b 0d 00 00
	00 00		 mov	 rcx, QWORD PTR PyExc_TypeError
  00056	e8 00 00 00 00	 call	 PyErr_Format

; 280  :         return NULL;

  0005b	33 c0		 xor	 eax, eax
  0005d	e9 ff 00 00 00	 jmp	 $LN6@bytearray_@2
$LN5@bytearray_@2:

; 281  :     }
; 282  : 
; 283  :     mysize = Py_SIZE(self);

  00062	48 8b 84 24 a0
	00 00 00	 mov	 rax, QWORD PTR self$[rsp]
  0006a	48 8b 40 60	 mov	 rax, QWORD PTR [rax+96]
  0006e	48 89 44 24 20	 mov	 QWORD PTR mysize$[rsp], rax

; 284  :     size = mysize + vo.len;

  00073	48 8b 44 24 40	 mov	 rax, QWORD PTR vo$[rsp+16]
  00078	48 8b 4c 24 20	 mov	 rcx, QWORD PTR mysize$[rsp]
  0007d	48 03 c8	 add	 rcx, rax
  00080	48 8b c1	 mov	 rax, rcx
  00083	48 89 84 24 80
	00 00 00	 mov	 QWORD PTR size$[rsp], rax

; 285  :     if (size < 0) {

  0008b	48 83 bc 24 80
	00 00 00 00	 cmp	 QWORD PTR size$[rsp], 0
  00094	7d 14		 jge	 SHORT $LN4@bytearray_@2

; 286  :         PyBuffer_Release(&vo);

  00096	48 8d 4c 24 30	 lea	 rcx, QWORD PTR vo$[rsp]
  0009b	e8 00 00 00 00	 call	 PyBuffer_Release

; 287  :         return PyErr_NoMemory();

  000a0	e8 00 00 00 00	 call	 PyErr_NoMemory
  000a5	e9 b7 00 00 00	 jmp	 $LN6@bytearray_@2
$LN4@bytearray_@2:

; 288  :     }
; 289  :     if (size < self->ob_alloc) {

  000aa	48 8b 84 24 a0
	00 00 00	 mov	 rax, QWORD PTR self$[rsp]
  000b2	48 8b 40 78	 mov	 rax, QWORD PTR [rax+120]
  000b6	48 39 84 24 80
	00 00 00	 cmp	 QWORD PTR size$[rsp], rax
  000be	7d 35		 jge	 SHORT $LN3@bytearray_@2

; 290  :         Py_SIZE(self) = size;

  000c0	48 8b 84 24 a0
	00 00 00	 mov	 rax, QWORD PTR self$[rsp]
  000c8	48 8b 8c 24 80
	00 00 00	 mov	 rcx, QWORD PTR size$[rsp]
  000d0	48 89 48 60	 mov	 QWORD PTR [rax+96], rcx

; 291  :         self->ob_bytes[Py_SIZE(self)] = '\0'; /* Trailing null byte */

  000d4	48 8b 84 24 a0
	00 00 00	 mov	 rax, QWORD PTR self$[rsp]
  000dc	48 8b 80 80 00
	00 00		 mov	 rax, QWORD PTR [rax+128]
  000e3	48 8b 8c 24 a0
	00 00 00	 mov	 rcx, QWORD PTR self$[rsp]
  000eb	48 8b 49 60	 mov	 rcx, QWORD PTR [rcx+96]
  000ef	c6 04 08 00	 mov	 BYTE PTR [rax+rcx], 0
  000f3	eb 27		 jmp	 SHORT $LN2@bytearray_@2
$LN3@bytearray_@2:

; 292  :     }
; 293  :     else if (PyByteArray_Resize((PyObject *)self, size) < 0) {

  000f5	48 8b 94 24 80
	00 00 00	 mov	 rdx, QWORD PTR size$[rsp]
  000fd	48 8b 8c 24 a0
	00 00 00	 mov	 rcx, QWORD PTR self$[rsp]
  00105	e8 00 00 00 00	 call	 PyByteArray_Resize
  0010a	85 c0		 test	 eax, eax
  0010c	7d 0e		 jge	 SHORT $LN1@bytearray_@2

; 294  :         PyBuffer_Release(&vo);

  0010e	48 8d 4c 24 30	 lea	 rcx, QWORD PTR vo$[rsp]
  00113	e8 00 00 00 00	 call	 PyBuffer_Release

; 295  :         return NULL;

  00118	33 c0		 xor	 eax, eax
  0011a	eb 45		 jmp	 SHORT $LN6@bytearray_@2
$LN1@bytearray_@2:
$LN2@bytearray_@2:

; 296  :     }
; 297  :     memcpy(self->ob_bytes + mysize, vo.buf, vo.len);

  0011c	48 8b 84 24 a0
	00 00 00	 mov	 rax, QWORD PTR self$[rsp]
  00124	48 8b 80 80 00
	00 00		 mov	 rax, QWORD PTR [rax+128]
  0012b	48 03 44 24 20	 add	 rax, QWORD PTR mysize$[rsp]
  00130	4c 8b 44 24 40	 mov	 r8, QWORD PTR vo$[rsp+16]
  00135	48 8b 54 24 30	 mov	 rdx, QWORD PTR vo$[rsp]
  0013a	48 8b c8	 mov	 rcx, rax
  0013d	e8 00 00 00 00	 call	 memcpy

; 298  :     PyBuffer_Release(&vo);

  00142	48 8d 4c 24 30	 lea	 rcx, QWORD PTR vo$[rsp]
  00147	e8 00 00 00 00	 call	 PyBuffer_Release

; 299  :     Py_INCREF(self);

  0014c	48 8b 8c 24 a0
	00 00 00	 mov	 rcx, QWORD PTR self$[rsp]
  00154	e8 00 00 00 00	 call	 _Py_IncRef

; 300  :     return (PyObject *)self;

  00159	48 8b 84 24 a0
	00 00 00	 mov	 rax, QWORD PTR self$[rsp]
$LN6@bytearray_@2:

; 301  : }

  00161	48 81 c4 98 00
	00 00		 add	 rsp, 152		; 00000098H
  00168	c3		 ret	 0
bytearray_iconcat ENDP
_TEXT	ENDS
PUBLIC	??_C@_0L@DHGMCEID@_Py_IncRef?$AA@		; `string'
;	COMDAT pdata
; File c:\src\pyparallel\include\object.h
pdata	SEGMENT
$pdata$_Py_IncRef DD imagerel $LN7
	DD	imagerel $LN7+132
	DD	imagerel $unwind$_Py_IncRef
pdata	ENDS
;	COMDAT xdata
xdata	SEGMENT
$unwind$_Py_IncRef DD 010901H
	DD	06209H
xdata	ENDS
;	COMDAT ??_C@_0L@DHGMCEID@_Py_IncRef?$AA@
CONST	SEGMENT
??_C@_0L@DHGMCEID@_Py_IncRef?$AA@ DB '_Py_IncRef', 00H	; `string'
; Function compile flags: /Odtp
CONST	ENDS
;	COMDAT _Py_IncRef
_TEXT	SEGMENT
op$ = 64
_Py_IncRef PROC						; COMDAT

; 904  : {

$LN7:
  00000	48 89 4c 24 08	 mov	 QWORD PTR [rsp+8], rcx
  00005	48 83 ec 38	 sub	 rsp, 56			; 00000038H

; 905  :     if ((!Py_PXCTX && (Py_ISPY(op) || Px_PERSISTED(op)))) {

  00009	e8 00 00 00 00	 call	 _Py_PXCTX
  0000e	85 c0		 test	 eax, eax
  00010	75 6d		 jne	 SHORT $LN2@Py_IncRef
  00012	c7 44 24 20 02
	00 00 00	 mov	 DWORD PTR [rsp+32], 2
  0001a	4c 8b 4c 24 40	 mov	 r9, QWORD PTR op$[rsp]
  0001f	41 b8 89 03 00
	00		 mov	 r8d, 905		; 00000389H
  00025	48 8d 15 00 00
	00 00		 lea	 rdx, OFFSET FLAT:??_C@_0CD@HDJFDCDP@c?3?2src?2pyparallel?2include?2object@
  0002c	48 8d 0d 00 00
	00 00		 lea	 rcx, OFFSET FLAT:??_C@_0L@DHGMCEID@_Py_IncRef?$AA@
  00033	e8 00 00 00 00	 call	 _PyParallel_Guard
  00038	85 c0		 test	 eax, eax
  0003a	75 12		 jne	 SHORT $LN1@Py_IncRef
  0003c	48 8b 44 24 40	 mov	 rax, QWORD PTR op$[rsp]
  00041	48 8b 40 20	 mov	 rax, QWORD PTR [rax+32]
  00045	48 83 e0 20	 and	 rax, 32			; 00000020H
  00049	48 85 c0	 test	 rax, rax
  0004c	74 31		 je	 SHORT $LN2@Py_IncRef
$LN1@Py_IncRef:

; 906  :         _Py_INC_REFTOTAL;

  0004e	e8 00 00 00 00	 call	 _Py_PXCTX
  00053	85 c0		 test	 eax, eax
  00055	74 02		 je	 SHORT $LN5@Py_IncRef
  00057	eb 11		 jmp	 SHORT $LN6@Py_IncRef
$LN5@Py_IncRef:
  00059	48 8b 05 00 00
	00 00		 mov	 rax, QWORD PTR _Py_RefTotal
  00060	48 ff c0	 inc	 rax
  00063	48 89 05 00 00
	00 00		 mov	 QWORD PTR _Py_RefTotal, rax
$LN6@Py_IncRef:

; 907  :         (((PyObject*)(op))->ob_refcnt++);

  0006a	48 8b 44 24 40	 mov	 rax, QWORD PTR op$[rsp]
  0006f	48 8b 40 50	 mov	 rax, QWORD PTR [rax+80]
  00073	48 ff c0	 inc	 rax
  00076	48 8b 4c 24 40	 mov	 rcx, QWORD PTR op$[rsp]
  0007b	48 89 41 50	 mov	 QWORD PTR [rcx+80], rax
$LN2@Py_IncRef:

; 908  :     }
; 909  : }

  0007f	48 83 c4 38	 add	 rsp, 56			; 00000038H
  00083	c3		 ret	 0
_Py_IncRef ENDP
_TEXT	ENDS
EXTRN	memset:PROC
;	COMDAT pdata
; File c:\src\pyparallel\objects\bytearrayobject.c
pdata	SEGMENT
$pdata$bytearray_repeat DD imagerel bytearray_repeat
	DD	imagerel bytearray_repeat+289
	DD	imagerel $unwind$bytearray_repeat
pdata	ENDS
;	COMDAT xdata
xdata	SEGMENT
$unwind$bytearray_repeat DD 010e01H
	DD	0820eH
; Function compile flags: /Odtp
xdata	ENDS
;	COMDAT bytearray_repeat
_TEXT	SEGMENT
mysize$ = 32
size$ = 40
result$ = 48
i$20658 = 56
self$ = 80
count$ = 88
bytearray_repeat PROC					; COMDAT

; 305  : {

  00000	48 89 54 24 10	 mov	 QWORD PTR [rsp+16], rdx
  00005	48 89 4c 24 08	 mov	 QWORD PTR [rsp+8], rcx
  0000a	48 83 ec 48	 sub	 rsp, 72			; 00000048H

; 306  :     PyByteArrayObject *result;
; 307  :     Py_ssize_t mysize;
; 308  :     Py_ssize_t size;
; 309  : 
; 310  :     if (count < 0)

  0000e	48 83 7c 24 58
	00		 cmp	 QWORD PTR count$[rsp], 0
  00014	7d 09		 jge	 SHORT $LN8@bytearray_@3

; 311  :         count = 0;

  00016	48 c7 44 24 58
	00 00 00 00	 mov	 QWORD PTR count$[rsp], 0
$LN8@bytearray_@3:

; 312  :     mysize = Py_SIZE(self);

  0001f	48 8b 44 24 50	 mov	 rax, QWORD PTR self$[rsp]
  00024	48 8b 40 60	 mov	 rax, QWORD PTR [rax+96]
  00028	48 89 44 24 20	 mov	 QWORD PTR mysize$[rsp], rax

; 313  :     if (count > 0 && mysize > PY_SSIZE_T_MAX / count)

  0002d	48 83 7c 24 58
	00		 cmp	 QWORD PTR count$[rsp], 0
  00033	7e 22		 jle	 SHORT $LN7@bytearray_@3
  00035	48 b8 ff ff ff
	ff ff ff ff 7f	 mov	 rax, 9223372036854775807 ; 7fffffffffffffffH
  0003f	48 99		 cdq
  00041	48 f7 7c 24 58	 idiv	 QWORD PTR count$[rsp]
  00046	48 39 44 24 20	 cmp	 QWORD PTR mysize$[rsp], rax
  0004b	7e 0a		 jle	 SHORT $LN7@bytearray_@3

; 314  :         return PyErr_NoMemory();

  0004d	e8 00 00 00 00	 call	 PyErr_NoMemory
  00052	e9 c5 00 00 00	 jmp	 $LN9@bytearray_@3
$LN7@bytearray_@3:

; 315  :     size = mysize * count;

  00057	48 8b 44 24 20	 mov	 rax, QWORD PTR mysize$[rsp]
  0005c	48 0f af 44 24
	58		 imul	 rax, QWORD PTR count$[rsp]
  00062	48 89 44 24 28	 mov	 QWORD PTR size$[rsp], rax

; 316  :     result = (PyByteArrayObject *)PyByteArray_FromStringAndSize(NULL, size);

  00067	48 8b 54 24 28	 mov	 rdx, QWORD PTR size$[rsp]
  0006c	33 c9		 xor	 ecx, ecx
  0006e	e8 00 00 00 00	 call	 PyByteArray_FromStringAndSize
  00073	48 89 44 24 30	 mov	 QWORD PTR result$[rsp], rax

; 317  :     if (result != NULL && size != 0) {

  00078	48 83 7c 24 30
	00		 cmp	 QWORD PTR result$[rsp], 0
  0007e	0f 84 93 00 00
	00		 je	 $LN6@bytearray_@3
  00084	48 83 7c 24 28
	00		 cmp	 QWORD PTR size$[rsp], 0
  0008a	0f 84 87 00 00
	00		 je	 $LN6@bytearray_@3

; 318  :         if (mysize == 1)

  00090	48 83 7c 24 20
	01		 cmp	 QWORD PTR mysize$[rsp], 1
  00096	75 29		 jne	 SHORT $LN5@bytearray_@3

; 319  :             memset(result->ob_bytes, self->ob_bytes[0], size);

  00098	48 8b 44 24 50	 mov	 rax, QWORD PTR self$[rsp]
  0009d	48 8b 80 80 00
	00 00		 mov	 rax, QWORD PTR [rax+128]
  000a4	0f be 00	 movsx	 eax, BYTE PTR [rax]
  000a7	4c 8b 44 24 28	 mov	 r8, QWORD PTR size$[rsp]
  000ac	8b d0		 mov	 edx, eax
  000ae	48 8b 44 24 30	 mov	 rax, QWORD PTR result$[rsp]
  000b3	48 8b 88 80 00
	00 00		 mov	 rcx, QWORD PTR [rax+128]
  000ba	e8 00 00 00 00	 call	 memset

; 320  :         else {

  000bf	eb 56		 jmp	 SHORT $LN4@bytearray_@3
$LN5@bytearray_@3:

; 321  :             Py_ssize_t i;
; 322  :             for (i = 0; i < count; i++)

  000c1	48 c7 44 24 38
	00 00 00 00	 mov	 QWORD PTR i$20658[rsp], 0
  000ca	eb 0d		 jmp	 SHORT $LN3@bytearray_@3
$LN2@bytearray_@3:
  000cc	48 8b 44 24 38	 mov	 rax, QWORD PTR i$20658[rsp]
  000d1	48 ff c0	 inc	 rax
  000d4	48 89 44 24 38	 mov	 QWORD PTR i$20658[rsp], rax
$LN3@bytearray_@3:
  000d9	48 8b 44 24 58	 mov	 rax, QWORD PTR count$[rsp]
  000de	48 39 44 24 38	 cmp	 QWORD PTR i$20658[rsp], rax
  000e3	7d 32		 jge	 SHORT $LN1@bytearray_@3

; 323  :                 memcpy(result->ob_bytes + i*mysize, self->ob_bytes, mysize);

  000e5	48 8b 44 24 38	 mov	 rax, QWORD PTR i$20658[rsp]
  000ea	48 0f af 44 24
	20		 imul	 rax, QWORD PTR mysize$[rsp]
  000f0	48 8b 4c 24 30	 mov	 rcx, QWORD PTR result$[rsp]
  000f5	48 03 81 80 00
	00 00		 add	 rax, QWORD PTR [rcx+128]
  000fc	4c 8b 44 24 20	 mov	 r8, QWORD PTR mysize$[rsp]
  00101	48 8b 4c 24 50	 mov	 rcx, QWORD PTR self$[rsp]
  00106	48 8b 91 80 00
	00 00		 mov	 rdx, QWORD PTR [rcx+128]
  0010d	48 8b c8	 mov	 rcx, rax
  00110	e8 00 00 00 00	 call	 memcpy
  00115	eb b5		 jmp	 SHORT $LN2@bytearray_@3
$LN1@bytearray_@3:
$LN4@bytearray_@3:
$LN6@bytearray_@3:

; 324  :         }
; 325  :     }
; 326  :     return (PyObject *)result;

  00117	48 8b 44 24 30	 mov	 rax, QWORD PTR result$[rsp]
$LN9@bytearray_@3:

; 327  : }

  0011c	48 83 c4 48	 add	 rsp, 72			; 00000048H
  00120	c3		 ret	 0
bytearray_repeat ENDP
_TEXT	ENDS
;	COMDAT pdata
pdata	SEGMENT
$pdata$bytearray_irepeat DD imagerel bytearray_irepeat
	DD	imagerel bytearray_irepeat+341
	DD	imagerel $unwind$bytearray_irepeat
pdata	ENDS
;	COMDAT xdata
xdata	SEGMENT
$unwind$bytearray_irepeat DD 010e01H
	DD	0820eH
; Function compile flags: /Odtp
xdata	ENDS
;	COMDAT bytearray_irepeat
_TEXT	SEGMENT
mysize$ = 32
size$ = 40
i$20685 = 48
self$ = 80
count$ = 88
bytearray_irepeat PROC					; COMDAT

; 331  : {

  00000	48 89 54 24 10	 mov	 QWORD PTR [rsp+16], rdx
  00005	48 89 4c 24 08	 mov	 QWORD PTR [rsp+8], rcx
  0000a	48 83 ec 48	 sub	 rsp, 72			; 00000048H

; 332  :     Py_ssize_t mysize;
; 333  :     Py_ssize_t size;
; 334  : 
; 335  :     if (count < 0)

  0000e	48 83 7c 24 58
	00		 cmp	 QWORD PTR count$[rsp], 0
  00014	7d 09		 jge	 SHORT $LN10@bytearray_@4

; 336  :         count = 0;

  00016	48 c7 44 24 58
	00 00 00 00	 mov	 QWORD PTR count$[rsp], 0
$LN10@bytearray_@4:

; 337  :     mysize = Py_SIZE(self);

  0001f	48 8b 44 24 50	 mov	 rax, QWORD PTR self$[rsp]
  00024	48 8b 40 60	 mov	 rax, QWORD PTR [rax+96]
  00028	48 89 44 24 20	 mov	 QWORD PTR mysize$[rsp], rax

; 338  :     if (count > 0 && mysize > PY_SSIZE_T_MAX / count)

  0002d	48 83 7c 24 58
	00		 cmp	 QWORD PTR count$[rsp], 0
  00033	7e 22		 jle	 SHORT $LN9@bytearray_@4
  00035	48 b8 ff ff ff
	ff ff ff ff 7f	 mov	 rax, 9223372036854775807 ; 7fffffffffffffffH
  0003f	48 99		 cdq
  00041	48 f7 7c 24 58	 idiv	 QWORD PTR count$[rsp]
  00046	48 39 44 24 20	 cmp	 QWORD PTR mysize$[rsp], rax
  0004b	7e 0a		 jle	 SHORT $LN9@bytearray_@4

; 339  :         return PyErr_NoMemory();

  0004d	e8 00 00 00 00	 call	 PyErr_NoMemory
  00052	e9 f9 00 00 00	 jmp	 $LN11@bytearray_@4
$LN9@bytearray_@4:

; 340  :     size = mysize * count;

  00057	48 8b 44 24 20	 mov	 rax, QWORD PTR mysize$[rsp]
  0005c	48 0f af 44 24
	58		 imul	 rax, QWORD PTR count$[rsp]
  00062	48 89 44 24 28	 mov	 QWORD PTR size$[rsp], rax

; 341  :     if (size < self->ob_alloc) {

  00067	48 8b 44 24 50	 mov	 rax, QWORD PTR self$[rsp]
  0006c	48 8b 40 78	 mov	 rax, QWORD PTR [rax+120]
  00070	48 39 44 24 28	 cmp	 QWORD PTR size$[rsp], rax
  00075	7d 29		 jge	 SHORT $LN8@bytearray_@4

; 342  :         Py_SIZE(self) = size;

  00077	48 8b 44 24 50	 mov	 rax, QWORD PTR self$[rsp]
  0007c	48 8b 4c 24 28	 mov	 rcx, QWORD PTR size$[rsp]
  00081	48 89 48 60	 mov	 QWORD PTR [rax+96], rcx

; 343  :         self->ob_bytes[Py_SIZE(self)] = '\0'; /* Trailing null byte */

  00085	48 8b 44 24 50	 mov	 rax, QWORD PTR self$[rsp]
  0008a	48 8b 80 80 00
	00 00		 mov	 rax, QWORD PTR [rax+128]
  00091	48 8b 4c 24 50	 mov	 rcx, QWORD PTR self$[rsp]
  00096	48 8b 49 60	 mov	 rcx, QWORD PTR [rcx+96]
  0009a	c6 04 08 00	 mov	 BYTE PTR [rax+rcx], 0
  0009e	eb 1a		 jmp	 SHORT $LN7@bytearray_@4
$LN8@bytearray_@4:

; 344  :     }
; 345  :     else if (PyByteArray_Resize((PyObject *)self, size) < 0)

  000a0	48 8b 54 24 28	 mov	 rdx, QWORD PTR size$[rsp]
  000a5	48 8b 4c 24 50	 mov	 rcx, QWORD PTR self$[rsp]
  000aa	e8 00 00 00 00	 call	 PyByteArray_Resize
  000af	85 c0		 test	 eax, eax
  000b1	7d 07		 jge	 SHORT $LN6@bytearray_@4

; 346  :         return NULL;

  000b3	33 c0		 xor	 eax, eax
  000b5	e9 96 00 00 00	 jmp	 $LN11@bytearray_@4
$LN6@bytearray_@4:
$LN7@bytearray_@4:

; 347  : 
; 348  :     if (mysize == 1)

  000ba	48 83 7c 24 20
	01		 cmp	 QWORD PTR mysize$[rsp], 1
  000c0	75 29		 jne	 SHORT $LN5@bytearray_@4

; 349  :         memset(self->ob_bytes, self->ob_bytes[0], size);

  000c2	48 8b 44 24 50	 mov	 rax, QWORD PTR self$[rsp]
  000c7	48 8b 80 80 00
	00 00		 mov	 rax, QWORD PTR [rax+128]
  000ce	0f be 00	 movsx	 eax, BYTE PTR [rax]
  000d1	4c 8b 44 24 28	 mov	 r8, QWORD PTR size$[rsp]
  000d6	8b d0		 mov	 edx, eax
  000d8	48 8b 44 24 50	 mov	 rax, QWORD PTR self$[rsp]
  000dd	48 8b 88 80 00
	00 00		 mov	 rcx, QWORD PTR [rax+128]
  000e4	e8 00 00 00 00	 call	 memset

; 350  :     else {

  000e9	eb 56		 jmp	 SHORT $LN4@bytearray_@4
$LN5@bytearray_@4:

; 351  :         Py_ssize_t i;
; 352  :         for (i = 1; i < count; i++)

  000eb	48 c7 44 24 30
	01 00 00 00	 mov	 QWORD PTR i$20685[rsp], 1
  000f4	eb 0d		 jmp	 SHORT $LN3@bytearray_@4
$LN2@bytearray_@4:
  000f6	48 8b 44 24 30	 mov	 rax, QWORD PTR i$20685[rsp]
  000fb	48 ff c0	 inc	 rax
  000fe	48 89 44 24 30	 mov	 QWORD PTR i$20685[rsp], rax
$LN3@bytearray_@4:
  00103	48 8b 44 24 58	 mov	 rax, QWORD PTR count$[rsp]
  00108	48 39 44 24 30	 cmp	 QWORD PTR i$20685[rsp], rax
  0010d	7d 32		 jge	 SHORT $LN1@bytearray_@4

; 353  :             memcpy(self->ob_bytes + i*mysize, self->ob_bytes, mysize);

  0010f	48 8b 44 24 30	 mov	 rax, QWORD PTR i$20685[rsp]
  00114	48 0f af 44 24
	20		 imul	 rax, QWORD PTR mysize$[rsp]
  0011a	48 8b 4c 24 50	 mov	 rcx, QWORD PTR self$[rsp]
  0011f	48 03 81 80 00
	00 00		 add	 rax, QWORD PTR [rcx+128]
  00126	4c 8b 44 24 20	 mov	 r8, QWORD PTR mysize$[rsp]
  0012b	48 8b 4c 24 50	 mov	 rcx, QWORD PTR self$[rsp]
  00130	48 8b 91 80 00
	00 00		 mov	 rdx, QWORD PTR [rcx+128]
  00137	48 8b c8	 mov	 rcx, rax
  0013a	e8 00 00 00 00	 call	 memcpy
  0013f	eb b5		 jmp	 SHORT $LN2@bytearray_@4
$LN1@bytearray_@4:
$LN4@bytearray_@4:

; 354  :     }
; 355  : 
; 356  :     Py_INCREF(self);

  00141	48 8b 4c 24 50	 mov	 rcx, QWORD PTR self$[rsp]
  00146	e8 00 00 00 00	 call	 _Py_IncRef

; 357  :     return (PyObject *)self;

  0014b	48 8b 44 24 50	 mov	 rax, QWORD PTR self$[rsp]
$LN11@bytearray_@4:

; 358  : }

  00150	48 83 c4 48	 add	 rsp, 72			; 00000048H
  00154	c3		 ret	 0
bytearray_irepeat ENDP
_TEXT	ENDS
PUBLIC	??_C@_0BN@DBGBDBKF@bytearray?5index?5out?5of?5range?$AA@ ; `string'
EXTRN	PyLong_FromLong:PROC
EXTRN	PyExc_IndexError:QWORD
;	COMDAT pdata
pdata	SEGMENT
$pdata$bytearray_getitem DD imagerel bytearray_getitem
	DD	imagerel bytearray_getitem+127
	DD	imagerel $unwind$bytearray_getitem
pdata	ENDS
;	COMDAT xdata
xdata	SEGMENT
$unwind$bytearray_getitem DD 010e01H
	DD	0420eH
xdata	ENDS
;	COMDAT ??_C@_0BN@DBGBDBKF@bytearray?5index?5out?5of?5range?$AA@
CONST	SEGMENT
??_C@_0BN@DBGBDBKF@bytearray?5index?5out?5of?5range?$AA@ DB 'bytearray in'
	DB	'dex out of range', 00H			; `string'
; Function compile flags: /Odtp
CONST	ENDS
;	COMDAT bytearray_getitem
_TEXT	SEGMENT
self$ = 48
i$ = 56
bytearray_getitem PROC					; COMDAT

; 362  : {

  00000	48 89 54 24 10	 mov	 QWORD PTR [rsp+16], rdx
  00005	48 89 4c 24 08	 mov	 QWORD PTR [rsp+8], rcx
  0000a	48 83 ec 28	 sub	 rsp, 40			; 00000028H

; 363  :     if (i < 0)

  0000e	48 83 7c 24 38
	00		 cmp	 QWORD PTR i$[rsp], 0
  00014	7d 19		 jge	 SHORT $LN3@bytearray_@5

; 364  :         i += Py_SIZE(self);

  00016	48 8b 44 24 30	 mov	 rax, QWORD PTR self$[rsp]
  0001b	48 8b 40 60	 mov	 rax, QWORD PTR [rax+96]
  0001f	48 8b 4c 24 38	 mov	 rcx, QWORD PTR i$[rsp]
  00024	48 03 c8	 add	 rcx, rax
  00027	48 8b c1	 mov	 rax, rcx
  0002a	48 89 44 24 38	 mov	 QWORD PTR i$[rsp], rax
$LN3@bytearray_@5:

; 365  :     if (i < 0 || i >= Py_SIZE(self)) {

  0002f	48 83 7c 24 38
	00		 cmp	 QWORD PTR i$[rsp], 0
  00035	7c 10		 jl	 SHORT $LN1@bytearray_@5
  00037	48 8b 44 24 30	 mov	 rax, QWORD PTR self$[rsp]
  0003c	48 8b 40 60	 mov	 rax, QWORD PTR [rax+96]
  00040	48 39 44 24 38	 cmp	 QWORD PTR i$[rsp], rax
  00045	7c 17		 jl	 SHORT $LN2@bytearray_@5
$LN1@bytearray_@5:

; 366  :         PyErr_SetString(PyExc_IndexError, "bytearray index out of range");

  00047	48 8d 15 00 00
	00 00		 lea	 rdx, OFFSET FLAT:??_C@_0BN@DBGBDBKF@bytearray?5index?5out?5of?5range?$AA@
  0004e	48 8b 0d 00 00
	00 00		 mov	 rcx, QWORD PTR PyExc_IndexError
  00055	e8 00 00 00 00	 call	 PyErr_SetString

; 367  :         return NULL;

  0005a	33 c0		 xor	 eax, eax
  0005c	eb 1c		 jmp	 SHORT $LN4@bytearray_@5
$LN2@bytearray_@5:

; 368  :     }
; 369  :     return PyLong_FromLong((unsigned char)(self->ob_bytes[i]));

  0005e	48 8b 44 24 30	 mov	 rax, QWORD PTR self$[rsp]
  00063	48 8b 80 80 00
	00 00		 mov	 rax, QWORD PTR [rax+128]
  0006a	48 8b 4c 24 38	 mov	 rcx, QWORD PTR i$[rsp]
  0006f	0f b6 04 08	 movzx	 eax, BYTE PTR [rax+rcx]
  00073	8b c8		 mov	 ecx, eax
  00075	e8 00 00 00 00	 call	 PyLong_FromLong
$LN4@bytearray_@5:

; 370  : }

  0007a	48 83 c4 28	 add	 rsp, 40			; 00000028H
  0007e	c3		 ret	 0
bytearray_getitem ENDP
_TEXT	ENDS
PUBLIC	??_C@_0CD@MBEBMMIP@bytearray?5indices?5must?5be?5intege@ ; `string'
PUBLIC	??_C@_1DE@IIJJPBPP@?$AAP?$AAy?$AAB?$AAy?$AAt?$AAe?$AAA?$AAr?$AAr?$AAa?$AAy?$AA_?$AAC?$AAh?$AAe?$AAc?$AAk?$AA?$CI?$AAr?$AAe?$AAs?$AAu?$AAl?$AAt?$AA?$CJ?$AA?$AA@ ; `string'
PUBLIC	??_C@_00CNPNBAHC@?$AA@				; `string'
EXTRN	PySlice_GetIndicesEx:PROC
EXTRN	PySlice_Type:BYTE
EXTRN	PyErr_Occurred:PROC
EXTRN	PyNumber_AsSsize_t:PROC
;	COMDAT pdata
pdata	SEGMENT
$pdata$bytearray_subscript DD imagerel bytearray_subscript
	DD	imagerel bytearray_subscript+1038
	DD	imagerel $unwind$bytearray_subscript
pdata	ENDS
;	COMDAT xdata
xdata	SEGMENT
$unwind$bytearray_subscript DD 021101H
	DD	0130111H
xdata	ENDS
;	COMDAT ??_C@_0CD@MBEBMMIP@bytearray?5indices?5must?5be?5intege@
CONST	SEGMENT
??_C@_0CD@MBEBMMIP@bytearray?5indices?5must?5be?5intege@ DB 'bytearray in'
	DB	'dices must be integers', 00H		; `string'
CONST	ENDS
;	COMDAT ??_C@_1DE@IIJJPBPP@?$AAP?$AAy?$AAB?$AAy?$AAt?$AAe?$AAA?$AAr?$AAr?$AAa?$AAy?$AA_?$AAC?$AAh?$AAe?$AAc?$AAk?$AA?$CI?$AAr?$AAe?$AAs?$AAu?$AAl?$AAt?$AA?$CJ?$AA?$AA@
CONST	SEGMENT
??_C@_1DE@IIJJPBPP@?$AAP?$AAy?$AAB?$AAy?$AAt?$AAe?$AAA?$AAr?$AAr?$AAa?$AAy?$AA_?$AAC?$AAh?$AAe?$AAc?$AAk?$AA?$CI?$AAr?$AAe?$AAs?$AAu?$AAl?$AAt?$AA?$CJ?$AA?$AA@ DB 'P'
	DB	00H, 'y', 00H, 'B', 00H, 'y', 00H, 't', 00H, 'e', 00H, 'A', 00H
	DB	'r', 00H, 'r', 00H, 'a', 00H, 'y', 00H, '_', 00H, 'C', 00H, 'h'
	DB	00H, 'e', 00H, 'c', 00H, 'k', 00H, '(', 00H, 'r', 00H, 'e', 00H
	DB	's', 00H, 'u', 00H, 'l', 00H, 't', 00H, ')', 00H, 00H, 00H ; `string'
CONST	ENDS
;	COMDAT ??_C@_00CNPNBAHC@?$AA@
CONST	SEGMENT
??_C@_00CNPNBAHC@?$AA@ DB 00H				; `string'
; Function compile flags: /Odtp
CONST	ENDS
;	COMDAT bytearray_subscript
_TEXT	SEGMENT
i$20714 = 48
i$20735 = 56
cur$20734 = 64
slicelength$20733 = 72
step$20732 = 80
stop$20731 = 88
start$20730 = 96
source_buf$20747 = 104
result$20754 = 112
result_buf$20753 = 120
tv179 = 128
tv198 = 136
self$ = 160
index$ = 168
bytearray_subscript PROC				; COMDAT

; 374  : {

  00000	48 89 54 24 10	 mov	 QWORD PTR [rsp+16], rdx
  00005	48 89 4c 24 08	 mov	 QWORD PTR [rsp+8], rcx
  0000a	48 81 ec 98 00
	00 00		 sub	 rsp, 152		; 00000098H

; 375  :     if (PyIndex_Check(index)) {

  00011	48 8b 84 24 a8
	00 00 00	 mov	 rax, QWORD PTR index$[rsp]
  00019	48 8b 40 58	 mov	 rax, QWORD PTR [rax+88]
  0001d	48 83 b8 b8 00
	00 00 00	 cmp	 QWORD PTR [rax+184], 0
  00025	0f 84 22 01 00
	00		 je	 $LN17@bytearray_@6
  0002b	48 8b 84 24 a8
	00 00 00	 mov	 rax, QWORD PTR index$[rsp]
  00033	48 8b 40 58	 mov	 rax, QWORD PTR [rax+88]
  00037	48 8b 80 b8 00
	00 00		 mov	 rax, QWORD PTR [rax+184]
  0003e	48 83 b8 08 01
	00 00 00	 cmp	 QWORD PTR [rax+264], 0
  00046	0f 84 01 01 00
	00		 je	 $LN17@bytearray_@6

; 376  :         Py_ssize_t i = PyNumber_AsSsize_t(index, PyExc_IndexError);

  0004c	48 8b 15 00 00
	00 00		 mov	 rdx, QWORD PTR PyExc_IndexError
  00053	48 8b 8c 24 a8
	00 00 00	 mov	 rcx, QWORD PTR index$[rsp]
  0005b	e8 00 00 00 00	 call	 PyNumber_AsSsize_t
  00060	48 89 44 24 30	 mov	 QWORD PTR i$20714[rsp], rax

; 377  : 
; 378  :         if (i == -1 && PyErr_Occurred())

  00065	48 83 7c 24 30
	ff		 cmp	 QWORD PTR i$20714[rsp], -1
  0006b	75 11		 jne	 SHORT $LN16@bytearray_@6
  0006d	e8 00 00 00 00	 call	 PyErr_Occurred
  00072	48 85 c0	 test	 rax, rax
  00075	74 07		 je	 SHORT $LN16@bytearray_@6

; 379  :             return NULL;

  00077	33 c0		 xor	 eax, eax
  00079	e9 88 03 00 00	 jmp	 $LN18@bytearray_@6
$LN16@bytearray_@6:

; 380  : 
; 381  :         if (i < 0)

  0007e	48 83 7c 24 30
	00		 cmp	 QWORD PTR i$20714[rsp], 0
  00084	7d 69		 jge	 SHORT $LN15@bytearray_@6

; 382  :             i += PyByteArray_GET_SIZE(self);

  00086	48 8d 05 00 00
	00 00		 lea	 rax, OFFSET FLAT:PyByteArray_Type
  0008d	48 8b 8c 24 a0
	00 00 00	 mov	 rcx, QWORD PTR self$[rsp]
  00095	48 39 41 58	 cmp	 QWORD PTR [rcx+88], rax
  00099	74 38		 je	 SHORT $LN20@bytearray_@6
  0009b	48 8d 15 00 00
	00 00		 lea	 rdx, OFFSET FLAT:PyByteArray_Type
  000a2	48 8b 84 24 a0
	00 00 00	 mov	 rax, QWORD PTR self$[rsp]
  000aa	48 8b 48 58	 mov	 rcx, QWORD PTR [rax+88]
  000ae	e8 00 00 00 00	 call	 PyType_IsSubtype
  000b3	85 c0		 test	 eax, eax
  000b5	75 1c		 jne	 SHORT $LN20@bytearray_@6
  000b7	41 b8 7e 01 00
	00		 mov	 r8d, 382		; 0000017eH
  000bd	48 8d 15 00 00
	00 00		 lea	 rdx, OFFSET FLAT:??_C@_1DK@NEEHIPOB@?$AA?4?$AA?4?$AA?2?$AAO?$AAb?$AAj?$AAe?$AAc?$AAt?$AAs?$AA?2?$AAb?$AAy?$AAt?$AAe?$AAa?$AAr?$AAr?$AAa?$AAy?$AAo?$AAb?$AAj?$AAe?$AAc?$AAt?$AA?4?$AAc?$AA?$AA@
  000c4	48 8d 0d 00 00
	00 00		 lea	 rcx, OFFSET FLAT:??_C@_1DA@DMKHKEDP@?$AAP?$AAy?$AAB?$AAy?$AAt?$AAe?$AAA?$AAr?$AAr?$AAa?$AAy?$AA_?$AAC?$AAh?$AAe?$AAc?$AAk?$AA?$CI?$AAs?$AAe?$AAl?$AAf?$AA?$CJ?$AA?$AA@
  000cb	ff 15 00 00 00
	00		 call	 QWORD PTR __imp__wassert
  000d1	33 c0		 xor	 eax, eax
$LN20@bytearray_@6:
  000d3	48 8b 84 24 a0
	00 00 00	 mov	 rax, QWORD PTR self$[rsp]
  000db	48 8b 40 60	 mov	 rax, QWORD PTR [rax+96]
  000df	48 8b 4c 24 30	 mov	 rcx, QWORD PTR i$20714[rsp]
  000e4	48 03 c8	 add	 rcx, rax
  000e7	48 8b c1	 mov	 rax, rcx
  000ea	48 89 44 24 30	 mov	 QWORD PTR i$20714[rsp], rax
$LN15@bytearray_@6:

; 383  : 
; 384  :         if (i < 0 || i >= Py_SIZE(self)) {

  000ef	48 83 7c 24 30
	00		 cmp	 QWORD PTR i$20714[rsp], 0
  000f5	7c 13		 jl	 SHORT $LN13@bytearray_@6
  000f7	48 8b 84 24 a0
	00 00 00	 mov	 rax, QWORD PTR self$[rsp]
  000ff	48 8b 40 60	 mov	 rax, QWORD PTR [rax+96]
  00103	48 39 44 24 30	 cmp	 QWORD PTR i$20714[rsp], rax
  00108	7c 1a		 jl	 SHORT $LN14@bytearray_@6
$LN13@bytearray_@6:

; 385  :             PyErr_SetString(PyExc_IndexError, "bytearray index out of range");

  0010a	48 8d 15 00 00
	00 00		 lea	 rdx, OFFSET FLAT:??_C@_0BN@DBGBDBKF@bytearray?5index?5out?5of?5range?$AA@
  00111	48 8b 0d 00 00
	00 00		 mov	 rcx, QWORD PTR PyExc_IndexError
  00118	e8 00 00 00 00	 call	 PyErr_SetString

; 386  :             return NULL;

  0011d	33 c0		 xor	 eax, eax
  0011f	e9 e2 02 00 00	 jmp	 $LN18@bytearray_@6
$LN14@bytearray_@6:

; 387  :         }
; 388  :         return PyLong_FromLong((unsigned char)(self->ob_bytes[i]));

  00124	48 8b 84 24 a0
	00 00 00	 mov	 rax, QWORD PTR self$[rsp]
  0012c	48 8b 80 80 00
	00 00		 mov	 rax, QWORD PTR [rax+128]
  00133	48 8b 4c 24 30	 mov	 rcx, QWORD PTR i$20714[rsp]
  00138	0f b6 04 08	 movzx	 eax, BYTE PTR [rax+rcx]
  0013c	8b c8		 mov	 ecx, eax
  0013e	e8 00 00 00 00	 call	 PyLong_FromLong
  00143	e9 be 02 00 00	 jmp	 $LN18@bytearray_@6
  00148	e9 b9 02 00 00	 jmp	 $LN12@bytearray_@6
$LN17@bytearray_@6:

; 389  :     }
; 390  :     else if (PySlice_Check(index)) {

  0014d	48 8d 05 00 00
	00 00		 lea	 rax, OFFSET FLAT:PySlice_Type
  00154	48 8b 8c 24 a8
	00 00 00	 mov	 rcx, QWORD PTR index$[rsp]
  0015c	48 39 41 58	 cmp	 QWORD PTR [rcx+88], rax
  00160	0f 85 8b 02 00
	00		 jne	 $LN11@bytearray_@6

; 391  :         Py_ssize_t start, stop, step, slicelength, cur, i;
; 392  :         if (PySlice_GetIndicesEx(index,
; 393  :                                  PyByteArray_GET_SIZE(self),
; 394  :                                  &start, &stop, &step, &slicelength) < 0) {

  00166	48 8d 05 00 00
	00 00		 lea	 rax, OFFSET FLAT:PyByteArray_Type
  0016d	48 8b 8c 24 a0
	00 00 00	 mov	 rcx, QWORD PTR self$[rsp]
  00175	48 39 41 58	 cmp	 QWORD PTR [rcx+88], rax
  00179	74 38		 je	 SHORT $LN21@bytearray_@6
  0017b	48 8d 15 00 00
	00 00		 lea	 rdx, OFFSET FLAT:PyByteArray_Type
  00182	48 8b 84 24 a0
	00 00 00	 mov	 rax, QWORD PTR self$[rsp]
  0018a	48 8b 48 58	 mov	 rcx, QWORD PTR [rax+88]
  0018e	e8 00 00 00 00	 call	 PyType_IsSubtype
  00193	85 c0		 test	 eax, eax
  00195	75 1c		 jne	 SHORT $LN21@bytearray_@6
  00197	41 b8 89 01 00
	00		 mov	 r8d, 393		; 00000189H
  0019d	48 8d 15 00 00
	00 00		 lea	 rdx, OFFSET FLAT:??_C@_1DK@NEEHIPOB@?$AA?4?$AA?4?$AA?2?$AAO?$AAb?$AAj?$AAe?$AAc?$AAt?$AAs?$AA?2?$AAb?$AAy?$AAt?$AAe?$AAa?$AAr?$AAr?$AAa?$AAy?$AAo?$AAb?$AAj?$AAe?$AAc?$AAt?$AA?4?$AAc?$AA?$AA@
  001a4	48 8d 0d 00 00
	00 00		 lea	 rcx, OFFSET FLAT:??_C@_1DA@DMKHKEDP@?$AAP?$AAy?$AAB?$AAy?$AAt?$AAe?$AAA?$AAr?$AAr?$AAa?$AAy?$AA_?$AAC?$AAh?$AAe?$AAc?$AAk?$AA?$CI?$AAs?$AAe?$AAl?$AAf?$AA?$CJ?$AA?$AA@
  001ab	ff 15 00 00 00
	00		 call	 QWORD PTR __imp__wassert
  001b1	33 c0		 xor	 eax, eax
$LN21@bytearray_@6:
  001b3	48 8d 44 24 48	 lea	 rax, QWORD PTR slicelength$20733[rsp]
  001b8	48 89 44 24 28	 mov	 QWORD PTR [rsp+40], rax
  001bd	48 8d 44 24 50	 lea	 rax, QWORD PTR step$20732[rsp]
  001c2	48 89 44 24 20	 mov	 QWORD PTR [rsp+32], rax
  001c7	4c 8d 4c 24 58	 lea	 r9, QWORD PTR stop$20731[rsp]
  001cc	4c 8d 44 24 60	 lea	 r8, QWORD PTR start$20730[rsp]
  001d1	48 8b 84 24 a0
	00 00 00	 mov	 rax, QWORD PTR self$[rsp]
  001d9	48 8b 50 60	 mov	 rdx, QWORD PTR [rax+96]
  001dd	48 8b 8c 24 a8
	00 00 00	 mov	 rcx, QWORD PTR index$[rsp]
  001e5	e8 00 00 00 00	 call	 PySlice_GetIndicesEx
  001ea	85 c0		 test	 eax, eax
  001ec	7d 07		 jge	 SHORT $LN10@bytearray_@6

; 395  :             return NULL;

  001ee	33 c0		 xor	 eax, eax
  001f0	e9 11 02 00 00	 jmp	 $LN18@bytearray_@6
$LN10@bytearray_@6:

; 396  :         }
; 397  : 
; 398  :         if (slicelength <= 0)

  001f5	48 83 7c 24 48
	00		 cmp	 QWORD PTR slicelength$20733[rsp], 0
  001fb	7f 18		 jg	 SHORT $LN9@bytearray_@6

; 399  :             return PyByteArray_FromStringAndSize("", 0);

  001fd	33 d2		 xor	 edx, edx
  001ff	48 8d 0d 00 00
	00 00		 lea	 rcx, OFFSET FLAT:??_C@_00CNPNBAHC@?$AA@
  00206	e8 00 00 00 00	 call	 PyByteArray_FromStringAndSize
  0020b	e9 f6 01 00 00	 jmp	 $LN18@bytearray_@6
  00210	e9 da 01 00 00	 jmp	 $LN8@bytearray_@6
$LN9@bytearray_@6:

; 400  :         else if (step == 1) {

  00215	48 83 7c 24 50
	01		 cmp	 QWORD PTR step$20732[rsp], 1
  0021b	75 2b		 jne	 SHORT $LN7@bytearray_@6

; 401  :             return PyByteArray_FromStringAndSize(self->ob_bytes + start,
; 402  :                                              slicelength);

  0021d	48 8b 84 24 a0
	00 00 00	 mov	 rax, QWORD PTR self$[rsp]
  00225	48 8b 80 80 00
	00 00		 mov	 rax, QWORD PTR [rax+128]
  0022c	48 03 44 24 60	 add	 rax, QWORD PTR start$20730[rsp]
  00231	48 8b 54 24 48	 mov	 rdx, QWORD PTR slicelength$20733[rsp]
  00236	48 8b c8	 mov	 rcx, rax
  00239	e8 00 00 00 00	 call	 PyByteArray_FromStringAndSize
  0023e	e9 c3 01 00 00	 jmp	 $LN18@bytearray_@6

; 403  :         }
; 404  :         else {

  00243	e9 a7 01 00 00	 jmp	 $LN6@bytearray_@6
$LN7@bytearray_@6:

; 405  :             char *source_buf = PyByteArray_AS_STRING(self);

  00248	48 8d 05 00 00
	00 00		 lea	 rax, OFFSET FLAT:PyByteArray_Type
  0024f	48 8b 8c 24 a0
	00 00 00	 mov	 rcx, QWORD PTR self$[rsp]
  00257	48 39 41 58	 cmp	 QWORD PTR [rcx+88], rax
  0025b	74 38		 je	 SHORT $LN22@bytearray_@6
  0025d	48 8d 15 00 00
	00 00		 lea	 rdx, OFFSET FLAT:PyByteArray_Type
  00264	48 8b 84 24 a0
	00 00 00	 mov	 rax, QWORD PTR self$[rsp]
  0026c	48 8b 48 58	 mov	 rcx, QWORD PTR [rax+88]
  00270	e8 00 00 00 00	 call	 PyType_IsSubtype
  00275	85 c0		 test	 eax, eax
  00277	75 1c		 jne	 SHORT $LN22@bytearray_@6
  00279	41 b8 95 01 00
	00		 mov	 r8d, 405		; 00000195H
  0027f	48 8d 15 00 00
	00 00		 lea	 rdx, OFFSET FLAT:??_C@_1DK@NEEHIPOB@?$AA?4?$AA?4?$AA?2?$AAO?$AAb?$AAj?$AAe?$AAc?$AAt?$AAs?$AA?2?$AAb?$AAy?$AAt?$AAe?$AAa?$AAr?$AAr?$AAa?$AAy?$AAo?$AAb?$AAj?$AAe?$AAc?$AAt?$AA?4?$AAc?$AA?$AA@
  00286	48 8d 0d 00 00
	00 00		 lea	 rcx, OFFSET FLAT:??_C@_1DA@DMKHKEDP@?$AAP?$AAy?$AAB?$AAy?$AAt?$AAe?$AAA?$AAr?$AAr?$AAa?$AAy?$AA_?$AAC?$AAh?$AAe?$AAc?$AAk?$AA?$CI?$AAs?$AAe?$AAl?$AAf?$AA?$CJ?$AA?$AA@
  0028d	ff 15 00 00 00
	00		 call	 QWORD PTR __imp__wassert
  00293	33 c0		 xor	 eax, eax
$LN22@bytearray_@6:
  00295	48 8b 84 24 a0
	00 00 00	 mov	 rax, QWORD PTR self$[rsp]
  0029d	48 83 78 60 00	 cmp	 QWORD PTR [rax+96], 0
  002a2	74 19		 je	 SHORT $LN23@bytearray_@6
  002a4	48 8b 84 24 a0
	00 00 00	 mov	 rax, QWORD PTR self$[rsp]
  002ac	48 8b 80 80 00
	00 00		 mov	 rax, QWORD PTR [rax+128]
  002b3	48 89 84 24 80
	00 00 00	 mov	 QWORD PTR tv179[rsp], rax
  002bb	eb 0f		 jmp	 SHORT $LN24@bytearray_@6
$LN23@bytearray_@6:
  002bd	48 8d 05 00 00
	00 00		 lea	 rax, OFFSET FLAT:_PyByteArray_empty_string
  002c4	48 89 84 24 80
	00 00 00	 mov	 QWORD PTR tv179[rsp], rax
$LN24@bytearray_@6:
  002cc	48 8b 84 24 80
	00 00 00	 mov	 rax, QWORD PTR tv179[rsp]
  002d4	48 89 44 24 68	 mov	 QWORD PTR source_buf$20747[rsp], rax

; 406  :             char *result_buf;
; 407  :             PyObject *result;
; 408  : 
; 409  :             result = PyByteArray_FromStringAndSize(NULL, slicelength);

  002d9	48 8b 54 24 48	 mov	 rdx, QWORD PTR slicelength$20733[rsp]
  002de	33 c9		 xor	 ecx, ecx
  002e0	e8 00 00 00 00	 call	 PyByteArray_FromStringAndSize
  002e5	48 89 44 24 70	 mov	 QWORD PTR result$20754[rsp], rax

; 410  :             if (result == NULL)

  002ea	48 83 7c 24 70
	00		 cmp	 QWORD PTR result$20754[rsp], 0
  002f0	75 07		 jne	 SHORT $LN5@bytearray_@6

; 411  :                 return NULL;

  002f2	33 c0		 xor	 eax, eax
  002f4	e9 0d 01 00 00	 jmp	 $LN18@bytearray_@6
$LN5@bytearray_@6:

; 412  : 
; 413  :             result_buf = PyByteArray_AS_STRING(result);

  002f9	48 8d 05 00 00
	00 00		 lea	 rax, OFFSET FLAT:PyByteArray_Type
  00300	48 8b 4c 24 70	 mov	 rcx, QWORD PTR result$20754[rsp]
  00305	48 39 41 58	 cmp	 QWORD PTR [rcx+88], rax
  00309	74 35		 je	 SHORT $LN25@bytearray_@6
  0030b	48 8d 15 00 00
	00 00		 lea	 rdx, OFFSET FLAT:PyByteArray_Type
  00312	48 8b 44 24 70	 mov	 rax, QWORD PTR result$20754[rsp]
  00317	48 8b 48 58	 mov	 rcx, QWORD PTR [rax+88]
  0031b	e8 00 00 00 00	 call	 PyType_IsSubtype
  00320	85 c0		 test	 eax, eax
  00322	75 1c		 jne	 SHORT $LN25@bytearray_@6
  00324	41 b8 9d 01 00
	00		 mov	 r8d, 413		; 0000019dH
  0032a	48 8d 15 00 00
	00 00		 lea	 rdx, OFFSET FLAT:??_C@_1DK@NEEHIPOB@?$AA?4?$AA?4?$AA?2?$AAO?$AAb?$AAj?$AAe?$AAc?$AAt?$AAs?$AA?2?$AAb?$AAy?$AAt?$AAe?$AAa?$AAr?$AAr?$AAa?$AAy?$AAo?$AAb?$AAj?$AAe?$AAc?$AAt?$AA?4?$AAc?$AA?$AA@
  00331	48 8d 0d 00 00
	00 00		 lea	 rcx, OFFSET FLAT:??_C@_1DE@IIJJPBPP@?$AAP?$AAy?$AAB?$AAy?$AAt?$AAe?$AAA?$AAr?$AAr?$AAa?$AAy?$AA_?$AAC?$AAh?$AAe?$AAc?$AAk?$AA?$CI?$AAr?$AAe?$AAs?$AAu?$AAl?$AAt?$AA?$CJ?$AA?$AA@
  00338	ff 15 00 00 00
	00		 call	 QWORD PTR __imp__wassert
  0033e	33 c0		 xor	 eax, eax
$LN25@bytearray_@6:
  00340	48 8b 44 24 70	 mov	 rax, QWORD PTR result$20754[rsp]
  00345	48 83 78 60 00	 cmp	 QWORD PTR [rax+96], 0
  0034a	74 16		 je	 SHORT $LN26@bytearray_@6
  0034c	48 8b 44 24 70	 mov	 rax, QWORD PTR result$20754[rsp]
  00351	48 8b 80 80 00
	00 00		 mov	 rax, QWORD PTR [rax+128]
  00358	48 89 84 24 88
	00 00 00	 mov	 QWORD PTR tv198[rsp], rax
  00360	eb 0f		 jmp	 SHORT $LN27@bytearray_@6
$LN26@bytearray_@6:
  00362	48 8d 05 00 00
	00 00		 lea	 rax, OFFSET FLAT:_PyByteArray_empty_string
  00369	48 89 84 24 88
	00 00 00	 mov	 QWORD PTR tv198[rsp], rax
$LN27@bytearray_@6:
  00371	48 8b 84 24 88
	00 00 00	 mov	 rax, QWORD PTR tv198[rsp]
  00379	48 89 44 24 78	 mov	 QWORD PTR result_buf$20753[rsp], rax

; 414  :             for (cur = start, i = 0; i < slicelength;
; 415  :                  cur += step, i++) {

  0037e	48 8b 44 24 60	 mov	 rax, QWORD PTR start$20730[rsp]
  00383	48 89 44 24 40	 mov	 QWORD PTR cur$20734[rsp], rax
  00388	48 c7 44 24 38
	00 00 00 00	 mov	 QWORD PTR i$20735[rsp], 0
  00391	eb 22		 jmp	 SHORT $LN4@bytearray_@6
$LN3@bytearray_@6:
  00393	48 8b 44 24 50	 mov	 rax, QWORD PTR step$20732[rsp]
  00398	48 8b 4c 24 40	 mov	 rcx, QWORD PTR cur$20734[rsp]
  0039d	48 03 c8	 add	 rcx, rax
  003a0	48 8b c1	 mov	 rax, rcx
  003a3	48 89 44 24 40	 mov	 QWORD PTR cur$20734[rsp], rax
  003a8	48 8b 44 24 38	 mov	 rax, QWORD PTR i$20735[rsp]
  003ad	48 ff c0	 inc	 rax
  003b0	48 89 44 24 38	 mov	 QWORD PTR i$20735[rsp], rax
$LN4@bytearray_@6:
  003b5	48 8b 44 24 48	 mov	 rax, QWORD PTR slicelength$20733[rsp]
  003ba	48 39 44 24 38	 cmp	 QWORD PTR i$20735[rsp], rax
  003bf	7d 27		 jge	 SHORT $LN2@bytearray_@6

; 416  :                      result_buf[i] = source_buf[cur];

  003c1	48 8b 44 24 38	 mov	 rax, QWORD PTR i$20735[rsp]
  003c6	48 8b 4c 24 78	 mov	 rcx, QWORD PTR result_buf$20753[rsp]
  003cb	48 03 c8	 add	 rcx, rax
  003ce	48 8b c1	 mov	 rax, rcx
  003d1	48 8b 4c 24 40	 mov	 rcx, QWORD PTR cur$20734[rsp]
  003d6	48 8b 54 24 68	 mov	 rdx, QWORD PTR source_buf$20747[rsp]
  003db	48 03 d1	 add	 rdx, rcx
  003de	48 8b ca	 mov	 rcx, rdx
  003e1	0f b6 09	 movzx	 ecx, BYTE PTR [rcx]
  003e4	88 08		 mov	 BYTE PTR [rax], cl

; 417  :             }

  003e6	eb ab		 jmp	 SHORT $LN3@bytearray_@6
$LN2@bytearray_@6:

; 418  :             return result;

  003e8	48 8b 44 24 70	 mov	 rax, QWORD PTR result$20754[rsp]
  003ed	eb 17		 jmp	 SHORT $LN18@bytearray_@6
$LN6@bytearray_@6:
$LN8@bytearray_@6:

; 419  :         }
; 420  :     }
; 421  :     else {

  003ef	eb 15		 jmp	 SHORT $LN1@bytearray_@6
$LN11@bytearray_@6:

; 422  :         PyErr_SetString(PyExc_TypeError, "bytearray indices must be integers");

  003f1	48 8d 15 00 00
	00 00		 lea	 rdx, OFFSET FLAT:??_C@_0CD@MBEBMMIP@bytearray?5indices?5must?5be?5intege@
  003f8	48 8b 0d 00 00
	00 00		 mov	 rcx, QWORD PTR PyExc_TypeError
  003ff	e8 00 00 00 00	 call	 PyErr_SetString

; 423  :         return NULL;

  00404	33 c0		 xor	 eax, eax
$LN1@bytearray_@6:
$LN12@bytearray_@6:
$LN18@bytearray_@6:

; 424  :     }
; 425  : }

  00406	48 81 c4 98 00
	00 00		 add	 rsp, 152		; 00000098H
  0040d	c3		 ret	 0
bytearray_subscript ENDP
_TEXT	ENDS
;	COMDAT pdata
pdata	SEGMENT
$pdata$bytearray_setitem DD imagerel bytearray_setitem
	DD	imagerel bytearray_setitem+199
	DD	imagerel $unwind$bytearray_setitem
pdata	ENDS
;	COMDAT xdata
xdata	SEGMENT
$unwind$bytearray_setitem DD 011301H
	DD	06213H
; Function compile flags: /Odtp
xdata	ENDS
;	COMDAT bytearray_setitem
_TEXT	SEGMENT
ival$ = 32
self$ = 64
i$ = 72
value$ = 80
bytearray_setitem PROC					; COMDAT

; 519  : {

  00000	4c 89 44 24 18	 mov	 QWORD PTR [rsp+24], r8
  00005	48 89 54 24 10	 mov	 QWORD PTR [rsp+16], rdx
  0000a	48 89 4c 24 08	 mov	 QWORD PTR [rsp+8], rcx
  0000f	48 83 ec 38	 sub	 rsp, 56			; 00000038H

; 520  :     int ival;
; 521  : 
; 522  :     if (i < 0)

  00013	48 83 7c 24 48
	00		 cmp	 QWORD PTR i$[rsp], 0
  00019	7d 19		 jge	 SHORT $LN5@bytearray_@7

; 523  :         i += Py_SIZE(self);

  0001b	48 8b 44 24 40	 mov	 rax, QWORD PTR self$[rsp]
  00020	48 8b 40 60	 mov	 rax, QWORD PTR [rax+96]
  00024	48 8b 4c 24 48	 mov	 rcx, QWORD PTR i$[rsp]
  00029	48 03 c8	 add	 rcx, rax
  0002c	48 8b c1	 mov	 rax, rcx
  0002f	48 89 44 24 48	 mov	 QWORD PTR i$[rsp], rax
$LN5@bytearray_@7:

; 524  : 
; 525  :     if (i < 0 || i >= Py_SIZE(self)) {

  00034	48 83 7c 24 48
	00		 cmp	 QWORD PTR i$[rsp], 0
  0003a	7c 10		 jl	 SHORT $LN3@bytearray_@7
  0003c	48 8b 44 24 40	 mov	 rax, QWORD PTR self$[rsp]
  00041	48 8b 40 60	 mov	 rax, QWORD PTR [rax+96]
  00045	48 39 44 24 48	 cmp	 QWORD PTR i$[rsp], rax
  0004a	7c 1a		 jl	 SHORT $LN4@bytearray_@7
$LN3@bytearray_@7:

; 526  :         PyErr_SetString(PyExc_IndexError, "bytearray index out of range");

  0004c	48 8d 15 00 00
	00 00		 lea	 rdx, OFFSET FLAT:??_C@_0BN@DBGBDBKF@bytearray?5index?5out?5of?5range?$AA@
  00053	48 8b 0d 00 00
	00 00		 mov	 rcx, QWORD PTR PyExc_IndexError
  0005a	e8 00 00 00 00	 call	 PyErr_SetString

; 527  :         return -1;

  0005f	b8 ff ff ff ff	 mov	 eax, -1
  00064	eb 5c		 jmp	 SHORT $LN6@bytearray_@7
$LN4@bytearray_@7:

; 528  :     }
; 529  : 
; 530  :     if (value == NULL)

  00066	48 83 7c 24 50
	00		 cmp	 QWORD PTR value$[rsp], 0
  0006c	75 1f		 jne	 SHORT $LN2@bytearray_@7

; 531  :         return bytearray_setslice(self, i, i+1, NULL);

  0006e	48 8b 44 24 48	 mov	 rax, QWORD PTR i$[rsp]
  00073	48 ff c0	 inc	 rax
  00076	45 33 c9	 xor	 r9d, r9d
  00079	4c 8b c0	 mov	 r8, rax
  0007c	48 8b 54 24 48	 mov	 rdx, QWORD PTR i$[rsp]
  00081	48 8b 4c 24 40	 mov	 rcx, QWORD PTR self$[rsp]
  00086	e8 00 00 00 00	 call	 bytearray_setslice
  0008b	eb 35		 jmp	 SHORT $LN6@bytearray_@7
$LN2@bytearray_@7:

; 532  : 
; 533  :     if (!_getbytevalue(value, &ival))

  0008d	48 8d 54 24 20	 lea	 rdx, QWORD PTR ival$[rsp]
  00092	48 8b 4c 24 50	 mov	 rcx, QWORD PTR value$[rsp]
  00097	e8 00 00 00 00	 call	 _getbytevalue
  0009c	85 c0		 test	 eax, eax
  0009e	75 07		 jne	 SHORT $LN1@bytearray_@7

; 534  :         return -1;

  000a0	b8 ff ff ff ff	 mov	 eax, -1
  000a5	eb 1b		 jmp	 SHORT $LN6@bytearray_@7
$LN1@bytearray_@7:

; 535  : 
; 536  :     self->ob_bytes[i] = ival;

  000a7	48 8b 44 24 40	 mov	 rax, QWORD PTR self$[rsp]
  000ac	48 8b 80 80 00
	00 00		 mov	 rax, QWORD PTR [rax+128]
  000b3	48 8b 4c 24 48	 mov	 rcx, QWORD PTR i$[rsp]
  000b8	0f b6 54 24 20	 movzx	 edx, BYTE PTR ival$[rsp]
  000bd	88 14 08	 mov	 BYTE PTR [rax+rcx], dl

; 537  :     return 0;

  000c0	33 c0		 xor	 eax, eax
$LN6@bytearray_@7:

; 538  : }

  000c2	48 83 c4 38	 add	 rsp, 56			; 00000038H
  000c6	c3		 ret	 0
bytearray_setitem ENDP
_TEXT	ENDS
PUBLIC	??_C@_0BO@NJOIMFKH@byte?5must?5be?5in?5range?$CI0?0?5256?$CJ?$AA@ ; `string'
PUBLIC	??_C@_0BH@LPEFKOAK@an?5integer?5is?5required?$AA@ ; `string'
EXTRN	PyExc_ValueError:QWORD
EXTRN	PyNumber_Index:PROC
EXTRN	PyLong_AsLong:PROC
;	COMDAT pdata
pdata	SEGMENT
$pdata$_getbytevalue DD imagerel _getbytevalue
	DD	imagerel _getbytevalue+207
	DD	imagerel $unwind$_getbytevalue
pdata	ENDS
;	COMDAT xdata
xdata	SEGMENT
$unwind$_getbytevalue DD 010e01H
	DD	0620eH
xdata	ENDS
;	COMDAT ??_C@_0BO@NJOIMFKH@byte?5must?5be?5in?5range?$CI0?0?5256?$CJ?$AA@
CONST	SEGMENT
??_C@_0BO@NJOIMFKH@byte?5must?5be?5in?5range?$CI0?0?5256?$CJ?$AA@ DB 'byt'
	DB	'e must be in range(0, 256)', 00H		; `string'
CONST	ENDS
;	COMDAT ??_C@_0BH@LPEFKOAK@an?5integer?5is?5required?$AA@
CONST	SEGMENT
??_C@_0BH@LPEFKOAK@an?5integer?5is?5required?$AA@ DB 'an integer is requi'
	DB	'red', 00H					; `string'
; Function compile flags: /Odtp
CONST	ENDS
;	COMDAT _getbytevalue
_TEXT	SEGMENT
face_value$ = 32
index$20433 = 40
arg$ = 64
value$ = 72
_getbytevalue PROC					; COMDAT

; 27   : {

  00000	48 89 54 24 10	 mov	 QWORD PTR [rsp+16], rdx
  00005	48 89 4c 24 08	 mov	 QWORD PTR [rsp+8], rcx
  0000a	48 83 ec 38	 sub	 rsp, 56			; 00000038H

; 28   :     long face_value;
; 29   : 
; 30   :     if (PyLong_Check(arg)) {

  0000e	48 8b 44 24 40	 mov	 rax, QWORD PTR arg$[rsp]
  00013	48 8b 40 58	 mov	 rax, QWORD PTR [rax+88]
  00017	8b 80 00 01 00
	00		 mov	 eax, DWORD PTR [rax+256]
  0001d	25 00 00 00 01	 and	 eax, 16777216		; 01000000H
  00022	85 c0		 test	 eax, eax
  00024	74 10		 je	 SHORT $LN5@getbyteval

; 31   :         face_value = PyLong_AsLong(arg);

  00026	48 8b 4c 24 40	 mov	 rcx, QWORD PTR arg$[rsp]
  0002b	e8 00 00 00 00	 call	 PyLong_AsLong
  00030	89 44 24 20	 mov	 DWORD PTR face_value$[rsp], eax

; 32   :     } else {

  00034	eb 51		 jmp	 SHORT $LN4@getbyteval
$LN5@getbyteval:

; 33   :         PyObject *index = PyNumber_Index(arg);

  00036	48 8b 4c 24 40	 mov	 rcx, QWORD PTR arg$[rsp]
  0003b	e8 00 00 00 00	 call	 PyNumber_Index
  00040	48 89 44 24 28	 mov	 QWORD PTR index$20433[rsp], rax

; 34   :         if (index == NULL) {

  00045	48 83 7c 24 28
	00		 cmp	 QWORD PTR index$20433[rsp], 0
  0004b	75 22		 jne	 SHORT $LN3@getbyteval

; 35   :             PyErr_Format(PyExc_TypeError, "an integer is required");

  0004d	48 8d 15 00 00
	00 00		 lea	 rdx, OFFSET FLAT:??_C@_0BH@LPEFKOAK@an?5integer?5is?5required?$AA@
  00054	48 8b 0d 00 00
	00 00		 mov	 rcx, QWORD PTR PyExc_TypeError
  0005b	e8 00 00 00 00	 call	 PyErr_Format

; 36   :             *value = -1;

  00060	48 8b 44 24 48	 mov	 rax, QWORD PTR value$[rsp]
  00065	c7 00 ff ff ff
	ff		 mov	 DWORD PTR [rax], -1

; 37   :             return 0;

  0006b	33 c0		 xor	 eax, eax
  0006d	eb 5b		 jmp	 SHORT $LN6@getbyteval
$LN3@getbyteval:

; 38   :         }
; 39   :         face_value = PyLong_AsLong(index);

  0006f	48 8b 4c 24 28	 mov	 rcx, QWORD PTR index$20433[rsp]
  00074	e8 00 00 00 00	 call	 PyLong_AsLong
  00079	89 44 24 20	 mov	 DWORD PTR face_value$[rsp], eax

; 40   :         Py_DECREF(index);

  0007d	48 8b 4c 24 28	 mov	 rcx, QWORD PTR index$20433[rsp]
  00082	e8 00 00 00 00	 call	 _Py_DecRef
$LN4@getbyteval:

; 41   :     }
; 42   : 
; 43   :     if (face_value < 0 || face_value >= 256) {

  00087	83 7c 24 20 00	 cmp	 DWORD PTR face_value$[rsp], 0
  0008c	7c 0a		 jl	 SHORT $LN1@getbyteval
  0008e	81 7c 24 20 00
	01 00 00	 cmp	 DWORD PTR face_value$[rsp], 256 ; 00000100H
  00096	7c 22		 jl	 SHORT $LN2@getbyteval
$LN1@getbyteval:

; 44   :         /* this includes the OverflowError in case the long is too large */
; 45   :         PyErr_SetString(PyExc_ValueError, "byte must be in range(0, 256)");

  00098	48 8d 15 00 00
	00 00		 lea	 rdx, OFFSET FLAT:??_C@_0BO@NJOIMFKH@byte?5must?5be?5in?5range?$CI0?0?5256?$CJ?$AA@
  0009f	48 8b 0d 00 00
	00 00		 mov	 rcx, QWORD PTR PyExc_ValueError
  000a6	e8 00 00 00 00	 call	 PyErr_SetString

; 46   :         *value = -1;

  000ab	48 8b 44 24 48	 mov	 rax, QWORD PTR value$[rsp]
  000b0	c7 00 ff ff ff
	ff		 mov	 DWORD PTR [rax], -1

; 47   :         return 0;

  000b6	33 c0		 xor	 eax, eax
  000b8	eb 10		 jmp	 SHORT $LN6@getbyteval
$LN2@getbyteval:

; 48   :     }
; 49   : 
; 50   :     *value = face_value;

  000ba	48 8b 44 24 48	 mov	 rax, QWORD PTR value$[rsp]
  000bf	8b 4c 24 20	 mov	 ecx, DWORD PTR face_value$[rsp]
  000c3	89 08		 mov	 DWORD PTR [rax], ecx

; 51   :     return 1;

  000c5	b8 01 00 00 00	 mov	 eax, 1
$LN6@getbyteval:

; 52   : }

  000ca	48 83 c4 38	 add	 rsp, 56			; 00000038H
  000ce	c3		 ret	 0
_getbytevalue ENDP
_TEXT	ENDS
PUBLIC	??_C@_0CG@LDFFEMNP@can?8t?5set?5bytearray?5slice?5from?5?$CF@ ; `string'
EXTRN	__imp_memmove:PROC
;	COMDAT pdata
pdata	SEGMENT
$pdata$bytearray_setslice DD imagerel bytearray_setslice
	DD	imagerel bytearray_setslice+944
	DD	imagerel $unwind$bytearray_setslice
pdata	ENDS
;	COMDAT xdata
xdata	SEGMENT
$unwind$bytearray_setslice DD 021b01H
	DD	017011bH
xdata	ENDS
;	COMDAT ??_C@_0CG@LDFFEMNP@can?8t?5set?5bytearray?5slice?5from?5?$CF@
CONST	SEGMENT
??_C@_0CG@LDFFEMNP@can?8t?5set?5bytearray?5slice?5from?5?$CF@ DB 'can''t '
	DB	'set bytearray slice from %.100s', 00H	; `string'
; Function compile flags: /Odtp
CONST	ENDS
;	COMDAT bytearray_setslice
_TEXT	SEGMENT
res$ = 32
bytes$ = 40
vbytes$ = 48
needed$ = 128
avail$ = 136
err$20788 = 144
tv137 = 152
tv156 = 160
self$ = 192
lo$ = 200
hi$ = 208
values$ = 216
bytearray_setslice PROC					; COMDAT

; 430  : {

  00000	4c 89 4c 24 20	 mov	 QWORD PTR [rsp+32], r9
  00005	4c 89 44 24 18	 mov	 QWORD PTR [rsp+24], r8
  0000a	48 89 54 24 10	 mov	 QWORD PTR [rsp+16], rdx
  0000f	48 89 4c 24 08	 mov	 QWORD PTR [rsp+8], rcx
  00014	48 81 ec b8 00
	00 00		 sub	 rsp, 184		; 000000b8H

; 431  :     Py_ssize_t avail, needed;
; 432  :     void *bytes;
; 433  :     Py_buffer vbytes;
; 434  :     int res = 0;

  0001b	c7 44 24 20 00
	00 00 00	 mov	 DWORD PTR res$[rsp], 0

; 435  : 
; 436  :     vbytes.len = -1;

  00023	48 c7 44 24 40
	ff ff ff ff	 mov	 QWORD PTR vbytes$[rsp+16], -1

; 437  :     if (values == (PyObject *)self) {

  0002c	48 8b 84 24 c0
	00 00 00	 mov	 rax, QWORD PTR self$[rsp]
  00034	48 39 84 24 d8
	00 00 00	 cmp	 QWORD PTR values$[rsp], rax
  0003c	75 6f		 jne	 SHORT $LN16@bytearray_@8

; 438  :         /* Make a copy and call this function recursively */
; 439  :         int err;
; 440  :         values = PyByteArray_FromObject(values);

  0003e	48 8b 8c 24 d8
	00 00 00	 mov	 rcx, QWORD PTR values$[rsp]
  00046	e8 00 00 00 00	 call	 PyByteArray_FromObject
  0004b	48 89 84 24 d8
	00 00 00	 mov	 QWORD PTR values$[rsp], rax

; 441  :         if (values == NULL)

  00053	48 83 bc 24 d8
	00 00 00 00	 cmp	 QWORD PTR values$[rsp], 0
  0005c	75 0a		 jne	 SHORT $LN15@bytearray_@8

; 442  :             return -1;

  0005e	b8 ff ff ff ff	 mov	 eax, -1
  00063	e9 40 03 00 00	 jmp	 $LN17@bytearray_@8
$LN15@bytearray_@8:

; 443  :         err = bytearray_setslice(self, lo, hi, values);

  00068	4c 8b 8c 24 d8
	00 00 00	 mov	 r9, QWORD PTR values$[rsp]
  00070	4c 8b 84 24 d0
	00 00 00	 mov	 r8, QWORD PTR hi$[rsp]
  00078	48 8b 94 24 c8
	00 00 00	 mov	 rdx, QWORD PTR lo$[rsp]
  00080	48 8b 8c 24 c0
	00 00 00	 mov	 rcx, QWORD PTR self$[rsp]
  00088	e8 00 00 00 00	 call	 bytearray_setslice
  0008d	89 84 24 90 00
	00 00		 mov	 DWORD PTR err$20788[rsp], eax

; 444  :         Py_DECREF(values);

  00094	48 8b 8c 24 d8
	00 00 00	 mov	 rcx, QWORD PTR values$[rsp]
  0009c	e8 00 00 00 00	 call	 _Py_DecRef

; 445  :         return err;

  000a1	8b 84 24 90 00
	00 00		 mov	 eax, DWORD PTR err$20788[rsp]
  000a8	e9 fb 02 00 00	 jmp	 $LN17@bytearray_@8
$LN16@bytearray_@8:

; 446  :     }
; 447  :     if (values == NULL) {

  000ad	48 83 bc 24 d8
	00 00 00 00	 cmp	 QWORD PTR values$[rsp], 0
  000b6	75 17		 jne	 SHORT $LN14@bytearray_@8

; 448  :         /* del b[lo:hi] */
; 449  :         bytes = NULL;

  000b8	48 c7 44 24 28
	00 00 00 00	 mov	 QWORD PTR bytes$[rsp], 0

; 450  :         needed = 0;

  000c1	48 c7 84 24 80
	00 00 00 00 00
	00 00		 mov	 QWORD PTR needed$[rsp], 0

; 451  :     }
; 452  :     else {

  000cd	eb 5b		 jmp	 SHORT $LN13@bytearray_@8
$LN14@bytearray_@8:

; 453  :             if (_getbuffer(values, &vbytes) < 0) {

  000cf	48 8d 54 24 30	 lea	 rdx, QWORD PTR vbytes$[rsp]
  000d4	48 8b 8c 24 d8
	00 00 00	 mov	 rcx, QWORD PTR values$[rsp]
  000dc	e8 00 00 00 00	 call	 _getbuffer
  000e1	48 85 c0	 test	 rax, rax
  000e4	7d 2d		 jge	 SHORT $LN12@bytearray_@8

; 454  :                     PyErr_Format(PyExc_TypeError,
; 455  :                                  "can't set bytearray slice from %.100s",
; 456  :                                  Py_TYPE(values)->tp_name);

  000e6	48 8b 84 24 d8
	00 00 00	 mov	 rax, QWORD PTR values$[rsp]
  000ee	48 8b 40 58	 mov	 rax, QWORD PTR [rax+88]
  000f2	4c 8b 40 70	 mov	 r8, QWORD PTR [rax+112]
  000f6	48 8d 15 00 00
	00 00		 lea	 rdx, OFFSET FLAT:??_C@_0CG@LDFFEMNP@can?8t?5set?5bytearray?5slice?5from?5?$CF@
  000fd	48 8b 0d 00 00
	00 00		 mov	 rcx, QWORD PTR PyExc_TypeError
  00104	e8 00 00 00 00	 call	 PyErr_Format

; 457  :                     return -1;

  00109	b8 ff ff ff ff	 mov	 eax, -1
  0010e	e9 95 02 00 00	 jmp	 $LN17@bytearray_@8
$LN12@bytearray_@8:

; 458  :             }
; 459  :             needed = vbytes.len;

  00113	48 8b 44 24 40	 mov	 rax, QWORD PTR vbytes$[rsp+16]
  00118	48 89 84 24 80
	00 00 00	 mov	 QWORD PTR needed$[rsp], rax

; 460  :             bytes = vbytes.buf;

  00120	48 8b 44 24 30	 mov	 rax, QWORD PTR vbytes$[rsp]
  00125	48 89 44 24 28	 mov	 QWORD PTR bytes$[rsp], rax
$LN13@bytearray_@8:

; 461  :     }
; 462  : 
; 463  :     if (lo < 0)

  0012a	48 83 bc 24 c8
	00 00 00 00	 cmp	 QWORD PTR lo$[rsp], 0
  00133	7d 0c		 jge	 SHORT $LN11@bytearray_@8

; 464  :         lo = 0;

  00135	48 c7 84 24 c8
	00 00 00 00 00
	00 00		 mov	 QWORD PTR lo$[rsp], 0
$LN11@bytearray_@8:

; 465  :     if (hi < lo)

  00141	48 8b 84 24 c8
	00 00 00	 mov	 rax, QWORD PTR lo$[rsp]
  00149	48 39 84 24 d0
	00 00 00	 cmp	 QWORD PTR hi$[rsp], rax
  00151	7d 10		 jge	 SHORT $LN10@bytearray_@8

; 466  :         hi = lo;

  00153	48 8b 84 24 c8
	00 00 00	 mov	 rax, QWORD PTR lo$[rsp]
  0015b	48 89 84 24 d0
	00 00 00	 mov	 QWORD PTR hi$[rsp], rax
$LN10@bytearray_@8:

; 467  :     if (hi > Py_SIZE(self))

  00163	48 8b 84 24 c0
	00 00 00	 mov	 rax, QWORD PTR self$[rsp]
  0016b	48 8b 40 60	 mov	 rax, QWORD PTR [rax+96]
  0016f	48 39 84 24 d0
	00 00 00	 cmp	 QWORD PTR hi$[rsp], rax
  00177	7e 14		 jle	 SHORT $LN9@bytearray_@8

; 468  :         hi = Py_SIZE(self);

  00179	48 8b 84 24 c0
	00 00 00	 mov	 rax, QWORD PTR self$[rsp]
  00181	48 8b 40 60	 mov	 rax, QWORD PTR [rax+96]
  00185	48 89 84 24 d0
	00 00 00	 mov	 QWORD PTR hi$[rsp], rax
$LN9@bytearray_@8:

; 469  : 
; 470  :     avail = hi - lo;

  0018d	48 8b 84 24 c8
	00 00 00	 mov	 rax, QWORD PTR lo$[rsp]
  00195	48 8b 8c 24 d0
	00 00 00	 mov	 rcx, QWORD PTR hi$[rsp]
  0019d	48 2b c8	 sub	 rcx, rax
  001a0	48 8b c1	 mov	 rax, rcx
  001a3	48 89 84 24 88
	00 00 00	 mov	 QWORD PTR avail$[rsp], rax

; 471  :     if (avail < 0)

  001ab	48 83 bc 24 88
	00 00 00 00	 cmp	 QWORD PTR avail$[rsp], 0
  001b4	7d 2c		 jge	 SHORT $LN8@bytearray_@8

; 472  :         lo = hi = avail = 0;

  001b6	48 c7 84 24 88
	00 00 00 00 00
	00 00		 mov	 QWORD PTR avail$[rsp], 0
  001c2	48 8b 84 24 88
	00 00 00	 mov	 rax, QWORD PTR avail$[rsp]
  001ca	48 89 84 24 d0
	00 00 00	 mov	 QWORD PTR hi$[rsp], rax
  001d2	48 8b 84 24 d0
	00 00 00	 mov	 rax, QWORD PTR hi$[rsp]
  001da	48 89 84 24 c8
	00 00 00	 mov	 QWORD PTR lo$[rsp], rax
$LN8@bytearray_@8:

; 473  : 
; 474  :     if (avail != needed) {

  001e2	48 8b 84 24 80
	00 00 00	 mov	 rax, QWORD PTR needed$[rsp]
  001ea	48 39 84 24 88
	00 00 00	 cmp	 QWORD PTR avail$[rsp], rax
  001f2	0f 84 63 01 00
	00		 je	 $LN7@bytearray_@8

; 475  :         if (avail > needed) {

  001f8	48 8b 84 24 80
	00 00 00	 mov	 rax, QWORD PTR needed$[rsp]
  00200	48 39 84 24 88
	00 00 00	 cmp	 QWORD PTR avail$[rsp], rax
  00208	0f 8e 8a 00 00
	00		 jle	 $LN6@bytearray_@8

; 476  :             if (!_canresize(self)) {

  0020e	48 8b 8c 24 c0
	00 00 00	 mov	 rcx, QWORD PTR self$[rsp]
  00216	e8 00 00 00 00	 call	 _canresize
  0021b	85 c0		 test	 eax, eax
  0021d	75 0d		 jne	 SHORT $LN5@bytearray_@8

; 477  :                 res = -1;

  0021f	c7 44 24 20 ff
	ff ff ff	 mov	 DWORD PTR res$[rsp], -1

; 478  :                 goto finish;

  00227	e9 66 01 00 00	 jmp	 $finish$20808
$LN5@bytearray_@8:

; 479  :             }
; 480  :             /*
; 481  :               0   lo               hi               old_size
; 482  :               |   |<----avail----->|<-----tomove------>|
; 483  :               |   |<-needed->|<-----tomove------>|
; 484  :               0   lo      new_hi              new_size
; 485  :             */
; 486  :             memmove(self->ob_bytes + lo + needed, self->ob_bytes + hi,
; 487  :                     Py_SIZE(self) - hi);

  0022c	48 8b 84 24 c0
	00 00 00	 mov	 rax, QWORD PTR self$[rsp]
  00234	48 8b 8c 24 d0
	00 00 00	 mov	 rcx, QWORD PTR hi$[rsp]
  0023c	48 8b 40 60	 mov	 rax, QWORD PTR [rax+96]
  00240	48 2b c1	 sub	 rax, rcx
  00243	48 8b 8c 24 c0
	00 00 00	 mov	 rcx, QWORD PTR self$[rsp]
  0024b	48 8b 89 80 00
	00 00		 mov	 rcx, QWORD PTR [rcx+128]
  00252	48 03 8c 24 d0
	00 00 00	 add	 rcx, QWORD PTR hi$[rsp]
  0025a	48 8b 94 24 c0
	00 00 00	 mov	 rdx, QWORD PTR self$[rsp]
  00262	48 8b 92 80 00
	00 00		 mov	 rdx, QWORD PTR [rdx+128]
  00269	48 03 94 24 c8
	00 00 00	 add	 rdx, QWORD PTR lo$[rsp]
  00271	48 03 94 24 80
	00 00 00	 add	 rdx, QWORD PTR needed$[rsp]
  00279	48 89 94 24 98
	00 00 00	 mov	 QWORD PTR tv137[rsp], rdx
  00281	4c 8b c0	 mov	 r8, rax
  00284	48 8b d1	 mov	 rdx, rcx
  00287	48 8b 84 24 98
	00 00 00	 mov	 rax, QWORD PTR tv137[rsp]
  0028f	48 8b c8	 mov	 rcx, rax
  00292	ff 15 00 00 00
	00		 call	 QWORD PTR __imp_memmove
$LN6@bytearray_@8:

; 488  :         }
; 489  :         /* XXX(nnorwitz): need to verify this can't overflow! */
; 490  :         if (PyByteArray_Resize((PyObject *)self,
; 491  :                            Py_SIZE(self) + needed - avail) < 0) {

  00298	48 8b 84 24 c0
	00 00 00	 mov	 rax, QWORD PTR self$[rsp]
  002a0	48 8b 40 60	 mov	 rax, QWORD PTR [rax+96]
  002a4	48 03 84 24 80
	00 00 00	 add	 rax, QWORD PTR needed$[rsp]
  002ac	48 2b 84 24 88
	00 00 00	 sub	 rax, QWORD PTR avail$[rsp]
  002b4	48 8b d0	 mov	 rdx, rax
  002b7	48 8b 8c 24 c0
	00 00 00	 mov	 rcx, QWORD PTR self$[rsp]
  002bf	e8 00 00 00 00	 call	 PyByteArray_Resize
  002c4	85 c0		 test	 eax, eax
  002c6	7d 0d		 jge	 SHORT $LN4@bytearray_@8

; 492  :                 res = -1;

  002c8	c7 44 24 20 ff
	ff ff ff	 mov	 DWORD PTR res$[rsp], -1

; 493  :                 goto finish;

  002d0	e9 bd 00 00 00	 jmp	 $finish$20808
$LN4@bytearray_@8:

; 494  :         }
; 495  :         if (avail < needed) {

  002d5	48 8b 84 24 80
	00 00 00	 mov	 rax, QWORD PTR needed$[rsp]
  002dd	48 39 84 24 88
	00 00 00	 cmp	 QWORD PTR avail$[rsp], rax
  002e5	7d 74		 jge	 SHORT $LN3@bytearray_@8

; 496  :             /*
; 497  :               0   lo        hi               old_size
; 498  :               |   |<-avail->|<-----tomove------>|
; 499  :               |   |<----needed---->|<-----tomove------>|
; 500  :               0   lo            new_hi              new_size
; 501  :              */
; 502  :             memmove(self->ob_bytes + lo + needed, self->ob_bytes + hi,
; 503  :                     Py_SIZE(self) - lo - needed);

  002e7	48 8b 84 24 c0
	00 00 00	 mov	 rax, QWORD PTR self$[rsp]
  002ef	48 8b 8c 24 c8
	00 00 00	 mov	 rcx, QWORD PTR lo$[rsp]
  002f7	48 8b 40 60	 mov	 rax, QWORD PTR [rax+96]
  002fb	48 2b c1	 sub	 rax, rcx
  002fe	48 2b 84 24 80
	00 00 00	 sub	 rax, QWORD PTR needed$[rsp]
  00306	48 8b 8c 24 c0
	00 00 00	 mov	 rcx, QWORD PTR self$[rsp]
  0030e	48 8b 89 80 00
	00 00		 mov	 rcx, QWORD PTR [rcx+128]
  00315	48 03 8c 24 d0
	00 00 00	 add	 rcx, QWORD PTR hi$[rsp]
  0031d	48 8b 94 24 c0
	00 00 00	 mov	 rdx, QWORD PTR self$[rsp]
  00325	48 8b 92 80 00
	00 00		 mov	 rdx, QWORD PTR [rdx+128]
  0032c	48 03 94 24 c8
	00 00 00	 add	 rdx, QWORD PTR lo$[rsp]
  00334	48 03 94 24 80
	00 00 00	 add	 rdx, QWORD PTR needed$[rsp]
  0033c	48 89 94 24 a0
	00 00 00	 mov	 QWORD PTR tv156[rsp], rdx
  00344	4c 8b c0	 mov	 r8, rax
  00347	48 8b d1	 mov	 rdx, rcx
  0034a	48 8b 84 24 a0
	00 00 00	 mov	 rax, QWORD PTR tv156[rsp]
  00352	48 8b c8	 mov	 rcx, rax
  00355	ff 15 00 00 00
	00		 call	 QWORD PTR __imp_memmove
$LN3@bytearray_@8:
$LN7@bytearray_@8:

; 504  :         }
; 505  :     }
; 506  : 
; 507  :     if (needed > 0)

  0035b	48 83 bc 24 80
	00 00 00 00	 cmp	 QWORD PTR needed$[rsp], 0
  00364	7e 2c		 jle	 SHORT $LN2@bytearray_@8

; 508  :         memcpy(self->ob_bytes + lo, bytes, needed);

  00366	48 8b 84 24 c0
	00 00 00	 mov	 rax, QWORD PTR self$[rsp]
  0036e	48 8b 80 80 00
	00 00		 mov	 rax, QWORD PTR [rax+128]
  00375	48 03 84 24 c8
	00 00 00	 add	 rax, QWORD PTR lo$[rsp]
  0037d	4c 8b 84 24 80
	00 00 00	 mov	 r8, QWORD PTR needed$[rsp]
  00385	48 8b 54 24 28	 mov	 rdx, QWORD PTR bytes$[rsp]
  0038a	48 8b c8	 mov	 rcx, rax
  0038d	e8 00 00 00 00	 call	 memcpy
$LN2@bytearray_@8:
$finish$20808:

; 509  : 
; 510  : 
; 511  :  finish:
; 512  :     if (vbytes.len != -1)

  00392	48 83 7c 24 40
	ff		 cmp	 QWORD PTR vbytes$[rsp+16], -1
  00398	74 0a		 je	 SHORT $LN1@bytearray_@8

; 513  :             PyBuffer_Release(&vbytes);

  0039a	48 8d 4c 24 30	 lea	 rcx, QWORD PTR vbytes$[rsp]
  0039f	e8 00 00 00 00	 call	 PyBuffer_Release
$LN1@bytearray_@8:

; 514  :     return res;

  003a4	8b 44 24 20	 mov	 eax, DWORD PTR res$[rsp]
$LN17@bytearray_@8:

; 515  : }

  003a8	48 81 c4 b8 00
	00 00		 add	 rsp, 184		; 000000b8H
  003af	c3		 ret	 0
bytearray_setslice ENDP
_TEXT	ENDS
PUBLIC	??_C@_0EC@MMHHEENM@attempt?5to?5assign?5bytes?5of?5size?5@ ; `string'
PUBLIC	??_C@_1DE@DJMCGLHN@?$AAP?$AAy?$AAB?$AAy?$AAt?$AAe?$AAA?$AAr?$AAr?$AAa?$AAy?$AA_?$AAC?$AAh?$AAe?$AAc?$AAk?$AA?$CI?$AAv?$AAa?$AAl?$AAu?$AAe?$AAs?$AA?$CJ?$AA?$AA@ ; `string'
PUBLIC	??_C@_0EG@MMMHLNMC@can?5assign?5only?5bytes?0?5buffers?0?5@ ; `string'
PUBLIC	??_C@_0CC@OJNNAELI@bytearray?5indices?5must?5be?5intege@ ; `string'
EXTRN	PyNumber_Check:PROC
;	COMDAT pdata
pdata	SEGMENT
$pdata$bytearray_ass_subscript DD imagerel bytearray_ass_subscript
	DD	imagerel bytearray_ass_subscript+2597
	DD	imagerel $unwind$bytearray_ass_subscript
pdata	ENDS
;	COMDAT xdata
xdata	SEGMENT
$unwind$bytearray_ass_subscript DD 021601H
	DD	0170116H
xdata	ENDS
;	COMDAT ??_C@_0EC@MMHHEENM@attempt?5to?5assign?5bytes?5of?5size?5@
CONST	SEGMENT
??_C@_0EC@MMHHEENM@attempt?5to?5assign?5bytes?5of?5size?5@ DB 'attempt to'
	DB	' assign bytes of size %zd to extended slice of size %zd', 00H ; `string'
CONST	ENDS
;	COMDAT ??_C@_1DE@DJMCGLHN@?$AAP?$AAy?$AAB?$AAy?$AAt?$AAe?$AAA?$AAr?$AAr?$AAa?$AAy?$AA_?$AAC?$AAh?$AAe?$AAc?$AAk?$AA?$CI?$AAv?$AAa?$AAl?$AAu?$AAe?$AAs?$AA?$CJ?$AA?$AA@
CONST	SEGMENT
??_C@_1DE@DJMCGLHN@?$AAP?$AAy?$AAB?$AAy?$AAt?$AAe?$AAA?$AAr?$AAr?$AAa?$AAy?$AA_?$AAC?$AAh?$AAe?$AAc?$AAk?$AA?$CI?$AAv?$AAa?$AAl?$AAu?$AAe?$AAs?$AA?$CJ?$AA?$AA@ DB 'P'
	DB	00H, 'y', 00H, 'B', 00H, 'y', 00H, 't', 00H, 'e', 00H, 'A', 00H
	DB	'r', 00H, 'r', 00H, 'a', 00H, 'y', 00H, '_', 00H, 'C', 00H, 'h'
	DB	00H, 'e', 00H, 'c', 00H, 'k', 00H, '(', 00H, 'v', 00H, 'a', 00H
	DB	'l', 00H, 'u', 00H, 'e', 00H, 's', 00H, ')', 00H, 00H, 00H ; `string'
CONST	ENDS
;	COMDAT ??_C@_0EG@MMMHLNMC@can?5assign?5only?5bytes?0?5buffers?0?5@
CONST	SEGMENT
??_C@_0EG@MMMHLNMC@can?5assign?5only?5bytes?0?5buffers?0?5@ DB 'can assig'
	DB	'n only bytes, buffers, or iterables of ints in range(0, 256)', 00H ; `string'
CONST	ENDS
;	COMDAT ??_C@_0CC@OJNNAELI@bytearray?5indices?5must?5be?5intege@
CONST	SEGMENT
??_C@_0CC@OJNNAELI@bytearray?5indices?5must?5be?5intege@ DB 'bytearray in'
	DB	'dices must be integer', 00H			; `string'
; Function compile flags: /Odtp
CONST	ENDS
;	COMDAT bytearray_ass_subscript
_TEXT	SEGMENT
step$ = 48
stop$ = 56
start$ = 64
bytes$ = 72
needed$ = 80
slicelen$ = 88
i$20852 = 96
ival$20865 = 104
err$20887 = 108
i$20919 = 112
cur$20918 = 120
lim$20926 = 128
i$20955 = 136
cur$20956 = 144
tv218 = 152
tv237 = 160
tv332 = 168
self$ = 192
index$ = 200
values$ = 208
bytearray_ass_subscript PROC				; COMDAT

; 542  : {

  00000	4c 89 44 24 18	 mov	 QWORD PTR [rsp+24], r8
  00005	48 89 54 24 10	 mov	 QWORD PTR [rsp+16], rdx
  0000a	48 89 4c 24 08	 mov	 QWORD PTR [rsp+8], rcx
  0000f	48 81 ec b8 00
	00 00		 sub	 rsp, 184		; 000000b8H

; 543  :     Py_ssize_t start, stop, step, slicelen, needed;
; 544  :     char *bytes;
; 545  : 
; 546  :     if (PyIndex_Check(index)) {

  00016	48 8b 84 24 c8
	00 00 00	 mov	 rax, QWORD PTR index$[rsp]
  0001e	48 8b 40 58	 mov	 rax, QWORD PTR [rax+88]
  00022	48 83 b8 b8 00
	00 00 00	 cmp	 QWORD PTR [rax+184], 0
  0002a	0f 84 7d 01 00
	00		 je	 $LN46@bytearray_@9
  00030	48 8b 84 24 c8
	00 00 00	 mov	 rax, QWORD PTR index$[rsp]
  00038	48 8b 40 58	 mov	 rax, QWORD PTR [rax+88]
  0003c	48 8b 80 b8 00
	00 00		 mov	 rax, QWORD PTR [rax+184]
  00043	48 83 b8 08 01
	00 00 00	 cmp	 QWORD PTR [rax+264], 0
  0004b	0f 84 5c 01 00
	00		 je	 $LN46@bytearray_@9

; 547  :         Py_ssize_t i = PyNumber_AsSsize_t(index, PyExc_IndexError);

  00051	48 8b 15 00 00
	00 00		 mov	 rdx, QWORD PTR PyExc_IndexError
  00058	48 8b 8c 24 c8
	00 00 00	 mov	 rcx, QWORD PTR index$[rsp]
  00060	e8 00 00 00 00	 call	 PyNumber_AsSsize_t
  00065	48 89 44 24 60	 mov	 QWORD PTR i$20852[rsp], rax

; 548  : 
; 549  :         if (i == -1 && PyErr_Occurred())

  0006a	48 83 7c 24 60
	ff		 cmp	 QWORD PTR i$20852[rsp], -1
  00070	75 14		 jne	 SHORT $LN45@bytearray_@9
  00072	e8 00 00 00 00	 call	 PyErr_Occurred
  00077	48 85 c0	 test	 rax, rax
  0007a	74 0a		 je	 SHORT $LN45@bytearray_@9

; 550  :             return -1;

  0007c	b8 ff ff ff ff	 mov	 eax, -1
  00081	e9 97 09 00 00	 jmp	 $LN47@bytearray_@9
$LN45@bytearray_@9:

; 551  : 
; 552  :         if (i < 0)

  00086	48 83 7c 24 60
	00		 cmp	 QWORD PTR i$20852[rsp], 0
  0008c	7d 69		 jge	 SHORT $LN44@bytearray_@9

; 553  :             i += PyByteArray_GET_SIZE(self);

  0008e	48 8d 05 00 00
	00 00		 lea	 rax, OFFSET FLAT:PyByteArray_Type
  00095	48 8b 8c 24 c0
	00 00 00	 mov	 rcx, QWORD PTR self$[rsp]
  0009d	48 39 41 58	 cmp	 QWORD PTR [rcx+88], rax
  000a1	74 38		 je	 SHORT $LN49@bytearray_@9
  000a3	48 8d 15 00 00
	00 00		 lea	 rdx, OFFSET FLAT:PyByteArray_Type
  000aa	48 8b 84 24 c0
	00 00 00	 mov	 rax, QWORD PTR self$[rsp]
  000b2	48 8b 48 58	 mov	 rcx, QWORD PTR [rax+88]
  000b6	e8 00 00 00 00	 call	 PyType_IsSubtype
  000bb	85 c0		 test	 eax, eax
  000bd	75 1c		 jne	 SHORT $LN49@bytearray_@9
  000bf	41 b8 29 02 00
	00		 mov	 r8d, 553		; 00000229H
  000c5	48 8d 15 00 00
	00 00		 lea	 rdx, OFFSET FLAT:??_C@_1DK@NEEHIPOB@?$AA?4?$AA?4?$AA?2?$AAO?$AAb?$AAj?$AAe?$AAc?$AAt?$AAs?$AA?2?$AAb?$AAy?$AAt?$AAe?$AAa?$AAr?$AAr?$AAa?$AAy?$AAo?$AAb?$AAj?$AAe?$AAc?$AAt?$AA?4?$AAc?$AA?$AA@
  000cc	48 8d 0d 00 00
	00 00		 lea	 rcx, OFFSET FLAT:??_C@_1DA@DMKHKEDP@?$AAP?$AAy?$AAB?$AAy?$AAt?$AAe?$AAA?$AAr?$AAr?$AAa?$AAy?$AA_?$AAC?$AAh?$AAe?$AAc?$AAk?$AA?$CI?$AAs?$AAe?$AAl?$AAf?$AA?$CJ?$AA?$AA@
  000d3	ff 15 00 00 00
	00		 call	 QWORD PTR __imp__wassert
  000d9	33 c0		 xor	 eax, eax
$LN49@bytearray_@9:
  000db	48 8b 84 24 c0
	00 00 00	 mov	 rax, QWORD PTR self$[rsp]
  000e3	48 8b 40 60	 mov	 rax, QWORD PTR [rax+96]
  000e7	48 8b 4c 24 60	 mov	 rcx, QWORD PTR i$20852[rsp]
  000ec	48 03 c8	 add	 rcx, rax
  000ef	48 8b c1	 mov	 rax, rcx
  000f2	48 89 44 24 60	 mov	 QWORD PTR i$20852[rsp], rax
$LN44@bytearray_@9:

; 554  : 
; 555  :         if (i < 0 || i >= Py_SIZE(self)) {

  000f7	48 83 7c 24 60
	00		 cmp	 QWORD PTR i$20852[rsp], 0
  000fd	7c 13		 jl	 SHORT $LN42@bytearray_@9
  000ff	48 8b 84 24 c0
	00 00 00	 mov	 rax, QWORD PTR self$[rsp]
  00107	48 8b 40 60	 mov	 rax, QWORD PTR [rax+96]
  0010b	48 39 44 24 60	 cmp	 QWORD PTR i$20852[rsp], rax
  00110	7c 1d		 jl	 SHORT $LN43@bytearray_@9
$LN42@bytearray_@9:

; 556  :             PyErr_SetString(PyExc_IndexError, "bytearray index out of range");

  00112	48 8d 15 00 00
	00 00		 lea	 rdx, OFFSET FLAT:??_C@_0BN@DBGBDBKF@bytearray?5index?5out?5of?5range?$AA@
  00119	48 8b 0d 00 00
	00 00		 mov	 rcx, QWORD PTR PyExc_IndexError
  00120	e8 00 00 00 00	 call	 PyErr_SetString

; 557  :             return -1;

  00125	b8 ff ff ff ff	 mov	 eax, -1
  0012a	e9 ee 08 00 00	 jmp	 $LN47@bytearray_@9
$LN43@bytearray_@9:

; 558  :         }
; 559  : 
; 560  :         if (values == NULL) {

  0012f	48 83 bc 24 d0
	00 00 00 00	 cmp	 QWORD PTR values$[rsp], 0
  00138	75 2b		 jne	 SHORT $LN41@bytearray_@9

; 561  :             /* Fall through to slice assignment */
; 562  :             start = i;

  0013a	48 8b 44 24 60	 mov	 rax, QWORD PTR i$20852[rsp]
  0013f	48 89 44 24 40	 mov	 QWORD PTR start$[rsp], rax

; 563  :             stop = i + 1;

  00144	48 8b 44 24 60	 mov	 rax, QWORD PTR i$20852[rsp]
  00149	48 ff c0	 inc	 rax
  0014c	48 89 44 24 38	 mov	 QWORD PTR stop$[rsp], rax

; 564  :             step = 1;

  00151	48 c7 44 24 30
	01 00 00 00	 mov	 QWORD PTR step$[rsp], 1

; 565  :             slicelen = 1;

  0015a	48 c7 44 24 58
	01 00 00 00	 mov	 QWORD PTR slicelen$[rsp], 1

; 566  :         }
; 567  :         else {

  00163	eb 43		 jmp	 SHORT $LN40@bytearray_@9
$LN41@bytearray_@9:

; 568  :             int ival;
; 569  :             if (!_getbytevalue(values, &ival))

  00165	48 8d 54 24 68	 lea	 rdx, QWORD PTR ival$20865[rsp]
  0016a	48 8b 8c 24 d0
	00 00 00	 mov	 rcx, QWORD PTR values$[rsp]
  00172	e8 00 00 00 00	 call	 _getbytevalue
  00177	85 c0		 test	 eax, eax
  00179	75 0a		 jne	 SHORT $LN39@bytearray_@9

; 570  :                 return -1;

  0017b	b8 ff ff ff ff	 mov	 eax, -1
  00180	e9 98 08 00 00	 jmp	 $LN47@bytearray_@9
$LN39@bytearray_@9:

; 571  :             self->ob_bytes[i] = (char)ival;

  00185	48 8b 84 24 c0
	00 00 00	 mov	 rax, QWORD PTR self$[rsp]
  0018d	48 8b 80 80 00
	00 00		 mov	 rax, QWORD PTR [rax+128]
  00194	48 8b 4c 24 60	 mov	 rcx, QWORD PTR i$20852[rsp]
  00199	0f b6 54 24 68	 movzx	 edx, BYTE PTR ival$20865[rsp]
  0019e	88 14 08	 mov	 BYTE PTR [rax+rcx], dl

; 572  :             return 0;

  001a1	33 c0		 xor	 eax, eax
  001a3	e9 75 08 00 00	 jmp	 $LN47@bytearray_@9
$LN40@bytearray_@9:

; 573  :         }

  001a8	e9 ca 00 00 00	 jmp	 $LN38@bytearray_@9
$LN46@bytearray_@9:

; 574  :     }
; 575  :     else if (PySlice_Check(index)) {

  001ad	48 8d 05 00 00
	00 00		 lea	 rax, OFFSET FLAT:PySlice_Type
  001b4	48 8b 8c 24 c8
	00 00 00	 mov	 rcx, QWORD PTR index$[rsp]
  001bc	48 39 41 58	 cmp	 QWORD PTR [rcx+88], rax
  001c0	0f 85 94 00 00
	00		 jne	 $LN37@bytearray_@9

; 576  :         if (PySlice_GetIndicesEx(index,
; 577  :                                  PyByteArray_GET_SIZE(self),
; 578  :                                  &start, &stop, &step, &slicelen) < 0) {

  001c6	48 8d 05 00 00
	00 00		 lea	 rax, OFFSET FLAT:PyByteArray_Type
  001cd	48 8b 8c 24 c0
	00 00 00	 mov	 rcx, QWORD PTR self$[rsp]
  001d5	48 39 41 58	 cmp	 QWORD PTR [rcx+88], rax
  001d9	74 38		 je	 SHORT $LN50@bytearray_@9
  001db	48 8d 15 00 00
	00 00		 lea	 rdx, OFFSET FLAT:PyByteArray_Type
  001e2	48 8b 84 24 c0
	00 00 00	 mov	 rax, QWORD PTR self$[rsp]
  001ea	48 8b 48 58	 mov	 rcx, QWORD PTR [rax+88]
  001ee	e8 00 00 00 00	 call	 PyType_IsSubtype
  001f3	85 c0		 test	 eax, eax
  001f5	75 1c		 jne	 SHORT $LN50@bytearray_@9
  001f7	41 b8 41 02 00
	00		 mov	 r8d, 577		; 00000241H
  001fd	48 8d 15 00 00
	00 00		 lea	 rdx, OFFSET FLAT:??_C@_1DK@NEEHIPOB@?$AA?4?$AA?4?$AA?2?$AAO?$AAb?$AAj?$AAe?$AAc?$AAt?$AAs?$AA?2?$AAb?$AAy?$AAt?$AAe?$AAa?$AAr?$AAr?$AAa?$AAy?$AAo?$AAb?$AAj?$AAe?$AAc?$AAt?$AA?4?$AAc?$AA?$AA@
  00204	48 8d 0d 00 00
	00 00		 lea	 rcx, OFFSET FLAT:??_C@_1DA@DMKHKEDP@?$AAP?$AAy?$AAB?$AAy?$AAt?$AAe?$AAA?$AAr?$AAr?$AAa?$AAy?$AA_?$AAC?$AAh?$AAe?$AAc?$AAk?$AA?$CI?$AAs?$AAe?$AAl?$AAf?$AA?$CJ?$AA?$AA@
  0020b	ff 15 00 00 00
	00		 call	 QWORD PTR __imp__wassert
  00211	33 c0		 xor	 eax, eax
$LN50@bytearray_@9:
  00213	48 8d 44 24 58	 lea	 rax, QWORD PTR slicelen$[rsp]
  00218	48 89 44 24 28	 mov	 QWORD PTR [rsp+40], rax
  0021d	48 8d 44 24 30	 lea	 rax, QWORD PTR step$[rsp]
  00222	48 89 44 24 20	 mov	 QWORD PTR [rsp+32], rax
  00227	4c 8d 4c 24 38	 lea	 r9, QWORD PTR stop$[rsp]
  0022c	4c 8d 44 24 40	 lea	 r8, QWORD PTR start$[rsp]
  00231	48 8b 84 24 c0
	00 00 00	 mov	 rax, QWORD PTR self$[rsp]
  00239	48 8b 50 60	 mov	 rdx, QWORD PTR [rax+96]
  0023d	48 8b 8c 24 c8
	00 00 00	 mov	 rcx, QWORD PTR index$[rsp]
  00245	e8 00 00 00 00	 call	 PySlice_GetIndicesEx
  0024a	85 c0		 test	 eax, eax
  0024c	7d 0a		 jge	 SHORT $LN36@bytearray_@9

; 579  :             return -1;

  0024e	b8 ff ff ff ff	 mov	 eax, -1
  00253	e9 c5 07 00 00	 jmp	 $LN47@bytearray_@9
$LN36@bytearray_@9:

; 580  :         }
; 581  :     }
; 582  :     else {

  00258	eb 1d		 jmp	 SHORT $LN35@bytearray_@9
$LN37@bytearray_@9:

; 583  :         PyErr_SetString(PyExc_TypeError, "bytearray indices must be integer");

  0025a	48 8d 15 00 00
	00 00		 lea	 rdx, OFFSET FLAT:??_C@_0CC@OJNNAELI@bytearray?5indices?5must?5be?5intege@
  00261	48 8b 0d 00 00
	00 00		 mov	 rcx, QWORD PTR PyExc_TypeError
  00268	e8 00 00 00 00	 call	 PyErr_SetString

; 584  :         return -1;

  0026d	b8 ff ff ff ff	 mov	 eax, -1
  00272	e9 a6 07 00 00	 jmp	 $LN47@bytearray_@9
$LN35@bytearray_@9:
$LN38@bytearray_@9:

; 585  :     }
; 586  : 
; 587  :     if (values == NULL) {

  00277	48 83 bc 24 d0
	00 00 00 00	 cmp	 QWORD PTR values$[rsp], 0
  00280	75 17		 jne	 SHORT $LN34@bytearray_@9

; 588  :         bytes = NULL;

  00282	48 c7 44 24 48
	00 00 00 00	 mov	 QWORD PTR bytes$[rsp], 0

; 589  :         needed = 0;

  0028b	48 c7 44 24 50
	00 00 00 00	 mov	 QWORD PTR needed$[rsp], 0
  00294	e9 69 01 00 00	 jmp	 $LN33@bytearray_@9
$LN34@bytearray_@9:

; 590  :     }
; 591  :     else if (values == (PyObject *)self || !PyByteArray_Check(values)) {

  00299	48 8b 84 24 c0
	00 00 00	 mov	 rax, QWORD PTR self$[rsp]
  002a1	48 39 84 24 d0
	00 00 00	 cmp	 QWORD PTR values$[rsp], rax
  002a9	74 39		 je	 SHORT $LN31@bytearray_@9
  002ab	48 8d 05 00 00
	00 00		 lea	 rax, OFFSET FLAT:PyByteArray_Type
  002b2	48 8b 8c 24 d0
	00 00 00	 mov	 rcx, QWORD PTR values$[rsp]
  002ba	48 39 41 58	 cmp	 QWORD PTR [rcx+88], rax
  002be	0f 84 cc 00 00
	00		 je	 $LN32@bytearray_@9
  002c4	48 8d 15 00 00
	00 00		 lea	 rdx, OFFSET FLAT:PyByteArray_Type
  002cb	48 8b 84 24 d0
	00 00 00	 mov	 rax, QWORD PTR values$[rsp]
  002d3	48 8b 48 58	 mov	 rcx, QWORD PTR [rax+88]
  002d7	e8 00 00 00 00	 call	 PyType_IsSubtype
  002dc	85 c0		 test	 eax, eax
  002de	0f 85 ac 00 00
	00		 jne	 $LN32@bytearray_@9
$LN31@bytearray_@9:

; 592  :         int err;
; 593  :         if (PyNumber_Check(values) || PyUnicode_Check(values)) {

  002e4	48 8b 8c 24 d0
	00 00 00	 mov	 rcx, QWORD PTR values$[rsp]
  002ec	e8 00 00 00 00	 call	 PyNumber_Check
  002f1	85 c0		 test	 eax, eax
  002f3	75 1b		 jne	 SHORT $LN29@bytearray_@9
  002f5	48 8b 84 24 d0
	00 00 00	 mov	 rax, QWORD PTR values$[rsp]
  002fd	48 8b 40 58	 mov	 rax, QWORD PTR [rax+88]
  00301	8b 80 00 01 00
	00		 mov	 eax, DWORD PTR [rax+256]
  00307	25 00 00 00 10	 and	 eax, 268435456		; 10000000H
  0030c	85 c0		 test	 eax, eax
  0030e	74 1d		 je	 SHORT $LN30@bytearray_@9
$LN29@bytearray_@9:

; 594  :             PyErr_SetString(PyExc_TypeError,
; 595  :                             "can assign only bytes, buffers, or iterables "
; 596  :                             "of ints in range(0, 256)");

  00310	48 8d 15 00 00
	00 00		 lea	 rdx, OFFSET FLAT:??_C@_0EG@MMMHLNMC@can?5assign?5only?5bytes?0?5buffers?0?5@
  00317	48 8b 0d 00 00
	00 00		 mov	 rcx, QWORD PTR PyExc_TypeError
  0031e	e8 00 00 00 00	 call	 PyErr_SetString

; 597  :             return -1;

  00323	b8 ff ff ff ff	 mov	 eax, -1
  00328	e9 f0 06 00 00	 jmp	 $LN47@bytearray_@9
$LN30@bytearray_@9:

; 598  :         }
; 599  :         /* Make a copy and call this function recursively */
; 600  :         values = PyByteArray_FromObject(values);

  0032d	48 8b 8c 24 d0
	00 00 00	 mov	 rcx, QWORD PTR values$[rsp]
  00335	e8 00 00 00 00	 call	 PyByteArray_FromObject
  0033a	48 89 84 24 d0
	00 00 00	 mov	 QWORD PTR values$[rsp], rax

; 601  :         if (values == NULL)

  00342	48 83 bc 24 d0
	00 00 00 00	 cmp	 QWORD PTR values$[rsp], 0
  0034b	75 0a		 jne	 SHORT $LN28@bytearray_@9

; 602  :             return -1;

  0034d	b8 ff ff ff ff	 mov	 eax, -1
  00352	e9 c6 06 00 00	 jmp	 $LN47@bytearray_@9
$LN28@bytearray_@9:

; 603  :         err = bytearray_ass_subscript(self, index, values);

  00357	4c 8b 84 24 d0
	00 00 00	 mov	 r8, QWORD PTR values$[rsp]
  0035f	48 8b 94 24 c8
	00 00 00	 mov	 rdx, QWORD PTR index$[rsp]
  00367	48 8b 8c 24 c0
	00 00 00	 mov	 rcx, QWORD PTR self$[rsp]
  0036f	e8 00 00 00 00	 call	 bytearray_ass_subscript
  00374	89 44 24 6c	 mov	 DWORD PTR err$20887[rsp], eax

; 604  :         Py_DECREF(values);

  00378	48 8b 8c 24 d0
	00 00 00	 mov	 rcx, QWORD PTR values$[rsp]
  00380	e8 00 00 00 00	 call	 _Py_DecRef

; 605  :         return err;

  00385	8b 44 24 6c	 mov	 eax, DWORD PTR err$20887[rsp]
  00389	e9 8f 06 00 00	 jmp	 $LN47@bytearray_@9

; 606  :     }
; 607  :     else {

  0038e	eb 72		 jmp	 SHORT $LN27@bytearray_@9
$LN32@bytearray_@9:

; 608  :         assert(PyByteArray_Check(values));

  00390	48 8d 05 00 00
	00 00		 lea	 rax, OFFSET FLAT:PyByteArray_Type
  00397	48 8b 8c 24 d0
	00 00 00	 mov	 rcx, QWORD PTR values$[rsp]
  0039f	48 39 41 58	 cmp	 QWORD PTR [rcx+88], rax
  003a3	74 38		 je	 SHORT $LN51@bytearray_@9
  003a5	48 8d 15 00 00
	00 00		 lea	 rdx, OFFSET FLAT:PyByteArray_Type
  003ac	48 8b 84 24 d0
	00 00 00	 mov	 rax, QWORD PTR values$[rsp]
  003b4	48 8b 48 58	 mov	 rcx, QWORD PTR [rax+88]
  003b8	e8 00 00 00 00	 call	 PyType_IsSubtype
  003bd	85 c0		 test	 eax, eax
  003bf	75 1c		 jne	 SHORT $LN51@bytearray_@9
  003c1	41 b8 60 02 00
	00		 mov	 r8d, 608		; 00000260H
  003c7	48 8d 15 00 00
	00 00		 lea	 rdx, OFFSET FLAT:??_C@_1DK@NEEHIPOB@?$AA?4?$AA?4?$AA?2?$AAO?$AAb?$AAj?$AAe?$AAc?$AAt?$AAs?$AA?2?$AAb?$AAy?$AAt?$AAe?$AAa?$AAr?$AAr?$AAa?$AAy?$AAo?$AAb?$AAj?$AAe?$AAc?$AAt?$AA?4?$AAc?$AA?$AA@
  003ce	48 8d 0d 00 00
	00 00		 lea	 rcx, OFFSET FLAT:??_C@_1DE@DJMCGLHN@?$AAP?$AAy?$AAB?$AAy?$AAt?$AAe?$AAA?$AAr?$AAr?$AAa?$AAy?$AA_?$AAC?$AAh?$AAe?$AAc?$AAk?$AA?$CI?$AAv?$AAa?$AAl?$AAu?$AAe?$AAs?$AA?$CJ?$AA?$AA@
  003d5	ff 15 00 00 00
	00		 call	 QWORD PTR __imp__wassert
  003db	33 c0		 xor	 eax, eax
$LN51@bytearray_@9:

; 609  :         bytes = ((PyByteArrayObject *)values)->ob_bytes;

  003dd	48 8b 84 24 d0
	00 00 00	 mov	 rax, QWORD PTR values$[rsp]
  003e5	48 8b 80 80 00
	00 00		 mov	 rax, QWORD PTR [rax+128]
  003ec	48 89 44 24 48	 mov	 QWORD PTR bytes$[rsp], rax

; 610  :         needed = Py_SIZE(values);

  003f1	48 8b 84 24 d0
	00 00 00	 mov	 rax, QWORD PTR values$[rsp]
  003f9	48 8b 40 60	 mov	 rax, QWORD PTR [rax+96]
  003fd	48 89 44 24 50	 mov	 QWORD PTR needed$[rsp], rax
$LN27@bytearray_@9:
$LN33@bytearray_@9:

; 611  :     }
; 612  :     /* Make sure b[5:2] = ... inserts before 5, not before 2. */
; 613  :     if ((step < 0 && start < stop) ||
; 614  :         (step > 0 && start > stop))

  00402	48 83 7c 24 30
	00		 cmp	 QWORD PTR step$[rsp], 0
  00408	7d 0c		 jge	 SHORT $LN24@bytearray_@9
  0040a	48 8b 44 24 38	 mov	 rax, QWORD PTR stop$[rsp]
  0040f	48 39 44 24 40	 cmp	 QWORD PTR start$[rsp], rax
  00414	7c 14		 jl	 SHORT $LN25@bytearray_@9
$LN24@bytearray_@9:
  00416	48 83 7c 24 30
	00		 cmp	 QWORD PTR step$[rsp], 0
  0041c	7e 16		 jle	 SHORT $LN26@bytearray_@9
  0041e	48 8b 44 24 38	 mov	 rax, QWORD PTR stop$[rsp]
  00423	48 39 44 24 40	 cmp	 QWORD PTR start$[rsp], rax
  00428	7e 0a		 jle	 SHORT $LN26@bytearray_@9
$LN25@bytearray_@9:

; 615  :         stop = start;

  0042a	48 8b 44 24 40	 mov	 rax, QWORD PTR start$[rsp]
  0042f	48 89 44 24 38	 mov	 QWORD PTR stop$[rsp], rax
$LN26@bytearray_@9:

; 616  :     if (step == 1) {

  00434	48 83 7c 24 30
	01		 cmp	 QWORD PTR step$[rsp], 1
  0043a	0f 85 76 01 00
	00		 jne	 $LN23@bytearray_@9

; 617  :         if (slicelen != needed) {

  00440	48 8b 44 24 50	 mov	 rax, QWORD PTR needed$[rsp]
  00445	48 39 44 24 58	 cmp	 QWORD PTR slicelen$[rsp], rax
  0044a	0f 84 2c 01 00
	00		 je	 $LN22@bytearray_@9

; 618  :             if (!_canresize(self))

  00450	48 8b 8c 24 c0
	00 00 00	 mov	 rcx, QWORD PTR self$[rsp]
  00458	e8 00 00 00 00	 call	 _canresize
  0045d	85 c0		 test	 eax, eax
  0045f	75 0a		 jne	 SHORT $LN21@bytearray_@9

; 619  :                 return -1;

  00461	b8 ff ff ff ff	 mov	 eax, -1
  00466	e9 b2 05 00 00	 jmp	 $LN47@bytearray_@9
$LN21@bytearray_@9:

; 620  :             if (slicelen > needed) {

  0046b	48 8b 44 24 50	 mov	 rax, QWORD PTR needed$[rsp]
  00470	48 39 44 24 58	 cmp	 QWORD PTR slicelen$[rsp], rax
  00475	7e 60		 jle	 SHORT $LN20@bytearray_@9

; 621  :                 /*
; 622  :                   0   start           stop              old_size
; 623  :                   |   |<---slicelen--->|<-----tomove------>|
; 624  :                   |   |<-needed->|<-----tomove------>|
; 625  :                   0   lo      new_hi              new_size
; 626  :                 */
; 627  :                 memmove(self->ob_bytes + start + needed, self->ob_bytes + stop,
; 628  :                         Py_SIZE(self) - stop);

  00477	48 8b 84 24 c0
	00 00 00	 mov	 rax, QWORD PTR self$[rsp]
  0047f	48 8b 4c 24 38	 mov	 rcx, QWORD PTR stop$[rsp]
  00484	48 8b 40 60	 mov	 rax, QWORD PTR [rax+96]
  00488	48 2b c1	 sub	 rax, rcx
  0048b	48 8b 8c 24 c0
	00 00 00	 mov	 rcx, QWORD PTR self$[rsp]
  00493	48 8b 89 80 00
	00 00		 mov	 rcx, QWORD PTR [rcx+128]
  0049a	48 03 4c 24 38	 add	 rcx, QWORD PTR stop$[rsp]
  0049f	48 8b 94 24 c0
	00 00 00	 mov	 rdx, QWORD PTR self$[rsp]
  004a7	48 8b 92 80 00
	00 00		 mov	 rdx, QWORD PTR [rdx+128]
  004ae	48 03 54 24 40	 add	 rdx, QWORD PTR start$[rsp]
  004b3	48 03 54 24 50	 add	 rdx, QWORD PTR needed$[rsp]
  004b8	48 89 94 24 98
	00 00 00	 mov	 QWORD PTR tv218[rsp], rdx
  004c0	4c 8b c0	 mov	 r8, rax
  004c3	48 8b d1	 mov	 rdx, rcx
  004c6	48 8b 84 24 98
	00 00 00	 mov	 rax, QWORD PTR tv218[rsp]
  004ce	48 8b c8	 mov	 rcx, rax
  004d1	ff 15 00 00 00
	00		 call	 QWORD PTR __imp_memmove
$LN20@bytearray_@9:

; 629  :             }
; 630  :             if (PyByteArray_Resize((PyObject *)self,
; 631  :                                Py_SIZE(self) + needed - slicelen) < 0)

  004d7	48 8b 84 24 c0
	00 00 00	 mov	 rax, QWORD PTR self$[rsp]
  004df	48 8b 40 60	 mov	 rax, QWORD PTR [rax+96]
  004e3	48 03 44 24 50	 add	 rax, QWORD PTR needed$[rsp]
  004e8	48 2b 44 24 58	 sub	 rax, QWORD PTR slicelen$[rsp]
  004ed	48 8b d0	 mov	 rdx, rax
  004f0	48 8b 8c 24 c0
	00 00 00	 mov	 rcx, QWORD PTR self$[rsp]
  004f8	e8 00 00 00 00	 call	 PyByteArray_Resize
  004fd	85 c0		 test	 eax, eax
  004ff	7d 0a		 jge	 SHORT $LN19@bytearray_@9

; 632  :                 return -1;

  00501	b8 ff ff ff ff	 mov	 eax, -1
  00506	e9 12 05 00 00	 jmp	 $LN47@bytearray_@9
$LN19@bytearray_@9:

; 633  :             if (slicelen < needed) {

  0050b	48 8b 44 24 50	 mov	 rax, QWORD PTR needed$[rsp]
  00510	48 39 44 24 58	 cmp	 QWORD PTR slicelen$[rsp], rax
  00515	7d 65		 jge	 SHORT $LN18@bytearray_@9

; 634  :                 /*
; 635  :                   0   lo        hi               old_size
; 636  :                   |   |<-avail->|<-----tomove------>|
; 637  :                   |   |<----needed---->|<-----tomove------>|
; 638  :                   0   lo            new_hi              new_size
; 639  :                  */
; 640  :                 memmove(self->ob_bytes + start + needed, self->ob_bytes + stop,
; 641  :                         Py_SIZE(self) - start - needed);

  00517	48 8b 84 24 c0
	00 00 00	 mov	 rax, QWORD PTR self$[rsp]
  0051f	48 8b 4c 24 40	 mov	 rcx, QWORD PTR start$[rsp]
  00524	48 8b 40 60	 mov	 rax, QWORD PTR [rax+96]
  00528	48 2b c1	 sub	 rax, rcx
  0052b	48 2b 44 24 50	 sub	 rax, QWORD PTR needed$[rsp]
  00530	48 8b 8c 24 c0
	00 00 00	 mov	 rcx, QWORD PTR self$[rsp]
  00538	48 8b 89 80 00
	00 00		 mov	 rcx, QWORD PTR [rcx+128]
  0053f	48 03 4c 24 38	 add	 rcx, QWORD PTR stop$[rsp]
  00544	48 8b 94 24 c0
	00 00 00	 mov	 rdx, QWORD PTR self$[rsp]
  0054c	48 8b 92 80 00
	00 00		 mov	 rdx, QWORD PTR [rdx+128]
  00553	48 03 54 24 40	 add	 rdx, QWORD PTR start$[rsp]
  00558	48 03 54 24 50	 add	 rdx, QWORD PTR needed$[rsp]
  0055d	48 89 94 24 a0
	00 00 00	 mov	 QWORD PTR tv237[rsp], rdx
  00565	4c 8b c0	 mov	 r8, rax
  00568	48 8b d1	 mov	 rdx, rcx
  0056b	48 8b 84 24 a0
	00 00 00	 mov	 rax, QWORD PTR tv237[rsp]
  00573	48 8b c8	 mov	 rcx, rax
  00576	ff 15 00 00 00
	00		 call	 QWORD PTR __imp_memmove
$LN18@bytearray_@9:
$LN22@bytearray_@9:

; 642  :             }
; 643  :         }
; 644  : 
; 645  :         if (needed > 0)

  0057c	48 83 7c 24 50
	00		 cmp	 QWORD PTR needed$[rsp], 0
  00582	7e 26		 jle	 SHORT $LN17@bytearray_@9

; 646  :             memcpy(self->ob_bytes + start, bytes, needed);

  00584	48 8b 84 24 c0
	00 00 00	 mov	 rax, QWORD PTR self$[rsp]
  0058c	48 8b 80 80 00
	00 00		 mov	 rax, QWORD PTR [rax+128]
  00593	48 03 44 24 40	 add	 rax, QWORD PTR start$[rsp]
  00598	4c 8b 44 24 50	 mov	 r8, QWORD PTR needed$[rsp]
  0059d	48 8b 54 24 48	 mov	 rdx, QWORD PTR bytes$[rsp]
  005a2	48 8b c8	 mov	 rcx, rax
  005a5	e8 00 00 00 00	 call	 memcpy
$LN17@bytearray_@9:

; 647  : 
; 648  :         return 0;

  005aa	33 c0		 xor	 eax, eax
  005ac	e9 6c 04 00 00	 jmp	 $LN47@bytearray_@9

; 649  :     }
; 650  :     else {

  005b1	e9 67 04 00 00	 jmp	 $LN16@bytearray_@9
$LN23@bytearray_@9:

; 651  :         if (needed == 0) {

  005b6	48 83 7c 24 50
	00		 cmp	 QWORD PTR needed$[rsp], 0
  005bc	0f 85 9c 03 00
	00		 jne	 $LN15@bytearray_@9

; 652  :             /* Delete slice */
; 653  :             size_t cur;
; 654  :             Py_ssize_t i;
; 655  : 
; 656  :             if (!_canresize(self))

  005c2	48 8b 8c 24 c0
	00 00 00	 mov	 rcx, QWORD PTR self$[rsp]
  005ca	e8 00 00 00 00	 call	 _canresize
  005cf	85 c0		 test	 eax, eax
  005d1	75 0a		 jne	 SHORT $LN14@bytearray_@9

; 657  :                 return -1;

  005d3	b8 ff ff ff ff	 mov	 eax, -1
  005d8	e9 40 04 00 00	 jmp	 $LN47@bytearray_@9
$LN14@bytearray_@9:

; 658  : 
; 659  :             if (slicelen == 0)

  005dd	48 83 7c 24 58
	00		 cmp	 QWORD PTR slicelen$[rsp], 0
  005e3	75 07		 jne	 SHORT $LN13@bytearray_@9

; 660  :                 /* Nothing to do here. */
; 661  :                 return 0;

  005e5	33 c0		 xor	 eax, eax
  005e7	e9 31 04 00 00	 jmp	 $LN47@bytearray_@9
$LN13@bytearray_@9:

; 662  : 
; 663  :             if (step < 0) {

  005ec	48 83 7c 24 30
	00		 cmp	 QWORD PTR step$[rsp], 0
  005f2	7d 3d		 jge	 SHORT $LN12@bytearray_@9

; 664  :                 stop = start + 1;

  005f4	48 8b 44 24 40	 mov	 rax, QWORD PTR start$[rsp]
  005f9	48 ff c0	 inc	 rax
  005fc	48 89 44 24 38	 mov	 QWORD PTR stop$[rsp], rax

; 665  :                 start = stop + step * (slicelen - 1) - 1;

  00601	48 8b 44 24 58	 mov	 rax, QWORD PTR slicelen$[rsp]
  00606	48 ff c8	 dec	 rax
  00609	48 8b 4c 24 30	 mov	 rcx, QWORD PTR step$[rsp]
  0060e	48 0f af c8	 imul	 rcx, rax
  00612	48 8b c1	 mov	 rax, rcx
  00615	48 8b 4c 24 38	 mov	 rcx, QWORD PTR stop$[rsp]
  0061a	48 8d 44 01 ff	 lea	 rax, QWORD PTR [rcx+rax-1]
  0061f	48 89 44 24 40	 mov	 QWORD PTR start$[rsp], rax

; 666  :                 step = -step;

  00624	48 8b 44 24 30	 mov	 rax, QWORD PTR step$[rsp]
  00629	48 f7 d8	 neg	 rax
  0062c	48 89 44 24 30	 mov	 QWORD PTR step$[rsp], rax
$LN12@bytearray_@9:

; 667  :             }
; 668  :             for (cur = start, i = 0;
; 669  :                  i < slicelen; cur += step, i++) {

  00631	48 8b 44 24 40	 mov	 rax, QWORD PTR start$[rsp]
  00636	48 89 44 24 78	 mov	 QWORD PTR cur$20918[rsp], rax
  0063b	48 c7 44 24 70
	00 00 00 00	 mov	 QWORD PTR i$20919[rsp], 0
  00644	eb 22		 jmp	 SHORT $LN11@bytearray_@9
$LN10@bytearray_@9:
  00646	48 8b 44 24 30	 mov	 rax, QWORD PTR step$[rsp]
  0064b	48 8b 4c 24 78	 mov	 rcx, QWORD PTR cur$20918[rsp]
  00650	48 03 c8	 add	 rcx, rax
  00653	48 8b c1	 mov	 rax, rcx
  00656	48 89 44 24 78	 mov	 QWORD PTR cur$20918[rsp], rax
  0065b	48 8b 44 24 70	 mov	 rax, QWORD PTR i$20919[rsp]
  00660	48 ff c0	 inc	 rax
  00663	48 89 44 24 70	 mov	 QWORD PTR i$20919[rsp], rax
$LN11@bytearray_@9:
  00668	48 8b 44 24 58	 mov	 rax, QWORD PTR slicelen$[rsp]
  0066d	48 39 44 24 70	 cmp	 QWORD PTR i$20919[rsp], rax
  00672	0f 8d 2f 01 00
	00		 jge	 $LN9@bytearray_@9

; 670  :                 Py_ssize_t lim = step - 1;

  00678	48 8b 44 24 30	 mov	 rax, QWORD PTR step$[rsp]
  0067d	48 ff c8	 dec	 rax
  00680	48 89 84 24 80
	00 00 00	 mov	 QWORD PTR lim$20926[rsp], rax

; 671  : 
; 672  :                 if (cur + step >= (size_t)PyByteArray_GET_SIZE(self))

  00688	48 8d 05 00 00
	00 00		 lea	 rax, OFFSET FLAT:PyByteArray_Type
  0068f	48 8b 8c 24 c0
	00 00 00	 mov	 rcx, QWORD PTR self$[rsp]
  00697	48 39 41 58	 cmp	 QWORD PTR [rcx+88], rax
  0069b	74 38		 je	 SHORT $LN52@bytearray_@9
  0069d	48 8d 15 00 00
	00 00		 lea	 rdx, OFFSET FLAT:PyByteArray_Type
  006a4	48 8b 84 24 c0
	00 00 00	 mov	 rax, QWORD PTR self$[rsp]
  006ac	48 8b 48 58	 mov	 rcx, QWORD PTR [rax+88]
  006b0	e8 00 00 00 00	 call	 PyType_IsSubtype
  006b5	85 c0		 test	 eax, eax
  006b7	75 1c		 jne	 SHORT $LN52@bytearray_@9
  006b9	41 b8 a0 02 00
	00		 mov	 r8d, 672		; 000002a0H
  006bf	48 8d 15 00 00
	00 00		 lea	 rdx, OFFSET FLAT:??_C@_1DK@NEEHIPOB@?$AA?4?$AA?4?$AA?2?$AAO?$AAb?$AAj?$AAe?$AAc?$AAt?$AAs?$AA?2?$AAb?$AAy?$AAt?$AAe?$AAa?$AAr?$AAr?$AAa?$AAy?$AAo?$AAb?$AAj?$AAe?$AAc?$AAt?$AA?4?$AAc?$AA?$AA@
  006c6	48 8d 0d 00 00
	00 00		 lea	 rcx, OFFSET FLAT:??_C@_1DA@DMKHKEDP@?$AAP?$AAy?$AAB?$AAy?$AAt?$AAe?$AAA?$AAr?$AAr?$AAa?$AAy?$AA_?$AAC?$AAh?$AAe?$AAc?$AAk?$AA?$CI?$AAs?$AAe?$AAl?$AAf?$AA?$CJ?$AA?$AA@
  006cd	ff 15 00 00 00
	00		 call	 QWORD PTR __imp__wassert
  006d3	33 c0		 xor	 eax, eax
$LN52@bytearray_@9:
  006d5	48 8b 44 24 30	 mov	 rax, QWORD PTR step$[rsp]
  006da	48 8b 4c 24 78	 mov	 rcx, QWORD PTR cur$20918[rsp]
  006df	48 03 c8	 add	 rcx, rax
  006e2	48 8b c1	 mov	 rax, rcx
  006e5	48 8b 8c 24 c0
	00 00 00	 mov	 rcx, QWORD PTR self$[rsp]
  006ed	48 3b 41 60	 cmp	 rax, QWORD PTR [rcx+96]
  006f1	72 6c		 jb	 SHORT $LN8@bytearray_@9

; 673  :                     lim = PyByteArray_GET_SIZE(self) - cur - 1;

  006f3	48 8d 05 00 00
	00 00		 lea	 rax, OFFSET FLAT:PyByteArray_Type
  006fa	48 8b 8c 24 c0
	00 00 00	 mov	 rcx, QWORD PTR self$[rsp]
  00702	48 39 41 58	 cmp	 QWORD PTR [rcx+88], rax
  00706	74 38		 je	 SHORT $LN53@bytearray_@9
  00708	48 8d 15 00 00
	00 00		 lea	 rdx, OFFSET FLAT:PyByteArray_Type
  0070f	48 8b 84 24 c0
	00 00 00	 mov	 rax, QWORD PTR self$[rsp]
  00717	48 8b 48 58	 mov	 rcx, QWORD PTR [rax+88]
  0071b	e8 00 00 00 00	 call	 PyType_IsSubtype
  00720	85 c0		 test	 eax, eax
  00722	75 1c		 jne	 SHORT $LN53@bytearray_@9
  00724	41 b8 a1 02 00
	00		 mov	 r8d, 673		; 000002a1H
  0072a	48 8d 15 00 00
	00 00		 lea	 rdx, OFFSET FLAT:??_C@_1DK@NEEHIPOB@?$AA?4?$AA?4?$AA?2?$AAO?$AAb?$AAj?$AAe?$AAc?$AAt?$AAs?$AA?2?$AAb?$AAy?$AAt?$AAe?$AAa?$AAr?$AAr?$AAa?$AAy?$AAo?$AAb?$AAj?$AAe?$AAc?$AAt?$AA?4?$AAc?$AA?$AA@
  00731	48 8d 0d 00 00
	00 00		 lea	 rcx, OFFSET FLAT:??_C@_1DA@DMKHKEDP@?$AAP?$AAy?$AAB?$AAy?$AAt?$AAe?$AAA?$AAr?$AAr?$AAa?$AAy?$AA_?$AAC?$AAh?$AAe?$AAc?$AAk?$AA?$CI?$AAs?$AAe?$AAl?$AAf?$AA?$CJ?$AA?$AA@
  00738	ff 15 00 00 00
	00		 call	 QWORD PTR __imp__wassert
  0073e	33 c0		 xor	 eax, eax
$LN53@bytearray_@9:
  00740	48 8b 84 24 c0
	00 00 00	 mov	 rax, QWORD PTR self$[rsp]
  00748	48 8b 4c 24 78	 mov	 rcx, QWORD PTR cur$20918[rsp]
  0074d	48 8b 40 60	 mov	 rax, QWORD PTR [rax+96]
  00751	48 2b c1	 sub	 rax, rcx
  00754	48 ff c8	 dec	 rax
  00757	48 89 84 24 80
	00 00 00	 mov	 QWORD PTR lim$20926[rsp], rax
$LN8@bytearray_@9:

; 674  : 
; 675  :                 memmove(self->ob_bytes + cur - i,
; 676  :                         self->ob_bytes + cur + 1, lim);

  0075f	48 8b 84 24 c0
	00 00 00	 mov	 rax, QWORD PTR self$[rsp]
  00767	48 8b 80 80 00
	00 00		 mov	 rax, QWORD PTR [rax+128]
  0076e	48 8b 4c 24 78	 mov	 rcx, QWORD PTR cur$20918[rsp]
  00773	48 8d 44 08 01	 lea	 rax, QWORD PTR [rax+rcx+1]
  00778	48 8b 8c 24 c0
	00 00 00	 mov	 rcx, QWORD PTR self$[rsp]
  00780	48 8b 89 80 00
	00 00		 mov	 rcx, QWORD PTR [rcx+128]
  00787	48 03 4c 24 78	 add	 rcx, QWORD PTR cur$20918[rsp]
  0078c	48 2b 4c 24 70	 sub	 rcx, QWORD PTR i$20919[rsp]
  00791	4c 8b 84 24 80
	00 00 00	 mov	 r8, QWORD PTR lim$20926[rsp]
  00799	48 8b d0	 mov	 rdx, rax
  0079c	ff 15 00 00 00
	00		 call	 QWORD PTR __imp_memmove

; 677  :             }

  007a2	e9 9f fe ff ff	 jmp	 $LN10@bytearray_@9
$LN9@bytearray_@9:

; 678  :             /* Move the tail of the bytes, in one chunk */
; 679  :             cur = start + (size_t)slicelen*step;

  007a7	48 8b 44 24 58	 mov	 rax, QWORD PTR slicelen$[rsp]
  007ac	48 0f af 44 24
	30		 imul	 rax, QWORD PTR step$[rsp]
  007b2	48 8b 4c 24 40	 mov	 rcx, QWORD PTR start$[rsp]
  007b7	48 03 c8	 add	 rcx, rax
  007ba	48 8b c1	 mov	 rax, rcx
  007bd	48 89 44 24 78	 mov	 QWORD PTR cur$20918[rsp], rax

; 680  :             if (cur < (size_t)PyByteArray_GET_SIZE(self)) {

  007c2	48 8d 05 00 00
	00 00		 lea	 rax, OFFSET FLAT:PyByteArray_Type
  007c9	48 8b 8c 24 c0
	00 00 00	 mov	 rcx, QWORD PTR self$[rsp]
  007d1	48 39 41 58	 cmp	 QWORD PTR [rcx+88], rax
  007d5	74 38		 je	 SHORT $LN54@bytearray_@9
  007d7	48 8d 15 00 00
	00 00		 lea	 rdx, OFFSET FLAT:PyByteArray_Type
  007de	48 8b 84 24 c0
	00 00 00	 mov	 rax, QWORD PTR self$[rsp]
  007e6	48 8b 48 58	 mov	 rcx, QWORD PTR [rax+88]
  007ea	e8 00 00 00 00	 call	 PyType_IsSubtype
  007ef	85 c0		 test	 eax, eax
  007f1	75 1c		 jne	 SHORT $LN54@bytearray_@9
  007f3	41 b8 a8 02 00
	00		 mov	 r8d, 680		; 000002a8H
  007f9	48 8d 15 00 00
	00 00		 lea	 rdx, OFFSET FLAT:??_C@_1DK@NEEHIPOB@?$AA?4?$AA?4?$AA?2?$AAO?$AAb?$AAj?$AAe?$AAc?$AAt?$AAs?$AA?2?$AAb?$AAy?$AAt?$AAe?$AAa?$AAr?$AAr?$AAa?$AAy?$AAo?$AAb?$AAj?$AAe?$AAc?$AAt?$AA?4?$AAc?$AA?$AA@
  00800	48 8d 0d 00 00
	00 00		 lea	 rcx, OFFSET FLAT:??_C@_1DA@DMKHKEDP@?$AAP?$AAy?$AAB?$AAy?$AAt?$AAe?$AAA?$AAr?$AAr?$AAa?$AAy?$AA_?$AAC?$AAh?$AAe?$AAc?$AAk?$AA?$CI?$AAs?$AAe?$AAl?$AAf?$AA?$CJ?$AA?$AA@
  00807	ff 15 00 00 00
	00		 call	 QWORD PTR __imp__wassert
  0080d	33 c0		 xor	 eax, eax
$LN54@bytearray_@9:
  0080f	48 8b 84 24 c0
	00 00 00	 mov	 rax, QWORD PTR self$[rsp]
  00817	48 8b 40 60	 mov	 rax, QWORD PTR [rax+96]
  0081b	48 39 44 24 78	 cmp	 QWORD PTR cur$20918[rsp], rax
  00820	0f 83 ad 00 00
	00		 jae	 $LN7@bytearray_@9

; 681  :                 memmove(self->ob_bytes + cur - slicelen,
; 682  :                         self->ob_bytes + cur,
; 683  :                         PyByteArray_GET_SIZE(self) - cur);

  00826	48 8d 05 00 00
	00 00		 lea	 rax, OFFSET FLAT:PyByteArray_Type
  0082d	48 8b 8c 24 c0
	00 00 00	 mov	 rcx, QWORD PTR self$[rsp]
  00835	48 39 41 58	 cmp	 QWORD PTR [rcx+88], rax
  00839	74 38		 je	 SHORT $LN55@bytearray_@9
  0083b	48 8d 15 00 00
	00 00		 lea	 rdx, OFFSET FLAT:PyByteArray_Type
  00842	48 8b 84 24 c0
	00 00 00	 mov	 rax, QWORD PTR self$[rsp]
  0084a	48 8b 48 58	 mov	 rcx, QWORD PTR [rax+88]
  0084e	e8 00 00 00 00	 call	 PyType_IsSubtype
  00853	85 c0		 test	 eax, eax
  00855	75 1c		 jne	 SHORT $LN55@bytearray_@9
  00857	41 b8 ab 02 00
	00		 mov	 r8d, 683		; 000002abH
  0085d	48 8d 15 00 00
	00 00		 lea	 rdx, OFFSET FLAT:??_C@_1DK@NEEHIPOB@?$AA?4?$AA?4?$AA?2?$AAO?$AAb?$AAj?$AAe?$AAc?$AAt?$AAs?$AA?2?$AAb?$AAy?$AAt?$AAe?$AAa?$AAr?$AAr?$AAa?$AAy?$AAo?$AAb?$AAj?$AAe?$AAc?$AAt?$AA?4?$AAc?$AA?$AA@
  00864	48 8d 0d 00 00
	00 00		 lea	 rcx, OFFSET FLAT:??_C@_1DA@DMKHKEDP@?$AAP?$AAy?$AAB?$AAy?$AAt?$AAe?$AAA?$AAr?$AAr?$AAa?$AAy?$AA_?$AAC?$AAh?$AAe?$AAc?$AAk?$AA?$CI?$AAs?$AAe?$AAl?$AAf?$AA?$CJ?$AA?$AA@
  0086b	ff 15 00 00 00
	00		 call	 QWORD PTR __imp__wassert
  00871	33 c0		 xor	 eax, eax
$LN55@bytearray_@9:
  00873	48 8b 84 24 c0
	00 00 00	 mov	 rax, QWORD PTR self$[rsp]
  0087b	48 8b 4c 24 78	 mov	 rcx, QWORD PTR cur$20918[rsp]
  00880	48 8b 40 60	 mov	 rax, QWORD PTR [rax+96]
  00884	48 2b c1	 sub	 rax, rcx
  00887	48 8b 8c 24 c0
	00 00 00	 mov	 rcx, QWORD PTR self$[rsp]
  0088f	48 8b 89 80 00
	00 00		 mov	 rcx, QWORD PTR [rcx+128]
  00896	48 03 4c 24 78	 add	 rcx, QWORD PTR cur$20918[rsp]
  0089b	48 8b 94 24 c0
	00 00 00	 mov	 rdx, QWORD PTR self$[rsp]
  008a3	48 8b 92 80 00
	00 00		 mov	 rdx, QWORD PTR [rdx+128]
  008aa	48 03 54 24 78	 add	 rdx, QWORD PTR cur$20918[rsp]
  008af	48 2b 54 24 58	 sub	 rdx, QWORD PTR slicelen$[rsp]
  008b4	48 89 94 24 a8
	00 00 00	 mov	 QWORD PTR tv332[rsp], rdx
  008bc	4c 8b c0	 mov	 r8, rax
  008bf	48 8b d1	 mov	 rdx, rcx
  008c2	48 8b 84 24 a8
	00 00 00	 mov	 rax, QWORD PTR tv332[rsp]
  008ca	48 8b c8	 mov	 rcx, rax
  008cd	ff 15 00 00 00
	00		 call	 QWORD PTR __imp_memmove
$LN7@bytearray_@9:

; 684  :             }
; 685  :             if (PyByteArray_Resize((PyObject *)self,
; 686  :                                PyByteArray_GET_SIZE(self) - slicelen) < 0)

  008d3	48 8d 05 00 00
	00 00		 lea	 rax, OFFSET FLAT:PyByteArray_Type
  008da	48 8b 8c 24 c0
	00 00 00	 mov	 rcx, QWORD PTR self$[rsp]
  008e2	48 39 41 58	 cmp	 QWORD PTR [rcx+88], rax
  008e6	74 38		 je	 SHORT $LN56@bytearray_@9
  008e8	48 8d 15 00 00
	00 00		 lea	 rdx, OFFSET FLAT:PyByteArray_Type
  008ef	48 8b 84 24 c0
	00 00 00	 mov	 rax, QWORD PTR self$[rsp]
  008f7	48 8b 48 58	 mov	 rcx, QWORD PTR [rax+88]
  008fb	e8 00 00 00 00	 call	 PyType_IsSubtype
  00900	85 c0		 test	 eax, eax
  00902	75 1c		 jne	 SHORT $LN56@bytearray_@9
  00904	41 b8 ae 02 00
	00		 mov	 r8d, 686		; 000002aeH
  0090a	48 8d 15 00 00
	00 00		 lea	 rdx, OFFSET FLAT:??_C@_1DK@NEEHIPOB@?$AA?4?$AA?4?$AA?2?$AAO?$AAb?$AAj?$AAe?$AAc?$AAt?$AAs?$AA?2?$AAb?$AAy?$AAt?$AAe?$AAa?$AAr?$AAr?$AAa?$AAy?$AAo?$AAb?$AAj?$AAe?$AAc?$AAt?$AA?4?$AAc?$AA?$AA@
  00911	48 8d 0d 00 00
	00 00		 lea	 rcx, OFFSET FLAT:??_C@_1DA@DMKHKEDP@?$AAP?$AAy?$AAB?$AAy?$AAt?$AAe?$AAA?$AAr?$AAr?$AAa?$AAy?$AA_?$AAC?$AAh?$AAe?$AAc?$AAk?$AA?$CI?$AAs?$AAe?$AAl?$AAf?$AA?$CJ?$AA?$AA@
  00918	ff 15 00 00 00
	00		 call	 QWORD PTR __imp__wassert
  0091e	33 c0		 xor	 eax, eax
$LN56@bytearray_@9:
  00920	48 8b 84 24 c0
	00 00 00	 mov	 rax, QWORD PTR self$[rsp]
  00928	48 8b 4c 24 58	 mov	 rcx, QWORD PTR slicelen$[rsp]
  0092d	48 8b 40 60	 mov	 rax, QWORD PTR [rax+96]
  00931	48 2b c1	 sub	 rax, rcx
  00934	48 8b d0	 mov	 rdx, rax
  00937	48 8b 8c 24 c0
	00 00 00	 mov	 rcx, QWORD PTR self$[rsp]
  0093f	e8 00 00 00 00	 call	 PyByteArray_Resize
  00944	85 c0		 test	 eax, eax
  00946	7d 0a		 jge	 SHORT $LN6@bytearray_@9

; 687  :                 return -1;

  00948	b8 ff ff ff ff	 mov	 eax, -1
  0094d	e9 cb 00 00 00	 jmp	 $LN47@bytearray_@9
$LN6@bytearray_@9:

; 688  : 
; 689  :             return 0;

  00952	33 c0		 xor	 eax, eax
  00954	e9 c4 00 00 00	 jmp	 $LN47@bytearray_@9

; 690  :         }
; 691  :         else {

  00959	e9 bf 00 00 00	 jmp	 $LN5@bytearray_@9
$LN15@bytearray_@9:

; 692  :             /* Assign slice */
; 693  :             Py_ssize_t i;
; 694  :             size_t cur;
; 695  : 
; 696  :             if (needed != slicelen) {

  0095e	48 8b 44 24 58	 mov	 rax, QWORD PTR slicelen$[rsp]
  00963	48 39 44 24 50	 cmp	 QWORD PTR needed$[rsp], rax
  00968	74 27		 je	 SHORT $LN4@bytearray_@9

; 697  :                 PyErr_Format(PyExc_ValueError,
; 698  :                              "attempt to assign bytes of size %zd "
; 699  :                              "to extended slice of size %zd",
; 700  :                              needed, slicelen);

  0096a	4c 8b 4c 24 58	 mov	 r9, QWORD PTR slicelen$[rsp]
  0096f	4c 8b 44 24 50	 mov	 r8, QWORD PTR needed$[rsp]
  00974	48 8d 15 00 00
	00 00		 lea	 rdx, OFFSET FLAT:??_C@_0EC@MMHHEENM@attempt?5to?5assign?5bytes?5of?5size?5@
  0097b	48 8b 0d 00 00
	00 00		 mov	 rcx, QWORD PTR PyExc_ValueError
  00982	e8 00 00 00 00	 call	 PyErr_Format

; 701  :                 return -1;

  00987	b8 ff ff ff ff	 mov	 eax, -1
  0098c	e9 8c 00 00 00	 jmp	 $LN47@bytearray_@9
$LN4@bytearray_@9:

; 702  :             }
; 703  :             for (cur = start, i = 0; i < slicelen; cur += step, i++)

  00991	48 8b 44 24 40	 mov	 rax, QWORD PTR start$[rsp]
  00996	48 89 84 24 90
	00 00 00	 mov	 QWORD PTR cur$20956[rsp], rax
  0099e	48 c7 84 24 88
	00 00 00 00 00
	00 00		 mov	 QWORD PTR i$20955[rsp], 0
  009aa	eb 2e		 jmp	 SHORT $LN3@bytearray_@9
$LN2@bytearray_@9:
  009ac	48 8b 44 24 30	 mov	 rax, QWORD PTR step$[rsp]
  009b1	48 8b 8c 24 90
	00 00 00	 mov	 rcx, QWORD PTR cur$20956[rsp]
  009b9	48 03 c8	 add	 rcx, rax
  009bc	48 8b c1	 mov	 rax, rcx
  009bf	48 89 84 24 90
	00 00 00	 mov	 QWORD PTR cur$20956[rsp], rax
  009c7	48 8b 84 24 88
	00 00 00	 mov	 rax, QWORD PTR i$20955[rsp]
  009cf	48 ff c0	 inc	 rax
  009d2	48 89 84 24 88
	00 00 00	 mov	 QWORD PTR i$20955[rsp], rax
$LN3@bytearray_@9:
  009da	48 8b 44 24 58	 mov	 rax, QWORD PTR slicelen$[rsp]
  009df	48 39 84 24 88
	00 00 00	 cmp	 QWORD PTR i$20955[rsp], rax
  009e7	7d 32		 jge	 SHORT $LN1@bytearray_@9

; 704  :                 self->ob_bytes[cur] = bytes[i];

  009e9	48 8b 84 24 c0
	00 00 00	 mov	 rax, QWORD PTR self$[rsp]
  009f1	48 8b 80 80 00
	00 00		 mov	 rax, QWORD PTR [rax+128]
  009f8	48 8b 8c 24 88
	00 00 00	 mov	 rcx, QWORD PTR i$20955[rsp]
  00a00	48 8b 54 24 48	 mov	 rdx, QWORD PTR bytes$[rsp]
  00a05	48 03 d1	 add	 rdx, rcx
  00a08	48 8b ca	 mov	 rcx, rdx
  00a0b	48 8b 94 24 90
	00 00 00	 mov	 rdx, QWORD PTR cur$20956[rsp]
  00a13	0f b6 09	 movzx	 ecx, BYTE PTR [rcx]
  00a16	88 0c 10	 mov	 BYTE PTR [rax+rdx], cl
  00a19	eb 91		 jmp	 SHORT $LN2@bytearray_@9
$LN1@bytearray_@9:

; 705  :             return 0;

  00a1b	33 c0		 xor	 eax, eax
$LN5@bytearray_@9:
$LN16@bytearray_@9:
$LN47@bytearray_@9:

; 706  :         }
; 707  :     }
; 708  : }

  00a1d	48 81 c4 b8 00
	00 00		 add	 rsp, 184		; 000000b8H
  00a24	c3		 ret	 0
bytearray_ass_subscript ENDP
_TEXT	ENDS
PUBLIC	??_C@_0P@DIJHAIGC@negative?5count?$AA@		; `string'
PUBLIC	??_C@_0CN@GAIODIPO@encoding?5or?5errors?5without?5a?5str@ ; `string'
PUBLIC	??_C@_1CO@HFMJJPBH@?$AAP?$AAy?$AAB?$AAy?$AAt?$AAe?$AAs?$AA_?$AAC?$AAh?$AAe?$AAc?$AAk?$AA?$CI?$AAe?$AAn?$AAc?$AAo?$AAd?$AAe?$AAd?$AA?$CJ?$AA?$AA@ ; `string'
PUBLIC	??_C@_0CE@DBOLPEDK@string?5argument?5without?5an?5encod@ ; `string'
PUBLIC	??_C@_0CN@GEIFFAEN@encoding?5or?5errors?5without?5seque@ ; `string'
PUBLIC	??_C@_0P@KMGFKFIF@?$HMOss?3bytearray?$AA@	; `string'
EXTRN	PyExc_StopIteration:QWORD
EXTRN	PyObject_GetIter:PROC
EXTRN	PyBuffer_ToContiguous:PROC
EXTRN	PyObject_GetBuffer:PROC
EXTRN	PyErr_Clear:PROC
EXTRN	PyErr_ExceptionMatches:PROC
EXTRN	PyExc_OverflowError:QWORD
EXTRN	PyUnicode_AsEncodedString:PROC
EXTRN	_PyArg_ParseTupleAndKeywords_SizeT:PROC
;	COMDAT pdata
pdata	SEGMENT
$pdata$bytearray_init DD imagerel bytearray_init
	DD	imagerel bytearray_init+1261
	DD	imagerel $unwind$bytearray_init
pdata	ENDS
;	COMDAT xdata
xdata	SEGMENT
$unwind$bytearray_init DD 021601H
	DD	01f0116H
xdata	ENDS
;	COMDAT ??_C@_0P@DIJHAIGC@negative?5count?$AA@
CONST	SEGMENT
??_C@_0P@DIJHAIGC@negative?5count?$AA@ DB 'negative count', 00H ; `string'
CONST	ENDS
;	COMDAT ??_C@_0CN@GAIODIPO@encoding?5or?5errors?5without?5a?5str@
CONST	SEGMENT
??_C@_0CN@GAIODIPO@encoding?5or?5errors?5without?5a?5str@ DB 'encoding or'
	DB	' errors without a string argument', 00H	; `string'
CONST	ENDS
;	COMDAT ??_C@_1CO@HFMJJPBH@?$AAP?$AAy?$AAB?$AAy?$AAt?$AAe?$AAs?$AA_?$AAC?$AAh?$AAe?$AAc?$AAk?$AA?$CI?$AAe?$AAn?$AAc?$AAo?$AAd?$AAe?$AAd?$AA?$CJ?$AA?$AA@
CONST	SEGMENT
??_C@_1CO@HFMJJPBH@?$AAP?$AAy?$AAB?$AAy?$AAt?$AAe?$AAs?$AA_?$AAC?$AAh?$AAe?$AAc?$AAk?$AA?$CI?$AAe?$AAn?$AAc?$AAo?$AAd?$AAe?$AAd?$AA?$CJ?$AA?$AA@ DB 'P'
	DB	00H, 'y', 00H, 'B', 00H, 'y', 00H, 't', 00H, 'e', 00H, 's', 00H
	DB	'_', 00H, 'C', 00H, 'h', 00H, 'e', 00H, 'c', 00H, 'k', 00H, '('
	DB	00H, 'e', 00H, 'n', 00H, 'c', 00H, 'o', 00H, 'd', 00H, 'e', 00H
	DB	'd', 00H, ')', 00H, 00H, 00H			; `string'
CONST	ENDS
;	COMDAT ??_C@_0CE@DBOLPEDK@string?5argument?5without?5an?5encod@
CONST	SEGMENT
??_C@_0CE@DBOLPEDK@string?5argument?5without?5an?5encod@ DB 'string argum'
	DB	'ent without an encoding', 00H		; `string'
CONST	ENDS
;	COMDAT ??_C@_0CN@GEIFFAEN@encoding?5or?5errors?5without?5seque@
CONST	SEGMENT
??_C@_0CN@GEIFFAEN@encoding?5or?5errors?5without?5seque@ DB 'encoding or '
	DB	'errors without sequence argument', 00H	; `string'
CONST	ENDS
;	COMDAT ??_C@_0P@KMGFKFIF@?$HMOss?3bytearray?$AA@
CONST	SEGMENT
??_C@_0P@KMGFKFIF@?$HMOss?3bytearray?$AA@ DB '|Oss:bytearray', 00H ; `string'
; Function compile flags: /Odtp
CONST	ENDS
;	COMDAT bytearray_init
_TEXT	SEGMENT
it$ = 64
count$ = 72
iternext$ = 80
arg$ = 88
errors$ = 96
encoding$ = 104
encoded$21000 = 112
new$21001 = 120
size$21031 = 128
view$21032 = 144
value$21046 = 224
rc$21045 = 228
item$21044 = 232
self$ = 256
args$ = 264
kwds$ = 272
bytearray_init PROC					; COMDAT

; 712  : {

  00000	4c 89 44 24 18	 mov	 QWORD PTR [rsp+24], r8
  00005	48 89 54 24 10	 mov	 QWORD PTR [rsp+16], rdx
  0000a	48 89 4c 24 08	 mov	 QWORD PTR [rsp+8], rcx
  0000f	48 81 ec f8 00
	00 00		 sub	 rsp, 248		; 000000f8H

; 713  :     static char *kwlist[] = {"source", "encoding", "errors", 0};
; 714  :     PyObject *arg = NULL;

  00016	48 c7 44 24 58
	00 00 00 00	 mov	 QWORD PTR arg$[rsp], 0

; 715  :     const char *encoding = NULL;

  0001f	48 c7 44 24 68
	00 00 00 00	 mov	 QWORD PTR encoding$[rsp], 0

; 716  :     const char *errors = NULL;

  00028	48 c7 44 24 60
	00 00 00 00	 mov	 QWORD PTR errors$[rsp], 0

; 717  :     Py_ssize_t count;
; 718  :     PyObject *it;
; 719  :     PyObject *(*iternext)(PyObject *);
; 720  : 
; 721  :     if (Py_SIZE(self) != 0) {

  00031	48 8b 84 24 00
	01 00 00	 mov	 rax, QWORD PTR self$[rsp]
  00039	48 83 78 60 00	 cmp	 QWORD PTR [rax+96], 0
  0003e	74 1d		 je	 SHORT $LN33@bytearray_@10

; 722  :         /* Empty previous contents (yes, do this first of all!) */
; 723  :         if (PyByteArray_Resize((PyObject *)self, 0) < 0)

  00040	33 d2		 xor	 edx, edx
  00042	48 8b 8c 24 00
	01 00 00	 mov	 rcx, QWORD PTR self$[rsp]
  0004a	e8 00 00 00 00	 call	 PyByteArray_Resize
  0004f	85 c0		 test	 eax, eax
  00051	7d 0a		 jge	 SHORT $LN32@bytearray_@10

; 724  :             return -1;

  00053	b8 ff ff ff ff	 mov	 eax, -1
  00058	e9 88 04 00 00	 jmp	 $LN34@bytearray_@10
$LN32@bytearray_@10:
$LN33@bytearray_@10:

; 725  :     }
; 726  : 
; 727  :     /* Parse arguments */
; 728  :     if (!PyArg_ParseTupleAndKeywords(args, kwds, "|Oss:bytearray", kwlist,
; 729  :                                      &arg, &encoding, &errors))

  0005d	48 8d 44 24 60	 lea	 rax, QWORD PTR errors$[rsp]
  00062	48 89 44 24 30	 mov	 QWORD PTR [rsp+48], rax
  00067	48 8d 44 24 68	 lea	 rax, QWORD PTR encoding$[rsp]
  0006c	48 89 44 24 28	 mov	 QWORD PTR [rsp+40], rax
  00071	48 8d 44 24 58	 lea	 rax, QWORD PTR arg$[rsp]
  00076	48 89 44 24 20	 mov	 QWORD PTR [rsp+32], rax
  0007b	4c 8d 0d 00 00
	00 00		 lea	 r9, OFFSET FLAT:?kwlist@?1??bytearray_init@@9@9
  00082	4c 8d 05 00 00
	00 00		 lea	 r8, OFFSET FLAT:??_C@_0P@KMGFKFIF@?$HMOss?3bytearray?$AA@
  00089	48 8b 94 24 10
	01 00 00	 mov	 rdx, QWORD PTR kwds$[rsp]
  00091	48 8b 8c 24 08
	01 00 00	 mov	 rcx, QWORD PTR args$[rsp]
  00099	e8 00 00 00 00	 call	 _PyArg_ParseTupleAndKeywords_SizeT
  0009e	85 c0		 test	 eax, eax
  000a0	75 0a		 jne	 SHORT $LN31@bytearray_@10

; 730  :         return -1;

  000a2	b8 ff ff ff ff	 mov	 eax, -1
  000a7	e9 39 04 00 00	 jmp	 $LN34@bytearray_@10
$LN31@bytearray_@10:

; 731  : 
; 732  :     /* Make a quick exit if no first argument */
; 733  :     if (arg == NULL) {

  000ac	48 83 7c 24 58
	00		 cmp	 QWORD PTR arg$[rsp], 0
  000b2	75 34		 jne	 SHORT $LN30@bytearray_@10

; 734  :         if (encoding != NULL || errors != NULL) {

  000b4	48 83 7c 24 68
	00		 cmp	 QWORD PTR encoding$[rsp], 0
  000ba	75 08		 jne	 SHORT $LN28@bytearray_@10
  000bc	48 83 7c 24 60
	00		 cmp	 QWORD PTR errors$[rsp], 0
  000c2	74 1d		 je	 SHORT $LN29@bytearray_@10
$LN28@bytearray_@10:

; 735  :             PyErr_SetString(PyExc_TypeError,
; 736  :                             "encoding or errors without sequence argument");

  000c4	48 8d 15 00 00
	00 00		 lea	 rdx, OFFSET FLAT:??_C@_0CN@GEIFFAEN@encoding?5or?5errors?5without?5seque@
  000cb	48 8b 0d 00 00
	00 00		 mov	 rcx, QWORD PTR PyExc_TypeError
  000d2	e8 00 00 00 00	 call	 PyErr_SetString

; 737  :             return -1;

  000d7	b8 ff ff ff ff	 mov	 eax, -1
  000dc	e9 04 04 00 00	 jmp	 $LN34@bytearray_@10
$LN29@bytearray_@10:

; 738  :         }
; 739  :         return 0;

  000e1	33 c0		 xor	 eax, eax
  000e3	e9 fd 03 00 00	 jmp	 $LN34@bytearray_@10
$LN30@bytearray_@10:

; 740  :     }
; 741  : 
; 742  :     if (PyUnicode_Check(arg)) {

  000e8	48 8b 44 24 58	 mov	 rax, QWORD PTR arg$[rsp]
  000ed	48 8b 40 58	 mov	 rax, QWORD PTR [rax+88]
  000f1	8b 80 00 01 00
	00		 mov	 eax, DWORD PTR [rax+256]
  000f7	25 00 00 00 10	 and	 eax, 268435456		; 10000000H
  000fc	85 c0		 test	 eax, eax
  000fe	0f 84 c8 00 00
	00		 je	 $LN27@bytearray_@10

; 743  :         /* Encode via the codec registry */
; 744  :         PyObject *encoded, *new;
; 745  :         if (encoding == NULL) {

  00104	48 83 7c 24 68
	00		 cmp	 QWORD PTR encoding$[rsp], 0
  0010a	75 1d		 jne	 SHORT $LN26@bytearray_@10

; 746  :             PyErr_SetString(PyExc_TypeError,
; 747  :                             "string argument without an encoding");

  0010c	48 8d 15 00 00
	00 00		 lea	 rdx, OFFSET FLAT:??_C@_0CE@DBOLPEDK@string?5argument?5without?5an?5encod@
  00113	48 8b 0d 00 00
	00 00		 mov	 rcx, QWORD PTR PyExc_TypeError
  0011a	e8 00 00 00 00	 call	 PyErr_SetString

; 748  :             return -1;

  0011f	b8 ff ff ff ff	 mov	 eax, -1
  00124	e9 bc 03 00 00	 jmp	 $LN34@bytearray_@10
$LN26@bytearray_@10:

; 749  :         }
; 750  :         encoded = PyUnicode_AsEncodedString(arg, encoding, errors);

  00129	4c 8b 44 24 60	 mov	 r8, QWORD PTR errors$[rsp]
  0012e	48 8b 54 24 68	 mov	 rdx, QWORD PTR encoding$[rsp]
  00133	48 8b 4c 24 58	 mov	 rcx, QWORD PTR arg$[rsp]
  00138	e8 00 00 00 00	 call	 PyUnicode_AsEncodedString
  0013d	48 89 44 24 70	 mov	 QWORD PTR encoded$21000[rsp], rax

; 751  :         if (encoded == NULL)

  00142	48 83 7c 24 70
	00		 cmp	 QWORD PTR encoded$21000[rsp], 0
  00148	75 0a		 jne	 SHORT $LN25@bytearray_@10

; 752  :             return -1;

  0014a	b8 ff ff ff ff	 mov	 eax, -1
  0014f	e9 91 03 00 00	 jmp	 $LN34@bytearray_@10
$LN25@bytearray_@10:

; 753  :         assert(PyBytes_Check(encoded));

  00154	48 8b 44 24 70	 mov	 rax, QWORD PTR encoded$21000[rsp]
  00159	48 8b 40 58	 mov	 rax, QWORD PTR [rax+88]
  0015d	8b 80 00 01 00
	00		 mov	 eax, DWORD PTR [rax+256]
  00163	25 00 00 00 08	 and	 eax, 134217728		; 08000000H
  00168	85 c0		 test	 eax, eax
  0016a	75 1c		 jne	 SHORT $LN36@bytearray_@10
  0016c	41 b8 f1 02 00
	00		 mov	 r8d, 753		; 000002f1H
  00172	48 8d 15 00 00
	00 00		 lea	 rdx, OFFSET FLAT:??_C@_1DK@NEEHIPOB@?$AA?4?$AA?4?$AA?2?$AAO?$AAb?$AAj?$AAe?$AAc?$AAt?$AAs?$AA?2?$AAb?$AAy?$AAt?$AAe?$AAa?$AAr?$AAr?$AAa?$AAy?$AAo?$AAb?$AAj?$AAe?$AAc?$AAt?$AA?4?$AAc?$AA?$AA@
  00179	48 8d 0d 00 00
	00 00		 lea	 rcx, OFFSET FLAT:??_C@_1CO@HFMJJPBH@?$AAP?$AAy?$AAB?$AAy?$AAt?$AAe?$AAs?$AA_?$AAC?$AAh?$AAe?$AAc?$AAk?$AA?$CI?$AAe?$AAn?$AAc?$AAo?$AAd?$AAe?$AAd?$AA?$CJ?$AA?$AA@
  00180	ff 15 00 00 00
	00		 call	 QWORD PTR __imp__wassert
  00186	33 c0		 xor	 eax, eax
$LN36@bytearray_@10:

; 754  :         new = bytearray_iconcat(self, encoded);

  00188	48 8b 54 24 70	 mov	 rdx, QWORD PTR encoded$21000[rsp]
  0018d	48 8b 8c 24 00
	01 00 00	 mov	 rcx, QWORD PTR self$[rsp]
  00195	e8 00 00 00 00	 call	 bytearray_iconcat
  0019a	48 89 44 24 78	 mov	 QWORD PTR new$21001[rsp], rax

; 755  :         Py_DECREF(encoded);

  0019f	48 8b 4c 24 70	 mov	 rcx, QWORD PTR encoded$21000[rsp]
  001a4	e8 00 00 00 00	 call	 _Py_DecRef

; 756  :         if (new == NULL)

  001a9	48 83 7c 24 78
	00		 cmp	 QWORD PTR new$21001[rsp], 0
  001af	75 0a		 jne	 SHORT $LN24@bytearray_@10

; 757  :             return -1;

  001b1	b8 ff ff ff ff	 mov	 eax, -1
  001b6	e9 2a 03 00 00	 jmp	 $LN34@bytearray_@10
$LN24@bytearray_@10:

; 758  :         Py_DECREF(new);

  001bb	48 8b 4c 24 78	 mov	 rcx, QWORD PTR new$21001[rsp]
  001c0	e8 00 00 00 00	 call	 _Py_DecRef

; 759  :         return 0;

  001c5	33 c0		 xor	 eax, eax
  001c7	e9 19 03 00 00	 jmp	 $LN34@bytearray_@10
$LN27@bytearray_@10:

; 760  :     }
; 761  : 
; 762  :     /* If it's not unicode, there can't be encoding or errors */
; 763  :     if (encoding != NULL || errors != NULL) {

  001cc	48 83 7c 24 68
	00		 cmp	 QWORD PTR encoding$[rsp], 0
  001d2	75 08		 jne	 SHORT $LN22@bytearray_@10
  001d4	48 83 7c 24 60
	00		 cmp	 QWORD PTR errors$[rsp], 0
  001da	74 1d		 je	 SHORT $LN23@bytearray_@10
$LN22@bytearray_@10:

; 764  :         PyErr_SetString(PyExc_TypeError,
; 765  :                         "encoding or errors without a string argument");

  001dc	48 8d 15 00 00
	00 00		 lea	 rdx, OFFSET FLAT:??_C@_0CN@GAIODIPO@encoding?5or?5errors?5without?5a?5str@
  001e3	48 8b 0d 00 00
	00 00		 mov	 rcx, QWORD PTR PyExc_TypeError
  001ea	e8 00 00 00 00	 call	 PyErr_SetString

; 766  :         return -1;

  001ef	b8 ff ff ff ff	 mov	 eax, -1
  001f4	e9 ec 02 00 00	 jmp	 $LN34@bytearray_@10
$LN23@bytearray_@10:

; 767  :     }
; 768  : 
; 769  :     /* Is it an int? */
; 770  :     count = PyNumber_AsSsize_t(arg, PyExc_OverflowError);

  001f9	48 8b 15 00 00
	00 00		 mov	 rdx, QWORD PTR PyExc_OverflowError
  00200	48 8b 4c 24 58	 mov	 rcx, QWORD PTR arg$[rsp]
  00205	e8 00 00 00 00	 call	 PyNumber_AsSsize_t
  0020a	48 89 44 24 48	 mov	 QWORD PTR count$[rsp], rax

; 771  :     if (count == -1 && PyErr_Occurred()) {

  0020f	48 83 7c 24 48
	ff		 cmp	 QWORD PTR count$[rsp], -1
  00215	75 2b		 jne	 SHORT $LN21@bytearray_@10
  00217	e8 00 00 00 00	 call	 PyErr_Occurred
  0021c	48 85 c0	 test	 rax, rax
  0021f	74 21		 je	 SHORT $LN21@bytearray_@10

; 772  :         if (PyErr_ExceptionMatches(PyExc_OverflowError))

  00221	48 8b 0d 00 00
	00 00		 mov	 rcx, QWORD PTR PyExc_OverflowError
  00228	e8 00 00 00 00	 call	 PyErr_ExceptionMatches
  0022d	85 c0		 test	 eax, eax
  0022f	74 0a		 je	 SHORT $LN20@bytearray_@10

; 773  :             return -1;

  00231	b8 ff ff ff ff	 mov	 eax, -1
  00236	e9 aa 02 00 00	 jmp	 $LN34@bytearray_@10
$LN20@bytearray_@10:

; 774  :         PyErr_Clear();

  0023b	e8 00 00 00 00	 call	 PyErr_Clear
  00240	eb 71		 jmp	 SHORT $LN19@bytearray_@10
$LN21@bytearray_@10:

; 775  :     }
; 776  :     else if (count < 0) {

  00242	48 83 7c 24 48
	00		 cmp	 QWORD PTR count$[rsp], 0
  00248	7d 1f		 jge	 SHORT $LN18@bytearray_@10

; 777  :         PyErr_SetString(PyExc_ValueError, "negative count");

  0024a	48 8d 15 00 00
	00 00		 lea	 rdx, OFFSET FLAT:??_C@_0P@DIJHAIGC@negative?5count?$AA@
  00251	48 8b 0d 00 00
	00 00		 mov	 rcx, QWORD PTR PyExc_ValueError
  00258	e8 00 00 00 00	 call	 PyErr_SetString

; 778  :         return -1;

  0025d	b8 ff ff ff ff	 mov	 eax, -1
  00262	e9 7e 02 00 00	 jmp	 $LN34@bytearray_@10

; 779  :     }
; 780  :     else {

  00267	eb 4a		 jmp	 SHORT $LN17@bytearray_@10
$LN18@bytearray_@10:

; 781  :         if (count > 0) {

  00269	48 83 7c 24 48
	00		 cmp	 QWORD PTR count$[rsp], 0
  0026f	7e 3b		 jle	 SHORT $LN16@bytearray_@10

; 782  :             if (PyByteArray_Resize((PyObject *)self, count))

  00271	48 8b 54 24 48	 mov	 rdx, QWORD PTR count$[rsp]
  00276	48 8b 8c 24 00
	01 00 00	 mov	 rcx, QWORD PTR self$[rsp]
  0027e	e8 00 00 00 00	 call	 PyByteArray_Resize
  00283	85 c0		 test	 eax, eax
  00285	74 0a		 je	 SHORT $LN15@bytearray_@10

; 783  :                 return -1;

  00287	b8 ff ff ff ff	 mov	 eax, -1
  0028c	e9 54 02 00 00	 jmp	 $LN34@bytearray_@10
$LN15@bytearray_@10:

; 784  :             memset(self->ob_bytes, 0, count);

  00291	4c 8b 44 24 48	 mov	 r8, QWORD PTR count$[rsp]
  00296	33 d2		 xor	 edx, edx
  00298	48 8b 84 24 00
	01 00 00	 mov	 rax, QWORD PTR self$[rsp]
  002a0	48 8b 88 80 00
	00 00		 mov	 rcx, QWORD PTR [rax+128]
  002a7	e8 00 00 00 00	 call	 memset
$LN16@bytearray_@10:

; 785  :         }
; 786  :         return 0;

  002ac	33 c0		 xor	 eax, eax
  002ae	e9 32 02 00 00	 jmp	 $LN34@bytearray_@10
$LN17@bytearray_@10:
$LN19@bytearray_@10:

; 787  :     }
; 788  : 
; 789  :     /* Use the buffer API */
; 790  :     if (PyObject_CheckBuffer(arg)) {

  002b3	48 8b 44 24 58	 mov	 rax, QWORD PTR arg$[rsp]
  002b8	48 8b 40 58	 mov	 rax, QWORD PTR [rax+88]
  002bc	48 83 b8 f8 00
	00 00 00	 cmp	 QWORD PTR [rax+248], 0
  002c4	0f 84 c3 00 00
	00		 je	 $LN14@bytearray_@10
  002ca	48 8b 44 24 58	 mov	 rax, QWORD PTR arg$[rsp]
  002cf	48 8b 40 58	 mov	 rax, QWORD PTR [rax+88]
  002d3	48 8b 80 f8 00
	00 00		 mov	 rax, QWORD PTR [rax+248]
  002da	48 83 38 00	 cmp	 QWORD PTR [rax], 0
  002de	0f 84 a9 00 00
	00		 je	 $LN14@bytearray_@10

; 791  :         Py_ssize_t size;
; 792  :         Py_buffer view;
; 793  :         if (PyObject_GetBuffer(arg, &view, PyBUF_FULL_RO) < 0)

  002e4	41 b8 1c 01 00
	00		 mov	 r8d, 284		; 0000011cH
  002ea	48 8d 94 24 90
	00 00 00	 lea	 rdx, QWORD PTR view$21032[rsp]
  002f2	48 8b 4c 24 58	 mov	 rcx, QWORD PTR arg$[rsp]
  002f7	e8 00 00 00 00	 call	 PyObject_GetBuffer
  002fc	85 c0		 test	 eax, eax
  002fe	7d 0a		 jge	 SHORT $LN13@bytearray_@10

; 794  :             return -1;

  00300	b8 ff ff ff ff	 mov	 eax, -1
  00305	e9 db 01 00 00	 jmp	 $LN34@bytearray_@10
$LN13@bytearray_@10:

; 795  :         size = view.len;

  0030a	48 8b 84 24 a0
	00 00 00	 mov	 rax, QWORD PTR view$21032[rsp+16]
  00312	48 89 84 24 80
	00 00 00	 mov	 QWORD PTR size$21031[rsp], rax

; 796  :         if (PyByteArray_Resize((PyObject *)self, size) < 0) goto fail;

  0031a	48 8b 94 24 80
	00 00 00	 mov	 rdx, QWORD PTR size$21031[rsp]
  00322	48 8b 8c 24 00
	01 00 00	 mov	 rcx, QWORD PTR self$[rsp]
  0032a	e8 00 00 00 00	 call	 PyByteArray_Resize
  0032f	85 c0		 test	 eax, eax
  00331	7d 02		 jge	 SHORT $LN12@bytearray_@10
  00333	eb 41		 jmp	 SHORT $fail$21036
$LN12@bytearray_@10:

; 797  :         if (PyBuffer_ToContiguous(self->ob_bytes, &view, size, 'C') < 0)

  00335	41 b1 43	 mov	 r9b, 67			; 00000043H
  00338	4c 8b 84 24 80
	00 00 00	 mov	 r8, QWORD PTR size$21031[rsp]
  00340	48 8d 94 24 90
	00 00 00	 lea	 rdx, QWORD PTR view$21032[rsp]
  00348	48 8b 84 24 00
	01 00 00	 mov	 rax, QWORD PTR self$[rsp]
  00350	48 8b 88 80 00
	00 00		 mov	 rcx, QWORD PTR [rax+128]
  00357	e8 00 00 00 00	 call	 PyBuffer_ToContiguous
  0035c	85 c0		 test	 eax, eax
  0035e	7d 02		 jge	 SHORT $LN11@bytearray_@10

; 798  :             goto fail;

  00360	eb 14		 jmp	 SHORT $fail$21036
$LN11@bytearray_@10:

; 799  :         PyBuffer_Release(&view);

  00362	48 8d 8c 24 90
	00 00 00	 lea	 rcx, QWORD PTR view$21032[rsp]
  0036a	e8 00 00 00 00	 call	 PyBuffer_Release

; 800  :         return 0;

  0036f	33 c0		 xor	 eax, eax
  00371	e9 6f 01 00 00	 jmp	 $LN34@bytearray_@10
$fail$21036:

; 801  :     fail:
; 802  :         PyBuffer_Release(&view);

  00376	48 8d 8c 24 90
	00 00 00	 lea	 rcx, QWORD PTR view$21032[rsp]
  0037e	e8 00 00 00 00	 call	 PyBuffer_Release

; 803  :         return -1;

  00383	b8 ff ff ff ff	 mov	 eax, -1
  00388	e9 58 01 00 00	 jmp	 $LN34@bytearray_@10
$LN14@bytearray_@10:

; 804  :     }
; 805  : 
; 806  :     /* XXX Optimize this if the arguments is a list, tuple */
; 807  : 
; 808  :     /* Get the iterator */
; 809  :     it = PyObject_GetIter(arg);

  0038d	48 8b 4c 24 58	 mov	 rcx, QWORD PTR arg$[rsp]
  00392	e8 00 00 00 00	 call	 PyObject_GetIter
  00397	48 89 44 24 40	 mov	 QWORD PTR it$[rsp], rax

; 810  :     if (it == NULL)

  0039c	48 83 7c 24 40
	00		 cmp	 QWORD PTR it$[rsp], 0
  003a2	75 0a		 jne	 SHORT $LN10@bytearray_@10

; 811  :         return -1;

  003a4	b8 ff ff ff ff	 mov	 eax, -1
  003a9	e9 37 01 00 00	 jmp	 $LN34@bytearray_@10
$LN10@bytearray_@10:

; 812  :     iternext = *Py_TYPE(it)->tp_iternext;

  003ae	48 8b 44 24 40	 mov	 rax, QWORD PTR it$[rsp]
  003b3	48 8b 40 58	 mov	 rax, QWORD PTR [rax+88]
  003b7	48 8b 80 38 01
	00 00		 mov	 rax, QWORD PTR [rax+312]
  003be	48 89 44 24 50	 mov	 QWORD PTR iternext$[rsp], rax
$LN9@bytearray_@10:

; 813  : 
; 814  :     /* Run the iterator to exhaustion */
; 815  :     for (;;) {
; 816  :         PyObject *item;
; 817  :         int rc, value;
; 818  : 
; 819  :         /* Get the next item */
; 820  :         item = iternext(it);

  003c3	48 8b 4c 24 40	 mov	 rcx, QWORD PTR it$[rsp]
  003c8	ff 54 24 50	 call	 QWORD PTR iternext$[rsp]
  003cc	48 89 84 24 e8
	00 00 00	 mov	 QWORD PTR item$21044[rsp], rax

; 821  :         if (item == NULL) {

  003d4	48 83 bc 24 e8
	00 00 00 00	 cmp	 QWORD PTR item$21044[rsp], 0
  003dd	75 29		 jne	 SHORT $LN7@bytearray_@10

; 822  :             if (PyErr_Occurred()) {

  003df	e8 00 00 00 00	 call	 PyErr_Occurred
  003e4	48 85 c0	 test	 rax, rax
  003e7	74 1a		 je	 SHORT $LN6@bytearray_@10

; 823  :                 if (!PyErr_ExceptionMatches(PyExc_StopIteration))

  003e9	48 8b 0d 00 00
	00 00		 mov	 rcx, QWORD PTR PyExc_StopIteration
  003f0	e8 00 00 00 00	 call	 PyErr_ExceptionMatches
  003f5	85 c0		 test	 eax, eax
  003f7	75 05		 jne	 SHORT $LN5@bytearray_@10

; 824  :                     goto error;

  003f9	e9 d8 00 00 00	 jmp	 $error$21051
$LN5@bytearray_@10:

; 825  :                 PyErr_Clear();

  003fe	e8 00 00 00 00	 call	 PyErr_Clear
$LN6@bytearray_@10:

; 826  :             }
; 827  :             break;

  00403	e9 c0 00 00 00	 jmp	 $LN8@bytearray_@10
$LN7@bytearray_@10:

; 828  :         }
; 829  : 
; 830  :         /* Interpret it as an int (__index__) */
; 831  :         rc = _getbytevalue(item, &value);

  00408	48 8d 94 24 e0
	00 00 00	 lea	 rdx, QWORD PTR value$21046[rsp]
  00410	48 8b 8c 24 e8
	00 00 00	 mov	 rcx, QWORD PTR item$21044[rsp]
  00418	e8 00 00 00 00	 call	 _getbytevalue
  0041d	89 84 24 e4 00
	00 00		 mov	 DWORD PTR rc$21045[rsp], eax

; 832  :         Py_DECREF(item);

  00424	48 8b 8c 24 e8
	00 00 00	 mov	 rcx, QWORD PTR item$21044[rsp]
  0042c	e8 00 00 00 00	 call	 _Py_DecRef

; 833  :         if (!rc)

  00431	83 bc 24 e4 00
	00 00 00	 cmp	 DWORD PTR rc$21045[rsp], 0
  00439	75 05		 jne	 SHORT $LN4@bytearray_@10

; 834  :             goto error;

  0043b	e9 96 00 00 00	 jmp	 $error$21051
$LN4@bytearray_@10:

; 835  : 
; 836  :         /* Append the byte */
; 837  :         if (Py_SIZE(self) < self->ob_alloc)

  00440	48 8b 84 24 00
	01 00 00	 mov	 rax, QWORD PTR self$[rsp]
  00448	48 8b 8c 24 00
	01 00 00	 mov	 rcx, QWORD PTR self$[rsp]
  00450	48 8b 49 78	 mov	 rcx, QWORD PTR [rcx+120]
  00454	48 39 48 60	 cmp	 QWORD PTR [rax+96], rcx
  00458	7d 1d		 jge	 SHORT $LN3@bytearray_@10

; 838  :             Py_SIZE(self)++;

  0045a	48 8b 84 24 00
	01 00 00	 mov	 rax, QWORD PTR self$[rsp]
  00462	48 8b 40 60	 mov	 rax, QWORD PTR [rax+96]
  00466	48 ff c0	 inc	 rax
  00469	48 8b 8c 24 00
	01 00 00	 mov	 rcx, QWORD PTR self$[rsp]
  00471	48 89 41 60	 mov	 QWORD PTR [rcx+96], rax
  00475	eb 25		 jmp	 SHORT $LN2@bytearray_@10
$LN3@bytearray_@10:

; 839  :         else if (PyByteArray_Resize((PyObject *)self, Py_SIZE(self)+1) < 0)

  00477	48 8b 84 24 00
	01 00 00	 mov	 rax, QWORD PTR self$[rsp]
  0047f	48 8b 40 60	 mov	 rax, QWORD PTR [rax+96]
  00483	48 ff c0	 inc	 rax
  00486	48 8b d0	 mov	 rdx, rax
  00489	48 8b 8c 24 00
	01 00 00	 mov	 rcx, QWORD PTR self$[rsp]
  00491	e8 00 00 00 00	 call	 PyByteArray_Resize
  00496	85 c0		 test	 eax, eax
  00498	7d 02		 jge	 SHORT $LN1@bytearray_@10

; 840  :             goto error;

  0049a	eb 3a		 jmp	 SHORT $error$21051
$LN1@bytearray_@10:
$LN2@bytearray_@10:

; 841  :         self->ob_bytes[Py_SIZE(self)-1] = value;

  0049c	48 8b 84 24 00
	01 00 00	 mov	 rax, QWORD PTR self$[rsp]
  004a4	48 8b 40 60	 mov	 rax, QWORD PTR [rax+96]
  004a8	48 8b 8c 24 00
	01 00 00	 mov	 rcx, QWORD PTR self$[rsp]
  004b0	48 8b 89 80 00
	00 00		 mov	 rcx, QWORD PTR [rcx+128]
  004b7	0f b6 94 24 e0
	00 00 00	 movzx	 edx, BYTE PTR value$21046[rsp]
  004bf	88 54 08 ff	 mov	 BYTE PTR [rax+rcx-1], dl

; 842  :     }

  004c3	e9 fb fe ff ff	 jmp	 $LN9@bytearray_@10
$LN8@bytearray_@10:

; 843  : 
; 844  :     /* Clean up and return success */
; 845  :     Py_DECREF(it);

  004c8	48 8b 4c 24 40	 mov	 rcx, QWORD PTR it$[rsp]
  004cd	e8 00 00 00 00	 call	 _Py_DecRef

; 846  :     return 0;

  004d2	33 c0		 xor	 eax, eax
  004d4	eb 0f		 jmp	 SHORT $LN34@bytearray_@10
$error$21051:

; 847  : 
; 848  :  error:
; 849  :     /* Error handling when it != NULL */
; 850  :     Py_DECREF(it);

  004d6	48 8b 4c 24 40	 mov	 rcx, QWORD PTR it$[rsp]
  004db	e8 00 00 00 00	 call	 _Py_DecRef

; 851  :     return -1;

  004e0	b8 ff ff ff ff	 mov	 eax, -1
$LN34@bytearray_@10:

; 852  : }

  004e5	48 81 c4 f8 00
	00 00		 add	 rsp, 248		; 000000f8H
  004ec	c3		 ret	 0
bytearray_init ENDP
_TEXT	ENDS
PUBLIC	??_C@_1DI@PEAFHOOC@?$AAn?$AAe?$AAw?$AAs?$AAi?$AAz?$AAe?$AA?5?$AA?9?$AA?5?$AA?$CI?$AAp?$AA?5?$AA?9?$AA?5?$AAb?$AAu?$AAf?$AAf?$AAe?$AAr?$AA?$CJ?$AA?5?$AA?$DO?$AA?$DN?$AA?5?$AA1?$AA?$AA@ ; `string'
PUBLIC	??_C@_1DI@HLGHOJLF@?$AAn?$AAe?$AAw?$AAs?$AAi?$AAz?$AAe?$AA?5?$AA?9?$AA?5?$AA?$CI?$AAp?$AA?5?$AA?9?$AA?5?$AAb?$AAu?$AAf?$AAf?$AAe?$AAr?$AA?$CJ?$AA?5?$AA?$DO?$AA?$DN?$AA?5?$AA5?$AA?$AA@ ; `string'
PUBLIC	??_C@_0CL@FAAGOMMC@bytearray?5object?5is?5too?5large?5to@ ; `string'
PUBLIC	??_C@_01PKGAHCOL@?$CJ?$AA@			; `string'
PUBLIC	??_C@_0M@NONGCEAD@bytearray?$CIb?$AA@		; `string'
EXTRN	PyUnicode_DecodeASCII:PROC
EXTRN	Py_hexdigits:QWORD
;	COMDAT pdata
pdata	SEGMENT
$pdata$bytearray_repr DD imagerel bytearray_repr
	DD	imagerel bytearray_repr+1343
	DD	imagerel $unwind$bytearray_repr
pdata	ENDS
;	COMDAT xdata
xdata	SEGMENT
$unwind$bytearray_repr DD 020c01H
	DD	013010cH
xdata	ENDS
;	COMDAT ??_C@_1DI@PEAFHOOC@?$AAn?$AAe?$AAw?$AAs?$AAi?$AAz?$AAe?$AA?5?$AA?9?$AA?5?$AA?$CI?$AAp?$AA?5?$AA?9?$AA?5?$AAb?$AAu?$AAf?$AAf?$AAe?$AAr?$AA?$CJ?$AA?5?$AA?$DO?$AA?$DN?$AA?5?$AA1?$AA?$AA@
CONST	SEGMENT
??_C@_1DI@PEAFHOOC@?$AAn?$AAe?$AAw?$AAs?$AAi?$AAz?$AAe?$AA?5?$AA?9?$AA?5?$AA?$CI?$AAp?$AA?5?$AA?9?$AA?5?$AAb?$AAu?$AAf?$AAf?$AAe?$AAr?$AA?$CJ?$AA?5?$AA?$DO?$AA?$DN?$AA?5?$AA1?$AA?$AA@ DB 'n'
	DB	00H, 'e', 00H, 'w', 00H, 's', 00H, 'i', 00H, 'z', 00H, 'e', 00H
	DB	' ', 00H, '-', 00H, ' ', 00H, '(', 00H, 'p', 00H, ' ', 00H, '-'
	DB	00H, ' ', 00H, 'b', 00H, 'u', 00H, 'f', 00H, 'f', 00H, 'e', 00H
	DB	'r', 00H, ')', 00H, ' ', 00H, '>', 00H, '=', 00H, ' ', 00H, '1'
	DB	00H, 00H, 00H				; `string'
CONST	ENDS
;	COMDAT ??_C@_1DI@HLGHOJLF@?$AAn?$AAe?$AAw?$AAs?$AAi?$AAz?$AAe?$AA?5?$AA?9?$AA?5?$AA?$CI?$AAp?$AA?5?$AA?9?$AA?5?$AAb?$AAu?$AAf?$AAf?$AAe?$AAr?$AA?$CJ?$AA?5?$AA?$DO?$AA?$DN?$AA?5?$AA5?$AA?$AA@
CONST	SEGMENT
??_C@_1DI@HLGHOJLF@?$AAn?$AAe?$AAw?$AAs?$AAi?$AAz?$AAe?$AA?5?$AA?9?$AA?5?$AA?$CI?$AAp?$AA?5?$AA?9?$AA?5?$AAb?$AAu?$AAf?$AAf?$AAe?$AAr?$AA?$CJ?$AA?5?$AA?$DO?$AA?$DN?$AA?5?$AA5?$AA?$AA@ DB 'n'
	DB	00H, 'e', 00H, 'w', 00H, 's', 00H, 'i', 00H, 'z', 00H, 'e', 00H
	DB	' ', 00H, '-', 00H, ' ', 00H, '(', 00H, 'p', 00H, ' ', 00H, '-'
	DB	00H, ' ', 00H, 'b', 00H, 'u', 00H, 'f', 00H, 'f', 00H, 'e', 00H
	DB	'r', 00H, ')', 00H, ' ', 00H, '>', 00H, '=', 00H, ' ', 00H, '5'
	DB	00H, 00H, 00H				; `string'
CONST	ENDS
;	COMDAT ??_C@_0CL@FAAGOMMC@bytearray?5object?5is?5too?5large?5to@
CONST	SEGMENT
??_C@_0CL@FAAGOMMC@bytearray?5object?5is?5too?5large?5to@ DB 'bytearray o'
	DB	'bject is too large to make repr', 00H	; `string'
CONST	ENDS
;	COMDAT ??_C@_01PKGAHCOL@?$CJ?$AA@
CONST	SEGMENT
??_C@_01PKGAHCOL@?$CJ?$AA@ DB ')', 00H			; `string'
CONST	ENDS
;	COMDAT ??_C@_0M@NONGCEAD@bytearray?$CIb?$AA@
CONST	SEGMENT
??_C@_0M@NONGCEAD@bytearray?$CIb?$AA@ DB 'bytearray(b', 00H ; `string'
; Function compile flags: /Odtp
CONST	ENDS
;	COMDAT bytearray_repr
_TEXT	SEGMENT
p$ = 32
v$ = 40
length$ = 48
quote_postfix$ = 56
i$ = 64
quote$ = 72
newsize$ = 80
quote_prefix$ = 88
start$ = 96
test$ = 104
c$ = 112
buffer$ = 120
tv87 = 128
self$ = 160
bytearray_repr PROC					; COMDAT

; 858  : {

  00000	48 89 4c 24 08	 mov	 QWORD PTR [rsp+8], rcx
  00005	48 81 ec 98 00
	00 00		 sub	 rsp, 152		; 00000098H

; 859  :     const char *quote_prefix = "bytearray(b";

  0000c	48 8d 05 00 00
	00 00		 lea	 rax, OFFSET FLAT:??_C@_0M@NONGCEAD@bytearray?$CIb?$AA@
  00013	48 89 44 24 58	 mov	 QWORD PTR quote_prefix$[rsp], rax

; 860  :     const char *quote_postfix = ")";

  00018	48 8d 05 00 00
	00 00		 lea	 rax, OFFSET FLAT:??_C@_01PKGAHCOL@?$CJ?$AA@
  0001f	48 89 44 24 38	 mov	 QWORD PTR quote_postfix$[rsp], rax

; 861  :     Py_ssize_t length = Py_SIZE(self);

  00024	48 8b 84 24 a0
	00 00 00	 mov	 rax, QWORD PTR self$[rsp]
  0002c	48 8b 40 60	 mov	 rax, QWORD PTR [rax+96]
  00030	48 89 44 24 30	 mov	 QWORD PTR length$[rsp], rax

; 862  :     /* 15 == strlen(quote_prefix) + 2 + strlen(quote_postfix) + 1 */
; 863  :     size_t newsize;
; 864  :     PyObject *v;
; 865  :     register Py_ssize_t i;
; 866  :     register char c;
; 867  :     register char *p;
; 868  :     int quote;
; 869  :     char *test, *start;
; 870  :     char *buffer;
; 871  : 
; 872  :     if (length > (PY_SSIZE_T_MAX - 15) / 4) {

  00035	48 b8 fc ff ff
	ff ff ff ff 1f	 mov	 rax, 2305843009213693948 ; 1ffffffffffffffcH
  0003f	48 39 44 24 30	 cmp	 QWORD PTR length$[rsp], rax
  00044	7e 1a		 jle	 SHORT $LN29@bytearray_@11

; 873  :         PyErr_SetString(PyExc_OverflowError,
; 874  :             "bytearray object is too large to make repr");

  00046	48 8d 15 00 00
	00 00		 lea	 rdx, OFFSET FLAT:??_C@_0CL@FAAGOMMC@bytearray?5object?5is?5too?5large?5to@
  0004d	48 8b 0d 00 00
	00 00		 mov	 rcx, QWORD PTR PyExc_OverflowError
  00054	e8 00 00 00 00	 call	 PyErr_SetString

; 875  :         return NULL;

  00059	33 c0		 xor	 eax, eax
  0005b	e9 d7 04 00 00	 jmp	 $LN30@bytearray_@11
$LN29@bytearray_@11:

; 876  :     }
; 877  : 
; 878  :     newsize = 15 + length * 4;

  00060	48 8b 44 24 30	 mov	 rax, QWORD PTR length$[rsp]
  00065	48 8d 04 85 0f
	00 00 00	 lea	 rax, QWORD PTR [rax*4+15]
  0006d	48 89 44 24 50	 mov	 QWORD PTR newsize$[rsp], rax

; 879  :     buffer = PyObject_Malloc(newsize);

  00072	48 8b 4c 24 50	 mov	 rcx, QWORD PTR newsize$[rsp]
  00077	e8 00 00 00 00	 call	 _PyObject_DebugMalloc
  0007c	48 89 44 24 78	 mov	 QWORD PTR buffer$[rsp], rax

; 880  :     if (buffer == NULL) {

  00081	48 83 7c 24 78
	00		 cmp	 QWORD PTR buffer$[rsp], 0
  00087	75 0c		 jne	 SHORT $LN28@bytearray_@11

; 881  :         PyErr_NoMemory();

  00089	e8 00 00 00 00	 call	 PyErr_NoMemory

; 882  :         return NULL;

  0008e	33 c0		 xor	 eax, eax
  00090	e9 a2 04 00 00	 jmp	 $LN30@bytearray_@11
$LN28@bytearray_@11:

; 883  :     }
; 884  : 
; 885  :     /* Figure out which quote to use; single is preferred */
; 886  :     quote = '\'';

  00095	c7 44 24 48 27
	00 00 00	 mov	 DWORD PTR quote$[rsp], 39 ; 00000027H

; 887  :     start = PyByteArray_AS_STRING(self);

  0009d	48 8d 05 00 00
	00 00		 lea	 rax, OFFSET FLAT:PyByteArray_Type
  000a4	48 8b 8c 24 a0
	00 00 00	 mov	 rcx, QWORD PTR self$[rsp]
  000ac	48 39 41 58	 cmp	 QWORD PTR [rcx+88], rax
  000b0	74 38		 je	 SHORT $LN32@bytearray_@11
  000b2	48 8d 15 00 00
	00 00		 lea	 rdx, OFFSET FLAT:PyByteArray_Type
  000b9	48 8b 84 24 a0
	00 00 00	 mov	 rax, QWORD PTR self$[rsp]
  000c1	48 8b 48 58	 mov	 rcx, QWORD PTR [rax+88]
  000c5	e8 00 00 00 00	 call	 PyType_IsSubtype
  000ca	85 c0		 test	 eax, eax
  000cc	75 1c		 jne	 SHORT $LN32@bytearray_@11
  000ce	41 b8 77 03 00
	00		 mov	 r8d, 887		; 00000377H
  000d4	48 8d 15 00 00
	00 00		 lea	 rdx, OFFSET FLAT:??_C@_1DK@NEEHIPOB@?$AA?4?$AA?4?$AA?2?$AAO?$AAb?$AAj?$AAe?$AAc?$AAt?$AAs?$AA?2?$AAb?$AAy?$AAt?$AAe?$AAa?$AAr?$AAr?$AAa?$AAy?$AAo?$AAb?$AAj?$AAe?$AAc?$AAt?$AA?4?$AAc?$AA?$AA@
  000db	48 8d 0d 00 00
	00 00		 lea	 rcx, OFFSET FLAT:??_C@_1DA@DMKHKEDP@?$AAP?$AAy?$AAB?$AAy?$AAt?$AAe?$AAA?$AAr?$AAr?$AAa?$AAy?$AA_?$AAC?$AAh?$AAe?$AAc?$AAk?$AA?$CI?$AAs?$AAe?$AAl?$AAf?$AA?$CJ?$AA?$AA@
  000e2	ff 15 00 00 00
	00		 call	 QWORD PTR __imp__wassert
  000e8	33 c0		 xor	 eax, eax
$LN32@bytearray_@11:
  000ea	48 8b 84 24 a0
	00 00 00	 mov	 rax, QWORD PTR self$[rsp]
  000f2	48 83 78 60 00	 cmp	 QWORD PTR [rax+96], 0
  000f7	74 19		 je	 SHORT $LN33@bytearray_@11
  000f9	48 8b 84 24 a0
	00 00 00	 mov	 rax, QWORD PTR self$[rsp]
  00101	48 8b 80 80 00
	00 00		 mov	 rax, QWORD PTR [rax+128]
  00108	48 89 84 24 80
	00 00 00	 mov	 QWORD PTR tv87[rsp], rax
  00110	eb 0f		 jmp	 SHORT $LN34@bytearray_@11
$LN33@bytearray_@11:
  00112	48 8d 05 00 00
	00 00		 lea	 rax, OFFSET FLAT:_PyByteArray_empty_string
  00119	48 89 84 24 80
	00 00 00	 mov	 QWORD PTR tv87[rsp], rax
$LN34@bytearray_@11:
  00121	48 8b 84 24 80
	00 00 00	 mov	 rax, QWORD PTR tv87[rsp]
  00129	48 89 44 24 60	 mov	 QWORD PTR start$[rsp], rax

; 888  :     for (test = start; test < start+length; ++test) {

  0012e	48 8b 44 24 60	 mov	 rax, QWORD PTR start$[rsp]
  00133	48 89 44 24 68	 mov	 QWORD PTR test$[rsp], rax
  00138	eb 0d		 jmp	 SHORT $LN27@bytearray_@11
$LN26@bytearray_@11:
  0013a	48 8b 44 24 68	 mov	 rax, QWORD PTR test$[rsp]
  0013f	48 ff c0	 inc	 rax
  00142	48 89 44 24 68	 mov	 QWORD PTR test$[rsp], rax
$LN27@bytearray_@11:
  00147	48 8b 44 24 30	 mov	 rax, QWORD PTR length$[rsp]
  0014c	48 8b 4c 24 60	 mov	 rcx, QWORD PTR start$[rsp]
  00151	48 03 c8	 add	 rcx, rax
  00154	48 8b c1	 mov	 rax, rcx
  00157	48 39 44 24 68	 cmp	 QWORD PTR test$[rsp], rax
  0015c	73 30		 jae	 SHORT $LN25@bytearray_@11

; 889  :         if (*test == '"') {

  0015e	48 8b 44 24 68	 mov	 rax, QWORD PTR test$[rsp]
  00163	0f be 00	 movsx	 eax, BYTE PTR [rax]
  00166	83 f8 22	 cmp	 eax, 34			; 00000022H
  00169	75 0c		 jne	 SHORT $LN24@bytearray_@11

; 890  :             quote = '\''; /* back to single */

  0016b	c7 44 24 48 27
	00 00 00	 mov	 DWORD PTR quote$[rsp], 39 ; 00000027H

; 891  :             break;

  00173	eb 19		 jmp	 SHORT $LN25@bytearray_@11
  00175	eb 15		 jmp	 SHORT $LN23@bytearray_@11
$LN24@bytearray_@11:

; 892  :         }
; 893  :         else if (*test == '\'')

  00177	48 8b 44 24 68	 mov	 rax, QWORD PTR test$[rsp]
  0017c	0f be 00	 movsx	 eax, BYTE PTR [rax]
  0017f	83 f8 27	 cmp	 eax, 39			; 00000027H
  00182	75 08		 jne	 SHORT $LN22@bytearray_@11

; 894  :             quote = '"';

  00184	c7 44 24 48 22
	00 00 00	 mov	 DWORD PTR quote$[rsp], 34 ; 00000022H
$LN22@bytearray_@11:
$LN23@bytearray_@11:

; 895  :     }

  0018c	eb ac		 jmp	 SHORT $LN26@bytearray_@11
$LN25@bytearray_@11:

; 896  : 
; 897  :     p = buffer;

  0018e	48 8b 44 24 78	 mov	 rax, QWORD PTR buffer$[rsp]
  00193	48 89 44 24 20	 mov	 QWORD PTR p$[rsp], rax
$LN21@bytearray_@11:

; 898  :     while (*quote_prefix)

  00198	48 8b 44 24 58	 mov	 rax, QWORD PTR quote_prefix$[rsp]
  0019d	0f be 00	 movsx	 eax, BYTE PTR [rax]
  001a0	85 c0		 test	 eax, eax
  001a2	74 2b		 je	 SHORT $LN20@bytearray_@11

; 899  :         *p++ = *quote_prefix++;

  001a4	48 8b 44 24 20	 mov	 rax, QWORD PTR p$[rsp]
  001a9	48 8b 4c 24 58	 mov	 rcx, QWORD PTR quote_prefix$[rsp]
  001ae	0f b6 09	 movzx	 ecx, BYTE PTR [rcx]
  001b1	88 08		 mov	 BYTE PTR [rax], cl
  001b3	48 8b 44 24 20	 mov	 rax, QWORD PTR p$[rsp]
  001b8	48 ff c0	 inc	 rax
  001bb	48 89 44 24 20	 mov	 QWORD PTR p$[rsp], rax
  001c0	48 8b 44 24 58	 mov	 rax, QWORD PTR quote_prefix$[rsp]
  001c5	48 ff c0	 inc	 rax
  001c8	48 89 44 24 58	 mov	 QWORD PTR quote_prefix$[rsp], rax
  001cd	eb c9		 jmp	 SHORT $LN21@bytearray_@11
$LN20@bytearray_@11:

; 900  :     *p++ = quote;

  001cf	48 8b 44 24 20	 mov	 rax, QWORD PTR p$[rsp]
  001d4	0f b6 4c 24 48	 movzx	 ecx, BYTE PTR quote$[rsp]
  001d9	88 08		 mov	 BYTE PTR [rax], cl
  001db	48 8b 44 24 20	 mov	 rax, QWORD PTR p$[rsp]
  001e0	48 ff c0	 inc	 rax
  001e3	48 89 44 24 20	 mov	 QWORD PTR p$[rsp], rax

; 901  : 
; 902  :     for (i = 0; i < length; i++) {

  001e8	48 c7 44 24 40
	00 00 00 00	 mov	 QWORD PTR i$[rsp], 0
  001f1	eb 0d		 jmp	 SHORT $LN19@bytearray_@11
$LN18@bytearray_@11:
  001f3	48 8b 44 24 40	 mov	 rax, QWORD PTR i$[rsp]
  001f8	48 ff c0	 inc	 rax
  001fb	48 89 44 24 40	 mov	 QWORD PTR i$[rsp], rax
$LN19@bytearray_@11:
  00200	48 8b 44 24 30	 mov	 rax, QWORD PTR length$[rsp]
  00205	48 39 44 24 40	 cmp	 QWORD PTR i$[rsp], rax
  0020a	0f 8d 66 02 00
	00		 jge	 $LN17@bytearray_@11

; 903  :         /* There's at least enough room for a hex escape
; 904  :            and a closing quote. */
; 905  :         assert(newsize - (p - buffer) >= 5);

  00210	48 8b 44 24 78	 mov	 rax, QWORD PTR buffer$[rsp]
  00215	48 8b 4c 24 20	 mov	 rcx, QWORD PTR p$[rsp]
  0021a	48 2b c8	 sub	 rcx, rax
  0021d	48 8b c1	 mov	 rax, rcx
  00220	48 8b 4c 24 50	 mov	 rcx, QWORD PTR newsize$[rsp]
  00225	48 2b c8	 sub	 rcx, rax
  00228	48 8b c1	 mov	 rax, rcx
  0022b	48 83 f8 05	 cmp	 rax, 5
  0022f	73 1c		 jae	 SHORT $LN35@bytearray_@11
  00231	41 b8 89 03 00
	00		 mov	 r8d, 905		; 00000389H
  00237	48 8d 15 00 00
	00 00		 lea	 rdx, OFFSET FLAT:??_C@_1DK@NEEHIPOB@?$AA?4?$AA?4?$AA?2?$AAO?$AAb?$AAj?$AAe?$AAc?$AAt?$AAs?$AA?2?$AAb?$AAy?$AAt?$AAe?$AAa?$AAr?$AAr?$AAa?$AAy?$AAo?$AAb?$AAj?$AAe?$AAc?$AAt?$AA?4?$AAc?$AA?$AA@
  0023e	48 8d 0d 00 00
	00 00		 lea	 rcx, OFFSET FLAT:??_C@_1DI@HLGHOJLF@?$AAn?$AAe?$AAw?$AAs?$AAi?$AAz?$AAe?$AA?5?$AA?9?$AA?5?$AA?$CI?$AAp?$AA?5?$AA?9?$AA?5?$AAb?$AAu?$AAf?$AAf?$AAe?$AAr?$AA?$CJ?$AA?5?$AA?$DO?$AA?$DN?$AA?5?$AA5?$AA?$AA@
  00245	ff 15 00 00 00
	00		 call	 QWORD PTR __imp__wassert
  0024b	33 c0		 xor	 eax, eax
$LN35@bytearray_@11:

; 906  :         c = self->ob_bytes[i];

  0024d	48 8b 84 24 a0
	00 00 00	 mov	 rax, QWORD PTR self$[rsp]
  00255	48 8b 80 80 00
	00 00		 mov	 rax, QWORD PTR [rax+128]
  0025c	48 8b 4c 24 40	 mov	 rcx, QWORD PTR i$[rsp]
  00261	0f b6 04 08	 movzx	 eax, BYTE PTR [rax+rcx]
  00265	88 44 24 70	 mov	 BYTE PTR c$[rsp], al

; 907  :         if (c == '\'' || c == '\\')

  00269	0f be 44 24 70	 movsx	 eax, BYTE PTR c$[rsp]
  0026e	83 f8 27	 cmp	 eax, 39			; 00000027H
  00271	74 0a		 je	 SHORT $LN15@bytearray_@11
  00273	0f be 44 24 70	 movsx	 eax, BYTE PTR c$[rsp]
  00278	83 f8 5c	 cmp	 eax, 92			; 0000005cH
  0027b	75 33		 jne	 SHORT $LN16@bytearray_@11
$LN15@bytearray_@11:

; 908  :             *p++ = '\\', *p++ = c;

  0027d	48 8b 44 24 20	 mov	 rax, QWORD PTR p$[rsp]
  00282	c6 00 5c	 mov	 BYTE PTR [rax], 92	; 0000005cH
  00285	48 8b 44 24 20	 mov	 rax, QWORD PTR p$[rsp]
  0028a	48 ff c0	 inc	 rax
  0028d	48 89 44 24 20	 mov	 QWORD PTR p$[rsp], rax
  00292	48 8b 44 24 20	 mov	 rax, QWORD PTR p$[rsp]
  00297	0f b6 4c 24 70	 movzx	 ecx, BYTE PTR c$[rsp]
  0029c	88 08		 mov	 BYTE PTR [rax], cl
  0029e	48 8b 44 24 20	 mov	 rax, QWORD PTR p$[rsp]
  002a3	48 ff c0	 inc	 rax
  002a6	48 89 44 24 20	 mov	 QWORD PTR p$[rsp], rax
  002ab	e9 c1 01 00 00	 jmp	 $LN14@bytearray_@11
$LN16@bytearray_@11:

; 909  :         else if (c == '\t')

  002b0	0f be 44 24 70	 movsx	 eax, BYTE PTR c$[rsp]
  002b5	83 f8 09	 cmp	 eax, 9
  002b8	75 2f		 jne	 SHORT $LN13@bytearray_@11

; 910  :             *p++ = '\\', *p++ = 't';

  002ba	48 8b 44 24 20	 mov	 rax, QWORD PTR p$[rsp]
  002bf	c6 00 5c	 mov	 BYTE PTR [rax], 92	; 0000005cH
  002c2	48 8b 44 24 20	 mov	 rax, QWORD PTR p$[rsp]
  002c7	48 ff c0	 inc	 rax
  002ca	48 89 44 24 20	 mov	 QWORD PTR p$[rsp], rax
  002cf	48 8b 44 24 20	 mov	 rax, QWORD PTR p$[rsp]
  002d4	c6 00 74	 mov	 BYTE PTR [rax], 116	; 00000074H
  002d7	48 8b 44 24 20	 mov	 rax, QWORD PTR p$[rsp]
  002dc	48 ff c0	 inc	 rax
  002df	48 89 44 24 20	 mov	 QWORD PTR p$[rsp], rax
  002e4	e9 88 01 00 00	 jmp	 $LN12@bytearray_@11
$LN13@bytearray_@11:

; 911  :         else if (c == '\n')

  002e9	0f be 44 24 70	 movsx	 eax, BYTE PTR c$[rsp]
  002ee	83 f8 0a	 cmp	 eax, 10
  002f1	75 2f		 jne	 SHORT $LN11@bytearray_@11

; 912  :             *p++ = '\\', *p++ = 'n';

  002f3	48 8b 44 24 20	 mov	 rax, QWORD PTR p$[rsp]
  002f8	c6 00 5c	 mov	 BYTE PTR [rax], 92	; 0000005cH
  002fb	48 8b 44 24 20	 mov	 rax, QWORD PTR p$[rsp]
  00300	48 ff c0	 inc	 rax
  00303	48 89 44 24 20	 mov	 QWORD PTR p$[rsp], rax
  00308	48 8b 44 24 20	 mov	 rax, QWORD PTR p$[rsp]
  0030d	c6 00 6e	 mov	 BYTE PTR [rax], 110	; 0000006eH
  00310	48 8b 44 24 20	 mov	 rax, QWORD PTR p$[rsp]
  00315	48 ff c0	 inc	 rax
  00318	48 89 44 24 20	 mov	 QWORD PTR p$[rsp], rax
  0031d	e9 4f 01 00 00	 jmp	 $LN10@bytearray_@11
$LN11@bytearray_@11:

; 913  :         else if (c == '\r')

  00322	0f be 44 24 70	 movsx	 eax, BYTE PTR c$[rsp]
  00327	83 f8 0d	 cmp	 eax, 13
  0032a	75 2f		 jne	 SHORT $LN9@bytearray_@11

; 914  :             *p++ = '\\', *p++ = 'r';

  0032c	48 8b 44 24 20	 mov	 rax, QWORD PTR p$[rsp]
  00331	c6 00 5c	 mov	 BYTE PTR [rax], 92	; 0000005cH
  00334	48 8b 44 24 20	 mov	 rax, QWORD PTR p$[rsp]
  00339	48 ff c0	 inc	 rax
  0033c	48 89 44 24 20	 mov	 QWORD PTR p$[rsp], rax
  00341	48 8b 44 24 20	 mov	 rax, QWORD PTR p$[rsp]
  00346	c6 00 72	 mov	 BYTE PTR [rax], 114	; 00000072H
  00349	48 8b 44 24 20	 mov	 rax, QWORD PTR p$[rsp]
  0034e	48 ff c0	 inc	 rax
  00351	48 89 44 24 20	 mov	 QWORD PTR p$[rsp], rax
  00356	e9 16 01 00 00	 jmp	 $LN8@bytearray_@11
$LN9@bytearray_@11:

; 915  :         else if (c == 0)

  0035b	0f be 44 24 70	 movsx	 eax, BYTE PTR c$[rsp]
  00360	85 c0		 test	 eax, eax
  00362	75 59		 jne	 SHORT $LN7@bytearray_@11

; 916  :             *p++ = '\\', *p++ = 'x', *p++ = '0', *p++ = '0';

  00364	48 8b 44 24 20	 mov	 rax, QWORD PTR p$[rsp]
  00369	c6 00 5c	 mov	 BYTE PTR [rax], 92	; 0000005cH
  0036c	48 8b 44 24 20	 mov	 rax, QWORD PTR p$[rsp]
  00371	48 ff c0	 inc	 rax
  00374	48 89 44 24 20	 mov	 QWORD PTR p$[rsp], rax
  00379	48 8b 44 24 20	 mov	 rax, QWORD PTR p$[rsp]
  0037e	c6 00 78	 mov	 BYTE PTR [rax], 120	; 00000078H
  00381	48 8b 44 24 20	 mov	 rax, QWORD PTR p$[rsp]
  00386	48 ff c0	 inc	 rax
  00389	48 89 44 24 20	 mov	 QWORD PTR p$[rsp], rax
  0038e	48 8b 44 24 20	 mov	 rax, QWORD PTR p$[rsp]
  00393	c6 00 30	 mov	 BYTE PTR [rax], 48	; 00000030H
  00396	48 8b 44 24 20	 mov	 rax, QWORD PTR p$[rsp]
  0039b	48 ff c0	 inc	 rax
  0039e	48 89 44 24 20	 mov	 QWORD PTR p$[rsp], rax
  003a3	48 8b 44 24 20	 mov	 rax, QWORD PTR p$[rsp]
  003a8	c6 00 30	 mov	 BYTE PTR [rax], 48	; 00000030H
  003ab	48 8b 44 24 20	 mov	 rax, QWORD PTR p$[rsp]
  003b0	48 ff c0	 inc	 rax
  003b3	48 89 44 24 20	 mov	 QWORD PTR p$[rsp], rax
  003b8	e9 b4 00 00 00	 jmp	 $LN6@bytearray_@11
$LN7@bytearray_@11:

; 917  :         else if (c < ' ' || c >= 0x7f) {

  003bd	0f be 44 24 70	 movsx	 eax, BYTE PTR c$[rsp]
  003c2	83 f8 20	 cmp	 eax, 32			; 00000020H
  003c5	7c 0e		 jl	 SHORT $LN4@bytearray_@11
  003c7	0f be 44 24 70	 movsx	 eax, BYTE PTR c$[rsp]
  003cc	83 f8 7f	 cmp	 eax, 127		; 0000007fH
  003cf	0f 8c 83 00 00
	00		 jl	 $LN5@bytearray_@11
$LN4@bytearray_@11:

; 918  :             *p++ = '\\';

  003d5	48 8b 44 24 20	 mov	 rax, QWORD PTR p$[rsp]
  003da	c6 00 5c	 mov	 BYTE PTR [rax], 92	; 0000005cH
  003dd	48 8b 44 24 20	 mov	 rax, QWORD PTR p$[rsp]
  003e2	48 ff c0	 inc	 rax
  003e5	48 89 44 24 20	 mov	 QWORD PTR p$[rsp], rax

; 919  :             *p++ = 'x';

  003ea	48 8b 44 24 20	 mov	 rax, QWORD PTR p$[rsp]
  003ef	c6 00 78	 mov	 BYTE PTR [rax], 120	; 00000078H
  003f2	48 8b 44 24 20	 mov	 rax, QWORD PTR p$[rsp]
  003f7	48 ff c0	 inc	 rax
  003fa	48 89 44 24 20	 mov	 QWORD PTR p$[rsp], rax

; 920  :             *p++ = Py_hexdigits[(c & 0xf0) >> 4];

  003ff	0f be 44 24 70	 movsx	 eax, BYTE PTR c$[rsp]
  00404	25 f0 00 00 00	 and	 eax, 240		; 000000f0H
  00409	c1 f8 04	 sar	 eax, 4
  0040c	48 98		 cdqe
  0040e	48 8b 4c 24 20	 mov	 rcx, QWORD PTR p$[rsp]
  00413	48 8b 15 00 00
	00 00		 mov	 rdx, QWORD PTR Py_hexdigits
  0041a	0f b6 04 02	 movzx	 eax, BYTE PTR [rdx+rax]
  0041e	88 01		 mov	 BYTE PTR [rcx], al
  00420	48 8b 44 24 20	 mov	 rax, QWORD PTR p$[rsp]
  00425	48 ff c0	 inc	 rax
  00428	48 89 44 24 20	 mov	 QWORD PTR p$[rsp], rax

; 921  :             *p++ = Py_hexdigits[c & 0xf];

  0042d	0f be 44 24 70	 movsx	 eax, BYTE PTR c$[rsp]
  00432	83 e0 0f	 and	 eax, 15
  00435	48 98		 cdqe
  00437	48 8b 4c 24 20	 mov	 rcx, QWORD PTR p$[rsp]
  0043c	48 8b 15 00 00
	00 00		 mov	 rdx, QWORD PTR Py_hexdigits
  00443	0f b6 04 02	 movzx	 eax, BYTE PTR [rdx+rax]
  00447	88 01		 mov	 BYTE PTR [rcx], al
  00449	48 8b 44 24 20	 mov	 rax, QWORD PTR p$[rsp]
  0044e	48 ff c0	 inc	 rax
  00451	48 89 44 24 20	 mov	 QWORD PTR p$[rsp], rax

; 922  :         }
; 923  :         else

  00456	eb 19		 jmp	 SHORT $LN3@bytearray_@11
$LN5@bytearray_@11:

; 924  :             *p++ = c;

  00458	48 8b 44 24 20	 mov	 rax, QWORD PTR p$[rsp]
  0045d	0f b6 4c 24 70	 movzx	 ecx, BYTE PTR c$[rsp]
  00462	88 08		 mov	 BYTE PTR [rax], cl
  00464	48 8b 44 24 20	 mov	 rax, QWORD PTR p$[rsp]
  00469	48 ff c0	 inc	 rax
  0046c	48 89 44 24 20	 mov	 QWORD PTR p$[rsp], rax
$LN3@bytearray_@11:
$LN6@bytearray_@11:
$LN8@bytearray_@11:
$LN10@bytearray_@11:
$LN12@bytearray_@11:
$LN14@bytearray_@11:

; 925  :     }

  00471	e9 7d fd ff ff	 jmp	 $LN18@bytearray_@11
$LN17@bytearray_@11:

; 926  :     assert(newsize - (p - buffer) >= 1);

  00476	48 8b 44 24 78	 mov	 rax, QWORD PTR buffer$[rsp]
  0047b	48 8b 4c 24 20	 mov	 rcx, QWORD PTR p$[rsp]
  00480	48 2b c8	 sub	 rcx, rax
  00483	48 8b c1	 mov	 rax, rcx
  00486	48 8b 4c 24 50	 mov	 rcx, QWORD PTR newsize$[rsp]
  0048b	48 2b c8	 sub	 rcx, rax
  0048e	48 8b c1	 mov	 rax, rcx
  00491	48 83 f8 01	 cmp	 rax, 1
  00495	73 1c		 jae	 SHORT $LN36@bytearray_@11
  00497	41 b8 9e 03 00
	00		 mov	 r8d, 926		; 0000039eH
  0049d	48 8d 15 00 00
	00 00		 lea	 rdx, OFFSET FLAT:??_C@_1DK@NEEHIPOB@?$AA?4?$AA?4?$AA?2?$AAO?$AAb?$AAj?$AAe?$AAc?$AAt?$AAs?$AA?2?$AAb?$AAy?$AAt?$AAe?$AAa?$AAr?$AAr?$AAa?$AAy?$AAo?$AAb?$AAj?$AAe?$AAc?$AAt?$AA?4?$AAc?$AA?$AA@
  004a4	48 8d 0d 00 00
	00 00		 lea	 rcx, OFFSET FLAT:??_C@_1DI@PEAFHOOC@?$AAn?$AAe?$AAw?$AAs?$AAi?$AAz?$AAe?$AA?5?$AA?9?$AA?5?$AA?$CI?$AAp?$AA?5?$AA?9?$AA?5?$AAb?$AAu?$AAf?$AAf?$AAe?$AAr?$AA?$CJ?$AA?5?$AA?$DO?$AA?$DN?$AA?5?$AA1?$AA?$AA@
  004ab	ff 15 00 00 00
	00		 call	 QWORD PTR __imp__wassert
  004b1	33 c0		 xor	 eax, eax
$LN36@bytearray_@11:

; 927  :     *p++ = quote;

  004b3	48 8b 44 24 20	 mov	 rax, QWORD PTR p$[rsp]
  004b8	0f b6 4c 24 48	 movzx	 ecx, BYTE PTR quote$[rsp]
  004bd	88 08		 mov	 BYTE PTR [rax], cl
  004bf	48 8b 44 24 20	 mov	 rax, QWORD PTR p$[rsp]
  004c4	48 ff c0	 inc	 rax
  004c7	48 89 44 24 20	 mov	 QWORD PTR p$[rsp], rax
$LN2@bytearray_@11:

; 928  :     while (*quote_postfix) {

  004cc	48 8b 44 24 38	 mov	 rax, QWORD PTR quote_postfix$[rsp]
  004d1	0f be 00	 movsx	 eax, BYTE PTR [rax]
  004d4	85 c0		 test	 eax, eax
  004d6	74 2b		 je	 SHORT $LN1@bytearray_@11

; 929  :        *p++ = *quote_postfix++;

  004d8	48 8b 44 24 20	 mov	 rax, QWORD PTR p$[rsp]
  004dd	48 8b 4c 24 38	 mov	 rcx, QWORD PTR quote_postfix$[rsp]
  004e2	0f b6 09	 movzx	 ecx, BYTE PTR [rcx]
  004e5	88 08		 mov	 BYTE PTR [rax], cl
  004e7	48 8b 44 24 20	 mov	 rax, QWORD PTR p$[rsp]
  004ec	48 ff c0	 inc	 rax
  004ef	48 89 44 24 20	 mov	 QWORD PTR p$[rsp], rax
  004f4	48 8b 44 24 38	 mov	 rax, QWORD PTR quote_postfix$[rsp]
  004f9	48 ff c0	 inc	 rax
  004fc	48 89 44 24 38	 mov	 QWORD PTR quote_postfix$[rsp], rax

; 930  :     }

  00501	eb c9		 jmp	 SHORT $LN2@bytearray_@11
$LN1@bytearray_@11:

; 931  : 
; 932  :     v = PyUnicode_DecodeASCII(buffer, p - buffer, NULL);

  00503	48 8b 44 24 78	 mov	 rax, QWORD PTR buffer$[rsp]
  00508	48 8b 4c 24 20	 mov	 rcx, QWORD PTR p$[rsp]
  0050d	48 2b c8	 sub	 rcx, rax
  00510	48 8b c1	 mov	 rax, rcx
  00513	45 33 c0	 xor	 r8d, r8d
  00516	48 8b d0	 mov	 rdx, rax
  00519	48 8b 4c 24 78	 mov	 rcx, QWORD PTR buffer$[rsp]
  0051e	e8 00 00 00 00	 call	 PyUnicode_DecodeASCII
  00523	48 89 44 24 28	 mov	 QWORD PTR v$[rsp], rax

; 933  :     PyObject_Free(buffer);

  00528	48 8b 4c 24 78	 mov	 rcx, QWORD PTR buffer$[rsp]
  0052d	e8 00 00 00 00	 call	 _PyObject_DebugFree

; 934  :     return v;

  00532	48 8b 44 24 28	 mov	 rax, QWORD PTR v$[rsp]
$LN30@bytearray_@11:

; 935  : }

  00537	48 81 c4 98 00
	00 00		 add	 rsp, 152		; 00000098H
  0053e	c3		 ret	 0
bytearray_repr ENDP
_TEXT	ENDS
PUBLIC	??_C@_0BO@DAKHFBFN@str?$CI?$CJ?5on?5a?5bytearray?5instance?$AA@ ; `string'
EXTRN	PyErr_WarnEx:PROC
EXTRN	PyExc_BytesWarning:QWORD
EXTRN	Py_BytesWarningFlag:DWORD
;	COMDAT pdata
pdata	SEGMENT
$pdata$bytearray_str DD imagerel bytearray_str
	DD	imagerel bytearray_str+66
	DD	imagerel $unwind$bytearray_str
pdata	ENDS
;	COMDAT xdata
xdata	SEGMENT
$unwind$bytearray_str DD 010901H
	DD	04209H
xdata	ENDS
;	COMDAT ??_C@_0BO@DAKHFBFN@str?$CI?$CJ?5on?5a?5bytearray?5instance?$AA@
CONST	SEGMENT
??_C@_0BO@DAKHFBFN@str?$CI?$CJ?5on?5a?5bytearray?5instance?$AA@ DB 'str()'
	DB	' on a bytearray instance', 00H		; `string'
; Function compile flags: /Odtp
CONST	ENDS
;	COMDAT bytearray_str
_TEXT	SEGMENT
op$ = 48
bytearray_str PROC					; COMDAT

; 939  : {

  00000	48 89 4c 24 08	 mov	 QWORD PTR [rsp+8], rcx
  00005	48 83 ec 28	 sub	 rsp, 40			; 00000028H

; 940  :         if (Py_BytesWarningFlag) {

  00009	83 3d 00 00 00
	00 00		 cmp	 DWORD PTR Py_BytesWarningFlag, 0
  00010	74 21		 je	 SHORT $LN2@bytearray_@12

; 941  :                 if (PyErr_WarnEx(PyExc_BytesWarning,
; 942  :                                  "str() on a bytearray instance", 1))

  00012	41 b8 01 00 00
	00		 mov	 r8d, 1
  00018	48 8d 15 00 00
	00 00		 lea	 rdx, OFFSET FLAT:??_C@_0BO@DAKHFBFN@str?$CI?$CJ?5on?5a?5bytearray?5instance?$AA@
  0001f	48 8b 0d 00 00
	00 00		 mov	 rcx, QWORD PTR PyExc_BytesWarning
  00026	e8 00 00 00 00	 call	 PyErr_WarnEx
  0002b	85 c0		 test	 eax, eax
  0002d	74 04		 je	 SHORT $LN1@bytearray_@12

; 943  :                         return NULL;

  0002f	33 c0		 xor	 eax, eax
  00031	eb 0a		 jmp	 SHORT $LN3@bytearray_@12
$LN1@bytearray_@12:
$LN2@bytearray_@12:

; 944  :         }
; 945  :         return bytearray_repr((PyByteArrayObject*)op);

  00033	48 8b 4c 24 30	 mov	 rcx, QWORD PTR op$[rsp]
  00038	e8 00 00 00 00	 call	 bytearray_repr
$LN3@bytearray_@12:

; 946  : }

  0003d	48 83 c4 28	 add	 rsp, 40			; 00000028H
  00041	c3		 ret	 0
bytearray_str ENDP
_TEXT	ENDS
PUBLIC	??_C@_0CI@GNKEBMCE@Comparison?5between?5bytearray?5and@ ; `string'
EXTRN	_Py_FalseStruct:BYTE
EXTRN	_Py_TrueStruct:BYTE
EXTRN	__ImageBase:BYTE
EXTRN	memcmp:PROC
EXTRN	_Py_NotImplementedStruct:BYTE
EXTRN	PyObject_IsInstance:PROC
EXTRN	PyUnicode_Type:BYTE
;	COMDAT pdata
pdata	SEGMENT
$pdata$bytearray_richcompare DD imagerel bytearray_richcompare
	DD	imagerel bytearray_richcompare+1036
	DD	imagerel $unwind$bytearray_richcompare
pdata	ENDS
;	COMDAT xdata
xdata	SEGMENT
$unwind$bytearray_richcompare DD 021601H
	DD	0250116H
xdata	ENDS
;	COMDAT ??_C@_0CI@GNKEBMCE@Comparison?5between?5bytearray?5and@
CONST	SEGMENT
??_C@_0CI@GNKEBMCE@Comparison?5between?5bytearray?5and@ DB 'Comparison be'
	DB	'tween bytearray and string', 00H		; `string'
; Function compile flags: /Odtp
CONST	ENDS
;	COMDAT bytearray_richcompare
_TEXT	SEGMENT
res$ = 32
self_bytes$ = 48
minsize$ = 128
other_bytes$ = 144
other_size$ = 224
self_size$ = 232
cmp$ = 240
tv128 = 244
tv137 = 248
tv139 = 252
tv141 = 256
tv143 = 260
tv145 = 264
tv147 = 268
tv149 = 272
tv152 = 280
self$ = 304
other$ = 312
op$ = 320
bytearray_richcompare PROC				; COMDAT

; 950  : {

  00000	44 89 44 24 18	 mov	 DWORD PTR [rsp+24], r8d
  00005	48 89 54 24 10	 mov	 QWORD PTR [rsp+16], rdx
  0000a	48 89 4c 24 08	 mov	 QWORD PTR [rsp+8], rcx
  0000f	48 81 ec 28 01
	00 00		 sub	 rsp, 296		; 00000128H

; 951  :     Py_ssize_t self_size, other_size;
; 952  :     Py_buffer self_bytes, other_bytes;
; 953  :     PyObject *res;
; 954  :     Py_ssize_t minsize;
; 955  :     int cmp;
; 956  : 
; 957  :     /* Bytes can be compared to anything that supports the (binary)
; 958  :        buffer API.  Except that a comparison with Unicode is always an
; 959  :        error, even if the comparison is for equality. */
; 960  :     if (PyObject_IsInstance(self, (PyObject*)&PyUnicode_Type) ||
; 961  :         PyObject_IsInstance(other, (PyObject*)&PyUnicode_Type)) {

  00016	48 8d 15 00 00
	00 00		 lea	 rdx, OFFSET FLAT:PyUnicode_Type
  0001d	48 8b 8c 24 30
	01 00 00	 mov	 rcx, QWORD PTR self$[rsp]
  00025	e8 00 00 00 00	 call	 PyObject_IsInstance
  0002a	85 c0		 test	 eax, eax
  0002c	75 18		 jne	 SHORT $LN22@bytearray_@13
  0002e	48 8d 15 00 00
	00 00		 lea	 rdx, OFFSET FLAT:PyUnicode_Type
  00035	48 8b 8c 24 38
	01 00 00	 mov	 rcx, QWORD PTR other$[rsp]
  0003d	e8 00 00 00 00	 call	 PyObject_IsInstance
  00042	85 c0		 test	 eax, eax
  00044	74 59		 je	 SHORT $LN23@bytearray_@13
$LN22@bytearray_@13:

; 962  :         if (Py_BytesWarningFlag && (op == Py_EQ || op == Py_NE)) {

  00046	83 3d 00 00 00
	00 00		 cmp	 DWORD PTR Py_BytesWarningFlag, 0
  0004d	74 38		 je	 SHORT $LN21@bytearray_@13
  0004f	83 bc 24 40 01
	00 00 02	 cmp	 DWORD PTR op$[rsp], 2
  00057	74 0a		 je	 SHORT $LN20@bytearray_@13
  00059	83 bc 24 40 01
	00 00 03	 cmp	 DWORD PTR op$[rsp], 3
  00061	75 24		 jne	 SHORT $LN21@bytearray_@13
$LN20@bytearray_@13:

; 963  :             if (PyErr_WarnEx(PyExc_BytesWarning,
; 964  :                             "Comparison between bytearray and string", 1))

  00063	41 b8 01 00 00
	00		 mov	 r8d, 1
  00069	48 8d 15 00 00
	00 00		 lea	 rdx, OFFSET FLAT:??_C@_0CI@GNKEBMCE@Comparison?5between?5bytearray?5and@
  00070	48 8b 0d 00 00
	00 00		 mov	 rcx, QWORD PTR PyExc_BytesWarning
  00077	e8 00 00 00 00	 call	 PyErr_WarnEx
  0007c	85 c0		 test	 eax, eax
  0007e	74 07		 je	 SHORT $LN19@bytearray_@13

; 965  :                 return NULL;

  00080	33 c0		 xor	 eax, eax
  00082	e9 64 03 00 00	 jmp	 $LN24@bytearray_@13
$LN19@bytearray_@13:
$LN21@bytearray_@13:

; 966  :         }
; 967  : 
; 968  :         Py_RETURN_NOTIMPLEMENTED;

  00087	48 8d 0d 00 00
	00 00		 lea	 rcx, OFFSET FLAT:_Py_NotImplementedStruct
  0008e	e8 00 00 00 00	 call	 _Py_IncRef
  00093	48 8d 05 00 00
	00 00		 lea	 rax, OFFSET FLAT:_Py_NotImplementedStruct
  0009a	e9 4c 03 00 00	 jmp	 $LN24@bytearray_@13
$LN23@bytearray_@13:

; 969  :     }
; 970  : 
; 971  :     self_size = _getbuffer(self, &self_bytes);

  0009f	48 8d 54 24 30	 lea	 rdx, QWORD PTR self_bytes$[rsp]
  000a4	48 8b 8c 24 30
	01 00 00	 mov	 rcx, QWORD PTR self$[rsp]
  000ac	e8 00 00 00 00	 call	 _getbuffer
  000b1	48 89 84 24 e8
	00 00 00	 mov	 QWORD PTR self_size$[rsp], rax

; 972  :     if (self_size < 0) {

  000b9	48 83 bc 24 e8
	00 00 00 00	 cmp	 QWORD PTR self_size$[rsp], 0
  000c2	7d 1d		 jge	 SHORT $LN18@bytearray_@13

; 973  :         PyErr_Clear();

  000c4	e8 00 00 00 00	 call	 PyErr_Clear

; 974  :         Py_RETURN_NOTIMPLEMENTED;

  000c9	48 8d 0d 00 00
	00 00		 lea	 rcx, OFFSET FLAT:_Py_NotImplementedStruct
  000d0	e8 00 00 00 00	 call	 _Py_IncRef
  000d5	48 8d 05 00 00
	00 00		 lea	 rax, OFFSET FLAT:_Py_NotImplementedStruct
  000dc	e9 0a 03 00 00	 jmp	 $LN24@bytearray_@13
$LN18@bytearray_@13:

; 975  :     }
; 976  : 
; 977  :     other_size = _getbuffer(other, &other_bytes);

  000e1	48 8d 94 24 90
	00 00 00	 lea	 rdx, QWORD PTR other_bytes$[rsp]
  000e9	48 8b 8c 24 38
	01 00 00	 mov	 rcx, QWORD PTR other$[rsp]
  000f1	e8 00 00 00 00	 call	 _getbuffer
  000f6	48 89 84 24 e0
	00 00 00	 mov	 QWORD PTR other_size$[rsp], rax

; 978  :     if (other_size < 0) {

  000fe	48 83 bc 24 e0
	00 00 00 00	 cmp	 QWORD PTR other_size$[rsp], 0
  00107	7d 27		 jge	 SHORT $LN17@bytearray_@13

; 979  :         PyErr_Clear();

  00109	e8 00 00 00 00	 call	 PyErr_Clear

; 980  :         PyBuffer_Release(&self_bytes);

  0010e	48 8d 4c 24 30	 lea	 rcx, QWORD PTR self_bytes$[rsp]
  00113	e8 00 00 00 00	 call	 PyBuffer_Release

; 981  :         Py_RETURN_NOTIMPLEMENTED;

  00118	48 8d 0d 00 00
	00 00		 lea	 rcx, OFFSET FLAT:_Py_NotImplementedStruct
  0011f	e8 00 00 00 00	 call	 _Py_IncRef
  00124	48 8d 05 00 00
	00 00		 lea	 rax, OFFSET FLAT:_Py_NotImplementedStruct
  0012b	e9 bb 02 00 00	 jmp	 $LN24@bytearray_@13
$LN17@bytearray_@13:

; 982  :     }
; 983  : 
; 984  :     if (self_size != other_size && (op == Py_EQ || op == Py_NE)) {

  00130	48 8b 84 24 e0
	00 00 00	 mov	 rax, QWORD PTR other_size$[rsp]
  00138	48 39 84 24 e8
	00 00 00	 cmp	 QWORD PTR self_size$[rsp], rax
  00140	74 49		 je	 SHORT $LN16@bytearray_@13
  00142	83 bc 24 40 01
	00 00 02	 cmp	 DWORD PTR op$[rsp], 2
  0014a	74 0a		 je	 SHORT $LN15@bytearray_@13
  0014c	83 bc 24 40 01
	00 00 03	 cmp	 DWORD PTR op$[rsp], 3
  00154	75 35		 jne	 SHORT $LN16@bytearray_@13
$LN15@bytearray_@13:

; 985  :         /* Shortcut: if the lengths differ, the objects differ */
; 986  :         cmp = (op == Py_NE);

  00156	83 bc 24 40 01
	00 00 03	 cmp	 DWORD PTR op$[rsp], 3
  0015e	75 0d		 jne	 SHORT $LN26@bytearray_@13
  00160	c7 84 24 f4 00
	00 00 01 00 00
	00		 mov	 DWORD PTR tv128[rsp], 1
  0016b	eb 0b		 jmp	 SHORT $LN27@bytearray_@13
$LN26@bytearray_@13:
  0016d	c7 84 24 f4 00
	00 00 00 00 00
	00		 mov	 DWORD PTR tv128[rsp], 0
$LN27@bytearray_@13:
  00178	8b 84 24 f4 00
	00 00		 mov	 eax, DWORD PTR tv128[rsp]
  0017f	89 84 24 f0 00
	00 00		 mov	 DWORD PTR cmp$[rsp], eax

; 987  :     }
; 988  :     else {

  00186	e9 03 02 00 00	 jmp	 $LN14@bytearray_@13
$LN16@bytearray_@13:

; 989  :         minsize = self_size;

  0018b	48 8b 84 24 e8
	00 00 00	 mov	 rax, QWORD PTR self_size$[rsp]
  00193	48 89 84 24 80
	00 00 00	 mov	 QWORD PTR minsize$[rsp], rax

; 990  :         if (other_size < minsize)

  0019b	48 8b 84 24 80
	00 00 00	 mov	 rax, QWORD PTR minsize$[rsp]
  001a3	48 39 84 24 e0
	00 00 00	 cmp	 QWORD PTR other_size$[rsp], rax
  001ab	7d 10		 jge	 SHORT $LN13@bytearray_@13

; 991  :             minsize = other_size;

  001ad	48 8b 84 24 e0
	00 00 00	 mov	 rax, QWORD PTR other_size$[rsp]
  001b5	48 89 84 24 80
	00 00 00	 mov	 QWORD PTR minsize$[rsp], rax
$LN13@bytearray_@13:

; 992  : 
; 993  :         cmp = memcmp(self_bytes.buf, other_bytes.buf, minsize);

  001bd	4c 8b 84 24 80
	00 00 00	 mov	 r8, QWORD PTR minsize$[rsp]
  001c5	48 8b 94 24 90
	00 00 00	 mov	 rdx, QWORD PTR other_bytes$[rsp]
  001cd	48 8b 4c 24 30	 mov	 rcx, QWORD PTR self_bytes$[rsp]
  001d2	e8 00 00 00 00	 call	 memcmp
  001d7	89 84 24 f0 00
	00 00		 mov	 DWORD PTR cmp$[rsp], eax

; 994  :         /* In ISO C, memcmp() guarantees to use unsigned bytes! */
; 995  : 
; 996  :         if (cmp == 0) {

  001de	83 bc 24 f0 00
	00 00 00	 cmp	 DWORD PTR cmp$[rsp], 0
  001e6	75 3c		 jne	 SHORT $LN12@bytearray_@13

; 997  :             if (self_size < other_size)

  001e8	48 8b 84 24 e0
	00 00 00	 mov	 rax, QWORD PTR other_size$[rsp]
  001f0	48 39 84 24 e8
	00 00 00	 cmp	 QWORD PTR self_size$[rsp], rax
  001f8	7d 0d		 jge	 SHORT $LN11@bytearray_@13

; 998  :                 cmp = -1;

  001fa	c7 84 24 f0 00
	00 00 ff ff ff
	ff		 mov	 DWORD PTR cmp$[rsp], -1
  00205	eb 1d		 jmp	 SHORT $LN10@bytearray_@13
$LN11@bytearray_@13:

; 999  :             else if (self_size > other_size)

  00207	48 8b 84 24 e0
	00 00 00	 mov	 rax, QWORD PTR other_size$[rsp]
  0020f	48 39 84 24 e8
	00 00 00	 cmp	 QWORD PTR self_size$[rsp], rax
  00217	7e 0b		 jle	 SHORT $LN9@bytearray_@13

; 1000 :                 cmp = 1;

  00219	c7 84 24 f0 00
	00 00 01 00 00
	00		 mov	 DWORD PTR cmp$[rsp], 1
$LN9@bytearray_@13:
$LN10@bytearray_@13:
$LN12@bytearray_@13:

; 1001 :         }
; 1002 : 
; 1003 :         switch (op) {

  00224	8b 84 24 40 01
	00 00		 mov	 eax, DWORD PTR op$[rsp]
  0022b	89 84 24 f8 00
	00 00		 mov	 DWORD PTR tv137[rsp], eax
  00232	83 bc 24 f8 00
	00 00 05	 cmp	 DWORD PTR tv137[rsp], 5
  0023a	0f 87 4e 01 00
	00		 ja	 $LN7@bytearray_@13
  00240	48 63 84 24 f8
	00 00 00	 movsxd	 rax, DWORD PTR tv137[rsp]
  00248	48 8d 0d 00 00
	00 00		 lea	 rcx, OFFSET FLAT:__ImageBase
  0024f	8b 84 81 00 00
	00 00		 mov	 eax, DWORD PTR $LN42@bytearray_@13[rcx+rax*4]
  00256	48 03 c1	 add	 rax, rcx
  00259	ff e0		 jmp	 rax
$LN6@bytearray_@13:

; 1004 :         case Py_LT: cmp = cmp <  0; break;

  0025b	83 bc 24 f0 00
	00 00 00	 cmp	 DWORD PTR cmp$[rsp], 0
  00263	7d 0d		 jge	 SHORT $LN28@bytearray_@13
  00265	c7 84 24 fc 00
	00 00 01 00 00
	00		 mov	 DWORD PTR tv139[rsp], 1
  00270	eb 0b		 jmp	 SHORT $LN29@bytearray_@13
$LN28@bytearray_@13:
  00272	c7 84 24 fc 00
	00 00 00 00 00
	00		 mov	 DWORD PTR tv139[rsp], 0
$LN29@bytearray_@13:
  0027d	8b 84 24 fc 00
	00 00		 mov	 eax, DWORD PTR tv139[rsp]
  00284	89 84 24 f0 00
	00 00		 mov	 DWORD PTR cmp$[rsp], eax
  0028b	e9 fe 00 00 00	 jmp	 $LN7@bytearray_@13
$LN5@bytearray_@13:

; 1005 :         case Py_LE: cmp = cmp <= 0; break;

  00290	83 bc 24 f0 00
	00 00 00	 cmp	 DWORD PTR cmp$[rsp], 0
  00298	7f 0d		 jg	 SHORT $LN30@bytearray_@13
  0029a	c7 84 24 00 01
	00 00 01 00 00
	00		 mov	 DWORD PTR tv141[rsp], 1
  002a5	eb 0b		 jmp	 SHORT $LN31@bytearray_@13
$LN30@bytearray_@13:
  002a7	c7 84 24 00 01
	00 00 00 00 00
	00		 mov	 DWORD PTR tv141[rsp], 0
$LN31@bytearray_@13:
  002b2	8b 84 24 00 01
	00 00		 mov	 eax, DWORD PTR tv141[rsp]
  002b9	89 84 24 f0 00
	00 00		 mov	 DWORD PTR cmp$[rsp], eax
  002c0	e9 c9 00 00 00	 jmp	 $LN7@bytearray_@13
$LN4@bytearray_@13:

; 1006 :         case Py_EQ: cmp = cmp == 0; break;

  002c5	83 bc 24 f0 00
	00 00 00	 cmp	 DWORD PTR cmp$[rsp], 0
  002cd	75 0d		 jne	 SHORT $LN32@bytearray_@13
  002cf	c7 84 24 04 01
	00 00 01 00 00
	00		 mov	 DWORD PTR tv143[rsp], 1
  002da	eb 0b		 jmp	 SHORT $LN33@bytearray_@13
$LN32@bytearray_@13:
  002dc	c7 84 24 04 01
	00 00 00 00 00
	00		 mov	 DWORD PTR tv143[rsp], 0
$LN33@bytearray_@13:
  002e7	8b 84 24 04 01
	00 00		 mov	 eax, DWORD PTR tv143[rsp]
  002ee	89 84 24 f0 00
	00 00		 mov	 DWORD PTR cmp$[rsp], eax
  002f5	e9 94 00 00 00	 jmp	 $LN7@bytearray_@13
$LN3@bytearray_@13:

; 1007 :         case Py_NE: cmp = cmp != 0; break;

  002fa	83 bc 24 f0 00
	00 00 00	 cmp	 DWORD PTR cmp$[rsp], 0
  00302	74 0d		 je	 SHORT $LN34@bytearray_@13
  00304	c7 84 24 08 01
	00 00 01 00 00
	00		 mov	 DWORD PTR tv145[rsp], 1
  0030f	eb 0b		 jmp	 SHORT $LN35@bytearray_@13
$LN34@bytearray_@13:
  00311	c7 84 24 08 01
	00 00 00 00 00
	00		 mov	 DWORD PTR tv145[rsp], 0
$LN35@bytearray_@13:
  0031c	8b 84 24 08 01
	00 00		 mov	 eax, DWORD PTR tv145[rsp]
  00323	89 84 24 f0 00
	00 00		 mov	 DWORD PTR cmp$[rsp], eax
  0032a	eb 62		 jmp	 SHORT $LN7@bytearray_@13
$LN2@bytearray_@13:

; 1008 :         case Py_GT: cmp = cmp >  0; break;

  0032c	83 bc 24 f0 00
	00 00 00	 cmp	 DWORD PTR cmp$[rsp], 0
  00334	7e 0d		 jle	 SHORT $LN36@bytearray_@13
  00336	c7 84 24 0c 01
	00 00 01 00 00
	00		 mov	 DWORD PTR tv147[rsp], 1
  00341	eb 0b		 jmp	 SHORT $LN37@bytearray_@13
$LN36@bytearray_@13:
  00343	c7 84 24 0c 01
	00 00 00 00 00
	00		 mov	 DWORD PTR tv147[rsp], 0
$LN37@bytearray_@13:
  0034e	8b 84 24 0c 01
	00 00		 mov	 eax, DWORD PTR tv147[rsp]
  00355	89 84 24 f0 00
	00 00		 mov	 DWORD PTR cmp$[rsp], eax
  0035c	eb 30		 jmp	 SHORT $LN7@bytearray_@13
$LN1@bytearray_@13:

; 1009 :         case Py_GE: cmp = cmp >= 0; break;

  0035e	83 bc 24 f0 00
	00 00 00	 cmp	 DWORD PTR cmp$[rsp], 0
  00366	7c 0d		 jl	 SHORT $LN38@bytearray_@13
  00368	c7 84 24 10 01
	00 00 01 00 00
	00		 mov	 DWORD PTR tv149[rsp], 1
  00373	eb 0b		 jmp	 SHORT $LN39@bytearray_@13
$LN38@bytearray_@13:
  00375	c7 84 24 10 01
	00 00 00 00 00
	00		 mov	 DWORD PTR tv149[rsp], 0
$LN39@bytearray_@13:
  00380	8b 84 24 10 01
	00 00		 mov	 eax, DWORD PTR tv149[rsp]
  00387	89 84 24 f0 00
	00 00		 mov	 DWORD PTR cmp$[rsp], eax
$LN7@bytearray_@13:
$LN14@bytearray_@13:

; 1010 :         }
; 1011 :     }
; 1012 : 
; 1013 :     res = cmp ? Py_True : Py_False;

  0038e	83 bc 24 f0 00
	00 00 00	 cmp	 DWORD PTR cmp$[rsp], 0
  00396	74 11		 je	 SHORT $LN40@bytearray_@13
  00398	48 8d 05 00 00
	00 00		 lea	 rax, OFFSET FLAT:_Py_TrueStruct
  0039f	48 89 84 24 18
	01 00 00	 mov	 QWORD PTR tv152[rsp], rax
  003a7	eb 0f		 jmp	 SHORT $LN41@bytearray_@13
$LN40@bytearray_@13:
  003a9	48 8d 05 00 00
	00 00		 lea	 rax, OFFSET FLAT:_Py_FalseStruct
  003b0	48 89 84 24 18
	01 00 00	 mov	 QWORD PTR tv152[rsp], rax
$LN41@bytearray_@13:
  003b8	48 8b 84 24 18
	01 00 00	 mov	 rax, QWORD PTR tv152[rsp]
  003c0	48 89 44 24 20	 mov	 QWORD PTR res$[rsp], rax

; 1014 :     PyBuffer_Release(&self_bytes);

  003c5	48 8d 4c 24 30	 lea	 rcx, QWORD PTR self_bytes$[rsp]
  003ca	e8 00 00 00 00	 call	 PyBuffer_Release

; 1015 :     PyBuffer_Release(&other_bytes);

  003cf	48 8d 8c 24 90
	00 00 00	 lea	 rcx, QWORD PTR other_bytes$[rsp]
  003d7	e8 00 00 00 00	 call	 PyBuffer_Release

; 1016 :     Py_INCREF(res);

  003dc	48 8b 4c 24 20	 mov	 rcx, QWORD PTR res$[rsp]
  003e1	e8 00 00 00 00	 call	 _Py_IncRef

; 1017 :     return res;

  003e6	48 8b 44 24 20	 mov	 rax, QWORD PTR res$[rsp]
$LN24@bytearray_@13:

; 1018 : }

  003eb	48 81 c4 28 01
	00 00		 add	 rsp, 296		; 00000128H
  003f2	c3		 ret	 0
  003f3	90		 npad	 1
$LN42@bytearray_@13:
  003f4	00 00 00 00	 DD	 $LN6@bytearray_@13
  003f8	00 00 00 00	 DD	 $LN5@bytearray_@13
  003fc	00 00 00 00	 DD	 $LN4@bytearray_@13
  00400	00 00 00 00	 DD	 $LN3@bytearray_@13
  00404	00 00 00 00	 DD	 $LN2@bytearray_@13
  00408	00 00 00 00	 DD	 $LN1@bytearray_@13
bytearray_richcompare ENDP
_TEXT	ENDS
PUBLIC	??_C@_0DC@LNAAPJIN@deallocated?5bytearray?5object?5has@ ; `string'
EXTRN	PyErr_Print:PROC
;	COMDAT pdata
pdata	SEGMENT
$pdata$bytearray_dealloc DD imagerel bytearray_dealloc
	DD	imagerel bytearray_dealloc+101
	DD	imagerel $unwind$bytearray_dealloc
pdata	ENDS
;	COMDAT xdata
xdata	SEGMENT
$unwind$bytearray_dealloc DD 010901H
	DD	04209H
xdata	ENDS
;	COMDAT ??_C@_0DC@LNAAPJIN@deallocated?5bytearray?5object?5has@
CONST	SEGMENT
??_C@_0DC@LNAAPJIN@deallocated?5bytearray?5object?5has@ DB 'deallocated b'
	DB	'ytearray object has exported buffers', 00H	; `string'
; Function compile flags: /Odtp
