; Listing generated by Microsoft (R) Optimizing Compiler Version 16.00.40219.01 

include listing.inc

INCLUDELIB MSVCRTD
INCLUDELIB OLDNAMES

PUBLIC	??_C@_08IBFKALI@__dict__?$AA@			; `string'
PUBLIC	??_C@_07HHBPHOLM@__all__?$AA@			; `string'
PUBLIC	??_C@_09OAJHKKGH@__enter__?$AA@			; `string'
PUBLIC	??_C@_08CMFIGCJD@__exit__?$AA@			; `string'
PUBLIC	??_C@_0L@KEEJPJHH@__import__?$AA@		; `string'
PUBLIC	??_C@_0BA@JDLNCAMO@__build_class__?$AA@		; `string'
PUBLIC	??_C@_04MIIPNNEF@send?$AA@			; `string'
PUBLIC	??_C@_0L@JFJKGIKJ@__ltrace__?$AA@		; `string'
PUBLIC	??_C@_0M@JAEGONOO@_after_fork?$AA@		; `string'
PUBLIC	_Py_CheckRecursionLimit
_BSS	SEGMENT
pending_lock DQ	01H DUP (?)
main_thread DD	01H DUP (?)
eval_breaker DD	01H DUP (?)
gil_drop_request DD 01H DUP (?)
pendingcalls_to_do DD 01H DUP (?)
pending_async_exc DD 01H DUP (?)
gil_switch_number DD 01H DUP (?)
gil_last_holder DQ 01H DUP (?)
pendingfirst DD	01H DUP (?)
pendinglast DD	01H DUP (?)
?busy@?1??Py_MakePendingCalls@@9@9 DD 01H DUP (?)	; `Py_MakePendingCalls'::`2'::busy
_Py_TracingPossible DD 01H DUP (?)
_BSS	ENDS
;	COMDAT ??_C@_08IBFKALI@__dict__?$AA@
CONST	SEGMENT
??_C@_08IBFKALI@__dict__?$AA@ DB '__dict__', 00H	; `string'
CONST	ENDS
;	COMDAT ??_C@_07HHBPHOLM@__all__?$AA@
CONST	SEGMENT
??_C@_07HHBPHOLM@__all__?$AA@ DB '__all__', 00H		; `string'
CONST	ENDS
;	COMDAT ??_C@_09OAJHKKGH@__enter__?$AA@
CONST	SEGMENT
??_C@_09OAJHKKGH@__enter__?$AA@ DB '__enter__', 00H	; `string'
CONST	ENDS
;	COMDAT ??_C@_08CMFIGCJD@__exit__?$AA@
CONST	SEGMENT
??_C@_08CMFIGCJD@__exit__?$AA@ DB '__exit__', 00H	; `string'
CONST	ENDS
;	COMDAT ??_C@_0L@KEEJPJHH@__import__?$AA@
CONST	SEGMENT
??_C@_0L@KEEJPJHH@__import__?$AA@ DB '__import__', 00H	; `string'
CONST	ENDS
;	COMDAT ??_C@_0BA@JDLNCAMO@__build_class__?$AA@
CONST	SEGMENT
??_C@_0BA@JDLNCAMO@__build_class__?$AA@ DB '__build_class__', 00H ; `string'
CONST	ENDS
;	COMDAT ??_C@_04MIIPNNEF@send?$AA@
CONST	SEGMENT
??_C@_04MIIPNNEF@send?$AA@ DB 'send', 00H		; `string'
CONST	ENDS
;	COMDAT ??_C@_0L@JFJKGIKJ@__ltrace__?$AA@
CONST	SEGMENT
??_C@_0L@JFJKGIKJ@__ltrace__?$AA@ DB '__ltrace__', 00H	; `string'
CONST	ENDS
_TLS	SEGMENT
?PyId___dict__@?1??import_all_from@@9@9 DQ 0000000000000000H ; `import_all_from'::`2'::PyId___dict__
	DQ	FLAT:??_C@_08IBFKALI@__dict__?$AA@
	DQ	0000000000000000H
?PyId___all__@?1??import_all_from@@9@9 DQ 0000000000000000H ; `import_all_from'::`2'::PyId___all__
	DQ	FLAT:??_C@_07HHBPHOLM@__all__?$AA@
	DQ	0000000000000000H
?PyId___enter__@?KM@??PyEval_EvalFrameEx@@9@9 DQ 0000000000000000H ; `PyEval_EvalFrameEx'::`172'::PyId___enter__
	DQ	FLAT:??_C@_09OAJHKKGH@__enter__?$AA@
	DQ	0000000000000000H
?PyId___exit__@?KM@??PyEval_EvalFrameEx@@9@9 DQ 0000000000000000H ; `PyEval_EvalFrameEx'::`172'::PyId___exit__
	DQ	FLAT:??_C@_08CMFIGCJD@__exit__?$AA@
	DQ	0000000000000000H
?PyId___import__@?IL@??PyEval_EvalFrameEx@@9@9 DQ 0000000000000000H ; `PyEval_EvalFrameEx'[::L]::PyId___import__
	DQ	FLAT:??_C@_0L@KEEJPJHH@__import__?$AA@
	DQ	0000000000000000H
?PyId___build_class__@?EO@??PyEval_EvalFrameEx@@9@9 DQ 0000000000000000H ; `PyEval_EvalFrameEx'::`78'::PyId___build_class__
	DQ	FLAT:??_C@_0BA@JDLNCAMO@__build_class__?$AA@
	DQ	0000000000000000H
?PyId_send@?DF@??PyEval_EvalFrameEx@@9@9 DQ 0000000000000000H ; `PyEval_EvalFrameEx'::`53'::PyId_send
	DQ	FLAT:??_C@_04MIIPNNEF@send?$AA@
	DQ	0000000000000000H
?PyId___ltrace__@?1??PyEval_EvalFrameEx@@9@9 DQ 0000000000000000H ; `PyEval_EvalFrameEx'::`2'::PyId___ltrace__
	DQ	FLAT:??_C@_0L@JFJKGIKJ@__ltrace__?$AA@
	DQ	0000000000000000H
?PyId__after_fork@?1??PyEval_ReInitThreads@@9@9 DQ 0000000000000000H ; `PyEval_ReInitThreads'::`2'::PyId__after_fork
	DQ	FLAT:??_C@_0M@JAEGONOO@_after_fork?$AA@
	DQ	0000000000000000H
_TLS	ENDS
;	COMDAT ??_C@_0M@JAEGONOO@_after_fork?$AA@
CONST	SEGMENT
??_C@_0M@JAEGONOO@_after_fork?$AA@ DB '_after_fork', 00H ; `string'
CONST	ENDS
_DATA	SEGMENT
gil_interval DD	01388H
gil_locked DD	0ffffffffH
recursion_limit DD 03e8H
_Py_CheckRecursionLimit DD 03e8H
_DATA	ENDS
PUBLIC	_Py_IncRef
PUBLIC	PyEval_GetCallStats
EXTRN	_Py_NoneStruct:BYTE
;	COMDAT pdata
; File c:\src\pyparallel\python\ceval.c
pdata	SEGMENT
$pdata$PyEval_GetCallStats DD imagerel $LN3
	DD	imagerel $LN3+28
	DD	imagerel $unwind$PyEval_GetCallStats
pdata	ENDS
;	COMDAT xdata
xdata	SEGMENT
$unwind$PyEval_GetCallStats DD 010401H
	DD	04204H
; Function compile flags: /Ogtp
xdata	ENDS
;	COMDAT PyEval_GetCallStats
_TEXT	SEGMENT
self$ = 48
PyEval_GetCallStats PROC				; COMDAT

; 217  : {

$LN3:
  00000	48 83 ec 28	 sub	 rsp, 40			; 00000028H

; 218  :     Py_INCREF(Py_None);

  00004	48 8d 0d 00 00
	00 00		 lea	 rcx, OFFSET FLAT:_Py_NoneStruct
  0000b	e8 00 00 00 00	 call	 _Py_IncRef

; 219  :     return Py_None;

  00010	48 8d 05 00 00
	00 00		 lea	 rax, OFFSET FLAT:_Py_NoneStruct

; 220  : }

  00017	48 83 c4 28	 add	 rsp, 40			; 00000028H
  0001b	c3		 ret	 0
PyEval_GetCallStats ENDP
_TEXT	ENDS
PUBLIC	??_C@_0L@DHGMCEID@_Py_IncRef?$AA@		; `string'
PUBLIC	??_C@_0CD@HDJFDCDP@c?3?2src?2pyparallel?2include?2object@ ; `string'
EXTRN	_Py_RefTotal:QWORD
EXTRN	_PyParallel_Guard:PROC
EXTRN	_Py_PXCTX:PROC
;	COMDAT pdata
; File c:\src\pyparallel\include\object.h
pdata	SEGMENT
$pdata$_Py_IncRef DD imagerel $LN7
	DD	imagerel $LN7+90
	DD	imagerel $unwind$_Py_IncRef
pdata	ENDS
;	COMDAT xdata
xdata	SEGMENT
$unwind$_Py_IncRef DD 020601H
	DD	030025206H
xdata	ENDS
;	COMDAT ??_C@_0L@DHGMCEID@_Py_IncRef?$AA@
CONST	SEGMENT
??_C@_0L@DHGMCEID@_Py_IncRef?$AA@ DB '_Py_IncRef', 00H	; `string'
CONST	ENDS
;	COMDAT ??_C@_0CD@HDJFDCDP@c?3?2src?2pyparallel?2include?2object@
CONST	SEGMENT
??_C@_0CD@HDJFDCDP@c?3?2src?2pyparallel?2include?2object@ DB 'c:\src\pypa'
	DB	'rallel\include\object.h', 00H		; `string'
; Function compile flags: /Ogtp
CONST	ENDS
;	COMDAT _Py_IncRef
_TEXT	SEGMENT
op$ = 64
_Py_IncRef PROC						; COMDAT

; 904  : {

$LN7:
  00000	40 53		 push	 rbx
  00002	48 83 ec 30	 sub	 rsp, 48			; 00000030H
  00006	48 8b d9	 mov	 rbx, rcx

; 905  :     if ((!Py_PXCTX && (Py_ISPY(op) || Px_PERSISTED(op)))) {

  00009	e8 00 00 00 00	 call	 _Py_PXCTX
  0000e	85 c0		 test	 eax, eax
  00010	75 42		 jne	 SHORT $LN2@Py_IncRef
  00012	48 8d 15 00 00
	00 00		 lea	 rdx, OFFSET FLAT:??_C@_0CD@HDJFDCDP@c?3?2src?2pyparallel?2include?2object@
  00019	48 8d 0d 00 00
	00 00		 lea	 rcx, OFFSET FLAT:??_C@_0L@DHGMCEID@_Py_IncRef?$AA@
  00020	4c 8b cb	 mov	 r9, rbx
  00023	41 b8 89 03 00
	00		 mov	 r8d, 905		; 00000389H
  00029	c7 44 24 20 02
	00 00 00	 mov	 DWORD PTR [rsp+32], 2
  00031	e8 00 00 00 00	 call	 _PyParallel_Guard
  00036	85 c0		 test	 eax, eax
  00038	75 06		 jne	 SHORT $LN1@Py_IncRef
  0003a	f6 43 20 20	 test	 BYTE PTR [rbx+32], 32	; 00000020H
  0003e	74 14		 je	 SHORT $LN2@Py_IncRef
$LN1@Py_IncRef:

; 906  :         _Py_INC_REFTOTAL;

  00040	e8 00 00 00 00	 call	 _Py_PXCTX
  00045	85 c0		 test	 eax, eax
  00047	75 07		 jne	 SHORT $LN6@Py_IncRef
  00049	48 ff 05 00 00
	00 00		 inc	 QWORD PTR _Py_RefTotal
$LN6@Py_IncRef:

; 907  :         (((PyObject*)(op))->ob_refcnt++);

  00050	48 ff 43 50	 inc	 QWORD PTR [rbx+80]
$LN2@Py_IncRef:

; 908  :     }
; 909  : }

  00054	48 83 c4 30	 add	 rsp, 48			; 00000030H
  00058	5b		 pop	 rbx
  00059	c3		 ret	 0
_Py_IncRef ENDP
_TEXT	ENDS
PUBLIC	_PyEval_SetSwitchInterval
; Function compile flags: /Ogtp
; File c:\src\pyparallel\python\ceval_gil.h
;	COMDAT _PyEval_SetSwitchInterval
_TEXT	SEGMENT
microseconds$ = 8
_PyEval_SetSwitchInterval PROC				; COMDAT

; 276  :     gil_interval = microseconds;

  00000	89 0d 00 00 00
	00		 mov	 DWORD PTR gil_interval, ecx

; 277  : }

  00006	c3		 ret	 0
_PyEval_SetSwitchInterval ENDP
_TEXT	ENDS
PUBLIC	_PyEval_GetSwitchInterval
; Function compile flags: /Ogtp
;	COMDAT _PyEval_GetSwitchInterval
_TEXT	SEGMENT
_PyEval_GetSwitchInterval PROC				; COMDAT

; 281  :     return gil_interval;

  00000	8b 05 00 00 00
	00		 mov	 eax, DWORD PTR gil_interval

; 282  : }

  00006	c3		 ret	 0
_PyEval_GetSwitchInterval ENDP
_TEXT	ENDS
PUBLIC	??_C@_0BK@NJBENHLP@PyEval_ThreadsInitialized?$AA@ ; `string'
PUBLIC	??_C@_0BC@CJJEGEEJ@?4?4?2Python?2ceval?4c?$AA@	; `string'
PUBLIC	PyEval_ThreadsInitialized
EXTRN	_PyParallel_ContextGuardFailure:PROC
;	COMDAT pdata
; File c:\src\pyparallel\python\ceval.c
pdata	SEGMENT
$pdata$PyEval_ThreadsInitialized DD imagerel $LN4
	DD	imagerel $LN4+50
	DD	imagerel $unwind$PyEval_ThreadsInitialized
pdata	ENDS
;	COMDAT xdata
xdata	SEGMENT
$unwind$PyEval_ThreadsInitialized DD 010401H
	DD	04204H
xdata	ENDS
;	COMDAT ??_C@_0BK@NJBENHLP@PyEval_ThreadsInitialized?$AA@
CONST	SEGMENT
??_C@_0BK@NJBENHLP@PyEval_ThreadsInitialized?$AA@ DB 'PyEval_ThreadsIniti'
	DB	'alized', 00H				; `string'
CONST	ENDS
;	COMDAT ??_C@_0BC@CJJEGEEJ@?4?4?2Python?2ceval?4c?$AA@
CONST	SEGMENT
??_C@_0BC@CJJEGEEJ@?4?4?2Python?2ceval?4c?$AA@ DB '..\Python\ceval.c', 00H ; `string'
; Function compile flags: /Ogtp
CONST	ENDS
;	COMDAT PyEval_ThreadsInitialized
_TEXT	SEGMENT
PyEval_ThreadsInitialized PROC				; COMDAT

; 303  : {

$LN4:
  00000	48 83 ec 28	 sub	 rsp, 40			; 00000028H

; 304  :     Py_GUARD

  00004	e8 00 00 00 00	 call	 _Py_PXCTX
  00009	85 c0		 test	 eax, eax
  0000b	74 1c		 je	 SHORT $LN1@PyEval_Thr
  0000d	48 8d 15 00 00
	00 00		 lea	 rdx, OFFSET FLAT:??_C@_0BC@CJJEGEEJ@?4?4?2Python?2ceval?4c?$AA@
  00014	48 8d 0d 00 00
	00 00		 lea	 rcx, OFFSET FLAT:??_C@_0BK@NJBENHLP@PyEval_ThreadsInitialized?$AA@
  0001b	45 33 c9	 xor	 r9d, r9d
  0001e	41 b8 30 01 00
	00		 mov	 r8d, 304		; 00000130H
  00024	e8 00 00 00 00	 call	 _PyParallel_ContextGuardFailure
$LN1@PyEval_Thr:

; 305  :     return gil_created();
; 306  : }

  00029	48 83 c4 28	 add	 rsp, 40			; 00000028H
  0002d	e9 00 00 00 00	 jmp	 gil_created
PyEval_ThreadsInitialized ENDP
; Function compile flags: /Ogtp
; File c:\src\pyparallel\python\ceval_gil.h
_TEXT	ENDS
;	COMDAT gil_created
_TEXT	SEGMENT
gil_created PROC					; COMDAT

; 132  :     return _Py_atomic_load_explicit(&gil_locked, _Py_memory_order_acquire) >= 0;

  00000	33 c0		 xor	 eax, eax
  00002	39 05 00 00 00
	00		 cmp	 DWORD PTR gil_locked, eax
  00008	0f 9d c0	 setge	 al

; 133  : }

  0000b	c3		 ret	 0
gil_created ENDP
_TEXT	ENDS
PUBLIC	??_C@_0BD@IFFAKDAD@PyEval_InitThreads?$AA@	; `string'
PUBLIC	PyEval_InitThreads
EXTRN	PyThread_allocate_lock:PROC
EXTRN	PyThread_get_thread_ident:PROC
EXTRN	PyThreadState_Get:PROC
;	COMDAT pdata
; File c:\src\pyparallel\python\ceval.c
pdata	SEGMENT
$pdata$PyEval_InitThreads DD imagerel $LN6
	DD	imagerel $LN6+106
	DD	imagerel $unwind$PyEval_InitThreads
pdata	ENDS
;	COMDAT xdata
xdata	SEGMENT
$unwind$PyEval_InitThreads DD 010401H
	DD	04204H
xdata	ENDS
;	COMDAT ??_C@_0BD@IFFAKDAD@PyEval_InitThreads?$AA@
CONST	SEGMENT
??_C@_0BD@IFFAKDAD@PyEval_InitThreads?$AA@ DB 'PyEval_InitThreads', 00H ; `string'
; Function compile flags: /Ogtp
CONST	ENDS
;	COMDAT PyEval_InitThreads
_TEXT	SEGMENT
PyEval_InitThreads PROC					; COMDAT

; 310  : {

$LN6:
  00000	48 83 ec 28	 sub	 rsp, 40			; 00000028H

; 311  :     Py_GUARD

  00004	e8 00 00 00 00	 call	 _Py_PXCTX
  00009	85 c0		 test	 eax, eax
  0000b	74 1c		 je	 SHORT $LN3@PyEval_Ini
  0000d	48 8d 15 00 00
	00 00		 lea	 rdx, OFFSET FLAT:??_C@_0BC@CJJEGEEJ@?4?4?2Python?2ceval?4c?$AA@
  00014	48 8d 0d 00 00
	00 00		 lea	 rcx, OFFSET FLAT:??_C@_0BD@IFFAKDAD@PyEval_InitThreads?$AA@
  0001b	45 33 c9	 xor	 r9d, r9d
  0001e	41 b8 37 01 00
	00		 mov	 r8d, 311		; 00000137H
  00024	e8 00 00 00 00	 call	 _PyParallel_ContextGuardFailure
$LN3@PyEval_Ini:

; 312  :     if (gil_created())

  00029	e8 00 00 00 00	 call	 gil_created
  0002e	85 c0		 test	 eax, eax
  00030	75 33		 jne	 SHORT $LN1@PyEval_Ini

; 313  :         return;
; 314  :     create_gil();

  00032	e8 00 00 00 00	 call	 create_gil

; 315  :     take_gil(PyThreadState_GET());

  00037	e8 00 00 00 00	 call	 PyThreadState_Get
  0003c	48 8b c8	 mov	 rcx, rax
  0003f	e8 00 00 00 00	 call	 take_gil

; 316  :     main_thread = PyThread_get_thread_ident();

  00044	e8 00 00 00 00	 call	 PyThread_get_thread_ident

; 317  :     if (!pending_lock)

  00049	48 83 3d 00 00
	00 00 00	 cmp	 QWORD PTR pending_lock, 0
  00051	89 05 00 00 00
	00		 mov	 DWORD PTR main_thread, eax
  00057	75 0c		 jne	 SHORT $LN1@PyEval_Ini

; 318  :         pending_lock = PyThread_allocate_lock();

  00059	e8 00 00 00 00	 call	 PyThread_allocate_lock
  0005e	48 89 05 00 00
	00 00		 mov	 QWORD PTR pending_lock, rax
$LN1@PyEval_Ini:

; 319  : }

  00065	48 83 c4 28	 add	 rsp, 40			; 00000028H
  00069	c3		 ret	 0
PyEval_InitThreads ENDP
_TEXT	ENDS
PUBLIC	??_C@_0CA@JELFKHKC@PyCOND_INIT?$CIswitch_cond?$CJ?5failed?$AA@ ; `string'
PUBLIC	??_C@_0BN@GEIJFMD@PyCOND_INIT?$CIgil_cond?$CJ?5failed?$AA@ ; `string'
PUBLIC	??_C@_0CC@OAPCBLHB@PyMUTEX_INIT?$CIswitch_mutex?$CJ?5faile@ ; `string'
PUBLIC	??_C@_0BP@JKHMFMNF@PyMUTEX_INIT?$CIgil_mutex?$CJ?5failed?$AA@ ; `string'
EXTRN	_PyParallel_CreatedGIL:PROC
EXTRN	Py_FatalError:PROC
_BSS	SEGMENT
switch_cond DB	010H DUP (?)
gil_cond DB	010H DUP (?)
switch_mutex DB	028H DUP (?)
gil_mutex DB	028H DUP (?)
_BSS	ENDS
;	COMDAT pdata
; File c:\src\pyparallel\python\ceval_gil.h
pdata	SEGMENT
$pdata$create_gil DD imagerel create_gil
	DD	imagerel create_gil+140
	DD	imagerel $unwind$create_gil
pdata	ENDS
;	COMDAT xdata
xdata	SEGMENT
$unwind$create_gil DD 010401H
	DD	04204H
xdata	ENDS
;	COMDAT ??_C@_0CA@JELFKHKC@PyCOND_INIT?$CIswitch_cond?$CJ?5failed?$AA@
CONST	SEGMENT
??_C@_0CA@JELFKHKC@PyCOND_INIT?$CIswitch_cond?$CJ?5failed?$AA@ DB 'PyCOND'
	DB	'_INIT(switch_cond) failed', 00H		; `string'
CONST	ENDS
;	COMDAT ??_C@_0BN@GEIJFMD@PyCOND_INIT?$CIgil_cond?$CJ?5failed?$AA@
CONST	SEGMENT
??_C@_0BN@GEIJFMD@PyCOND_INIT?$CIgil_cond?$CJ?5failed?$AA@ DB 'PyCOND_INI'
	DB	'T(gil_cond) failed', 00H			; `string'
CONST	ENDS
;	COMDAT ??_C@_0CC@OAPCBLHB@PyMUTEX_INIT?$CIswitch_mutex?$CJ?5faile@
CONST	SEGMENT
??_C@_0CC@OAPCBLHB@PyMUTEX_INIT?$CIswitch_mutex?$CJ?5faile@ DB 'PyMUTEX_I'
	DB	'NIT(switch_mutex) failed', 00H		; `string'
CONST	ENDS
;	COMDAT ??_C@_0BP@JKHMFMNF@PyMUTEX_INIT?$CIgil_mutex?$CJ?5failed?$AA@
CONST	SEGMENT
??_C@_0BP@JKHMFMNF@PyMUTEX_INIT?$CIgil_mutex?$CJ?5failed?$AA@ DB 'PyMUTEX'
	DB	'_INIT(gil_mutex) failed', 00H		; `string'
; Function compile flags: /Ogtp
CONST	ENDS
;	COMDAT create_gil
_TEXT	SEGMENT
create_gil PROC						; COMDAT

; 136  : {

  00000	48 83 ec 28	 sub	 rsp, 40			; 00000028H

; 137  :     MUTEX_INIT(gil_mutex);

  00004	48 8d 0d 00 00
	00 00		 lea	 rcx, OFFSET FLAT:gil_mutex
  0000b	e8 00 00 00 00	 call	 PyMUTEX_INIT
  00010	85 c0		 test	 eax, eax
  00012	74 0c		 je	 SHORT $LN4@create_gil
  00014	48 8d 0d 00 00
	00 00		 lea	 rcx, OFFSET FLAT:??_C@_0BP@JKHMFMNF@PyMUTEX_INIT?$CIgil_mutex?$CJ?5failed?$AA@
  0001b	e8 00 00 00 00	 call	 Py_FatalError
$LN4@create_gil:

; 138  : #ifdef FORCE_SWITCHING
; 139  :     MUTEX_INIT(switch_mutex);

  00020	48 8d 0d 00 00
	00 00		 lea	 rcx, OFFSET FLAT:switch_mutex
  00027	e8 00 00 00 00	 call	 PyMUTEX_INIT
  0002c	85 c0		 test	 eax, eax
  0002e	74 0c		 je	 SHORT $LN3@create_gil
  00030	48 8d 0d 00 00
	00 00		 lea	 rcx, OFFSET FLAT:??_C@_0CC@OAPCBLHB@PyMUTEX_INIT?$CIswitch_mutex?$CJ?5faile@
  00037	e8 00 00 00 00	 call	 Py_FatalError
$LN3@create_gil:

; 140  : #endif
; 141  :     COND_INIT(gil_cond);

  0003c	48 8d 0d 00 00
	00 00		 lea	 rcx, OFFSET FLAT:gil_cond
  00043	e8 00 00 00 00	 call	 PyCOND_INIT
  00048	85 c0		 test	 eax, eax
  0004a	74 0c		 je	 SHORT $LN2@create_gil
  0004c	48 8d 0d 00 00
	00 00		 lea	 rcx, OFFSET FLAT:??_C@_0BN@GEIJFMD@PyCOND_INIT?$CIgil_cond?$CJ?5failed?$AA@
  00053	e8 00 00 00 00	 call	 Py_FatalError
$LN2@create_gil:

; 142  : #ifdef FORCE_SWITCHING
; 143  :     COND_INIT(switch_cond);

  00058	48 8d 0d 00 00
	00 00		 lea	 rcx, OFFSET FLAT:switch_cond
  0005f	e8 00 00 00 00	 call	 PyCOND_INIT
  00064	85 c0		 test	 eax, eax
  00066	74 0c		 je	 SHORT $LN1@create_gil
  00068	48 8d 0d 00 00
	00 00		 lea	 rcx, OFFSET FLAT:??_C@_0CA@JELFKHKC@PyCOND_INIT?$CIswitch_cond?$CJ?5failed?$AA@
  0006f	e8 00 00 00 00	 call	 Py_FatalError
$LN1@create_gil:

; 144  : #endif
; 145  :     _Py_atomic_store_relaxed(&gil_last_holder, NULL);

  00074	33 c0		 xor	 eax, eax
  00076	48 89 05 00 00
	00 00		 mov	 QWORD PTR gil_last_holder, rax

; 146  :     _Py_ANNOTATE_RWLOCK_CREATE(&gil_locked);
; 147  :     _Py_atomic_store_explicit(&gil_locked, 0, _Py_memory_order_release);

  0007d	89 05 00 00 00
	00		 mov	 DWORD PTR gil_locked, eax

; 148  : #ifdef WITH_PARALLEL
; 149  :     _PyParallel_CreatedGIL();
; 150  : #endif
; 151  : }

  00083	48 83 c4 28	 add	 rsp, 40			; 00000028H
  00087	e9 00 00 00 00	 jmp	 _PyParallel_CreatedGIL
create_gil ENDP
_TEXT	ENDS
EXTRN	__imp_InitializeCriticalSection:PROC
;	COMDAT pdata
; File c:\src\pyparallel\python\condvar.h
pdata	SEGMENT
$pdata$PyMUTEX_INIT DD imagerel PyMUTEX_INIT
	DD	imagerel PyMUTEX_INIT+17
	DD	imagerel $unwind$PyMUTEX_INIT
pdata	ENDS
;	COMDAT xdata
xdata	SEGMENT
$unwind$PyMUTEX_INIT DD 010401H
	DD	04204H
; Function compile flags: /Ogtp
xdata	ENDS
;	COMDAT PyMUTEX_INIT
_TEXT	SEGMENT
cs$ = 48
PyMUTEX_INIT PROC					; COMDAT

; 175  : {

  00000	48 83 ec 28	 sub	 rsp, 40			; 00000028H

; 176  :     InitializeCriticalSection(cs);

  00004	ff 15 00 00 00
	00		 call	 QWORD PTR __imp_InitializeCriticalSection

; 177  :     return 0;

  0000a	33 c0		 xor	 eax, eax

; 178  : }

  0000c	48 83 c4 28	 add	 rsp, 40			; 00000028H
  00010	c3		 ret	 0
PyMUTEX_INIT ENDP
_TEXT	ENDS
EXTRN	__imp_CreateSemaphoreA:PROC
;	COMDAT pdata
pdata	SEGMENT
$pdata$PyCOND_INIT DD imagerel PyCOND_INIT
	DD	imagerel PyCOND_INIT+60
	DD	imagerel $unwind$PyCOND_INIT
pdata	ENDS
;	COMDAT xdata
xdata	SEGMENT
$unwind$PyCOND_INIT DD 020601H
	DD	030023206H
; Function compile flags: /Ogtp
xdata	ENDS
;	COMDAT PyCOND_INIT
_TEXT	SEGMENT
cv$ = 48
PyCOND_INIT PROC					; COMDAT

; 213  : {

  00000	40 53		 push	 rbx
  00002	48 83 ec 20	 sub	 rsp, 32			; 00000020H
  00006	48 8b d9	 mov	 rbx, rcx

; 214  :     /* A semaphore with a "large" max value,  The positive value
; 215  :      * is only needed to catch those "lost wakeup" events and
; 216  :      * race conditions when a timed wait elapses.
; 217  :      */
; 218  :     cv->sem = CreateSemaphore(NULL, 0, 100000, NULL);

  00009	45 33 c9	 xor	 r9d, r9d
  0000c	33 d2		 xor	 edx, edx
  0000e	33 c9		 xor	 ecx, ecx
  00010	41 b8 a0 86 01
	00		 mov	 r8d, 100000		; 000186a0H
  00016	ff 15 00 00 00
	00		 call	 QWORD PTR __imp_CreateSemaphoreA
  0001c	48 89 03	 mov	 QWORD PTR [rbx], rax

; 219  :     if (cv->sem==NULL)

  0001f	48 85 c0	 test	 rax, rax
  00022	75 09		 jne	 SHORT $LN1@PyCOND_INI

; 220  :         return -1;

  00024	83 c8 ff	 or	 eax, -1

; 223  : }

  00027	48 83 c4 20	 add	 rsp, 32			; 00000020H
  0002b	5b		 pop	 rbx
  0002c	c3		 ret	 0
$LN1@PyCOND_INI:

; 221  :     cv->waiting = 0;

  0002d	c7 43 08 00 00
	00 00		 mov	 DWORD PTR [rbx+8], 0

; 222  :     return 0;

  00034	33 c0		 xor	 eax, eax

; 223  : }

  00036	48 83 c4 20	 add	 rsp, 32			; 00000020H
  0003a	5b		 pop	 rbx
  0003b	c3		 ret	 0
PyCOND_INIT ENDP
_TEXT	ENDS
PUBLIC	??_C@_0CB@BPNPHLO@PyMUTEX_UNLOCK?$CIgil_mutex?$CJ?5failed@ ; `string'
PUBLIC	_PyEval_SignalAsyncExc
PUBLIC	??_C@_0CE@HDDMOJLP@PyMUTEX_UNLOCK?$CIswitch_mutex?$CJ?5fai@ ; `string'
PUBLIC	??_C@_0CC@PEOKDNHK@PyCOND_SIGNAL?$CIswitch_cond?$CJ?5faile@ ; `string'
PUBLIC	??_C@_0CC@PELEBGED@PyMUTEX_LOCK?$CIswitch_mutex?$CJ?5faile@ ; `string'
PUBLIC	??_C@_0BN@CIBICMCM@PyCOND_WAIT?$CIgil_cond?$CJ?5failed?$AA@ ; `string'
PUBLIC	??_C@_0BP@ELBEKAFN@PyMUTEX_LOCK?$CIgil_mutex?$CJ?5failed?$AA@ ; `string'
PUBLIC	??_C@_0BG@IIFMMKGM@take_gil?3?5NULL?5tstate?$AA@ ; `string'
EXTRN	_PyParallel_JustAcquiredGIL:PROC
EXTRN	__imp__errno:PROC
;	COMDAT pdata
; File c:\src\pyparallel\python\ceval_gil.h
pdata	SEGMENT
$pdata$take_gil DD imagerel take_gil
	DD	imagerel take_gil+6
	DD	imagerel $unwind$take_gil
pdata	ENDS
;	COMDAT pdata
pdata	SEGMENT
$pdata$0$take_gil DD imagerel take_gil+6
	DD	imagerel take_gil+86
	DD	imagerel $chain$0$take_gil
pdata	ENDS
;	COMDAT pdata
pdata	SEGMENT
$pdata$2$take_gil DD imagerel take_gil+86
	DD	imagerel take_gil+212
	DD	imagerel $chain$2$take_gil
pdata	ENDS
;	COMDAT pdata
pdata	SEGMENT
$pdata$3$take_gil DD imagerel take_gil+212
	DD	imagerel take_gil+385
	DD	imagerel $chain$3$take_gil
pdata	ENDS
;	COMDAT pdata
pdata	SEGMENT
$pdata$4$take_gil DD imagerel take_gil+385
	DD	imagerel take_gil+432
	DD	imagerel $chain$4$take_gil
pdata	ENDS
;	COMDAT xdata
xdata	SEGMENT
$chain$4$take_gil DD 021H
	DD	imagerel take_gil
	DD	imagerel take_gil+6
	DD	imagerel $unwind$take_gil
xdata	ENDS
;	COMDAT xdata
xdata	SEGMENT
$chain$3$take_gil DD 021H
	DD	imagerel take_gil+6
	DD	imagerel take_gil+86
	DD	imagerel $chain$0$take_gil
xdata	ENDS
;	COMDAT xdata
xdata	SEGMENT
$chain$2$take_gil DD 040a21H
	DD	07640aH
	DD	063405H
	DD	imagerel take_gil+6
	DD	imagerel take_gil+86
	DD	imagerel $chain$0$take_gil
xdata	ENDS
;	COMDAT xdata
xdata	SEGMENT
$chain$0$take_gil DD 020521H
	DD	087405H
	DD	imagerel take_gil
	DD	imagerel take_gil+6
	DD	imagerel $unwind$take_gil
xdata	ENDS
;	COMDAT xdata
xdata	SEGMENT
$unwind$take_gil DD 020601H
	DD	050023206H
xdata	ENDS
;	COMDAT ??_C@_0CB@BPNPHLO@PyMUTEX_UNLOCK?$CIgil_mutex?$CJ?5failed@
CONST	SEGMENT
??_C@_0CB@BPNPHLO@PyMUTEX_UNLOCK?$CIgil_mutex?$CJ?5failed@ DB 'PyMUTEX_UN'
	DB	'LOCK(gil_mutex) failed', 00H		; `string'
CONST	ENDS
;	COMDAT ??_C@_0CE@HDDMOJLP@PyMUTEX_UNLOCK?$CIswitch_mutex?$CJ?5fai@
CONST	SEGMENT
??_C@_0CE@HDDMOJLP@PyMUTEX_UNLOCK?$CIswitch_mutex?$CJ?5fai@ DB 'PyMUTEX_U'
	DB	'NLOCK(switch_mutex) failed', 00H		; `string'
CONST	ENDS
;	COMDAT ??_C@_0CC@PEOKDNHK@PyCOND_SIGNAL?$CIswitch_cond?$CJ?5faile@
CONST	SEGMENT
??_C@_0CC@PEOKDNHK@PyCOND_SIGNAL?$CIswitch_cond?$CJ?5faile@ DB 'PyCOND_SI'
	DB	'GNAL(switch_cond) failed', 00H		; `string'
CONST	ENDS
;	COMDAT ??_C@_0CC@PELEBGED@PyMUTEX_LOCK?$CIswitch_mutex?$CJ?5faile@
CONST	SEGMENT
??_C@_0CC@PELEBGED@PyMUTEX_LOCK?$CIswitch_mutex?$CJ?5faile@ DB 'PyMUTEX_L'
	DB	'OCK(switch_mutex) failed', 00H		; `string'
CONST	ENDS
;	COMDAT ??_C@_0BN@CIBICMCM@PyCOND_WAIT?$CIgil_cond?$CJ?5failed?$AA@
CONST	SEGMENT
??_C@_0BN@CIBICMCM@PyCOND_WAIT?$CIgil_cond?$CJ?5failed?$AA@ DB 'PyCOND_WA'
	DB	'IT(gil_cond) failed', 00H			; `string'
CONST	ENDS
;	COMDAT ??_C@_0BP@ELBEKAFN@PyMUTEX_LOCK?$CIgil_mutex?$CJ?5failed?$AA@
CONST	SEGMENT
??_C@_0BP@ELBEKAFN@PyMUTEX_LOCK?$CIgil_mutex?$CJ?5failed?$AA@ DB 'PyMUTEX'
	DB	'_LOCK(gil_mutex) failed', 00H		; `string'
CONST	ENDS
;	COMDAT ??_C@_0BG@IIFMMKGM@take_gil?3?5NULL?5tstate?$AA@
CONST	SEGMENT
??_C@_0BG@IIFMMKGM@take_gil?3?5NULL?5tstate?$AA@ DB 'take_gil: NULL tstat'
	DB	'e', 00H					; `string'
; Function compile flags: /Ogtp
CONST	ENDS
;	COMDAT take_gil
_TEXT	SEGMENT
tstate$ = 48
take_gil PROC						; COMDAT

; 217  : {

  00000	40 55		 push	 rbp
  00002	48 83 ec 20	 sub	 rsp, 32			; 00000020H
  00006	48 89 7c 24 40	 mov	 QWORD PTR [rsp+64], rdi
  0000b	48 8b f9	 mov	 rdi, rcx

; 218  :     int err;
; 219  :     if (tstate == NULL)

  0000e	48 85 c9	 test	 rcx, rcx
  00011	75 0c		 jne	 SHORT $LN22@take_gil

; 220  :         Py_FatalError("take_gil: NULL tstate");

  00013	48 8d 0d 00 00
	00 00		 lea	 rcx, OFFSET FLAT:??_C@_0BG@IIFMMKGM@take_gil?3?5NULL?5tstate?$AA@
  0001a	e8 00 00 00 00	 call	 Py_FatalError
$LN22@take_gil:

; 221  : 
; 222  :     err = errno;

  0001f	ff 15 00 00 00
	00		 call	 QWORD PTR __imp__errno

; 223  :     MUTEX_LOCK(gil_mutex);

  00025	48 8d 0d 00 00
	00 00		 lea	 rcx, OFFSET FLAT:gil_mutex
  0002c	8b 28		 mov	 ebp, DWORD PTR [rax]
  0002e	e8 00 00 00 00	 call	 PyMUTEX_LOCK
  00033	85 c0		 test	 eax, eax
  00035	74 0c		 je	 SHORT $LN21@take_gil
  00037	48 8d 0d 00 00
	00 00		 lea	 rcx, OFFSET FLAT:??_C@_0BP@ELBEKAFN@PyMUTEX_LOCK?$CIgil_mutex?$CJ?5failed?$AA@
  0003e	e8 00 00 00 00	 call	 Py_FatalError
$LN21@take_gil:

; 224  : 
; 225  :     if (!_Py_atomic_load_relaxed(&gil_locked))

  00043	83 3d 00 00 00
	00 00		 cmp	 DWORD PTR gil_locked, 0
  0004a	0f 84 84 00 00
	00		 je	 $_ready$64149
  00050	8b 05 00 00 00
	00		 mov	 eax, DWORD PTR gil_switch_number
  00056	48 89 5c 24 30	 mov	 QWORD PTR [rsp+48], rbx
  0005b	48 89 74 24 38	 mov	 QWORD PTR [rsp+56], rsi
$LL19@take_gil:

; 229  :         int timed_out = 0;
; 230  :         unsigned long saved_switchnum;
; 231  : 
; 232  :         saved_switchnum = gil_switch_number;
; 233  :         COND_TIMED_WAIT(gil_cond, gil_mutex, INTERVAL, timed_out);

  00060	41 b8 01 00 00
	00		 mov	 r8d, 1
  00066	8b f0		 mov	 esi, eax
  00068	8b 05 00 00 00
	00		 mov	 eax, DWORD PTR gil_interval
  0006e	41 3b c0	 cmp	 eax, r8d
  00071	48 8d 15 00 00
	00 00		 lea	 rdx, OFFSET FLAT:gil_mutex
  00078	48 8d 0d 00 00
	00 00		 lea	 rcx, OFFSET FLAT:gil_cond
  0007f	44 0f 43 c0	 cmovae	 r8d, eax
  00083	e8 00 00 00 00	 call	 PyCOND_TIMEDWAIT
  00088	8b d8		 mov	 ebx, eax
  0008a	85 c0		 test	 eax, eax
  0008c	79 0c		 jns	 SHORT $LN17@take_gil
  0008e	48 8d 0d 00 00
	00 00		 lea	 rcx, OFFSET FLAT:??_C@_0BN@CIBICMCM@PyCOND_WAIT?$CIgil_cond?$CJ?5failed?$AA@
  00095	e8 00 00 00 00	 call	 Py_FatalError
$LN17@take_gil:
  0009a	8b 0d 00 00 00
	00		 mov	 ecx, DWORD PTR gil_locked
  000a0	8b 05 00 00 00
	00		 mov	 eax, DWORD PTR gil_switch_number
  000a6	85 db		 test	 ebx, ebx

; 234  :         /* If we timed out and no switch occurred in the meantime, it is time
; 235  :            to ask the GIL-holding thread to drop it. */
; 236  :         if (timed_out &&
; 237  :             _Py_atomic_load_relaxed(&gil_locked) &&
; 238  :             gil_switch_number == saved_switchnum) {

  000a8	74 1c		 je	 SHORT $LN11@take_gil
  000aa	85 c9		 test	 ecx, ecx
  000ac	74 1c		 je	 SHORT $LN32@take_gil
  000ae	3b c6		 cmp	 eax, esi
  000b0	75 14		 jne	 SHORT $LN11@take_gil

; 239  :             SET_GIL_DROP_REQUEST();

  000b2	c7 05 00 00 00
	00 01 00 00 00	 mov	 DWORD PTR gil_drop_request, 1
  000bc	c7 05 00 00 00
	00 01 00 00 00	 mov	 DWORD PTR eval_breaker, 1
$LN11@take_gil:

; 226  :         goto _ready;
; 227  :     
; 228  :     while (_Py_atomic_load_relaxed(&gil_locked)) {

  000c6	85 c9		 test	 ecx, ecx
  000c8	75 96		 jne	 SHORT $LL19@take_gil
$LN32@take_gil:
  000ca	48 8b 5c 24 30	 mov	 rbx, QWORD PTR [rsp+48]
  000cf	48 8b 74 24 38	 mov	 rsi, QWORD PTR [rsp+56]
$_ready$64149:

; 240  :         }
; 241  :     }
; 242  : _ready:
; 243  : #ifdef FORCE_SWITCHING
; 244  :     /* This mutex must be taken before modifying gil_last_holder (see drop_gil()). */
; 245  :     MUTEX_LOCK(switch_mutex);

  000d4	48 8d 0d 00 00
	00 00		 lea	 rcx, OFFSET FLAT:switch_mutex
  000db	e8 00 00 00 00	 call	 PyMUTEX_LOCK
  000e0	85 c0		 test	 eax, eax
  000e2	74 0c		 je	 SHORT $LN10@take_gil
  000e4	48 8d 0d 00 00
	00 00		 lea	 rcx, OFFSET FLAT:??_C@_0CC@PELEBGED@PyMUTEX_LOCK?$CIswitch_mutex?$CJ?5faile@
  000eb	e8 00 00 00 00	 call	 Py_FatalError
$LN10@take_gil:

; 246  : #endif
; 247  :     /* We now hold the GIL */
; 248  : #ifdef WITH_PARALLEL
; 249  :     _PyParallel_JustAcquiredGIL();

  000f0	e8 00 00 00 00	 call	 _PyParallel_JustAcquiredGIL

; 250  : #endif
; 251  :     _Py_atomic_store_relaxed(&gil_locked, 1);
; 252  :     _Py_ANNOTATE_RWLOCK_ACQUIRED(&gil_locked, /*is_write=*/1);
; 253  : 
; 254  :     if (tstate != _Py_atomic_load_relaxed(&gil_last_holder)) {

  000f5	48 3b 3d 00 00
	00 00		 cmp	 rdi, QWORD PTR gil_last_holder
  000fc	c7 05 00 00 00
	00 01 00 00 00	 mov	 DWORD PTR gil_locked, 1
  00106	74 0d		 je	 SHORT $LN9@take_gil

; 255  :         _Py_atomic_store_relaxed(&gil_last_holder, tstate);
; 256  :         ++gil_switch_number;

  00108	ff 05 00 00 00
	00		 inc	 DWORD PTR gil_switch_number
  0010e	48 89 3d 00 00
	00 00		 mov	 QWORD PTR gil_last_holder, rdi
$LN9@take_gil:

; 257  :     }
; 258  : 
; 259  : #ifdef FORCE_SWITCHING
; 260  :     COND_SIGNAL(switch_cond);

  00115	48 8d 0d 00 00
	00 00		 lea	 rcx, OFFSET FLAT:switch_cond
  0011c	e8 00 00 00 00	 call	 PyCOND_SIGNAL
  00121	85 c0		 test	 eax, eax
  00123	74 0c		 je	 SHORT $LN8@take_gil
  00125	48 8d 0d 00 00
	00 00		 lea	 rcx, OFFSET FLAT:??_C@_0CC@PEOKDNHK@PyCOND_SIGNAL?$CIswitch_cond?$CJ?5faile@
  0012c	e8 00 00 00 00	 call	 Py_FatalError
$LN8@take_gil:

; 261  :     MUTEX_UNLOCK(switch_mutex);

  00131	48 8d 0d 00 00
	00 00		 lea	 rcx, OFFSET FLAT:switch_mutex
  00138	e8 00 00 00 00	 call	 PyMUTEX_UNLOCK
  0013d	85 c0		 test	 eax, eax
  0013f	74 0c		 je	 SHORT $LN7@take_gil
  00141	48 8d 0d 00 00
	00 00		 lea	 rcx, OFFSET FLAT:??_C@_0CE@HDDMOJLP@PyMUTEX_UNLOCK?$CIswitch_mutex?$CJ?5fai@
  00148	e8 00 00 00 00	 call	 Py_FatalError
$LN7@take_gil:

; 262  : #endif
; 263  :     if (_Py_atomic_load_relaxed(&gil_drop_request)) {

  0014d	83 3d 00 00 00
	00 00		 cmp	 DWORD PTR gil_drop_request, 0
  00154	74 1c		 je	 SHORT $LN3@take_gil

; 264  :         RESET_GIL_DROP_REQUEST();

  00156	8b 05 00 00 00
	00		 mov	 eax, DWORD PTR pending_async_exc
  0015c	c7 05 00 00 00
	00 00 00 00 00	 mov	 DWORD PTR gil_drop_request, 0
  00166	0b 05 00 00 00
	00		 or	 eax, DWORD PTR pendingcalls_to_do
  0016c	89 05 00 00 00
	00		 mov	 DWORD PTR eval_breaker, eax
$LN3@take_gil:

; 265  :     }
; 266  :     if (tstate->async_exc != NULL) {

  00172	48 83 bf 88 00
	00 00 00	 cmp	 QWORD PTR [rdi+136], 0
  0017a	48 8b 7c 24 40	 mov	 rdi, QWORD PTR [rsp+64]
  0017f	74 05		 je	 SHORT $LN2@take_gil

; 267  :         _PyEval_SignalAsyncExc();

  00181	e8 00 00 00 00	 call	 _PyEval_SignalAsyncExc
$LN2@take_gil:

; 268  :     }
; 269  :     
; 270  :     MUTEX_UNLOCK(gil_mutex);

  00186	48 8d 0d 00 00
	00 00		 lea	 rcx, OFFSET FLAT:gil_mutex
  0018d	e8 00 00 00 00	 call	 PyMUTEX_UNLOCK
  00192	85 c0		 test	 eax, eax
  00194	74 0c		 je	 SHORT $LN1@take_gil
  00196	48 8d 0d 00 00
	00 00		 lea	 rcx, OFFSET FLAT:??_C@_0CB@BPNPHLO@PyMUTEX_UNLOCK?$CIgil_mutex?$CJ?5failed@
  0019d	e8 00 00 00 00	 call	 Py_FatalError
$LN1@take_gil:

; 271  :     errno = err;

  001a2	ff 15 00 00 00
	00		 call	 QWORD PTR __imp__errno
  001a8	89 28		 mov	 DWORD PTR [rax], ebp

; 272  : }

  001aa	48 83 c4 20	 add	 rsp, 32			; 00000020H
  001ae	5d		 pop	 rbp
  001af	c3		 ret	 0
take_gil ENDP
_TEXT	ENDS
EXTRN	__imp_EnterCriticalSection:PROC
;	COMDAT pdata
; File c:\src\pyparallel\python\condvar.h
pdata	SEGMENT
$pdata$PyMUTEX_LOCK DD imagerel PyMUTEX_LOCK
	DD	imagerel PyMUTEX_LOCK+17
	DD	imagerel $unwind$PyMUTEX_LOCK
pdata	ENDS
;	COMDAT xdata
xdata	SEGMENT
$unwind$PyMUTEX_LOCK DD 010401H
	DD	04204H
; Function compile flags: /Ogtp
xdata	ENDS
;	COMDAT PyMUTEX_LOCK
_TEXT	SEGMENT
cs$ = 48
PyMUTEX_LOCK PROC					; COMDAT

; 189  : {

  00000	48 83 ec 28	 sub	 rsp, 40			; 00000028H

; 190  :     EnterCriticalSection(cs);

  00004	ff 15 00 00 00
	00		 call	 QWORD PTR __imp_EnterCriticalSection

; 191  :     return 0;

  0000a	33 c0		 xor	 eax, eax

; 192  : }

  0000c	48 83 c4 28	 add	 rsp, 40			; 00000028H
  00010	c3		 ret	 0
PyMUTEX_LOCK ENDP
_TEXT	ENDS
EXTRN	__imp_LeaveCriticalSection:PROC
;	COMDAT pdata
pdata	SEGMENT
$pdata$PyMUTEX_UNLOCK DD imagerel PyMUTEX_UNLOCK
	DD	imagerel PyMUTEX_UNLOCK+17
	DD	imagerel $unwind$PyMUTEX_UNLOCK
pdata	ENDS
;	COMDAT xdata
xdata	SEGMENT
$unwind$PyMUTEX_UNLOCK DD 010401H
	DD	04204H
; Function compile flags: /Ogtp
xdata	ENDS
;	COMDAT PyMUTEX_UNLOCK
_TEXT	SEGMENT
cs$ = 48
PyMUTEX_UNLOCK PROC					; COMDAT

; 196  : {

  00000	48 83 ec 28	 sub	 rsp, 40			; 00000028H

; 197  :     LeaveCriticalSection(cs);

  00004	ff 15 00 00 00
	00		 call	 QWORD PTR __imp_LeaveCriticalSection

; 198  :     return 0;

  0000a	33 c0		 xor	 eax, eax

; 199  : }

  0000c	48 83 c4 28	 add	 rsp, 40			; 00000028H
  00010	c3		 ret	 0
PyMUTEX_UNLOCK ENDP
; Function compile flags: /Ogtp
_TEXT	ENDS
;	COMDAT PyCOND_TIMEDWAIT
_TEXT	SEGMENT
cv$ = 8
cs$ = 16
us$ = 24
PyCOND_TIMEDWAIT PROC					; COMDAT

; 274  : {

  00000	4c 8b ca	 mov	 r9, rdx

; 275  :     return _PyCOND_WAIT_MS(cv, cs, us/1000);

  00003	b8 d3 4d 62 10	 mov	 eax, 274877907		; 10624dd3H
  00008	41 f7 e8	 imul	 r8d
  0000b	c1 fa 06	 sar	 edx, 6
  0000e	44 8b c2	 mov	 r8d, edx
  00011	41 c1 e8 1f	 shr	 r8d, 31
  00015	44 03 c2	 add	 r8d, edx
  00018	49 8b d1	 mov	 rdx, r9

; 276  : }

  0001b	e9 00 00 00 00	 jmp	 _PyCOND_WAIT_MS
PyCOND_TIMEDWAIT ENDP
_TEXT	ENDS
EXTRN	__imp_WaitForSingleObject:PROC
;	COMDAT pdata
pdata	SEGMENT
$pdata$_PyCOND_WAIT_MS DD imagerel _PyCOND_WAIT_MS
	DD	imagerel _PyCOND_WAIT_MS+110
	DD	imagerel $unwind$_PyCOND_WAIT_MS
pdata	ENDS
;	COMDAT xdata
xdata	SEGMENT
$unwind$_PyCOND_WAIT_MS DD 060f01H
	DD	07640fH
	DD	06340fH
	DD	0700b320fH
; Function compile flags: /Ogtp
xdata	ENDS
;	COMDAT _PyCOND_WAIT_MS
_TEXT	SEGMENT
cv$ = 48
cs$ = 56
ms$ = 64
_PyCOND_WAIT_MS PROC					; COMDAT

; 236  : {

  00000	48 89 5c 24 08	 mov	 QWORD PTR [rsp+8], rbx
  00005	48 89 74 24 10	 mov	 QWORD PTR [rsp+16], rsi
  0000a	57		 push	 rdi
  0000b	48 83 ec 20	 sub	 rsp, 32			; 00000020H

; 237  :     DWORD wait;
; 238  :     cv->waiting++;

  0000f	ff 41 08	 inc	 DWORD PTR [rcx+8]
  00012	48 8b f1	 mov	 rsi, rcx

; 239  :     PyMUTEX_UNLOCK(cs);

  00015	48 8b ca	 mov	 rcx, rdx
  00018	41 8b d8	 mov	 ebx, r8d
  0001b	48 8b fa	 mov	 rdi, rdx
  0001e	e8 00 00 00 00	 call	 PyMUTEX_UNLOCK

; 240  :     /* "lost wakeup bug" would occur if the caller were interrupted here,
; 241  :      * but we are safe because we are using a semaphore wich has an internal
; 242  :      * count.
; 243  :      */
; 244  :     wait = WaitForSingleObject(cv->sem, ms);

  00023	48 8b 0e	 mov	 rcx, QWORD PTR [rsi]
  00026	8b d3		 mov	 edx, ebx
  00028	ff 15 00 00 00
	00		 call	 QWORD PTR __imp_WaitForSingleObject

; 245  :     PyMUTEX_LOCK(cs);

  0002e	48 8b cf	 mov	 rcx, rdi
  00031	8b d8		 mov	 ebx, eax
  00033	e8 00 00 00 00	 call	 PyMUTEX_LOCK

; 246  :     if (wait != WAIT_OBJECT_0)

  00038	85 db		 test	 ebx, ebx
  0003a	74 03		 je	 SHORT $LN2@PyCOND_WAI

; 247  :         --cv->waiting;

  0003c	ff 4e 08	 dec	 DWORD PTR [rsi+8]
$LN2@PyCOND_WAI:

; 248  :         /* Here we have a benign race condition with PyCOND_SIGNAL.
; 249  :          * When failure occurs or timeout, it is possible that
; 250  :          * PyCOND_SIGNAL also decrements this value
; 251  :          * and signals releases the mutex.  This is benign because it
; 252  :          * just means an extra spurious wakeup for a waiting thread.
; 253  :          * ('waiting' corresponds to the semaphore's "negative" count and
; 254  :          * we may end up with e.g. (waiting == -1 && sem.count == 1).  When
; 255  :          * a new thread comes along, it will pass right throuhgh, having
; 256  :          * adjusted it to (waiting == 0 && sem.count == 0).
; 257  :          */
; 258  :          
; 259  :     if (wait == WAIT_FAILED)

  0003f	83 fb ff	 cmp	 ebx, -1			; ffffffffH
  00042	75 13		 jne	 SHORT $LN1@PyCOND_WAI

; 260  :         return -1;

  00044	83 c8 ff	 or	 eax, -1

; 261  :     /* return 0 on success, 1 on timeout */
; 262  :     return wait != WAIT_OBJECT_0;
; 263  : }

  00047	48 8b 5c 24 30	 mov	 rbx, QWORD PTR [rsp+48]
  0004c	48 8b 74 24 38	 mov	 rsi, QWORD PTR [rsp+56]
  00051	48 83 c4 20	 add	 rsp, 32			; 00000020H
  00055	5f		 pop	 rdi
  00056	c3		 ret	 0
$LN1@PyCOND_WAI:
  00057	48 8b 74 24 38	 mov	 rsi, QWORD PTR [rsp+56]
  0005c	33 c0		 xor	 eax, eax
  0005e	85 db		 test	 ebx, ebx
  00060	48 8b 5c 24 30	 mov	 rbx, QWORD PTR [rsp+48]
  00065	0f 95 c0	 setne	 al
  00068	48 83 c4 20	 add	 rsp, 32			; 00000020H
  0006c	5f		 pop	 rdi
  0006d	c3		 ret	 0
_PyCOND_WAIT_MS ENDP
_TEXT	ENDS
EXTRN	__imp_ReleaseSemaphore:PROC
;	COMDAT pdata
pdata	SEGMENT
$pdata$PyCOND_SIGNAL DD imagerel PyCOND_SIGNAL
	DD	imagerel PyCOND_SIGNAL+52
	DD	imagerel $unwind$PyCOND_SIGNAL
pdata	ENDS
;	COMDAT xdata
xdata	SEGMENT
$unwind$PyCOND_SIGNAL DD 010401H
	DD	04204H
; Function compile flags: /Ogtp
xdata	ENDS
;	COMDAT PyCOND_SIGNAL
_TEXT	SEGMENT
cv$ = 48
PyCOND_SIGNAL PROC					; COMDAT

; 280  : {

  00000	48 83 ec 28	 sub	 rsp, 40			; 00000028H

; 281  :     /* this test allows PyCOND_SIGNAL to be a no-op unless required
; 282  :      * to wake someone up, thus preventing an unbounded increase of
; 283  :      * the semaphore's internal counter.
; 284  :      */
; 285  :     if (cv->waiting > 0) {

  00004	8b 41 08	 mov	 eax, DWORD PTR [rcx+8]
  00007	85 c0		 test	 eax, eax
  00009	7e 22		 jle	 SHORT $LN1@PyCOND_SIG

; 286  :         /* notifying thread decreases the cv->waiting count so that
; 287  :          * a delay between notify and actual wakeup of the target thread
; 288  :          * doesn't cause a number of extra ReleaseSemaphore calls.
; 289  :          */
; 290  :         cv->waiting--;

  0000b	ff c8		 dec	 eax

; 291  :         return ReleaseSemaphore(cv->sem, 1, NULL) ? 0 : -1;

  0000d	45 33 c0	 xor	 r8d, r8d
  00010	89 41 08	 mov	 DWORD PTR [rcx+8], eax
  00013	48 8b 09	 mov	 rcx, QWORD PTR [rcx]
  00016	41 8d 50 01	 lea	 edx, QWORD PTR [r8+1]
  0001a	ff 15 00 00 00
	00		 call	 QWORD PTR __imp_ReleaseSemaphore
  00020	f7 d8		 neg	 eax
  00022	1b c0		 sbb	 eax, eax
  00024	f7 d8		 neg	 eax
  00026	ff c8		 dec	 eax

; 294  : }

  00028	48 83 c4 28	 add	 rsp, 40			; 00000028H
  0002c	c3		 ret	 0
$LN1@PyCOND_SIG:

; 292  :     }
; 293  :     return 0;

  0002d	33 c0		 xor	 eax, eax

; 294  : }

  0002f	48 83 c4 28	 add	 rsp, 40			; 00000028H
  00033	c3		 ret	 0
PyCOND_SIGNAL ENDP
_TEXT	ENDS
PUBLIC	??_C@_1BO@DEKOAGGH@?$AA?$CB?$AAg?$AAi?$AAl?$AA_?$AAc?$AAr?$AAe?$AAa?$AAt?$AAe?$AAd?$AA?$CI?$AA?$CJ?$AA?$AA@ ; `string'
PUBLIC	??_C@_1CE@BLKIPNIC@?$AA?4?$AA?4?$AA?2?$AAP?$AAy?$AAt?$AAh?$AAo?$AAn?$AA?2?$AAc?$AAe?$AAv?$AAa?$AAl?$AA?4?$AAc?$AA?$AA@ ; `string'
PUBLIC	??_C@_0BE@BNNALOFO@_PyEval_FiniThreads?$AA@	; `string'
PUBLIC	_PyEval_FiniThreads
EXTRN	__imp__wassert:PROC
;	COMDAT pdata
; File c:\src\pyparallel\python\ceval.c
pdata	SEGMENT
$pdata$_PyEval_FiniThreads DD imagerel $LN6
	DD	imagerel $LN6+95
	DD	imagerel $unwind$_PyEval_FiniThreads
pdata	ENDS
;	COMDAT xdata
xdata	SEGMENT
$unwind$_PyEval_FiniThreads DD 010401H
	DD	04204H
xdata	ENDS
;	COMDAT ??_C@_1BO@DEKOAGGH@?$AA?$CB?$AAg?$AAi?$AAl?$AA_?$AAc?$AAr?$AAe?$AAa?$AAt?$AAe?$AAd?$AA?$CI?$AA?$CJ?$AA?$AA@
CONST	SEGMENT
??_C@_1BO@DEKOAGGH@?$AA?$CB?$AAg?$AAi?$AAl?$AA_?$AAc?$AAr?$AAe?$AAa?$AAt?$AAe?$AAd?$AA?$CI?$AA?$CJ?$AA?$AA@ DB '!'
	DB	00H, 'g', 00H, 'i', 00H, 'l', 00H, '_', 00H, 'c', 00H, 'r', 00H
	DB	'e', 00H, 'a', 00H, 't', 00H, 'e', 00H, 'd', 00H, '(', 00H, ')'
	DB	00H, 00H, 00H				; `string'
CONST	ENDS
;	COMDAT ??_C@_1CE@BLKIPNIC@?$AA?4?$AA?4?$AA?2?$AAP?$AAy?$AAt?$AAh?$AAo?$AAn?$AA?2?$AAc?$AAe?$AAv?$AAa?$AAl?$AA?4?$AAc?$AA?$AA@
CONST	SEGMENT
??_C@_1CE@BLKIPNIC@?$AA?4?$AA?4?$AA?2?$AAP?$AAy?$AAt?$AAh?$AAo?$AAn?$AA?2?$AAc?$AAe?$AAv?$AAa?$AAl?$AA?4?$AAc?$AA?$AA@ DB '.'
	DB	00H, '.', 00H, '\', 00H, 'P', 00H, 'y', 00H, 't', 00H, 'h', 00H
	DB	'o', 00H, 'n', 00H, '\', 00H, 'c', 00H, 'e', 00H, 'v', 00H, 'a'
	DB	00H, 'l', 00H, '.', 00H, 'c', 00H, 00H, 00H	; `string'
CONST	ENDS
;	COMDAT ??_C@_0BE@BNNALOFO@_PyEval_FiniThreads?$AA@
CONST	SEGMENT
??_C@_0BE@BNNALOFO@_PyEval_FiniThreads?$AA@ DB '_PyEval_FiniThreads', 00H ; `string'
; Function compile flags: /Ogtp
CONST	ENDS
;	COMDAT _PyEval_FiniThreads
_TEXT	SEGMENT
_PyEval_FiniThreads PROC				; COMDAT

; 323  : {

$LN6:
  00000	48 83 ec 28	 sub	 rsp, 40			; 00000028H

; 324  :     Py_GUARD

  00004	e8 00 00 00 00	 call	 _Py_PXCTX
  00009	85 c0		 test	 eax, eax
  0000b	74 1c		 je	 SHORT $LN2@PyEval_Fin
  0000d	48 8d 15 00 00
	00 00		 lea	 rdx, OFFSET FLAT:??_C@_0BC@CJJEGEEJ@?4?4?2Python?2ceval?4c?$AA@
  00014	48 8d 0d 00 00
	00 00		 lea	 rcx, OFFSET FLAT:??_C@_0BE@BNNALOFO@_PyEval_FiniThreads?$AA@
  0001b	45 33 c9	 xor	 r9d, r9d
  0001e	41 b8 44 01 00
	00		 mov	 r8d, 324		; 00000144H
  00024	e8 00 00 00 00	 call	 _PyParallel_ContextGuardFailure
$LN2@PyEval_Fin:

; 325  :     if (!gil_created())

  00029	e8 00 00 00 00	 call	 gil_created
  0002e	85 c0		 test	 eax, eax
  00030	74 28		 je	 SHORT $LN5@PyEval_Fin

; 326  :         return;
; 327  :     destroy_gil();

  00032	e8 00 00 00 00	 call	 destroy_gil

; 328  :     assert(!gil_created());

  00037	e8 00 00 00 00	 call	 gil_created
  0003c	85 c0		 test	 eax, eax
  0003e	74 1a		 je	 SHORT $LN5@PyEval_Fin
  00040	48 8d 15 00 00
	00 00		 lea	 rdx, OFFSET FLAT:??_C@_1CE@BLKIPNIC@?$AA?4?$AA?4?$AA?2?$AAP?$AAy?$AAt?$AAh?$AAo?$AAn?$AA?2?$AAc?$AAe?$AAv?$AAa?$AAl?$AA?4?$AAc?$AA?$AA@
  00047	48 8d 0d 00 00
	00 00		 lea	 rcx, OFFSET FLAT:??_C@_1BO@DEKOAGGH@?$AA?$CB?$AAg?$AAi?$AAl?$AA_?$AAc?$AAr?$AAe?$AAa?$AAt?$AAe?$AAd?$AA?$CI?$AA?$CJ?$AA?$AA@
  0004e	41 b8 48 01 00
	00		 mov	 r8d, 328		; 00000148H
  00054	ff 15 00 00 00
	00		 call	 QWORD PTR __imp__wassert
$LN5@PyEval_Fin:

; 329  : }

  0005a	48 83 c4 28	 add	 rsp, 40			; 00000028H
  0005e	c3		 ret	 0
_PyEval_FiniThreads ENDP
_TEXT	ENDS
PUBLIC	??_C@_0CC@ILEAIBJ@PyMUTEX_FINI?$CIswitch_mutex?$CJ?5faile@ ; `string'
PUBLIC	??_C@_0CA@GKHCPMOF@PyCOND_FINI?$CIswitch_cond?$CJ?5failed?$AA@ ; `string'
PUBLIC	??_C@_0BP@LGNFJCMN@PyMUTEX_FINI?$CIgil_mutex?$CJ?5failed?$AA@ ; `string'
PUBLIC	??_C@_0BN@HGBIAGHN@PyCOND_FINI?$CIgil_cond?$CJ?5failed?$AA@ ; `string'
EXTRN	_PyParallel_DestroyedGIL:PROC
;	COMDAT pdata
; File c:\src\pyparallel\python\ceval_gil.h
pdata	SEGMENT
$pdata$destroy_gil DD imagerel destroy_gil
	DD	imagerel destroy_gil+135
	DD	imagerel $unwind$destroy_gil
pdata	ENDS
;	COMDAT xdata
xdata	SEGMENT
$unwind$destroy_gil DD 010401H
	DD	04204H
xdata	ENDS
;	COMDAT ??_C@_0CC@ILEAIBJ@PyMUTEX_FINI?$CIswitch_mutex?$CJ?5faile@
CONST	SEGMENT
??_C@_0CC@ILEAIBJ@PyMUTEX_FINI?$CIswitch_mutex?$CJ?5faile@ DB 'PyMUTEX_FI'
	DB	'NI(switch_mutex) failed', 00H		; `string'
CONST	ENDS
;	COMDAT ??_C@_0CA@GKHCPMOF@PyCOND_FINI?$CIswitch_cond?$CJ?5failed?$AA@
CONST	SEGMENT
??_C@_0CA@GKHCPMOF@PyCOND_FINI?$CIswitch_cond?$CJ?5failed?$AA@ DB 'PyCOND'
	DB	'_FINI(switch_cond) failed', 00H		; `string'
CONST	ENDS
;	COMDAT ??_C@_0BP@LGNFJCMN@PyMUTEX_FINI?$CIgil_mutex?$CJ?5failed?$AA@
CONST	SEGMENT
??_C@_0BP@LGNFJCMN@PyMUTEX_FINI?$CIgil_mutex?$CJ?5failed?$AA@ DB 'PyMUTEX'
	DB	'_FINI(gil_mutex) failed', 00H		; `string'
CONST	ENDS
;	COMDAT ??_C@_0BN@HGBIAGHN@PyCOND_FINI?$CIgil_cond?$CJ?5failed?$AA@
CONST	SEGMENT
??_C@_0BN@HGBIAGHN@PyCOND_FINI?$CIgil_cond?$CJ?5failed?$AA@ DB 'PyCOND_FI'
	DB	'NI(gil_cond) failed', 00H			; `string'
; Function compile flags: /Ogtp
CONST	ENDS
;	COMDAT destroy_gil
_TEXT	SEGMENT
destroy_gil PROC					; COMDAT

; 154  : {

  00000	48 83 ec 28	 sub	 rsp, 40			; 00000028H

; 155  :     /* some pthread-like implementations tie the mutex to the cond
; 156  :      * and must have the cond destroyed first.
; 157  :      */
; 158  :     COND_FINI(gil_cond);

  00004	48 8d 0d 00 00
	00 00		 lea	 rcx, OFFSET FLAT:gil_cond
  0000b	e8 00 00 00 00	 call	 PyCOND_FINI
  00010	85 c0		 test	 eax, eax
  00012	74 0c		 je	 SHORT $LN4@destroy_gi
  00014	48 8d 0d 00 00
	00 00		 lea	 rcx, OFFSET FLAT:??_C@_0BN@HGBIAGHN@PyCOND_FINI?$CIgil_cond?$CJ?5failed?$AA@
  0001b	e8 00 00 00 00	 call	 Py_FatalError
$LN4@destroy_gi:

; 159  :     MUTEX_FINI(gil_mutex);

  00020	48 8d 0d 00 00
	00 00		 lea	 rcx, OFFSET FLAT:gil_mutex
  00027	e8 00 00 00 00	 call	 PyMUTEX_FINI
  0002c	85 c0		 test	 eax, eax
  0002e	74 0c		 je	 SHORT $LN3@destroy_gi
  00030	48 8d 0d 00 00
	00 00		 lea	 rcx, OFFSET FLAT:??_C@_0BP@LGNFJCMN@PyMUTEX_FINI?$CIgil_mutex?$CJ?5failed?$AA@
  00037	e8 00 00 00 00	 call	 Py_FatalError
$LN3@destroy_gi:

; 160  : #ifdef FORCE_SWITCHING
; 161  :     COND_FINI(switch_cond);

  0003c	48 8d 0d 00 00
	00 00		 lea	 rcx, OFFSET FLAT:switch_cond
  00043	e8 00 00 00 00	 call	 PyCOND_FINI
  00048	85 c0		 test	 eax, eax
  0004a	74 0c		 je	 SHORT $LN2@destroy_gi
  0004c	48 8d 0d 00 00
	00 00		 lea	 rcx, OFFSET FLAT:??_C@_0CA@GKHCPMOF@PyCOND_FINI?$CIswitch_cond?$CJ?5failed?$AA@
  00053	e8 00 00 00 00	 call	 Py_FatalError
$LN2@destroy_gi:

; 162  :     MUTEX_FINI(switch_mutex);

  00058	48 8d 0d 00 00
	00 00		 lea	 rcx, OFFSET FLAT:switch_mutex
  0005f	e8 00 00 00 00	 call	 PyMUTEX_FINI
  00064	85 c0		 test	 eax, eax
  00066	74 0c		 je	 SHORT $LN1@destroy_gi
  00068	48 8d 0d 00 00
	00 00		 lea	 rcx, OFFSET FLAT:??_C@_0CC@ILEAIBJ@PyMUTEX_FINI?$CIswitch_mutex?$CJ?5faile@
  0006f	e8 00 00 00 00	 call	 Py_FatalError
$LN1@destroy_gi:

; 163  : #endif
; 164  :     _Py_atomic_store_explicit(&gil_locked, -1, _Py_memory_order_release);

  00074	c7 05 00 00 00
	00 ff ff ff ff	 mov	 DWORD PTR gil_locked, -1

; 165  :     _Py_ANNOTATE_RWLOCK_DESTROY(&gil_locked);
; 166  : #ifdef WITH_PARALLEL
; 167  :     _PyParallel_DestroyedGIL();
; 168  : #endif
; 169  : }

  0007e	48 83 c4 28	 add	 rsp, 40			; 00000028H
  00082	e9 00 00 00 00	 jmp	 _PyParallel_DestroyedGIL
destroy_gil ENDP
_TEXT	ENDS
EXTRN	__imp_DeleteCriticalSection:PROC
;	COMDAT pdata
; File c:\src\pyparallel\python\condvar.h
pdata	SEGMENT
$pdata$PyMUTEX_FINI DD imagerel PyMUTEX_FINI
	DD	imagerel PyMUTEX_FINI+17
	DD	imagerel $unwind$PyMUTEX_FINI
pdata	ENDS
;	COMDAT xdata
xdata	SEGMENT
$unwind$PyMUTEX_FINI DD 010401H
	DD	04204H
; Function compile flags: /Ogtp
xdata	ENDS
;	COMDAT PyMUTEX_FINI
_TEXT	SEGMENT
cs$ = 48
PyMUTEX_FINI PROC					; COMDAT

; 182  : {

  00000	48 83 ec 28	 sub	 rsp, 40			; 00000028H

; 183  :     DeleteCriticalSection(cs);

  00004	ff 15 00 00 00
	00		 call	 QWORD PTR __imp_DeleteCriticalSection

; 184  :     return 0;

  0000a	33 c0		 xor	 eax, eax

; 185  : }

  0000c	48 83 c4 28	 add	 rsp, 40			; 00000028H
  00010	c3		 ret	 0
PyMUTEX_FINI ENDP
_TEXT	ENDS
EXTRN	__imp_CloseHandle:PROC
;	COMDAT pdata
pdata	SEGMENT
$pdata$PyCOND_FINI DD imagerel PyCOND_FINI
	DD	imagerel PyCOND_FINI+26
	DD	imagerel $unwind$PyCOND_FINI
pdata	ENDS
;	COMDAT xdata
xdata	SEGMENT
$unwind$PyCOND_FINI DD 010401H
	DD	04204H
; Function compile flags: /Ogtp
xdata	ENDS
;	COMDAT PyCOND_FINI
_TEXT	SEGMENT
cv$ = 48
PyCOND_FINI PROC					; COMDAT

; 227  : {

  00000	48 83 ec 28	 sub	 rsp, 40			; 00000028H

; 228  :     return CloseHandle(cv->sem) ? 0 : -1;

  00004	48 8b 09	 mov	 rcx, QWORD PTR [rcx]
  00007	ff 15 00 00 00
	00		 call	 QWORD PTR __imp_CloseHandle
  0000d	f7 d8		 neg	 eax
  0000f	1b c0		 sbb	 eax, eax
  00011	f7 d8		 neg	 eax
  00013	ff c8		 dec	 eax

; 229  : }

  00015	48 83 c4 28	 add	 rsp, 40			; 00000028H
  00019	c3		 ret	 0
PyCOND_FINI ENDP
_TEXT	ENDS
PUBLIC	??_C@_0DB@OLFNGBME@PyEval_AcquireLock?3?5current?5thre@ ; `string'
PUBLIC	??_C@_0BD@DCFEODA@PyEval_AcquireLock?$AA@	; `string'
PUBLIC	PyEval_AcquireLock
;	COMDAT pdata
; File c:\src\pyparallel\python\ceval.c
pdata	SEGMENT
$pdata$PyEval_AcquireLock DD imagerel $LN5
	DD	imagerel $LN5+81
	DD	imagerel $unwind$PyEval_AcquireLock
pdata	ENDS
;	COMDAT xdata
xdata	SEGMENT
$unwind$PyEval_AcquireLock DD 020601H
	DD	030023206H
xdata	ENDS
;	COMDAT ??_C@_0DB@OLFNGBME@PyEval_AcquireLock?3?5current?5thre@
CONST	SEGMENT
??_C@_0DB@OLFNGBME@PyEval_AcquireLock?3?5current?5thre@ DB 'PyEval_Acquir'
	DB	'eLock: current thread state is NULL', 00H	; `string'
CONST	ENDS
;	COMDAT ??_C@_0BD@DCFEODA@PyEval_AcquireLock?$AA@
CONST	SEGMENT
??_C@_0BD@DCFEODA@PyEval_AcquireLock?$AA@ DB 'PyEval_AcquireLock', 00H ; `string'
; Function compile flags: /Ogtp
CONST	ENDS
;	COMDAT PyEval_AcquireLock
_TEXT	SEGMENT
PyEval_AcquireLock PROC					; COMDAT

; 333  : {

$LN5:
  00000	40 53		 push	 rbx
  00002	48 83 ec 20	 sub	 rsp, 32			; 00000020H

; 334  :     PyThreadState *tstate = PyThreadState_GET();

  00006	e8 00 00 00 00	 call	 PyThreadState_Get
  0000b	48 8b d8	 mov	 rbx, rax

; 335  :     Py_GUARD

  0000e	e8 00 00 00 00	 call	 _Py_PXCTX
  00013	85 c0		 test	 eax, eax
  00015	74 1c		 je	 SHORT $LN2@PyEval_Acq
  00017	48 8d 15 00 00
	00 00		 lea	 rdx, OFFSET FLAT:??_C@_0BC@CJJEGEEJ@?4?4?2Python?2ceval?4c?$AA@
  0001e	48 8d 0d 00 00
	00 00		 lea	 rcx, OFFSET FLAT:??_C@_0BD@DCFEODA@PyEval_AcquireLock?$AA@
  00025	45 33 c9	 xor	 r9d, r9d
  00028	41 b8 4f 01 00
	00		 mov	 r8d, 335		; 0000014fH
  0002e	e8 00 00 00 00	 call	 _PyParallel_ContextGuardFailure
$LN2@PyEval_Acq:

; 336  :     if (tstate == NULL)

  00033	48 85 db	 test	 rbx, rbx
  00036	75 0c		 jne	 SHORT $LN1@PyEval_Acq

; 337  :         Py_FatalError("PyEval_AcquireLock: current thread state is NULL");

  00038	48 8d 0d 00 00
	00 00		 lea	 rcx, OFFSET FLAT:??_C@_0DB@OLFNGBME@PyEval_AcquireLock?3?5current?5thre@
  0003f	e8 00 00 00 00	 call	 Py_FatalError
$LN1@PyEval_Acq:

; 338  :     take_gil(tstate);

  00044	48 8b cb	 mov	 rcx, rbx

; 339  : }

  00047	48 83 c4 20	 add	 rsp, 32			; 00000020H
  0004b	5b		 pop	 rbx
  0004c	e9 00 00 00 00	 jmp	 take_gil
PyEval_AcquireLock ENDP
_TEXT	ENDS
PUBLIC	??_C@_0BD@JLBEODFH@PyEval_ReleaseLock?$AA@	; `string'
PUBLIC	PyEval_ReleaseLock
EXTRN	_PyThreadState_Current:QWORD
;	COMDAT pdata
pdata	SEGMENT
$pdata$PyEval_ReleaseLock DD imagerel $LN4
	DD	imagerel $LN4+57
	DD	imagerel $unwind$PyEval_ReleaseLock
pdata	ENDS
;	COMDAT xdata
xdata	SEGMENT
$unwind$PyEval_ReleaseLock DD 010401H
	DD	04204H
xdata	ENDS
;	COMDAT ??_C@_0BD@JLBEODFH@PyEval_ReleaseLock?$AA@
CONST	SEGMENT
??_C@_0BD@JLBEODFH@PyEval_ReleaseLock?$AA@ DB 'PyEval_ReleaseLock', 00H ; `string'
; Function compile flags: /Ogtp
CONST	ENDS
;	COMDAT PyEval_ReleaseLock
_TEXT	SEGMENT
PyEval_ReleaseLock PROC					; COMDAT

; 343  : {

$LN4:
  00000	48 83 ec 28	 sub	 rsp, 40			; 00000028H

; 344  :     Py_GUARD

  00004	e8 00 00 00 00	 call	 _Py_PXCTX
  00009	85 c0		 test	 eax, eax
  0000b	74 1c		 je	 SHORT $LN1@PyEval_Rel
  0000d	48 8d 15 00 00
	00 00		 lea	 rdx, OFFSET FLAT:??_C@_0BC@CJJEGEEJ@?4?4?2Python?2ceval?4c?$AA@
  00014	48 8d 0d 00 00
	00 00		 lea	 rcx, OFFSET FLAT:??_C@_0BD@JLBEODFH@PyEval_ReleaseLock?$AA@
  0001b	45 33 c9	 xor	 r9d, r9d
  0001e	41 b8 58 01 00
	00		 mov	 r8d, 344		; 00000158H
  00024	e8 00 00 00 00	 call	 _PyParallel_ContextGuardFailure
$LN1@PyEval_Rel:

; 345  :     /* This function must succeed when the current thread state is NULL.
; 346  :        We therefore avoid PyThreadState_GET() which dumps a fatal error
; 347  :        in debug mode.
; 348  :     */
; 349  :     drop_gil((PyThreadState*)_Py_atomic_load_relaxed(
; 350  :         &_PyThreadState_Current));

  00029	48 8b 0d 00 00
	00 00		 mov	 rcx, QWORD PTR _PyThreadState_Current

; 351  : }

  00030	48 83 c4 28	 add	 rsp, 40			; 00000028H
  00034	e9 00 00 00 00	 jmp	 drop_gil
PyEval_ReleaseLock ENDP
_TEXT	ENDS
PUBLIC	??_C@_0CA@GIGHHEBE@PyCOND_WAIT?$CIswitch_cond?$CJ?5failed?$AA@ ; `string'
PUBLIC	??_C@_0BP@HKOAHNPN@PyCOND_SIGNAL?$CIgil_cond?$CJ?5failed?$AA@ ; `string'
PUBLIC	??_C@_0BM@DHPNFLDF@drop_gil?3?5GIL?5is?5not?5locked?$AA@ ; `string'
EXTRN	_PyParallel_AboutToDropGIL:PROC
;	COMDAT pdata
; File c:\src\pyparallel\python\ceval_gil.h
pdata	SEGMENT
$pdata$drop_gil DD imagerel drop_gil
	DD	imagerel drop_gil+306
	DD	imagerel $unwind$drop_gil
pdata	ENDS
;	COMDAT xdata
xdata	SEGMENT
$unwind$drop_gil DD 020601H
	DD	030023206H
xdata	ENDS
;	COMDAT ??_C@_0CA@GIGHHEBE@PyCOND_WAIT?$CIswitch_cond?$CJ?5failed?$AA@
CONST	SEGMENT
??_C@_0CA@GIGHHEBE@PyCOND_WAIT?$CIswitch_cond?$CJ?5failed?$AA@ DB 'PyCOND'
	DB	'_WAIT(switch_cond) failed', 00H		; `string'
CONST	ENDS
;	COMDAT ??_C@_0BP@HKOAHNPN@PyCOND_SIGNAL?$CIgil_cond?$CJ?5failed?$AA@
CONST	SEGMENT
??_C@_0BP@HKOAHNPN@PyCOND_SIGNAL?$CIgil_cond?$CJ?5failed?$AA@ DB 'PyCOND_'
	DB	'SIGNAL(gil_cond) failed', 00H		; `string'
CONST	ENDS
;	COMDAT ??_C@_0BM@DHPNFLDF@drop_gil?3?5GIL?5is?5not?5locked?$AA@
CONST	SEGMENT
??_C@_0BM@DHPNFLDF@drop_gil?3?5GIL?5is?5not?5locked?$AA@ DB 'drop_gil: GI'
	DB	'L is not locked', 00H			; `string'
; Function compile flags: /Ogtp
CONST	ENDS
;	COMDAT drop_gil
_TEXT	SEGMENT
tstate$ = 48
drop_gil PROC						; COMDAT

; 179  : {

  00000	40 53		 push	 rbx
  00002	48 83 ec 20	 sub	 rsp, 32			; 00000020H

; 180  :     if (!_Py_atomic_load_relaxed(&gil_locked))

  00006	83 3d 00 00 00
	00 00		 cmp	 DWORD PTR gil_locked, 0
  0000d	48 8b d9	 mov	 rbx, rcx
  00010	75 0c		 jne	 SHORT $LN13@drop_gil

; 181  :         Py_FatalError("drop_gil: GIL is not locked");

  00012	48 8d 0d 00 00
	00 00		 lea	 rcx, OFFSET FLAT:??_C@_0BM@DHPNFLDF@drop_gil?3?5GIL?5is?5not?5locked?$AA@
  00019	e8 00 00 00 00	 call	 Py_FatalError
$LN13@drop_gil:

; 182  :     /* tstate is allowed to be NULL (early interpreter init) */
; 183  :     if (tstate != NULL) {

  0001e	48 8b 05 00 00
	00 00		 mov	 rax, QWORD PTR gil_last_holder
  00025	48 85 db	 test	 rbx, rbx
  00028	48 0f 45 c3	 cmovne	 rax, rbx
  0002c	48 89 05 00 00
	00 00		 mov	 QWORD PTR gil_last_holder, rax

; 184  :         /* Sub-interpreter support: threads might have been switched
; 185  :            under our feet using PyThreadState_Swap(). Fix the GIL last
; 186  :            holder variable so that our heuristics work. */
; 187  :         _Py_atomic_store_relaxed(&gil_last_holder, tstate);
; 188  :     }
; 189  : 
; 190  : #ifdef WITH_PARALLEL
; 191  :     _PyParallel_AboutToDropGIL();

  00033	e8 00 00 00 00	 call	 _PyParallel_AboutToDropGIL

; 192  : #endif
; 193  :     MUTEX_LOCK(gil_mutex);

  00038	48 8d 0d 00 00
	00 00		 lea	 rcx, OFFSET FLAT:gil_mutex
  0003f	e8 00 00 00 00	 call	 PyMUTEX_LOCK
  00044	85 c0		 test	 eax, eax
  00046	74 0c		 je	 SHORT $LN11@drop_gil
  00048	48 8d 0d 00 00
	00 00		 lea	 rcx, OFFSET FLAT:??_C@_0BP@ELBEKAFN@PyMUTEX_LOCK?$CIgil_mutex?$CJ?5failed?$AA@
  0004f	e8 00 00 00 00	 call	 Py_FatalError
$LN11@drop_gil:

; 194  :     _Py_ANNOTATE_RWLOCK_RELEASED(&gil_locked, /*is_write=*/1);
; 195  :     _Py_atomic_store_relaxed(&gil_locked, 0);
; 196  :     COND_SIGNAL(gil_cond);

  00054	48 8d 0d 00 00
	00 00		 lea	 rcx, OFFSET FLAT:gil_cond
  0005b	c7 05 00 00 00
	00 00 00 00 00	 mov	 DWORD PTR gil_locked, 0
  00065	e8 00 00 00 00	 call	 PyCOND_SIGNAL
  0006a	85 c0		 test	 eax, eax
  0006c	74 0c		 je	 SHORT $LN10@drop_gil
  0006e	48 8d 0d 00 00
	00 00		 lea	 rcx, OFFSET FLAT:??_C@_0BP@HKOAHNPN@PyCOND_SIGNAL?$CIgil_cond?$CJ?5failed?$AA@
  00075	e8 00 00 00 00	 call	 Py_FatalError
$LN10@drop_gil:

; 197  :     MUTEX_UNLOCK(gil_mutex);

  0007a	48 8d 0d 00 00
	00 00		 lea	 rcx, OFFSET FLAT:gil_mutex
  00081	e8 00 00 00 00	 call	 PyMUTEX_UNLOCK
  00086	85 c0		 test	 eax, eax
  00088	74 0c		 je	 SHORT $LN9@drop_gil
  0008a	48 8d 0d 00 00
	00 00		 lea	 rcx, OFFSET FLAT:??_C@_0CB@BPNPHLO@PyMUTEX_UNLOCK?$CIgil_mutex?$CJ?5failed@
  00091	e8 00 00 00 00	 call	 Py_FatalError
$LN9@drop_gil:

; 198  :     
; 199  : #ifdef FORCE_SWITCHING
; 200  :     if (_Py_atomic_load_relaxed(&gil_drop_request) && tstate != NULL) {

  00096	83 3d 00 00 00
	00 00		 cmp	 DWORD PTR gil_drop_request, 0
  0009d	0f 84 89 00 00
	00		 je	 $LN1@drop_gil
  000a3	48 85 db	 test	 rbx, rbx
  000a6	0f 84 80 00 00
	00		 je	 $LN1@drop_gil

; 201  :         MUTEX_LOCK(switch_mutex);

  000ac	48 8d 0d 00 00
	00 00		 lea	 rcx, OFFSET FLAT:switch_mutex
  000b3	e8 00 00 00 00	 call	 PyMUTEX_LOCK
  000b8	85 c0		 test	 eax, eax
  000ba	74 0c		 je	 SHORT $LN7@drop_gil
  000bc	48 8d 0d 00 00
	00 00		 lea	 rcx, OFFSET FLAT:??_C@_0CC@PELEBGED@PyMUTEX_LOCK?$CIswitch_mutex?$CJ?5faile@
  000c3	e8 00 00 00 00	 call	 Py_FatalError
$LN7@drop_gil:

; 202  :         /* Not switched yet => wait */
; 203  :         if (_Py_atomic_load_relaxed(&gil_last_holder) == tstate) {

  000c8	48 39 1d 00 00
	00 00		 cmp	 QWORD PTR gil_last_holder, rbx
  000cf	75 3f		 jne	 SHORT $LN2@drop_gil

; 204  :         RESET_GIL_DROP_REQUEST();

  000d1	8b 05 00 00 00
	00		 mov	 eax, DWORD PTR pending_async_exc

; 205  :             /* NOTE: if COND_WAIT does not atomically start waiting when
; 206  :                releasing the mutex, another thread can run through, take
; 207  :                the GIL and drop it again, and reset the condition
; 208  :                before we even had a chance to wait for it. */
; 209  :             COND_WAIT(switch_cond, switch_mutex);

  000d7	48 8d 15 00 00
	00 00		 lea	 rdx, OFFSET FLAT:switch_mutex
  000de	48 8d 0d 00 00
	00 00		 lea	 rcx, OFFSET FLAT:switch_cond
  000e5	0b 05 00 00 00
	00		 or	 eax, DWORD PTR pendingcalls_to_do
  000eb	c7 05 00 00 00
	00 00 00 00 00	 mov	 DWORD PTR gil_drop_request, 0
  000f5	89 05 00 00 00
	00		 mov	 DWORD PTR eval_breaker, eax
  000fb	e8 00 00 00 00	 call	 PyCOND_WAIT
  00100	85 c0		 test	 eax, eax
  00102	74 0c		 je	 SHORT $LN2@drop_gil
  00104	48 8d 0d 00 00
	00 00		 lea	 rcx, OFFSET FLAT:??_C@_0CA@GIGHHEBE@PyCOND_WAIT?$CIswitch_cond?$CJ?5failed?$AA@
  0010b	e8 00 00 00 00	 call	 Py_FatalError
$LN2@drop_gil:

; 210  :     }
; 211  :         MUTEX_UNLOCK(switch_mutex);

  00110	48 8d 0d 00 00
	00 00		 lea	 rcx, OFFSET FLAT:switch_mutex
  00117	e8 00 00 00 00	 call	 PyMUTEX_UNLOCK
  0011c	85 c0		 test	 eax, eax
  0011e	74 0c		 je	 SHORT $LN1@drop_gil
  00120	48 8d 0d 00 00
	00 00		 lea	 rcx, OFFSET FLAT:??_C@_0CE@HDDMOJLP@PyMUTEX_UNLOCK?$CIswitch_mutex?$CJ?5fai@
  00127	e8 00 00 00 00	 call	 Py_FatalError
$LN1@drop_gil:

; 212  :     }
; 213  : #endif
; 214  : }

  0012c	48 83 c4 20	 add	 rsp, 32			; 00000020H
  00130	5b		 pop	 rbx
  00131	c3		 ret	 0
drop_gil ENDP
_TEXT	ENDS
;	COMDAT pdata
; File c:\src\pyparallel\python\condvar.h
pdata	SEGMENT
$pdata$PyCOND_WAIT DD imagerel PyCOND_WAIT
	DD	imagerel PyCOND_WAIT+25
	DD	imagerel $unwind$PyCOND_WAIT
pdata	ENDS
;	COMDAT xdata
xdata	SEGMENT
$unwind$PyCOND_WAIT DD 010401H
	DD	04204H
; Function compile flags: /Ogtp
xdata	ENDS
;	COMDAT PyCOND_WAIT
_TEXT	SEGMENT
cv$ = 48
cs$ = 56
PyCOND_WAIT PROC					; COMDAT

; 267  : {

  00000	48 83 ec 28	 sub	 rsp, 40			; 00000028H

; 268  :     int result = _PyCOND_WAIT_MS(cv, cs, INFINITE);

  00004	41 83 c8 ff	 or	 r8d, -1			; ffffffffH
  00008	e8 00 00 00 00	 call	 _PyCOND_WAIT_MS

; 269  :     return result >= 0 ? 0 : result;

  0000d	33 c9		 xor	 ecx, ecx
  0000f	85 c0		 test	 eax, eax
  00011	0f 49 c1	 cmovns	 eax, ecx

; 270  : }

  00014	48 83 c4 28	 add	 rsp, 40			; 00000028H
  00018	c3		 ret	 0
PyCOND_WAIT ENDP
_TEXT	ENDS
PUBLIC	??_C@_0DA@ICJLMIKE@PyEval_AcquireThread?3?5non?9NULL?5o@ ; `string'
PUBLIC	??_C@_1BM@GJGCNEDH@?$AAg?$AAi?$AAl?$AA_?$AAc?$AAr?$AAe?$AAa?$AAt?$AAe?$AAd?$AA?$CI?$AA?$CJ?$AA?$AA@ ; `string'
PUBLIC	??_C@_0CM@FOIANINH@PyEval_AcquireThread?3?5NULL?5new?5t@ ; `string'
PUBLIC	??_C@_0BF@PCMNHNOF@PyEval_AcquireThread?$AA@	; `string'
PUBLIC	PyEval_AcquireThread
EXTRN	PyThreadState_Swap:PROC
;	COMDAT pdata
; File c:\src\pyparallel\python\ceval.c
pdata	SEGMENT
$pdata$PyEval_AcquireThread DD imagerel $LN7
	DD	imagerel $LN7+137
	DD	imagerel $unwind$PyEval_AcquireThread
pdata	ENDS
;	COMDAT xdata
xdata	SEGMENT
$unwind$PyEval_AcquireThread DD 020601H
	DD	030023206H
xdata	ENDS
;	COMDAT ??_C@_0DA@ICJLMIKE@PyEval_AcquireThread?3?5non?9NULL?5o@
CONST	SEGMENT
??_C@_0DA@ICJLMIKE@PyEval_AcquireThread?3?5non?9NULL?5o@ DB 'PyEval_Acqui'
	DB	'reThread: non-NULL old thread state', 00H	; `string'
CONST	ENDS
;	COMDAT ??_C@_1BM@GJGCNEDH@?$AAg?$AAi?$AAl?$AA_?$AAc?$AAr?$AAe?$AAa?$AAt?$AAe?$AAd?$AA?$CI?$AA?$CJ?$AA?$AA@
CONST	SEGMENT
??_C@_1BM@GJGCNEDH@?$AAg?$AAi?$AAl?$AA_?$AAc?$AAr?$AAe?$AAa?$AAt?$AAe?$AAd?$AA?$CI?$AA?$CJ?$AA?$AA@ DB 'g'
	DB	00H, 'i', 00H, 'l', 00H, '_', 00H, 'c', 00H, 'r', 00H, 'e', 00H
	DB	'a', 00H, 't', 00H, 'e', 00H, 'd', 00H, '(', 00H, ')', 00H, 00H
	DB	00H						; `string'
CONST	ENDS
;	COMDAT ??_C@_0CM@FOIANINH@PyEval_AcquireThread?3?5NULL?5new?5t@
CONST	SEGMENT
??_C@_0CM@FOIANINH@PyEval_AcquireThread?3?5NULL?5new?5t@ DB 'PyEval_Acqui'
	DB	'reThread: NULL new thread state', 00H	; `string'
CONST	ENDS
;	COMDAT ??_C@_0BF@PCMNHNOF@PyEval_AcquireThread?$AA@
CONST	SEGMENT
??_C@_0BF@PCMNHNOF@PyEval_AcquireThread?$AA@ DB 'PyEval_AcquireThread', 00H ; `string'
; Function compile flags: /Ogtp
CONST	ENDS
;	COMDAT PyEval_AcquireThread
_TEXT	SEGMENT
tstate$ = 48
PyEval_AcquireThread PROC				; COMDAT

; 355  : {

$LN7:
  00000	40 53		 push	 rbx
  00002	48 83 ec 20	 sub	 rsp, 32			; 00000020H
  00006	48 8b d9	 mov	 rbx, rcx

; 356  :     Py_GUARD

  00009	e8 00 00 00 00	 call	 _Py_PXCTX
  0000e	85 c0		 test	 eax, eax
  00010	74 1c		 je	 SHORT $LN3@PyEval_Acq@2
  00012	48 8d 15 00 00
	00 00		 lea	 rdx, OFFSET FLAT:??_C@_0BC@CJJEGEEJ@?4?4?2Python?2ceval?4c?$AA@
  00019	48 8d 0d 00 00
	00 00		 lea	 rcx, OFFSET FLAT:??_C@_0BF@PCMNHNOF@PyEval_AcquireThread?$AA@
  00020	45 33 c9	 xor	 r9d, r9d
  00023	41 b8 64 01 00
	00		 mov	 r8d, 356		; 00000164H
  00029	e8 00 00 00 00	 call	 _PyParallel_ContextGuardFailure
$LN3@PyEval_Acq@2:

; 357  :     if (tstate == NULL)

  0002e	48 85 db	 test	 rbx, rbx
  00031	75 0c		 jne	 SHORT $LN2@PyEval_Acq@2

; 358  :         Py_FatalError("PyEval_AcquireThread: NULL new thread state");

  00033	48 8d 0d 00 00
	00 00		 lea	 rcx, OFFSET FLAT:??_C@_0CM@FOIANINH@PyEval_AcquireThread?3?5NULL?5new?5t@
  0003a	e8 00 00 00 00	 call	 Py_FatalError
$LN2@PyEval_Acq@2:

; 359  :     /* Check someone has called PyEval_InitThreads() to create the lock */
; 360  :     assert(gil_created());

  0003f	e8 00 00 00 00	 call	 gil_created
  00044	85 c0		 test	 eax, eax
  00046	75 1a		 jne	 SHORT $LN6@PyEval_Acq@2
  00048	48 8d 15 00 00
	00 00		 lea	 rdx, OFFSET FLAT:??_C@_1CE@BLKIPNIC@?$AA?4?$AA?4?$AA?2?$AAP?$AAy?$AAt?$AAh?$AAo?$AAn?$AA?2?$AAc?$AAe?$AAv?$AAa?$AAl?$AA?4?$AAc?$AA?$AA@
  0004f	48 8d 0d 00 00
	00 00		 lea	 rcx, OFFSET FLAT:??_C@_1BM@GJGCNEDH@?$AAg?$AAi?$AAl?$AA_?$AAc?$AAr?$AAe?$AAa?$AAt?$AAe?$AAd?$AA?$CI?$AA?$CJ?$AA?$AA@
  00056	41 b8 68 01 00
	00		 mov	 r8d, 360		; 00000168H
  0005c	ff 15 00 00 00
	00		 call	 QWORD PTR __imp__wassert
$LN6@PyEval_Acq@2:

; 361  :     take_gil(tstate);

  00062	48 8b cb	 mov	 rcx, rbx
  00065	e8 00 00 00 00	 call	 take_gil

; 362  :     if (PyThreadState_Swap(tstate) != NULL)

  0006a	48 8b cb	 mov	 rcx, rbx
  0006d	e8 00 00 00 00	 call	 PyThreadState_Swap
  00072	48 85 c0	 test	 rax, rax
  00075	74 0c		 je	 SHORT $LN1@PyEval_Acq@2

; 363  :         Py_FatalError(
; 364  :             "PyEval_AcquireThread: non-NULL old thread state");

  00077	48 8d 0d 00 00
	00 00		 lea	 rcx, OFFSET FLAT:??_C@_0DA@ICJLMIKE@PyEval_AcquireThread?3?5non?9NULL?5o@
  0007e	e8 00 00 00 00	 call	 Py_FatalError
$LN1@PyEval_Acq@2:

; 365  : }

  00083	48 83 c4 20	 add	 rsp, 32			; 00000020H
  00087	5b		 pop	 rbx
  00088	c3		 ret	 0
PyEval_AcquireThread ENDP
_TEXT	ENDS
PUBLIC	??_C@_0CJ@OFBAFBEO@PyEval_ReleaseThread?3?5wrong?5thre@ ; `string'
PUBLIC	??_C@_0CI@LNKLMPPG@PyEval_ReleaseThread?3?5NULL?5threa@ ; `string'
PUBLIC	??_C@_0BF@HABGMHOB@PyEval_ReleaseThread?$AA@	; `string'
PUBLIC	PyEval_ReleaseThread
;	COMDAT pdata
pdata	SEGMENT
$pdata$PyEval_ReleaseThread DD imagerel $LN6
	DD	imagerel $LN6+100
	DD	imagerel $unwind$PyEval_ReleaseThread
pdata	ENDS
;	COMDAT xdata
xdata	SEGMENT
$unwind$PyEval_ReleaseThread DD 020601H
	DD	030023206H
xdata	ENDS
;	COMDAT ??_C@_0CJ@OFBAFBEO@PyEval_ReleaseThread?3?5wrong?5thre@
CONST	SEGMENT
??_C@_0CJ@OFBAFBEO@PyEval_ReleaseThread?3?5wrong?5thre@ DB 'PyEval_Releas'
	DB	'eThread: wrong thread state', 00H		; `string'
CONST	ENDS
;	COMDAT ??_C@_0CI@LNKLMPPG@PyEval_ReleaseThread?3?5NULL?5threa@
CONST	SEGMENT
??_C@_0CI@LNKLMPPG@PyEval_ReleaseThread?3?5NULL?5threa@ DB 'PyEval_Releas'
	DB	'eThread: NULL thread state', 00H		; `string'
CONST	ENDS
;	COMDAT ??_C@_0BF@HABGMHOB@PyEval_ReleaseThread?$AA@
CONST	SEGMENT
??_C@_0BF@HABGMHOB@PyEval_ReleaseThread?$AA@ DB 'PyEval_ReleaseThread', 00H ; `string'
; Function compile flags: /Ogtp
CONST	ENDS
;	COMDAT PyEval_ReleaseThread
_TEXT	SEGMENT
tstate$ = 48
PyEval_ReleaseThread PROC				; COMDAT

; 369  : {

$LN6:
  00000	40 53		 push	 rbx
  00002	48 83 ec 20	 sub	 rsp, 32			; 00000020H
  00006	48 8b d9	 mov	 rbx, rcx

; 370  :     Py_GUARD

  00009	e8 00 00 00 00	 call	 _Py_PXCTX
  0000e	85 c0		 test	 eax, eax
  00010	74 1c		 je	 SHORT $LN3@PyEval_Rel@2
  00012	48 8d 15 00 00
	00 00		 lea	 rdx, OFFSET FLAT:??_C@_0BC@CJJEGEEJ@?4?4?2Python?2ceval?4c?$AA@
  00019	48 8d 0d 00 00
	00 00		 lea	 rcx, OFFSET FLAT:??_C@_0BF@HABGMHOB@PyEval_ReleaseThread?$AA@
  00020	45 33 c9	 xor	 r9d, r9d
  00023	41 b8 72 01 00
	00		 mov	 r8d, 370		; 00000172H
  00029	e8 00 00 00 00	 call	 _PyParallel_ContextGuardFailure
$LN3@PyEval_Rel@2:

; 371  :     if (tstate == NULL)

  0002e	48 85 db	 test	 rbx, rbx
  00031	75 0c		 jne	 SHORT $LN2@PyEval_Rel@2

; 372  :         Py_FatalError("PyEval_ReleaseThread: NULL thread state");

  00033	48 8d 0d 00 00
	00 00		 lea	 rcx, OFFSET FLAT:??_C@_0CI@LNKLMPPG@PyEval_ReleaseThread?3?5NULL?5threa@
  0003a	e8 00 00 00 00	 call	 Py_FatalError
$LN2@PyEval_Rel@2:

; 373  :     if (PyThreadState_Swap(NULL) != tstate)

  0003f	33 c9		 xor	 ecx, ecx
  00041	e8 00 00 00 00	 call	 PyThreadState_Swap
  00046	48 3b c3	 cmp	 rax, rbx
  00049	74 0c		 je	 SHORT $LN1@PyEval_Rel@2

; 374  :         Py_FatalError("PyEval_ReleaseThread: wrong thread state");

  0004b	48 8d 0d 00 00
	00 00		 lea	 rcx, OFFSET FLAT:??_C@_0CJ@OFBAFBEO@PyEval_ReleaseThread?3?5wrong?5thre@
  00052	e8 00 00 00 00	 call	 Py_FatalError
$LN1@PyEval_Rel@2:

; 375  :     drop_gil(tstate);

  00057	48 8b cb	 mov	 rcx, rbx

; 376  : }

  0005a	48 83 c4 20	 add	 rsp, 32			; 00000020H
  0005e	5b		 pop	 rbx
  0005f	e9 00 00 00 00	 jmp	 drop_gil
PyEval_ReleaseThread ENDP
_TEXT	ENDS
PUBLIC	_Py_DecRef
PUBLIC	??_C@_09LCFGMKMJ@threading?$AA@			; `string'
PUBLIC	??_C@_0BF@HOBAOGPA@PyEval_ReInitThreads?$AA@	; `string'
PUBLIC	PyEval_ReInitThreads
EXTRN	PyErr_WriteUnraisable:PROC
EXTRN	_PyObject_CallMethodId:PROC
EXTRN	PyErr_Clear:PROC
EXTRN	PyMapping_GetItemString:PROC
EXTRN	_tls_index:DWORD
;	COMDAT pdata
pdata	SEGMENT
$pdata$PyEval_ReInitThreads DD imagerel $LN8
	DD	imagerel $LN8+226
	DD	imagerel $unwind$PyEval_ReInitThreads
pdata	ENDS
;	COMDAT xdata
xdata	SEGMENT
$unwind$PyEval_ReInitThreads DD 020601H
	DD	030023206H
xdata	ENDS
;	COMDAT ??_C@_09LCFGMKMJ@threading?$AA@
CONST	SEGMENT
??_C@_09LCFGMKMJ@threading?$AA@ DB 'threading', 00H	; `string'
CONST	ENDS
;	COMDAT ??_C@_0BF@HOBAOGPA@PyEval_ReInitThreads?$AA@
CONST	SEGMENT
??_C@_0BF@HOBAOGPA@PyEval_ReInitThreads?$AA@ DB 'PyEval_ReInitThreads', 00H ; `string'
; Function compile flags: /Ogtp
CONST	ENDS
;	COMDAT PyEval_ReInitThreads
_TEXT	SEGMENT
PyEval_ReInitThreads PROC				; COMDAT

; 385  : {

$LN8:
  00000	40 53		 push	 rbx
  00002	48 83 ec 20	 sub	 rsp, 32			; 00000020H

; 386  :     _Py_IDENTIFIER(_after_fork);
; 387  :     PyObject *threading, *result;
; 388  :     PyThreadState *tstate = PyThreadState_GET();

  00006	e8 00 00 00 00	 call	 PyThreadState_Get
  0000b	48 8b d8	 mov	 rbx, rax

; 389  :     Py_GUARD

  0000e	e8 00 00 00 00	 call	 _Py_PXCTX
  00013	85 c0		 test	 eax, eax
  00015	74 1c		 je	 SHORT $LN5@PyEval_ReI
  00017	48 8d 15 00 00
	00 00		 lea	 rdx, OFFSET FLAT:??_C@_0BC@CJJEGEEJ@?4?4?2Python?2ceval?4c?$AA@
  0001e	48 8d 0d 00 00
	00 00		 lea	 rcx, OFFSET FLAT:??_C@_0BF@HOBAOGPA@PyEval_ReInitThreads?$AA@
  00025	45 33 c9	 xor	 r9d, r9d
  00028	41 b8 85 01 00
	00		 mov	 r8d, 389		; 00000185H
  0002e	e8 00 00 00 00	 call	 _PyParallel_ContextGuardFailure
$LN5@PyEval_ReI:

; 390  : 
; 391  :     if (!gil_created())

  00033	e8 00 00 00 00	 call	 gil_created
  00038	85 c0		 test	 eax, eax
  0003a	0f 84 9c 00 00
	00		 je	 $LN6@PyEval_ReI

; 392  :         return;
; 393  :     recreate_gil();

  00040	e8 00 00 00 00	 call	 recreate_gil

; 394  :     pending_lock = PyThread_allocate_lock();

  00045	e8 00 00 00 00	 call	 PyThread_allocate_lock

; 395  :     take_gil(tstate);

  0004a	48 8b cb	 mov	 rcx, rbx
  0004d	48 89 05 00 00
	00 00		 mov	 QWORD PTR pending_lock, rax
  00054	e8 00 00 00 00	 call	 take_gil

; 396  :     main_thread = PyThread_get_thread_ident();

  00059	e8 00 00 00 00	 call	 PyThread_get_thread_ident
  0005e	89 05 00 00 00
	00		 mov	 DWORD PTR main_thread, eax

; 397  : 
; 398  :     /* Update the threading module with the new state.
; 399  :      */
; 400  :     tstate = PyThreadState_GET();

  00064	e8 00 00 00 00	 call	 PyThreadState_Get

; 401  :     threading = PyMapping_GetItemString(tstate->interp->modules,
; 402  :                                         "threading");

  00069	48 8d 15 00 00
	00 00		 lea	 rdx, OFFSET FLAT:??_C@_09LCFGMKMJ@threading?$AA@
  00070	48 8b 48 08	 mov	 rcx, QWORD PTR [rax+8]
  00074	48 8b 49 10	 mov	 rcx, QWORD PTR [rcx+16]
  00078	e8 00 00 00 00	 call	 PyMapping_GetItemString
  0007d	48 8b d8	 mov	 rbx, rax

; 403  :     if (threading == NULL) {

  00080	48 85 c0	 test	 rax, rax
  00083	75 0a		 jne	 SHORT $LN3@PyEval_ReI

; 414  : }

  00085	48 83 c4 20	 add	 rsp, 32			; 00000020H
  00089	5b		 pop	 rbx
  0008a	e9 00 00 00 00	 jmp	 PyErr_Clear
$LN3@PyEval_ReI:

; 404  :         /* threading not imported */
; 405  :         PyErr_Clear();
; 406  :         return;
; 407  :     }
; 408  :     result = _PyObject_CallMethodId(threading, &PyId__after_fork, NULL);

  0008f	8b 0d 00 00 00
	00		 mov	 ecx, DWORD PTR _tls_index
  00095	65 48 8b 04 25
	58 00 00 00	 mov	 rax, QWORD PTR gs:88
  0009e	ba 00 00 00 00	 mov	 edx, OFFSET FLAT:?PyId__after_fork@?1??PyEval_ReInitThreads@@9@9
  000a3	48 03 14 c8	 add	 rdx, QWORD PTR [rax+rcx*8]
  000a7	45 33 c0	 xor	 r8d, r8d
  000aa	48 8b cb	 mov	 rcx, rbx
  000ad	e8 00 00 00 00	 call	 _PyObject_CallMethodId

; 409  :     if (result == NULL)

  000b2	48 85 c0	 test	 rax, rax
  000b5	75 15		 jne	 SHORT $LN2@PyEval_ReI

; 410  :         PyErr_WriteUnraisable(threading);

  000b7	48 8b cb	 mov	 rcx, rbx
  000ba	e8 00 00 00 00	 call	 PyErr_WriteUnraisable

; 413  :     Py_DECREF(threading);

  000bf	48 8b cb	 mov	 rcx, rbx

; 414  : }

  000c2	48 83 c4 20	 add	 rsp, 32			; 00000020H
  000c6	5b		 pop	 rbx
  000c7	e9 00 00 00 00	 jmp	 _Py_DecRef
$LN2@PyEval_ReI:

; 411  :     else
; 412  :         Py_DECREF(result);

  000cc	48 8b c8	 mov	 rcx, rax
  000cf	e8 00 00 00 00	 call	 _Py_DecRef

; 413  :     Py_DECREF(threading);

  000d4	48 8b cb	 mov	 rcx, rbx
  000d7	e8 00 00 00 00	 call	 _Py_DecRef
$LN6@PyEval_ReI:

; 414  : }

  000dc	48 83 c4 20	 add	 rsp, 32			; 00000020H
  000e0	5b		 pop	 rbx
  000e1	c3		 ret	 0
PyEval_ReInitThreads ENDP
_TEXT	ENDS
PUBLIC	??_C@_0L@DMHMLFIA@_Py_DecRef?$AA@		; `string'
EXTRN	Px_DecRef:PROC
EXTRN	_Py_Dealloc:PROC
EXTRN	_Py_NegativeRefcount:PROC
;	COMDAT pdata
; File c:\src\pyparallel\include\object.h
pdata	SEGMENT
$pdata$_Py_DecRef DD imagerel $LN13
	DD	imagerel $LN13+159
	DD	imagerel $unwind$_Py_DecRef
pdata	ENDS
;	COMDAT xdata
xdata	SEGMENT
$unwind$_Py_DecRef DD 020601H
	DD	030025206H
xdata	ENDS
;	COMDAT ??_C@_0L@DMHMLFIA@_Py_DecRef?$AA@
CONST	SEGMENT
??_C@_0L@DMHMLFIA@_Py_DecRef?$AA@ DB '_Py_DecRef', 00H	; `string'
; Function compile flags: /Ogtp
CONST	ENDS
;	COMDAT _Py_DecRef
_TEXT	SEGMENT
op$ = 64
_Py_DecRef PROC						; COMDAT

; 923  : {

$LN13:
  00000	40 53		 push	 rbx
  00002	48 83 ec 30	 sub	 rsp, 48			; 00000030H
  00006	48 8b d9	 mov	 rbx, rcx

; 924  :     if (!Py_PXCTX) {

  00009	e8 00 00 00 00	 call	 _Py_PXCTX
  0000e	85 c0		 test	 eax, eax
  00010	0f 85 83 00 00
	00		 jne	 $LN1@Py_DecRef

; 925  :         if (Px_PERSISTED(op) || Px_CLONED(op))

  00016	48 8b 43 20	 mov	 rax, QWORD PTR [rbx+32]
  0001a	a8 20		 test	 al, 32			; 00000020H
  0001c	75 73		 jne	 SHORT $LN6@Py_DecRef
  0001e	84 c0		 test	 al, al
  00020	78 6f		 js	 SHORT $LN6@Py_DecRef

; 927  :         else if (!Px_ISPX(op)) {

  00022	a8 02		 test	 al, 2
  00024	75 73		 jne	 SHORT $LN1@Py_DecRef

; 928  :             _Py_DEC_REFTOTAL;

  00026	e8 00 00 00 00	 call	 _Py_PXCTX
  0002b	85 c0		 test	 eax, eax
  0002d	75 07		 jne	 SHORT $LN12@Py_DecRef
  0002f	48 ff 0d 00 00
	00 00		 dec	 QWORD PTR _Py_RefTotal
$LN12@Py_DecRef:

; 929  :             if ((--((PyObject *)(op))->ob_refcnt) != 0) {

  00036	48 ff 4b 50	 dec	 QWORD PTR [rbx+80]
  0003a	74 48		 je	 SHORT $LN3@Py_DecRef

; 930  :                 _Py_CHECK_REFCNT(op);

  0003c	48 8d 15 00 00
	00 00		 lea	 rdx, OFFSET FLAT:??_C@_0CD@HDJFDCDP@c?3?2src?2pyparallel?2include?2object@
  00043	48 8d 0d 00 00
	00 00		 lea	 rcx, OFFSET FLAT:??_C@_0L@DMHMLFIA@_Py_DecRef?$AA@
  0004a	4c 8b cb	 mov	 r9, rbx
  0004d	41 b8 a2 03 00
	00		 mov	 r8d, 930		; 000003a2H
  00053	c7 44 24 20 10
	00 00 00	 mov	 DWORD PTR [rsp+32], 16
  0005b	e8 00 00 00 00	 call	 _PyParallel_Guard
  00060	85 c0		 test	 eax, eax
  00062	75 35		 jne	 SHORT $LN1@Py_DecRef
  00064	48 83 7b 50 00	 cmp	 QWORD PTR [rbx+80], 0
  00069	7d 2e		 jge	 SHORT $LN1@Py_DecRef
  0006b	48 8d 0d 00 00
	00 00		 lea	 rcx, OFFSET FLAT:??_C@_0CD@HDJFDCDP@c?3?2src?2pyparallel?2include?2object@
  00072	4c 8b c3	 mov	 r8, rbx
  00075	ba a2 03 00 00	 mov	 edx, 930		; 000003a2H

; 933  :         }
; 934  :     }
; 935  : }

  0007a	48 83 c4 30	 add	 rsp, 48			; 00000030H
  0007e	5b		 pop	 rbx
  0007f	e9 00 00 00 00	 jmp	 _Py_NegativeRefcount
$LN3@Py_DecRef:

; 931  :             } else
; 932  :                 _Py_Dealloc((PyObject *)(op));

  00084	48 8b cb	 mov	 rcx, rbx

; 933  :         }
; 934  :     }
; 935  : }

  00087	48 83 c4 30	 add	 rsp, 48			; 00000030H
  0008b	5b		 pop	 rbx
  0008c	e9 00 00 00 00	 jmp	 _Py_Dealloc
$LN6@Py_DecRef:

; 926  :             Px_DECREF(op);

  00091	48 8b cb	 mov	 rcx, rbx
  00094	e8 00 00 00 00	 call	 Px_DecRef
$LN1@Py_DecRef:

; 933  :         }
; 934  :     }
; 935  : }

  00099	48 83 c4 30	 add	 rsp, 48			; 00000030H
  0009d	5b		 pop	 rbx
  0009e	c3		 ret	 0
_Py_DecRef ENDP
; Function compile flags: /Ogtp
; File c:\src\pyparallel\python\ceval_gil.h
_TEXT	ENDS
;	COMDAT recreate_gil
_TEXT	SEGMENT
recreate_gil PROC					; COMDAT

; 173  :     _Py_ANNOTATE_RWLOCK_DESTROY(&gil_locked);
; 174  :     /* XXX should we destroy the old OS resources here? */
; 175  :     create_gil();
; 176  : }

  00000	e9 00 00 00 00	 jmp	 create_gil
recreate_gil ENDP
; Function compile flags: /Ogtp
; File c:\src\pyparallel\python\ceval.c
_TEXT	ENDS
;	COMDAT _PyEval_SignalAsyncExc
_TEXT	SEGMENT
_PyEval_SignalAsyncExc PROC				; COMDAT

; 427  :     SIGNAL_ASYNC_EXC();

  00000	c7 05 00 00 00
	00 01 00 00 00	 mov	 DWORD PTR pending_async_exc, 1
  0000a	c7 05 00 00 00
	00 01 00 00 00	 mov	 DWORD PTR eval_breaker, 1

; 428  : }

  00014	c3		 ret	 0
_PyEval_SignalAsyncExc ENDP
_TEXT	ENDS
PUBLIC	??_C@_0BP@LBIOHLHB@PyEval_SaveThread?3?5NULL?5tstate?$AA@ ; `string'
PUBLIC	??_C@_1EA@JOGJDCFF@?$AAp?$AAs?$AAt?$AAa?$AAt?$AAe?$AA?9?$AA?$DO?$AAi?$AAs?$AA_?$AAp?$AAa?$AAr?$AAa?$AAl?$AAl?$AAe?$AAl?$AA_?$AAt?$AAh?$AAr?$AAe?$AAa?$AAd?$AA?5?$AA?$DN?$AA?$DN?$AA?5?$AA1?$AA?$AA@ ; `string'
PUBLIC	??_C@_1EG@IOBEGALE@?$AAp?$AAs?$AAt?$AAa?$AAt?$AAe?$AA?9?$AA?$DO?$AAt?$AAh?$AAr?$AAe?$AAa?$AAd?$AA_?$AAi?$AAd?$AA?5?$AA?$DN?$AA?$DN?$AA?5?$AAc?$AAu?$AAr?$AA_?$AAt?$AAh?$AAr?$AAe?$AAa?$AAd?$AA_@ ; `string'
PUBLIC	??_C@_1BO@MBEBCIGB@?$AAp?$AAs?$AAt?$AAa?$AAt?$AAe?$AA?5?$AA?$CB?$AA?$DN?$AA?5?$AAN?$AAU?$AAL?$AAL?$AA?$AA@ ; `string'
PUBLIC	??_C@_1EA@HHJCOJKH@?$AAt?$AAs?$AAt?$AAa?$AAt?$AAe?$AA?9?$AA?$DO?$AAi?$AAs?$AA_?$AAp?$AAa?$AAr?$AAa?$AAl?$AAl?$AAe?$AAl?$AA_?$AAt?$AAh?$AAr?$AAe?$AAa?$AAd?$AA?5?$AA?$DN?$AA?$DN?$AA?5?$AA0?$AA?$AA@ ; `string'
PUBLIC	PyEval_SaveThread
EXTRN	_PyParallel_BlockingCall:PROC
EXTRN	_PyParallel_GetThreadState:PROC
EXTRN	_PyParallel_GetCurrentThreadState:PROC
;	COMDAT pdata
pdata	SEGMENT
$pdata$PyEval_SaveThread DD imagerel $LN11
	DD	imagerel $LN11+308
	DD	imagerel $unwind$PyEval_SaveThread
pdata	ENDS
;	COMDAT xdata
xdata	SEGMENT
$unwind$PyEval_SaveThread DD 060f01H
	DD	07640fH
	DD	06340fH
	DD	0700b320fH
xdata	ENDS
;	COMDAT ??_C@_0BP@LBIOHLHB@PyEval_SaveThread?3?5NULL?5tstate?$AA@
CONST	SEGMENT
??_C@_0BP@LBIOHLHB@PyEval_SaveThread?3?5NULL?5tstate?$AA@ DB 'PyEval_Save'
	DB	'Thread: NULL tstate', 00H			; `string'
CONST	ENDS
;	COMDAT ??_C@_1EA@JOGJDCFF@?$AAp?$AAs?$AAt?$AAa?$AAt?$AAe?$AA?9?$AA?$DO?$AAi?$AAs?$AA_?$AAp?$AAa?$AAr?$AAa?$AAl?$AAl?$AAe?$AAl?$AA_?$AAt?$AAh?$AAr?$AAe?$AAa?$AAd?$AA?5?$AA?$DN?$AA?$DN?$AA?5?$AA1?$AA?$AA@
CONST	SEGMENT
??_C@_1EA@JOGJDCFF@?$AAp?$AAs?$AAt?$AAa?$AAt?$AAe?$AA?9?$AA?$DO?$AAi?$AAs?$AA_?$AAp?$AAa?$AAr?$AAa?$AAl?$AAl?$AAe?$AAl?$AA_?$AAt?$AAh?$AAr?$AAe?$AAa?$AAd?$AA?5?$AA?$DN?$AA?$DN?$AA?5?$AA1?$AA?$AA@ DB 'p'
	DB	00H, 's', 00H, 't', 00H, 'a', 00H, 't', 00H, 'e', 00H, '-', 00H
	DB	'>', 00H, 'i', 00H, 's', 00H, '_', 00H, 'p', 00H, 'a', 00H, 'r'
	DB	00H, 'a', 00H, 'l', 00H, 'l', 00H, 'e', 00H, 'l', 00H, '_', 00H
	DB	't', 00H, 'h', 00H, 'r', 00H, 'e', 00H, 'a', 00H, 'd', 00H, ' '
	DB	00H, '=', 00H, '=', 00H, ' ', 00H, '1', 00H, 00H, 00H ; `string'
CONST	ENDS
;	COMDAT ??_C@_1EG@IOBEGALE@?$AAp?$AAs?$AAt?$AAa?$AAt?$AAe?$AA?9?$AA?$DO?$AAt?$AAh?$AAr?$AAe?$AAa?$AAd?$AA_?$AAi?$AAd?$AA?5?$AA?$DN?$AA?$DN?$AA?5?$AAc?$AAu?$AAr?$AA_?$AAt?$AAh?$AAr?$AAe?$AAa?$AAd?$AA_@
CONST	SEGMENT
??_C@_1EG@IOBEGALE@?$AAp?$AAs?$AAt?$AAa?$AAt?$AAe?$AA?9?$AA?$DO?$AAt?$AAh?$AAr?$AAe?$AAa?$AAd?$AA_?$AAi?$AAd?$AA?5?$AA?$DN?$AA?$DN?$AA?5?$AAc?$AAu?$AAr?$AA_?$AAt?$AAh?$AAr?$AAe?$AAa?$AAd?$AA_@ DB 'p'
	DB	00H, 's', 00H, 't', 00H, 'a', 00H, 't', 00H, 'e', 00H, '-', 00H
	DB	'>', 00H, 't', 00H, 'h', 00H, 'r', 00H, 'e', 00H, 'a', 00H, 'd'
	DB	00H, '_', 00H, 'i', 00H, 'd', 00H, ' ', 00H, '=', 00H, '=', 00H
	DB	' ', 00H, 'c', 00H, 'u', 00H, 'r', 00H, '_', 00H, 't', 00H, 'h'
	DB	00H, 'r', 00H, 'e', 00H, 'a', 00H, 'd', 00H, '_', 00H, 'i', 00H
	DB	'd', 00H, 00H, 00H				; `string'
CONST	ENDS
;	COMDAT ??_C@_1BO@MBEBCIGB@?$AAp?$AAs?$AAt?$AAa?$AAt?$AAe?$AA?5?$AA?$CB?$AA?$DN?$AA?5?$AAN?$AAU?$AAL?$AAL?$AA?$AA@
CONST	SEGMENT
??_C@_1BO@MBEBCIGB@?$AAp?$AAs?$AAt?$AAa?$AAt?$AAe?$AA?5?$AA?$CB?$AA?$DN?$AA?5?$AAN?$AAU?$AAL?$AAL?$AA?$AA@ DB 'p'
	DB	00H, 's', 00H, 't', 00H, 'a', 00H, 't', 00H, 'e', 00H, ' ', 00H
	DB	'!', 00H, '=', 00H, ' ', 00H, 'N', 00H, 'U', 00H, 'L', 00H, 'L'
	DB	00H, 00H, 00H				; `string'
CONST	ENDS
;	COMDAT ??_C@_1EA@HHJCOJKH@?$AAt?$AAs?$AAt?$AAa?$AAt?$AAe?$AA?9?$AA?$DO?$AAi?$AAs?$AA_?$AAp?$AAa?$AAr?$AAa?$AAl?$AAl?$AAe?$AAl?$AA_?$AAt?$AAh?$AAr?$AAe?$AAa?$AAd?$AA?5?$AA?$DN?$AA?$DN?$AA?5?$AA0?$AA?$AA@
CONST	SEGMENT
??_C@_1EA@HHJCOJKH@?$AAt?$AAs?$AAt?$AAa?$AAt?$AAe?$AA?9?$AA?$DO?$AAi?$AAs?$AA_?$AAp?$AAa?$AAr?$AAa?$AAl?$AAl?$AAe?$AAl?$AA_?$AAt?$AAh?$AAr?$AAe?$AAa?$AAd?$AA?5?$AA?$DN?$AA?$DN?$AA?5?$AA0?$AA?$AA@ DB 't'
	DB	00H, 's', 00H, 't', 00H, 'a', 00H, 't', 00H, 'e', 00H, '-', 00H
	DB	'>', 00H, 'i', 00H, 's', 00H, '_', 00H, 'p', 00H, 'a', 00H, 'r'
	DB	00H, 'a', 00H, 'l', 00H, 'l', 00H, 'e', 00H, 'l', 00H, '_', 00H
	DB	't', 00H, 'h', 00H, 'r', 00H, 'e', 00H, 'a', 00H, 'd', 00H, ' '
	DB	00H, '=', 00H, '=', 00H, ' ', 00H, '0', 00H, 00H, 00H ; `string'
; Function compile flags: /Ogtp
CONST	ENDS
;	COMDAT PyEval_SaveThread
_TEXT	SEGMENT
PyEval_SaveThread PROC					; COMDAT

; 440  : {

$LN11:
  00000	48 89 5c 24 08	 mov	 QWORD PTR [rsp+8], rbx
  00005	48 89 74 24 10	 mov	 QWORD PTR [rsp+16], rsi
  0000a	57		 push	 rdi
  0000b	48 83 ec 20	 sub	 rsp, 32			; 00000020H

; 441  :     PyThreadState *tstate;
; 442  : #ifdef WITH_PARALLEL
; 443  :     PyThreadState *pstate;
; 444  :     long cur_thread_id = _Py_get_current_thread_id();

  0000f	65 8b 34 25 48
	00 00 00	 mov	 esi, DWORD PTR gs:72

; 445  :     tstate = _PyParallel_GetCurrentThreadState();

  00017	e8 00 00 00 00	 call	 _PyParallel_GetCurrentThreadState
  0001c	48 8b f8	 mov	 rdi, rax

; 446  :     /*tstate = (PyThreadState*)_Py_atomic_load_relaxed(&_PyThreadState_Current);*/
; 447  :     if (tstate->thread_id != cur_thread_id) {

  0001f	39 b0 90 00 00
	00		 cmp	 DWORD PTR [rax+144], esi
  00025	0f 84 a7 00 00
	00		 je	 $LN3@PyEval_Sav

; 448  :         /* Verify we've been called from a parallel thread. */
; 449  :         pstate = _PyParallel_GetThreadState();

  0002b	e8 00 00 00 00	 call	 _PyParallel_GetThreadState

; 450  :         assert(tstate->is_parallel_thread == 0);

  00030	83 bf a8 00 00
	00 00		 cmp	 DWORD PTR [rdi+168], 0
  00037	48 8b d8	 mov	 rbx, rax
  0003a	74 1a		 je	 SHORT $LN6@PyEval_Sav
  0003c	48 8d 15 00 00
	00 00		 lea	 rdx, OFFSET FLAT:??_C@_1CE@BLKIPNIC@?$AA?4?$AA?4?$AA?2?$AAP?$AAy?$AAt?$AAh?$AAo?$AAn?$AA?2?$AAc?$AAe?$AAv?$AAa?$AAl?$AA?4?$AAc?$AA?$AA@
  00043	48 8d 0d 00 00
	00 00		 lea	 rcx, OFFSET FLAT:??_C@_1EA@HHJCOJKH@?$AAt?$AAs?$AAt?$AAa?$AAt?$AAe?$AA?9?$AA?$DO?$AAi?$AAs?$AA_?$AAp?$AAa?$AAr?$AAa?$AAl?$AAl?$AAe?$AAl?$AA_?$AAt?$AAh?$AAr?$AAe?$AAa?$AAd?$AA?5?$AA?$DN?$AA?$DN?$AA?5?$AA0?$AA?$AA@
  0004a	41 b8 c2 01 00
	00		 mov	 r8d, 450		; 000001c2H
  00050	ff 15 00 00 00
	00		 call	 QWORD PTR __imp__wassert
$LN6@PyEval_Sav:

; 451  :         assert(pstate != NULL);

  00056	48 85 db	 test	 rbx, rbx
  00059	75 1a		 jne	 SHORT $LN7@PyEval_Sav
  0005b	48 8d 15 00 00
	00 00		 lea	 rdx, OFFSET FLAT:??_C@_1CE@BLKIPNIC@?$AA?4?$AA?4?$AA?2?$AAP?$AAy?$AAt?$AAh?$AAo?$AAn?$AA?2?$AAc?$AAe?$AAv?$AAa?$AAl?$AA?4?$AAc?$AA?$AA@
  00062	48 8d 0d 00 00
	00 00		 lea	 rcx, OFFSET FLAT:??_C@_1BO@MBEBCIGB@?$AAp?$AAs?$AAt?$AAa?$AAt?$AAe?$AA?5?$AA?$CB?$AA?$DN?$AA?5?$AAN?$AAU?$AAL?$AAL?$AA?$AA@
  00069	41 b8 c3 01 00
	00		 mov	 r8d, 451		; 000001c3H
  0006f	ff 15 00 00 00
	00		 call	 QWORD PTR __imp__wassert
$LN7@PyEval_Sav:

; 452  :         assert(pstate->thread_id == cur_thread_id);

  00075	39 b3 90 00 00
	00		 cmp	 DWORD PTR [rbx+144], esi
  0007b	74 1a		 je	 SHORT $LN8@PyEval_Sav
  0007d	48 8d 15 00 00
	00 00		 lea	 rdx, OFFSET FLAT:??_C@_1CE@BLKIPNIC@?$AA?4?$AA?4?$AA?2?$AAP?$AAy?$AAt?$AAh?$AAo?$AAn?$AA?2?$AAc?$AAe?$AAv?$AAa?$AAl?$AA?4?$AAc?$AA?$AA@
  00084	48 8d 0d 00 00
	00 00		 lea	 rcx, OFFSET FLAT:??_C@_1EG@IOBEGALE@?$AAp?$AAs?$AAt?$AAa?$AAt?$AAe?$AA?9?$AA?$DO?$AAt?$AAh?$AAr?$AAe?$AAa?$AAd?$AA_?$AAi?$AAd?$AA?5?$AA?$DN?$AA?$DN?$AA?5?$AAc?$AAu?$AAr?$AA_?$AAt?$AAh?$AAr?$AAe?$AAa?$AAd?$AA_@
  0008b	41 b8 c4 01 00
	00		 mov	 r8d, 452		; 000001c4H
  00091	ff 15 00 00 00
	00		 call	 QWORD PTR __imp__wassert
$LN8@PyEval_Sav:

; 453  :         assert(pstate->is_parallel_thread == 1);

  00097	83 bb a8 00 00
	00 01		 cmp	 DWORD PTR [rbx+168], 1
  0009e	74 1a		 je	 SHORT $LN9@PyEval_Sav
  000a0	48 8d 15 00 00
	00 00		 lea	 rdx, OFFSET FLAT:??_C@_1CE@BLKIPNIC@?$AA?4?$AA?4?$AA?2?$AAP?$AAy?$AAt?$AAh?$AAo?$AAn?$AA?2?$AAc?$AAe?$AAv?$AAa?$AAl?$AA?4?$AAc?$AA?$AA@
  000a7	48 8d 0d 00 00
	00 00		 lea	 rcx, OFFSET FLAT:??_C@_1EA@JOGJDCFF@?$AAp?$AAs?$AAt?$AAa?$AAt?$AAe?$AA?9?$AA?$DO?$AAi?$AAs?$AA_?$AAp?$AAa?$AAr?$AAa?$AAl?$AAl?$AAe?$AAl?$AA_?$AAt?$AAh?$AAr?$AAe?$AAa?$AAd?$AA?5?$AA?$DN?$AA?$DN?$AA?5?$AA1?$AA?$AA@
  000ae	41 b8 c5 01 00
	00		 mov	 r8d, 453		; 000001c5H
  000b4	ff 15 00 00 00
	00		 call	 QWORD PTR __imp__wassert
$LN9@PyEval_Sav:

; 454  :         _PyParallel_BlockingCall();

  000ba	e8 00 00 00 00	 call	 _PyParallel_BlockingCall

; 465  : #endif
; 466  :     return tstate;

  000bf	48 8b c3	 mov	 rax, rbx

; 467  : }

  000c2	48 8b 5c 24 30	 mov	 rbx, QWORD PTR [rsp+48]
  000c7	48 8b 74 24 38	 mov	 rsi, QWORD PTR [rsp+56]
  000cc	48 83 c4 20	 add	 rsp, 32			; 00000020H
  000d0	5f		 pop	 rdi
  000d1	c3		 ret	 0
$LN3@PyEval_Sav:

; 455  :         return pstate;
; 456  :     }
; 457  :     assert(tstate->is_parallel_thread == 0);

  000d2	83 b8 a8 00 00
	00 00		 cmp	 DWORD PTR [rax+168], 0
  000d9	74 1a		 je	 SHORT $LN10@PyEval_Sav
  000db	48 8d 15 00 00
	00 00		 lea	 rdx, OFFSET FLAT:??_C@_1CE@BLKIPNIC@?$AA?4?$AA?4?$AA?2?$AAP?$AAy?$AAt?$AAh?$AAo?$AAn?$AA?2?$AAc?$AAe?$AAv?$AAa?$AAl?$AA?4?$AAc?$AA?$AA@
  000e2	48 8d 0d 00 00
	00 00		 lea	 rcx, OFFSET FLAT:??_C@_1EA@HHJCOJKH@?$AAt?$AAs?$AAt?$AAa?$AAt?$AAe?$AA?9?$AA?$DO?$AAi?$AAs?$AA_?$AAp?$AAa?$AAr?$AAa?$AAl?$AAl?$AAe?$AAl?$AA_?$AAt?$AAh?$AAr?$AAe?$AAa?$AAd?$AA?5?$AA?$DN?$AA?$DN?$AA?5?$AA0?$AA?$AA@
  000e9	41 b8 c9 01 00
	00		 mov	 r8d, 457		; 000001c9H
  000ef	ff 15 00 00 00
	00		 call	 QWORD PTR __imp__wassert
$LN10@PyEval_Sav:

; 458  : #endif
; 459  :     tstate = PyThreadState_Swap(NULL);

  000f5	33 c9		 xor	 ecx, ecx
  000f7	e8 00 00 00 00	 call	 PyThreadState_Swap
  000fc	48 8b d8	 mov	 rbx, rax

; 460  :     if (tstate == NULL)

  000ff	48 85 c0	 test	 rax, rax
  00102	75 0c		 jne	 SHORT $LN2@PyEval_Sav

; 461  :         Py_FatalError("PyEval_SaveThread: NULL tstate");

  00104	48 8d 0d 00 00
	00 00		 lea	 rcx, OFFSET FLAT:??_C@_0BP@LBIOHLHB@PyEval_SaveThread?3?5NULL?5tstate?$AA@
  0010b	e8 00 00 00 00	 call	 Py_FatalError
$LN2@PyEval_Sav:

; 462  : #ifdef WITH_THREAD
; 463  :     if (gil_created())

  00110	e8 00 00 00 00	 call	 gil_created
  00115	85 c0		 test	 eax, eax
  00117	74 08		 je	 SHORT $LN1@PyEval_Sav

; 464  :         drop_gil(tstate);

  00119	48 8b cb	 mov	 rcx, rbx
  0011c	e8 00 00 00 00	 call	 drop_gil
$LN1@PyEval_Sav:

; 467  : }

  00121	48 8b 74 24 38	 mov	 rsi, QWORD PTR [rsp+56]
  00126	48 8b c3	 mov	 rax, rbx
  00129	48 8b 5c 24 30	 mov	 rbx, QWORD PTR [rsp+48]
  0012e	48 83 c4 20	 add	 rsp, 32			; 00000020H
  00132	5f		 pop	 rdi
  00133	c3		 ret	 0
PyEval_SaveThread ENDP
_TEXT	ENDS
PUBLIC	??_C@_13COJANIEC@?$AA0?$AA?$AA@			; `string'
PUBLIC	??_C@_0CC@FHDJCMNN@PyEval_RestoreThread?3?5NULL?5tstat@ ; `string'
PUBLIC	PyEval_RestoreThread
EXTRN	PyThread_exit_thread:PROC
EXTRN	_Py_Finalizing:QWORD
;	COMDAT pdata
pdata	SEGMENT
$pdata$PyEval_RestoreThread DD imagerel $LN8
	DD	imagerel $LN8+44
	DD	imagerel $unwind$PyEval_RestoreThread
pdata	ENDS
;	COMDAT pdata
pdata	SEGMENT
$pdata$0$PyEval_RestoreThread DD imagerel $LN8+44
	DD	imagerel $LN8+134
	DD	imagerel $chain$0$PyEval_RestoreThread
pdata	ENDS
;	COMDAT pdata
pdata	SEGMENT
$pdata$1$PyEval_RestoreThread DD imagerel $LN8+134
	DD	imagerel $LN8+148
	DD	imagerel $chain$1$PyEval_RestoreThread
pdata	ENDS
;	COMDAT xdata
xdata	SEGMENT
$chain$1$PyEval_RestoreThread DD 021H
	DD	imagerel $LN8
	DD	imagerel $LN8+44
	DD	imagerel $unwind$PyEval_RestoreThread
xdata	ENDS
;	COMDAT xdata
xdata	SEGMENT
$chain$0$PyEval_RestoreThread DD 020521H
	DD	067405H
	DD	imagerel $LN8
	DD	imagerel $LN8+44
	DD	imagerel $unwind$PyEval_RestoreThread
xdata	ENDS
;	COMDAT xdata
xdata	SEGMENT
$unwind$PyEval_RestoreThread DD 020601H
	DD	030023206H
xdata	ENDS
;	COMDAT ??_C@_13COJANIEC@?$AA0?$AA?$AA@
CONST	SEGMENT
??_C@_13COJANIEC@?$AA0?$AA?$AA@ DB '0', 00H, 00H, 00H	; `string'
CONST	ENDS
;	COMDAT ??_C@_0CC@FHDJCMNN@PyEval_RestoreThread?3?5NULL?5tstat@
CONST	SEGMENT
??_C@_0CC@FHDJCMNN@PyEval_RestoreThread?3?5NULL?5tstat@ DB 'PyEval_Restor'
	DB	'eThread: NULL tstate', 00H			; `string'
; Function compile flags: /Ogtp
CONST	ENDS
;	COMDAT PyEval_RestoreThread
_TEXT	SEGMENT
tstate$ = 48
PyEval_RestoreThread PROC				; COMDAT

; 471  : {

$LN8:
  00000	40 53		 push	 rbx
  00002	48 83 ec 20	 sub	 rsp, 32			; 00000020H
  00006	48 8b d9	 mov	 rbx, rcx

; 472  :     if (tstate == NULL)

  00009	48 85 c9	 test	 rcx, rcx
  0000c	75 0c		 jne	 SHORT $LN4@PyEval_Res

; 473  :         Py_FatalError("PyEval_RestoreThread: NULL tstate");

  0000e	48 8d 0d 00 00
	00 00		 lea	 rcx, OFFSET FLAT:??_C@_0CC@FHDJCMNN@PyEval_RestoreThread?3?5NULL?5tstat@
  00015	e8 00 00 00 00	 call	 Py_FatalError
$LN4@PyEval_Res:

; 474  : #ifdef WITH_PARALLEL
; 475  :     /* Ensure this is a no-op when called from a parallel context thread. */
; 476  :     if (tstate->is_parallel_thread == 1)

  0001a	83 bb a8 00 00
	00 01		 cmp	 DWORD PTR [rbx+168], 1
  00021	74 6b		 je	 SHORT $LN5@PyEval_Res

; 477  :         return;
; 478  : #endif
; 479  : #ifdef WITH_THREAD
; 480  :     if (gil_created()) {

  00023	e8 00 00 00 00	 call	 gil_created
  00028	85 c0		 test	 eax, eax
  0002a	74 5a		 je	 SHORT $LN2@PyEval_Res

; 481  :         int err = errno;

  0002c	48 89 7c 24 30	 mov	 QWORD PTR [rsp+48], rdi
  00031	ff 15 00 00 00
	00		 call	 QWORD PTR __imp__errno

; 482  :         take_gil(tstate);

  00037	48 8b cb	 mov	 rcx, rbx
  0003a	8b 38		 mov	 edi, DWORD PTR [rax]
  0003c	e8 00 00 00 00	 call	 take_gil

; 483  :         /* _Py_Finalizing is protected by the GIL */
; 484  :         if (_Py_Finalizing && tstate != _Py_Finalizing) {

  00041	4c 8b 1d 00 00
	00 00		 mov	 r11, QWORD PTR _Py_Finalizing
  00048	4d 85 db	 test	 r11, r11
  0004b	74 2c		 je	 SHORT $LN7@PyEval_Res
  0004d	49 3b db	 cmp	 rbx, r11
  00050	74 27		 je	 SHORT $LN7@PyEval_Res

; 485  :             drop_gil(tstate);

  00052	48 8b cb	 mov	 rcx, rbx
  00055	e8 00 00 00 00	 call	 drop_gil

; 486  :             PyThread_exit_thread();

  0005a	e8 00 00 00 00	 call	 PyThread_exit_thread

; 487  :             assert(0);  /* unreachable */

  0005f	48 8d 15 00 00
	00 00		 lea	 rdx, OFFSET FLAT:??_C@_1CE@BLKIPNIC@?$AA?4?$AA?4?$AA?2?$AAP?$AAy?$AAt?$AAh?$AAo?$AAn?$AA?2?$AAc?$AAe?$AAv?$AAa?$AAl?$AA?4?$AAc?$AA?$AA@
  00066	48 8d 0d 00 00
	00 00		 lea	 rcx, OFFSET FLAT:??_C@_13COJANIEC@?$AA0?$AA?$AA@
  0006d	41 b8 e7 01 00
	00		 mov	 r8d, 487		; 000001e7H
  00073	ff 15 00 00 00
	00		 call	 QWORD PTR __imp__wassert
$LN7@PyEval_Res:

; 488  :         }
; 489  :         errno = err;

  00079	ff 15 00 00 00
	00		 call	 QWORD PTR __imp__errno
  0007f	89 38		 mov	 DWORD PTR [rax], edi
  00081	48 8b 7c 24 30	 mov	 rdi, QWORD PTR [rsp+48]
$LN2@PyEval_Res:

; 490  :     }
; 491  : #endif
; 492  :     PyThreadState_Swap(tstate);

  00086	48 8b cb	 mov	 rcx, rbx
  00089	e8 00 00 00 00	 call	 PyThreadState_Swap
$LN5@PyEval_Res:

; 493  : }

  0008e	48 83 c4 20	 add	 rsp, 32			; 00000020H
  00092	5b		 pop	 rbx
  00093	c3		 ret	 0
PyEval_RestoreThread ENDP
_TEXT	ENDS
PUBLIC	Py_AddPendingCall
EXTRN	PyThread_release_lock:PROC
EXTRN	PyThread_acquire_lock:PROC
_BSS	SEGMENT
pendingcalls DB	0200H DUP (?)
_BSS	ENDS
;	COMDAT pdata
pdata	SEGMENT
$pdata$Py_AddPendingCall DD imagerel $LN19
	DD	imagerel $LN19+41
	DD	imagerel $unwind$Py_AddPendingCall
pdata	ENDS
;	COMDAT pdata
pdata	SEGMENT
$pdata$0$Py_AddPendingCall DD imagerel $LN19+41
	DD	imagerel $LN19+79
	DD	imagerel $chain$0$Py_AddPendingCall
pdata	ENDS
;	COMDAT pdata
pdata	SEGMENT
$pdata$1$Py_AddPendingCall DD imagerel $LN19+79
	DD	imagerel $LN19+206
	DD	imagerel $chain$1$Py_AddPendingCall
pdata	ENDS
;	COMDAT xdata
xdata	SEGMENT
$chain$1$Py_AddPendingCall DD 021H
	DD	imagerel $LN19
	DD	imagerel $LN19+41
	DD	imagerel $unwind$Py_AddPendingCall
xdata	ENDS
;	COMDAT xdata
xdata	SEGMENT
$chain$0$Py_AddPendingCall DD 020521H
	DD	063405H
	DD	imagerel $LN19
	DD	imagerel $LN19+41
	DD	imagerel $unwind$Py_AddPendingCall
xdata	ENDS
;	COMDAT xdata
xdata	SEGMENT
$unwind$Py_AddPendingCall DD 081501H
	DD	097415H
	DD	086415H
	DD	075415H
	DD	0c0113215H
; Function compile flags: /Ogtp
xdata	ENDS
;	COMDAT Py_AddPendingCall
_TEXT	SEGMENT
func$ = 48
arg$ = 56
Py_AddPendingCall PROC					; COMDAT

; 537  : {

$LN19:
  00000	48 89 6c 24 10	 mov	 QWORD PTR [rsp+16], rbp
  00005	48 89 74 24 18	 mov	 QWORD PTR [rsp+24], rsi
  0000a	48 89 7c 24 20	 mov	 QWORD PTR [rsp+32], rdi
  0000f	41 54		 push	 r12
  00011	48 83 ec 20	 sub	 rsp, 32			; 00000020H

; 538  :     int i, j, result=0;
; 539  :     PyThread_type_lock lock = pending_lock;

  00015	48 8b 35 00 00
	00 00		 mov	 rsi, QWORD PTR pending_lock
  0001c	33 ff		 xor	 edi, edi
  0001e	48 8b ea	 mov	 rbp, rdx
  00021	4c 8b e1	 mov	 r12, rcx

; 540  : 
; 541  :     /* try a few times for the lock.  Since this mechanism is used
; 542  :      * for signal handling (on the main thread), there is a (slim)
; 543  :      * chance that a signal is delivered on the same thread while we
; 544  :      * hold the lock during the Py_MakePendingCalls() function.
; 545  :      * This avoids a deadlock in that case.
; 546  :      * Note that signals can be delivered on any thread.  In particular,
; 547  :      * on Windows, a SIGINT is delivered on a system-created worker
; 548  :      * thread.
; 549  :      * We also check for lock being NULL, in the unlikely case that
; 550  :      * this function is called before any bytecode evaluation takes place.
; 551  :      */
; 552  :     if (lock != NULL) {

  00024	48 85 f6	 test	 rsi, rsi
  00027	74 2b		 je	 SHORT $LN7@Py_AddPend

; 553  :         for (i = 0; i<100; i++) {

  00029	48 89 5c 24 30	 mov	 QWORD PTR [rsp+48], rbx
  0002e	8b df		 mov	 ebx, edi
$LL11@Py_AddPend:

; 554  :             if (PyThread_acquire_lock(lock, NOWAIT_LOCK))

  00030	33 d2		 xor	 edx, edx
  00032	48 8b ce	 mov	 rcx, rsi
  00035	e8 00 00 00 00	 call	 PyThread_acquire_lock
  0003a	85 c0		 test	 eax, eax
  0003c	75 07		 jne	 SHORT $LN16@Py_AddPend

; 553  :         for (i = 0; i<100; i++) {

  0003e	ff c3		 inc	 ebx
  00040	83 fb 64	 cmp	 ebx, 100		; 00000064H
  00043	7c eb		 jl	 SHORT $LL11@Py_AddPend
$LN16@Py_AddPend:

; 555  :                 break;
; 556  :         }
; 557  :         if (i == 100)

  00045	83 fb 64	 cmp	 ebx, 100		; 00000064H
  00048	48 8b 5c 24 30	 mov	 rbx, QWORD PTR [rsp+48]
  0004d	75 05		 jne	 SHORT $LN7@Py_AddPend

; 558  :             return -1;

  0004f	83 c8 ff	 or	 eax, -1
  00052	eb 64		 jmp	 SHORT $LN13@Py_AddPend
$LN7@Py_AddPend:

; 559  :     }
; 560  : 
; 561  :     i = pendinglast;
; 562  :     j = (i + 1) % NPENDINGCALLS;

  00054	48 63 0d 00 00
	00 00		 movsxd	 rcx, DWORD PTR pendinglast
  0005b	8d 41 01	 lea	 eax, DWORD PTR [rcx+1]
  0005e	25 1f 00 00 80	 and	 eax, -2147483617	; ffffffff8000001fH
  00063	7d 07		 jge	 SHORT $LN18@Py_AddPend
  00065	ff c8		 dec	 eax
  00067	83 c8 e0	 or	 eax, -32		; ffffffffffffffe0H
  0006a	ff c0		 inc	 eax
$LN18@Py_AddPend:

; 563  :     if (j == pendingfirst) {

  0006c	3b 05 00 00 00
	00		 cmp	 eax, DWORD PTR pendingfirst
  00072	75 05		 jne	 SHORT $LN6@Py_AddPend

; 564  :         result = -1; /* Queue full */

  00074	83 cf ff	 or	 edi, -1

; 565  :     } else {

  00077	eb 1c		 jmp	 SHORT $LN4@Py_AddPend
$LN6@Py_AddPend:

; 566  :         pendingcalls[i].func = func;

  00079	48 8b d1	 mov	 rdx, rcx
  0007c	48 8d 0d 00 00
	00 00		 lea	 rcx, OFFSET FLAT:pendingcalls

; 567  :         pendingcalls[i].arg = arg;
; 568  :         pendinglast = j;

  00083	89 05 00 00 00
	00		 mov	 DWORD PTR pendinglast, eax
  00089	48 03 d2	 add	 rdx, rdx
  0008c	4c 89 24 d1	 mov	 QWORD PTR [rcx+rdx*8], r12
  00090	48 89 6c d1 08	 mov	 QWORD PTR [rcx+rdx*8+8], rbp
$LN4@Py_AddPend:

; 569  :     }
; 570  :     /* signal main loop */
; 571  :     SIGNAL_PENDING_CALLS();

  00095	c7 05 00 00 00
	00 01 00 00 00	 mov	 DWORD PTR pendingcalls_to_do, 1
  0009f	c7 05 00 00 00
	00 01 00 00 00	 mov	 DWORD PTR eval_breaker, 1

; 572  :     if (lock != NULL)

  000a9	48 85 f6	 test	 rsi, rsi
  000ac	74 08		 je	 SHORT $LN1@Py_AddPend

; 573  :         PyThread_release_lock(lock);

  000ae	48 8b ce	 mov	 rcx, rsi
  000b1	e8 00 00 00 00	 call	 PyThread_release_lock
$LN1@Py_AddPend:

; 574  :     return result;

  000b6	8b c7		 mov	 eax, edi
$LN13@Py_AddPend:

; 575  : }

  000b8	48 8b 6c 24 38	 mov	 rbp, QWORD PTR [rsp+56]
  000bd	48 8b 74 24 40	 mov	 rsi, QWORD PTR [rsp+64]
  000c2	48 8b 7c 24 48	 mov	 rdi, QWORD PTR [rsp+72]
  000c7	48 83 c4 20	 add	 rsp, 32			; 00000020H
  000cb	41 5c		 pop	 r12
  000cd	c3		 ret	 0
Py_AddPendingCall ENDP
_TEXT	ENDS
PUBLIC	Py_MakePendingCalls
;	COMDAT pdata
pdata	SEGMENT
$pdata$Py_MakePendingCalls DD imagerel $LN32
	DD	imagerel $LN32+364
	DD	imagerel $unwind$Py_MakePendingCalls
pdata	ENDS
;	COMDAT xdata
xdata	SEGMENT
$unwind$Py_MakePendingCalls DD 0b7801H
	DD	04d478H
	DD	0a7473H
	DD	09546eH
	DD	083469H
	DD	0c0044208H
	DD	06002H
; Function compile flags: /Ogtp
xdata	ENDS
;	COMDAT Py_MakePendingCalls
_TEXT	SEGMENT
Py_MakePendingCalls PROC				; COMDAT

; 579  : {

$LN32:
  00000	40 56		 push	 rsi
  00002	41 54		 push	 r12
  00004	48 83 ec 28	 sub	 rsp, 40			; 00000028H

; 580  :     static int busy = 0;
; 581  :     int i;
; 582  :     int r = 0;
; 583  : 
; 584  :     if (!pending_lock) {

  00008	48 8b 05 00 00
	00 00		 mov	 rax, QWORD PTR pending_lock
  0000f	45 33 e4	 xor	 r12d, r12d
  00012	41 8b f4	 mov	 esi, r12d
  00015	48 85 c0	 test	 rax, rax
  00018	75 1c		 jne	 SHORT $LN18@Py_MakePen

; 585  :         /* initial allocation of the lock */
; 586  :         pending_lock = PyThread_allocate_lock();

  0001a	e8 00 00 00 00	 call	 PyThread_allocate_lock
  0001f	48 89 05 00 00
	00 00		 mov	 QWORD PTR pending_lock, rax

; 587  :         if (pending_lock == NULL)

  00026	48 85 c0	 test	 rax, rax
  00029	75 0b		 jne	 SHORT $LN18@Py_MakePen

; 588  :             return -1;

  0002b	83 c8 ff	 or	 eax, -1

; 628  : }

  0002e	48 83 c4 28	 add	 rsp, 40			; 00000028H
  00032	41 5c		 pop	 r12
  00034	5e		 pop	 rsi
  00035	c3		 ret	 0
$LN18@Py_MakePen:

; 589  :     }
; 590  : 
; 591  :     /* only service pending calls on main thread */
; 592  :     if (main_thread && PyThread_get_thread_ident() != main_thread)

  00036	39 35 00 00 00
	00		 cmp	 DWORD PTR main_thread, esi
  0003c	74 1e		 je	 SHORT $LN17@Py_MakePen
  0003e	e8 00 00 00 00	 call	 PyThread_get_thread_ident
  00043	3b 05 00 00 00
	00		 cmp	 eax, DWORD PTR main_thread
  00049	74 0a		 je	 SHORT $LN27@Py_MakePen
$LN31@Py_MakePen:

; 593  :         return 0;

  0004b	33 c0		 xor	 eax, eax

; 628  : }

  0004d	48 83 c4 28	 add	 rsp, 40			; 00000028H
  00051	41 5c		 pop	 r12
  00053	5e		 pop	 rsi
  00054	c3		 ret	 0
$LN27@Py_MakePen:

; 593  :         return 0;

  00055	48 8b 05 00 00
	00 00		 mov	 rax, QWORD PTR pending_lock
$LN17@Py_MakePen:

; 594  :     /* don't perform recursive pending calls */
; 595  :     if (busy)

  0005c	39 35 00 00 00
	00		 cmp	 DWORD PTR ?busy@?1??Py_MakePendingCalls@@9@9, esi

; 596  :         return 0;

  00062	75 e7		 jne	 SHORT $LN31@Py_MakePen

; 597  :     busy = 1;

  00064	48 89 5c 24 40	 mov	 QWORD PTR [rsp+64], rbx
  00069	48 89 6c 24 48	 mov	 QWORD PTR [rsp+72], rbp
  0006e	48 89 7c 24 50	 mov	 QWORD PTR [rsp+80], rdi
  00073	4c 89 6c 24 20	 mov	 QWORD PTR [rsp+32], r13
  00078	c7 05 00 00 00
	00 01 00 00 00	 mov	 DWORD PTR ?busy@?1??Py_MakePendingCalls@@9@9, 1

; 598  :     /* perform a bounded number of calls, in case of recursion */
; 599  :     for (i=0; i<NPENDINGCALLS; i++) {

  00082	41 8b dc	 mov	 ebx, r12d
  00085	4c 8d 2d 00 00
	00 00		 lea	 r13, OFFSET FLAT:pendingcalls
  0008c	0f 1f 40 00	 npad	 4
$LL15@Py_MakePen:

; 600  :         int j;
; 601  :         int (*func)(void *);
; 602  :         void *arg = NULL;
; 603  : 
; 604  :         /* pop one item off the queue while holding the lock */
; 605  :         PyThread_acquire_lock(pending_lock, WAIT_LOCK);

  00090	ba 01 00 00 00	 mov	 edx, 1
  00095	48 8b c8	 mov	 rcx, rax
  00098	49 8b ec	 mov	 rbp, r12
  0009b	e8 00 00 00 00	 call	 PyThread_acquire_lock

; 606  :         j = pendingfirst;
; 607  :         if (j == pendinglast) {

  000a0	4c 63 1d 00 00
	00 00		 movsxd	 r11, DWORD PTR pendingfirst
  000a7	8b 0d 00 00 00
	00		 mov	 ecx, DWORD PTR pendinglast
  000ad	44 3b d9	 cmp	 r11d, ecx
  000b0	75 05		 jne	 SHORT $LN12@Py_MakePen

; 608  :             func = NULL; /* Queue empty */

  000b2	49 8b fc	 mov	 rdi, r12

; 609  :         } else {

  000b5	eb 2d		 jmp	 SHORT $LN11@Py_MakePen
$LN12@Py_MakePen:

; 610  :             func = pendingcalls[j].func;

  000b7	49 8b c3	 mov	 rax, r11
  000ba	48 03 c0	 add	 rax, rax

; 611  :             arg = pendingcalls[j].arg;
; 612  :             pendingfirst = (j + 1) % NPENDINGCALLS;

  000bd	41 ff c3	 inc	 r11d
  000c0	41 81 e3 1f 00
	00 80		 and	 r11d, -2147483617	; ffffffff8000001fH
  000c7	49 8b 7c c5 00	 mov	 rdi, QWORD PTR [r13+rax*8]
  000cc	49 8b 6c c5 08	 mov	 rbp, QWORD PTR [r13+rax*8+8]
  000d1	7d 0a		 jge	 SHORT $LN26@Py_MakePen
  000d3	41 ff cb	 dec	 r11d
  000d6	41 83 cb e0	 or	 r11d, -32		; ffffffffffffffe0H
  000da	41 ff c3	 inc	 r11d
$LN26@Py_MakePen:
  000dd	44 89 1d 00 00
	00 00		 mov	 DWORD PTR pendingfirst, r11d
$LN11@Py_MakePen:

; 613  :         }
; 614  :         if (pendingfirst != pendinglast)

  000e4	44 3b d9	 cmp	 r11d, ecx
  000e7	74 16		 je	 SHORT $LN5@Py_MakePen

; 615  :             SIGNAL_PENDING_CALLS();

  000e9	c7 05 00 00 00
	00 01 00 00 00	 mov	 DWORD PTR pendingcalls_to_do, 1
  000f3	c7 05 00 00 00
	00 01 00 00 00	 mov	 DWORD PTR eval_breaker, 1

; 616  :         else

  000fd	eb 19		 jmp	 SHORT $LN3@Py_MakePen
$LN5@Py_MakePen:

; 617  :             UNSIGNAL_PENDING_CALLS();

  000ff	8b 05 00 00 00
	00		 mov	 eax, DWORD PTR pending_async_exc
  00105	44 89 25 00 00
	00 00		 mov	 DWORD PTR pendingcalls_to_do, r12d
  0010c	0b 05 00 00 00
	00		 or	 eax, DWORD PTR gil_drop_request
  00112	89 05 00 00 00
	00		 mov	 DWORD PTR eval_breaker, eax
$LN3@Py_MakePen:

; 618  :         PyThread_release_lock(pending_lock);

  00118	48 8b 0d 00 00
	00 00		 mov	 rcx, QWORD PTR pending_lock
  0011f	e8 00 00 00 00	 call	 PyThread_release_lock

; 619  :         /* having released the lock, perform the callback */
; 620  :         if (func == NULL)

  00124	48 85 ff	 test	 rdi, rdi
  00127	74 1e		 je	 SHORT $LN30@Py_MakePen

; 621  :             break;
; 622  :         r = func(arg);

  00129	48 8b cd	 mov	 rcx, rbp
  0012c	ff d7		 call	 rdi
  0012e	8b f0		 mov	 esi, eax

; 623  :         if (r)

  00130	85 c0		 test	 eax, eax
  00132	75 13		 jne	 SHORT $LN30@Py_MakePen

; 598  :     /* perform a bounded number of calls, in case of recursion */
; 599  :     for (i=0; i<NPENDINGCALLS; i++) {

  00134	ff c3		 inc	 ebx
  00136	83 fb 20	 cmp	 ebx, 32			; 00000020H
  00139	7d 0c		 jge	 SHORT $LN30@Py_MakePen
  0013b	48 8b 05 00 00
	00 00		 mov	 rax, QWORD PTR pending_lock
  00142	e9 49 ff ff ff	 jmp	 $LL15@Py_MakePen
$LN30@Py_MakePen:
  00147	4c 8b 6c 24 20	 mov	 r13, QWORD PTR [rsp+32]
  0014c	48 8b 7c 24 50	 mov	 rdi, QWORD PTR [rsp+80]
  00151	48 8b 6c 24 48	 mov	 rbp, QWORD PTR [rsp+72]
  00156	48 8b 5c 24 40	 mov	 rbx, QWORD PTR [rsp+64]

; 624  :             break;
; 625  :     }
; 626  :     busy = 0;

  0015b	44 89 25 00 00
	00 00		 mov	 DWORD PTR ?busy@?1??Py_MakePendingCalls@@9@9, r12d

; 627  :     return r;

  00162	8b c6		 mov	 eax, esi

; 628  : }

  00164	48 83 c4 28	 add	 rsp, 40			; 00000028H
  00168	41 5c		 pop	 r12
  0016a	5e		 pop	 rsi
  0016b	c3		 ret	 0
Py_MakePendingCalls ENDP
_TEXT	ENDS
PUBLIC	??_C@_0BF@GNEIIDJD@Py_GetRecursionLimit?$AA@	; `string'
PUBLIC	Py_GetRecursionLimit
;	COMDAT pdata
pdata	SEGMENT
$pdata$Py_GetRecursionLimit DD imagerel $LN5
	DD	imagerel $LN5+52
	DD	imagerel $unwind$Py_GetRecursionLimit
pdata	ENDS
;	COMDAT xdata
xdata	SEGMENT
$unwind$Py_GetRecursionLimit DD 010401H
	DD	04204H
xdata	ENDS
;	COMDAT ??_C@_0BF@GNEIIDJD@Py_GetRecursionLimit?$AA@
CONST	SEGMENT
??_C@_0BF@GNEIIDJD@Py_GetRecursionLimit?$AA@ DB 'Py_GetRecursionLimit', 00H ; `string'
; Function compile flags: /Ogtp
CONST	ENDS
;	COMDAT Py_GetRecursionLimit
_TEXT	SEGMENT
Py_GetRecursionLimit PROC				; COMDAT

; 731  : {

$LN5:
  00000	48 83 ec 28	 sub	 rsp, 40			; 00000028H

; 732  :     Py_GUARD

  00004	e8 00 00 00 00	 call	 _Py_PXCTX
  00009	85 c0		 test	 eax, eax
  0000b	74 1c		 je	 SHORT $LN4@Py_GetRecu
  0000d	48 8d 15 00 00
	00 00		 lea	 rdx, OFFSET FLAT:??_C@_0BC@CJJEGEEJ@?4?4?2Python?2ceval?4c?$AA@
  00014	48 8d 0d 00 00
	00 00		 lea	 rcx, OFFSET FLAT:??_C@_0BF@GNEIIDJD@Py_GetRecursionLimit?$AA@
  0001b	45 33 c9	 xor	 r9d, r9d
  0001e	41 b8 dc 02 00
	00		 mov	 r8d, 732		; 000002dcH
  00024	e8 00 00 00 00	 call	 _PyParallel_ContextGuardFailure
$LN4@Py_GetRecu:

; 733  :     return recursion_limit;

  00029	8b 05 00 00 00
	00		 mov	 eax, DWORD PTR recursion_limit

; 734  : }

  0002f	48 83 c4 28	 add	 rsp, 40			; 00000028H
  00033	c3		 ret	 0
Py_GetRecursionLimit ENDP
_TEXT	ENDS
PUBLIC	??_C@_0BF@EIEDAIIN@Py_SetRecursionLimit?$AA@	; `string'
PUBLIC	Py_SetRecursionLimit
;	COMDAT pdata
pdata	SEGMENT
$pdata$Py_SetRecursionLimit DD imagerel $LN5
	DD	imagerel $LN5+63
	DD	imagerel $unwind$Py_SetRecursionLimit
pdata	ENDS
;	COMDAT xdata
xdata	SEGMENT
$unwind$Py_SetRecursionLimit DD 020601H
	DD	030023206H
xdata	ENDS
;	COMDAT ??_C@_0BF@EIEDAIIN@Py_SetRecursionLimit?$AA@
CONST	SEGMENT
??_C@_0BF@EIEDAIIN@Py_SetRecursionLimit?$AA@ DB 'Py_SetRecursionLimit', 00H ; `string'
; Function compile flags: /Ogtp
CONST	ENDS
;	COMDAT Py_SetRecursionLimit
_TEXT	SEGMENT
new_limit$ = 48
Py_SetRecursionLimit PROC				; COMDAT

; 738  : {

$LN5:
  00000	40 53		 push	 rbx
  00002	48 83 ec 20	 sub	 rsp, 32			; 00000020H
  00006	8b d9		 mov	 ebx, ecx

; 739  :     Py_GUARD

  00008	e8 00 00 00 00	 call	 _Py_PXCTX
  0000d	85 c0		 test	 eax, eax
  0000f	74 1c		 je	 SHORT $LN4@Py_SetRecu
  00011	48 8d 15 00 00
	00 00		 lea	 rdx, OFFSET FLAT:??_C@_0BC@CJJEGEEJ@?4?4?2Python?2ceval?4c?$AA@
  00018	48 8d 0d 00 00
	00 00		 lea	 rcx, OFFSET FLAT:??_C@_0BF@EIEDAIIN@Py_SetRecursionLimit?$AA@
  0001f	45 33 c9	 xor	 r9d, r9d
  00022	41 b8 e3 02 00
	00		 mov	 r8d, 739		; 000002e3H
  00028	e8 00 00 00 00	 call	 _PyParallel_ContextGuardFailure
$LN4@Py_SetRecu:

; 741  :     _Py_CheckRecursionLimit = recursion_limit;

  0002d	89 1d 00 00 00
	00		 mov	 DWORD PTR _Py_CheckRecursionLimit, ebx

; 740  :     recursion_limit = new_limit;

  00033	89 1d 00 00 00
	00		 mov	 DWORD PTR recursion_limit, ebx

; 742  : }

  00039	48 83 c4 20	 add	 rsp, 32			; 00000020H
  0003d	5b		 pop	 rbx
  0003e	c3		 ret	 0
Py_SetRecursionLimit ENDP
_TEXT	ENDS
PUBLIC	??_C@_0CD@IHJCMPCG@maximum?5recursion?5depth?5exceeded@ ; `string'
PUBLIC	??_C@_0CE@GAIPFPA@Cannot?5recover?5from?5stack?5overfl@ ; `string'
PUBLIC	_Py_CheckRecursiveCall
EXTRN	PyErr_Format:PROC
EXTRN	PyExc_RuntimeError:QWORD
;	COMDAT pdata
pdata	SEGMENT
$pdata$_Py_CheckRecursiveCall DD imagerel $LN7
	DD	imagerel $LN7+123
	DD	imagerel $unwind$_Py_CheckRecursiveCall
pdata	ENDS
;	COMDAT xdata
xdata	SEGMENT
$unwind$_Py_CheckRecursiveCall DD 020601H
	DD	030023206H
xdata	ENDS
;	COMDAT ??_C@_0CD@IHJCMPCG@maximum?5recursion?5depth?5exceeded@
CONST	SEGMENT
??_C@_0CD@IHJCMPCG@maximum?5recursion?5depth?5exceeded@ DB 'maximum recur'
	DB	'sion depth exceeded%s', 00H			; `string'
CONST	ENDS
;	COMDAT ??_C@_0CE@GAIPFPA@Cannot?5recover?5from?5stack?5overfl@
CONST	SEGMENT
??_C@_0CE@GAIPFPA@Cannot?5recover?5from?5stack?5overfl@ DB 'Cannot recove'
	DB	'r from stack overflow.', 00H		; `string'
; Function compile flags: /Ogtp
CONST	ENDS
;	COMDAT _Py_CheckRecursiveCall
_TEXT	SEGMENT
where$ = 48
_Py_CheckRecursiveCall PROC				; COMDAT

; 751  : {

$LN7:
  00000	40 53		 push	 rbx
  00002	48 83 ec 20	 sub	 rsp, 32			; 00000020H
  00006	48 8b d9	 mov	 rbx, rcx

; 752  :     PyThreadState *tstate = PyThreadState_GET();

  00009	e8 00 00 00 00	 call	 PyThreadState_Get
  0000e	4c 8b d8	 mov	 r11, rax

; 753  : 
; 754  : #ifdef USE_STACKCHECK
; 755  :     if (PyOS_CheckStack()) {
; 756  :         --tstate->recursion_depth;
; 757  :         PyErr_SetString(PyExc_MemoryError, "Stack overflow");
; 758  :         return -1;
; 759  :     }
; 760  : #endif
; 761  :     _Py_CheckRecursionLimit = recursion_limit;

  00011	8b 05 00 00 00
	00		 mov	 eax, DWORD PTR recursion_limit
  00017	89 05 00 00 00
	00		 mov	 DWORD PTR _Py_CheckRecursionLimit, eax

; 762  :     if (tstate->recursion_critical)

  0001d	41 80 7b 1d 00	 cmp	 BYTE PTR [r11+29], 0

; 763  :         /* Somebody asked that we don't check for recursion. */
; 764  :         return 0;

  00022	75 1c		 jne	 SHORT $LN1@Py_CheckRe

; 765  :     if (tstate->overflowed) {

  00024	41 80 7b 1c 00	 cmp	 BYTE PTR [r11+28], 0
  00029	74 1d		 je	 SHORT $LN3@Py_CheckRe

; 766  :         if (tstate->recursion_depth > recursion_limit + 50) {

  0002b	83 c0 32	 add	 eax, 50			; 00000032H
  0002e	41 39 43 18	 cmp	 DWORD PTR [r11+24], eax
  00032	7e 0c		 jle	 SHORT $LN1@Py_CheckRe

; 767  :             /* Overflowing while handling an overflow. Give up. */
; 768  :             Py_FatalError("Cannot recover from stack overflow.");

  00034	48 8d 0d 00 00
	00 00		 lea	 rcx, OFFSET FLAT:??_C@_0CE@GAIPFPA@Cannot?5recover?5from?5stack?5overfl@
  0003b	e8 00 00 00 00	 call	 Py_FatalError
$LN1@Py_CheckRe:

; 779  :     }
; 780  :     return 0;

  00040	33 c0		 xor	 eax, eax

; 781  : }

  00042	48 83 c4 20	 add	 rsp, 32			; 00000020H
  00046	5b		 pop	 rbx
  00047	c3		 ret	 0
$LN3@Py_CheckRe:

; 769  :         }
; 770  :         return 0;
; 771  :     }
; 772  :     if (tstate->recursion_depth > recursion_limit) {

  00048	41 8b 4b 18	 mov	 ecx, DWORD PTR [r11+24]
  0004c	3b c8		 cmp	 ecx, eax
  0004e	7e f0		 jle	 SHORT $LN1@Py_CheckRe

; 773  :         --tstate->recursion_depth;

  00050	8d 41 ff	 lea	 eax, DWORD PTR [rcx-1]

; 774  :         tstate->overflowed = 1;

  00053	41 c6 43 1c 01	 mov	 BYTE PTR [r11+28], 1

; 775  :         PyErr_Format(PyExc_RuntimeError,
; 776  :                      "maximum recursion depth exceeded%s",
; 777  :                      where);

  00058	48 8d 15 00 00
	00 00		 lea	 rdx, OFFSET FLAT:??_C@_0CD@IHJCMPCG@maximum?5recursion?5depth?5exceeded@
  0005f	41 89 43 18	 mov	 DWORD PTR [r11+24], eax
  00063	48 8b 0d 00 00
	00 00		 mov	 rcx, QWORD PTR PyExc_RuntimeError
  0006a	4c 8b c3	 mov	 r8, rbx
  0006d	e8 00 00 00 00	 call	 PyErr_Format

; 778  :         return -1;

  00072	83 c8 ff	 or	 eax, -1

; 781  : }

  00075	48 83 c4 20	 add	 rsp, 32			; 00000020H
  00079	5b		 pop	 rbx
  0007a	c3		 ret	 0
_Py_CheckRecursiveCall ENDP
_TEXT	ENDS
PUBLIC	PyEval_EvalCodeEx
PUBLIC	PyEval_EvalCode
;	COMDAT pdata
pdata	SEGMENT
$pdata$PyEval_EvalCode DD imagerel $LN3
	DD	imagerel $LN3+51
	DD	imagerel $unwind$PyEval_EvalCode
pdata	ENDS
;	COMDAT xdata
xdata	SEGMENT
$unwind$PyEval_EvalCode DD 010401H
	DD	0c204H
; Function compile flags: /Ogtp
xdata	ENDS
;	COMDAT PyEval_EvalCode
_TEXT	SEGMENT
co$ = 112
globals$ = 120
locals$ = 128
PyEval_EvalCode PROC					; COMDAT

; 812  : {

$LN3:
  00000	48 83 ec 68	 sub	 rsp, 104		; 00000068H

; 813  :     return PyEval_EvalCodeEx(co,
; 814  :                       globals, locals,
; 815  :                       (PyObject **)NULL, 0,
; 816  :                       (PyObject **)NULL, 0,
; 817  :                       (PyObject **)NULL, 0,
; 818  :                       NULL, NULL);

  00004	33 c0		 xor	 eax, eax
  00006	45 33 c9	 xor	 r9d, r9d
  00009	48 89 44 24 50	 mov	 QWORD PTR [rsp+80], rax
  0000e	48 89 44 24 48	 mov	 QWORD PTR [rsp+72], rax
  00013	89 44 24 40	 mov	 DWORD PTR [rsp+64], eax
  00017	48 89 44 24 38	 mov	 QWORD PTR [rsp+56], rax
  0001c	89 44 24 30	 mov	 DWORD PTR [rsp+48], eax
  00020	48 89 44 24 28	 mov	 QWORD PTR [rsp+40], rax
  00025	89 44 24 20	 mov	 DWORD PTR [rsp+32], eax
  00029	e8 00 00 00 00	 call	 PyEval_EvalCodeEx

; 819  : }

  0002e	48 83 c4 68	 add	 rsp, 104		; 00000068H
  00032	c3		 ret	 0
PyEval_EvalCode ENDP
_TEXT	ENDS
PUBLIC	PyEval_EvalFrameEx
PUBLIC	PyEval_EvalFrame
; Function compile flags: /Ogtp
;	COMDAT PyEval_EvalFrame
_TEXT	SEGMENT
f$ = 8
PyEval_EvalFrame PROC					; COMDAT

; 826  :     /* This is for backward compatibility with extension modules that
; 827  :        used this API; core interpreter code should call
; 828  :        PyEval_EvalFrameEx() */
; 829  :     return PyEval_EvalFrameEx(f, 0);

  00000	33 d2		 xor	 edx, edx

; 830  : }

  00002	e9 00 00 00 00	 jmp	 PyEval_EvalFrameEx
PyEval_EvalFrame ENDP
_TEXT	ENDS
PUBLIC	??_C@_0BD@INLLMHPI@PyEval_EvalFrameEx?$AA@	; `string'
PUBLIC	??_C@_0P@FENJHLBJ@unknown?5opcode?$AA@		; `string'
PUBLIC	??_C@_0BM@FPIMIFGH@XXX?5lineno?3?5?$CFd?0?5opcode?3?5?$CFd?6?$AA@ ; `string'
PUBLIC	??_C@_0CL@HKNINBON@Stack?5unwind?5with?5exception?5set?5@ ; `string'
PUBLIC	??_C@_1DK@INACIJOP@?$AAn?$AAu?$AAm?$AA_?$AAa?$AAn?$AAn?$AAo?$AAt?$AAa?$AAt?$AAi?$AAo?$AAn?$AAs?$AA?5?$AA?$DN?$AA?$DN?$AA?5?$AAn?$AAa?$AAm?$AAe?$AA_?$AAi?$AAx?$AA?$CL?$AA1?$AA?$AA@ ; `string'
PUBLIC	??_C@_0BN@BEHPHFBL@?8finally?8?5pops?5bad?5exception?$AA@ ; `string'
PUBLIC	??_C@_1DI@OCKJHPNN@?$AAb?$AA?9?$AA?$DO?$AAb?$AA_?$AAt?$AAy?$AAp?$AAe?$AA?5?$AA?$DN?$AA?$DN?$AA?5?$AAE?$AAX?$AAC?$AAE?$AAP?$AAT?$AA_?$AAH?$AAA?$AAN?$AAD?$AAL?$AAE?$AAR?$AA?$AA@ ; `string'
PUBLIC	??_C@_1CC@MGKPFLIA@?$AAw?$AAh?$AAy?$AA?5?$AA?$CB?$AA?$DN?$AA?5?$AAW?$AAH?$AAY?$AA_?$AAY?$AAI?$AAE?$AAL?$AAD?$AA?$AA@ ; `string'
PUBLIC	??_C@_1EA@DJBOEJIH@?$AAb?$AAl?$AAo?$AAc?$AAk?$AA?9?$AA?$DO?$AAb?$AA_?$AAt?$AAy?$AAp?$AAe?$AA?5?$AA?$DN?$AA?$DN?$AA?5?$AAE?$AAX?$AAC?$AAE?$AAP?$AAT?$AA_?$AAH?$AAA?$AAN?$AAD?$AAL?$AAE?$AAR?$AA?$AA@ ; `string'
PUBLIC	??_C@_0CC@NAHFDGJN@no?5locals?5found?5during?5?8import?5?$CK@ ; `string'
PUBLIC	??_C@_0BF@FMMPICPA@__import__?5not?5found?$AA@	; `string'
PUBLIC	??_C@_0CN@GGOGIMDP@import?5not?5permitted?5within?5para@ ; `string'
PUBLIC	??_C@_1CK@CFBAFFEI@?$AAP?$AAy?$AAD?$AAi?$AAc?$AAt?$AA_?$AAC?$AAh?$AAe?$AAc?$AAk?$AAE?$AAx?$AAa?$AAc?$AAt?$AA?$CI?$AAv?$AA?$CJ?$AA?$AA@ ; `string'
PUBLIC	??_C@_0BK@BEKKDKAN@no?5locals?5when?5loading?5?$CFR?$AA@ ; `string'
PUBLIC	??_C@_0CE@NDGHHJP@global?5name?5?8?$CF?4200s?8?5is?5not?5defi@ ; `string'
PUBLIC	??_C@_0BL@HJKLBJNK@no?5locals?5when?5deleting?5?$CFR?$AA@ ; `string'
PUBLIC	??_C@_0BN@DBLGJMNF@name?5?8?$CF?4200s?8?5is?5not?5defined?$AA@ ; `string'
PUBLIC	??_C@_0CA@PHPKHPGD@no?5locals?5found?5when?5storing?5?$CFR?$AA@ ; `string'
PUBLIC	??_C@_0BK@IAGNFEAN@__build_class__?5not?5found?$AA@ ; `string'
PUBLIC	??_C@_1EE@OJMEFFAL@?$AAS?$AAT?$AAA?$AAC?$AAK?$AA_?$AAL?$AAE?$AAV?$AAE?$AAL?$AA?$CI?$AA?$CJ?$AA?5?$AA?$DO?$AA?$DN?$AA?5?$AA?$CI?$AAb?$AA?$CJ?$AA?9?$AA?$DO?$AAb?$AA_?$AAl?$AAe?$AAv?$AAe?$AAl?$AA?5?$AA?$CL?$AA?5@ ; `string'
PUBLIC	??_C@_0CG@CDCIJBNO@popped?5block?5is?5not?5an?5except?5ha@ ; `string'
PUBLIC	??_C@_01MJMHLOMK@O?$AA@				; `string'
PUBLIC	??_C@_0BI@INLFGEHA@bad?5RAISE_VARARGS?5oparg?$AA@ ; `string'
PUBLIC	PyEval_CallObjectWithKeywords
PUBLIC	??_C@_0BF@LDJCNLPE@lost?5sys?4displayhook?$AA@	; `string'
PUBLIC	??_C@_0M@OABHHABA@displayhook?$AA@		; `string'
PUBLIC	??_C@_0CD@PEFHABHC@error?5return?5without?5exception?5s@ ; `string'
PUBLIC	??_C@_0BG@BGJGOEKO@XXX?5undetected?5error?6?$AA@ ; `string'
PUBLIC	??_C@_0DF@HKMDOJCI@local?5variable?5?8?$CF?4200s?8?5referenc@ ; `string'
PUBLIC	??_C@_08OGNHIHGF@stackadj?$AA@			; `string'
PUBLIC	??_C@_03NJDAHFJE@pop?$AA@			; `string'
PUBLIC	??_C@_04GHHNIPCF@push?$AA@			; `string'
PUBLIC	??_C@_07BCEPPLOH@?$CFd?3?5?$CFd?6?$AA@		; `string'
PUBLIC	??_C@_0M@EEIINKGH@?$CFd?3?5?$CFd?0?5?$CFd?6?$AA@ ; `string'
PUBLIC	??_C@_0BF@OIDPILMB@ceval?3?5orphan?5tstate?$AA@	; `string'
PUBLIC	??_C@_0BF@FFPEPKAJ@ceval?3?5tstate?5mix?9up?$AA@ ; `string'
PUBLIC	??_C@_1EE@JPIFCMJD@?$AAS?$AAT?$AAA?$AAC?$AAK?$AA_?$AAL?$AAE?$AAV?$AAE?$AAL?$AA?$CI?$AA?$CJ?$AA?5?$AA?$DM?$AA?$DN?$AA?5?$AAc?$AAo?$AA?9?$AA?$DO?$AAc?$AAo?$AA_?$AAs?$AAt?$AAa?$AAc?$AAk?$AAs?$AAi?$AAz@ ; `string'
PUBLIC	??_C@_1EC@PPDGCIBF@?$AAs?$AAt?$AAa?$AAc?$AAk?$AA_?$AAp?$AAo?$AAi?$AAn?$AAt?$AAe?$AAr?$AA?5?$AA?$DO?$AA?$DN?$AA?5?$AAf?$AA?9?$AA?$DO?$AAf?$AA_?$AAv?$AAa?$AAl?$AAu?$AAe?$AAs?$AAt?$AAa?$AAc?$AAk@ ; `string'
PUBLIC	??_C@_1CM@OHHBDEIG@?$AAs?$AAt?$AAa?$AAc?$AAk?$AA_?$AAp?$AAo?$AAi?$AAn?$AAt?$AAe?$AAr?$AA?5?$AA?$CB?$AA?$DN?$AA?5?$AAN?$AAU?$AAL?$AAL?$AA?$AA@ ; `string'
PUBLIC	??_C@_1DG@LNBMNGOB@?$AAP?$AAy?$AAB?$AAy?$AAt?$AAe?$AAs?$AA_?$AAC?$AAh?$AAe?$AAc?$AAk?$AA?$CI?$AAc?$AAo?$AA?9?$AA?$DO?$AAc?$AAo?$AA_?$AAc?$AAo?$AAd?$AAe?$AA?$CJ?$AA?$AA@ ; `string'
PUBLIC	??_C@_00CNPNBAHC@?$AA@				; `string'
EXTRN	PyException_SetTraceback:PROC
EXTRN	PyErr_NormalizeException:PROC
EXTRN	PyErr_Fetch:PROC
EXTRN	PyFrame_GetLineNumber:PROC
EXTRN	PyTraceBack_Here:PROC
EXTRN	__imp_sprintf:PROC
EXTRN	PySlice_New:PROC
EXTRN	PyFunction_SetKwDefaults:PROC
EXTRN	PyFunction_SetDefaults:PROC
EXTRN	PyFunction_SetAnnotations:PROC
EXTRN	PyTuple_Size:PROC
EXTRN	PyDict_New:PROC
EXTRN	PyFunction_SetClosure:PROC
EXTRN	PyFunction_NewWithQualName:PROC
EXTRN	PyMethod_Type:BYTE
EXTRN	PyErr_Restore:PROC
EXTRN	PyObject_CallFunctionObjArgs:PROC
EXTRN	PyFrame_BlockSetup:PROC
EXTRN	PyLong_FromLong:PROC
EXTRN	PyList_Type:BYTE
EXTRN	PyFrame_LocalsToFast:PROC
EXTRN	PyFrame_FastToLocals:PROC
EXTRN	PyLong_AsLong:PROC
EXTRN	PyExc_ImportError:QWORD
EXTRN	PyObject_GetAttr:PROC
EXTRN	_PyDict_NewPresized:PROC
EXTRN	PySet_New:PROC
EXTRN	PyList_New:PROC
EXTRN	PyTuple_New:PROC
EXTRN	PyCell_Get:PROC
EXTRN	PyCell_Set:PROC
EXTRN	_PyDict_LoadGlobal:PROC
EXTRN	PyDict_GetItem:PROC
EXTRN	PyDict_DelItem:PROC
EXTRN	PyObject_SetAttr:PROC
EXTRN	PyDict_SetItem:PROC
EXTRN	PyExc_NameError:QWORD
EXTRN	PyExc_KeyError:QWORD
EXTRN	_PyUnicode_FromId:PROC
EXTRN	PyDict_Type:BYTE
EXTRN	PyFrame_BlockPop:PROC
EXTRN	_PyGen_FetchStopIterationValue:PROC
EXTRN	_PyGen_Send:PROC
EXTRN	PyGen_Type:BYTE
EXTRN	PyTuple_Pack:PROC
EXTRN	PySys_GetObject:PROC
EXTRN	PyObject_DelItem:PROC
EXTRN	PyObject_SetItem:PROC
EXTRN	PyNumber_InPlaceOr:PROC
EXTRN	PyNumber_InPlaceXor:PROC
EXTRN	PyNumber_InPlaceAnd:PROC
EXTRN	PyNumber_InPlaceRshift:PROC
EXTRN	PyNumber_InPlaceLshift:PROC
EXTRN	PyNumber_InPlaceSubtract:PROC
EXTRN	PyNumber_InPlaceAdd:PROC
EXTRN	PyNumber_InPlaceRemainder:PROC
EXTRN	PyNumber_InPlaceFloorDivide:PROC
EXTRN	PyNumber_InPlaceTrueDivide:PROC
EXTRN	PyNumber_InPlaceMultiply:PROC
EXTRN	PyNumber_InPlacePower:PROC
EXTRN	PySet_Add:PROC
EXTRN	PyList_Append:PROC
EXTRN	PyNumber_Or:PROC
EXTRN	PyNumber_Xor:PROC
EXTRN	PyNumber_And:PROC
EXTRN	PyNumber_Rshift:PROC
EXTRN	PyNumber_Lshift:PROC
EXTRN	PyObject_GetItem:PROC
EXTRN	PyNumber_Subtract:PROC
EXTRN	PyNumber_Add:PROC
EXTRN	PyNumber_Remainder:PROC
EXTRN	PyUnicode_Format:PROC
EXTRN	PyUnicode_Type:BYTE
EXTRN	PyNumber_FloorDivide:PROC
EXTRN	PyNumber_TrueDivide:PROC
EXTRN	PyNumber_Multiply:PROC
EXTRN	PyNumber_Power:PROC
EXTRN	PyNumber_Invert:PROC
EXTRN	PyNumber_Negative:PROC
EXTRN	PyNumber_Positive:PROC
EXTRN	PyErr_ExceptionMatches:PROC
EXTRN	PyExc_StopIteration:QWORD
EXTRN	PyTuple_Type:BYTE
EXTRN	PyErr_SetString:PROC
EXTRN	PyExc_SystemError:QWORD
EXTRN	__imp_fprintf:PROC
EXTRN	__imp___iob_func:PROC
EXTRN	PyErr_Occurred:PROC
EXTRN	PyExc_UnboundLocalError:QWORD
EXTRN	PyObject_GetIter:PROC
EXTRN	PyObject_IsTrue:PROC
EXTRN	_Py_FalseStruct:BYTE
EXTRN	_Py_TrueStruct:BYTE
EXTRN	PyTuple_GetItem:PROC
EXTRN	__ImageBase:BYTE
EXTRN	__imp_printf:PROC
EXTRN	PyErr_SetNone:PROC
EXTRN	_PyDict_GetItemId:PROC
_BSS	SEGMENT
lltrace	DD	01H DUP (?)
_BSS	ENDS
;	COMDAT pdata
pdata	SEGMENT
$pdata$PyEval_EvalFrameEx DD imagerel $LN1073
	DD	imagerel $LN1073+229
	DD	imagerel $unwind$PyEval_EvalFrameEx
pdata	ENDS
;	COMDAT pdata
pdata	SEGMENT
$pdata$0$PyEval_EvalFrameEx DD imagerel $LN1073+229
	DD	imagerel $LN1073+237
	DD	imagerel $chain$0$PyEval_EvalFrameEx
pdata	ENDS
;	COMDAT pdata
pdata	SEGMENT
$pdata$1$PyEval_EvalFrameEx DD imagerel $LN1073+237
	DD	imagerel $LN1073+17191
	DD	imagerel $chain$1$PyEval_EvalFrameEx
pdata	ENDS
;	COMDAT pdata
pdata	SEGMENT
$pdata$2$PyEval_EvalFrameEx DD imagerel $LN1073+17191
	DD	imagerel $LN1073+17535
	DD	imagerel $chain$2$PyEval_EvalFrameEx
pdata	ENDS
;	COMDAT pdata
pdata	SEGMENT
$pdata$3$PyEval_EvalFrameEx DD imagerel $LN1073+17535
	DD	imagerel $LN1073+17608
	DD	imagerel $chain$3$PyEval_EvalFrameEx
pdata	ENDS
;	COMDAT pdata
pdata	SEGMENT
$pdata$4$PyEval_EvalFrameEx DD imagerel $LN1073+17608
	DD	imagerel $LN1073+18143
	DD	imagerel $chain$4$PyEval_EvalFrameEx
pdata	ENDS
;	COMDAT xdata
xdata	SEGMENT
$chain$4$PyEval_EvalFrameEx DD 040021H
	DD	028c400H
	DD	0316400H
	DD	imagerel $LN1073
	DD	imagerel $LN1073+229
	DD	imagerel $unwind$PyEval_EvalFrameEx
xdata	ENDS
;	COMDAT xdata
xdata	SEGMENT
$chain$3$PyEval_EvalFrameEx DD 021H
	DD	imagerel $LN1073
	DD	imagerel $LN1073+229
	DD	imagerel $unwind$PyEval_EvalFrameEx
xdata	ENDS
;	COMDAT xdata
xdata	SEGMENT
$chain$2$PyEval_EvalFrameEx DD 021H
	DD	imagerel $LN1073+229
	DD	imagerel $LN1073+237
	DD	imagerel $chain$0$PyEval_EvalFrameEx
xdata	ENDS
;	COMDAT xdata
xdata	SEGMENT
$chain$1$PyEval_EvalFrameEx DD 020821H
	DD	028c408H
	DD	imagerel $LN1073+229
	DD	imagerel $LN1073+237
	DD	imagerel $chain$0$PyEval_EvalFrameEx
xdata	ENDS
;	COMDAT xdata
xdata	SEGMENT
$chain$0$PyEval_EvalFrameEx DD 020821H
	DD	0316408H
	DD	imagerel $LN1073
	DD	imagerel $LN1073+229
	DD	imagerel $unwind$PyEval_EvalFrameEx
xdata	ENDS
;	COMDAT xdata
xdata	SEGMENT
$unwind$PyEval_EvalFrameEx DD 081a01H
	DD	029011aH
	DD	0e00cf00eH
	DD	07008d00aH
	DD	050063007H
xdata	ENDS
;	COMDAT ??_C@_0BD@INLLMHPI@PyEval_EvalFrameEx?$AA@
CONST	SEGMENT
??_C@_0BD@INLLMHPI@PyEval_EvalFrameEx?$AA@ DB 'PyEval_EvalFrameEx', 00H ; `string'
CONST	ENDS
;	COMDAT ??_C@_0P@FENJHLBJ@unknown?5opcode?$AA@
CONST	SEGMENT
??_C@_0P@FENJHLBJ@unknown?5opcode?$AA@ DB 'unknown opcode', 00H ; `string'
CONST	ENDS
;	COMDAT ??_C@_0BM@FPIMIFGH@XXX?5lineno?3?5?$CFd?0?5opcode?3?5?$CFd?6?$AA@
CONST	SEGMENT
??_C@_0BM@FPIMIFGH@XXX?5lineno?3?5?$CFd?0?5opcode?3?5?$CFd?6?$AA@ DB 'XXX'
	DB	' lineno: %d, opcode: %d', 0aH, 00H		; `string'
CONST	ENDS
;	COMDAT ??_C@_0CL@HKNINBON@Stack?5unwind?5with?5exception?5set?5@
CONST	SEGMENT
??_C@_0CL@HKNINBON@Stack?5unwind?5with?5exception?5set?5@ DB 'Stack unwin'
	DB	'd with exception set and why=%d', 00H	; `string'
CONST	ENDS
;	COMDAT ??_C@_1DK@INACIJOP@?$AAn?$AAu?$AAm?$AA_?$AAa?$AAn?$AAn?$AAo?$AAt?$AAa?$AAt?$AAi?$AAo?$AAn?$AAs?$AA?5?$AA?$DN?$AA?$DN?$AA?5?$AAn?$AAa?$AAm?$AAe?$AA_?$AAi?$AAx?$AA?$CL?$AA1?$AA?$AA@
CONST	SEGMENT
??_C@_1DK@INACIJOP@?$AAn?$AAu?$AAm?$AA_?$AAa?$AAn?$AAn?$AAo?$AAt?$AAa?$AAt?$AAi?$AAo?$AAn?$AAs?$AA?5?$AA?$DN?$AA?$DN?$AA?5?$AAn?$AAa?$AAm?$AAe?$AA_?$AAi?$AAx?$AA?$CL?$AA1?$AA?$AA@ DB 'n'
	DB	00H, 'u', 00H, 'm', 00H, '_', 00H, 'a', 00H, 'n', 00H, 'n', 00H
	DB	'o', 00H, 't', 00H, 'a', 00H, 't', 00H, 'i', 00H, 'o', 00H, 'n'
	DB	00H, 's', 00H, ' ', 00H, '=', 00H, '=', 00H, ' ', 00H, 'n', 00H
	DB	'a', 00H, 'm', 00H, 'e', 00H, '_', 00H, 'i', 00H, 'x', 00H, '+'
	DB	00H, '1', 00H, 00H, 00H			; `string'
CONST	ENDS
;	COMDAT ??_C@_0BN@BEHPHFBL@?8finally?8?5pops?5bad?5exception?$AA@
CONST	SEGMENT
??_C@_0BN@BEHPHFBL@?8finally?8?5pops?5bad?5exception?$AA@ DB '''finally'''
	DB	' pops bad exception', 00H			; `string'
CONST	ENDS
;	COMDAT ??_C@_1DI@OCKJHPNN@?$AAb?$AA?9?$AA?$DO?$AAb?$AA_?$AAt?$AAy?$AAp?$AAe?$AA?5?$AA?$DN?$AA?$DN?$AA?5?$AAE?$AAX?$AAC?$AAE?$AAP?$AAT?$AA_?$AAH?$AAA?$AAN?$AAD?$AAL?$AAE?$AAR?$AA?$AA@
CONST	SEGMENT
??_C@_1DI@OCKJHPNN@?$AAb?$AA?9?$AA?$DO?$AAb?$AA_?$AAt?$AAy?$AAp?$AAe?$AA?5?$AA?$DN?$AA?$DN?$AA?5?$AAE?$AAX?$AAC?$AAE?$AAP?$AAT?$AA_?$AAH?$AAA?$AAN?$AAD?$AAL?$AAE?$AAR?$AA?$AA@ DB 'b'
	DB	00H, '-', 00H, '>', 00H, 'b', 00H, '_', 00H, 't', 00H, 'y', 00H
	DB	'p', 00H, 'e', 00H, ' ', 00H, '=', 00H, '=', 00H, ' ', 00H, 'E'
	DB	00H, 'X', 00H, 'C', 00H, 'E', 00H, 'P', 00H, 'T', 00H, '_', 00H
	DB	'H', 00H, 'A', 00H, 'N', 00H, 'D', 00H, 'L', 00H, 'E', 00H, 'R'
	DB	00H, 00H, 00H				; `string'
CONST	ENDS
;	COMDAT ??_C@_1CC@MGKPFLIA@?$AAw?$AAh?$AAy?$AA?5?$AA?$CB?$AA?$DN?$AA?5?$AAW?$AAH?$AAY?$AA_?$AAY?$AAI?$AAE?$AAL?$AAD?$AA?$AA@
CONST	SEGMENT
??_C@_1CC@MGKPFLIA@?$AAw?$AAh?$AAy?$AA?5?$AA?$CB?$AA?$DN?$AA?5?$AAW?$AAH?$AAY?$AA_?$AAY?$AAI?$AAE?$AAL?$AAD?$AA?$AA@ DB 'w'
	DB	00H, 'h', 00H, 'y', 00H, ' ', 00H, '!', 00H, '=', 00H, ' ', 00H
	DB	'W', 00H, 'H', 00H, 'Y', 00H, '_', 00H, 'Y', 00H, 'I', 00H, 'E'
	DB	00H, 'L', 00H, 'D', 00H, 00H, 00H		; `string'
CONST	ENDS
;	COMDAT ??_C@_1EA@DJBOEJIH@?$AAb?$AAl?$AAo?$AAc?$AAk?$AA?9?$AA?$DO?$AAb?$AA_?$AAt?$AAy?$AAp?$AAe?$AA?5?$AA?$DN?$AA?$DN?$AA?5?$AAE?$AAX?$AAC?$AAE?$AAP?$AAT?$AA_?$AAH?$AAA?$AAN?$AAD?$AAL?$AAE?$AAR?$AA?$AA@
CONST	SEGMENT
??_C@_1EA@DJBOEJIH@?$AAb?$AAl?$AAo?$AAc?$AAk?$AA?9?$AA?$DO?$AAb?$AA_?$AAt?$AAy?$AAp?$AAe?$AA?5?$AA?$DN?$AA?$DN?$AA?5?$AAE?$AAX?$AAC?$AAE?$AAP?$AAT?$AA_?$AAH?$AAA?$AAN?$AAD?$AAL?$AAE?$AAR?$AA?$AA@ DB 'b'
	DB	00H, 'l', 00H, 'o', 00H, 'c', 00H, 'k', 00H, '-', 00H, '>', 00H
	DB	'b', 00H, '_', 00H, 't', 00H, 'y', 00H, 'p', 00H, 'e', 00H, ' '
	DB	00H, '=', 00H, '=', 00H, ' ', 00H, 'E', 00H, 'X', 00H, 'C', 00H
	DB	'E', 00H, 'P', 00H, 'T', 00H, '_', 00H, 'H', 00H, 'A', 00H, 'N'
	DB	00H, 'D', 00H, 'L', 00H, 'E', 00H, 'R', 00H, 00H, 00H ; `string'
CONST	ENDS
;	COMDAT ??_C@_0CC@NAHFDGJN@no?5locals?5found?5during?5?8import?5?$CK@
CONST	SEGMENT
??_C@_0CC@NAHFDGJN@no?5locals?5found?5during?5?8import?5?$CK@ DB 'no loca'
	DB	'ls found during ''import *''', 00H		; `string'
CONST	ENDS
;	COMDAT ??_C@_0BF@FMMPICPA@__import__?5not?5found?$AA@
CONST	SEGMENT
??_C@_0BF@FMMPICPA@__import__?5not?5found?$AA@ DB '__import__ not found', 00H ; `string'
CONST	ENDS
;	COMDAT ??_C@_0CN@GGOGIMDP@import?5not?5permitted?5within?5para@
CONST	SEGMENT
??_C@_0CN@GGOGIMDP@import?5not?5permitted?5within?5para@ DB 'import not p'
	DB	'ermitted within parallel context', 00H	; `string'
CONST	ENDS
;	COMDAT ??_C@_1CK@CFBAFFEI@?$AAP?$AAy?$AAD?$AAi?$AAc?$AAt?$AA_?$AAC?$AAh?$AAe?$AAc?$AAk?$AAE?$AAx?$AAa?$AAc?$AAt?$AA?$CI?$AAv?$AA?$CJ?$AA?$AA@
CONST	SEGMENT
??_C@_1CK@CFBAFFEI@?$AAP?$AAy?$AAD?$AAi?$AAc?$AAt?$AA_?$AAC?$AAh?$AAe?$AAc?$AAk?$AAE?$AAx?$AAa?$AAc?$AAt?$AA?$CI?$AAv?$AA?$CJ?$AA?$AA@ DB 'P'
	DB	00H, 'y', 00H, 'D', 00H, 'i', 00H, 'c', 00H, 't', 00H, '_', 00H
	DB	'C', 00H, 'h', 00H, 'e', 00H, 'c', 00H, 'k', 00H, 'E', 00H, 'x'
	DB	00H, 'a', 00H, 'c', 00H, 't', 00H, '(', 00H, 'v', 00H, ')', 00H
	DB	00H, 00H					; `string'
CONST	ENDS
;	COMDAT ??_C@_0BK@BEKKDKAN@no?5locals?5when?5loading?5?$CFR?$AA@
CONST	SEGMENT
??_C@_0BK@BEKKDKAN@no?5locals?5when?5loading?5?$CFR?$AA@ DB 'no locals wh'
	DB	'en loading %R', 00H				; `string'
CONST	ENDS
;	COMDAT ??_C@_0CE@NDGHHJP@global?5name?5?8?$CF?4200s?8?5is?5not?5defi@
CONST	SEGMENT
??_C@_0CE@NDGHHJP@global?5name?5?8?$CF?4200s?8?5is?5not?5defi@ DB 'global'
	DB	' name ''%.200s'' is not defined', 00H	; `string'
CONST	ENDS
;	COMDAT ??_C@_0BL@HJKLBJNK@no?5locals?5when?5deleting?5?$CFR?$AA@
CONST	SEGMENT
??_C@_0BL@HJKLBJNK@no?5locals?5when?5deleting?5?$CFR?$AA@ DB 'no locals w'
	DB	'hen deleting %R', 00H			; `string'
CONST	ENDS
;	COMDAT ??_C@_0BN@DBLGJMNF@name?5?8?$CF?4200s?8?5is?5not?5defined?$AA@
CONST	SEGMENT
??_C@_0BN@DBLGJMNF@name?5?8?$CF?4200s?8?5is?5not?5defined?$AA@ DB 'name '''
	DB	'%.200s'' is not defined', 00H		; `string'
CONST	ENDS
;	COMDAT ??_C@_0CA@PHPKHPGD@no?5locals?5found?5when?5storing?5?$CFR?$AA@
CONST	SEGMENT
??_C@_0CA@PHPKHPGD@no?5locals?5found?5when?5storing?5?$CFR?$AA@ DB 'no lo'
	DB	'cals found when storing %R', 00H		; `string'
CONST	ENDS
;	COMDAT ??_C@_0BK@IAGNFEAN@__build_class__?5not?5found?$AA@
CONST	SEGMENT
??_C@_0BK@IAGNFEAN@__build_class__?5not?5found?$AA@ DB '__build_class__ n'
	DB	'ot found', 00H				; `string'
CONST	ENDS
;	COMDAT ??_C@_1EE@OJMEFFAL@?$AAS?$AAT?$AAA?$AAC?$AAK?$AA_?$AAL?$AAE?$AAV?$AAE?$AAL?$AA?$CI?$AA?$CJ?$AA?5?$AA?$DO?$AA?$DN?$AA?5?$AA?$CI?$AAb?$AA?$CJ?$AA?9?$AA?$DO?$AAb?$AA_?$AAl?$AAe?$AAv?$AAe?$AAl?$AA?5?$AA?$CL?$AA?5@
CONST	SEGMENT
??_C@_1EE@OJMEFFAL@?$AAS?$AAT?$AAA?$AAC?$AAK?$AA_?$AAL?$AAE?$AAV?$AAE?$AAL?$AA?$CI?$AA?$CJ?$AA?5?$AA?$DO?$AA?$DN?$AA?5?$AA?$CI?$AAb?$AA?$CJ?$AA?9?$AA?$DO?$AAb?$AA_?$AAl?$AAe?$AAv?$AAe?$AAl?$AA?5?$AA?$CL?$AA?5@ DB 'S'
	DB	00H, 'T', 00H, 'A', 00H, 'C', 00H, 'K', 00H, '_', 00H, 'L', 00H
	DB	'E', 00H, 'V', 00H, 'E', 00H, 'L', 00H, '(', 00H, ')', 00H, ' '
	DB	00H, '>', 00H, '=', 00H, ' ', 00H, '(', 00H, 'b', 00H, ')', 00H
	DB	'-', 00H, '>', 00H, 'b', 00H, '_', 00H, 'l', 00H, 'e', 00H, 'v'
	DB	00H, 'e', 00H, 'l', 00H, ' ', 00H, '+', 00H, ' ', 00H, '3', 00H
	DB	00H, 00H					; `string'
CONST	ENDS
;	COMDAT ??_C@_0CG@CDCIJBNO@popped?5block?5is?5not?5an?5except?5ha@
CONST	SEGMENT
??_C@_0CG@CDCIJBNO@popped?5block?5is?5not?5an?5except?5ha@ DB 'popped blo'
	DB	'ck is not an except handler', 00H		; `string'
CONST	ENDS
;	COMDAT ??_C@_01MJMHLOMK@O?$AA@
CONST	SEGMENT
??_C@_01MJMHLOMK@O?$AA@ DB 'O', 00H			; `string'
CONST	ENDS
;	COMDAT ??_C@_0BI@INLFGEHA@bad?5RAISE_VARARGS?5oparg?$AA@
CONST	SEGMENT
??_C@_0BI@INLFGEHA@bad?5RAISE_VARARGS?5oparg?$AA@ DB 'bad RAISE_VARARGS o'
	DB	'parg', 00H					; `string'
CONST	ENDS
;	COMDAT ??_C@_0BF@LDJCNLPE@lost?5sys?4displayhook?$AA@
CONST	SEGMENT
??_C@_0BF@LDJCNLPE@lost?5sys?4displayhook?$AA@ DB 'lost sys.displayhook', 00H ; `string'
CONST	ENDS
;	COMDAT ??_C@_0M@OABHHABA@displayhook?$AA@
CONST	SEGMENT
??_C@_0M@OABHHABA@displayhook?$AA@ DB 'displayhook', 00H ; `string'
CONST	ENDS
;	COMDAT ??_C@_0CD@PEFHABHC@error?5return?5without?5exception?5s@
CONST	SEGMENT
??_C@_0CD@PEFHABHC@error?5return?5without?5exception?5s@ DB 'error return'
	DB	' without exception set', 00H		; `string'
CONST	ENDS
;	COMDAT ??_C@_0BG@BGJGOEKO@XXX?5undetected?5error?6?$AA@
CONST	SEGMENT
??_C@_0BG@BGJGOEKO@XXX?5undetected?5error?6?$AA@ DB 'XXX undetected error'
	DB	0aH, 00H					; `string'
CONST	ENDS
;	COMDAT ??_C@_0DF@HKMDOJCI@local?5variable?5?8?$CF?4200s?8?5referenc@
CONST	SEGMENT
??_C@_0DF@HKMDOJCI@local?5variable?5?8?$CF?4200s?8?5referenc@ DB 'local v'
	DB	'ariable ''%.200s'' referenced before assignment', 00H ; `string'
CONST	ENDS
;	COMDAT ??_C@_08OGNHIHGF@stackadj?$AA@
CONST	SEGMENT
??_C@_08OGNHIHGF@stackadj?$AA@ DB 'stackadj', 00H	; `string'
CONST	ENDS
;	COMDAT ??_C@_03NJDAHFJE@pop?$AA@
CONST	SEGMENT
??_C@_03NJDAHFJE@pop?$AA@ DB 'pop', 00H			; `string'
CONST	ENDS
;	COMDAT ??_C@_04GHHNIPCF@push?$AA@
CONST	SEGMENT
??_C@_04GHHNIPCF@push?$AA@ DB 'push', 00H		; `string'
CONST	ENDS
;	COMDAT ??_C@_07BCEPPLOH@?$CFd?3?5?$CFd?6?$AA@
CONST	SEGMENT
??_C@_07BCEPPLOH@?$CFd?3?5?$CFd?6?$AA@ DB '%d: %d', 0aH, 00H ; `string'
CONST	ENDS
;	COMDAT ??_C@_0M@EEIINKGH@?$CFd?3?5?$CFd?0?5?$CFd?6?$AA@
CONST	SEGMENT
??_C@_0M@EEIINKGH@?$CFd?3?5?$CFd?0?5?$CFd?6?$AA@ DB '%d: %d, %d', 0aH, 00H ; `string'
CONST	ENDS
;	COMDAT ??_C@_0BF@OIDPILMB@ceval?3?5orphan?5tstate?$AA@
CONST	SEGMENT
??_C@_0BF@OIDPILMB@ceval?3?5orphan?5tstate?$AA@ DB 'ceval: orphan tstate', 00H ; `string'
CONST	ENDS
;	COMDAT ??_C@_0BF@FFPEPKAJ@ceval?3?5tstate?5mix?9up?$AA@
CONST	SEGMENT
??_C@_0BF@FFPEPKAJ@ceval?3?5tstate?5mix?9up?$AA@ DB 'ceval: tstate mix-up'
	DB	00H						; `string'
CONST	ENDS
;	COMDAT ??_C@_1EE@JPIFCMJD@?$AAS?$AAT?$AAA?$AAC?$AAK?$AA_?$AAL?$AAE?$AAV?$AAE?$AAL?$AA?$CI?$AA?$CJ?$AA?5?$AA?$DM?$AA?$DN?$AA?5?$AAc?$AAo?$AA?9?$AA?$DO?$AAc?$AAo?$AA_?$AAs?$AAt?$AAa?$AAc?$AAk?$AAs?$AAi?$AAz@
CONST	SEGMENT
??_C@_1EE@JPIFCMJD@?$AAS?$AAT?$AAA?$AAC?$AAK?$AA_?$AAL?$AAE?$AAV?$AAE?$AAL?$AA?$CI?$AA?$CJ?$AA?5?$AA?$DM?$AA?$DN?$AA?5?$AAc?$AAo?$AA?9?$AA?$DO?$AAc?$AAo?$AA_?$AAs?$AAt?$AAa?$AAc?$AAk?$AAs?$AAi?$AAz@ DB 'S'
	DB	00H, 'T', 00H, 'A', 00H, 'C', 00H, 'K', 00H, '_', 00H, 'L', 00H
	DB	'E', 00H, 'V', 00H, 'E', 00H, 'L', 00H, '(', 00H, ')', 00H, ' '
	DB	00H, '<', 00H, '=', 00H, ' ', 00H, 'c', 00H, 'o', 00H, '-', 00H
	DB	'>', 00H, 'c', 00H, 'o', 00H, '_', 00H, 's', 00H, 't', 00H, 'a'
	DB	00H, 'c', 00H, 'k', 00H, 's', 00H, 'i', 00H, 'z', 00H, 'e', 00H
	DB	00H, 00H					; `string'
CONST	ENDS
;	COMDAT ??_C@_1EC@PPDGCIBF@?$AAs?$AAt?$AAa?$AAc?$AAk?$AA_?$AAp?$AAo?$AAi?$AAn?$AAt?$AAe?$AAr?$AA?5?$AA?$DO?$AA?$DN?$AA?5?$AAf?$AA?9?$AA?$DO?$AAf?$AA_?$AAv?$AAa?$AAl?$AAu?$AAe?$AAs?$AAt?$AAa?$AAc?$AAk@
CONST	SEGMENT
??_C@_1EC@PPDGCIBF@?$AAs?$AAt?$AAa?$AAc?$AAk?$AA_?$AAp?$AAo?$AAi?$AAn?$AAt?$AAe?$AAr?$AA?5?$AA?$DO?$AA?$DN?$AA?5?$AAf?$AA?9?$AA?$DO?$AAf?$AA_?$AAv?$AAa?$AAl?$AAu?$AAe?$AAs?$AAt?$AAa?$AAc?$AAk@ DB 's'
	DB	00H, 't', 00H, 'a', 00H, 'c', 00H, 'k', 00H, '_', 00H, 'p', 00H
	DB	'o', 00H, 'i', 00H, 'n', 00H, 't', 00H, 'e', 00H, 'r', 00H, ' '
	DB	00H, '>', 00H, '=', 00H, ' ', 00H, 'f', 00H, '-', 00H, '>', 00H
	DB	'f', 00H, '_', 00H, 'v', 00H, 'a', 00H, 'l', 00H, 'u', 00H, 'e'
	DB	00H, 's', 00H, 't', 00H, 'a', 00H, 'c', 00H, 'k', 00H, 00H, 00H ; `string'
CONST	ENDS
;	COMDAT ??_C@_1CM@OHHBDEIG@?$AAs?$AAt?$AAa?$AAc?$AAk?$AA_?$AAp?$AAo?$AAi?$AAn?$AAt?$AAe?$AAr?$AA?5?$AA?$CB?$AA?$DN?$AA?5?$AAN?$AAU?$AAL?$AAL?$AA?$AA@
CONST	SEGMENT
??_C@_1CM@OHHBDEIG@?$AAs?$AAt?$AAa?$AAc?$AAk?$AA_?$AAp?$AAo?$AAi?$AAn?$AAt?$AAe?$AAr?$AA?5?$AA?$CB?$AA?$DN?$AA?5?$AAN?$AAU?$AAL?$AAL?$AA?$AA@ DB 's'
	DB	00H, 't', 00H, 'a', 00H, 'c', 00H, 'k', 00H, '_', 00H, 'p', 00H
	DB	'o', 00H, 'i', 00H, 'n', 00H, 't', 00H, 'e', 00H, 'r', 00H, ' '
	DB	00H, '!', 00H, '=', 00H, ' ', 00H, 'N', 00H, 'U', 00H, 'L', 00H
	DB	'L', 00H, 00H, 00H				; `string'
CONST	ENDS
;	COMDAT ??_C@_1DG@LNBMNGOB@?$AAP?$AAy?$AAB?$AAy?$AAt?$AAe?$AAs?$AA_?$AAC?$AAh?$AAe?$AAc?$AAk?$AA?$CI?$AAc?$AAo?$AA?9?$AA?$DO?$AAc?$AAo?$AA_?$AAc?$AAo?$AAd?$AAe?$AA?$CJ?$AA?$AA@
CONST	SEGMENT
??_C@_1DG@LNBMNGOB@?$AAP?$AAy?$AAB?$AAy?$AAt?$AAe?$AAs?$AA_?$AAC?$AAh?$AAe?$AAc?$AAk?$AA?$CI?$AAc?$AAo?$AA?9?$AA?$DO?$AAc?$AAo?$AA_?$AAc?$AAo?$AAd?$AAe?$AA?$CJ?$AA?$AA@ DB 'P'
	DB	00H, 'y', 00H, 'B', 00H, 'y', 00H, 't', 00H, 'e', 00H, 's', 00H
	DB	'_', 00H, 'C', 00H, 'h', 00H, 'e', 00H, 'c', 00H, 'k', 00H, '('
	DB	00H, 'c', 00H, 'o', 00H, '-', 00H, '>', 00H, 'c', 00H, 'o', 00H
	DB	'_', 00H, 'c', 00H, 'o', 00H, 'd', 00H, 'e', 00H, ')', 00H, 00H
	DB	00H						; `string'
CONST	ENDS
;	COMDAT ??_C@_00CNPNBAHC@?$AA@
CONST	SEGMENT
??_C@_00CNPNBAHC@?$AA@ DB 00H				; `string'
; Function compile flags: /Ogtp
CONST	ENDS
;	COMDAT PyEval_EvalFrameEx
_TEXT	SEGMENT
tmp$1$ = 48
tstate$1$ = 56
next_instr$1$ = 64
co$1$ = 72
first_instr$1$ = 80
names$1$ = 88
retval$1$ = 96
val$65700 = 104
tb$65701 = 112
freevars$1$ = 120
exc$65699 = 128
instr_prev$ = 136
instr_lb$ = 140
kwdefaults$1$ = 144
v$56$ = 144
instr_ub$ = 152
posdefaults$1$ = 156
sp$65500 = 160
sp$65517 = 168
consts$1$ = 176
val$64895 = 184
buf$65638 = 192
f$ = 384
throwflag$ = 392
why$1$ = 400
err$1$ = 408
PyEval_EvalFrameEx PROC					; COMDAT

; 834  : {

$LN1073:
  00000	48 89 4c 24 08	 mov	 QWORD PTR [rsp+8], rcx
  00005	55		 push	 rbp
  00006	53		 push	 rbx
  00007	57		 push	 rdi
  00008	41 55		 push	 r13
  0000a	41 56		 push	 r14
  0000c	41 57		 push	 r15
  0000e	48 8d 6c 24 b8	 lea	 rbp, QWORD PTR [rsp-72]
  00013	48 81 ec 48 01
	00 00		 sub	 rsp, 328		; 00000148H

; 835  : #ifdef DXPAIRS
; 836  :     int lastopcode = 0;
; 837  : #endif
; 838  :     register PyObject **stack_pointer;  /* Next free slot in value stack */
; 839  :     register unsigned char *next_instr;
; 840  :     register int opcode;        /* Current opcode */
; 841  :     register int oparg;         /* Current opcode argument, if any */
; 842  :     register enum why_code why; /* Reason for block stack unwind */
; 843  :     register int err;           /* Error status -- nonzero if error */
; 844  :     register PyObject *x;       /* Result object -- NULL if error */
; 845  :     register PyObject *v;       /* Temporary objects popped off stack */
; 846  :     register PyObject *w;
; 847  :     register PyObject *u;
; 848  :     register PyObject *t;
; 849  :     register PyObject **fastlocals, **freevars;
; 850  :     PyObject *retval = NULL;            /* Return value */

  0001a	45 33 f6	 xor	 r14d, r14d
  0001d	8b da		 mov	 ebx, edx
  0001f	4c 8b f9	 mov	 r15, rcx
  00022	45 8b ee	 mov	 r13d, r14d
  00025	4c 89 74 24 60	 mov	 QWORD PTR retval$1$[rsp], r14

; 851  :     PyThreadState *tstate = PyThreadState_GET();

  0002a	e8 00 00 00 00	 call	 PyThreadState_Get

; 852  :     PyCodeObject *co;
; 853  : 
; 854  :     /* when tracing we set things up so that
; 855  : 
; 856  :            not (instr_lb <= current_bytecode_offset < instr_ub)
; 857  : 
; 858  :        is true when the line being executed has changed.  The
; 859  :        initial values are such as to make this false the first
; 860  :        time it is tested. */
; 861  :     int instr_ub = -1, instr_lb = 0, instr_prev = -1;

  0002f	c7 45 98 ff ff
	ff ff		 mov	 DWORD PTR instr_ub$[rbp-256], -1
  00036	44 89 75 8c	 mov	 DWORD PTR instr_lb$[rbp-256], r14d
  0003a	c7 45 88 ff ff
	ff ff		 mov	 DWORD PTR instr_prev$[rbp-256], -1
  00041	48 8b f8	 mov	 rdi, rax
  00044	48 89 44 24 38	 mov	 QWORD PTR tstate$1$[rsp], rax

; 862  : 
; 863  :     unsigned char *first_instr;
; 864  :     PyObject *names;
; 865  :     PyObject *consts;
; 866  : 
; 867  : #ifdef LLTRACE
; 868  :     _Py_IDENTIFIER(__ltrace__);
; 869  : #endif
; 870  : 
; 871  : /* Computed GOTOs, or
; 872  :        the-optimization-commonly-but-improperly-known-as-"threaded code"
; 873  :    using gcc's labels-as-values extension
; 874  :    (http://gcc.gnu.org/onlinedocs/gcc/Labels-as-Values.html).
; 875  : 
; 876  :    The traditional bytecode evaluation loop uses a "switch" statement, which
; 877  :    decent compilers will optimize as a single indirect branch instruction
; 878  :    combined with a lookup table of jump addresses. However, since the
; 879  :    indirect jump instruction is shared by all opcodes, the CPU will have a
; 880  :    hard time making the right prediction for where to jump next (actually,
; 881  :    it will be always wrong except in the uncommon case of a sequence of
; 882  :    several identical opcodes).
; 883  : 
; 884  :    "Threaded code" in contrast, uses an explicit jump table and an explicit
; 885  :    indirect jump instruction at the end of each opcode. Since the jump
; 886  :    instruction is at a different address for each opcode, the CPU will make a
; 887  :    separate prediction for each of these instructions, which is equivalent to
; 888  :    predicting the second opcode of each opcode pair. These predictions have
; 889  :    a much better chance to turn out valid, especially in small bytecode loops.
; 890  : 
; 891  :    A mispredicted branch on a modern CPU flushes the whole pipeline and
; 892  :    can cost several CPU cycles (depending on the pipeline depth),
; 893  :    and potentially many more instructions (depending on the pipeline width).
; 894  :    A correctly predicted branch, however, is nearly free.
; 895  : 
; 896  :    At the time of this writing, the "threaded code" version is up to 15-20%
; 897  :    faster than the normal "switch" version, depending on the compiler and the
; 898  :    CPU architecture.
; 899  : 
; 900  :    We disable the optimization if DYNAMIC_EXECUTION_PROFILE is defined,
; 901  :    because it would render the measurements invalid.
; 902  : 
; 903  : 
; 904  :    NOTE: care must be taken that the compiler doesn't try to "optimize" the
; 905  :    indirect jumps by sharing them between all opcodes. Such optimizations
; 906  :    can be disabled on gcc by using the -fno-gcse flag (or possibly
; 907  :    -fno-crossjumping).
; 908  : */
; 909  : 
; 910  : #ifdef DYNAMIC_EXECUTION_PROFILE
; 911  : #undef USE_COMPUTED_GOTOS
; 912  : #define USE_COMPUTED_GOTOS 0
; 913  : #endif
; 914  : 
; 915  : #ifdef HAVE_COMPUTED_GOTOS
; 916  :     #ifndef USE_COMPUTED_GOTOS
; 917  :     #define USE_COMPUTED_GOTOS 1
; 918  :     #endif
; 919  : #else
; 920  :     #if defined(USE_COMPUTED_GOTOS) && USE_COMPUTED_GOTOS
; 921  :     #error "Computed gotos are not supported on this compiler."
; 922  :     #endif
; 923  :     #undef USE_COMPUTED_GOTOS
; 924  :     #define USE_COMPUTED_GOTOS 0
; 925  : #endif
; 926  : 
; 927  : #if USE_COMPUTED_GOTOS
; 928  : /* Import the static jump table */
; 929  : #include "opcode_targets.h"
; 930  : 
; 931  : /* This macro is used when several opcodes defer to the same implementation
; 932  :    (e.g. SETUP_LOOP, SETUP_FINALLY) */
; 933  : #define TARGET_WITH_IMPL(op, impl) \
; 934  :     TARGET_##op: \
; 935  :         opcode = op; \
; 936  :         if (HAS_ARG(op)) \
; 937  :             oparg = NEXTARG(); \
; 938  :     case op: \
; 939  :         goto impl; \
; 940  : 
; 941  : #define TARGET(op) \
; 942  :     TARGET_##op: \
; 943  :         opcode = op; \
; 944  :         if (HAS_ARG(op)) \
; 945  :             oparg = NEXTARG(); \
; 946  :     case op:
; 947  : 
; 948  : 
; 949  : #define DISPATCH() \
; 950  :     { \
; 951  :         if (!_Py_atomic_load_relaxed(&eval_breaker)) {      \
; 952  :                     FAST_DISPATCH(); \
; 953  :         } \
; 954  :         continue; \
; 955  :     }
; 956  : 
; 957  : #ifdef LLTRACE
; 958  : #define FAST_DISPATCH() \
; 959  :     { \
; 960  :         if (!lltrace && !_Py_TracingPossible) { \
; 961  :             f->f_lasti = INSTR_OFFSET(); \
; 962  :             goto *opcode_targets[*next_instr++]; \
; 963  :         } \
; 964  :         goto fast_next_opcode; \
; 965  :     }
; 966  : #else
; 967  : #define FAST_DISPATCH() \
; 968  :     { \
; 969  :         if (!_Py_TracingPossible) { \
; 970  :             f->f_lasti = INSTR_OFFSET(); \
; 971  :             goto *opcode_targets[*next_instr++]; \
; 972  :         } \
; 973  :         goto fast_next_opcode; \
; 974  :     }
; 975  : #endif
; 976  : 
; 977  : #else
; 978  : #define TARGET(op) \
; 979  :     case op:
; 980  : #define TARGET_WITH_IMPL(op, impl) \
; 981  :     /* silence compiler warnings about `impl` unused */ \
; 982  :     if (0) goto impl; \
; 983  :     case op:
; 984  : #define DISPATCH() continue
; 985  : #define FAST_DISPATCH() goto fast_next_opcode
; 986  : #endif
; 987  : 
; 988  : 
; 989  : /* Tuple access macros */
; 990  : 
; 991  : #ifndef Py_DEBUG
; 992  : #define GETITEM(v, i) PyTuple_GET_ITEM((PyTupleObject *)(v), (i))
; 993  : #else
; 994  : #define GETITEM(v, i) PyTuple_GetItem((v), (i))
; 995  : #endif
; 996  : 
; 997  : #ifdef WITH_TSC
; 998  : /* Use Pentium timestamp counter to mark certain events:
; 999  :    inst0 -- beginning of switch statement for opcode dispatch
; 1000 :    inst1 -- end of switch statement (may be skipped)
; 1001 :    loop0 -- the top of the mainloop
; 1002 :    loop1 -- place where control returns again to top of mainloop
; 1003 :             (may be skipped)
; 1004 :    intr1 -- beginning of long interruption
; 1005 :    intr2 -- end of long interruption
; 1006 : 
; 1007 :    Many opcodes call out to helper C functions.  In some cases, the
; 1008 :    time in those functions should be counted towards the time for the
; 1009 :    opcode, but not in all cases.  For example, a CALL_FUNCTION opcode
; 1010 :    calls another Python function; there's no point in charge all the
; 1011 :    bytecode executed by the called function to the caller.
; 1012 : 
; 1013 :    It's hard to make a useful judgement statically.  In the presence
; 1014 :    of operator overloading, it's impossible to tell if a call will
; 1015 :    execute new Python code or not.
; 1016 : 
; 1017 :    It's a case-by-case judgement.  I'll use intr1 for the following
; 1018 :    cases:
; 1019 : 
; 1020 :    IMPORT_STAR
; 1021 :    IMPORT_FROM
; 1022 :    CALL_FUNCTION (and friends)
; 1023 : 
; 1024 :  */
; 1025 :     uint64 inst0, inst1, loop0, loop1, intr0 = 0, intr1 = 0;
; 1026 :     int ticked = 0;
; 1027 : 
; 1028 :     READ_TIMESTAMP(inst0);
; 1029 :     READ_TIMESTAMP(inst1);
; 1030 :     READ_TIMESTAMP(loop0);
; 1031 :     READ_TIMESTAMP(loop1);
; 1032 : 
; 1033 :     /* shut up the compiler */
; 1034 :     opcode = 0;
; 1035 : #endif
; 1036 : 
; 1037 : /* Code access macros */
; 1038 : 
; 1039 : #define INSTR_OFFSET()  ((int)(next_instr - first_instr))
; 1040 : #define NEXTOP()        (*next_instr++)
; 1041 : #define NEXTARG()       (next_instr += 2, (next_instr[-1]<<8) + next_instr[-2])
; 1042 : #define PEEKARG()       ((next_instr[2]<<8) + next_instr[1])
; 1043 : #define JUMPTO(x)       (next_instr = first_instr + (x))
; 1044 : #define JUMPBY(x)       (next_instr += (x))
; 1045 : 
; 1046 : /* OpCode prediction macros
; 1047 :     Some opcodes tend to come in pairs thus making it possible to
; 1048 :     predict the second code when the first is run.  For example,
; 1049 :     COMPARE_OP is often followed by JUMP_IF_FALSE or JUMP_IF_TRUE.  And,
; 1050 :     those opcodes are often followed by a POP_TOP.
; 1051 : 
; 1052 :     Verifying the prediction costs a single high-speed test of a register
; 1053 :     variable against a constant.  If the pairing was good, then the
; 1054 :     processor's own internal branch predication has a high likelihood of
; 1055 :     success, resulting in a nearly zero-overhead transition to the
; 1056 :     next opcode.  A successful prediction saves a trip through the eval-loop
; 1057 :     including its two unpredictable branches, the HAS_ARG test and the
; 1058 :     switch-case.  Combined with the processor's internal branch prediction,
; 1059 :     a successful PREDICT has the effect of making the two opcodes run as if
; 1060 :     they were a single new opcode with the bodies combined.
; 1061 : 
; 1062 :     If collecting opcode statistics, your choices are to either keep the
; 1063 :     predictions turned-on and interpret the results as if some opcodes
; 1064 :     had been combined or turn-off predictions so that the opcode frequency
; 1065 :     counter updates for both opcodes.
; 1066 : 
; 1067 :     Opcode prediction is disabled with threaded code, since the latter allows
; 1068 :     the CPU to record separate branch prediction information for each
; 1069 :     opcode.
; 1070 : 
; 1071 : */
; 1072 : 
; 1073 : #if defined(DYNAMIC_EXECUTION_PROFILE) || USE_COMPUTED_GOTOS
; 1074 : #define PREDICT(op)             if (0) goto PRED_##op
; 1075 : #define PREDICTED(op)           PRED_##op:
; 1076 : #define PREDICTED_WITH_ARG(op)  PRED_##op:
; 1077 : #else
; 1078 : #define PREDICT(op)             if (*next_instr == op) goto PRED_##op
; 1079 : #define PREDICTED(op)           PRED_##op: next_instr++
; 1080 : #define PREDICTED_WITH_ARG(op)  PRED_##op: oparg = PEEKARG(); next_instr += 3
; 1081 : #endif
; 1082 : 
; 1083 : 
; 1084 : /* Stack manipulation macros */
; 1085 : 
; 1086 : /* The stack can grow at most MAXINT deep, as co_nlocals and
; 1087 :    co_stacksize are ints. */
; 1088 : #define STACK_LEVEL()     ((int)(stack_pointer - f->f_valuestack))
; 1089 : #define EMPTY()           (STACK_LEVEL() == 0)
; 1090 : #define TOP()             (stack_pointer[-1])
; 1091 : #define SECOND()          (stack_pointer[-2])
; 1092 : #define THIRD()           (stack_pointer[-3])
; 1093 : #define FOURTH()          (stack_pointer[-4])
; 1094 : #define PEEK(n)           (stack_pointer[-(n)])
; 1095 : #define SET_TOP(v)        (stack_pointer[-1] = (v))
; 1096 : #define SET_SECOND(v)     (stack_pointer[-2] = (v))
; 1097 : #define SET_THIRD(v)      (stack_pointer[-3] = (v))
; 1098 : #define SET_FOURTH(v)     (stack_pointer[-4] = (v))
; 1099 : #define SET_VALUE(n, v)   (stack_pointer[-(n)] = (v))
; 1100 : #define BASIC_STACKADJ(n) (stack_pointer += n)
; 1101 : #define BASIC_PUSH(v)     (*stack_pointer++ = (v))
; 1102 : #define BASIC_POP()       (*--stack_pointer)
; 1103 : 
; 1104 : #ifdef LLTRACE
; 1105 : #define PUSH(v)         { (void)(BASIC_PUSH(v), \
; 1106 :                           lltrace && prtrace(TOP(), "push")); \
; 1107 :                           assert(STACK_LEVEL() <= co->co_stacksize); }
; 1108 : #define POP()           ((void)(lltrace && prtrace(TOP(), "pop")), \
; 1109 :                          BASIC_POP())
; 1110 : #define STACKADJ(n)     { (void)(BASIC_STACKADJ(n), \
; 1111 :                           lltrace && prtrace(TOP(), "stackadj")); \
; 1112 :                           assert(STACK_LEVEL() <= co->co_stacksize); }
; 1113 : #define EXT_POP(STACK_POINTER) ((void)(lltrace && \
; 1114 :                                 prtrace((STACK_POINTER)[-1], "ext_pop")), \
; 1115 :                                 *--(STACK_POINTER))
; 1116 : #else
; 1117 : #define PUSH(v)                BASIC_PUSH(v)
; 1118 : #define POP()                  BASIC_POP()
; 1119 : #define STACKADJ(n)            BASIC_STACKADJ(n)
; 1120 : #define EXT_POP(STACK_POINTER) (*--(STACK_POINTER))
; 1121 : #endif
; 1122 : 
; 1123 : /* Local variable macros */
; 1124 : 
; 1125 : #define GETLOCAL(i)     (fastlocals[i])
; 1126 : 
; 1127 : /* The SETLOCAL() macro must not DECREF the local variable in-place and
; 1128 :    then store the new value; it must copy the old value to a temporary
; 1129 :    value, then store the new value, and then DECREF the temporary value.
; 1130 :    This is because it is possible that during the DECREF the frame is
; 1131 :    accessed by other code (e.g. a __del__ method or gc.collect()) and the
; 1132 :    variable would be pointing to already-freed memory. */
; 1133 : #define SETLOCAL(i, value)      do { PyObject *tmp = GETLOCAL(i); \
; 1134 :                                      GETLOCAL(i) = value; \
; 1135 :                                      Py_XDECREF(tmp); } while (0)
; 1136 : 
; 1137 : 
; 1138 : #define UNWIND_BLOCK(b) \
; 1139 :     while (STACK_LEVEL() > (b)->b_level) { \
; 1140 :         PyObject *v = POP(); \
; 1141 :         Py_XDECREF(v); \
; 1142 :     }
; 1143 : 
; 1144 : #define UNWIND_EXCEPT_HANDLER(b) \
; 1145 :     { \
; 1146 :         PyObject *type, *value, *traceback; \
; 1147 :         assert(STACK_LEVEL() >= (b)->b_level + 3); \
; 1148 :         while (STACK_LEVEL() > (b)->b_level + 3) { \
; 1149 :             value = POP(); \
; 1150 :             Py_XDECREF(value); \
; 1151 :         } \
; 1152 :         type = tstate->exc_type; \
; 1153 :         value = tstate->exc_value; \
; 1154 :         traceback = tstate->exc_traceback; \
; 1155 :         tstate->exc_type = POP(); \
; 1156 :         tstate->exc_value = POP(); \
; 1157 :         tstate->exc_traceback = POP(); \
; 1158 :         Py_XDECREF(type); \
; 1159 :         Py_XDECREF(value); \
; 1160 :         Py_XDECREF(traceback); \
; 1161 :     }
; 1162 : 
; 1163 : /* Start of code */
; 1164 : 
; 1165 :     /* push frame */
; 1166 :     if (Py_EnterRecursiveCall(""))

  00049	e8 00 00 00 00	 call	 PyThreadState_Get
  0004e	ff 40 18	 inc	 DWORD PTR [rax+24]
  00051	8b 40 18	 mov	 eax, DWORD PTR [rax+24]
  00054	3b 05 00 00 00
	00		 cmp	 eax, DWORD PTR _Py_CheckRecursionLimit
  0005a	7e 23		 jle	 SHORT $LN548@PyEval_Eva
  0005c	48 8d 0d 00 00
	00 00		 lea	 rcx, OFFSET FLAT:??_C@_00CNPNBAHC@?$AA@
  00063	e8 00 00 00 00	 call	 _Py_CheckRecursiveCall
  00068	85 c0		 test	 eax, eax
  0006a	74 13		 je	 SHORT $LN548@PyEval_Eva

; 1167 :         return NULL;

  0006c	33 c0		 xor	 eax, eax

; 3150 : }

  0006e	48 81 c4 48 01
	00 00		 add	 rsp, 328		; 00000148H
  00075	41 5f		 pop	 r15
  00077	41 5e		 pop	 r14
  00079	41 5d		 pop	 r13
  0007b	5f		 pop	 rdi
  0007c	5b		 pop	 rbx
  0007d	5d		 pop	 rbp
  0007e	c3		 ret	 0
$LN548@PyEval_Eva:

; 1168 : 
; 1169 :     tstate->frame = f;

  0007f	4c 89 7f 10	 mov	 QWORD PTR [rdi+16], r15

; 1170 : 
; 1171 :     if (tstate->use_tracing) {

  00083	48 8d 05 00 00
	00 00		 lea	 rax, OFFSET FLAT:_Py_NoneStruct
  0008a	44 39 6f 24	 cmp	 DWORD PTR [rdi+36], r13d
  0008e	74 51		 je	 SHORT $LN543@PyEval_Eva

; 1172 :         if (tstate->c_tracefunc != NULL) {

  00090	48 8b 4f 30	 mov	 rcx, QWORD PTR [rdi+48]
  00094	48 85 c9	 test	 rcx, rcx
  00097	74 23		 je	 SHORT $LN545@PyEval_Eva

; 1173 :             /* tstate->c_tracefunc, if defined, is a
; 1174 :                function that will be called on *every* entry
; 1175 :                to a code block.  Its return value, if not
; 1176 :                None, is a function that will be called at
; 1177 :                the start of each executed line of code.
; 1178 :                (Actually, the function must return itself
; 1179 :                in order to continue tracing.)  The trace
; 1180 :                functions are called with three arguments:
; 1181 :                a pointer to the current frame, a string
; 1182 :                indicating why the function is called, and
; 1183 :                an argument which depends on the situation.
; 1184 :                The global trace function is also called
; 1185 :                whenever an exception is detected. */
; 1186 :             if (call_trace_protected(tstate->c_tracefunc,
; 1187 :                                      tstate->c_traceobj,
; 1188 :                                      f, PyTrace_CALL, Py_None)) {

  00099	48 8b 57 40	 mov	 rdx, QWORD PTR [rdi+64]
  0009d	45 33 c9	 xor	 r9d, r9d
  000a0	4d 8b c7	 mov	 r8, r15
  000a3	48 89 44 24 20	 mov	 QWORD PTR [rsp+32], rax
  000a8	e8 00 00 00 00	 call	 call_trace_protected
  000ad	85 c0		 test	 eax, eax
  000af	0f 85 ca 43 00
	00		 jne	 $exit_eval_frame$64503
  000b5	48 8d 05 00 00
	00 00		 lea	 rax, OFFSET FLAT:_Py_NoneStruct
$LN545@PyEval_Eva:

; 1189 :                 /* Trace function raised an error */
; 1190 :                 goto exit_eval_frame;
; 1191 :             }
; 1192 :         }
; 1193 :         if (tstate->c_profilefunc != NULL) {

  000bc	48 8b 4f 28	 mov	 rcx, QWORD PTR [rdi+40]
  000c0	48 85 c9	 test	 rcx, rcx
  000c3	74 1c		 je	 SHORT $LN543@PyEval_Eva

; 1194 :             /* Similar for c_profilefunc, except it needn't
; 1195 :                return itself and isn't called for "line" events */
; 1196 :             if (call_trace_protected(tstate->c_profilefunc,
; 1197 :                                      tstate->c_profileobj,
; 1198 :                                      f, PyTrace_CALL, Py_None)) {

  000c5	48 8b 57 38	 mov	 rdx, QWORD PTR [rdi+56]
  000c9	45 33 c9	 xor	 r9d, r9d
  000cc	4d 8b c7	 mov	 r8, r15
  000cf	48 89 44 24 20	 mov	 QWORD PTR [rsp+32], rax
  000d4	e8 00 00 00 00	 call	 call_trace_protected
  000d9	85 c0		 test	 eax, eax
  000db	0f 85 9e 43 00
	00		 jne	 $exit_eval_frame$64503
$LN543@PyEval_Eva:

; 1199 :                 /* Profile function raised an error */
; 1200 :                 goto exit_eval_frame;
; 1201 :             }
; 1202 :         }
; 1203 :     }
; 1204 : 
; 1205 :     co = f->f_code;

  000e1	4d 8b 6f 78	 mov	 r13, QWORD PTR [r15+120]
  000e5	48 89 b4 24 88
	01 00 00	 mov	 QWORD PTR [rsp+392], rsi
  000ed	4c 89 a4 24 40
	01 00 00	 mov	 QWORD PTR [rsp+320], r12

; 1206 :     names = co->co_names;

  000f5	49 8b 85 88 00
	00 00		 mov	 rax, QWORD PTR [r13+136]
  000fc	4c 89 6c 24 48	 mov	 QWORD PTR co$1$[rsp], r13
  00101	48 89 44 24 58	 mov	 QWORD PTR names$1$[rsp], rax

; 1207 :     consts = co->co_consts;

  00106	49 8b 85 80 00
	00 00		 mov	 rax, QWORD PTR [r13+128]
  0010d	48 89 45 b0	 mov	 QWORD PTR consts$1$[rbp-256], rax

; 1208 :     fastlocals = f->f_localsplus;
; 1209 :     freevars = f->f_localsplus + co->co_nlocals;

  00111	49 63 45 68	 movsxd	 rax, DWORD PTR [r13+104]
  00115	49 8d 84 c7 d0
	01 00 00	 lea	 rax, QWORD PTR [r15+rax*8+464]
  0011d	48 89 44 24 78	 mov	 QWORD PTR freevars$1$[rsp], rax

; 1210 :     first_instr = (unsigned char*) PyBytes_AS_STRING(co->co_code);

  00122	49 8b 45 78	 mov	 rax, QWORD PTR [r13+120]
  00126	48 8b 48 58	 mov	 rcx, QWORD PTR [rax+88]
  0012a	f7 81 00 01 00
	00 00 00 00 08	 test	 DWORD PTR [rcx+256], 134217728 ; 08000000H
  00134	75 1a		 jne	 SHORT $LN551@PyEval_Eva
  00136	48 8d 15 00 00
	00 00		 lea	 rdx, OFFSET FLAT:??_C@_1CE@BLKIPNIC@?$AA?4?$AA?4?$AA?2?$AAP?$AAy?$AAt?$AAh?$AAo?$AAn?$AA?2?$AAc?$AAe?$AAv?$AAa?$AAl?$AA?4?$AAc?$AA?$AA@
  0013d	48 8d 0d 00 00
	00 00		 lea	 rcx, OFFSET FLAT:??_C@_1DG@LNBMNGOB@?$AAP?$AAy?$AAB?$AAy?$AAt?$AAe?$AAs?$AA_?$AAC?$AAh?$AAe?$AAc?$AAk?$AA?$CI?$AAc?$AAo?$AA?9?$AA?$DO?$AAc?$AAo?$AA_?$AAc?$AAo?$AAd?$AAe?$AA?$CJ?$AA?$AA@
  00144	41 b8 ba 04 00
	00		 mov	 r8d, 1210		; 000004baH
  0014a	ff 15 00 00 00
	00		 call	 QWORD PTR __imp__wassert
$LN551@PyEval_Eva:
  00150	49 8b 4d 78	 mov	 rcx, QWORD PTR [r13+120]

; 1211 :     /* An explanation is in order for the next line.
; 1212 : 
; 1213 :        f->f_lasti now refers to the index of the last instruction
; 1214 :        executed.  You might think this was obvious from the name, but
; 1215 :        this wasn't always true before 2.3!  PyFrame_New now sets
; 1216 :        f->f_lasti to -1 (i.e. the index *before* the first instruction)
; 1217 :        and YIELD_VALUE doesn't fiddle with f_lasti any more.  So this
; 1218 :        does work.  Promise.
; 1219 :        YIELD_FROM sets f_lasti to itself, in order to repeated yield
; 1220 :        multiple values.
; 1221 : 
; 1222 :        When the PREDICT() macros are enabled, some opcode pairs follow in
; 1223 :        direct succession without updating f->f_lasti.  A successful
; 1224 :        prediction effectively links the two codes together as if they
; 1225 :        were a single new opcode; accordingly,f->f_lasti will point to
; 1226 :        the first code in the pair (for instance, GET_ITER followed by
; 1227 :        FOR_ITER is effectively a single opcode and f->f_lasti will point
; 1228 :        at to the beginning of the combined pair.)
; 1229 :     */
; 1230 :     next_instr = first_instr + f->f_lasti + 1;

  00154	49 63 87 d0 00
	00 00		 movsxd	 rax, DWORD PTR [r15+208]

; 1231 :     stack_pointer = f->f_stacktop;

  0015b	49 8b b7 a0 00
	00 00		 mov	 rsi, QWORD PTR [r15+160]
  00162	48 83 c1 78	 add	 rcx, 120		; 00000078H
  00166	48 89 4c 24 50	 mov	 QWORD PTR first_instr$1$[rsp], rcx
  0016b	4c 8d 64 08 01	 lea	 r12, QWORD PTR [rax+rcx+1]
  00170	4c 89 64 24 40	 mov	 QWORD PTR next_instr$1$[rsp], r12

; 1232 :     assert(stack_pointer != NULL);

  00175	48 85 f6	 test	 rsi, rsi
  00178	75 1a		 jne	 SHORT $LN552@PyEval_Eva
  0017a	48 8d 15 00 00
	00 00		 lea	 rdx, OFFSET FLAT:??_C@_1CE@BLKIPNIC@?$AA?4?$AA?4?$AA?2?$AAP?$AAy?$AAt?$AAh?$AAo?$AAn?$AA?2?$AAc?$AAe?$AAv?$AAa?$AAl?$AA?4?$AAc?$AA?$AA@
  00181	48 8d 0d 00 00
	00 00		 lea	 rcx, OFFSET FLAT:??_C@_1CM@OHHBDEIG@?$AAs?$AAt?$AAa?$AAc?$AAk?$AA_?$AAp?$AAo?$AAi?$AAn?$AAt?$AAe?$AAr?$AA?5?$AA?$CB?$AA?$DN?$AA?5?$AAN?$AAU?$AAL?$AAL?$AA?$AA@
  00188	41 b8 d0 04 00
	00		 mov	 r8d, 1232		; 000004d0H
  0018e	ff 15 00 00 00
	00		 call	 QWORD PTR __imp__wassert
$LN552@PyEval_Eva:

; 1233 :     f->f_stacktop = NULL;       /* remains NULL unless yield suspends frame */

  00194	4d 89 b7 a0 00
	00 00		 mov	 QWORD PTR [r15+160], r14

; 1234 : 
; 1235 :     if (co->co_flags & CO_GENERATOR && !throwflag) {

  0019b	41 f6 45 70 20	 test	 BYTE PTR [r13+112], 32	; 00000020H
  001a0	74 34		 je	 SHORT $LN540@PyEval_Eva
  001a2	85 db		 test	 ebx, ebx
  001a4	75 30		 jne	 SHORT $LN540@PyEval_Eva

; 1236 :         if (f->f_exc_type != NULL && f->f_exc_type != Py_None) {

  001a6	49 8b 87 b0 00
	00 00		 mov	 rax, QWORD PTR [r15+176]
  001ad	48 85 c0	 test	 rax, rax
  001b0	74 19		 je	 SHORT $LN541@PyEval_Eva
  001b2	48 8d 0d 00 00
	00 00		 lea	 rcx, OFFSET FLAT:_Py_NoneStruct
  001b9	48 3b c1	 cmp	 rax, rcx
  001bc	74 0d		 je	 SHORT $LN541@PyEval_Eva

; 1237 :             /* We were in an except handler when we left,
; 1238 :                restore the exception state which was put aside
; 1239 :                (see YIELD_VALUE). */
; 1240 :             swap_exc_state(tstate, f);

  001be	49 8b d7	 mov	 rdx, r15
  001c1	48 8b cf	 mov	 rcx, rdi
  001c4	e8 00 00 00 00	 call	 swap_exc_state

; 1241 :         }
; 1242 :         else

  001c9	eb 0b		 jmp	 SHORT $LN540@PyEval_Eva
$LN541@PyEval_Eva:

; 1243 :             save_exc_state(tstate, f);

  001cb	49 8b d7	 mov	 rdx, r15
  001ce	48 8b cf	 mov	 rcx, rdi
  001d1	e8 00 00 00 00	 call	 save_exc_state
$LN540@PyEval_Eva:

; 1244 :     }
; 1245 : 
; 1246 : #ifdef LLTRACE
; 1247 :     lltrace = _PyDict_GetItemId(f->f_globals, &PyId___ltrace__) != NULL;

  001d6	8b 0d 00 00 00
	00		 mov	 ecx, DWORD PTR _tls_index
  001dc	65 48 8b 04 25
	58 00 00 00	 mov	 rax, QWORD PTR gs:88
  001e5	ba 00 00 00 00	 mov	 edx, OFFSET FLAT:?PyId___ltrace__@?1??PyEval_EvalFrameEx@@9@9
  001ea	48 03 14 c8	 add	 rdx, QWORD PTR [rax+rcx*8]
  001ee	49 8b 8f 88 00
	00 00		 mov	 rcx, QWORD PTR [r15+136]
  001f5	e8 00 00 00 00	 call	 _PyDict_GetItemId
  001fa	41 8b ce	 mov	 ecx, r14d

; 1248 : #endif
; 1249 : 
; 1250 :     why = WHY_NOT;
; 1251 :     err = 0;

  001fd	45 8b ee	 mov	 r13d, r14d
  00200	48 85 c0	 test	 rax, rax

; 1252 :     x = Py_None;        /* Not a reference, just anything non-NULL */

  00203	48 8d 05 00 00
	00 00		 lea	 rax, OFFSET FLAT:_Py_NoneStruct
  0020a	44 89 b5 98 00
	00 00		 mov	 DWORD PTR err$1$[rbp-256], r14d
  00211	0f 95 c1	 setne	 cl
  00214	4c 8b f0	 mov	 r14, rax
  00217	48 89 44 24 30	 mov	 QWORD PTR tmp$1$[rsp], rax
  0021c	89 0d 00 00 00
	00		 mov	 DWORD PTR lltrace, ecx
  00222	c7 85 90 00 00
	00 01 00 00 00	 mov	 DWORD PTR why$1$[rbp-256], 1

; 1253 :     w = NULL;
; 1254 : 
; 1255 :     if (throwflag) { /* support for generator.throw() */

  0022c	85 db		 test	 ebx, ebx
  0022e	74 1c		 je	 SHORT $LN1020@PyEval_Eva

; 1256 :         why = WHY_EXCEPTION;

  00230	bb 02 00 00 00	 mov	 ebx, 2
  00235	8b c3		 mov	 eax, ebx
  00237	89 9d 90 00 00
	00		 mov	 DWORD PTR why$1$[rbp-256], ebx

; 1257 :         goto on_error;

  0023d	e9 da 09 00 00	 jmp	 $LN1029@PyEval_Eva
$LN1064@PyEval_Eva:

; 2484 :                 ;
; 2485 :             else
; 2486 :                 break;
; 2487 :             DISPATCH();

  00242	4c 8b 64 24 40	 mov	 r12, QWORD PTR next_instr$1$[rsp]
$LN1065@PyEval_Eva:
  00247	48 8b 7c 24 38	 mov	 rdi, QWORD PTR tstate$1$[rsp]
$LN1020@PyEval_Eva:

; 3078 :             break;
; 3079 :         READ_TIMESTAMP(loop1);
; 3080 : 
; 3081 :     } /* main loop */

  0024c	48 8b 5c 24 48	 mov	 rbx, QWORD PTR co$1$[rsp]
$LN538@PyEval_Eva:

; 1258 :     }
; 1259 : 
; 1260 :     for (;;) {
; 1261 : #ifdef WITH_TSC
; 1262 :         if (inst1 == 0) {
; 1263 :             /* Almost surely, the opcode executed a break
; 1264 :                or a continue, preventing inst1 from being set
; 1265 :                on the way out of the loop.
; 1266 :             */
; 1267 :             READ_TIMESTAMP(inst1);
; 1268 :             loop1 = inst1;
; 1269 :         }
; 1270 :         dump_tsc(opcode, ticked, inst0, inst1, loop0, loop1,
; 1271 :                  intr0, intr1);
; 1272 :         ticked = 0;
; 1273 :         inst1 = 0;
; 1274 :         intr0 = 0;
; 1275 :         intr1 = 0;
; 1276 :         READ_TIMESTAMP(loop0);
; 1277 : #endif
; 1278 :         assert(stack_pointer >= f->f_valuestack); /* else underflow */

  00251	49 3b b7 98 00
	00 00		 cmp	 rsi, QWORD PTR [r15+152]
  00258	73 1a		 jae	 SHORT $LN553@PyEval_Eva
  0025a	48 8d 15 00 00
	00 00		 lea	 rdx, OFFSET FLAT:??_C@_1CE@BLKIPNIC@?$AA?4?$AA?4?$AA?2?$AAP?$AAy?$AAt?$AAh?$AAo?$AAn?$AA?2?$AAc?$AAe?$AAv?$AAa?$AAl?$AA?4?$AAc?$AA?$AA@
  00261	48 8d 0d 00 00
	00 00		 lea	 rcx, OFFSET FLAT:??_C@_1EC@PPDGCIBF@?$AAs?$AAt?$AAa?$AAc?$AAk?$AA_?$AAp?$AAo?$AAi?$AAn?$AAt?$AAe?$AAr?$AA?5?$AA?$DO?$AA?$DN?$AA?5?$AAf?$AA?9?$AA?$DO?$AAf?$AA_?$AAv?$AAa?$AAl?$AAu?$AAe?$AAs?$AAt?$AAa?$AAc?$AAk@
  00268	41 b8 fe 04 00
	00		 mov	 r8d, 1278		; 000004feH
  0026e	ff 15 00 00 00
	00		 call	 QWORD PTR __imp__wassert
$LN553@PyEval_Eva:

; 1279 :         assert(STACK_LEVEL() <= co->co_stacksize);  /* else overflow */

  00274	48 8b c6	 mov	 rax, rsi
  00277	49 2b 87 98 00
	00 00		 sub	 rax, QWORD PTR [r15+152]
  0027e	48 c1 f8 03	 sar	 rax, 3
  00282	3b 43 6c	 cmp	 eax, DWORD PTR [rbx+108]
  00285	7e 1a		 jle	 SHORT $LN554@PyEval_Eva
  00287	48 8d 15 00 00
	00 00		 lea	 rdx, OFFSET FLAT:??_C@_1CE@BLKIPNIC@?$AA?4?$AA?4?$AA?2?$AAP?$AAy?$AAt?$AAh?$AAo?$AAn?$AA?2?$AAc?$AAe?$AAv?$AAa?$AAl?$AA?4?$AAc?$AA?$AA@
  0028e	48 8d 0d 00 00
	00 00		 lea	 rcx, OFFSET FLAT:??_C@_1EE@JPIFCMJD@?$AAS?$AAT?$AAA?$AAC?$AAK?$AA_?$AAL?$AAE?$AAV?$AAE?$AAL?$AA?$CI?$AA?$CJ?$AA?5?$AA?$DM?$AA?$DN?$AA?5?$AAc?$AAo?$AA?9?$AA?$DO?$AAc?$AAo?$AA_?$AAs?$AAt?$AAa?$AAc?$AAk?$AAs?$AAi?$AAz@
  00295	41 b8 ff 04 00
	00		 mov	 r8d, 1279		; 000004ffH
  0029b	ff 15 00 00 00
	00		 call	 QWORD PTR __imp__wassert
$LN554@PyEval_Eva:

; 1280 : 
; 1281 : #ifdef WITH_PARALLEL
; 1282 :         /* Parallel threads skip the normal thread periodic tasks below. */
; 1283 : 
; 1284 :         if (tstate->is_parallel_thread) {

  002a1	83 bf a8 00 00
	00 00		 cmp	 DWORD PTR [rdi+168], 0
  002a8	0f 85 e5 00 00
	00		 jne	 $fast_next_opcode_notracing$64533

; 1285 :             goto fast_next_opcode_notracing;
; 1286 :         }
; 1287 : #endif /* WITH_PARALLEL */
; 1288 : 
; 1289 : 
; 1290 :         /* Do periodic things.  Doing this every time through
; 1291 :            the loop would add too much overhead, so we do it
; 1292 :            only every Nth instruction.  We also do it if
; 1293 :            ``pendingcalls_to_do'' is set, i.e. when an asynchronous
; 1294 :            event needs attention (e.g. a signal handler or
; 1295 :            async I/O handler); see Py_AddPendingCall() and
; 1296 :            Py_MakePendingCalls() above. */
; 1297 : 
; 1298 :         if (_Py_atomic_load_relaxed(&eval_breaker)) {

  002ae	83 3d 00 00 00
	00 00		 cmp	 DWORD PTR eval_breaker, 0
  002b5	0f 84 89 08 00
	00		 je	 $LN983@PyEval_Eva

; 1299 :             if (*next_instr == SETUP_FINALLY) {

  002bb	41 80 3c 24 7a	 cmp	 BYTE PTR [r12], 122	; 0000007aH
  002c0	0f 84 7e 08 00
	00		 je	 $LN983@PyEval_Eva

; 1300 :                 /* Make the last opcode before
; 1301 :                    a try: finally: block uninterruptible. */
; 1302 :                 goto fast_next_opcode;
; 1303 :             }
; 1304 :             tstate->tick_counter++;

  002c6	ff 87 80 00 00
	00		 inc	 DWORD PTR [rdi+128]

; 1305 : #ifdef WITH_TSC
; 1306 :             ticked = 1;
; 1307 : #endif
; 1308 :             if (_Py_atomic_load_relaxed(&pendingcalls_to_do)) {

  002cc	83 3d 00 00 00
	00 00		 cmp	 DWORD PTR pendingcalls_to_do, 0
  002d3	74 19		 je	 SHORT $LN944@PyEval_Eva

; 1309 :                 if (Py_MakePendingCalls() < 0) {

  002d5	e8 00 00 00 00	 call	 Py_MakePendingCalls
  002da	85 c0		 test	 eax, eax
  002dc	79 10		 jns	 SHORT $LN944@PyEval_Eva

; 1310 :                     why = WHY_EXCEPTION;

  002de	bb 02 00 00 00	 mov	 ebx, 2
  002e3	89 9d 90 00 00
	00		 mov	 DWORD PTR why$1$[rbp-256], ebx

; 1311 :                     goto on_error;

  002e9	e9 8a 09 00 00	 jmp	 $LN82@PyEval_Eva
$LN944@PyEval_Eva:

; 1312 :                 }
; 1313 :             }
; 1314 : #ifdef WITH_THREAD
; 1315 :             if (_Py_atomic_load_relaxed(&gil_drop_request)) {

  002ee	83 3d 00 00 00
	00 00		 cmp	 DWORD PTR gil_drop_request, 0
  002f5	74 41		 je	 SHORT $LN945@PyEval_Eva

; 1316 :                 /* Give another thread a chance */
; 1317 :                 if (PyThreadState_Swap(NULL) != tstate)

  002f7	33 c9		 xor	 ecx, ecx
  002f9	e8 00 00 00 00	 call	 PyThreadState_Swap
  002fe	48 3b c7	 cmp	 rax, rdi
  00301	74 0c		 je	 SHORT $LN530@PyEval_Eva

; 1318 :                     Py_FatalError("ceval: tstate mix-up");

  00303	48 8d 0d 00 00
	00 00		 lea	 rcx, OFFSET FLAT:??_C@_0BF@FFPEPKAJ@ceval?3?5tstate?5mix?9up?$AA@
  0030a	e8 00 00 00 00	 call	 Py_FatalError
$LN530@PyEval_Eva:

; 1319 :                 drop_gil(tstate);

  0030f	48 8b cf	 mov	 rcx, rdi
  00312	e8 00 00 00 00	 call	 drop_gil

; 1320 : 
; 1321 :                 /* Other threads may run now */
; 1322 : 
; 1323 :                 take_gil(tstate);

  00317	48 8b cf	 mov	 rcx, rdi
  0031a	e8 00 00 00 00	 call	 take_gil

; 1324 :                 if (PyThreadState_Swap(tstate) != NULL)

  0031f	48 8b cf	 mov	 rcx, rdi
  00322	e8 00 00 00 00	 call	 PyThreadState_Swap
  00327	48 85 c0	 test	 rax, rax
  0032a	74 0c		 je	 SHORT $LN945@PyEval_Eva

; 1325 :                     Py_FatalError("ceval: orphan tstate");

  0032c	48 8d 0d 00 00
	00 00		 lea	 rcx, OFFSET FLAT:??_C@_0BF@OIDPILMB@ceval?3?5orphan?5tstate?$AA@
  00333	e8 00 00 00 00	 call	 Py_FatalError
$LN945@PyEval_Eva:

; 1326 :             }
; 1327 : #endif
; 1328 :             /* Check for asynchronous exceptions. */
; 1329 :             if (tstate->async_exc != NULL) {

  00338	48 8b 87 88 00
	00 00		 mov	 rax, QWORD PTR [rdi+136]
  0033f	48 85 c0	 test	 rax, rax
  00342	0f 84 fc 07 00
	00		 je	 $LN983@PyEval_Eva

; 1330 :                 x = tstate->async_exc;

  00348	4c 8b f0	 mov	 r14, rax
  0034b	48 89 44 24 30	 mov	 QWORD PTR tmp$1$[rsp], rax

; 1331 :                 tstate->async_exc = NULL;
; 1332 :                 UNSIGNAL_ASYNC_EXC();

  00350	8b 05 00 00 00
	00		 mov	 eax, DWORD PTR gil_drop_request
  00356	0b 05 00 00 00
	00		 or	 eax, DWORD PTR pendingcalls_to_do
  0035c	45 33 e4	 xor	 r12d, r12d

; 1333 :                 PyErr_SetNone(x);

  0035f	49 8b ce	 mov	 rcx, r14
  00362	89 05 00 00 00
	00		 mov	 DWORD PTR eval_breaker, eax
  00368	4c 89 a7 88 00
	00 00		 mov	 QWORD PTR [rdi+136], r12
  0036f	44 89 25 00 00
	00 00		 mov	 DWORD PTR pending_async_exc, r12d
  00376	e8 00 00 00 00	 call	 PyErr_SetNone

; 1334 :                 Py_DECREF(x);

  0037b	49 8b ce	 mov	 rcx, r14
  0037e	e8 00 00 00 00	 call	 _Py_DecRef

; 1335 :                 why = WHY_EXCEPTION;

  00383	bb 02 00 00 00	 mov	 ebx, 2
  00388	89 9d 90 00 00
	00		 mov	 DWORD PTR why$1$[rbp-256], ebx

; 1336 :                 goto on_error;

  0038e	e9 e5 08 00 00	 jmp	 $LN82@PyEval_Eva
$fast_next_opcode_notracing$64533:

; 1362 :                 /* trace function raised an exception */
; 1363 :                 goto on_error;
; 1364 :             }
; 1365 :         }
; 1366 : 
; 1367 :         /* Extract opcode and argument */
; 1368 : #ifdef WITH_PARALLEL
; 1369 :     fast_next_opcode_notracing:
; 1370 : #endif
; 1371 :         opcode = NEXTOP();

  00393	48 8b 44 24 40	 mov	 rax, QWORD PTR next_instr$1$[rsp]

; 1372 :         oparg = 0;   /* allows oparg to be stored in a register because

  00398	45 33 ed	 xor	 r13d, r13d
  0039b	0f b6 38	 movzx	 edi, BYTE PTR [rax]
  0039e	48 ff c0	 inc	 rax
  003a1	48 89 44 24 40	 mov	 QWORD PTR next_instr$1$[rsp], rax

; 1373 :             it doesn't have to be remembered across a full loop */
; 1374 :         if (HAS_ARG(opcode))

  003a6	83 ff 5a	 cmp	 edi, 90			; 0000005aH
  003a9	7c 19		 jl	 SHORT $LN953@PyEval_Eva

; 1375 :             oparg = NEXTARG();

  003ab	44 0f b6 68 01	 movzx	 r13d, BYTE PTR [rax+1]
  003b0	48 83 c0 02	 add	 rax, 2
  003b4	48 89 44 24 40	 mov	 QWORD PTR next_instr$1$[rsp], rax
  003b9	0f b6 40 fe	 movzx	 eax, BYTE PTR [rax-2]
  003bd	41 c1 e5 08	 shl	 r13d, 8
  003c1	44 03 e8	 add	 r13d, eax
$LN953@PyEval_Eva:
  003c4	4c 8b 64 24 40	 mov	 r12, QWORD PTR next_instr$1$[rsp]
  003c9	0f 1f 80 00 00
	00 00		 npad	 7
$dispatch_opcode$64561:

; 1376 :     dispatch_opcode:
; 1377 : #ifdef DYNAMIC_EXECUTION_PROFILE
; 1378 : #ifdef DXPAIRS
; 1379 :         dxpairs[lastopcode][opcode]++;
; 1380 :         lastopcode = opcode;
; 1381 : #endif
; 1382 :         dxp[opcode]++;
; 1383 : #endif
; 1384 : 
; 1385 : #ifdef LLTRACE
; 1386 :         /* Instruction tracing */
; 1387 : 
; 1388 :         if (lltrace) {

  003d0	83 3d 00 00 00
	00 00		 cmp	 DWORD PTR lltrace, 0
  003d7	74 2e		 je	 SHORT $LN518@PyEval_Eva

; 1389 :             if (HAS_ARG(opcode)) {
; 1390 :                 printf("%d: %d, %d\n",
; 1391 :                        f->f_lasti, opcode, oparg);

  003d9	41 8b 97 d0 00
	00 00		 mov	 edx, DWORD PTR [r15+208]
  003e0	44 8b c7	 mov	 r8d, edi
  003e3	83 ff 5a	 cmp	 edi, 90			; 0000005aH
  003e6	7c 12		 jl	 SHORT $LN519@PyEval_Eva
  003e8	48 8d 0d 00 00
	00 00		 lea	 rcx, OFFSET FLAT:??_C@_0M@EEIINKGH@?$CFd?3?5?$CFd?0?5?$CFd?6?$AA@
  003ef	45 8b cd	 mov	 r9d, r13d
  003f2	ff 15 00 00 00
	00		 call	 QWORD PTR __imp_printf

; 1392 :             }
; 1393 :             else {

  003f8	eb 0d		 jmp	 SHORT $LN518@PyEval_Eva
$LN519@PyEval_Eva:

; 1394 :                 printf("%d: %d\n",
; 1395 :                        f->f_lasti, opcode);

  003fa	48 8d 0d 00 00
	00 00		 lea	 rcx, OFFSET FLAT:??_C@_07BCEPPLOH@?$CFd?3?5?$CFd?6?$AA@
  00401	ff 15 00 00 00
	00		 call	 QWORD PTR __imp_printf
$LN518@PyEval_Eva:

; 1396 :             }
; 1397 :         }
; 1398 : #endif
; 1399 : 
; 1400 :         /* Main switch on opcode */
; 1401 :         READ_TIMESTAMP(inst0);
; 1402 : 
; 1403 :         switch (opcode) {

  00407	8d 47 ff	 lea	 eax, DWORD PTR [rdi-1]
  0040a	3d 92 00 00 00	 cmp	 eax, 146		; 00000092H
  0040f	0f 87 21 37 00
	00		 ja	 $LN88@PyEval_Eva
  00415	48 8d 15 00 00
	00 00		 lea	 rdx, OFFSET FLAT:__ImageBase
  0041c	48 98		 cdqe
  0041e	0f b6 84 02 00
	00 00 00	 movzx	 eax, BYTE PTR $LN922@PyEval_Eva[rdx+rax]
  00426	8b 8c 82 00 00
	00 00		 mov	 ecx, DWORD PTR $LN923@PyEval_Eva[rdx+rax*4]
  0042d	48 03 ca	 add	 rcx, rdx
  00430	ff e1		 jmp	 rcx
$LN89@PyEval_Eva:

; 2913 :             break;
; 2914 : 
; 2915 :         TARGET(EXTENDED_ARG)
; 2916 :             opcode = NEXTOP();
; 2917 :             oparg = oparg<<16 | NEXTARG();

  00432	41 0f b6 44 24
	01		 movzx	 eax, BYTE PTR [r12+1]
  00438	41 0f b6 3c 24	 movzx	 edi, BYTE PTR [r12]
  0043d	41 0f b6 4c 24
	02		 movzx	 ecx, BYTE PTR [r12+2]
  00443	49 83 c4 03	 add	 r12, 3
  00447	c1 e1 08	 shl	 ecx, 8
  0044a	03 c8		 add	 ecx, eax
  0044c	41 8b c5	 mov	 eax, r13d
  0044f	4c 89 64 24 40	 mov	 QWORD PTR next_instr$1$[rsp], r12
  00454	c1 e0 10	 shl	 eax, 16
  00457	44 8b e9	 mov	 r13d, ecx
  0045a	44 0b e8	 or	 r13d, eax

; 2918 :             goto dispatch_opcode;

  0045d	e9 6e ff ff ff	 jmp	 $dispatch_opcode$64561
$LN514@PyEval_Eva:

; 1404 : 
; 1405 :         /* BEWARE!
; 1406 :            It is essential that any operation that fails sets either
; 1407 :            x to NULL, err to nonzero, or why to anything but WHY_NOT,
; 1408 :            and that no operation that succeeds does this! */
; 1409 : 
; 1410 :         TARGET(NOP)
; 1411 :             FAST_DISPATCH();
; 1412 : 
; 1413 :         TARGET(LOAD_FAST)
; 1414 :             x = GETLOCAL(oparg);

  00462	49 63 c5	 movsxd	 rax, r13d
  00465	4d 8b b4 c7 d0
	01 00 00	 mov	 r14, QWORD PTR [r15+rax*8+464]
  0046d	4c 89 74 24 30	 mov	 QWORD PTR tmp$1$[rsp], r14

; 1415 :             if (x != NULL) {

  00472	4d 85 f6	 test	 r14, r14
  00475	0f 84 6a 07 00
	00		 je	 $LN513@PyEval_Eva

; 1416 :                 Py_INCREF(x);

  0047b	49 8b ce	 mov	 rcx, r14
  0047e	e8 00 00 00 00	 call	 _Py_IncRef

; 1417 :                 PUSH(x);

  00483	4c 89 36	 mov	 QWORD PTR [rsi], r14
  00486	48 83 c6 08	 add	 rsi, 8
  0048a	83 3d 00 00 00
	00 00		 cmp	 DWORD PTR lltrace, 0
  00491	74 10		 je	 SHORT $LN555@PyEval_Eva
  00493	48 8b 4e f8	 mov	 rcx, QWORD PTR [rsi-8]
  00497	48 8d 15 00 00
	00 00		 lea	 rdx, OFFSET FLAT:??_C@_04GHHNIPCF@push?$AA@
  0049e	e8 00 00 00 00	 call	 prtrace
$LN555@PyEval_Eva:
  004a3	48 8b c6	 mov	 rax, rsi
  004a6	49 2b 87 98 00
	00 00		 sub	 rax, QWORD PTR [r15+152]
  004ad	48 c1 f8 03	 sar	 rax, 3
  004b1	3b 43 6c	 cmp	 eax, DWORD PTR [rbx+108]
  004b4	0f 8e 85 06 00
	00		 jle	 $LN980@PyEval_Eva
  004ba	48 8d 15 00 00
	00 00		 lea	 rdx, OFFSET FLAT:??_C@_1CE@BLKIPNIC@?$AA?4?$AA?4?$AA?2?$AAP?$AAy?$AAt?$AAh?$AAo?$AAn?$AA?2?$AAc?$AAe?$AAv?$AAa?$AAl?$AA?4?$AAc?$AA?$AA@
  004c1	48 8d 0d 00 00
	00 00		 lea	 rcx, OFFSET FLAT:??_C@_1EE@JPIFCMJD@?$AAS?$AAT?$AAA?$AAC?$AAK?$AA_?$AAL?$AAE?$AAV?$AAE?$AAL?$AA?$CI?$AA?$CJ?$AA?5?$AA?$DM?$AA?$DN?$AA?5?$AAc?$AAo?$AA?9?$AA?$DO?$AAc?$AAo?$AA_?$AAs?$AAt?$AAa?$AAc?$AAk?$AAs?$AAi?$AAz@
  004c8	41 b8 89 05 00
	00		 mov	 r8d, 1417		; 00000589H
  004ce	ff 15 00 00 00
	00		 call	 QWORD PTR __imp__wassert

; 1418 :                 FAST_DISPATCH();

  004d4	e9 66 06 00 00	 jmp	 $LN980@PyEval_Eva
$LN512@PyEval_Eva:

; 1424 : 
; 1425 :         TARGET(LOAD_CONST)
; 1426 :             x = GETITEM(consts, oparg);

  004d9	48 8b 4d b0	 mov	 rcx, QWORD PTR consts$1$[rbp-256]
  004dd	49 63 d5	 movsxd	 rdx, r13d
  004e0	e8 00 00 00 00	 call	 PyTuple_GetItem

; 1427 :             Py_INCREF(x);

  004e5	48 8b c8	 mov	 rcx, rax
  004e8	4c 8b f0	 mov	 r14, rax
  004eb	48 89 44 24 30	 mov	 QWORD PTR tmp$1$[rsp], rax
  004f0	e8 00 00 00 00	 call	 _Py_IncRef

; 1428 :             PUSH(x);

  004f5	4c 89 36	 mov	 QWORD PTR [rsi], r14
  004f8	48 83 c6 08	 add	 rsi, 8
  004fc	83 3d 00 00 00
	00 00		 cmp	 DWORD PTR lltrace, 0
  00503	74 10		 je	 SHORT $LN557@PyEval_Eva
  00505	48 8b 4e f8	 mov	 rcx, QWORD PTR [rsi-8]
  00509	48 8d 15 00 00
	00 00		 lea	 rdx, OFFSET FLAT:??_C@_04GHHNIPCF@push?$AA@
  00510	e8 00 00 00 00	 call	 prtrace
$LN557@PyEval_Eva:
  00515	48 8b c6	 mov	 rax, rsi
  00518	49 2b 87 98 00
	00 00		 sub	 rax, QWORD PTR [r15+152]
  0051f	48 c1 f8 03	 sar	 rax, 3
  00523	3b 43 6c	 cmp	 eax, DWORD PTR [rbx+108]
  00526	0f 8e 13 06 00
	00		 jle	 $LN980@PyEval_Eva
  0052c	48 8d 15 00 00
	00 00		 lea	 rdx, OFFSET FLAT:??_C@_1CE@BLKIPNIC@?$AA?4?$AA?4?$AA?2?$AAP?$AAy?$AAt?$AAh?$AAo?$AAn?$AA?2?$AAc?$AAe?$AAv?$AAa?$AAl?$AA?4?$AAc?$AA?$AA@
  00533	48 8d 0d 00 00
	00 00		 lea	 rcx, OFFSET FLAT:??_C@_1EE@JPIFCMJD@?$AAS?$AAT?$AAA?$AAC?$AAK?$AA_?$AAL?$AAE?$AAV?$AAE?$AAL?$AA?$CI?$AA?$CJ?$AA?5?$AA?$DM?$AA?$DN?$AA?5?$AAc?$AAo?$AA?9?$AA?$DO?$AAc?$AAo?$AA_?$AAs?$AAt?$AAa?$AAc?$AAk?$AAs?$AAi?$AAz@
  0053a	41 b8 94 05 00
	00		 mov	 r8d, 1428		; 00000594H
  00540	ff 15 00 00 00
	00		 call	 QWORD PTR __imp__wassert

; 1429 :             FAST_DISPATCH();

  00546	e9 f4 05 00 00	 jmp	 $LN980@PyEval_Eva
$LN503@PyEval_Eva:

; 1435 :             FAST_DISPATCH();
; 1436 : 
; 1437 :         TARGET(POP_TOP)
; 1438 :             v = POP();

  0054b	83 3d 00 00 00
	00 00		 cmp	 DWORD PTR lltrace, 0
  00552	74 10		 je	 SHORT $LN560@PyEval_Eva
  00554	48 8b 4e f8	 mov	 rcx, QWORD PTR [rsi-8]
  00558	48 8d 15 00 00
	00 00		 lea	 rdx, OFFSET FLAT:??_C@_03NJDAHFJE@pop?$AA@
  0055f	e8 00 00 00 00	 call	 prtrace
$LN560@PyEval_Eva:

; 1439 :             Py_DECREF(v);

  00564	48 8b 4e f8	 mov	 rcx, QWORD PTR [rsi-8]
  00568	48 83 ee 08	 sub	 rsi, 8

; 1440 :             FAST_DISPATCH();

  0056c	e9 c9 05 00 00	 jmp	 $LN1072@PyEval_Eva
$LN502@PyEval_Eva:

; 1441 : 
; 1442 :         TARGET(ROT_TWO)
; 1443 :             v = TOP();

  00571	48 8b 4e f8	 mov	 rcx, QWORD PTR [rsi-8]

; 1444 :             w = SECOND();
; 1445 :             SET_TOP(w);

  00575	48 8b 46 f0	 mov	 rax, QWORD PTR [rsi-16]
  00579	48 89 46 f8	 mov	 QWORD PTR [rsi-8], rax

; 1446 :             SET_SECOND(v);

  0057d	48 89 4e f0	 mov	 QWORD PTR [rsi-16], rcx

; 1447 :             FAST_DISPATCH();

  00581	e9 b9 05 00 00	 jmp	 $LN980@PyEval_Eva
$LN501@PyEval_Eva:

; 1448 : 
; 1449 :         TARGET(ROT_THREE)
; 1450 :             v = TOP();
; 1451 :             w = SECOND();
; 1452 :             x = THIRD();

  00586	4c 8b 76 e8	 mov	 r14, QWORD PTR [rsi-24]
  0058a	48 8b 4e f8	 mov	 rcx, QWORD PTR [rsi-8]

; 1453 :             SET_TOP(w);

  0058e	48 8b 46 f0	 mov	 rax, QWORD PTR [rsi-16]
  00592	4c 89 74 24 30	 mov	 QWORD PTR tmp$1$[rsp], r14
  00597	48 89 46 f8	 mov	 QWORD PTR [rsi-8], rax

; 1454 :             SET_SECOND(x);

  0059b	4c 89 76 f0	 mov	 QWORD PTR [rsi-16], r14

; 1455 :             SET_THIRD(v);

  0059f	48 89 4e e8	 mov	 QWORD PTR [rsi-24], rcx

; 1456 :             FAST_DISPATCH();

  005a3	e9 97 05 00 00	 jmp	 $LN980@PyEval_Eva
$LN500@PyEval_Eva:

; 1457 : 
; 1458 :         TARGET(DUP_TOP)
; 1459 :             v = TOP();

  005a8	48 8b 5e f8	 mov	 rbx, QWORD PTR [rsi-8]

; 1460 :             Py_INCREF(v);

  005ac	48 8b cb	 mov	 rcx, rbx
  005af	e8 00 00 00 00	 call	 _Py_IncRef

; 1461 :             PUSH(v);

  005b4	48 89 1e	 mov	 QWORD PTR [rsi], rbx
  005b7	48 83 c6 08	 add	 rsi, 8
  005bb	83 3d 00 00 00
	00 00		 cmp	 DWORD PTR lltrace, 0
  005c2	74 10		 je	 SHORT $LN561@PyEval_Eva
  005c4	48 8b 4e f8	 mov	 rcx, QWORD PTR [rsi-8]
  005c8	48 8d 15 00 00
	00 00		 lea	 rdx, OFFSET FLAT:??_C@_04GHHNIPCF@push?$AA@
  005cf	e8 00 00 00 00	 call	 prtrace
$LN561@PyEval_Eva:
  005d4	48 8b 5c 24 48	 mov	 rbx, QWORD PTR co$1$[rsp]
  005d9	48 8b c6	 mov	 rax, rsi
  005dc	49 2b 87 98 00
	00 00		 sub	 rax, QWORD PTR [r15+152]
  005e3	48 c1 f8 03	 sar	 rax, 3
  005e7	3b 43 6c	 cmp	 eax, DWORD PTR [rbx+108]
  005ea	0f 8e 4f 05 00
	00		 jle	 $LN980@PyEval_Eva
  005f0	48 8d 15 00 00
	00 00		 lea	 rdx, OFFSET FLAT:??_C@_1CE@BLKIPNIC@?$AA?4?$AA?4?$AA?2?$AAP?$AAy?$AAt?$AAh?$AAo?$AAn?$AA?2?$AAc?$AAe?$AAv?$AAa?$AAl?$AA?4?$AAc?$AA?$AA@
  005f7	48 8d 0d 00 00
	00 00		 lea	 rcx, OFFSET FLAT:??_C@_1EE@JPIFCMJD@?$AAS?$AAT?$AAA?$AAC?$AAK?$AA_?$AAL?$AAE?$AAV?$AAE?$AAL?$AA?$CI?$AA?$CJ?$AA?5?$AA?$DM?$AA?$DN?$AA?5?$AAc?$AAo?$AA?9?$AA?$DO?$AAc?$AAo?$AA_?$AAs?$AAt?$AAa?$AAc?$AAk?$AAs?$AAi?$AAz@
  005fe	41 b8 b5 05 00
	00		 mov	 r8d, 1461		; 000005b5H
  00604	ff 15 00 00 00
	00		 call	 QWORD PTR __imp__wassert

; 1462 :             FAST_DISPATCH();

  0060a	e9 30 05 00 00	 jmp	 $LN980@PyEval_Eva
$LN499@PyEval_Eva:

; 1463 : 
; 1464 :         TARGET(DUP_TOP_TWO)
; 1465 :             x = TOP();

  0060f	4c 8b 76 f8	 mov	 r14, QWORD PTR [rsi-8]

; 1466 :             Py_INCREF(x);

  00613	49 8b ce	 mov	 rcx, r14
  00616	4c 89 74 24 30	 mov	 QWORD PTR tmp$1$[rsp], r14
  0061b	e8 00 00 00 00	 call	 _Py_IncRef

; 1467 :             w = SECOND();

  00620	48 8b 5e f0	 mov	 rbx, QWORD PTR [rsi-16]

; 1468 :             Py_INCREF(w);

  00624	48 8b cb	 mov	 rcx, rbx
  00627	e8 00 00 00 00	 call	 _Py_IncRef

; 1469 :             STACKADJ(2);

  0062c	48 83 c6 10	 add	 rsi, 16
  00630	83 3d 00 00 00
	00 00		 cmp	 DWORD PTR lltrace, 0
  00637	74 10		 je	 SHORT $LN563@PyEval_Eva
  00639	48 8b 4e f8	 mov	 rcx, QWORD PTR [rsi-8]
  0063d	48 8d 15 00 00
	00 00		 lea	 rdx, OFFSET FLAT:??_C@_08OGNHIHGF@stackadj?$AA@
  00644	e8 00 00 00 00	 call	 prtrace
$LN563@PyEval_Eva:
  00649	48 8b 4c 24 48	 mov	 rcx, QWORD PTR co$1$[rsp]
  0064e	48 8b c6	 mov	 rax, rsi
  00651	49 2b 87 98 00
	00 00		 sub	 rax, QWORD PTR [r15+152]
  00658	48 c1 f8 03	 sar	 rax, 3
  0065c	3b 41 6c	 cmp	 eax, DWORD PTR [rcx+108]
  0065f	7e 1a		 jle	 SHORT $LN564@PyEval_Eva
  00661	48 8d 15 00 00
	00 00		 lea	 rdx, OFFSET FLAT:??_C@_1CE@BLKIPNIC@?$AA?4?$AA?4?$AA?2?$AAP?$AAy?$AAt?$AAh?$AAo?$AAn?$AA?2?$AAc?$AAe?$AAv?$AAa?$AAl?$AA?4?$AAc?$AA?$AA@
  00668	48 8d 0d 00 00
	00 00		 lea	 rcx, OFFSET FLAT:??_C@_1EE@JPIFCMJD@?$AAS?$AAT?$AAA?$AAC?$AAK?$AA_?$AAL?$AAE?$AAV?$AAE?$AAL?$AA?$CI?$AA?$CJ?$AA?5?$AA?$DM?$AA?$DN?$AA?5?$AAc?$AAo?$AA?9?$AA?$DO?$AAc?$AAo?$AA_?$AAs?$AAt?$AAa?$AAc?$AAk?$AAs?$AAi?$AAz@
  0066f	41 b8 bd 05 00
	00		 mov	 r8d, 1469		; 000005bdH
  00675	ff 15 00 00 00
	00		 call	 QWORD PTR __imp__wassert
$LN564@PyEval_Eva:

; 1470 :             SET_TOP(x);
; 1471 :             SET_SECOND(w);

  0067b	48 89 5e f0	 mov	 QWORD PTR [rsi-16], rbx

; 1472 :             FAST_DISPATCH();

  0067f	48 8b 5c 24 48	 mov	 rbx, QWORD PTR co$1$[rsp]
  00684	4c 89 76 f8	 mov	 QWORD PTR [rsi-8], r14
  00688	e9 b2 04 00 00	 jmp	 $LN980@PyEval_Eva
$LN223@PyEval_Eva:

; 2334 :             Py_DECREF(v);
; 2335 :             SET_TOP(x);
; 2336 :             if (x != NULL) DISPATCH();
; 2337 :             break;
; 2338 : 
; 2339 :         TARGET(COMPARE_OP)
; 2340 :             w = POP();

  0068d	83 3d 00 00 00
	00 00		 cmp	 DWORD PTR lltrace, 0
  00694	74 10		 je	 SHORT $LN666@PyEval_Eva
  00696	48 8b 4e f8	 mov	 rcx, QWORD PTR [rsi-8]
  0069a	48 8d 15 00 00
	00 00		 lea	 rdx, OFFSET FLAT:??_C@_03NJDAHFJE@pop?$AA@
  006a1	e8 00 00 00 00	 call	 prtrace
$LN666@PyEval_Eva:
  006a6	48 8b 7e f8	 mov	 rdi, QWORD PTR [rsi-8]

; 2341 :             v = TOP();

  006aa	48 8b 5e f0	 mov	 rbx, QWORD PTR [rsi-16]
  006ae	48 83 ee 08	 sub	 rsi, 8

; 2342 :             x = cmp_outcome(oparg, v, w);

  006b2	4c 8b c7	 mov	 r8, rdi
  006b5	48 8b d3	 mov	 rdx, rbx
  006b8	41 8b cd	 mov	 ecx, r13d
  006bb	e8 00 00 00 00	 call	 cmp_outcome

; 2343 :             Py_DECREF(v);

  006c0	48 8b cb	 mov	 rcx, rbx
  006c3	4c 8b f0	 mov	 r14, rax
  006c6	48 89 44 24 30	 mov	 QWORD PTR tmp$1$[rsp], rax
  006cb	e8 00 00 00 00	 call	 _Py_DecRef

; 2344 :             Py_DECREF(w);

  006d0	48 8b cf	 mov	 rcx, rdi
  006d3	e8 00 00 00 00	 call	 _Py_DecRef

; 2345 :             SET_TOP(x);

  006d8	4c 89 76 f8	 mov	 QWORD PTR [rsi-8], r14

; 2346 :             if (x == NULL) break;

  006dc	4d 85 f6	 test	 r14, r14
  006df	0f 84 25 05 00
	00		 je	 $LN1017@PyEval_Eva

; 2347 :             PREDICT(POP_JUMP_IF_FALSE);

  006e5	48 8b 4c 24 40	 mov	 rcx, QWORD PTR next_instr$1$[rsp]
  006ea	0f b6 01	 movzx	 eax, BYTE PTR [rcx]
  006ed	3c 72		 cmp	 al, 114			; 00000072H
  006ef	75 5c		 jne	 SHORT $LN221@PyEval_Eva

; 2442 : 
; 2443 :         PREDICTED_WITH_ARG(POP_JUMP_IF_FALSE);

  006f1	44 0f b6 69 02	 movzx	 r13d, BYTE PTR [rcx+2]
  006f6	0f b6 41 01	 movzx	 eax, BYTE PTR [rcx+1]
$PRED_POP_JUMP_IF_FALSE$65290:
  006fa	41 c1 e5 08	 shl	 r13d, 8
  006fe	44 03 e8	 add	 r13d, eax
  00701	48 83 c1 03	 add	 rcx, 3
  00705	48 89 4c 24 40	 mov	 QWORD PTR next_instr$1$[rsp], rcx
$LN194@PyEval_Eva:

; 2444 :         TARGET(POP_JUMP_IF_FALSE)
; 2445 :             w = POP();

  0070a	83 3d 00 00 00
	00 00		 cmp	 DWORD PTR lltrace, 0
  00711	74 10		 je	 SHORT $LN676@PyEval_Eva
  00713	48 8b 4e f8	 mov	 rcx, QWORD PTR [rsi-8]
  00717	48 8d 15 00 00
	00 00		 lea	 rdx, OFFSET FLAT:??_C@_03NJDAHFJE@pop?$AA@
  0071e	e8 00 00 00 00	 call	 prtrace
$LN676@PyEval_Eva:
  00723	48 8b 5e f8	 mov	 rbx, QWORD PTR [rsi-8]
  00727	48 83 ee 08	 sub	 rsi, 8

; 2446 :             if (w == Py_True) {

  0072b	48 8d 05 00 00
	00 00		 lea	 rax, OFFSET FLAT:_Py_TrueStruct
  00732	48 3b d8	 cmp	 rbx, rax
  00735	0f 85 a4 00 00
	00		 jne	 $LN193@PyEval_Eva
$LN1032@PyEval_Eva:

; 2447 :                 Py_DECREF(w);

  0073b	48 8b cb	 mov	 rcx, rbx
  0073e	e8 00 00 00 00	 call	 _Py_DecRef

; 2448 :                 FAST_DISPATCH();

  00743	48 8b 5c 24 48	 mov	 rbx, QWORD PTR co$1$[rsp]
  00748	e9 f2 03 00 00	 jmp	 $LN980@PyEval_Eva
$LN221@PyEval_Eva:

; 2348 :             PREDICT(POP_JUMP_IF_TRUE);

  0074d	3c 73		 cmp	 al, 115			; 00000073H
  0074f	0f 85 ed fa ff
	ff		 jne	 $LN1064@PyEval_Eva

; 2464 : 
; 2465 :         PREDICTED_WITH_ARG(POP_JUMP_IF_TRUE);

  00755	44 0f b6 69 02	 movzx	 r13d, BYTE PTR [rcx+2]
  0075a	0f b6 41 01	 movzx	 eax, BYTE PTR [rcx+1]
$PRED_POP_JUMP_IF_TRUE$65292:
  0075e	41 c1 e5 08	 shl	 r13d, 8
  00762	44 03 e8	 add	 r13d, eax
  00765	48 83 c1 03	 add	 rcx, 3
  00769	48 89 4c 24 40	 mov	 QWORD PTR next_instr$1$[rsp], rcx
$LN187@PyEval_Eva:

; 2466 :         TARGET(POP_JUMP_IF_TRUE)
; 2467 :             w = POP();

  0076e	83 3d 00 00 00
	00 00		 cmp	 DWORD PTR lltrace, 0
  00775	74 10		 je	 SHORT $LN677@PyEval_Eva
  00777	48 8b 4e f8	 mov	 rcx, QWORD PTR [rsi-8]
  0077b	48 8d 15 00 00
	00 00		 lea	 rdx, OFFSET FLAT:??_C@_03NJDAHFJE@pop?$AA@
  00782	e8 00 00 00 00	 call	 prtrace
$LN677@PyEval_Eva:
  00787	48 8b 5e f8	 mov	 rbx, QWORD PTR [rsi-8]
  0078b	48 83 ee 08	 sub	 rsi, 8

; 2468 :             if (w == Py_False) {

  0078f	48 8d 05 00 00
	00 00		 lea	 rax, OFFSET FLAT:_Py_FalseStruct
  00796	48 3b d8	 cmp	 rbx, rax

; 2469 :                 Py_DECREF(w);
; 2470 :                 FAST_DISPATCH();

  00799	74 a0		 je	 SHORT $LN1032@PyEval_Eva

; 2471 :             }
; 2472 :             if (w == Py_True) {

  0079b	48 8d 05 00 00
	00 00		 lea	 rax, OFFSET FLAT:_Py_TrueStruct

; 2473 :                 Py_DECREF(w);

  007a2	48 8b cb	 mov	 rcx, rbx
  007a5	48 3b d8	 cmp	 rbx, rax
  007a8	0f 85 34 05 00
	00		 jne	 $LN185@PyEval_Eva
  007ae	e8 00 00 00 00	 call	 _Py_DecRef

; 2474 :                 JUMPTO(oparg);
; 2475 :                 FAST_DISPATCH();

  007b3	48 8b 7c 24 38	 mov	 rdi, QWORD PTR tstate$1$[rsp]
  007b8	48 8b 5c 24 48	 mov	 rbx, QWORD PTR co$1$[rsp]
  007bd	4d 63 dd	 movsxd	 r11, r13d
  007c0	4c 03 5c 24 50	 add	 r11, QWORD PTR first_instr$1$[rsp]
  007c5	4c 89 5c 24 40	 mov	 QWORD PTR next_instr$1$[rsp], r11
  007ca	e9 7a 03 00 00	 jmp	 $fast_next_opcode$64536
$LN195@PyEval_Eva:

; 2438 : 
; 2439 :         TARGET(JUMP_FORWARD)
; 2440 :             JUMPBY(oparg);

  007cf	49 63 c5	 movsxd	 rax, r13d
  007d2	4c 03 e0	 add	 r12, rax
  007d5	4c 89 64 24 40	 mov	 QWORD PTR next_instr$1$[rsp], r12

; 2441 :             FAST_DISPATCH();

  007da	e9 60 03 00 00	 jmp	 $LN980@PyEval_Eva
$LN193@PyEval_Eva:

; 2449 :             }
; 2450 :             if (w == Py_False) {

  007df	48 8d 05 00 00
	00 00		 lea	 rax, OFFSET FLAT:_Py_FalseStruct

; 2451 :                 Py_DECREF(w);

  007e6	48 8b cb	 mov	 rcx, rbx
  007e9	48 3b d8	 cmp	 rbx, rax
  007ec	0f 85 b2 04 00
	00		 jne	 $LN192@PyEval_Eva
  007f2	e8 00 00 00 00	 call	 _Py_DecRef
$LN1033@PyEval_Eva:

; 2452 :                 JUMPTO(oparg);
; 2453 :                 FAST_DISPATCH();

  007f7	48 8b 7c 24 38	 mov	 rdi, QWORD PTR tstate$1$[rsp]
  007fc	48 8b 5c 24 48	 mov	 rbx, QWORD PTR co$1$[rsp]
  00801	4d 63 dd	 movsxd	 r11, r13d
  00804	4c 03 5c 24 50	 add	 r11, QWORD PTR first_instr$1$[rsp]
  00809	4c 89 5c 24 40	 mov	 QWORD PTR next_instr$1$[rsp], r11
  0080e	e9 36 03 00 00	 jmp	 $fast_next_opcode$64536
$LN180@PyEval_Eva:

; 2488 : 
; 2489 :         TARGET(JUMP_IF_FALSE_OR_POP)
; 2490 :             w = TOP();

  00813	48 8b 5e f8	 mov	 rbx, QWORD PTR [rsi-8]
  00817	48 8d 46 f8	 lea	 rax, QWORD PTR [rsi-8]

; 2491 :             if (w == Py_True) {

  0081b	48 8d 0d 00 00
	00 00		 lea	 rcx, OFFSET FLAT:_Py_TrueStruct
  00822	48 3b d9	 cmp	 rbx, rcx
  00825	75 64		 jne	 SHORT $LN179@PyEval_Eva

; 2492 :                 STACKADJ(-1);

  00827	83 3d 00 00 00
	00 00		 cmp	 DWORD PTR lltrace, 0
  0082e	48 8b f0	 mov	 rsi, rax
  00831	74 10		 je	 SHORT $LN678@PyEval_Eva
  00833	48 8b 48 f8	 mov	 rcx, QWORD PTR [rax-8]
  00837	48 8d 15 00 00
	00 00		 lea	 rdx, OFFSET FLAT:??_C@_08OGNHIHGF@stackadj?$AA@
  0083e	e8 00 00 00 00	 call	 prtrace
$LN678@PyEval_Eva:
  00843	48 8b 4c 24 48	 mov	 rcx, QWORD PTR co$1$[rsp]
  00848	48 8b c6	 mov	 rax, rsi
  0084b	49 2b 87 98 00
	00 00		 sub	 rax, QWORD PTR [r15+152]
  00852	48 c1 f8 03	 sar	 rax, 3
  00856	3b 41 6c	 cmp	 eax, DWORD PTR [rcx+108]
  00859	0f 8e dc fe ff
	ff		 jle	 $LN1032@PyEval_Eva
  0085f	48 8d 15 00 00
	00 00		 lea	 rdx, OFFSET FLAT:??_C@_1CE@BLKIPNIC@?$AA?4?$AA?4?$AA?2?$AAP?$AAy?$AAt?$AAh?$AAo?$AAn?$AA?2?$AAc?$AAe?$AAv?$AAa?$AAl?$AA?4?$AAc?$AA?$AA@
  00866	48 8d 0d 00 00
	00 00		 lea	 rcx, OFFSET FLAT:??_C@_1EE@JPIFCMJD@?$AAS?$AAT?$AAA?$AAC?$AAK?$AA_?$AAL?$AAE?$AAV?$AAE?$AAL?$AA?$CI?$AA?$CJ?$AA?5?$AA?$DM?$AA?$DN?$AA?5?$AAc?$AAo?$AA?9?$AA?$DO?$AAc?$AAo?$AA_?$AAs?$AAt?$AAa?$AAc?$AAk?$AAs?$AAi?$AAz@
  0086d	41 b8 bc 09 00
	00		 mov	 r8d, 2492		; 000009bcH
  00873	ff 15 00 00 00
	00		 call	 QWORD PTR __imp__wassert
  00879	48 8b cb	 mov	 rcx, rbx
  0087c	e8 00 00 00 00	 call	 _Py_DecRef
  00881	48 8b 5c 24 48	 mov	 rbx, QWORD PTR co$1$[rsp]
  00886	e9 b4 02 00 00	 jmp	 $LN980@PyEval_Eva
$LN179@PyEval_Eva:

; 2493 :                 Py_DECREF(w);
; 2494 :                 FAST_DISPATCH();
; 2495 :             }
; 2496 :             if (w == Py_False) {

  0088b	48 8d 05 00 00
	00 00		 lea	 rax, OFFSET FLAT:_Py_FalseStruct
  00892	48 3b d8	 cmp	 rbx, rax
  00895	0f 84 5c ff ff
	ff		 je	 $LN1033@PyEval_Eva

; 2497 :                 JUMPTO(oparg);
; 2498 :                 FAST_DISPATCH();
; 2499 :             }
; 2500 :             err = PyObject_IsTrue(w);

  0089b	48 8b cb	 mov	 rcx, rbx
  0089e	e8 00 00 00 00	 call	 PyObject_IsTrue
  008a3	89 85 98 00 00
	00		 mov	 DWORD PTR err$1$[rbp-256], eax

; 2501 :             if (err > 0) {

  008a9	85 c0		 test	 eax, eax
  008ab	0f 8e 74 04 00
	00		 jle	 $LN1035@PyEval_Eva

; 2502 :                 STACKADJ(-1);

  008b1	48 83 ee 08	 sub	 rsi, 8
  008b5	83 3d 00 00 00
	00 00		 cmp	 DWORD PTR lltrace, 0
  008bc	74 10		 je	 SHORT $LN680@PyEval_Eva
  008be	48 8b 4e f8	 mov	 rcx, QWORD PTR [rsi-8]
  008c2	48 8d 15 00 00
	00 00		 lea	 rdx, OFFSET FLAT:??_C@_08OGNHIHGF@stackadj?$AA@
  008c9	e8 00 00 00 00	 call	 prtrace
$LN680@PyEval_Eva:
  008ce	48 8b 4c 24 48	 mov	 rcx, QWORD PTR co$1$[rsp]
  008d3	48 8b c6	 mov	 rax, rsi
  008d6	49 2b 87 98 00
	00 00		 sub	 rax, QWORD PTR [r15+152]
  008dd	48 c1 f8 03	 sar	 rax, 3
  008e1	3b 41 6c	 cmp	 eax, DWORD PTR [rcx+108]
  008e4	7e 1a		 jle	 SHORT $LN681@PyEval_Eva
  008e6	48 8d 15 00 00
	00 00		 lea	 rdx, OFFSET FLAT:??_C@_1CE@BLKIPNIC@?$AA?4?$AA?4?$AA?2?$AAP?$AAy?$AAt?$AAh?$AAo?$AAn?$AA?2?$AAc?$AAe?$AAv?$AAa?$AAl?$AA?4?$AAc?$AA?$AA@
  008ed	48 8d 0d 00 00
	00 00		 lea	 rcx, OFFSET FLAT:??_C@_1EE@JPIFCMJD@?$AAS?$AAT?$AAA?$AAC?$AAK?$AA_?$AAL?$AAE?$AAV?$AAE?$AAL?$AA?$CI?$AA?$CJ?$AA?5?$AA?$DM?$AA?$DN?$AA?5?$AAc?$AAo?$AA?9?$AA?$DO?$AAc?$AAo?$AA_?$AAs?$AAt?$AAa?$AAc?$AAk?$AAs?$AAi?$AAz@
  008f4	41 b8 c6 09 00
	00		 mov	 r8d, 2502		; 000009c6H
  008fa	ff 15 00 00 00
	00		 call	 QWORD PTR __imp__wassert
$LN681@PyEval_Eva:

; 2503 :                 Py_DECREF(w);

  00900	48 8b cb	 mov	 rcx, rbx
  00903	e8 00 00 00 00	 call	 _Py_DecRef

; 2504 :                 err = 0;

  00908	33 ff		 xor	 edi, edi
  0090a	89 bd 98 00 00
	00		 mov	 DWORD PTR err$1$[rbp-256], edi
  00910	e9 32 f9 ff ff	 jmp	 $LN1065@PyEval_Eva
$LN173@PyEval_Eva:

; 2511 : 
; 2512 :         TARGET(JUMP_IF_TRUE_OR_POP)
; 2513 :             w = TOP();

  00915	48 8b 5e f8	 mov	 rbx, QWORD PTR [rsi-8]
  00919	48 8d 46 f8	 lea	 rax, QWORD PTR [rsi-8]

; 2514 :             if (w == Py_False) {

  0091d	48 8d 0d 00 00
	00 00		 lea	 rcx, OFFSET FLAT:_Py_FalseStruct
  00924	48 3b d9	 cmp	 rbx, rcx
  00927	75 64		 jne	 SHORT $LN172@PyEval_Eva

; 2515 :                 STACKADJ(-1);

  00929	83 3d 00 00 00
	00 00		 cmp	 DWORD PTR lltrace, 0
  00930	48 8b f0	 mov	 rsi, rax
  00933	74 10		 je	 SHORT $LN682@PyEval_Eva
  00935	48 8b 48 f8	 mov	 rcx, QWORD PTR [rax-8]
  00939	48 8d 15 00 00
	00 00		 lea	 rdx, OFFSET FLAT:??_C@_08OGNHIHGF@stackadj?$AA@
  00940	e8 00 00 00 00	 call	 prtrace
$LN682@PyEval_Eva:
  00945	48 8b 4c 24 48	 mov	 rcx, QWORD PTR co$1$[rsp]
  0094a	48 8b c6	 mov	 rax, rsi
  0094d	49 2b 87 98 00
	00 00		 sub	 rax, QWORD PTR [r15+152]
  00954	48 c1 f8 03	 sar	 rax, 3
  00958	3b 41 6c	 cmp	 eax, DWORD PTR [rcx+108]
  0095b	0f 8e da fd ff
	ff		 jle	 $LN1032@PyEval_Eva
  00961	48 8d 15 00 00
	00 00		 lea	 rdx, OFFSET FLAT:??_C@_1CE@BLKIPNIC@?$AA?4?$AA?4?$AA?2?$AAP?$AAy?$AAt?$AAh?$AAo?$AAn?$AA?2?$AAc?$AAe?$AAv?$AAa?$AAl?$AA?4?$AAc?$AA?$AA@
  00968	48 8d 0d 00 00
	00 00		 lea	 rcx, OFFSET FLAT:??_C@_1EE@JPIFCMJD@?$AAS?$AAT?$AAA?$AAC?$AAK?$AA_?$AAL?$AAE?$AAV?$AAE?$AAL?$AA?$CI?$AA?$CJ?$AA?5?$AA?$DM?$AA?$DN?$AA?5?$AAc?$AAo?$AA?9?$AA?$DO?$AAc?$AAo?$AA_?$AAs?$AAt?$AAa?$AAc?$AAk?$AAs?$AAi?$AAz@
  0096f	41 b8 d3 09 00
	00		 mov	 r8d, 2515		; 000009d3H
  00975	ff 15 00 00 00
	00		 call	 QWORD PTR __imp__wassert
  0097b	48 8b cb	 mov	 rcx, rbx
  0097e	e8 00 00 00 00	 call	 _Py_DecRef
  00983	48 8b 5c 24 48	 mov	 rbx, QWORD PTR co$1$[rsp]
  00988	e9 b2 01 00 00	 jmp	 $LN980@PyEval_Eva
$LN172@PyEval_Eva:

; 2516 :                 Py_DECREF(w);
; 2517 :                 FAST_DISPATCH();
; 2518 :             }
; 2519 :             if (w == Py_True) {

  0098d	48 8d 05 00 00
	00 00		 lea	 rax, OFFSET FLAT:_Py_TrueStruct
  00994	48 3b d8	 cmp	 rbx, rax
  00997	0f 84 5a fe ff
	ff		 je	 $LN1033@PyEval_Eva

; 2520 :                 JUMPTO(oparg);
; 2521 :                 FAST_DISPATCH();
; 2522 :             }
; 2523 :             err = PyObject_IsTrue(w);

  0099d	48 8b cb	 mov	 rcx, rbx
  009a0	e8 00 00 00 00	 call	 PyObject_IsTrue
  009a5	89 85 98 00 00
	00		 mov	 DWORD PTR err$1$[rbp-256], eax

; 2524 :             if (err > 0) {

  009ab	85 c0		 test	 eax, eax

; 2525 :                 err = 0;
; 2526 :                 JUMPTO(oparg);

  009ad	0f 8f 48 03 00
	00		 jg	 $LN1036@PyEval_Eva

; 2527 :             }
; 2528 :             else if (err == 0) {

  009b3	44 8b e8	 mov	 r13d, eax
  009b6	85 c0		 test	 eax, eax
  009b8	0f 85 53 02 00
	00		 jne	 $LN1039@PyEval_Eva

; 2529 :                 STACKADJ(-1);

  009be	48 83 ee 08	 sub	 rsi, 8
  009c2	39 05 00 00 00
	00		 cmp	 DWORD PTR lltrace, eax
  009c8	74 10		 je	 SHORT $LN684@PyEval_Eva
  009ca	48 8b 4e f8	 mov	 rcx, QWORD PTR [rsi-8]
  009ce	48 8d 15 00 00
	00 00		 lea	 rdx, OFFSET FLAT:??_C@_08OGNHIHGF@stackadj?$AA@
  009d5	e8 00 00 00 00	 call	 prtrace
$LN684@PyEval_Eva:
  009da	48 8b 4c 24 48	 mov	 rcx, QWORD PTR co$1$[rsp]
  009df	48 8b c6	 mov	 rax, rsi
  009e2	49 2b 87 98 00
	00 00		 sub	 rax, QWORD PTR [r15+152]
  009e9	48 c1 f8 03	 sar	 rax, 3
  009ed	3b 41 6c	 cmp	 eax, DWORD PTR [rcx+108]
  009f0	7e 1a		 jle	 SHORT $LN685@PyEval_Eva
  009f2	48 8d 15 00 00
	00 00		 lea	 rdx, OFFSET FLAT:??_C@_1CE@BLKIPNIC@?$AA?4?$AA?4?$AA?2?$AAP?$AAy?$AAt?$AAh?$AAo?$AAn?$AA?2?$AAc?$AAe?$AAv?$AAa?$AAl?$AA?4?$AAc?$AA?$AA@
  009f9	48 8d 0d 00 00
	00 00		 lea	 rcx, OFFSET FLAT:??_C@_1EE@JPIFCMJD@?$AAS?$AAT?$AAA?$AAC?$AAK?$AA_?$AAL?$AAE?$AAV?$AAE?$AAL?$AA?$CI?$AA?$CJ?$AA?5?$AA?$DM?$AA?$DN?$AA?5?$AAc?$AAo?$AA?9?$AA?$DO?$AAc?$AAo?$AA_?$AAs?$AAt?$AAa?$AAc?$AAk?$AAs?$AAi?$AAz@
  00a00	41 b8 e1 09 00
	00		 mov	 r8d, 2529		; 000009e1H
  00a06	ff 15 00 00 00
	00		 call	 QWORD PTR __imp__wassert
$LN685@PyEval_Eva:

; 2530 :                 Py_DECREF(w);

  00a0c	48 8b cb	 mov	 rcx, rbx
  00a0f	e8 00 00 00 00	 call	 _Py_DecRef

; 2531 :             }
; 2532 :             else
; 2533 :                 break;
; 2534 :             DISPATCH();

  00a14	e9 2e f8 ff ff	 jmp	 $LN1065@PyEval_Eva
$LN165@PyEval_Eva:

; 2550 : #endif
; 2551 : 
; 2552 :         TARGET(GET_ITER)
; 2553 :             /* before: [obj]; after [getiter(obj)] */
; 2554 :             v = TOP();

  00a19	48 8b 5e f8	 mov	 rbx, QWORD PTR [rsi-8]

; 2555 :             x = PyObject_GetIter(v);

  00a1d	48 8b cb	 mov	 rcx, rbx
  00a20	e8 00 00 00 00	 call	 PyObject_GetIter

; 2556 :             Py_DECREF(v);

  00a25	48 8b cb	 mov	 rcx, rbx
  00a28	4c 8b f0	 mov	 r14, rax
  00a2b	48 89 44 24 30	 mov	 QWORD PTR tmp$1$[rsp], rax
  00a30	e8 00 00 00 00	 call	 _Py_DecRef

; 2557 :             if (x != NULL) {

  00a35	4d 85 f6	 test	 r14, r14
  00a38	0f 84 ff 02 00
	00		 je	 $LN164@PyEval_Eva

; 2558 :                 SET_TOP(x);
; 2559 :                 PREDICT(FOR_ITER);

  00a3e	48 8b 4c 24 40	 mov	 rcx, QWORD PTR next_instr$1$[rsp]
  00a43	4c 89 76 f8	 mov	 QWORD PTR [rsi-8], r14
  00a47	80 39 5d	 cmp	 BYTE PTR [rcx], 93	; 0000005dH
  00a4a	0f 85 f2 f7 ff
	ff		 jne	 $LN1064@PyEval_Eva

; 2564 : 
; 2565 :         PREDICTED_WITH_ARG(FOR_ITER);

  00a50	44 0f b6 69 02	 movzx	 r13d, BYTE PTR [rcx+2]
  00a55	0f b6 41 01	 movzx	 eax, BYTE PTR [rcx+1]
  00a59	48 8b 5c 24 48	 mov	 rbx, QWORD PTR co$1$[rsp]
  00a5e	41 c1 e5 08	 shl	 r13d, 8
$PRED_FOR_ITER$65414:
  00a62	44 03 e8	 add	 r13d, eax
  00a65	48 83 c1 03	 add	 rcx, 3
  00a69	48 89 4c 24 40	 mov	 QWORD PTR next_instr$1$[rsp], rcx
$LN162@PyEval_Eva:

; 2566 :         TARGET(FOR_ITER)
; 2567 :             /* before: [iter]; after: [iter, iter()] *or* [] */
; 2568 :             v = TOP();

  00a6e	48 8b 4e f8	 mov	 rcx, QWORD PTR [rsi-8]

; 2569 :             x = (*v->ob_type->tp_iternext)(v);

  00a72	48 8b 41 58	 mov	 rax, QWORD PTR [rcx+88]
  00a76	ff 90 38 01 00
	00		 call	 QWORD PTR [rax+312]
  00a7c	4c 8b f0	 mov	 r14, rax
  00a7f	48 89 44 24 30	 mov	 QWORD PTR tmp$1$[rsp], rax

; 2570 :             if (x != NULL) {

  00a84	48 85 c0	 test	 rax, rax
  00a87	0f 84 06 04 00
	00		 je	 $LN161@PyEval_Eva

; 2571 :                 PUSH(x);

  00a8d	48 89 06	 mov	 QWORD PTR [rsi], rax
  00a90	48 83 c6 08	 add	 rsi, 8
  00a94	83 3d 00 00 00
	00 00		 cmp	 DWORD PTR lltrace, 0
  00a9b	74 10		 je	 SHORT $LN688@PyEval_Eva
  00a9d	48 8b 4e f8	 mov	 rcx, QWORD PTR [rsi-8]
  00aa1	48 8d 15 00 00
	00 00		 lea	 rdx, OFFSET FLAT:??_C@_04GHHNIPCF@push?$AA@
  00aa8	e8 00 00 00 00	 call	 prtrace
$LN688@PyEval_Eva:
  00aad	48 8b c6	 mov	 rax, rsi
  00ab0	49 2b 87 98 00
	00 00		 sub	 rax, QWORD PTR [r15+152]
  00ab7	48 c1 f8 03	 sar	 rax, 3
  00abb	3b 43 6c	 cmp	 eax, DWORD PTR [rbx+108]
  00abe	7e 1a		 jle	 SHORT $LN689@PyEval_Eva
  00ac0	48 8d 15 00 00
	00 00		 lea	 rdx, OFFSET FLAT:??_C@_1CE@BLKIPNIC@?$AA?4?$AA?4?$AA?2?$AAP?$AAy?$AAt?$AAh?$AAo?$AAn?$AA?2?$AAc?$AAe?$AAv?$AAa?$AAl?$AA?4?$AAc?$AA?$AA@
  00ac7	48 8d 0d 00 00
	00 00		 lea	 rcx, OFFSET FLAT:??_C@_1EE@JPIFCMJD@?$AAS?$AAT?$AAA?$AAC?$AAK?$AA_?$AAL?$AAE?$AAV?$AAE?$AAL?$AA?$CI?$AA?$CJ?$AA?5?$AA?$DM?$AA?$DN?$AA?5?$AAc?$AAo?$AA?9?$AA?$DO?$AAc?$AAo?$AA_?$AAs?$AAt?$AAa?$AAc?$AAk?$AAs?$AAi?$AAz@
  00ace	41 b8 0b 0a 00
	00		 mov	 r8d, 2571		; 00000a0bH
  00ad4	ff 15 00 00 00
	00		 call	 QWORD PTR __imp__wassert
$LN689@PyEval_Eva:

; 2572 :                 PREDICT(STORE_FAST);

  00ada	48 8b 4c 24 40	 mov	 rcx, QWORD PTR next_instr$1$[rsp]
  00adf	80 39 7d	 cmp	 BYTE PTR [rcx], 125	; 0000007dH
  00ae2	0f 85 ad 02 00
	00		 jne	 $LN160@PyEval_Eva

; 1430 : 
; 1431 :         PREDICTED_WITH_ARG(STORE_FAST);

  00ae8	44 0f b6 69 02	 movzx	 r13d, BYTE PTR [rcx+2]
  00aed	0f b6 41 01	 movzx	 eax, BYTE PTR [rcx+1]
$PRED_STORE_FAST$64586:
  00af1	41 c1 e5 08	 shl	 r13d, 8
  00af5	44 03 e8	 add	 r13d, eax
  00af8	48 83 c1 03	 add	 rcx, 3
  00afc	48 89 4c 24 40	 mov	 QWORD PTR next_instr$1$[rsp], rcx
$LN511@PyEval_Eva:

; 1432 :         TARGET(STORE_FAST)
; 1433 :             v = POP();

  00b01	83 3d 00 00 00
	00 00		 cmp	 DWORD PTR lltrace, 0
  00b08	74 10		 je	 SHORT $LN559@PyEval_Eva
  00b0a	48 8b 4e f8	 mov	 rcx, QWORD PTR [rsi-8]
  00b0e	48 8d 15 00 00
	00 00		 lea	 rdx, OFFSET FLAT:??_C@_03NJDAHFJE@pop?$AA@
  00b15	e8 00 00 00 00	 call	 prtrace
$LN559@PyEval_Eva:

; 1434 :             SETLOCAL(oparg, v);

  00b1a	48 8b 46 f8	 mov	 rax, QWORD PTR [rsi-8]
  00b1e	49 63 d5	 movsxd	 rdx, r13d
  00b21	48 83 ee 08	 sub	 rsi, 8
  00b25	49 8b 8c d7 d0
	01 00 00	 mov	 rcx, QWORD PTR [r15+rdx*8+464]
  00b2d	49 89 84 d7 d0
	01 00 00	 mov	 QWORD PTR [r15+rdx*8+464], rax
  00b35	48 85 c9	 test	 rcx, rcx
  00b38	74 05		 je	 SHORT $LN980@PyEval_Eva
$LN1072@PyEval_Eva:
  00b3a	e8 00 00 00 00	 call	 _Py_DecRef
$LN980@PyEval_Eva:

; 2989 : 
; 2990 :             if (tstate->c_tracefunc != NULL)

  00b3f	48 8b 7c 24 38	 mov	 rdi, QWORD PTR tstate$1$[rsp]
$LN983@PyEval_Eva:

; 1434 :             SETLOCAL(oparg, v);

  00b44	4c 8b 5c 24 40	 mov	 r11, QWORD PTR next_instr$1$[rsp]
$fast_next_opcode$64536:

; 1337 :             }
; 1338 :         }
; 1339 : 
; 1340 :     fast_next_opcode:
; 1341 :         f->f_lasti = INSTR_OFFSET();

  00b49	41 8b c3	 mov	 eax, r11d
  00b4c	2b 44 24 50	 sub	 eax, DWORD PTR first_instr$1$[rsp]

; 1342 : 
; 1343 :         /* line-by-line tracing support */
; 1344 : 
; 1345 :         if (_Py_TracingPossible &&
; 1346 :             tstate->c_tracefunc != NULL && !tstate->tracing) {

  00b50	83 3d 00 00 00
	00 00		 cmp	 DWORD PTR _Py_TracingPossible, 0
  00b57	41 89 87 d0 00
	00 00		 mov	 DWORD PTR [r15+208], eax
  00b5e	0f 84 2f f8 ff
	ff		 je	 $fast_next_opcode_notracing$64533
  00b64	48 83 7f 30 00	 cmp	 QWORD PTR [rdi+48], 0
  00b69	0f 84 24 f8 ff
	ff		 je	 $fast_next_opcode_notracing$64533
  00b6f	83 7f 20 00	 cmp	 DWORD PTR [rdi+32], 0
  00b73	0f 85 1a f8 ff
	ff		 jne	 $fast_next_opcode_notracing$64533

; 1347 :             /* see maybe_call_line_trace
; 1348 :                for expository comments */
; 1349 :             f->f_stacktop = stack_pointer;

  00b79	49 89 b7 a0 00
	00 00		 mov	 QWORD PTR [r15+160], rsi

; 1350 : 
; 1351 :             err = maybe_call_line_trace(tstate->c_tracefunc,
; 1352 :                                         tstate->c_traceobj,
; 1353 :                                         f, &instr_lb, &instr_ub,
; 1354 :                                         &instr_prev);

  00b80	48 8b 57 40	 mov	 rdx, QWORD PTR [rdi+64]
  00b84	48 8b 4f 30	 mov	 rcx, QWORD PTR [rdi+48]
  00b88	48 8d 45 88	 lea	 rax, QWORD PTR instr_prev$[rbp-256]
  00b8c	4c 8d 4d 8c	 lea	 r9, QWORD PTR instr_lb$[rbp-256]
  00b90	4d 8b c7	 mov	 r8, r15
  00b93	48 89 44 24 28	 mov	 QWORD PTR [rsp+40], rax
  00b98	48 8d 45 98	 lea	 rax, QWORD PTR instr_ub$[rbp-256]
  00b9c	48 89 44 24 20	 mov	 QWORD PTR [rsp+32], rax
  00ba1	e8 00 00 00 00	 call	 maybe_call_line_trace

; 1355 :             /* Reload possibly changed frame fields */
; 1356 :             JUMPTO(f->f_lasti);

  00ba6	4d 63 9f d0 00
	00 00		 movsxd	 r11, DWORD PTR [r15+208]
  00bad	4c 03 5c 24 50	 add	 r11, QWORD PTR first_instr$1$[rsp]
  00bb2	44 8b e8	 mov	 r13d, eax
  00bb5	89 85 98 00 00
	00		 mov	 DWORD PTR err$1$[rbp-256], eax

; 1357 :             if (f->f_stacktop != NULL) {

  00bbb	49 8b 87 a0 00
	00 00		 mov	 rax, QWORD PTR [r15+160]
  00bc2	4c 89 5c 24 40	 mov	 QWORD PTR next_instr$1$[rsp], r11
  00bc7	48 85 c0	 test	 rax, rax
  00bca	74 0e		 je	 SHORT $LN523@PyEval_Eva

; 1358 :                 stack_pointer = f->f_stacktop;

  00bcc	48 8b f0	 mov	 rsi, rax

; 1359 :                 f->f_stacktop = NULL;

  00bcf	49 c7 87 a0 00
	00 00 00 00 00
	00		 mov	 QWORD PTR [r15+160], 0
$LN523@PyEval_Eva:

; 1360 :             }
; 1361 :             if (err) {

  00bda	45 85 ed	 test	 r13d, r13d
  00bdd	0f 84 b0 f7 ff
	ff		 je	 $fast_next_opcode_notracing$64533
  00be3	eb 2c		 jmp	 SHORT $LN1039@PyEval_Eva
$LN513@PyEval_Eva:

; 1419 :             }
; 1420 :             format_exc_check_arg(PyExc_UnboundLocalError,
; 1421 :                 UNBOUNDLOCAL_ERROR_MSG,
; 1422 :                 PyTuple_GetItem(co->co_varnames, oparg));

  00be5	49 63 d5	 movsxd	 rdx, r13d
$LN261@PyEval_Eva:
  00be8	48 8b 8b 90 00
	00 00		 mov	 rcx, QWORD PTR [rbx+144]
  00bef	e8 00 00 00 00	 call	 PyTuple_GetItem
  00bf4	48 8b 0d 00 00
	00 00		 mov	 rcx, QWORD PTR PyExc_UnboundLocalError
  00bfb	48 8d 15 00 00
	00 00		 lea	 rdx, OFFSET FLAT:??_C@_0DF@HKMDOJCI@local?5variable?5?8?$CF?4200s?8?5referenc@
  00c02	4c 8b c0	 mov	 r8, rax
$LN1056@PyEval_Eva:

; 2164 :                                 format_exc_check_arg(
; 2165 :                                             PyExc_NameError,
; 2166 :                                             NAME_ERROR_MSG, w);

  00c05	e8 00 00 00 00	 call	 format_exc_check_arg
$LN1017@PyEval_Eva:

; 1423 :             break;

  00c0a	44 8b ad 98 00
	00 00		 mov	 r13d, DWORD PTR err$1$[rbp-256]
$LN1039@PyEval_Eva:
  00c11	bb 02 00 00 00	 mov	 ebx, 2
$LN1046@PyEval_Eva:
  00c16	8b 85 90 00 00
	00		 mov	 eax, DWORD PTR why$1$[rbp-256]
$LN1029@PyEval_Eva:
  00c1c	45 33 e4	 xor	 r12d, r12d
$LN1042@PyEval_Eva:
  00c1f	48 8d 3d 00 00
	00 00		 lea	 rdi, OFFSET FLAT:_Py_NoneStruct
$on_error$64523:

; 2930 :             break;
; 2931 : 
; 2932 : #ifdef CASE_TOO_BIG
; 2933 :         }
; 2934 : #endif
; 2935 : 
; 2936 :         } /* switch */
; 2937 : 
; 2938 :         on_error:
; 2939 : 
; 2940 :         READ_TIMESTAMP(inst1);
; 2941 : 
; 2942 :         /* Quickly continue if no error occurred */
; 2943 : 
; 2944 :         if (why == WHY_NOT) {

  00c26	83 f8 01	 cmp	 eax, 1
  00c29	0f 85 95 2e 00
	00		 jne	 $LN87@PyEval_Eva

; 2945 :             if (err == 0 && x != NULL) {

  00c2f	45 85 ed	 test	 r13d, r13d
  00c32	75 2a		 jne	 SHORT $LN84@PyEval_Eva
  00c34	4d 85 f6	 test	 r14, r14
  00c37	74 25		 je	 SHORT $LN84@PyEval_Eva

; 2946 : #ifdef CHECKEXC
; 2947 :                 /* This check is expensive! */
; 2948 :                 if (PyErr_Occurred())

  00c39	e8 00 00 00 00	 call	 PyErr_Occurred
  00c3e	48 85 c0	 test	 rax, rax
  00c41	0f 84 fb f5 ff
	ff		 je	 $LN1064@PyEval_Eva

; 2949 :                     fprintf(stderr,
; 2950 :                         "XXX undetected error\n");

  00c47	ff 15 00 00 00
	00		 call	 QWORD PTR __imp___iob_func
  00c4d	48 8d 15 00 00
	00 00		 lea	 rdx, OFFSET FLAT:??_C@_0BG@BGJGOEKO@XXX?5undetected?5error?6?$AA@
  00c54	48 8d 48 60	 lea	 rcx, QWORD PTR [rax+96]
  00c58	ff 15 00 00 00
	00		 call	 QWORD PTR __imp_fprintf
$LN84@PyEval_Eva:

; 2951 :                 else {
; 2952 : #endif
; 2953 :                     READ_TIMESTAMP(loop1);
; 2954 :                     continue; /* Normal, fast path */
; 2955 : #ifdef CHECKEXC
; 2956 :                 }
; 2957 : #endif
; 2958 :             }
; 2959 :             why = WHY_EXCEPTION;

  00c5e	89 9d 90 00 00
	00		 mov	 DWORD PTR why$1$[rbp-256], ebx

; 2960 :             x = Py_None;

  00c64	4c 8b f7	 mov	 r14, rdi
  00c67	48 89 7c 24 30	 mov	 QWORD PTR tmp$1$[rsp], rdi

; 2961 :             err = 0;

  00c6c	44 89 a5 98 00
	00 00		 mov	 DWORD PTR err$1$[rbp-256], r12d
$LN1028@PyEval_Eva:

; 2929 :             why = WHY_EXCEPTION;

  00c73	bb 02 00 00 00	 mov	 ebx, 2
$LN82@PyEval_Eva:

; 2967 :             if (!PyErr_Occurred()) {

  00c78	e8 00 00 00 00	 call	 PyErr_Occurred
  00c7d	48 85 c0	 test	 rax, rax
  00c80	0f 85 7b 2e 00
	00		 jne	 $LN81@PyEval_Eva

; 2968 :                 PyErr_SetString(PyExc_SystemError,
; 2969 :                     "error return without exception set");

  00c86	48 8b 0d 00 00
	00 00		 mov	 rcx, QWORD PTR PyExc_SystemError
  00c8d	48 8d 15 00 00
	00 00		 lea	 rdx, OFFSET FLAT:??_C@_0CD@PEFHABHC@error?5return?5without?5exception?5s@
  00c94	e8 00 00 00 00	 call	 PyErr_SetString

; 2970 :                 why = WHY_EXCEPTION;

  00c99	89 9d 90 00 00
	00		 mov	 DWORD PTR why$1$[rbp-256], ebx

; 2981 :             }
; 2982 :         }
; 2983 : #endif
; 2984 : 
; 2985 :         /* Log traceback info if this is a real exception */
; 2986 : 
; 2987 :         if (why == WHY_EXCEPTION) {

  00c9f	e9 68 2e 00 00	 jmp	 $LN881@PyEval_Eva
$LN192@PyEval_Eva:

; 2454 :             }
; 2455 :             err = PyObject_IsTrue(w);

  00ca4	e8 00 00 00 00	 call	 PyObject_IsTrue

; 2456 :             Py_DECREF(w);

  00ca9	48 8b cb	 mov	 rcx, rbx
  00cac	8b f8		 mov	 edi, eax
  00cae	89 85 98 00 00
	00		 mov	 DWORD PTR err$1$[rbp-256], eax
  00cb4	e8 00 00 00 00	 call	 _Py_DecRef

; 2457 :             if (err > 0)

  00cb9	85 ff		 test	 edi, edi
  00cbb	7e 0d		 jle	 SHORT $LN1034@PyEval_Eva

; 2458 :                 err = 0;

  00cbd	33 ff		 xor	 edi, edi
  00cbf	89 bd 98 00 00
	00		 mov	 DWORD PTR err$1$[rbp-256], edi
  00cc5	e9 78 f5 ff ff	 jmp	 $LN1064@PyEval_Eva
$LN1034@PyEval_Eva:

; 2459 :             else if (err == 0)

  00cca	0f 85 b4 2d 00
	00		 jne	 $LN992@PyEval_Eva

; 2460 :                 JUMPTO(oparg);

  00cd0	49 63 c5	 movsxd	 rax, r13d
  00cd3	48 03 44 24 50	 add	 rax, QWORD PTR first_instr$1$[rsp]
  00cd8	48 89 44 24 40	 mov	 QWORD PTR next_instr$1$[rsp], rax

; 2461 :             else
; 2462 :                 break;
; 2463 :             DISPATCH();

  00cdd	e9 60 f5 ff ff	 jmp	 $LN1064@PyEval_Eva
$LN185@PyEval_Eva:

; 2476 :             }
; 2477 :             err = PyObject_IsTrue(w);

  00ce2	e8 00 00 00 00	 call	 PyObject_IsTrue

; 2478 :             Py_DECREF(w);

  00ce7	48 8b cb	 mov	 rcx, rbx
  00cea	8b f8		 mov	 edi, eax
  00cec	89 85 98 00 00
	00		 mov	 DWORD PTR err$1$[rbp-256], eax
  00cf2	e8 00 00 00 00	 call	 _Py_DecRef

; 2479 :             if (err > 0) {

  00cf7	85 ff		 test	 edi, edi
  00cf9	7e 1a		 jle	 SHORT $LN184@PyEval_Eva
$LN1036@PyEval_Eva:

; 2480 :                 err = 0;

  00cfb	33 ff		 xor	 edi, edi

; 2481 :                 JUMPTO(oparg);

  00cfd	4d 63 e5	 movsxd	 r12, r13d
  00d00	4c 03 64 24 50	 add	 r12, QWORD PTR first_instr$1$[rsp]
  00d05	89 bd 98 00 00
	00		 mov	 DWORD PTR err$1$[rbp-256], edi
  00d0b	4c 89 64 24 40	 mov	 QWORD PTR next_instr$1$[rsp], r12
  00d10	e9 32 f5 ff ff	 jmp	 $LN1065@PyEval_Eva
$LN184@PyEval_Eva:

; 2482 :             }
; 2483 :             else if (err == 0)

  00d15	44 8b ef	 mov	 r13d, edi
  00d18	85 ff		 test	 edi, edi
  00d1a	0f 85 f1 fe ff
	ff		 jne	 $LN1039@PyEval_Eva

; 2484 :                 ;
; 2485 :             else
; 2486 :                 break;
; 2487 :             DISPATCH();

  00d20	e9 1d f5 ff ff	 jmp	 $LN1064@PyEval_Eva
$LN1035@PyEval_Eva:

; 2505 :             }
; 2506 :             else if (err == 0)

  00d25	0f 85 df fe ff
	ff		 jne	 $LN1017@PyEval_Eva

; 2507 :                 JUMPTO(oparg);

  00d2b	4d 63 e5	 movsxd	 r12, r13d
  00d2e	4c 03 64 24 50	 add	 r12, QWORD PTR first_instr$1$[rsp]
  00d33	4c 89 64 24 40	 mov	 QWORD PTR next_instr$1$[rsp], r12

; 2508 :             else
; 2509 :                 break;
; 2510 :             DISPATCH();

  00d38	e9 0a f5 ff ff	 jmp	 $LN1065@PyEval_Eva
$LN164@PyEval_Eva:

; 2560 :                 DISPATCH();
; 2561 :             }
; 2562 :             STACKADJ(-1);

  00d3d	48 83 ee 08	 sub	 rsi, 8
  00d41	83 3d 00 00 00
	00 00		 cmp	 DWORD PTR lltrace, 0
  00d48	74 10		 je	 SHORT $LN686@PyEval_Eva
  00d4a	48 8b 4e f8	 mov	 rcx, QWORD PTR [rsi-8]
  00d4e	48 8d 15 00 00
	00 00		 lea	 rdx, OFFSET FLAT:??_C@_08OGNHIHGF@stackadj?$AA@
  00d55	e8 00 00 00 00	 call	 prtrace
$LN686@PyEval_Eva:
  00d5a	48 8b 4c 24 48	 mov	 rcx, QWORD PTR co$1$[rsp]
  00d5f	48 8b c6	 mov	 rax, rsi
  00d62	49 2b 87 98 00
	00 00		 sub	 rax, QWORD PTR [r15+152]
  00d69	48 c1 f8 03	 sar	 rax, 3
  00d6d	3b 41 6c	 cmp	 eax, DWORD PTR [rcx+108]
  00d70	0f 8e 94 fe ff
	ff		 jle	 $LN1017@PyEval_Eva
  00d76	48 8d 15 00 00
	00 00		 lea	 rdx, OFFSET FLAT:??_C@_1CE@BLKIPNIC@?$AA?4?$AA?4?$AA?2?$AAP?$AAy?$AAt?$AAh?$AAo?$AAn?$AA?2?$AAc?$AAe?$AAv?$AAa?$AAl?$AA?4?$AAc?$AA?$AA@
  00d7d	48 8d 0d 00 00
	00 00		 lea	 rcx, OFFSET FLAT:??_C@_1EE@JPIFCMJD@?$AAS?$AAT?$AAA?$AAC?$AAK?$AA_?$AAL?$AAE?$AAV?$AAE?$AAL?$AA?$CI?$AA?$CJ?$AA?5?$AA?$DM?$AA?$DN?$AA?5?$AAc?$AAo?$AA?9?$AA?$DO?$AAc?$AAo?$AA_?$AAs?$AAt?$AAa?$AAc?$AAk?$AAs?$AAi?$AAz@
  00d84	41 b8 02 0a 00
	00		 mov	 r8d, 2562		; 00000a02H
  00d8a	ff 15 00 00 00
	00		 call	 QWORD PTR __imp__wassert

; 2563 :             break;

  00d90	e9 75 fe ff ff	 jmp	 $LN1017@PyEval_Eva
$LN160@PyEval_Eva:

; 2573 :                 PREDICT(UNPACK_SEQUENCE);

  00d95	80 39 5c	 cmp	 BYTE PTR [rcx], 92	; 0000005cH
  00d98	48 8b 7c 24 38	 mov	 rdi, QWORD PTR tstate$1$[rsp]
  00d9d	0f 85 e6 00 00
	00		 jne	 $LN984@PyEval_Eva

; 2042 : 
; 2043 :         PREDICTED_WITH_ARG(UNPACK_SEQUENCE);

  00da3	44 0f b6 69 02	 movzx	 r13d, BYTE PTR [rcx+2]
  00da8	0f b6 41 01	 movzx	 eax, BYTE PTR [rcx+1]
$PRED_UNPACK_SEQUENCE$65055:
  00dac	41 c1 e5 08	 shl	 r13d, 8
  00db0	44 03 e8	 add	 r13d, eax
  00db3	48 83 c1 03	 add	 rcx, 3
  00db7	48 89 4c 24 40	 mov	 QWORD PTR next_instr$1$[rsp], rcx
$LN316@PyEval_Eva:

; 2044 :         TARGET(UNPACK_SEQUENCE)
; 2045 :             v = POP();

  00dbc	83 3d 00 00 00
	00 00		 cmp	 DWORD PTR lltrace, 0
  00dc3	74 10		 je	 SHORT $LN628@PyEval_Eva
  00dc5	48 8b 4e f8	 mov	 rcx, QWORD PTR [rsi-8]
  00dc9	48 8d 15 00 00
	00 00		 lea	 rdx, OFFSET FLAT:??_C@_03NJDAHFJE@pop?$AA@
  00dd0	e8 00 00 00 00	 call	 prtrace
$LN628@PyEval_Eva:
  00dd5	4c 8b 76 f8	 mov	 r14, QWORD PTR [rsi-8]
  00dd9	48 83 ee 08	 sub	 rsi, 8

; 2046 :             if (PyTuple_CheckExact(v) &&
; 2047 :                 PyTuple_GET_SIZE(v) == oparg) {

  00ddd	48 8d 0d 00 00
	00 00		 lea	 rcx, OFFSET FLAT:PyTuple_Type
  00de4	49 8b 46 58	 mov	 rax, QWORD PTR [r14+88]
  00de8	4c 89 75 90	 mov	 QWORD PTR v$56$[rbp-256], r14
  00dec	49 63 fd	 movsxd	 rdi, r13d
  00def	48 3b c1	 cmp	 rax, rcx
  00df2	0f 85 e0 1e 00
	00		 jne	 $LN315@PyEval_Eva
  00df8	49 39 7e 60	 cmp	 QWORD PTR [r14+96], rdi
  00dfc	0f 85 d6 1e 00
	00		 jne	 $LN315@PyEval_Eva

; 2048 :                 PyObject **items = \
; 2049 :                     ((PyTupleObject *)v)->ob_item;
; 2050 :                 while (oparg--) {

  00e02	45 85 ed	 test	 r13d, r13d
  00e05	74 70		 je	 SHORT $LN849@PyEval_Eva
  00e07	66 0f 1f 84 00
	00 00 00 00	 npad	 9
$LL314@PyEval_Eva:

; 2051 :                     w = items[oparg];

  00e10	49 8b 5c fe 68	 mov	 rbx, QWORD PTR [r14+rdi*8+104]
  00e15	48 ff cf	 dec	 rdi

; 2052 :                     Py_INCREF(w);

  00e18	48 8b cb	 mov	 rcx, rbx
  00e1b	e8 00 00 00 00	 call	 _Py_IncRef

; 2053 :                     PUSH(w);

  00e20	48 89 1e	 mov	 QWORD PTR [rsi], rbx
  00e23	48 83 c6 08	 add	 rsi, 8
  00e27	83 3d 00 00 00
	00 00		 cmp	 DWORD PTR lltrace, 0
  00e2e	74 10		 je	 SHORT $LN629@PyEval_Eva
  00e30	48 8b 4e f8	 mov	 rcx, QWORD PTR [rsi-8]
  00e34	48 8d 15 00 00
	00 00		 lea	 rdx, OFFSET FLAT:??_C@_04GHHNIPCF@push?$AA@
  00e3b	e8 00 00 00 00	 call	 prtrace
$LN629@PyEval_Eva:
  00e40	48 8b 5c 24 48	 mov	 rbx, QWORD PTR co$1$[rsp]
  00e45	48 8b c6	 mov	 rax, rsi
  00e48	49 2b 87 98 00
	00 00		 sub	 rax, QWORD PTR [r15+152]
  00e4f	48 c1 f8 03	 sar	 rax, 3
  00e53	3b 43 6c	 cmp	 eax, DWORD PTR [rbx+108]
  00e56	7e 1a		 jle	 SHORT $LN630@PyEval_Eva
  00e58	48 8d 15 00 00
	00 00		 lea	 rdx, OFFSET FLAT:??_C@_1CE@BLKIPNIC@?$AA?4?$AA?4?$AA?2?$AAP?$AAy?$AAt?$AAh?$AAo?$AAn?$AA?2?$AAc?$AAe?$AAv?$AAa?$AAl?$AA?4?$AAc?$AA?$AA@
  00e5f	48 8d 0d 00 00
	00 00		 lea	 rcx, OFFSET FLAT:??_C@_1EE@JPIFCMJD@?$AAS?$AAT?$AAA?$AAC?$AAK?$AA_?$AAL?$AAE?$AAV?$AAE?$AAL?$AA?$CI?$AA?$CJ?$AA?5?$AA?$DM?$AA?$DN?$AA?5?$AAc?$AAo?$AA?9?$AA?$DO?$AAc?$AAo?$AA_?$AAs?$AAt?$AAa?$AAc?$AAk?$AAs?$AAi?$AAz@
  00e66	41 b8 05 08 00
	00		 mov	 r8d, 2053		; 00000805H
  00e6c	ff 15 00 00 00
	00		 call	 QWORD PTR __imp__wassert
$LN630@PyEval_Eva:

; 2048 :                 PyObject **items = \
; 2049 :                     ((PyTupleObject *)v)->ob_item;
; 2050 :                 while (oparg--) {

  00e72	48 85 ff	 test	 rdi, rdi
  00e75	75 99		 jne	 SHORT $LL314@PyEval_Eva
$LN849@PyEval_Eva:

; 2054 :                 }
; 2055 :                 Py_DECREF(v);

  00e77	49 8b ce	 mov	 rcx, r14
  00e7a	e8 00 00 00 00	 call	 _Py_DecRef

; 2056 :                 DISPATCH();

  00e7f	4c 8b 74 24 30	 mov	 r14, QWORD PTR tmp$1$[rsp]
  00e84	48 8b 7c 24 38	 mov	 rdi, QWORD PTR tstate$1$[rsp]
$LN984@PyEval_Eva:
  00e89	4c 8b 64 24 40	 mov	 r12, QWORD PTR next_instr$1$[rsp]
  00e8e	e9 be f3 ff ff	 jmp	 $LN538@PyEval_Eva
$LN161@PyEval_Eva:

; 2574 :                 DISPATCH();
; 2575 :             }
; 2576 :             if (PyErr_Occurred()) {

  00e93	e8 00 00 00 00	 call	 PyErr_Occurred
  00e98	48 85 c0	 test	 rax, rax
  00e9b	74 19		 je	 SHORT $LN158@PyEval_Eva

; 2577 :                 if (!PyErr_ExceptionMatches(
; 2578 :                                 PyExc_StopIteration))

  00e9d	48 8b 0d 00 00
	00 00		 mov	 rcx, QWORD PTR PyExc_StopIteration
  00ea4	e8 00 00 00 00	 call	 PyErr_ExceptionMatches
  00ea9	85 c0		 test	 eax, eax
  00eab	0f 84 59 fd ff
	ff		 je	 $LN1017@PyEval_Eva

; 2579 :                     break;
; 2580 :                 PyErr_Clear();

  00eb1	e8 00 00 00 00	 call	 PyErr_Clear
$LN158@PyEval_Eva:

; 2581 :             }
; 2582 :             /* iterator ended normally */
; 2583 :             x = v = POP();

  00eb6	83 3d 00 00 00
	00 00		 cmp	 DWORD PTR lltrace, 0
  00ebd	74 10		 je	 SHORT $LN690@PyEval_Eva
  00ebf	48 8b 4e f8	 mov	 rcx, QWORD PTR [rsi-8]
  00ec3	48 8d 15 00 00
	00 00		 lea	 rdx, OFFSET FLAT:??_C@_03NJDAHFJE@pop?$AA@
  00eca	e8 00 00 00 00	 call	 prtrace
$LN690@PyEval_Eva:
  00ecf	4c 8b 76 f8	 mov	 r14, QWORD PTR [rsi-8]
  00ed3	48 83 ee 08	 sub	 rsi, 8

; 2584 :             Py_DECREF(v);

  00ed7	49 8b ce	 mov	 rcx, r14
  00eda	4c 89 74 24 30	 mov	 QWORD PTR tmp$1$[rsp], r14
  00edf	e8 00 00 00 00	 call	 _Py_DecRef

; 2585 :             JUMPBY(oparg);

  00ee4	4c 8b 64 24 40	 mov	 r12, QWORD PTR next_instr$1$[rsp]

; 2586 :             DISPATCH();

  00ee9	48 8b 7c 24 38	 mov	 rdi, QWORD PTR tstate$1$[rsp]
  00eee	4d 63 dd	 movsxd	 r11, r13d
  00ef1	4d 03 e3	 add	 r12, r11
  00ef4	4c 89 64 24 40	 mov	 QWORD PTR next_instr$1$[rsp], r12
  00ef9	e9 53 f3 ff ff	 jmp	 $LN538@PyEval_Eva
$LN498@PyEval_Eva:

; 1473 : 
; 1474 :         TARGET(UNARY_POSITIVE)
; 1475 :             v = TOP();

  00efe	48 8b 5e f8	 mov	 rbx, QWORD PTR [rsi-8]

; 1476 :             x = PyNumber_Positive(v);

  00f02	48 8b cb	 mov	 rcx, rbx
  00f05	e8 00 00 00 00	 call	 PyNumber_Positive

; 1477 :             Py_DECREF(v);

  00f0a	48 8b cb	 mov	 rcx, rbx
  00f0d	4c 8b f0	 mov	 r14, rax
  00f10	48 89 44 24 30	 mov	 QWORD PTR tmp$1$[rsp], rax

; 1478 :             SET_TOP(x);
; 1479 :             if (x != NULL) DISPATCH();
; 1480 :             break;

  00f15	e9 53 2b 00 00	 jmp	 $LN1051@PyEval_Eva
$LN496@PyEval_Eva:

; 1481 : 
; 1482 :         TARGET(UNARY_NEGATIVE)
; 1483 :             v = TOP();

  00f1a	48 8b 5e f8	 mov	 rbx, QWORD PTR [rsi-8]

; 1484 :             x = PyNumber_Negative(v);

  00f1e	48 8b cb	 mov	 rcx, rbx
  00f21	e8 00 00 00 00	 call	 PyNumber_Negative

; 1485 :             Py_DECREF(v);

  00f26	48 8b cb	 mov	 rcx, rbx
  00f29	4c 8b f0	 mov	 r14, rax
  00f2c	48 89 44 24 30	 mov	 QWORD PTR tmp$1$[rsp], rax

; 1486 :             SET_TOP(x);
; 1487 :             if (x != NULL) DISPATCH();
; 1488 :             break;

  00f31	e9 37 2b 00 00	 jmp	 $LN1051@PyEval_Eva
$LN494@PyEval_Eva:

; 1489 : 
; 1490 :         TARGET(UNARY_NOT)
; 1491 :             v = TOP();

  00f36	48 8b 5e f8	 mov	 rbx, QWORD PTR [rsi-8]
  00f3a	48 8d 7e f8	 lea	 rdi, QWORD PTR [rsi-8]

; 1492 :             err = PyObject_IsTrue(v);

  00f3e	48 8b cb	 mov	 rcx, rbx
  00f41	e8 00 00 00 00	 call	 PyObject_IsTrue

; 1493 :             Py_DECREF(v);

  00f46	48 8b cb	 mov	 rcx, rbx
  00f49	44 8b e8	 mov	 r13d, eax
  00f4c	89 85 98 00 00
	00		 mov	 DWORD PTR err$1$[rbp-256], eax
  00f52	e8 00 00 00 00	 call	 _Py_DecRef

; 1494 :             if (err == 0) {

  00f57	45 85 ed	 test	 r13d, r13d
  00f5a	75 17		 jne	 SHORT $LN1038@PyEval_Eva

; 1495 :                 Py_INCREF(Py_True);

  00f5c	48 8d 1d 00 00
	00 00		 lea	 rbx, OFFSET FLAT:_Py_TrueStruct
  00f63	48 8b cb	 mov	 rcx, rbx
  00f66	e8 00 00 00 00	 call	 _Py_IncRef

; 1496 :                 SET_TOP(Py_True);

  00f6b	48 89 1f	 mov	 QWORD PTR [rdi], rbx

; 1497 :                 DISPATCH();

  00f6e	e9 d4 f2 ff ff	 jmp	 $LN1065@PyEval_Eva
$LN1038@PyEval_Eva:

; 1498 :             }
; 1499 :             else if (err > 0) {

  00f73	7e 1f		 jle	 SHORT $LN491@PyEval_Eva

; 1500 :                 Py_INCREF(Py_False);

  00f75	48 8d 1d 00 00
	00 00		 lea	 rbx, OFFSET FLAT:_Py_FalseStruct
  00f7c	48 8b cb	 mov	 rcx, rbx
  00f7f	e8 00 00 00 00	 call	 _Py_IncRef

; 1501 :                 SET_TOP(Py_False);

  00f84	48 89 1f	 mov	 QWORD PTR [rdi], rbx

; 1502 :                 err = 0;

  00f87	33 ff		 xor	 edi, edi
  00f89	89 bd 98 00 00
	00		 mov	 DWORD PTR err$1$[rbp-256], edi

; 1503 :                 DISPATCH();

  00f8f	e9 b3 f2 ff ff	 jmp	 $LN1065@PyEval_Eva
$LN491@PyEval_Eva:

; 1504 :             }
; 1505 :             STACKADJ(-1);

  00f94	83 3d 00 00 00
	00 00		 cmp	 DWORD PTR lltrace, 0
  00f9b	48 8b f7	 mov	 rsi, rdi
  00f9e	74 10		 je	 SHORT $LN565@PyEval_Eva
  00fa0	48 8b 4f f8	 mov	 rcx, QWORD PTR [rdi-8]
  00fa4	48 8d 15 00 00
	00 00		 lea	 rdx, OFFSET FLAT:??_C@_08OGNHIHGF@stackadj?$AA@
  00fab	e8 00 00 00 00	 call	 prtrace
$LN565@PyEval_Eva:
  00fb0	48 8b 4c 24 48	 mov	 rcx, QWORD PTR co$1$[rsp]
  00fb5	48 8b c7	 mov	 rax, rdi
  00fb8	49 2b 87 98 00
	00 00		 sub	 rax, QWORD PTR [r15+152]
  00fbf	48 c1 f8 03	 sar	 rax, 3
  00fc3	3b 41 6c	 cmp	 eax, DWORD PTR [rcx+108]
  00fc6	0f 8e 45 fc ff
	ff		 jle	 $LN1039@PyEval_Eva
  00fcc	48 8d 15 00 00
	00 00		 lea	 rdx, OFFSET FLAT:??_C@_1CE@BLKIPNIC@?$AA?4?$AA?4?$AA?2?$AAP?$AAy?$AAt?$AAh?$AAo?$AAn?$AA?2?$AAc?$AAe?$AAv?$AAa?$AAl?$AA?4?$AAc?$AA?$AA@
  00fd3	48 8d 0d 00 00
	00 00		 lea	 rcx, OFFSET FLAT:??_C@_1EE@JPIFCMJD@?$AAS?$AAT?$AAA?$AAC?$AAK?$AA_?$AAL?$AAE?$AAV?$AAE?$AAL?$AA?$CI?$AA?$CJ?$AA?5?$AA?$DM?$AA?$DN?$AA?5?$AAc?$AAo?$AA?9?$AA?$DO?$AAc?$AAo?$AA_?$AAs?$AAt?$AAa?$AAc?$AAk?$AAs?$AAi?$AAz@
  00fda	41 b8 e1 05 00
	00		 mov	 r8d, 1505		; 000005e1H
  00fe0	ff 15 00 00 00
	00		 call	 QWORD PTR __imp__wassert

; 1506 :             break;

  00fe6	e9 26 fc ff ff	 jmp	 $LN1039@PyEval_Eva
$LN490@PyEval_Eva:

; 1507 : 
; 1508 :         TARGET(UNARY_INVERT)
; 1509 :             v = TOP();

  00feb	48 8b 5e f8	 mov	 rbx, QWORD PTR [rsi-8]

; 1510 :             x = PyNumber_Invert(v);

  00fef	48 8b cb	 mov	 rcx, rbx
  00ff2	e8 00 00 00 00	 call	 PyNumber_Invert

; 1511 :             Py_DECREF(v);

  00ff7	48 8b cb	 mov	 rcx, rbx
  00ffa	4c 8b f0	 mov	 r14, rax
  00ffd	48 89 44 24 30	 mov	 QWORD PTR tmp$1$[rsp], rax

; 1512 :             SET_TOP(x);
; 1513 :             if (x != NULL) DISPATCH();
; 1514 :             break;

  01002	e9 66 2a 00 00	 jmp	 $LN1051@PyEval_Eva
$LN488@PyEval_Eva:

; 1515 : 
; 1516 :         TARGET(BINARY_POWER)
; 1517 :             w = POP();

  01007	83 3d 00 00 00
	00 00		 cmp	 DWORD PTR lltrace, 0
  0100e	74 10		 je	 SHORT $LN567@PyEval_Eva
  01010	48 8b 4e f8	 mov	 rcx, QWORD PTR [rsi-8]
  01014	48 8d 15 00 00
	00 00		 lea	 rdx, OFFSET FLAT:??_C@_03NJDAHFJE@pop?$AA@
  0101b	e8 00 00 00 00	 call	 prtrace
$LN567@PyEval_Eva:
  01020	48 8b 7e f8	 mov	 rdi, QWORD PTR [rsi-8]

; 1518 :             v = TOP();

  01024	48 8b 5e f0	 mov	 rbx, QWORD PTR [rsi-16]
  01028	48 83 ee 08	 sub	 rsi, 8

; 1519 :             x = PyNumber_Power(v, w, Py_None);

  0102c	4c 8d 05 00 00
	00 00		 lea	 r8, OFFSET FLAT:_Py_NoneStruct
  01033	48 8b d7	 mov	 rdx, rdi
  01036	48 8b cb	 mov	 rcx, rbx
  01039	e8 00 00 00 00	 call	 PyNumber_Power
$LN1069@PyEval_Eva:

; 1520 :             Py_DECREF(v);

  0103e	48 8b cb	 mov	 rcx, rbx
  01041	4c 8b f0	 mov	 r14, rax
  01044	48 89 44 24 30	 mov	 QWORD PTR tmp$1$[rsp], rax
  01049	e8 00 00 00 00	 call	 _Py_DecRef

; 1521 :             Py_DECREF(w);

  0104e	48 8b cf	 mov	 rcx, rdi

; 1522 :             SET_TOP(x);
; 1523 :             if (x != NULL) DISPATCH();
; 1524 :             break;

  01051	e9 17 2a 00 00	 jmp	 $LN1051@PyEval_Eva
$LN486@PyEval_Eva:

; 1525 : 
; 1526 :         TARGET(BINARY_MULTIPLY)
; 1527 :             w = POP();

  01056	83 3d 00 00 00
	00 00		 cmp	 DWORD PTR lltrace, 0
  0105d	74 10		 je	 SHORT $LN568@PyEval_Eva
  0105f	48 8b 4e f8	 mov	 rcx, QWORD PTR [rsi-8]
  01063	48 8d 15 00 00
	00 00		 lea	 rdx, OFFSET FLAT:??_C@_03NJDAHFJE@pop?$AA@
  0106a	e8 00 00 00 00	 call	 prtrace
$LN568@PyEval_Eva:
  0106f	48 8b 7e f8	 mov	 rdi, QWORD PTR [rsi-8]

; 1528 :             v = TOP();

  01073	48 8b 5e f0	 mov	 rbx, QWORD PTR [rsi-16]
  01077	48 83 ee 08	 sub	 rsi, 8

; 1529 :             x = PyNumber_Multiply(v, w);

  0107b	48 8b d7	 mov	 rdx, rdi
  0107e	48 8b cb	 mov	 rcx, rbx
  01081	e8 00 00 00 00	 call	 PyNumber_Multiply

; 1530 :             Py_DECREF(v);
; 1531 :             Py_DECREF(w);
; 1532 :             SET_TOP(x);
; 1533 :             if (x != NULL) DISPATCH();
; 1534 :             break;

  01086	eb b6		 jmp	 SHORT $LN1069@PyEval_Eva
$LN484@PyEval_Eva:

; 1535 : 
; 1536 :         TARGET(BINARY_TRUE_DIVIDE)
; 1537 :             w = POP();

  01088	83 3d 00 00 00
	00 00		 cmp	 DWORD PTR lltrace, 0
  0108f	74 10		 je	 SHORT $LN569@PyEval_Eva
  01091	48 8b 4e f8	 mov	 rcx, QWORD PTR [rsi-8]
  01095	48 8d 15 00 00
	00 00		 lea	 rdx, OFFSET FLAT:??_C@_03NJDAHFJE@pop?$AA@
  0109c	e8 00 00 00 00	 call	 prtrace
$LN569@PyEval_Eva:
  010a1	48 8b 7e f8	 mov	 rdi, QWORD PTR [rsi-8]

; 1538 :             v = TOP();

  010a5	48 8b 5e f0	 mov	 rbx, QWORD PTR [rsi-16]
  010a9	48 83 ee 08	 sub	 rsi, 8

; 1539 :             x = PyNumber_TrueDivide(v, w);

  010ad	48 8b d7	 mov	 rdx, rdi
  010b0	48 8b cb	 mov	 rcx, rbx
  010b3	e8 00 00 00 00	 call	 PyNumber_TrueDivide

; 1540 :             Py_DECREF(v);
; 1541 :             Py_DECREF(w);
; 1542 :             SET_TOP(x);
; 1543 :             if (x != NULL) DISPATCH();
; 1544 :             break;

  010b8	eb 84		 jmp	 SHORT $LN1069@PyEval_Eva
$LN482@PyEval_Eva:

; 1545 : 
; 1546 :         TARGET(BINARY_FLOOR_DIVIDE)
; 1547 :             w = POP();

  010ba	83 3d 00 00 00
	00 00		 cmp	 DWORD PTR lltrace, 0
  010c1	74 10		 je	 SHORT $LN570@PyEval_Eva
  010c3	48 8b 4e f8	 mov	 rcx, QWORD PTR [rsi-8]
  010c7	48 8d 15 00 00
	00 00		 lea	 rdx, OFFSET FLAT:??_C@_03NJDAHFJE@pop?$AA@
  010ce	e8 00 00 00 00	 call	 prtrace
$LN570@PyEval_Eva:
  010d3	48 8b 7e f8	 mov	 rdi, QWORD PTR [rsi-8]

; 1548 :             v = TOP();

  010d7	48 8b 5e f0	 mov	 rbx, QWORD PTR [rsi-16]
  010db	48 83 ee 08	 sub	 rsi, 8

; 1549 :             x = PyNumber_FloorDivide(v, w);

  010df	48 8b d7	 mov	 rdx, rdi
  010e2	48 8b cb	 mov	 rcx, rbx
  010e5	e8 00 00 00 00	 call	 PyNumber_FloorDivide

; 1550 :             Py_DECREF(v);
; 1551 :             Py_DECREF(w);
; 1552 :             SET_TOP(x);
; 1553 :             if (x != NULL) DISPATCH();
; 1554 :             break;

  010ea	e9 4f ff ff ff	 jmp	 $LN1069@PyEval_Eva
$LN480@PyEval_Eva:

; 1555 : 
; 1556 :         TARGET(BINARY_MODULO)
; 1557 :             w = POP();

  010ef	83 3d 00 00 00
	00 00		 cmp	 DWORD PTR lltrace, 0
  010f6	74 10		 je	 SHORT $LN571@PyEval_Eva
  010f8	48 8b 4e f8	 mov	 rcx, QWORD PTR [rsi-8]
  010fc	48 8d 15 00 00
	00 00		 lea	 rdx, OFFSET FLAT:??_C@_03NJDAHFJE@pop?$AA@
  01103	e8 00 00 00 00	 call	 prtrace
$LN571@PyEval_Eva:

; 1558 :             v = TOP();

  01108	48 8b 5e f0	 mov	 rbx, QWORD PTR [rsi-16]
  0110c	48 8b 7e f8	 mov	 rdi, QWORD PTR [rsi-8]
  01110	48 83 ee 08	 sub	 rsi, 8

; 1559 :             if (PyUnicode_CheckExact(v))

  01114	4c 8d 2d 00 00
	00 00		 lea	 r13, OFFSET FLAT:PyUnicode_Type

; 1560 :                 x = PyUnicode_Format(v, w);

  0111b	48 8b d7	 mov	 rdx, rdi
  0111e	48 8b cb	 mov	 rcx, rbx
  01121	4c 39 6b 58	 cmp	 QWORD PTR [rbx+88], r13
  01125	75 1d		 jne	 SHORT $LN479@PyEval_Eva
  01127	e8 00 00 00 00	 call	 PyUnicode_Format
  0112c	48 8b cb	 mov	 rcx, rbx

; 1561 :             else
; 1562 :                 x = PyNumber_Remainder(v, w);

  0112f	4c 8b f0	 mov	 r14, rax
  01132	48 89 44 24 30	 mov	 QWORD PTR tmp$1$[rsp], rax
  01137	e8 00 00 00 00	 call	 _Py_DecRef
  0113c	48 8b cf	 mov	 rcx, rdi
  0113f	e9 29 29 00 00	 jmp	 $LN1051@PyEval_Eva
$LN479@PyEval_Eva:
  01144	e8 00 00 00 00	 call	 PyNumber_Remainder
  01149	48 8b cb	 mov	 rcx, rbx
  0114c	4c 8b f0	 mov	 r14, rax
  0114f	48 89 44 24 30	 mov	 QWORD PTR tmp$1$[rsp], rax
  01154	e8 00 00 00 00	 call	 _Py_DecRef
  01159	48 8b cf	 mov	 rcx, rdi
  0115c	e9 0c 29 00 00	 jmp	 $LN1051@PyEval_Eva
$LN476@PyEval_Eva:

; 1563 :             Py_DECREF(v);
; 1564 :             Py_DECREF(w);
; 1565 :             SET_TOP(x);
; 1566 :             if (x != NULL) DISPATCH();
; 1567 :             break;
; 1568 : 
; 1569 :         TARGET(BINARY_ADD)
; 1570 :             w = POP();

  01161	83 3d 00 00 00
	00 00		 cmp	 DWORD PTR lltrace, 0
  01168	74 10		 je	 SHORT $LN572@PyEval_Eva
  0116a	48 8b 4e f8	 mov	 rcx, QWORD PTR [rsi-8]
  0116e	48 8d 15 00 00
	00 00		 lea	 rdx, OFFSET FLAT:??_C@_03NJDAHFJE@pop?$AA@
  01175	e8 00 00 00 00	 call	 prtrace
$LN572@PyEval_Eva:

; 1571 :             v = TOP();

  0117a	48 8b 7e f0	 mov	 rdi, QWORD PTR [rsi-16]
  0117e	48 8b 5e f8	 mov	 rbx, QWORD PTR [rsi-8]
  01182	48 83 ee 08	 sub	 rsi, 8

; 1572 :             if (PyUnicode_CheckExact(v) &&
; 1573 :                      PyUnicode_CheckExact(w)) {

  01186	4c 8d 2d 00 00
	00 00		 lea	 r13, OFFSET FLAT:PyUnicode_Type
  0118d	4c 39 6f 58	 cmp	 QWORD PTR [rdi+88], r13
  01191	75 27		 jne	 SHORT $LN475@PyEval_Eva
  01193	4c 39 6b 58	 cmp	 QWORD PTR [rbx+88], r13
  01197	75 21		 jne	 SHORT $LN475@PyEval_Eva

; 1574 :                 x = unicode_concatenate(v, w, f, next_instr);

  01199	4d 8b cc	 mov	 r9, r12
  0119c	4d 8b c7	 mov	 r8, r15
  0119f	48 8b d3	 mov	 rdx, rbx
  011a2	48 8b cf	 mov	 rcx, rdi
  011a5	e8 00 00 00 00	 call	 unicode_concatenate
$skip_decref_v$64774:

; 1582 :           skip_decref_vx:
; 1583 :             Py_DECREF(w);

  011aa	48 8b cb	 mov	 rcx, rbx
  011ad	4c 8b f0	 mov	 r14, rax
  011b0	48 89 44 24 30	 mov	 QWORD PTR tmp$1$[rsp], rax

; 1584 :             SET_TOP(x);
; 1585 :             if (x != NULL) DISPATCH();
; 1586 :             break;

  011b5	e9 b3 28 00 00	 jmp	 $LN1051@PyEval_Eva
$LN475@PyEval_Eva:

; 1575 :                 /* unicode_concatenate consumed the ref to v */
; 1576 :                 goto skip_decref_vx;
; 1577 :             }
; 1578 :             else {
; 1579 :                 x = PyNumber_Add(v, w);

  011ba	48 8b d3	 mov	 rdx, rbx
  011bd	48 8b cf	 mov	 rcx, rdi
  011c0	e8 00 00 00 00	 call	 PyNumber_Add
$LN1071@PyEval_Eva:

; 1580 :             }
; 1581 :             Py_DECREF(v);

  011c5	48 8b cf	 mov	 rcx, rdi
  011c8	4c 8b f0	 mov	 r14, rax
  011cb	48 89 44 24 30	 mov	 QWORD PTR tmp$1$[rsp], rax
  011d0	e8 00 00 00 00	 call	 _Py_DecRef

; 1582 :           skip_decref_vx:
; 1583 :             Py_DECREF(w);

  011d5	48 8b cb	 mov	 rcx, rbx
$skip_decref_v_1$64774:
$skip_decref_vx$64680:

; 1584 :             SET_TOP(x);
; 1585 :             if (x != NULL) DISPATCH();
; 1586 :             break;

  011d8	e9 90 28 00 00	 jmp	 $LN1051@PyEval_Eva
$LN472@PyEval_Eva:

; 1587 : 
; 1588 :         TARGET(BINARY_SUBTRACT)
; 1589 :             w = POP();

  011dd	83 3d 00 00 00
	00 00		 cmp	 DWORD PTR lltrace, 0
  011e4	74 10		 je	 SHORT $LN573@PyEval_Eva
  011e6	48 8b 4e f8	 mov	 rcx, QWORD PTR [rsi-8]
  011ea	48 8d 15 00 00
	00 00		 lea	 rdx, OFFSET FLAT:??_C@_03NJDAHFJE@pop?$AA@
  011f1	e8 00 00 00 00	 call	 prtrace
$LN573@PyEval_Eva:
  011f6	48 8b 7e f8	 mov	 rdi, QWORD PTR [rsi-8]

; 1590 :             v = TOP();

  011fa	48 8b 5e f0	 mov	 rbx, QWORD PTR [rsi-16]
  011fe	48 83 ee 08	 sub	 rsi, 8

; 1591 :             x = PyNumber_Subtract(v, w);

  01202	48 8b d7	 mov	 rdx, rdi
  01205	48 8b cb	 mov	 rcx, rbx
  01208	e8 00 00 00 00	 call	 PyNumber_Subtract

; 1592 :             Py_DECREF(v);
; 1593 :             Py_DECREF(w);
; 1594 :             SET_TOP(x);
; 1595 :             if (x != NULL) DISPATCH();
; 1596 :             break;

  0120d	e9 2c fe ff ff	 jmp	 $LN1069@PyEval_Eva
$LN470@PyEval_Eva:

; 1597 : 
; 1598 :         TARGET(BINARY_SUBSCR)
; 1599 :             w = POP();

  01212	83 3d 00 00 00
	00 00		 cmp	 DWORD PTR lltrace, 0
  01219	74 10		 je	 SHORT $LN574@PyEval_Eva
  0121b	48 8b 4e f8	 mov	 rcx, QWORD PTR [rsi-8]
  0121f	48 8d 15 00 00
	00 00		 lea	 rdx, OFFSET FLAT:??_C@_03NJDAHFJE@pop?$AA@
  01226	e8 00 00 00 00	 call	 prtrace
$LN574@PyEval_Eva:
  0122b	48 8b 7e f8	 mov	 rdi, QWORD PTR [rsi-8]

; 1600 :             v = TOP();

  0122f	48 8b 5e f0	 mov	 rbx, QWORD PTR [rsi-16]
  01233	48 83 ee 08	 sub	 rsi, 8

; 1601 :             x = PyObject_GetItem(v, w);

  01237	48 8b d7	 mov	 rdx, rdi
  0123a	48 8b cb	 mov	 rcx, rbx
  0123d	e8 00 00 00 00	 call	 PyObject_GetItem

; 1602 :             Py_DECREF(v);
; 1603 :             Py_DECREF(w);
; 1604 :             SET_TOP(x);
; 1605 :             if (x != NULL) DISPATCH();
; 1606 :             break;

  01242	e9 f7 fd ff ff	 jmp	 $LN1069@PyEval_Eva
$LN468@PyEval_Eva:

; 1607 : 
; 1608 :         TARGET(BINARY_LSHIFT)
; 1609 :             w = POP();

  01247	83 3d 00 00 00
	00 00		 cmp	 DWORD PTR lltrace, 0
  0124e	74 10		 je	 SHORT $LN575@PyEval_Eva
  01250	48 8b 4e f8	 mov	 rcx, QWORD PTR [rsi-8]
  01254	48 8d 15 00 00
	00 00		 lea	 rdx, OFFSET FLAT:??_C@_03NJDAHFJE@pop?$AA@
  0125b	e8 00 00 00 00	 call	 prtrace
$LN575@PyEval_Eva:
  01260	48 8b 7e f8	 mov	 rdi, QWORD PTR [rsi-8]

; 1610 :             v = TOP();

  01264	48 8b 5e f0	 mov	 rbx, QWORD PTR [rsi-16]
  01268	48 83 ee 08	 sub	 rsi, 8

; 1611 :             x = PyNumber_Lshift(v, w);

  0126c	48 8b d7	 mov	 rdx, rdi
  0126f	48 8b cb	 mov	 rcx, rbx
  01272	e8 00 00 00 00	 call	 PyNumber_Lshift

; 1612 :             Py_DECREF(v);
; 1613 :             Py_DECREF(w);
; 1614 :             SET_TOP(x);
; 1615 :             if (x != NULL) DISPATCH();
; 1616 :             break;

  01277	e9 c2 fd ff ff	 jmp	 $LN1069@PyEval_Eva
$LN466@PyEval_Eva:

; 1617 : 
; 1618 :         TARGET(BINARY_RSHIFT)
; 1619 :             w = POP();

  0127c	83 3d 00 00 00
	00 00		 cmp	 DWORD PTR lltrace, 0
  01283	74 10		 je	 SHORT $LN576@PyEval_Eva
  01285	48 8b 4e f8	 mov	 rcx, QWORD PTR [rsi-8]
  01289	48 8d 15 00 00
	00 00		 lea	 rdx, OFFSET FLAT:??_C@_03NJDAHFJE@pop?$AA@
  01290	e8 00 00 00 00	 call	 prtrace
$LN576@PyEval_Eva:
  01295	48 8b 7e f8	 mov	 rdi, QWORD PTR [rsi-8]

; 1620 :             v = TOP();

  01299	48 8b 5e f0	 mov	 rbx, QWORD PTR [rsi-16]
  0129d	48 83 ee 08	 sub	 rsi, 8

; 1621 :             x = PyNumber_Rshift(v, w);

  012a1	48 8b d7	 mov	 rdx, rdi
  012a4	48 8b cb	 mov	 rcx, rbx
  012a7	e8 00 00 00 00	 call	 PyNumber_Rshift

; 1622 :             Py_DECREF(v);
; 1623 :             Py_DECREF(w);
; 1624 :             SET_TOP(x);
; 1625 :             if (x != NULL) DISPATCH();
; 1626 :             break;

  012ac	e9 8d fd ff ff	 jmp	 $LN1069@PyEval_Eva
$LN464@PyEval_Eva:

; 1627 : 
; 1628 :         TARGET(BINARY_AND)
; 1629 :             w = POP();

  012b1	83 3d 00 00 00
	00 00		 cmp	 DWORD PTR lltrace, 0
  012b8	74 10		 je	 SHORT $LN577@PyEval_Eva
  012ba	48 8b 4e f8	 mov	 rcx, QWORD PTR [rsi-8]
  012be	48 8d 15 00 00
	00 00		 lea	 rdx, OFFSET FLAT:??_C@_03NJDAHFJE@pop?$AA@
  012c5	e8 00 00 00 00	 call	 prtrace
$LN577@PyEval_Eva:
  012ca	48 8b 7e f8	 mov	 rdi, QWORD PTR [rsi-8]

; 1630 :             v = TOP();

  012ce	48 8b 5e f0	 mov	 rbx, QWORD PTR [rsi-16]
  012d2	48 83 ee 08	 sub	 rsi, 8

; 1631 :             x = PyNumber_And(v, w);

  012d6	48 8b d7	 mov	 rdx, rdi
  012d9	48 8b cb	 mov	 rcx, rbx
  012dc	e8 00 00 00 00	 call	 PyNumber_And

; 1632 :             Py_DECREF(v);
; 1633 :             Py_DECREF(w);
; 1634 :             SET_TOP(x);
; 1635 :             if (x != NULL) DISPATCH();
; 1636 :             break;

  012e1	e9 58 fd ff ff	 jmp	 $LN1069@PyEval_Eva
$LN462@PyEval_Eva:

; 1637 : 
; 1638 :         TARGET(BINARY_XOR)
; 1639 :             w = POP();

  012e6	83 3d 00 00 00
	00 00		 cmp	 DWORD PTR lltrace, 0
  012ed	74 10		 je	 SHORT $LN578@PyEval_Eva
  012ef	48 8b 4e f8	 mov	 rcx, QWORD PTR [rsi-8]
  012f3	48 8d 15 00 00
	00 00		 lea	 rdx, OFFSET FLAT:??_C@_03NJDAHFJE@pop?$AA@
  012fa	e8 00 00 00 00	 call	 prtrace
$LN578@PyEval_Eva:
  012ff	48 8b 7e f8	 mov	 rdi, QWORD PTR [rsi-8]

; 1640 :             v = TOP();

  01303	48 8b 5e f0	 mov	 rbx, QWORD PTR [rsi-16]
  01307	48 83 ee 08	 sub	 rsi, 8

; 1641 :             x = PyNumber_Xor(v, w);

  0130b	48 8b d7	 mov	 rdx, rdi
  0130e	48 8b cb	 mov	 rcx, rbx
  01311	e8 00 00 00 00	 call	 PyNumber_Xor

; 1642 :             Py_DECREF(v);
; 1643 :             Py_DECREF(w);
; 1644 :             SET_TOP(x);
; 1645 :             if (x != NULL) DISPATCH();
; 1646 :             break;

  01316	e9 23 fd ff ff	 jmp	 $LN1069@PyEval_Eva
$LN460@PyEval_Eva:

; 1647 : 
; 1648 :         TARGET(BINARY_OR)
; 1649 :             w = POP();

  0131b	83 3d 00 00 00
	00 00		 cmp	 DWORD PTR lltrace, 0
  01322	74 10		 je	 SHORT $LN579@PyEval_Eva
  01324	48 8b 4e f8	 mov	 rcx, QWORD PTR [rsi-8]
  01328	48 8d 15 00 00
	00 00		 lea	 rdx, OFFSET FLAT:??_C@_03NJDAHFJE@pop?$AA@
  0132f	e8 00 00 00 00	 call	 prtrace
$LN579@PyEval_Eva:
  01334	48 8b 7e f8	 mov	 rdi, QWORD PTR [rsi-8]

; 1650 :             v = TOP();

  01338	48 8b 5e f0	 mov	 rbx, QWORD PTR [rsi-16]
  0133c	48 83 ee 08	 sub	 rsi, 8

; 1651 :             x = PyNumber_Or(v, w);

  01340	48 8b d7	 mov	 rdx, rdi
  01343	48 8b cb	 mov	 rcx, rbx
  01346	e8 00 00 00 00	 call	 PyNumber_Or

; 1652 :             Py_DECREF(v);
; 1653 :             Py_DECREF(w);
; 1654 :             SET_TOP(x);
; 1655 :             if (x != NULL) DISPATCH();
; 1656 :             break;

  0134b	e9 ee fc ff ff	 jmp	 $LN1069@PyEval_Eva
$LN458@PyEval_Eva:

; 1657 : 
; 1658 :         TARGET(LIST_APPEND)
; 1659 :             w = POP();

  01350	83 3d 00 00 00
	00 00		 cmp	 DWORD PTR lltrace, 0
  01357	74 10		 je	 SHORT $LN580@PyEval_Eva
  01359	48 8b 4e f8	 mov	 rcx, QWORD PTR [rsi-8]
  0135d	48 8d 15 00 00
	00 00		 lea	 rdx, OFFSET FLAT:??_C@_03NJDAHFJE@pop?$AA@
  01364	e8 00 00 00 00	 call	 prtrace
$LN580@PyEval_Eva:
  01369	48 8b 5e f8	 mov	 rbx, QWORD PTR [rsi-8]
  0136d	48 83 ee 08	 sub	 rsi, 8

; 1660 :             v = PEEK(oparg);

  01371	49 63 d5	 movsxd	 rdx, r13d
  01374	48 c1 e2 03	 shl	 rdx, 3
  01378	48 8b c6	 mov	 rax, rsi
  0137b	48 2b c2	 sub	 rax, rdx

; 1661 :             err = PyList_Append(v, w);

  0137e	48 8b d3	 mov	 rdx, rbx
  01381	48 8b 08	 mov	 rcx, QWORD PTR [rax]
  01384	e8 00 00 00 00	 call	 PyList_Append

; 1662 :             Py_DECREF(w);
; 1663 :             if (err == 0) {
; 1664 :                 PREDICT(JUMP_ABSOLUTE);
; 1665 :                 DISPATCH();

  01389	eb 39		 jmp	 SHORT $LN1067@PyEval_Eva
$LN455@PyEval_Eva:

; 1666 :             }
; 1667 :             break;
; 1668 : 
; 1669 :         TARGET(SET_ADD)
; 1670 :             w = POP();

  0138b	83 3d 00 00 00
	00 00		 cmp	 DWORD PTR lltrace, 0
  01392	74 10		 je	 SHORT $LN581@PyEval_Eva
  01394	48 8b 4e f8	 mov	 rcx, QWORD PTR [rsi-8]
  01398	48 8d 15 00 00
	00 00		 lea	 rdx, OFFSET FLAT:??_C@_03NJDAHFJE@pop?$AA@
  0139f	e8 00 00 00 00	 call	 prtrace
$LN581@PyEval_Eva:
  013a4	48 8b 5e f8	 mov	 rbx, QWORD PTR [rsi-8]
  013a8	48 83 ee 08	 sub	 rsi, 8

; 1671 :             v = stack_pointer[-oparg];

  013ac	49 63 d5	 movsxd	 rdx, r13d
  013af	48 c1 e2 03	 shl	 rdx, 3
  013b3	48 8b c6	 mov	 rax, rsi
  013b6	48 2b c2	 sub	 rax, rdx

; 1672 :             err = PySet_Add(v, w);

  013b9	48 8b d3	 mov	 rdx, rbx
  013bc	48 8b 08	 mov	 rcx, QWORD PTR [rax]
  013bf	e8 00 00 00 00	 call	 PySet_Add
$LN1067@PyEval_Eva:

; 1673 :             Py_DECREF(w);

  013c4	48 8b cb	 mov	 rcx, rbx
  013c7	44 8b e8	 mov	 r13d, eax
  013ca	89 85 98 00 00
	00		 mov	 DWORD PTR err$1$[rbp-256], eax
  013d0	e8 00 00 00 00	 call	 _Py_DecRef

; 1674 :             if (err == 0) {

  013d5	45 85 ed	 test	 r13d, r13d
  013d8	0f 85 33 f8 ff
	ff		 jne	 $LN1039@PyEval_Eva

; 1675 :                 PREDICT(JUMP_ABSOLUTE);

  013de	48 8b 4c 24 40	 mov	 rcx, QWORD PTR next_instr$1$[rsp]
  013e3	80 39 71	 cmp	 BYTE PTR [rcx], 113	; 00000071H
  013e6	0f 84 d4 15 00
	00		 je	 $PRED_JUMP_ABSOLUTE$64733

; 1676 :                 DISPATCH();

  013ec	e9 51 ee ff ff	 jmp	 $LN1064@PyEval_Eva
$LN452@PyEval_Eva:

; 1677 :             }
; 1678 :             break;
; 1679 : 
; 1680 :         TARGET(INPLACE_POWER)
; 1681 :             w = POP();

  013f1	83 3d 00 00 00
	00 00		 cmp	 DWORD PTR lltrace, 0
  013f8	74 10		 je	 SHORT $LN582@PyEval_Eva
  013fa	48 8b 4e f8	 mov	 rcx, QWORD PTR [rsi-8]
  013fe	48 8d 15 00 00
	00 00		 lea	 rdx, OFFSET FLAT:??_C@_03NJDAHFJE@pop?$AA@
  01405	e8 00 00 00 00	 call	 prtrace
$LN582@PyEval_Eva:
  0140a	48 8b 7e f8	 mov	 rdi, QWORD PTR [rsi-8]

; 1682 :             v = TOP();

  0140e	48 8b 5e f0	 mov	 rbx, QWORD PTR [rsi-16]
  01412	48 83 ee 08	 sub	 rsi, 8

; 1683 :             x = PyNumber_InPlacePower(v, w, Py_None);

  01416	4c 8d 05 00 00
	00 00		 lea	 r8, OFFSET FLAT:_Py_NoneStruct
  0141d	48 8b d7	 mov	 rdx, rdi
  01420	48 8b cb	 mov	 rcx, rbx
  01423	e8 00 00 00 00	 call	 PyNumber_InPlacePower

; 1684 :             Py_DECREF(v);
; 1685 :             Py_DECREF(w);
; 1686 :             SET_TOP(x);
; 1687 :             if (x != NULL) DISPATCH();
; 1688 :             break;

  01428	e9 11 fc ff ff	 jmp	 $LN1069@PyEval_Eva
$LN450@PyEval_Eva:

; 1689 : 
; 1690 :         TARGET(INPLACE_MULTIPLY)
; 1691 :             w = POP();

  0142d	83 3d 00 00 00
	00 00		 cmp	 DWORD PTR lltrace, 0
  01434	74 10		 je	 SHORT $LN583@PyEval_Eva
  01436	48 8b 4e f8	 mov	 rcx, QWORD PTR [rsi-8]
  0143a	48 8d 15 00 00
	00 00		 lea	 rdx, OFFSET FLAT:??_C@_03NJDAHFJE@pop?$AA@
  01441	e8 00 00 00 00	 call	 prtrace
$LN583@PyEval_Eva:
  01446	48 8b 7e f8	 mov	 rdi, QWORD PTR [rsi-8]

; 1692 :             v = TOP();

  0144a	48 8b 5e f0	 mov	 rbx, QWORD PTR [rsi-16]
  0144e	48 83 ee 08	 sub	 rsi, 8

; 1693 :             x = PyNumber_InPlaceMultiply(v, w);

  01452	48 8b d7	 mov	 rdx, rdi
  01455	48 8b cb	 mov	 rcx, rbx
  01458	e8 00 00 00 00	 call	 PyNumber_InPlaceMultiply

; 1694 :             Py_DECREF(v);
; 1695 :             Py_DECREF(w);
; 1696 :             SET_TOP(x);
; 1697 :             if (x != NULL) DISPATCH();
; 1698 :             break;

  0145d	e9 dc fb ff ff	 jmp	 $LN1069@PyEval_Eva
$LN448@PyEval_Eva:

; 1699 : 
; 1700 :         TARGET(INPLACE_TRUE_DIVIDE)
; 1701 :             w = POP();

  01462	83 3d 00 00 00
	00 00		 cmp	 DWORD PTR lltrace, 0
  01469	74 10		 je	 SHORT $LN584@PyEval_Eva
  0146b	48 8b 4e f8	 mov	 rcx, QWORD PTR [rsi-8]
  0146f	48 8d 15 00 00
	00 00		 lea	 rdx, OFFSET FLAT:??_C@_03NJDAHFJE@pop?$AA@
  01476	e8 00 00 00 00	 call	 prtrace
$LN584@PyEval_Eva:
  0147b	48 8b 7e f8	 mov	 rdi, QWORD PTR [rsi-8]

; 1702 :             v = TOP();

  0147f	48 8b 5e f0	 mov	 rbx, QWORD PTR [rsi-16]
  01483	48 83 ee 08	 sub	 rsi, 8

; 1703 :             x = PyNumber_InPlaceTrueDivide(v, w);

  01487	48 8b d7	 mov	 rdx, rdi
  0148a	48 8b cb	 mov	 rcx, rbx
  0148d	e8 00 00 00 00	 call	 PyNumber_InPlaceTrueDivide

; 1704 :             Py_DECREF(v);
; 1705 :             Py_DECREF(w);
; 1706 :             SET_TOP(x);
; 1707 :             if (x != NULL) DISPATCH();
; 1708 :             break;

  01492	e9 a7 fb ff ff	 jmp	 $LN1069@PyEval_Eva
$LN446@PyEval_Eva:

; 1709 : 
; 1710 :         TARGET(INPLACE_FLOOR_DIVIDE)
; 1711 :             w = POP();

  01497	83 3d 00 00 00
	00 00		 cmp	 DWORD PTR lltrace, 0
  0149e	74 10		 je	 SHORT $LN585@PyEval_Eva
  014a0	48 8b 4e f8	 mov	 rcx, QWORD PTR [rsi-8]
  014a4	48 8d 15 00 00
	00 00		 lea	 rdx, OFFSET FLAT:??_C@_03NJDAHFJE@pop?$AA@
  014ab	e8 00 00 00 00	 call	 prtrace
$LN585@PyEval_Eva:
  014b0	48 8b 7e f8	 mov	 rdi, QWORD PTR [rsi-8]

; 1712 :             v = TOP();

  014b4	48 8b 5e f0	 mov	 rbx, QWORD PTR [rsi-16]
  014b8	48 83 ee 08	 sub	 rsi, 8

; 1713 :             x = PyNumber_InPlaceFloorDivide(v, w);

  014bc	48 8b d7	 mov	 rdx, rdi
  014bf	48 8b cb	 mov	 rcx, rbx
  014c2	e8 00 00 00 00	 call	 PyNumber_InPlaceFloorDivide

; 1714 :             Py_DECREF(v);
; 1715 :             Py_DECREF(w);
; 1716 :             SET_TOP(x);
; 1717 :             if (x != NULL) DISPATCH();
; 1718 :             break;

  014c7	e9 72 fb ff ff	 jmp	 $LN1069@PyEval_Eva
$LN444@PyEval_Eva:

; 1719 : 
; 1720 :         TARGET(INPLACE_MODULO)
; 1721 :             w = POP();

  014cc	83 3d 00 00 00
	00 00		 cmp	 DWORD PTR lltrace, 0
  014d3	74 10		 je	 SHORT $LN586@PyEval_Eva
  014d5	48 8b 4e f8	 mov	 rcx, QWORD PTR [rsi-8]
  014d9	48 8d 15 00 00
	00 00		 lea	 rdx, OFFSET FLAT:??_C@_03NJDAHFJE@pop?$AA@
  014e0	e8 00 00 00 00	 call	 prtrace
$LN586@PyEval_Eva:
  014e5	48 8b 7e f8	 mov	 rdi, QWORD PTR [rsi-8]

; 1722 :             v = TOP();

  014e9	48 8b 5e f0	 mov	 rbx, QWORD PTR [rsi-16]
  014ed	48 83 ee 08	 sub	 rsi, 8

; 1723 :             x = PyNumber_InPlaceRemainder(v, w);

  014f1	48 8b d7	 mov	 rdx, rdi
  014f4	48 8b cb	 mov	 rcx, rbx
  014f7	e8 00 00 00 00	 call	 PyNumber_InPlaceRemainder

; 1724 :             Py_DECREF(v);
; 1725 :             Py_DECREF(w);
; 1726 :             SET_TOP(x);
; 1727 :             if (x != NULL) DISPATCH();
; 1728 :             break;

  014fc	e9 3d fb ff ff	 jmp	 $LN1069@PyEval_Eva
$LN442@PyEval_Eva:

; 1729 : 
; 1730 :         TARGET(INPLACE_ADD)
; 1731 :             w = POP();

  01501	83 3d 00 00 00
	00 00		 cmp	 DWORD PTR lltrace, 0
  01508	74 10		 je	 SHORT $LN587@PyEval_Eva
