; Listing generated by Microsoft (R) Optimizing Compiler Version 16.00.40219.01 

include listing.inc

INCLUDELIB MSVCRTD
INCLUDELIB OLDNAMES

PUBLIC	??_C@_05NMLJCBBB@cmath?$AA@			; `string'
PUBLIC	??_C@_04FJHINJAO@tanh?$AA@			; `string'
PUBLIC	??_C@_03IIINPABG@tan?$AA@			; `string'
PUBLIC	??_C@_04EIAKFFMI@sqrt?$AA@			; `string'
PUBLIC	??_C@_04COOMCNPB@sinh?$AA@			; `string'
PUBLIC	??_C@_03BLEJJJBH@sin?$AA@			; `string'
PUBLIC	??_C@_04LHPFHFPH@rect?$AA@			; `string'
PUBLIC	??_C@_05HLJBEBNJ@polar?$AA@			; `string'
PUBLIC	??_C@_05CBPKLGJM@phase?$AA@			; `string'
PUBLIC	??_C@_05HGHHAHAP@log10?$AA@			; `string'
PUBLIC	??_C@_03MGHMBJCF@log?$AA@			; `string'
PUBLIC	??_C@_05LGCGPNNP@isnan?$AA@			; `string'
PUBLIC	??_C@_05OIHEAIFD@isinf?$AA@			; `string'
PUBLIC	??_C@_08CHCKEDFL@isfinite?$AA@			; `string'
PUBLIC	??_C@_03KHJOGHMM@exp?$AA@			; `string'
PUBLIC	??_C@_04HPJJNFIM@cosh?$AA@			; `string'
PUBLIC	??_C@_03LALBNOCG@cos?$AA@			; `string'
PUBLIC	??_C@_05ONDAFDEP@atanh?$AA@			; `string'
PUBLIC	??_C@_04MLLJIGOK@atan?$AA@			; `string'
PUBLIC	??_C@_05JKKEKHLA@asinh?$AA@			; `string'
PUBLIC	??_C@_04FIHNOPOL@asin?$AA@			; `string'
PUBLIC	??_C@_05MLNBFPMN@acosh?$AA@			; `string'
PUBLIC	??_C@_04PDIFKINK@acos?$AA@			; `string'
;	COMDAT ??_C@_05NMLJCBBB@cmath?$AA@
CONST	SEGMENT
??_C@_05NMLJCBBB@cmath?$AA@ DB 'cmath', 00H		; `string'
CONST	ENDS
;	COMDAT ??_C@_04FJHINJAO@tanh?$AA@
CONST	SEGMENT
??_C@_04FJHINJAO@tanh?$AA@ DB 'tanh', 00H		; `string'
CONST	ENDS
;	COMDAT ??_C@_03IIINPABG@tan?$AA@
CONST	SEGMENT
??_C@_03IIINPABG@tan?$AA@ DB 'tan', 00H			; `string'
CONST	ENDS
;	COMDAT ??_C@_04EIAKFFMI@sqrt?$AA@
CONST	SEGMENT
??_C@_04EIAKFFMI@sqrt?$AA@ DB 'sqrt', 00H		; `string'
CONST	ENDS
;	COMDAT ??_C@_04COOMCNPB@sinh?$AA@
CONST	SEGMENT
??_C@_04COOMCNPB@sinh?$AA@ DB 'sinh', 00H		; `string'
CONST	ENDS
;	COMDAT ??_C@_03BLEJJJBH@sin?$AA@
CONST	SEGMENT
??_C@_03BLEJJJBH@sin?$AA@ DB 'sin', 00H			; `string'
CONST	ENDS
;	COMDAT ??_C@_04LHPFHFPH@rect?$AA@
CONST	SEGMENT
??_C@_04LHPFHFPH@rect?$AA@ DB 'rect', 00H		; `string'
CONST	ENDS
;	COMDAT ??_C@_05HLJBEBNJ@polar?$AA@
CONST	SEGMENT
??_C@_05HLJBEBNJ@polar?$AA@ DB 'polar', 00H		; `string'
CONST	ENDS
;	COMDAT ??_C@_05CBPKLGJM@phase?$AA@
CONST	SEGMENT
??_C@_05CBPKLGJM@phase?$AA@ DB 'phase', 00H		; `string'
CONST	ENDS
;	COMDAT ??_C@_05HGHHAHAP@log10?$AA@
CONST	SEGMENT
??_C@_05HGHHAHAP@log10?$AA@ DB 'log10', 00H		; `string'
CONST	ENDS
;	COMDAT ??_C@_03MGHMBJCF@log?$AA@
CONST	SEGMENT
??_C@_03MGHMBJCF@log?$AA@ DB 'log', 00H			; `string'
CONST	ENDS
;	COMDAT ??_C@_05LGCGPNNP@isnan?$AA@
CONST	SEGMENT
??_C@_05LGCGPNNP@isnan?$AA@ DB 'isnan', 00H		; `string'
CONST	ENDS
;	COMDAT ??_C@_05OIHEAIFD@isinf?$AA@
CONST	SEGMENT
??_C@_05OIHEAIFD@isinf?$AA@ DB 'isinf', 00H		; `string'
CONST	ENDS
;	COMDAT ??_C@_08CHCKEDFL@isfinite?$AA@
CONST	SEGMENT
??_C@_08CHCKEDFL@isfinite?$AA@ DB 'isfinite', 00H	; `string'
CONST	ENDS
;	COMDAT ??_C@_03KHJOGHMM@exp?$AA@
CONST	SEGMENT
??_C@_03KHJOGHMM@exp?$AA@ DB 'exp', 00H			; `string'
CONST	ENDS
;	COMDAT ??_C@_04HPJJNFIM@cosh?$AA@
CONST	SEGMENT
??_C@_04HPJJNFIM@cosh?$AA@ DB 'cosh', 00H		; `string'
CONST	ENDS
;	COMDAT ??_C@_03LALBNOCG@cos?$AA@
CONST	SEGMENT
??_C@_03LALBNOCG@cos?$AA@ DB 'cos', 00H			; `string'
CONST	ENDS
;	COMDAT ??_C@_05ONDAFDEP@atanh?$AA@
CONST	SEGMENT
??_C@_05ONDAFDEP@atanh?$AA@ DB 'atanh', 00H		; `string'
CONST	ENDS
;	COMDAT ??_C@_04MLLJIGOK@atan?$AA@
CONST	SEGMENT
??_C@_04MLLJIGOK@atan?$AA@ DB 'atan', 00H		; `string'
CONST	ENDS
;	COMDAT ??_C@_05JKKEKHLA@asinh?$AA@
CONST	SEGMENT
??_C@_05JKKEKHLA@asinh?$AA@ DB 'asinh', 00H		; `string'
CONST	ENDS
;	COMDAT ??_C@_04FIHNOPOL@asin?$AA@
CONST	SEGMENT
??_C@_04FIHNOPOL@asin?$AA@ DB 'asin', 00H		; `string'
CONST	ENDS
;	COMDAT ??_C@_05MLNBFPMN@acosh?$AA@
CONST	SEGMENT
??_C@_05MLNBFPMN@acosh?$AA@ DB 'acosh', 00H		; `string'
CONST	ENDS
;	COMDAT ??_C@_04PDIFKINK@acos?$AA@
CONST	SEGMENT
??_C@_04PDIFKINK@acos?$AA@ DB 'acos', 00H		; `string'
CONST	ENDS
_DATA	SEGMENT
c_acos_doc DB	'acos(x)', 0aH, 0aH, 'Return the arc cosine of x.', 00H
	ORG $+3
c_acosh_doc DB	'acosh(x)', 0aH, 0aH, 'Return the hyperbolic arccosine of'
	DB	' x.', 00H
c_asin_doc DB	'asin(x)', 0aH, 0aH, 'Return the arc sine of x.', 00H
	ORG $+5
c_asinh_doc DB	'asinh(x)', 0aH, 0aH, 'Return the hyperbolic arc sine of '
	DB	'x.', 00H
	ORG $+1
c_atan_doc DB	'atan(x)', 0aH, 0aH, 'Return the arc tangent of x.', 00H
	ORG $+2
c_atanh_doc DB	'atanh(x)', 0aH, 0aH, 'Return the hyperbolic arc tangent '
	DB	'of x.', 00H
	ORG $+6
c_cos_doc DB	'cos(x)', 0aH, 0aH, 'Return the cosine of x.', 00H
c_cosh_doc DB	'cosh(x)', 0aH, 0aH, 'Return the hyperbolic cosine of x.', 00H
	ORG $+4
c_exp_doc DB	'exp(x)', 0aH, 0aH, 'Return the exponential value e**x.', 00H
	ORG $+5
c_log10_doc DB	'log10(x)', 0aH, 0aH, 'Return the base-10 logarithm of x.'
	DB	00H
	ORG $+3
c_sin_doc DB	'sin(x)', 0aH, 0aH, 'Return the sine of x.', 00H
	ORG $+2
c_sinh_doc DB	'sinh(x)', 0aH, 0aH, 'Return the hyperbolic sine of x.', 00H
	ORG $+6
c_sqrt_doc DB	'sqrt(x)', 0aH, 0aH, 'Return the square root of x.', 00H
	ORG $+2
c_tan_doc DB	'tan(x)', 0aH, 0aH, 'Return the tangent of x.', 00H
	ORG $+7
c_tanh_doc DB	'tanh(x)', 0aH, 0aH, 'Return the hyperbolic tangent of x.'
	DB	00H
	ORG $+3
cmath_log_doc DB 'log(x[, base]) -> the logarithm of x to the given base.'
	DB	0aH, 'If the base not specified, returns the natural logarithm'
	DB	' (base e) of x.', 00H
cmath_phase_doc DB 'phase(z) -> float', 0aH, 0aH, 'Return argument, also '
	DB	'known as the phase angle, of a complex.', 00H
	ORG $+15
cmath_polar_doc DB 'polar(z) -> r: float, phi: float', 0aH, 0aH, 'Convert'
	DB	' a complex from rectangular coordinates to polar coordinates.'
	DB	' r is', 0aH, 'the distance from 0 and phi the phase angle.', 00H
	ORG $+7
cmath_rect_doc DB 'rect(r, phi) -> z: complex', 0aH, 0aH, 'Convert from p'
	DB	'olar coordinates to rectangular coordinates.', 00H
	ORG $+9
cmath_isfinite_doc DB 'isfinite(z) -> bool', 0aH, 'Return True if both th'
	DB	'e real and imaginary parts of z are finite, else False.', 00H
	ORG $+14
cmath_isnan_doc DB 'isnan(z) -> bool', 0aH, 'Checks if the real or imagin'
	DB	'ary part of z not a number (NaN)', 00H
	ORG $+2
cmath_isinf_doc DB 'isinf(z) -> bool', 0aH, 'Checks if the real or imagin'
	DB	'ary part of z is infinite.', 00H
	ORG $+8
module_doc DB	'This module is always available. It provides access to m'
	DB	'athematical', 0aH, 'functions for complex numbers.', 00H
	ORG $+13
cmath_methods DQ FLAT:??_C@_04PDIFKINK@acos?$AA@
	DQ	FLAT:cmath_acos
	DD	01H
	ORG $+4
	DQ	FLAT:c_acos_doc
	DQ	FLAT:??_C@_05MLNBFPMN@acosh?$AA@
	DQ	FLAT:cmath_acosh
	DD	01H
	ORG $+4
	DQ	FLAT:c_acosh_doc
	DQ	FLAT:??_C@_04FIHNOPOL@asin?$AA@
	DQ	FLAT:cmath_asin
	DD	01H
	ORG $+4
	DQ	FLAT:c_asin_doc
	DQ	FLAT:??_C@_05JKKEKHLA@asinh?$AA@
	DQ	FLAT:cmath_asinh
	DD	01H
	ORG $+4
	DQ	FLAT:c_asinh_doc
	DQ	FLAT:??_C@_04MLLJIGOK@atan?$AA@
	DQ	FLAT:cmath_atan
	DD	01H
	ORG $+4
	DQ	FLAT:c_atan_doc
	DQ	FLAT:??_C@_05ONDAFDEP@atanh?$AA@
	DQ	FLAT:cmath_atanh
	DD	01H
	ORG $+4
	DQ	FLAT:c_atanh_doc
	DQ	FLAT:??_C@_03LALBNOCG@cos?$AA@
	DQ	FLAT:cmath_cos
	DD	01H
	ORG $+4
	DQ	FLAT:c_cos_doc
	DQ	FLAT:??_C@_04HPJJNFIM@cosh?$AA@
	DQ	FLAT:cmath_cosh
	DD	01H
	ORG $+4
	DQ	FLAT:c_cosh_doc
	DQ	FLAT:??_C@_03KHJOGHMM@exp?$AA@
	DQ	FLAT:cmath_exp
	DD	01H
	ORG $+4
	DQ	FLAT:c_exp_doc
	DQ	FLAT:??_C@_08CHCKEDFL@isfinite?$AA@
	DQ	FLAT:cmath_isfinite
	DD	01H
	ORG $+4
	DQ	FLAT:cmath_isfinite_doc
	DQ	FLAT:??_C@_05OIHEAIFD@isinf?$AA@
	DQ	FLAT:cmath_isinf
	DD	01H
	ORG $+4
	DQ	FLAT:cmath_isinf_doc
	DQ	FLAT:??_C@_05LGCGPNNP@isnan?$AA@
	DQ	FLAT:cmath_isnan
	DD	01H
	ORG $+4
	DQ	FLAT:cmath_isnan_doc
	DQ	FLAT:??_C@_03MGHMBJCF@log?$AA@
	DQ	FLAT:cmath_log
	DD	01H
	ORG $+4
	DQ	FLAT:cmath_log_doc
	DQ	FLAT:??_C@_05HGHHAHAP@log10?$AA@
	DQ	FLAT:cmath_log10
	DD	01H
	ORG $+4
	DQ	FLAT:c_log10_doc
	DQ	FLAT:??_C@_05CBPKLGJM@phase?$AA@
	DQ	FLAT:cmath_phase
	DD	01H
	ORG $+4
	DQ	FLAT:cmath_phase_doc
	DQ	FLAT:??_C@_05HLJBEBNJ@polar?$AA@
	DQ	FLAT:cmath_polar
	DD	01H
	ORG $+4
	DQ	FLAT:cmath_polar_doc
	DQ	FLAT:??_C@_04LHPFHFPH@rect?$AA@
	DQ	FLAT:cmath_rect
	DD	01H
	ORG $+4
	DQ	FLAT:cmath_rect_doc
	DQ	FLAT:??_C@_03BLEJJJBH@sin?$AA@
	DQ	FLAT:cmath_sin
	DD	01H
	ORG $+4
	DQ	FLAT:c_sin_doc
	DQ	FLAT:??_C@_04COOMCNPB@sinh?$AA@
	DQ	FLAT:cmath_sinh
	DD	01H
	ORG $+4
	DQ	FLAT:c_sinh_doc
	DQ	FLAT:??_C@_04EIAKFFMI@sqrt?$AA@
	DQ	FLAT:cmath_sqrt
	DD	01H
	ORG $+4
	DQ	FLAT:c_sqrt_doc
	DQ	FLAT:??_C@_03IIINPABG@tan?$AA@
	DQ	FLAT:cmath_tan
	DD	01H
	ORG $+4
	DQ	FLAT:c_tan_doc
	DQ	FLAT:??_C@_04FJHINJAO@tanh?$AA@
	DQ	FLAT:cmath_tanh
	DD	01H
	ORG $+4
	DQ	FLAT:c_tanh_doc
	DQ	0000000000000000H
	DQ	0000000000000000H
	ORG $+16
cmathmodule DQ	dead1234beef5678H
	DQ	dead1234beef5678H
	DQ	0000000000000000H
	ORG $+8
	DQ	0000000000000001H
	DQ	0000000000000000H
	DQ	0000000000000000H
	DQ	0000000000000000H
	DQ	dead1234beef5678H
	DQ	dead1234beef5678H
	DQ	0000000000000001H
	DQ	0000000000000000H
	DQ	0000000000000000H
	DQ	0000000000000000H
	DQ	0000000000000000H
	ORG $+8
	DQ	FLAT:??_C@_05NMLJCBBB@cmath?$AA@
	DQ	FLAT:module_doc
	DQ	ffffffffffffffffH
	DQ	FLAT:cmath_methods
	DQ	0000000000000000H
	DQ	0000000000000000H
	DQ	0000000000000000H
	DQ	0000000000000000H
_DATA	ENDS
PUBLIC	$T21133
PUBLIC	$T21134
PUBLIC	$T21131
PUBLIC	$T21132
PUBLIC	$T21135
PUBLIC	$T21130
PUBLIC	$T21136
PUBLIC	$T21129
PUBLIC	??_C@_03DDDPELM@D?$HMD?$AA@			; `string'
EXTRN	PyComplex_FromCComplex:PROC
EXTRN	_Py_c_quot:PROC
EXTRN	__imp__errno:PROC
EXTRN	PyArg_ParseTuple:PROC
;	COMDAT pdata
; File c:\src\pyparallel\modules\cmathmodule.c
pdata	SEGMENT
$pdata$cmath_log DD imagerel cmath_log
	DD	imagerel cmath_log+459
	DD	imagerel $unwind$cmath_log
pdata	ENDS
;	COMDAT xdata
xdata	SEGMENT
$unwind$cmath_log DD 041301H
	DD	01f0113H
	DD	0600b700cH
xdata	ENDS
;	COMDAT ??_C@_03DDDPELM@D?$HMD?$AA@
CONST	SEGMENT
??_C@_03DDDPELM@D?$HMD?$AA@ DB 'D|D', 00H		; `string'
; Function compile flags: /Odtp
CONST	ENDS
;	COMDAT cmath_log
_TEXT	SEGMENT
y$ = 32
x$ = 48
$T21126 = 64
$T21127 = 80
$T21128 = 96
$T21129 = 112
$T21130 = 128
$T21131 = 144
$T21132 = 160
$T21133 = 176
$T21134 = 192
$T21135 = 208
$T21136 = 224
self$ = 272
args$ = 280
cmath_log PROC						; COMDAT

; 833  : {

  00000	48 89 54 24 10	 mov	 QWORD PTR [rsp+16], rdx
  00005	48 89 4c 24 08	 mov	 QWORD PTR [rsp+8], rcx
  0000a	56		 push	 rsi
  0000b	57		 push	 rdi
  0000c	48 81 ec f8 00
	00 00		 sub	 rsp, 248		; 000000f8H

; 834  :     Py_complex x;
; 835  :     Py_complex y;
; 836  : 
; 837  :     if (!PyArg_ParseTuple(args, "D|D", &x, &y))

  00013	4c 8d 4c 24 20	 lea	 r9, QWORD PTR y$[rsp]
  00018	4c 8d 44 24 30	 lea	 r8, QWORD PTR x$[rsp]
  0001d	48 8d 15 00 00
	00 00		 lea	 rdx, OFFSET FLAT:??_C@_03DDDPELM@D?$HMD?$AA@
  00024	48 8b 8c 24 18
	01 00 00	 mov	 rcx, QWORD PTR args$[rsp]
  0002c	e8 00 00 00 00	 call	 PyArg_ParseTuple
  00031	85 c0		 test	 eax, eax
  00033	75 07		 jne	 SHORT $LN3@cmath_log

; 838  :         return NULL;

  00035	33 c0		 xor	 eax, eax
  00037	e9 85 01 00 00	 jmp	 $LN4@cmath_log
$LN3@cmath_log:

; 839  : 
; 840  :     errno = 0;

  0003c	ff 15 00 00 00
	00		 call	 QWORD PTR __imp__errno
  00042	c7 00 00 00 00
	00		 mov	 DWORD PTR [rax], 0

; 841  :     PyFPE_START_PROTECT("complex function", return 0)
; 842  :     x = c_log(x);

  00048	48 8d 44 24 70	 lea	 rax, QWORD PTR $T21129[rsp]
  0004d	48 8d 4c 24 30	 lea	 rcx, QWORD PTR x$[rsp]
  00052	48 8b f8	 mov	 rdi, rax
  00055	48 8b f1	 mov	 rsi, rcx
  00058	b9 10 00 00 00	 mov	 ecx, 16
  0005d	f3 a4		 rep movsb
  0005f	48 8d 54 24 70	 lea	 rdx, QWORD PTR $T21129[rsp]
  00064	48 8d 4c 24 40	 lea	 rcx, QWORD PTR $T21126[rsp]
  00069	e8 00 00 00 00	 call	 c_log
  0006e	48 8d 8c 24 e0
	00 00 00	 lea	 rcx, QWORD PTR $T21136[rsp]
  00076	48 8b f9	 mov	 rdi, rcx
  00079	48 8b f0	 mov	 rsi, rax
  0007c	b9 10 00 00 00	 mov	 ecx, 16
  00081	f3 a4		 rep movsb
  00083	48 8d 44 24 30	 lea	 rax, QWORD PTR x$[rsp]
  00088	48 8d 8c 24 e0
	00 00 00	 lea	 rcx, QWORD PTR $T21136[rsp]
  00090	48 8b f8	 mov	 rdi, rax
  00093	48 8b f1	 mov	 rsi, rcx
  00096	b9 10 00 00 00	 mov	 ecx, 16
  0009b	f3 a4		 rep movsb

; 843  :     if (PyTuple_GET_SIZE(args) == 2) {

  0009d	48 8b 84 24 18
	01 00 00	 mov	 rax, QWORD PTR args$[rsp]
  000a5	48 83 78 60 02	 cmp	 QWORD PTR [rax+96], 2
  000aa	0f 85 d8 00 00
	00		 jne	 $LN2@cmath_log

; 844  :         y = c_log(y);

  000b0	48 8d 84 24 80
	00 00 00	 lea	 rax, QWORD PTR $T21130[rsp]
  000b8	48 8d 4c 24 20	 lea	 rcx, QWORD PTR y$[rsp]
  000bd	48 8b f8	 mov	 rdi, rax
  000c0	48 8b f1	 mov	 rsi, rcx
  000c3	b9 10 00 00 00	 mov	 ecx, 16
  000c8	f3 a4		 rep movsb
  000ca	48 8d 94 24 80
	00 00 00	 lea	 rdx, QWORD PTR $T21130[rsp]
  000d2	48 8d 4c 24 50	 lea	 rcx, QWORD PTR $T21127[rsp]
  000d7	e8 00 00 00 00	 call	 c_log
  000dc	48 8d 8c 24 d0
	00 00 00	 lea	 rcx, QWORD PTR $T21135[rsp]
  000e4	48 8b f9	 mov	 rdi, rcx
  000e7	48 8b f0	 mov	 rsi, rax
  000ea	b9 10 00 00 00	 mov	 ecx, 16
  000ef	f3 a4		 rep movsb
  000f1	48 8d 44 24 20	 lea	 rax, QWORD PTR y$[rsp]
  000f6	48 8d 8c 24 d0
	00 00 00	 lea	 rcx, QWORD PTR $T21135[rsp]
  000fe	48 8b f8	 mov	 rdi, rax
  00101	48 8b f1	 mov	 rsi, rcx
  00104	b9 10 00 00 00	 mov	 ecx, 16
  00109	f3 a4		 rep movsb

; 845  :         x = c_quot(x, y);

  0010b	48 8d 84 24 a0
	00 00 00	 lea	 rax, QWORD PTR $T21132[rsp]
  00113	48 8d 4c 24 20	 lea	 rcx, QWORD PTR y$[rsp]
  00118	48 8b f8	 mov	 rdi, rax
  0011b	48 8b f1	 mov	 rsi, rcx
  0011e	b9 10 00 00 00	 mov	 ecx, 16
  00123	f3 a4		 rep movsb
  00125	48 8d 84 24 90
	00 00 00	 lea	 rax, QWORD PTR $T21131[rsp]
  0012d	48 8d 4c 24 30	 lea	 rcx, QWORD PTR x$[rsp]
  00132	48 8b f8	 mov	 rdi, rax
  00135	48 8b f1	 mov	 rsi, rcx
  00138	b9 10 00 00 00	 mov	 ecx, 16
  0013d	f3 a4		 rep movsb
  0013f	4c 8d 84 24 a0
	00 00 00	 lea	 r8, QWORD PTR $T21132[rsp]
  00147	48 8d 94 24 90
	00 00 00	 lea	 rdx, QWORD PTR $T21131[rsp]
  0014f	48 8d 4c 24 60	 lea	 rcx, QWORD PTR $T21128[rsp]
  00154	e8 00 00 00 00	 call	 _Py_c_quot
  00159	48 8d 8c 24 c0
	00 00 00	 lea	 rcx, QWORD PTR $T21134[rsp]
  00161	48 8b f9	 mov	 rdi, rcx
  00164	48 8b f0	 mov	 rsi, rax
  00167	b9 10 00 00 00	 mov	 ecx, 16
  0016c	f3 a4		 rep movsb
  0016e	48 8d 44 24 30	 lea	 rax, QWORD PTR x$[rsp]
  00173	48 8d 8c 24 c0
	00 00 00	 lea	 rcx, QWORD PTR $T21134[rsp]
  0017b	48 8b f8	 mov	 rdi, rax
  0017e	48 8b f1	 mov	 rsi, rcx
  00181	b9 10 00 00 00	 mov	 ecx, 16
  00186	f3 a4		 rep movsb
$LN2@cmath_log:

; 846  :     }
; 847  :     PyFPE_END_PROTECT(x)
; 848  :     if (errno != 0)

  00188	ff 15 00 00 00
	00		 call	 QWORD PTR __imp__errno
  0018e	83 38 00	 cmp	 DWORD PTR [rax], 0
  00191	74 07		 je	 SHORT $LN1@cmath_log

; 849  :         return math_error();

  00193	e8 00 00 00 00	 call	 math_error
  00198	eb 27		 jmp	 SHORT $LN4@cmath_log
$LN1@cmath_log:

; 850  :     return PyComplex_FromCComplex(x);

  0019a	48 8d 84 24 b0
	00 00 00	 lea	 rax, QWORD PTR $T21133[rsp]
  001a2	48 8d 4c 24 30	 lea	 rcx, QWORD PTR x$[rsp]
  001a7	48 8b f8	 mov	 rdi, rax
  001aa	48 8b f1	 mov	 rsi, rcx
  001ad	b9 10 00 00 00	 mov	 ecx, 16
  001b2	f3 a4		 rep movsb
  001b4	48 8d 8c 24 b0
	00 00 00	 lea	 rcx, QWORD PTR $T21133[rsp]
  001bc	e8 00 00 00 00	 call	 PyComplex_FromCComplex
$LN4@cmath_log:

; 851  : }

  001c1	48 81 c4 f8 00
	00 00		 add	 rsp, 248		; 000000f8H
  001c8	5f		 pop	 rdi
  001c9	5e		 pop	 rsi
  001ca	c3		 ret	 0
cmath_log ENDP
_TEXT	ENDS
PUBLIC	__real@3ff0000000000000
PUBLIC	__real@3ffbae147ae147ae
PUBLIC	__real@3fe6b851eb851eb8
PUBLIC	__mask@@NegDouble@
PUBLIC	__real@40425e4f7b2737fa
PUBLIC	__real@0000000000000000
PUBLIC	__real@0010000000000000
PUBLIC	__real@3fe62e42fefa39ef
PUBLIC	__real@4000000000000000
PUBLIC	__real@7fcfffffffffffff
EXTRN	_Py_log1p:PROC
EXTRN	atan2:PROC
EXTRN	__imp__HUGE:QWORD
EXTRN	__imp_ldexp:PROC
EXTRN	log:PROC
EXTRN	fabs:PROC
EXTRN	__imp__finite:PROC
EXTRN	_fltused:DWORD
_BSS	SEGMENT
log_special_values DB 0310H DUP (?)
_BSS	ENDS
;	COMDAT pdata
pdata	SEGMENT
$pdata$c_log DD	imagerel c_log
	DD	imagerel c_log+930
	DD	imagerel $unwind$c_log
pdata	ENDS
;	COMDAT xdata
xdata	SEGMENT
$unwind$c_log DD 041301H
	DD	0110113H
	DD	0600b700cH
xdata	ENDS
;	COMDAT __real@3ff0000000000000
CONST	SEGMENT
__real@3ff0000000000000 DQ 03ff0000000000000r	; 1
CONST	ENDS
;	COMDAT __real@3ffbae147ae147ae
CONST	SEGMENT
__real@3ffbae147ae147ae DQ 03ffbae147ae147aer	; 1.73
CONST	ENDS
;	COMDAT __real@3fe6b851eb851eb8
CONST	SEGMENT
__real@3fe6b851eb851eb8 DQ 03fe6b851eb851eb8r	; 0.71
CONST	ENDS
;	COMDAT __mask@@NegDouble@
CONST	SEGMENT
__mask@@NegDouble@ DB 00H, 00H, 00H, 00H, 00H, 00H, 00H, 080H, 00H, 00H, 00H
	DB	00H, 00H, 00H, 00H, 080H
CONST	ENDS
;	COMDAT __real@40425e4f7b2737fa
CONST	SEGMENT
__real@40425e4f7b2737fa DQ 040425e4f7b2737far	; 36.7368
CONST	ENDS
;	COMDAT __real@0000000000000000
CONST	SEGMENT
__real@0000000000000000 DQ 00000000000000000r	; 0
CONST	ENDS
;	COMDAT __real@0010000000000000
CONST	SEGMENT
__real@0010000000000000 DQ 00010000000000000r	; 2.22507e-308
CONST	ENDS
;	COMDAT __real@3fe62e42fefa39ef
CONST	SEGMENT
__real@3fe62e42fefa39ef DQ 03fe62e42fefa39efr	; 0.693147
CONST	ENDS
;	COMDAT __real@4000000000000000
CONST	SEGMENT
__real@4000000000000000 DQ 04000000000000000r	; 2
CONST	ENDS
;	COMDAT __real@7fcfffffffffffff
CONST	SEGMENT
__real@7fcfffffffffffff DQ 07fcfffffffffffffr	; 4.49423e+307
; Function compile flags: /Odtp
CONST	ENDS
;	COMDAT c_log
_TEXT	SEGMENT
h$ = 32
ay$ = 40
an$ = 48
ax$ = 56
am$ = 64
r$ = 72
tv76 = 88
tv94 = 96
tv136 = 104
tv158 = 112
tv160 = 120
$T21143 = 160
z$ = 168
c_log	PROC						; COMDAT

; 499  : {

  00000	48 89 54 24 10	 mov	 QWORD PTR [rsp+16], rdx
  00005	48 89 4c 24 08	 mov	 QWORD PTR [rsp+8], rcx
  0000a	56		 push	 rsi
  0000b	57		 push	 rdi
  0000c	48 81 ec 88 00
	00 00		 sub	 rsp, 136		; 00000088H

; 500  :     /*
; 501  :        The usual formula for the real part is log(hypot(z.real, z.imag)).
; 502  :        There are four situations where this formula is potentially
; 503  :        problematic:
; 504  : 
; 505  :        (1) the absolute value of z is subnormal.  Then hypot is subnormal,
; 506  :        so has fewer than the usual number of bits of accuracy, hence may
; 507  :        have large relative error.  This then gives a large absolute error
; 508  :        in the log.  This can be solved by rescaling z by a suitable power
; 509  :        of 2.
; 510  : 
; 511  :        (2) the absolute value of z is greater than DBL_MAX (e.g. when both
; 512  :        z.real and z.imag are within a factor of 1/sqrt(2) of DBL_MAX)
; 513  :        Again, rescaling solves this.
; 514  : 
; 515  :        (3) the absolute value of z is close to 1.  In this case it's
; 516  :        difficult to achieve good accuracy, at least in part because a
; 517  :        change of 1ulp in the real or imaginary part of z can result in a
; 518  :        change of billions of ulps in the correctly rounded answer.
; 519  : 
; 520  :        (4) z = 0.  The simplest thing to do here is to call the
; 521  :        floating-point log with an argument of 0, and let its behaviour
; 522  :        (returning -infinity, signaling a floating-point exception, setting
; 523  :        errno, or whatever) determine that of c_log.  So the usual formula
; 524  :        is fine here.
; 525  : 
; 526  :      */
; 527  : 
; 528  :     Py_complex r;
; 529  :     double ax, ay, am, an, h;
; 530  : 
; 531  :     SPECIAL_VALUE(z, log_special_values);

  00013	48 8b 84 24 a8
	00 00 00	 mov	 rax, QWORD PTR z$[rsp]
  0001b	f2 0f 10 00	 movsdx	 xmm0, QWORD PTR [rax]
  0001f	ff 15 00 00 00
	00		 call	 QWORD PTR __imp__finite
  00025	85 c0		 test	 eax, eax
  00027	74 17		 je	 SHORT $LN11@c_log
  00029	48 8b 84 24 a8
	00 00 00	 mov	 rax, QWORD PTR z$[rsp]
  00031	f2 0f 10 40 08	 movsdx	 xmm0, QWORD PTR [rax+8]
  00036	ff 15 00 00 00
	00		 call	 QWORD PTR __imp__finite
  0003c	85 c0		 test	 eax, eax
  0003e	75 72		 jne	 SHORT $LN12@c_log
$LN11@c_log:
  00040	ff 15 00 00 00
	00		 call	 QWORD PTR __imp__errno
  00046	c7 00 00 00 00
	00		 mov	 DWORD PTR [rax], 0
  0004c	48 8b 84 24 a8
	00 00 00	 mov	 rax, QWORD PTR z$[rsp]
  00054	f2 0f 10 00	 movsdx	 xmm0, QWORD PTR [rax]
  00058	e8 00 00 00 00	 call	 special_type
  0005d	48 98		 cdqe
  0005f	48 6b c0 70	 imul	 rax, 112		; 00000070H
  00063	48 8d 0d 00 00
	00 00		 lea	 rcx, OFFSET FLAT:log_special_values
  0006a	48 03 c8	 add	 rcx, rax
  0006d	48 8b c1	 mov	 rax, rcx
  00070	48 89 44 24 58	 mov	 QWORD PTR tv76[rsp], rax
  00075	48 8b 8c 24 a8
	00 00 00	 mov	 rcx, QWORD PTR z$[rsp]
  0007d	f2 0f 10 41 08	 movsdx	 xmm0, QWORD PTR [rcx+8]
  00082	e8 00 00 00 00	 call	 special_type
  00087	48 98		 cdqe
  00089	48 6b c0 10	 imul	 rax, 16
  0008d	48 8b bc 24 a0
	00 00 00	 mov	 rdi, QWORD PTR $T21143[rsp]
  00095	48 8b 4c 24 58	 mov	 rcx, QWORD PTR tv76[rsp]
  0009a	48 8d 34 01	 lea	 rsi, QWORD PTR [rcx+rax]
  0009e	b9 10 00 00 00	 mov	 ecx, 16
  000a3	f3 a4		 rep movsb
  000a5	48 8b 84 24 a0
	00 00 00	 mov	 rax, QWORD PTR $T21143[rsp]
  000ad	e9 e6 02 00 00	 jmp	 $LN13@c_log
$LN12@c_log:

; 532  : 
; 533  :     ax = fabs(z.real);

  000b2	48 8b 84 24 a8
	00 00 00	 mov	 rax, QWORD PTR z$[rsp]
  000ba	f2 0f 10 00	 movsdx	 xmm0, QWORD PTR [rax]
  000be	e8 00 00 00 00	 call	 fabs
  000c3	f2 0f 11 44 24
	38		 movsdx	 QWORD PTR ax$[rsp], xmm0

; 534  :     ay = fabs(z.imag);

  000c9	48 8b 84 24 a8
	00 00 00	 mov	 rax, QWORD PTR z$[rsp]
  000d1	f2 0f 10 40 08	 movsdx	 xmm0, QWORD PTR [rax+8]
  000d6	e8 00 00 00 00	 call	 fabs
  000db	f2 0f 11 44 24
	28		 movsdx	 QWORD PTR ay$[rsp], xmm0

; 535  : 
; 536  :     if (ax > CM_LARGE_DOUBLE || ay > CM_LARGE_DOUBLE) {

  000e1	f2 0f 10 44 24
	38		 movsdx	 xmm0, QWORD PTR ax$[rsp]
  000e7	66 0f 2f 05 00
	00 00 00	 comisd	 xmm0, QWORD PTR __real@7fcfffffffffffff
  000ef	77 10		 ja	 SHORT $LN9@c_log
  000f1	f2 0f 10 44 24
	28		 movsdx	 xmm0, QWORD PTR ay$[rsp]
  000f7	66 0f 2f 05 00
	00 00 00	 comisd	 xmm0, QWORD PTR __real@7fcfffffffffffff
  000ff	76 49		 jbe	 SHORT $LN10@c_log
$LN9@c_log:

; 537  :         r.real = log(hypot(ax/2., ay/2.)) + M_LN2;

  00101	f2 0f 10 44 24
	28		 movsdx	 xmm0, QWORD PTR ay$[rsp]
  00107	f2 0f 5e 05 00
	00 00 00	 divsd	 xmm0, QWORD PTR __real@4000000000000000
  0010f	f2 0f 10 4c 24
	38		 movsdx	 xmm1, QWORD PTR ax$[rsp]
  00115	f2 0f 5e 0d 00
	00 00 00	 divsd	 xmm1, QWORD PTR __real@4000000000000000
  0011d	f2 0f 11 4c 24
	60		 movsdx	 QWORD PTR tv94[rsp], xmm1
  00123	66 0f 28 c8	 movapd	 xmm1, xmm0
  00127	f2 0f 10 44 24
	60		 movsdx	 xmm0, QWORD PTR tv94[rsp]
  0012d	e8 00 00 00 00	 call	 hypot
  00132	e8 00 00 00 00	 call	 log
  00137	f2 0f 58 05 00
	00 00 00	 addsd	 xmm0, QWORD PTR __real@3fe62e42fefa39ef
  0013f	f2 0f 11 44 24
	48		 movsdx	 QWORD PTR r$[rsp], xmm0
  00145	e9 ff 01 00 00	 jmp	 $LN8@c_log
$LN10@c_log:

; 538  :     } else if (ax < DBL_MIN && ay < DBL_MIN) {

  0014a	f2 0f 10 05 00
	00 00 00	 movsdx	 xmm0, QWORD PTR __real@0010000000000000
  00152	66 0f 2f 44 24
	38		 comisd	 xmm0, QWORD PTR ax$[rsp]
  00158	0f 86 ee 00 00
	00		 jbe	 $LN7@c_log
  0015e	f2 0f 10 05 00
	00 00 00	 movsdx	 xmm0, QWORD PTR __real@0010000000000000
  00166	66 0f 2f 44 24
	28		 comisd	 xmm0, QWORD PTR ay$[rsp]
  0016c	0f 86 da 00 00
	00		 jbe	 $LN7@c_log

; 539  :         if (ax > 0. || ay > 0.) {

  00172	f2 0f 10 44 24
	38		 movsdx	 xmm0, QWORD PTR ax$[rsp]
  00178	66 0f 2f 05 00
	00 00 00	 comisd	 xmm0, QWORD PTR __real@0000000000000000
  00180	77 10		 ja	 SHORT $LN5@c_log
  00182	f2 0f 10 44 24
	28		 movsdx	 xmm0, QWORD PTR ay$[rsp]
  00188	66 0f 2f 05 00
	00 00 00	 comisd	 xmm0, QWORD PTR __real@0000000000000000
  00190	76 48		 jbe	 SHORT $LN6@c_log
$LN5@c_log:

; 540  :             /* catch cases where hypot(ax, ay) is subnormal */
; 541  :             r.real = log(hypot(ldexp(ax, DBL_MANT_DIG),
; 542  :                      ldexp(ay, DBL_MANT_DIG))) - DBL_MANT_DIG*M_LN2;

  00192	ba 35 00 00 00	 mov	 edx, 53			; 00000035H
  00197	f2 0f 10 44 24
	28		 movsdx	 xmm0, QWORD PTR ay$[rsp]
  0019d	ff 15 00 00 00
	00		 call	 QWORD PTR __imp_ldexp
  001a3	f2 0f 11 44 24
	68		 movsdx	 QWORD PTR tv136[rsp], xmm0
  001a9	ba 35 00 00 00	 mov	 edx, 53			; 00000035H
  001ae	f2 0f 10 44 24
	38		 movsdx	 xmm0, QWORD PTR ax$[rsp]
  001b4	ff 15 00 00 00
	00		 call	 QWORD PTR __imp_ldexp
  001ba	f2 0f 10 4c 24
	68		 movsdx	 xmm1, QWORD PTR tv136[rsp]
  001c0	e8 00 00 00 00	 call	 hypot
  001c5	e8 00 00 00 00	 call	 log
  001ca	f2 0f 5c 05 00
	00 00 00	 subsd	 xmm0, QWORD PTR __real@40425e4f7b2737fa
  001d2	f2 0f 11 44 24
	48		 movsdx	 QWORD PTR r$[rsp], xmm0

; 543  :         }
; 544  :         else {

  001d8	eb 6d		 jmp	 SHORT $LN4@c_log
$LN6@c_log:

; 545  :             /* log(+/-0. +/- 0i) */
; 546  :             r.real = -INF;

  001da	48 8b 05 00 00
	00 00		 mov	 rax, QWORD PTR __imp__HUGE
  001e1	f2 0f 10 00	 movsdx	 xmm0, QWORD PTR [rax]
  001e5	66 0f 57 05 00
	00 00 00	 xorpd	 xmm0, QWORD PTR __mask@@NegDouble@
  001ed	f2 0f 11 44 24
	48		 movsdx	 QWORD PTR r$[rsp], xmm0

; 547  :             r.imag = atan2(z.imag, z.real);

  001f3	48 8b 84 24 a8
	00 00 00	 mov	 rax, QWORD PTR z$[rsp]
  001fb	f2 0f 10 08	 movsdx	 xmm1, QWORD PTR [rax]
  001ff	48 8b 84 24 a8
	00 00 00	 mov	 rax, QWORD PTR z$[rsp]
  00207	f2 0f 10 40 08	 movsdx	 xmm0, QWORD PTR [rax+8]
  0020c	e8 00 00 00 00	 call	 atan2
  00211	f2 0f 11 44 24
	50		 movsdx	 QWORD PTR r$[rsp+8], xmm0

; 548  :             errno = EDOM;

  00217	ff 15 00 00 00
	00		 call	 QWORD PTR __imp__errno
  0021d	c7 00 21 00 00
	00		 mov	 DWORD PTR [rax], 33	; 00000021H

; 549  :             return r;

  00223	48 8d 44 24 48	 lea	 rax, QWORD PTR r$[rsp]
  00228	48 8b bc 24 a0
	00 00 00	 mov	 rdi, QWORD PTR $T21143[rsp]
  00230	48 8b f0	 mov	 rsi, rax
  00233	b9 10 00 00 00	 mov	 ecx, 16
  00238	f3 a4		 rep movsb
  0023a	48 8b 84 24 a0
	00 00 00	 mov	 rax, QWORD PTR $T21143[rsp]
  00242	e9 51 01 00 00	 jmp	 $LN13@c_log
$LN4@c_log:

; 550  :         }
; 551  :     } else {

  00247	e9 fd 00 00 00	 jmp	 $LN3@c_log
$LN7@c_log:

; 552  :         h = hypot(ax, ay);

  0024c	f2 0f 10 4c 24
	28		 movsdx	 xmm1, QWORD PTR ay$[rsp]
  00252	f2 0f 10 44 24
	38		 movsdx	 xmm0, QWORD PTR ax$[rsp]
  00258	e8 00 00 00 00	 call	 hypot
  0025d	f2 0f 11 44 24
	20		 movsdx	 QWORD PTR h$[rsp], xmm0

; 553  :         if (0.71 <= h && h <= 1.73) {

  00263	f2 0f 10 44 24
	20		 movsdx	 xmm0, QWORD PTR h$[rsp]
  00269	66 0f 2f 05 00
	00 00 00	 comisd	 xmm0, QWORD PTR __real@3fe6b851eb851eb8
  00271	0f 82 c1 00 00
	00		 jb	 $LN2@c_log
  00277	f2 0f 10 05 00
	00 00 00	 movsdx	 xmm0, QWORD PTR __real@3ffbae147ae147ae
  0027f	66 0f 2f 44 24
	20		 comisd	 xmm0, QWORD PTR h$[rsp]
  00285	0f 82 ad 00 00
	00		 jb	 $LN2@c_log

; 554  :             am = ax > ay ? ax : ay;  /* max(ax, ay) */

  0028b	f2 0f 10 44 24
	38		 movsdx	 xmm0, QWORD PTR ax$[rsp]
  00291	66 0f 2f 44 24
	28		 comisd	 xmm0, QWORD PTR ay$[rsp]
  00297	76 0e		 jbe	 SHORT $LN15@c_log
  00299	f2 0f 10 44 24
	38		 movsdx	 xmm0, QWORD PTR ax$[rsp]
  0029f	f2 0f 11 44 24
	70		 movsdx	 QWORD PTR tv158[rsp], xmm0
  002a5	eb 0c		 jmp	 SHORT $LN16@c_log
$LN15@c_log:
  002a7	f2 0f 10 44 24
	28		 movsdx	 xmm0, QWORD PTR ay$[rsp]
  002ad	f2 0f 11 44 24
	70		 movsdx	 QWORD PTR tv158[rsp], xmm0
$LN16@c_log:
  002b3	f2 0f 10 44 24
	70		 movsdx	 xmm0, QWORD PTR tv158[rsp]
  002b9	f2 0f 11 44 24
	40		 movsdx	 QWORD PTR am$[rsp], xmm0

; 555  :             an = ax > ay ? ay : ax;  /* min(ax, ay) */

  002bf	f2 0f 10 44 24
	38		 movsdx	 xmm0, QWORD PTR ax$[rsp]
  002c5	66 0f 2f 44 24
	28		 comisd	 xmm0, QWORD PTR ay$[rsp]
  002cb	76 0e		 jbe	 SHORT $LN17@c_log
  002cd	f2 0f 10 44 24
	28		 movsdx	 xmm0, QWORD PTR ay$[rsp]
  002d3	f2 0f 11 44 24
	78		 movsdx	 QWORD PTR tv160[rsp], xmm0
  002d9	eb 0c		 jmp	 SHORT $LN18@c_log
$LN17@c_log:
  002db	f2 0f 10 44 24
	38		 movsdx	 xmm0, QWORD PTR ax$[rsp]
  002e1	f2 0f 11 44 24
	78		 movsdx	 QWORD PTR tv160[rsp], xmm0
$LN18@c_log:
  002e7	f2 0f 10 44 24
	78		 movsdx	 xmm0, QWORD PTR tv160[rsp]
  002ed	f2 0f 11 44 24
	30		 movsdx	 QWORD PTR an$[rsp], xmm0

; 556  :             r.real = m_log1p((am-1)*(am+1)+an*an)/2.;

  002f3	f2 0f 10 44 24
	40		 movsdx	 xmm0, QWORD PTR am$[rsp]
  002f9	f2 0f 5c 05 00
	00 00 00	 subsd	 xmm0, QWORD PTR __real@3ff0000000000000
  00301	f2 0f 10 4c 24
	40		 movsdx	 xmm1, QWORD PTR am$[rsp]
  00307	f2 0f 58 0d 00
	00 00 00	 addsd	 xmm1, QWORD PTR __real@3ff0000000000000
  0030f	f2 0f 59 c1	 mulsd	 xmm0, xmm1
  00313	f2 0f 10 4c 24
	30		 movsdx	 xmm1, QWORD PTR an$[rsp]
  00319	f2 0f 59 4c 24
	30		 mulsd	 xmm1, QWORD PTR an$[rsp]
  0031f	f2 0f 58 c1	 addsd	 xmm0, xmm1
  00323	e8 00 00 00 00	 call	 _Py_log1p
  00328	f2 0f 5e 05 00
	00 00 00	 divsd	 xmm0, QWORD PTR __real@4000000000000000
  00330	f2 0f 11 44 24
	48		 movsdx	 QWORD PTR r$[rsp], xmm0

; 557  :         } else {

  00336	eb 11		 jmp	 SHORT $LN1@c_log
$LN2@c_log:

; 558  :             r.real = log(h);

  00338	f2 0f 10 44 24
	20		 movsdx	 xmm0, QWORD PTR h$[rsp]
  0033e	e8 00 00 00 00	 call	 log
  00343	f2 0f 11 44 24
	48		 movsdx	 QWORD PTR r$[rsp], xmm0
$LN1@c_log:
$LN3@c_log:
$LN8@c_log:

; 559  :         }
; 560  :     }
; 561  :     r.imag = atan2(z.imag, z.real);

  00349	48 8b 84 24 a8
	00 00 00	 mov	 rax, QWORD PTR z$[rsp]
  00351	f2 0f 10 08	 movsdx	 xmm1, QWORD PTR [rax]
  00355	48 8b 84 24 a8
	00 00 00	 mov	 rax, QWORD PTR z$[rsp]
  0035d	f2 0f 10 40 08	 movsdx	 xmm0, QWORD PTR [rax+8]
  00362	e8 00 00 00 00	 call	 atan2
  00367	f2 0f 11 44 24
	50		 movsdx	 QWORD PTR r$[rsp+8], xmm0

; 562  :     errno = 0;

  0036d	ff 15 00 00 00
	00		 call	 QWORD PTR __imp__errno
  00373	c7 00 00 00 00
	00		 mov	 DWORD PTR [rax], 0

; 563  :     return r;

  00379	48 8d 44 24 48	 lea	 rax, QWORD PTR r$[rsp]
  0037e	48 8b bc 24 a0
	00 00 00	 mov	 rdi, QWORD PTR $T21143[rsp]
  00386	48 8b f0	 mov	 rsi, rax
  00389	b9 10 00 00 00	 mov	 ecx, 16
  0038e	f3 a4		 rep movsb
  00390	48 8b 84 24 a0
	00 00 00	 mov	 rax, QWORD PTR $T21143[rsp]
$LN13@c_log:

; 564  : }

  00398	48 81 c4 88 00
	00 00		 add	 rsp, 136		; 00000088H
  0039f	5f		 pop	 rdi
  003a0	5e		 pop	 rsi
  003a1	c3		 ret	 0
c_log	ENDP
_TEXT	ENDS
EXTRN	__imp__hypot:PROC
;	COMDAT pdata
; File c:\program files (x86)\microsoft visual studio 10.0\vc\include\math.h
pdata	SEGMENT
$pdata$hypot DD	imagerel hypot
	DD	imagerel hypot+39
	DD	imagerel $unwind$hypot
pdata	ENDS
;	COMDAT xdata
xdata	SEGMENT
$unwind$hypot DD 011001H
	DD	04210H
; Function compile flags: /Odtp
xdata	ENDS
;	COMDAT hypot
_TEXT	SEGMENT
_X$ = 48
_Y$ = 56
hypot	PROC						; COMDAT

; 162  : {

  00000	f2 0f 11 4c 24
	10		 movsdx	 QWORD PTR [rsp+16], xmm1
  00006	f2 0f 11 44 24
	08		 movsdx	 QWORD PTR [rsp+8], xmm0
  0000c	48 83 ec 28	 sub	 rsp, 40			; 00000028H

; 163  :     return _hypot(_X, _Y);

  00010	f2 0f 10 4c 24
	38		 movsdx	 xmm1, QWORD PTR _Y$[rsp]
  00016	f2 0f 10 44 24
	30		 movsdx	 xmm0, QWORD PTR _X$[rsp]
  0001c	ff 15 00 00 00
	00		 call	 QWORD PTR __imp__hypot

; 164  : }

  00022	48 83 c4 28	 add	 rsp, 40			; 00000028H
  00026	c3		 ret	 0
hypot	ENDP
_TEXT	ENDS
EXTRN	__imp__isnan:PROC
EXTRN	__imp__copysign:PROC
;	COMDAT pdata
; File c:\src\pyparallel\modules\cmathmodule.c
pdata	SEGMENT
$pdata$special_type DD imagerel special_type
	DD	imagerel special_type+213
	DD	imagerel $unwind$special_type
pdata	ENDS
;	COMDAT xdata
xdata	SEGMENT
$unwind$special_type DD 010a01H
	DD	0420aH
; Function compile flags: /Odtp
xdata	ENDS
;	COMDAT special_type
_TEXT	SEGMENT
d$ = 48
special_type PROC					; COMDAT

; 77   : {

  00000	f2 0f 11 44 24
	08		 movsdx	 QWORD PTR [rsp+8], xmm0
  00006	48 83 ec 28	 sub	 rsp, 40			; 00000028H

; 78   :     if (Py_IS_FINITE(d)) {

  0000a	f2 0f 10 44 24
	30		 movsdx	 xmm0, QWORD PTR d$[rsp]
  00010	ff 15 00 00 00
	00		 call	 QWORD PTR __imp__finite
  00016	85 c0		 test	 eax, eax
  00018	74 74		 je	 SHORT $LN10@special_ty

; 79   :         if (d != 0) {

  0001a	f2 0f 10 44 24
	30		 movsdx	 xmm0, QWORD PTR d$[rsp]
  00020	66 0f 2e 05 00
	00 00 00	 ucomisd xmm0, QWORD PTR __real@0000000000000000
  00028	7a 02		 jp	 SHORT $LN13@special_ty
  0002a	74 32		 je	 SHORT $LN9@special_ty
$LN13@special_ty:

; 80   :             if (copysign(1., d) == 1.)

  0002c	f2 0f 10 4c 24
	30		 movsdx	 xmm1, QWORD PTR d$[rsp]
  00032	f2 0f 10 05 00
	00 00 00	 movsdx	 xmm0, QWORD PTR __real@3ff0000000000000
  0003a	ff 15 00 00 00
	00		 call	 QWORD PTR __imp__copysign
  00040	66 0f 2e 05 00
	00 00 00	 ucomisd xmm0, QWORD PTR __real@3ff0000000000000
  00048	7a 0b		 jp	 SHORT $LN8@special_ty
  0004a	75 09		 jne	 SHORT $LN8@special_ty

; 81   :                 return ST_POS;

  0004c	b8 04 00 00 00	 mov	 eax, 4
  00051	eb 7d		 jmp	 SHORT $LN11@special_ty

; 82   :             else

  00053	eb 07		 jmp	 SHORT $LN7@special_ty
$LN8@special_ty:

; 83   :                 return ST_NEG;

  00055	b8 01 00 00 00	 mov	 eax, 1
  0005a	eb 74		 jmp	 SHORT $LN11@special_ty
$LN7@special_ty:

; 84   :         }
; 85   :         else {

  0005c	eb 30		 jmp	 SHORT $LN6@special_ty
$LN9@special_ty:

; 86   :             if (copysign(1., d) == 1.)

  0005e	f2 0f 10 4c 24
	30		 movsdx	 xmm1, QWORD PTR d$[rsp]
  00064	f2 0f 10 05 00
	00 00 00	 movsdx	 xmm0, QWORD PTR __real@3ff0000000000000
  0006c	ff 15 00 00 00
	00		 call	 QWORD PTR __imp__copysign
  00072	66 0f 2e 05 00
	00 00 00	 ucomisd xmm0, QWORD PTR __real@3ff0000000000000
  0007a	7a 0b		 jp	 SHORT $LN5@special_ty
  0007c	75 09		 jne	 SHORT $LN5@special_ty

; 87   :                 return ST_PZERO;

  0007e	b8 03 00 00 00	 mov	 eax, 3
  00083	eb 4b		 jmp	 SHORT $LN11@special_ty

; 88   :             else

  00085	eb 07		 jmp	 SHORT $LN4@special_ty
$LN5@special_ty:

; 89   :                 return ST_NZERO;

  00087	b8 02 00 00 00	 mov	 eax, 2
  0008c	eb 42		 jmp	 SHORT $LN11@special_ty
$LN4@special_ty:
$LN6@special_ty:
$LN10@special_ty:

; 90   :         }
; 91   :     }
; 92   :     if (Py_IS_NAN(d))

  0008e	f2 0f 10 44 24
	30		 movsdx	 xmm0, QWORD PTR d$[rsp]
  00094	ff 15 00 00 00
	00		 call	 QWORD PTR __imp__isnan
  0009a	85 c0		 test	 eax, eax
  0009c	74 07		 je	 SHORT $LN3@special_ty

; 93   :         return ST_NAN;

  0009e	b8 06 00 00 00	 mov	 eax, 6
  000a3	eb 2b		 jmp	 SHORT $LN11@special_ty
$LN3@special_ty:

; 94   :     if (copysign(1., d) == 1.)

  000a5	f2 0f 10 4c 24
	30		 movsdx	 xmm1, QWORD PTR d$[rsp]
  000ab	f2 0f 10 05 00
	00 00 00	 movsdx	 xmm0, QWORD PTR __real@3ff0000000000000
  000b3	ff 15 00 00 00
	00		 call	 QWORD PTR __imp__copysign
  000b9	66 0f 2e 05 00
	00 00 00	 ucomisd xmm0, QWORD PTR __real@3ff0000000000000
  000c1	7a 0b		 jp	 SHORT $LN2@special_ty
  000c3	75 09		 jne	 SHORT $LN2@special_ty

; 95   :         return ST_PINF;

  000c5	b8 05 00 00 00	 mov	 eax, 5
  000ca	eb 04		 jmp	 SHORT $LN11@special_ty

; 96   :     else

  000cc	eb 02		 jmp	 SHORT $LN1@special_ty
$LN2@special_ty:

; 97   :         return ST_NINF;

  000ce	33 c0		 xor	 eax, eax
$LN1@special_ty:
$LN11@special_ty:

; 98   : }

  000d0	48 83 c4 28	 add	 rsp, 40			; 00000028H
  000d4	c3		 ret	 0
special_type ENDP
_TEXT	ENDS
PUBLIC	??_C@_0BB@PNJGEICL@math?5range?5error?$AA@	; `string'
PUBLIC	??_C@_0BC@LMCJDMHE@math?5domain?5error?$AA@	; `string'
EXTRN	PyErr_SetFromErrno:PROC
EXTRN	PyExc_OverflowError:QWORD
EXTRN	PyErr_SetString:PROC
EXTRN	PyExc_ValueError:QWORD
;	COMDAT pdata
pdata	SEGMENT
$pdata$math_error DD imagerel math_error
	DD	imagerel math_error+87
	DD	imagerel $unwind$math_error
pdata	ENDS
;	COMDAT xdata
xdata	SEGMENT
$unwind$math_error DD 010401H
	DD	04204H
xdata	ENDS
;	COMDAT ??_C@_0BB@PNJGEICL@math?5range?5error?$AA@
CONST	SEGMENT
??_C@_0BB@PNJGEICL@math?5range?5error?$AA@ DB 'math range error', 00H ; `string'
CONST	ENDS
;	COMDAT ??_C@_0BC@LMCJDMHE@math?5domain?5error?$AA@
CONST	SEGMENT
??_C@_0BC@LMCJDMHE@math?5domain?5error?$AA@ DB 'math domain error', 00H ; `string'
; Function compile flags: /Odtp
CONST	ENDS
;	COMDAT math_error
_TEXT	SEGMENT
math_error PROC						; COMDAT

; 862  : {

  00000	48 83 ec 28	 sub	 rsp, 40			; 00000028H

; 863  :     if (errno == EDOM)

  00004	ff 15 00 00 00
	00		 call	 QWORD PTR __imp__errno
  0000a	83 38 21	 cmp	 DWORD PTR [rax], 33	; 00000021H
  0000d	75 15		 jne	 SHORT $LN4@math_error

; 864  :         PyErr_SetString(PyExc_ValueError, "math domain error");

  0000f	48 8d 15 00 00
	00 00		 lea	 rdx, OFFSET FLAT:??_C@_0BC@LMCJDMHE@math?5domain?5error?$AA@
  00016	48 8b 0d 00 00
	00 00		 mov	 rcx, QWORD PTR PyExc_ValueError
  0001d	e8 00 00 00 00	 call	 PyErr_SetString
  00022	eb 2c		 jmp	 SHORT $LN3@math_error
$LN4@math_error:

; 865  :     else if (errno == ERANGE)

  00024	ff 15 00 00 00
	00		 call	 QWORD PTR __imp__errno
  0002a	83 38 22	 cmp	 DWORD PTR [rax], 34	; 00000022H
  0002d	75 15		 jne	 SHORT $LN2@math_error

; 866  :         PyErr_SetString(PyExc_OverflowError, "math range error");

  0002f	48 8d 15 00 00
	00 00		 lea	 rdx, OFFSET FLAT:??_C@_0BB@PNJGEICL@math?5range?5error?$AA@
  00036	48 8b 0d 00 00
	00 00		 mov	 rcx, QWORD PTR PyExc_OverflowError
  0003d	e8 00 00 00 00	 call	 PyErr_SetString

; 867  :     else    /* Unexpected math error */

  00042	eb 0c		 jmp	 SHORT $LN1@math_error
$LN2@math_error:

; 868  :         PyErr_SetFromErrno(PyExc_ValueError);

  00044	48 8b 0d 00 00
	00 00		 mov	 rcx, QWORD PTR PyExc_ValueError
  0004b	e8 00 00 00 00	 call	 PyErr_SetFromErrno
$LN1@math_error:
$LN3@math_error:

; 869  :     return NULL;

  00050	33 c0		 xor	 eax, eax

; 870  : }

  00052	48 83 c4 28	 add	 rsp, 40			; 00000028H
  00056	c3		 ret	 0
math_error ENDP
_TEXT	ENDS
;	COMDAT pdata
pdata	SEGMENT
$pdata$cmath_acos DD imagerel cmath_acos
	DD	imagerel cmath_acos+36
	DD	imagerel $unwind$cmath_acos
pdata	ENDS
;	COMDAT xdata
xdata	SEGMENT
$unwind$cmath_acos DD 010e01H
	DD	0420eH
; Function compile flags: /Odtp
xdata	ENDS
;	COMDAT cmath_acos
_TEXT	SEGMENT
self$ = 48
args$ = 56
cmath_acos PROC						; COMDAT

; 900  : FUNC1(cmath_acos, c_acos)

  00000	48 89 54 24 10	 mov	 QWORD PTR [rsp+16], rdx
  00005	48 89 4c 24 08	 mov	 QWORD PTR [rsp+8], rcx
  0000a	48 83 ec 28	 sub	 rsp, 40			; 00000028H
  0000e	48 8d 15 00 00
	00 00		 lea	 rdx, OFFSET FLAT:c_acos
  00015	48 8b 4c 24 38	 mov	 rcx, QWORD PTR args$[rsp]
  0001a	e8 00 00 00 00	 call	 math_1
  0001f	48 83 c4 28	 add	 rsp, 40			; 00000028H
  00023	c3		 ret	 0
cmath_acos ENDP
_TEXT	ENDS
PUBLIC	$T21206
PUBLIC	$T21205
PUBLIC	$T21207
PUBLIC	$T21204
PUBLIC	__real@3ff62e42fefa39ef
EXTRN	_Py_asinh:PROC
_BSS	SEGMENT
acos_special_values DB 0310H DUP (?)
_BSS	ENDS
;	COMDAT pdata
pdata	SEGMENT
$pdata$c_acos DD imagerel c_acos
	DD	imagerel c_acos+942
	DD	imagerel $unwind$c_acos
pdata	ENDS
;	COMDAT xdata
xdata	SEGMENT
$unwind$c_acos DD 041301H
	DD	01b0113H
	DD	0600b700cH
xdata	ENDS
;	COMDAT __real@3ff62e42fefa39ef
CONST	SEGMENT
__real@3ff62e42fefa39ef DQ 03ff62e42fefa39efr	; 1.38629
; Function compile flags: /Odtp
CONST	ENDS
;	COMDAT c_acos
_TEXT	SEGMENT
s2$ = 32
s1$ = 48
r$ = 64
$T21202 = 80
$T21203 = 96
$T21204 = 112
$T21205 = 128
$T21206 = 144
$T21207 = 160
tv76 = 176
tv137 = 184
tv145 = 192
$T21201 = 240
z$ = 248
c_acos	PROC						; COMDAT

; 128  : {

  00000	48 89 54 24 10	 mov	 QWORD PTR [rsp+16], rdx
  00005	48 89 4c 24 08	 mov	 QWORD PTR [rsp+8], rcx
  0000a	56		 push	 rsi
  0000b	57		 push	 rdi
  0000c	48 81 ec d8 00
	00 00		 sub	 rsp, 216		; 000000d8H

; 129  :     Py_complex s1, s2, r;
; 130  : 
; 131  :     SPECIAL_VALUE(z, acos_special_values);

  00013	48 8b 84 24 f8
	00 00 00	 mov	 rax, QWORD PTR z$[rsp]
  0001b	f2 0f 10 00	 movsdx	 xmm0, QWORD PTR [rax]
  0001f	ff 15 00 00 00
	00		 call	 QWORD PTR __imp__finite
  00025	85 c0		 test	 eax, eax
  00027	74 17		 je	 SHORT $LN6@c_acos
  00029	48 8b 84 24 f8
	00 00 00	 mov	 rax, QWORD PTR z$[rsp]
  00031	f2 0f 10 40 08	 movsdx	 xmm0, QWORD PTR [rax+8]
  00036	ff 15 00 00 00
	00		 call	 QWORD PTR __imp__finite
  0003c	85 c0		 test	 eax, eax
  0003e	75 78		 jne	 SHORT $LN7@c_acos
$LN6@c_acos:
  00040	ff 15 00 00 00
	00		 call	 QWORD PTR __imp__errno
  00046	c7 00 00 00 00
	00		 mov	 DWORD PTR [rax], 0
  0004c	48 8b 84 24 f8
	00 00 00	 mov	 rax, QWORD PTR z$[rsp]
  00054	f2 0f 10 00	 movsdx	 xmm0, QWORD PTR [rax]
  00058	e8 00 00 00 00	 call	 special_type
  0005d	48 98		 cdqe
  0005f	48 6b c0 70	 imul	 rax, 112		; 00000070H
  00063	48 8d 0d 00 00
	00 00		 lea	 rcx, OFFSET FLAT:acos_special_values
  0006a	48 03 c8	 add	 rcx, rax
  0006d	48 8b c1	 mov	 rax, rcx
  00070	48 89 84 24 b0
	00 00 00	 mov	 QWORD PTR tv76[rsp], rax
  00078	48 8b 8c 24 f8
	00 00 00	 mov	 rcx, QWORD PTR z$[rsp]
  00080	f2 0f 10 41 08	 movsdx	 xmm0, QWORD PTR [rcx+8]
  00085	e8 00 00 00 00	 call	 special_type
  0008a	48 98		 cdqe
  0008c	48 6b c0 10	 imul	 rax, 16
  00090	48 8b bc 24 f0
	00 00 00	 mov	 rdi, QWORD PTR $T21201[rsp]
  00098	48 8b 8c 24 b0
	00 00 00	 mov	 rcx, QWORD PTR tv76[rsp]
  000a0	48 8d 34 01	 lea	 rsi, QWORD PTR [rcx+rax]
  000a4	b9 10 00 00 00	 mov	 ecx, 16
  000a9	f3 a4		 rep movsb
  000ab	48 8b 84 24 f0
	00 00 00	 mov	 rax, QWORD PTR $T21201[rsp]
  000b3	e9 ec 02 00 00	 jmp	 $LN8@c_acos
$LN7@c_acos:

; 132  : 
; 133  :     if (fabs(z.real) > CM_LARGE_DOUBLE || fabs(z.imag) > CM_LARGE_DOUBLE) {

  000b8	48 8b 84 24 f8
	00 00 00	 mov	 rax, QWORD PTR z$[rsp]
  000c0	f2 0f 10 00	 movsdx	 xmm0, QWORD PTR [rax]
  000c4	e8 00 00 00 00	 call	 fabs
  000c9	66 0f 2f 05 00
	00 00 00	 comisd	 xmm0, QWORD PTR __real@7fcfffffffffffff
  000d1	77 20		 ja	 SHORT $LN4@c_acos
  000d3	48 8b 84 24 f8
	00 00 00	 mov	 rax, QWORD PTR z$[rsp]
  000db	f2 0f 10 40 08	 movsdx	 xmm0, QWORD PTR [rax+8]
  000e0	e8 00 00 00 00	 call	 fabs
  000e5	66 0f 2f 05 00
	00 00 00	 comisd	 xmm0, QWORD PTR __real@7fcfffffffffffff
  000ed	0f 86 26 01 00
	00		 jbe	 $LN5@c_acos
$LN4@c_acos:

; 134  :         /* avoid unnecessary overflow for large arguments */
; 135  :         r.real = atan2(fabs(z.imag), z.real);

  000f3	48 8b 84 24 f8
	00 00 00	 mov	 rax, QWORD PTR z$[rsp]
  000fb	f2 0f 10 40 08	 movsdx	 xmm0, QWORD PTR [rax+8]
  00100	e8 00 00 00 00	 call	 fabs
  00105	48 8b 84 24 f8
	00 00 00	 mov	 rax, QWORD PTR z$[rsp]
  0010d	f2 0f 10 08	 movsdx	 xmm1, QWORD PTR [rax]
  00111	e8 00 00 00 00	 call	 atan2
  00116	f2 0f 11 44 24
	40		 movsdx	 QWORD PTR r$[rsp], xmm0

; 136  :         /* split into cases to make sure that the branch cut has the
; 137  :            correct continuity on systems with unsigned zeros */
; 138  :         if (z.real < 0.) {

  0011c	48 8b 84 24 f8
	00 00 00	 mov	 rax, QWORD PTR z$[rsp]
  00124	66 0f 57 c0	 xorpd	 xmm0, xmm0
  00128	66 0f 2f 00	 comisd	 xmm0, QWORD PTR [rax]
  0012c	76 74		 jbe	 SHORT $LN3@c_acos

; 139  :             r.imag = -copysign(log(hypot(z.real/2., z.imag/2.)) +
; 140  :                                M_LN2*2., z.imag);

  0012e	48 8b 84 24 f8
	00 00 00	 mov	 rax, QWORD PTR z$[rsp]
  00136	f2 0f 10 40 08	 movsdx	 xmm0, QWORD PTR [rax+8]
  0013b	f2 0f 5e 05 00
	00 00 00	 divsd	 xmm0, QWORD PTR __real@4000000000000000
  00143	48 8b 84 24 f8
	00 00 00	 mov	 rax, QWORD PTR z$[rsp]
  0014b	f2 0f 10 08	 movsdx	 xmm1, QWORD PTR [rax]
  0014f	f2 0f 5e 0d 00
	00 00 00	 divsd	 xmm1, QWORD PTR __real@4000000000000000
  00157	f2 0f 11 8c 24
	b8 00 00 00	 movsdx	 QWORD PTR tv137[rsp], xmm1
  00160	66 0f 28 c8	 movapd	 xmm1, xmm0
  00164	f2 0f 10 84 24
	b8 00 00 00	 movsdx	 xmm0, QWORD PTR tv137[rsp]
  0016d	e8 00 00 00 00	 call	 hypot
  00172	e8 00 00 00 00	 call	 log
  00177	f2 0f 58 05 00
	00 00 00	 addsd	 xmm0, QWORD PTR __real@3ff62e42fefa39ef
  0017f	48 8b 84 24 f8
	00 00 00	 mov	 rax, QWORD PTR z$[rsp]
  00187	f2 0f 10 48 08	 movsdx	 xmm1, QWORD PTR [rax+8]
  0018c	ff 15 00 00 00
	00		 call	 QWORD PTR __imp__copysign
  00192	66 0f 57 05 00
	00 00 00	 xorpd	 xmm0, QWORD PTR __mask@@NegDouble@
  0019a	f2 0f 11 44 24
	48		 movsdx	 QWORD PTR r$[rsp+8], xmm0

; 141  :         } else {

  001a0	eb 72		 jmp	 SHORT $LN2@c_acos
$LN3@c_acos:

; 142  :             r.imag = copysign(log(hypot(z.real/2., z.imag/2.)) +
; 143  :                               M_LN2*2., -z.imag);

  001a2	48 8b 84 24 f8
	00 00 00	 mov	 rax, QWORD PTR z$[rsp]
  001aa	f2 0f 10 40 08	 movsdx	 xmm0, QWORD PTR [rax+8]
  001af	66 0f 57 05 00
	00 00 00	 xorpd	 xmm0, QWORD PTR __mask@@NegDouble@
  001b7	f2 0f 11 84 24
	c0 00 00 00	 movsdx	 QWORD PTR tv145[rsp], xmm0
  001c0	48 8b 84 24 f8
	00 00 00	 mov	 rax, QWORD PTR z$[rsp]
  001c8	f2 0f 10 48 08	 movsdx	 xmm1, QWORD PTR [rax+8]
  001cd	f2 0f 5e 0d 00
	00 00 00	 divsd	 xmm1, QWORD PTR __real@4000000000000000
  001d5	48 8b 84 24 f8
	00 00 00	 mov	 rax, QWORD PTR z$[rsp]
  001dd	f2 0f 10 10	 movsdx	 xmm2, QWORD PTR [rax]
  001e1	f2 0f 5e 15 00
	00 00 00	 divsd	 xmm2, QWORD PTR __real@4000000000000000
  001e9	66 0f 28 c2	 movapd	 xmm0, xmm2
  001ed	e8 00 00 00 00	 call	 hypot
  001f2	e8 00 00 00 00	 call	 log
  001f7	f2 0f 58 05 00
	00 00 00	 addsd	 xmm0, QWORD PTR __real@3ff62e42fefa39ef
  001ff	f2 0f 10 8c 24
	c0 00 00 00	 movsdx	 xmm1, QWORD PTR tv145[rsp]
  00208	ff 15 00 00 00
	00		 call	 QWORD PTR __imp__copysign
  0020e	f2 0f 11 44 24
	48		 movsdx	 QWORD PTR r$[rsp+8], xmm0
$LN2@c_acos:

; 144  :         }
; 145  :     } else {

  00214	e9 60 01 00 00	 jmp	 $LN1@c_acos
$LN5@c_acos:

; 146  :         s1.real = 1.-z.real;

  00219	48 8b 84 24 f8
	00 00 00	 mov	 rax, QWORD PTR z$[rsp]
  00221	f2 0f 10 05 00
	00 00 00	 movsdx	 xmm0, QWORD PTR __real@3ff0000000000000
  00229	f2 0f 5c 00	 subsd	 xmm0, QWORD PTR [rax]
  0022d	f2 0f 11 44 24
	30		 movsdx	 QWORD PTR s1$[rsp], xmm0

; 147  :         s1.imag = -z.imag;

  00233	48 8b 84 24 f8
	00 00 00	 mov	 rax, QWORD PTR z$[rsp]
  0023b	f2 0f 10 40 08	 movsdx	 xmm0, QWORD PTR [rax+8]
  00240	66 0f 57 05 00
	00 00 00	 xorpd	 xmm0, QWORD PTR __mask@@NegDouble@
  00248	f2 0f 11 44 24
	38		 movsdx	 QWORD PTR s1$[rsp+8], xmm0

; 148  :         s1 = c_sqrt(s1);

  0024e	48 8d 44 24 70	 lea	 rax, QWORD PTR $T21204[rsp]
  00253	48 8d 4c 24 30	 lea	 rcx, QWORD PTR s1$[rsp]
  00258	48 8b f8	 mov	 rdi, rax
  0025b	48 8b f1	 mov	 rsi, rcx
  0025e	b9 10 00 00 00	 mov	 ecx, 16
  00263	f3 a4		 rep movsb
  00265	48 8d 54 24 70	 lea	 rdx, QWORD PTR $T21204[rsp]
  0026a	48 8d 4c 24 50	 lea	 rcx, QWORD PTR $T21202[rsp]
  0026f	e8 00 00 00 00	 call	 c_sqrt
  00274	48 8d 8c 24 a0
	00 00 00	 lea	 rcx, QWORD PTR $T21207[rsp]
  0027c	48 8b f9	 mov	 rdi, rcx
  0027f	48 8b f0	 mov	 rsi, rax
  00282	b9 10 00 00 00	 mov	 ecx, 16
  00287	f3 a4		 rep movsb
  00289	48 8d 44 24 30	 lea	 rax, QWORD PTR s1$[rsp]
  0028e	48 8d 8c 24 a0
	00 00 00	 lea	 rcx, QWORD PTR $T21207[rsp]
  00296	48 8b f8	 mov	 rdi, rax
  00299	48 8b f1	 mov	 rsi, rcx
  0029c	b9 10 00 00 00	 mov	 ecx, 16
  002a1	f3 a4		 rep movsb

; 149  :         s2.real = 1.+z.real;

  002a3	48 8b 84 24 f8
	00 00 00	 mov	 rax, QWORD PTR z$[rsp]
  002ab	f2 0f 10 05 00
	00 00 00	 movsdx	 xmm0, QWORD PTR __real@3ff0000000000000
  002b3	f2 0f 58 00	 addsd	 xmm0, QWORD PTR [rax]
  002b7	f2 0f 11 44 24
	20		 movsdx	 QWORD PTR s2$[rsp], xmm0

; 150  :         s2.imag = z.imag;

  002bd	48 8b 84 24 f8
	00 00 00	 mov	 rax, QWORD PTR z$[rsp]
  002c5	f2 0f 10 40 08	 movsdx	 xmm0, QWORD PTR [rax+8]
  002ca	f2 0f 11 44 24
	28		 movsdx	 QWORD PTR s2$[rsp+8], xmm0

; 151  :         s2 = c_sqrt(s2);

  002d0	48 8d 84 24 80
	00 00 00	 lea	 rax, QWORD PTR $T21205[rsp]
  002d8	48 8d 4c 24 20	 lea	 rcx, QWORD PTR s2$[rsp]
  002dd	48 8b f8	 mov	 rdi, rax
  002e0	48 8b f1	 mov	 rsi, rcx
  002e3	b9 10 00 00 00	 mov	 ecx, 16
  002e8	f3 a4		 rep movsb
  002ea	48 8d 94 24 80
	00 00 00	 lea	 rdx, QWORD PTR $T21205[rsp]
  002f2	48 8d 4c 24 60	 lea	 rcx, QWORD PTR $T21203[rsp]
  002f7	e8 00 00 00 00	 call	 c_sqrt
  002fc	48 8d 8c 24 90
	00 00 00	 lea	 rcx, QWORD PTR $T21206[rsp]
  00304	48 8b f9	 mov	 rdi, rcx
  00307	48 8b f0	 mov	 rsi, rax
  0030a	b9 10 00 00 00	 mov	 ecx, 16
  0030f	f3 a4		 rep movsb
  00311	48 8d 44 24 20	 lea	 rax, QWORD PTR s2$[rsp]
  00316	48 8d 8c 24 90
	00 00 00	 lea	 rcx, QWORD PTR $T21206[rsp]
  0031e	48 8b f8	 mov	 rdi, rax
  00321	48 8b f1	 mov	 rsi, rcx
  00324	b9 10 00 00 00	 mov	 ecx, 16
  00329	f3 a4		 rep movsb

; 152  :         r.real = 2.*atan2(s1.real, s2.real);

  0032b	f2 0f 10 4c 24
	20		 movsdx	 xmm1, QWORD PTR s2$[rsp]
  00331	f2 0f 10 44 24
	30		 movsdx	 xmm0, QWORD PTR s1$[rsp]
  00337	e8 00 00 00 00	 call	 atan2
  0033c	f2 0f 10 0d 00
	00 00 00	 movsdx	 xmm1, QWORD PTR __real@4000000000000000
  00344	f2 0f 59 c8	 mulsd	 xmm1, xmm0
  00348	66 0f 28 c1	 movapd	 xmm0, xmm1
  0034c	f2 0f 11 44 24
	40		 movsdx	 QWORD PTR r$[rsp], xmm0

; 153  :         r.imag = m_asinh(s2.real*s1.imag - s2.imag*s1.real);

  00352	f2 0f 10 44 24
	20		 movsdx	 xmm0, QWORD PTR s2$[rsp]
  00358	f2 0f 59 44 24
	38		 mulsd	 xmm0, QWORD PTR s1$[rsp+8]
  0035e	f2 0f 10 4c 24
	28		 movsdx	 xmm1, QWORD PTR s2$[rsp+8]
  00364	f2 0f 59 4c 24
	30		 mulsd	 xmm1, QWORD PTR s1$[rsp]
  0036a	f2 0f 5c c1	 subsd	 xmm0, xmm1
  0036e	e8 00 00 00 00	 call	 _Py_asinh
  00373	f2 0f 11 44 24
	48		 movsdx	 QWORD PTR r$[rsp+8], xmm0
$LN1@c_acos:

; 154  :     }
; 155  :     errno = 0;

  00379	ff 15 00 00 00
	00		 call	 QWORD PTR __imp__errno
  0037f	c7 00 00 00 00
	00		 mov	 DWORD PTR [rax], 0

; 156  :     return r;

  00385	48 8d 44 24 40	 lea	 rax, QWORD PTR r$[rsp]
  0038a	48 8b bc 24 f0
	00 00 00	 mov	 rdi, QWORD PTR $T21201[rsp]
  00392	48 8b f0	 mov	 rsi, rax
  00395	b9 10 00 00 00	 mov	 ecx, 16
  0039a	f3 a4		 rep movsb
  0039c	48 8b 84 24 f0
	00 00 00	 mov	 rax, QWORD PTR $T21201[rsp]
$LN8@c_acos:

; 157  : }

  003a4	48 81 c4 d8 00
	00 00		 add	 rsp, 216		; 000000d8H
  003ab	5f		 pop	 rdi
  003ac	5e		 pop	 rsi
  003ad	c3		 ret	 0
c_acos	ENDP
_TEXT	ENDS
PUBLIC	__real@4020000000000000
EXTRN	sqrt:PROC
_BSS	SEGMENT
sqrt_special_values DB 0310H DUP (?)
_BSS	ENDS
;	COMDAT pdata
pdata	SEGMENT
$pdata$c_sqrt DD imagerel c_sqrt
	DD	imagerel c_sqrt+781
	DD	imagerel $unwind$c_sqrt
pdata	ENDS
;	COMDAT xdata
xdata	SEGMENT
$unwind$c_sqrt DD 031001H
	DD	0700cc210H
	DD	0600bH
xdata	ENDS
;	COMDAT __real@4020000000000000
CONST	SEGMENT
__real@4020000000000000 DQ 04020000000000000r	; 8
; Function compile flags: /Odtp
CONST	ENDS
;	COMDAT c_sqrt
_TEXT	SEGMENT
ay$ = 32
s$ = 40
ax$ = 48
d$ = 56
r$ = 64
tv76 = 80
$T21216 = 128
z$ = 136
c_sqrt	PROC						; COMDAT

; 668  : {

  00000	48 89 54 24 10	 mov	 QWORD PTR [rsp+16], rdx
  00005	48 89 4c 24 08	 mov	 QWORD PTR [rsp+8], rcx
  0000a	56		 push	 rsi
  0000b	57		 push	 rdi
  0000c	48 83 ec 68	 sub	 rsp, 104		; 00000068H

; 669  :     /*
; 670  :        Method: use symmetries to reduce to the case when x = z.real and y
; 671  :        = z.imag are nonnegative.  Then the real part of the result is
; 672  :        given by
; 673  : 
; 674  :          s = sqrt((x + hypot(x, y))/2)
; 675  : 
; 676  :        and the imaginary part is
; 677  : 
; 678  :          d = (y/2)/s
; 679  : 
; 680  :        If either x or y is very large then there's a risk of overflow in
; 681  :        computation of the expression x + hypot(x, y).  We can avoid this
; 682  :        by rewriting the formula for s as:
; 683  : 
; 684  :          s = 2*sqrt(x/8 + hypot(x/8, y/8))
; 685  : 
; 686  :        This costs us two extra multiplications/divisions, but avoids the
; 687  :        overhead of checking for x and y large.
; 688  : 
; 689  :        If both x and y are subnormal then hypot(x, y) may also be
; 690  :        subnormal, so will lack full precision.  We solve this by rescaling
; 691  :        x and y by a sufficiently large power of 2 to ensure that x and y
; 692  :        are normal.
; 693  :     */
; 694  : 
; 695  : 
; 696  :     Py_complex r;
; 697  :     double s,d;
; 698  :     double ax, ay;
; 699  : 
; 700  :     SPECIAL_VALUE(z, sqrt_special_values);

  00010	48 8b 84 24 88
	00 00 00	 mov	 rax, QWORD PTR z$[rsp]
  00018	f2 0f 10 00	 movsdx	 xmm0, QWORD PTR [rax]
  0001c	ff 15 00 00 00
	00		 call	 QWORD PTR __imp__finite
  00022	85 c0		 test	 eax, eax
  00024	74 17		 je	 SHORT $LN7@c_sqrt
  00026	48 8b 84 24 88
	00 00 00	 mov	 rax, QWORD PTR z$[rsp]
  0002e	f2 0f 10 40 08	 movsdx	 xmm0, QWORD PTR [rax+8]
  00033	ff 15 00 00 00
	00		 call	 QWORD PTR __imp__finite
  00039	85 c0		 test	 eax, eax
  0003b	75 72		 jne	 SHORT $LN8@c_sqrt
$LN7@c_sqrt:
  0003d	ff 15 00 00 00
	00		 call	 QWORD PTR __imp__errno
  00043	c7 00 00 00 00
	00		 mov	 DWORD PTR [rax], 0
  00049	48 8b 84 24 88
	00 00 00	 mov	 rax, QWORD PTR z$[rsp]
  00051	f2 0f 10 00	 movsdx	 xmm0, QWORD PTR [rax]
  00055	e8 00 00 00 00	 call	 special_type
  0005a	48 98		 cdqe
  0005c	48 6b c0 70	 imul	 rax, 112		; 00000070H
  00060	48 8d 0d 00 00
	00 00		 lea	 rcx, OFFSET FLAT:sqrt_special_values
  00067	48 03 c8	 add	 rcx, rax
  0006a	48 8b c1	 mov	 rax, rcx
  0006d	48 89 44 24 50	 mov	 QWORD PTR tv76[rsp], rax
  00072	48 8b 8c 24 88
	00 00 00	 mov	 rcx, QWORD PTR z$[rsp]
  0007a	f2 0f 10 41 08	 movsdx	 xmm0, QWORD PTR [rcx+8]
  0007f	e8 00 00 00 00	 call	 special_type
  00084	48 98		 cdqe
  00086	48 6b c0 10	 imul	 rax, 16
  0008a	48 8b bc 24 80
	00 00 00	 mov	 rdi, QWORD PTR $T21216[rsp]
  00092	48 8b 4c 24 50	 mov	 rcx, QWORD PTR tv76[rsp]
  00097	48 8d 34 01	 lea	 rsi, QWORD PTR [rcx+rax]
  0009b	b9 10 00 00 00	 mov	 ecx, 16
  000a0	f3 a4		 rep movsb
  000a2	48 8b 84 24 80
	00 00 00	 mov	 rax, QWORD PTR $T21216[rsp]
  000aa	e9 57 02 00 00	 jmp	 $LN9@c_sqrt
$LN8@c_sqrt:

; 701  : 
; 702  :     if (z.real == 0. && z.imag == 0.) {

  000af	48 8b 84 24 88
	00 00 00	 mov	 rax, QWORD PTR z$[rsp]
  000b7	f2 0f 10 00	 movsdx	 xmm0, QWORD PTR [rax]
  000bb	66 0f 2e 05 00
	00 00 00	 ucomisd xmm0, QWORD PTR __real@0000000000000000
  000c3	7a 5c		 jp	 SHORT $LN6@c_sqrt
  000c5	75 5a		 jne	 SHORT $LN6@c_sqrt
  000c7	48 8b 84 24 88
	00 00 00	 mov	 rax, QWORD PTR z$[rsp]
  000cf	f2 0f 10 40 08	 movsdx	 xmm0, QWORD PTR [rax+8]
  000d4	66 0f 2e 05 00
	00 00 00	 ucomisd xmm0, QWORD PTR __real@0000000000000000
  000dc	7a 43		 jp	 SHORT $LN6@c_sqrt
  000de	75 41		 jne	 SHORT $LN6@c_sqrt

; 703  :         r.real = 0.;

  000e0	66 0f 57 c0	 xorpd	 xmm0, xmm0
  000e4	f2 0f 11 44 24
	40		 movsdx	 QWORD PTR r$[rsp], xmm0

; 704  :         r.imag = z.imag;

  000ea	48 8b 84 24 88
	00 00 00	 mov	 rax, QWORD PTR z$[rsp]
  000f2	f2 0f 10 40 08	 movsdx	 xmm0, QWORD PTR [rax+8]
  000f7	f2 0f 11 44 24
	48		 movsdx	 QWORD PTR r$[rsp+8], xmm0

; 705  :         return r;

  000fd	48 8d 44 24 40	 lea	 rax, QWORD PTR r$[rsp]
  00102	48 8b bc 24 80
	00 00 00	 mov	 rdi, QWORD PTR $T21216[rsp]
  0010a	48 8b f0	 mov	 rsi, rax
  0010d	b9 10 00 00 00	 mov	 ecx, 16
  00112	f3 a4		 rep movsb
  00114	48 8b 84 24 80
	00 00 00	 mov	 rax, QWORD PTR $T21216[rsp]
  0011c	e9 e5 01 00 00	 jmp	 $LN9@c_sqrt
$LN6@c_sqrt:

; 706  :     }
; 707  : 
; 708  :     ax = fabs(z.real);

  00121	48 8b 84 24 88
	00 00 00	 mov	 rax, QWORD PTR z$[rsp]
  00129	f2 0f 10 00	 movsdx	 xmm0, QWORD PTR [rax]
  0012d	e8 00 00 00 00	 call	 fabs
  00132	f2 0f 11 44 24
	30		 movsdx	 QWORD PTR ax$[rsp], xmm0

; 709  :     ay = fabs(z.imag);

  00138	48 8b 84 24 88
	00 00 00	 mov	 rax, QWORD PTR z$[rsp]
  00140	f2 0f 10 40 08	 movsdx	 xmm0, QWORD PTR [rax+8]
  00145	e8 00 00 00 00	 call	 fabs
  0014a	f2 0f 11 44 24
	20		 movsdx	 QWORD PTR ay$[rsp], xmm0

; 710  : 
; 711  :     if (ax < DBL_MIN && ay < DBL_MIN && (ax > 0. || ay > 0.)) {

  00150	f2 0f 10 05 00
	00 00 00	 movsdx	 xmm0, QWORD PTR __real@0010000000000000
  00158	66 0f 2f 44 24
	30		 comisd	 xmm0, QWORD PTR ax$[rsp]
  0015e	0f 86 8d 00 00
	00		 jbe	 $LN5@c_sqrt
  00164	f2 0f 10 05 00
	00 00 00	 movsdx	 xmm0, QWORD PTR __real@0010000000000000
  0016c	66 0f 2f 44 24
	20		 comisd	 xmm0, QWORD PTR ay$[rsp]
  00172	76 7d		 jbe	 SHORT $LN5@c_sqrt
  00174	f2 0f 10 44 24
	30		 movsdx	 xmm0, QWORD PTR ax$[rsp]
  0017a	66 0f 2f 05 00
	00 00 00	 comisd	 xmm0, QWORD PTR __real@0000000000000000
  00182	77 10		 ja	 SHORT $LN4@c_sqrt
  00184	f2 0f 10 44 24
	20		 movsdx	 xmm0, QWORD PTR ay$[rsp]
  0018a	66 0f 2f 05 00
	00 00 00	 comisd	 xmm0, QWORD PTR __real@0000000000000000
  00192	76 5d		 jbe	 SHORT $LN5@c_sqrt
$LN4@c_sqrt:

; 712  :         /* here we catch cases where hypot(ax, ay) is subnormal */
; 713  :         ax = ldexp(ax, CM_SCALE_UP);

  00194	ba 35 00 00 00	 mov	 edx, 53			; 00000035H
  00199	f2 0f 10 44 24
	30		 movsdx	 xmm0, QWORD PTR ax$[rsp]
  0019f	ff 15 00 00 00
	00		 call	 QWORD PTR __imp_ldexp
  001a5	f2 0f 11 44 24
	30		 movsdx	 QWORD PTR ax$[rsp], xmm0

; 714  :         s = ldexp(sqrt(ax + hypot(ax, ldexp(ay, CM_SCALE_UP))),
; 715  :                   CM_SCALE_DOWN);

  001ab	ba 35 00 00 00	 mov	 edx, 53			; 00000035H
  001b0	f2 0f 10 44 24
	20		 movsdx	 xmm0, QWORD PTR ay$[rsp]
  001b6	ff 15 00 00 00
	00		 call	 QWORD PTR __imp_ldexp
  001bc	66 0f 28 c8	 movapd	 xmm1, xmm0
  001c0	f2 0f 10 44 24
	30		 movsdx	 xmm0, QWORD PTR ax$[rsp]
  001c6	e8 00 00 00 00	 call	 hypot
  001cb	f2 0f 10 4c 24
	30		 movsdx	 xmm1, QWORD PTR ax$[rsp]
  001d1	f2 0f 58 c8	 addsd	 xmm1, xmm0
  001d5	66 0f 28 c1	 movapd	 xmm0, xmm1
  001d9	e8 00 00 00 00	 call	 sqrt
  001de	ba e5 ff ff ff	 mov	 edx, -27
  001e3	ff 15 00 00 00
	00		 call	 QWORD PTR __imp_ldexp
  001e9	f2 0f 11 44 24
	28		 movsdx	 QWORD PTR s$[rsp], xmm0

; 716  :     } else {

  001ef	eb 5a		 jmp	 SHORT $LN3@c_sqrt
$LN5@c_sqrt:

; 717  :         ax /= 8.;

  001f1	f2 0f 10 44 24
	30		 movsdx	 xmm0, QWORD PTR ax$[rsp]
  001f7	f2 0f 5e 05 00
	00 00 00	 divsd	 xmm0, QWORD PTR __real@4020000000000000
  001ff	f2 0f 11 44 24
	30		 movsdx	 QWORD PTR ax$[rsp], xmm0

; 718  :         s = 2.*sqrt(ax + hypot(ax, ay/8.));

  00205	f2 0f 10 44 24
	20		 movsdx	 xmm0, QWORD PTR ay$[rsp]
  0020b	f2 0f 5e 05 00
	00 00 00	 divsd	 xmm0, QWORD PTR __real@4020000000000000
  00213	66 0f 28 c8	 movapd	 xmm1, xmm0
  00217	f2 0f 10 44 24
	30		 movsdx	 xmm0, QWORD PTR ax$[rsp]
  0021d	e8 00 00 00 00	 call	 hypot
  00222	f2 0f 10 4c 24
	30		 movsdx	 xmm1, QWORD PTR ax$[rsp]
  00228	f2 0f 58 c8	 addsd	 xmm1, xmm0
  0022c	66 0f 28 c1	 movapd	 xmm0, xmm1
  00230	e8 00 00 00 00	 call	 sqrt
  00235	f2 0f 10 0d 00
	00 00 00	 movsdx	 xmm1, QWORD PTR __real@4000000000000000
  0023d	f2 0f 59 c8	 mulsd	 xmm1, xmm0
  00241	66 0f 28 c1	 movapd	 xmm0, xmm1
  00245	f2 0f 11 44 24
	28		 movsdx	 QWORD PTR s$[rsp], xmm0
$LN3@c_sqrt:

; 719  :     }
; 720  :     d = ay/(2.*s);

  0024b	f2 0f 10 05 00
	00 00 00	 movsdx	 xmm0, QWORD PTR __real@4000000000000000
  00253	f2 0f 59 44 24
	28		 mulsd	 xmm0, QWORD PTR s$[rsp]
  00259	f2 0f 10 4c 24
	20		 movsdx	 xmm1, QWORD PTR ay$[rsp]
  0025f	f2 0f 5e c8	 divsd	 xmm1, xmm0
  00263	66 0f 28 c1	 movapd	 xmm0, xmm1
  00267	f2 0f 11 44 24
	38		 movsdx	 QWORD PTR d$[rsp], xmm0

; 721  : 
; 722  :     if (z.real >= 0.) {

  0026d	48 8b 84 24 88
	00 00 00	 mov	 rax, QWORD PTR z$[rsp]
  00275	f2 0f 10 00	 movsdx	 xmm0, QWORD PTR [rax]
  00279	66 0f 2f 05 00
	00 00 00	 comisd	 xmm0, QWORD PTR __real@0000000000000000
  00281	72 2d		 jb	 SHORT $LN2@c_sqrt

; 723  :         r.real = s;

  00283	f2 0f 10 44 24
	28		 movsdx	 xmm0, QWORD PTR s$[rsp]
  00289	f2 0f 11 44 24
	40		 movsdx	 QWORD PTR r$[rsp], xmm0

; 724  :         r.imag = copysign(d, z.imag);

  0028f	48 8b 84 24 88
	00 00 00	 mov	 rax, QWORD PTR z$[rsp]
  00297	f2 0f 10 48 08	 movsdx	 xmm1, QWORD PTR [rax+8]
  0029c	f2 0f 10 44 24
	38		 movsdx	 xmm0, QWORD PTR d$[rsp]
  002a2	ff 15 00 00 00
	00		 call	 QWORD PTR __imp__copysign
  002a8	f2 0f 11 44 24
	48		 movsdx	 QWORD PTR r$[rsp+8], xmm0

; 725  :     } else {

  002ae	eb 2b		 jmp	 SHORT $LN1@c_sqrt
$LN2@c_sqrt:

; 726  :         r.real = d;

  002b0	f2 0f 10 44 24
	38		 movsdx	 xmm0, QWORD PTR d$[rsp]
  002b6	f2 0f 11 44 24
	40		 movsdx	 QWORD PTR r$[rsp], xmm0

; 727  :         r.imag = copysign(s, z.imag);

  002bc	48 8b 84 24 88
	00 00 00	 mov	 rax, QWORD PTR z$[rsp]
  002c4	f2 0f 10 48 08	 movsdx	 xmm1, QWORD PTR [rax+8]
  002c9	f2 0f 10 44 24
	28		 movsdx	 xmm0, QWORD PTR s$[rsp]
  002cf	ff 15 00 00 00
	00		 call	 QWORD PTR __imp__copysign
  002d5	f2 0f 11 44 24
	48		 movsdx	 QWORD PTR r$[rsp+8], xmm0
$LN1@c_sqrt:

; 728  :     }
; 729  :     errno = 0;

  002db	ff 15 00 00 00
	00		 call	 QWORD PTR __imp__errno
  002e1	c7 00 00 00 00
	00		 mov	 DWORD PTR [rax], 0

; 730  :     return r;

  002e7	48 8d 44 24 40	 lea	 rax, QWORD PTR r$[rsp]
  002ec	48 8b bc 24 80
	00 00 00	 mov	 rdi, QWORD PTR $T21216[rsp]
  002f4	48 8b f0	 mov	 rsi, rax
  002f7	b9 10 00 00 00	 mov	 ecx, 16
  002fc	f3 a4		 rep movsb
  002fe	48 8b 84 24 80
	00 00 00	 mov	 rax, QWORD PTR $T21216[rsp]
$LN9@c_sqrt:

; 731  : }

  00306	48 83 c4 68	 add	 rsp, 104		; 00000068H
  0030a	5f		 pop	 rdi
  0030b	5e		 pop	 rsi
  0030c	c3		 ret	 0
c_sqrt	ENDP
_TEXT	ENDS
PUBLIC	$T21227
PUBLIC	$T21228
PUBLIC	$T21226
PUBLIC	??_C@_01CKDDGHAB@D?$AA@				; `string'
;	COMDAT pdata
pdata	SEGMENT
$pdata$math_1 DD imagerel math_1
	DD	imagerel math_1+263
	DD	imagerel $unwind$math_1
pdata	ENDS
;	COMDAT xdata
xdata	SEGMENT
$unwind$math_1 DD 041301H
	DD	0110113H
	DD	0600b700cH
xdata	ENDS
;	COMDAT ??_C@_01CKDDGHAB@D?$AA@
CONST	SEGMENT
??_C@_01CKDDGHAB@D?$AA@ DB 'D', 00H			; `string'
; Function compile flags: /Odtp
CONST	ENDS
;	COMDAT math_1
_TEXT	SEGMENT
x$ = 32
r$ = 48
$T21225 = 64
$T21226 = 80
$T21227 = 96
$T21228 = 112
args$ = 160
func$ = 168
math_1	PROC						; COMDAT

; 874  : {

  00000	48 89 54 24 10	 mov	 QWORD PTR [rsp+16], rdx
  00005	48 89 4c 24 08	 mov	 QWORD PTR [rsp+8], rcx
  0000a	56		 push	 rsi
  0000b	57		 push	 rdi
  0000c	48 81 ec 88 00
	00 00		 sub	 rsp, 136		; 00000088H

; 875  :     Py_complex x,r ;
; 876  :     if (!PyArg_ParseTuple(args, "D", &x))

  00013	4c 8d 44 24 20	 lea	 r8, QWORD PTR x$[rsp]
  00018	48 8d 15 00 00
	00 00		 lea	 rdx, OFFSET FLAT:??_C@_01CKDDGHAB@D?$AA@
  0001f	48 8b 8c 24 a0
	00 00 00	 mov	 rcx, QWORD PTR args$[rsp]
  00027	e8 00 00 00 00	 call	 PyArg_ParseTuple
  0002c	85 c0		 test	 eax, eax
  0002e	75 07		 jne	 SHORT $LN5@math_1

; 877  :         return NULL;

  00030	33 c0		 xor	 eax, eax
  00032	e9 c6 00 00 00	 jmp	 $LN6@math_1
$LN5@math_1:

; 878  :     errno = 0;

  00037	ff 15 00 00 00
	00		 call	 QWORD PTR __imp__errno
  0003d	c7 00 00 00 00
	00		 mov	 DWORD PTR [rax], 0

; 879  :     PyFPE_START_PROTECT("complex function", return 0);
; 880  :     r = (*func)(x);

  00043	48 8d 44 24 50	 lea	 rax, QWORD PTR $T21226[rsp]
  00048	48 8d 4c 24 20	 lea	 rcx, QWORD PTR x$[rsp]
  0004d	48 8b f8	 mov	 rdi, rax
  00050	48 8b f1	 mov	 rsi, rcx
  00053	b9 10 00 00 00	 mov	 ecx, 16
  00058	f3 a4		 rep movsb
  0005a	48 8d 54 24 50	 lea	 rdx, QWORD PTR $T21226[rsp]
  0005f	48 8d 4c 24 40	 lea	 rcx, QWORD PTR $T21225[rsp]
  00064	ff 94 24 a8 00
	00 00		 call	 QWORD PTR func$[rsp]
  0006b	48 8d 4c 24 70	 lea	 rcx, QWORD PTR $T21228[rsp]
  00070	48 8b f9	 mov	 rdi, rcx
  00073	48 8b f0	 mov	 rsi, rax
  00076	b9 10 00 00 00	 mov	 ecx, 16
  0007b	f3 a4		 rep movsb
  0007d	48 8d 44 24 30	 lea	 rax, QWORD PTR r$[rsp]
  00082	48 8d 4c 24 70	 lea	 rcx, QWORD PTR $T21228[rsp]
  00087	48 8b f8	 mov	 rdi, rax
  0008a	48 8b f1	 mov	 rsi, rcx
  0008d	b9 10 00 00 00	 mov	 ecx, 16
  00092	f3 a4		 rep movsb

; 881  :     PyFPE_END_PROTECT(r);
; 882  :     if (errno == EDOM) {

  00094	ff 15 00 00 00
	00		 call	 QWORD PTR __imp__errno
  0009a	83 38 21	 cmp	 DWORD PTR [rax], 33	; 00000021H
  0009d	75 19		 jne	 SHORT $LN4@math_1

; 883  :         PyErr_SetString(PyExc_ValueError, "math domain error");

  0009f	48 8d 15 00 00
	00 00		 lea	 rdx, OFFSET FLAT:??_C@_0BC@LMCJDMHE@math?5domain?5error?$AA@
  000a6	48 8b 0d 00 00
	00 00		 mov	 rcx, QWORD PTR PyExc_ValueError
  000ad	e8 00 00 00 00	 call	 PyErr_SetString

; 884  :         return NULL;

  000b2	33 c0		 xor	 eax, eax
  000b4	eb 47		 jmp	 SHORT $LN6@math_1
  000b6	eb 45		 jmp	 SHORT $LN3@math_1
$LN4@math_1:

; 885  :     }
; 886  :     else if (errno == ERANGE) {

  000b8	ff 15 00 00 00
	00		 call	 QWORD PTR __imp__errno
  000be	83 38 22	 cmp	 DWORD PTR [rax], 34	; 00000022H
  000c1	75 19		 jne	 SHORT $LN2@math_1

; 887  :         PyErr_SetString(PyExc_OverflowError, "math range error");

  000c3	48 8d 15 00 00
	00 00		 lea	 rdx, OFFSET FLAT:??_C@_0BB@PNJGEICL@math?5range?5error?$AA@
  000ca	48 8b 0d 00 00
	00 00		 mov	 rcx, QWORD PTR PyExc_OverflowError
  000d1	e8 00 00 00 00	 call	 PyErr_SetString

; 888  :         return NULL;

  000d6	33 c0		 xor	 eax, eax
  000d8	eb 23		 jmp	 SHORT $LN6@math_1

; 889  :     }
; 890  :     else {

  000da	eb 21		 jmp	 SHORT $LN1@math_1
$LN2@math_1:

; 891  :         return PyComplex_FromCComplex(r);

  000dc	48 8d 44 24 60	 lea	 rax, QWORD PTR $T21227[rsp]
  000e1	48 8d 4c 24 30	 lea	 rcx, QWORD PTR r$[rsp]
  000e6	48 8b f8	 mov	 rdi, rax
  000e9	48 8b f1	 mov	 rsi, rcx
  000ec	b9 10 00 00 00	 mov	 ecx, 16
  000f1	f3 a4		 rep movsb
  000f3	48 8d 4c 24 60	 lea	 rcx, QWORD PTR $T21227[rsp]
  000f8	e8 00 00 00 00	 call	 PyComplex_FromCComplex
$LN1@math_1:
$LN3@math_1:
$LN6@math_1:

; 892  :     }
; 893  : }

  000fd	48 81 c4 88 00
	00 00		 add	 rsp, 136		; 00000088H
  00104	5f		 pop	 rdi
  00105	5e		 pop	 rsi
  00106	c3		 ret	 0
math_1	ENDP
_TEXT	ENDS
;	COMDAT pdata
pdata	SEGMENT
$pdata$cmath_acosh DD imagerel cmath_acosh
	DD	imagerel cmath_acosh+36
	DD	imagerel $unwind$cmath_acosh
pdata	ENDS
;	COMDAT xdata
xdata	SEGMENT
$unwind$cmath_acosh DD 010e01H
	DD	0420eH
; Function compile flags: /Odtp
xdata	ENDS
;	COMDAT cmath_acosh
_TEXT	SEGMENT
self$ = 48
args$ = 56
cmath_acosh PROC					; COMDAT

; 901  : FUNC1(cmath_acosh, c_acosh)

  00000	48 89 54 24 10	 mov	 QWORD PTR [rsp+16], rdx
  00005	48 89 4c 24 08	 mov	 QWORD PTR [rsp+8], rcx
  0000a	48 83 ec 28	 sub	 rsp, 40			; 00000028H
  0000e	48 8d 15 00 00
	00 00		 lea	 rdx, OFFSET FLAT:c_acosh
  00015	48 8b 4c 24 38	 mov	 rcx, QWORD PTR args$[rsp]
  0001a	e8 00 00 00 00	 call	 math_1
  0001f	48 83 c4 28	 add	 rsp, 40			; 00000028H
  00023	c3		 ret	 0
cmath_acosh ENDP
_TEXT	ENDS
PUBLIC	$T21246
PUBLIC	$T21245
PUBLIC	$T21247
PUBLIC	$T21244
_BSS	SEGMENT
acosh_special_values DB 0310H DUP (?)
_BSS	ENDS
;	COMDAT pdata
pdata	SEGMENT
$pdata$c_acosh DD imagerel c_acosh
	DD	imagerel c_acosh+768
	DD	imagerel $unwind$c_acosh
pdata	ENDS
;	COMDAT xdata
xdata	SEGMENT
$unwind$c_acosh DD 041301H
	DD	0190113H
	DD	0600b700cH
; Function compile flags: /Odtp
xdata	ENDS
;	COMDAT c_acosh
_TEXT	SEGMENT
s2$ = 32
s1$ = 48
r$ = 64
$T21242 = 80
$T21243 = 96
$T21244 = 112
$T21245 = 128
$T21246 = 144
$T21247 = 160
tv76 = 176
tv95 = 184
$T21241 = 224
z$ = 232
c_acosh	PROC						; COMDAT

; 169  : {

  00000	48 89 54 24 10	 mov	 QWORD PTR [rsp+16], rdx
  00005	48 89 4c 24 08	 mov	 QWORD PTR [rsp+8], rcx
  0000a	56		 push	 rsi
  0000b	57		 push	 rdi
  0000c	48 81 ec c8 00
	00 00		 sub	 rsp, 200		; 000000c8H

; 170  :     Py_complex s1, s2, r;
; 171  : 
; 172  :     SPECIAL_VALUE(z, acosh_special_values);

  00013	48 8b 84 24 e8
	00 00 00	 mov	 rax, QWORD PTR z$[rsp]
  0001b	f2 0f 10 00	 movsdx	 xmm0, QWORD PTR [rax]
  0001f	ff 15 00 00 00
	00		 call	 QWORD PTR __imp__finite
  00025	85 c0		 test	 eax, eax
  00027	74 17		 je	 SHORT $LN4@c_acosh
  00029	48 8b 84 24 e8
	00 00 00	 mov	 rax, QWORD PTR z$[rsp]
  00031	f2 0f 10 40 08	 movsdx	 xmm0, QWORD PTR [rax+8]
  00036	ff 15 00 00 00
	00		 call	 QWORD PTR __imp__finite
  0003c	85 c0		 test	 eax, eax
  0003e	75 78		 jne	 SHORT $LN5@c_acosh
$LN4@c_acosh:
  00040	ff 15 00 00 00
	00		 call	 QWORD PTR __imp__errno
  00046	c7 00 00 00 00
	00		 mov	 DWORD PTR [rax], 0
  0004c	48 8b 84 24 e8
	00 00 00	 mov	 rax, QWORD PTR z$[rsp]
  00054	f2 0f 10 00	 movsdx	 xmm0, QWORD PTR [rax]
  00058	e8 00 00 00 00	 call	 special_type
  0005d	48 98		 cdqe
  0005f	48 6b c0 70	 imul	 rax, 112		; 00000070H
  00063	48 8d 0d 00 00
	00 00		 lea	 rcx, OFFSET FLAT:acosh_special_values
  0006a	48 03 c8	 add	 rcx, rax
  0006d	48 8b c1	 mov	 rax, rcx
  00070	48 89 84 24 b0
	00 00 00	 mov	 QWORD PTR tv76[rsp], rax
  00078	48 8b 8c 24 e8
	00 00 00	 mov	 rcx, QWORD PTR z$[rsp]
  00080	f2 0f 10 41 08	 movsdx	 xmm0, QWORD PTR [rcx+8]
  00085	e8 00 00 00 00	 call	 special_type
  0008a	48 98		 cdqe
  0008c	48 6b c0 10	 imul	 rax, 16
  00090	48 8b bc 24 e0
	00 00 00	 mov	 rdi, QWORD PTR $T21241[rsp]
  00098	48 8b 8c 24 b0
	00 00 00	 mov	 rcx, QWORD PTR tv76[rsp]
  000a0	48 8d 34 01	 lea	 rsi, QWORD PTR [rcx+rax]
  000a4	b9 10 00 00 00	 mov	 ecx, 16
  000a9	f3 a4		 rep movsb
  000ab	48 8b 84 24 e0
	00 00 00	 mov	 rax, QWORD PTR $T21241[rsp]
  000b3	e9 3e 02 00 00	 jmp	 $LN6@c_acosh
$LN5@c_acosh:

; 173  : 
; 174  :     if (fabs(z.real) > CM_LARGE_DOUBLE || fabs(z.imag) > CM_LARGE_DOUBLE) {

  000b8	48 8b 84 24 e8
	00 00 00	 mov	 rax, QWORD PTR z$[rsp]
  000c0	f2 0f 10 00	 movsdx	 xmm0, QWORD PTR [rax]
  000c4	e8 00 00 00 00	 call	 fabs
  000c9	66 0f 2f 05 00
	00 00 00	 comisd	 xmm0, QWORD PTR __real@7fcfffffffffffff
  000d1	77 20		 ja	 SHORT $LN2@c_acosh
  000d3	48 8b 84 24 e8
	00 00 00	 mov	 rax, QWORD PTR z$[rsp]
  000db	f2 0f 10 40 08	 movsdx	 xmm0, QWORD PTR [rax+8]
  000e0	e8 00 00 00 00	 call	 fabs
  000e5	66 0f 2f 05 00
	00 00 00	 comisd	 xmm0, QWORD PTR __real@7fcfffffffffffff
  000ed	0f 86 80 00 00
	00		 jbe	 $LN3@c_acosh
$LN2@c_acosh:

; 175  :         /* avoid unnecessary overflow for large arguments */
; 176  :         r.real = log(hypot(z.real/2., z.imag/2.)) + M_LN2*2.;

  000f3	48 8b 84 24 e8
	00 00 00	 mov	 rax, QWORD PTR z$[rsp]
  000fb	f2 0f 10 40 08	 movsdx	 xmm0, QWORD PTR [rax+8]
  00100	f2 0f 5e 05 00
	00 00 00	 divsd	 xmm0, QWORD PTR __real@4000000000000000
  00108	48 8b 84 24 e8
	00 00 00	 mov	 rax, QWORD PTR z$[rsp]
  00110	f2 0f 10 08	 movsdx	 xmm1, QWORD PTR [rax]
  00114	f2 0f 5e 0d 00
	00 00 00	 divsd	 xmm1, QWORD PTR __real@4000000000000000
  0011c	f2 0f 11 8c 24
	b8 00 00 00	 movsdx	 QWORD PTR tv95[rsp], xmm1
  00125	66 0f 28 c8	 movapd	 xmm1, xmm0
  00129	f2 0f 10 84 24
	b8 00 00 00	 movsdx	 xmm0, QWORD PTR tv95[rsp]
  00132	e8 00 00 00 00	 call	 hypot
  00137	e8 00 00 00 00	 call	 log
  0013c	f2 0f 58 05 00
	00 00 00	 addsd	 xmm0, QWORD PTR __real@3ff62e42fefa39ef
  00144	f2 0f 11 44 24
	40		 movsdx	 QWORD PTR r$[rsp], xmm0

; 177  :         r.imag = atan2(z.imag, z.real);

  0014a	48 8b 84 24 e8
	00 00 00	 mov	 rax, QWORD PTR z$[rsp]
  00152	f2 0f 10 08	 movsdx	 xmm1, QWORD PTR [rax]
  00156	48 8b 84 24 e8
	00 00 00	 mov	 rax, QWORD PTR z$[rsp]
  0015e	f2 0f 10 40 08	 movsdx	 xmm0, QWORD PTR [rax+8]
  00163	e8 00 00 00 00	 call	 atan2
  00168	f2 0f 11 44 24
	48		 movsdx	 QWORD PTR r$[rsp+8], xmm0

; 178  :     } else {

  0016e	e9 58 01 00 00	 jmp	 $LN1@c_acosh
$LN3@c_acosh:

; 179  :         s1.real = z.real - 1.;

  00173	48 8b 84 24 e8
	00 00 00	 mov	 rax, QWORD PTR z$[rsp]
  0017b	f2 0f 10 00	 movsdx	 xmm0, QWORD PTR [rax]
  0017f	f2 0f 5c 05 00
	00 00 00	 subsd	 xmm0, QWORD PTR __real@3ff0000000000000
  00187	f2 0f 11 44 24
	30		 movsdx	 QWORD PTR s1$[rsp], xmm0

; 180  :         s1.imag = z.imag;

  0018d	48 8b 84 24 e8
	00 00 00	 mov	 rax, QWORD PTR z$[rsp]
  00195	f2 0f 10 40 08	 movsdx	 xmm0, QWORD PTR [rax+8]
  0019a	f2 0f 11 44 24
	38		 movsdx	 QWORD PTR s1$[rsp+8], xmm0

; 181  :         s1 = c_sqrt(s1);

  001a0	48 8d 44 24 70	 lea	 rax, QWORD PTR $T21244[rsp]
  001a5	48 8d 4c 24 30	 lea	 rcx, QWORD PTR s1$[rsp]
  001aa	48 8b f8	 mov	 rdi, rax
  001ad	48 8b f1	 mov	 rsi, rcx
  001b0	b9 10 00 00 00	 mov	 ecx, 16
  001b5	f3 a4		 rep movsb
  001b7	48 8d 54 24 70	 lea	 rdx, QWORD PTR $T21244[rsp]
  001bc	48 8d 4c 24 50	 lea	 rcx, QWORD PTR $T21242[rsp]
  001c1	e8 00 00 00 00	 call	 c_sqrt
  001c6	48 8d 8c 24 a0
	00 00 00	 lea	 rcx, QWORD PTR $T21247[rsp]
  001ce	48 8b f9	 mov	 rdi, rcx
  001d1	48 8b f0	 mov	 rsi, rax
  001d4	b9 10 00 00 00	 mov	 ecx, 16
  001d9	f3 a4		 rep movsb
  001db	48 8d 44 24 30	 lea	 rax, QWORD PTR s1$[rsp]
  001e0	48 8d 8c 24 a0
	00 00 00	 lea	 rcx, QWORD PTR $T21247[rsp]
  001e8	48 8b f8	 mov	 rdi, rax
  001eb	48 8b f1	 mov	 rsi, rcx
  001ee	b9 10 00 00 00	 mov	 ecx, 16
  001f3	f3 a4		 rep movsb

; 182  :         s2.real = z.real + 1.;

  001f5	48 8b 84 24 e8
	00 00 00	 mov	 rax, QWORD PTR z$[rsp]
  001fd	f2 0f 10 00	 movsdx	 xmm0, QWORD PTR [rax]
  00201	f2 0f 58 05 00
	00 00 00	 addsd	 xmm0, QWORD PTR __real@3ff0000000000000
  00209	f2 0f 11 44 24
	20		 movsdx	 QWORD PTR s2$[rsp], xmm0

; 183  :         s2.imag = z.imag;

  0020f	48 8b 84 24 e8
	00 00 00	 mov	 rax, QWORD PTR z$[rsp]
  00217	f2 0f 10 40 08	 movsdx	 xmm0, QWORD PTR [rax+8]
  0021c	f2 0f 11 44 24
	28		 movsdx	 QWORD PTR s2$[rsp+8], xmm0

; 184  :         s2 = c_sqrt(s2);

  00222	48 8d 84 24 80
	00 00 00	 lea	 rax, QWORD PTR $T21245[rsp]
  0022a	48 8d 4c 24 20	 lea	 rcx, QWORD PTR s2$[rsp]
  0022f	48 8b f8	 mov	 rdi, rax
  00232	48 8b f1	 mov	 rsi, rcx
  00235	b9 10 00 00 00	 mov	 ecx, 16
  0023a	f3 a4		 rep movsb
  0023c	48 8d 94 24 80
	00 00 00	 lea	 rdx, QWORD PTR $T21245[rsp]
  00244	48 8d 4c 24 60	 lea	 rcx, QWORD PTR $T21243[rsp]
  00249	e8 00 00 00 00	 call	 c_sqrt
  0024e	48 8d 8c 24 90
	00 00 00	 lea	 rcx, QWORD PTR $T21246[rsp]
  00256	48 8b f9	 mov	 rdi, rcx
  00259	48 8b f0	 mov	 rsi, rax
  0025c	b9 10 00 00 00	 mov	 ecx, 16
  00261	f3 a4		 rep movsb
  00263	48 8d 44 24 20	 lea	 rax, QWORD PTR s2$[rsp]
  00268	48 8d 8c 24 90
	00 00 00	 lea	 rcx, QWORD PTR $T21246[rsp]
  00270	48 8b f8	 mov	 rdi, rax
  00273	48 8b f1	 mov	 rsi, rcx
  00276	b9 10 00 00 00	 mov	 ecx, 16
  0027b	f3 a4		 rep movsb

; 185  :         r.real = m_asinh(s1.real*s2.real + s1.imag*s2.imag);

  0027d	f2 0f 10 44 24
	30		 movsdx	 xmm0, QWORD PTR s1$[rsp]
  00283	f2 0f 59 44 24
	20		 mulsd	 xmm0, QWORD PTR s2$[rsp]
  00289	f2 0f 10 4c 24
	38		 movsdx	 xmm1, QWORD PTR s1$[rsp+8]
  0028f	f2 0f 59 4c 24
	28		 mulsd	 xmm1, QWORD PTR s2$[rsp+8]
  00295	f2 0f 58 c1	 addsd	 xmm0, xmm1
  00299	e8 00 00 00 00	 call	 _Py_asinh
  0029e	f2 0f 11 44 24
	40		 movsdx	 QWORD PTR r$[rsp], xmm0

; 186  :         r.imag = 2.*atan2(s1.imag, s2.real);

  002a4	f2 0f 10 4c 24
	20		 movsdx	 xmm1, QWORD PTR s2$[rsp]
  002aa	f2 0f 10 44 24
	38		 movsdx	 xmm0, QWORD PTR s1$[rsp+8]
  002b0	e8 00 00 00 00	 call	 atan2
  002b5	f2 0f 10 0d 00
	00 00 00	 movsdx	 xmm1, QWORD PTR __real@4000000000000000
  002bd	f2 0f 59 c8	 mulsd	 xmm1, xmm0
  002c1	66 0f 28 c1	 movapd	 xmm0, xmm1
  002c5	f2 0f 11 44 24
	48		 movsdx	 QWORD PTR r$[rsp+8], xmm0
$LN1@c_acosh:

; 187  :     }
; 188  :     errno = 0;

  002cb	ff 15 00 00 00
	00		 call	 QWORD PTR __imp__errno
  002d1	c7 00 00 00 00
	00		 mov	 DWORD PTR [rax], 0

; 189  :     return r;

  002d7	48 8d 44 24 40	 lea	 rax, QWORD PTR r$[rsp]
  002dc	48 8b bc 24 e0
	00 00 00	 mov	 rdi, QWORD PTR $T21241[rsp]
  002e4	48 8b f0	 mov	 rsi, rax
  002e7	b9 10 00 00 00	 mov	 ecx, 16
  002ec	f3 a4		 rep movsb
  002ee	48 8b 84 24 e0
	00 00 00	 mov	 rax, QWORD PTR $T21241[rsp]
$LN6@c_acosh:

; 190  : }

  002f6	48 81 c4 c8 00
	00 00		 add	 rsp, 200		; 000000c8H
  002fd	5f		 pop	 rdi
  002fe	5e		 pop	 rsi
  002ff	c3		 ret	 0
c_acosh	ENDP
_TEXT	ENDS
;	COMDAT pdata
pdata	SEGMENT
$pdata$cmath_asin DD imagerel cmath_asin
	DD	imagerel cmath_asin+36
	DD	imagerel $unwind$cmath_asin
pdata	ENDS
;	COMDAT xdata
xdata	SEGMENT
$unwind$cmath_asin DD 010e01H
	DD	0420eH
; Function compile flags: /Odtp
xdata	ENDS
;	COMDAT cmath_asin
_TEXT	SEGMENT
self$ = 48
args$ = 56
cmath_asin PROC						; COMDAT

; 902  : FUNC1(cmath_asin, c_asin)

  00000	48 89 54 24 10	 mov	 QWORD PTR [rsp+16], rdx
  00005	48 89 4c 24 08	 mov	 QWORD PTR [rsp+8], rcx
  0000a	48 83 ec 28	 sub	 rsp, 40			; 00000028H
  0000e	48 8d 15 00 00
	00 00		 lea	 rdx, OFFSET FLAT:c_asin
  00015	48 8b 4c 24 38	 mov	 rcx, QWORD PTR args$[rsp]
  0001a	e8 00 00 00 00	 call	 math_1
  0001f	48 83 c4 28	 add	 rsp, 40			; 00000028H
  00023	c3		 ret	 0
cmath_asin ENDP
_TEXT	ENDS
PUBLIC	$T21263
PUBLIC	$T21262
;	COMDAT pdata
pdata	SEGMENT
$pdata$c_asin DD imagerel c_asin
	DD	imagerel c_asin+210
	DD	imagerel $unwind$c_asin
pdata	ENDS
;	COMDAT xdata
xdata	SEGMENT
$unwind$c_asin DD 031001H
	DD	0700ce210H
	DD	0600bH
; Function compile flags: /Odtp
xdata	ENDS
;	COMDAT c_asin
_TEXT	SEGMENT
s$ = 32
r$ = 48
$T21261 = 64
$T21262 = 80
$T21263 = 96
$T21260 = 144
z$ = 152
c_asin	PROC						; COMDAT

; 200  : {

  00000	48 89 54 24 10	 mov	 QWORD PTR [rsp+16], rdx
  00005	48 89 4c 24 08	 mov	 QWORD PTR [rsp+8], rcx
  0000a	56		 push	 rsi
  0000b	57		 push	 rdi
  0000c	48 83 ec 78	 sub	 rsp, 120		; 00000078H

; 201  :     /* asin(z) = -i asinh(iz) */
; 202  :     Py_complex s, r;
; 203  :     s.real = -z.imag;

  00010	48 8b 84 24 98
	00 00 00	 mov	 rax, QWORD PTR z$[rsp]
  00018	f2 0f 10 40 08	 movsdx	 xmm0, QWORD PTR [rax+8]
  0001d	66 0f 57 05 00
	00 00 00	 xorpd	 xmm0, QWORD PTR __mask@@NegDouble@
  00025	f2 0f 11 44 24
	20		 movsdx	 QWORD PTR s$[rsp], xmm0

; 204  :     s.imag = z.real;

  0002b	48 8b 84 24 98
	00 00 00	 mov	 rax, QWORD PTR z$[rsp]
  00033	f2 0f 10 00	 movsdx	 xmm0, QWORD PTR [rax]
  00037	f2 0f 11 44 24
	28		 movsdx	 QWORD PTR s$[rsp+8], xmm0

; 205  :     s = c_asinh(s);

  0003d	48 8d 44 24 50	 lea	 rax, QWORD PTR $T21262[rsp]
  00042	48 8d 4c 24 20	 lea	 rcx, QWORD PTR s$[rsp]
  00047	48 8b f8	 mov	 rdi, rax
  0004a	48 8b f1	 mov	 rsi, rcx
  0004d	b9 10 00 00 00	 mov	 ecx, 16
  00052	f3 a4		 rep movsb
  00054	48 8d 54 24 50	 lea	 rdx, QWORD PTR $T21262[rsp]
  00059	48 8d 4c 24 40	 lea	 rcx, QWORD PTR $T21261[rsp]
  0005e	e8 00 00 00 00	 call	 c_asinh
  00063	48 8d 4c 24 60	 lea	 rcx, QWORD PTR $T21263[rsp]
  00068	48 8b f9	 mov	 rdi, rcx
  0006b	48 8b f0	 mov	 rsi, rax
  0006e	b9 10 00 00 00	 mov	 ecx, 16
  00073	f3 a4		 rep movsb
  00075	48 8d 44 24 20	 lea	 rax, QWORD PTR s$[rsp]
  0007a	48 8d 4c 24 60	 lea	 rcx, QWORD PTR $T21263[rsp]
  0007f	48 8b f8	 mov	 rdi, rax
  00082	48 8b f1	 mov	 rsi, rcx
  00085	b9 10 00 00 00	 mov	 ecx, 16
  0008a	f3 a4		 rep movsb

; 206  :     r.real = s.imag;

  0008c	f2 0f 10 44 24
	28		 movsdx	 xmm0, QWORD PTR s$[rsp+8]
  00092	f2 0f 11 44 24
	30		 movsdx	 QWORD PTR r$[rsp], xmm0

; 207  :     r.imag = -s.real;

  00098	f2 0f 10 44 24
	20		 movsdx	 xmm0, QWORD PTR s$[rsp]
  0009e	66 0f 57 05 00
	00 00 00	 xorpd	 xmm0, QWORD PTR __mask@@NegDouble@
  000a6	f2 0f 11 44 24
	38		 movsdx	 QWORD PTR r$[rsp+8], xmm0

; 208  :     return r;

  000ac	48 8d 44 24 30	 lea	 rax, QWORD PTR r$[rsp]
  000b1	48 8b bc 24 90
	00 00 00	 mov	 rdi, QWORD PTR $T21260[rsp]
  000b9	48 8b f0	 mov	 rsi, rax
  000bc	b9 10 00 00 00	 mov	 ecx, 16
  000c1	f3 a4		 rep movsb
  000c3	48 8b 84 24 90
	00 00 00	 mov	 rax, QWORD PTR $T21260[rsp]

; 209  : }

  000cb	48 83 c4 78	 add	 rsp, 120		; 00000078H
  000cf	5f		 pop	 rdi
  000d0	5e		 pop	 rsi
  000d1	c3		 ret	 0
c_asin	ENDP
_TEXT	ENDS
PUBLIC	$T21275
PUBLIC	$T21274
PUBLIC	$T21276
PUBLIC	$T21273
_BSS	SEGMENT
asinh_special_values DB 0310H DUP (?)
_BSS	ENDS
;	COMDAT pdata
pdata	SEGMENT
$pdata$c_asinh DD imagerel c_asinh
	DD	imagerel c_asinh+966
	DD	imagerel $unwind$c_asinh
pdata	ENDS
;	COMDAT xdata
xdata	SEGMENT
$unwind$c_asinh DD 041301H
	DD	01b0113H
	DD	0600b700cH
; Function compile flags: /Odtp
xdata	ENDS
;	COMDAT c_asinh
_TEXT	SEGMENT
s2$ = 32
s1$ = 48
r$ = 64
$T21271 = 80
$T21272 = 96
$T21273 = 112
$T21274 = 128
$T21275 = 144
$T21276 = 160
tv76 = 176
tv131 = 184
tv137 = 192
$T21270 = 240
z$ = 248
c_asinh	PROC						; COMDAT

; 221  : {

  00000	48 89 54 24 10	 mov	 QWORD PTR [rsp+16], rdx
  00005	48 89 4c 24 08	 mov	 QWORD PTR [rsp+8], rcx
  0000a	56		 push	 rsi
  0000b	57		 push	 rdi
  0000c	48 81 ec d8 00
	00 00		 sub	 rsp, 216		; 000000d8H

; 222  :     Py_complex s1, s2, r;
; 223  : 
; 224  :     SPECIAL_VALUE(z, asinh_special_values);

  00013	48 8b 84 24 f8
	00 00 00	 mov	 rax, QWORD PTR z$[rsp]
  0001b	f2 0f 10 00	 movsdx	 xmm0, QWORD PTR [rax]
  0001f	ff 15 00 00 00
	00		 call	 QWORD PTR __imp__finite
  00025	85 c0		 test	 eax, eax
  00027	74 17		 je	 SHORT $LN6@c_asinh
  00029	48 8b 84 24 f8
	00 00 00	 mov	 rax, QWORD PTR z$[rsp]
  00031	f2 0f 10 40 08	 movsdx	 xmm0, QWORD PTR [rax+8]
  00036	ff 15 00 00 00
	00		 call	 QWORD PTR __imp__finite
  0003c	85 c0		 test	 eax, eax
  0003e	75 78		 jne	 SHORT $LN7@c_asinh
$LN6@c_asinh:
  00040	ff 15 00 00 00
	00		 call	 QWORD PTR __imp__errno
  00046	c7 00 00 00 00
	00		 mov	 DWORD PTR [rax], 0
  0004c	48 8b 84 24 f8
	00 00 00	 mov	 rax, QWORD PTR z$[rsp]
  00054	f2 0f 10 00	 movsdx	 xmm0, QWORD PTR [rax]
  00058	e8 00 00 00 00	 call	 special_type
  0005d	48 98		 cdqe
  0005f	48 6b c0 70	 imul	 rax, 112		; 00000070H
  00063	48 8d 0d 00 00
	00 00		 lea	 rcx, OFFSET FLAT:asinh_special_values
  0006a	48 03 c8	 add	 rcx, rax
  0006d	48 8b c1	 mov	 rax, rcx
  00070	48 89 84 24 b0
	00 00 00	 mov	 QWORD PTR tv76[rsp], rax
  00078	48 8b 8c 24 f8
	00 00 00	 mov	 rcx, QWORD PTR z$[rsp]
  00080	f2 0f 10 41 08	 movsdx	 xmm0, QWORD PTR [rcx+8]
  00085	e8 00 00 00 00	 call	 special_type
  0008a	48 98		 cdqe
  0008c	48 6b c0 10	 imul	 rax, 16
  00090	48 8b bc 24 f0
	00 00 00	 mov	 rdi, QWORD PTR $T21270[rsp]
  00098	48 8b 8c 24 b0
	00 00 00	 mov	 rcx, QWORD PTR tv76[rsp]
  000a0	48 8d 34 01	 lea	 rsi, QWORD PTR [rcx+rax]
  000a4	b9 10 00 00 00	 mov	 ecx, 16
  000a9	f3 a4		 rep movsb
  000ab	48 8b 84 24 f0
	00 00 00	 mov	 rax, QWORD PTR $T21270[rsp]
  000b3	e9 04 03 00 00	 jmp	 $LN8@c_asinh
$LN7@c_asinh:

; 225  : 
; 226  :     if (fabs(z.real) > CM_LARGE_DOUBLE || fabs(z.imag) > CM_LARGE_DOUBLE) {

  000b8	48 8b 84 24 f8
	00 00 00	 mov	 rax, QWORD PTR z$[rsp]
  000c0	f2 0f 10 00	 movsdx	 xmm0, QWORD PTR [rax]
  000c4	e8 00 00 00 00	 call	 fabs
  000c9	66 0f 2f 05 00
	00 00 00	 comisd	 xmm0, QWORD PTR __real@7fcfffffffffffff
  000d1	77 20		 ja	 SHORT $LN4@c_asinh
  000d3	48 8b 84 24 f8
	00 00 00	 mov	 rax, QWORD PTR z$[rsp]
  000db	f2 0f 10 40 08	 movsdx	 xmm0, QWORD PTR [rax+8]
  000e0	e8 00 00 00 00	 call	 fabs
  000e5	66 0f 2f 05 00
	00 00 00	 comisd	 xmm0, QWORD PTR __real@7fcfffffffffffff
  000ed	0f 86 2d 01 00
	00		 jbe	 $LN5@c_asinh
$LN4@c_asinh:

; 227  :         if (z.imag >= 0.) {

  000f3	48 8b 84 24 f8
	00 00 00	 mov	 rax, QWORD PTR z$[rsp]
  000fb	f2 0f 10 40 08	 movsdx	 xmm0, QWORD PTR [rax+8]
  00100	66 0f 2f 05 00
	00 00 00	 comisd	 xmm0, QWORD PTR __real@0000000000000000
  00108	72 6b		 jb	 SHORT $LN3@c_asinh

; 228  :             r.real = copysign(log(hypot(z.real/2., z.imag/2.)) +
; 229  :                               M_LN2*2., z.real);

  0010a	48 8b 84 24 f8
	00 00 00	 mov	 rax, QWORD PTR z$[rsp]
  00112	f2 0f 10 40 08	 movsdx	 xmm0, QWORD PTR [rax+8]
  00117	f2 0f 5e 05 00
	00 00 00	 divsd	 xmm0, QWORD PTR __real@4000000000000000
  0011f	48 8b 84 24 f8
	00 00 00	 mov	 rax, QWORD PTR z$[rsp]
  00127	f2 0f 10 08	 movsdx	 xmm1, QWORD PTR [rax]
  0012b	f2 0f 5e 0d 00
	00 00 00	 divsd	 xmm1, QWORD PTR __real@4000000000000000
  00133	f2 0f 11 8c 24
	b8 00 00 00	 movsdx	 QWORD PTR tv131[rsp], xmm1
  0013c	66 0f 28 c8	 movapd	 xmm1, xmm0
  00140	f2 0f 10 84 24
	b8 00 00 00	 movsdx	 xmm0, QWORD PTR tv131[rsp]
  00149	e8 00 00 00 00	 call	 hypot
  0014e	e8 00 00 00 00	 call	 log
  00153	f2 0f 58 05 00
	00 00 00	 addsd	 xmm0, QWORD PTR __real@3ff62e42fefa39ef
  0015b	48 8b 84 24 f8
	00 00 00	 mov	 rax, QWORD PTR z$[rsp]
  00163	f2 0f 10 08	 movsdx	 xmm1, QWORD PTR [rax]
  00167	ff 15 00 00 00
	00		 call	 QWORD PTR __imp__copysign
  0016d	f2 0f 11 44 24
	40		 movsdx	 QWORD PTR r$[rsp], xmm0

; 230  :         } else {

  00173	eb 79		 jmp	 SHORT $LN2@c_asinh
$LN3@c_asinh:

; 231  :             r.real = -copysign(log(hypot(z.real/2., z.imag/2.)) +
; 232  :                                M_LN2*2., -z.real);

  00175	48 8b 84 24 f8
	00 00 00	 mov	 rax, QWORD PTR z$[rsp]
  0017d	f2 0f 10 00	 movsdx	 xmm0, QWORD PTR [rax]
  00181	66 0f 57 05 00
	00 00 00	 xorpd	 xmm0, QWORD PTR __mask@@NegDouble@
  00189	f2 0f 11 84 24
	c0 00 00 00	 movsdx	 QWORD PTR tv137[rsp], xmm0
  00192	48 8b 84 24 f8
	00 00 00	 mov	 rax, QWORD PTR z$[rsp]
  0019a	f2 0f 10 48 08	 movsdx	 xmm1, QWORD PTR [rax+8]
  0019f	f2 0f 5e 0d 00
	00 00 00	 divsd	 xmm1, QWORD PTR __real@4000000000000000
  001a7	48 8b 84 24 f8
	00 00 00	 mov	 rax, QWORD PTR z$[rsp]
  001af	f2 0f 10 10	 movsdx	 xmm2, QWORD PTR [rax]
  001b3	f2 0f 5e 15 00
	00 00 00	 divsd	 xmm2, QWORD PTR __real@4000000000000000
  001bb	66 0f 28 c2	 movapd	 xmm0, xmm2
  001bf	e8 00 00 00 00	 call	 hypot
  001c4	e8 00 00 00 00	 call	 log
  001c9	f2 0f 58 05 00
	00 00 00	 addsd	 xmm0, QWORD PTR __real@3ff62e42fefa39ef
  001d1	f2 0f 10 8c 24
	c0 00 00 00	 movsdx	 xmm1, QWORD PTR tv137[rsp]
  001da	ff 15 00 00 00
	00		 call	 QWORD PTR __imp__copysign
  001e0	66 0f 57 05 00
	00 00 00	 xorpd	 xmm0, QWORD PTR __mask@@NegDouble@
  001e8	f2 0f 11 44 24
	40		 movsdx	 QWORD PTR r$[rsp], xmm0
$LN2@c_asinh:

; 233  :         }
; 234  :         r.imag = atan2(z.imag, fabs(z.real));

  001ee	48 8b 84 24 f8
	00 00 00	 mov	 rax, QWORD PTR z$[rsp]
  001f6	f2 0f 10 00	 movsdx	 xmm0, QWORD PTR [rax]
  001fa	e8 00 00 00 00	 call	 fabs
  001ff	66 0f 28 c8	 movapd	 xmm1, xmm0
  00203	48 8b 84 24 f8
	00 00 00	 mov	 rax, QWORD PTR z$[rsp]
  0020b	f2 0f 10 40 08	 movsdx	 xmm0, QWORD PTR [rax+8]
  00210	e8 00 00 00 00	 call	 atan2
  00215	f2 0f 11 44 24
	48		 movsdx	 QWORD PTR r$[rsp+8], xmm0

; 235  :     } else {

  0021b	e9 71 01 00 00	 jmp	 $LN1@c_asinh
$LN5@c_asinh:

; 236  :         s1.real = 1.+z.imag;

  00220	48 8b 84 24 f8
	00 00 00	 mov	 rax, QWORD PTR z$[rsp]
  00228	f2 0f 10 05 00
	00 00 00	 movsdx	 xmm0, QWORD PTR __real@3ff0000000000000
  00230	f2 0f 58 40 08	 addsd	 xmm0, QWORD PTR [rax+8]
  00235	f2 0f 11 44 24
	30		 movsdx	 QWORD PTR s1$[rsp], xmm0

; 237  :         s1.imag = -z.real;

  0023b	48 8b 84 24 f8
	00 00 00	 mov	 rax, QWORD PTR z$[rsp]
  00243	f2 0f 10 00	 movsdx	 xmm0, QWORD PTR [rax]
  00247	66 0f 57 05 00
	00 00 00	 xorpd	 xmm0, QWORD PTR __mask@@NegDouble@
  0024f	f2 0f 11 44 24
	38		 movsdx	 QWORD PTR s1$[rsp+8], xmm0

; 238  :         s1 = c_sqrt(s1);

  00255	48 8d 44 24 70	 lea	 rax, QWORD PTR $T21273[rsp]
  0025a	48 8d 4c 24 30	 lea	 rcx, QWORD PTR s1$[rsp]
  0025f	48 8b f8	 mov	 rdi, rax
  00262	48 8b f1	 mov	 rsi, rcx
  00265	b9 10 00 00 00	 mov	 ecx, 16
  0026a	f3 a4		 rep movsb
  0026c	48 8d 54 24 70	 lea	 rdx, QWORD PTR $T21273[rsp]
  00271	48 8d 4c 24 50	 lea	 rcx, QWORD PTR $T21271[rsp]
  00276	e8 00 00 00 00	 call	 c_sqrt
  0027b	48 8d 8c 24 a0
	00 00 00	 lea	 rcx, QWORD PTR $T21276[rsp]
  00283	48 8b f9	 mov	 rdi, rcx
  00286	48 8b f0	 mov	 rsi, rax
  00289	b9 10 00 00 00	 mov	 ecx, 16
  0028e	f3 a4		 rep movsb
  00290	48 8d 44 24 30	 lea	 rax, QWORD PTR s1$[rsp]
  00295	48 8d 8c 24 a0
	00 00 00	 lea	 rcx, QWORD PTR $T21276[rsp]
  0029d	48 8b f8	 mov	 rdi, rax
  002a0	48 8b f1	 mov	 rsi, rcx
  002a3	b9 10 00 00 00	 mov	 ecx, 16
  002a8	f3 a4		 rep movsb

; 239  :         s2.real = 1.-z.imag;

  002aa	48 8b 84 24 f8
	00 00 00	 mov	 rax, QWORD PTR z$[rsp]
  002b2	f2 0f 10 05 00
	00 00 00	 movsdx	 xmm0, QWORD PTR __real@3ff0000000000000
  002ba	f2 0f 5c 40 08	 subsd	 xmm0, QWORD PTR [rax+8]
  002bf	f2 0f 11 44 24
	20		 movsdx	 QWORD PTR s2$[rsp], xmm0

; 240  :         s2.imag = z.real;

  002c5	48 8b 84 24 f8
	00 00 00	 mov	 rax, QWORD PTR z$[rsp]
  002cd	f2 0f 10 00	 movsdx	 xmm0, QWORD PTR [rax]
  002d1	f2 0f 11 44 24
	28		 movsdx	 QWORD PTR s2$[rsp+8], xmm0

; 241  :         s2 = c_sqrt(s2);

  002d7	48 8d 84 24 80
	00 00 00	 lea	 rax, QWORD PTR $T21274[rsp]
  002df	48 8d 4c 24 20	 lea	 rcx, QWORD PTR s2$[rsp]
  002e4	48 8b f8	 mov	 rdi, rax
  002e7	48 8b f1	 mov	 rsi, rcx
  002ea	b9 10 00 00 00	 mov	 ecx, 16
  002ef	f3 a4		 rep movsb
  002f1	48 8d 94 24 80
	00 00 00	 lea	 rdx, QWORD PTR $T21274[rsp]
  002f9	48 8d 4c 24 60	 lea	 rcx, QWORD PTR $T21272[rsp]
  002fe	e8 00 00 00 00	 call	 c_sqrt
  00303	48 8d 8c 24 90
	00 00 00	 lea	 rcx, QWORD PTR $T21275[rsp]
  0030b	48 8b f9	 mov	 rdi, rcx
  0030e	48 8b f0	 mov	 rsi, rax
  00311	b9 10 00 00 00	 mov	 ecx, 16
  00316	f3 a4		 rep movsb
  00318	48 8d 44 24 20	 lea	 rax, QWORD PTR s2$[rsp]
  0031d	48 8d 8c 24 90
	00 00 00	 lea	 rcx, QWORD PTR $T21275[rsp]
  00325	48 8b f8	 mov	 rdi, rax
  00328	48 8b f1	 mov	 rsi, rcx
  0032b	b9 10 00 00 00	 mov	 ecx, 16
  00330	f3 a4		 rep movsb

; 242  :         r.real = m_asinh(s1.real*s2.imag-s2.real*s1.imag);

  00332	f2 0f 10 44 24
	30		 movsdx	 xmm0, QWORD PTR s1$[rsp]
  00338	f2 0f 59 44 24
	28		 mulsd	 xmm0, QWORD PTR s2$[rsp+8]
  0033e	f2 0f 10 4c 24
	20		 movsdx	 xmm1, QWORD PTR s2$[rsp]
  00344	f2 0f 59 4c 24
	38		 mulsd	 xmm1, QWORD PTR s1$[rsp+8]
  0034a	f2 0f 5c c1	 subsd	 xmm0, xmm1
  0034e	e8 00 00 00 00	 call	 _Py_asinh
  00353	f2 0f 11 44 24
	40		 movsdx	 QWORD PTR r$[rsp], xmm0

; 243  :         r.imag = atan2(z.imag, s1.real*s2.real-s1.imag*s2.imag);

  00359	f2 0f 10 44 24
	30		 movsdx	 xmm0, QWORD PTR s1$[rsp]
  0035f	f2 0f 59 44 24
	20		 mulsd	 xmm0, QWORD PTR s2$[rsp]
  00365	f2 0f 10 4c 24
	38		 movsdx	 xmm1, QWORD PTR s1$[rsp+8]
  0036b	f2 0f 59 4c 24
	28		 mulsd	 xmm1, QWORD PTR s2$[rsp+8]
  00371	f2 0f 5c c1	 subsd	 xmm0, xmm1
  00375	66 0f 28 c8	 movapd	 xmm1, xmm0
  00379	48 8b 84 24 f8
	00 00 00	 mov	 rax, QWORD PTR z$[rsp]
  00381	f2 0f 10 40 08	 movsdx	 xmm0, QWORD PTR [rax+8]
  00386	e8 00 00 00 00	 call	 atan2
  0038b	f2 0f 11 44 24
	48		 movsdx	 QWORD PTR r$[rsp+8], xmm0
$LN1@c_asinh:

; 244  :     }
; 245  :     errno = 0;

  00391	ff 15 00 00 00
	00		 call	 QWORD PTR __imp__errno
  00397	c7 00 00 00 00
	00		 mov	 DWORD PTR [rax], 0

; 246  :     return r;

  0039d	48 8d 44 24 40	 lea	 rax, QWORD PTR r$[rsp]
  003a2	48 8b bc 24 f0
	00 00 00	 mov	 rdi, QWORD PTR $T21270[rsp]
  003aa	48 8b f0	 mov	 rsi, rax
  003ad	b9 10 00 00 00	 mov	 ecx, 16
  003b2	f3 a4		 rep movsb
  003b4	48 8b 84 24 f0
	00 00 00	 mov	 rax, QWORD PTR $T21270[rsp]
$LN8@c_asinh:

; 247  : }

  003bc	48 81 c4 d8 00
	00 00		 add	 rsp, 216		; 000000d8H
  003c3	5f		 pop	 rdi
  003c4	5e		 pop	 rsi
  003c5	c3		 ret	 0
c_asinh	ENDP
_TEXT	ENDS
;	COMDAT pdata
pdata	SEGMENT
$pdata$cmath_asinh DD imagerel cmath_asinh
	DD	imagerel cmath_asinh+36
	DD	imagerel $unwind$cmath_asinh
pdata	ENDS
;	COMDAT xdata
xdata	SEGMENT
$unwind$cmath_asinh DD 010e01H
	DD	0420eH
; Function compile flags: /Odtp
xdata	ENDS
;	COMDAT cmath_asinh
_TEXT	SEGMENT
self$ = 48
args$ = 56
cmath_asinh PROC					; COMDAT

; 903  : FUNC1(cmath_asinh, c_asinh)

  00000	48 89 54 24 10	 mov	 QWORD PTR [rsp+16], rdx
  00005	48 89 4c 24 08	 mov	 QWORD PTR [rsp+8], rcx
  0000a	48 83 ec 28	 sub	 rsp, 40			; 00000028H
  0000e	48 8d 15 00 00
	00 00		 lea	 rdx, OFFSET FLAT:c_asinh
  00015	48 8b 4c 24 38	 mov	 rcx, QWORD PTR args$[rsp]
  0001a	e8 00 00 00 00	 call	 math_1
  0001f	48 83 c4 28	 add	 rsp, 40			; 00000028H
  00023	c3		 ret	 0
cmath_asinh ENDP
_TEXT	ENDS
;	COMDAT pdata
pdata	SEGMENT
$pdata$cmath_atan DD imagerel cmath_atan
	DD	imagerel cmath_atan+36
	DD	imagerel $unwind$cmath_atan
pdata	ENDS
;	COMDAT xdata
xdata	SEGMENT
$unwind$cmath_atan DD 010e01H
	DD	0420eH
; Function compile flags: /Odtp
xdata	ENDS
;	COMDAT cmath_atan
_TEXT	SEGMENT
self$ = 48
args$ = 56
cmath_atan PROC						; COMDAT

; 904  : FUNC1(cmath_atan, c_atan)

  00000	48 89 54 24 10	 mov	 QWORD PTR [rsp+16], rdx
  00005	48 89 4c 24 08	 mov	 QWORD PTR [rsp+8], rcx
  0000a	48 83 ec 28	 sub	 rsp, 40			; 00000028H
  0000e	48 8d 15 00 00
	00 00		 lea	 rdx, OFFSET FLAT:c_atan
  00015	48 8b 4c 24 38	 mov	 rcx, QWORD PTR args$[rsp]
  0001a	e8 00 00 00 00	 call	 math_1
  0001f	48 83 c4 28	 add	 rsp, 40			; 00000028H
  00023	c3		 ret	 0
cmath_atan ENDP
_TEXT	ENDS
PUBLIC	$T21298
PUBLIC	$T21297
;	COMDAT pdata
pdata	SEGMENT
$pdata$c_atan DD imagerel c_atan
	DD	imagerel c_atan+210
	DD	imagerel $unwind$c_atan
pdata	ENDS
;	COMDAT xdata
xdata	SEGMENT
$unwind$c_atan DD 031001H
	DD	0700ce210H
	DD	0600bH
; Function compile flags: /Odtp
xdata	ENDS
;	COMDAT c_atan
_TEXT	SEGMENT
s$ = 32
r$ = 48
$T21296 = 64
$T21297 = 80
$T21298 = 96
$T21295 = 144
z$ = 152
c_atan	PROC						; COMDAT

; 257  : {

  00000	48 89 54 24 10	 mov	 QWORD PTR [rsp+16], rdx
  00005	48 89 4c 24 08	 mov	 QWORD PTR [rsp+8], rcx
  0000a	56		 push	 rsi
  0000b	57		 push	 rdi
  0000c	48 83 ec 78	 sub	 rsp, 120		; 00000078H

; 258  :     /* atan(z) = -i atanh(iz) */
; 259  :     Py_complex s, r;
; 260  :     s.real = -z.imag;

  00010	48 8b 84 24 98
	00 00 00	 mov	 rax, QWORD PTR z$[rsp]
  00018	f2 0f 10 40 08	 movsdx	 xmm0, QWORD PTR [rax+8]
  0001d	66 0f 57 05 00
	00 00 00	 xorpd	 xmm0, QWORD PTR __mask@@NegDouble@
  00025	f2 0f 11 44 24
	20		 movsdx	 QWORD PTR s$[rsp], xmm0

; 261  :     s.imag = z.real;

  0002b	48 8b 84 24 98
	00 00 00	 mov	 rax, QWORD PTR z$[rsp]
  00033	f2 0f 10 00	 movsdx	 xmm0, QWORD PTR [rax]
  00037	f2 0f 11 44 24
	28		 movsdx	 QWORD PTR s$[rsp+8], xmm0

; 262  :     s = c_atanh(s);

  0003d	48 8d 44 24 50	 lea	 rax, QWORD PTR $T21297[rsp]
  00042	48 8d 4c 24 20	 lea	 rcx, QWORD PTR s$[rsp]
  00047	48 8b f8	 mov	 rdi, rax
  0004a	48 8b f1	 mov	 rsi, rcx
  0004d	b9 10 00 00 00	 mov	 ecx, 16
  00052	f3 a4		 rep movsb
  00054	48 8d 54 24 50	 lea	 rdx, QWORD PTR $T21297[rsp]
  00059	48 8d 4c 24 40	 lea	 rcx, QWORD PTR $T21296[rsp]
  0005e	e8 00 00 00 00	 call	 c_atanh
  00063	48 8d 4c 24 60	 lea	 rcx, QWORD PTR $T21298[rsp]
  00068	48 8b f9	 mov	 rdi, rcx
  0006b	48 8b f0	 mov	 rsi, rax
  0006e	b9 10 00 00 00	 mov	 ecx, 16
  00073	f3 a4		 rep movsb
  00075	48 8d 44 24 20	 lea	 rax, QWORD PTR s$[rsp]
  0007a	48 8d 4c 24 60	 lea	 rcx, QWORD PTR $T21298[rsp]
  0007f	48 8b f8	 mov	 rdi, rax
  00082	48 8b f1	 mov	 rsi, rcx
  00085	b9 10 00 00 00	 mov	 ecx, 16
  0008a	f3 a4		 rep movsb

; 263  :     r.real = s.imag;

  0008c	f2 0f 10 44 24
	28		 movsdx	 xmm0, QWORD PTR s$[rsp+8]
  00092	f2 0f 11 44 24
	30		 movsdx	 QWORD PTR r$[rsp], xmm0

; 264  :     r.imag = -s.real;

  00098	f2 0f 10 44 24
	20		 movsdx	 xmm0, QWORD PTR s$[rsp]
  0009e	66 0f 57 05 00
	00 00 00	 xorpd	 xmm0, QWORD PTR __mask@@NegDouble@
  000a6	f2 0f 11 44 24
	38		 movsdx	 QWORD PTR r$[rsp+8], xmm0

; 265  :     return r;

  000ac	48 8d 44 24 30	 lea	 rax, QWORD PTR r$[rsp]
  000b1	48 8b bc 24 90
	00 00 00	 mov	 rdi, QWORD PTR $T21295[rsp]
  000b9	48 8b f0	 mov	 rsi, rax
  000bc	b9 10 00 00 00	 mov	 ecx, 16
  000c1	f3 a4		 rep movsb
  000c3	48 8b 84 24 90
	00 00 00	 mov	 rax, QWORD PTR $T21295[rsp]

; 266  : }

  000cb	48 83 c4 78	 add	 rsp, 120		; 00000078H
  000cf	5f		 pop	 rdi
  000d0	5e		 pop	 rsi
  000d1	c3		 ret	 0
c_atan	ENDP
_TEXT	ENDS
PUBLIC	__real@c000000000000000
PUBLIC	__real@3ff921fb54442d18
PUBLIC	__real@4010000000000000
PUBLIC	$T21311
PUBLIC	$T21310
PUBLIC	$T21309
EXTRN	_Py_c_neg:PROC
_BSS	SEGMENT
atanh_special_values DB 0310H DUP (?)
_BSS	ENDS
;	COMDAT pdata
pdata	SEGMENT
$pdata$c_atanh DD imagerel c_atanh
	DD	imagerel c_atanh+1194
	DD	imagerel $unwind$c_atanh
pdata	ENDS
;	COMDAT xdata
xdata	SEGMENT
$unwind$c_atanh DD 041301H
	DD	0190113H
	DD	0600b700cH
xdata	ENDS
;	COMDAT __real@c000000000000000
CONST	SEGMENT
__real@c000000000000000 DQ 0c000000000000000r	; -2
CONST	ENDS
;	COMDAT __real@3ff921fb54442d18
CONST	SEGMENT
__real@3ff921fb54442d18 DQ 03ff921fb54442d18r	; 1.5708
CONST	ENDS
;	COMDAT __real@4010000000000000
CONST	SEGMENT
__real@4010000000000000 DQ 04010000000000000r	; 4
; Function compile flags: /Odtp
CONST	ENDS
;	COMDAT c_atanh
_TEXT	SEGMENT
h$ = 32
ay$ = 40
r$ = 48
$T21306 = 64
$T21307 = 80
$T21308 = 96
$T21309 = 112
$T21310 = 128
$T21311 = 144
tv76 = 160
tv140 = 168
tv161 = 176
tv204 = 184
$T21305 = 224
z$ = 232
c_atanh	PROC						; COMDAT

; 308  : {

  00000	48 89 54 24 10	 mov	 QWORD PTR [rsp+16], rdx
  00005	48 89 4c 24 08	 mov	 QWORD PTR [rsp+8], rcx
  0000a	56		 push	 rsi
  0000b	57		 push	 rdi
  0000c	48 81 ec c8 00
	00 00		 sub	 rsp, 200		; 000000c8H

; 309  :     Py_complex r;
; 310  :     double ay, h;
; 311  : 
; 312  :     SPECIAL_VALUE(z, atanh_special_values);

  00013	48 8b 84 24 e8
	00 00 00	 mov	 rax, QWORD PTR z$[rsp]
  0001b	f2 0f 10 00	 movsdx	 xmm0, QWORD PTR [rax]
  0001f	ff 15 00 00 00
	00		 call	 QWORD PTR __imp__finite
  00025	85 c0		 test	 eax, eax
  00027	74 17		 je	 SHORT $LN9@c_atanh
  00029	48 8b 84 24 e8
	00 00 00	 mov	 rax, QWORD PTR z$[rsp]
  00031	f2 0f 10 40 08	 movsdx	 xmm0, QWORD PTR [rax+8]
  00036	ff 15 00 00 00
	00		 call	 QWORD PTR __imp__finite
  0003c	85 c0		 test	 eax, eax
  0003e	75 78		 jne	 SHORT $LN10@c_atanh
$LN9@c_atanh:
  00040	ff 15 00 00 00
	00		 call	 QWORD PTR __imp__errno
  00046	c7 00 00 00 00
	00		 mov	 DWORD PTR [rax], 0
  0004c	48 8b 84 24 e8
	00 00 00	 mov	 rax, QWORD PTR z$[rsp]
  00054	f2 0f 10 00	 movsdx	 xmm0, QWORD PTR [rax]
  00058	e8 00 00 00 00	 call	 special_type
  0005d	48 98		 cdqe
  0005f	48 6b c0 70	 imul	 rax, 112		; 00000070H
  00063	48 8d 0d 00 00
	00 00		 lea	 rcx, OFFSET FLAT:atanh_special_values
  0006a	48 03 c8	 add	 rcx, rax
  0006d	48 8b c1	 mov	 rax, rcx
  00070	48 89 84 24 a0
	00 00 00	 mov	 QWORD PTR tv76[rsp], rax
  00078	48 8b 8c 24 e8
	00 00 00	 mov	 rcx, QWORD PTR z$[rsp]
  00080	f2 0f 10 41 08	 movsdx	 xmm0, QWORD PTR [rcx+8]
  00085	e8 00 00 00 00	 call	 special_type
  0008a	48 98		 cdqe
  0008c	48 6b c0 10	 imul	 rax, 16
  00090	48 8b bc 24 e0
	00 00 00	 mov	 rdi, QWORD PTR $T21305[rsp]
  00098	48 8b 8c 24 a0
	00 00 00	 mov	 rcx, QWORD PTR tv76[rsp]
  000a0	48 8d 34 01	 lea	 rsi, QWORD PTR [rcx+rax]
  000a4	b9 10 00 00 00	 mov	 ecx, 16
  000a9	f3 a4		 rep movsb
  000ab	48 8b 84 24 e0
	00 00 00	 mov	 rax, QWORD PTR $T21305[rsp]
  000b3	e9 e8 03 00 00	 jmp	 $LN11@c_atanh
$LN10@c_atanh:

; 313  : 
; 314  :     /* Reduce to case where z.real >= 0., using atanh(z) = -atanh(-z). */
; 315  :     if (z.real < 0.) {

  000b8	48 8b 84 24 e8
	00 00 00	 mov	 rax, QWORD PTR z$[rsp]
  000c0	66 0f 57 c0	 xorpd	 xmm0, xmm0
  000c4	66 0f 2f 00	 comisd	 xmm0, QWORD PTR [rax]
  000c8	0f 86 93 00 00
	00		 jbe	 $LN8@c_atanh

; 316  :         return c_neg(c_atanh(c_neg(z)));

  000ce	48 8d 44 24 70	 lea	 rax, QWORD PTR $T21309[rsp]
  000d3	48 8b f8	 mov	 rdi, rax
  000d6	48 8b b4 24 e8
	00 00 00	 mov	 rsi, QWORD PTR z$[rsp]
  000de	b9 10 00 00 00	 mov	 ecx, 16
  000e3	f3 a4		 rep movsb
  000e5	48 8d 54 24 70	 lea	 rdx, QWORD PTR $T21309[rsp]
  000ea	48 8d 4c 24 40	 lea	 rcx, QWORD PTR $T21306[rsp]
  000ef	e8 00 00 00 00	 call	 _Py_c_neg
  000f4	48 8d 8c 24 80
	00 00 00	 lea	 rcx, QWORD PTR $T21310[rsp]
  000fc	48 8b f9	 mov	 rdi, rcx
  000ff	48 8b f0	 mov	 rsi, rax
  00102	b9 10 00 00 00	 mov	 ecx, 16
  00107	f3 a4		 rep movsb
  00109	48 8d 94 24 80
	00 00 00	 lea	 rdx, QWORD PTR $T21310[rsp]
  00111	48 8d 4c 24 50	 lea	 rcx, QWORD PTR $T21307[rsp]
  00116	e8 00 00 00 00	 call	 c_atanh
  0011b	48 8d 8c 24 90
	00 00 00	 lea	 rcx, QWORD PTR $T21311[rsp]
  00123	48 8b f9	 mov	 rdi, rcx
  00126	48 8b f0	 mov	 rsi, rax
  00129	b9 10 00 00 00	 mov	 ecx, 16
  0012e	f3 a4		 rep movsb
  00130	48 8d 94 24 90
	00 00 00	 lea	 rdx, QWORD PTR $T21311[rsp]
  00138	48 8d 4c 24 60	 lea	 rcx, QWORD PTR $T21308[rsp]
  0013d	e8 00 00 00 00	 call	 _Py_c_neg
  00142	48 8b bc 24 e0
	00 00 00	 mov	 rdi, QWORD PTR $T21305[rsp]
  0014a	48 8b f0	 mov	 rsi, rax
  0014d	b9 10 00 00 00	 mov	 ecx, 16
  00152	f3 a4		 rep movsb
  00154	48 8b 84 24 e0
	00 00 00	 mov	 rax, QWORD PTR $T21305[rsp]
  0015c	e9 3f 03 00 00	 jmp	 $LN11@c_atanh
$LN8@c_atanh:

; 317  :     }
; 318  : 
; 319  :     ay = fabs(z.imag);

  00161	48 8b 84 24 e8
	00 00 00	 mov	 rax, QWORD PTR z$[rsp]
  00169	f2 0f 10 40 08	 movsdx	 xmm0, QWORD PTR [rax+8]
  0016e	e8 00 00 00 00	 call	 fabs
  00173	f2 0f 11 44 24
	28		 movsdx	 QWORD PTR ay$[rsp], xmm0

; 320  :     if (z.real > CM_SQRT_LARGE_DOUBLE || ay > CM_SQRT_LARGE_DOUBLE) {

  00179	f2 0f 10 05 00
	00 00 00	 movsdx	 xmm0, QWORD PTR __real@7fcfffffffffffff
  00181	e8 00 00 00 00	 call	 sqrt
  00186	48 8b 84 24 e8
	00 00 00	 mov	 rax, QWORD PTR z$[rsp]
  0018e	f2 0f 10 08	 movsdx	 xmm1, QWORD PTR [rax]
  00192	66 0f 2f c8	 comisd	 xmm1, xmm0
  00196	77 1d		 ja	 SHORT $LN6@c_atanh
  00198	f2 0f 10 05 00
	00 00 00	 movsdx	 xmm0, QWORD PTR __real@7fcfffffffffffff
  001a0	e8 00 00 00 00	 call	 sqrt
  001a5	f2 0f 10 4c 24
	28		 movsdx	 xmm1, QWORD PTR ay$[rsp]
  001ab	66 0f 2f c8	 comisd	 xmm1, xmm0
  001af	0f 86 b6 00 00
	00		 jbe	 $LN7@c_atanh
$LN6@c_atanh:

; 321  :         /*
; 322  :            if abs(z) is large then we use the approximation
; 323  :            atanh(z) ~ 1/z +/- i*pi/2 (+/- depending on the sign
; 324  :            of z.imag)
; 325  :         */
; 326  :         h = hypot(z.real/2., z.imag/2.);  /* safe from overflow */

  001b5	48 8b 84 24 e8
	00 00 00	 mov	 rax, QWORD PTR z$[rsp]
  001bd	f2 0f 10 40 08	 movsdx	 xmm0, QWORD PTR [rax+8]
  001c2	f2 0f 5e 05 00
	00 00 00	 divsd	 xmm0, QWORD PTR __real@4000000000000000
  001ca	48 8b 84 24 e8
	00 00 00	 mov	 rax, QWORD PTR z$[rsp]
  001d2	f2 0f 10 08	 movsdx	 xmm1, QWORD PTR [rax]
  001d6	f2 0f 5e 0d 00
	00 00 00	 divsd	 xmm1, QWORD PTR __real@4000000000000000
  001de	f2 0f 11 8c 24
	a8 00 00 00	 movsdx	 QWORD PTR tv140[rsp], xmm1
  001e7	66 0f 28 c8	 movapd	 xmm1, xmm0
  001eb	f2 0f 10 84 24
	a8 00 00 00	 movsdx	 xmm0, QWORD PTR tv140[rsp]
  001f4	e8 00 00 00 00	 call	 hypot
  001f9	f2 0f 11 44 24
	20		 movsdx	 QWORD PTR h$[rsp], xmm0

; 327  :         r.real = z.real/4./h/h;

  001ff	48 8b 84 24 e8
	00 00 00	 mov	 rax, QWORD PTR z$[rsp]
  00207	f2 0f 10 00	 movsdx	 xmm0, QWORD PTR [rax]
  0020b	f2 0f 5e 05 00
	00 00 00	 divsd	 xmm0, QWORD PTR __real@4010000000000000
  00213	f2 0f 5e 44 24
	20		 divsd	 xmm0, QWORD PTR h$[rsp]
  00219	f2 0f 5e 44 24
	20		 divsd	 xmm0, QWORD PTR h$[rsp]
  0021f	f2 0f 11 44 24
	30		 movsdx	 QWORD PTR r$[rsp], xmm0

; 328  :         /* the two negations in the next line cancel each other out
; 329  :            except when working with unsigned zeros: they're there to
; 330  :            ensure that the branch cut has the correct continuity on
; 331  :            systems that don't support signed zeros */
; 332  :         r.imag = -copysign(Py_MATH_PI/2., -z.imag);

  00225	48 8b 84 24 e8
	00 00 00	 mov	 rax, QWORD PTR z$[rsp]
  0022d	f2 0f 10 40 08	 movsdx	 xmm0, QWORD PTR [rax+8]
  00232	66 0f 57 05 00
	00 00 00	 xorpd	 xmm0, QWORD PTR __mask@@NegDouble@
  0023a	66 0f 28 c8	 movapd	 xmm1, xmm0
  0023e	f2 0f 10 05 00
	00 00 00	 movsdx	 xmm0, QWORD PTR __real@3ff921fb54442d18
  00246	ff 15 00 00 00
	00		 call	 QWORD PTR __imp__copysign
  0024c	66 0f 57 05 00
	00 00 00	 xorpd	 xmm0, QWORD PTR __mask@@NegDouble@
  00254	f2 0f 11 44 24
	38		 movsdx	 QWORD PTR r$[rsp+8], xmm0

; 333  :         errno = 0;

  0025a	ff 15 00 00 00
	00		 call	 QWORD PTR __imp__errno
  00260	c7 00 00 00 00
	00		 mov	 DWORD PTR [rax], 0
  00266	e9 16 02 00 00	 jmp	 $LN5@c_atanh
$LN7@c_atanh:

; 334  :     } else if (z.real == 1. && ay < CM_SQRT_DBL_MIN) {

  0026b	48 8b 84 24 e8
	00 00 00	 mov	 rax, QWORD PTR z$[rsp]
  00273	f2 0f 10 00	 movsdx	 xmm0, QWORD PTR [rax]
  00277	66 0f 2e 05 00
	00 00 00	 ucomisd xmm0, QWORD PTR __real@3ff0000000000000
  0027f	0f 8a 07 01 00
	00		 jp	 $LN4@c_atanh
  00285	0f 85 01 01 00
	00		 jne	 $LN4@c_atanh
  0028b	f2 0f 10 05 00
	00 00 00	 movsdx	 xmm0, QWORD PTR __real@0010000000000000
  00293	e8 00 00 00 00	 call	 sqrt
  00298	66 0f 2f 44 24
	28		 comisd	 xmm0, QWORD PTR ay$[rsp]
  0029e	0f 86 e8 00 00
	00		 jbe	 $LN4@c_atanh

; 335  :         /* C99 standard says:  atanh(1+/-0.) should be inf +/- 0i */
; 336  :         if (ay == 0.) {

  002a4	f2 0f 10 44 24
	28		 movsdx	 xmm0, QWORD PTR ay$[rsp]
  002aa	66 0f 2e 05 00
	00 00 00	 ucomisd xmm0, QWORD PTR __real@0000000000000000
  002b2	7a 37		 jp	 SHORT $LN3@c_atanh
  002b4	75 35		 jne	 SHORT $LN3@c_atanh

; 337  :             r.real = INF;

  002b6	48 8b 05 00 00
	00 00		 mov	 rax, QWORD PTR __imp__HUGE
  002bd	f2 0f 10 00	 movsdx	 xmm0, QWORD PTR [rax]
  002c1	f2 0f 11 44 24
	30		 movsdx	 QWORD PTR r$[rsp], xmm0

; 338  :             r.imag = z.imag;

  002c7	48 8b 84 24 e8
	00 00 00	 mov	 rax, QWORD PTR z$[rsp]
  002cf	f2 0f 10 40 08	 movsdx	 xmm0, QWORD PTR [rax+8]
  002d4	f2 0f 11 44 24
	38		 movsdx	 QWORD PTR r$[rsp+8], xmm0

; 339  :             errno = EDOM;

  002da	ff 15 00 00 00
	00		 call	 QWORD PTR __imp__errno
  002e0	c7 00 21 00 00
	00		 mov	 DWORD PTR [rax], 33	; 00000021H

; 340  :         } else {

  002e6	e9 9c 00 00 00	 jmp	 $LN2@c_atanh
$LN3@c_atanh:

; 341  :             r.real = -log(sqrt(ay)/sqrt(hypot(ay, 2.)));

  002eb	f2 0f 10 44 24
	28		 movsdx	 xmm0, QWORD PTR ay$[rsp]
  002f1	e8 00 00 00 00	 call	 sqrt
  002f6	f2 0f 11 84 24
	b0 00 00 00	 movsdx	 QWORD PTR tv161[rsp], xmm0
  002ff	f2 0f 10 0d 00
	00 00 00	 movsdx	 xmm1, QWORD PTR __real@4000000000000000
  00307	f2 0f 10 44 24
	28		 movsdx	 xmm0, QWORD PTR ay$[rsp]
  0030d	e8 00 00 00 00	 call	 hypot
  00312	e8 00 00 00 00	 call	 sqrt
  00317	f2 0f 10 8c 24
	b0 00 00 00	 movsdx	 xmm1, QWORD PTR tv161[rsp]
  00320	f2 0f 5e c8	 divsd	 xmm1, xmm0
  00324	66 0f 28 c1	 movapd	 xmm0, xmm1
  00328	e8 00 00 00 00	 call	 log
  0032d	66 0f 57 05 00
	00 00 00	 xorpd	 xmm0, QWORD PTR __mask@@NegDouble@
  00335	f2 0f 11 44 24
	30		 movsdx	 QWORD PTR r$[rsp], xmm0

; 342  :             r.imag = copysign(atan2(2., -ay)/2, z.imag);

  0033b	f2 0f 10 44 24
	28		 movsdx	 xmm0, QWORD PTR ay$[rsp]
  00341	66 0f 57 05 00
	00 00 00	 xorpd	 xmm0, QWORD PTR __mask@@NegDouble@
  00349	66 0f 28 c8	 movapd	 xmm1, xmm0
  0034d	f2 0f 10 05 00
	00 00 00	 movsdx	 xmm0, QWORD PTR __real@4000000000000000
  00355	e8 00 00 00 00	 call	 atan2
  0035a	f2 0f 5e 05 00
	00 00 00	 divsd	 xmm0, QWORD PTR __real@4000000000000000
  00362	48 8b 84 24 e8
	00 00 00	 mov	 rax, QWORD PTR z$[rsp]
  0036a	f2 0f 10 48 08	 movsdx	 xmm1, QWORD PTR [rax+8]
  0036f	ff 15 00 00 00
	00		 call	 QWORD PTR __imp__copysign
  00375	f2 0f 11 44 24
	38		 movsdx	 QWORD PTR r$[rsp+8], xmm0

; 343  :             errno = 0;

  0037b	ff 15 00 00 00
	00		 call	 QWORD PTR __imp__errno
  00381	c7 00 00 00 00
	00		 mov	 DWORD PTR [rax], 0
$LN2@c_atanh:

; 344  :         }
; 345  :     } else {

  00387	e9 f5 00 00 00	 jmp	 $LN1@c_atanh
$LN4@c_atanh:

; 346  :         r.real = m_log1p(4.*z.real/((1-z.real)*(1-z.real) + ay*ay))/4.;

  0038c	48 8b 84 24 e8
	00 00 00	 mov	 rax, QWORD PTR z$[rsp]
  00394	f2 0f 10 05 00
	00 00 00	 movsdx	 xmm0, QWORD PTR __real@4010000000000000
  0039c	f2 0f 59 00	 mulsd	 xmm0, QWORD PTR [rax]
  003a0	48 8b 84 24 e8
	00 00 00	 mov	 rax, QWORD PTR z$[rsp]
  003a8	f2 0f 10 0d 00
	00 00 00	 movsdx	 xmm1, QWORD PTR __real@3ff0000000000000
  003b0	f2 0f 5c 08	 subsd	 xmm1, QWORD PTR [rax]
  003b4	48 8b 84 24 e8
	00 00 00	 mov	 rax, QWORD PTR z$[rsp]
  003bc	f2 0f 10 15 00
	00 00 00	 movsdx	 xmm2, QWORD PTR __real@3ff0000000000000
  003c4	f2 0f 5c 10	 subsd	 xmm2, QWORD PTR [rax]
  003c8	f2 0f 59 ca	 mulsd	 xmm1, xmm2
  003cc	f2 0f 10 54 24
	28		 movsdx	 xmm2, QWORD PTR ay$[rsp]
  003d2	f2 0f 59 54 24
	28		 mulsd	 xmm2, QWORD PTR ay$[rsp]
  003d8	f2 0f 58 ca	 addsd	 xmm1, xmm2
  003dc	f2 0f 5e c1	 divsd	 xmm0, xmm1
  003e0	e8 00 00 00 00	 call	 _Py_log1p
  003e5	f2 0f 5e 05 00
	00 00 00	 divsd	 xmm0, QWORD PTR __real@4010000000000000
  003ed	f2 0f 11 44 24
	30		 movsdx	 QWORD PTR r$[rsp], xmm0

; 347  :         r.imag = -atan2(-2.*z.imag, (1-z.real)*(1+z.real) - ay*ay)/2.;

  003f3	48 8b 84 24 e8
	00 00 00	 mov	 rax, QWORD PTR z$[rsp]
  003fb	f2 0f 10 05 00
	00 00 00	 movsdx	 xmm0, QWORD PTR __real@3ff0000000000000
  00403	f2 0f 5c 00	 subsd	 xmm0, QWORD PTR [rax]
  00407	48 8b 84 24 e8
	00 00 00	 mov	 rax, QWORD PTR z$[rsp]
  0040f	f2 0f 10 0d 00
	00 00 00	 movsdx	 xmm1, QWORD PTR __real@3ff0000000000000
  00417	f2 0f 58 08	 addsd	 xmm1, QWORD PTR [rax]
  0041b	f2 0f 59 c1	 mulsd	 xmm0, xmm1
  0041f	f2 0f 10 4c 24
	28		 movsdx	 xmm1, QWORD PTR ay$[rsp]
  00425	f2 0f 59 4c 24
	28		 mulsd	 xmm1, QWORD PTR ay$[rsp]
  0042b	f2 0f 5c c1	 subsd	 xmm0, xmm1
  0042f	48 8b 84 24 e8
	00 00 00	 mov	 rax, QWORD PTR z$[rsp]
  00437	f2 0f 10 0d 00
	00 00 00	 movsdx	 xmm1, QWORD PTR __real@c000000000000000
  0043f	f2 0f 59 48 08	 mulsd	 xmm1, QWORD PTR [rax+8]
  00444	f2 0f 11 8c 24
	b8 00 00 00	 movsdx	 QWORD PTR tv204[rsp], xmm1
  0044d	66 0f 28 c8	 movapd	 xmm1, xmm0
  00451	f2 0f 10 84 24
	b8 00 00 00	 movsdx	 xmm0, QWORD PTR tv204[rsp]
  0045a	e8 00 00 00 00	 call	 atan2
  0045f	66 0f 57 05 00
	00 00 00	 xorpd	 xmm0, QWORD PTR __mask@@NegDouble@
  00467	f2 0f 5e 05 00
	00 00 00	 divsd	 xmm0, QWORD PTR __real@4000000000000000
  0046f	f2 0f 11 44 24
	38		 movsdx	 QWORD PTR r$[rsp+8], xmm0

; 348  :         errno = 0;

  00475	ff 15 00 00 00
	00		 call	 QWORD PTR __imp__errno
  0047b	c7 00 00 00 00
	00		 mov	 DWORD PTR [rax], 0
$LN1@c_atanh:
$LN5@c_atanh:

; 349  :     }
; 350  :     return r;

  00481	48 8d 44 24 30	 lea	 rax, QWORD PTR r$[rsp]
  00486	48 8b bc 24 e0
	00 00 00	 mov	 rdi, QWORD PTR $T21305[rsp]
  0048e	48 8b f0	 mov	 rsi, rax
  00491	b9 10 00 00 00	 mov	 ecx, 16
  00496	f3 a4		 rep movsb
  00498	48 8b 84 24 e0
	00 00 00	 mov	 rax, QWORD PTR $T21305[rsp]
$LN11@c_atanh:

; 351  : }

  004a0	48 81 c4 c8 00
	00 00		 add	 rsp, 200		; 000000c8H
  004a7	5f		 pop	 rdi
  004a8	5e		 pop	 rsi
  004a9	c3		 ret	 0
c_atanh	ENDP
_TEXT	ENDS
;	COMDAT pdata
pdata	SEGMENT
$pdata$cmath_atanh DD imagerel cmath_atanh
	DD	imagerel cmath_atanh+36
	DD	imagerel $unwind$cmath_atanh
pdata	ENDS
;	COMDAT xdata
xdata	SEGMENT
$unwind$cmath_atanh DD 010e01H
	DD	0420eH
; Function compile flags: /Odtp
xdata	ENDS
;	COMDAT cmath_atanh
_TEXT	SEGMENT
self$ = 48
args$ = 56
cmath_atanh PROC					; COMDAT

; 905  : FUNC1(cmath_atanh, c_atanh)

  00000	48 89 54 24 10	 mov	 QWORD PTR [rsp+16], rdx
  00005	48 89 4c 24 08	 mov	 QWORD PTR [rsp+8], rcx
  0000a	48 83 ec 28	 sub	 rsp, 40			; 00000028H
  0000e	48 8d 15 00 00
	00 00		 lea	 rdx, OFFSET FLAT:c_atanh
  00015	48 8b 4c 24 38	 mov	 rcx, QWORD PTR args$[rsp]
  0001a	e8 00 00 00 00	 call	 math_1
  0001f	48 83 c4 28	 add	 rsp, 40			; 00000028H
  00023	c3		 ret	 0
cmath_atanh ENDP
_TEXT	ENDS
;	COMDAT pdata
pdata	SEGMENT
$pdata$cmath_cos DD imagerel cmath_cos
	DD	imagerel cmath_cos+36
	DD	imagerel $unwind$cmath_cos
pdata	ENDS
;	COMDAT xdata
xdata	SEGMENT
$unwind$cmath_cos DD 010e01H
	DD	0420eH
; Function compile flags: /Odtp
xdata	ENDS
;	COMDAT cmath_cos
_TEXT	SEGMENT
self$ = 48
args$ = 56
cmath_cos PROC						; COMDAT

; 906  : FUNC1(cmath_cos, c_cos)

  00000	48 89 54 24 10	 mov	 QWORD PTR [rsp+16], rdx
  00005	48 89 4c 24 08	 mov	 QWORD PTR [rsp+8], rcx
  0000a	48 83 ec 28	 sub	 rsp, 40			; 00000028H
  0000e	48 8d 15 00 00
	00 00		 lea	 rdx, OFFSET FLAT:c_cos
  00015	48 8b 4c 24 38	 mov	 rcx, QWORD PTR args$[rsp]
  0001a	e8 00 00 00 00	 call	 math_1
  0001f	48 83 c4 28	 add	 rsp, 40			; 00000028H
  00023	c3		 ret	 0
cmath_cos ENDP
_TEXT	ENDS
PUBLIC	$T21339
PUBLIC	$T21338
;	COMDAT pdata
pdata	SEGMENT
$pdata$c_cos DD	imagerel c_cos
	DD	imagerel c_cos+178
	DD	imagerel $unwind$c_cos
pdata	ENDS
;	COMDAT xdata
xdata	SEGMENT
$unwind$c_cos DD 031001H
	DD	0700cc210H
	DD	0600bH
; Function compile flags: /Odtp
xdata	ENDS
;	COMDAT c_cos
_TEXT	SEGMENT
r$ = 32
$T21337 = 48
$T21338 = 64
$T21339 = 80
$T21336 = 128
z$ = 136
c_cos	PROC						; COMDAT

; 361  : {

  00000	48 89 54 24 10	 mov	 QWORD PTR [rsp+16], rdx
  00005	48 89 4c 24 08	 mov	 QWORD PTR [rsp+8], rcx
  0000a	56		 push	 rsi
  0000b	57		 push	 rdi
  0000c	48 83 ec 68	 sub	 rsp, 104		; 00000068H

; 362  :     /* cos(z) = cosh(iz) */
; 363  :     Py_complex r;
; 364  :     r.real = -z.imag;

  00010	48 8b 84 24 88
	00 00 00	 mov	 rax, QWORD PTR z$[rsp]
  00018	f2 0f 10 40 08	 movsdx	 xmm0, QWORD PTR [rax+8]
  0001d	66 0f 57 05 00
	00 00 00	 xorpd	 xmm0, QWORD PTR __mask@@NegDouble@
  00025	f2 0f 11 44 24
	20		 movsdx	 QWORD PTR r$[rsp], xmm0

; 365  :     r.imag = z.real;

  0002b	48 8b 84 24 88
	00 00 00	 mov	 rax, QWORD PTR z$[rsp]
  00033	f2 0f 10 00	 movsdx	 xmm0, QWORD PTR [rax]
  00037	f2 0f 11 44 24
	28		 movsdx	 QWORD PTR r$[rsp+8], xmm0

; 366  :     r = c_cosh(r);

  0003d	48 8d 44 24 40	 lea	 rax, QWORD PTR $T21338[rsp]
  00042	48 8d 4c 24 20	 lea	 rcx, QWORD PTR r$[rsp]
  00047	48 8b f8	 mov	 rdi, rax
  0004a	48 8b f1	 mov	 rsi, rcx
  0004d	b9 10 00 00 00	 mov	 ecx, 16
  00052	f3 a4		 rep movsb
  00054	48 8d 54 24 40	 lea	 rdx, QWORD PTR $T21338[rsp]
  00059	48 8d 4c 24 30	 lea	 rcx, QWORD PTR $T21337[rsp]
  0005e	e8 00 00 00 00	 call	 c_cosh
  00063	48 8d 4c 24 50	 lea	 rcx, QWORD PTR $T21339[rsp]
  00068	48 8b f9	 mov	 rdi, rcx
  0006b	48 8b f0	 mov	 rsi, rax
  0006e	b9 10 00 00 00	 mov	 ecx, 16
  00073	f3 a4		 rep movsb
  00075	48 8d 44 24 20	 lea	 rax, QWORD PTR r$[rsp]
  0007a	48 8d 4c 24 50	 lea	 rcx, QWORD PTR $T21339[rsp]
  0007f	48 8b f8	 mov	 rdi, rax
  00082	48 8b f1	 mov	 rsi, rcx
  00085	b9 10 00 00 00	 mov	 ecx, 16
  0008a	f3 a4		 rep movsb

; 367  :     return r;

  0008c	48 8d 44 24 20	 lea	 rax, QWORD PTR r$[rsp]
  00091	48 8b bc 24 80
	00 00 00	 mov	 rdi, QWORD PTR $T21336[rsp]
  00099	48 8b f0	 mov	 rsi, rax
  0009c	b9 10 00 00 00	 mov	 ecx, 16
  000a1	f3 a4		 rep movsb
  000a3	48 8b 84 24 80
	00 00 00	 mov	 rax, QWORD PTR $T21336[rsp]

; 368  : }

  000ab	48 83 c4 68	 add	 rsp, 104		; 00000068H
  000af	5f		 pop	 rdi
  000b0	5e		 pop	 rsi
  000b1	c3		 ret	 0
c_cos	ENDP
_TEXT	ENDS
PUBLIC	__real@4005bf0a8b145769
PUBLIC	$T21347
EXTRN	sinh:PROC
EXTRN	cosh:PROC
EXTRN	sin:PROC
EXTRN	cos:PROC
_BSS	SEGMENT
cosh_special_values DB 0310H DUP (?)
_BSS	ENDS
;	COMDAT pdata
pdata	SEGMENT
$pdata$c_cosh DD imagerel c_cosh
	DD	imagerel c_cosh+1117
	DD	imagerel $unwind$c_cosh
pdata	ENDS
;	COMDAT xdata
xdata	SEGMENT
$unwind$c_cosh DD 041301H
	DD	0110113H
	DD	0600b700cH
xdata	ENDS
;	COMDAT __real@4005bf0a8b145769
CONST	SEGMENT
__real@4005bf0a8b145769 DQ 04005bf0a8b145769r	; 2.71828
; Function compile flags: /Odtp
CONST	ENDS
;	COMDAT c_cosh
_TEXT	SEGMENT
r$ = 32
x_minus_one$ = 48
$T21347 = 56
tv145 = 72
tv166 = 80
tv176 = 88
tv183 = 96
tv190 = 104
tv196 = 112
$T21346 = 160
z$ = 168
c_cosh	PROC						; COMDAT

; 381  : {

  00000	48 89 54 24 10	 mov	 QWORD PTR [rsp+16], rdx
  00005	48 89 4c 24 08	 mov	 QWORD PTR [rsp+8], rcx
  0000a	56		 push	 rsi
  0000b	57		 push	 rdi
  0000c	48 81 ec 88 00
	00 00		 sub	 rsp, 136		; 00000088H

; 382  :     Py_complex r;
; 383  :     double x_minus_one;
; 384  : 
; 385  :     /* special treatment for cosh(+/-inf + iy) if y is not a NaN */
; 386  :     if (!Py_IS_FINITE(z.real) || !Py_IS_FINITE(z.imag)) {

  00013	48 8b 84 24 a8
	00 00 00	 mov	 rax, QWORD PTR z$[rsp]
  0001b	f2 0f 10 00	 movsdx	 xmm0, QWORD PTR [rax]
  0001f	ff 15 00 00 00
	00		 call	 QWORD PTR __imp__finite
  00025	85 c0		 test	 eax, eax
  00027	74 1b		 je	 SHORT $LN13@c_cosh
  00029	48 8b 84 24 a8
	00 00 00	 mov	 rax, QWORD PTR z$[rsp]
  00031	f2 0f 10 40 08	 movsdx	 xmm0, QWORD PTR [rax+8]
  00036	ff 15 00 00 00
	00		 call	 QWORD PTR __imp__finite
  0003c	85 c0		 test	 eax, eax
  0003e	0f 85 34 02 00
	00		 jne	 $LN14@c_cosh
$LN13@c_cosh:

; 387  :         if (Py_IS_INFINITY(z.real) && Py_IS_FINITE(z.imag) &&
; 388  :             (z.imag != 0.)) {

  00044	48 8b 84 24 a8
	00 00 00	 mov	 rax, QWORD PTR z$[rsp]
  0004c	f2 0f 10 00	 movsdx	 xmm0, QWORD PTR [rax]
  00050	ff 15 00 00 00
	00		 call	 QWORD PTR __imp__finite
  00056	85 c0		 test	 eax, eax
  00058	0f 85 28 01 00
	00		 jne	 $LN12@c_cosh
  0005e	48 8b 84 24 a8
	00 00 00	 mov	 rax, QWORD PTR z$[rsp]
  00066	f2 0f 10 00	 movsdx	 xmm0, QWORD PTR [rax]
  0006a	ff 15 00 00 00
	00		 call	 QWORD PTR __imp__isnan
  00070	85 c0		 test	 eax, eax
  00072	0f 85 0e 01 00
	00		 jne	 $LN12@c_cosh
  00078	48 8b 84 24 a8
	00 00 00	 mov	 rax, QWORD PTR z$[rsp]
  00080	f2 0f 10 40 08	 movsdx	 xmm0, QWORD PTR [rax+8]
  00085	ff 15 00 00 00
	00		 call	 QWORD PTR __imp__finite
  0008b	85 c0		 test	 eax, eax
  0008d	0f 84 f3 00 00
	00		 je	 $LN12@c_cosh
  00093	48 8b 84 24 a8
	00 00 00	 mov	 rax, QWORD PTR z$[rsp]
  0009b	f2 0f 10 40 08	 movsdx	 xmm0, QWORD PTR [rax+8]
  000a0	66 0f 2e 05 00
	00 00 00	 ucomisd xmm0, QWORD PTR __real@0000000000000000
  000a8	7a 06		 jp	 SHORT $LN17@c_cosh
  000aa	0f 84 d6 00 00
	00		 je	 $LN12@c_cosh
$LN17@c_cosh:

; 389  :             if (z.real > 0) {

  000b0	48 8b 84 24 a8
	00 00 00	 mov	 rax, QWORD PTR z$[rsp]
  000b8	f2 0f 10 00	 movsdx	 xmm0, QWORD PTR [rax]
  000bc	66 0f 2f 05 00
	00 00 00	 comisd	 xmm0, QWORD PTR __real@0000000000000000
  000c4	76 5c		 jbe	 SHORT $LN11@c_cosh

; 390  :                 r.real = copysign(INF, cos(z.imag));

  000c6	48 8b 84 24 a8
	00 00 00	 mov	 rax, QWORD PTR z$[rsp]
  000ce	f2 0f 10 40 08	 movsdx	 xmm0, QWORD PTR [rax+8]
  000d3	e8 00 00 00 00	 call	 cos
  000d8	66 0f 28 c8	 movapd	 xmm1, xmm0
  000dc	48 8b 05 00 00
	00 00		 mov	 rax, QWORD PTR __imp__HUGE
  000e3	f2 0f 10 00	 movsdx	 xmm0, QWORD PTR [rax]
  000e7	ff 15 00 00 00
	00		 call	 QWORD PTR __imp__copysign
  000ed	f2 0f 11 44 24
	20		 movsdx	 QWORD PTR r$[rsp], xmm0

; 391  :                 r.imag = copysign(INF, sin(z.imag));

  000f3	48 8b 84 24 a8
	00 00 00	 mov	 rax, QWORD PTR z$[rsp]
  000fb	f2 0f 10 40 08	 movsdx	 xmm0, QWORD PTR [rax+8]
  00100	e8 00 00 00 00	 call	 sin
  00105	66 0f 28 c8	 movapd	 xmm1, xmm0
  00109	48 8b 05 00 00
	00 00		 mov	 rax, QWORD PTR __imp__HUGE
  00110	f2 0f 10 00	 movsdx	 xmm0, QWORD PTR [rax]
  00114	ff 15 00 00 00
	00		 call	 QWORD PTR __imp__copysign
  0011a	f2 0f 11 44 24
	28		 movsdx	 QWORD PTR r$[rsp+8], xmm0

; 392  :             }
; 393  :             else {

  00120	eb 62		 jmp	 SHORT $LN10@c_cosh
$LN11@c_cosh:

; 394  :                 r.real = copysign(INF, cos(z.imag));

  00122	48 8b 84 24 a8
	00 00 00	 mov	 rax, QWORD PTR z$[rsp]
  0012a	f2 0f 10 40 08	 movsdx	 xmm0, QWORD PTR [rax+8]
  0012f	e8 00 00 00 00	 call	 cos
  00134	66 0f 28 c8	 movapd	 xmm1, xmm0
  00138	48 8b 05 00 00
	00 00		 mov	 rax, QWORD PTR __imp__HUGE
  0013f	f2 0f 10 00	 movsdx	 xmm0, QWORD PTR [rax]
  00143	ff 15 00 00 00
	00		 call	 QWORD PTR __imp__copysign
  00149	f2 0f 11 44 24
	20		 movsdx	 QWORD PTR r$[rsp], xmm0

; 395  :                 r.imag = -copysign(INF, sin(z.imag));

  0014f	48 8b 84 24 a8
	00 00 00	 mov	 rax, QWORD PTR z$[rsp]
  00157	f2 0f 10 40 08	 movsdx	 xmm0, QWORD PTR [rax+8]
  0015c	e8 00 00 00 00	 call	 sin
  00161	66 0f 28 c8	 movapd	 xmm1, xmm0
  00165	48 8b 05 00 00
	00 00		 mov	 rax, QWORD PTR __imp__HUGE
  0016c	f2 0f 10 00	 movsdx	 xmm0, QWORD PTR [rax]
  00170	ff 15 00 00 00
	00		 call	 QWORD PTR __imp__copysign
  00176	66 0f 57 05 00
	00 00 00	 xorpd	 xmm0, QWORD PTR __mask@@NegDouble@
  0017e	f2 0f 11 44 24
	28		 movsdx	 QWORD PTR r$[rsp+8], xmm0
$LN10@c_cosh:

; 396  :             }
; 397  :         }
; 398  :         else {

  00184	eb 70		 jmp	 SHORT $LN9@c_cosh
$LN12@c_cosh:

; 399  :             r = cosh_special_values[special_type(z.real)]
; 400  :                                    [special_type(z.imag)];

  00186	48 8b 84 24 a8
	00 00 00	 mov	 rax, QWORD PTR z$[rsp]
  0018e	f2 0f 10 00	 movsdx	 xmm0, QWORD PTR [rax]
  00192	e8 00 00 00 00	 call	 special_type
  00197	48 98		 cdqe
  00199	48 6b c0 70	 imul	 rax, 112		; 00000070H
  0019d	48 8d 0d 00 00
	00 00		 lea	 rcx, OFFSET FLAT:cosh_special_values
  001a4	48 03 c8	 add	 rcx, rax
  001a7	48 8b c1	 mov	 rax, rcx
  001aa	48 89 44 24 48	 mov	 QWORD PTR tv145[rsp], rax
  001af	48 8b 8c 24 a8
	00 00 00	 mov	 rcx, QWORD PTR z$[rsp]
  001b7	f2 0f 10 41 08	 movsdx	 xmm0, QWORD PTR [rcx+8]
  001bc	e8 00 00 00 00	 call	 special_type
  001c1	48 98		 cdqe
  001c3	48 6b c0 10	 imul	 rax, 16
  001c7	48 8d 4c 24 38	 lea	 rcx, QWORD PTR $T21347[rsp]
  001cc	48 8b f9	 mov	 rdi, rcx
  001cf	48 8b 4c 24 48	 mov	 rcx, QWORD PTR tv145[rsp]
  001d4	48 8d 34 01	 lea	 rsi, QWORD PTR [rcx+rax]
  001d8	b9 10 00 00 00	 mov	 ecx, 16
  001dd	f3 a4		 rep movsb
  001df	48 8d 44 24 20	 lea	 rax, QWORD PTR r$[rsp]
  001e4	48 8d 4c 24 38	 lea	 rcx, QWORD PTR $T21347[rsp]
  001e9	48 8b f8	 mov	 rdi, rax
  001ec	48 8b f1	 mov	 rsi, rcx
  001ef	b9 10 00 00 00	 mov	 ecx, 16
  001f4	f3 a4		 rep movsb
$LN9@c_cosh:

; 401  :         }
; 402  :         /* need to set errno = EDOM if y is +/- infinity and x is not
; 403  :            a NaN */
; 404  :         if (Py_IS_INFINITY(z.imag) && !Py_IS_NAN(z.real))

  001f6	48 8b 84 24 a8
	00 00 00	 mov	 rax, QWORD PTR z$[rsp]
  001fe	f2 0f 10 40 08	 movsdx	 xmm0, QWORD PTR [rax+8]
  00203	ff 15 00 00 00
	00		 call	 QWORD PTR __imp__finite
  00209	85 c0		 test	 eax, eax
  0020b	75 3b		 jne	 SHORT $LN8@c_cosh
  0020d	48 8b 84 24 a8
	00 00 00	 mov	 rax, QWORD PTR z$[rsp]
  00215	f2 0f 10 40 08	 movsdx	 xmm0, QWORD PTR [rax+8]
  0021a	ff 15 00 00 00
	00		 call	 QWORD PTR __imp__isnan
  00220	85 c0		 test	 eax, eax
  00222	75 24		 jne	 SHORT $LN8@c_cosh
  00224	48 8b 84 24 a8
	00 00 00	 mov	 rax, QWORD PTR z$[rsp]
  0022c	f2 0f 10 00	 movsdx	 xmm0, QWORD PTR [rax]
  00230	ff 15 00 00 00
	00		 call	 QWORD PTR __imp__isnan
  00236	85 c0		 test	 eax, eax
  00238	75 0e		 jne	 SHORT $LN8@c_cosh

; 405  :             errno = EDOM;

  0023a	ff 15 00 00 00
	00		 call	 QWORD PTR __imp__errno
  00240	c7 00 21 00 00
	00		 mov	 DWORD PTR [rax], 33	; 00000021H

; 406  :         else

  00246	eb 0c		 jmp	 SHORT $LN7@c_cosh
$LN8@c_cosh:

; 407  :             errno = 0;

  00248	ff 15 00 00 00
	00		 call	 QWORD PTR __imp__errno
  0024e	c7 00 00 00 00
	00		 mov	 DWORD PTR [rax], 0
$LN7@c_cosh:

; 408  :         return r;

  00254	48 8d 44 24 20	 lea	 rax, QWORD PTR r$[rsp]
  00259	48 8b bc 24 a0
	00 00 00	 mov	 rdi, QWORD PTR $T21346[rsp]
  00261	48 8b f0	 mov	 rsi, rax
  00264	b9 10 00 00 00	 mov	 ecx, 16
  00269	f3 a4		 rep movsb
  0026b	48 8b 84 24 a0
	00 00 00	 mov	 rax, QWORD PTR $T21346[rsp]
  00273	e9 db 01 00 00	 jmp	 $LN15@c_cosh
$LN14@c_cosh:

; 409  :     }
; 410  : 
; 411  :     if (fabs(z.real) > CM_LOG_LARGE_DOUBLE) {

  00278	48 8b 84 24 a8
	00 00 00	 mov	 rax, QWORD PTR z$[rsp]
  00280	f2 0f 10 00	 movsdx	 xmm0, QWORD PTR [rax]
  00284	e8 00 00 00 00	 call	 fabs
  00289	f2 0f 11 44 24
	50		 movsdx	 QWORD PTR tv166[rsp], xmm0
  0028f	f2 0f 10 05 00
	00 00 00	 movsdx	 xmm0, QWORD PTR __real@7fcfffffffffffff
  00297	e8 00 00 00 00	 call	 log
  0029c	f2 0f 10 4c 24
	50		 movsdx	 xmm1, QWORD PTR tv166[rsp]
  002a2	66 0f 2f c8	 comisd	 xmm1, xmm0
  002a6	0f 86 b4 00 00
	00		 jbe	 $LN6@c_cosh

; 412  :         /* deal correctly with cases where cosh(z.real) overflows but
; 413  :            cosh(z) does not. */
; 414  :         x_minus_one = z.real - copysign(1., z.real);

  002ac	48 8b 84 24 a8
	00 00 00	 mov	 rax, QWORD PTR z$[rsp]
  002b4	f2 0f 10 08	 movsdx	 xmm1, QWORD PTR [rax]
  002b8	f2 0f 10 05 00
	00 00 00	 movsdx	 xmm0, QWORD PTR __real@3ff0000000000000
  002c0	ff 15 00 00 00
	00		 call	 QWORD PTR __imp__copysign
  002c6	48 8b 84 24 a8
	00 00 00	 mov	 rax, QWORD PTR z$[rsp]
  002ce	f2 0f 10 08	 movsdx	 xmm1, QWORD PTR [rax]
  002d2	f2 0f 5c c8	 subsd	 xmm1, xmm0
  002d6	66 0f 28 c1	 movapd	 xmm0, xmm1
  002da	f2 0f 11 44 24
	30		 movsdx	 QWORD PTR x_minus_one$[rsp], xmm0

; 415  :         r.real = cos(z.imag) * cosh(x_minus_one) * Py_MATH_E;

  002e0	48 8b 84 24 a8
	00 00 00	 mov	 rax, QWORD PTR z$[rsp]
  002e8	f2 0f 10 40 08	 movsdx	 xmm0, QWORD PTR [rax+8]
  002ed	e8 00 00 00 00	 call	 cos
  002f2	f2 0f 11 44 24
	58		 movsdx	 QWORD PTR tv176[rsp], xmm0
  002f8	f2 0f 10 44 24
	30		 movsdx	 xmm0, QWORD PTR x_minus_one$[rsp]
  002fe	e8 00 00 00 00	 call	 cosh
  00303	f2 0f 10 4c 24
	58		 movsdx	 xmm1, QWORD PTR tv176[rsp]
  00309	f2 0f 59 c8	 mulsd	 xmm1, xmm0
  0030d	66 0f 28 c1	 movapd	 xmm0, xmm1
  00311	f2 0f 59 05 00
	00 00 00	 mulsd	 xmm0, QWORD PTR __real@4005bf0a8b145769
  00319	f2 0f 11 44 24
	20		 movsdx	 QWORD PTR r$[rsp], xmm0

; 416  :         r.imag = sin(z.imag) * sinh(x_minus_one) * Py_MATH_E;

  0031f	48 8b 84 24 a8
	00 00 00	 mov	 rax, QWORD PTR z$[rsp]
  00327	f2 0f 10 40 08	 movsdx	 xmm0, QWORD PTR [rax+8]
  0032c	e8 00 00 00 00	 call	 sin
  00331	f2 0f 11 44 24
	60		 movsdx	 QWORD PTR tv183[rsp], xmm0
  00337	f2 0f 10 44 24
	30		 movsdx	 xmm0, QWORD PTR x_minus_one$[rsp]
  0033d	e8 00 00 00 00	 call	 sinh
  00342	f2 0f 10 4c 24
	60		 movsdx	 xmm1, QWORD PTR tv183[rsp]
  00348	f2 0f 59 c8	 mulsd	 xmm1, xmm0
  0034c	66 0f 28 c1	 movapd	 xmm0, xmm1
  00350	f2 0f 59 05 00
	00 00 00	 mulsd	 xmm0, QWORD PTR __real@4005bf0a8b145769
  00358	f2 0f 11 44 24
	28		 movsdx	 QWORD PTR r$[rsp+8], xmm0

; 417  :     } else {

  0035e	eb 7a		 jmp	 SHORT $LN5@c_cosh
$LN6@c_cosh:

; 418  :         r.real = cos(z.imag) * cosh(z.real);

  00360	48 8b 84 24 a8
	00 00 00	 mov	 rax, QWORD PTR z$[rsp]
  00368	f2 0f 10 40 08	 movsdx	 xmm0, QWORD PTR [rax+8]
  0036d	e8 00 00 00 00	 call	 cos
  00372	f2 0f 11 44 24
	68		 movsdx	 QWORD PTR tv190[rsp], xmm0
  00378	48 8b 84 24 a8
	00 00 00	 mov	 rax, QWORD PTR z$[rsp]
  00380	f2 0f 10 00	 movsdx	 xmm0, QWORD PTR [rax]
  00384	e8 00 00 00 00	 call	 cosh
  00389	f2 0f 10 4c 24
	68		 movsdx	 xmm1, QWORD PTR tv190[rsp]
  0038f	f2 0f 59 c8	 mulsd	 xmm1, xmm0
  00393	66 0f 28 c1	 movapd	 xmm0, xmm1
  00397	f2 0f 11 44 24
	20		 movsdx	 QWORD PTR r$[rsp], xmm0

; 419  :         r.imag = sin(z.imag) * sinh(z.real);

  0039d	48 8b 84 24 a8
	00 00 00	 mov	 rax, QWORD PTR z$[rsp]
  003a5	f2 0f 10 40 08	 movsdx	 xmm0, QWORD PTR [rax+8]
  003aa	e8 00 00 00 00	 call	 sin
  003af	f2 0f 11 44 24
	70		 movsdx	 QWORD PTR tv196[rsp], xmm0
  003b5	48 8b 84 24 a8
	00 00 00	 mov	 rax, QWORD PTR z$[rsp]
  003bd	f2 0f 10 00	 movsdx	 xmm0, QWORD PTR [rax]
  003c1	e8 00 00 00 00	 call	 sinh
  003c6	f2 0f 10 4c 24
	70		 movsdx	 xmm1, QWORD PTR tv196[rsp]
  003cc	f2 0f 59 c8	 mulsd	 xmm1, xmm0
  003d0	66 0f 28 c1	 movapd	 xmm0, xmm1
  003d4	f2 0f 11 44 24
	28		 movsdx	 QWORD PTR r$[rsp+8], xmm0
$LN5@c_cosh:

; 420  :     }
; 421  :     /* detect overflow, and set errno accordingly */
; 422  :     if (Py_IS_INFINITY(r.real) || Py_IS_INFINITY(r.imag))

  003da	f2 0f 10 44 24
	20		 movsdx	 xmm0, QWORD PTR r$[rsp]
  003e0	ff 15 00 00 00
	00		 call	 QWORD PTR __imp__finite
  003e6	85 c0		 test	 eax, eax
  003e8	75 10		 jne	 SHORT $LN2@c_cosh
  003ea	f2 0f 10 44 24
	20		 movsdx	 xmm0, QWORD PTR r$[rsp]
  003f0	ff 15 00 00 00
	00		 call	 QWORD PTR __imp__isnan
  003f6	85 c0		 test	 eax, eax
  003f8	74 20		 je	 SHORT $LN3@c_cosh
$LN2@c_cosh:
  003fa	f2 0f 10 44 24
	28		 movsdx	 xmm0, QWORD PTR r$[rsp+8]
  00400	ff 15 00 00 00
	00		 call	 QWORD PTR __imp__finite
  00406	85 c0		 test	 eax, eax
  00408	75 1e		 jne	 SHORT $LN4@c_cosh
  0040a	f2 0f 10 44 24
	28		 movsdx	 xmm0, QWORD PTR r$[rsp+8]
  00410	ff 15 00 00 00
	00		 call	 QWORD PTR __imp__isnan
  00416	85 c0		 test	 eax, eax
  00418	75 0e		 jne	 SHORT $LN4@c_cosh
$LN3@c_cosh:

; 423  :         errno = ERANGE;

  0041a	ff 15 00 00 00
	00		 call	 QWORD PTR __imp__errno
  00420	c7 00 22 00 00
	00		 mov	 DWORD PTR [rax], 34	; 00000022H

; 424  :     else

  00426	eb 0c		 jmp	 SHORT $LN1@c_cosh
$LN4@c_cosh:

; 425  :         errno = 0;

  00428	ff 15 00 00 00
	00		 call	 QWORD PTR __imp__errno
  0042e	c7 00 00 00 00
	00		 mov	 DWORD PTR [rax], 0
$LN1@c_cosh:

; 426  :     return r;

  00434	48 8d 44 24 20	 lea	 rax, QWORD PTR r$[rsp]
  00439	48 8b bc 24 a0
	00 00 00	 mov	 rdi, QWORD PTR $T21346[rsp]
  00441	48 8b f0	 mov	 rsi, rax
  00444	b9 10 00 00 00	 mov	 ecx, 16
  00449	f3 a4		 rep movsb
  0044b	48 8b 84 24 a0
	00 00 00	 mov	 rax, QWORD PTR $T21346[rsp]
$LN15@c_cosh:

; 427  : }

  00453	48 81 c4 88 00
	00 00		 add	 rsp, 136		; 00000088H
  0045a	5f		 pop	 rdi
  0045b	5e		 pop	 rsi
  0045c	c3		 ret	 0
c_cosh	ENDP
_TEXT	ENDS
;	COMDAT pdata
pdata	SEGMENT
$pdata$cmath_cosh DD imagerel cmath_cosh
	DD	imagerel cmath_cosh+36
	DD	imagerel $unwind$cmath_cosh
pdata	ENDS
;	COMDAT xdata
xdata	SEGMENT
$unwind$cmath_cosh DD 010e01H
	DD	0420eH
; Function compile flags: /Odtp
xdata	ENDS
;	COMDAT cmath_cosh
_TEXT	SEGMENT
self$ = 48
args$ = 56
cmath_cosh PROC						; COMDAT

; 907  : FUNC1(cmath_cosh, c_cosh)

  00000	48 89 54 24 10	 mov	 QWORD PTR [rsp+16], rdx
  00005	48 89 4c 24 08	 mov	 QWORD PTR [rsp+8], rcx
  0000a	48 83 ec 28	 sub	 rsp, 40			; 00000028H
  0000e	48 8d 15 00 00
	00 00		 lea	 rdx, OFFSET FLAT:c_cosh
  00015	48 8b 4c 24 38	 mov	 rcx, QWORD PTR args$[rsp]
  0001a	e8 00 00 00 00	 call	 math_1
  0001f	48 83 c4 28	 add	 rsp, 40			; 00000028H
  00023	c3		 ret	 0
cmath_cosh ENDP
_TEXT	ENDS
;	COMDAT pdata
pdata	SEGMENT
$pdata$cmath_exp DD imagerel cmath_exp
	DD	imagerel cmath_exp+36
	DD	imagerel $unwind$cmath_exp
pdata	ENDS
;	COMDAT xdata
xdata	SEGMENT
$unwind$cmath_exp DD 010e01H
	DD	0420eH
; Function compile flags: /Odtp
xdata	ENDS
;	COMDAT cmath_exp
_TEXT	SEGMENT
self$ = 48
args$ = 56
cmath_exp PROC						; COMDAT

; 908  : FUNC1(cmath_exp, c_exp)

  00000	48 89 54 24 10	 mov	 QWORD PTR [rsp+16], rdx
  00005	48 89 4c 24 08	 mov	 QWORD PTR [rsp+8], rcx
  0000a	48 83 ec 28	 sub	 rsp, 40			; 00000028H
  0000e	48 8d 15 00 00
	00 00		 lea	 rdx, OFFSET FLAT:c_exp
  00015	48 8b 4c 24 38	 mov	 rcx, QWORD PTR args$[rsp]
  0001a	e8 00 00 00 00	 call	 math_1
  0001f	48 83 c4 28	 add	 rsp, 40			; 00000028H
  00023	c3		 ret	 0
cmath_exp ENDP
_TEXT	ENDS
PUBLIC	$T21370
EXTRN	exp:PROC
_BSS	SEGMENT
exp_special_values DB 0310H DUP (?)
_BSS	ENDS
;	COMDAT pdata
pdata	SEGMENT
$pdata$c_exp DD	imagerel c_exp
	DD	imagerel c_exp+966
	DD	imagerel $unwind$c_exp
pdata	ENDS
;	COMDAT xdata
xdata	SEGMENT
$unwind$c_exp DD 031001H
	DD	0700ca210H
	DD	0600bH
; Function compile flags: /Odtp
xdata	ENDS
;	COMDAT c_exp
_TEXT	SEGMENT
l$ = 32
r$ = 40
$T21370 = 56
tv144 = 72
$T21369 = 112
z$ = 120
c_exp	PROC						; COMDAT

; 441  : {

  00000	48 89 54 24 10	 mov	 QWORD PTR [rsp+16], rdx
  00005	48 89 4c 24 08	 mov	 QWORD PTR [rsp+8], rcx
  0000a	56		 push	 rsi
  0000b	57		 push	 rdi
  0000c	48 83 ec 58	 sub	 rsp, 88			; 00000058H

; 442  :     Py_complex r;
; 443  :     double l;
; 444  : 
; 445  :     if (!Py_IS_FINITE(z.real) || !Py_IS_FINITE(z.imag)) {

  00010	48 8b 44 24 78	 mov	 rax, QWORD PTR z$[rsp]
  00015	f2 0f 10 00	 movsdx	 xmm0, QWORD PTR [rax]
  00019	ff 15 00 00 00
	00		 call	 QWORD PTR __imp__finite
  0001f	85 c0		 test	 eax, eax
  00021	74 18		 je	 SHORT $LN14@c_exp
  00023	48 8b 44 24 78	 mov	 rax, QWORD PTR z$[rsp]
  00028	f2 0f 10 40 08	 movsdx	 xmm0, QWORD PTR [rax+8]
  0002d	ff 15 00 00 00
	00		 call	 QWORD PTR __imp__finite
  00033	85 c0		 test	 eax, eax
  00035	0f 85 27 02 00
	00		 jne	 $LN15@c_exp
$LN14@c_exp:

; 446  :         if (Py_IS_INFINITY(z.real) && Py_IS_FINITE(z.imag)
; 447  :             && (z.imag != 0.)) {

  0003b	48 8b 44 24 78	 mov	 rax, QWORD PTR z$[rsp]
  00040	f2 0f 10 00	 movsdx	 xmm0, QWORD PTR [rax]
  00044	ff 15 00 00 00
	00		 call	 QWORD PTR __imp__finite
  0004a	85 c0		 test	 eax, eax
  0004c	0f 85 fa 00 00
	00		 jne	 $LN13@c_exp
  00052	48 8b 44 24 78	 mov	 rax, QWORD PTR z$[rsp]
  00057	f2 0f 10 00	 movsdx	 xmm0, QWORD PTR [rax]
  0005b	ff 15 00 00 00
	00		 call	 QWORD PTR __imp__isnan
  00061	85 c0		 test	 eax, eax
  00063	0f 85 e3 00 00
	00		 jne	 $LN13@c_exp
  00069	48 8b 44 24 78	 mov	 rax, QWORD PTR z$[rsp]
  0006e	f2 0f 10 40 08	 movsdx	 xmm0, QWORD PTR [rax+8]
  00073	ff 15 00 00 00
	00		 call	 QWORD PTR __imp__finite
  00079	85 c0		 test	 eax, eax
  0007b	0f 84 cb 00 00
	00		 je	 $LN13@c_exp
  00081	48 8b 44 24 78	 mov	 rax, QWORD PTR z$[rsp]
  00086	f2 0f 10 40 08	 movsdx	 xmm0, QWORD PTR [rax+8]
  0008b	66 0f 2e 05 00
	00 00 00	 ucomisd xmm0, QWORD PTR __real@0000000000000000
  00093	7a 06		 jp	 SHORT $LN18@c_exp
  00095	0f 84 b1 00 00
	00		 je	 $LN13@c_exp
$LN18@c_exp:

; 448  :             if (z.real > 0) {

  0009b	48 8b 44 24 78	 mov	 rax, QWORD PTR z$[rsp]
  000a0	f2 0f 10 00	 movsdx	 xmm0, QWORD PTR [rax]
  000a4	66 0f 2f 05 00
	00 00 00	 comisd	 xmm0, QWORD PTR __real@0000000000000000
  000ac	76 56		 jbe	 SHORT $LN12@c_exp

; 449  :                 r.real = copysign(INF, cos(z.imag));

  000ae	48 8b 44 24 78	 mov	 rax, QWORD PTR z$[rsp]
  000b3	f2 0f 10 40 08	 movsdx	 xmm0, QWORD PTR [rax+8]
  000b8	e8 00 00 00 00	 call	 cos
  000bd	66 0f 28 c8	 movapd	 xmm1, xmm0
  000c1	48 8b 05 00 00
	00 00		 mov	 rax, QWORD PTR __imp__HUGE
  000c8	f2 0f 10 00	 movsdx	 xmm0, QWORD PTR [rax]
  000cc	ff 15 00 00 00
	00		 call	 QWORD PTR __imp__copysign
  000d2	f2 0f 11 44 24
	28		 movsdx	 QWORD PTR r$[rsp], xmm0

; 450  :                 r.imag = copysign(INF, sin(z.imag));

  000d8	48 8b 44 24 78	 mov	 rax, QWORD PTR z$[rsp]
  000dd	f2 0f 10 40 08	 movsdx	 xmm0, QWORD PTR [rax+8]
  000e2	e8 00 00 00 00	 call	 sin
  000e7	66 0f 28 c8	 movapd	 xmm1, xmm0
  000eb	48 8b 05 00 00
	00 00		 mov	 rax, QWORD PTR __imp__HUGE
  000f2	f2 0f 10 00	 movsdx	 xmm0, QWORD PTR [rax]
  000f6	ff 15 00 00 00
	00		 call	 QWORD PTR __imp__copysign
  000fc	f2 0f 11 44 24
	30		 movsdx	 QWORD PTR r$[rsp+8], xmm0

; 451  :             }
; 452  :             else {

  00102	eb 46		 jmp	 SHORT $LN11@c_exp
$LN12@c_exp:

; 453  :                 r.real = copysign(0., cos(z.imag));

  00104	48 8b 44 24 78	 mov	 rax, QWORD PTR z$[rsp]
  00109	f2 0f 10 40 08	 movsdx	 xmm0, QWORD PTR [rax+8]
  0010e	e8 00 00 00 00	 call	 cos
  00113	66 0f 28 c8	 movapd	 xmm1, xmm0
  00117	66 0f 57 c0	 xorpd	 xmm0, xmm0
  0011b	ff 15 00 00 00
	00		 call	 QWORD PTR __imp__copysign
  00121	f2 0f 11 44 24
	28		 movsdx	 QWORD PTR r$[rsp], xmm0

; 454  :                 r.imag = copysign(0., sin(z.imag));

  00127	48 8b 44 24 78	 mov	 rax, QWORD PTR z$[rsp]
  0012c	f2 0f 10 40 08	 movsdx	 xmm0, QWORD PTR [rax+8]
  00131	e8 00 00 00 00	 call	 sin
  00136	66 0f 28 c8	 movapd	 xmm1, xmm0
  0013a	66 0f 57 c0	 xorpd	 xmm0, xmm0
  0013e	ff 15 00 00 00
	00		 call	 QWORD PTR __imp__copysign
  00144	f2 0f 11 44 24
	30		 movsdx	 QWORD PTR r$[rsp+8], xmm0
$LN11@c_exp:

; 455  :             }
; 456  :         }
; 457  :         else {

  0014a	eb 6a		 jmp	 SHORT $LN10@c_exp
$LN13@c_exp:

; 458  :             r = exp_special_values[special_type(z.real)]
; 459  :                                   [special_type(z.imag)];

  0014c	48 8b 44 24 78	 mov	 rax, QWORD PTR z$[rsp]
  00151	f2 0f 10 00	 movsdx	 xmm0, QWORD PTR [rax]
  00155	e8 00 00 00 00	 call	 special_type
  0015a	48 98		 cdqe
  0015c	48 6b c0 70	 imul	 rax, 112		; 00000070H
  00160	48 8d 0d 00 00
	00 00		 lea	 rcx, OFFSET FLAT:exp_special_values
  00167	48 03 c8	 add	 rcx, rax
  0016a	48 8b c1	 mov	 rax, rcx
  0016d	48 89 44 24 48	 mov	 QWORD PTR tv144[rsp], rax
  00172	48 8b 4c 24 78	 mov	 rcx, QWORD PTR z$[rsp]
  00177	f2 0f 10 41 08	 movsdx	 xmm0, QWORD PTR [rcx+8]
  0017c	e8 00 00 00 00	 call	 special_type
  00181	48 98		 cdqe
  00183	48 6b c0 10	 imul	 rax, 16
  00187	48 8d 4c 24 38	 lea	 rcx, QWORD PTR $T21370[rsp]
  0018c	48 8b f9	 mov	 rdi, rcx
  0018f	48 8b 4c 24 48	 mov	 rcx, QWORD PTR tv144[rsp]
  00194	48 8d 34 01	 lea	 rsi, QWORD PTR [rcx+rax]
  00198	b9 10 00 00 00	 mov	 ecx, 16
  0019d	f3 a4		 rep movsb
  0019f	48 8d 44 24 28	 lea	 rax, QWORD PTR r$[rsp]
  001a4	48 8d 4c 24 38	 lea	 rcx, QWORD PTR $T21370[rsp]
  001a9	48 8b f8	 mov	 rdi, rax
  001ac	48 8b f1	 mov	 rsi, rcx
  001af	b9 10 00 00 00	 mov	 ecx, 16
  001b4	f3 a4		 rep movsb
$LN10@c_exp:

; 460  :         }
; 461  :         /* need to set errno = EDOM if y is +/- infinity and x is not
; 462  :            a NaN and not -infinity */
; 463  :         if (Py_IS_INFINITY(z.imag) &&
; 464  :             (Py_IS_FINITE(z.real) ||
; 465  :              (Py_IS_INFINITY(z.real) && z.real > 0)))

  001b6	48 8b 44 24 78	 mov	 rax, QWORD PTR z$[rsp]
  001bb	f2 0f 10 40 08	 movsdx	 xmm0, QWORD PTR [rax+8]
  001c0	ff 15 00 00 00
	00		 call	 QWORD PTR __imp__finite
  001c6	85 c0		 test	 eax, eax
  001c8	75 6e		 jne	 SHORT $LN9@c_exp
  001ca	48 8b 44 24 78	 mov	 rax, QWORD PTR z$[rsp]
  001cf	f2 0f 10 40 08	 movsdx	 xmm0, QWORD PTR [rax+8]
  001d4	ff 15 00 00 00
	00		 call	 QWORD PTR __imp__isnan
  001da	85 c0		 test	 eax, eax
  001dc	75 5a		 jne	 SHORT $LN9@c_exp
  001de	48 8b 44 24 78	 mov	 rax, QWORD PTR z$[rsp]
  001e3	f2 0f 10 00	 movsdx	 xmm0, QWORD PTR [rax]
  001e7	ff 15 00 00 00
	00		 call	 QWORD PTR __imp__finite
  001ed	85 c0		 test	 eax, eax
  001ef	75 39		 jne	 SHORT $LN8@c_exp
  001f1	48 8b 44 24 78	 mov	 rax, QWORD PTR z$[rsp]
  001f6	f2 0f 10 00	 movsdx	 xmm0, QWORD PTR [rax]
  001fa	ff 15 00 00 00
	00		 call	 QWORD PTR __imp__finite
  00200	85 c0		 test	 eax, eax
  00202	75 34		 jne	 SHORT $LN9@c_exp
  00204	48 8b 44 24 78	 mov	 rax, QWORD PTR z$[rsp]
  00209	f2 0f 10 00	 movsdx	 xmm0, QWORD PTR [rax]
  0020d	ff 15 00 00 00
	00		 call	 QWORD PTR __imp__isnan
  00213	85 c0		 test	 eax, eax
  00215	75 21		 jne	 SHORT $LN9@c_exp
  00217	48 8b 44 24 78	 mov	 rax, QWORD PTR z$[rsp]
  0021c	f2 0f 10 00	 movsdx	 xmm0, QWORD PTR [rax]
  00220	66 0f 2f 05 00
	00 00 00	 comisd	 xmm0, QWORD PTR __real@0000000000000000
  00228	76 0e		 jbe	 SHORT $LN9@c_exp
$LN8@c_exp:

; 466  :             errno = EDOM;

  0022a	ff 15 00 00 00
	00		 call	 QWORD PTR __imp__errno
  00230	c7 00 21 00 00
	00		 mov	 DWORD PTR [rax], 33	; 00000021H

; 467  :         else

  00236	eb 0c		 jmp	 SHORT $LN7@c_exp
$LN9@c_exp:

; 468  :             errno = 0;

  00238	ff 15 00 00 00
	00		 call	 QWORD PTR __imp__errno
  0023e	c7 00 00 00 00
	00		 mov	 DWORD PTR [rax], 0
$LN7@c_exp:

; 469  :         return r;

  00244	48 8d 44 24 28	 lea	 rax, QWORD PTR r$[rsp]
  00249	48 8b 7c 24 70	 mov	 rdi, QWORD PTR $T21369[rsp]
  0024e	48 8b f0	 mov	 rsi, rax
  00251	b9 10 00 00 00	 mov	 ecx, 16
  00256	f3 a4		 rep movsb
  00258	48 8b 44 24 70	 mov	 rax, QWORD PTR $T21369[rsp]
  0025d	e9 5d 01 00 00	 jmp	 $LN16@c_exp
$LN15@c_exp:

; 470  :     }
; 471  : 
; 472  :     if (z.real > CM_LOG_LARGE_DOUBLE) {

  00262	f2 0f 10 05 00
	00 00 00	 movsdx	 xmm0, QWORD PTR __real@7fcfffffffffffff
  0026a	e8 00 00 00 00	 call	 log
  0026f	48 8b 44 24 78	 mov	 rax, QWORD PTR z$[rsp]
  00274	f2 0f 10 08	 movsdx	 xmm1, QWORD PTR [rax]
  00278	66 0f 2f c8	 comisd	 xmm1, xmm0
  0027c	76 74		 jbe	 SHORT $LN6@c_exp

; 473  :         l = exp(z.real-1.);

  0027e	48 8b 44 24 78	 mov	 rax, QWORD PTR z$[rsp]
  00283	f2 0f 10 00	 movsdx	 xmm0, QWORD PTR [rax]
  00287	f2 0f 5c 05 00
	00 00 00	 subsd	 xmm0, QWORD PTR __real@3ff0000000000000
  0028f	e8 00 00 00 00	 call	 exp
  00294	f2 0f 11 44 24
	20		 movsdx	 QWORD PTR l$[rsp], xmm0

; 474  :         r.real = l*cos(z.imag)*Py_MATH_E;

  0029a	48 8b 44 24 78	 mov	 rax, QWORD PTR z$[rsp]
  0029f	f2 0f 10 40 08	 movsdx	 xmm0, QWORD PTR [rax+8]
  002a4	e8 00 00 00 00	 call	 cos
  002a9	f2 0f 10 4c 24
	20		 movsdx	 xmm1, QWORD PTR l$[rsp]
  002af	f2 0f 59 c8	 mulsd	 xmm1, xmm0
  002b3	66 0f 28 c1	 movapd	 xmm0, xmm1
  002b7	f2 0f 59 05 00
	00 00 00	 mulsd	 xmm0, QWORD PTR __real@4005bf0a8b145769
  002bf	f2 0f 11 44 24
	28		 movsdx	 QWORD PTR r$[rsp], xmm0

; 475  :         r.imag = l*sin(z.imag)*Py_MATH_E;

  002c5	48 8b 44 24 78	 mov	 rax, QWORD PTR z$[rsp]
  002ca	f2 0f 10 40 08	 movsdx	 xmm0, QWORD PTR [rax+8]
  002cf	e8 00 00 00 00	 call	 sin
  002d4	f2 0f 10 4c 24
	20		 movsdx	 xmm1, QWORD PTR l$[rsp]
  002da	f2 0f 59 c8	 mulsd	 xmm1, xmm0
  002de	66 0f 28 c1	 movapd	 xmm0, xmm1
  002e2	f2 0f 59 05 00
	00 00 00	 mulsd	 xmm0, QWORD PTR __real@4005bf0a8b145769
  002ea	f2 0f 11 44 24
	30		 movsdx	 QWORD PTR r$[rsp+8], xmm0

; 476  :     } else {

  002f0	eb 5a		 jmp	 SHORT $LN5@c_exp
$LN6@c_exp:

; 477  :         l = exp(z.real);

  002f2	48 8b 44 24 78	 mov	 rax, QWORD PTR z$[rsp]
  002f7	f2 0f 10 00	 movsdx	 xmm0, QWORD PTR [rax]
  002fb	e8 00 00 00 00	 call	 exp
  00300	f2 0f 11 44 24
	20		 movsdx	 QWORD PTR l$[rsp], xmm0

; 478  :         r.real = l*cos(z.imag);

  00306	48 8b 44 24 78	 mov	 rax, QWORD PTR z$[rsp]
  0030b	f2 0f 10 40 08	 movsdx	 xmm0, QWORD PTR [rax+8]
  00310	e8 00 00 00 00	 call	 cos
  00315	f2 0f 10 4c 24
	20		 movsdx	 xmm1, QWORD PTR l$[rsp]
  0031b	f2 0f 59 c8	 mulsd	 xmm1, xmm0
  0031f	66 0f 28 c1	 movapd	 xmm0, xmm1
  00323	f2 0f 11 44 24
	28		 movsdx	 QWORD PTR r$[rsp], xmm0

; 479  :         r.imag = l*sin(z.imag);

  00329	48 8b 44 24 78	 mov	 rax, QWORD PTR z$[rsp]
  0032e	f2 0f 10 40 08	 movsdx	 xmm0, QWORD PTR [rax+8]
  00333	e8 00 00 00 00	 call	 sin
  00338	f2 0f 10 4c 24
	20		 movsdx	 xmm1, QWORD PTR l$[rsp]
  0033e	f2 0f 59 c8	 mulsd	 xmm1, xmm0
  00342	66 0f 28 c1	 movapd	 xmm0, xmm1
  00346	f2 0f 11 44 24
	30		 movsdx	 QWORD PTR r$[rsp+8], xmm0
$LN5@c_exp:

; 480  :     }
; 481  :     /* detect overflow, and set errno accordingly */
; 482  :     if (Py_IS_INFINITY(r.real) || Py_IS_INFINITY(r.imag))

  0034c	f2 0f 10 44 24
	28		 movsdx	 xmm0, QWORD PTR r$[rsp]
  00352	ff 15 00 00 00
	00		 call	 QWORD PTR __imp__finite
  00358	85 c0		 test	 eax, eax
  0035a	75 10		 jne	 SHORT $LN2@c_exp
  0035c	f2 0f 10 44 24
	28		 movsdx	 xmm0, QWORD PTR r$[rsp]
  00362	ff 15 00 00 00
	00		 call	 QWORD PTR __imp__isnan
  00368	85 c0		 test	 eax, eax
  0036a	74 20		 je	 SHORT $LN3@c_exp
$LN2@c_exp:
  0036c	f2 0f 10 44 24
	30		 movsdx	 xmm0, QWORD PTR r$[rsp+8]
  00372	ff 15 00 00 00
	00		 call	 QWORD PTR __imp__finite
  00378	85 c0		 test	 eax, eax
  0037a	75 1e		 jne	 SHORT $LN4@c_exp
  0037c	f2 0f 10 44 24
	30		 movsdx	 xmm0, QWORD PTR r$[rsp+8]
  00382	ff 15 00 00 00
	00		 call	 QWORD PTR __imp__isnan
  00388	85 c0		 test	 eax, eax
  0038a	75 0e		 jne	 SHORT $LN4@c_exp
$LN3@c_exp:

; 483  :         errno = ERANGE;

  0038c	ff 15 00 00 00
	00		 call	 QWORD PTR __imp__errno
  00392	c7 00 22 00 00
	00		 mov	 DWORD PTR [rax], 34	; 00000022H

; 484  :     else

  00398	eb 0c		 jmp	 SHORT $LN1@c_exp
$LN4@c_exp:

; 485  :         errno = 0;

  0039a	ff 15 00 00 00
	00		 call	 QWORD PTR __imp__errno
  003a0	c7 00 00 00 00
	00		 mov	 DWORD PTR [rax], 0
$LN1@c_exp:

; 486  :     return r;

  003a6	48 8d 44 24 28	 lea	 rax, QWORD PTR r$[rsp]
  003ab	48 8b 7c 24 70	 mov	 rdi, QWORD PTR $T21369[rsp]
  003b0	48 8b f0	 mov	 rsi, rax
  003b3	b9 10 00 00 00	 mov	 ecx, 16
  003b8	f3 a4		 rep movsb
  003ba	48 8b 44 24 70	 mov	 rax, QWORD PTR $T21369[rsp]
$LN16@c_exp:

; 487  : }

  003bf	48 83 c4 58	 add	 rsp, 88			; 00000058H
  003c3	5f		 pop	 rdi
  003c4	5e		 pop	 rsi
  003c5	c3		 ret	 0
c_exp	ENDP
_TEXT	ENDS
;	COMDAT pdata
pdata	SEGMENT
$pdata$cmath_log10 DD imagerel cmath_log10
	DD	imagerel cmath_log10+36
	DD	imagerel $unwind$cmath_log10
pdata	ENDS
;	COMDAT xdata
xdata	SEGMENT
$unwind$cmath_log10 DD 010e01H
	DD	0420eH
; Function compile flags: /Odtp
xdata	ENDS
;	COMDAT cmath_log10
_TEXT	SEGMENT
self$ = 48
args$ = 56
cmath_log10 PROC					; COMDAT

; 909  : FUNC1(cmath_log10, c_log10)

  00000	48 89 54 24 10	 mov	 QWORD PTR [rsp+16], rdx
  00005	48 89 4c 24 08	 mov	 QWORD PTR [rsp+8], rcx
  0000a	48 83 ec 28	 sub	 rsp, 40			; 00000028H
  0000e	48 8d 15 00 00
	00 00		 lea	 rdx, OFFSET FLAT:c_log10
  00015	48 8b 4c 24 38	 mov	 rcx, QWORD PTR args$[rsp]
  0001a	e8 00 00 00 00	 call	 math_1
  0001f	48 83 c4 28	 add	 rsp, 40			; 00000028H
  00023	c3		 ret	 0
cmath_log10 ENDP
_TEXT	ENDS
PUBLIC	__real@40026bb1bbb55516
PUBLIC	$T21387
PUBLIC	$T21386
;	COMDAT pdata
pdata	SEGMENT
$pdata$c_log10 DD imagerel c_log10
	DD	imagerel c_log10+197
	DD	imagerel $unwind$c_log10
pdata	ENDS
;	COMDAT xdata
xdata	SEGMENT
$unwind$c_log10 DD 031001H
	DD	0700ce210H
	DD	0600bH
xdata	ENDS
;	COMDAT __real@40026bb1bbb55516
CONST	SEGMENT
__real@40026bb1bbb55516 DQ 040026bb1bbb55516r	; 2.30259
; Function compile flags: /Odtp
CONST	ENDS
;	COMDAT c_log10
_TEXT	SEGMENT
errno_save$ = 32
r$ = 40
$T21385 = 56
$T21386 = 80
$T21387 = 96
$T21384 = 144
z$ = 152
c_log10	PROC						; COMDAT

; 569  : {

  00000	48 89 54 24 10	 mov	 QWORD PTR [rsp+16], rdx
  00005	48 89 4c 24 08	 mov	 QWORD PTR [rsp+8], rcx
  0000a	56		 push	 rsi
  0000b	57		 push	 rdi
  0000c	48 83 ec 78	 sub	 rsp, 120		; 00000078H

; 570  :     Py_complex r;
; 571  :     int errno_save;
; 572  : 
; 573  :     r = c_log(z);

  00010	48 8d 44 24 50	 lea	 rax, QWORD PTR $T21386[rsp]
  00015	48 8b f8	 mov	 rdi, rax
  00018	48 8b b4 24 98
	00 00 00	 mov	 rsi, QWORD PTR z$[rsp]
  00020	b9 10 00 00 00	 mov	 ecx, 16
  00025	f3 a4		 rep movsb
  00027	48 8d 54 24 50	 lea	 rdx, QWORD PTR $T21386[rsp]
  0002c	48 8d 4c 24 38	 lea	 rcx, QWORD PTR $T21385[rsp]
  00031	e8 00 00 00 00	 call	 c_log
  00036	48 8d 4c 24 60	 lea	 rcx, QWORD PTR $T21387[rsp]
  0003b	48 8b f9	 mov	 rdi, rcx
  0003e	48 8b f0	 mov	 rsi, rax
  00041	b9 10 00 00 00	 mov	 ecx, 16
  00046	f3 a4		 rep movsb
  00048	48 8d 44 24 28	 lea	 rax, QWORD PTR r$[rsp]
  0004d	48 8d 4c 24 60	 lea	 rcx, QWORD PTR $T21387[rsp]
  00052	48 8b f8	 mov	 rdi, rax
  00055	48 8b f1	 mov	 rsi, rcx
  00058	b9 10 00 00 00	 mov	 ecx, 16
  0005d	f3 a4		 rep movsb

; 574  :     errno_save = errno; /* just in case the divisions affect errno */

  0005f	ff 15 00 00 00
	00		 call	 QWORD PTR __imp__errno
  00065	8b 00		 mov	 eax, DWORD PTR [rax]
  00067	89 44 24 20	 mov	 DWORD PTR errno_save$[rsp], eax

; 575  :     r.real = r.real / M_LN10;

  0006b	f2 0f 10 44 24
	28		 movsdx	 xmm0, QWORD PTR r$[rsp]
  00071	f2 0f 5e 05 00
	00 00 00	 divsd	 xmm0, QWORD PTR __real@40026bb1bbb55516
  00079	f2 0f 11 44 24
	28		 movsdx	 QWORD PTR r$[rsp], xmm0

; 576  :     r.imag = r.imag / M_LN10;

  0007f	f2 0f 10 44 24
	30		 movsdx	 xmm0, QWORD PTR r$[rsp+8]
  00085	f2 0f 5e 05 00
	00 00 00	 divsd	 xmm0, QWORD PTR __real@40026bb1bbb55516
  0008d	f2 0f 11 44 24
	30		 movsdx	 QWORD PTR r$[rsp+8], xmm0

; 577  :     errno = errno_save;

  00093	ff 15 00 00 00
	00		 call	 QWORD PTR __imp__errno
  00099	8b 4c 24 20	 mov	 ecx, DWORD PTR errno_save$[rsp]
  0009d	89 08		 mov	 DWORD PTR [rax], ecx

; 578  :     return r;

  0009f	48 8d 44 24 28	 lea	 rax, QWORD PTR r$[rsp]
  000a4	48 8b bc 24 90
	00 00 00	 mov	 rdi, QWORD PTR $T21384[rsp]
  000ac	48 8b f0	 mov	 rsi, rax
  000af	b9 10 00 00 00	 mov	 ecx, 16
  000b4	f3 a4		 rep movsb
  000b6	48 8b 84 24 90
	00 00 00	 mov	 rax, QWORD PTR $T21384[rsp]

; 579  : }

  000be	48 83 c4 78	 add	 rsp, 120		; 00000078H
  000c2	5f		 pop	 rdi
  000c3	5e		 pop	 rsi
  000c4	c3		 ret	 0
c_log10	ENDP
_TEXT	ENDS
;	COMDAT pdata
pdata	SEGMENT
$pdata$cmath_sin DD imagerel cmath_sin
	DD	imagerel cmath_sin+36
	DD	imagerel $unwind$cmath_sin
pdata	ENDS
;	COMDAT xdata
xdata	SEGMENT
$unwind$cmath_sin DD 010e01H
	DD	0420eH
; Function compile flags: /Odtp
xdata	ENDS
;	COMDAT cmath_sin
_TEXT	SEGMENT
self$ = 48
args$ = 56
cmath_sin PROC						; COMDAT

; 910  : FUNC1(cmath_sin, c_sin)

  00000	48 89 54 24 10	 mov	 QWORD PTR [rsp+16], rdx
  00005	48 89 4c 24 08	 mov	 QWORD PTR [rsp+8], rcx
  0000a	48 83 ec 28	 sub	 rsp, 40			; 00000028H
  0000e	48 8d 15 00 00
	00 00		 lea	 rdx, OFFSET FLAT:c_sin
  00015	48 8b 4c 24 38	 mov	 rcx, QWORD PTR args$[rsp]
  0001a	e8 00 00 00 00	 call	 math_1
  0001f	48 83 c4 28	 add	 rsp, 40			; 00000028H
  00023	c3		 ret	 0
cmath_sin ENDP
_TEXT	ENDS
PUBLIC	$T21405
PUBLIC	$T21404
;	COMDAT pdata
pdata	SEGMENT
$pdata$c_sin DD	imagerel c_sin
	DD	imagerel c_sin+210
	DD	imagerel $unwind$c_sin
pdata	ENDS
;	COMDAT xdata
xdata	SEGMENT
$unwind$c_sin DD 031001H
	DD	0700ce210H
	DD	0600bH
; Function compile flags: /Odtp
xdata	ENDS
;	COMDAT c_sin
_TEXT	SEGMENT
s$ = 32
r$ = 48
$T21403 = 64
$T21404 = 80
$T21405 = 96
$T21402 = 144
z$ = 152
c_sin	PROC						; COMDAT

; 589  : {

  00000	48 89 54 24 10	 mov	 QWORD PTR [rsp+16], rdx
  00005	48 89 4c 24 08	 mov	 QWORD PTR [rsp+8], rcx
  0000a	56		 push	 rsi
  0000b	57		 push	 rdi
  0000c	48 83 ec 78	 sub	 rsp, 120		; 00000078H

; 590  :     /* sin(z) = -i sin(iz) */
; 591  :     Py_complex s, r;
; 592  :     s.real = -z.imag;

  00010	48 8b 84 24 98
	00 00 00	 mov	 rax, QWORD PTR z$[rsp]
  00018	f2 0f 10 40 08	 movsdx	 xmm0, QWORD PTR [rax+8]
  0001d	66 0f 57 05 00
	00 00 00	 xorpd	 xmm0, QWORD PTR __mask@@NegDouble@
  00025	f2 0f 11 44 24
	20		 movsdx	 QWORD PTR s$[rsp], xmm0

; 593  :     s.imag = z.real;

  0002b	48 8b 84 24 98
	00 00 00	 mov	 rax, QWORD PTR z$[rsp]
  00033	f2 0f 10 00	 movsdx	 xmm0, QWORD PTR [rax]
  00037	f2 0f 11 44 24
	28		 movsdx	 QWORD PTR s$[rsp+8], xmm0

; 594  :     s = c_sinh(s);

  0003d	48 8d 44 24 50	 lea	 rax, QWORD PTR $T21404[rsp]
  00042	48 8d 4c 24 20	 lea	 rcx, QWORD PTR s$[rsp]
  00047	48 8b f8	 mov	 rdi, rax
  0004a	48 8b f1	 mov	 rsi, rcx
  0004d	b9 10 00 00 00	 mov	 ecx, 16
  00052	f3 a4		 rep movsb
  00054	48 8d 54 24 50	 lea	 rdx, QWORD PTR $T21404[rsp]
  00059	48 8d 4c 24 40	 lea	 rcx, QWORD PTR $T21403[rsp]
  0005e	e8 00 00 00 00	 call	 c_sinh
  00063	48 8d 4c 24 60	 lea	 rcx, QWORD PTR $T21405[rsp]
  00068	48 8b f9	 mov	 rdi, rcx
  0006b	48 8b f0	 mov	 rsi, rax
  0006e	b9 10 00 00 00	 mov	 ecx, 16
  00073	f3 a4		 rep movsb
  00075	48 8d 44 24 20	 lea	 rax, QWORD PTR s$[rsp]
  0007a	48 8d 4c 24 60	 lea	 rcx, QWORD PTR $T21405[rsp]
  0007f	48 8b f8	 mov	 rdi, rax
  00082	48 8b f1	 mov	 rsi, rcx
  00085	b9 10 00 00 00	 mov	 ecx, 16
  0008a	f3 a4		 rep movsb

; 595  :     r.real = s.imag;

  0008c	f2 0f 10 44 24
	28		 movsdx	 xmm0, QWORD PTR s$[rsp+8]
  00092	f2 0f 11 44 24
	30		 movsdx	 QWORD PTR r$[rsp], xmm0

; 596  :     r.imag = -s.real;

  00098	f2 0f 10 44 24
	20		 movsdx	 xmm0, QWORD PTR s$[rsp]
  0009e	66 0f 57 05 00
	00 00 00	 xorpd	 xmm0, QWORD PTR __mask@@NegDouble@
  000a6	f2 0f 11 44 24
	38		 movsdx	 QWORD PTR r$[rsp+8], xmm0

; 597  :     return r;

  000ac	48 8d 44 24 30	 lea	 rax, QWORD PTR r$[rsp]
  000b1	48 8b bc 24 90
	00 00 00	 mov	 rdi, QWORD PTR $T21402[rsp]
  000b9	48 8b f0	 mov	 rsi, rax
  000bc	b9 10 00 00 00	 mov	 ecx, 16
  000c1	f3 a4		 rep movsb
  000c3	48 8b 84 24 90
	00 00 00	 mov	 rax, QWORD PTR $T21402[rsp]

; 598  : }

  000cb	48 83 c4 78	 add	 rsp, 120		; 00000078H
  000cf	5f		 pop	 rdi
  000d0	5e		 pop	 rsi
  000d1	c3		 ret	 0
c_sin	ENDP
_TEXT	ENDS
PUBLIC	$T21413
_BSS	SEGMENT
sinh_special_values DB 0310H DUP (?)
_BSS	ENDS
;	COMDAT pdata
pdata	SEGMENT
$pdata$c_sinh DD imagerel c_sinh
	DD	imagerel c_sinh+1117
	DD	imagerel $unwind$c_sinh
pdata	ENDS
;	COMDAT xdata
xdata	SEGMENT
$unwind$c_sinh DD 041301H
	DD	0110113H
	DD	0600b700cH
; Function compile flags: /Odtp
xdata	ENDS
;	COMDAT c_sinh
_TEXT	SEGMENT
r$ = 32
x_minus_one$ = 48
$T21413 = 56
tv145 = 72
tv166 = 80
tv176 = 88
tv183 = 96
tv190 = 104
tv196 = 112
$T21412 = 160
z$ = 168
c_sinh	PROC						; COMDAT

; 611  : {

  00000	48 89 54 24 10	 mov	 QWORD PTR [rsp+16], rdx
  00005	48 89 4c 24 08	 mov	 QWORD PTR [rsp+8], rcx
  0000a	56		 push	 rsi
  0000b	57		 push	 rdi
  0000c	48 81 ec 88 00
	00 00		 sub	 rsp, 136		; 00000088H

; 612  :     Py_complex r;
; 613  :     double x_minus_one;
; 614  : 
; 615  :     /* special treatment for sinh(+/-inf + iy) if y is finite and
; 616  :        nonzero */
; 617  :     if (!Py_IS_FINITE(z.real) || !Py_IS_FINITE(z.imag)) {

  00013	48 8b 84 24 a8
	00 00 00	 mov	 rax, QWORD PTR z$[rsp]
  0001b	f2 0f 10 00	 movsdx	 xmm0, QWORD PTR [rax]
  0001f	ff 15 00 00 00
	00		 call	 QWORD PTR __imp__finite
  00025	85 c0		 test	 eax, eax
  00027	74 1b		 je	 SHORT $LN13@c_sinh
  00029	48 8b 84 24 a8
	00 00 00	 mov	 rax, QWORD PTR z$[rsp]
  00031	f2 0f 10 40 08	 movsdx	 xmm0, QWORD PTR [rax+8]
  00036	ff 15 00 00 00
	00		 call	 QWORD PTR __imp__finite
  0003c	85 c0		 test	 eax, eax
  0003e	0f 85 34 02 00
	00		 jne	 $LN14@c_sinh
$LN13@c_sinh:

; 618  :         if (Py_IS_INFINITY(z.real) && Py_IS_FINITE(z.imag)
; 619  :             && (z.imag != 0.)) {

  00044	48 8b 84 24 a8
	00 00 00	 mov	 rax, QWORD PTR z$[rsp]
  0004c	f2 0f 10 00	 movsdx	 xmm0, QWORD PTR [rax]
  00050	ff 15 00 00 00
	00		 call	 QWORD PTR __imp__finite
  00056	85 c0		 test	 eax, eax
  00058	0f 85 28 01 00
	00		 jne	 $LN12@c_sinh
  0005e	48 8b 84 24 a8
	00 00 00	 mov	 rax, QWORD PTR z$[rsp]
  00066	f2 0f 10 00	 movsdx	 xmm0, QWORD PTR [rax]
  0006a	ff 15 00 00 00
	00		 call	 QWORD PTR __imp__isnan
  00070	85 c0		 test	 eax, eax
  00072	0f 85 0e 01 00
	00		 jne	 $LN12@c_sinh
  00078	48 8b 84 24 a8
	00 00 00	 mov	 rax, QWORD PTR z$[rsp]
  00080	f2 0f 10 40 08	 movsdx	 xmm0, QWORD PTR [rax+8]
  00085	ff 15 00 00 00
	00		 call	 QWORD PTR __imp__finite
  0008b	85 c0		 test	 eax, eax
  0008d	0f 84 f3 00 00
	00		 je	 $LN12@c_sinh
  00093	48 8b 84 24 a8
	00 00 00	 mov	 rax, QWORD PTR z$[rsp]
  0009b	f2 0f 10 40 08	 movsdx	 xmm0, QWORD PTR [rax+8]
  000a0	66 0f 2e 05 00
	00 00 00	 ucomisd xmm0, QWORD PTR __real@0000000000000000
  000a8	7a 06		 jp	 SHORT $LN17@c_sinh
  000aa	0f 84 d6 00 00
	00		 je	 $LN12@c_sinh
$LN17@c_sinh:

; 620  :             if (z.real > 0) {

  000b0	48 8b 84 24 a8
	00 00 00	 mov	 rax, QWORD PTR z$[rsp]
  000b8	f2 0f 10 00	 movsdx	 xmm0, QWORD PTR [rax]
  000bc	66 0f 2f 05 00
	00 00 00	 comisd	 xmm0, QWORD PTR __real@0000000000000000
  000c4	76 5c		 jbe	 SHORT $LN11@c_sinh

; 621  :                 r.real = copysign(INF, cos(z.imag));

  000c6	48 8b 84 24 a8
	00 00 00	 mov	 rax, QWORD PTR z$[rsp]
  000ce	f2 0f 10 40 08	 movsdx	 xmm0, QWORD PTR [rax+8]
  000d3	e8 00 00 00 00	 call	 cos
  000d8	66 0f 28 c8	 movapd	 xmm1, xmm0
  000dc	48 8b 05 00 00
	00 00		 mov	 rax, QWORD PTR __imp__HUGE
  000e3	f2 0f 10 00	 movsdx	 xmm0, QWORD PTR [rax]
  000e7	ff 15 00 00 00
	00		 call	 QWORD PTR __imp__copysign
  000ed	f2 0f 11 44 24
	20		 movsdx	 QWORD PTR r$[rsp], xmm0

; 622  :                 r.imag = copysign(INF, sin(z.imag));

  000f3	48 8b 84 24 a8
	00 00 00	 mov	 rax, QWORD PTR z$[rsp]
  000fb	f2 0f 10 40 08	 movsdx	 xmm0, QWORD PTR [rax+8]
  00100	e8 00 00 00 00	 call	 sin
  00105	66 0f 28 c8	 movapd	 xmm1, xmm0
  00109	48 8b 05 00 00
	00 00		 mov	 rax, QWORD PTR __imp__HUGE
  00110	f2 0f 10 00	 movsdx	 xmm0, QWORD PTR [rax]
  00114	ff 15 00 00 00
	00		 call	 QWORD PTR __imp__copysign
  0011a	f2 0f 11 44 24
	28		 movsdx	 QWORD PTR r$[rsp+8], xmm0

; 623  :             }
; 624  :             else {

  00120	eb 62		 jmp	 SHORT $LN10@c_sinh
$LN11@c_sinh:

; 625  :                 r.real = -copysign(INF, cos(z.imag));

  00122	48 8b 84 24 a8
	00 00 00	 mov	 rax, QWORD PTR z$[rsp]
  0012a	f2 0f 10 40 08	 movsdx	 xmm0, QWORD PTR [rax+8]
  0012f	e8 00 00 00 00	 call	 cos
  00134	66 0f 28 c8	 movapd	 xmm1, xmm0
  00138	48 8b 05 00 00
	00 00		 mov	 rax, QWORD PTR __imp__HUGE
  0013f	f2 0f 10 00	 movsdx	 xmm0, QWORD PTR [rax]
  00143	ff 15 00 00 00
	00		 call	 QWORD PTR __imp__copysign
  00149	66 0f 57 05 00
	00 00 00	 xorpd	 xmm0, QWORD PTR __mask@@NegDouble@
  00151	f2 0f 11 44 24
	20		 movsdx	 QWORD PTR r$[rsp], xmm0

; 626  :                 r.imag = copysign(INF, sin(z.imag));

  00157	48 8b 84 24 a8
	00 00 00	 mov	 rax, QWORD PTR z$[rsp]
  0015f	f2 0f 10 40 08	 movsdx	 xmm0, QWORD PTR [rax+8]
  00164	e8 00 00 00 00	 call	 sin
  00169	66 0f 28 c8	 movapd	 xmm1, xmm0
  0016d	48 8b 05 00 00
	00 00		 mov	 rax, QWORD PTR __imp__HUGE
  00174	f2 0f 10 00	 movsdx	 xmm0, QWORD PTR [rax]
  00178	ff 15 00 00 00
	00		 call	 QWORD PTR __imp__copysign
  0017e	f2 0f 11 44 24
	28		 movsdx	 QWORD PTR r$[rsp+8], xmm0
$LN10@c_sinh:

; 627  :             }
; 628  :         }
; 629  :         else {

  00184	eb 70		 jmp	 SHORT $LN9@c_sinh
$LN12@c_sinh:

; 630  :             r = sinh_special_values[special_type(z.real)]
; 631  :                                    [special_type(z.imag)];

  00186	48 8b 84 24 a8
	00 00 00	 mov	 rax, QWORD PTR z$[rsp]
  0018e	f2 0f 10 00	 movsdx	 xmm0, QWORD PTR [rax]
  00192	e8 00 00 00 00	 call	 special_type
  00197	48 98		 cdqe
  00199	48 6b c0 70	 imul	 rax, 112		; 00000070H
  0019d	48 8d 0d 00 00
	00 00		 lea	 rcx, OFFSET FLAT:sinh_special_values
  001a4	48 03 c8	 add	 rcx, rax
  001a7	48 8b c1	 mov	 rax, rcx
  001aa	48 89 44 24 48	 mov	 QWORD PTR tv145[rsp], rax
  001af	48 8b 8c 24 a8
	00 00 00	 mov	 rcx, QWORD PTR z$[rsp]
  001b7	f2 0f 10 41 08	 movsdx	 xmm0, QWORD PTR [rcx+8]
  001bc	e8 00 00 00 00	 call	 special_type
  001c1	48 98		 cdqe
  001c3	48 6b c0 10	 imul	 rax, 16
  001c7	48 8d 4c 24 38	 lea	 rcx, QWORD PTR $T21413[rsp]
  001cc	48 8b f9	 mov	 rdi, rcx
  001cf	48 8b 4c 24 48	 mov	 rcx, QWORD PTR tv145[rsp]
  001d4	48 8d 34 01	 lea	 rsi, QWORD PTR [rcx+rax]
  001d8	b9 10 00 00 00	 mov	 ecx, 16
  001dd	f3 a4		 rep movsb
  001df	48 8d 44 24 20	 lea	 rax, QWORD PTR r$[rsp]
  001e4	48 8d 4c 24 38	 lea	 rcx, QWORD PTR $T21413[rsp]
  001e9	48 8b f8	 mov	 rdi, rax
  001ec	48 8b f1	 mov	 rsi, rcx
  001ef	b9 10 00 00 00	 mov	 ecx, 16
  001f4	f3 a4		 rep movsb
$LN9@c_sinh:

; 632  :         }
; 633  :         /* need to set errno = EDOM if y is +/- infinity and x is not
; 634  :            a NaN */
; 635  :         if (Py_IS_INFINITY(z.imag) && !Py_IS_NAN(z.real))

  001f6	48 8b 84 24 a8
	00 00 00	 mov	 rax, QWORD PTR z$[rsp]
  001fe	f2 0f 10 40 08	 movsdx	 xmm0, QWORD PTR [rax+8]
  00203	ff 15 00 00 00
	00		 call	 QWORD PTR __imp__finite
  00209	85 c0		 test	 eax, eax
  0020b	75 3b		 jne	 SHORT $LN8@c_sinh
  0020d	48 8b 84 24 a8
	00 00 00	 mov	 rax, QWORD PTR z$[rsp]
  00215	f2 0f 10 40 08	 movsdx	 xmm0, QWORD PTR [rax+8]
  0021a	ff 15 00 00 00
	00		 call	 QWORD PTR __imp__isnan
  00220	85 c0		 test	 eax, eax
  00222	75 24		 jne	 SHORT $LN8@c_sinh
  00224	48 8b 84 24 a8
	00 00 00	 mov	 rax, QWORD PTR z$[rsp]
  0022c	f2 0f 10 00	 movsdx	 xmm0, QWORD PTR [rax]
  00230	ff 15 00 00 00
	00		 call	 QWORD PTR __imp__isnan
  00236	85 c0		 test	 eax, eax
  00238	75 0e		 jne	 SHORT $LN8@c_sinh

; 636  :             errno = EDOM;

  0023a	ff 15 00 00 00
	00		 call	 QWORD PTR __imp__errno
  00240	c7 00 21 00 00
	00		 mov	 DWORD PTR [rax], 33	; 00000021H

; 637  :         else

  00246	eb 0c		 jmp	 SHORT $LN7@c_sinh
$LN8@c_sinh:

; 638  :             errno = 0;

  00248	ff 15 00 00 00
	00		 call	 QWORD PTR __imp__errno
  0024e	c7 00 00 00 00
	00		 mov	 DWORD PTR [rax], 0
$LN7@c_sinh:

; 639  :         return r;

  00254	48 8d 44 24 20	 lea	 rax, QWORD PTR r$[rsp]
  00259	48 8b bc 24 a0
	00 00 00	 mov	 rdi, QWORD PTR $T21412[rsp]
  00261	48 8b f0	 mov	 rsi, rax
  00264	b9 10 00 00 00	 mov	 ecx, 16
  00269	f3 a4		 rep movsb
  0026b	48 8b 84 24 a0
	00 00 00	 mov	 rax, QWORD PTR $T21412[rsp]
  00273	e9 db 01 00 00	 jmp	 $LN15@c_sinh
$LN14@c_sinh:

; 640  :     }
; 641  : 
; 642  :     if (fabs(z.real) > CM_LOG_LARGE_DOUBLE) {

  00278	48 8b 84 24 a8
	00 00 00	 mov	 rax, QWORD PTR z$[rsp]
  00280	f2 0f 10 00	 movsdx	 xmm0, QWORD PTR [rax]
  00284	e8 00 00 00 00	 call	 fabs
  00289	f2 0f 11 44 24
	50		 movsdx	 QWORD PTR tv166[rsp], xmm0
  0028f	f2 0f 10 05 00
	00 00 00	 movsdx	 xmm0, QWORD PTR __real@7fcfffffffffffff
  00297	e8 00 00 00 00	 call	 log
  0029c	f2 0f 10 4c 24
	50		 movsdx	 xmm1, QWORD PTR tv166[rsp]
  002a2	66 0f 2f c8	 comisd	 xmm1, xmm0
  002a6	0f 86 b4 00 00
	00		 jbe	 $LN6@c_sinh

; 643  :         x_minus_one = z.real - copysign(1., z.real);

  002ac	48 8b 84 24 a8
	00 00 00	 mov	 rax, QWORD PTR z$[rsp]
  002b4	f2 0f 10 08	 movsdx	 xmm1, QWORD PTR [rax]
  002b8	f2 0f 10 05 00
	00 00 00	 movsdx	 xmm0, QWORD PTR __real@3ff0000000000000
  002c0	ff 15 00 00 00
	00		 call	 QWORD PTR __imp__copysign
  002c6	48 8b 84 24 a8
	00 00 00	 mov	 rax, QWORD PTR z$[rsp]
  002ce	f2 0f 10 08	 movsdx	 xmm1, QWORD PTR [rax]
  002d2	f2 0f 5c c8	 subsd	 xmm1, xmm0
  002d6	66 0f 28 c1	 movapd	 xmm0, xmm1
  002da	f2 0f 11 44 24
	30		 movsdx	 QWORD PTR x_minus_one$[rsp], xmm0

; 644  :         r.real = cos(z.imag) * sinh(x_minus_one) * Py_MATH_E;

  002e0	48 8b 84 24 a8
	00 00 00	 mov	 rax, QWORD PTR z$[rsp]
  002e8	f2 0f 10 40 08	 movsdx	 xmm0, QWORD PTR [rax+8]
  002ed	e8 00 00 00 00	 call	 cos
  002f2	f2 0f 11 44 24
	58		 movsdx	 QWORD PTR tv176[rsp], xmm0
  002f8	f2 0f 10 44 24
	30		 movsdx	 xmm0, QWORD PTR x_minus_one$[rsp]
  002fe	e8 00 00 00 00	 call	 sinh
  00303	f2 0f 10 4c 24
	58		 movsdx	 xmm1, QWORD PTR tv176[rsp]
  00309	f2 0f 59 c8	 mulsd	 xmm1, xmm0
  0030d	66 0f 28 c1	 movapd	 xmm0, xmm1
  00311	f2 0f 59 05 00
	00 00 00	 mulsd	 xmm0, QWORD PTR __real@4005bf0a8b145769
  00319	f2 0f 11 44 24
	20		 movsdx	 QWORD PTR r$[rsp], xmm0

; 645  :         r.imag = sin(z.imag) * cosh(x_minus_one) * Py_MATH_E;

  0031f	48 8b 84 24 a8
	00 00 00	 mov	 rax, QWORD PTR z$[rsp]
  00327	f2 0f 10 40 08	 movsdx	 xmm0, QWORD PTR [rax+8]
  0032c	e8 00 00 00 00	 call	 sin
  00331	f2 0f 11 44 24
	60		 movsdx	 QWORD PTR tv183[rsp], xmm0
  00337	f2 0f 10 44 24
	30		 movsdx	 xmm0, QWORD PTR x_minus_one$[rsp]
  0033d	e8 00 00 00 00	 call	 cosh
  00342	f2 0f 10 4c 24
	60		 movsdx	 xmm1, QWORD PTR tv183[rsp]
  00348	f2 0f 59 c8	 mulsd	 xmm1, xmm0
  0034c	66 0f 28 c1	 movapd	 xmm0, xmm1
  00350	f2 0f 59 05 00
	00 00 00	 mulsd	 xmm0, QWORD PTR __real@4005bf0a8b145769
  00358	f2 0f 11 44 24
	28		 movsdx	 QWORD PTR r$[rsp+8], xmm0

; 646  :     } else {

  0035e	eb 7a		 jmp	 SHORT $LN5@c_sinh
$LN6@c_sinh:

; 647  :         r.real = cos(z.imag) * sinh(z.real);

  00360	48 8b 84 24 a8
	00 00 00	 mov	 rax, QWORD PTR z$[rsp]
  00368	f2 0f 10 40 08	 movsdx	 xmm0, QWORD PTR [rax+8]
  0036d	e8 00 00 00 00	 call	 cos
  00372	f2 0f 11 44 24
	68		 movsdx	 QWORD PTR tv190[rsp], xmm0
  00378	48 8b 84 24 a8
	00 00 00	 mov	 rax, QWORD PTR z$[rsp]
  00380	f2 0f 10 00	 movsdx	 xmm0, QWORD PTR [rax]
  00384	e8 00 00 00 00	 call	 sinh
  00389	f2 0f 10 4c 24
	68		 movsdx	 xmm1, QWORD PTR tv190[rsp]
  0038f	f2 0f 59 c8	 mulsd	 xmm1, xmm0
  00393	66 0f 28 c1	 movapd	 xmm0, xmm1
  00397	f2 0f 11 44 24
	20		 movsdx	 QWORD PTR r$[rsp], xmm0

; 648  :         r.imag = sin(z.imag) * cosh(z.real);

  0039d	48 8b 84 24 a8
	00 00 00	 mov	 rax, QWORD PTR z$[rsp]
  003a5	f2 0f 10 40 08	 movsdx	 xmm0, QWORD PTR [rax+8]
  003aa	e8 00 00 00 00	 call	 sin
  003af	f2 0f 11 44 24
	70		 movsdx	 QWORD PTR tv196[rsp], xmm0
  003b5	48 8b 84 24 a8
	00 00 00	 mov	 rax, QWORD PTR z$[rsp]
  003bd	f2 0f 10 00	 movsdx	 xmm0, QWORD PTR [rax]
  003c1	e8 00 00 00 00	 call	 cosh
  003c6	f2 0f 10 4c 24
	70		 movsdx	 xmm1, QWORD PTR tv196[rsp]
  003cc	f2 0f 59 c8	 mulsd	 xmm1, xmm0
  003d0	66 0f 28 c1	 movapd	 xmm0, xmm1
  003d4	f2 0f 11 44 24
	28		 movsdx	 QWORD PTR r$[rsp+8], xmm0
$LN5@c_sinh:

; 649  :     }
; 650  :     /* detect overflow, and set errno accordingly */
; 651  :     if (Py_IS_INFINITY(r.real) || Py_IS_INFINITY(r.imag))

  003da	f2 0f 10 44 24
	20		 movsdx	 xmm0, QWORD PTR r$[rsp]
  003e0	ff 15 00 00 00
	00		 call	 QWORD PTR __imp__finite
  003e6	85 c0		 test	 eax, eax
  003e8	75 10		 jne	 SHORT $LN2@c_sinh
  003ea	f2 0f 10 44 24
	20		 movsdx	 xmm0, QWORD PTR r$[rsp]
  003f0	ff 15 00 00 00
	00		 call	 QWORD PTR __imp__isnan
  003f6	85 c0		 test	 eax, eax
  003f8	74 20		 je	 SHORT $LN3@c_sinh
$LN2@c_sinh:
  003fa	f2 0f 10 44 24
	28		 movsdx	 xmm0, QWORD PTR r$[rsp+8]
  00400	ff 15 00 00 00
	00		 call	 QWORD PTR __imp__finite
  00406	85 c0		 test	 eax, eax
  00408	75 1e		 jne	 SHORT $LN4@c_sinh
  0040a	f2 0f 10 44 24
	28		 movsdx	 xmm0, QWORD PTR r$[rsp+8]
  00410	ff 15 00 00 00
	00		 call	 QWORD PTR __imp__isnan
  00416	85 c0		 test	 eax, eax
  00418	75 0e		 jne	 SHORT $LN4@c_sinh
$LN3@c_sinh:

; 652  :         errno = ERANGE;

  0041a	ff 15 00 00 00
	00		 call	 QWORD PTR __imp__errno
  00420	c7 00 22 00 00
	00		 mov	 DWORD PTR [rax], 34	; 00000022H

; 653  :     else

  00426	eb 0c		 jmp	 SHORT $LN1@c_sinh
$LN4@c_sinh:

; 654  :         errno = 0;

  00428	ff 15 00 00 00
	00		 call	 QWORD PTR __imp__errno
  0042e	c7 00 00 00 00
	00		 mov	 DWORD PTR [rax], 0
$LN1@c_sinh:

; 655  :     return r;

  00434	48 8d 44 24 20	 lea	 rax, QWORD PTR r$[rsp]
  00439	48 8b bc 24 a0
	00 00 00	 mov	 rdi, QWORD PTR $T21412[rsp]
  00441	48 8b f0	 mov	 rsi, rax
  00444	b9 10 00 00 00	 mov	 ecx, 16
  00449	f3 a4		 rep movsb
  0044b	48 8b 84 24 a0
	00 00 00	 mov	 rax, QWORD PTR $T21412[rsp]
$LN15@c_sinh:

; 656  : }

  00453	48 81 c4 88 00
	00 00		 add	 rsp, 136		; 00000088H
  0045a	5f		 pop	 rdi
  0045b	5e		 pop	 rsi
  0045c	c3		 ret	 0
c_sinh	ENDP
_TEXT	ENDS
;	COMDAT pdata
pdata	SEGMENT
$pdata$cmath_sinh DD imagerel cmath_sinh
	DD	imagerel cmath_sinh+36
	DD	imagerel $unwind$cmath_sinh
pdata	ENDS
;	COMDAT xdata
xdata	SEGMENT
$unwind$cmath_sinh DD 010e01H
	DD	0420eH
; Function compile flags: /Odtp
xdata	ENDS
;	COMDAT cmath_sinh
_TEXT	SEGMENT
self$ = 48
args$ = 56
cmath_sinh PROC						; COMDAT

; 911  : FUNC1(cmath_sinh, c_sinh)

  00000	48 89 54 24 10	 mov	 QWORD PTR [rsp+16], rdx
  00005	48 89 4c 24 08	 mov	 QWORD PTR [rsp+8], rcx
  0000a	48 83 ec 28	 sub	 rsp, 40			; 00000028H
  0000e	48 8d 15 00 00
	00 00		 lea	 rdx, OFFSET FLAT:c_sinh
  00015	48 8b 4c 24 38	 mov	 rcx, QWORD PTR args$[rsp]
  0001a	e8 00 00 00 00	 call	 math_1
  0001f	48 83 c4 28	 add	 rsp, 40			; 00000028H
  00023	c3		 ret	 0
cmath_sinh ENDP
_TEXT	ENDS
;	COMDAT pdata
pdata	SEGMENT
$pdata$cmath_sqrt DD imagerel cmath_sqrt
	DD	imagerel cmath_sqrt+36
	DD	imagerel $unwind$cmath_sqrt
pdata	ENDS
;	COMDAT xdata
xdata	SEGMENT
$unwind$cmath_sqrt DD 010e01H
	DD	0420eH
; Function compile flags: /Odtp
xdata	ENDS
;	COMDAT cmath_sqrt
_TEXT	SEGMENT
self$ = 48
args$ = 56
cmath_sqrt PROC						; COMDAT

; 912  : FUNC1(cmath_sqrt, c_sqrt)

  00000	48 89 54 24 10	 mov	 QWORD PTR [rsp+16], rdx
  00005	48 89 4c 24 08	 mov	 QWORD PTR [rsp+8], rcx
  0000a	48 83 ec 28	 sub	 rsp, 40			; 00000028H
  0000e	48 8d 15 00 00
	00 00		 lea	 rdx, OFFSET FLAT:c_sqrt
  00015	48 8b 4c 24 38	 mov	 rcx, QWORD PTR args$[rsp]
  0001a	e8 00 00 00 00	 call	 math_1
  0001f	48 83 c4 28	 add	 rsp, 40			; 00000028H
  00023	c3		 ret	 0
cmath_sqrt ENDP
_TEXT	ENDS
;	COMDAT pdata
pdata	SEGMENT
$pdata$cmath_tan DD imagerel cmath_tan
	DD	imagerel cmath_tan+36
	DD	imagerel $unwind$cmath_tan
pdata	ENDS
;	COMDAT xdata
xdata	SEGMENT
$unwind$cmath_tan DD 010e01H
	DD	0420eH
; Function compile flags: /Odtp
xdata	ENDS
;	COMDAT cmath_tan
_TEXT	SEGMENT
self$ = 48
args$ = 56
cmath_tan PROC						; COMDAT

; 913  : FUNC1(cmath_tan, c_tan)

  00000	48 89 54 24 10	 mov	 QWORD PTR [rsp+16], rdx
  00005	48 89 4c 24 08	 mov	 QWORD PTR [rsp+8], rcx
  0000a	48 83 ec 28	 sub	 rsp, 40			; 00000028H
  0000e	48 8d 15 00 00
	00 00		 lea	 rdx, OFFSET FLAT:c_tan
  00015	48 8b 4c 24 38	 mov	 rcx, QWORD PTR args$[rsp]
  0001a	e8 00 00 00 00	 call	 math_1
  0001f	48 83 c4 28	 add	 rsp, 40			; 00000028H
  00023	c3		 ret	 0
cmath_tan ENDP
_TEXT	ENDS
PUBLIC	$T21442
PUBLIC	$T21441
;	COMDAT pdata
pdata	SEGMENT
$pdata$c_tan DD	imagerel c_tan
	DD	imagerel c_tan+210
	DD	imagerel $unwind$c_tan
pdata	ENDS
;	COMDAT xdata
xdata	SEGMENT
$unwind$c_tan DD 031001H
	DD	0700ce210H
	DD	0600bH
; Function compile flags: /Odtp
xdata	ENDS
;	COMDAT c_tan
_TEXT	SEGMENT
s$ = 32
r$ = 48
$T21440 = 64
$T21441 = 80
$T21442 = 96
$T21439 = 144
z$ = 152
c_tan	PROC						; COMDAT

; 741  : {

  00000	48 89 54 24 10	 mov	 QWORD PTR [rsp+16], rdx
  00005	48 89 4c 24 08	 mov	 QWORD PTR [rsp+8], rcx
  0000a	56		 push	 rsi
  0000b	57		 push	 rdi
  0000c	48 83 ec 78	 sub	 rsp, 120		; 00000078H

; 742  :     /* tan(z) = -i tanh(iz) */
; 743  :     Py_complex s, r;
; 744  :     s.real = -z.imag;

  00010	48 8b 84 24 98
	00 00 00	 mov	 rax, QWORD PTR z$[rsp]
  00018	f2 0f 10 40 08	 movsdx	 xmm0, QWORD PTR [rax+8]
  0001d	66 0f 57 05 00
	00 00 00	 xorpd	 xmm0, QWORD PTR __mask@@NegDouble@
  00025	f2 0f 11 44 24
	20		 movsdx	 QWORD PTR s$[rsp], xmm0

; 745  :     s.imag = z.real;

  0002b	48 8b 84 24 98
	00 00 00	 mov	 rax, QWORD PTR z$[rsp]
  00033	f2 0f 10 00	 movsdx	 xmm0, QWORD PTR [rax]
  00037	f2 0f 11 44 24
	28		 movsdx	 QWORD PTR s$[rsp+8], xmm0

; 746  :     s = c_tanh(s);

  0003d	48 8d 44 24 50	 lea	 rax, QWORD PTR $T21441[rsp]
  00042	48 8d 4c 24 20	 lea	 rcx, QWORD PTR s$[rsp]
  00047	48 8b f8	 mov	 rdi, rax
  0004a	48 8b f1	 mov	 rsi, rcx
  0004d	b9 10 00 00 00	 mov	 ecx, 16
  00052	f3 a4		 rep movsb
  00054	48 8d 54 24 50	 lea	 rdx, QWORD PTR $T21441[rsp]
  00059	48 8d 4c 24 40	 lea	 rcx, QWORD PTR $T21440[rsp]
  0005e	e8 00 00 00 00	 call	 c_tanh
  00063	48 8d 4c 24 60	 lea	 rcx, QWORD PTR $T21442[rsp]
  00068	48 8b f9	 mov	 rdi, rcx
  0006b	48 8b f0	 mov	 rsi, rax
  0006e	b9 10 00 00 00	 mov	 ecx, 16
  00073	f3 a4		 rep movsb
  00075	48 8d 44 24 20	 lea	 rax, QWORD PTR s$[rsp]
  0007a	48 8d 4c 24 60	 lea	 rcx, QWORD PTR $T21442[rsp]
  0007f	48 8b f8	 mov	 rdi, rax
  00082	48 8b f1	 mov	 rsi, rcx
  00085	b9 10 00 00 00	 mov	 ecx, 16
  0008a	f3 a4		 rep movsb

; 747  :     r.real = s.imag;

  0008c	f2 0f 10 44 24
	28		 movsdx	 xmm0, QWORD PTR s$[rsp+8]
  00092	f2 0f 11 44 24
	30		 movsdx	 QWORD PTR r$[rsp], xmm0

; 748  :     r.imag = -s.real;

  00098	f2 0f 10 44 24
	20		 movsdx	 xmm0, QWORD PTR s$[rsp]
  0009e	66 0f 57 05 00
	00 00 00	 xorpd	 xmm0, QWORD PTR __mask@@NegDouble@
  000a6	f2 0f 11 44 24
	38		 movsdx	 QWORD PTR r$[rsp+8], xmm0

; 749  :     return r;

  000ac	48 8d 44 24 30	 lea	 rax, QWORD PTR r$[rsp]
  000b1	48 8b bc 24 90
	00 00 00	 mov	 rdi, QWORD PTR $T21439[rsp]
  000b9	48 8b f0	 mov	 rsi, rax
  000bc	b9 10 00 00 00	 mov	 ecx, 16
  000c1	f3 a4		 rep movsb
  000c3	48 8b 84 24 90
	00 00 00	 mov	 rax, QWORD PTR $T21439[rsp]

; 750  : }

  000cb	48 83 c4 78	 add	 rsp, 120		; 00000078H
  000cf	5f		 pop	 rdi
  000d0	5e		 pop	 rsi
  000d1	c3		 ret	 0
c_tan	ENDP
_TEXT	ENDS
PUBLIC	$T21450
PUBLIC	__real@bff0000000000000
EXTRN	tan:PROC
EXTRN	tanh:PROC
_BSS	SEGMENT
tanh_special_values DB 0310H DUP (?)
_BSS	ENDS
;	COMDAT pdata
pdata	SEGMENT
$pdata$c_tanh DD imagerel c_tanh
	DD	imagerel c_tanh+1174
	DD	imagerel $unwind$c_tanh
pdata	ENDS
;	COMDAT xdata
xdata	SEGMENT
$unwind$c_tanh DD 041301H
	DD	0150113H
	DD	0600b700cH
xdata	ENDS
;	COMDAT __real@bff0000000000000
CONST	SEGMENT
__real@bff0000000000000 DQ 0bff0000000000000r	; -1
; Function compile flags: /Odtp
CONST	ENDS
;	COMDAT c_tanh
_TEXT	SEGMENT
denom$ = 32
cx$ = 40
ty$ = 48
txty$ = 56
r$ = 64
tx$ = 80
$T21450 = 88
tv88 = 104
tv131 = 112
tv142 = 120
tv163 = 128
tv175 = 136
tv179 = 144
$T21449 = 192
z$ = 200
c_tanh	PROC						; COMDAT

; 763  : {

  00000	48 89 54 24 10	 mov	 QWORD PTR [rsp+16], rdx
  00005	48 89 4c 24 08	 mov	 QWORD PTR [rsp+8], rcx
  0000a	56		 push	 rsi
  0000b	57		 push	 rdi
  0000c	48 81 ec a8 00
	00 00		 sub	 rsp, 168		; 000000a8H

; 764  :     /* Formula:
; 765  : 
; 766  :        tanh(x+iy) = (tanh(x)(1+tan(y)^2) + i tan(y)(1-tanh(x))^2) /
; 767  :        (1+tan(y)^2 tanh(x)^2)
; 768  : 
; 769  :        To avoid excessive roundoff error, 1-tanh(x)^2 is better computed
; 770  :        as 1/cosh(x)^2.  When abs(x) is large, we approximate 1-tanh(x)^2
; 771  :        by 4 exp(-2*x) instead, to avoid possible overflow in the
; 772  :        computation of cosh(x).
; 773  : 
; 774  :     */
; 775  : 
; 776  :     Py_complex r;
; 777  :     double tx, ty, cx, txty, denom;
; 778  : 
; 779  :     /* special treatment for tanh(+/-inf + iy) if y is finite and
; 780  :        nonzero */
; 781  :     if (!Py_IS_FINITE(z.real) || !Py_IS_FINITE(z.imag)) {

  00013	48 8b 84 24 c8
	00 00 00	 mov	 rax, QWORD PTR z$[rsp]
  0001b	f2 0f 10 00	 movsdx	 xmm0, QWORD PTR [rax]
  0001f	ff 15 00 00 00
	00		 call	 QWORD PTR __imp__finite
  00025	85 c0		 test	 eax, eax
  00027	74 1b		 je	 SHORT $LN9@c_tanh
  00029	48 8b 84 24 c8
	00 00 00	 mov	 rax, QWORD PTR z$[rsp]
  00031	f2 0f 10 40 08	 movsdx	 xmm0, QWORD PTR [rax+8]
  00036	ff 15 00 00 00
	00		 call	 QWORD PTR __imp__finite
  0003c	85 c0		 test	 eax, eax
  0003e	0f 85 4c 02 00
	00		 jne	 $LN10@c_tanh
$LN9@c_tanh:

; 782  :         if (Py_IS_INFINITY(z.real) && Py_IS_FINITE(z.imag)
; 783  :             && (z.imag != 0.)) {

  00044	48 8b 84 24 c8
	00 00 00	 mov	 rax, QWORD PTR z$[rsp]
  0004c	f2 0f 10 00	 movsdx	 xmm0, QWORD PTR [rax]
  00050	ff 15 00 00 00
	00		 call	 QWORD PTR __imp__finite
  00056	85 c0		 test	 eax, eax
  00058	0f 85 40 01 00
	00		 jne	 $LN8@c_tanh
  0005e	48 8b 84 24 c8
	00 00 00	 mov	 rax, QWORD PTR z$[rsp]
  00066	f2 0f 10 00	 movsdx	 xmm0, QWORD PTR [rax]
  0006a	ff 15 00 00 00
	00		 call	 QWORD PTR __imp__isnan
  00070	85 c0		 test	 eax, eax
  00072	0f 85 26 01 00
	00		 jne	 $LN8@c_tanh
  00078	48 8b 84 24 c8
	00 00 00	 mov	 rax, QWORD PTR z$[rsp]
  00080	f2 0f 10 40 08	 movsdx	 xmm0, QWORD PTR [rax+8]
  00085	ff 15 00 00 00
	00		 call	 QWORD PTR __imp__finite
  0008b	85 c0		 test	 eax, eax
  0008d	0f 84 0b 01 00
	00		 je	 $LN8@c_tanh
  00093	48 8b 84 24 c8
	00 00 00	 mov	 rax, QWORD PTR z$[rsp]
  0009b	f2 0f 10 40 08	 movsdx	 xmm0, QWORD PTR [rax+8]
  000a0	66 0f 2e 05 00
	00 00 00	 ucomisd xmm0, QWORD PTR __real@0000000000000000
  000a8	7a 06		 jp	 SHORT $LN13@c_tanh
  000aa	0f 84 ee 00 00
	00		 je	 $LN8@c_tanh
$LN13@c_tanh:

; 784  :             if (z.real > 0) {

  000b0	48 8b 84 24 c8
	00 00 00	 mov	 rax, QWORD PTR z$[rsp]
  000b8	f2 0f 10 00	 movsdx	 xmm0, QWORD PTR [rax]
  000bc	66 0f 2f 05 00
	00 00 00	 comisd	 xmm0, QWORD PTR __real@0000000000000000
  000c4	76 6c		 jbe	 SHORT $LN7@c_tanh

; 785  :                 r.real = 1.0;

  000c6	f2 0f 10 05 00
	00 00 00	 movsdx	 xmm0, QWORD PTR __real@3ff0000000000000
  000ce	f2 0f 11 44 24
	40		 movsdx	 QWORD PTR r$[rsp], xmm0

; 786  :                 r.imag = copysign(0.,
; 787  :                                   2.*sin(z.imag)*cos(z.imag));

  000d4	48 8b 84 24 c8
	00 00 00	 mov	 rax, QWORD PTR z$[rsp]
  000dc	f2 0f 10 40 08	 movsdx	 xmm0, QWORD PTR [rax+8]
  000e1	e8 00 00 00 00	 call	 sin
  000e6	f2 0f 10 0d 00
	00 00 00	 movsdx	 xmm1, QWORD PTR __real@4000000000000000
  000ee	f2 0f 59 c8	 mulsd	 xmm1, xmm0
  000f2	66 0f 28 c1	 movapd	 xmm0, xmm1
  000f6	f2 0f 11 44 24
	68		 movsdx	 QWORD PTR tv88[rsp], xmm0
  000fc	48 8b 84 24 c8
	00 00 00	 mov	 rax, QWORD PTR z$[rsp]
  00104	f2 0f 10 40 08	 movsdx	 xmm0, QWORD PTR [rax+8]
  00109	e8 00 00 00 00	 call	 cos
  0010e	f2 0f 10 4c 24
	68		 movsdx	 xmm1, QWORD PTR tv88[rsp]
  00114	f2 0f 59 c8	 mulsd	 xmm1, xmm0
  00118	66 0f 28 c1	 movapd	 xmm0, xmm1
  0011c	66 0f 28 c8	 movapd	 xmm1, xmm0
  00120	66 0f 57 c0	 xorpd	 xmm0, xmm0
  00124	ff 15 00 00 00
	00		 call	 QWORD PTR __imp__copysign
  0012a	f2 0f 11 44 24
	48		 movsdx	 QWORD PTR r$[rsp+8], xmm0

; 788  :             }
; 789  :             else {

  00130	eb 6a		 jmp	 SHORT $LN6@c_tanh
$LN7@c_tanh:

; 790  :                 r.real = -1.0;

  00132	f2 0f 10 05 00
	00 00 00	 movsdx	 xmm0, QWORD PTR __real@bff0000000000000
  0013a	f2 0f 11 44 24
	40		 movsdx	 QWORD PTR r$[rsp], xmm0

; 791  :                 r.imag = copysign(0.,
; 792  :                                   2.*sin(z.imag)*cos(z.imag));

  00140	48 8b 84 24 c8
	00 00 00	 mov	 rax, QWORD PTR z$[rsp]
  00148	f2 0f 10 40 08	 movsdx	 xmm0, QWORD PTR [rax+8]
  0014d	e8 00 00 00 00	 call	 sin
  00152	f2 0f 10 0d 00
	00 00 00	 movsdx	 xmm1, QWORD PTR __real@4000000000000000
  0015a	f2 0f 59 c8	 mulsd	 xmm1, xmm0
  0015e	66 0f 28 c1	 movapd	 xmm0, xmm1
  00162	f2 0f 11 44 24
	70		 movsdx	 QWORD PTR tv131[rsp], xmm0
  00168	48 8b 84 24 c8
	00 00 00	 mov	 rax, QWORD PTR z$[rsp]
  00170	f2 0f 10 40 08	 movsdx	 xmm0, QWORD PTR [rax+8]
  00175	e8 00 00 00 00	 call	 cos
  0017a	f2 0f 10 4c 24
	70		 movsdx	 xmm1, QWORD PTR tv131[rsp]
  00180	f2 0f 59 c8	 mulsd	 xmm1, xmm0
  00184	66 0f 28 c1	 movapd	 xmm0, xmm1
  00188	66 0f 28 c8	 movapd	 xmm1, xmm0
  0018c	66 0f 57 c0	 xorpd	 xmm0, xmm0
  00190	ff 15 00 00 00
	00		 call	 QWORD PTR __imp__copysign
  00196	f2 0f 11 44 24
	48		 movsdx	 QWORD PTR r$[rsp+8], xmm0
$LN6@c_tanh:

; 793  :             }
; 794  :         }
; 795  :         else {

  0019c	eb 70		 jmp	 SHORT $LN5@c_tanh
$LN8@c_tanh:

; 796  :             r = tanh_special_values[special_type(z.real)]
; 797  :                                    [special_type(z.imag)];

  0019e	48 8b 84 24 c8
	00 00 00	 mov	 rax, QWORD PTR z$[rsp]
  001a6	f2 0f 10 00	 movsdx	 xmm0, QWORD PTR [rax]
  001aa	e8 00 00 00 00	 call	 special_type
  001af	48 98		 cdqe
  001b1	48 6b c0 70	 imul	 rax, 112		; 00000070H
  001b5	48 8d 0d 00 00
	00 00		 lea	 rcx, OFFSET FLAT:tanh_special_values
  001bc	48 03 c8	 add	 rcx, rax
  001bf	48 8b c1	 mov	 rax, rcx
  001c2	48 89 44 24 78	 mov	 QWORD PTR tv142[rsp], rax
  001c7	48 8b 8c 24 c8
	00 00 00	 mov	 rcx, QWORD PTR z$[rsp]
  001cf	f2 0f 10 41 08	 movsdx	 xmm0, QWORD PTR [rcx+8]
  001d4	e8 00 00 00 00	 call	 special_type
  001d9	48 98		 cdqe
  001db	48 6b c0 10	 imul	 rax, 16
  001df	48 8d 4c 24 58	 lea	 rcx, QWORD PTR $T21450[rsp]
  001e4	48 8b f9	 mov	 rdi, rcx
  001e7	48 8b 4c 24 78	 mov	 rcx, QWORD PTR tv142[rsp]
  001ec	48 8d 34 01	 lea	 rsi, QWORD PTR [rcx+rax]
  001f0	b9 10 00 00 00	 mov	 ecx, 16
  001f5	f3 a4		 rep movsb
  001f7	48 8d 44 24 40	 lea	 rax, QWORD PTR r$[rsp]
  001fc	48 8d 4c 24 58	 lea	 rcx, QWORD PTR $T21450[rsp]
  00201	48 8b f8	 mov	 rdi, rax
  00204	48 8b f1	 mov	 rsi, rcx
  00207	b9 10 00 00 00	 mov	 ecx, 16
  0020c	f3 a4		 rep movsb
$LN5@c_tanh:

; 798  :         }
; 799  :         /* need to set errno = EDOM if z.imag is +/-infinity and
; 800  :            z.real is finite */
; 801  :         if (Py_IS_INFINITY(z.imag) && Py_IS_FINITE(z.real))

  0020e	48 8b 84 24 c8
	00 00 00	 mov	 rax, QWORD PTR z$[rsp]
  00216	f2 0f 10 40 08	 movsdx	 xmm0, QWORD PTR [rax+8]
  0021b	ff 15 00 00 00
	00		 call	 QWORD PTR __imp__finite
  00221	85 c0		 test	 eax, eax
  00223	75 3b		 jne	 SHORT $LN4@c_tanh
  00225	48 8b 84 24 c8
	00 00 00	 mov	 rax, QWORD PTR z$[rsp]
  0022d	f2 0f 10 40 08	 movsdx	 xmm0, QWORD PTR [rax+8]
  00232	ff 15 00 00 00
	00		 call	 QWORD PTR __imp__isnan
  00238	85 c0		 test	 eax, eax
  0023a	75 24		 jne	 SHORT $LN4@c_tanh
  0023c	48 8b 84 24 c8
	00 00 00	 mov	 rax, QWORD PTR z$[rsp]
  00244	f2 0f 10 00	 movsdx	 xmm0, QWORD PTR [rax]
  00248	ff 15 00 00 00
	00		 call	 QWORD PTR __imp__finite
  0024e	85 c0		 test	 eax, eax
  00250	74 0e		 je	 SHORT $LN4@c_tanh

; 802  :             errno = EDOM;

  00252	ff 15 00 00 00
	00		 call	 QWORD PTR __imp__errno
  00258	c7 00 21 00 00
	00		 mov	 DWORD PTR [rax], 33	; 00000021H

; 803  :         else

  0025e	eb 0c		 jmp	 SHORT $LN3@c_tanh
$LN4@c_tanh:

; 804  :             errno = 0;

  00260	ff 15 00 00 00
	00		 call	 QWORD PTR __imp__errno
  00266	c7 00 00 00 00
	00		 mov	 DWORD PTR [rax], 0
$LN3@c_tanh:

; 805  :         return r;

  0026c	48 8d 44 24 40	 lea	 rax, QWORD PTR r$[rsp]
  00271	48 8b bc 24 c0
	00 00 00	 mov	 rdi, QWORD PTR $T21449[rsp]
  00279	48 8b f0	 mov	 rsi, rax
  0027c	b9 10 00 00 00	 mov	 ecx, 16
  00281	f3 a4		 rep movsb
  00283	48 8b 84 24 c0
	00 00 00	 mov	 rax, QWORD PTR $T21449[rsp]
  0028b	e9 fc 01 00 00	 jmp	 $LN11@c_tanh
$LN10@c_tanh:

; 806  :     }
; 807  : 
; 808  :     /* danger of overflow in 2.*z.imag !*/
; 809  :     if (fabs(z.real) > CM_LOG_LARGE_DOUBLE) {

  00290	48 8b 84 24 c8
	00 00 00	 mov	 rax, QWORD PTR z$[rsp]
  00298	f2 0f 10 00	 movsdx	 xmm0, QWORD PTR [rax]
  0029c	e8 00 00 00 00	 call	 fabs
  002a1	f2 0f 11 84 24
	80 00 00 00	 movsdx	 QWORD PTR tv163[rsp], xmm0
  002aa	f2 0f 10 05 00
	00 00 00	 movsdx	 xmm0, QWORD PTR __real@7fcfffffffffffff
  002b2	e8 00 00 00 00	 call	 log
  002b7	f2 0f 10 8c 24
	80 00 00 00	 movsdx	 xmm1, QWORD PTR tv163[rsp]
  002c0	66 0f 2f c8	 comisd	 xmm1, xmm0
  002c4	0f 86 b9 00 00
	00		 jbe	 $LN2@c_tanh

; 810  :         r.real = copysign(1., z.real);

  002ca	48 8b 84 24 c8
	00 00 00	 mov	 rax, QWORD PTR z$[rsp]
  002d2	f2 0f 10 08	 movsdx	 xmm1, QWORD PTR [rax]
  002d6	f2 0f 10 05 00
	00 00 00	 movsdx	 xmm0, QWORD PTR __real@3ff0000000000000
  002de	ff 15 00 00 00
	00		 call	 QWORD PTR __imp__copysign
  002e4	f2 0f 11 44 24
	40		 movsdx	 QWORD PTR r$[rsp], xmm0

; 811  :         r.imag = 4.*sin(z.imag)*cos(z.imag)*exp(-2.*fabs(z.real));

  002ea	48 8b 84 24 c8
	00 00 00	 mov	 rax, QWORD PTR z$[rsp]
  002f2	f2 0f 10 40 08	 movsdx	 xmm0, QWORD PTR [rax+8]
  002f7	e8 00 00 00 00	 call	 sin
  002fc	f2 0f 10 0d 00
	00 00 00	 movsdx	 xmm1, QWORD PTR __real@4010000000000000
  00304	f2 0f 59 c8	 mulsd	 xmm1, xmm0
  00308	66 0f 28 c1	 movapd	 xmm0, xmm1
  0030c	f2 0f 11 84 24
	88 00 00 00	 movsdx	 QWORD PTR tv175[rsp], xmm0
  00315	48 8b 84 24 c8
	00 00 00	 mov	 rax, QWORD PTR z$[rsp]
  0031d	f2 0f 10 40 08	 movsdx	 xmm0, QWORD PTR [rax+8]
  00322	e8 00 00 00 00	 call	 cos
  00327	f2 0f 10 8c 24
	88 00 00 00	 movsdx	 xmm1, QWORD PTR tv175[rsp]
  00330	f2 0f 59 c8	 mulsd	 xmm1, xmm0
  00334	66 0f 28 c1	 movapd	 xmm0, xmm1
  00338	f2 0f 11 84 24
	90 00 00 00	 movsdx	 QWORD PTR tv179[rsp], xmm0
  00341	48 8b 84 24 c8
	00 00 00	 mov	 rax, QWORD PTR z$[rsp]
  00349	f2 0f 10 00	 movsdx	 xmm0, QWORD PTR [rax]
  0034d	e8 00 00 00 00	 call	 fabs
  00352	f2 0f 10 0d 00
	00 00 00	 movsdx	 xmm1, QWORD PTR __real@c000000000000000
  0035a	f2 0f 59 c8	 mulsd	 xmm1, xmm0
  0035e	66 0f 28 c1	 movapd	 xmm0, xmm1
  00362	e8 00 00 00 00	 call	 exp
  00367	f2 0f 10 8c 24
	90 00 00 00	 movsdx	 xmm1, QWORD PTR tv179[rsp]
  00370	f2 0f 59 c8	 mulsd	 xmm1, xmm0
  00374	66 0f 28 c1	 movapd	 xmm0, xmm1
  00378	f2 0f 11 44 24
	48		 movsdx	 QWORD PTR r$[rsp+8], xmm0

; 812  :     } else {

  0037e	e9 de 00 00 00	 jmp	 $LN1@c_tanh
$LN2@c_tanh:

; 813  :         tx = tanh(z.real);

  00383	48 8b 84 24 c8
	00 00 00	 mov	 rax, QWORD PTR z$[rsp]
  0038b	f2 0f 10 00	 movsdx	 xmm0, QWORD PTR [rax]
  0038f	e8 00 00 00 00	 call	 tanh
  00394	f2 0f 11 44 24
	50		 movsdx	 QWORD PTR tx$[rsp], xmm0

; 814  :         ty = tan(z.imag);

  0039a	48 8b 84 24 c8
	00 00 00	 mov	 rax, QWORD PTR z$[rsp]
  003a2	f2 0f 10 40 08	 movsdx	 xmm0, QWORD PTR [rax+8]
  003a7	e8 00 00 00 00	 call	 tan
  003ac	f2 0f 11 44 24
	30		 movsdx	 QWORD PTR ty$[rsp], xmm0

; 815  :         cx = 1./cosh(z.real);

  003b2	48 8b 84 24 c8
	00 00 00	 mov	 rax, QWORD PTR z$[rsp]
  003ba	f2 0f 10 00	 movsdx	 xmm0, QWORD PTR [rax]
  003be	e8 00 00 00 00	 call	 cosh
  003c3	f2 0f 10 0d 00
	00 00 00	 movsdx	 xmm1, QWORD PTR __real@3ff0000000000000
  003cb	f2 0f 5e c8	 divsd	 xmm1, xmm0
  003cf	66 0f 28 c1	 movapd	 xmm0, xmm1
  003d3	f2 0f 11 44 24
	28		 movsdx	 QWORD PTR cx$[rsp], xmm0

; 816  :         txty = tx*ty;

  003d9	f2 0f 10 44 24
	50		 movsdx	 xmm0, QWORD PTR tx$[rsp]
  003df	f2 0f 59 44 24
	30		 mulsd	 xmm0, QWORD PTR ty$[rsp]
  003e5	f2 0f 11 44 24
	38		 movsdx	 QWORD PTR txty$[rsp], xmm0

; 817  :         denom = 1. + txty*txty;

  003eb	f2 0f 10 44 24
	38		 movsdx	 xmm0, QWORD PTR txty$[rsp]
  003f1	f2 0f 59 44 24
	38		 mulsd	 xmm0, QWORD PTR txty$[rsp]
  003f7	f2 0f 10 0d 00
	00 00 00	 movsdx	 xmm1, QWORD PTR __real@3ff0000000000000
  003ff	f2 0f 58 c8	 addsd	 xmm1, xmm0
  00403	66 0f 28 c1	 movapd	 xmm0, xmm1
  00407	f2 0f 11 44 24
	20		 movsdx	 QWORD PTR denom$[rsp], xmm0

; 818  :         r.real = tx*(1.+ty*ty)/denom;

  0040d	f2 0f 10 44 24
	30		 movsdx	 xmm0, QWORD PTR ty$[rsp]
  00413	f2 0f 59 44 24
	30		 mulsd	 xmm0, QWORD PTR ty$[rsp]
  00419	f2 0f 10 0d 00
	00 00 00	 movsdx	 xmm1, QWORD PTR __real@3ff0000000000000
  00421	f2 0f 58 c8	 addsd	 xmm1, xmm0
  00425	66 0f 28 c1	 movapd	 xmm0, xmm1
  00429	f2 0f 10 4c 24
	50		 movsdx	 xmm1, QWORD PTR tx$[rsp]
  0042f	f2 0f 59 c8	 mulsd	 xmm1, xmm0
  00433	66 0f 28 c1	 movapd	 xmm0, xmm1
  00437	f2 0f 5e 44 24
	20		 divsd	 xmm0, QWORD PTR denom$[rsp]
  0043d	f2 0f 11 44 24
	40		 movsdx	 QWORD PTR r$[rsp], xmm0

; 819  :         r.imag = ((ty/denom)*cx)*cx;

  00443	f2 0f 10 44 24
	30		 movsdx	 xmm0, QWORD PTR ty$[rsp]
  00449	f2 0f 5e 44 24
	20		 divsd	 xmm0, QWORD PTR denom$[rsp]
  0044f	f2 0f 59 44 24
	28		 mulsd	 xmm0, QWORD PTR cx$[rsp]
  00455	f2 0f 59 44 24
	28		 mulsd	 xmm0, QWORD PTR cx$[rsp]
  0045b	f2 0f 11 44 24
	48		 movsdx	 QWORD PTR r$[rsp+8], xmm0
$LN1@c_tanh:

; 820  :     }
; 821  :     errno = 0;

  00461	ff 15 00 00 00
	00		 call	 QWORD PTR __imp__errno
  00467	c7 00 00 00 00
	00		 mov	 DWORD PTR [rax], 0

; 822  :     return r;

  0046d	48 8d 44 24 40	 lea	 rax, QWORD PTR r$[rsp]
  00472	48 8b bc 24 c0
	00 00 00	 mov	 rdi, QWORD PTR $T21449[rsp]
  0047a	48 8b f0	 mov	 rsi, rax
  0047d	b9 10 00 00 00	 mov	 ecx, 16
  00482	f3 a4		 rep movsb
  00484	48 8b 84 24 c0
	00 00 00	 mov	 rax, QWORD PTR $T21449[rsp]
$LN11@c_tanh:

; 823  : }

  0048c	48 81 c4 a8 00
	00 00		 add	 rsp, 168		; 000000a8H
  00493	5f		 pop	 rdi
  00494	5e		 pop	 rsi
  00495	c3		 ret	 0
c_tanh	ENDP
_TEXT	ENDS
;	COMDAT pdata
pdata	SEGMENT
$pdata$cmath_tanh DD imagerel cmath_tanh
	DD	imagerel cmath_tanh+36
	DD	imagerel $unwind$cmath_tanh
pdata	ENDS
;	COMDAT xdata
xdata	SEGMENT
$unwind$cmath_tanh DD 010e01H
	DD	0420eH
; Function compile flags: /Odtp
xdata	ENDS
;	COMDAT cmath_tanh
_TEXT	SEGMENT
self$ = 48
args$ = 56
cmath_tanh PROC						; COMDAT

; 914  : FUNC1(cmath_tanh, c_tanh)

  00000	48 89 54 24 10	 mov	 QWORD PTR [rsp+16], rdx
  00005	48 89 4c 24 08	 mov	 QWORD PTR [rsp+8], rcx
  0000a	48 83 ec 28	 sub	 rsp, 40			; 00000028H
  0000e	48 8d 15 00 00
	00 00		 lea	 rdx, OFFSET FLAT:c_tanh
  00015	48 8b 4c 24 38	 mov	 rcx, QWORD PTR args$[rsp]
  0001a	e8 00 00 00 00	 call	 math_1
  0001f	48 83 c4 28	 add	 rsp, 40			; 00000028H
  00023	c3		 ret	 0
cmath_tanh ENDP
_TEXT	ENDS
PUBLIC	$T21466
PUBLIC	??_C@_07FENOPOFN@D?3phase?$AA@			; `string'
EXTRN	PyFloat_FromDouble:PROC
;	COMDAT pdata
pdata	SEGMENT
$pdata$cmath_phase DD imagerel cmath_phase
	DD	imagerel cmath_phase+135
	DD	imagerel $unwind$cmath_phase
pdata	ENDS
;	COMDAT xdata
xdata	SEGMENT
$unwind$cmath_phase DD 031001H
	DD	0700ca210H
	DD	0600bH
xdata	ENDS
;	COMDAT ??_C@_07FENOPOFN@D?3phase?$AA@
CONST	SEGMENT
??_C@_07FENOPOFN@D?3phase?$AA@ DB 'D:phase', 00H	; `string'
; Function compile flags: /Odtp
CONST	ENDS
;	COMDAT cmath_phase
_TEXT	SEGMENT
z$ = 32
phi$ = 48
$T21466 = 64
self$ = 112
args$ = 120
cmath_phase PROC					; COMDAT

; 918  : {

  00000	48 89 54 24 10	 mov	 QWORD PTR [rsp+16], rdx
  00005	48 89 4c 24 08	 mov	 QWORD PTR [rsp+8], rcx
  0000a	56		 push	 rsi
  0000b	57		 push	 rdi
  0000c	48 83 ec 58	 sub	 rsp, 88			; 00000058H

; 919  :     Py_complex z;
; 920  :     double phi;
; 921  :     if (!PyArg_ParseTuple(args, "D:phase", &z))

  00010	4c 8d 44 24 20	 lea	 r8, QWORD PTR z$[rsp]
  00015	48 8d 15 00 00
	00 00		 lea	 rdx, OFFSET FLAT:??_C@_07FENOPOFN@D?3phase?$AA@
  0001c	48 8b 4c 24 78	 mov	 rcx, QWORD PTR args$[rsp]
  00021	e8 00 00 00 00	 call	 PyArg_ParseTuple
  00026	85 c0		 test	 eax, eax
  00028	75 04		 jne	 SHORT $LN3@cmath_phas

; 922  :         return NULL;

  0002a	33 c0		 xor	 eax, eax
  0002c	eb 52		 jmp	 SHORT $LN4@cmath_phas
$LN3@cmath_phas:

; 923  :     errno = 0;

  0002e	ff 15 00 00 00
	00		 call	 QWORD PTR __imp__errno
  00034	c7 00 00 00 00
	00		 mov	 DWORD PTR [rax], 0

; 924  :     PyFPE_START_PROTECT("arg function", return 0)
; 925  :     phi = c_atan2(z);

  0003a	48 8d 44 24 40	 lea	 rax, QWORD PTR $T21466[rsp]
  0003f	48 8d 4c 24 20	 lea	 rcx, QWORD PTR z$[rsp]
  00044	48 8b f8	 mov	 rdi, rax
  00047	48 8b f1	 mov	 rsi, rcx
  0004a	b9 10 00 00 00	 mov	 ecx, 16
  0004f	f3 a4		 rep movsb
  00051	48 8d 4c 24 40	 lea	 rcx, QWORD PTR $T21466[rsp]
  00056	e8 00 00 00 00	 call	 c_atan2
  0005b	f2 0f 11 44 24
	30		 movsdx	 QWORD PTR phi$[rsp], xmm0

; 926  :     PyFPE_END_PROTECT(phi)
; 927  :     if (errno != 0)

  00061	ff 15 00 00 00
	00		 call	 QWORD PTR __imp__errno
  00067	83 38 00	 cmp	 DWORD PTR [rax], 0
  0006a	74 09		 je	 SHORT $LN2@cmath_phas

; 928  :         return math_error();

  0006c	e8 00 00 00 00	 call	 math_error
  00071	eb 0d		 jmp	 SHORT $LN4@cmath_phas

; 929  :     else

  00073	eb 0b		 jmp	 SHORT $LN1@cmath_phas
$LN2@cmath_phas:

; 930  :         return PyFloat_FromDouble(phi);

  00075	f2 0f 10 44 24
	30		 movsdx	 xmm0, QWORD PTR phi$[rsp]
  0007b	e8 00 00 00 00	 call	 PyFloat_FromDouble
$LN1@cmath_phas:
$LN4@cmath_phas:

; 931  : }

  00080	48 83 c4 58	 add	 rsp, 88			; 00000058H
  00084	5f		 pop	 rdi
  00085	5e		 pop	 rsi
  00086	c3		 ret	 0
cmath_phase ENDP
_TEXT	ENDS
PUBLIC	__real@400921fb54442d18
PUBLIC	__real@4002d97c7f3321d2
PUBLIC	__real@3fe921fb54442d18
;	COMDAT pdata
pdata	SEGMENT
$pdata$c_atan2 DD imagerel c_atan2
	DD	imagerel c_atan2+456
	DD	imagerel $unwind$c_atan2
pdata	ENDS
;	COMDAT xdata
xdata	SEGMENT
$unwind$c_atan2 DD 010901H
	DD	04209H
xdata	ENDS
;	COMDAT __real@400921fb54442d18
CONST	SEGMENT
__real@400921fb54442d18 DQ 0400921fb54442d18r	; 3.14159
CONST	ENDS
;	COMDAT __real@4002d97c7f3321d2
CONST	SEGMENT
__real@4002d97c7f3321d2 DQ 04002d97c7f3321d2r	; 2.35619
CONST	ENDS
;	COMDAT __real@3fe921fb54442d18
CONST	SEGMENT
__real@3fe921fb54442d18 DQ 03fe921fb54442d18r	; 0.785398
; Function compile flags: /Odtp
CONST	ENDS
;	COMDAT c_atan2
_TEXT	SEGMENT
z$ = 48
c_atan2	PROC						; COMDAT

; 272  : {

  00000	48 89 4c 24 08	 mov	 QWORD PTR [rsp+8], rcx
  00005	48 83 ec 28	 sub	 rsp, 40			; 00000028H

; 273  :     if (Py_IS_NAN(z.real) || Py_IS_NAN(z.imag))

  00009	48 8b 44 24 30	 mov	 rax, QWORD PTR z$[rsp]
  0000e	f2 0f 10 00	 movsdx	 xmm0, QWORD PTR [rax]
  00012	ff 15 00 00 00
	00		 call	 QWORD PTR __imp__isnan
  00018	85 c0		 test	 eax, eax
  0001a	75 14		 jne	 SHORT $LN10@c_atan2
  0001c	48 8b 44 24 30	 mov	 rax, QWORD PTR z$[rsp]
  00021	f2 0f 10 40 08	 movsdx	 xmm0, QWORD PTR [rax+8]
  00026	ff 15 00 00 00
	00		 call	 QWORD PTR __imp__isnan
  0002c	85 c0		 test	 eax, eax
  0002e	74 18		 je	 SHORT $LN11@c_atan2
$LN10@c_atan2:

; 274  :         return Py_NAN;

  00030	48 8b 05 00 00
	00 00		 mov	 rax, QWORD PTR __imp__HUGE
  00037	f2 0f 10 00	 movsdx	 xmm0, QWORD PTR [rax]
  0003b	f2 0f 59 05 00
	00 00 00	 mulsd	 xmm0, QWORD PTR __real@0000000000000000
  00043	e9 7b 01 00 00	 jmp	 $LN12@c_atan2
$LN11@c_atan2:

; 275  :     if (Py_IS_INFINITY(z.imag)) {

  00048	48 8b 44 24 30	 mov	 rax, QWORD PTR z$[rsp]
  0004d	f2 0f 10 40 08	 movsdx	 xmm0, QWORD PTR [rax+8]
  00052	ff 15 00 00 00
	00		 call	 QWORD PTR __imp__finite
  00058	85 c0		 test	 eax, eax
  0005a	0f 85 ba 00 00
	00		 jne	 $LN9@c_atan2
  00060	48 8b 44 24 30	 mov	 rax, QWORD PTR z$[rsp]
  00065	f2 0f 10 40 08	 movsdx	 xmm0, QWORD PTR [rax+8]
  0006a	ff 15 00 00 00
	00		 call	 QWORD PTR __imp__isnan
  00070	85 c0		 test	 eax, eax
  00072	0f 85 a2 00 00
	00		 jne	 $LN9@c_atan2

; 276  :         if (Py_IS_INFINITY(z.real)) {

  00078	48 8b 44 24 30	 mov	 rax, QWORD PTR z$[rsp]
  0007d	f2 0f 10 00	 movsdx	 xmm0, QWORD PTR [rax]
  00081	ff 15 00 00 00
	00		 call	 QWORD PTR __imp__finite
  00087	85 c0		 test	 eax, eax
  00089	75 72		 jne	 SHORT $LN8@c_atan2
  0008b	48 8b 44 24 30	 mov	 rax, QWORD PTR z$[rsp]
  00090	f2 0f 10 00	 movsdx	 xmm0, QWORD PTR [rax]
  00094	ff 15 00 00 00
	00		 call	 QWORD PTR __imp__isnan
  0009a	85 c0		 test	 eax, eax
  0009c	75 5f		 jne	 SHORT $LN8@c_atan2

; 277  :             if (copysign(1., z.real) == 1.)

  0009e	48 8b 44 24 30	 mov	 rax, QWORD PTR z$[rsp]
  000a3	f2 0f 10 08	 movsdx	 xmm1, QWORD PTR [rax]
  000a7	f2 0f 10 05 00
	00 00 00	 movsdx	 xmm0, QWORD PTR __real@3ff0000000000000
  000af	ff 15 00 00 00
	00		 call	 QWORD PTR __imp__copysign
  000b5	66 0f 2e 05 00
	00 00 00	 ucomisd xmm0, QWORD PTR __real@3ff0000000000000
  000bd	7a 21		 jp	 SHORT $LN7@c_atan2
  000bf	75 1f		 jne	 SHORT $LN7@c_atan2

; 278  :                 /* atan2(+-inf, +inf) == +-pi/4 */
; 279  :                 return copysign(0.25*Py_MATH_PI, z.imag);

  000c1	48 8b 44 24 30	 mov	 rax, QWORD PTR z$[rsp]
  000c6	f2 0f 10 48 08	 movsdx	 xmm1, QWORD PTR [rax+8]
  000cb	f2 0f 10 05 00
	00 00 00	 movsdx	 xmm0, QWORD PTR __real@3fe921fb54442d18
  000d3	ff 15 00 00 00
	00		 call	 QWORD PTR __imp__copysign
  000d9	e9 e5 00 00 00	 jmp	 $LN12@c_atan2

; 280  :             else

  000de	eb 1d		 jmp	 SHORT $LN6@c_atan2
$LN7@c_atan2:

; 281  :                 /* atan2(+-inf, -inf) == +-pi*3/4 */
; 282  :                 return copysign(0.75*Py_MATH_PI, z.imag);

  000e0	48 8b 44 24 30	 mov	 rax, QWORD PTR z$[rsp]
  000e5	f2 0f 10 48 08	 movsdx	 xmm1, QWORD PTR [rax+8]
  000ea	f2 0f 10 05 00
	00 00 00	 movsdx	 xmm0, QWORD PTR __real@4002d97c7f3321d2
  000f2	ff 15 00 00 00
	00		 call	 QWORD PTR __imp__copysign
  000f8	e9 c6 00 00 00	 jmp	 $LN12@c_atan2
$LN6@c_atan2:
$LN8@c_atan2:

; 283  :         }
; 284  :         /* atan2(+-inf, x) == +-pi/2 for finite x */
; 285  :         return copysign(0.5*Py_MATH_PI, z.imag);

  000fd	48 8b 44 24 30	 mov	 rax, QWORD PTR z$[rsp]
  00102	f2 0f 10 48 08	 movsdx	 xmm1, QWORD PTR [rax+8]
  00107	f2 0f 10 05 00
	00 00 00	 movsdx	 xmm0, QWORD PTR __real@3ff921fb54442d18
  0010f	ff 15 00 00 00
	00		 call	 QWORD PTR __imp__copysign
  00115	e9 a9 00 00 00	 jmp	 $LN12@c_atan2
$LN9@c_atan2:

; 286  :     }
; 287  :     if (Py_IS_INFINITY(z.real) || z.imag == 0.) {

  0011a	48 8b 44 24 30	 mov	 rax, QWORD PTR z$[rsp]
  0011f	f2 0f 10 00	 movsdx	 xmm0, QWORD PTR [rax]
  00123	ff 15 00 00 00
	00		 call	 QWORD PTR __imp__finite
  00129	85 c0		 test	 eax, eax
  0012b	75 13		 jne	 SHORT $LN3@c_atan2
  0012d	48 8b 44 24 30	 mov	 rax, QWORD PTR z$[rsp]
  00132	f2 0f 10 00	 movsdx	 xmm0, QWORD PTR [rax]
  00136	ff 15 00 00 00
	00		 call	 QWORD PTR __imp__isnan
  0013c	85 c0		 test	 eax, eax
  0013e	74 16		 je	 SHORT $LN4@c_atan2
$LN3@c_atan2:
  00140	48 8b 44 24 30	 mov	 rax, QWORD PTR z$[rsp]
  00145	f2 0f 10 40 08	 movsdx	 xmm0, QWORD PTR [rax+8]
  0014a	66 0f 2e 05 00
	00 00 00	 ucomisd xmm0, QWORD PTR __real@0000000000000000
  00152	7a 57		 jp	 SHORT $LN5@c_atan2
  00154	75 55		 jne	 SHORT $LN5@c_atan2
$LN4@c_atan2:

; 288  :         if (copysign(1., z.real) == 1.)

  00156	48 8b 44 24 30	 mov	 rax, QWORD PTR z$[rsp]
  0015b	f2 0f 10 08	 movsdx	 xmm1, QWORD PTR [rax]
  0015f	f2 0f 10 05 00
	00 00 00	 movsdx	 xmm0, QWORD PTR __real@3ff0000000000000
  00167	ff 15 00 00 00
	00		 call	 QWORD PTR __imp__copysign
  0016d	66 0f 2e 05 00
	00 00 00	 ucomisd xmm0, QWORD PTR __real@3ff0000000000000
  00175	7a 1a		 jp	 SHORT $LN2@c_atan2
  00177	75 18		 jne	 SHORT $LN2@c_atan2

; 289  :             /* atan2(+-y, +inf) = atan2(+-0, +x) = +-0. */
; 290  :             return copysign(0., z.imag);

  00179	48 8b 44 24 30	 mov	 rax, QWORD PTR z$[rsp]
  0017e	f2 0f 10 48 08	 movsdx	 xmm1, QWORD PTR [rax+8]
  00183	66 0f 57 c0	 xorpd	 xmm0, xmm0
  00187	ff 15 00 00 00
	00		 call	 QWORD PTR __imp__copysign
  0018d	eb 34		 jmp	 SHORT $LN12@c_atan2

; 291  :         else

  0018f	eb 1a		 jmp	 SHORT $LN1@c_atan2
$LN2@c_atan2:

; 292  :             /* atan2(+-y, -inf) = atan2(+-0., -x) = +-pi. */
; 293  :             return copysign(Py_MATH_PI, z.imag);

  00191	48 8b 44 24 30	 mov	 rax, QWORD PTR z$[rsp]
  00196	f2 0f 10 48 08	 movsdx	 xmm1, QWORD PTR [rax+8]
  0019b	f2 0f 10 05 00
	00 00 00	 movsdx	 xmm0, QWORD PTR __real@400921fb54442d18
  001a3	ff 15 00 00 00
	00		 call	 QWORD PTR __imp__copysign
  001a9	eb 18		 jmp	 SHORT $LN12@c_atan2
$LN1@c_atan2:
$LN5@c_atan2:

; 294  :     }
; 295  :     return atan2(z.imag, z.real);

  001ab	48 8b 44 24 30	 mov	 rax, QWORD PTR z$[rsp]
  001b0	f2 0f 10 08	 movsdx	 xmm1, QWORD PTR [rax]
  001b4	48 8b 44 24 30	 mov	 rax, QWORD PTR z$[rsp]
  001b9	f2 0f 10 40 08	 movsdx	 xmm0, QWORD PTR [rax+8]
  001be	e8 00 00 00 00	 call	 atan2
$LN12@c_atan2:

; 296  : }

  001c3	48 83 c4 28	 add	 rsp, 40			; 00000028H
  001c7	c3		 ret	 0
c_atan2	ENDP
_TEXT	ENDS
PUBLIC	??_C@_02EOPBOLLC@dd?$AA@			; `string'
PUBLIC	$T21486
PUBLIC	$T21485
PUBLIC	??_C@_07OLFAJBI@D?3polar?$AA@			; `string'
EXTRN	Py_BuildValue:PROC
EXTRN	_Py_c_abs:PROC
;	COMDAT pdata
pdata	SEGMENT
$pdata$cmath_polar DD imagerel cmath_polar
	DD	imagerel cmath_polar+191
	DD	imagerel $unwind$cmath_polar
pdata	ENDS
;	COMDAT xdata
xdata	SEGMENT
$unwind$cmath_polar DD 031001H
	DD	0700cc210H
	DD	0600bH
xdata	ENDS
;	COMDAT ??_C@_02EOPBOLLC@dd?$AA@
CONST	SEGMENT
??_C@_02EOPBOLLC@dd?$AA@ DB 'dd', 00H			; `string'
CONST	ENDS
;	COMDAT ??_C@_07OLFAJBI@D?3polar?$AA@
CONST	SEGMENT
??_C@_07OLFAJBI@D?3polar?$AA@ DB 'D:polar', 00H		; `string'
; Function compile flags: /Odtp
CONST	ENDS
;	COMDAT cmath_polar
_TEXT	SEGMENT
z$ = 32
r$ = 48
phi$ = 56
$T21485 = 64
$T21486 = 80
self$ = 128
args$ = 136
cmath_polar PROC					; COMDAT

; 939  : {

  00000	48 89 54 24 10	 mov	 QWORD PTR [rsp+16], rdx
  00005	48 89 4c 24 08	 mov	 QWORD PTR [rsp+8], rcx
  0000a	56		 push	 rsi
  0000b	57		 push	 rdi
  0000c	48 83 ec 68	 sub	 rsp, 104		; 00000068H

; 940  :     Py_complex z;
; 941  :     double r, phi;
; 942  :     if (!PyArg_ParseTuple(args, "D:polar", &z))

  00010	4c 8d 44 24 20	 lea	 r8, QWORD PTR z$[rsp]
  00015	48 8d 15 00 00
	00 00		 lea	 rdx, OFFSET FLAT:??_C@_07OLFAJBI@D?3polar?$AA@
  0001c	48 8b 8c 24 88
	00 00 00	 mov	 rcx, QWORD PTR args$[rsp]
  00024	e8 00 00 00 00	 call	 PyArg_ParseTuple
  00029	85 c0		 test	 eax, eax
  0002b	75 07		 jne	 SHORT $LN3@cmath_pola

; 943  :         return NULL;

  0002d	33 c0		 xor	 eax, eax
  0002f	e9 84 00 00 00	 jmp	 $LN4@cmath_pola
$LN3@cmath_pola:

; 944  :     PyFPE_START_PROTECT("polar function", return 0)
; 945  :     phi = c_atan2(z); /* should not cause any exception */

  00034	48 8d 44 24 40	 lea	 rax, QWORD PTR $T21485[rsp]
  00039	48 8d 4c 24 20	 lea	 rcx, QWORD PTR z$[rsp]
  0003e	48 8b f8	 mov	 rdi, rax
  00041	48 8b f1	 mov	 rsi, rcx
  00044	b9 10 00 00 00	 mov	 ecx, 16
  00049	f3 a4		 rep movsb
  0004b	48 8d 4c 24 40	 lea	 rcx, QWORD PTR $T21485[rsp]
  00050	e8 00 00 00 00	 call	 c_atan2
  00055	f2 0f 11 44 24
	38		 movsdx	 QWORD PTR phi$[rsp], xmm0

; 946  :     r = c_abs(z); /* sets errno to ERANGE on overflow;  otherwise 0 */

  0005b	48 8d 44 24 50	 lea	 rax, QWORD PTR $T21486[rsp]
  00060	48 8d 4c 24 20	 lea	 rcx, QWORD PTR z$[rsp]
  00065	48 8b f8	 mov	 rdi, rax
  00068	48 8b f1	 mov	 rsi, rcx
  0006b	b9 10 00 00 00	 mov	 ecx, 16
  00070	f3 a4		 rep movsb
  00072	48 8d 4c 24 50	 lea	 rcx, QWORD PTR $T21486[rsp]
  00077	e8 00 00 00 00	 call	 _Py_c_abs
  0007c	f2 0f 11 44 24
	30		 movsdx	 QWORD PTR r$[rsp], xmm0

; 947  :     PyFPE_END_PROTECT(r)
; 948  :     if (errno != 0)

  00082	ff 15 00 00 00
	00		 call	 QWORD PTR __imp__errno
  00088	83 38 00	 cmp	 DWORD PTR [rax], 0
  0008b	74 09		 je	 SHORT $LN2@cmath_pola

; 949  :         return math_error();

  0008d	e8 00 00 00 00	 call	 math_error
  00092	eb 24		 jmp	 SHORT $LN4@cmath_pola

; 950  :     else

  00094	eb 22		 jmp	 SHORT $LN1@cmath_pola
$LN2@cmath_pola:

; 951  :         return Py_BuildValue("dd", r, phi);

  00096	f2 0f 10 54 24
	38		 movsdx	 xmm2, QWORD PTR phi$[rsp]
  0009c	66 49 0f 7e d0	 movd	 r8, xmm2
  000a1	f2 0f 10 4c 24
	30		 movsdx	 xmm1, QWORD PTR r$[rsp]
  000a7	66 48 0f 7e ca	 movd	 rdx, xmm1
  000ac	48 8d 0d 00 00
	00 00		 lea	 rcx, OFFSET FLAT:??_C@_02EOPBOLLC@dd?$AA@
  000b3	e8 00 00 00 00	 call	 Py_BuildValue
$LN1@cmath_pola:
$LN4@cmath_pola:

; 952  : }

  000b8	48 83 c4 68	 add	 rsp, 104		; 00000068H
  000bc	5f		 pop	 rdi
  000bd	5e		 pop	 rsi
  000be	c3		 ret	 0
cmath_polar ENDP
_TEXT	ENDS
PUBLIC	$T21493
PUBLIC	$T21495
PUBLIC	??_C@_07JKEMLPPP@dd?3rect?$AA@			; `string'
_BSS	SEGMENT
rect_special_values DB 0310H DUP (?)
_BSS	ENDS
;	COMDAT pdata
pdata	SEGMENT
$pdata$cmath_rect DD imagerel cmath_rect
	DD	imagerel cmath_rect+767
	DD	imagerel $unwind$cmath_rect
pdata	ENDS
;	COMDAT xdata
xdata	SEGMENT
$unwind$cmath_rect DD 031001H
	DD	0700ce210H
	DD	0600bH
xdata	ENDS
;	COMDAT ??_C@_07JKEMLPPP@dd?3rect?$AA@
CONST	SEGMENT
??_C@_07JKEMLPPP@dd?3rect?$AA@ DB 'dd:rect', 00H	; `string'
; Function compile flags: /Odtp
CONST	ENDS
;	COMDAT cmath_rect
_TEXT	SEGMENT
z$ = 32
r$ = 48
phi$ = 56
$T21493 = 64
$T21495 = 80
tv146 = 96
self$ = 144
args$ = 152
cmath_rect PROC						; COMDAT

; 974  : {

  00000	48 89 54 24 10	 mov	 QWORD PTR [rsp+16], rdx
  00005	48 89 4c 24 08	 mov	 QWORD PTR [rsp+8], rcx
  0000a	56		 push	 rsi
  0000b	57		 push	 rdi
  0000c	48 83 ec 78	 sub	 rsp, 120		; 00000078H

; 975  :     Py_complex z;
; 976  :     double r, phi;
; 977  :     if (!PyArg_ParseTuple(args, "dd:rect", &r, &phi))

  00010	4c 8d 4c 24 38	 lea	 r9, QWORD PTR phi$[rsp]
  00015	4c 8d 44 24 30	 lea	 r8, QWORD PTR r$[rsp]
  0001a	48 8d 15 00 00
	00 00		 lea	 rdx, OFFSET FLAT:??_C@_07JKEMLPPP@dd?3rect?$AA@
  00021	48 8b 8c 24 98
	00 00 00	 mov	 rcx, QWORD PTR args$[rsp]
  00029	e8 00 00 00 00	 call	 PyArg_ParseTuple
  0002e	85 c0		 test	 eax, eax
  00030	75 07		 jne	 SHORT $LN14@cmath_rect

; 978  :         return NULL;

  00032	33 c0		 xor	 eax, eax
  00034	e9 bf 02 00 00	 jmp	 $LN15@cmath_rect
$LN14@cmath_rect:

; 979  :     errno = 0;

  00039	ff 15 00 00 00
	00		 call	 QWORD PTR __imp__errno
  0003f	c7 00 00 00 00
	00		 mov	 DWORD PTR [rax], 0

; 980  :     PyFPE_START_PROTECT("rect function", return 0)
; 981  : 
; 982  :     /* deal with special values */
; 983  :     if (!Py_IS_FINITE(r) || !Py_IS_FINITE(phi)) {

  00045	f2 0f 10 44 24
	30		 movsdx	 xmm0, QWORD PTR r$[rsp]
  0004b	ff 15 00 00 00
	00		 call	 QWORD PTR __imp__finite
  00051	85 c0		 test	 eax, eax
  00053	74 14		 je	 SHORT $LN12@cmath_rect
  00055	f2 0f 10 44 24
	38		 movsdx	 xmm0, QWORD PTR phi$[rsp]
  0005b	ff 15 00 00 00
	00		 call	 QWORD PTR __imp__finite
  00061	85 c0		 test	 eax, eax
  00063	0f 85 d2 01 00
	00		 jne	 $LN13@cmath_rect
$LN12@cmath_rect:

; 984  :         /* if r is +/-infinity and phi is finite but nonzero then
; 985  :            result is (+-INF +-INF i), but we need to compute cos(phi)
; 986  :            and sin(phi) to figure out the signs. */
; 987  :         if (Py_IS_INFINITY(r) && (Py_IS_FINITE(phi)
; 988  :                                   && (phi != 0.))) {

  00069	f2 0f 10 44 24
	30		 movsdx	 xmm0, QWORD PTR r$[rsp]
  0006f	ff 15 00 00 00
	00		 call	 QWORD PTR __imp__finite
  00075	85 c0		 test	 eax, eax
  00077	0f 85 fa 00 00
	00		 jne	 $LN11@cmath_rect
  0007d	f2 0f 10 44 24
	30		 movsdx	 xmm0, QWORD PTR r$[rsp]
  00083	ff 15 00 00 00
	00		 call	 QWORD PTR __imp__isnan
  00089	85 c0		 test	 eax, eax
  0008b	0f 85 e6 00 00
	00		 jne	 $LN11@cmath_rect
  00091	f2 0f 10 44 24
	38		 movsdx	 xmm0, QWORD PTR phi$[rsp]
  00097	ff 15 00 00 00
	00		 call	 QWORD PTR __imp__finite
  0009d	85 c0		 test	 eax, eax
  0009f	0f 84 d2 00 00
	00		 je	 $LN11@cmath_rect
  000a5	f2 0f 10 44 24
	38		 movsdx	 xmm0, QWORD PTR phi$[rsp]
  000ab	66 0f 2e 05 00
	00 00 00	 ucomisd xmm0, QWORD PTR __real@0000000000000000
  000b3	7a 06		 jp	 SHORT $LN18@cmath_rect
  000b5	0f 84 bc 00 00
	00		 je	 $LN11@cmath_rect
$LN18@cmath_rect:

; 989  :             if (r > 0) {

  000bb	f2 0f 10 44 24
	30		 movsdx	 xmm0, QWORD PTR r$[rsp]
  000c1	66 0f 2f 05 00
	00 00 00	 comisd	 xmm0, QWORD PTR __real@0000000000000000
  000c9	76 4e		 jbe	 SHORT $LN10@cmath_rect

; 990  :                 z.real = copysign(INF, cos(phi));

  000cb	f2 0f 10 44 24
	38		 movsdx	 xmm0, QWORD PTR phi$[rsp]
  000d1	e8 00 00 00 00	 call	 cos
  000d6	66 0f 28 c8	 movapd	 xmm1, xmm0
  000da	48 8b 05 00 00
	00 00		 mov	 rax, QWORD PTR __imp__HUGE
  000e1	f2 0f 10 00	 movsdx	 xmm0, QWORD PTR [rax]
  000e5	ff 15 00 00 00
	00		 call	 QWORD PTR __imp__copysign
  000eb	f2 0f 11 44 24
	20		 movsdx	 QWORD PTR z$[rsp], xmm0

; 991  :                 z.imag = copysign(INF, sin(phi));

  000f1	f2 0f 10 44 24
	38		 movsdx	 xmm0, QWORD PTR phi$[rsp]
  000f7	e8 00 00 00 00	 call	 sin
  000fc	66 0f 28 c8	 movapd	 xmm1, xmm0
  00100	48 8b 05 00 00
	00 00		 mov	 rax, QWORD PTR __imp__HUGE
  00107	f2 0f 10 00	 movsdx	 xmm0, QWORD PTR [rax]
  0010b	ff 15 00 00 00
	00		 call	 QWORD PTR __imp__copysign
  00111	f2 0f 11 44 24
	28		 movsdx	 QWORD PTR z$[rsp+8], xmm0

; 992  :             }
; 993  :             else {

  00117	eb 5c		 jmp	 SHORT $LN9@cmath_rect
$LN10@cmath_rect:

; 994  :                 z.real = -copysign(INF, cos(phi));

  00119	f2 0f 10 44 24
	38		 movsdx	 xmm0, QWORD PTR phi$[rsp]
  0011f	e8 00 00 00 00	 call	 cos
  00124	66 0f 28 c8	 movapd	 xmm1, xmm0
  00128	48 8b 05 00 00
	00 00		 mov	 rax, QWORD PTR __imp__HUGE
  0012f	f2 0f 10 00	 movsdx	 xmm0, QWORD PTR [rax]
  00133	ff 15 00 00 00
	00		 call	 QWORD PTR __imp__copysign
  00139	66 0f 57 05 00
	00 00 00	 xorpd	 xmm0, QWORD PTR __mask@@NegDouble@
  00141	f2 0f 11 44 24
	20		 movsdx	 QWORD PTR z$[rsp], xmm0

; 995  :                 z.imag = -copysign(INF, sin(phi));

  00147	f2 0f 10 44 24
	38		 movsdx	 xmm0, QWORD PTR phi$[rsp]
  0014d	e8 00 00 00 00	 call	 sin
  00152	66 0f 28 c8	 movapd	 xmm1, xmm0
  00156	48 8b 05 00 00
	00 00		 mov	 rax, QWORD PTR __imp__HUGE
  0015d	f2 0f 10 00	 movsdx	 xmm0, QWORD PTR [rax]
  00161	ff 15 00 00 00
	00		 call	 QWORD PTR __imp__copysign
  00167	66 0f 57 05 00
	00 00 00	 xorpd	 xmm0, QWORD PTR __mask@@NegDouble@
  0016f	f2 0f 11 44 24
	28		 movsdx	 QWORD PTR z$[rsp+8], xmm0
$LN9@cmath_rect:

; 996  :             }
; 997  :         }
; 998  :         else {

  00175	eb 63		 jmp	 SHORT $LN8@cmath_rect
$LN11@cmath_rect:

; 999  :             z = rect_special_values[special_type(r)]
; 1000 :                                    [special_type(phi)];

  00177	f2 0f 10 44 24
	30		 movsdx	 xmm0, QWORD PTR r$[rsp]
  0017d	e8 00 00 00 00	 call	 special_type
  00182	48 98		 cdqe
  00184	48 6b c0 70	 imul	 rax, 112		; 00000070H
  00188	48 8d 0d 00 00
	00 00		 lea	 rcx, OFFSET FLAT:rect_special_values
  0018f	48 03 c8	 add	 rcx, rax
  00192	48 8b c1	 mov	 rax, rcx
  00195	48 89 44 24 60	 mov	 QWORD PTR tv146[rsp], rax
  0019a	f2 0f 10 44 24
	38		 movsdx	 xmm0, QWORD PTR phi$[rsp]
  001a0	e8 00 00 00 00	 call	 special_type
  001a5	48 98		 cdqe
  001a7	48 6b c0 10	 imul	 rax, 16
  001ab	48 8d 4c 24 50	 lea	 rcx, QWORD PTR $T21495[rsp]
  001b0	48 8b f9	 mov	 rdi, rcx
  001b3	48 8b 4c 24 60	 mov	 rcx, QWORD PTR tv146[rsp]
  001b8	48 8d 34 01	 lea	 rsi, QWORD PTR [rcx+rax]
  001bc	b9 10 00 00 00	 mov	 ecx, 16
  001c1	f3 a4		 rep movsb
  001c3	48 8d 44 24 20	 lea	 rax, QWORD PTR z$[rsp]
  001c8	48 8d 4c 24 50	 lea	 rcx, QWORD PTR $T21495[rsp]
  001cd	48 8b f8	 mov	 rdi, rax
  001d0	48 8b f1	 mov	 rsi, rcx
  001d3	b9 10 00 00 00	 mov	 ecx, 16
  001d8	f3 a4		 rep movsb
$LN8@cmath_rect:

; 1001 :         }
; 1002 :         /* need to set errno = EDOM if r is a nonzero number and phi
; 1003 :            is infinite */
; 1004 :         if (r != 0. && !Py_IS_NAN(r) && Py_IS_INFINITY(phi))

  001da	f2 0f 10 44 24
	30		 movsdx	 xmm0, QWORD PTR r$[rsp]
  001e0	66 0f 2e 05 00
	00 00 00	 ucomisd xmm0, QWORD PTR __real@0000000000000000
  001e8	7a 02		 jp	 SHORT $LN17@cmath_rect
  001ea	74 3e		 je	 SHORT $LN7@cmath_rect
$LN17@cmath_rect:
  001ec	f2 0f 10 44 24
	30		 movsdx	 xmm0, QWORD PTR r$[rsp]
  001f2	ff 15 00 00 00
	00		 call	 QWORD PTR __imp__isnan
  001f8	85 c0		 test	 eax, eax
  001fa	75 2e		 jne	 SHORT $LN7@cmath_rect
  001fc	f2 0f 10 44 24
	38		 movsdx	 xmm0, QWORD PTR phi$[rsp]
  00202	ff 15 00 00 00
	00		 call	 QWORD PTR __imp__finite
  00208	85 c0		 test	 eax, eax
  0020a	75 1e		 jne	 SHORT $LN7@cmath_rect
  0020c	f2 0f 10 44 24
	38		 movsdx	 xmm0, QWORD PTR phi$[rsp]
  00212	ff 15 00 00 00
	00		 call	 QWORD PTR __imp__isnan
  00218	85 c0		 test	 eax, eax
  0021a	75 0e		 jne	 SHORT $LN7@cmath_rect

; 1005 :             errno = EDOM;

  0021c	ff 15 00 00 00
	00		 call	 QWORD PTR __imp__errno
  00222	c7 00 21 00 00
	00		 mov	 DWORD PTR [rax], 33	; 00000021H

; 1006 :         else

  00228	eb 0c		 jmp	 SHORT $LN6@cmath_rect
$LN7@cmath_rect:

; 1007 :             errno = 0;

  0022a	ff 15 00 00 00
	00		 call	 QWORD PTR __imp__errno
  00230	c7 00 00 00 00
	00		 mov	 DWORD PTR [rax], 0
$LN6@cmath_rect:

; 1008 :     }
; 1009 :     else if (phi == 0.0) {

  00236	e9 88 00 00 00	 jmp	 $LN5@cmath_rect
$LN13@cmath_rect:
  0023b	f2 0f 10 44 24
	38		 movsdx	 xmm0, QWORD PTR phi$[rsp]
  00241	66 0f 2e 05 00
	00 00 00	 ucomisd xmm0, QWORD PTR __real@0000000000000000
  00249	7a 2e		 jp	 SHORT $LN4@cmath_rect
  0024b	75 2c		 jne	 SHORT $LN4@cmath_rect

; 1010 :         /* Workaround for buggy results with phi=-0.0 on OS X 10.8.  See
; 1011 :            bugs.python.org/issue18513. */
; 1012 :         z.real = r;

  0024d	f2 0f 10 44 24
	30		 movsdx	 xmm0, QWORD PTR r$[rsp]
  00253	f2 0f 11 44 24
	20		 movsdx	 QWORD PTR z$[rsp], xmm0

; 1013 :         z.imag = r * phi;

  00259	f2 0f 10 44 24
	30		 movsdx	 xmm0, QWORD PTR r$[rsp]
  0025f	f2 0f 59 44 24
	38		 mulsd	 xmm0, QWORD PTR phi$[rsp]
  00265	f2 0f 11 44 24
	28		 movsdx	 QWORD PTR z$[rsp+8], xmm0

; 1014 :         errno = 0;

  0026b	ff 15 00 00 00
	00		 call	 QWORD PTR __imp__errno
  00271	c7 00 00 00 00
	00		 mov	 DWORD PTR [rax], 0

; 1015 :     }
; 1016 :     else {

  00277	eb 4a		 jmp	 SHORT $LN3@cmath_rect
$LN4@cmath_rect:

; 1017 :         z.real = r * cos(phi);

  00279	f2 0f 10 44 24
	38		 movsdx	 xmm0, QWORD PTR phi$[rsp]
  0027f	e8 00 00 00 00	 call	 cos
  00284	f2 0f 10 4c 24
	30		 movsdx	 xmm1, QWORD PTR r$[rsp]
  0028a	f2 0f 59 c8	 mulsd	 xmm1, xmm0
  0028e	66 0f 28 c1	 movapd	 xmm0, xmm1
  00292	f2 0f 11 44 24
	20		 movsdx	 QWORD PTR z$[rsp], xmm0

; 1018 :         z.imag = r * sin(phi);

  00298	f2 0f 10 44 24
	38		 movsdx	 xmm0, QWORD PTR phi$[rsp]
  0029e	e8 00 00 00 00	 call	 sin
  002a3	f2 0f 10 4c 24
	30		 movsdx	 xmm1, QWORD PTR r$[rsp]
  002a9	f2 0f 59 c8	 mulsd	 xmm1, xmm0
  002ad	66 0f 28 c1	 movapd	 xmm0, xmm1
  002b1	f2 0f 11 44 24
	28		 movsdx	 QWORD PTR z$[rsp+8], xmm0

; 1019 :         errno = 0;

  002b7	ff 15 00 00 00
	00		 call	 QWORD PTR __imp__errno
  002bd	c7 00 00 00 00
	00		 mov	 DWORD PTR [rax], 0
$LN3@cmath_rect:
$LN5@cmath_rect:

; 1020 :     }
; 1021 : 
; 1022 :     PyFPE_END_PROTECT(z)
; 1023 :     if (errno != 0)

  002c3	ff 15 00 00 00
	00		 call	 QWORD PTR __imp__errno
  002c9	83 38 00	 cmp	 DWORD PTR [rax], 0
  002cc	74 09		 je	 SHORT $LN2@cmath_rect

; 1024 :         return math_error();

  002ce	e8 00 00 00 00	 call	 math_error
  002d3	eb 23		 jmp	 SHORT $LN15@cmath_rect

; 1025 :     else

  002d5	eb 21		 jmp	 SHORT $LN1@cmath_rect
$LN2@cmath_rect:

; 1026 :         return PyComplex_FromCComplex(z);

  002d7	48 8d 44 24 40	 lea	 rax, QWORD PTR $T21493[rsp]
  002dc	48 8d 4c 24 20	 lea	 rcx, QWORD PTR z$[rsp]
  002e1	48 8b f8	 mov	 rdi, rax
  002e4	48 8b f1	 mov	 rsi, rcx
  002e7	b9 10 00 00 00	 mov	 ecx, 16
  002ec	f3 a4		 rep movsb
  002ee	48 8d 4c 24 40	 lea	 rcx, QWORD PTR $T21493[rsp]
  002f3	e8 00 00 00 00	 call	 PyComplex_FromCComplex
$LN1@cmath_rect:
$LN15@cmath_rect:

; 1027 : }

  002f8	48 83 c4 78	 add	 rsp, 120		; 00000078H
  002fc	5f		 pop	 rdi
  002fd	5e		 pop	 rsi
  002fe	c3		 ret	 0
cmath_rect ENDP
_TEXT	ENDS
PUBLIC	??_C@_0L@LDOEJOIF@D?3isfinite?$AA@		; `string'
EXTRN	PyBool_FromLong:PROC
;	COMDAT pdata
pdata	SEGMENT
$pdata$cmath_isfinite DD imagerel cmath_isfinite
	DD	imagerel cmath_isfinite+108
	DD	imagerel $unwind$cmath_isfinite
pdata	ENDS
;	COMDAT xdata
xdata	SEGMENT
$unwind$cmath_isfinite DD 010e01H
	DD	0820eH
xdata	ENDS
;	COMDAT ??_C@_0L@LDOEJOIF@D?3isfinite?$AA@
CONST	SEGMENT
??_C@_0L@LDOEJOIF@D?3isfinite?$AA@ DB 'D:isfinite', 00H	; `string'
; Function compile flags: /Odtp
CONST	ENDS
;	COMDAT cmath_isfinite
_TEXT	SEGMENT
z$ = 32
tv76 = 48
self$ = 80
args$ = 88
cmath_isfinite PROC					; COMDAT

; 1035 : {

  00000	48 89 54 24 10	 mov	 QWORD PTR [rsp+16], rdx
  00005	48 89 4c 24 08	 mov	 QWORD PTR [rsp+8], rcx
  0000a	48 83 ec 48	 sub	 rsp, 72			; 00000048H

; 1036 :     Py_complex z;
; 1037 :     if (!PyArg_ParseTuple(args, "D:isfinite", &z))

  0000e	4c 8d 44 24 20	 lea	 r8, QWORD PTR z$[rsp]
  00013	48 8d 15 00 00
	00 00		 lea	 rdx, OFFSET FLAT:??_C@_0L@LDOEJOIF@D?3isfinite?$AA@
  0001a	48 8b 4c 24 58	 mov	 rcx, QWORD PTR args$[rsp]
  0001f	e8 00 00 00 00	 call	 PyArg_ParseTuple
  00024	85 c0		 test	 eax, eax
  00026	75 04		 jne	 SHORT $LN1@cmath_isfi

; 1038 :         return NULL;

  00028	33 c0		 xor	 eax, eax
  0002a	eb 3b		 jmp	 SHORT $LN2@cmath_isfi
$LN1@cmath_isfi:

; 1039 :     return PyBool_FromLong(Py_IS_FINITE(z.real) && Py_IS_FINITE(z.imag));

  0002c	f2 0f 10 44 24
	20		 movsdx	 xmm0, QWORD PTR z$[rsp]
  00032	ff 15 00 00 00
	00		 call	 QWORD PTR __imp__finite
  00038	85 c0		 test	 eax, eax
  0003a	74 1a		 je	 SHORT $LN4@cmath_isfi
  0003c	f2 0f 10 44 24
	28		 movsdx	 xmm0, QWORD PTR z$[rsp+8]
  00042	ff 15 00 00 00
	00		 call	 QWORD PTR __imp__finite
  00048	85 c0		 test	 eax, eax
  0004a	74 0a		 je	 SHORT $LN4@cmath_isfi
  0004c	c7 44 24 30 01
	00 00 00	 mov	 DWORD PTR tv76[rsp], 1
  00054	eb 08		 jmp	 SHORT $LN5@cmath_isfi
$LN4@cmath_isfi:
  00056	c7 44 24 30 00
	00 00 00	 mov	 DWORD PTR tv76[rsp], 0
$LN5@cmath_isfi:
  0005e	8b 4c 24 30	 mov	 ecx, DWORD PTR tv76[rsp]
  00062	e8 00 00 00 00	 call	 PyBool_FromLong
$LN2@cmath_isfi:

; 1040 : }

  00067	48 83 c4 48	 add	 rsp, 72			; 00000048H
  0006b	c3		 ret	 0
cmath_isfinite ENDP
_TEXT	ENDS
PUBLIC	??_C@_07MDACLFBO@D?3isnan?$AA@			; `string'
;	COMDAT pdata
pdata	SEGMENT
$pdata$cmath_isnan DD imagerel cmath_isnan
	DD	imagerel cmath_isnan+108
	DD	imagerel $unwind$cmath_isnan
pdata	ENDS
;	COMDAT xdata
xdata	SEGMENT
$unwind$cmath_isnan DD 010e01H
	DD	0820eH
xdata	ENDS
;	COMDAT ??_C@_07MDACLFBO@D?3isnan?$AA@
CONST	SEGMENT
??_C@_07MDACLFBO@D?3isnan?$AA@ DB 'D:isnan', 00H	; `string'
; Function compile flags: /Odtp
CONST	ENDS
;	COMDAT cmath_isnan
_TEXT	SEGMENT
z$ = 32
tv76 = 48
self$ = 80
args$ = 88
cmath_isnan PROC					; COMDAT

; 1048 : {

  00000	48 89 54 24 10	 mov	 QWORD PTR [rsp+16], rdx
  00005	48 89 4c 24 08	 mov	 QWORD PTR [rsp+8], rcx
  0000a	48 83 ec 48	 sub	 rsp, 72			; 00000048H

; 1049 :     Py_complex z;
; 1050 :     if (!PyArg_ParseTuple(args, "D:isnan", &z))

  0000e	4c 8d 44 24 20	 lea	 r8, QWORD PTR z$[rsp]
  00013	48 8d 15 00 00
	00 00		 lea	 rdx, OFFSET FLAT:??_C@_07MDACLFBO@D?3isnan?$AA@
  0001a	48 8b 4c 24 58	 mov	 rcx, QWORD PTR args$[rsp]
  0001f	e8 00 00 00 00	 call	 PyArg_ParseTuple
  00024	85 c0		 test	 eax, eax
  00026	75 04		 jne	 SHORT $LN1@cmath_isna

; 1051 :         return NULL;

  00028	33 c0		 xor	 eax, eax
  0002a	eb 3b		 jmp	 SHORT $LN2@cmath_isna
$LN1@cmath_isna:

; 1052 :     return PyBool_FromLong(Py_IS_NAN(z.real) || Py_IS_NAN(z.imag));

  0002c	f2 0f 10 44 24
	20		 movsdx	 xmm0, QWORD PTR z$[rsp]
  00032	ff 15 00 00 00
	00		 call	 QWORD PTR __imp__isnan
  00038	85 c0		 test	 eax, eax
  0003a	75 1a		 jne	 SHORT $LN4@cmath_isna
  0003c	f2 0f 10 44 24
	28		 movsdx	 xmm0, QWORD PTR z$[rsp+8]
  00042	ff 15 00 00 00
	00		 call	 QWORD PTR __imp__isnan
  00048	85 c0		 test	 eax, eax
  0004a	75 0a		 jne	 SHORT $LN4@cmath_isna
  0004c	c7 44 24 30 00
	00 00 00	 mov	 DWORD PTR tv76[rsp], 0
  00054	eb 08		 jmp	 SHORT $LN5@cmath_isna
$LN4@cmath_isna:
  00056	c7 44 24 30 01
	00 00 00	 mov	 DWORD PTR tv76[rsp], 1
$LN5@cmath_isna:
  0005e	8b 4c 24 30	 mov	 ecx, DWORD PTR tv76[rsp]
  00062	e8 00 00 00 00	 call	 PyBool_FromLong
$LN2@cmath_isna:

; 1053 : }

  00067	48 83 c4 48	 add	 rsp, 72			; 00000048H
  0006b	c3		 ret	 0
cmath_isnan ENDP
_TEXT	ENDS
;	COMDAT pdata
pdata	SEGMENT
$pdata$cmath_isinf DD imagerel cmath_isinf
	DD	imagerel cmath_isinf+140
	DD	imagerel $unwind$cmath_isinf
pdata	ENDS
;	COMDAT xdata
xdata	SEGMENT
$unwind$cmath_isinf DD 010e01H
	DD	0820eH
; Function compile flags: /Odtp
xdata	ENDS
;	COMDAT cmath_isinf
_TEXT	SEGMENT
z$ = 32
tv82 = 48
self$ = 80
args$ = 88
cmath_isinf PROC					; COMDAT

; 1061 : {

  00000	48 89 54 24 10	 mov	 QWORD PTR [rsp+16], rdx
  00005	48 89 4c 24 08	 mov	 QWORD PTR [rsp+8], rcx
  0000a	48 83 ec 48	 sub	 rsp, 72			; 00000048H

; 1062 :     Py_complex z;
; 1063 :     if (!PyArg_ParseTuple(args, "D:isnan", &z))

  0000e	4c 8d 44 24 20	 lea	 r8, QWORD PTR z$[rsp]
  00013	48 8d 15 00 00
	00 00		 lea	 rdx, OFFSET FLAT:??_C@_07MDACLFBO@D?3isnan?$AA@
  0001a	48 8b 4c 24 58	 mov	 rcx, QWORD PTR args$[rsp]
  0001f	e8 00 00 00 00	 call	 PyArg_ParseTuple
  00024	85 c0		 test	 eax, eax
  00026	75 04		 jne	 SHORT $LN1@cmath_isin

; 1064 :         return NULL;

  00028	33 c0		 xor	 eax, eax
  0002a	eb 5b		 jmp	 SHORT $LN2@cmath_isin
$LN1@cmath_isin:

; 1065 :     return PyBool_FromLong(Py_IS_INFINITY(z.real) ||
; 1066 :                            Py_IS_INFINITY(z.imag));

  0002c	f2 0f 10 44 24
	20		 movsdx	 xmm0, QWORD PTR z$[rsp]
  00032	ff 15 00 00 00
	00		 call	 QWORD PTR __imp__finite
  00038	85 c0		 test	 eax, eax
  0003a	75 10		 jne	 SHORT $LN4@cmath_isin
  0003c	f2 0f 10 44 24
	20		 movsdx	 xmm0, QWORD PTR z$[rsp]
  00042	ff 15 00 00 00
	00		 call	 QWORD PTR __imp__isnan
  00048	85 c0		 test	 eax, eax
  0004a	74 2a		 je	 SHORT $LN6@cmath_isin
$LN4@cmath_isin:
  0004c	f2 0f 10 44 24
	28		 movsdx	 xmm0, QWORD PTR z$[rsp+8]
  00052	ff 15 00 00 00
	00		 call	 QWORD PTR __imp__finite
  00058	85 c0		 test	 eax, eax
  0005a	75 10		 jne	 SHORT $LN5@cmath_isin
  0005c	f2 0f 10 44 24
	28		 movsdx	 xmm0, QWORD PTR z$[rsp+8]
  00062	ff 15 00 00 00
	00		 call	 QWORD PTR __imp__isnan
  00068	85 c0		 test	 eax, eax
  0006a	74 0a		 je	 SHORT $LN6@cmath_isin
$LN5@cmath_isin:
  0006c	c7 44 24 30 00
	00 00 00	 mov	 DWORD PTR tv82[rsp], 0
  00074	eb 08		 jmp	 SHORT $LN7@cmath_isin
$LN6@cmath_isin:
  00076	c7 44 24 30 01
	00 00 00	 mov	 DWORD PTR tv82[rsp], 1
$LN7@cmath_isin:
  0007e	8b 4c 24 30	 mov	 ecx, DWORD PTR tv82[rsp]
  00082	e8 00 00 00 00	 call	 PyBool_FromLong
$LN2@cmath_isin:

; 1067 : }

  00087	48 83 c4 48	 add	 rsp, 72			; 00000048H
  0008b	c3		 ret	 0
cmath_isinf ENDP
_TEXT	ENDS
PUBLIC	__real@bfe921fb54442d18
PUBLIC	__real@bff921fb54442d18
PUBLIC	__real@c00921fb54442d18
PUBLIC	__real@c002d97c7f3321d2
PUBLIC	__real@8000000000000000
PUBLIC	__real@c6fd67cf2c62297c
PUBLIC	??_C@_01KGKMHCOC@e?$AA@				; `string'
PUBLIC	??_C@_02OAHAJOFD@pi?$AA@			; `string'
PUBLIC	PyInit_cmath
EXTRN	PyModule_AddObject:PROC
EXTRN	PyModule_Create2TraceRefs:PROC
;	COMDAT pdata
pdata	SEGMENT
$pdata$PyInit_cmath DD imagerel $LN4
	DD	imagerel $LN4+30286
	DD	imagerel $unwind$PyInit_cmath
pdata	ENDS
;	COMDAT xdata
xdata	SEGMENT
$unwind$PyInit_cmath DD 020701H
	DD	0110107H
xdata	ENDS
;	COMDAT __real@bfe921fb54442d18
CONST	SEGMENT
__real@bfe921fb54442d18 DQ 0bfe921fb54442d18r	; -0.785398
CONST	ENDS
;	COMDAT __real@bff921fb54442d18
CONST	SEGMENT
__real@bff921fb54442d18 DQ 0bff921fb54442d18r	; -1.5708
CONST	ENDS
;	COMDAT __real@c00921fb54442d18
CONST	SEGMENT
__real@c00921fb54442d18 DQ 0c00921fb54442d18r	; -3.14159
CONST	ENDS
;	COMDAT __real@c002d97c7f3321d2
CONST	SEGMENT
__real@c002d97c7f3321d2 DQ 0c002d97c7f3321d2r	; -2.35619
CONST	ENDS
;	COMDAT __real@8000000000000000
CONST	SEGMENT
__real@8000000000000000 DQ 08000000000000000r	; -0
CONST	ENDS
;	COMDAT __real@c6fd67cf2c62297c
CONST	SEGMENT
__real@c6fd67cf2c62297c DQ 0c6fd67cf2c62297cr	; -9.54263e+033
CONST	ENDS
;	COMDAT ??_C@_01KGKMHCOC@e?$AA@
CONST	SEGMENT
??_C@_01KGKMHCOC@e?$AA@ DB 'e', 00H			; `string'
CONST	ENDS
;	COMDAT ??_C@_02OAHAJOFD@pi?$AA@
CONST	SEGMENT
??_C@_02OAHAJOFD@pi?$AA@ DB 'pi', 00H			; `string'
; Function compile flags: /Odtp
CONST	ENDS
;	COMDAT PyInit_cmath
_TEXT	SEGMENT
m$ = 32
p$20886 = 40
p$20888 = 48
p$20890 = 56
p$20892 = 64
p$20894 = 72
p$20896 = 80
p$20898 = 88
p$20900 = 96
p$20902 = 104
p$20904 = 112
p$20906 = 120
PyInit_cmath PROC					; COMDAT

; 1119 : {

$LN4:
  00000	48 81 ec 88 00
	00 00		 sub	 rsp, 136		; 00000088H

; 1120 :     PyObject *m;
; 1121 : 
; 1122 :     m = PyModule_Create(&cmathmodule);

  00007	ba f5 03 00 00	 mov	 edx, 1013		; 000003f5H
  0000c	48 8d 0d 00 00
	00 00		 lea	 rcx, OFFSET FLAT:cmathmodule
  00013	e8 00 00 00 00	 call	 PyModule_Create2TraceRefs
  00018	48 89 44 24 20	 mov	 QWORD PTR m$[rsp], rax

; 1123 :     if (m == NULL)

  0001d	48 83 7c 24 20
	00		 cmp	 QWORD PTR m$[rsp], 0
  00023	75 07		 jne	 SHORT $LN1@PyInit_cma

; 1124 :         return NULL;

  00025	33 c0		 xor	 eax, eax
  00027	e9 1a 76 00 00	 jmp	 $LN2@PyInit_cma
$LN1@PyInit_cma:

; 1125 : 
; 1126 :     PyModule_AddObject(m, "pi",
; 1127 :                        PyFloat_FromDouble(Py_MATH_PI));

  0002c	f2 0f 10 05 00
	00 00 00	 movsdx	 xmm0, QWORD PTR __real@400921fb54442d18
  00034	e8 00 00 00 00	 call	 PyFloat_FromDouble
  00039	4c 8b c0	 mov	 r8, rax
  0003c	48 8d 15 00 00
	00 00		 lea	 rdx, OFFSET FLAT:??_C@_02OAHAJOFD@pi?$AA@
  00043	48 8b 4c 24 20	 mov	 rcx, QWORD PTR m$[rsp]
  00048	e8 00 00 00 00	 call	 PyModule_AddObject

; 1128 :     PyModule_AddObject(m, "e", PyFloat_FromDouble(Py_MATH_E));

  0004d	f2 0f 10 05 00
	00 00 00	 movsdx	 xmm0, QWORD PTR __real@4005bf0a8b145769
  00055	e8 00 00 00 00	 call	 PyFloat_FromDouble
  0005a	4c 8b c0	 mov	 r8, rax
  0005d	48 8d 15 00 00
	00 00		 lea	 rdx, OFFSET FLAT:??_C@_01KGKMHCOC@e?$AA@
  00064	48 8b 4c 24 20	 mov	 rcx, QWORD PTR m$[rsp]
  00069	e8 00 00 00 00	 call	 PyModule_AddObject

; 1129 : 
; 1130 :     /* initialize special value tables */
; 1131 : 
; 1132 : #define INIT_SPECIAL_VALUES(NAME, BODY) { Py_complex* p = (Py_complex*)NAME; BODY }
; 1133 : #define C(REAL, IMAG) p->real = REAL; p->imag = IMAG; ++p;
; 1134 : 
; 1135 :     INIT_SPECIAL_VALUES(acos_special_values, {
; 1136 :       C(P34,INF) C(P,INF)  C(P,INF)  C(P,-INF)  C(P,-INF)  C(P34,-INF) C(N,INF)
; 1137 :       C(P12,INF) C(U,U)    C(U,U)    C(U,U)     C(U,U)     C(P12,-INF) C(N,N)
; 1138 :       C(P12,INF) C(U,U)    C(P12,0.) C(P12,-0.) C(U,U)     C(P12,-INF) C(P12,N)
; 1139 :       C(P12,INF) C(U,U)    C(P12,0.) C(P12,-0.) C(U,U)     C(P12,-INF) C(P12,N)
; 1140 :       C(P12,INF) C(U,U)    C(U,U)    C(U,U)     C(U,U)     C(P12,-INF) C(N,N)
; 1141 :       C(P14,INF) C(0.,INF) C(0.,INF) C(0.,-INF) C(0.,-INF) C(P14,-INF) C(N,INF)
; 1142 :       C(N,INF)   C(N,N)    C(N,N)    C(N,N)     C(N,N)     C(N,-INF)   C(N,N)
; 1143 :     })

  0006e	48 8d 05 00 00
	00 00		 lea	 rax, OFFSET FLAT:acos_special_values
  00075	48 89 44 24 28	 mov	 QWORD PTR p$20886[rsp], rax
  0007a	48 8b 44 24 28	 mov	 rax, QWORD PTR p$20886[rsp]
  0007f	f2 0f 10 05 00
	00 00 00	 movsdx	 xmm0, QWORD PTR __real@4002d97c7f3321d2
  00087	f2 0f 11 00	 movsdx	 QWORD PTR [rax], xmm0
  0008b	48 8b 44 24 28	 mov	 rax, QWORD PTR p$20886[rsp]
  00090	48 8b 0d 00 00
	00 00		 mov	 rcx, QWORD PTR __imp__HUGE
  00097	f2 0f 10 01	 movsdx	 xmm0, QWORD PTR [rcx]
  0009b	f2 0f 11 40 08	 movsdx	 QWORD PTR [rax+8], xmm0
  000a0	48 8b 44 24 28	 mov	 rax, QWORD PTR p$20886[rsp]
  000a5	48 83 c0 10	 add	 rax, 16
  000a9	48 89 44 24 28	 mov	 QWORD PTR p$20886[rsp], rax
  000ae	48 8b 44 24 28	 mov	 rax, QWORD PTR p$20886[rsp]
  000b3	f2 0f 10 05 00
	00 00 00	 movsdx	 xmm0, QWORD PTR __real@400921fb54442d18
  000bb	f2 0f 11 00	 movsdx	 QWORD PTR [rax], xmm0
  000bf	48 8b 44 24 28	 mov	 rax, QWORD PTR p$20886[rsp]
  000c4	48 8b 0d 00 00
	00 00		 mov	 rcx, QWORD PTR __imp__HUGE
  000cb	f2 0f 10 01	 movsdx	 xmm0, QWORD PTR [rcx]
  000cf	f2 0f 11 40 08	 movsdx	 QWORD PTR [rax+8], xmm0
  000d4	48 8b 44 24 28	 mov	 rax, QWORD PTR p$20886[rsp]
  000d9	48 83 c0 10	 add	 rax, 16
  000dd	48 89 44 24 28	 mov	 QWORD PTR p$20886[rsp], rax
  000e2	48 8b 44 24 28	 mov	 rax, QWORD PTR p$20886[rsp]
  000e7	f2 0f 10 05 00
	00 00 00	 movsdx	 xmm0, QWORD PTR __real@400921fb54442d18
  000ef	f2 0f 11 00	 movsdx	 QWORD PTR [rax], xmm0
  000f3	48 8b 44 24 28	 mov	 rax, QWORD PTR p$20886[rsp]
  000f8	48 8b 0d 00 00
	00 00		 mov	 rcx, QWORD PTR __imp__HUGE
  000ff	f2 0f 10 01	 movsdx	 xmm0, QWORD PTR [rcx]
  00103	f2 0f 11 40 08	 movsdx	 QWORD PTR [rax+8], xmm0
  00108	48 8b 44 24 28	 mov	 rax, QWORD PTR p$20886[rsp]
  0010d	48 83 c0 10	 add	 rax, 16
  00111	48 89 44 24 28	 mov	 QWORD PTR p$20886[rsp], rax
  00116	48 8b 44 24 28	 mov	 rax, QWORD PTR p$20886[rsp]
  0011b	f2 0f 10 05 00
	00 00 00	 movsdx	 xmm0, QWORD PTR __real@400921fb54442d18
  00123	f2 0f 11 00	 movsdx	 QWORD PTR [rax], xmm0
  00127	48 8b 05 00 00
	00 00		 mov	 rax, QWORD PTR __imp__HUGE
  0012e	f2 0f 10 00	 movsdx	 xmm0, QWORD PTR [rax]
  00132	66 0f 57 05 00
	00 00 00	 xorpd	 xmm0, QWORD PTR __mask@@NegDouble@
  0013a	48 8b 44 24 28	 mov	 rax, QWORD PTR p$20886[rsp]
  0013f	f2 0f 11 40 08	 movsdx	 QWORD PTR [rax+8], xmm0
  00144	48 8b 44 24 28	 mov	 rax, QWORD PTR p$20886[rsp]
  00149	48 83 c0 10	 add	 rax, 16
  0014d	48 89 44 24 28	 mov	 QWORD PTR p$20886[rsp], rax
  00152	48 8b 44 24 28	 mov	 rax, QWORD PTR p$20886[rsp]
  00157	f2 0f 10 05 00
	00 00 00	 movsdx	 xmm0, QWORD PTR __real@400921fb54442d18
  0015f	f2 0f 11 00	 movsdx	 QWORD PTR [rax], xmm0
  00163	48 8b 05 00 00
	00 00		 mov	 rax, QWORD PTR __imp__HUGE
  0016a	f2 0f 10 00	 movsdx	 xmm0, QWORD PTR [rax]
  0016e	66 0f 57 05 00
	00 00 00	 xorpd	 xmm0, QWORD PTR __mask@@NegDouble@
  00176	48 8b 44 24 28	 mov	 rax, QWORD PTR p$20886[rsp]
  0017b	f2 0f 11 40 08	 movsdx	 QWORD PTR [rax+8], xmm0
  00180	48 8b 44 24 28	 mov	 rax, QWORD PTR p$20886[rsp]
  00185	48 83 c0 10	 add	 rax, 16
  00189	48 89 44 24 28	 mov	 QWORD PTR p$20886[rsp], rax
  0018e	48 8b 44 24 28	 mov	 rax, QWORD PTR p$20886[rsp]
  00193	f2 0f 10 05 00
	00 00 00	 movsdx	 xmm0, QWORD PTR __real@4002d97c7f3321d2
  0019b	f2 0f 11 00	 movsdx	 QWORD PTR [rax], xmm0
  0019f	48 8b 05 00 00
	00 00		 mov	 rax, QWORD PTR __imp__HUGE
  001a6	f2 0f 10 00	 movsdx	 xmm0, QWORD PTR [rax]
  001aa	66 0f 57 05 00
	00 00 00	 xorpd	 xmm0, QWORD PTR __mask@@NegDouble@
  001b2	48 8b 44 24 28	 mov	 rax, QWORD PTR p$20886[rsp]
  001b7	f2 0f 11 40 08	 movsdx	 QWORD PTR [rax+8], xmm0
  001bc	48 8b 44 24 28	 mov	 rax, QWORD PTR p$20886[rsp]
  001c1	48 83 c0 10	 add	 rax, 16
  001c5	48 89 44 24 28	 mov	 QWORD PTR p$20886[rsp], rax
  001ca	48 8b 05 00 00
	00 00		 mov	 rax, QWORD PTR __imp__HUGE
  001d1	f2 0f 10 00	 movsdx	 xmm0, QWORD PTR [rax]
  001d5	f2 0f 59 05 00
	00 00 00	 mulsd	 xmm0, QWORD PTR __real@0000000000000000
  001dd	48 8b 44 24 28	 mov	 rax, QWORD PTR p$20886[rsp]
  001e2	f2 0f 11 00	 movsdx	 QWORD PTR [rax], xmm0
  001e6	48 8b 44 24 28	 mov	 rax, QWORD PTR p$20886[rsp]
  001eb	48 8b 0d 00 00
	00 00		 mov	 rcx, QWORD PTR __imp__HUGE
  001f2	f2 0f 10 01	 movsdx	 xmm0, QWORD PTR [rcx]
  001f6	f2 0f 11 40 08	 movsdx	 QWORD PTR [rax+8], xmm0
  001fb	48 8b 44 24 28	 mov	 rax, QWORD PTR p$20886[rsp]
  00200	48 83 c0 10	 add	 rax, 16
  00204	48 89 44 24 28	 mov	 QWORD PTR p$20886[rsp], rax
  00209	48 8b 44 24 28	 mov	 rax, QWORD PTR p$20886[rsp]
  0020e	f2 0f 10 05 00
	00 00 00	 movsdx	 xmm0, QWORD PTR __real@3ff921fb54442d18
  00216	f2 0f 11 00	 movsdx	 QWORD PTR [rax], xmm0
  0021a	48 8b 44 24 28	 mov	 rax, QWORD PTR p$20886[rsp]
  0021f	48 8b 0d 00 00
	00 00		 mov	 rcx, QWORD PTR __imp__HUGE
  00226	f2 0f 10 01	 movsdx	 xmm0, QWORD PTR [rcx]
  0022a	f2 0f 11 40 08	 movsdx	 QWORD PTR [rax+8], xmm0
  0022f	48 8b 44 24 28	 mov	 rax, QWORD PTR p$20886[rsp]
  00234	48 83 c0 10	 add	 rax, 16
  00238	48 89 44 24 28	 mov	 QWORD PTR p$20886[rsp], rax
  0023d	48 8b 44 24 28	 mov	 rax, QWORD PTR p$20886[rsp]
  00242	f2 0f 10 05 00
	00 00 00	 movsdx	 xmm0, QWORD PTR __real@c6fd67cf2c62297c
  0024a	f2 0f 11 00	 movsdx	 QWORD PTR [rax], xmm0
  0024e	48 8b 44 24 28	 mov	 rax, QWORD PTR p$20886[rsp]
  00253	f2 0f 10 05 00
	00 00 00	 movsdx	 xmm0, QWORD PTR __real@c6fd67cf2c62297c
  0025b	f2 0f 11 40 08	 movsdx	 QWORD PTR [rax+8], xmm0
  00260	48 8b 44 24 28	 mov	 rax, QWORD PTR p$20886[rsp]
  00265	48 83 c0 10	 add	 rax, 16
  00269	48 89 44 24 28	 mov	 QWORD PTR p$20886[rsp], rax
  0026e	48 8b 44 24 28	 mov	 rax, QWORD PTR p$20886[rsp]
  00273	f2 0f 10 05 00
	00 00 00	 movsdx	 xmm0, QWORD PTR __real@c6fd67cf2c62297c
  0027b	f2 0f 11 00	 movsdx	 QWORD PTR [rax], xmm0
  0027f	48 8b 44 24 28	 mov	 rax, QWORD PTR p$20886[rsp]
  00284	f2 0f 10 05 00
	00 00 00	 movsdx	 xmm0, QWORD PTR __real@c6fd67cf2c62297c
  0028c	f2 0f 11 40 08	 movsdx	 QWORD PTR [rax+8], xmm0
  00291	48 8b 44 24 28	 mov	 rax, QWORD PTR p$20886[rsp]
  00296	48 83 c0 10	 add	 rax, 16
  0029a	48 89 44 24 28	 mov	 QWORD PTR p$20886[rsp], rax
  0029f	48 8b 44 24 28	 mov	 rax, QWORD PTR p$20886[rsp]
  002a4	f2 0f 10 05 00
	00 00 00	 movsdx	 xmm0, QWORD PTR __real@c6fd67cf2c62297c
  002ac	f2 0f 11 00	 movsdx	 QWORD PTR [rax], xmm0
  002b0	48 8b 44 24 28	 mov	 rax, QWORD PTR p$20886[rsp]
  002b5	f2 0f 10 05 00
	00 00 00	 movsdx	 xmm0, QWORD PTR __real@c6fd67cf2c62297c
  002bd	f2 0f 11 40 08	 movsdx	 QWORD PTR [rax+8], xmm0
  002c2	48 8b 44 24 28	 mov	 rax, QWORD PTR p$20886[rsp]
  002c7	48 83 c0 10	 add	 rax, 16
  002cb	48 89 44 24 28	 mov	 QWORD PTR p$20886[rsp], rax
  002d0	48 8b 44 24 28	 mov	 rax, QWORD PTR p$20886[rsp]
  002d5	f2 0f 10 05 00
	00 00 00	 movsdx	 xmm0, QWORD PTR __real@c6fd67cf2c62297c
  002dd	f2 0f 11 00	 movsdx	 QWORD PTR [rax], xmm0
  002e1	48 8b 44 24 28	 mov	 rax, QWORD PTR p$20886[rsp]
  002e6	f2 0f 10 05 00
	00 00 00	 movsdx	 xmm0, QWORD PTR __real@c6fd67cf2c62297c
  002ee	f2 0f 11 40 08	 movsdx	 QWORD PTR [rax+8], xmm0
  002f3	48 8b 44 24 28	 mov	 rax, QWORD PTR p$20886[rsp]
  002f8	48 83 c0 10	 add	 rax, 16
  002fc	48 89 44 24 28	 mov	 QWORD PTR p$20886[rsp], rax
  00301	48 8b 44 24 28	 mov	 rax, QWORD PTR p$20886[rsp]
  00306	f2 0f 10 05 00
	00 00 00	 movsdx	 xmm0, QWORD PTR __real@3ff921fb54442d18
  0030e	f2 0f 11 00	 movsdx	 QWORD PTR [rax], xmm0
  00312	48 8b 05 00 00
	00 00		 mov	 rax, QWORD PTR __imp__HUGE
  00319	f2 0f 10 00	 movsdx	 xmm0, QWORD PTR [rax]
  0031d	66 0f 57 05 00
	00 00 00	 xorpd	 xmm0, QWORD PTR __mask@@NegDouble@
  00325	48 8b 44 24 28	 mov	 rax, QWORD PTR p$20886[rsp]
  0032a	f2 0f 11 40 08	 movsdx	 QWORD PTR [rax+8], xmm0
  0032f	48 8b 44 24 28	 mov	 rax, QWORD PTR p$20886[rsp]
  00334	48 83 c0 10	 add	 rax, 16
  00338	48 89 44 24 28	 mov	 QWORD PTR p$20886[rsp], rax
  0033d	48 8b 05 00 00
	00 00		 mov	 rax, QWORD PTR __imp__HUGE
  00344	f2 0f 10 00	 movsdx	 xmm0, QWORD PTR [rax]
  00348	f2 0f 59 05 00
	00 00 00	 mulsd	 xmm0, QWORD PTR __real@0000000000000000
  00350	48 8b 44 24 28	 mov	 rax, QWORD PTR p$20886[rsp]
  00355	f2 0f 11 00	 movsdx	 QWORD PTR [rax], xmm0
  00359	48 8b 05 00 00
	00 00		 mov	 rax, QWORD PTR __imp__HUGE
  00360	f2 0f 10 00	 movsdx	 xmm0, QWORD PTR [rax]
  00364	f2 0f 59 05 00
	00 00 00	 mulsd	 xmm0, QWORD PTR __real@0000000000000000
  0036c	48 8b 44 24 28	 mov	 rax, QWORD PTR p$20886[rsp]
  00371	f2 0f 11 40 08	 movsdx	 QWORD PTR [rax+8], xmm0
  00376	48 8b 44 24 28	 mov	 rax, QWORD PTR p$20886[rsp]
  0037b	48 83 c0 10	 add	 rax, 16
  0037f	48 89 44 24 28	 mov	 QWORD PTR p$20886[rsp], rax
  00384	48 8b 44 24 28	 mov	 rax, QWORD PTR p$20886[rsp]
  00389	f2 0f 10 05 00
	00 00 00	 movsdx	 xmm0, QWORD PTR __real@3ff921fb54442d18
  00391	f2 0f 11 00	 movsdx	 QWORD PTR [rax], xmm0
  00395	48 8b 44 24 28	 mov	 rax, QWORD PTR p$20886[rsp]
  0039a	48 8b 0d 00 00
	00 00		 mov	 rcx, QWORD PTR __imp__HUGE
  003a1	f2 0f 10 01	 movsdx	 xmm0, QWORD PTR [rcx]
  003a5	f2 0f 11 40 08	 movsdx	 QWORD PTR [rax+8], xmm0
  003aa	48 8b 44 24 28	 mov	 rax, QWORD PTR p$20886[rsp]
  003af	48 83 c0 10	 add	 rax, 16
  003b3	48 89 44 24 28	 mov	 QWORD PTR p$20886[rsp], rax
  003b8	48 8b 44 24 28	 mov	 rax, QWORD PTR p$20886[rsp]
  003bd	f2 0f 10 05 00
	00 00 00	 movsdx	 xmm0, QWORD PTR __real@c6fd67cf2c62297c
  003c5	f2 0f 11 00	 movsdx	 QWORD PTR [rax], xmm0
  003c9	48 8b 44 24 28	 mov	 rax, QWORD PTR p$20886[rsp]
  003ce	f2 0f 10 05 00
	00 00 00	 movsdx	 xmm0, QWORD PTR __real@c6fd67cf2c62297c
  003d6	f2 0f 11 40 08	 movsdx	 QWORD PTR [rax+8], xmm0
  003db	48 8b 44 24 28	 mov	 rax, QWORD PTR p$20886[rsp]
  003e0	48 83 c0 10	 add	 rax, 16
  003e4	48 89 44 24 28	 mov	 QWORD PTR p$20886[rsp], rax
  003e9	48 8b 44 24 28	 mov	 rax, QWORD PTR p$20886[rsp]
  003ee	f2 0f 10 05 00
	00 00 00	 movsdx	 xmm0, QWORD PTR __real@3ff921fb54442d18
  003f6	f2 0f 11 00	 movsdx	 QWORD PTR [rax], xmm0
  003fa	48 8b 44 24 28	 mov	 rax, QWORD PTR p$20886[rsp]
  003ff	66 0f 57 c0	 xorpd	 xmm0, xmm0
  00403	f2 0f 11 40 08	 movsdx	 QWORD PTR [rax+8], xmm0
  00408	48 8b 44 24 28	 mov	 rax, QWORD PTR p$20886[rsp]
  0040d	48 83 c0 10	 add	 rax, 16
  00411	48 89 44 24 28	 mov	 QWORD PTR p$20886[rsp], rax
  00416	48 8b 44 24 28	 mov	 rax, QWORD PTR p$20886[rsp]
  0041b	f2 0f 10 05 00
	00 00 00	 movsdx	 xmm0, QWORD PTR __real@3ff921fb54442d18
  00423	f2 0f 11 00	 movsdx	 QWORD PTR [rax], xmm0
  00427	48 8b 44 24 28	 mov	 rax, QWORD PTR p$20886[rsp]
  0042c	f2 0f 10 05 00
	00 00 00	 movsdx	 xmm0, QWORD PTR __real@8000000000000000
  00434	f2 0f 11 40 08	 movsdx	 QWORD PTR [rax+8], xmm0
  00439	48 8b 44 24 28	 mov	 rax, QWORD PTR p$20886[rsp]
  0043e	48 83 c0 10	 add	 rax, 16
  00442	48 89 44 24 28	 mov	 QWORD PTR p$20886[rsp], rax
  00447	48 8b 44 24 28	 mov	 rax, QWORD PTR p$20886[rsp]
  0044c	f2 0f 10 05 00
	00 00 00	 movsdx	 xmm0, QWORD PTR __real@c6fd67cf2c62297c
  00454	f2 0f 11 00	 movsdx	 QWORD PTR [rax], xmm0
  00458	48 8b 44 24 28	 mov	 rax, QWORD PTR p$20886[rsp]
  0045d	f2 0f 10 05 00
	00 00 00	 movsdx	 xmm0, QWORD PTR __real@c6fd67cf2c62297c
  00465	f2 0f 11 40 08	 movsdx	 QWORD PTR [rax+8], xmm0
  0046a	48 8b 44 24 28	 mov	 rax, QWORD PTR p$20886[rsp]
  0046f	48 83 c0 10	 add	 rax, 16
  00473	48 89 44 24 28	 mov	 QWORD PTR p$20886[rsp], rax
  00478	48 8b 44 24 28	 mov	 rax, QWORD PTR p$20886[rsp]
  0047d	f2 0f 10 05 00
	00 00 00	 movsdx	 xmm0, QWORD PTR __real@3ff921fb54442d18
  00485	f2 0f 11 00	 movsdx	 QWORD PTR [rax], xmm0
  00489	48 8b 05 00 00
	00 00		 mov	 rax, QWORD PTR __imp__HUGE
  00490	f2 0f 10 00	 movsdx	 xmm0, QWORD PTR [rax]
  00494	66 0f 57 05 00
	00 00 00	 xorpd	 xmm0, QWORD PTR __mask@@NegDouble@
  0049c	48 8b 44 24 28	 mov	 rax, QWORD PTR p$20886[rsp]
  004a1	f2 0f 11 40 08	 movsdx	 QWORD PTR [rax+8], xmm0
  004a6	48 8b 44 24 28	 mov	 rax, QWORD PTR p$20886[rsp]
  004ab	48 83 c0 10	 add	 rax, 16
  004af	48 89 44 24 28	 mov	 QWORD PTR p$20886[rsp], rax
  004b4	48 8b 44 24 28	 mov	 rax, QWORD PTR p$20886[rsp]
  004b9	f2 0f 10 05 00
	00 00 00	 movsdx	 xmm0, QWORD PTR __real@3ff921fb54442d18
  004c1	f2 0f 11 00	 movsdx	 QWORD PTR [rax], xmm0
  004c5	48 8b 05 00 00
	00 00		 mov	 rax, QWORD PTR __imp__HUGE
  004cc	f2 0f 10 00	 movsdx	 xmm0, QWORD PTR [rax]
  004d0	f2 0f 59 05 00
	00 00 00	 mulsd	 xmm0, QWORD PTR __real@0000000000000000
  004d8	48 8b 44 24 28	 mov	 rax, QWORD PTR p$20886[rsp]
  004dd	f2 0f 11 40 08	 movsdx	 QWORD PTR [rax+8], xmm0
  004e2	48 8b 44 24 28	 mov	 rax, QWORD PTR p$20886[rsp]
  004e7	48 83 c0 10	 add	 rax, 16
  004eb	48 89 44 24 28	 mov	 QWORD PTR p$20886[rsp], rax
  004f0	48 8b 44 24 28	 mov	 rax, QWORD PTR p$20886[rsp]
  004f5	f2 0f 10 05 00
	00 00 00	 movsdx	 xmm0, QWORD PTR __real@3ff921fb54442d18
  004fd	f2 0f 11 00	 movsdx	 QWORD PTR [rax], xmm0
  00501	48 8b 44 24 28	 mov	 rax, QWORD PTR p$20886[rsp]
  00506	48 8b 0d 00 00
	00 00		 mov	 rcx, QWORD PTR __imp__HUGE
  0050d	f2 0f 10 01	 movsdx	 xmm0, QWORD PTR [rcx]
  00511	f2 0f 11 40 08	 movsdx	 QWORD PTR [rax+8], xmm0
  00516	48 8b 44 24 28	 mov	 rax, QWORD PTR p$20886[rsp]
  0051b	48 83 c0 10	 add	 rax, 16
  0051f	48 89 44 24 28	 mov	 QWORD PTR p$20886[rsp], rax
  00524	48 8b 44 24 28	 mov	 rax, QWORD PTR p$20886[rsp]
  00529	f2 0f 10 05 00
	00 00 00	 movsdx	 xmm0, QWORD PTR __real@c6fd67cf2c62297c
  00531	f2 0f 11 00	 movsdx	 QWORD PTR [rax], xmm0
  00535	48 8b 44 24 28	 mov	 rax, QWORD PTR p$20886[rsp]
  0053a	f2 0f 10 05 00
	00 00 00	 movsdx	 xmm0, QWORD PTR __real@c6fd67cf2c62297c
  00542	f2 0f 11 40 08	 movsdx	 QWORD PTR [rax+8], xmm0
  00547	48 8b 44 24 28	 mov	 rax, QWORD PTR p$20886[rsp]
  0054c	48 83 c0 10	 add	 rax, 16
  00550	48 89 44 24 28	 mov	 QWORD PTR p$20886[rsp], rax
  00555	48 8b 44 24 28	 mov	 rax, QWORD PTR p$20886[rsp]
  0055a	f2 0f 10 05 00
	00 00 00	 movsdx	 xmm0, QWORD PTR __real@3ff921fb54442d18
  00562	f2 0f 11 00	 movsdx	 QWORD PTR [rax], xmm0
  00566	48 8b 44 24 28	 mov	 rax, QWORD PTR p$20886[rsp]
  0056b	66 0f 57 c0	 xorpd	 xmm0, xmm0
  0056f	f2 0f 11 40 08	 movsdx	 QWORD PTR [rax+8], xmm0
  00574	48 8b 44 24 28	 mov	 rax, QWORD PTR p$20886[rsp]
  00579	48 83 c0 10	 add	 rax, 16
  0057d	48 89 44 24 28	 mov	 QWORD PTR p$20886[rsp], rax
  00582	48 8b 44 24 28	 mov	 rax, QWORD PTR p$20886[rsp]
  00587	f2 0f 10 05 00
	00 00 00	 movsdx	 xmm0, QWORD PTR __real@3ff921fb54442d18
  0058f	f2 0f 11 00	 movsdx	 QWORD PTR [rax], xmm0
  00593	48 8b 44 24 28	 mov	 rax, QWORD PTR p$20886[rsp]
  00598	f2 0f 10 05 00
	00 00 00	 movsdx	 xmm0, QWORD PTR __real@8000000000000000
  005a0	f2 0f 11 40 08	 movsdx	 QWORD PTR [rax+8], xmm0
  005a5	48 8b 44 24 28	 mov	 rax, QWORD PTR p$20886[rsp]
  005aa	48 83 c0 10	 add	 rax, 16
  005ae	48 89 44 24 28	 mov	 QWORD PTR p$20886[rsp], rax
  005b3	48 8b 44 24 28	 mov	 rax, QWORD PTR p$20886[rsp]
  005b8	f2 0f 10 05 00
	00 00 00	 movsdx	 xmm0, QWORD PTR __real@c6fd67cf2c62297c
  005c0	f2 0f 11 00	 movsdx	 QWORD PTR [rax], xmm0
  005c4	48 8b 44 24 28	 mov	 rax, QWORD PTR p$20886[rsp]
  005c9	f2 0f 10 05 00
	00 00 00	 movsdx	 xmm0, QWORD PTR __real@c6fd67cf2c62297c
  005d1	f2 0f 11 40 08	 movsdx	 QWORD PTR [rax+8], xmm0
  005d6	48 8b 44 24 28	 mov	 rax, QWORD PTR p$20886[rsp]
  005db	48 83 c0 10	 add	 rax, 16
  005df	48 89 44 24 28	 mov	 QWORD PTR p$20886[rsp], rax
  005e4	48 8b 44 24 28	 mov	 rax, QWORD PTR p$20886[rsp]
  005e9	f2 0f 10 05 00
	00 00 00	 movsdx	 xmm0, QWORD PTR __real@3ff921fb54442d18
  005f1	f2 0f 11 00	 movsdx	 QWORD PTR [rax], xmm0
  005f5	48 8b 05 00 00
	00 00		 mov	 rax, QWORD PTR __imp__HUGE
  005fc	f2 0f 10 00	 movsdx	 xmm0, QWORD PTR [rax]
  00600	66 0f 57 05 00
	00 00 00	 xorpd	 xmm0, QWORD PTR __mask@@NegDouble@
  00608	48 8b 44 24 28	 mov	 rax, QWORD PTR p$20886[rsp]
  0060d	f2 0f 11 40 08	 movsdx	 QWORD PTR [rax+8], xmm0
  00612	48 8b 44 24 28	 mov	 rax, QWORD PTR p$20886[rsp]
  00617	48 83 c0 10	 add	 rax, 16
  0061b	48 89 44 24 28	 mov	 QWORD PTR p$20886[rsp], rax
  00620	48 8b 44 24 28	 mov	 rax, QWORD PTR p$20886[rsp]
  00625	f2 0f 10 05 00
	00 00 00	 movsdx	 xmm0, QWORD PTR __real@3ff921fb54442d18
  0062d	f2 0f 11 00	 movsdx	 QWORD PTR [rax], xmm0
  00631	48 8b 05 00 00
	00 00		 mov	 rax, QWORD PTR __imp__HUGE
  00638	f2 0f 10 00	 movsdx	 xmm0, QWORD PTR [rax]
  0063c	f2 0f 59 05 00
	00 00 00	 mulsd	 xmm0, QWORD PTR __real@0000000000000000
  00644	48 8b 44 24 28	 mov	 rax, QWORD PTR p$20886[rsp]
  00649	f2 0f 11 40 08	 movsdx	 QWORD PTR [rax+8], xmm0
  0064e	48 8b 44 24 28	 mov	 rax, QWORD PTR p$20886[rsp]
  00653	48 83 c0 10	 add	 rax, 16
  00657	48 89 44 24 28	 mov	 QWORD PTR p$20886[rsp], rax
  0065c	48 8b 44 24 28	 mov	 rax, QWORD PTR p$20886[rsp]
  00661	f2 0f 10 05 00
	00 00 00	 movsdx	 xmm0, QWORD PTR __real@3ff921fb54442d18
  00669	f2 0f 11 00	 movsdx	 QWORD PTR [rax], xmm0
  0066d	48 8b 44 24 28	 mov	 rax, QWORD PTR p$20886[rsp]
  00672	48 8b 0d 00 00
	00 00		 mov	 rcx, QWORD PTR __imp__HUGE
  00679	f2 0f 10 01	 movsdx	 xmm0, QWORD PTR [rcx]
  0067d	f2 0f 11 40 08	 movsdx	 QWORD PTR [rax+8], xmm0
  00682	48 8b 44 24 28	 mov	 rax, QWORD PTR p$20886[rsp]
  00687	48 83 c0 10	 add	 rax, 16
  0068b	48 89 44 24 28	 mov	 QWORD PTR p$20886[rsp], rax
  00690	48 8b 44 24 28	 mov	 rax, QWORD PTR p$20886[rsp]
  00695	f2 0f 10 05 00
	00 00 00	 movsdx	 xmm0, QWORD PTR __real@c6fd67cf2c62297c
  0069d	f2 0f 11 00	 movsdx	 QWORD PTR [rax], xmm0
  006a1	48 8b 44 24 28	 mov	 rax, QWORD PTR p$20886[rsp]
  006a6	f2 0f 10 05 00
	00 00 00	 movsdx	 xmm0, QWORD PTR __real@c6fd67cf2c62297c
  006ae	f2 0f 11 40 08	 movsdx	 QWORD PTR [rax+8], xmm0
  006b3	48 8b 44 24 28	 mov	 rax, QWORD PTR p$20886[rsp]
  006b8	48 83 c0 10	 add	 rax, 16
  006bc	48 89 44 24 28	 mov	 QWORD PTR p$20886[rsp], rax
  006c1	48 8b 44 24 28	 mov	 rax, QWORD PTR p$20886[rsp]
  006c6	f2 0f 10 05 00
	00 00 00	 movsdx	 xmm0, QWORD PTR __real@c6fd67cf2c62297c
  006ce	f2 0f 11 00	 movsdx	 QWORD PTR [rax], xmm0
  006d2	48 8b 44 24 28	 mov	 rax, QWORD PTR p$20886[rsp]
  006d7	f2 0f 10 05 00
	00 00 00	 movsdx	 xmm0, QWORD PTR __real@c6fd67cf2c62297c
  006df	f2 0f 11 40 08	 movsdx	 QWORD PTR [rax+8], xmm0
  006e4	48 8b 44 24 28	 mov	 rax, QWORD PTR p$20886[rsp]
  006e9	48 83 c0 10	 add	 rax, 16
  006ed	48 89 44 24 28	 mov	 QWORD PTR p$20886[rsp], rax
  006f2	48 8b 44 24 28	 mov	 rax, QWORD PTR p$20886[rsp]
  006f7	f2 0f 10 05 00
	00 00 00	 movsdx	 xmm0, QWORD PTR __real@c6fd67cf2c62297c
  006ff	f2 0f 11 00	 movsdx	 QWORD PTR [rax], xmm0
  00703	48 8b 44 24 28	 mov	 rax, QWORD PTR p$20886[rsp]
  00708	f2 0f 10 05 00
	00 00 00	 movsdx	 xmm0, QWORD PTR __real@c6fd67cf2c62297c
  00710	f2 0f 11 40 08	 movsdx	 QWORD PTR [rax+8], xmm0
  00715	48 8b 44 24 28	 mov	 rax, QWORD PTR p$20886[rsp]
  0071a	48 83 c0 10	 add	 rax, 16
  0071e	48 89 44 24 28	 mov	 QWORD PTR p$20886[rsp], rax
  00723	48 8b 44 24 28	 mov	 rax, QWORD PTR p$20886[rsp]
  00728	f2 0f 10 05 00
	00 00 00	 movsdx	 xmm0, QWORD PTR __real@c6fd67cf2c62297c
  00730	f2 0f 11 00	 movsdx	 QWORD PTR [rax], xmm0
  00734	48 8b 44 24 28	 mov	 rax, QWORD PTR p$20886[rsp]
  00739	f2 0f 10 05 00
	00 00 00	 movsdx	 xmm0, QWORD PTR __real@c6fd67cf2c62297c
  00741	f2 0f 11 40 08	 movsdx	 QWORD PTR [rax+8], xmm0
  00746	48 8b 44 24 28	 mov	 rax, QWORD PTR p$20886[rsp]
  0074b	48 83 c0 10	 add	 rax, 16
  0074f	48 89 44 24 28	 mov	 QWORD PTR p$20886[rsp], rax
  00754	48 8b 44 24 28	 mov	 rax, QWORD PTR p$20886[rsp]
  00759	f2 0f 10 05 00
	00 00 00	 movsdx	 xmm0, QWORD PTR __real@3ff921fb54442d18
  00761	f2 0f 11 00	 movsdx	 QWORD PTR [rax], xmm0
  00765	48 8b 05 00 00
	00 00		 mov	 rax, QWORD PTR __imp__HUGE
  0076c	f2 0f 10 00	 movsdx	 xmm0, QWORD PTR [rax]
  00770	66 0f 57 05 00
	00 00 00	 xorpd	 xmm0, QWORD PTR __mask@@NegDouble@
  00778	48 8b 44 24 28	 mov	 rax, QWORD PTR p$20886[rsp]
  0077d	f2 0f 11 40 08	 movsdx	 QWORD PTR [rax+8], xmm0
  00782	48 8b 44 24 28	 mov	 rax, QWORD PTR p$20886[rsp]
  00787	48 83 c0 10	 add	 rax, 16
  0078b	48 89 44 24 28	 mov	 QWORD PTR p$20886[rsp], rax
  00790	48 8b 05 00 00
	00 00		 mov	 rax, QWORD PTR __imp__HUGE
  00797	f2 0f 10 00	 movsdx	 xmm0, QWORD PTR [rax]
  0079b	f2 0f 59 05 00
	00 00 00	 mulsd	 xmm0, QWORD PTR __real@0000000000000000
  007a3	48 8b 44 24 28	 mov	 rax, QWORD PTR p$20886[rsp]
  007a8	f2 0f 11 00	 movsdx	 QWORD PTR [rax], xmm0
  007ac	48 8b 05 00 00
	00 00		 mov	 rax, QWORD PTR __imp__HUGE
  007b3	f2 0f 10 00	 movsdx	 xmm0, QWORD PTR [rax]
  007b7	f2 0f 59 05 00
	00 00 00	 mulsd	 xmm0, QWORD PTR __real@0000000000000000
  007bf	48 8b 44 24 28	 mov	 rax, QWORD PTR p$20886[rsp]
  007c4	f2 0f 11 40 08	 movsdx	 QWORD PTR [rax+8], xmm0
  007c9	48 8b 44 24 28	 mov	 rax, QWORD PTR p$20886[rsp]
  007ce	48 83 c0 10	 add	 rax, 16
  007d2	48 89 44 24 28	 mov	 QWORD PTR p$20886[rsp], rax
  007d7	48 8b 44 24 28	 mov	 rax, QWORD PTR p$20886[rsp]
  007dc	f2 0f 10 05 00
	00 00 00	 movsdx	 xmm0, QWORD PTR __real@3fe921fb54442d18
  007e4	f2 0f 11 00	 movsdx	 QWORD PTR [rax], xmm0
  007e8	48 8b 44 24 28	 mov	 rax, QWORD PTR p$20886[rsp]
  007ed	48 8b 0d 00 00
	00 00		 mov	 rcx, QWORD PTR __imp__HUGE
  007f4	f2 0f 10 01	 movsdx	 xmm0, QWORD PTR [rcx]
  007f8	f2 0f 11 40 08	 movsdx	 QWORD PTR [rax+8], xmm0
  007fd	48 8b 44 24 28	 mov	 rax, QWORD PTR p$20886[rsp]
  00802	48 83 c0 10	 add	 rax, 16
  00806	48 89 44 24 28	 mov	 QWORD PTR p$20886[rsp], rax
  0080b	48 8b 44 24 28	 mov	 rax, QWORD PTR p$20886[rsp]
  00810	66 0f 57 c0	 xorpd	 xmm0, xmm0
  00814	f2 0f 11 00	 movsdx	 QWORD PTR [rax], xmm0
  00818	48 8b 44 24 28	 mov	 rax, QWORD PTR p$20886[rsp]
  0081d	48 8b 0d 00 00
	00 00		 mov	 rcx, QWORD PTR __imp__HUGE
  00824	f2 0f 10 01	 movsdx	 xmm0, QWORD PTR [rcx]
  00828	f2 0f 11 40 08	 movsdx	 QWORD PTR [rax+8], xmm0
  0082d	48 8b 44 24 28	 mov	 rax, QWORD PTR p$20886[rsp]
  00832	48 83 c0 10	 add	 rax, 16
  00836	48 89 44 24 28	 mov	 QWORD PTR p$20886[rsp], rax
  0083b	48 8b 44 24 28	 mov	 rax, QWORD PTR p$20886[rsp]
  00840	66 0f 57 c0	 xorpd	 xmm0, xmm0
  00844	f2 0f 11 00	 movsdx	 QWORD PTR [rax], xmm0
  00848	48 8b 44 24 28	 mov	 rax, QWORD PTR p$20886[rsp]
  0084d	48 8b 0d 00 00
	00 00		 mov	 rcx, QWORD PTR __imp__HUGE
  00854	f2 0f 10 01	 movsdx	 xmm0, QWORD PTR [rcx]
  00858	f2 0f 11 40 08	 movsdx	 QWORD PTR [rax+8], xmm0
  0085d	48 8b 44 24 28	 mov	 rax, QWORD PTR p$20886[rsp]
  00862	48 83 c0 10	 add	 rax, 16
  00866	48 89 44 24 28	 mov	 QWORD PTR p$20886[rsp], rax
  0086b	48 8b 44 24 28	 mov	 rax, QWORD PTR p$20886[rsp]
  00870	66 0f 57 c0	 xorpd	 xmm0, xmm0
  00874	f2 0f 11 00	 movsdx	 QWORD PTR [rax], xmm0
  00878	48 8b 05 00 00
	00 00		 mov	 rax, QWORD PTR __imp__HUGE
  0087f	f2 0f 10 00	 movsdx	 xmm0, QWORD PTR [rax]
  00883	66 0f 57 05 00
	00 00 00	 xorpd	 xmm0, QWORD PTR __mask@@NegDouble@
  0088b	48 8b 44 24 28	 mov	 rax, QWORD PTR p$20886[rsp]
  00890	f2 0f 11 40 08	 movsdx	 QWORD PTR [rax+8], xmm0
  00895	48 8b 44 24 28	 mov	 rax, QWORD PTR p$20886[rsp]
  0089a	48 83 c0 10	 add	 rax, 16
  0089e	48 89 44 24 28	 mov	 QWORD PTR p$20886[rsp], rax
  008a3	48 8b 44 24 28	 mov	 rax, QWORD PTR p$20886[rsp]
  008a8	66 0f 57 c0	 xorpd	 xmm0, xmm0
  008ac	f2 0f 11 00	 movsdx	 QWORD PTR [rax], xmm0
  008b0	48 8b 05 00 00
	00 00		 mov	 rax, QWORD PTR __imp__HUGE
  008b7	f2 0f 10 00	 movsdx	 xmm0, QWORD PTR [rax]
  008bb	66 0f 57 05 00
	00 00 00	 xorpd	 xmm0, QWORD PTR __mask@@NegDouble@
  008c3	48 8b 44 24 28	 mov	 rax, QWORD PTR p$20886[rsp]
  008c8	f2 0f 11 40 08	 movsdx	 QWORD PTR [rax+8], xmm0
  008cd	48 8b 44 24 28	 mov	 rax, QWORD PTR p$20886[rsp]
  008d2	48 83 c0 10	 add	 rax, 16
  008d6	48 89 44 24 28	 mov	 QWORD PTR p$20886[rsp], rax
  008db	48 8b 44 24 28	 mov	 rax, QWORD PTR p$20886[rsp]
  008e0	f2 0f 10 05 00
	00 00 00	 movsdx	 xmm0, QWORD PTR __real@3fe921fb54442d18
  008e8	f2 0f 11 00	 movsdx	 QWORD PTR [rax], xmm0
