; Listing generated by Microsoft (R) Optimizing Compiler Version 16.00.40219.01 

include listing.inc

INCLUDELIB MSVCRTD
INCLUDELIB OLDNAMES

PUBLIC	??_C@_06CMONBEBE@atexit?$AA@			; `string'
PUBLIC	??_C@_07LOLKJPHM@_pickle?$AA@			; `string'
PUBLIC	??_C@_03OILGLINA@_io?$AA@			; `string'
PUBLIC	??_C@_07PGCBFEPB@_string?$AA@			; `string'
PUBLIC	??_C@_09JDLBIJMB@_warnings?$AA@			; `string'
PUBLIC	??_C@_03PIADFGHL@sys?$AA@			; `string'
PUBLIC	??_C@_08OCOMCJAJ@builtins?$AA@			; `string'
PUBLIC	??_C@_04KKIAMJPE@_imp?$AA@			; `string'
PUBLIC	??_C@_07HKKFLOCI@marshal?$AA@			; `string'
PUBLIC	??_C@_0L@NLOBIMFG@_codecs_tw?$AA@		; `string'
PUBLIC	??_C@_0L@LBOMJMFO@_codecs_kr?$AA@		; `string'
PUBLIC	??_C@_0L@ICBIJEOL@_codecs_jp?$AA@		; `string'
PUBLIC	??_C@_0BA@NBDGFOAF@_codecs_iso2022?$AA@		; `string'
PUBLIC	??_C@_0L@CIKKILBP@_codecs_hk?$AA@		; `string'
PUBLIC	??_C@_0L@FJIIJALL@_codecs_cn?$AA@		; `string'
PUBLIC	??_C@_0BA@EEJLBBNI@_multibytecodec?$AA@		; `string'
PUBLIC	??_C@_04OLICEBLN@zlib?$AA@			; `string'
PUBLIC	??_C@_09INHLDGFD@zipimport?$AA@			; `string'
PUBLIC	??_C@_09DNDNKKCN@xxsubtype?$AA@			; `string'
PUBLIC	??_C@_05KBBIEONE@_json?$AA@			; `string'
PUBLIC	??_C@_0L@MLIHCBMC@_functools?$AA@		; `string'
PUBLIC	??_C@_09BLEDGJAH@_datetime?$AA@			; `string'
PUBLIC	??_C@_07IFNJGOBH@_struct?$AA@			; `string'
PUBLIC	??_C@_06OHDDMFCG@winreg?$AA@			; `string'
PUBLIC	??_C@_06OENOICDH@parser?$AA@			; `string'
PUBLIC	??_C@_04LFOLHMFG@_sre?$AA@			; `string'
PUBLIC	??_C@_04IFNPAAGM@_csv?$AA@			; `string'
PUBLIC	??_C@_04PHBJEMCB@mmap?$AA@			; `string'
PUBLIC	??_C@_09DILDJBMG@_symtable?$AA@			; `string'
PUBLIC	??_C@_0N@DAMHJIHH@_collections?$AA@		; `string'
PUBLIC	??_C@_09NCHPBFFI@itertools?$AA@			; `string'
PUBLIC	??_C@_07JPLDFAOG@_lsprof?$AA@			; `string'
PUBLIC	??_C@_06ODDEHMFE@_heapq?$AA@			; `string'
PUBLIC	??_C@_07JGEBJGAH@_bisect?$AA@			; `string'
PUBLIC	??_C@_07KPBKOMIO@_random?$AA@			; `string'
PUBLIC	??_C@_08FKMBKJGD@_weakref?$AA@			; `string'
PUBLIC	??_C@_07HLOOKDPL@_codecs?$AA@			; `string'
PUBLIC	??_C@_07FFLJJADP@_winapi?$AA@			; `string'
PUBLIC	??_C@_07KHCAGKLP@_locale?$AA@			; `string'
PUBLIC	??_C@_06EGGDDPIF@msvcrt?$AA@			; `string'
PUBLIC	??_C@_07CNDFADNJ@_thread?$AA@			; `string'
PUBLIC	??_C@_04CLCEDBPF@time?$AA@			; `string'
PUBLIC	??_C@_07IEICALMF@_sha512?$AA@			; `string'
PUBLIC	??_C@_07HKDAFOKE@_sha256?$AA@			; `string'
PUBLIC	??_C@_05HMENAHCI@_sha1?$AA@			; `string'
PUBLIC	??_C@_04KHDNNOGM@_md5?$AA@			; `string'
PUBLIC	??_C@_06OAFOBKHE@signal?$AA@			; `string'
PUBLIC	??_C@_08LHJFAFGD@operator?$AA@			; `string'
PUBLIC	??_C@_02JKEHMDF@nt?$AA@				; `string'
PUBLIC	??_C@_04CFDJAKFL@math?$AA@			; `string'
PUBLIC	??_C@_02DPGMDCM@gc?$AA@				; `string'
PUBLIC	??_C@_0N@FGONANPD@faulthandler?$AA@		; `string'
PUBLIC	??_C@_05PEAMIKEP@errno?$AA@			; `string'
PUBLIC	??_C@_05NMLJCBBB@cmath?$AA@			; `string'
PUBLIC	??_C@_08NIDOPABH@binascii?$AA@			; `string'
PUBLIC	??_C@_07DAHKDFPB@audioop?$AA@			; `string'
PUBLIC	??_C@_04BNOAKKGF@_ast?$AA@			; `string'
PUBLIC	??_C@_05HIFJDKLD@array?$AA@			; `string'
PUBLIC	_PyImport_Inittab
EXTRN	PyInit_atexit:PROC
EXTRN	PyInit__pickle:PROC
EXTRN	PyInit__io:PROC
EXTRN	PyInit__string:PROC
EXTRN	_PyWarnings_Init:PROC
EXTRN	PyInit_imp:PROC
EXTRN	PyMarshal_Init:PROC
EXTRN	PyInit__codecs_tw:PROC
EXTRN	PyInit__codecs_kr:PROC
EXTRN	PyInit__codecs_jp:PROC
EXTRN	PyInit__codecs_iso2022:PROC
EXTRN	PyInit__codecs_hk:PROC
EXTRN	PyInit__codecs_cn:PROC
EXTRN	PyInit__multibytecodec:PROC
EXTRN	PyInit_zlib:PROC
EXTRN	PyInit_zipimport:PROC
EXTRN	PyInit_xxsubtype:PROC
EXTRN	PyInit__json:PROC
EXTRN	PyInit__functools:PROC
EXTRN	PyInit__datetime:PROC
EXTRN	PyInit__struct:PROC
EXTRN	PyInit_winreg:PROC
EXTRN	PyInit_parser:PROC
EXTRN	PyInit__sre:PROC
EXTRN	PyInit__csv:PROC
EXTRN	PyInit_mmap:PROC
EXTRN	PyInit__symtable:PROC
EXTRN	PyInit__collections:PROC
EXTRN	PyInit_itertools:PROC
EXTRN	PyInit__lsprof:PROC
EXTRN	PyInit__heapq:PROC
EXTRN	PyInit__bisect:PROC
EXTRN	PyInit__random:PROC
EXTRN	PyInit__weakref:PROC
EXTRN	PyInit__codecs:PROC
EXTRN	PyInit__winapi:PROC
EXTRN	PyInit__locale:PROC
EXTRN	PyInit_msvcrt:PROC
EXTRN	PyInit__thread:PROC
EXTRN	PyInit_time:PROC
EXTRN	PyInit__sha512:PROC
EXTRN	PyInit__sha256:PROC
EXTRN	PyInit__sha1:PROC
EXTRN	PyInit__md5:PROC
EXTRN	PyInit_signal:PROC
EXTRN	PyInit_operator:PROC
EXTRN	PyInit_nt:PROC
EXTRN	PyInit_math:PROC
EXTRN	PyInit_gc:PROC
EXTRN	PyInit_faulthandler:PROC
EXTRN	PyInit_errno:PROC
EXTRN	PyInit_cmath:PROC
EXTRN	PyInit_binascii:PROC
EXTRN	PyInit_audioop:PROC
EXTRN	PyInit__ast:PROC
EXTRN	PyInit_array:PROC
_DATA	SEGMENT
_PyImport_Inittab DQ FLAT:??_C@_05HIFJDKLD@array?$AA@
	DQ	FLAT:PyInit_array
	DQ	FLAT:??_C@_04BNOAKKGF@_ast?$AA@
	DQ	FLAT:PyInit__ast
	DQ	FLAT:??_C@_07DAHKDFPB@audioop?$AA@
	DQ	FLAT:PyInit_audioop
	DQ	FLAT:??_C@_08NIDOPABH@binascii?$AA@
	DQ	FLAT:PyInit_binascii
	DQ	FLAT:??_C@_05NMLJCBBB@cmath?$AA@
	DQ	FLAT:PyInit_cmath
	DQ	FLAT:??_C@_05PEAMIKEP@errno?$AA@
	DQ	FLAT:PyInit_errno
	DQ	FLAT:??_C@_0N@FGONANPD@faulthandler?$AA@
	DQ	FLAT:PyInit_faulthandler
	DQ	FLAT:??_C@_02DPGMDCM@gc?$AA@
	DQ	FLAT:PyInit_gc
	DQ	FLAT:??_C@_04CFDJAKFL@math?$AA@
	DQ	FLAT:PyInit_math
	DQ	FLAT:??_C@_02JKEHMDF@nt?$AA@
	DQ	FLAT:PyInit_nt
	DQ	FLAT:??_C@_08LHJFAFGD@operator?$AA@
	DQ	FLAT:PyInit_operator
	DQ	FLAT:??_C@_06OAFOBKHE@signal?$AA@
	DQ	FLAT:PyInit_signal
	DQ	FLAT:??_C@_04KHDNNOGM@_md5?$AA@
	DQ	FLAT:PyInit__md5
	DQ	FLAT:??_C@_05HMENAHCI@_sha1?$AA@
	DQ	FLAT:PyInit__sha1
	DQ	FLAT:??_C@_07HKDAFOKE@_sha256?$AA@
	DQ	FLAT:PyInit__sha256
	DQ	FLAT:??_C@_07IEICALMF@_sha512?$AA@
	DQ	FLAT:PyInit__sha512
	DQ	FLAT:??_C@_04CLCEDBPF@time?$AA@
	DQ	FLAT:PyInit_time
	DQ	FLAT:??_C@_07CNDFADNJ@_thread?$AA@
	DQ	FLAT:PyInit__thread
	DQ	FLAT:??_C@_06EGGDDPIF@msvcrt?$AA@
	DQ	FLAT:PyInit_msvcrt
	DQ	FLAT:??_C@_07KHCAGKLP@_locale?$AA@
	DQ	FLAT:PyInit__locale
	DQ	FLAT:??_C@_07FFLJJADP@_winapi?$AA@
	DQ	FLAT:PyInit__winapi
	DQ	FLAT:??_C@_07HLOOKDPL@_codecs?$AA@
	DQ	FLAT:PyInit__codecs
	DQ	FLAT:??_C@_08FKMBKJGD@_weakref?$AA@
	DQ	FLAT:PyInit__weakref
	DQ	FLAT:??_C@_07KPBKOMIO@_random?$AA@
	DQ	FLAT:PyInit__random
	DQ	FLAT:??_C@_07JGEBJGAH@_bisect?$AA@
	DQ	FLAT:PyInit__bisect
	DQ	FLAT:??_C@_06ODDEHMFE@_heapq?$AA@
	DQ	FLAT:PyInit__heapq
	DQ	FLAT:??_C@_07JPLDFAOG@_lsprof?$AA@
	DQ	FLAT:PyInit__lsprof
	DQ	FLAT:??_C@_09NCHPBFFI@itertools?$AA@
	DQ	FLAT:PyInit_itertools
	DQ	FLAT:??_C@_0N@DAMHJIHH@_collections?$AA@
	DQ	FLAT:PyInit__collections
	DQ	FLAT:??_C@_09DILDJBMG@_symtable?$AA@
	DQ	FLAT:PyInit__symtable
	DQ	FLAT:??_C@_04PHBJEMCB@mmap?$AA@
	DQ	FLAT:PyInit_mmap
	DQ	FLAT:??_C@_04IFNPAAGM@_csv?$AA@
	DQ	FLAT:PyInit__csv
	DQ	FLAT:??_C@_04LFOLHMFG@_sre?$AA@
	DQ	FLAT:PyInit__sre
	DQ	FLAT:??_C@_06OENOICDH@parser?$AA@
	DQ	FLAT:PyInit_parser
	DQ	FLAT:??_C@_06OHDDMFCG@winreg?$AA@
	DQ	FLAT:PyInit_winreg
	DQ	FLAT:??_C@_07IFNJGOBH@_struct?$AA@
	DQ	FLAT:PyInit__struct
	DQ	FLAT:??_C@_09BLEDGJAH@_datetime?$AA@
	DQ	FLAT:PyInit__datetime
	DQ	FLAT:??_C@_0L@MLIHCBMC@_functools?$AA@
	DQ	FLAT:PyInit__functools
	DQ	FLAT:??_C@_05KBBIEONE@_json?$AA@
	DQ	FLAT:PyInit__json
	DQ	FLAT:??_C@_09DNDNKKCN@xxsubtype?$AA@
	DQ	FLAT:PyInit_xxsubtype
	DQ	FLAT:??_C@_09INHLDGFD@zipimport?$AA@
	DQ	FLAT:PyInit_zipimport
	DQ	FLAT:??_C@_04OLICEBLN@zlib?$AA@
	DQ	FLAT:PyInit_zlib
	DQ	FLAT:??_C@_0BA@EEJLBBNI@_multibytecodec?$AA@
	DQ	FLAT:PyInit__multibytecodec
	DQ	FLAT:??_C@_0L@FJIIJALL@_codecs_cn?$AA@
	DQ	FLAT:PyInit__codecs_cn
	DQ	FLAT:??_C@_0L@CIKKILBP@_codecs_hk?$AA@
	DQ	FLAT:PyInit__codecs_hk
	DQ	FLAT:??_C@_0BA@NBDGFOAF@_codecs_iso2022?$AA@
	DQ	FLAT:PyInit__codecs_iso2022
	DQ	FLAT:??_C@_0L@ICBIJEOL@_codecs_jp?$AA@
	DQ	FLAT:PyInit__codecs_jp
	DQ	FLAT:??_C@_0L@LBOMJMFO@_codecs_kr?$AA@
	DQ	FLAT:PyInit__codecs_kr
	DQ	FLAT:??_C@_0L@NLOBIMFG@_codecs_tw?$AA@
	DQ	FLAT:PyInit__codecs_tw
	DQ	FLAT:??_C@_07HKKFLOCI@marshal?$AA@
	DQ	FLAT:PyMarshal_Init
	DQ	FLAT:??_C@_04KKIAMJPE@_imp?$AA@
	DQ	FLAT:PyInit_imp
	DQ	FLAT:??_C@_08OCOMCJAJ@builtins?$AA@
	DQ	0000000000000000H
	DQ	FLAT:??_C@_03PIADFGHL@sys?$AA@
	DQ	0000000000000000H
	DQ	FLAT:??_C@_09JDLBIJMB@_warnings?$AA@
	DQ	FLAT:_PyWarnings_Init
	DQ	FLAT:??_C@_07PGCBFEPB@_string?$AA@
	DQ	FLAT:PyInit__string
	DQ	FLAT:??_C@_03OILGLINA@_io?$AA@
	DQ	FLAT:PyInit__io
	DQ	FLAT:??_C@_07LOLKJPHM@_pickle?$AA@
	DQ	FLAT:PyInit__pickle
	DQ	FLAT:??_C@_06CMONBEBE@atexit?$AA@
	DQ	FLAT:PyInit_atexit
	DQ	0000000000000000H
	DQ	0000000000000000H
_DATA	ENDS
;	COMDAT ??_C@_06CMONBEBE@atexit?$AA@
CONST	SEGMENT
??_C@_06CMONBEBE@atexit?$AA@ DB 'atexit', 00H		; `string'
CONST	ENDS
;	COMDAT ??_C@_07LOLKJPHM@_pickle?$AA@
CONST	SEGMENT
??_C@_07LOLKJPHM@_pickle?$AA@ DB '_pickle', 00H		; `string'
CONST	ENDS
;	COMDAT ??_C@_03OILGLINA@_io?$AA@
CONST	SEGMENT
??_C@_03OILGLINA@_io?$AA@ DB '_io', 00H			; `string'
CONST	ENDS
;	COMDAT ??_C@_07PGCBFEPB@_string?$AA@
CONST	SEGMENT
??_C@_07PGCBFEPB@_string?$AA@ DB '_string', 00H		; `string'
CONST	ENDS
;	COMDAT ??_C@_09JDLBIJMB@_warnings?$AA@
CONST	SEGMENT
??_C@_09JDLBIJMB@_warnings?$AA@ DB '_warnings', 00H	; `string'
CONST	ENDS
;	COMDAT ??_C@_03PIADFGHL@sys?$AA@
CONST	SEGMENT
??_C@_03PIADFGHL@sys?$AA@ DB 'sys', 00H			; `string'
CONST	ENDS
;	COMDAT ??_C@_08OCOMCJAJ@builtins?$AA@
CONST	SEGMENT
??_C@_08OCOMCJAJ@builtins?$AA@ DB 'builtins', 00H	; `string'
CONST	ENDS
;	COMDAT ??_C@_04KKIAMJPE@_imp?$AA@
CONST	SEGMENT
??_C@_04KKIAMJPE@_imp?$AA@ DB '_imp', 00H		; `string'
CONST	ENDS
;	COMDAT ??_C@_07HKKFLOCI@marshal?$AA@
CONST	SEGMENT
??_C@_07HKKFLOCI@marshal?$AA@ DB 'marshal', 00H		; `string'
CONST	ENDS
;	COMDAT ??_C@_0L@NLOBIMFG@_codecs_tw?$AA@
CONST	SEGMENT
??_C@_0L@NLOBIMFG@_codecs_tw?$AA@ DB '_codecs_tw', 00H	; `string'
CONST	ENDS
;	COMDAT ??_C@_0L@LBOMJMFO@_codecs_kr?$AA@
CONST	SEGMENT
??_C@_0L@LBOMJMFO@_codecs_kr?$AA@ DB '_codecs_kr', 00H	; `string'
CONST	ENDS
;	COMDAT ??_C@_0L@ICBIJEOL@_codecs_jp?$AA@
CONST	SEGMENT
??_C@_0L@ICBIJEOL@_codecs_jp?$AA@ DB '_codecs_jp', 00H	; `string'
CONST	ENDS
;	COMDAT ??_C@_0BA@NBDGFOAF@_codecs_iso2022?$AA@
CONST	SEGMENT
??_C@_0BA@NBDGFOAF@_codecs_iso2022?$AA@ DB '_codecs_iso2022', 00H ; `string'
CONST	ENDS
;	COMDAT ??_C@_0L@CIKKILBP@_codecs_hk?$AA@
CONST	SEGMENT
??_C@_0L@CIKKILBP@_codecs_hk?$AA@ DB '_codecs_hk', 00H	; `string'
CONST	ENDS
;	COMDAT ??_C@_0L@FJIIJALL@_codecs_cn?$AA@
CONST	SEGMENT
??_C@_0L@FJIIJALL@_codecs_cn?$AA@ DB '_codecs_cn', 00H	; `string'
CONST	ENDS
;	COMDAT ??_C@_0BA@EEJLBBNI@_multibytecodec?$AA@
CONST	SEGMENT
??_C@_0BA@EEJLBBNI@_multibytecodec?$AA@ DB '_multibytecodec', 00H ; `string'
CONST	ENDS
;	COMDAT ??_C@_04OLICEBLN@zlib?$AA@
CONST	SEGMENT
??_C@_04OLICEBLN@zlib?$AA@ DB 'zlib', 00H		; `string'
CONST	ENDS
;	COMDAT ??_C@_09INHLDGFD@zipimport?$AA@
CONST	SEGMENT
??_C@_09INHLDGFD@zipimport?$AA@ DB 'zipimport', 00H	; `string'
CONST	ENDS
;	COMDAT ??_C@_09DNDNKKCN@xxsubtype?$AA@
CONST	SEGMENT
??_C@_09DNDNKKCN@xxsubtype?$AA@ DB 'xxsubtype', 00H	; `string'
CONST	ENDS
;	COMDAT ??_C@_05KBBIEONE@_json?$AA@
CONST	SEGMENT
??_C@_05KBBIEONE@_json?$AA@ DB '_json', 00H		; `string'
CONST	ENDS
;	COMDAT ??_C@_0L@MLIHCBMC@_functools?$AA@
CONST	SEGMENT
??_C@_0L@MLIHCBMC@_functools?$AA@ DB '_functools', 00H	; `string'
CONST	ENDS
;	COMDAT ??_C@_09BLEDGJAH@_datetime?$AA@
CONST	SEGMENT
??_C@_09BLEDGJAH@_datetime?$AA@ DB '_datetime', 00H	; `string'
CONST	ENDS
;	COMDAT ??_C@_07IFNJGOBH@_struct?$AA@
CONST	SEGMENT
??_C@_07IFNJGOBH@_struct?$AA@ DB '_struct', 00H		; `string'
CONST	ENDS
;	COMDAT ??_C@_06OHDDMFCG@winreg?$AA@
CONST	SEGMENT
??_C@_06OHDDMFCG@winreg?$AA@ DB 'winreg', 00H		; `string'
CONST	ENDS
;	COMDAT ??_C@_06OENOICDH@parser?$AA@
CONST	SEGMENT
??_C@_06OENOICDH@parser?$AA@ DB 'parser', 00H		; `string'
CONST	ENDS
;	COMDAT ??_C@_04LFOLHMFG@_sre?$AA@
CONST	SEGMENT
??_C@_04LFOLHMFG@_sre?$AA@ DB '_sre', 00H		; `string'
CONST	ENDS
;	COMDAT ??_C@_04IFNPAAGM@_csv?$AA@
CONST	SEGMENT
??_C@_04IFNPAAGM@_csv?$AA@ DB '_csv', 00H		; `string'
CONST	ENDS
;	COMDAT ??_C@_04PHBJEMCB@mmap?$AA@
CONST	SEGMENT
??_C@_04PHBJEMCB@mmap?$AA@ DB 'mmap', 00H		; `string'
CONST	ENDS
;	COMDAT ??_C@_09DILDJBMG@_symtable?$AA@
CONST	SEGMENT
??_C@_09DILDJBMG@_symtable?$AA@ DB '_symtable', 00H	; `string'
CONST	ENDS
;	COMDAT ??_C@_0N@DAMHJIHH@_collections?$AA@
CONST	SEGMENT
??_C@_0N@DAMHJIHH@_collections?$AA@ DB '_collections', 00H ; `string'
CONST	ENDS
;	COMDAT ??_C@_09NCHPBFFI@itertools?$AA@
CONST	SEGMENT
??_C@_09NCHPBFFI@itertools?$AA@ DB 'itertools', 00H	; `string'
CONST	ENDS
;	COMDAT ??_C@_07JPLDFAOG@_lsprof?$AA@
CONST	SEGMENT
??_C@_07JPLDFAOG@_lsprof?$AA@ DB '_lsprof', 00H		; `string'
CONST	ENDS
;	COMDAT ??_C@_06ODDEHMFE@_heapq?$AA@
CONST	SEGMENT
??_C@_06ODDEHMFE@_heapq?$AA@ DB '_heapq', 00H		; `string'
CONST	ENDS
;	COMDAT ??_C@_07JGEBJGAH@_bisect?$AA@
CONST	SEGMENT
??_C@_07JGEBJGAH@_bisect?$AA@ DB '_bisect', 00H		; `string'
CONST	ENDS
;	COMDAT ??_C@_07KPBKOMIO@_random?$AA@
CONST	SEGMENT
??_C@_07KPBKOMIO@_random?$AA@ DB '_random', 00H		; `string'
CONST	ENDS
;	COMDAT ??_C@_08FKMBKJGD@_weakref?$AA@
CONST	SEGMENT
??_C@_08FKMBKJGD@_weakref?$AA@ DB '_weakref', 00H	; `string'
CONST	ENDS
;	COMDAT ??_C@_07HLOOKDPL@_codecs?$AA@
CONST	SEGMENT
??_C@_07HLOOKDPL@_codecs?$AA@ DB '_codecs', 00H		; `string'
CONST	ENDS
;	COMDAT ??_C@_07FFLJJADP@_winapi?$AA@
CONST	SEGMENT
??_C@_07FFLJJADP@_winapi?$AA@ DB '_winapi', 00H		; `string'
CONST	ENDS
;	COMDAT ??_C@_07KHCAGKLP@_locale?$AA@
CONST	SEGMENT
??_C@_07KHCAGKLP@_locale?$AA@ DB '_locale', 00H		; `string'
CONST	ENDS
;	COMDAT ??_C@_06EGGDDPIF@msvcrt?$AA@
CONST	SEGMENT
??_C@_06EGGDDPIF@msvcrt?$AA@ DB 'msvcrt', 00H		; `string'
CONST	ENDS
;	COMDAT ??_C@_07CNDFADNJ@_thread?$AA@
CONST	SEGMENT
??_C@_07CNDFADNJ@_thread?$AA@ DB '_thread', 00H		; `string'
CONST	ENDS
;	COMDAT ??_C@_04CLCEDBPF@time?$AA@
CONST	SEGMENT
??_C@_04CLCEDBPF@time?$AA@ DB 'time', 00H		; `string'
CONST	ENDS
;	COMDAT ??_C@_07IEICALMF@_sha512?$AA@
CONST	SEGMENT
??_C@_07IEICALMF@_sha512?$AA@ DB '_sha512', 00H		; `string'
CONST	ENDS
;	COMDAT ??_C@_07HKDAFOKE@_sha256?$AA@
CONST	SEGMENT
??_C@_07HKDAFOKE@_sha256?$AA@ DB '_sha256', 00H		; `string'
CONST	ENDS
;	COMDAT ??_C@_05HMENAHCI@_sha1?$AA@
CONST	SEGMENT
??_C@_05HMENAHCI@_sha1?$AA@ DB '_sha1', 00H		; `string'
CONST	ENDS
;	COMDAT ??_C@_04KHDNNOGM@_md5?$AA@
CONST	SEGMENT
??_C@_04KHDNNOGM@_md5?$AA@ DB '_md5', 00H		; `string'
CONST	ENDS
;	COMDAT ??_C@_06OAFOBKHE@signal?$AA@
CONST	SEGMENT
??_C@_06OAFOBKHE@signal?$AA@ DB 'signal', 00H		; `string'
CONST	ENDS
;	COMDAT ??_C@_08LHJFAFGD@operator?$AA@
CONST	SEGMENT
??_C@_08LHJFAFGD@operator?$AA@ DB 'operator', 00H	; `string'
CONST	ENDS
;	COMDAT ??_C@_02JKEHMDF@nt?$AA@
CONST	SEGMENT
??_C@_02JKEHMDF@nt?$AA@ DB 'nt', 00H			; `string'
CONST	ENDS
;	COMDAT ??_C@_04CFDJAKFL@math?$AA@
CONST	SEGMENT
??_C@_04CFDJAKFL@math?$AA@ DB 'math', 00H		; `string'
CONST	ENDS
;	COMDAT ??_C@_02DPGMDCM@gc?$AA@
CONST	SEGMENT
??_C@_02DPGMDCM@gc?$AA@ DB 'gc', 00H			; `string'
CONST	ENDS
;	COMDAT ??_C@_0N@FGONANPD@faulthandler?$AA@
CONST	SEGMENT
??_C@_0N@FGONANPD@faulthandler?$AA@ DB 'faulthandler', 00H ; `string'
CONST	ENDS
;	COMDAT ??_C@_05PEAMIKEP@errno?$AA@
CONST	SEGMENT
??_C@_05PEAMIKEP@errno?$AA@ DB 'errno', 00H		; `string'
CONST	ENDS
;	COMDAT ??_C@_05NMLJCBBB@cmath?$AA@
CONST	SEGMENT
??_C@_05NMLJCBBB@cmath?$AA@ DB 'cmath', 00H		; `string'
CONST	ENDS
;	COMDAT ??_C@_08NIDOPABH@binascii?$AA@
CONST	SEGMENT
??_C@_08NIDOPABH@binascii?$AA@ DB 'binascii', 00H	; `string'
CONST	ENDS
;	COMDAT ??_C@_07DAHKDFPB@audioop?$AA@
CONST	SEGMENT
??_C@_07DAHKDFPB@audioop?$AA@ DB 'audioop', 00H		; `string'
CONST	ENDS
;	COMDAT ??_C@_04BNOAKKGF@_ast?$AA@
CONST	SEGMENT
??_C@_04BNOAKKGF@_ast?$AA@ DB '_ast', 00H		; `string'
CONST	ENDS
;	COMDAT ??_C@_05HIFJDKLD@array?$AA@
CONST	SEGMENT
??_C@_05HIFJDKLD@array?$AA@ DB 'array', 00H		; `string'
CONST	ENDS
END
