; Listing generated by Microsoft (R) Optimizing Compiler Version 16.00.40219.01 

include listing.inc

INCLUDELIB MSVCRTD
INCLUDELIB OLDNAMES

PUBLIC	??_C@_0CO@HPEHEBLP@Base?5class?5for?5warnings?5about?5re@ ; `string'
PUBLIC	??_C@_0BA@JIBLCGNF@ResourceWarning?$AA@		; `string'
PUBLIC	??_C@_0HM@KBKMDMHM@Base?5class?5for?5warnings?5about?5by@ ; `string'
PUBLIC	??_C@_0N@BILDEMAG@BytesWarning?$AA@		; `string'
PUBLIC	??_C@_0FP@BEMCLFNP@Base?5class?5for?5warnings?5about?5Un@ ; `string'
PUBLIC	??_C@_0P@DFBLGLPC@UnicodeWarning?$AA@		; `string'
PUBLIC	??_C@_0EC@CFAJPLKK@Base?5class?5for?5warnings?5about?5pr@ ; `string'
PUBLIC	??_C@_0O@MPAGLHE@ImportWarning?$AA@		; `string'
PUBLIC	??_C@_0FG@MEHAINOE@Base?5class?5for?5warnings?5about?5co@ ; `string'
PUBLIC	??_C@_0O@EAIEFLDH@FutureWarning?$AA@		; `string'
PUBLIC	??_C@_0DI@FBPEMJEN@Base?5class?5for?5warnings?5about?5du@ ; `string'
PUBLIC	??_C@_0P@JGMDIAML@RuntimeWarning?$AA@		; `string'
PUBLIC	??_C@_0CO@JDKAKEOK@Base?5class?5for?5warnings?5about?5du@ ; `string'
PUBLIC	??_C@_0O@IOJIPFFN@SyntaxWarning?$AA@		; `string'
PUBLIC	??_C@_0EP@NOKGBDGL@Base?5class?5for?5warnings?5about?5fe@ ; `string'
PUBLIC	??_C@_0BK@JDBEDOM@PendingDeprecationWarning?$AA@ ; `string'
PUBLIC	??_C@_0DD@DDNMECFD@Base?5class?5for?5warnings?5about?5de@ ; `string'
PUBLIC	??_C@_0BD@GIDNBIPD@DeprecationWarning?$AA@	; `string'
PUBLIC	??_C@_0DA@NAMNFIGL@Base?5class?5for?5warnings?5generate@ ; `string'
PUBLIC	??_C@_0M@JCLIHPLC@UserWarning?$AA@		; `string'
PUBLIC	??_C@_0CD@IHAAEPNP@Base?5class?5for?5warning?5categorie@ ; `string'
PUBLIC	??_C@_07KGMMFLDN@Warning?$AA@			; `string'
PUBLIC	??_C@_0O@GFOKIHDB@Buffer?5error?4?$AA@		; `string'
PUBLIC	??_C@_0M@IEEINKIE@BufferError?$AA@		; `string'
PUBLIC	??_C@_0P@ILLCNIIE@Out?5of?5memory?4?$AA@	; `string'
PUBLIC	??_C@_0M@HIBAKAFK@MemoryError?$AA@		; `string'
PUBLIC	??_C@_0DG@LICMCCGN@Async?5run?$CI?$CJ?5detected?5that?5there?5@ ; `string'
PUBLIC	??_C@_0BM@GCGOLDFN@AsyncRunNoActiveEventsError?$AA@ ; `string'
PUBLIC	??_C@_0CH@LDJJHMMC@Async?5run?$CI?$CJ?5called?5without?5any?5e@ ; `string'
PUBLIC	??_C@_0CB@DHCJJACB@AsyncRunCalledWithoutEventsError@ ; `string'
PUBLIC	??_C@_0BN@KHNEADKG@Base?5class?5for?5async?5errors?4?$AA@ ; `string'
PUBLIC	??_C@_0L@POMMPANG@AsyncError?$AA@		; `string'
PUBLIC	??_C@_0EN@KNPFPBJJ@Implicit?5access?5to?5nonlocal?5vari@ ; `string'
PUBLIC	??_C@_0CE@ONNHACJB@ParallelNonlocalVariableAccessEr@ ; `string'
PUBLIC	??_C@_0EL@PLHLDPCD@Implicit?5access?5to?5global?5variab@ ; `string'
PUBLIC	??_C@_0CC@HPLHCPKN@ParallelGlobalVariableAccessErro@ ; `string'
PUBLIC	??_C@_0DD@JGEGKCHH@Import?5not?5permitted?5from?5within@ ; `string'
PUBLIC	??_C@_0BE@FCGCAOGC@ParallelImportError?$AA@	; `string'
PUBLIC	??_C@_0DG@NPBGBDKP@Operation?5not?5permitted?5from?5wit@ ; `string'
PUBLIC	??_C@_0BF@HFKFAIAA@ParallelContextError?$AA@	; `string'
PUBLIC	??_C@_0DE@INBJNFAJ@Failed?5to?5initialize?5parallel?5co@ ; `string'
PUBLIC	??_C@_0CD@MNHCHPAI@ParallelContextInitializationErr@ ; `string'
PUBLIC	??_C@_0CK@IKBKELBP@Failed?5to?5initialize?5new?5paralle@ ; `string'
PUBLIC	??_C@_0CC@IAEHFMP@ParallelThreadInitializationErro@ ; `string'
PUBLIC	??_C@_0CA@NKCFMBPJ@Base?5class?5for?5parallel?5errors?4?$AA@ ; `string'
PUBLIC	??_C@_0O@GFKDNBOD@ParallelError?$AA@		; `string'
PUBLIC	??_C@_0CO@BODDBCMG@Weak?5ref?5proxy?5used?5after?5refere@ ; `string'
PUBLIC	??_C@_0P@NJFCDLEA@ReferenceError?$AA@		; `string'
PUBLIC	??_C@_0LA@PADCOJHH@Internal?5error?5in?5the?5Python?5int@ ; `string'
PUBLIC	??_C@_0M@MLMICFKM@SystemError?$AA@		; `string'
PUBLIC	??_C@_0DM@HNAOGMFP@Second?5argument?5to?5a?5division?5or@ ; `string'
PUBLIC	??_C@_0BC@JKCGANPD@ZeroDivisionError?$AA@	; `string'
PUBLIC	??_C@_0CE@DNDJACFH@Result?5too?5large?5to?5be?5represent@ ; `string'
PUBLIC	??_C@_0O@DAFOBLHH@OverflowError?$AA@		; `string'
PUBLIC	??_C@_0CB@CNKBBAIB@Floating?5point?5operation?5failed?4@ ; `string'
PUBLIC	??_C@_0BD@BMMMKAGK@FloatingPointError?$AA@	; `string'
PUBLIC	??_C@_0CC@PPOJNHHK@Base?5class?5for?5arithmetic?5errors@ ; `string'
PUBLIC	??_C@_0BA@HMBIHIEF@ArithmeticError?$AA@		; `string'
PUBLIC	??_C@_0BC@DHBLDLOI@Assertion?5failed?4?$AA@	; `string'
PUBLIC	??_C@_0P@ECLAGKMP@AssertionError?$AA@		; `string'
PUBLIC	??_C@_0BL@BOAAJAHA@Unicode?5translation?5error?4?$AA@ ; `string'
PUBLIC	??_C@_0BG@MKGFNNGN@UnicodeTranslateError?$AA@	; `string'
PUBLIC	??_C@_0BI@GHLGAONJ@Unicode?5decoding?5error?4?$AA@ ; `string'
PUBLIC	??_C@_0BD@EMOAOOII@UnicodeDecodeError?$AA@	; `string'
PUBLIC	??_C@_0BI@BHCKDJLG@Unicode?5encoding?5error?4?$AA@ ; `string'
PUBLIC	??_C@_0BD@PEGECFKD@UnicodeEncodeError?$AA@	; `string'
PUBLIC	??_C@_0BB@PLOKJKDH@exception?5reason?$AA@	; `string'
PUBLIC	??_C@_06CEHAOENB@reason?$AA@			; `string'
PUBLIC	??_C@_0O@ONMBNCFM@exception?5end?$AA@		; `string'
PUBLIC	??_C@_03JBJLGPFL@end?$AA@			; `string'
PUBLIC	??_C@_0BA@KKPENCDK@exception?5start?$AA@	; `string'
PUBLIC	??_C@_05FAGFPHJG@start?$AA@			; `string'
PUBLIC	??_C@_0BB@FLHDGNGM@exception?5object?$AA@	; `string'
PUBLIC	??_C@_06IEOJBDIK@object?$AA@			; `string'
PUBLIC	??_C@_0BD@HEGPNDEB@exception?5encoding?$AA@	; `string'
PUBLIC	??_C@_08MLPGAEIK@encoding?$AA@			; `string'
PUBLIC	??_C@_0BH@LFJEPFCJ@Unicode?5related?5error?4?$AA@ ; `string'
PUBLIC	??_C@_0N@HJMCMBLP@UnicodeError?$AA@		; `string'
PUBLIC	??_C@_0DA@PDIMAGJA@Inappropriate?5argument?5value?5?$CIof@ ; `string'
PUBLIC	??_C@_0L@POAMGPDC@ValueError?$AA@		; `string'
PUBLIC	??_C@_0BH@NGNBEPFN@Mapping?5key?5not?5found?4?$AA@ ; `string'
PUBLIC	??_C@_08OHPJJKKC@KeyError?$AA@			; `string'
PUBLIC	??_C@_0BN@MPIMOMNM@Sequence?5index?5out?5of?5range?4?$AA@ ; `string'
PUBLIC	??_C@_0L@PDGDGKIP@IndexError?$AA@		; `string'
PUBLIC	??_C@_0BO@OONBGEOC@Base?5class?5for?5lookup?5errors?4?$AA@ ; `string'
PUBLIC	??_C@_0M@MHFOHJEK@LookupError?$AA@		; `string'
PUBLIC	??_C@_0CF@GKBIKMOP@Improper?5mixture?5of?5spaces?5and?5t@ ; `string'
PUBLIC	??_C@_08HFBDNBMM@TabError?$AA@			; `string'
PUBLIC	??_C@_0BG@EODDEBDJ@Improper?5indentation?4?$AA@	; `string'
PUBLIC	??_C@_0BB@PAPDAKC@IndentationError?$AA@		; `string'
PUBLIC	??_C@_0BA@GFAEMOKB@Invalid?5syntax?4?$AA@	; `string'
PUBLIC	??_C@_0M@KIDEJCGH@SyntaxError?$AA@		; `string'
PUBLIC	??_C@_0BO@GMLCEMFL@exception?5print_file_and_line?$AA@ ; `string'
PUBLIC	??_C@_0BE@DKBHEDDB@print_file_and_line?$AA@	; `string'
PUBLIC	??_C@_0P@LGNOADNI@exception?5text?$AA@		; `string'
PUBLIC	??_C@_04CIMGMMMG@text?$AA@			; `string'
PUBLIC	??_C@_0BB@HEONLGIK@exception?5offset?$AA@	; `string'
PUBLIC	??_C@_06KLHHMIGM@offset?$AA@			; `string'
PUBLIC	??_C@_0BB@FEDCHJDL@exception?5lineno?$AA@	; `string'
PUBLIC	??_C@_06ILKIAHNN@lineno?$AA@			; `string'
PUBLIC	??_C@_0O@BHKGJJFD@exception?5msg?$AA@		; `string'
PUBLIC	??_C@_0BF@KBBDNFNN@Attribute?5not?5found?4?$AA@	; `string'
PUBLIC	??_C@_0P@OMMLLIOG@AttributeError?$AA@		; `string'
PUBLIC	??_C@_0DA@JDNAGEED@Local?5name?5referenced?5but?5not?5bo@ ; `string'
PUBLIC	??_C@_0BC@EJBPJIJA@UnboundLocalError?$AA@	; `string'
PUBLIC	??_C@_0BJ@CKADCLHL@Name?5not?5found?5globally?4?$AA@ ; `string'
PUBLIC	??_C@_09GENDEFL@NameError?$AA@			; `string'
PUBLIC	??_C@_0DA@PMFCDFAJ@Method?5or?5function?5hasn?8t?5been?5i@ ; `string'
PUBLIC	??_C@_0BE@NIHEKDAM@NotImplementedError?$AA@	; `string'
PUBLIC	??_C@_0BM@GMHHIONK@Unspecified?5run?9time?5error?4?$AA@ ; `string'
PUBLIC	??_C@_0N@PJCHGDKG@RuntimeError?$AA@		; `string'
PUBLIC	??_C@_0BJ@DBOMGJHD@Read?5beyond?5end?5of?5file?4?$AA@ ; `string'
PUBLIC	??_C@_08BJKGOKBF@EOFError?$AA@			; `string'
PUBLIC	??_C@_0BB@KIFGEFOB@Timeout?5expired?4?$AA@	; `string'
PUBLIC	??_C@_0N@BMLDFELP@TimeoutError?$AA@		; `string'
PUBLIC	??_C@_0BD@CDPGLGNA@Process?5not?5found?4?$AA@	; `string'
PUBLIC	??_C@_0BD@LBBCHOLB@ProcessLookupError?$AA@	; `string'
PUBLIC	??_C@_0BI@ICBFMNFH@Not?5enough?5permissions?4?$AA@ ; `string'
PUBLIC	??_C@_0BA@EGIOHDMA@PermissionError?$AA@		; `string'
PUBLIC	??_C@_0BH@DPFOMFFN@Interrupted?5by?5signal?4?$AA@ ; `string'
PUBLIC	??_C@_0BB@PFBGOELP@InterruptedError?$AA@	; `string'
PUBLIC	??_C@_0CF@MHLAOJGN@Operation?5only?5works?5on?5director@ ; `string'
PUBLIC	??_C@_0BD@BDDBNNNE@NotADirectoryError?$AA@	; `string'
PUBLIC	??_C@_0CH@PKAKIMKI@Operation?5doesn?8t?5work?5on?5direct@ ; `string'
PUBLIC	??_C@_0BC@EPPFJLG@IsADirectoryError?$AA@	; `string'
PUBLIC	??_C@_0BA@DOIDIGMK@File?5not?5found?4?$AA@	; `string'
PUBLIC	??_C@_0BC@IPPJKII@FileNotFoundError?$AA@	; `string'
PUBLIC	??_C@_0BF@PBMIGFNE@File?5already?5exists?4?$AA@	; `string'
PUBLIC	??_C@_0BA@FBEHCPFP@FileExistsError?$AA@		; `string'
PUBLIC	??_C@_0BC@PIBEPGML@Connection?5reset?4?$AA@	; `string'
PUBLIC	??_C@_0BF@KPCMAHCN@ConnectionResetError?$AA@	; `string'
PUBLIC	??_C@_0BE@PAAMHJLG@Connection?5refused?4?$AA@	; `string'
PUBLIC	??_C@_0BH@NFNMCF@ConnectionRefusedError?$AA@	; `string'
PUBLIC	??_C@_0BE@FFDJKHGA@Connection?5aborted?4?$AA@	; `string'
PUBLIC	??_C@_0BH@IAHALHIL@ConnectionAbortedError?$AA@	; `string'
PUBLIC	??_C@_0N@KCAMOIPH@Broken?5pipe?4?$AA@		; `string'
PUBLIC	??_C@_0BA@OKFJGAGB@BrokenPipeError?$AA@		; `string'
PUBLIC	??_C@_0BF@IOACMFNO@Child?5process?5error?4?$AA@	; `string'
PUBLIC	??_C@_0BC@LJAFFAPL@ChildProcessError?$AA@	; `string'
PUBLIC	??_C@_0BC@BCOONDMO@Connection?5error?4?$AA@	; `string'
PUBLIC	??_C@_0BA@FGMDNHAG@ConnectionError?$AA@		; `string'
PUBLIC	??_C@_0BL@LJLKLDJH@I?1O?5operation?5would?5block?4?$AA@ ; `string'
PUBLIC	??_C@_0BA@JGPGLFDG@BlockingIOError?$AA@		; `string'
PUBLIC	??_C@_0CD@BBOAKDDD@Base?5class?5for?5I?1O?5related?5error@ ; `string'
PUBLIC	??_C@_07DLGONEPD@OSError?$AA@			; `string'
PUBLIC	??_C@_0BD@MJNIBNKM@characters_written?$AA@	; `string'
PUBLIC	??_C@_0BF@EGKICGDH@Win32?5exception?5code?$AA@	; `string'
PUBLIC	??_C@_08NNIGBLFN@winerror?$AA@			; `string'
PUBLIC	??_C@_0BD@KPIAFJIH@exception?5filename?$AA@	; `string'
PUBLIC	??_C@_08BABJIOEM@filename?$AA@			; `string'
PUBLIC	??_C@_0BD@HIDDEPNK@exception?5strerror?$AA@	; `string'
PUBLIC	??_C@_08MHKKJIBB@strerror?$AA@			; `string'
PUBLIC	??_C@_0BF@CJFJGJAA@POSIX?5exception?5code?$AA@	; `string'
PUBLIC	??_C@_05PEAMIKEP@errno?$AA@			; `string'
PUBLIC	??_C@_0DI@HEBCIICE@Import?5can?8t?5find?5module?0?5or?5can@ ; `string'
PUBLIC	??_C@_0M@HCFCBBPI@ImportError?$AA@		; `string'
PUBLIC	??_C@_0M@EODBJGBC@module?5path?$AA@		; `string'
PUBLIC	??_C@_04LNEJFJGI@path?$AA@			; `string'
PUBLIC	??_C@_0M@DHLIFJED@module?5name?$AA@		; `string'
PUBLIC	??_C@_04MEMAJGDJ@name?$AA@			; `string'
PUBLIC	??_C@_0BC@KEEHBMNM@exception?5message?$AA@	; `string'
PUBLIC	??_C@_03GLPMCEFE@msg?$AA@			; `string'
PUBLIC	??_C@_0BN@MANALLKN@Program?5interrupted?5by?5user?4?$AA@ ; `string'
PUBLIC	??_C@_0BC@BACBBCED@KeyboardInterrupt?$AA@	; `string'
PUBLIC	??_C@_0CG@KDLBFKIC@Request?5to?5exit?5from?5the?5interpr@ ; `string'
PUBLIC	??_C@_0L@MBGFFHMP@SystemExit?$AA@		; `string'
PUBLIC	??_C@_0P@ENEGNBCK@exception?5code?$AA@		; `string'
PUBLIC	??_C@_04NDFOBODE@code?$AA@			; `string'
PUBLIC	??_C@_0BP@OCIPBJOC@Request?5that?5a?5generator?5exit?4?$AA@ ; `string'
PUBLIC	??_C@_0O@GBGLOLNB@GeneratorExit?$AA@		; `string'
PUBLIC	??_C@_0CJ@IGGDMNCD@Signal?5the?5end?5from?5iterator?4__n@ ; `string'
PUBLIC	??_C@_0O@LGLKOGMF@StopIteration?$AA@		; `string'
PUBLIC	??_C@_0BH@CEJBINIP@generator?5return?5value?$AA@ ; `string'
PUBLIC	??_C@_05MFEJDJP@value?$AA@			; `string'
PUBLIC	??_C@_0BN@GFNFLJFF@Inappropriate?5argument?5type?4?$AA@ ; `string'
PUBLIC	??_C@_09MGGHOBOJ@TypeError?$AA@			; `string'
PUBLIC	??_C@_0CP@EGCLOIMN@Common?5base?5class?5for?5all?5non?9ex@ ; `string'
PUBLIC	??_C@_09FBNMMHMJ@Exception?$AA@			; `string'
PUBLIC	??_C@_0CF@KACNFHAK@Common?5base?5class?5for?5all?5except@ ; `string'
PUBLIC	??_C@_0O@GCAIIPIB@BaseException?$AA@		; `string'
PUBLIC	??_C@_0BF@PLNDEDFH@__suppress_context__?$AA@	; `string'
PUBLIC	??_C@_0BA@IMECEBLM@exception?5cause?$AA@	; `string'
PUBLIC	??_C@_09DJICANKI@__cause__?$AA@			; `string'
PUBLIC	??_C@_0BC@NDBEMMPP@exception?5context?$AA@	; `string'
PUBLIC	??_C@_0M@GKMKEIIC@__context__?$AA@		; `string'
PUBLIC	??_C@_0O@IEBEOCOE@__traceback__?$AA@		; `string'
PUBLIC	??_C@_04BFDDMJJI@args?$AA@			; `string'
PUBLIC	??_C@_08IBFKALI@__dict__?$AA@			; `string'
PUBLIC	??_C@_0P@FLIOKJJK@with_traceback?$AA@		; `string'
PUBLIC	??_C@_0N@MOOGCAMH@__setstate__?$AA@		; `string'
PUBLIC	??_C@_0L@NNMACJIG@__reduce__?$AA@		; `string'
PUBLIC	PyExc_EnvironmentError
PUBLIC	PyExc_IOError
PUBLIC	PyExc_WindowsError
PUBLIC	PyExc_BaseException
PUBLIC	PyExc_Exception
PUBLIC	PyExc_TypeError
PUBLIC	PyExc_StopIteration
PUBLIC	PyExc_GeneratorExit
PUBLIC	PyExc_SystemExit
PUBLIC	PyExc_KeyboardInterrupt
PUBLIC	PyExc_ImportError
PUBLIC	PyExc_OSError
PUBLIC	PyExc_BlockingIOError
PUBLIC	PyExc_ConnectionError
PUBLIC	PyExc_ChildProcessError
PUBLIC	PyExc_BrokenPipeError
PUBLIC	PyExc_ConnectionAbortedError
PUBLIC	PyExc_ConnectionRefusedError
PUBLIC	PyExc_ConnectionResetError
PUBLIC	PyExc_FileExistsError
PUBLIC	PyExc_FileNotFoundError
PUBLIC	PyExc_IsADirectoryError
PUBLIC	PyExc_NotADirectoryError
PUBLIC	PyExc_InterruptedError
PUBLIC	PyExc_PermissionError
PUBLIC	PyExc_ProcessLookupError
PUBLIC	PyExc_TimeoutError
PUBLIC	PyExc_EOFError
PUBLIC	PyExc_RuntimeError
PUBLIC	PyExc_NotImplementedError
PUBLIC	PyExc_NameError
PUBLIC	PyExc_UnboundLocalError
PUBLIC	PyExc_AttributeError
PUBLIC	PyExc_SyntaxError
PUBLIC	PyExc_IndentationError
PUBLIC	PyExc_TabError
PUBLIC	PyExc_LookupError
PUBLIC	PyExc_IndexError
PUBLIC	PyExc_KeyError
PUBLIC	PyExc_ValueError
PUBLIC	PyExc_UnicodeError
PUBLIC	PyExc_UnicodeEncodeError
PUBLIC	PyExc_UnicodeDecodeError
PUBLIC	PyExc_UnicodeTranslateError
PUBLIC	PyExc_AssertionError
PUBLIC	PyExc_ArithmeticError
PUBLIC	PyExc_FloatingPointError
PUBLIC	PyExc_OverflowError
PUBLIC	PyExc_ZeroDivisionError
PUBLIC	PyExc_SystemError
PUBLIC	PyExc_ReferenceError
PUBLIC	PyExc_ParallelError
PUBLIC	PyExc_ParallelThreadInitializationError
PUBLIC	PyExc_ParallelContextInitializationError
PUBLIC	PyExc_ParallelContextError
PUBLIC	PyExc_ParallelImportError
PUBLIC	PyExc_ParallelGlobalVariableAccessError
PUBLIC	PyExc_ParallelNonlocalVariableAccessError
PUBLIC	PyExc_AsyncError
PUBLIC	PyExc_AsyncRunCalledWithoutEventsError
PUBLIC	PyExc_AsyncRunNoActiveEventsError
PUBLIC	PyExc_MemoryError
PUBLIC	PyExc_BufferError
PUBLIC	PyExc_Warning
PUBLIC	PyExc_UserWarning
PUBLIC	PyExc_DeprecationWarning
PUBLIC	PyExc_PendingDeprecationWarning
PUBLIC	PyExc_SyntaxWarning
PUBLIC	PyExc_RuntimeWarning
PUBLIC	PyExc_FutureWarning
PUBLIC	PyExc_ImportWarning
PUBLIC	PyExc_UnicodeWarning
PUBLIC	PyExc_BytesWarning
PUBLIC	PyExc_ResourceWarning
PUBLIC	PyExc_RecursionErrorInst
EXTRN	PyObject_GenericSetAttr:PROC
EXTRN	PyObject_GenericGetAttr:PROC
EXTRN	PyObject_GenericSetDict:PROC
EXTRN	PyObject_GenericGetDict:PROC
_BSS	SEGMENT
PyExc_EnvironmentError DQ 01H DUP (?)
PyExc_IOError DQ 01H DUP (?)
PyExc_WindowsError DQ 01H DUP (?)
errnomap DQ	01H DUP (?)
ImportError_methods DB 020H DUP (?)
memerrors_freelist DQ 01H DUP (?)
memerrors_numfree DD 01H DUP (?)
	ALIGN	8

PyExc_RecursionErrorInst DQ 01H DUP (?)
_BSS	ENDS
;	COMDAT ??_C@_0CO@HPEHEBLP@Base?5class?5for?5warnings?5about?5re@
CONST	SEGMENT
??_C@_0CO@HPEHEBLP@Base?5class?5for?5warnings?5about?5re@ DB 'Base class '
	DB	'for warnings about resource usage.', 00H	; `string'
CONST	ENDS
;	COMDAT ??_C@_0BA@JIBLCGNF@ResourceWarning?$AA@
CONST	SEGMENT
??_C@_0BA@JIBLCGNF@ResourceWarning?$AA@ DB 'ResourceWarning', 00H ; `string'
CONST	ENDS
;	COMDAT ??_C@_0HM@KBKMDMHM@Base?5class?5for?5warnings?5about?5by@
CONST	SEGMENT
??_C@_0HM@KBKMDMHM@Base?5class?5for?5warnings?5about?5by@ DB 'Base class '
	DB	'for warnings about bytes and buffer related problems, mostly', 0aH
	DB	'related to conversion from str or comparing to str.', 00H ; `string'
CONST	ENDS
;	COMDAT ??_C@_0N@BILDEMAG@BytesWarning?$AA@
CONST	SEGMENT
??_C@_0N@BILDEMAG@BytesWarning?$AA@ DB 'BytesWarning', 00H ; `string'
CONST	ENDS
;	COMDAT ??_C@_0FP@BEMCLFNP@Base?5class?5for?5warnings?5about?5Un@
CONST	SEGMENT
??_C@_0FP@BEMCLFNP@Base?5class?5for?5warnings?5about?5Un@ DB 'Base class '
	DB	'for warnings about Unicode related problems, mostly', 0aH, 'r'
	DB	'elated to conversion problems.', 00H	; `string'
CONST	ENDS
;	COMDAT ??_C@_0P@DFBLGLPC@UnicodeWarning?$AA@
CONST	SEGMENT
??_C@_0P@DFBLGLPC@UnicodeWarning?$AA@ DB 'UnicodeWarning', 00H ; `string'
CONST	ENDS
;	COMDAT ??_C@_0EC@CFAJPLKK@Base?5class?5for?5warnings?5about?5pr@
CONST	SEGMENT
??_C@_0EC@CFAJPLKK@Base?5class?5for?5warnings?5about?5pr@ DB 'Base class '
	DB	'for warnings about probable mistakes in module imports', 00H ; `string'
CONST	ENDS
;	COMDAT ??_C@_0O@MPAGLHE@ImportWarning?$AA@
CONST	SEGMENT
??_C@_0O@MPAGLHE@ImportWarning?$AA@ DB 'ImportWarning', 00H ; `string'
CONST	ENDS
;	COMDAT ??_C@_0FG@MEHAINOE@Base?5class?5for?5warnings?5about?5co@
CONST	SEGMENT
??_C@_0FG@MEHAINOE@Base?5class?5for?5warnings?5about?5co@ DB 'Base class '
	DB	'for warnings about constructs that will change semantically', 0aH
	DB	'in the future.', 00H			; `string'
CONST	ENDS
;	COMDAT ??_C@_0O@EAIEFLDH@FutureWarning?$AA@
CONST	SEGMENT
??_C@_0O@EAIEFLDH@FutureWarning?$AA@ DB 'FutureWarning', 00H ; `string'
CONST	ENDS
;	COMDAT ??_C@_0DI@FBPEMJEN@Base?5class?5for?5warnings?5about?5du@
CONST	SEGMENT
??_C@_0DI@FBPEMJEN@Base?5class?5for?5warnings?5about?5du@ DB 'Base class '
	DB	'for warnings about dubious runtime behavior.', 00H ; `string'
CONST	ENDS
;	COMDAT ??_C@_0P@JGMDIAML@RuntimeWarning?$AA@
CONST	SEGMENT
??_C@_0P@JGMDIAML@RuntimeWarning?$AA@ DB 'RuntimeWarning', 00H ; `string'
CONST	ENDS
;	COMDAT ??_C@_0CO@JDKAKEOK@Base?5class?5for?5warnings?5about?5du@
CONST	SEGMENT
??_C@_0CO@JDKAKEOK@Base?5class?5for?5warnings?5about?5du@ DB 'Base class '
	DB	'for warnings about dubious syntax.', 00H	; `string'
CONST	ENDS
;	COMDAT ??_C@_0O@IOJIPFFN@SyntaxWarning?$AA@
CONST	SEGMENT
??_C@_0O@IOJIPFFN@SyntaxWarning?$AA@ DB 'SyntaxWarning', 00H ; `string'
CONST	ENDS
;	COMDAT ??_C@_0EP@NOKGBDGL@Base?5class?5for?5warnings?5about?5fe@
CONST	SEGMENT
??_C@_0EP@NOKGBDGL@Base?5class?5for?5warnings?5about?5fe@ DB 'Base class '
	DB	'for warnings about features which will be deprecated', 0aH, 'i'
	DB	'n the future.', 00H				; `string'
CONST	ENDS
;	COMDAT ??_C@_0BK@JDBEDOM@PendingDeprecationWarning?$AA@
CONST	SEGMENT
??_C@_0BK@JDBEDOM@PendingDeprecationWarning?$AA@ DB 'PendingDeprecationWa'
	DB	'rning', 00H					; `string'
CONST	ENDS
;	COMDAT ??_C@_0DD@DDNMECFD@Base?5class?5for?5warnings?5about?5de@
CONST	SEGMENT
??_C@_0DD@DDNMECFD@Base?5class?5for?5warnings?5about?5de@ DB 'Base class '
	DB	'for warnings about deprecated features.', 00H ; `string'
CONST	ENDS
;	COMDAT ??_C@_0BD@GIDNBIPD@DeprecationWarning?$AA@
CONST	SEGMENT
??_C@_0BD@GIDNBIPD@DeprecationWarning?$AA@ DB 'DeprecationWarning', 00H ; `string'
CONST	ENDS
;	COMDAT ??_C@_0DA@NAMNFIGL@Base?5class?5for?5warnings?5generate@
CONST	SEGMENT
??_C@_0DA@NAMNFIGL@Base?5class?5for?5warnings?5generate@ DB 'Base class f'
	DB	'or warnings generated by user code.', 00H	; `string'
CONST	ENDS
;	COMDAT ??_C@_0M@JCLIHPLC@UserWarning?$AA@
CONST	SEGMENT
??_C@_0M@JCLIHPLC@UserWarning?$AA@ DB 'UserWarning', 00H ; `string'
CONST	ENDS
;	COMDAT ??_C@_0CD@IHAAEPNP@Base?5class?5for?5warning?5categorie@
CONST	SEGMENT
??_C@_0CD@IHAAEPNP@Base?5class?5for?5warning?5categorie@ DB 'Base class f'
	DB	'or warning categories.', 00H		; `string'
CONST	ENDS
;	COMDAT ??_C@_07KGMMFLDN@Warning?$AA@
CONST	SEGMENT
??_C@_07KGMMFLDN@Warning?$AA@ DB 'Warning', 00H		; `string'
CONST	ENDS
;	COMDAT ??_C@_0O@GFOKIHDB@Buffer?5error?4?$AA@
CONST	SEGMENT
??_C@_0O@GFOKIHDB@Buffer?5error?4?$AA@ DB 'Buffer error.', 00H ; `string'
CONST	ENDS
;	COMDAT ??_C@_0M@IEEINKIE@BufferError?$AA@
CONST	SEGMENT
??_C@_0M@IEEINKIE@BufferError?$AA@ DB 'BufferError', 00H ; `string'
CONST	ENDS
;	COMDAT ??_C@_0P@ILLCNIIE@Out?5of?5memory?4?$AA@
CONST	SEGMENT
??_C@_0P@ILLCNIIE@Out?5of?5memory?4?$AA@ DB 'Out of memory.', 00H ; `string'
CONST	ENDS
;	COMDAT ??_C@_0M@HIBAKAFK@MemoryError?$AA@
CONST	SEGMENT
??_C@_0M@HIBAKAFK@MemoryError?$AA@ DB 'MemoryError', 00H ; `string'
CONST	ENDS
;	COMDAT ??_C@_0DG@LICMCCGN@Async?5run?$CI?$CJ?5detected?5that?5there?5@
CONST	SEGMENT
??_C@_0DG@LICMCCGN@Async?5run?$CI?$CJ?5detected?5that?5there?5@ DB 'Async'
	DB	' run() detected that there are no active events.', 00H ; `string'
CONST	ENDS
;	COMDAT ??_C@_0BM@GCGOLDFN@AsyncRunNoActiveEventsError?$AA@
CONST	SEGMENT
??_C@_0BM@GCGOLDFN@AsyncRunNoActiveEventsError?$AA@ DB 'AsyncRunNoActiveE'
	DB	'ventsError', 00H				; `string'
CONST	ENDS
;	COMDAT ??_C@_0CH@LDJJHMMC@Async?5run?$CI?$CJ?5called?5without?5any?5e@
CONST	SEGMENT
??_C@_0CH@LDJJHMMC@Async?5run?$CI?$CJ?5called?5without?5any?5e@ DB 'Async'
	DB	' run() called without any events.', 00H	; `string'
CONST	ENDS
;	COMDAT ??_C@_0CB@DHCJJACB@AsyncRunCalledWithoutEventsError@
CONST	SEGMENT
??_C@_0CB@DHCJJACB@AsyncRunCalledWithoutEventsError@ DB 'AsyncRunCalledWi'
	DB	'thoutEventsError', 00H			; `string'
CONST	ENDS
;	COMDAT ??_C@_0BN@KHNEADKG@Base?5class?5for?5async?5errors?4?$AA@
CONST	SEGMENT
??_C@_0BN@KHNEADKG@Base?5class?5for?5async?5errors?4?$AA@ DB 'Base class '
	DB	'for async errors.', 00H			; `string'
CONST	ENDS
;	COMDAT ??_C@_0L@POMMPANG@AsyncError?$AA@
CONST	SEGMENT
??_C@_0L@POMMPANG@AsyncError?$AA@ DB 'AsyncError', 00H	; `string'
CONST	ENDS
;	COMDAT ??_C@_0EN@KNPFPBJJ@Implicit?5access?5to?5nonlocal?5vari@
CONST	SEGMENT
??_C@_0EN@KNPFPBJJ@Implicit?5access?5to?5nonlocal?5vari@ DB 'Implicit acc'
	DB	'ess to nonlocal variables not permitted within parallel conte'
	DB	'xt.', 00H					; `string'
CONST	ENDS
;	COMDAT ??_C@_0CE@ONNHACJB@ParallelNonlocalVariableAccessEr@
CONST	SEGMENT
??_C@_0CE@ONNHACJB@ParallelNonlocalVariableAccessEr@ DB 'ParallelNonlocal'
	DB	'VariableAccessError', 00H			; `string'
CONST	ENDS
;	COMDAT ??_C@_0EL@PLHLDPCD@Implicit?5access?5to?5global?5variab@
CONST	SEGMENT
??_C@_0EL@PLHLDPCD@Implicit?5access?5to?5global?5variab@ DB 'Implicit acc'
	DB	'ess to global variables not permitted within parallel context'
	DB	'.', 00H					; `string'
CONST	ENDS
;	COMDAT ??_C@_0CC@HPLHCPKN@ParallelGlobalVariableAccessErro@
CONST	SEGMENT
??_C@_0CC@HPLHCPKN@ParallelGlobalVariableAccessErro@ DB 'ParallelGlobalVa'
	DB	'riableAccessError', 00H			; `string'
CONST	ENDS
;	COMDAT ??_C@_0DD@JGEGKCHH@Import?5not?5permitted?5from?5within@
CONST	SEGMENT
??_C@_0DD@JGEGKCHH@Import?5not?5permitted?5from?5within@ DB 'Import not p'
	DB	'ermitted from within parallel context.', 00H ; `string'
CONST	ENDS
;	COMDAT ??_C@_0BE@FCGCAOGC@ParallelImportError?$AA@
CONST	SEGMENT
??_C@_0BE@FCGCAOGC@ParallelImportError?$AA@ DB 'ParallelImportError', 00H ; `string'
CONST	ENDS
;	COMDAT ??_C@_0DG@NPBGBDKP@Operation?5not?5permitted?5from?5wit@
CONST	SEGMENT
??_C@_0DG@NPBGBDKP@Operation?5not?5permitted?5from?5wit@ DB 'Operation no'
	DB	't permitted from within parallel context.', 00H ; `string'
CONST	ENDS
;	COMDAT ??_C@_0BF@HFKFAIAA@ParallelContextError?$AA@
CONST	SEGMENT
??_C@_0BF@HFKFAIAA@ParallelContextError?$AA@ DB 'ParallelContextError', 00H ; `string'
CONST	ENDS
;	COMDAT ??_C@_0DE@INBJNFAJ@Failed?5to?5initialize?5parallel?5co@
CONST	SEGMENT
??_C@_0DE@INBJNFAJ@Failed?5to?5initialize?5parallel?5co@ DB 'Failed to in'
	DB	'itialize parallel context for callback.', 00H ; `string'
CONST	ENDS
;	COMDAT ??_C@_0CD@MNHCHPAI@ParallelContextInitializationErr@
CONST	SEGMENT
??_C@_0CD@MNHCHPAI@ParallelContextInitializationErr@ DB 'ParallelContextI'
	DB	'nitializationError', 00H			; `string'
CONST	ENDS
;	COMDAT ??_C@_0CK@IKBKELBP@Failed?5to?5initialize?5new?5paralle@
CONST	SEGMENT
??_C@_0CK@IKBKELBP@Failed?5to?5initialize?5new?5paralle@ DB 'Failed to in'
	DB	'itialize new parallel thread.', 00H		; `string'
CONST	ENDS
;	COMDAT ??_C@_0CC@IAEHFMP@ParallelThreadInitializationErro@
CONST	SEGMENT
??_C@_0CC@IAEHFMP@ParallelThreadInitializationErro@ DB 'ParallelThreadIni'
	DB	'tializationError', 00H			; `string'
CONST	ENDS
;	COMDAT ??_C@_0CA@NKCFMBPJ@Base?5class?5for?5parallel?5errors?4?$AA@
CONST	SEGMENT
??_C@_0CA@NKCFMBPJ@Base?5class?5for?5parallel?5errors?4?$AA@ DB 'Base cla'
	DB	'ss for parallel errors.', 00H		; `string'
CONST	ENDS
;	COMDAT ??_C@_0O@GFKDNBOD@ParallelError?$AA@
CONST	SEGMENT
??_C@_0O@GFKDNBOD@ParallelError?$AA@ DB 'ParallelError', 00H ; `string'
CONST	ENDS
;	COMDAT ??_C@_0CO@BODDBCMG@Weak?5ref?5proxy?5used?5after?5refere@
CONST	SEGMENT
??_C@_0CO@BODDBCMG@Weak?5ref?5proxy?5used?5after?5refere@ DB 'Weak ref pr'
	DB	'oxy used after referent went away.', 00H	; `string'
CONST	ENDS
;	COMDAT ??_C@_0P@NJFCDLEA@ReferenceError?$AA@
CONST	SEGMENT
??_C@_0P@NJFCDLEA@ReferenceError?$AA@ DB 'ReferenceError', 00H ; `string'
CONST	ENDS
;	COMDAT ??_C@_0LA@PADCOJHH@Internal?5error?5in?5the?5Python?5int@
CONST	SEGMENT
??_C@_0LA@PADCOJHH@Internal?5error?5in?5the?5Python?5int@ DB 'Internal er'
	DB	'ror in the Python interpreter.', 0aH, 0aH, 'Please report thi'
	DB	's to the Python maintainer, along with the traceback,', 0aH, 't'
	DB	'he Python version, and the hardware/OS platform and version.', 00H ; `string'
CONST	ENDS
;	COMDAT ??_C@_0M@MLMICFKM@SystemError?$AA@
CONST	SEGMENT
??_C@_0M@MLMICFKM@SystemError?$AA@ DB 'SystemError', 00H ; `string'
CONST	ENDS
;	COMDAT ??_C@_0DM@HNAOGMFP@Second?5argument?5to?5a?5division?5or@
CONST	SEGMENT
??_C@_0DM@HNAOGMFP@Second?5argument?5to?5a?5division?5or@ DB 'Second argu'
	DB	'ment to a division or modulo operation was zero.', 00H ; `string'
CONST	ENDS
;	COMDAT ??_C@_0BC@JKCGANPD@ZeroDivisionError?$AA@
CONST	SEGMENT
??_C@_0BC@JKCGANPD@ZeroDivisionError?$AA@ DB 'ZeroDivisionError', 00H ; `string'
CONST	ENDS
;	COMDAT ??_C@_0CE@DNDJACFH@Result?5too?5large?5to?5be?5represent@
CONST	SEGMENT
??_C@_0CE@DNDJACFH@Result?5too?5large?5to?5be?5represent@ DB 'Result too '
	DB	'large to be represented.', 00H		; `string'
CONST	ENDS
;	COMDAT ??_C@_0O@DAFOBLHH@OverflowError?$AA@
CONST	SEGMENT
??_C@_0O@DAFOBLHH@OverflowError?$AA@ DB 'OverflowError', 00H ; `string'
CONST	ENDS
;	COMDAT ??_C@_0CB@CNKBBAIB@Floating?5point?5operation?5failed?4@
CONST	SEGMENT
??_C@_0CB@CNKBBAIB@Floating?5point?5operation?5failed?4@ DB 'Floating poi'
	DB	'nt operation failed.', 00H			; `string'
CONST	ENDS
;	COMDAT ??_C@_0BD@BMMMKAGK@FloatingPointError?$AA@
CONST	SEGMENT
??_C@_0BD@BMMMKAGK@FloatingPointError?$AA@ DB 'FloatingPointError', 00H ; `string'
CONST	ENDS
;	COMDAT ??_C@_0CC@PPOJNHHK@Base?5class?5for?5arithmetic?5errors@
CONST	SEGMENT
??_C@_0CC@PPOJNHHK@Base?5class?5for?5arithmetic?5errors@ DB 'Base class f'
	DB	'or arithmetic errors.', 00H			; `string'
CONST	ENDS
;	COMDAT ??_C@_0BA@HMBIHIEF@ArithmeticError?$AA@
CONST	SEGMENT
??_C@_0BA@HMBIHIEF@ArithmeticError?$AA@ DB 'ArithmeticError', 00H ; `string'
CONST	ENDS
;	COMDAT ??_C@_0BC@DHBLDLOI@Assertion?5failed?4?$AA@
CONST	SEGMENT
??_C@_0BC@DHBLDLOI@Assertion?5failed?4?$AA@ DB 'Assertion failed.', 00H ; `string'
CONST	ENDS
;	COMDAT ??_C@_0P@ECLAGKMP@AssertionError?$AA@
CONST	SEGMENT
??_C@_0P@ECLAGKMP@AssertionError?$AA@ DB 'AssertionError', 00H ; `string'
CONST	ENDS
;	COMDAT ??_C@_0BL@BOAAJAHA@Unicode?5translation?5error?4?$AA@
CONST	SEGMENT
??_C@_0BL@BOAAJAHA@Unicode?5translation?5error?4?$AA@ DB 'Unicode transla'
	DB	'tion error.', 00H				; `string'
CONST	ENDS
;	COMDAT ??_C@_0BG@MKGFNNGN@UnicodeTranslateError?$AA@
CONST	SEGMENT
??_C@_0BG@MKGFNNGN@UnicodeTranslateError?$AA@ DB 'UnicodeTranslateError', 00H ; `string'
CONST	ENDS
;	COMDAT ??_C@_0BI@GHLGAONJ@Unicode?5decoding?5error?4?$AA@
CONST	SEGMENT
??_C@_0BI@GHLGAONJ@Unicode?5decoding?5error?4?$AA@ DB 'Unicode decoding e'
	DB	'rror.', 00H					; `string'
CONST	ENDS
;	COMDAT ??_C@_0BD@EMOAOOII@UnicodeDecodeError?$AA@
CONST	SEGMENT
??_C@_0BD@EMOAOOII@UnicodeDecodeError?$AA@ DB 'UnicodeDecodeError', 00H ; `string'
CONST	ENDS
;	COMDAT ??_C@_0BI@BHCKDJLG@Unicode?5encoding?5error?4?$AA@
CONST	SEGMENT
??_C@_0BI@BHCKDJLG@Unicode?5encoding?5error?4?$AA@ DB 'Unicode encoding e'
	DB	'rror.', 00H					; `string'
CONST	ENDS
;	COMDAT ??_C@_0BD@PEGECFKD@UnicodeEncodeError?$AA@
CONST	SEGMENT
??_C@_0BD@PEGECFKD@UnicodeEncodeError?$AA@ DB 'UnicodeEncodeError', 00H ; `string'
CONST	ENDS
;	COMDAT ??_C@_0BB@PLOKJKDH@exception?5reason?$AA@
CONST	SEGMENT
??_C@_0BB@PLOKJKDH@exception?5reason?$AA@ DB 'exception reason', 00H ; `string'
CONST	ENDS
;	COMDAT ??_C@_06CEHAOENB@reason?$AA@
CONST	SEGMENT
??_C@_06CEHAOENB@reason?$AA@ DB 'reason', 00H		; `string'
CONST	ENDS
;	COMDAT ??_C@_0O@ONMBNCFM@exception?5end?$AA@
CONST	SEGMENT
??_C@_0O@ONMBNCFM@exception?5end?$AA@ DB 'exception end', 00H ; `string'
CONST	ENDS
;	COMDAT ??_C@_03JBJLGPFL@end?$AA@
CONST	SEGMENT
??_C@_03JBJLGPFL@end?$AA@ DB 'end', 00H			; `string'
CONST	ENDS
;	COMDAT ??_C@_0BA@KKPENCDK@exception?5start?$AA@
CONST	SEGMENT
??_C@_0BA@KKPENCDK@exception?5start?$AA@ DB 'exception start', 00H ; `string'
CONST	ENDS
;	COMDAT ??_C@_05FAGFPHJG@start?$AA@
CONST	SEGMENT
??_C@_05FAGFPHJG@start?$AA@ DB 'start', 00H		; `string'
CONST	ENDS
;	COMDAT ??_C@_0BB@FLHDGNGM@exception?5object?$AA@
CONST	SEGMENT
??_C@_0BB@FLHDGNGM@exception?5object?$AA@ DB 'exception object', 00H ; `string'
CONST	ENDS
;	COMDAT ??_C@_06IEOJBDIK@object?$AA@
CONST	SEGMENT
??_C@_06IEOJBDIK@object?$AA@ DB 'object', 00H		; `string'
CONST	ENDS
;	COMDAT ??_C@_0BD@HEGPNDEB@exception?5encoding?$AA@
CONST	SEGMENT
??_C@_0BD@HEGPNDEB@exception?5encoding?$AA@ DB 'exception encoding', 00H ; `string'
CONST	ENDS
;	COMDAT ??_C@_08MLPGAEIK@encoding?$AA@
CONST	SEGMENT
??_C@_08MLPGAEIK@encoding?$AA@ DB 'encoding', 00H	; `string'
CONST	ENDS
;	COMDAT ??_C@_0BH@LFJEPFCJ@Unicode?5related?5error?4?$AA@
CONST	SEGMENT
??_C@_0BH@LFJEPFCJ@Unicode?5related?5error?4?$AA@ DB 'Unicode related err'
	DB	'or.', 00H					; `string'
CONST	ENDS
;	COMDAT ??_C@_0N@HJMCMBLP@UnicodeError?$AA@
CONST	SEGMENT
??_C@_0N@HJMCMBLP@UnicodeError?$AA@ DB 'UnicodeError', 00H ; `string'
CONST	ENDS
;	COMDAT ??_C@_0DA@PDIMAGJA@Inappropriate?5argument?5value?5?$CIof@
CONST	SEGMENT
??_C@_0DA@PDIMAGJA@Inappropriate?5argument?5value?5?$CIof@ DB 'Inappropri'
	DB	'ate argument value (of correct type).', 00H	; `string'
CONST	ENDS
;	COMDAT ??_C@_0L@POAMGPDC@ValueError?$AA@
CONST	SEGMENT
??_C@_0L@POAMGPDC@ValueError?$AA@ DB 'ValueError', 00H	; `string'
CONST	ENDS
;	COMDAT ??_C@_0BH@NGNBEPFN@Mapping?5key?5not?5found?4?$AA@
CONST	SEGMENT
??_C@_0BH@NGNBEPFN@Mapping?5key?5not?5found?4?$AA@ DB 'Mapping key not fo'
	DB	'und.', 00H					; `string'
CONST	ENDS
;	COMDAT ??_C@_08OHPJJKKC@KeyError?$AA@
CONST	SEGMENT
??_C@_08OHPJJKKC@KeyError?$AA@ DB 'KeyError', 00H	; `string'
CONST	ENDS
;	COMDAT ??_C@_0BN@MPIMOMNM@Sequence?5index?5out?5of?5range?4?$AA@
CONST	SEGMENT
??_C@_0BN@MPIMOMNM@Sequence?5index?5out?5of?5range?4?$AA@ DB 'Sequence in'
	DB	'dex out of range.', 00H			; `string'
CONST	ENDS
;	COMDAT ??_C@_0L@PDGDGKIP@IndexError?$AA@
CONST	SEGMENT
??_C@_0L@PDGDGKIP@IndexError?$AA@ DB 'IndexError', 00H	; `string'
CONST	ENDS
;	COMDAT ??_C@_0BO@OONBGEOC@Base?5class?5for?5lookup?5errors?4?$AA@
CONST	SEGMENT
??_C@_0BO@OONBGEOC@Base?5class?5for?5lookup?5errors?4?$AA@ DB 'Base class'
	DB	' for lookup errors.', 00H			; `string'
CONST	ENDS
;	COMDAT ??_C@_0M@MHFOHJEK@LookupError?$AA@
CONST	SEGMENT
??_C@_0M@MHFOHJEK@LookupError?$AA@ DB 'LookupError', 00H ; `string'
CONST	ENDS
;	COMDAT ??_C@_0CF@GKBIKMOP@Improper?5mixture?5of?5spaces?5and?5t@
CONST	SEGMENT
??_C@_0CF@GKBIKMOP@Improper?5mixture?5of?5spaces?5and?5t@ DB 'Improper mi'
	DB	'xture of spaces and tabs.', 00H		; `string'
CONST	ENDS
;	COMDAT ??_C@_08HFBDNBMM@TabError?$AA@
CONST	SEGMENT
??_C@_08HFBDNBMM@TabError?$AA@ DB 'TabError', 00H	; `string'
CONST	ENDS
;	COMDAT ??_C@_0BG@EODDEBDJ@Improper?5indentation?4?$AA@
CONST	SEGMENT
??_C@_0BG@EODDEBDJ@Improper?5indentation?4?$AA@ DB 'Improper indentation.'
	DB	00H						; `string'
CONST	ENDS
;	COMDAT ??_C@_0BB@PAPDAKC@IndentationError?$AA@
CONST	SEGMENT
??_C@_0BB@PAPDAKC@IndentationError?$AA@ DB 'IndentationError', 00H ; `string'
CONST	ENDS
;	COMDAT ??_C@_0BA@GFAEMOKB@Invalid?5syntax?4?$AA@
CONST	SEGMENT
??_C@_0BA@GFAEMOKB@Invalid?5syntax?4?$AA@ DB 'Invalid syntax.', 00H ; `string'
CONST	ENDS
;	COMDAT ??_C@_0M@KIDEJCGH@SyntaxError?$AA@
CONST	SEGMENT
??_C@_0M@KIDEJCGH@SyntaxError?$AA@ DB 'SyntaxError', 00H ; `string'
CONST	ENDS
;	COMDAT ??_C@_0BO@GMLCEMFL@exception?5print_file_and_line?$AA@
CONST	SEGMENT
??_C@_0BO@GMLCEMFL@exception?5print_file_and_line?$AA@ DB 'exception prin'
	DB	't_file_and_line', 00H			; `string'
CONST	ENDS
;	COMDAT ??_C@_0BE@DKBHEDDB@print_file_and_line?$AA@
CONST	SEGMENT
??_C@_0BE@DKBHEDDB@print_file_and_line?$AA@ DB 'print_file_and_line', 00H ; `string'
CONST	ENDS
;	COMDAT ??_C@_0P@LGNOADNI@exception?5text?$AA@
CONST	SEGMENT
??_C@_0P@LGNOADNI@exception?5text?$AA@ DB 'exception text', 00H ; `string'
CONST	ENDS
;	COMDAT ??_C@_04CIMGMMMG@text?$AA@
CONST	SEGMENT
??_C@_04CIMGMMMG@text?$AA@ DB 'text', 00H		; `string'
CONST	ENDS
;	COMDAT ??_C@_0BB@HEONLGIK@exception?5offset?$AA@
CONST	SEGMENT
??_C@_0BB@HEONLGIK@exception?5offset?$AA@ DB 'exception offset', 00H ; `string'
CONST	ENDS
;	COMDAT ??_C@_06KLHHMIGM@offset?$AA@
CONST	SEGMENT
??_C@_06KLHHMIGM@offset?$AA@ DB 'offset', 00H		; `string'
CONST	ENDS
;	COMDAT ??_C@_0BB@FEDCHJDL@exception?5lineno?$AA@
CONST	SEGMENT
??_C@_0BB@FEDCHJDL@exception?5lineno?$AA@ DB 'exception lineno', 00H ; `string'
CONST	ENDS
;	COMDAT ??_C@_06ILKIAHNN@lineno?$AA@
CONST	SEGMENT
??_C@_06ILKIAHNN@lineno?$AA@ DB 'lineno', 00H		; `string'
CONST	ENDS
;	COMDAT ??_C@_0O@BHKGJJFD@exception?5msg?$AA@
CONST	SEGMENT
??_C@_0O@BHKGJJFD@exception?5msg?$AA@ DB 'exception msg', 00H ; `string'
CONST	ENDS
;	COMDAT ??_C@_0BF@KBBDNFNN@Attribute?5not?5found?4?$AA@
CONST	SEGMENT
??_C@_0BF@KBBDNFNN@Attribute?5not?5found?4?$AA@ DB 'Attribute not found.', 00H ; `string'
CONST	ENDS
;	COMDAT ??_C@_0P@OMMLLIOG@AttributeError?$AA@
CONST	SEGMENT
??_C@_0P@OMMLLIOG@AttributeError?$AA@ DB 'AttributeError', 00H ; `string'
CONST	ENDS
;	COMDAT ??_C@_0DA@JDNAGEED@Local?5name?5referenced?5but?5not?5bo@
CONST	SEGMENT
??_C@_0DA@JDNAGEED@Local?5name?5referenced?5but?5not?5bo@ DB 'Local name '
	DB	'referenced but not bound to a value.', 00H	; `string'
CONST	ENDS
;	COMDAT ??_C@_0BC@EJBPJIJA@UnboundLocalError?$AA@
CONST	SEGMENT
??_C@_0BC@EJBPJIJA@UnboundLocalError?$AA@ DB 'UnboundLocalError', 00H ; `string'
CONST	ENDS
;	COMDAT ??_C@_0BJ@CKADCLHL@Name?5not?5found?5globally?4?$AA@
CONST	SEGMENT
??_C@_0BJ@CKADCLHL@Name?5not?5found?5globally?4?$AA@ DB 'Name not found g'
	DB	'lobally.', 00H				; `string'
CONST	ENDS
;	COMDAT ??_C@_09GENDEFL@NameError?$AA@
CONST	SEGMENT
??_C@_09GENDEFL@NameError?$AA@ DB 'NameError', 00H	; `string'
CONST	ENDS
;	COMDAT ??_C@_0DA@PMFCDFAJ@Method?5or?5function?5hasn?8t?5been?5i@
CONST	SEGMENT
??_C@_0DA@PMFCDFAJ@Method?5or?5function?5hasn?8t?5been?5i@ DB 'Method or '
	DB	'function hasn''t been implemented yet.', 00H ; `string'
CONST	ENDS
;	COMDAT ??_C@_0BE@NIHEKDAM@NotImplementedError?$AA@
CONST	SEGMENT
??_C@_0BE@NIHEKDAM@NotImplementedError?$AA@ DB 'NotImplementedError', 00H ; `string'
CONST	ENDS
;	COMDAT ??_C@_0BM@GMHHIONK@Unspecified?5run?9time?5error?4?$AA@
CONST	SEGMENT
??_C@_0BM@GMHHIONK@Unspecified?5run?9time?5error?4?$AA@ DB 'Unspecified r'
	DB	'un-time error.', 00H			; `string'
CONST	ENDS
;	COMDAT ??_C@_0N@PJCHGDKG@RuntimeError?$AA@
CONST	SEGMENT
??_C@_0N@PJCHGDKG@RuntimeError?$AA@ DB 'RuntimeError', 00H ; `string'
CONST	ENDS
;	COMDAT ??_C@_0BJ@DBOMGJHD@Read?5beyond?5end?5of?5file?4?$AA@
CONST	SEGMENT
??_C@_0BJ@DBOMGJHD@Read?5beyond?5end?5of?5file?4?$AA@ DB 'Read beyond end'
	DB	' of file.', 00H				; `string'
CONST	ENDS
;	COMDAT ??_C@_08BJKGOKBF@EOFError?$AA@
CONST	SEGMENT
??_C@_08BJKGOKBF@EOFError?$AA@ DB 'EOFError', 00H	; `string'
CONST	ENDS
;	COMDAT ??_C@_0BB@KIFGEFOB@Timeout?5expired?4?$AA@
CONST	SEGMENT
??_C@_0BB@KIFGEFOB@Timeout?5expired?4?$AA@ DB 'Timeout expired.', 00H ; `string'
CONST	ENDS
;	COMDAT ??_C@_0N@BMLDFELP@TimeoutError?$AA@
CONST	SEGMENT
??_C@_0N@BMLDFELP@TimeoutError?$AA@ DB 'TimeoutError', 00H ; `string'
CONST	ENDS
;	COMDAT ??_C@_0BD@CDPGLGNA@Process?5not?5found?4?$AA@
CONST	SEGMENT
??_C@_0BD@CDPGLGNA@Process?5not?5found?4?$AA@ DB 'Process not found.', 00H ; `string'
CONST	ENDS
;	COMDAT ??_C@_0BD@LBBCHOLB@ProcessLookupError?$AA@
CONST	SEGMENT
??_C@_0BD@LBBCHOLB@ProcessLookupError?$AA@ DB 'ProcessLookupError', 00H ; `string'
CONST	ENDS
;	COMDAT ??_C@_0BI@ICBFMNFH@Not?5enough?5permissions?4?$AA@
CONST	SEGMENT
??_C@_0BI@ICBFMNFH@Not?5enough?5permissions?4?$AA@ DB 'Not enough permiss'
	DB	'ions.', 00H					; `string'
CONST	ENDS
;	COMDAT ??_C@_0BA@EGIOHDMA@PermissionError?$AA@
CONST	SEGMENT
??_C@_0BA@EGIOHDMA@PermissionError?$AA@ DB 'PermissionError', 00H ; `string'
CONST	ENDS
;	COMDAT ??_C@_0BH@DPFOMFFN@Interrupted?5by?5signal?4?$AA@
CONST	SEGMENT
??_C@_0BH@DPFOMFFN@Interrupted?5by?5signal?4?$AA@ DB 'Interrupted by sign'
	DB	'al.', 00H					; `string'
CONST	ENDS
;	COMDAT ??_C@_0BB@PFBGOELP@InterruptedError?$AA@
CONST	SEGMENT
??_C@_0BB@PFBGOELP@InterruptedError?$AA@ DB 'InterruptedError', 00H ; `string'
CONST	ENDS
;	COMDAT ??_C@_0CF@MHLAOJGN@Operation?5only?5works?5on?5director@
CONST	SEGMENT
??_C@_0CF@MHLAOJGN@Operation?5only?5works?5on?5director@ DB 'Operation on'
	DB	'ly works on directories.', 00H		; `string'
CONST	ENDS
;	COMDAT ??_C@_0BD@BDDBNNNE@NotADirectoryError?$AA@
CONST	SEGMENT
??_C@_0BD@BDDBNNNE@NotADirectoryError?$AA@ DB 'NotADirectoryError', 00H ; `string'
CONST	ENDS
;	COMDAT ??_C@_0CH@PKAKIMKI@Operation?5doesn?8t?5work?5on?5direct@
CONST	SEGMENT
??_C@_0CH@PKAKIMKI@Operation?5doesn?8t?5work?5on?5direct@ DB 'Operation d'
	DB	'oesn''t work on directories.', 00H		; `string'
CONST	ENDS
;	COMDAT ??_C@_0BC@EPPFJLG@IsADirectoryError?$AA@
CONST	SEGMENT
??_C@_0BC@EPPFJLG@IsADirectoryError?$AA@ DB 'IsADirectoryError', 00H ; `string'
CONST	ENDS
;	COMDAT ??_C@_0BA@DOIDIGMK@File?5not?5found?4?$AA@
CONST	SEGMENT
??_C@_0BA@DOIDIGMK@File?5not?5found?4?$AA@ DB 'File not found.', 00H ; `string'
CONST	ENDS
;	COMDAT ??_C@_0BC@IPPJKII@FileNotFoundError?$AA@
CONST	SEGMENT
??_C@_0BC@IPPJKII@FileNotFoundError?$AA@ DB 'FileNotFoundError', 00H ; `string'
CONST	ENDS
;	COMDAT ??_C@_0BF@PBMIGFNE@File?5already?5exists?4?$AA@
CONST	SEGMENT
??_C@_0BF@PBMIGFNE@File?5already?5exists?4?$AA@ DB 'File already exists.', 00H ; `string'
CONST	ENDS
;	COMDAT ??_C@_0BA@FBEHCPFP@FileExistsError?$AA@
CONST	SEGMENT
??_C@_0BA@FBEHCPFP@FileExistsError?$AA@ DB 'FileExistsError', 00H ; `string'
CONST	ENDS
;	COMDAT ??_C@_0BC@PIBEPGML@Connection?5reset?4?$AA@
CONST	SEGMENT
??_C@_0BC@PIBEPGML@Connection?5reset?4?$AA@ DB 'Connection reset.', 00H ; `string'
CONST	ENDS
;	COMDAT ??_C@_0BF@KPCMAHCN@ConnectionResetError?$AA@
CONST	SEGMENT
??_C@_0BF@KPCMAHCN@ConnectionResetError?$AA@ DB 'ConnectionResetError', 00H ; `string'
CONST	ENDS
;	COMDAT ??_C@_0BE@PAAMHJLG@Connection?5refused?4?$AA@
CONST	SEGMENT
??_C@_0BE@PAAMHJLG@Connection?5refused?4?$AA@ DB 'Connection refused.', 00H ; `string'
CONST	ENDS
;	COMDAT ??_C@_0BH@NFNMCF@ConnectionRefusedError?$AA@
CONST	SEGMENT
??_C@_0BH@NFNMCF@ConnectionRefusedError?$AA@ DB 'ConnectionRefusedError', 00H ; `string'
CONST	ENDS
;	COMDAT ??_C@_0BE@FFDJKHGA@Connection?5aborted?4?$AA@
CONST	SEGMENT
??_C@_0BE@FFDJKHGA@Connection?5aborted?4?$AA@ DB 'Connection aborted.', 00H ; `string'
CONST	ENDS
;	COMDAT ??_C@_0BH@IAHALHIL@ConnectionAbortedError?$AA@
CONST	SEGMENT
??_C@_0BH@IAHALHIL@ConnectionAbortedError?$AA@ DB 'ConnectionAbortedError'
	DB	00H						; `string'
CONST	ENDS
;	COMDAT ??_C@_0N@KCAMOIPH@Broken?5pipe?4?$AA@
CONST	SEGMENT
??_C@_0N@KCAMOIPH@Broken?5pipe?4?$AA@ DB 'Broken pipe.', 00H ; `string'
CONST	ENDS
;	COMDAT ??_C@_0BA@OKFJGAGB@BrokenPipeError?$AA@
CONST	SEGMENT
??_C@_0BA@OKFJGAGB@BrokenPipeError?$AA@ DB 'BrokenPipeError', 00H ; `string'
CONST	ENDS
;	COMDAT ??_C@_0BF@IOACMFNO@Child?5process?5error?4?$AA@
CONST	SEGMENT
??_C@_0BF@IOACMFNO@Child?5process?5error?4?$AA@ DB 'Child process error.', 00H ; `string'
CONST	ENDS
;	COMDAT ??_C@_0BC@LJAFFAPL@ChildProcessError?$AA@
CONST	SEGMENT
??_C@_0BC@LJAFFAPL@ChildProcessError?$AA@ DB 'ChildProcessError', 00H ; `string'
CONST	ENDS
;	COMDAT ??_C@_0BC@BCOONDMO@Connection?5error?4?$AA@
CONST	SEGMENT
??_C@_0BC@BCOONDMO@Connection?5error?4?$AA@ DB 'Connection error.', 00H ; `string'
CONST	ENDS
;	COMDAT ??_C@_0BA@FGMDNHAG@ConnectionError?$AA@
CONST	SEGMENT
??_C@_0BA@FGMDNHAG@ConnectionError?$AA@ DB 'ConnectionError', 00H ; `string'
CONST	ENDS
;	COMDAT ??_C@_0BL@LJLKLDJH@I?1O?5operation?5would?5block?4?$AA@
CONST	SEGMENT
??_C@_0BL@LJLKLDJH@I?1O?5operation?5would?5block?4?$AA@ DB 'I/O operation'
	DB	' would block.', 00H				; `string'
CONST	ENDS
;	COMDAT ??_C@_0BA@JGPGLFDG@BlockingIOError?$AA@
CONST	SEGMENT
??_C@_0BA@JGPGLFDG@BlockingIOError?$AA@ DB 'BlockingIOError', 00H ; `string'
CONST	ENDS
;	COMDAT ??_C@_0CD@BBOAKDDD@Base?5class?5for?5I?1O?5related?5error@
CONST	SEGMENT
??_C@_0CD@BBOAKDDD@Base?5class?5for?5I?1O?5related?5error@ DB 'Base class'
	DB	' for I/O related errors.', 00H		; `string'
CONST	ENDS
;	COMDAT ??_C@_07DLGONEPD@OSError?$AA@
CONST	SEGMENT
??_C@_07DLGONEPD@OSError?$AA@ DB 'OSError', 00H		; `string'
CONST	ENDS
;	COMDAT ??_C@_0BD@MJNIBNKM@characters_written?$AA@
CONST	SEGMENT
??_C@_0BD@MJNIBNKM@characters_written?$AA@ DB 'characters_written', 00H ; `string'
CONST	ENDS
;	COMDAT ??_C@_0BF@EGKICGDH@Win32?5exception?5code?$AA@
CONST	SEGMENT
??_C@_0BF@EGKICGDH@Win32?5exception?5code?$AA@ DB 'Win32 exception code', 00H ; `string'
CONST	ENDS
;	COMDAT ??_C@_08NNIGBLFN@winerror?$AA@
CONST	SEGMENT
??_C@_08NNIGBLFN@winerror?$AA@ DB 'winerror', 00H	; `string'
CONST	ENDS
;	COMDAT ??_C@_0BD@KPIAFJIH@exception?5filename?$AA@
CONST	SEGMENT
??_C@_0BD@KPIAFJIH@exception?5filename?$AA@ DB 'exception filename', 00H ; `string'
CONST	ENDS
;	COMDAT ??_C@_08BABJIOEM@filename?$AA@
CONST	SEGMENT
??_C@_08BABJIOEM@filename?$AA@ DB 'filename', 00H	; `string'
CONST	ENDS
;	COMDAT ??_C@_0BD@HIDDEPNK@exception?5strerror?$AA@
CONST	SEGMENT
??_C@_0BD@HIDDEPNK@exception?5strerror?$AA@ DB 'exception strerror', 00H ; `string'
CONST	ENDS
;	COMDAT ??_C@_08MHKKJIBB@strerror?$AA@
CONST	SEGMENT
??_C@_08MHKKJIBB@strerror?$AA@ DB 'strerror', 00H	; `string'
CONST	ENDS
;	COMDAT ??_C@_0BF@CJFJGJAA@POSIX?5exception?5code?$AA@
CONST	SEGMENT
??_C@_0BF@CJFJGJAA@POSIX?5exception?5code?$AA@ DB 'POSIX exception code', 00H ; `string'
CONST	ENDS
;	COMDAT ??_C@_05PEAMIKEP@errno?$AA@
CONST	SEGMENT
??_C@_05PEAMIKEP@errno?$AA@ DB 'errno', 00H		; `string'
CONST	ENDS
;	COMDAT ??_C@_0DI@HEBCIICE@Import?5can?8t?5find?5module?0?5or?5can@
CONST	SEGMENT
??_C@_0DI@HEBCIICE@Import?5can?8t?5find?5module?0?5or?5can@ DB 'Import ca'
	DB	'n''t find module, or can''t find name in module.', 00H ; `string'
CONST	ENDS
;	COMDAT ??_C@_0M@HCFCBBPI@ImportError?$AA@
CONST	SEGMENT
??_C@_0M@HCFCBBPI@ImportError?$AA@ DB 'ImportError', 00H ; `string'
CONST	ENDS
;	COMDAT ??_C@_0M@EODBJGBC@module?5path?$AA@
CONST	SEGMENT
??_C@_0M@EODBJGBC@module?5path?$AA@ DB 'module path', 00H ; `string'
CONST	ENDS
;	COMDAT ??_C@_04LNEJFJGI@path?$AA@
CONST	SEGMENT
??_C@_04LNEJFJGI@path?$AA@ DB 'path', 00H		; `string'
CONST	ENDS
;	COMDAT ??_C@_0M@DHLIFJED@module?5name?$AA@
CONST	SEGMENT
??_C@_0M@DHLIFJED@module?5name?$AA@ DB 'module name', 00H ; `string'
CONST	ENDS
;	COMDAT ??_C@_04MEMAJGDJ@name?$AA@
CONST	SEGMENT
??_C@_04MEMAJGDJ@name?$AA@ DB 'name', 00H		; `string'
CONST	ENDS
;	COMDAT ??_C@_0BC@KEEHBMNM@exception?5message?$AA@
CONST	SEGMENT
??_C@_0BC@KEEHBMNM@exception?5message?$AA@ DB 'exception message', 00H ; `string'
CONST	ENDS
;	COMDAT ??_C@_03GLPMCEFE@msg?$AA@
CONST	SEGMENT
??_C@_03GLPMCEFE@msg?$AA@ DB 'msg', 00H			; `string'
CONST	ENDS
;	COMDAT ??_C@_0BN@MANALLKN@Program?5interrupted?5by?5user?4?$AA@
CONST	SEGMENT
??_C@_0BN@MANALLKN@Program?5interrupted?5by?5user?4?$AA@ DB 'Program inte'
	DB	'rrupted by user.', 00H			; `string'
CONST	ENDS
;	COMDAT ??_C@_0BC@BACBBCED@KeyboardInterrupt?$AA@
CONST	SEGMENT
??_C@_0BC@BACBBCED@KeyboardInterrupt?$AA@ DB 'KeyboardInterrupt', 00H ; `string'
CONST	ENDS
;	COMDAT ??_C@_0CG@KDLBFKIC@Request?5to?5exit?5from?5the?5interpr@
CONST	SEGMENT
??_C@_0CG@KDLBFKIC@Request?5to?5exit?5from?5the?5interpr@ DB 'Request to '
	DB	'exit from the interpreter.', 00H		; `string'
CONST	ENDS
;	COMDAT ??_C@_0L@MBGFFHMP@SystemExit?$AA@
CONST	SEGMENT
??_C@_0L@MBGFFHMP@SystemExit?$AA@ DB 'SystemExit', 00H	; `string'
CONST	ENDS
;	COMDAT ??_C@_0P@ENEGNBCK@exception?5code?$AA@
CONST	SEGMENT
??_C@_0P@ENEGNBCK@exception?5code?$AA@ DB 'exception code', 00H ; `string'
CONST	ENDS
;	COMDAT ??_C@_04NDFOBODE@code?$AA@
CONST	SEGMENT
??_C@_04NDFOBODE@code?$AA@ DB 'code', 00H		; `string'
CONST	ENDS
;	COMDAT ??_C@_0BP@OCIPBJOC@Request?5that?5a?5generator?5exit?4?$AA@
CONST	SEGMENT
??_C@_0BP@OCIPBJOC@Request?5that?5a?5generator?5exit?4?$AA@ DB 'Request t'
	DB	'hat a generator exit.', 00H			; `string'
CONST	ENDS
;	COMDAT ??_C@_0O@GBGLOLNB@GeneratorExit?$AA@
CONST	SEGMENT
??_C@_0O@GBGLOLNB@GeneratorExit?$AA@ DB 'GeneratorExit', 00H ; `string'
CONST	ENDS
;	COMDAT ??_C@_0CJ@IGGDMNCD@Signal?5the?5end?5from?5iterator?4__n@
CONST	SEGMENT
??_C@_0CJ@IGGDMNCD@Signal?5the?5end?5from?5iterator?4__n@ DB 'Signal the '
	DB	'end from iterator.__next__().', 00H		; `string'
CONST	ENDS
;	COMDAT ??_C@_0O@LGLKOGMF@StopIteration?$AA@
CONST	SEGMENT
??_C@_0O@LGLKOGMF@StopIteration?$AA@ DB 'StopIteration', 00H ; `string'
CONST	ENDS
;	COMDAT ??_C@_0BH@CEJBINIP@generator?5return?5value?$AA@
CONST	SEGMENT
??_C@_0BH@CEJBINIP@generator?5return?5value?$AA@ DB 'generator return val'
	DB	'ue', 00H					; `string'
CONST	ENDS
;	COMDAT ??_C@_05MFEJDJP@value?$AA@
CONST	SEGMENT
??_C@_05MFEJDJP@value?$AA@ DB 'value', 00H		; `string'
CONST	ENDS
;	COMDAT ??_C@_0BN@GFNFLJFF@Inappropriate?5argument?5type?4?$AA@
CONST	SEGMENT
??_C@_0BN@GFNFLJFF@Inappropriate?5argument?5type?4?$AA@ DB 'Inappropriate'
	DB	' argument type.', 00H			; `string'
CONST	ENDS
;	COMDAT ??_C@_09MGGHOBOJ@TypeError?$AA@
CONST	SEGMENT
??_C@_09MGGHOBOJ@TypeError?$AA@ DB 'TypeError', 00H	; `string'
CONST	ENDS
;	COMDAT ??_C@_0CP@EGCLOIMN@Common?5base?5class?5for?5all?5non?9ex@
CONST	SEGMENT
??_C@_0CP@EGCLOIMN@Common?5base?5class?5for?5all?5non?9ex@ DB 'Common bas'
	DB	'e class for all non-exit exceptions.', 00H	; `string'
CONST	ENDS
;	COMDAT ??_C@_09FBNMMHMJ@Exception?$AA@
CONST	SEGMENT
??_C@_09FBNMMHMJ@Exception?$AA@ DB 'Exception', 00H	; `string'
CONST	ENDS
;	COMDAT ??_C@_0CF@KACNFHAK@Common?5base?5class?5for?5all?5except@
CONST	SEGMENT
??_C@_0CF@KACNFHAK@Common?5base?5class?5for?5all?5except@ DB 'Common base'
	DB	' class for all exceptions', 00H		; `string'
CONST	ENDS
;	COMDAT ??_C@_0O@GCAIIPIB@BaseException?$AA@
CONST	SEGMENT
??_C@_0O@GCAIIPIB@BaseException?$AA@ DB 'BaseException', 00H ; `string'
CONST	ENDS
;	COMDAT ??_C@_0BF@PLNDEDFH@__suppress_context__?$AA@
CONST	SEGMENT
??_C@_0BF@PLNDEDFH@__suppress_context__?$AA@ DB '__suppress_context__', 00H ; `string'
CONST	ENDS
;	COMDAT ??_C@_0BA@IMECEBLM@exception?5cause?$AA@
CONST	SEGMENT
??_C@_0BA@IMECEBLM@exception?5cause?$AA@ DB 'exception cause', 00H ; `string'
CONST	ENDS
;	COMDAT ??_C@_09DJICANKI@__cause__?$AA@
CONST	SEGMENT
??_C@_09DJICANKI@__cause__?$AA@ DB '__cause__', 00H	; `string'
CONST	ENDS
;	COMDAT ??_C@_0BC@NDBEMMPP@exception?5context?$AA@
CONST	SEGMENT
??_C@_0BC@NDBEMMPP@exception?5context?$AA@ DB 'exception context', 00H ; `string'
CONST	ENDS
;	COMDAT ??_C@_0M@GKMKEIIC@__context__?$AA@
CONST	SEGMENT
??_C@_0M@GKMKEIIC@__context__?$AA@ DB '__context__', 00H ; `string'
CONST	ENDS
;	COMDAT ??_C@_0O@IEBEOCOE@__traceback__?$AA@
CONST	SEGMENT
??_C@_0O@IEBEOCOE@__traceback__?$AA@ DB '__traceback__', 00H ; `string'
CONST	ENDS
;	COMDAT ??_C@_04BFDDMJJI@args?$AA@
CONST	SEGMENT
??_C@_04BFDDMJJI@args?$AA@ DB 'args', 00H		; `string'
CONST	ENDS
;	COMDAT ??_C@_08IBFKALI@__dict__?$AA@
CONST	SEGMENT
??_C@_08IBFKALI@__dict__?$AA@ DB '__dict__', 00H	; `string'
CONST	ENDS
;	COMDAT ??_C@_0P@FLIOKJJK@with_traceback?$AA@
CONST	SEGMENT
??_C@_0P@FLIOKJJK@with_traceback?$AA@ DB 'with_traceback', 00H ; `string'
CONST	ENDS
;	COMDAT ??_C@_0N@MOOGCAMH@__setstate__?$AA@
CONST	SEGMENT
??_C@_0N@MOOGCAMH@__setstate__?$AA@ DB '__setstate__', 00H ; `string'
CONST	ENDS
;	COMDAT ??_C@_0L@NNMACJIG@__reduce__?$AA@
CONST	SEGMENT
??_C@_0L@NNMACJIG@__reduce__?$AA@ DB '__reduce__', 00H	; `string'
CONST	ENDS
_DATA	SEGMENT
with_traceback_doc DB 'Exception.with_traceback(tb) --', 0aH, '    set se'
	DB	'lf.__traceback__ to tb and return self.', 00H
	ORG $+14
BaseException_methods DQ FLAT:??_C@_0L@NNMACJIG@__reduce__?$AA@
	DQ	FLAT:BaseException_reduce
	DD	04H
	ORG $+4
	ORG $+8
	DQ	FLAT:??_C@_0N@MOOGCAMH@__setstate__?$AA@
	DQ	FLAT:BaseException_setstate
	DD	08H
	ORG $+4
	ORG $+8
	DQ	FLAT:??_C@_0P@FLIOKJJK@with_traceback?$AA@
	DQ	FLAT:BaseException_with_traceback
	DD	08H
	ORG $+4
	DQ	FLAT:with_traceback_doc
	DQ	0000000000000000H
	DQ	0000000000000000H
	DD	00H
	ORG $+4
	DQ	0000000000000000H
BaseException_getset DQ FLAT:??_C@_08IBFKALI@__dict__?$AA@
	DQ	FLAT:PyObject_GenericGetDict
	DQ	FLAT:PyObject_GenericSetDict
	ORG $+16
	DQ	FLAT:??_C@_04BFDDMJJI@args?$AA@
	DQ	FLAT:BaseException_get_args
	DQ	FLAT:BaseException_set_args
	ORG $+16
	DQ	FLAT:??_C@_0O@IEBEOCOE@__traceback__?$AA@
	DQ	FLAT:BaseException_get_tb
	DQ	FLAT:BaseException_set_tb
	ORG $+16
	DQ	FLAT:??_C@_0M@GKMKEIIC@__context__?$AA@
	DQ	FLAT:BaseException_get_context
	DQ	FLAT:BaseException_set_context
	DQ	FLAT:??_C@_0BC@NDBEMMPP@exception?5context?$AA@
	ORG $+8
	DQ	FLAT:??_C@_09DJICANKI@__cause__?$AA@
	DQ	FLAT:BaseException_get_cause
	DQ	FLAT:BaseException_set_cause
	DQ	FLAT:??_C@_0BA@IMECEBLM@exception?5cause?$AA@
	ORG $+8
	DQ	0000000000000000H
	ORG $+32
BaseException_members DQ FLAT:??_C@_0BF@PLNDEDFH@__suppress_context__?$AA@
	DD	0eH
	ORG $+4
	DQ	0000000000000088H
	ORG $+16
	DQ	0000000000000000H
	ORG $+32
_PyExc_BaseException DQ dead1234beef5678H
	DQ	dead1234beef5678H
	DQ	0000000000000000H
	ORG $+8
	DQ	0000000000000001H
	DQ	0000000000000000H
	DQ	0000000000000000H
	DQ	0000000000000000H
	DQ	dead1234beef5678H
	DQ	dead1234beef5678H
	DQ	0000000000000001H
	DQ	0000000000000000H
	DQ	0000000000000000H
	ORG $+8
	DQ	FLAT:??_C@_0O@GCAIIPIB@BaseException?$AA@
	DQ	0000000000000090H
	DQ	0000000000000000H
	DQ	FLAT:BaseException_dealloc
	DQ	0000000000000000H
	DQ	0000000000000000H
	DQ	0000000000000000H
	DQ	0000000000000000H
	DQ	FLAT:BaseException_repr
	DQ	0000000000000000H
	DQ	0000000000000000H
	DQ	0000000000000000H
	DQ	0000000000000000H
	DQ	0000000000000000H
	DQ	FLAT:BaseException_str
	DQ	FLAT:PyObject_GenericGetAttr
	DQ	FLAT:PyObject_GenericSetAttr
	DQ	0000000000000000H
	DD	040044400H
	ORG $+4
	DQ	FLAT:??_C@_0CF@KACNFHAK@Common?5base?5class?5for?5all?5except@
	DQ	FLAT:BaseException_traverse
	DQ	FLAT:BaseException_clear
	DQ	0000000000000000H
	DQ	0000000000000000H
	DQ	0000000000000000H
	DQ	0000000000000000H
	DQ	FLAT:BaseException_methods
	DQ	FLAT:BaseException_members
	DQ	FLAT:BaseException_getset
	DQ	0000000000000000H
	DQ	0000000000000000H
	DQ	0000000000000000H
	DQ	0000000000000000H
	DQ	0000000000000060H
	DQ	FLAT:BaseException_init
	DQ	0000000000000000H
	DQ	FLAT:BaseException_new
	ORG $+72
PyExc_BaseException DQ FLAT:_PyExc_BaseException
PyExc_Exception DQ FLAT:_PyExc_Exception
_PyExc_Exception DQ dead1234beef5678H
	DQ	dead1234beef5678H
	DQ	0000000000000000H
	ORG $+8
	DQ	0000000000000001H
	DQ	0000000000000000H
	DQ	0000000000000000H
	DQ	0000000000000000H
	DQ	dead1234beef5678H
	DQ	dead1234beef5678H
	DQ	0000000000000001H
	DQ	0000000000000000H
	DQ	0000000000000000H
	ORG $+8
	DQ	FLAT:??_C@_09FBNMMHMJ@Exception?$AA@
	DQ	0000000000000090H
	DQ	0000000000000000H
	DQ	FLAT:BaseException_dealloc
	DQ	0000000000000000H
	DQ	0000000000000000H
	DQ	0000000000000000H
	DQ	0000000000000000H
	DQ	0000000000000000H
	DQ	0000000000000000H
	DQ	0000000000000000H
	DQ	0000000000000000H
	DQ	0000000000000000H
	DQ	0000000000000000H
	DQ	0000000000000000H
	DQ	0000000000000000H
	DQ	0000000000000000H
	DQ	0000000000000000H
	DD	044400H
	ORG $+4
	DQ	FLAT:??_C@_0CP@EGCLOIMN@Common?5base?5class?5for?5all?5non?9ex@
	DQ	FLAT:BaseException_traverse
	DQ	FLAT:BaseException_clear
	DQ	0000000000000000H
	DQ	0000000000000000H
	DQ	0000000000000000H
	DQ	0000000000000000H
	DQ	0000000000000000H
	DQ	0000000000000000H
	DQ	0000000000000000H
	DQ	FLAT:_PyExc_BaseException
	DQ	0000000000000000H
	DQ	0000000000000000H
	DQ	0000000000000000H
	DQ	0000000000000060H
	DQ	FLAT:BaseException_init
	DQ	0000000000000000H
	DQ	FLAT:BaseException_new
	ORG $+72
_PyExc_TypeError DQ dead1234beef5678H
	DQ	dead1234beef5678H
	DQ	0000000000000000H
	ORG $+8
	DQ	0000000000000001H
	DQ	0000000000000000H
	DQ	0000000000000000H
	DQ	0000000000000000H
	DQ	dead1234beef5678H
	DQ	dead1234beef5678H
	DQ	0000000000000001H
	DQ	0000000000000000H
	DQ	0000000000000000H
	ORG $+8
	DQ	FLAT:??_C@_09MGGHOBOJ@TypeError?$AA@
	DQ	0000000000000090H
	DQ	0000000000000000H
	DQ	FLAT:BaseException_dealloc
	DQ	0000000000000000H
	DQ	0000000000000000H
	DQ	0000000000000000H
	DQ	0000000000000000H
	DQ	0000000000000000H
	DQ	0000000000000000H
	DQ	0000000000000000H
	DQ	0000000000000000H
	DQ	0000000000000000H
	DQ	0000000000000000H
	DQ	0000000000000000H
	DQ	0000000000000000H
	DQ	0000000000000000H
	DQ	0000000000000000H
	DD	044400H
	ORG $+4
	DQ	FLAT:??_C@_0BN@GFNFLJFF@Inappropriate?5argument?5type?4?$AA@
	DQ	FLAT:BaseException_traverse
	DQ	FLAT:BaseException_clear
	DQ	0000000000000000H
	DQ	0000000000000000H
	DQ	0000000000000000H
	DQ	0000000000000000H
	DQ	0000000000000000H
	DQ	0000000000000000H
	DQ	0000000000000000H
	DQ	FLAT:_PyExc_Exception
	DQ	0000000000000000H
	DQ	0000000000000000H
	DQ	0000000000000000H
	DQ	0000000000000060H
	DQ	FLAT:BaseException_init
	DQ	0000000000000000H
	DQ	FLAT:BaseException_new
	ORG $+72
PyExc_TypeError DQ FLAT:_PyExc_TypeError
PyExc_StopIteration DQ FLAT:_PyExc_StopIteration
StopIteration_members DQ FLAT:??_C@_05MFEJDJP@value?$AA@
	DD	06H
	ORG $+4
	DQ	0000000000000090H
	DD	00H
	ORG $+4
	DQ	FLAT:??_C@_0BH@CEJBINIP@generator?5return?5value?$AA@
	DQ	0000000000000000H
	ORG $+32
_PyExc_StopIteration DQ dead1234beef5678H
	DQ	dead1234beef5678H
	DQ	0000000000000000H
	ORG $+8
	DQ	0000000000000001H
	DQ	0000000000000000H
	DQ	0000000000000000H
	DQ	0000000000000000H
	DQ	dead1234beef5678H
	DQ	dead1234beef5678H
	DQ	0000000000000001H
	DQ	0000000000000000H
	DQ	0000000000000000H
	ORG $+8
	DQ	FLAT:??_C@_0O@LGLKOGMF@StopIteration?$AA@
	DQ	00000000000000a0H
	DQ	0000000000000000H
	DQ	FLAT:StopIteration_dealloc
	DQ	0000000000000000H
	DQ	0000000000000000H
	DQ	0000000000000000H
	DQ	0000000000000000H
	DQ	0000000000000000H
	DQ	0000000000000000H
	DQ	0000000000000000H
	DQ	0000000000000000H
	DQ	0000000000000000H
	DQ	0000000000000000H
	DQ	0000000000000000H
	DQ	0000000000000000H
	DQ	0000000000000000H
	DQ	0000000000000000H
	DD	044400H
	ORG $+4
	DQ	FLAT:??_C@_0CJ@IGGDMNCD@Signal?5the?5end?5from?5iterator?4__n@
	DQ	FLAT:StopIteration_traverse
	DQ	FLAT:StopIteration_clear
	DQ	0000000000000000H
	DQ	0000000000000000H
	DQ	0000000000000000H
	DQ	0000000000000000H
	DQ	0000000000000000H
	DQ	FLAT:StopIteration_members
	DQ	0000000000000000H
	DQ	FLAT:_PyExc_Exception
	DQ	0000000000000000H
	DQ	0000000000000000H
	DQ	0000000000000000H
	DQ	0000000000000060H
	DQ	FLAT:StopIteration_init
	DQ	0000000000000000H
	DQ	0000000000000000H
	ORG $+72
_PyExc_GeneratorExit DQ dead1234beef5678H
	DQ	dead1234beef5678H
	DQ	0000000000000000H
	ORG $+8
	DQ	0000000000000001H
	DQ	0000000000000000H
	DQ	0000000000000000H
	DQ	0000000000000000H
	DQ	dead1234beef5678H
	DQ	dead1234beef5678H
	DQ	0000000000000001H
	DQ	0000000000000000H
	DQ	0000000000000000H
	ORG $+8
	DQ	FLAT:??_C@_0O@GBGLOLNB@GeneratorExit?$AA@
	DQ	0000000000000090H
	DQ	0000000000000000H
	DQ	FLAT:BaseException_dealloc
	DQ	0000000000000000H
	DQ	0000000000000000H
	DQ	0000000000000000H
	DQ	0000000000000000H
	DQ	0000000000000000H
	DQ	0000000000000000H
	DQ	0000000000000000H
	DQ	0000000000000000H
	DQ	0000000000000000H
	DQ	0000000000000000H
	DQ	0000000000000000H
	DQ	0000000000000000H
	DQ	0000000000000000H
	DQ	0000000000000000H
	DD	044400H
	ORG $+4
	DQ	FLAT:??_C@_0BP@OCIPBJOC@Request?5that?5a?5generator?5exit?4?$AA@
	DQ	FLAT:BaseException_traverse
	DQ	FLAT:BaseException_clear
	DQ	0000000000000000H
	DQ	0000000000000000H
	DQ	0000000000000000H
	DQ	0000000000000000H
	DQ	0000000000000000H
	DQ	0000000000000000H
	DQ	0000000000000000H
	DQ	FLAT:_PyExc_BaseException
	DQ	0000000000000000H
	DQ	0000000000000000H
	DQ	0000000000000000H
	DQ	0000000000000060H
	DQ	FLAT:BaseException_init
	DQ	0000000000000000H
	DQ	FLAT:BaseException_new
	ORG $+72
PyExc_GeneratorExit DQ FLAT:_PyExc_GeneratorExit
PyExc_SystemExit DQ FLAT:_PyExc_SystemExit
SystemExit_members DQ FLAT:??_C@_04NDFOBODE@code?$AA@
	DD	06H
	ORG $+4
	DQ	0000000000000090H
	DD	00H
	ORG $+4
	DQ	FLAT:??_C@_0P@ENEGNBCK@exception?5code?$AA@
	DQ	0000000000000000H
	ORG $+32
_PyExc_SystemExit DQ dead1234beef5678H
	DQ	dead1234beef5678H
	DQ	0000000000000000H
	ORG $+8
	DQ	0000000000000001H
	DQ	0000000000000000H
	DQ	0000000000000000H
	DQ	0000000000000000H
	DQ	dead1234beef5678H
	DQ	dead1234beef5678H
	DQ	0000000000000001H
	DQ	0000000000000000H
	DQ	0000000000000000H
	ORG $+8
	DQ	FLAT:??_C@_0L@MBGFFHMP@SystemExit?$AA@
	DQ	00000000000000a0H
	DQ	0000000000000000H
	DQ	FLAT:SystemExit_dealloc
	DQ	0000000000000000H
	DQ	0000000000000000H
	DQ	0000000000000000H
	DQ	0000000000000000H
	DQ	0000000000000000H
	DQ	0000000000000000H
	DQ	0000000000000000H
	DQ	0000000000000000H
	DQ	0000000000000000H
	DQ	0000000000000000H
	DQ	0000000000000000H
	DQ	0000000000000000H
	DQ	0000000000000000H
	DQ	0000000000000000H
	DD	044400H
	ORG $+4
	DQ	FLAT:??_C@_0CG@KDLBFKIC@Request?5to?5exit?5from?5the?5interpr@
	DQ	FLAT:SystemExit_traverse
	DQ	FLAT:SystemExit_clear
	DQ	0000000000000000H
	DQ	0000000000000000H
	DQ	0000000000000000H
	DQ	0000000000000000H
	DQ	0000000000000000H
	DQ	FLAT:SystemExit_members
	DQ	0000000000000000H
	DQ	FLAT:_PyExc_BaseException
	DQ	0000000000000000H
	DQ	0000000000000000H
	DQ	0000000000000000H
	DQ	0000000000000060H
	DQ	FLAT:SystemExit_init
	DQ	0000000000000000H
	DQ	0000000000000000H
	ORG $+72
_PyExc_KeyboardInterrupt DQ dead1234beef5678H
	DQ	dead1234beef5678H
	DQ	0000000000000000H
	ORG $+8
	DQ	0000000000000001H
	DQ	0000000000000000H
	DQ	0000000000000000H
	DQ	0000000000000000H
	DQ	dead1234beef5678H
	DQ	dead1234beef5678H
	DQ	0000000000000001H
	DQ	0000000000000000H
	DQ	0000000000000000H
	ORG $+8
	DQ	FLAT:??_C@_0BC@BACBBCED@KeyboardInterrupt?$AA@
	DQ	0000000000000090H
	DQ	0000000000000000H
	DQ	FLAT:BaseException_dealloc
	DQ	0000000000000000H
	DQ	0000000000000000H
	DQ	0000000000000000H
	DQ	0000000000000000H
	DQ	0000000000000000H
	DQ	0000000000000000H
	DQ	0000000000000000H
	DQ	0000000000000000H
	DQ	0000000000000000H
	DQ	0000000000000000H
	DQ	0000000000000000H
	DQ	0000000000000000H
	DQ	0000000000000000H
	DQ	0000000000000000H
	DD	044400H
	ORG $+4
	DQ	FLAT:??_C@_0BN@MANALLKN@Program?5interrupted?5by?5user?4?$AA@
	DQ	FLAT:BaseException_traverse
	DQ	FLAT:BaseException_clear
	DQ	0000000000000000H
	DQ	0000000000000000H
	DQ	0000000000000000H
	DQ	0000000000000000H
	DQ	0000000000000000H
	DQ	0000000000000000H
	DQ	0000000000000000H
	DQ	FLAT:_PyExc_BaseException
	DQ	0000000000000000H
	DQ	0000000000000000H
	DQ	0000000000000000H
	DQ	0000000000000060H
	DQ	FLAT:BaseException_init
	DQ	0000000000000000H
	DQ	FLAT:BaseException_new
	ORG $+72
PyExc_KeyboardInterrupt DQ FLAT:_PyExc_KeyboardInterrupt
PyExc_ImportError DQ FLAT:_PyExc_ImportError
ImportError_members DQ FLAT:??_C@_03GLPMCEFE@msg?$AA@
	DD	06H
	ORG $+4
	DQ	0000000000000090H
	DD	00H
	ORG $+4
	DQ	FLAT:??_C@_0BC@KEEHBMNM@exception?5message?$AA@
	DQ	FLAT:??_C@_04MEMAJGDJ@name?$AA@
	DD	06H
	ORG $+4
	DQ	0000000000000098H
	DD	00H
	ORG $+4
	DQ	FLAT:??_C@_0M@DHLIFJED@module?5name?$AA@
	DQ	FLAT:??_C@_04LNEJFJGI@path?$AA@
	DD	06H
	ORG $+4
	DQ	00000000000000a0H
	DD	00H
	ORG $+4
	DQ	FLAT:??_C@_0M@EODBJGBC@module?5path?$AA@
	DQ	0000000000000000H
	ORG $+32
_PyExc_ImportError DQ dead1234beef5678H
	DQ	dead1234beef5678H
	DQ	0000000000000000H
	ORG $+8
	DQ	0000000000000001H
	DQ	0000000000000000H
	DQ	0000000000000000H
	DQ	0000000000000000H
	DQ	dead1234beef5678H
	DQ	dead1234beef5678H
	DQ	0000000000000001H
	DQ	0000000000000000H
	DQ	0000000000000000H
	ORG $+8
	DQ	FLAT:??_C@_0M@HCFCBBPI@ImportError?$AA@
	DQ	00000000000000b0H
	DQ	0000000000000000H
	DQ	FLAT:ImportError_dealloc
	DQ	0000000000000000H
	DQ	0000000000000000H
	DQ	0000000000000000H
	DQ	0000000000000000H
	DQ	0000000000000000H
	DQ	0000000000000000H
	DQ	0000000000000000H
	DQ	0000000000000000H
	DQ	0000000000000000H
	DQ	0000000000000000H
	DQ	FLAT:ImportError_str
	DQ	0000000000000000H
	DQ	0000000000000000H
	DQ	0000000000000000H
	DD	044400H
	ORG $+4
	DQ	FLAT:??_C@_0DI@HEBCIICE@Import?5can?8t?5find?5module?0?5or?5can@
	DQ	FLAT:ImportError_traverse
	DQ	FLAT:ImportError_clear
	DQ	0000000000000000H
	DQ	0000000000000000H
	DQ	0000000000000000H
	DQ	0000000000000000H
	DQ	FLAT:ImportError_methods
	DQ	FLAT:ImportError_members
	DQ	0000000000000000H
	DQ	FLAT:_PyExc_Exception
	DQ	0000000000000000H
	DQ	0000000000000000H
	DQ	0000000000000000H
	DQ	0000000000000060H
	DQ	FLAT:ImportError_init
	DQ	0000000000000000H
	DQ	0000000000000000H
	ORG $+72
OSError_members DQ FLAT:??_C@_05PEAMIKEP@errno?$AA@
	DD	06H
	ORG $+4
	DQ	0000000000000090H
	DD	00H
	ORG $+4
	DQ	FLAT:??_C@_0BF@CJFJGJAA@POSIX?5exception?5code?$AA@
	DQ	FLAT:??_C@_08MHKKJIBB@strerror?$AA@
	DD	06H
	ORG $+4
	DQ	0000000000000098H
	DD	00H
	ORG $+4
	DQ	FLAT:??_C@_0BD@HIDDEPNK@exception?5strerror?$AA@
	DQ	FLAT:??_C@_08BABJIOEM@filename?$AA@
	DD	06H
	ORG $+4
	DQ	00000000000000a0H
	DD	00H
	ORG $+4
	DQ	FLAT:??_C@_0BD@KPIAFJIH@exception?5filename?$AA@
	DQ	FLAT:??_C@_08NNIGBLFN@winerror?$AA@
	DD	06H
	ORG $+4
	DQ	00000000000000a8H
	DD	00H
	ORG $+4
	DQ	FLAT:??_C@_0BF@EGKICGDH@Win32?5exception?5code?$AA@
	DQ	0000000000000000H
	ORG $+32
PyExc_OSError DQ FLAT:_PyExc_OSError
OSError_methods DQ FLAT:??_C@_0L@NNMACJIG@__reduce__?$AA@
	DQ	FLAT:OSError_reduce
	DD	04H
	ORG $+4
	ORG $+8
	DQ	0000000000000000H
	ORG $+24
OSError_getset DQ FLAT:??_C@_0BD@MJNIBNKM@characters_written?$AA@
	DQ	FLAT:OSError_written_get
	DQ	FLAT:OSError_written_set
	DQ	0000000000000000H
	ORG $+8
	DQ	0000000000000000H
	ORG $+32
_PyExc_OSError DQ dead1234beef5678H
	DQ	dead1234beef5678H
	DQ	0000000000000000H
	ORG $+8
	DQ	0000000000000001H
	DQ	0000000000000000H
	DQ	0000000000000000H
	DQ	0000000000000000H
	DQ	dead1234beef5678H
	DQ	dead1234beef5678H
	DQ	0000000000000001H
	DQ	0000000000000000H
	DQ	0000000000000000H
	ORG $+8
	DQ	FLAT:??_C@_07DLGONEPD@OSError?$AA@
	DQ	00000000000000c0H
	DQ	0000000000000000H
	DQ	FLAT:OSError_dealloc
	DQ	0000000000000000H
	DQ	0000000000000000H
	DQ	0000000000000000H
	DQ	0000000000000000H
	DQ	0000000000000000H
	DQ	0000000000000000H
	DQ	0000000000000000H
	DQ	0000000000000000H
	DQ	0000000000000000H
	DQ	0000000000000000H
	DQ	FLAT:OSError_str
	DQ	0000000000000000H
	DQ	0000000000000000H
	DQ	0000000000000000H
	DD	044400H
	ORG $+4
	DQ	FLAT:??_C@_0CD@BBOAKDDD@Base?5class?5for?5I?1O?5related?5error@
	DQ	FLAT:OSError_traverse
	DQ	FLAT:OSError_clear
	DQ	0000000000000000H
	DQ	0000000000000000H
	DQ	0000000000000000H
	DQ	0000000000000000H
	DQ	FLAT:OSError_methods
	DQ	FLAT:OSError_members
	DQ	FLAT:OSError_getset
	DQ	FLAT:_PyExc_Exception
	DQ	0000000000000000H
	DQ	0000000000000000H
	DQ	0000000000000000H
	DQ	0000000000000060H
	DQ	FLAT:OSError_init
	DQ	0000000000000000H
	DQ	FLAT:OSError_new
	ORG $+72
_PyExc_BlockingIOError DQ dead1234beef5678H
	DQ	dead1234beef5678H
	DQ	0000000000000000H
	ORG $+8
	DQ	0000000000000001H
	DQ	0000000000000000H
	DQ	0000000000000000H
	DQ	0000000000000000H
	DQ	dead1234beef5678H
	DQ	dead1234beef5678H
	DQ	0000000000000001H
	DQ	0000000000000000H
	DQ	0000000000000000H
	ORG $+8
	DQ	FLAT:??_C@_0BA@JGPGLFDG@BlockingIOError?$AA@
	DQ	00000000000000c0H
	DQ	0000000000000000H
	DQ	FLAT:OSError_dealloc
	DQ	0000000000000000H
	DQ	0000000000000000H
	DQ	0000000000000000H
	DQ	0000000000000000H
	DQ	0000000000000000H
	DQ	0000000000000000H
	DQ	0000000000000000H
	DQ	0000000000000000H
	DQ	0000000000000000H
	DQ	0000000000000000H
	DQ	0000000000000000H
	DQ	0000000000000000H
	DQ	0000000000000000H
	DQ	0000000000000000H
	DD	044400H
	ORG $+4
	DQ	FLAT:??_C@_0BL@LJLKLDJH@I?1O?5operation?5would?5block?4?$AA@
	DQ	FLAT:OSError_traverse
	DQ	FLAT:OSError_clear
	DQ	0000000000000000H
	DQ	0000000000000000H
	DQ	0000000000000000H
	DQ	0000000000000000H
	DQ	0000000000000000H
	DQ	0000000000000000H
	DQ	0000000000000000H
	DQ	FLAT:_PyExc_OSError
	DQ	0000000000000000H
	DQ	0000000000000000H
	DQ	0000000000000000H
	DQ	0000000000000060H
	DQ	FLAT:OSError_init
	DQ	0000000000000000H
	DQ	0000000000000000H
	ORG $+72
PyExc_BlockingIOError DQ FLAT:_PyExc_BlockingIOError
PyExc_ConnectionError DQ FLAT:_PyExc_ConnectionError
_PyExc_ConnectionError DQ dead1234beef5678H
	DQ	dead1234beef5678H
	DQ	0000000000000000H
	ORG $+8
	DQ	0000000000000001H
	DQ	0000000000000000H
	DQ	0000000000000000H
	DQ	0000000000000000H
	DQ	dead1234beef5678H
	DQ	dead1234beef5678H
	DQ	0000000000000001H
	DQ	0000000000000000H
	DQ	0000000000000000H
	ORG $+8
	DQ	FLAT:??_C@_0BA@FGMDNHAG@ConnectionError?$AA@
	DQ	00000000000000c0H
	DQ	0000000000000000H
	DQ	FLAT:OSError_dealloc
	DQ	0000000000000000H
	DQ	0000000000000000H
	DQ	0000000000000000H
	DQ	0000000000000000H
	DQ	0000000000000000H
	DQ	0000000000000000H
	DQ	0000000000000000H
	DQ	0000000000000000H
	DQ	0000000000000000H
	DQ	0000000000000000H
	DQ	0000000000000000H
	DQ	0000000000000000H
	DQ	0000000000000000H
	DQ	0000000000000000H
	DD	044400H
	ORG $+4
	DQ	FLAT:??_C@_0BC@BCOONDMO@Connection?5error?4?$AA@
	DQ	FLAT:OSError_traverse
	DQ	FLAT:OSError_clear
	DQ	0000000000000000H
	DQ	0000000000000000H
	DQ	0000000000000000H
	DQ	0000000000000000H
	DQ	0000000000000000H
	DQ	0000000000000000H
	DQ	0000000000000000H
	DQ	FLAT:_PyExc_OSError
	DQ	0000000000000000H
	DQ	0000000000000000H
	DQ	0000000000000000H
	DQ	0000000000000060H
	DQ	FLAT:OSError_init
	DQ	0000000000000000H
	DQ	0000000000000000H
	ORG $+72
_PyExc_ChildProcessError DQ dead1234beef5678H
	DQ	dead1234beef5678H
	DQ	0000000000000000H
	ORG $+8
	DQ	0000000000000001H
	DQ	0000000000000000H
	DQ	0000000000000000H
	DQ	0000000000000000H
	DQ	dead1234beef5678H
	DQ	dead1234beef5678H
	DQ	0000000000000001H
	DQ	0000000000000000H
	DQ	0000000000000000H
	ORG $+8
	DQ	FLAT:??_C@_0BC@LJAFFAPL@ChildProcessError?$AA@
	DQ	00000000000000c0H
	DQ	0000000000000000H
	DQ	FLAT:OSError_dealloc
	DQ	0000000000000000H
	DQ	0000000000000000H
	DQ	0000000000000000H
	DQ	0000000000000000H
	DQ	0000000000000000H
	DQ	0000000000000000H
	DQ	0000000000000000H
	DQ	0000000000000000H
	DQ	0000000000000000H
	DQ	0000000000000000H
	DQ	0000000000000000H
	DQ	0000000000000000H
	DQ	0000000000000000H
	DQ	0000000000000000H
	DD	044400H
	ORG $+4
	DQ	FLAT:??_C@_0BF@IOACMFNO@Child?5process?5error?4?$AA@
	DQ	FLAT:OSError_traverse
	DQ	FLAT:OSError_clear
	DQ	0000000000000000H
	DQ	0000000000000000H
	DQ	0000000000000000H
	DQ	0000000000000000H
	DQ	0000000000000000H
	DQ	0000000000000000H
	DQ	0000000000000000H
	DQ	FLAT:_PyExc_OSError
	DQ	0000000000000000H
	DQ	0000000000000000H
	DQ	0000000000000000H
	DQ	0000000000000060H
	DQ	FLAT:OSError_init
	DQ	0000000000000000H
	DQ	0000000000000000H
	ORG $+72
PyExc_ChildProcessError DQ FLAT:_PyExc_ChildProcessError
PyExc_BrokenPipeError DQ FLAT:_PyExc_BrokenPipeError
_PyExc_BrokenPipeError DQ dead1234beef5678H
	DQ	dead1234beef5678H
	DQ	0000000000000000H
	ORG $+8
	DQ	0000000000000001H
	DQ	0000000000000000H
	DQ	0000000000000000H
	DQ	0000000000000000H
	DQ	dead1234beef5678H
	DQ	dead1234beef5678H
	DQ	0000000000000001H
	DQ	0000000000000000H
	DQ	0000000000000000H
	ORG $+8
	DQ	FLAT:??_C@_0BA@OKFJGAGB@BrokenPipeError?$AA@
	DQ	00000000000000c0H
	DQ	0000000000000000H
	DQ	FLAT:OSError_dealloc
	DQ	0000000000000000H
	DQ	0000000000000000H
	DQ	0000000000000000H
	DQ	0000000000000000H
	DQ	0000000000000000H
	DQ	0000000000000000H
	DQ	0000000000000000H
	DQ	0000000000000000H
	DQ	0000000000000000H
	DQ	0000000000000000H
	DQ	0000000000000000H
	DQ	0000000000000000H
	DQ	0000000000000000H
	DQ	0000000000000000H
	DD	044400H
	ORG $+4
	DQ	FLAT:??_C@_0N@KCAMOIPH@Broken?5pipe?4?$AA@
	DQ	FLAT:OSError_traverse
	DQ	FLAT:OSError_clear
	DQ	0000000000000000H
	DQ	0000000000000000H
	DQ	0000000000000000H
	DQ	0000000000000000H
	DQ	0000000000000000H
	DQ	0000000000000000H
	DQ	0000000000000000H
	DQ	FLAT:_PyExc_ConnectionError
	DQ	0000000000000000H
	DQ	0000000000000000H
	DQ	0000000000000000H
	DQ	0000000000000060H
	DQ	FLAT:OSError_init
	DQ	0000000000000000H
	DQ	0000000000000000H
	ORG $+72
_PyExc_ConnectionAbortedError DQ dead1234beef5678H
	DQ	dead1234beef5678H
	DQ	0000000000000000H
	ORG $+8
	DQ	0000000000000001H
	DQ	0000000000000000H
	DQ	0000000000000000H
	DQ	0000000000000000H
	DQ	dead1234beef5678H
	DQ	dead1234beef5678H
	DQ	0000000000000001H
	DQ	0000000000000000H
	DQ	0000000000000000H
	ORG $+8
	DQ	FLAT:??_C@_0BH@IAHALHIL@ConnectionAbortedError?$AA@
	DQ	00000000000000c0H
	DQ	0000000000000000H
	DQ	FLAT:OSError_dealloc
	DQ	0000000000000000H
	DQ	0000000000000000H
	DQ	0000000000000000H
	DQ	0000000000000000H
	DQ	0000000000000000H
	DQ	0000000000000000H
	DQ	0000000000000000H
	DQ	0000000000000000H
	DQ	0000000000000000H
	DQ	0000000000000000H
	DQ	0000000000000000H
	DQ	0000000000000000H
	DQ	0000000000000000H
	DQ	0000000000000000H
	DD	044400H
	ORG $+4
	DQ	FLAT:??_C@_0BE@FFDJKHGA@Connection?5aborted?4?$AA@
	DQ	FLAT:OSError_traverse
	DQ	FLAT:OSError_clear
	DQ	0000000000000000H
	DQ	0000000000000000H
	DQ	0000000000000000H
	DQ	0000000000000000H
	DQ	0000000000000000H
	DQ	0000000000000000H
	DQ	0000000000000000H
	DQ	FLAT:_PyExc_ConnectionError
	DQ	0000000000000000H
	DQ	0000000000000000H
	DQ	0000000000000000H
	DQ	0000000000000060H
	DQ	FLAT:OSError_init
	DQ	0000000000000000H
	DQ	0000000000000000H
	ORG $+72
PyExc_ConnectionAbortedError DQ FLAT:_PyExc_ConnectionAbortedError
PyExc_ConnectionRefusedError DQ FLAT:_PyExc_ConnectionRefusedError
_PyExc_ConnectionRefusedError DQ dead1234beef5678H
	DQ	dead1234beef5678H
	DQ	0000000000000000H
	ORG $+8
	DQ	0000000000000001H
	DQ	0000000000000000H
	DQ	0000000000000000H
	DQ	0000000000000000H
	DQ	dead1234beef5678H
	DQ	dead1234beef5678H
	DQ	0000000000000001H
	DQ	0000000000000000H
	DQ	0000000000000000H
	ORG $+8
	DQ	FLAT:??_C@_0BH@NFNMCF@ConnectionRefusedError?$AA@
	DQ	00000000000000c0H
	DQ	0000000000000000H
	DQ	FLAT:OSError_dealloc
	DQ	0000000000000000H
	DQ	0000000000000000H
	DQ	0000000000000000H
	DQ	0000000000000000H
	DQ	0000000000000000H
	DQ	0000000000000000H
	DQ	0000000000000000H
	DQ	0000000000000000H
	DQ	0000000000000000H
	DQ	0000000000000000H
	DQ	0000000000000000H
	DQ	0000000000000000H
	DQ	0000000000000000H
	DQ	0000000000000000H
	DD	044400H
	ORG $+4
	DQ	FLAT:??_C@_0BE@PAAMHJLG@Connection?5refused?4?$AA@
	DQ	FLAT:OSError_traverse
	DQ	FLAT:OSError_clear
	DQ	0000000000000000H
	DQ	0000000000000000H
	DQ	0000000000000000H
	DQ	0000000000000000H
	DQ	0000000000000000H
	DQ	0000000000000000H
	DQ	0000000000000000H
	DQ	FLAT:_PyExc_ConnectionError
	DQ	0000000000000000H
	DQ	0000000000000000H
	DQ	0000000000000000H
	DQ	0000000000000060H
	DQ	FLAT:OSError_init
	DQ	0000000000000000H
	DQ	0000000000000000H
	ORG $+72
_PyExc_ConnectionResetError DQ dead1234beef5678H
	DQ	dead1234beef5678H
	DQ	0000000000000000H
	ORG $+8
	DQ	0000000000000001H
	DQ	0000000000000000H
	DQ	0000000000000000H
	DQ	0000000000000000H
	DQ	dead1234beef5678H
	DQ	dead1234beef5678H
	DQ	0000000000000001H
	DQ	0000000000000000H
	DQ	0000000000000000H
	ORG $+8
	DQ	FLAT:??_C@_0BF@KPCMAHCN@ConnectionResetError?$AA@
	DQ	00000000000000c0H
	DQ	0000000000000000H
	DQ	FLAT:OSError_dealloc
	DQ	0000000000000000H
	DQ	0000000000000000H
	DQ	0000000000000000H
	DQ	0000000000000000H
	DQ	0000000000000000H
	DQ	0000000000000000H
	DQ	0000000000000000H
	DQ	0000000000000000H
	DQ	0000000000000000H
	DQ	0000000000000000H
	DQ	0000000000000000H
	DQ	0000000000000000H
	DQ	0000000000000000H
	DQ	0000000000000000H
	DD	044400H
	ORG $+4
	DQ	FLAT:??_C@_0BC@PIBEPGML@Connection?5reset?4?$AA@
	DQ	FLAT:OSError_traverse
	DQ	FLAT:OSError_clear
	DQ	0000000000000000H
	DQ	0000000000000000H
	DQ	0000000000000000H
	DQ	0000000000000000H
	DQ	0000000000000000H
	DQ	0000000000000000H
	DQ	0000000000000000H
	DQ	FLAT:_PyExc_ConnectionError
	DQ	0000000000000000H
	DQ	0000000000000000H
	DQ	0000000000000000H
	DQ	0000000000000060H
	DQ	FLAT:OSError_init
	DQ	0000000000000000H
	DQ	0000000000000000H
	ORG $+72
PyExc_ConnectionResetError DQ FLAT:_PyExc_ConnectionResetError
PyExc_FileExistsError DQ FLAT:_PyExc_FileExistsError
_PyExc_FileExistsError DQ dead1234beef5678H
	DQ	dead1234beef5678H
	DQ	0000000000000000H
	ORG $+8
	DQ	0000000000000001H
	DQ	0000000000000000H
	DQ	0000000000000000H
	DQ	0000000000000000H
	DQ	dead1234beef5678H
	DQ	dead1234beef5678H
	DQ	0000000000000001H
	DQ	0000000000000000H
	DQ	0000000000000000H
	ORG $+8
	DQ	FLAT:??_C@_0BA@FBEHCPFP@FileExistsError?$AA@
	DQ	00000000000000c0H
	DQ	0000000000000000H
	DQ	FLAT:OSError_dealloc
	DQ	0000000000000000H
	DQ	0000000000000000H
	DQ	0000000000000000H
	DQ	0000000000000000H
	DQ	0000000000000000H
	DQ	0000000000000000H
	DQ	0000000000000000H
	DQ	0000000000000000H
	DQ	0000000000000000H
	DQ	0000000000000000H
	DQ	0000000000000000H
	DQ	0000000000000000H
	DQ	0000000000000000H
	DQ	0000000000000000H
	DD	044400H
	ORG $+4
	DQ	FLAT:??_C@_0BF@PBMIGFNE@File?5already?5exists?4?$AA@
	DQ	FLAT:OSError_traverse
	DQ	FLAT:OSError_clear
	DQ	0000000000000000H
	DQ	0000000000000000H
	DQ	0000000000000000H
	DQ	0000000000000000H
	DQ	0000000000000000H
	DQ	0000000000000000H
	DQ	0000000000000000H
	DQ	FLAT:_PyExc_OSError
	DQ	0000000000000000H
	DQ	0000000000000000H
	DQ	0000000000000000H
	DQ	0000000000000060H
	DQ	FLAT:OSError_init
	DQ	0000000000000000H
	DQ	0000000000000000H
	ORG $+72
_PyExc_FileNotFoundError DQ dead1234beef5678H
	DQ	dead1234beef5678H
	DQ	0000000000000000H
	ORG $+8
	DQ	0000000000000001H
	DQ	0000000000000000H
	DQ	0000000000000000H
	DQ	0000000000000000H
	DQ	dead1234beef5678H
	DQ	dead1234beef5678H
	DQ	0000000000000001H
	DQ	0000000000000000H
	DQ	0000000000000000H
	ORG $+8
	DQ	FLAT:??_C@_0BC@IPPJKII@FileNotFoundError?$AA@
	DQ	00000000000000c0H
	DQ	0000000000000000H
	DQ	FLAT:OSError_dealloc
	DQ	0000000000000000H
	DQ	0000000000000000H
	DQ	0000000000000000H
	DQ	0000000000000000H
	DQ	0000000000000000H
	DQ	0000000000000000H
	DQ	0000000000000000H
	DQ	0000000000000000H
	DQ	0000000000000000H
	DQ	0000000000000000H
	DQ	0000000000000000H
	DQ	0000000000000000H
	DQ	0000000000000000H
	DQ	0000000000000000H
	DD	044400H
	ORG $+4
	DQ	FLAT:??_C@_0BA@DOIDIGMK@File?5not?5found?4?$AA@
	DQ	FLAT:OSError_traverse
	DQ	FLAT:OSError_clear
	DQ	0000000000000000H
	DQ	0000000000000000H
	DQ	0000000000000000H
	DQ	0000000000000000H
	DQ	0000000000000000H
	DQ	0000000000000000H
	DQ	0000000000000000H
	DQ	FLAT:_PyExc_OSError
	DQ	0000000000000000H
	DQ	0000000000000000H
	DQ	0000000000000000H
	DQ	0000000000000060H
	DQ	FLAT:OSError_init
	DQ	0000000000000000H
	DQ	0000000000000000H
	ORG $+72
PyExc_FileNotFoundError DQ FLAT:_PyExc_FileNotFoundError
PyExc_IsADirectoryError DQ FLAT:_PyExc_IsADirectoryError
_PyExc_IsADirectoryError DQ dead1234beef5678H
	DQ	dead1234beef5678H
	DQ	0000000000000000H
	ORG $+8
	DQ	0000000000000001H
	DQ	0000000000000000H
	DQ	0000000000000000H
	DQ	0000000000000000H
	DQ	dead1234beef5678H
	DQ	dead1234beef5678H
	DQ	0000000000000001H
	DQ	0000000000000000H
	DQ	0000000000000000H
	ORG $+8
	DQ	FLAT:??_C@_0BC@EPPFJLG@IsADirectoryError?$AA@
	DQ	00000000000000c0H
	DQ	0000000000000000H
	DQ	FLAT:OSError_dealloc
	DQ	0000000000000000H
	DQ	0000000000000000H
	DQ	0000000000000000H
	DQ	0000000000000000H
	DQ	0000000000000000H
	DQ	0000000000000000H
	DQ	0000000000000000H
	DQ	0000000000000000H
	DQ	0000000000000000H
	DQ	0000000000000000H
	DQ	0000000000000000H
	DQ	0000000000000000H
	DQ	0000000000000000H
	DQ	0000000000000000H
	DD	044400H
	ORG $+4
	DQ	FLAT:??_C@_0CH@PKAKIMKI@Operation?5doesn?8t?5work?5on?5direct@
	DQ	FLAT:OSError_traverse
	DQ	FLAT:OSError_clear
	DQ	0000000000000000H
	DQ	0000000000000000H
	DQ	0000000000000000H
	DQ	0000000000000000H
	DQ	0000000000000000H
	DQ	0000000000000000H
	DQ	0000000000000000H
	DQ	FLAT:_PyExc_OSError
	DQ	0000000000000000H
	DQ	0000000000000000H
	DQ	0000000000000000H
	DQ	0000000000000060H
	DQ	FLAT:OSError_init
	DQ	0000000000000000H
	DQ	0000000000000000H
	ORG $+72
_PyExc_NotADirectoryError DQ dead1234beef5678H
	DQ	dead1234beef5678H
	DQ	0000000000000000H
	ORG $+8
	DQ	0000000000000001H
	DQ	0000000000000000H
	DQ	0000000000000000H
	DQ	0000000000000000H
	DQ	dead1234beef5678H
	DQ	dead1234beef5678H
	DQ	0000000000000001H
	DQ	0000000000000000H
	DQ	0000000000000000H
	ORG $+8
	DQ	FLAT:??_C@_0BD@BDDBNNNE@NotADirectoryError?$AA@
	DQ	00000000000000c0H
	DQ	0000000000000000H
	DQ	FLAT:OSError_dealloc
	DQ	0000000000000000H
	DQ	0000000000000000H
	DQ	0000000000000000H
	DQ	0000000000000000H
	DQ	0000000000000000H
	DQ	0000000000000000H
	DQ	0000000000000000H
	DQ	0000000000000000H
	DQ	0000000000000000H
	DQ	0000000000000000H
	DQ	0000000000000000H
	DQ	0000000000000000H
	DQ	0000000000000000H
	DQ	0000000000000000H
	DD	044400H
	ORG $+4
	DQ	FLAT:??_C@_0CF@MHLAOJGN@Operation?5only?5works?5on?5director@
	DQ	FLAT:OSError_traverse
	DQ	FLAT:OSError_clear
	DQ	0000000000000000H
	DQ	0000000000000000H
	DQ	0000000000000000H
	DQ	0000000000000000H
	DQ	0000000000000000H
	DQ	0000000000000000H
	DQ	0000000000000000H
	DQ	FLAT:_PyExc_OSError
	DQ	0000000000000000H
	DQ	0000000000000000H
	DQ	0000000000000000H
	DQ	0000000000000060H
	DQ	FLAT:OSError_init
	DQ	0000000000000000H
	DQ	0000000000000000H
	ORG $+72
PyExc_NotADirectoryError DQ FLAT:_PyExc_NotADirectoryError
PyExc_InterruptedError DQ FLAT:_PyExc_InterruptedError
_PyExc_InterruptedError DQ dead1234beef5678H
	DQ	dead1234beef5678H
	DQ	0000000000000000H
	ORG $+8
	DQ	0000000000000001H
	DQ	0000000000000000H
	DQ	0000000000000000H
	DQ	0000000000000000H
	DQ	dead1234beef5678H
	DQ	dead1234beef5678H
	DQ	0000000000000001H
	DQ	0000000000000000H
	DQ	0000000000000000H
	ORG $+8
	DQ	FLAT:??_C@_0BB@PFBGOELP@InterruptedError?$AA@
	DQ	00000000000000c0H
	DQ	0000000000000000H
	DQ	FLAT:OSError_dealloc
	DQ	0000000000000000H
	DQ	0000000000000000H
	DQ	0000000000000000H
	DQ	0000000000000000H
	DQ	0000000000000000H
	DQ	0000000000000000H
	DQ	0000000000000000H
	DQ	0000000000000000H
	DQ	0000000000000000H
	DQ	0000000000000000H
	DQ	0000000000000000H
	DQ	0000000000000000H
	DQ	0000000000000000H
	DQ	0000000000000000H
	DD	044400H
	ORG $+4
	DQ	FLAT:??_C@_0BH@DPFOMFFN@Interrupted?5by?5signal?4?$AA@
	DQ	FLAT:OSError_traverse
	DQ	FLAT:OSError_clear
	DQ	0000000000000000H
	DQ	0000000000000000H
	DQ	0000000000000000H
	DQ	0000000000000000H
	DQ	0000000000000000H
	DQ	0000000000000000H
	DQ	0000000000000000H
	DQ	FLAT:_PyExc_OSError
	DQ	0000000000000000H
	DQ	0000000000000000H
	DQ	0000000000000000H
	DQ	0000000000000060H
	DQ	FLAT:OSError_init
	DQ	0000000000000000H
	DQ	0000000000000000H
	ORG $+72
_PyExc_PermissionError DQ dead1234beef5678H
	DQ	dead1234beef5678H
	DQ	0000000000000000H
	ORG $+8
	DQ	0000000000000001H
	DQ	0000000000000000H
	DQ	0000000000000000H
	DQ	0000000000000000H
	DQ	dead1234beef5678H
	DQ	dead1234beef5678H
	DQ	0000000000000001H
	DQ	0000000000000000H
	DQ	0000000000000000H
	ORG $+8
	DQ	FLAT:??_C@_0BA@EGIOHDMA@PermissionError?$AA@
	DQ	00000000000000c0H
	DQ	0000000000000000H
	DQ	FLAT:OSError_dealloc
	DQ	0000000000000000H
	DQ	0000000000000000H
	DQ	0000000000000000H
	DQ	0000000000000000H
	DQ	0000000000000000H
	DQ	0000000000000000H
	DQ	0000000000000000H
	DQ	0000000000000000H
	DQ	0000000000000000H
	DQ	0000000000000000H
	DQ	0000000000000000H
	DQ	0000000000000000H
	DQ	0000000000000000H
	DQ	0000000000000000H
	DD	044400H
	ORG $+4
	DQ	FLAT:??_C@_0BI@ICBFMNFH@Not?5enough?5permissions?4?$AA@
	DQ	FLAT:OSError_traverse
	DQ	FLAT:OSError_clear
	DQ	0000000000000000H
	DQ	0000000000000000H
	DQ	0000000000000000H
	DQ	0000000000000000H
	DQ	0000000000000000H
	DQ	0000000000000000H
	DQ	0000000000000000H
	DQ	FLAT:_PyExc_OSError
	DQ	0000000000000000H
	DQ	0000000000000000H
	DQ	0000000000000000H
	DQ	0000000000000060H
	DQ	FLAT:OSError_init
	DQ	0000000000000000H
	DQ	0000000000000000H
	ORG $+72
PyExc_PermissionError DQ FLAT:_PyExc_PermissionError
PyExc_ProcessLookupError DQ FLAT:_PyExc_ProcessLookupError
_PyExc_ProcessLookupError DQ dead1234beef5678H
	DQ	dead1234beef5678H
	DQ	0000000000000000H
	ORG $+8
	DQ	0000000000000001H
	DQ	0000000000000000H
	DQ	0000000000000000H
	DQ	0000000000000000H
	DQ	dead1234beef5678H
	DQ	dead1234beef5678H
	DQ	0000000000000001H
	DQ	0000000000000000H
	DQ	0000000000000000H
	ORG $+8
	DQ	FLAT:??_C@_0BD@LBBCHOLB@ProcessLookupError?$AA@
	DQ	00000000000000c0H
	DQ	0000000000000000H
	DQ	FLAT:OSError_dealloc
	DQ	0000000000000000H
	DQ	0000000000000000H
	DQ	0000000000000000H
	DQ	0000000000000000H
	DQ	0000000000000000H
	DQ	0000000000000000H
	DQ	0000000000000000H
	DQ	0000000000000000H
	DQ	0000000000000000H
	DQ	0000000000000000H
	DQ	0000000000000000H
	DQ	0000000000000000H
	DQ	0000000000000000H
	DQ	0000000000000000H
	DD	044400H
	ORG $+4
	DQ	FLAT:??_C@_0BD@CDPGLGNA@Process?5not?5found?4?$AA@
	DQ	FLAT:OSError_traverse
	DQ	FLAT:OSError_clear
	DQ	0000000000000000H
	DQ	0000000000000000H
	DQ	0000000000000000H
	DQ	0000000000000000H
	DQ	0000000000000000H
	DQ	0000000000000000H
	DQ	0000000000000000H
	DQ	FLAT:_PyExc_OSError
	DQ	0000000000000000H
	DQ	0000000000000000H
	DQ	0000000000000000H
	DQ	0000000000000060H
	DQ	FLAT:OSError_init
	DQ	0000000000000000H
	DQ	0000000000000000H
	ORG $+72
_PyExc_TimeoutError DQ dead1234beef5678H
	DQ	dead1234beef5678H
	DQ	0000000000000000H
	ORG $+8
	DQ	0000000000000001H
	DQ	0000000000000000H
	DQ	0000000000000000H
	DQ	0000000000000000H
	DQ	dead1234beef5678H
	DQ	dead1234beef5678H
	DQ	0000000000000001H
	DQ	0000000000000000H
	DQ	0000000000000000H
	ORG $+8
	DQ	FLAT:??_C@_0N@BMLDFELP@TimeoutError?$AA@
	DQ	00000000000000c0H
	DQ	0000000000000000H
	DQ	FLAT:OSError_dealloc
	DQ	0000000000000000H
	DQ	0000000000000000H
	DQ	0000000000000000H
	DQ	0000000000000000H
	DQ	0000000000000000H
	DQ	0000000000000000H
	DQ	0000000000000000H
	DQ	0000000000000000H
	DQ	0000000000000000H
	DQ	0000000000000000H
	DQ	0000000000000000H
	DQ	0000000000000000H
	DQ	0000000000000000H
	DQ	0000000000000000H
	DD	044400H
	ORG $+4
	DQ	FLAT:??_C@_0BB@KIFGEFOB@Timeout?5expired?4?$AA@
	DQ	FLAT:OSError_traverse
	DQ	FLAT:OSError_clear
	DQ	0000000000000000H
	DQ	0000000000000000H
	DQ	0000000000000000H
	DQ	0000000000000000H
	DQ	0000000000000000H
	DQ	0000000000000000H
	DQ	0000000000000000H
	DQ	FLAT:_PyExc_OSError
	DQ	0000000000000000H
	DQ	0000000000000000H
	DQ	0000000000000000H
	DQ	0000000000000060H
	DQ	FLAT:OSError_init
	DQ	0000000000000000H
	DQ	0000000000000000H
	ORG $+72
PyExc_TimeoutError DQ FLAT:_PyExc_TimeoutError
PyExc_EOFError DQ FLAT:_PyExc_EOFError
_PyExc_EOFError DQ dead1234beef5678H
	DQ	dead1234beef5678H
	DQ	0000000000000000H
	ORG $+8
	DQ	0000000000000001H
	DQ	0000000000000000H
	DQ	0000000000000000H
	DQ	0000000000000000H
	DQ	dead1234beef5678H
	DQ	dead1234beef5678H
	DQ	0000000000000001H
	DQ	0000000000000000H
	DQ	0000000000000000H
	ORG $+8
	DQ	FLAT:??_C@_08BJKGOKBF@EOFError?$AA@
	DQ	0000000000000090H
	DQ	0000000000000000H
	DQ	FLAT:BaseException_dealloc
	DQ	0000000000000000H
	DQ	0000000000000000H
	DQ	0000000000000000H
	DQ	0000000000000000H
	DQ	0000000000000000H
	DQ	0000000000000000H
	DQ	0000000000000000H
	DQ	0000000000000000H
	DQ	0000000000000000H
	DQ	0000000000000000H
	DQ	0000000000000000H
	DQ	0000000000000000H
	DQ	0000000000000000H
	DQ	0000000000000000H
	DD	044400H
	ORG $+4
	DQ	FLAT:??_C@_0BJ@DBOMGJHD@Read?5beyond?5end?5of?5file?4?$AA@
	DQ	FLAT:BaseException_traverse
	DQ	FLAT:BaseException_clear
	DQ	0000000000000000H
	DQ	0000000000000000H
	DQ	0000000000000000H
	DQ	0000000000000000H
	DQ	0000000000000000H
	DQ	0000000000000000H
	DQ	0000000000000000H
	DQ	FLAT:_PyExc_Exception
	DQ	0000000000000000H
	DQ	0000000000000000H
	DQ	0000000000000000H
	DQ	0000000000000060H
	DQ	FLAT:BaseException_init
	DQ	0000000000000000H
	DQ	FLAT:BaseException_new
	ORG $+72
_PyExc_RuntimeError DQ dead1234beef5678H
	DQ	dead1234beef5678H
	DQ	0000000000000000H
	ORG $+8
	DQ	0000000000000001H
	DQ	0000000000000000H
	DQ	0000000000000000H
	DQ	0000000000000000H
	DQ	dead1234beef5678H
	DQ	dead1234beef5678H
	DQ	0000000000000001H
	DQ	0000000000000000H
	DQ	0000000000000000H
	ORG $+8
	DQ	FLAT:??_C@_0N@PJCHGDKG@RuntimeError?$AA@
	DQ	0000000000000090H
	DQ	0000000000000000H
	DQ	FLAT:BaseException_dealloc
	DQ	0000000000000000H
	DQ	0000000000000000H
	DQ	0000000000000000H
	DQ	0000000000000000H
	DQ	0000000000000000H
	DQ	0000000000000000H
	DQ	0000000000000000H
	DQ	0000000000000000H
	DQ	0000000000000000H
	DQ	0000000000000000H
	DQ	0000000000000000H
	DQ	0000000000000000H
	DQ	0000000000000000H
	DQ	0000000000000000H
	DD	044400H
	ORG $+4
	DQ	FLAT:??_C@_0BM@GMHHIONK@Unspecified?5run?9time?5error?4?$AA@
	DQ	FLAT:BaseException_traverse
	DQ	FLAT:BaseException_clear
	DQ	0000000000000000H
	DQ	0000000000000000H
	DQ	0000000000000000H
	DQ	0000000000000000H
	DQ	0000000000000000H
	DQ	0000000000000000H
	DQ	0000000000000000H
	DQ	FLAT:_PyExc_Exception
	DQ	0000000000000000H
	DQ	0000000000000000H
	DQ	0000000000000000H
	DQ	0000000000000060H
	DQ	FLAT:BaseException_init
	DQ	0000000000000000H
	DQ	FLAT:BaseException_new
	ORG $+72
PyExc_RuntimeError DQ FLAT:_PyExc_RuntimeError
PyExc_NotImplementedError DQ FLAT:_PyExc_NotImplementedError
_PyExc_NotImplementedError DQ dead1234beef5678H
	DQ	dead1234beef5678H
	DQ	0000000000000000H
	ORG $+8
	DQ	0000000000000001H
	DQ	0000000000000000H
	DQ	0000000000000000H
	DQ	0000000000000000H
	DQ	dead1234beef5678H
	DQ	dead1234beef5678H
	DQ	0000000000000001H
	DQ	0000000000000000H
	DQ	0000000000000000H
	ORG $+8
	DQ	FLAT:??_C@_0BE@NIHEKDAM@NotImplementedError?$AA@
	DQ	0000000000000090H
	DQ	0000000000000000H
	DQ	FLAT:BaseException_dealloc
	DQ	0000000000000000H
	DQ	0000000000000000H
	DQ	0000000000000000H
	DQ	0000000000000000H
	DQ	0000000000000000H
	DQ	0000000000000000H
	DQ	0000000000000000H
	DQ	0000000000000000H
	DQ	0000000000000000H
	DQ	0000000000000000H
	DQ	0000000000000000H
	DQ	0000000000000000H
	DQ	0000000000000000H
	DQ	0000000000000000H
	DD	044400H
	ORG $+4
	DQ	FLAT:??_C@_0DA@PMFCDFAJ@Method?5or?5function?5hasn?8t?5been?5i@
	DQ	FLAT:BaseException_traverse
	DQ	FLAT:BaseException_clear
	DQ	0000000000000000H
	DQ	0000000000000000H
	DQ	0000000000000000H
	DQ	0000000000000000H
	DQ	0000000000000000H
	DQ	0000000000000000H
	DQ	0000000000000000H
	DQ	FLAT:_PyExc_RuntimeError
	DQ	0000000000000000H
	DQ	0000000000000000H
	DQ	0000000000000000H
	DQ	0000000000000060H
	DQ	FLAT:BaseException_init
	DQ	0000000000000000H
	DQ	FLAT:BaseException_new
	ORG $+72
_PyExc_NameError DQ dead1234beef5678H
	DQ	dead1234beef5678H
	DQ	0000000000000000H
	ORG $+8
	DQ	0000000000000001H
	DQ	0000000000000000H
	DQ	0000000000000000H
	DQ	0000000000000000H
	DQ	dead1234beef5678H
	DQ	dead1234beef5678H
	DQ	0000000000000001H
	DQ	0000000000000000H
	DQ	0000000000000000H
	ORG $+8
	DQ	FLAT:??_C@_09GENDEFL@NameError?$AA@
	DQ	0000000000000090H
	DQ	0000000000000000H
	DQ	FLAT:BaseException_dealloc
	DQ	0000000000000000H
	DQ	0000000000000000H
	DQ	0000000000000000H
	DQ	0000000000000000H
	DQ	0000000000000000H
	DQ	0000000000000000H
	DQ	0000000000000000H
	DQ	0000000000000000H
	DQ	0000000000000000H
	DQ	0000000000000000H
	DQ	0000000000000000H
	DQ	0000000000000000H
	DQ	0000000000000000H
	DQ	0000000000000000H
	DD	044400H
	ORG $+4
	DQ	FLAT:??_C@_0BJ@CKADCLHL@Name?5not?5found?5globally?4?$AA@
	DQ	FLAT:BaseException_traverse
	DQ	FLAT:BaseException_clear
	DQ	0000000000000000H
	DQ	0000000000000000H
	DQ	0000000000000000H
	DQ	0000000000000000H
	DQ	0000000000000000H
	DQ	0000000000000000H
	DQ	0000000000000000H
	DQ	FLAT:_PyExc_Exception
	DQ	0000000000000000H
	DQ	0000000000000000H
	DQ	0000000000000000H
	DQ	0000000000000060H
	DQ	FLAT:BaseException_init
	DQ	0000000000000000H
	DQ	FLAT:BaseException_new
	ORG $+72
PyExc_NameError DQ FLAT:_PyExc_NameError
PyExc_UnboundLocalError DQ FLAT:_PyExc_UnboundLocalError
_PyExc_UnboundLocalError DQ dead1234beef5678H
	DQ	dead1234beef5678H
	DQ	0000000000000000H
	ORG $+8
	DQ	0000000000000001H
	DQ	0000000000000000H
	DQ	0000000000000000H
	DQ	0000000000000000H
	DQ	dead1234beef5678H
	DQ	dead1234beef5678H
	DQ	0000000000000001H
	DQ	0000000000000000H
	DQ	0000000000000000H
	ORG $+8
	DQ	FLAT:??_C@_0BC@EJBPJIJA@UnboundLocalError?$AA@
	DQ	0000000000000090H
	DQ	0000000000000000H
	DQ	FLAT:BaseException_dealloc
	DQ	0000000000000000H
	DQ	0000000000000000H
	DQ	0000000000000000H
	DQ	0000000000000000H
	DQ	0000000000000000H
	DQ	0000000000000000H
	DQ	0000000000000000H
	DQ	0000000000000000H
	DQ	0000000000000000H
	DQ	0000000000000000H
	DQ	0000000000000000H
	DQ	0000000000000000H
	DQ	0000000000000000H
	DQ	0000000000000000H
	DD	044400H
	ORG $+4
	DQ	FLAT:??_C@_0DA@JDNAGEED@Local?5name?5referenced?5but?5not?5bo@
	DQ	FLAT:BaseException_traverse
	DQ	FLAT:BaseException_clear
	DQ	0000000000000000H
	DQ	0000000000000000H
	DQ	0000000000000000H
	DQ	0000000000000000H
	DQ	0000000000000000H
	DQ	0000000000000000H
	DQ	0000000000000000H
	DQ	FLAT:_PyExc_NameError
	DQ	0000000000000000H
	DQ	0000000000000000H
	DQ	0000000000000000H
	DQ	0000000000000060H
	DQ	FLAT:BaseException_init
	DQ	0000000000000000H
	DQ	FLAT:BaseException_new
	ORG $+72
_PyExc_AttributeError DQ dead1234beef5678H
	DQ	dead1234beef5678H
	DQ	0000000000000000H
	ORG $+8
	DQ	0000000000000001H
	DQ	0000000000000000H
	DQ	0000000000000000H
	DQ	0000000000000000H
	DQ	dead1234beef5678H
	DQ	dead1234beef5678H
	DQ	0000000000000001H
	DQ	0000000000000000H
	DQ	0000000000000000H
	ORG $+8
	DQ	FLAT:??_C@_0P@OMMLLIOG@AttributeError?$AA@
	DQ	0000000000000090H
	DQ	0000000000000000H
	DQ	FLAT:BaseException_dealloc
	DQ	0000000000000000H
	DQ	0000000000000000H
	DQ	0000000000000000H
	DQ	0000000000000000H
	DQ	0000000000000000H
	DQ	0000000000000000H
	DQ	0000000000000000H
	DQ	0000000000000000H
	DQ	0000000000000000H
	DQ	0000000000000000H
	DQ	0000000000000000H
	DQ	0000000000000000H
	DQ	0000000000000000H
	DQ	0000000000000000H
	DD	044400H
	ORG $+4
	DQ	FLAT:??_C@_0BF@KBBDNFNN@Attribute?5not?5found?4?$AA@
	DQ	FLAT:BaseException_traverse
	DQ	FLAT:BaseException_clear
	DQ	0000000000000000H
	DQ	0000000000000000H
	DQ	0000000000000000H
	DQ	0000000000000000H
	DQ	0000000000000000H
	DQ	0000000000000000H
	DQ	0000000000000000H
	DQ	FLAT:_PyExc_Exception
	DQ	0000000000000000H
	DQ	0000000000000000H
	DQ	0000000000000000H
	DQ	0000000000000060H
	DQ	FLAT:BaseException_init
	DQ	0000000000000000H
	DQ	FLAT:BaseException_new
	ORG $+72
PyExc_AttributeError DQ FLAT:_PyExc_AttributeError
PyExc_SyntaxError DQ FLAT:_PyExc_SyntaxError
SyntaxError_members DQ FLAT:??_C@_03GLPMCEFE@msg?$AA@
	DD	06H
	ORG $+4
	DQ	0000000000000090H
	DD	00H
	ORG $+4
	DQ	FLAT:??_C@_0O@BHKGJJFD@exception?5msg?$AA@
	DQ	FLAT:??_C@_08BABJIOEM@filename?$AA@
	DD	06H
	ORG $+4
	DQ	0000000000000098H
	DD	00H
	ORG $+4
	DQ	FLAT:??_C@_0BD@KPIAFJIH@exception?5filename?$AA@
	DQ	FLAT:??_C@_06ILKIAHNN@lineno?$AA@
	DD	06H
	ORG $+4
	DQ	00000000000000a0H
	DD	00H
	ORG $+4
	DQ	FLAT:??_C@_0BB@FEDCHJDL@exception?5lineno?$AA@
	DQ	FLAT:??_C@_06KLHHMIGM@offset?$AA@
	DD	06H
	ORG $+4
	DQ	00000000000000a8H
	DD	00H
	ORG $+4
	DQ	FLAT:??_C@_0BB@HEONLGIK@exception?5offset?$AA@
	DQ	FLAT:??_C@_04CIMGMMMG@text?$AA@
	DD	06H
	ORG $+4
	DQ	00000000000000b0H
	DD	00H
	ORG $+4
	DQ	FLAT:??_C@_0P@LGNOADNI@exception?5text?$AA@
	DQ	FLAT:??_C@_0BE@DKBHEDDB@print_file_and_line?$AA@
	DD	06H
	ORG $+4
	DQ	00000000000000b8H
	DD	00H
	ORG $+4
	DQ	FLAT:??_C@_0BO@GMLCEMFL@exception?5print_file_and_line?$AA@
	DQ	0000000000000000H
	ORG $+32
PyExc_IndentationError DQ FLAT:_PyExc_IndentationError
_PyExc_SyntaxError DQ dead1234beef5678H
	DQ	dead1234beef5678H
	DQ	0000000000000000H
	ORG $+8
	DQ	0000000000000001H
	DQ	0000000000000000H
	DQ	0000000000000000H
	DQ	0000000000000000H
	DQ	dead1234beef5678H
	DQ	dead1234beef5678H
	DQ	0000000000000001H
	DQ	0000000000000000H
	DQ	0000000000000000H
	ORG $+8
	DQ	FLAT:??_C@_0M@KIDEJCGH@SyntaxError?$AA@
	DQ	00000000000000c0H
	DQ	0000000000000000H
	DQ	FLAT:SyntaxError_dealloc
	DQ	0000000000000000H
	DQ	0000000000000000H
	DQ	0000000000000000H
	DQ	0000000000000000H
	DQ	0000000000000000H
	DQ	0000000000000000H
	DQ	0000000000000000H
	DQ	0000000000000000H
	DQ	0000000000000000H
	DQ	0000000000000000H
	DQ	FLAT:SyntaxError_str
	DQ	0000000000000000H
	DQ	0000000000000000H
	DQ	0000000000000000H
	DD	044400H
	ORG $+4
	DQ	FLAT:??_C@_0BA@GFAEMOKB@Invalid?5syntax?4?$AA@
	DQ	FLAT:SyntaxError_traverse
	DQ	FLAT:SyntaxError_clear
	DQ	0000000000000000H
	DQ	0000000000000000H
	DQ	0000000000000000H
	DQ	0000000000000000H
	DQ	0000000000000000H
	DQ	FLAT:SyntaxError_members
	DQ	0000000000000000H
	DQ	FLAT:_PyExc_Exception
	DQ	0000000000000000H
	DQ	0000000000000000H
	DQ	0000000000000000H
	DQ	0000000000000060H
	DQ	FLAT:SyntaxError_init
	DQ	0000000000000000H
	DQ	0000000000000000H
	ORG $+72
_PyExc_IndentationError DQ dead1234beef5678H
	DQ	dead1234beef5678H
	DQ	0000000000000000H
	ORG $+8
	DQ	0000000000000001H
	DQ	0000000000000000H
	DQ	0000000000000000H
	DQ	0000000000000000H
	DQ	dead1234beef5678H
	DQ	dead1234beef5678H
	DQ	0000000000000001H
	DQ	0000000000000000H
	DQ	0000000000000000H
	ORG $+8
	DQ	FLAT:??_C@_0BB@PAPDAKC@IndentationError?$AA@
	DQ	00000000000000c0H
	DQ	0000000000000000H
	DQ	FLAT:SyntaxError_dealloc
	DQ	0000000000000000H
	DQ	0000000000000000H
	DQ	0000000000000000H
	DQ	0000000000000000H
	DQ	0000000000000000H
	DQ	0000000000000000H
	DQ	0000000000000000H
	DQ	0000000000000000H
	DQ	0000000000000000H
	DQ	0000000000000000H
	DQ	0000000000000000H
	DQ	0000000000000000H
	DQ	0000000000000000H
	DQ	0000000000000000H
	DD	044400H
	ORG $+4
	DQ	FLAT:??_C@_0BG@EODDEBDJ@Improper?5indentation?4?$AA@
	DQ	FLAT:SyntaxError_traverse
	DQ	FLAT:SyntaxError_clear
	DQ	0000000000000000H
	DQ	0000000000000000H
	DQ	0000000000000000H
	DQ	0000000000000000H
	DQ	0000000000000000H
	DQ	0000000000000000H
	DQ	0000000000000000H
	DQ	FLAT:_PyExc_SyntaxError
	DQ	0000000000000000H
	DQ	0000000000000000H
	DQ	0000000000000000H
	DQ	0000000000000060H
	DQ	FLAT:SyntaxError_init
	DQ	0000000000000000H
	DQ	0000000000000000H
	ORG $+72
_PyExc_TabError DQ dead1234beef5678H
	DQ	dead1234beef5678H
	DQ	0000000000000000H
	ORG $+8
	DQ	0000000000000001H
	DQ	0000000000000000H
	DQ	0000000000000000H
	DQ	0000000000000000H
	DQ	dead1234beef5678H
	DQ	dead1234beef5678H
	DQ	0000000000000001H
	DQ	0000000000000000H
	DQ	0000000000000000H
	ORG $+8
	DQ	FLAT:??_C@_08HFBDNBMM@TabError?$AA@
	DQ	00000000000000c0H
	DQ	0000000000000000H
	DQ	FLAT:SyntaxError_dealloc
	DQ	0000000000000000H
	DQ	0000000000000000H
	DQ	0000000000000000H
	DQ	0000000000000000H
	DQ	0000000000000000H
	DQ	0000000000000000H
	DQ	0000000000000000H
	DQ	0000000000000000H
	DQ	0000000000000000H
	DQ	0000000000000000H
	DQ	0000000000000000H
	DQ	0000000000000000H
	DQ	0000000000000000H
	DQ	0000000000000000H
	DD	044400H
	ORG $+4
	DQ	FLAT:??_C@_0CF@GKBIKMOP@Improper?5mixture?5of?5spaces?5and?5t@
	DQ	FLAT:SyntaxError_traverse
	DQ	FLAT:SyntaxError_clear
	DQ	0000000000000000H
	DQ	0000000000000000H
	DQ	0000000000000000H
	DQ	0000000000000000H
	DQ	0000000000000000H
	DQ	0000000000000000H
	DQ	0000000000000000H
	DQ	FLAT:_PyExc_IndentationError
	DQ	0000000000000000H
	DQ	0000000000000000H
	DQ	0000000000000000H
	DQ	0000000000000060H
	DQ	FLAT:SyntaxError_init
	DQ	0000000000000000H
	DQ	0000000000000000H
	ORG $+72
PyExc_TabError DQ FLAT:_PyExc_TabError
PyExc_LookupError DQ FLAT:_PyExc_LookupError
_PyExc_LookupError DQ dead1234beef5678H
	DQ	dead1234beef5678H
	DQ	0000000000000000H
	ORG $+8
	DQ	0000000000000001H
	DQ	0000000000000000H
	DQ	0000000000000000H
	DQ	0000000000000000H
	DQ	dead1234beef5678H
	DQ	dead1234beef5678H
	DQ	0000000000000001H
	DQ	0000000000000000H
	DQ	0000000000000000H
	ORG $+8
	DQ	FLAT:??_C@_0M@MHFOHJEK@LookupError?$AA@
	DQ	0000000000000090H
	DQ	0000000000000000H
	DQ	FLAT:BaseException_dealloc
	DQ	0000000000000000H
	DQ	0000000000000000H
	DQ	0000000000000000H
	DQ	0000000000000000H
	DQ	0000000000000000H
	DQ	0000000000000000H
	DQ	0000000000000000H
	DQ	0000000000000000H
	DQ	0000000000000000H
	DQ	0000000000000000H
	DQ	0000000000000000H
	DQ	0000000000000000H
	DQ	0000000000000000H
	DQ	0000000000000000H
	DD	044400H
	ORG $+4
	DQ	FLAT:??_C@_0BO@OONBGEOC@Base?5class?5for?5lookup?5errors?4?$AA@
	DQ	FLAT:BaseException_traverse
	DQ	FLAT:BaseException_clear
	DQ	0000000000000000H
	DQ	0000000000000000H
	DQ	0000000000000000H
	DQ	0000000000000000H
	DQ	0000000000000000H
	DQ	0000000000000000H
	DQ	0000000000000000H
	DQ	FLAT:_PyExc_Exception
	DQ	0000000000000000H
	DQ	0000000000000000H
	DQ	0000000000000000H
	DQ	0000000000000060H
	DQ	FLAT:BaseException_init
	DQ	0000000000000000H
	DQ	FLAT:BaseException_new
	ORG $+72
_PyExc_IndexError DQ dead1234beef5678H
	DQ	dead1234beef5678H
	DQ	0000000000000000H
	ORG $+8
	DQ	0000000000000001H
	DQ	0000000000000000H
	DQ	0000000000000000H
	DQ	0000000000000000H
	DQ	dead1234beef5678H
	DQ	dead1234beef5678H
	DQ	0000000000000001H
	DQ	0000000000000000H
	DQ	0000000000000000H
	ORG $+8
	DQ	FLAT:??_C@_0L@PDGDGKIP@IndexError?$AA@
	DQ	0000000000000090H
	DQ	0000000000000000H
	DQ	FLAT:BaseException_dealloc
	DQ	0000000000000000H
	DQ	0000000000000000H
	DQ	0000000000000000H
	DQ	0000000000000000H
	DQ	0000000000000000H
	DQ	0000000000000000H
	DQ	0000000000000000H
	DQ	0000000000000000H
	DQ	0000000000000000H
	DQ	0000000000000000H
	DQ	0000000000000000H
	DQ	0000000000000000H
	DQ	0000000000000000H
	DQ	0000000000000000H
	DD	044400H
	ORG $+4
	DQ	FLAT:??_C@_0BN@MPIMOMNM@Sequence?5index?5out?5of?5range?4?$AA@
	DQ	FLAT:BaseException_traverse
	DQ	FLAT:BaseException_clear
	DQ	0000000000000000H
	DQ	0000000000000000H
	DQ	0000000000000000H
	DQ	0000000000000000H
	DQ	0000000000000000H
	DQ	0000000000000000H
	DQ	0000000000000000H
	DQ	FLAT:_PyExc_LookupError
	DQ	0000000000000000H
	DQ	0000000000000000H
	DQ	0000000000000000H
	DQ	0000000000000060H
	DQ	FLAT:BaseException_init
	DQ	0000000000000000H
	DQ	FLAT:BaseException_new
	ORG $+72
PyExc_IndexError DQ FLAT:_PyExc_IndexError
PyExc_KeyError DQ FLAT:_PyExc_KeyError
_PyExc_KeyError DQ dead1234beef5678H
	DQ	dead1234beef5678H
	DQ	0000000000000000H
	ORG $+8
	DQ	0000000000000001H
	DQ	0000000000000000H
	DQ	0000000000000000H
	DQ	0000000000000000H
	DQ	dead1234beef5678H
	DQ	dead1234beef5678H
	DQ	0000000000000001H
	DQ	0000000000000000H
	DQ	0000000000000000H
	ORG $+8
	DQ	FLAT:??_C@_08OHPJJKKC@KeyError?$AA@
	DQ	0000000000000090H
	DQ	0000000000000000H
	DQ	FLAT:BaseException_dealloc
	DQ	0000000000000000H
	DQ	0000000000000000H
	DQ	0000000000000000H
	DQ	0000000000000000H
	DQ	0000000000000000H
	DQ	0000000000000000H
	DQ	0000000000000000H
	DQ	0000000000000000H
	DQ	0000000000000000H
	DQ	0000000000000000H
	DQ	FLAT:KeyError_str
	DQ	0000000000000000H
	DQ	0000000000000000H
	DQ	0000000000000000H
	DD	044400H
	ORG $+4
	DQ	FLAT:??_C@_0BH@NGNBEPFN@Mapping?5key?5not?5found?4?$AA@
	DQ	FLAT:BaseException_traverse
	DQ	FLAT:BaseException_clear
	DQ	0000000000000000H
	DQ	0000000000000000H
	DQ	0000000000000000H
	DQ	0000000000000000H
	DQ	0000000000000000H
	DQ	0000000000000000H
	DQ	0000000000000000H
	DQ	FLAT:_PyExc_LookupError
	DQ	0000000000000000H
	DQ	0000000000000000H
	DQ	0000000000000000H
	DQ	0000000000000060H
	DQ	FLAT:BaseException_init
	DQ	0000000000000000H
	DQ	0000000000000000H
	ORG $+72
_PyExc_ValueError DQ dead1234beef5678H
	DQ	dead1234beef5678H
	DQ	0000000000000000H
	ORG $+8
	DQ	0000000000000001H
	DQ	0000000000000000H
	DQ	0000000000000000H
	DQ	0000000000000000H
	DQ	dead1234beef5678H
	DQ	dead1234beef5678H
	DQ	0000000000000001H
	DQ	0000000000000000H
	DQ	0000000000000000H
	ORG $+8
	DQ	FLAT:??_C@_0L@POAMGPDC@ValueError?$AA@
	DQ	0000000000000090H
	DQ	0000000000000000H
	DQ	FLAT:BaseException_dealloc
	DQ	0000000000000000H
	DQ	0000000000000000H
	DQ	0000000000000000H
	DQ	0000000000000000H
	DQ	0000000000000000H
	DQ	0000000000000000H
	DQ	0000000000000000H
	DQ	0000000000000000H
	DQ	0000000000000000H
	DQ	0000000000000000H
	DQ	0000000000000000H
	DQ	0000000000000000H
	DQ	0000000000000000H
	DQ	0000000000000000H
	DD	044400H
	ORG $+4
	DQ	FLAT:??_C@_0DA@PDIMAGJA@Inappropriate?5argument?5value?5?$CIof@
	DQ	FLAT:BaseException_traverse
	DQ	FLAT:BaseException_clear
	DQ	0000000000000000H
	DQ	0000000000000000H
	DQ	0000000000000000H
	DQ	0000000000000000H
	DQ	0000000000000000H
	DQ	0000000000000000H
	DQ	0000000000000000H
	DQ	FLAT:_PyExc_Exception
	DQ	0000000000000000H
	DQ	0000000000000000H
	DQ	0000000000000000H
	DQ	0000000000000060H
	DQ	FLAT:BaseException_init
	DQ	0000000000000000H
	DQ	FLAT:BaseException_new
	ORG $+72
PyExc_ValueError DQ FLAT:_PyExc_ValueError
PyExc_UnicodeError DQ FLAT:_PyExc_UnicodeError
_PyExc_UnicodeError DQ dead1234beef5678H
	DQ	dead1234beef5678H
	DQ	0000000000000000H
	ORG $+8
	DQ	0000000000000001H
	DQ	0000000000000000H
	DQ	0000000000000000H
	DQ	0000000000000000H
	DQ	dead1234beef5678H
	DQ	dead1234beef5678H
	DQ	0000000000000001H
	DQ	0000000000000000H
	DQ	0000000000000000H
	ORG $+8
	DQ	FLAT:??_C@_0N@HJMCMBLP@UnicodeError?$AA@
	DQ	0000000000000090H
	DQ	0000000000000000H
	DQ	FLAT:BaseException_dealloc
	DQ	0000000000000000H
	DQ	0000000000000000H
	DQ	0000000000000000H
	DQ	0000000000000000H
	DQ	0000000000000000H
	DQ	0000000000000000H
	DQ	0000000000000000H
	DQ	0000000000000000H
	DQ	0000000000000000H
	DQ	0000000000000000H
	DQ	0000000000000000H
	DQ	0000000000000000H
	DQ	0000000000000000H
	DQ	0000000000000000H
	DD	044400H
	ORG $+4
	DQ	FLAT:??_C@_0BH@LFJEPFCJ@Unicode?5related?5error?4?$AA@
	DQ	FLAT:BaseException_traverse
	DQ	FLAT:BaseException_clear
	DQ	0000000000000000H
	DQ	0000000000000000H
	DQ	0000000000000000H
	DQ	0000000000000000H
	DQ	0000000000000000H
	DQ	0000000000000000H
	DQ	0000000000000000H
	DQ	FLAT:_PyExc_ValueError
	DQ	0000000000000000H
	DQ	0000000000000000H
	DQ	0000000000000000H
	DQ	0000000000000060H
	DQ	FLAT:BaseException_init
	DQ	0000000000000000H
	DQ	FLAT:BaseException_new
	ORG $+72
UnicodeError_members DQ FLAT:??_C@_08MLPGAEIK@encoding?$AA@
	DD	06H
	ORG $+4
	DQ	0000000000000090H
	DD	00H
	ORG $+4
	DQ	FLAT:??_C@_0BD@HEGPNDEB@exception?5encoding?$AA@
	DQ	FLAT:??_C@_06IEOJBDIK@object?$AA@
	DD	06H
	ORG $+4
	DQ	0000000000000098H
	DD	00H
	ORG $+4
	DQ	FLAT:??_C@_0BB@FLHDGNGM@exception?5object?$AA@
	DQ	FLAT:??_C@_05FAGFPHJG@start?$AA@
	DD	013H
	ORG $+4
	DQ	00000000000000a0H
	DD	00H
	ORG $+4
	DQ	FLAT:??_C@_0BA@KKPENCDK@exception?5start?$AA@
	DQ	FLAT:??_C@_03JBJLGPFL@end?$AA@
	DD	013H
	ORG $+4
	DQ	00000000000000a8H
	DD	00H
	ORG $+4
	DQ	FLAT:??_C@_0O@ONMBNCFM@exception?5end?$AA@
	DQ	FLAT:??_C@_06CEHAOENB@reason?$AA@
	DD	06H
	ORG $+4
	DQ	00000000000000b0H
	DD	00H
	ORG $+4
	DQ	FLAT:??_C@_0BB@PLOKJKDH@exception?5reason?$AA@
	DQ	0000000000000000H
	ORG $+32
_PyExc_UnicodeEncodeError DQ dead1234beef5678H
	DQ	dead1234beef5678H
	DQ	0000000000000000H
	ORG $+8
	DQ	0000000000000001H
	DQ	0000000000000000H
	DQ	0000000000000000H
	DQ	0000000000000000H
	DQ	dead1234beef5678H
	DQ	dead1234beef5678H
	DQ	0000000000000001H
	DQ	0000000000000000H
	DQ	0000000000000000H
	ORG $+8
	DQ	FLAT:??_C@_0BD@PEGECFKD@UnicodeEncodeError?$AA@
	DQ	00000000000000c0H
	DQ	0000000000000000H
	DQ	FLAT:UnicodeError_dealloc
	DQ	0000000000000000H
	DQ	0000000000000000H
	DQ	0000000000000000H
	DQ	0000000000000000H
	DQ	0000000000000000H
	DQ	0000000000000000H
	DQ	0000000000000000H
	DQ	0000000000000000H
	DQ	0000000000000000H
	DQ	0000000000000000H
	DQ	FLAT:UnicodeEncodeError_str
	DQ	0000000000000000H
	DQ	0000000000000000H
	DQ	0000000000000000H
	DD	044400H
	ORG $+4
	DQ	FLAT:??_C@_0BI@BHCKDJLG@Unicode?5encoding?5error?4?$AA@
	DQ	FLAT:UnicodeError_traverse
	DQ	FLAT:UnicodeError_clear
	DQ	0000000000000000H
	DQ	0000000000000000H
	DQ	0000000000000000H
	DQ	0000000000000000H
	DQ	0000000000000000H
	DQ	FLAT:UnicodeError_members
	DQ	0000000000000000H
	DQ	FLAT:_PyExc_UnicodeError
	DQ	0000000000000000H
	DQ	0000000000000000H
	DQ	0000000000000000H
	DQ	0000000000000060H
	DQ	FLAT:UnicodeEncodeError_init
	DQ	0000000000000000H
	DQ	FLAT:BaseException_new
	ORG $+72
PyExc_UnicodeEncodeError DQ FLAT:_PyExc_UnicodeEncodeError
PyExc_UnicodeDecodeError DQ FLAT:_PyExc_UnicodeDecodeError
_PyExc_UnicodeDecodeError DQ dead1234beef5678H
	DQ	dead1234beef5678H
	DQ	0000000000000000H
	ORG $+8
	DQ	0000000000000001H
	DQ	0000000000000000H
	DQ	0000000000000000H
	DQ	0000000000000000H
	DQ	dead1234beef5678H
	DQ	dead1234beef5678H
	DQ	0000000000000001H
	DQ	0000000000000000H
	DQ	0000000000000000H
	ORG $+8
	DQ	FLAT:??_C@_0BD@EMOAOOII@UnicodeDecodeError?$AA@
	DQ	00000000000000c0H
	DQ	0000000000000000H
	DQ	FLAT:UnicodeError_dealloc
	DQ	0000000000000000H
	DQ	0000000000000000H
	DQ	0000000000000000H
	DQ	0000000000000000H
	DQ	0000000000000000H
	DQ	0000000000000000H
	DQ	0000000000000000H
	DQ	0000000000000000H
	DQ	0000000000000000H
	DQ	0000000000000000H
	DQ	FLAT:UnicodeDecodeError_str
	DQ	0000000000000000H
	DQ	0000000000000000H
	DQ	0000000000000000H
	DD	044400H
	ORG $+4
	DQ	FLAT:??_C@_0BI@GHLGAONJ@Unicode?5decoding?5error?4?$AA@
	DQ	FLAT:UnicodeError_traverse
	DQ	FLAT:UnicodeError_clear
	DQ	0000000000000000H
	DQ	0000000000000000H
	DQ	0000000000000000H
	DQ	0000000000000000H
	DQ	0000000000000000H
	DQ	FLAT:UnicodeError_members
	DQ	0000000000000000H
	DQ	FLAT:_PyExc_UnicodeError
	DQ	0000000000000000H
	DQ	0000000000000000H
	DQ	0000000000000000H
	DQ	0000000000000060H
	DQ	FLAT:UnicodeDecodeError_init
	DQ	0000000000000000H
	DQ	FLAT:BaseException_new
	ORG $+72
_PyExc_UnicodeTranslateError DQ dead1234beef5678H
	DQ	dead1234beef5678H
	DQ	0000000000000000H
	ORG $+8
	DQ	0000000000000001H
	DQ	0000000000000000H
	DQ	0000000000000000H
	DQ	0000000000000000H
	DQ	dead1234beef5678H
	DQ	dead1234beef5678H
	DQ	0000000000000001H
	DQ	0000000000000000H
	DQ	0000000000000000H
	ORG $+8
	DQ	FLAT:??_C@_0BG@MKGFNNGN@UnicodeTranslateError?$AA@
	DQ	00000000000000c0H
	DQ	0000000000000000H
	DQ	FLAT:UnicodeError_dealloc
	DQ	0000000000000000H
	DQ	0000000000000000H
	DQ	0000000000000000H
	DQ	0000000000000000H
	DQ	0000000000000000H
	DQ	0000000000000000H
	DQ	0000000000000000H
	DQ	0000000000000000H
	DQ	0000000000000000H
	DQ	0000000000000000H
	DQ	FLAT:UnicodeTranslateError_str
	DQ	0000000000000000H
	DQ	0000000000000000H
	DQ	0000000000000000H
	DD	044400H
	ORG $+4
	DQ	FLAT:??_C@_0BL@BOAAJAHA@Unicode?5translation?5error?4?$AA@
	DQ	FLAT:UnicodeError_traverse
	DQ	FLAT:UnicodeError_clear
	DQ	0000000000000000H
	DQ	0000000000000000H
	DQ	0000000000000000H
	DQ	0000000000000000H
	DQ	0000000000000000H
	DQ	FLAT:UnicodeError_members
	DQ	0000000000000000H
	DQ	FLAT:_PyExc_UnicodeError
	DQ	0000000000000000H
	DQ	0000000000000000H
	DQ	0000000000000000H
	DQ	0000000000000060H
	DQ	FLAT:UnicodeTranslateError_init
	DQ	0000000000000000H
	DQ	FLAT:BaseException_new
	ORG $+72
PyExc_UnicodeTranslateError DQ FLAT:_PyExc_UnicodeTranslateError
PyExc_AssertionError DQ FLAT:_PyExc_AssertionError
_PyExc_AssertionError DQ dead1234beef5678H
	DQ	dead1234beef5678H
	DQ	0000000000000000H
	ORG $+8
	DQ	0000000000000001H
	DQ	0000000000000000H
	DQ	0000000000000000H
	DQ	0000000000000000H
	DQ	dead1234beef5678H
	DQ	dead1234beef5678H
	DQ	0000000000000001H
	DQ	0000000000000000H
	DQ	0000000000000000H
	ORG $+8
	DQ	FLAT:??_C@_0P@ECLAGKMP@AssertionError?$AA@
	DQ	0000000000000090H
	DQ	0000000000000000H
	DQ	FLAT:BaseException_dealloc
	DQ	0000000000000000H
	DQ	0000000000000000H
	DQ	0000000000000000H
	DQ	0000000000000000H
	DQ	0000000000000000H
	DQ	0000000000000000H
	DQ	0000000000000000H
	DQ	0000000000000000H
	DQ	0000000000000000H
	DQ	0000000000000000H
	DQ	0000000000000000H
	DQ	0000000000000000H
	DQ	0000000000000000H
	DQ	0000000000000000H
	DD	044400H
	ORG $+4
	DQ	FLAT:??_C@_0BC@DHBLDLOI@Assertion?5failed?4?$AA@
	DQ	FLAT:BaseException_traverse
	DQ	FLAT:BaseException_clear
	DQ	0000000000000000H
	DQ	0000000000000000H
	DQ	0000000000000000H
	DQ	0000000000000000H
	DQ	0000000000000000H
	DQ	0000000000000000H
	DQ	0000000000000000H
	DQ	FLAT:_PyExc_Exception
	DQ	0000000000000000H
	DQ	0000000000000000H
	DQ	0000000000000000H
	DQ	0000000000000060H
	DQ	FLAT:BaseException_init
	DQ	0000000000000000H
	DQ	FLAT:BaseException_new
	ORG $+72
_PyExc_ArithmeticError DQ dead1234beef5678H
	DQ	dead1234beef5678H
	DQ	0000000000000000H
	ORG $+8
	DQ	0000000000000001H
	DQ	0000000000000000H
	DQ	0000000000000000H
	DQ	0000000000000000H
	DQ	dead1234beef5678H
	DQ	dead1234beef5678H
	DQ	0000000000000001H
	DQ	0000000000000000H
	DQ	0000000000000000H
	ORG $+8
	DQ	FLAT:??_C@_0BA@HMBIHIEF@ArithmeticError?$AA@
	DQ	0000000000000090H
	DQ	0000000000000000H
	DQ	FLAT:BaseException_dealloc
	DQ	0000000000000000H
	DQ	0000000000000000H
	DQ	0000000000000000H
	DQ	0000000000000000H
	DQ	0000000000000000H
	DQ	0000000000000000H
	DQ	0000000000000000H
	DQ	0000000000000000H
	DQ	0000000000000000H
	DQ	0000000000000000H
	DQ	0000000000000000H
	DQ	0000000000000000H
	DQ	0000000000000000H
	DQ	0000000000000000H
	DD	044400H
	ORG $+4
	DQ	FLAT:??_C@_0CC@PPOJNHHK@Base?5class?5for?5arithmetic?5errors@
	DQ	FLAT:BaseException_traverse
	DQ	FLAT:BaseException_clear
	DQ	0000000000000000H
	DQ	0000000000000000H
	DQ	0000000000000000H
	DQ	0000000000000000H
	DQ	0000000000000000H
	DQ	0000000000000000H
	DQ	0000000000000000H
	DQ	FLAT:_PyExc_Exception
	DQ	0000000000000000H
	DQ	0000000000000000H
	DQ	0000000000000000H
	DQ	0000000000000060H
	DQ	FLAT:BaseException_init
	DQ	0000000000000000H
	DQ	FLAT:BaseException_new
	ORG $+72
PyExc_ArithmeticError DQ FLAT:_PyExc_ArithmeticError
PyExc_FloatingPointError DQ FLAT:_PyExc_FloatingPointError
_PyExc_FloatingPointError DQ dead1234beef5678H
	DQ	dead1234beef5678H
	DQ	0000000000000000H
	ORG $+8
	DQ	0000000000000001H
	DQ	0000000000000000H
	DQ	0000000000000000H
	DQ	0000000000000000H
	DQ	dead1234beef5678H
	DQ	dead1234beef5678H
	DQ	0000000000000001H
	DQ	0000000000000000H
	DQ	0000000000000000H
	ORG $+8
	DQ	FLAT:??_C@_0BD@BMMMKAGK@FloatingPointError?$AA@
	DQ	0000000000000090H
	DQ	0000000000000000H
	DQ	FLAT:BaseException_dealloc
	DQ	0000000000000000H
	DQ	0000000000000000H
	DQ	0000000000000000H
	DQ	0000000000000000H
	DQ	0000000000000000H
	DQ	0000000000000000H
	DQ	0000000000000000H
	DQ	0000000000000000H
	DQ	0000000000000000H
	DQ	0000000000000000H
	DQ	0000000000000000H
	DQ	0000000000000000H
	DQ	0000000000000000H
	DQ	0000000000000000H
	DD	044400H
	ORG $+4
	DQ	FLAT:??_C@_0CB@CNKBBAIB@Floating?5point?5operation?5failed?4@
	DQ	FLAT:BaseException_traverse
	DQ	FLAT:BaseException_clear
	DQ	0000000000000000H
	DQ	0000000000000000H
	DQ	0000000000000000H
	DQ	0000000000000000H
	DQ	0000000000000000H
	DQ	0000000000000000H
	DQ	0000000000000000H
	DQ	FLAT:_PyExc_ArithmeticError
	DQ	0000000000000000H
	DQ	0000000000000000H
	DQ	0000000000000000H
	DQ	0000000000000060H
	DQ	FLAT:BaseException_init
	DQ	0000000000000000H
	DQ	FLAT:BaseException_new
	ORG $+72
_PyExc_OverflowError DQ dead1234beef5678H
	DQ	dead1234beef5678H
	DQ	0000000000000000H
	ORG $+8
	DQ	0000000000000001H
	DQ	0000000000000000H
	DQ	0000000000000000H
	DQ	0000000000000000H
	DQ	dead1234beef5678H
	DQ	dead1234beef5678H
	DQ	0000000000000001H
	DQ	0000000000000000H
	DQ	0000000000000000H
	ORG $+8
	DQ	FLAT:??_C@_0O@DAFOBLHH@OverflowError?$AA@
	DQ	0000000000000090H
	DQ	0000000000000000H
	DQ	FLAT:BaseException_dealloc
	DQ	0000000000000000H
	DQ	0000000000000000H
	DQ	0000000000000000H
	DQ	0000000000000000H
	DQ	0000000000000000H
	DQ	0000000000000000H
	DQ	0000000000000000H
	DQ	0000000000000000H
	DQ	0000000000000000H
	DQ	0000000000000000H
	DQ	0000000000000000H
	DQ	0000000000000000H
	DQ	0000000000000000H
	DQ	0000000000000000H
	DD	044400H
	ORG $+4
	DQ	FLAT:??_C@_0CE@DNDJACFH@Result?5too?5large?5to?5be?5represent@
	DQ	FLAT:BaseException_traverse
	DQ	FLAT:BaseException_clear
	DQ	0000000000000000H
	DQ	0000000000000000H
	DQ	0000000000000000H
	DQ	0000000000000000H
	DQ	0000000000000000H
	DQ	0000000000000000H
	DQ	0000000000000000H
	DQ	FLAT:_PyExc_ArithmeticError
	DQ	0000000000000000H
	DQ	0000000000000000H
	DQ	0000000000000000H
	DQ	0000000000000060H
	DQ	FLAT:BaseException_init
	DQ	0000000000000000H
	DQ	FLAT:BaseException_new
	ORG $+72
PyExc_OverflowError DQ FLAT:_PyExc_OverflowError
PyExc_ZeroDivisionError DQ FLAT:_PyExc_ZeroDivisionError
_PyExc_ZeroDivisionError DQ dead1234beef5678H
	DQ	dead1234beef5678H
	DQ	0000000000000000H
	ORG $+8
	DQ	0000000000000001H
	DQ	0000000000000000H
	DQ	0000000000000000H
	DQ	0000000000000000H
	DQ	dead1234beef5678H
	DQ	dead1234beef5678H
	DQ	0000000000000001H
	DQ	0000000000000000H
	DQ	0000000000000000H
	ORG $+8
	DQ	FLAT:??_C@_0BC@JKCGANPD@ZeroDivisionError?$AA@
	DQ	0000000000000090H
	DQ	0000000000000000H
	DQ	FLAT:BaseException_dealloc
	DQ	0000000000000000H
	DQ	0000000000000000H
	DQ	0000000000000000H
	DQ	0000000000000000H
	DQ	0000000000000000H
	DQ	0000000000000000H
	DQ	0000000000000000H
	DQ	0000000000000000H
	DQ	0000000000000000H
	DQ	0000000000000000H
	DQ	0000000000000000H
	DQ	0000000000000000H
	DQ	0000000000000000H
	DQ	0000000000000000H
	DD	044400H
	ORG $+4
	DQ	FLAT:??_C@_0DM@HNAOGMFP@Second?5argument?5to?5a?5division?5or@
	DQ	FLAT:BaseException_traverse
	DQ	FLAT:BaseException_clear
	DQ	0000000000000000H
	DQ	0000000000000000H
	DQ	0000000000000000H
	DQ	0000000000000000H
	DQ	0000000000000000H
	DQ	0000000000000000H
	DQ	0000000000000000H
	DQ	FLAT:_PyExc_ArithmeticError
	DQ	0000000000000000H
	DQ	0000000000000000H
	DQ	0000000000000000H
	DQ	0000000000000060H
	DQ	FLAT:BaseException_init
	DQ	0000000000000000H
	DQ	FLAT:BaseException_new
	ORG $+72
_PyExc_SystemError DQ dead1234beef5678H
	DQ	dead1234beef5678H
	DQ	0000000000000000H
	ORG $+8
	DQ	0000000000000001H
	DQ	0000000000000000H
	DQ	0000000000000000H
	DQ	0000000000000000H
	DQ	dead1234beef5678H
	DQ	dead1234beef5678H
	DQ	0000000000000001H
	DQ	0000000000000000H
	DQ	0000000000000000H
	ORG $+8
	DQ	FLAT:??_C@_0M@MLMICFKM@SystemError?$AA@
	DQ	0000000000000090H
	DQ	0000000000000000H
	DQ	FLAT:BaseException_dealloc
	DQ	0000000000000000H
	DQ	0000000000000000H
	DQ	0000000000000000H
	DQ	0000000000000000H
	DQ	0000000000000000H
	DQ	0000000000000000H
	DQ	0000000000000000H
	DQ	0000000000000000H
	DQ	0000000000000000H
	DQ	0000000000000000H
	DQ	0000000000000000H
	DQ	0000000000000000H
	DQ	0000000000000000H
	DQ	0000000000000000H
	DD	044400H
	ORG $+4
	DQ	FLAT:??_C@_0LA@PADCOJHH@Internal?5error?5in?5the?5Python?5int@
	DQ	FLAT:BaseException_traverse
	DQ	FLAT:BaseException_clear
	DQ	0000000000000000H
	DQ	0000000000000000H
	DQ	0000000000000000H
	DQ	0000000000000000H
	DQ	0000000000000000H
	DQ	0000000000000000H
	DQ	0000000000000000H
	DQ	FLAT:_PyExc_Exception
	DQ	0000000000000000H
	DQ	0000000000000000H
	DQ	0000000000000000H
	DQ	0000000000000060H
	DQ	FLAT:BaseException_init
	DQ	0000000000000000H
	DQ	FLAT:BaseException_new
	ORG $+72
PyExc_SystemError DQ FLAT:_PyExc_SystemError
PyExc_ReferenceError DQ FLAT:_PyExc_ReferenceError
_PyExc_ReferenceError DQ dead1234beef5678H
	DQ	dead1234beef5678H
	DQ	0000000000000000H
	ORG $+8
	DQ	0000000000000001H
	DQ	0000000000000000H
	DQ	0000000000000000H
	DQ	0000000000000000H
	DQ	dead1234beef5678H
	DQ	dead1234beef5678H
	DQ	0000000000000001H
	DQ	0000000000000000H
	DQ	0000000000000000H
	ORG $+8
	DQ	FLAT:??_C@_0P@NJFCDLEA@ReferenceError?$AA@
	DQ	0000000000000090H
	DQ	0000000000000000H
	DQ	FLAT:BaseException_dealloc
	DQ	0000000000000000H
	DQ	0000000000000000H
	DQ	0000000000000000H
	DQ	0000000000000000H
	DQ	0000000000000000H
	DQ	0000000000000000H
	DQ	0000000000000000H
	DQ	0000000000000000H
	DQ	0000000000000000H
	DQ	0000000000000000H
	DQ	0000000000000000H
	DQ	0000000000000000H
	DQ	0000000000000000H
	DQ	0000000000000000H
	DD	044400H
	ORG $+4
	DQ	FLAT:??_C@_0CO@BODDBCMG@Weak?5ref?5proxy?5used?5after?5refere@
	DQ	FLAT:BaseException_traverse
	DQ	FLAT:BaseException_clear
	DQ	0000000000000000H
	DQ	0000000000000000H
	DQ	0000000000000000H
	DQ	0000000000000000H
	DQ	0000000000000000H
	DQ	0000000000000000H
	DQ	0000000000000000H
	DQ	FLAT:_PyExc_Exception
	DQ	0000000000000000H
	DQ	0000000000000000H
	DQ	0000000000000000H
	DQ	0000000000000060H
	DQ	FLAT:BaseException_init
	DQ	0000000000000000H
	DQ	FLAT:BaseException_new
	ORG $+72
_PyExc_ParallelError DQ dead1234beef5678H
	DQ	dead1234beef5678H
	DQ	0000000000000000H
	ORG $+8
	DQ	0000000000000001H
	DQ	0000000000000000H
	DQ	0000000000000000H
	DQ	0000000000000000H
	DQ	dead1234beef5678H
	DQ	dead1234beef5678H
	DQ	0000000000000001H
	DQ	0000000000000000H
	DQ	0000000000000000H
	ORG $+8
	DQ	FLAT:??_C@_0O@GFKDNBOD@ParallelError?$AA@
	DQ	0000000000000090H
	DQ	0000000000000000H
	DQ	FLAT:BaseException_dealloc
	DQ	0000000000000000H
	DQ	0000000000000000H
	DQ	0000000000000000H
	DQ	0000000000000000H
	DQ	0000000000000000H
	DQ	0000000000000000H
	DQ	0000000000000000H
	DQ	0000000000000000H
	DQ	0000000000000000H
	DQ	0000000000000000H
	DQ	0000000000000000H
	DQ	0000000000000000H
	DQ	0000000000000000H
	DQ	0000000000000000H
	DD	044400H
	ORG $+4
	DQ	FLAT:??_C@_0CA@NKCFMBPJ@Base?5class?5for?5parallel?5errors?4?$AA@
	DQ	FLAT:BaseException_traverse
	DQ	FLAT:BaseException_clear
	DQ	0000000000000000H
	DQ	0000000000000000H
	DQ	0000000000000000H
	DQ	0000000000000000H
	DQ	0000000000000000H
	DQ	0000000000000000H
	DQ	0000000000000000H
	DQ	FLAT:_PyExc_Exception
	DQ	0000000000000000H
	DQ	0000000000000000H
	DQ	0000000000000000H
	DQ	0000000000000060H
	DQ	FLAT:BaseException_init
	DQ	0000000000000000H
	DQ	FLAT:BaseException_new
	ORG $+72
PyExc_ParallelError DQ FLAT:_PyExc_ParallelError
PyExc_ParallelThreadInitializationError DQ FLAT:_PyExc_ParallelThreadInitializationError
_PyExc_ParallelThreadInitializationError DQ dead1234beef5678H
	DQ	dead1234beef5678H
	DQ	0000000000000000H
	ORG $+8
	DQ	0000000000000001H
	DQ	0000000000000000H
	DQ	0000000000000000H
	DQ	0000000000000000H
	DQ	dead1234beef5678H
	DQ	dead1234beef5678H
	DQ	0000000000000001H
	DQ	0000000000000000H
	DQ	0000000000000000H
	ORG $+8
	DQ	FLAT:??_C@_0CC@IAEHFMP@ParallelThreadInitializationErro@
	DQ	0000000000000090H
	DQ	0000000000000000H
	DQ	FLAT:BaseException_dealloc
	DQ	0000000000000000H
	DQ	0000000000000000H
	DQ	0000000000000000H
	DQ	0000000000000000H
	DQ	0000000000000000H
	DQ	0000000000000000H
	DQ	0000000000000000H
	DQ	0000000000000000H
	DQ	0000000000000000H
	DQ	0000000000000000H
	DQ	0000000000000000H
	DQ	0000000000000000H
	DQ	0000000000000000H
	DQ	0000000000000000H
	DD	044400H
	ORG $+4
	DQ	FLAT:??_C@_0CK@IKBKELBP@Failed?5to?5initialize?5new?5paralle@
	DQ	FLAT:BaseException_traverse
	DQ	FLAT:BaseException_clear
	DQ	0000000000000000H
	DQ	0000000000000000H
	DQ	0000000000000000H
	DQ	0000000000000000H
	DQ	0000000000000000H
	DQ	0000000000000000H
	DQ	0000000000000000H
	DQ	FLAT:_PyExc_ParallelError
	DQ	0000000000000000H
	DQ	0000000000000000H
	DQ	0000000000000000H
	DQ	0000000000000060H
	DQ	FLAT:BaseException_init
	DQ	0000000000000000H
	DQ	FLAT:BaseException_new
	ORG $+72
_PyExc_ParallelContextInitializationError DQ dead1234beef5678H
	DQ	dead1234beef5678H
	DQ	0000000000000000H
	ORG $+8
	DQ	0000000000000001H
	DQ	0000000000000000H
	DQ	0000000000000000H
	DQ	0000000000000000H
	DQ	dead1234beef5678H
	DQ	dead1234beef5678H
	DQ	0000000000000001H
	DQ	0000000000000000H
	DQ	0000000000000000H
	ORG $+8
	DQ	FLAT:??_C@_0CD@MNHCHPAI@ParallelContextInitializationErr@
	DQ	0000000000000090H
	DQ	0000000000000000H
	DQ	FLAT:BaseException_dealloc
	DQ	0000000000000000H
	DQ	0000000000000000H
	DQ	0000000000000000H
	DQ	0000000000000000H
	DQ	0000000000000000H
	DQ	0000000000000000H
	DQ	0000000000000000H
	DQ	0000000000000000H
	DQ	0000000000000000H
	DQ	0000000000000000H
	DQ	0000000000000000H
	DQ	0000000000000000H
	DQ	0000000000000000H
	DQ	0000000000000000H
	DD	044400H
	ORG $+4
	DQ	FLAT:??_C@_0DE@INBJNFAJ@Failed?5to?5initialize?5parallel?5co@
	DQ	FLAT:BaseException_traverse
	DQ	FLAT:BaseException_clear
	DQ	0000000000000000H
	DQ	0000000000000000H
	DQ	0000000000000000H
	DQ	0000000000000000H
	DQ	0000000000000000H
	DQ	0000000000000000H
	DQ	0000000000000000H
	DQ	FLAT:_PyExc_ParallelError
	DQ	0000000000000000H
	DQ	0000000000000000H
	DQ	0000000000000000H
	DQ	0000000000000060H
	DQ	FLAT:BaseException_init
	DQ	0000000000000000H
	DQ	FLAT:BaseException_new
	ORG $+72
PyExc_ParallelContextInitializationError DQ FLAT:_PyExc_ParallelContextInitializationError
PyExc_ParallelContextError DQ FLAT:_PyExc_ParallelContextError
_PyExc_ParallelContextError DQ dead1234beef5678H
	DQ	dead1234beef5678H
	DQ	0000000000000000H
	ORG $+8
	DQ	0000000000000001H
	DQ	0000000000000000H
	DQ	0000000000000000H
	DQ	0000000000000000H
	DQ	dead1234beef5678H
	DQ	dead1234beef5678H
	DQ	0000000000000001H
	DQ	0000000000000000H
	DQ	0000000000000000H
	ORG $+8
	DQ	FLAT:??_C@_0BF@HFKFAIAA@ParallelContextError?$AA@
	DQ	0000000000000090H
	DQ	0000000000000000H
	DQ	FLAT:BaseException_dealloc
	DQ	0000000000000000H
	DQ	0000000000000000H
	DQ	0000000000000000H
	DQ	0000000000000000H
	DQ	0000000000000000H
	DQ	0000000000000000H
	DQ	0000000000000000H
	DQ	0000000000000000H
	DQ	0000000000000000H
	DQ	0000000000000000H
	DQ	0000000000000000H
	DQ	0000000000000000H
	DQ	0000000000000000H
	DQ	0000000000000000H
	DD	044400H
	ORG $+4
	DQ	FLAT:??_C@_0DG@NPBGBDKP@Operation?5not?5permitted?5from?5wit@
	DQ	FLAT:BaseException_traverse
	DQ	FLAT:BaseException_clear
	DQ	0000000000000000H
	DQ	0000000000000000H
	DQ	0000000000000000H
	DQ	0000000000000000H
	DQ	0000000000000000H
	DQ	0000000000000000H
	DQ	0000000000000000H
	DQ	FLAT:_PyExc_ParallelError
	DQ	0000000000000000H
	DQ	0000000000000000H
	DQ	0000000000000000H
	DQ	0000000000000060H
	DQ	FLAT:BaseException_init
	DQ	0000000000000000H
	DQ	FLAT:BaseException_new
	ORG $+72
_PyExc_ParallelImportError DQ dead1234beef5678H
	DQ	dead1234beef5678H
	DQ	0000000000000000H
	ORG $+8
	DQ	0000000000000001H
	DQ	0000000000000000H
	DQ	0000000000000000H
	DQ	0000000000000000H
	DQ	dead1234beef5678H
	DQ	dead1234beef5678H
	DQ	0000000000000001H
	DQ	0000000000000000H
	DQ	0000000000000000H
	ORG $+8
	DQ	FLAT:??_C@_0BE@FCGCAOGC@ParallelImportError?$AA@
	DQ	0000000000000090H
	DQ	0000000000000000H
	DQ	FLAT:BaseException_dealloc
	DQ	0000000000000000H
	DQ	0000000000000000H
	DQ	0000000000000000H
	DQ	0000000000000000H
	DQ	0000000000000000H
	DQ	0000000000000000H
	DQ	0000000000000000H
	DQ	0000000000000000H
	DQ	0000000000000000H
	DQ	0000000000000000H
	DQ	0000000000000000H
	DQ	0000000000000000H
	DQ	0000000000000000H
	DQ	0000000000000000H
	DD	044400H
	ORG $+4
	DQ	FLAT:??_C@_0DD@JGEGKCHH@Import?5not?5permitted?5from?5within@
	DQ	FLAT:BaseException_traverse
	DQ	FLAT:BaseException_clear
	DQ	0000000000000000H
	DQ	0000000000000000H
	DQ	0000000000000000H
	DQ	0000000000000000H
	DQ	0000000000000000H
	DQ	0000000000000000H
	DQ	0000000000000000H
	DQ	FLAT:_PyExc_ParallelContextError
	DQ	0000000000000000H
	DQ	0000000000000000H
	DQ	0000000000000000H
	DQ	0000000000000060H
	DQ	FLAT:BaseException_init
	DQ	0000000000000000H
	DQ	FLAT:BaseException_new
	ORG $+72
PyExc_ParallelImportError DQ FLAT:_PyExc_ParallelImportError
PyExc_ParallelGlobalVariableAccessError DQ FLAT:_PyExc_ParallelGlobalVariableAccessError
_PyExc_ParallelGlobalVariableAccessError DQ dead1234beef5678H
	DQ	dead1234beef5678H
	DQ	0000000000000000H
	ORG $+8
	DQ	0000000000000001H
	DQ	0000000000000000H
	DQ	0000000000000000H
	DQ	0000000000000000H
	DQ	dead1234beef5678H
	DQ	dead1234beef5678H
	DQ	0000000000000001H
	DQ	0000000000000000H
	DQ	0000000000000000H
	ORG $+8
	DQ	FLAT:??_C@_0CC@HPLHCPKN@ParallelGlobalVariableAccessErro@
	DQ	0000000000000090H
	DQ	0000000000000000H
	DQ	FLAT:BaseException_dealloc
	DQ	0000000000000000H
	DQ	0000000000000000H
	DQ	0000000000000000H
	DQ	0000000000000000H
	DQ	0000000000000000H
	DQ	0000000000000000H
	DQ	0000000000000000H
	DQ	0000000000000000H
	DQ	0000000000000000H
	DQ	0000000000000000H
	DQ	0000000000000000H
	DQ	0000000000000000H
	DQ	0000000000000000H
	DQ	0000000000000000H
	DD	044400H
	ORG $+4
	DQ	FLAT:??_C@_0EL@PLHLDPCD@Implicit?5access?5to?5global?5variab@
	DQ	FLAT:BaseException_traverse
	DQ	FLAT:BaseException_clear
	DQ	0000000000000000H
	DQ	0000000000000000H
	DQ	0000000000000000H
	DQ	0000000000000000H
	DQ	0000000000000000H
	DQ	0000000000000000H
	DQ	0000000000000000H
	DQ	FLAT:_PyExc_ParallelContextError
	DQ	0000000000000000H
	DQ	0000000000000000H
	DQ	0000000000000000H
	DQ	0000000000000060H
	DQ	FLAT:BaseException_init
	DQ	0000000000000000H
	DQ	FLAT:BaseException_new
	ORG $+72
_PyExc_ParallelNonlocalVariableAccessError DQ dead1234beef5678H
	DQ	dead1234beef5678H
	DQ	0000000000000000H
	ORG $+8
	DQ	0000000000000001H
	DQ	0000000000000000H
	DQ	0000000000000000H
	DQ	0000000000000000H
	DQ	dead1234beef5678H
	DQ	dead1234beef5678H
	DQ	0000000000000001H
	DQ	0000000000000000H
	DQ	0000000000000000H
	ORG $+8
	DQ	FLAT:??_C@_0CE@ONNHACJB@ParallelNonlocalVariableAccessEr@
	DQ	0000000000000090H
	DQ	0000000000000000H
	DQ	FLAT:BaseException_dealloc
	DQ	0000000000000000H
	DQ	0000000000000000H
	DQ	0000000000000000H
	DQ	0000000000000000H
	DQ	0000000000000000H
	DQ	0000000000000000H
	DQ	0000000000000000H
	DQ	0000000000000000H
	DQ	0000000000000000H
	DQ	0000000000000000H
	DQ	0000000000000000H
	DQ	0000000000000000H
	DQ	0000000000000000H
	DQ	0000000000000000H
	DD	044400H
	ORG $+4
	DQ	FLAT:??_C@_0EN@KNPFPBJJ@Implicit?5access?5to?5nonlocal?5vari@
	DQ	FLAT:BaseException_traverse
	DQ	FLAT:BaseException_clear
	DQ	0000000000000000H
	DQ	0000000000000000H
	DQ	0000000000000000H
	DQ	0000000000000000H
	DQ	0000000000000000H
	DQ	0000000000000000H
	DQ	0000000000000000H
	DQ	FLAT:_PyExc_ParallelContextError
	DQ	0000000000000000H
	DQ	0000000000000000H
	DQ	0000000000000000H
	DQ	0000000000000060H
	DQ	FLAT:BaseException_init
	DQ	0000000000000000H
	DQ	FLAT:BaseException_new
	ORG $+72
PyExc_ParallelNonlocalVariableAccessError DQ FLAT:_PyExc_ParallelNonlocalVariableAccessError
PyExc_AsyncError DQ FLAT:_PyExc_AsyncError
_PyExc_AsyncError DQ dead1234beef5678H
	DQ	dead1234beef5678H
	DQ	0000000000000000H
	ORG $+8
	DQ	0000000000000001H
	DQ	0000000000000000H
	DQ	0000000000000000H
	DQ	0000000000000000H
	DQ	dead1234beef5678H
	DQ	dead1234beef5678H
	DQ	0000000000000001H
	DQ	0000000000000000H
	DQ	0000000000000000H
	ORG $+8
	DQ	FLAT:??_C@_0L@POMMPANG@AsyncError?$AA@
	DQ	0000000000000090H
	DQ	0000000000000000H
	DQ	FLAT:BaseException_dealloc
	DQ	0000000000000000H
	DQ	0000000000000000H
	DQ	0000000000000000H
	DQ	0000000000000000H
	DQ	0000000000000000H
	DQ	0000000000000000H
	DQ	0000000000000000H
	DQ	0000000000000000H
	DQ	0000000000000000H
	DQ	0000000000000000H
	DQ	0000000000000000H
	DQ	0000000000000000H
	DQ	0000000000000000H
	DQ	0000000000000000H
	DD	044400H
	ORG $+4
	DQ	FLAT:??_C@_0BN@KHNEADKG@Base?5class?5for?5async?5errors?4?$AA@
	DQ	FLAT:BaseException_traverse
	DQ	FLAT:BaseException_clear
	DQ	0000000000000000H
	DQ	0000000000000000H
	DQ	0000000000000000H
	DQ	0000000000000000H
	DQ	0000000000000000H
	DQ	0000000000000000H
	DQ	0000000000000000H
	DQ	FLAT:_PyExc_Exception
	DQ	0000000000000000H
	DQ	0000000000000000H
	DQ	0000000000000000H
	DQ	0000000000000060H
	DQ	FLAT:BaseException_init
	DQ	0000000000000000H
	DQ	FLAT:BaseException_new
	ORG $+72
_PyExc_AsyncRunCalledWithoutEventsError DQ dead1234beef5678H
	DQ	dead1234beef5678H
	DQ	0000000000000000H
	ORG $+8
	DQ	0000000000000001H
	DQ	0000000000000000H
	DQ	0000000000000000H
	DQ	0000000000000000H
	DQ	dead1234beef5678H
	DQ	dead1234beef5678H
	DQ	0000000000000001H
	DQ	0000000000000000H
	DQ	0000000000000000H
	ORG $+8
	DQ	FLAT:??_C@_0CB@DHCJJACB@AsyncRunCalledWithoutEventsError@
	DQ	0000000000000090H
	DQ	0000000000000000H
	DQ	FLAT:BaseException_dealloc
	DQ	0000000000000000H
	DQ	0000000000000000H
	DQ	0000000000000000H
	DQ	0000000000000000H
	DQ	0000000000000000H
	DQ	0000000000000000H
	DQ	0000000000000000H
	DQ	0000000000000000H
	DQ	0000000000000000H
	DQ	0000000000000000H
	DQ	0000000000000000H
	DQ	0000000000000000H
	DQ	0000000000000000H
	DQ	0000000000000000H
	DD	044400H
	ORG $+4
	DQ	FLAT:??_C@_0CH@LDJJHMMC@Async?5run?$CI?$CJ?5called?5without?5any?5e@
	DQ	FLAT:BaseException_traverse
	DQ	FLAT:BaseException_clear
	DQ	0000000000000000H
	DQ	0000000000000000H
	DQ	0000000000000000H
	DQ	0000000000000000H
	DQ	0000000000000000H
	DQ	0000000000000000H
	DQ	0000000000000000H
	DQ	FLAT:_PyExc_AsyncError
	DQ	0000000000000000H
	DQ	0000000000000000H
	DQ	0000000000000000H
	DQ	0000000000000060H
	DQ	FLAT:BaseException_init
	DQ	0000000000000000H
	DQ	FLAT:BaseException_new
	ORG $+72
PyExc_AsyncRunCalledWithoutEventsError DQ FLAT:_PyExc_AsyncRunCalledWithoutEventsError
PyExc_AsyncRunNoActiveEventsError DQ FLAT:_PyExc_AsyncRunNoActiveEventsError
_PyExc_AsyncRunNoActiveEventsError DQ dead1234beef5678H
	DQ	dead1234beef5678H
	DQ	0000000000000000H
	ORG $+8
	DQ	0000000000000001H
	DQ	0000000000000000H
	DQ	0000000000000000H
	DQ	0000000000000000H
	DQ	dead1234beef5678H
	DQ	dead1234beef5678H
	DQ	0000000000000001H
	DQ	0000000000000000H
	DQ	0000000000000000H
	ORG $+8
	DQ	FLAT:??_C@_0BM@GCGOLDFN@AsyncRunNoActiveEventsError?$AA@
	DQ	0000000000000090H
	DQ	0000000000000000H
	DQ	FLAT:BaseException_dealloc
	DQ	0000000000000000H
	DQ	0000000000000000H
	DQ	0000000000000000H
	DQ	0000000000000000H
	DQ	0000000000000000H
	DQ	0000000000000000H
	DQ	0000000000000000H
	DQ	0000000000000000H
	DQ	0000000000000000H
	DQ	0000000000000000H
	DQ	0000000000000000H
	DQ	0000000000000000H
	DQ	0000000000000000H
	DQ	0000000000000000H
	DD	044400H
	ORG $+4
	DQ	FLAT:??_C@_0DG@LICMCCGN@Async?5run?$CI?$CJ?5detected?5that?5there?5@
	DQ	FLAT:BaseException_traverse
	DQ	FLAT:BaseException_clear
	DQ	0000000000000000H
	DQ	0000000000000000H
	DQ	0000000000000000H
	DQ	0000000000000000H
	DQ	0000000000000000H
	DQ	0000000000000000H
	DQ	0000000000000000H
	DQ	FLAT:_PyExc_AsyncError
	DQ	0000000000000000H
	DQ	0000000000000000H
	DQ	0000000000000000H
	DQ	0000000000000060H
	DQ	FLAT:BaseException_init
	DQ	0000000000000000H
	DQ	FLAT:BaseException_new
	ORG $+72
_PyExc_MemoryError DQ dead1234beef5678H
	DQ	dead1234beef5678H
	DQ	0000000000000000H
	ORG $+8
	DQ	0000000000000001H
	DQ	0000000000000000H
	DQ	0000000000000000H
	DQ	0000000000000000H
	DQ	dead1234beef5678H
	DQ	dead1234beef5678H
	DQ	0000000000000001H
	DQ	0000000000000000H
	DQ	0000000000000000H
	ORG $+8
	DQ	FLAT:??_C@_0M@HIBAKAFK@MemoryError?$AA@
	DQ	0000000000000090H
	DQ	0000000000000000H
	DQ	FLAT:MemoryError_dealloc
	DQ	0000000000000000H
	DQ	0000000000000000H
	DQ	0000000000000000H
	DQ	0000000000000000H
	DQ	0000000000000000H
	DQ	0000000000000000H
	DQ	0000000000000000H
	DQ	0000000000000000H
	DQ	0000000000000000H
	DQ	0000000000000000H
	DQ	0000000000000000H
	DQ	0000000000000000H
	DQ	0000000000000000H
	DQ	0000000000000000H
	DD	044400H
	ORG $+4
	DQ	FLAT:??_C@_0P@ILLCNIIE@Out?5of?5memory?4?$AA@
	DQ	FLAT:BaseException_traverse
	DQ	FLAT:BaseException_clear
	DQ	0000000000000000H
	DQ	0000000000000000H
	DQ	0000000000000000H
	DQ	0000000000000000H
	DQ	0000000000000000H
	DQ	0000000000000000H
	DQ	0000000000000000H
	DQ	FLAT:_PyExc_Exception
	DQ	0000000000000000H
	DQ	0000000000000000H
	DQ	0000000000000000H
	DQ	0000000000000060H
	DQ	FLAT:BaseException_init
	DQ	0000000000000000H
	DQ	FLAT:MemoryError_new
	ORG $+72
PyExc_MemoryError DQ FLAT:_PyExc_MemoryError
PyExc_BufferError DQ FLAT:_PyExc_BufferError
_PyExc_BufferError DQ dead1234beef5678H
	DQ	dead1234beef5678H
	DQ	0000000000000000H
	ORG $+8
	DQ	0000000000000001H
	DQ	0000000000000000H
	DQ	0000000000000000H
	DQ	0000000000000000H
	DQ	dead1234beef5678H
	DQ	dead1234beef5678H
	DQ	0000000000000001H
	DQ	0000000000000000H
	DQ	0000000000000000H
	ORG $+8
	DQ	FLAT:??_C@_0M@IEEINKIE@BufferError?$AA@
	DQ	0000000000000090H
	DQ	0000000000000000H
	DQ	FLAT:BaseException_dealloc
	DQ	0000000000000000H
	DQ	0000000000000000H
	DQ	0000000000000000H
	DQ	0000000000000000H
	DQ	0000000000000000H
	DQ	0000000000000000H
	DQ	0000000000000000H
	DQ	0000000000000000H
	DQ	0000000000000000H
	DQ	0000000000000000H
	DQ	0000000000000000H
	DQ	0000000000000000H
	DQ	0000000000000000H
	DQ	0000000000000000H
	DD	044400H
	ORG $+4
	DQ	FLAT:??_C@_0O@GFOKIHDB@Buffer?5error?4?$AA@
	DQ	FLAT:BaseException_traverse
	DQ	FLAT:BaseException_clear
	DQ	0000000000000000H
	DQ	0000000000000000H
	DQ	0000000000000000H
	DQ	0000000000000000H
	DQ	0000000000000000H
	DQ	0000000000000000H
	DQ	0000000000000000H
	DQ	FLAT:_PyExc_Exception
	DQ	0000000000000000H
	DQ	0000000000000000H
	DQ	0000000000000000H
	DQ	0000000000000060H
	DQ	FLAT:BaseException_init
	DQ	0000000000000000H
	DQ	FLAT:BaseException_new
	ORG $+72
_PyExc_Warning DQ dead1234beef5678H
	DQ	dead1234beef5678H
	DQ	0000000000000000H
	ORG $+8
	DQ	0000000000000001H
	DQ	0000000000000000H
	DQ	0000000000000000H
	DQ	0000000000000000H
	DQ	dead1234beef5678H
	DQ	dead1234beef5678H
	DQ	0000000000000001H
	DQ	0000000000000000H
	DQ	0000000000000000H
	ORG $+8
	DQ	FLAT:??_C@_07KGMMFLDN@Warning?$AA@
	DQ	0000000000000090H
	DQ	0000000000000000H
	DQ	FLAT:BaseException_dealloc
	DQ	0000000000000000H
	DQ	0000000000000000H
	DQ	0000000000000000H
	DQ	0000000000000000H
	DQ	0000000000000000H
	DQ	0000000000000000H
	DQ	0000000000000000H
	DQ	0000000000000000H
	DQ	0000000000000000H
	DQ	0000000000000000H
	DQ	0000000000000000H
	DQ	0000000000000000H
	DQ	0000000000000000H
	DQ	0000000000000000H
	DD	044400H
	ORG $+4
	DQ	FLAT:??_C@_0CD@IHAAEPNP@Base?5class?5for?5warning?5categorie@
	DQ	FLAT:BaseException_traverse
	DQ	FLAT:BaseException_clear
	DQ	0000000000000000H
	DQ	0000000000000000H
	DQ	0000000000000000H
	DQ	0000000000000000H
	DQ	0000000000000000H
	DQ	0000000000000000H
	DQ	0000000000000000H
	DQ	FLAT:_PyExc_Exception
	DQ	0000000000000000H
	DQ	0000000000000000H
	DQ	0000000000000000H
	DQ	0000000000000060H
	DQ	FLAT:BaseException_init
	DQ	0000000000000000H
	DQ	FLAT:BaseException_new
	ORG $+72
PyExc_Warning DQ FLAT:_PyExc_Warning
PyExc_UserWarning DQ FLAT:_PyExc_UserWarning
_PyExc_UserWarning DQ dead1234beef5678H
	DQ	dead1234beef5678H
	DQ	0000000000000000H
	ORG $+8
	DQ	0000000000000001H
	DQ	0000000000000000H
	DQ	0000000000000000H
	DQ	0000000000000000H
	DQ	dead1234beef5678H
	DQ	dead1234beef5678H
	DQ	0000000000000001H
	DQ	0000000000000000H
	DQ	0000000000000000H
	ORG $+8
	DQ	FLAT:??_C@_0M@JCLIHPLC@UserWarning?$AA@
	DQ	0000000000000090H
	DQ	0000000000000000H
	DQ	FLAT:BaseException_dealloc
	DQ	0000000000000000H
	DQ	0000000000000000H
	DQ	0000000000000000H
	DQ	0000000000000000H
	DQ	0000000000000000H
	DQ	0000000000000000H
	DQ	0000000000000000H
	DQ	0000000000000000H
	DQ	0000000000000000H
	DQ	0000000000000000H
	DQ	0000000000000000H
	DQ	0000000000000000H
	DQ	0000000000000000H
	DQ	0000000000000000H
	DD	044400H
	ORG $+4
	DQ	FLAT:??_C@_0DA@NAMNFIGL@Base?5class?5for?5warnings?5generate@
	DQ	FLAT:BaseException_traverse
	DQ	FLAT:BaseException_clear
	DQ	0000000000000000H
	DQ	0000000000000000H
	DQ	0000000000000000H
	DQ	0000000000000000H
	DQ	0000000000000000H
	DQ	0000000000000000H
	DQ	0000000000000000H
	DQ	FLAT:_PyExc_Warning
	DQ	0000000000000000H
	DQ	0000000000000000H
	DQ	0000000000000000H
	DQ	0000000000000060H
	DQ	FLAT:BaseException_init
	DQ	0000000000000000H
	DQ	FLAT:BaseException_new
	ORG $+72
_PyExc_DeprecationWarning DQ dead1234beef5678H
	DQ	dead1234beef5678H
	DQ	0000000000000000H
	ORG $+8
	DQ	0000000000000001H
	DQ	0000000000000000H
	DQ	0000000000000000H
	DQ	0000000000000000H
	DQ	dead1234beef5678H
	DQ	dead1234beef5678H
	DQ	0000000000000001H
	DQ	0000000000000000H
	DQ	0000000000000000H
	ORG $+8
	DQ	FLAT:??_C@_0BD@GIDNBIPD@DeprecationWarning?$AA@
	DQ	0000000000000090H
	DQ	0000000000000000H
	DQ	FLAT:BaseException_dealloc
	DQ	0000000000000000H
	DQ	0000000000000000H
	DQ	0000000000000000H
	DQ	0000000000000000H
	DQ	0000000000000000H
	DQ	0000000000000000H
	DQ	0000000000000000H
	DQ	0000000000000000H
	DQ	0000000000000000H
	DQ	0000000000000000H
	DQ	0000000000000000H
	DQ	0000000000000000H
	DQ	0000000000000000H
	DQ	0000000000000000H
	DD	044400H
	ORG $+4
	DQ	FLAT:??_C@_0DD@DDNMECFD@Base?5class?5for?5warnings?5about?5de@
	DQ	FLAT:BaseException_traverse
	DQ	FLAT:BaseException_clear
	DQ	0000000000000000H
	DQ	0000000000000000H
	DQ	0000000000000000H
	DQ	0000000000000000H
	DQ	0000000000000000H
	DQ	0000000000000000H
	DQ	0000000000000000H
	DQ	FLAT:_PyExc_Warning
	DQ	0000000000000000H
	DQ	0000000000000000H
	DQ	0000000000000000H
	DQ	0000000000000060H
	DQ	FLAT:BaseException_init
	DQ	0000000000000000H
	DQ	FLAT:BaseException_new
	ORG $+72
PyExc_DeprecationWarning DQ FLAT:_PyExc_DeprecationWarning
PyExc_PendingDeprecationWarning DQ FLAT:_PyExc_PendingDeprecationWarning
_PyExc_PendingDeprecationWarning DQ dead1234beef5678H
	DQ	dead1234beef5678H
	DQ	0000000000000000H
	ORG $+8
	DQ	0000000000000001H
	DQ	0000000000000000H
	DQ	0000000000000000H
	DQ	0000000000000000H
	DQ	dead1234beef5678H
	DQ	dead1234beef5678H
	DQ	0000000000000001H
	DQ	0000000000000000H
	DQ	0000000000000000H
	ORG $+8
	DQ	FLAT:??_C@_0BK@JDBEDOM@PendingDeprecationWarning?$AA@
	DQ	0000000000000090H
	DQ	0000000000000000H
	DQ	FLAT:BaseException_dealloc
	DQ	0000000000000000H
	DQ	0000000000000000H
	DQ	0000000000000000H
	DQ	0000000000000000H
	DQ	0000000000000000H
	DQ	0000000000000000H
	DQ	0000000000000000H
	DQ	0000000000000000H
	DQ	0000000000000000H
	DQ	0000000000000000H
	DQ	0000000000000000H
	DQ	0000000000000000H
	DQ	0000000000000000H
	DQ	0000000000000000H
	DD	044400H
	ORG $+4
	DQ	FLAT:??_C@_0EP@NOKGBDGL@Base?5class?5for?5warnings?5about?5fe@
	DQ	FLAT:BaseException_traverse
	DQ	FLAT:BaseException_clear
	DQ	0000000000000000H
	DQ	0000000000000000H
	DQ	0000000000000000H
	DQ	0000000000000000H
	DQ	0000000000000000H
	DQ	0000000000000000H
	DQ	0000000000000000H
	DQ	FLAT:_PyExc_Warning
	DQ	0000000000000000H
	DQ	0000000000000000H
	DQ	0000000000000000H
	DQ	0000000000000060H
	DQ	FLAT:BaseException_init
	DQ	0000000000000000H
	DQ	FLAT:BaseException_new
	ORG $+72
_PyExc_SyntaxWarning DQ dead1234beef5678H
	DQ	dead1234beef5678H
	DQ	0000000000000000H
	ORG $+8
	DQ	0000000000000001H
	DQ	0000000000000000H
	DQ	0000000000000000H
	DQ	0000000000000000H
	DQ	dead1234beef5678H
	DQ	dead1234beef5678H
	DQ	0000000000000001H
	DQ	0000000000000000H
	DQ	0000000000000000H
	ORG $+8
	DQ	FLAT:??_C@_0O@IOJIPFFN@SyntaxWarning?$AA@
	DQ	0000000000000090H
	DQ	0000000000000000H
	DQ	FLAT:BaseException_dealloc
	DQ	0000000000000000H
	DQ	0000000000000000H
	DQ	0000000000000000H
	DQ	0000000000000000H
	DQ	0000000000000000H
	DQ	0000000000000000H
	DQ	0000000000000000H
	DQ	0000000000000000H
	DQ	0000000000000000H
	DQ	0000000000000000H
	DQ	0000000000000000H
	DQ	0000000000000000H
	DQ	0000000000000000H
	DQ	0000000000000000H
	DD	044400H
	ORG $+4
	DQ	FLAT:??_C@_0CO@JDKAKEOK@Base?5class?5for?5warnings?5about?5du@
	DQ	FLAT:BaseException_traverse
	DQ	FLAT:BaseException_clear
	DQ	0000000000000000H
	DQ	0000000000000000H
	DQ	0000000000000000H
	DQ	0000000000000000H
	DQ	0000000000000000H
	DQ	0000000000000000H
	DQ	0000000000000000H
	DQ	FLAT:_PyExc_Warning
	DQ	0000000000000000H
	DQ	0000000000000000H
	DQ	0000000000000000H
	DQ	0000000000000060H
	DQ	FLAT:BaseException_init
	DQ	0000000000000000H
	DQ	FLAT:BaseException_new
	ORG $+72
PyExc_SyntaxWarning DQ FLAT:_PyExc_SyntaxWarning
PyExc_RuntimeWarning DQ FLAT:_PyExc_RuntimeWarning
_PyExc_RuntimeWarning DQ dead1234beef5678H
	DQ	dead1234beef5678H
	DQ	0000000000000000H
	ORG $+8
	DQ	0000000000000001H
	DQ	0000000000000000H
	DQ	0000000000000000H
	DQ	0000000000000000H
	DQ	dead1234beef5678H
	DQ	dead1234beef5678H
	DQ	0000000000000001H
	DQ	0000000000000000H
	DQ	0000000000000000H
	ORG $+8
	DQ	FLAT:??_C@_0P@JGMDIAML@RuntimeWarning?$AA@
	DQ	0000000000000090H
	DQ	0000000000000000H
	DQ	FLAT:BaseException_dealloc
	DQ	0000000000000000H
	DQ	0000000000000000H
	DQ	0000000000000000H
	DQ	0000000000000000H
	DQ	0000000000000000H
	DQ	0000000000000000H
	DQ	0000000000000000H
	DQ	0000000000000000H
	DQ	0000000000000000H
	DQ	0000000000000000H
	DQ	0000000000000000H
	DQ	0000000000000000H
	DQ	0000000000000000H
	DQ	0000000000000000H
	DD	044400H
	ORG $+4
	DQ	FLAT:??_C@_0DI@FBPEMJEN@Base?5class?5for?5warnings?5about?5du@
	DQ	FLAT:BaseException_traverse
	DQ	FLAT:BaseException_clear
	DQ	0000000000000000H
	DQ	0000000000000000H
	DQ	0000000000000000H
	DQ	0000000000000000H
	DQ	0000000000000000H
	DQ	0000000000000000H
	DQ	0000000000000000H
	DQ	FLAT:_PyExc_Warning
	DQ	0000000000000000H
	DQ	0000000000000000H
	DQ	0000000000000000H
	DQ	0000000000000060H
	DQ	FLAT:BaseException_init
	DQ	0000000000000000H
	DQ	FLAT:BaseException_new
	ORG $+72
_PyExc_FutureWarning DQ dead1234beef5678H
	DQ	dead1234beef5678H
	DQ	0000000000000000H
	ORG $+8
	DQ	0000000000000001H
	DQ	0000000000000000H
	DQ	0000000000000000H
	DQ	0000000000000000H
	DQ	dead1234beef5678H
	DQ	dead1234beef5678H
	DQ	0000000000000001H
	DQ	0000000000000000H
	DQ	0000000000000000H
	ORG $+8
	DQ	FLAT:??_C@_0O@EAIEFLDH@FutureWarning?$AA@
	DQ	0000000000000090H
	DQ	0000000000000000H
	DQ	FLAT:BaseException_dealloc
	DQ	0000000000000000H
	DQ	0000000000000000H
	DQ	0000000000000000H
	DQ	0000000000000000H
	DQ	0000000000000000H
	DQ	0000000000000000H
	DQ	0000000000000000H
	DQ	0000000000000000H
	DQ	0000000000000000H
	DQ	0000000000000000H
	DQ	0000000000000000H
	DQ	0000000000000000H
	DQ	0000000000000000H
	DQ	0000000000000000H
	DD	044400H
	ORG $+4
	DQ	FLAT:??_C@_0FG@MEHAINOE@Base?5class?5for?5warnings?5about?5co@
	DQ	FLAT:BaseException_traverse
	DQ	FLAT:BaseException_clear
	DQ	0000000000000000H
	DQ	0000000000000000H
	DQ	0000000000000000H
	DQ	0000000000000000H
	DQ	0000000000000000H
	DQ	0000000000000000H
	DQ	0000000000000000H
	DQ	FLAT:_PyExc_Warning
	DQ	0000000000000000H
	DQ	0000000000000000H
	DQ	0000000000000000H
	DQ	0000000000000060H
	DQ	FLAT:BaseException_init
	DQ	0000000000000000H
	DQ	FLAT:BaseException_new
	ORG $+72
PyExc_FutureWarning DQ FLAT:_PyExc_FutureWarning
PyExc_ImportWarning DQ FLAT:_PyExc_ImportWarning
_PyExc_ImportWarning DQ dead1234beef5678H
	DQ	dead1234beef5678H
	DQ	0000000000000000H
	ORG $+8
	DQ	0000000000000001H
	DQ	0000000000000000H
	DQ	0000000000000000H
	DQ	0000000000000000H
	DQ	dead1234beef5678H
	DQ	dead1234beef5678H
	DQ	0000000000000001H
	DQ	0000000000000000H
	DQ	0000000000000000H
	ORG $+8
	DQ	FLAT:??_C@_0O@MPAGLHE@ImportWarning?$AA@
	DQ	0000000000000090H
	DQ	0000000000000000H
	DQ	FLAT:BaseException_dealloc
	DQ	0000000000000000H
	DQ	0000000000000000H
	DQ	0000000000000000H
	DQ	0000000000000000H
	DQ	0000000000000000H
	DQ	0000000000000000H
	DQ	0000000000000000H
	DQ	0000000000000000H
	DQ	0000000000000000H
	DQ	0000000000000000H
	DQ	0000000000000000H
	DQ	0000000000000000H
	DQ	0000000000000000H
	DQ	0000000000000000H
	DD	044400H
	ORG $+4
	DQ	FLAT:??_C@_0EC@CFAJPLKK@Base?5class?5for?5warnings?5about?5pr@
	DQ	FLAT:BaseException_traverse
	DQ	FLAT:BaseException_clear
	DQ	0000000000000000H
	DQ	0000000000000000H
	DQ	0000000000000000H
	DQ	0000000000000000H
	DQ	0000000000000000H
	DQ	0000000000000000H
	DQ	0000000000000000H
	DQ	FLAT:_PyExc_Warning
	DQ	0000000000000000H
	DQ	0000000000000000H
	DQ	0000000000000000H
	DQ	0000000000000060H
	DQ	FLAT:BaseException_init
	DQ	0000000000000000H
	DQ	FLAT:BaseException_new
	ORG $+72
_PyExc_UnicodeWarning DQ dead1234beef5678H
	DQ	dead1234beef5678H
	DQ	0000000000000000H
	ORG $+8
	DQ	0000000000000001H
	DQ	0000000000000000H
	DQ	0000000000000000H
	DQ	0000000000000000H
	DQ	dead1234beef5678H
	DQ	dead1234beef5678H
	DQ	0000000000000001H
	DQ	0000000000000000H
	DQ	0000000000000000H
	ORG $+8
	DQ	FLAT:??_C@_0P@DFBLGLPC@UnicodeWarning?$AA@
	DQ	0000000000000090H
	DQ	0000000000000000H
	DQ	FLAT:BaseException_dealloc
	DQ	0000000000000000H
	DQ	0000000000000000H
	DQ	0000000000000000H
	DQ	0000000000000000H
	DQ	0000000000000000H
	DQ	0000000000000000H
	DQ	0000000000000000H
	DQ	0000000000000000H
	DQ	0000000000000000H
	DQ	0000000000000000H
	DQ	0000000000000000H
	DQ	0000000000000000H
	DQ	0000000000000000H
	DQ	0000000000000000H
	DD	044400H
	ORG $+4
	DQ	FLAT:??_C@_0FP@BEMCLFNP@Base?5class?5for?5warnings?5about?5Un@
	DQ	FLAT:BaseException_traverse
	DQ	FLAT:BaseException_clear
	DQ	0000000000000000H
	DQ	0000000000000000H
	DQ	0000000000000000H
	DQ	0000000000000000H
	DQ	0000000000000000H
	DQ	0000000000000000H
	DQ	0000000000000000H
	DQ	FLAT:_PyExc_Warning
	DQ	0000000000000000H
	DQ	0000000000000000H
	DQ	0000000000000000H
	DQ	0000000000000060H
	DQ	FLAT:BaseException_init
	DQ	0000000000000000H
	DQ	FLAT:BaseException_new
	ORG $+72
PyExc_UnicodeWarning DQ FLAT:_PyExc_UnicodeWarning
PyExc_BytesWarning DQ FLAT:_PyExc_BytesWarning
_PyExc_BytesWarning DQ dead1234beef5678H
	DQ	dead1234beef5678H
	DQ	0000000000000000H
	ORG $+8
	DQ	0000000000000001H
	DQ	0000000000000000H
	DQ	0000000000000000H
	DQ	0000000000000000H
	DQ	dead1234beef5678H
	DQ	dead1234beef5678H
	DQ	0000000000000001H
	DQ	0000000000000000H
	DQ	0000000000000000H
	ORG $+8
	DQ	FLAT:??_C@_0N@BILDEMAG@BytesWarning?$AA@
	DQ	0000000000000090H
	DQ	0000000000000000H
	DQ	FLAT:BaseException_dealloc
	DQ	0000000000000000H
	DQ	0000000000000000H
	DQ	0000000000000000H
	DQ	0000000000000000H
	DQ	0000000000000000H
	DQ	0000000000000000H
	DQ	0000000000000000H
	DQ	0000000000000000H
	DQ	0000000000000000H
	DQ	0000000000000000H
	DQ	0000000000000000H
	DQ	0000000000000000H
	DQ	0000000000000000H
	DQ	0000000000000000H
	DD	044400H
	ORG $+4
	DQ	FLAT:??_C@_0HM@KBKMDMHM@Base?5class?5for?5warnings?5about?5by@
	DQ	FLAT:BaseException_traverse
	DQ	FLAT:BaseException_clear
	DQ	0000000000000000H
	DQ	0000000000000000H
	DQ	0000000000000000H
	DQ	0000000000000000H
	DQ	0000000000000000H
	DQ	0000000000000000H
	DQ	0000000000000000H
	DQ	FLAT:_PyExc_Warning
	DQ	0000000000000000H
	DQ	0000000000000000H
	DQ	0000000000000000H
	DQ	0000000000000060H
	DQ	FLAT:BaseException_init
	DQ	0000000000000000H
	DQ	FLAT:BaseException_new
	ORG $+72
_PyExc_ResourceWarning DQ dead1234beef5678H
	DQ	dead1234beef5678H
	DQ	0000000000000000H
	ORG $+8
	DQ	0000000000000001H
	DQ	0000000000000000H
	DQ	0000000000000000H
	DQ	0000000000000000H
	DQ	dead1234beef5678H
	DQ	dead1234beef5678H
	DQ	0000000000000001H
	DQ	0000000000000000H
	DQ	0000000000000000H
	ORG $+8
	DQ	FLAT:??_C@_0BA@JIBLCGNF@ResourceWarning?$AA@
	DQ	0000000000000090H
	DQ	0000000000000000H
	DQ	FLAT:BaseException_dealloc
	DQ	0000000000000000H
	DQ	0000000000000000H
	DQ	0000000000000000H
	DQ	0000000000000000H
	DQ	0000000000000000H
	DQ	0000000000000000H
	DQ	0000000000000000H
	DQ	0000000000000000H
	DQ	0000000000000000H
	DQ	0000000000000000H
	DQ	0000000000000000H
	DQ	0000000000000000H
	DQ	0000000000000000H
	DQ	0000000000000000H
	DD	044400H
	ORG $+4
	DQ	FLAT:??_C@_0CO@HPEHEBLP@Base?5class?5for?5warnings?5about?5re@
	DQ	FLAT:BaseException_traverse
	DQ	FLAT:BaseException_clear
	DQ	0000000000000000H
	DQ	0000000000000000H
	DQ	0000000000000000H
	DQ	0000000000000000H
	DQ	0000000000000000H
	DQ	0000000000000000H
	DQ	0000000000000000H
	DQ	FLAT:_PyExc_Warning
	DQ	0000000000000000H
	DQ	0000000000000000H
	DQ	0000000000000000H
	DQ	0000000000000060H
	DQ	FLAT:BaseException_init
	DQ	0000000000000000H
	DQ	FLAT:BaseException_new
	ORG $+72
PyExc_ResourceWarning DQ FLAT:_PyExc_ResourceWarning
_DATA	ENDS
PUBLIC	_Py_DecRef
PUBLIC	_Py_IncRef
EXTRN	PyTuple_New:PROC
;	COMDAT pdata
; File c:\src\pyparallel\objects\exceptions.c
pdata	SEGMENT
$pdata$BaseException_new DD imagerel BaseException_new
	DD	imagerel BaseException_new+215
	DD	imagerel $unwind$BaseException_new
pdata	ENDS
;	COMDAT xdata
xdata	SEGMENT
$unwind$BaseException_new DD 011301H
	DD	06213H
; Function compile flags: /Odtp
xdata	ENDS
;	COMDAT BaseException_new
_TEXT	SEGMENT
self$ = 32
type$ = 64
args$ = 72
kwds$ = 80
BaseException_new PROC					; COMDAT

; 36   : {

  00000	4c 89 44 24 18	 mov	 QWORD PTR [rsp+24], r8
  00005	48 89 54 24 10	 mov	 QWORD PTR [rsp+16], rdx
  0000a	48 89 4c 24 08	 mov	 QWORD PTR [rsp+8], rcx
  0000f	48 83 ec 38	 sub	 rsp, 56			; 00000038H

; 37   :     PyBaseExceptionObject *self;
; 38   : 
; 39   :     self = (PyBaseExceptionObject *)type->tp_alloc(type, 0);

  00013	33 d2		 xor	 edx, edx
  00015	48 8b 4c 24 40	 mov	 rcx, QWORD PTR type$[rsp]
  0001a	48 8b 44 24 40	 mov	 rax, QWORD PTR type$[rsp]
  0001f	ff 90 88 01 00
	00		 call	 QWORD PTR [rax+392]
  00025	48 89 44 24 20	 mov	 QWORD PTR self$[rsp], rax

; 40   :     if (!self)

  0002a	48 83 7c 24 20
	00		 cmp	 QWORD PTR self$[rsp], 0
  00030	75 07		 jne	 SHORT $LN3@BaseExcept

; 41   :         return NULL;

  00032	33 c0		 xor	 eax, eax
  00034	e9 99 00 00 00	 jmp	 $LN4@BaseExcept
$LN3@BaseExcept:

; 42   :     /* the dict is created on the fly in PyObject_GenericSetAttr */
; 43   :     self->dict = NULL;

  00039	48 8b 44 24 20	 mov	 rax, QWORD PTR self$[rsp]
  0003e	48 c7 40 60 00
	00 00 00	 mov	 QWORD PTR [rax+96], 0

; 44   :     self->traceback = self->cause = self->context = NULL;

  00046	48 8b 44 24 20	 mov	 rax, QWORD PTR self$[rsp]
  0004b	48 c7 40 78 00
	00 00 00	 mov	 QWORD PTR [rax+120], 0
  00053	48 8b 44 24 20	 mov	 rax, QWORD PTR self$[rsp]
  00058	48 c7 80 80 00
	00 00 00 00 00
	00		 mov	 QWORD PTR [rax+128], 0
  00063	48 8b 44 24 20	 mov	 rax, QWORD PTR self$[rsp]
  00068	48 c7 40 70 00
	00 00 00	 mov	 QWORD PTR [rax+112], 0

; 45   :     self->suppress_context = 0;

  00070	48 8b 44 24 20	 mov	 rax, QWORD PTR self$[rsp]
  00075	c6 80 88 00 00
	00 00		 mov	 BYTE PTR [rax+136], 0

; 46   : 
; 47   :     if (args) {

  0007c	48 83 7c 24 48
	00		 cmp	 QWORD PTR args$[rsp], 0
  00082	74 1f		 je	 SHORT $LN2@BaseExcept

; 48   :         self->args = args;

  00084	48 8b 44 24 20	 mov	 rax, QWORD PTR self$[rsp]
  00089	48 8b 4c 24 48	 mov	 rcx, QWORD PTR args$[rsp]
  0008e	48 89 48 68	 mov	 QWORD PTR [rax+104], rcx

; 49   :         Py_INCREF(args);

  00092	48 8b 4c 24 48	 mov	 rcx, QWORD PTR args$[rsp]
  00097	e8 00 00 00 00	 call	 _Py_IncRef

; 50   :         return (PyObject *)self;

  0009c	48 8b 44 24 20	 mov	 rax, QWORD PTR self$[rsp]
  000a1	eb 2f		 jmp	 SHORT $LN4@BaseExcept
$LN2@BaseExcept:

; 51   :     }
; 52   : 
; 53   :     self->args = PyTuple_New(0);

  000a3	33 c9		 xor	 ecx, ecx
  000a5	e8 00 00 00 00	 call	 PyTuple_New
  000aa	48 8b 4c 24 20	 mov	 rcx, QWORD PTR self$[rsp]
  000af	48 89 41 68	 mov	 QWORD PTR [rcx+104], rax

; 54   :     if (!self->args) {

  000b3	48 8b 44 24 20	 mov	 rax, QWORD PTR self$[rsp]
  000b8	48 83 78 68 00	 cmp	 QWORD PTR [rax+104], 0
  000bd	75 0e		 jne	 SHORT $LN1@BaseExcept

; 55   :         Py_DECREF(self);

  000bf	48 8b 4c 24 20	 mov	 rcx, QWORD PTR self$[rsp]
  000c4	e8 00 00 00 00	 call	 _Py_DecRef

; 56   :         return NULL;

  000c9	33 c0		 xor	 eax, eax
  000cb	eb 05		 jmp	 SHORT $LN4@BaseExcept
$LN1@BaseExcept:

; 57   :     }
; 58   : 
; 59   :     return (PyObject *)self;

  000cd	48 8b 44 24 20	 mov	 rax, QWORD PTR self$[rsp]
$LN4@BaseExcept:

; 60   : }

  000d2	48 83 c4 38	 add	 rsp, 56			; 00000038H
  000d6	c3		 ret	 0
BaseException_new ENDP
_TEXT	ENDS
PUBLIC	??_C@_0L@DHGMCEID@_Py_IncRef?$AA@		; `string'
PUBLIC	??_C@_0CD@HDJFDCDP@c?3?2src?2pyparallel?2include?2object@ ; `string'
EXTRN	_Py_RefTotal:QWORD
EXTRN	_PyParallel_Guard:PROC
EXTRN	_Py_PXCTX:PROC
;	COMDAT pdata
; File c:\src\pyparallel\include\object.h
pdata	SEGMENT
$pdata$_Py_IncRef DD imagerel $LN7
	DD	imagerel $LN7+132
	DD	imagerel $unwind$_Py_IncRef
pdata	ENDS
;	COMDAT xdata
xdata	SEGMENT
$unwind$_Py_IncRef DD 010901H
	DD	06209H
xdata	ENDS
;	COMDAT ??_C@_0L@DHGMCEID@_Py_IncRef?$AA@
CONST	SEGMENT
??_C@_0L@DHGMCEID@_Py_IncRef?$AA@ DB '_Py_IncRef', 00H	; `string'
CONST	ENDS
;	COMDAT ??_C@_0CD@HDJFDCDP@c?3?2src?2pyparallel?2include?2object@
CONST	SEGMENT
??_C@_0CD@HDJFDCDP@c?3?2src?2pyparallel?2include?2object@ DB 'c:\src\pypa'
	DB	'rallel\include\object.h', 00H		; `string'
; Function compile flags: /Odtp
CONST	ENDS
;	COMDAT _Py_IncRef
_TEXT	SEGMENT
op$ = 64
_Py_IncRef PROC						; COMDAT

; 904  : {

$LN7:
  00000	48 89 4c 24 08	 mov	 QWORD PTR [rsp+8], rcx
  00005	48 83 ec 38	 sub	 rsp, 56			; 00000038H

; 905  :     if ((!Py_PXCTX && (Py_ISPY(op) || Px_PERSISTED(op)))) {

  00009	e8 00 00 00 00	 call	 _Py_PXCTX
  0000e	85 c0		 test	 eax, eax
  00010	75 6d		 jne	 SHORT $LN2@Py_IncRef
  00012	c7 44 24 20 02
	00 00 00	 mov	 DWORD PTR [rsp+32], 2
  0001a	4c 8b 4c 24 40	 mov	 r9, QWORD PTR op$[rsp]
  0001f	41 b8 89 03 00
	00		 mov	 r8d, 905		; 00000389H
  00025	48 8d 15 00 00
	00 00		 lea	 rdx, OFFSET FLAT:??_C@_0CD@HDJFDCDP@c?3?2src?2pyparallel?2include?2object@
  0002c	48 8d 0d 00 00
	00 00		 lea	 rcx, OFFSET FLAT:??_C@_0L@DHGMCEID@_Py_IncRef?$AA@
  00033	e8 00 00 00 00	 call	 _PyParallel_Guard
  00038	85 c0		 test	 eax, eax
  0003a	75 12		 jne	 SHORT $LN1@Py_IncRef
  0003c	48 8b 44 24 40	 mov	 rax, QWORD PTR op$[rsp]
  00041	48 8b 40 20	 mov	 rax, QWORD PTR [rax+32]
  00045	48 83 e0 20	 and	 rax, 32			; 00000020H
  00049	48 85 c0	 test	 rax, rax
  0004c	74 31		 je	 SHORT $LN2@Py_IncRef
$LN1@Py_IncRef:

; 906  :         _Py_INC_REFTOTAL;

  0004e	e8 00 00 00 00	 call	 _Py_PXCTX
  00053	85 c0		 test	 eax, eax
  00055	74 02		 je	 SHORT $LN5@Py_IncRef
  00057	eb 11		 jmp	 SHORT $LN6@Py_IncRef
$LN5@Py_IncRef:
  00059	48 8b 05 00 00
	00 00		 mov	 rax, QWORD PTR _Py_RefTotal
  00060	48 ff c0	 inc	 rax
  00063	48 89 05 00 00
	00 00		 mov	 QWORD PTR _Py_RefTotal, rax
$LN6@Py_IncRef:

; 907  :         (((PyObject*)(op))->ob_refcnt++);

  0006a	48 8b 44 24 40	 mov	 rax, QWORD PTR op$[rsp]
  0006f	48 8b 40 50	 mov	 rax, QWORD PTR [rax+80]
  00073	48 ff c0	 inc	 rax
  00076	48 8b 4c 24 40	 mov	 rcx, QWORD PTR op$[rsp]
  0007b	48 89 41 50	 mov	 QWORD PTR [rcx+80], rax
$LN2@Py_IncRef:

; 908  :     }
; 909  : }

  0007f	48 83 c4 38	 add	 rsp, 56			; 00000038H
  00083	c3		 ret	 0
_Py_IncRef ENDP
_TEXT	ENDS
PUBLIC	??_C@_0L@DMHMLFIA@_Py_DecRef?$AA@		; `string'
EXTRN	_Py_Dealloc:PROC
EXTRN	_Py_NegativeRefcount:PROC
EXTRN	Px_DecRef:PROC
;	COMDAT pdata
pdata	SEGMENT
$pdata$_Py_DecRef DD imagerel $LN13
	DD	imagerel $LN13+257
	DD	imagerel $unwind$_Py_DecRef
pdata	ENDS
;	COMDAT xdata
xdata	SEGMENT
$unwind$_Py_DecRef DD 010901H
	DD	08209H
xdata	ENDS
;	COMDAT ??_C@_0L@DMHMLFIA@_Py_DecRef?$AA@
CONST	SEGMENT
??_C@_0L@DMHMLFIA@_Py_DecRef?$AA@ DB '_Py_DecRef', 00H	; `string'
; Function compile flags: /Odtp
CONST	ENDS
;	COMDAT _Py_DecRef
_TEXT	SEGMENT
tv81 = 48
op$ = 80
_Py_DecRef PROC						; COMDAT

; 923  : {

$LN13:
  00000	48 89 4c 24 08	 mov	 QWORD PTR [rsp+8], rcx
  00005	48 83 ec 48	 sub	 rsp, 72			; 00000048H

; 924  :     if (!Py_PXCTX) {

  00009	e8 00 00 00 00	 call	 _Py_PXCTX
  0000e	85 c0		 test	 eax, eax
  00010	0f 85 e6 00 00
	00		 jne	 $LN8@Py_DecRef

; 925  :         if (Px_PERSISTED(op) || Px_CLONED(op))

  00016	48 8b 44 24 50	 mov	 rax, QWORD PTR op$[rsp]
  0001b	48 8b 40 20	 mov	 rax, QWORD PTR [rax+32]
  0001f	48 83 e0 20	 and	 rax, 32			; 00000020H
  00023	48 85 c0	 test	 rax, rax
  00026	75 14		 jne	 SHORT $LN6@Py_DecRef
  00028	48 8b 44 24 50	 mov	 rax, QWORD PTR op$[rsp]
  0002d	48 8b 40 20	 mov	 rax, QWORD PTR [rax+32]
  00031	48 25 80 00 00
	00		 and	 rax, 128		; 00000080H
  00037	48 85 c0	 test	 rax, rax
  0003a	74 0f		 je	 SHORT $LN7@Py_DecRef
$LN6@Py_DecRef:

; 926  :             Px_DECREF(op);

  0003c	48 8b 4c 24 50	 mov	 rcx, QWORD PTR op$[rsp]
  00041	e8 00 00 00 00	 call	 Px_DecRef
  00046	e9 b1 00 00 00	 jmp	 $LN5@Py_DecRef
$LN7@Py_DecRef:

; 927  :         else if (!Px_ISPX(op)) {

  0004b	48 8b 44 24 50	 mov	 rax, QWORD PTR op$[rsp]
  00050	48 8b 40 20	 mov	 rax, QWORD PTR [rax+32]
  00054	48 83 e0 02	 and	 rax, 2
  00058	48 85 c0	 test	 rax, rax
  0005b	0f 85 9b 00 00
	00		 jne	 $LN4@Py_DecRef

; 928  :             _Py_DEC_REFTOTAL;

  00061	e8 00 00 00 00	 call	 _Py_PXCTX
  00066	85 c0		 test	 eax, eax
  00068	74 02		 je	 SHORT $LN11@Py_DecRef
  0006a	eb 11		 jmp	 SHORT $LN12@Py_DecRef
$LN11@Py_DecRef:
  0006c	48 8b 05 00 00
	00 00		 mov	 rax, QWORD PTR _Py_RefTotal
  00073	48 ff c8	 dec	 rax
  00076	48 89 05 00 00
	00 00		 mov	 QWORD PTR _Py_RefTotal, rax
$LN12@Py_DecRef:

; 929  :             if ((--((PyObject *)(op))->ob_refcnt) != 0) {

  0007d	48 8b 44 24 50	 mov	 rax, QWORD PTR op$[rsp]
  00082	48 8b 40 50	 mov	 rax, QWORD PTR [rax+80]
  00086	48 ff c8	 dec	 rax
  00089	48 89 44 24 30	 mov	 QWORD PTR tv81[rsp], rax
  0008e	48 8b 44 24 50	 mov	 rax, QWORD PTR op$[rsp]
  00093	48 8b 4c 24 30	 mov	 rcx, QWORD PTR tv81[rsp]
  00098	48 89 48 50	 mov	 QWORD PTR [rax+80], rcx
  0009c	48 83 7c 24 30
	00		 cmp	 QWORD PTR tv81[rsp], 0
  000a2	74 4e		 je	 SHORT $LN3@Py_DecRef

; 930  :                 _Py_CHECK_REFCNT(op);

  000a4	c7 44 24 20 10
	00 00 00	 mov	 DWORD PTR [rsp+32], 16
  000ac	4c 8b 4c 24 50	 mov	 r9, QWORD PTR op$[rsp]
  000b1	41 b8 a2 03 00
	00		 mov	 r8d, 930		; 000003a2H
  000b7	48 8d 15 00 00
	00 00		 lea	 rdx, OFFSET FLAT:??_C@_0CD@HDJFDCDP@c?3?2src?2pyparallel?2include?2object@
  000be	48 8d 0d 00 00
	00 00		 lea	 rcx, OFFSET FLAT:??_C@_0L@DMHMLFIA@_Py_DecRef?$AA@
  000c5	e8 00 00 00 00	 call	 _PyParallel_Guard
  000ca	85 c0		 test	 eax, eax
  000cc	75 22		 jne	 SHORT $LN2@Py_DecRef
  000ce	48 8b 44 24 50	 mov	 rax, QWORD PTR op$[rsp]
  000d3	48 83 78 50 00	 cmp	 QWORD PTR [rax+80], 0
  000d8	7d 16		 jge	 SHORT $LN2@Py_DecRef
  000da	4c 8b 44 24 50	 mov	 r8, QWORD PTR op$[rsp]
  000df	ba a2 03 00 00	 mov	 edx, 930		; 000003a2H
  000e4	48 8d 0d 00 00
	00 00		 lea	 rcx, OFFSET FLAT:??_C@_0CD@HDJFDCDP@c?3?2src?2pyparallel?2include?2object@
  000eb	e8 00 00 00 00	 call	 _Py_NegativeRefcount
$LN2@Py_DecRef:

; 931  :             } else

  000f0	eb 0a		 jmp	 SHORT $LN1@Py_DecRef
$LN3@Py_DecRef:

; 932  :                 _Py_Dealloc((PyObject *)(op));

  000f2	48 8b 4c 24 50	 mov	 rcx, QWORD PTR op$[rsp]
  000f7	e8 00 00 00 00	 call	 _Py_Dealloc
$LN1@Py_DecRef:
$LN4@Py_DecRef:
$LN5@Py_DecRef:
$LN8@Py_DecRef:

; 933  :         }
; 934  :     }
; 935  : }

  000fc	48 83 c4 48	 add	 rsp, 72			; 00000048H
  00100	c3		 ret	 0
_Py_DecRef ENDP
_TEXT	ENDS
EXTRN	_PyArg_NoKeywords:PROC
;	COMDAT pdata
; File c:\src\pyparallel\objects\exceptions.c
pdata	SEGMENT
$pdata$BaseException_init DD imagerel BaseException_init
	DD	imagerel BaseException_init+126
	DD	imagerel $unwind$BaseException_init
pdata	ENDS
;	COMDAT xdata
xdata	SEGMENT
$unwind$BaseException_init DD 011301H
	DD	06213H
; Function compile flags: /Odtp
xdata	ENDS
;	COMDAT BaseException_init
_TEXT	SEGMENT
tmp$ = 32
self$ = 64
args$ = 72
kwds$ = 80
BaseException_init PROC					; COMDAT

; 64   : {

  00000	4c 89 44 24 18	 mov	 QWORD PTR [rsp+24], r8
  00005	48 89 54 24 10	 mov	 QWORD PTR [rsp+16], rdx
  0000a	48 89 4c 24 08	 mov	 QWORD PTR [rsp+8], rcx
  0000f	48 83 ec 38	 sub	 rsp, 56			; 00000038H

; 65   :     PyObject *tmp;
; 66   : 
; 67   :     if (!_PyArg_NoKeywords(Py_TYPE(self)->tp_name, kwds))

  00013	48 8b 44 24 40	 mov	 rax, QWORD PTR self$[rsp]
  00018	48 8b 40 58	 mov	 rax, QWORD PTR [rax+88]
  0001c	48 8b 54 24 50	 mov	 rdx, QWORD PTR kwds$[rsp]
  00021	48 8b 48 70	 mov	 rcx, QWORD PTR [rax+112]
  00025	e8 00 00 00 00	 call	 _PyArg_NoKeywords
  0002a	85 c0		 test	 eax, eax
  0002c	75 07		 jne	 SHORT $LN5@BaseExcept@2

; 68   :         return -1;

  0002e	b8 ff ff ff ff	 mov	 eax, -1
  00033	eb 44		 jmp	 SHORT $LN6@BaseExcept@2
$LN5@BaseExcept@2:

; 69   : 
; 70   :     tmp = self->args;

  00035	48 8b 44 24 40	 mov	 rax, QWORD PTR self$[rsp]
  0003a	48 8b 40 68	 mov	 rax, QWORD PTR [rax+104]
  0003e	48 89 44 24 20	 mov	 QWORD PTR tmp$[rsp], rax

; 71   :     self->args = args;

  00043	48 8b 44 24 40	 mov	 rax, QWORD PTR self$[rsp]
  00048	48 8b 4c 24 48	 mov	 rcx, QWORD PTR args$[rsp]
  0004d	48 89 48 68	 mov	 QWORD PTR [rax+104], rcx

; 72   :     Py_INCREF(self->args);

  00051	48 8b 44 24 40	 mov	 rax, QWORD PTR self$[rsp]
  00056	48 8b 48 68	 mov	 rcx, QWORD PTR [rax+104]
  0005a	e8 00 00 00 00	 call	 _Py_IncRef
$LN4@BaseExcept@2:

; 73   :     Py_XDECREF(tmp);

  0005f	48 83 7c 24 20
	00		 cmp	 QWORD PTR tmp$[rsp], 0
  00065	74 0a		 je	 SHORT $LN1@BaseExcept@2
  00067	48 8b 4c 24 20	 mov	 rcx, QWORD PTR tmp$[rsp]
  0006c	e8 00 00 00 00	 call	 _Py_DecRef
$LN1@BaseExcept@2:
  00071	33 c0		 xor	 eax, eax
  00073	85 c0		 test	 eax, eax
  00075	75 e8		 jne	 SHORT $LN4@BaseExcept@2

; 74   : 
; 75   :     return 0;

  00077	33 c0		 xor	 eax, eax
$LN6@BaseExcept@2:

; 76   : }

  00079	48 83 c4 38	 add	 rsp, 56			; 00000038H
  0007d	c3		 ret	 0
BaseException_init ENDP
_TEXT	ENDS
PUBLIC	??_C@_0BE@DHGGBECL@BaseException_clear?$AA@	; `string'
PUBLIC	??_C@_0BI@DKIONFF@?4?4?2Objects?2exceptions?4c?$AA@ ; `string'
;	COMDAT pdata
pdata	SEGMENT
$pdata$BaseException_clear DD imagerel BaseException_clear
	DD	imagerel BaseException_clear+533
	DD	imagerel $unwind$BaseException_clear
pdata	ENDS
;	COMDAT xdata
xdata	SEGMENT
$unwind$BaseException_clear DD 010901H
	DD	0c209H
xdata	ENDS
;	COMDAT ??_C@_0BE@DHGGBECL@BaseException_clear?$AA@
CONST	SEGMENT
??_C@_0BE@DHGGBECL@BaseException_clear?$AA@ DB 'BaseException_clear', 00H ; `string'
CONST	ENDS
;	COMDAT ??_C@_0BI@DKIONFF@?4?4?2Objects?2exceptions?4c?$AA@
CONST	SEGMENT
??_C@_0BI@DKIONFF@?4?4?2Objects?2exceptions?4c?$AA@ DB '..\Objects\except'
	DB	'ions.c', 00H				; `string'
; Function compile flags: /Odtp
CONST	ENDS
;	COMDAT BaseException_clear
_TEXT	SEGMENT
_py_tmp$20389 = 48
_py_tmp$20397 = 56
_py_tmp$20405 = 64
_py_tmp$20413 = 72
_py_tmp$20421 = 80
self$ = 112
BaseException_clear PROC				; COMDAT

; 80   : {

  00000	48 89 4c 24 08	 mov	 QWORD PTR [rsp+8], rcx
  00005	48 83 ec 68	 sub	 rsp, 104		; 00000068H
$LN20@BaseExcept@3:

; 81   :     Py_CLEAR(self->dict);

  00009	48 8b 44 24 70	 mov	 rax, QWORD PTR self$[rsp]
  0000e	48 83 78 60 00	 cmp	 QWORD PTR [rax+96], 0
  00013	74 53		 je	 SHORT $LN17@BaseExcept@3
  00015	c7 44 24 20 10
	00 00 00	 mov	 DWORD PTR [rsp+32], 16
  0001d	48 8b 44 24 70	 mov	 rax, QWORD PTR self$[rsp]
  00022	4c 8b 48 60	 mov	 r9, QWORD PTR [rax+96]
  00026	41 b8 51 00 00
	00		 mov	 r8d, 81			; 00000051H
  0002c	48 8d 15 00 00
	00 00		 lea	 rdx, OFFSET FLAT:??_C@_0BI@DKIONFF@?4?4?2Objects?2exceptions?4c?$AA@
  00033	48 8d 0d 00 00
	00 00		 lea	 rcx, OFFSET FLAT:??_C@_0BE@DHGGBECL@BaseException_clear?$AA@
  0003a	e8 00 00 00 00	 call	 _PyParallel_Guard
  0003f	85 c0		 test	 eax, eax
  00041	75 25		 jne	 SHORT $LN17@BaseExcept@3
  00043	48 8b 44 24 70	 mov	 rax, QWORD PTR self$[rsp]
  00048	48 8b 40 60	 mov	 rax, QWORD PTR [rax+96]
  0004c	48 89 44 24 30	 mov	 QWORD PTR _py_tmp$20389[rsp], rax
  00051	48 8b 44 24 70	 mov	 rax, QWORD PTR self$[rsp]
  00056	48 c7 40 60 00
	00 00 00	 mov	 QWORD PTR [rax+96], 0
  0005e	48 8b 4c 24 30	 mov	 rcx, QWORD PTR _py_tmp$20389[rsp]
  00063	e8 00 00 00 00	 call	 _Py_DecRef
$LN17@BaseExcept@3:
  00068	33 c0		 xor	 eax, eax
  0006a	85 c0		 test	 eax, eax
  0006c	75 9b		 jne	 SHORT $LN20@BaseExcept@3
$LN16@BaseExcept@3:

; 82   :     Py_CLEAR(self->args);

  0006e	48 8b 44 24 70	 mov	 rax, QWORD PTR self$[rsp]
  00073	48 83 78 68 00	 cmp	 QWORD PTR [rax+104], 0
  00078	74 53		 je	 SHORT $LN13@BaseExcept@3
  0007a	c7 44 24 20 10
	00 00 00	 mov	 DWORD PTR [rsp+32], 16
  00082	48 8b 44 24 70	 mov	 rax, QWORD PTR self$[rsp]
  00087	4c 8b 48 68	 mov	 r9, QWORD PTR [rax+104]
  0008b	41 b8 52 00 00
	00		 mov	 r8d, 82			; 00000052H
  00091	48 8d 15 00 00
	00 00		 lea	 rdx, OFFSET FLAT:??_C@_0BI@DKIONFF@?4?4?2Objects?2exceptions?4c?$AA@
  00098	48 8d 0d 00 00
	00 00		 lea	 rcx, OFFSET FLAT:??_C@_0BE@DHGGBECL@BaseException_clear?$AA@
  0009f	e8 00 00 00 00	 call	 _PyParallel_Guard
  000a4	85 c0		 test	 eax, eax
  000a6	75 25		 jne	 SHORT $LN13@BaseExcept@3
  000a8	48 8b 44 24 70	 mov	 rax, QWORD PTR self$[rsp]
  000ad	48 8b 40 68	 mov	 rax, QWORD PTR [rax+104]
  000b1	48 89 44 24 38	 mov	 QWORD PTR _py_tmp$20397[rsp], rax
  000b6	48 8b 44 24 70	 mov	 rax, QWORD PTR self$[rsp]
  000bb	48 c7 40 68 00
	00 00 00	 mov	 QWORD PTR [rax+104], 0
  000c3	48 8b 4c 24 38	 mov	 rcx, QWORD PTR _py_tmp$20397[rsp]
  000c8	e8 00 00 00 00	 call	 _Py_DecRef
$LN13@BaseExcept@3:
  000cd	33 c0		 xor	 eax, eax
  000cf	85 c0		 test	 eax, eax
  000d1	75 9b		 jne	 SHORT $LN16@BaseExcept@3
$LN12@BaseExcept@3:

; 83   :     Py_CLEAR(self->traceback);

  000d3	48 8b 44 24 70	 mov	 rax, QWORD PTR self$[rsp]
  000d8	48 83 78 70 00	 cmp	 QWORD PTR [rax+112], 0
  000dd	74 53		 je	 SHORT $LN9@BaseExcept@3
  000df	c7 44 24 20 10
	00 00 00	 mov	 DWORD PTR [rsp+32], 16
  000e7	48 8b 44 24 70	 mov	 rax, QWORD PTR self$[rsp]
  000ec	4c 8b 48 70	 mov	 r9, QWORD PTR [rax+112]
  000f0	41 b8 53 00 00
	00		 mov	 r8d, 83			; 00000053H
  000f6	48 8d 15 00 00
	00 00		 lea	 rdx, OFFSET FLAT:??_C@_0BI@DKIONFF@?4?4?2Objects?2exceptions?4c?$AA@
  000fd	48 8d 0d 00 00
	00 00		 lea	 rcx, OFFSET FLAT:??_C@_0BE@DHGGBECL@BaseException_clear?$AA@
  00104	e8 00 00 00 00	 call	 _PyParallel_Guard
  00109	85 c0		 test	 eax, eax
  0010b	75 25		 jne	 SHORT $LN9@BaseExcept@3
  0010d	48 8b 44 24 70	 mov	 rax, QWORD PTR self$[rsp]
  00112	48 8b 40 70	 mov	 rax, QWORD PTR [rax+112]
  00116	48 89 44 24 40	 mov	 QWORD PTR _py_tmp$20405[rsp], rax
  0011b	48 8b 44 24 70	 mov	 rax, QWORD PTR self$[rsp]
  00120	48 c7 40 70 00
	00 00 00	 mov	 QWORD PTR [rax+112], 0
  00128	48 8b 4c 24 40	 mov	 rcx, QWORD PTR _py_tmp$20405[rsp]
  0012d	e8 00 00 00 00	 call	 _Py_DecRef
$LN9@BaseExcept@3:
  00132	33 c0		 xor	 eax, eax
  00134	85 c0		 test	 eax, eax
  00136	75 9b		 jne	 SHORT $LN12@BaseExcept@3
$LN8@BaseExcept@3:

; 84   :     Py_CLEAR(self->cause);

  00138	48 8b 44 24 70	 mov	 rax, QWORD PTR self$[rsp]
  0013d	48 83 b8 80 00
	00 00 00	 cmp	 QWORD PTR [rax+128], 0
  00145	74 5c		 je	 SHORT $LN5@BaseExcept@3
  00147	c7 44 24 20 10
	00 00 00	 mov	 DWORD PTR [rsp+32], 16
  0014f	48 8b 44 24 70	 mov	 rax, QWORD PTR self$[rsp]
  00154	4c 8b 88 80 00
	00 00		 mov	 r9, QWORD PTR [rax+128]
  0015b	41 b8 54 00 00
	00		 mov	 r8d, 84			; 00000054H
  00161	48 8d 15 00 00
	00 00		 lea	 rdx, OFFSET FLAT:??_C@_0BI@DKIONFF@?4?4?2Objects?2exceptions?4c?$AA@
  00168	48 8d 0d 00 00
	00 00		 lea	 rcx, OFFSET FLAT:??_C@_0BE@DHGGBECL@BaseException_clear?$AA@
  0016f	e8 00 00 00 00	 call	 _PyParallel_Guard
  00174	85 c0		 test	 eax, eax
  00176	75 2b		 jne	 SHORT $LN5@BaseExcept@3
  00178	48 8b 44 24 70	 mov	 rax, QWORD PTR self$[rsp]
  0017d	48 8b 80 80 00
	00 00		 mov	 rax, QWORD PTR [rax+128]
  00184	48 89 44 24 48	 mov	 QWORD PTR _py_tmp$20413[rsp], rax
  00189	48 8b 44 24 70	 mov	 rax, QWORD PTR self$[rsp]
  0018e	48 c7 80 80 00
	00 00 00 00 00
	00		 mov	 QWORD PTR [rax+128], 0
  00199	48 8b 4c 24 48	 mov	 rcx, QWORD PTR _py_tmp$20413[rsp]
  0019e	e8 00 00 00 00	 call	 _Py_DecRef
$LN5@BaseExcept@3:
  001a3	33 c0		 xor	 eax, eax
  001a5	85 c0		 test	 eax, eax
  001a7	75 8f		 jne	 SHORT $LN8@BaseExcept@3
$LN4@BaseExcept@3:

; 85   :     Py_CLEAR(self->context);

  001a9	48 8b 44 24 70	 mov	 rax, QWORD PTR self$[rsp]
  001ae	48 83 78 78 00	 cmp	 QWORD PTR [rax+120], 0
  001b3	74 53		 je	 SHORT $LN1@BaseExcept@3
  001b5	c7 44 24 20 10
	00 00 00	 mov	 DWORD PTR [rsp+32], 16
  001bd	48 8b 44 24 70	 mov	 rax, QWORD PTR self$[rsp]
  001c2	4c 8b 48 78	 mov	 r9, QWORD PTR [rax+120]
  001c6	41 b8 55 00 00
	00		 mov	 r8d, 85			; 00000055H
  001cc	48 8d 15 00 00
	00 00		 lea	 rdx, OFFSET FLAT:??_C@_0BI@DKIONFF@?4?4?2Objects?2exceptions?4c?$AA@
  001d3	48 8d 0d 00 00
	00 00		 lea	 rcx, OFFSET FLAT:??_C@_0BE@DHGGBECL@BaseException_clear?$AA@
  001da	e8 00 00 00 00	 call	 _PyParallel_Guard
  001df	85 c0		 test	 eax, eax
  001e1	75 25		 jne	 SHORT $LN1@BaseExcept@3
  001e3	48 8b 44 24 70	 mov	 rax, QWORD PTR self$[rsp]
  001e8	48 8b 40 78	 mov	 rax, QWORD PTR [rax+120]
  001ec	48 89 44 24 50	 mov	 QWORD PTR _py_tmp$20421[rsp], rax
  001f1	48 8b 44 24 70	 mov	 rax, QWORD PTR self$[rsp]
  001f6	48 c7 40 78 00
	00 00 00	 mov	 QWORD PTR [rax+120], 0
  001fe	48 8b 4c 24 50	 mov	 rcx, QWORD PTR _py_tmp$20421[rsp]
  00203	e8 00 00 00 00	 call	 _Py_DecRef
$LN1@BaseExcept@3:
  00208	33 c0		 xor	 eax, eax
  0020a	85 c0		 test	 eax, eax
  0020c	75 9b		 jne	 SHORT $LN4@BaseExcept@3

; 86   :     return 0;

  0020e	33 c0		 xor	 eax, eax

; 87   : }

  00210	48 83 c4 68	 add	 rsp, 104		; 00000068H
  00214	c3		 ret	 0
BaseException_clear ENDP
_TEXT	ENDS
PUBLIC	??_C@_1EM@HFMJMDDM@?$AAg?$AA?9?$AA?$DO?$AAg?$AAc?$AA?4?$AAg?$AAc?$AA_?$AAr?$AAe?$AAf?$AAs?$AA?5?$AA?$CB?$AA?$DN?$AA?5?$AA_?$AAP?$AAy?$AAG?$AAC?$AA_?$AAR?$AAE?$AAF?$AAS?$AA_?$AAU?$AAN?$AAT?$AAR@ ; `string'
PUBLIC	??_C@_1DA@DBFJBBCA@?$AA?4?$AA?4?$AA?2?$AAO?$AAb?$AAj?$AAe?$AAc?$AAt?$AAs?$AA?2?$AAe?$AAx?$AAc?$AAe?$AAp?$AAt?$AAi?$AAo?$AAn?$AAs?$AA?4?$AAc?$AA?$AA@ ; `string'
PUBLIC	??_C@_0BG@CNGLEAMK@BaseException_dealloc?$AA@	; `string'
EXTRN	__imp__wassert:PROC
;	COMDAT pdata
pdata	SEGMENT
$pdata$BaseException_dealloc DD imagerel BaseException_dealloc
	DD	imagerel BaseException_dealloc+283
	DD	imagerel $unwind$BaseException_dealloc
pdata	ENDS
;	COMDAT xdata
xdata	SEGMENT
$unwind$BaseException_dealloc DD 010901H
	DD	08209H
xdata	ENDS
;	COMDAT ??_C@_1EM@HFMJMDDM@?$AAg?$AA?9?$AA?$DO?$AAg?$AAc?$AA?4?$AAg?$AAc?$AA_?$AAr?$AAe?$AAf?$AAs?$AA?5?$AA?$CB?$AA?$DN?$AA?5?$AA_?$AAP?$AAy?$AAG?$AAC?$AA_?$AAR?$AAE?$AAF?$AAS?$AA_?$AAU?$AAN?$AAT?$AAR@
CONST	SEGMENT
??_C@_1EM@HFMJMDDM@?$AAg?$AA?9?$AA?$DO?$AAg?$AAc?$AA?4?$AAg?$AAc?$AA_?$AAr?$AAe?$AAf?$AAs?$AA?5?$AA?$CB?$AA?$DN?$AA?5?$AA_?$AAP?$AAy?$AAG?$AAC?$AA_?$AAR?$AAE?$AAF?$AAS?$AA_?$AAU?$AAN?$AAT?$AAR@ DB 'g'
	DB	00H, '-', 00H, '>', 00H, 'g', 00H, 'c', 00H, '.', 00H, 'g', 00H
	DB	'c', 00H, '_', 00H, 'r', 00H, 'e', 00H, 'f', 00H, 's', 00H, ' '
	DB	00H, '!', 00H, '=', 00H, ' ', 00H, '_', 00H, 'P', 00H, 'y', 00H
	DB	'G', 00H, 'C', 00H, '_', 00H, 'R', 00H, 'E', 00H, 'F', 00H, 'S'
	DB	00H, '_', 00H, 'U', 00H, 'N', 00H, 'T', 00H, 'R', 00H, 'A', 00H
	DB	'C', 00H, 'K', 00H, 'E', 00H, 'D', 00H, 00H, 00H ; `string'
CONST	ENDS
;	COMDAT ??_C@_1DA@DBFJBBCA@?$AA?4?$AA?4?$AA?2?$AAO?$AAb?$AAj?$AAe?$AAc?$AAt?$AAs?$AA?2?$AAe?$AAx?$AAc?$AAe?$AAp?$AAt?$AAi?$AAo?$AAn?$AAs?$AA?4?$AAc?$AA?$AA@
CONST	SEGMENT
??_C@_1DA@DBFJBBCA@?$AA?4?$AA?4?$AA?2?$AAO?$AAb?$AAj?$AAe?$AAc?$AAt?$AAs?$AA?2?$AAe?$AAx?$AAc?$AAe?$AAp?$AAt?$AAi?$AAo?$AAn?$AAs?$AA?4?$AAc?$AA?$AA@ DB '.'
	DB	00H, '.', 00H, '\', 00H, 'O', 00H, 'b', 00H, 'j', 00H, 'e', 00H
	DB	'c', 00H, 't', 00H, 's', 00H, '\', 00H, 'e', 00H, 'x', 00H, 'c'
	DB	00H, 'e', 00H, 'p', 00H, 't', 00H, 'i', 00H, 'o', 00H, 'n', 00H
	DB	's', 00H, '.', 00H, 'c', 00H, 00H, 00H	; `string'
CONST	ENDS
;	COMDAT ??_C@_0BG@CNGLEAMK@BaseException_dealloc?$AA@
CONST	SEGMENT
??_C@_0BG@CNGLEAMK@BaseException_dealloc?$AA@ DB 'BaseException_dealloc', 00H ; `string'
; Function compile flags: /Odtp
CONST	ENDS
;	COMDAT BaseException_dealloc
_TEXT	SEGMENT
g$20434 = 48
tv79 = 56
self$ = 80
BaseException_dealloc PROC				; COMDAT

; 91   : {

  00000	48 89 4c 24 08	 mov	 QWORD PTR [rsp+8], rcx
  00005	48 83 ec 48	 sub	 rsp, 72			; 00000048H

; 92   :     _PyObject_GC_UNTRACK(self);

  00009	c7 44 24 20 10
	00 00 00	 mov	 DWORD PTR [rsp+32], 16
  00011	4c 8b 4c 24 50	 mov	 r9, QWORD PTR self$[rsp]
  00016	41 b8 5c 00 00
	00		 mov	 r8d, 92			; 0000005cH
  0001c	48 8d 15 00 00
	00 00		 lea	 rdx, OFFSET FLAT:??_C@_0BI@DKIONFF@?4?4?2Objects?2exceptions?4c?$AA@
  00023	48 8d 0d 00 00
	00 00		 lea	 rcx, OFFSET FLAT:??_C@_0BG@CNGLEAMK@BaseException_dealloc?$AA@
  0002a	e8 00 00 00 00	 call	 _PyParallel_Guard
  0002f	85 c0		 test	 eax, eax
  00031	0f 85 c1 00 00
	00		 jne	 $LN4@BaseExcept@4
$LN3@BaseExcept@4:
  00037	c7 44 24 20 10
	00 00 00	 mov	 DWORD PTR [rsp+32], 16
  0003f	4c 8b 4c 24 50	 mov	 r9, QWORD PTR self$[rsp]
  00044	41 b8 5c 00 00
	00		 mov	 r8d, 92			; 0000005cH
  0004a	48 8d 15 00 00
	00 00		 lea	 rdx, OFFSET FLAT:??_C@_0BI@DKIONFF@?4?4?2Objects?2exceptions?4c?$AA@
  00051	48 8d 0d 00 00
	00 00		 lea	 rcx, OFFSET FLAT:??_C@_0BG@CNGLEAMK@BaseException_dealloc?$AA@
  00058	e8 00 00 00 00	 call	 _PyParallel_Guard
  0005d	85 c0		 test	 eax, eax
  0005f	74 0b		 je	 SHORT $LN7@BaseExcept@4
  00061	48 c7 44 24 38
	00 00 00 00	 mov	 QWORD PTR tv79[rsp], 0
  0006a	eb 0e		 jmp	 SHORT $LN8@BaseExcept@4
$LN7@BaseExcept@4:
  0006c	48 8b 44 24 50	 mov	 rax, QWORD PTR self$[rsp]
  00071	48 83 e8 18	 sub	 rax, 24
  00075	48 89 44 24 38	 mov	 QWORD PTR tv79[rsp], rax
$LN8@BaseExcept@4:
  0007a	48 8b 44 24 38	 mov	 rax, QWORD PTR tv79[rsp]
  0007f	48 89 44 24 30	 mov	 QWORD PTR g$20434[rsp], rax
  00084	48 8b 44 24 30	 mov	 rax, QWORD PTR g$20434[rsp]
  00089	48 83 78 10 fe	 cmp	 QWORD PTR [rax+16], -2
  0008e	75 1c		 jne	 SHORT $LN9@BaseExcept@4
  00090	41 b8 5c 00 00
	00		 mov	 r8d, 92			; 0000005cH
  00096	48 8d 15 00 00
	00 00		 lea	 rdx, OFFSET FLAT:??_C@_1DA@DBFJBBCA@?$AA?4?$AA?4?$AA?2?$AAO?$AAb?$AAj?$AAe?$AAc?$AAt?$AAs?$AA?2?$AAe?$AAx?$AAc?$AAe?$AAp?$AAt?$AAi?$AAo?$AAn?$AAs?$AA?4?$AAc?$AA?$AA@
  0009d	48 8d 0d 00 00
	00 00		 lea	 rcx, OFFSET FLAT:??_C@_1EM@HFMJMDDM@?$AAg?$AA?9?$AA?$DO?$AAg?$AAc?$AA?4?$AAg?$AAc?$AA_?$AAr?$AAe?$AAf?$AAs?$AA?5?$AA?$CB?$AA?$DN?$AA?5?$AA_?$AAP?$AAy?$AAG?$AAC?$AA_?$AAR?$AAE?$AAF?$AAS?$AA_?$AAU?$AAN?$AAT?$AAR@
  000a4	ff 15 00 00 00
	00		 call	 QWORD PTR __imp__wassert
  000aa	33 c0		 xor	 eax, eax
$LN9@BaseExcept@4:
  000ac	48 8b 44 24 30	 mov	 rax, QWORD PTR g$20434[rsp]
  000b1	48 c7 40 10 fe
	ff ff ff	 mov	 QWORD PTR [rax+16], -2
  000b9	48 8b 44 24 30	 mov	 rax, QWORD PTR g$20434[rsp]
  000be	48 8b 40 08	 mov	 rax, QWORD PTR [rax+8]
  000c2	48 8b 4c 24 30	 mov	 rcx, QWORD PTR g$20434[rsp]
  000c7	48 8b 09	 mov	 rcx, QWORD PTR [rcx]
  000ca	48 89 08	 mov	 QWORD PTR [rax], rcx
  000cd	48 8b 44 24 30	 mov	 rax, QWORD PTR g$20434[rsp]
  000d2	48 8b 00	 mov	 rax, QWORD PTR [rax]
  000d5	48 8b 4c 24 30	 mov	 rcx, QWORD PTR g$20434[rsp]
  000da	48 8b 49 08	 mov	 rcx, QWORD PTR [rcx+8]
  000de	48 89 48 08	 mov	 QWORD PTR [rax+8], rcx
  000e2	48 8b 44 24 30	 mov	 rax, QWORD PTR g$20434[rsp]
  000e7	48 c7 00 00 00
	00 00		 mov	 QWORD PTR [rax], 0
  000ee	33 c0		 xor	 eax, eax
  000f0	85 c0		 test	 eax, eax
  000f2	0f 85 3f ff ff
	ff		 jne	 $LN3@BaseExcept@4
$LN4@BaseExcept@4:

; 93   :     BaseException_clear(self);

  000f8	48 8b 4c 24 50	 mov	 rcx, QWORD PTR self$[rsp]
  000fd	e8 00 00 00 00	 call	 BaseException_clear

; 94   :     Py_TYPE(self)->tp_free((PyObject *)self);

  00102	48 8b 44 24 50	 mov	 rax, QWORD PTR self$[rsp]
  00107	48 8b 40 58	 mov	 rax, QWORD PTR [rax+88]
  0010b	48 8b 4c 24 50	 mov	 rcx, QWORD PTR self$[rsp]
  00110	ff 90 98 01 00
	00		 call	 QWORD PTR [rax+408]

; 95   : }

  00116	48 83 c4 48	 add	 rsp, 72			; 00000048H
  0011a	c3		 ret	 0
BaseException_dealloc ENDP
_TEXT	ENDS
PUBLIC	??_C@_0BH@KIKAMKPB@BaseException_traverse?$AA@	; `string'
EXTRN	_PyParallel_ContextGuardFailure:PROC
;	COMDAT pdata
pdata	SEGMENT
$pdata$BaseException_traverse DD imagerel BaseException_traverse
	DD	imagerel BaseException_traverse+491
	DD	imagerel $unwind$BaseException_traverse
pdata	ENDS
;	COMDAT xdata
xdata	SEGMENT
$unwind$BaseException_traverse DD 011301H
	DD	08213H
xdata	ENDS
;	COMDAT ??_C@_0BH@KIKAMKPB@BaseException_traverse?$AA@
CONST	SEGMENT
??_C@_0BH@KIKAMKPB@BaseException_traverse?$AA@ DB 'BaseException_traverse'
	DB	00H						; `string'
; Function compile flags: /Odtp
CONST	ENDS
;	COMDAT BaseException_traverse
_TEXT	SEGMENT
vret$20457 = 32
vret$20465 = 36
vret$20473 = 40
vret$20481 = 44
vret$20489 = 48
self$ = 80
visit$ = 88
arg$ = 96
BaseException_traverse PROC				; COMDAT

; 99   : {

  00000	4c 89 44 24 18	 mov	 QWORD PTR [rsp+24], r8
  00005	48 89 54 24 10	 mov	 QWORD PTR [rsp+16], rdx
  0000a	48 89 4c 24 08	 mov	 QWORD PTR [rsp+8], rcx
  0000f	48 83 ec 48	 sub	 rsp, 72			; 00000048H
$LN30@BaseExcept@5:

; 100  :     Py_VISIT(self->dict);

  00013	e8 00 00 00 00	 call	 _Py_PXCTX
  00018	85 c0		 test	 eax, eax
  0001a	74 1c		 je	 SHORT $LN27@BaseExcept@5
  0001c	45 33 c9	 xor	 r9d, r9d
  0001f	41 b8 64 00 00
	00		 mov	 r8d, 100		; 00000064H
  00025	48 8d 15 00 00
	00 00		 lea	 rdx, OFFSET FLAT:??_C@_0BI@DKIONFF@?4?4?2Objects?2exceptions?4c?$AA@
  0002c	48 8d 0d 00 00
	00 00		 lea	 rcx, OFFSET FLAT:??_C@_0BH@KIKAMKPB@BaseException_traverse?$AA@
  00033	e8 00 00 00 00	 call	 _PyParallel_ContextGuardFailure
$LN27@BaseExcept@5:
  00038	48 8b 44 24 50	 mov	 rax, QWORD PTR self$[rsp]
  0003d	48 83 78 60 00	 cmp	 QWORD PTR [rax+96], 0
  00042	74 26		 je	 SHORT $LN26@BaseExcept@5
  00044	48 8b 54 24 60	 mov	 rdx, QWORD PTR arg$[rsp]
  00049	48 8b 44 24 50	 mov	 rax, QWORD PTR self$[rsp]
  0004e	48 8b 48 60	 mov	 rcx, QWORD PTR [rax+96]
  00052	ff 54 24 58	 call	 QWORD PTR visit$[rsp]
  00056	89 44 24 20	 mov	 DWORD PTR vret$20457[rsp], eax
  0005a	83 7c 24 20 00	 cmp	 DWORD PTR vret$20457[rsp], 0
  0005f	74 09		 je	 SHORT $LN25@BaseExcept@5
  00061	8b 44 24 20	 mov	 eax, DWORD PTR vret$20457[rsp]
  00065	e9 7c 01 00 00	 jmp	 $LN31@BaseExcept@5
$LN25@BaseExcept@5:
$LN26@BaseExcept@5:
  0006a	33 c0		 xor	 eax, eax
  0006c	85 c0		 test	 eax, eax
  0006e	75 a3		 jne	 SHORT $LN30@BaseExcept@5
$LN24@BaseExcept@5:

; 101  :     Py_VISIT(self->args);

  00070	e8 00 00 00 00	 call	 _Py_PXCTX
  00075	85 c0		 test	 eax, eax
  00077	74 1c		 je	 SHORT $LN21@BaseExcept@5
  00079	45 33 c9	 xor	 r9d, r9d
  0007c	41 b8 65 00 00
	00		 mov	 r8d, 101		; 00000065H
  00082	48 8d 15 00 00
	00 00		 lea	 rdx, OFFSET FLAT:??_C@_0BI@DKIONFF@?4?4?2Objects?2exceptions?4c?$AA@
  00089	48 8d 0d 00 00
	00 00		 lea	 rcx, OFFSET FLAT:??_C@_0BH@KIKAMKPB@BaseException_traverse?$AA@
  00090	e8 00 00 00 00	 call	 _PyParallel_ContextGuardFailure
$LN21@BaseExcept@5:
  00095	48 8b 44 24 50	 mov	 rax, QWORD PTR self$[rsp]
  0009a	48 83 78 68 00	 cmp	 QWORD PTR [rax+104], 0
  0009f	74 26		 je	 SHORT $LN20@BaseExcept@5
  000a1	48 8b 54 24 60	 mov	 rdx, QWORD PTR arg$[rsp]
  000a6	48 8b 44 24 50	 mov	 rax, QWORD PTR self$[rsp]
  000ab	48 8b 48 68	 mov	 rcx, QWORD PTR [rax+104]
  000af	ff 54 24 58	 call	 QWORD PTR visit$[rsp]
  000b3	89 44 24 24	 mov	 DWORD PTR vret$20465[rsp], eax
  000b7	83 7c 24 24 00	 cmp	 DWORD PTR vret$20465[rsp], 0
  000bc	74 09		 je	 SHORT $LN19@BaseExcept@5
  000be	8b 44 24 24	 mov	 eax, DWORD PTR vret$20465[rsp]
  000c2	e9 1f 01 00 00	 jmp	 $LN31@BaseExcept@5
$LN19@BaseExcept@5:
$LN20@BaseExcept@5:
  000c7	33 c0		 xor	 eax, eax
  000c9	85 c0		 test	 eax, eax
  000cb	75 a3		 jne	 SHORT $LN24@BaseExcept@5
$LN18@BaseExcept@5:

; 102  :     Py_VISIT(self->traceback);

  000cd	e8 00 00 00 00	 call	 _Py_PXCTX
  000d2	85 c0		 test	 eax, eax
  000d4	74 1c		 je	 SHORT $LN15@BaseExcept@5
  000d6	45 33 c9	 xor	 r9d, r9d
  000d9	41 b8 66 00 00
	00		 mov	 r8d, 102		; 00000066H
  000df	48 8d 15 00 00
	00 00		 lea	 rdx, OFFSET FLAT:??_C@_0BI@DKIONFF@?4?4?2Objects?2exceptions?4c?$AA@
  000e6	48 8d 0d 00 00
	00 00		 lea	 rcx, OFFSET FLAT:??_C@_0BH@KIKAMKPB@BaseException_traverse?$AA@
  000ed	e8 00 00 00 00	 call	 _PyParallel_ContextGuardFailure
$LN15@BaseExcept@5:
  000f2	48 8b 44 24 50	 mov	 rax, QWORD PTR self$[rsp]
  000f7	48 83 78 70 00	 cmp	 QWORD PTR [rax+112], 0
  000fc	74 26		 je	 SHORT $LN14@BaseExcept@5
  000fe	48 8b 54 24 60	 mov	 rdx, QWORD PTR arg$[rsp]
  00103	48 8b 44 24 50	 mov	 rax, QWORD PTR self$[rsp]
  00108	48 8b 48 70	 mov	 rcx, QWORD PTR [rax+112]
  0010c	ff 54 24 58	 call	 QWORD PTR visit$[rsp]
  00110	89 44 24 28	 mov	 DWORD PTR vret$20473[rsp], eax
  00114	83 7c 24 28 00	 cmp	 DWORD PTR vret$20473[rsp], 0
  00119	74 09		 je	 SHORT $LN13@BaseExcept@5
  0011b	8b 44 24 28	 mov	 eax, DWORD PTR vret$20473[rsp]
  0011f	e9 c2 00 00 00	 jmp	 $LN31@BaseExcept@5
$LN13@BaseExcept@5:
$LN14@BaseExcept@5:
  00124	33 c0		 xor	 eax, eax
  00126	85 c0		 test	 eax, eax
  00128	75 a3		 jne	 SHORT $LN18@BaseExcept@5
$LN12@BaseExcept@5:

; 103  :     Py_VISIT(self->cause);

  0012a	e8 00 00 00 00	 call	 _Py_PXCTX
  0012f	85 c0		 test	 eax, eax
  00131	74 1c		 je	 SHORT $LN9@BaseExcept@5
  00133	45 33 c9	 xor	 r9d, r9d
  00136	41 b8 67 00 00
	00		 mov	 r8d, 103		; 00000067H
  0013c	48 8d 15 00 00
	00 00		 lea	 rdx, OFFSET FLAT:??_C@_0BI@DKIONFF@?4?4?2Objects?2exceptions?4c?$AA@
  00143	48 8d 0d 00 00
	00 00		 lea	 rcx, OFFSET FLAT:??_C@_0BH@KIKAMKPB@BaseException_traverse?$AA@
  0014a	e8 00 00 00 00	 call	 _PyParallel_ContextGuardFailure
$LN9@BaseExcept@5:
  0014f	48 8b 44 24 50	 mov	 rax, QWORD PTR self$[rsp]
  00154	48 83 b8 80 00
	00 00 00	 cmp	 QWORD PTR [rax+128], 0
  0015c	74 26		 je	 SHORT $LN8@BaseExcept@5
  0015e	48 8b 54 24 60	 mov	 rdx, QWORD PTR arg$[rsp]
  00163	48 8b 44 24 50	 mov	 rax, QWORD PTR self$[rsp]
  00168	48 8b 88 80 00
	00 00		 mov	 rcx, QWORD PTR [rax+128]
  0016f	ff 54 24 58	 call	 QWORD PTR visit$[rsp]
  00173	89 44 24 2c	 mov	 DWORD PTR vret$20481[rsp], eax
  00177	83 7c 24 2c 00	 cmp	 DWORD PTR vret$20481[rsp], 0
  0017c	74 06		 je	 SHORT $LN7@BaseExcept@5
  0017e	8b 44 24 2c	 mov	 eax, DWORD PTR vret$20481[rsp]
  00182	eb 62		 jmp	 SHORT $LN31@BaseExcept@5
$LN7@BaseExcept@5:
$LN8@BaseExcept@5:
  00184	33 c0		 xor	 eax, eax
  00186	85 c0		 test	 eax, eax
  00188	75 a0		 jne	 SHORT $LN12@BaseExcept@5
$LN6@BaseExcept@5:

; 104  :     Py_VISIT(self->context);

  0018a	e8 00 00 00 00	 call	 _Py_PXCTX
  0018f	85 c0		 test	 eax, eax
  00191	74 1c		 je	 SHORT $LN3@BaseExcept@5
  00193	45 33 c9	 xor	 r9d, r9d
  00196	41 b8 68 00 00
	00		 mov	 r8d, 104		; 00000068H
  0019c	48 8d 15 00 00
	00 00		 lea	 rdx, OFFSET FLAT:??_C@_0BI@DKIONFF@?4?4?2Objects?2exceptions?4c?$AA@
  001a3	48 8d 0d 00 00
	00 00		 lea	 rcx, OFFSET FLAT:??_C@_0BH@KIKAMKPB@BaseException_traverse?$AA@
  001aa	e8 00 00 00 00	 call	 _PyParallel_ContextGuardFailure
$LN3@BaseExcept@5:
  001af	48 8b 44 24 50	 mov	 rax, QWORD PTR self$[rsp]
  001b4	48 83 78 78 00	 cmp	 QWORD PTR [rax+120], 0
  001b9	74 23		 je	 SHORT $LN2@BaseExcept@5
  001bb	48 8b 54 24 60	 mov	 rdx, QWORD PTR arg$[rsp]
  001c0	48 8b 44 24 50	 mov	 rax, QWORD PTR self$[rsp]
  001c5	48 8b 48 78	 mov	 rcx, QWORD PTR [rax+120]
  001c9	ff 54 24 58	 call	 QWORD PTR visit$[rsp]
  001cd	89 44 24 30	 mov	 DWORD PTR vret$20489[rsp], eax
  001d1	83 7c 24 30 00	 cmp	 DWORD PTR vret$20489[rsp], 0
  001d6	74 06		 je	 SHORT $LN1@BaseExcept@5
  001d8	8b 44 24 30	 mov	 eax, DWORD PTR vret$20489[rsp]
  001dc	eb 08		 jmp	 SHORT $LN31@BaseExcept@5
$LN1@BaseExcept@5:
$LN2@BaseExcept@5:
  001de	33 c0		 xor	 eax, eax
  001e0	85 c0		 test	 eax, eax
  001e2	75 a6		 jne	 SHORT $LN6@BaseExcept@5

; 105  :     return 0;

  001e4	33 c0		 xor	 eax, eax
$LN31@BaseExcept@5:

; 106  : }

  001e6	48 83 c4 48	 add	 rsp, 72			; 00000048H
  001ea	c3		 ret	 0
BaseException_traverse ENDP
_TEXT	ENDS
PUBLIC	??_C@_00CNPNBAHC@?$AA@				; `string'
EXTRN	PyObject_Str:PROC
EXTRN	PyUnicode_FromString:PROC
;	COMDAT pdata
pdata	SEGMENT
$pdata$BaseException_str DD imagerel BaseException_str
	DD	imagerel BaseException_str+98
	DD	imagerel $unwind$BaseException_str
pdata	ENDS
;	COMDAT xdata
xdata	SEGMENT
$unwind$BaseException_str DD 010901H
	DD	06209H
xdata	ENDS
;	COMDAT ??_C@_00CNPNBAHC@?$AA@
CONST	SEGMENT
??_C@_00CNPNBAHC@?$AA@ DB 00H				; `string'
; Function compile flags: /Odtp
CONST	ENDS
;	COMDAT BaseException_str
_TEXT	SEGMENT
tv66 = 32
self$ = 64
BaseException_str PROC					; COMDAT

; 110  : {

  00000	48 89 4c 24 08	 mov	 QWORD PTR [rsp+8], rcx
  00005	48 83 ec 38	 sub	 rsp, 56			; 00000038H

; 111  :     switch (PyTuple_GET_SIZE(self->args)) {

  00009	48 8b 44 24 40	 mov	 rax, QWORD PTR self$[rsp]
  0000e	48 8b 40 68	 mov	 rax, QWORD PTR [rax+104]
  00012	48 8b 40 60	 mov	 rax, QWORD PTR [rax+96]
  00016	48 89 44 24 20	 mov	 QWORD PTR tv66[rsp], rax
  0001b	48 83 7c 24 20
	00		 cmp	 QWORD PTR tv66[rsp], 0
  00021	74 0a		 je	 SHORT $LN3@BaseExcept@6
  00023	48 83 7c 24 20
	01		 cmp	 QWORD PTR tv66[rsp], 1
  00029	74 10		 je	 SHORT $LN2@BaseExcept@6
  0002b	eb 22		 jmp	 SHORT $LN1@BaseExcept@6
$LN3@BaseExcept@6:

; 112  :     case 0:
; 113  :         return PyUnicode_FromString("");

  0002d	48 8d 0d 00 00
	00 00		 lea	 rcx, OFFSET FLAT:??_C@_00CNPNBAHC@?$AA@
  00034	e8 00 00 00 00	 call	 PyUnicode_FromString
  00039	eb 22		 jmp	 SHORT $LN6@BaseExcept@6
$LN2@BaseExcept@6:

; 114  :     case 1:
; 115  :         return PyObject_Str(PyTuple_GET_ITEM(self->args, 0));

  0003b	48 8b 44 24 40	 mov	 rax, QWORD PTR self$[rsp]
  00040	48 8b 40 68	 mov	 rax, QWORD PTR [rax+104]
  00044	48 8b 48 70	 mov	 rcx, QWORD PTR [rax+112]
  00048	e8 00 00 00 00	 call	 PyObject_Str
  0004d	eb 0e		 jmp	 SHORT $LN6@BaseExcept@6
$LN1@BaseExcept@6:

; 116  :     default:
; 117  :         return PyObject_Str(self->args);

  0004f	48 8b 44 24 40	 mov	 rax, QWORD PTR self$[rsp]
  00054	48 8b 48 68	 mov	 rcx, QWORD PTR [rax+104]
  00058	e8 00 00 00 00	 call	 PyObject_Str
$LN6@BaseExcept@6:

; 118  :     }
; 119  : }

  0005d	48 83 c4 38	 add	 rsp, 56			; 00000038H
  00061	c3		 ret	 0
BaseException_str ENDP
_TEXT	ENDS
PUBLIC	??_C@_04PPHNBMDJ@?$CFs?$CFR?$AA@		; `string'
EXTRN	PyUnicode_FromFormat:PROC
EXTRN	__imp_strrchr:PROC
;	COMDAT pdata
pdata	SEGMENT
$pdata$BaseException_repr DD imagerel BaseException_repr
	DD	imagerel BaseException_repr+100
	DD	imagerel $unwind$BaseException_repr
pdata	ENDS
;	COMDAT xdata
xdata	SEGMENT
$unwind$BaseException_repr DD 010901H
	DD	06209H
xdata	ENDS
;	COMDAT ??_C@_04PPHNBMDJ@?$CFs?$CFR?$AA@
CONST	SEGMENT
??_C@_04PPHNBMDJ@?$CFs?$CFR?$AA@ DB '%s%R', 00H		; `string'
; Function compile flags: /Odtp
CONST	ENDS
;	COMDAT BaseException_repr
_TEXT	SEGMENT
dot$ = 32
name$ = 40
self$ = 64
BaseException_repr PROC					; COMDAT

; 123  : {

  00000	48 89 4c 24 08	 mov	 QWORD PTR [rsp+8], rcx
  00005	48 83 ec 38	 sub	 rsp, 56			; 00000038H

; 124  :     char *name;
; 125  :     char *dot;
; 126  : 
; 127  :     name = (char *)Py_TYPE(self)->tp_name;

  00009	48 8b 44 24 40	 mov	 rax, QWORD PTR self$[rsp]
  0000e	48 8b 40 58	 mov	 rax, QWORD PTR [rax+88]
  00012	48 8b 40 70	 mov	 rax, QWORD PTR [rax+112]
  00016	48 89 44 24 28	 mov	 QWORD PTR name$[rsp], rax

; 128  :     dot = strrchr(name, '.');

  0001b	ba 2e 00 00 00	 mov	 edx, 46			; 0000002eH
  00020	48 8b 4c 24 28	 mov	 rcx, QWORD PTR name$[rsp]
  00025	ff 15 00 00 00
	00		 call	 QWORD PTR __imp_strrchr
  0002b	48 89 44 24 20	 mov	 QWORD PTR dot$[rsp], rax

; 129  :     if (dot != NULL) name = dot+1;

  00030	48 83 7c 24 20
	00		 cmp	 QWORD PTR dot$[rsp], 0
  00036	74 0d		 je	 SHORT $LN1@BaseExcept@7
  00038	48 8b 44 24 20	 mov	 rax, QWORD PTR dot$[rsp]
  0003d	48 ff c0	 inc	 rax
  00040	48 89 44 24 28	 mov	 QWORD PTR name$[rsp], rax
$LN1@BaseExcept@7:

; 130  : 
; 131  :     return PyUnicode_FromFormat("%s%R", name, self->args);

  00045	48 8b 44 24 40	 mov	 rax, QWORD PTR self$[rsp]
  0004a	4c 8b 40 68	 mov	 r8, QWORD PTR [rax+104]
  0004e	48 8b 54 24 28	 mov	 rdx, QWORD PTR name$[rsp]
  00053	48 8d 0d 00 00
	00 00		 lea	 rcx, OFFSET FLAT:??_C@_04PPHNBMDJ@?$CFs?$CFR?$AA@
  0005a	e8 00 00 00 00	 call	 PyUnicode_FromFormat

; 132  : }

  0005f	48 83 c4 38	 add	 rsp, 56			; 00000038H
  00063	c3		 ret	 0
BaseException_repr ENDP
_TEXT	ENDS
EXTRN	PyTuple_Pack:PROC
;	COMDAT pdata
pdata	SEGMENT
$pdata$BaseException_reduce DD imagerel BaseException_reduce
	DD	imagerel BaseException_reduce+107
	DD	imagerel $unwind$BaseException_reduce
pdata	ENDS
;	COMDAT xdata
xdata	SEGMENT
$unwind$BaseException_reduce DD 010901H
	DD	04209H
; Function compile flags: /Odtp
xdata	ENDS
;	COMDAT BaseException_reduce
_TEXT	SEGMENT
self$ = 48
BaseException_reduce PROC				; COMDAT

; 137  : {

  00000	48 89 4c 24 08	 mov	 QWORD PTR [rsp+8], rcx
  00005	48 83 ec 28	 sub	 rsp, 40			; 00000028H

; 138  :     if (self->args && self->dict)

  00009	48 8b 44 24 30	 mov	 rax, QWORD PTR self$[rsp]
  0000e	48 83 78 68 00	 cmp	 QWORD PTR [rax+104], 0
  00013	74 35		 je	 SHORT $LN2@BaseExcept@8
  00015	48 8b 44 24 30	 mov	 rax, QWORD PTR self$[rsp]
  0001a	48 83 78 60 00	 cmp	 QWORD PTR [rax+96], 0
  0001f	74 29		 je	 SHORT $LN2@BaseExcept@8

; 139  :         return PyTuple_Pack(3, Py_TYPE(self), self->args, self->dict);

  00021	48 8b 44 24 30	 mov	 rax, QWORD PTR self$[rsp]
  00026	4c 8b 48 60	 mov	 r9, QWORD PTR [rax+96]
  0002a	48 8b 44 24 30	 mov	 rax, QWORD PTR self$[rsp]
  0002f	4c 8b 40 68	 mov	 r8, QWORD PTR [rax+104]
  00033	48 8b 44 24 30	 mov	 rax, QWORD PTR self$[rsp]
  00038	48 8b 50 58	 mov	 rdx, QWORD PTR [rax+88]
  0003c	b9 03 00 00 00	 mov	 ecx, 3
  00041	e8 00 00 00 00	 call	 PyTuple_Pack
  00046	eb 1e		 jmp	 SHORT $LN3@BaseExcept@8

; 140  :     else

  00048	eb 1c		 jmp	 SHORT $LN1@BaseExcept@8
$LN2@BaseExcept@8:

; 141  :         return PyTuple_Pack(2, Py_TYPE(self), self->args);

  0004a	48 8b 44 24 30	 mov	 rax, QWORD PTR self$[rsp]
  0004f	4c 8b 40 68	 mov	 r8, QWORD PTR [rax+104]
  00053	48 8b 44 24 30	 mov	 rax, QWORD PTR self$[rsp]
  00058	48 8b 50 58	 mov	 rdx, QWORD PTR [rax+88]
  0005c	b9 02 00 00 00	 mov	 ecx, 2
  00061	e8 00 00 00 00	 call	 PyTuple_Pack
$LN1@BaseExcept@8:
$LN3@BaseExcept@8:

; 142  : }

  00066	48 83 c4 28	 add	 rsp, 40			; 00000028H
  0006a	c3		 ret	 0
BaseException_reduce ENDP
_TEXT	ENDS
PUBLIC	??_C@_0BK@BPIFALMC@state?5is?5not?5a?5dictionary?$AA@ ; `string'
EXTRN	PyObject_SetAttr:PROC
EXTRN	PyDict_Next:PROC
EXTRN	PyErr_SetString:PROC
EXTRN	_Py_NoneStruct:BYTE
;	COMDAT pdata
pdata	SEGMENT
$pdata$BaseException_setstate DD imagerel BaseException_setstate
	DD	imagerel BaseException_setstate+167
	DD	imagerel $unwind$BaseException_setstate
pdata	ENDS
;	COMDAT xdata
xdata	SEGMENT
$unwind$BaseException_setstate DD 010e01H
	DD	0820eH
xdata	ENDS
;	COMDAT ??_C@_0BK@BPIFALMC@state?5is?5not?5a?5dictionary?$AA@
CONST	SEGMENT
??_C@_0BK@BPIFALMC@state?5is?5not?5a?5dictionary?$AA@ DB 'state is not a '
	DB	'dictionary', 00H				; `string'
; Function compile flags: /Odtp
CONST	ENDS
;	COMDAT BaseException_setstate
_TEXT	SEGMENT
i$ = 32
d_key$ = 40
d_value$ = 48
self$ = 80
state$ = 88
BaseException_setstate PROC				; COMDAT

; 151  : {

  00000	48 89 54 24 10	 mov	 QWORD PTR [rsp+16], rdx
  00005	48 89 4c 24 08	 mov	 QWORD PTR [rsp+8], rcx
  0000a	48 83 ec 48	 sub	 rsp, 72			; 00000048H

; 152  :     PyObject *d_key, *d_value;
; 153  :     Py_ssize_t i = 0;

  0000e	48 c7 44 24 20
	00 00 00 00	 mov	 QWORD PTR i$[rsp], 0

; 154  : 
; 155  :     if (state != Py_None) {

  00017	48 8d 05 00 00
	00 00		 lea	 rax, OFFSET FLAT:_Py_NoneStruct
  0001e	48 39 44 24 58	 cmp	 QWORD PTR state$[rsp], rax
  00023	74 6a		 je	 SHORT $LN5@BaseExcept@9

; 156  :         if (!PyDict_Check(state)) {

  00025	48 8b 44 24 58	 mov	 rax, QWORD PTR state$[rsp]
  0002a	48 8b 40 58	 mov	 rax, QWORD PTR [rax+88]
  0002e	8b 80 00 01 00
	00		 mov	 eax, DWORD PTR [rax+256]
  00034	25 00 00 00 20	 and	 eax, 536870912		; 20000000H
  00039	85 c0		 test	 eax, eax
  0003b	75 17		 jne	 SHORT $LN4@BaseExcept@9

; 157  :             PyErr_SetString(PyExc_TypeError, "state is not a dictionary");

  0003d	48 8d 15 00 00
	00 00		 lea	 rdx, OFFSET FLAT:??_C@_0BK@BPIFALMC@state?5is?5not?5a?5dictionary?$AA@
  00044	48 8b 0d 00 00
	00 00		 mov	 rcx, QWORD PTR PyExc_TypeError
  0004b	e8 00 00 00 00	 call	 PyErr_SetString

; 158  :             return NULL;

  00050	33 c0		 xor	 eax, eax
  00052	eb 4e		 jmp	 SHORT $LN6@BaseExcept@9
$LN4@BaseExcept@9:
$LN3@BaseExcept@9:

; 159  :         }
; 160  :         while (PyDict_Next(state, &i, &d_key, &d_value)) {

  00054	4c 8d 4c 24 30	 lea	 r9, QWORD PTR d_value$[rsp]
  00059	4c 8d 44 24 28	 lea	 r8, QWORD PTR d_key$[rsp]
  0005e	48 8d 54 24 20	 lea	 rdx, QWORD PTR i$[rsp]
  00063	48 8b 4c 24 58	 mov	 rcx, QWORD PTR state$[rsp]
  00068	e8 00 00 00 00	 call	 PyDict_Next
  0006d	85 c0		 test	 eax, eax
  0006f	74 1e		 je	 SHORT $LN2@BaseExcept@9

; 161  :             if (PyObject_SetAttr(self, d_key, d_value) < 0)

  00071	4c 8b 44 24 30	 mov	 r8, QWORD PTR d_value$[rsp]
  00076	48 8b 54 24 28	 mov	 rdx, QWORD PTR d_key$[rsp]
  0007b	48 8b 4c 24 50	 mov	 rcx, QWORD PTR self$[rsp]
  00080	e8 00 00 00 00	 call	 PyObject_SetAttr
  00085	85 c0		 test	 eax, eax
  00087	7d 04		 jge	 SHORT $LN1@BaseExcept@9

; 162  :                 return NULL;

  00089	33 c0		 xor	 eax, eax
  0008b	eb 15		 jmp	 SHORT $LN6@BaseExcept@9
$LN1@BaseExcept@9:

; 163  :         }

  0008d	eb c5		 jmp	 SHORT $LN3@BaseExcept@9
$LN2@BaseExcept@9:
$LN5@BaseExcept@9:

; 164  :     }
; 165  :     Py_RETURN_NONE;

  0008f	48 8d 0d 00 00
	00 00		 lea	 rcx, OFFSET FLAT:_Py_NoneStruct
  00096	e8 00 00 00 00	 call	 _Py_IncRef
  0009b	48 8d 05 00 00
	00 00		 lea	 rax, OFFSET FLAT:_Py_NoneStruct
$LN6@BaseExcept@9:

; 166  : }

  000a2	48 83 c4 48	 add	 rsp, 72			; 00000048H
  000a6	c3		 ret	 0
BaseException_setstate ENDP
_TEXT	ENDS
PUBLIC	PyException_SetTraceback
;	COMDAT pdata
pdata	SEGMENT
$pdata$BaseException_with_traceback DD imagerel BaseException_with_traceback
	DD	imagerel BaseException_with_traceback+57
	DD	imagerel $unwind$BaseException_with_traceback
pdata	ENDS
;	COMDAT xdata
xdata	SEGMENT
$unwind$BaseException_with_traceback DD 010e01H
	DD	0420eH
; Function compile flags: /Odtp
xdata	ENDS
;	COMDAT BaseException_with_traceback
_TEXT	SEGMENT
self$ = 48
tb$ = 56
BaseException_with_traceback PROC			; COMDAT

; 169  : BaseException_with_traceback(PyObject *self, PyObject *tb) {

  00000	48 89 54 24 10	 mov	 QWORD PTR [rsp+16], rdx
  00005	48 89 4c 24 08	 mov	 QWORD PTR [rsp+8], rcx
  0000a	48 83 ec 28	 sub	 rsp, 40			; 00000028H

; 170  :     if (PyException_SetTraceback(self, tb))

  0000e	48 8b 54 24 38	 mov	 rdx, QWORD PTR tb$[rsp]
  00013	48 8b 4c 24 30	 mov	 rcx, QWORD PTR self$[rsp]
  00018	e8 00 00 00 00	 call	 PyException_SetTraceback
  0001d	85 c0		 test	 eax, eax
  0001f	74 04		 je	 SHORT $LN1@BaseExcept@10

; 171  :         return NULL;

  00021	33 c0		 xor	 eax, eax
  00023	eb 0f		 jmp	 SHORT $LN2@BaseExcept@10
$LN1@BaseExcept@10:

; 172  : 
; 173  :     Py_INCREF(self);

  00025	48 8b 4c 24 30	 mov	 rcx, QWORD PTR self$[rsp]
  0002a	e8 00 00 00 00	 call	 _Py_IncRef

; 174  :     return self;

  0002f	48 8b 44 24 30	 mov	 rax, QWORD PTR self$[rsp]
$LN2@BaseExcept@10:

; 175  : }

  00034	48 83 c4 28	 add	 rsp, 40			; 00000028H
  00038	c3		 ret	 0
BaseException_with_traceback ENDP
_TEXT	ENDS
;	COMDAT pdata
pdata	SEGMENT
$pdata$BaseException_get_args DD imagerel BaseException_get_args
	DD	imagerel BaseException_get_args+70
	DD	imagerel $unwind$BaseException_get_args
pdata	ENDS
;	COMDAT xdata
xdata	SEGMENT
$unwind$BaseException_get_args DD 010901H
	DD	04209H
; Function compile flags: /Odtp
xdata	ENDS
;	COMDAT BaseException_get_args
_TEXT	SEGMENT
self$ = 48
BaseException_get_args PROC				; COMDAT

; 192  : {

  00000	48 89 4c 24 08	 mov	 QWORD PTR [rsp+8], rcx
  00005	48 83 ec 28	 sub	 rsp, 40			; 00000028H

; 193  :     if (self->args == NULL) {

  00009	48 8b 44 24 30	 mov	 rax, QWORD PTR self$[rsp]
  0000e	48 83 78 68 00	 cmp	 QWORD PTR [rax+104], 0
  00013	75 15		 jne	 SHORT $LN1@BaseExcept@11

; 194  :         Py_INCREF(Py_None);

  00015	48 8d 0d 00 00
	00 00		 lea	 rcx, OFFSET FLAT:_Py_NoneStruct
  0001c	e8 00 00 00 00	 call	 _Py_IncRef

; 195  :         return Py_None;

  00021	48 8d 05 00 00
	00 00		 lea	 rax, OFFSET FLAT:_Py_NoneStruct
  00028	eb 17		 jmp	 SHORT $LN2@BaseExcept@11
$LN1@BaseExcept@11:

; 196  :     }
; 197  :     Py_INCREF(self->args);

  0002a	48 8b 44 24 30	 mov	 rax, QWORD PTR self$[rsp]
  0002f	48 8b 48 68	 mov	 rcx, QWORD PTR [rax+104]
  00033	e8 00 00 00 00	 call	 _Py_IncRef

; 198  :     return self->args;

  00038	48 8b 44 24 30	 mov	 rax, QWORD PTR self$[rsp]
  0003d	48 8b 40 68	 mov	 rax, QWORD PTR [rax+104]
$LN2@BaseExcept@11:

; 199  : }

  00041	48 83 c4 28	 add	 rsp, 40			; 00000028H
  00045	c3		 ret	 0
BaseException_get_args ENDP
_TEXT	ENDS
PUBLIC	??_C@_0BH@FNMNGACG@BaseException_set_args?$AA@	; `string'
PUBLIC	??_C@_0BI@GEBKNFED@args?5may?5not?5be?5deleted?$AA@ ; `string'
EXTRN	PySequence_Tuple:PROC
;	COMDAT pdata
pdata	SEGMENT
$pdata$BaseException_set_args DD imagerel BaseException_set_args
	DD	imagerel BaseException_set_args+203
	DD	imagerel $unwind$BaseException_set_args
pdata	ENDS
;	COMDAT xdata
xdata	SEGMENT
$unwind$BaseException_set_args DD 010e01H
	DD	0820eH
xdata	ENDS
;	COMDAT ??_C@_0BH@FNMNGACG@BaseException_set_args?$AA@
CONST	SEGMENT
??_C@_0BH@FNMNGACG@BaseException_set_args?$AA@ DB 'BaseException_set_args'
	DB	00H						; `string'
CONST	ENDS
;	COMDAT ??_C@_0BI@GEBKNFED@args?5may?5not?5be?5deleted?$AA@
CONST	SEGMENT
??_C@_0BI@GEBKNFED@args?5may?5not?5be?5deleted?$AA@ DB 'args may not be d'
	DB	'eleted', 00H				; `string'
; Function compile flags: /Odtp
CONST	ENDS
;	COMDAT BaseException_set_args
_TEXT	SEGMENT
seq$ = 48
_py_tmp$20589 = 56
self$ = 80
val$ = 88
BaseException_set_args PROC				; COMDAT

; 203  : {

  00000	48 89 54 24 10	 mov	 QWORD PTR [rsp+16], rdx
  00005	48 89 4c 24 08	 mov	 QWORD PTR [rsp+8], rcx
  0000a	48 83 ec 48	 sub	 rsp, 72			; 00000048H

; 204  :     PyObject *seq;
; 205  :     if (val == NULL) {

  0000e	48 83 7c 24 58
	00		 cmp	 QWORD PTR val$[rsp], 0
  00014	75 1d		 jne	 SHORT $LN6@BaseExcept@12

; 206  :         PyErr_SetString(PyExc_TypeError, "args may not be deleted");

  00016	48 8d 15 00 00
	00 00		 lea	 rdx, OFFSET FLAT:??_C@_0BI@GEBKNFED@args?5may?5not?5be?5deleted?$AA@
  0001d	48 8b 0d 00 00
	00 00		 mov	 rcx, QWORD PTR PyExc_TypeError
  00024	e8 00 00 00 00	 call	 PyErr_SetString

; 207  :         return -1;

  00029	b8 ff ff ff ff	 mov	 eax, -1
  0002e	e9 93 00 00 00	 jmp	 $LN7@BaseExcept@12
$LN6@BaseExcept@12:

; 208  :     }
; 209  :     seq = PySequence_Tuple(val);

  00033	48 8b 4c 24 58	 mov	 rcx, QWORD PTR val$[rsp]
  00038	e8 00 00 00 00	 call	 PySequence_Tuple
  0003d	48 89 44 24 30	 mov	 QWORD PTR seq$[rsp], rax

; 210  :     if (!seq)

  00042	48 83 7c 24 30
	00		 cmp	 QWORD PTR seq$[rsp], 0
  00048	75 07		 jne	 SHORT $LN5@BaseExcept@12

; 211  :         return -1;

  0004a	b8 ff ff ff ff	 mov	 eax, -1
  0004f	eb 75		 jmp	 SHORT $LN7@BaseExcept@12
$LN5@BaseExcept@12:
$LN4@BaseExcept@12:

; 212  :     Py_CLEAR(self->args);

  00051	48 8b 44 24 50	 mov	 rax, QWORD PTR self$[rsp]
  00056	48 83 78 68 00	 cmp	 QWORD PTR [rax+104], 0
  0005b	74 53		 je	 SHORT $LN1@BaseExcept@12
  0005d	c7 44 24 20 10
	00 00 00	 mov	 DWORD PTR [rsp+32], 16
  00065	48 8b 44 24 50	 mov	 rax, QWORD PTR self$[rsp]
  0006a	4c 8b 48 68	 mov	 r9, QWORD PTR [rax+104]
  0006e	41 b8 d4 00 00
	00		 mov	 r8d, 212		; 000000d4H
  00074	48 8d 15 00 00
	00 00		 lea	 rdx, OFFSET FLAT:??_C@_0BI@DKIONFF@?4?4?2Objects?2exceptions?4c?$AA@
  0007b	48 8d 0d 00 00
	00 00		 lea	 rcx, OFFSET FLAT:??_C@_0BH@FNMNGACG@BaseException_set_args?$AA@
  00082	e8 00 00 00 00	 call	 _PyParallel_Guard
  00087	85 c0		 test	 eax, eax
  00089	75 25		 jne	 SHORT $LN1@BaseExcept@12
  0008b	48 8b 44 24 50	 mov	 rax, QWORD PTR self$[rsp]
  00090	48 8b 40 68	 mov	 rax, QWORD PTR [rax+104]
  00094	48 89 44 24 38	 mov	 QWORD PTR _py_tmp$20589[rsp], rax
  00099	48 8b 44 24 50	 mov	 rax, QWORD PTR self$[rsp]
  0009e	48 c7 40 68 00
	00 00 00	 mov	 QWORD PTR [rax+104], 0
  000a6	48 8b 4c 24 38	 mov	 rcx, QWORD PTR _py_tmp$20589[rsp]
  000ab	e8 00 00 00 00	 call	 _Py_DecRef
$LN1@BaseExcept@12:
  000b0	33 c0		 xor	 eax, eax
  000b2	85 c0		 test	 eax, eax
  000b4	75 9b		 jne	 SHORT $LN4@BaseExcept@12

; 213  :     self->args = seq;

  000b6	48 8b 44 24 50	 mov	 rax, QWORD PTR self$[rsp]
  000bb	48 8b 4c 24 30	 mov	 rcx, QWORD PTR seq$[rsp]
  000c0	48 89 48 68	 mov	 QWORD PTR [rax+104], rcx

; 214  :     return 0;

  000c4	33 c0		 xor	 eax, eax
$LN7@BaseExcept@12:

; 215  : }

  000c6	48 83 c4 48	 add	 rsp, 72			; 00000048H
  000ca	c3		 ret	 0
BaseException_set_args ENDP
_TEXT	ENDS
;	COMDAT pdata
pdata	SEGMENT
$pdata$BaseException_get_tb DD imagerel BaseException_get_tb
	DD	imagerel BaseException_get_tb+70
	DD	imagerel $unwind$BaseException_get_tb
pdata	ENDS
;	COMDAT xdata
xdata	SEGMENT
$unwind$BaseException_get_tb DD 010901H
	DD	04209H
; Function compile flags: /Odtp
xdata	ENDS
;	COMDAT BaseException_get_tb
_TEXT	SEGMENT
self$ = 48
BaseException_get_tb PROC				; COMDAT

; 219  : {

  00000	48 89 4c 24 08	 mov	 QWORD PTR [rsp+8], rcx
  00005	48 83 ec 28	 sub	 rsp, 40			; 00000028H

; 220  :     if (self->traceback == NULL) {

  00009	48 8b 44 24 30	 mov	 rax, QWORD PTR self$[rsp]
  0000e	48 83 78 70 00	 cmp	 QWORD PTR [rax+112], 0
  00013	75 15		 jne	 SHORT $LN1@BaseExcept@13

; 221  :         Py_INCREF(Py_None);

  00015	48 8d 0d 00 00
	00 00		 lea	 rcx, OFFSET FLAT:_Py_NoneStruct
  0001c	e8 00 00 00 00	 call	 _Py_IncRef

; 222  :         return Py_None;

  00021	48 8d 05 00 00
	00 00		 lea	 rax, OFFSET FLAT:_Py_NoneStruct
  00028	eb 17		 jmp	 SHORT $LN2@BaseExcept@13
$LN1@BaseExcept@13:

; 223  :     }
; 224  :     Py_INCREF(self->traceback);

  0002a	48 8b 44 24 30	 mov	 rax, QWORD PTR self$[rsp]
  0002f	48 8b 48 70	 mov	 rcx, QWORD PTR [rax+112]
  00033	e8 00 00 00 00	 call	 _Py_IncRef

; 225  :     return self->traceback;

  00038	48 8b 44 24 30	 mov	 rax, QWORD PTR self$[rsp]
  0003d	48 8b 40 70	 mov	 rax, QWORD PTR [rax+112]
$LN2@BaseExcept@13:

; 226  : }

  00041	48 83 c4 28	 add	 rsp, 40			; 00000028H
  00045	c3		 ret	 0
BaseException_get_tb ENDP
_TEXT	ENDS
PUBLIC	??_C@_0CK@DDGILAGJ@__traceback__?5must?5be?5a?5tracebac@ ; `string'
PUBLIC	??_C@_0CB@EGAPKDAG@__traceback__?5may?5not?5be?5deleted@ ; `string'
EXTRN	PyTraceBack_Type:BYTE
;	COMDAT pdata
pdata	SEGMENT
$pdata$BaseException_set_tb DD imagerel BaseException_set_tb
	DD	imagerel BaseException_set_tb+188
	DD	imagerel $unwind$BaseException_set_tb
pdata	ENDS
;	COMDAT xdata
xdata	SEGMENT
$unwind$BaseException_set_tb DD 010e01H
	DD	0420eH
xdata	ENDS
;	COMDAT ??_C@_0CK@DDGILAGJ@__traceback__?5must?5be?5a?5tracebac@
CONST	SEGMENT
??_C@_0CK@DDGILAGJ@__traceback__?5must?5be?5a?5tracebac@ DB '__traceback_'
	DB	'_ must be a traceback or None', 00H		; `string'
CONST	ENDS
;	COMDAT ??_C@_0CB@EGAPKDAG@__traceback__?5may?5not?5be?5deleted@
CONST	SEGMENT
??_C@_0CB@EGAPKDAG@__traceback__?5may?5not?5be?5deleted@ DB '__traceback_'
	DB	'_ may not be deleted', 00H			; `string'
; Function compile flags: /Odtp
CONST	ENDS
;	COMDAT BaseException_set_tb
_TEXT	SEGMENT
self$ = 48
tb$ = 56
BaseException_set_tb PROC				; COMDAT

; 230  : {

  00000	48 89 54 24 10	 mov	 QWORD PTR [rsp+16], rdx
  00005	48 89 4c 24 08	 mov	 QWORD PTR [rsp+8], rcx
  0000a	48 83 ec 28	 sub	 rsp, 40			; 00000028H

; 231  :     if (tb == NULL) {

  0000e	48 83 7c 24 38
	00		 cmp	 QWORD PTR tb$[rsp], 0
  00014	75 1f		 jne	 SHORT $LN11@BaseExcept@14

; 232  :         PyErr_SetString(PyExc_TypeError, "__traceback__ may not be deleted");

  00016	48 8d 15 00 00
	00 00		 lea	 rdx, OFFSET FLAT:??_C@_0CB@EGAPKDAG@__traceback__?5may?5not?5be?5deleted@
  0001d	48 8b 0d 00 00
	00 00		 mov	 rcx, QWORD PTR PyExc_TypeError
  00024	e8 00 00 00 00	 call	 PyErr_SetString

; 233  :         return -1;

  00029	b8 ff ff ff ff	 mov	 eax, -1
  0002e	e9 84 00 00 00	 jmp	 $LN12@BaseExcept@14
  00033	eb 3a		 jmp	 SHORT $LN10@BaseExcept@14
$LN11@BaseExcept@14:

; 234  :     }
; 235  :     else if (!(tb == Py_None || PyTraceBack_Check(tb))) {

  00035	48 8d 05 00 00
	00 00		 lea	 rax, OFFSET FLAT:_Py_NoneStruct
  0003c	48 39 44 24 38	 cmp	 QWORD PTR tb$[rsp], rax
  00041	74 2c		 je	 SHORT $LN9@BaseExcept@14
  00043	48 8d 05 00 00
	00 00		 lea	 rax, OFFSET FLAT:PyTraceBack_Type
  0004a	48 8b 4c 24 38	 mov	 rcx, QWORD PTR tb$[rsp]
  0004f	48 39 41 58	 cmp	 QWORD PTR [rcx+88], rax
  00053	74 1a		 je	 SHORT $LN9@BaseExcept@14

; 236  :         PyErr_SetString(PyExc_TypeError,
; 237  :                         "__traceback__ must be a traceback or None");

  00055	48 8d 15 00 00
	00 00		 lea	 rdx, OFFSET FLAT:??_C@_0CK@DDGILAGJ@__traceback__?5must?5be?5a?5tracebac@
  0005c	48 8b 0d 00 00
	00 00		 mov	 rcx, QWORD PTR PyExc_TypeError
  00063	e8 00 00 00 00	 call	 PyErr_SetString

; 238  :         return -1;

  00068	b8 ff ff ff ff	 mov	 eax, -1
  0006d	eb 48		 jmp	 SHORT $LN12@BaseExcept@14
$LN9@BaseExcept@14:
$LN10@BaseExcept@14:
$LN8@BaseExcept@14:

; 239  :     }
; 240  : 
; 241  :     Py_XINCREF(tb);

  0006f	48 83 7c 24 38
	00		 cmp	 QWORD PTR tb$[rsp], 0
  00075	74 0a		 je	 SHORT $LN5@BaseExcept@14
  00077	48 8b 4c 24 38	 mov	 rcx, QWORD PTR tb$[rsp]
  0007c	e8 00 00 00 00	 call	 _Py_IncRef
$LN5@BaseExcept@14:
  00081	33 c0		 xor	 eax, eax
  00083	85 c0		 test	 eax, eax
  00085	75 e8		 jne	 SHORT $LN8@BaseExcept@14
$LN4@BaseExcept@14:

; 242  :     Py_XDECREF(self->traceback);

  00087	48 8b 44 24 30	 mov	 rax, QWORD PTR self$[rsp]
  0008c	48 83 78 70 00	 cmp	 QWORD PTR [rax+112], 0
  00091	74 0e		 je	 SHORT $LN1@BaseExcept@14
  00093	48 8b 44 24 30	 mov	 rax, QWORD PTR self$[rsp]
  00098	48 8b 48 70	 mov	 rcx, QWORD PTR [rax+112]
  0009c	e8 00 00 00 00	 call	 _Py_DecRef
$LN1@BaseExcept@14:
  000a1	33 c0		 xor	 eax, eax
  000a3	85 c0		 test	 eax, eax
  000a5	75 e0		 jne	 SHORT $LN4@BaseExcept@14

; 243  :     self->traceback = tb;

  000a7	48 8b 44 24 30	 mov	 rax, QWORD PTR self$[rsp]
  000ac	48 8b 4c 24 38	 mov	 rcx, QWORD PTR tb$[rsp]
  000b1	48 89 48 70	 mov	 QWORD PTR [rax+112], rcx

; 244  :     return 0;

  000b5	33 c0		 xor	 eax, eax
$LN12@BaseExcept@14:

; 245  : }

  000b7	48 83 c4 28	 add	 rsp, 40			; 00000028H
  000bb	c3		 ret	 0
BaseException_set_tb ENDP
_TEXT	ENDS
PUBLIC	PyException_GetContext
;	COMDAT pdata
pdata	SEGMENT
$pdata$BaseException_get_context DD imagerel BaseException_get_context
	DD	imagerel BaseException_get_context+63
	DD	imagerel $unwind$BaseException_get_context
pdata	ENDS
;	COMDAT xdata
xdata	SEGMENT
$unwind$BaseException_get_context DD 010901H
	DD	06209H
; Function compile flags: /Odtp
xdata	ENDS
;	COMDAT BaseException_get_context
_TEXT	SEGMENT
res$ = 32
self$ = 64
BaseException_get_context PROC				; COMDAT

; 248  : BaseException_get_context(PyObject *self) {

  00000	48 89 4c 24 08	 mov	 QWORD PTR [rsp+8], rcx
  00005	48 83 ec 38	 sub	 rsp, 56			; 00000038H

; 249  :     PyObject *res = PyException_GetContext(self);

  00009	48 8b 4c 24 40	 mov	 rcx, QWORD PTR self$[rsp]
  0000e	e8 00 00 00 00	 call	 PyException_GetContext
  00013	48 89 44 24 20	 mov	 QWORD PTR res$[rsp], rax

; 250  :     if (res)

  00018	48 83 7c 24 20
	00		 cmp	 QWORD PTR res$[rsp], 0
  0001e	74 07		 je	 SHORT $LN1@BaseExcept@15

; 251  :         return res;  /* new reference already returned above */

  00020	48 8b 44 24 20	 mov	 rax, QWORD PTR res$[rsp]
  00025	eb 13		 jmp	 SHORT $LN2@BaseExcept@15
$LN1@BaseExcept@15:

; 252  :     Py_RETURN_NONE;

  00027	48 8d 0d 00 00
	00 00		 lea	 rcx, OFFSET FLAT:_Py_NoneStruct
  0002e	e8 00 00 00 00	 call	 _Py_IncRef
  00033	48 8d 05 00 00
	00 00		 lea	 rax, OFFSET FLAT:_Py_NoneStruct
$LN2@BaseExcept@15:

; 253  : }

  0003a	48 83 c4 38	 add	 rsp, 56			; 00000038H
  0003e	c3		 ret	 0
BaseException_get_context ENDP
_TEXT	ENDS
PUBLIC	PyException_SetContext
PUBLIC	??_C@_0DM@EKFEABFK@exception?5context?5must?5be?5None?5o@ ; `string'
PUBLIC	??_C@_0BP@KFHGPADI@__context__?5may?5not?5be?5deleted?$AA@ ; `string'
;	COMDAT pdata
pdata	SEGMENT
$pdata$BaseException_set_context DD imagerel BaseException_set_context
	DD	imagerel BaseException_set_context+159
	DD	imagerel $unwind$BaseException_set_context
pdata	ENDS
;	COMDAT xdata
xdata	SEGMENT
$unwind$BaseException_set_context DD 010e01H
	DD	0420eH
xdata	ENDS
;	COMDAT ??_C@_0DM@EKFEABFK@exception?5context?5must?5be?5None?5o@
CONST	SEGMENT
??_C@_0DM@EKFEABFK@exception?5context?5must?5be?5None?5o@ DB 'exception c'
	DB	'ontext must be None or derive from BaseException', 00H ; `string'
CONST	ENDS
;	COMDAT ??_C@_0BP@KFHGPADI@__context__?5may?5not?5be?5deleted?$AA@
CONST	SEGMENT
??_C@_0BP@KFHGPADI@__context__?5may?5not?5be?5deleted?$AA@ DB '__context_'
	DB	'_ may not be deleted', 00H			; `string'
; Function compile flags: /Odtp
CONST	ENDS
;	COMDAT BaseException_set_context
_TEXT	SEGMENT
self$ = 48
arg$ = 56
BaseException_set_context PROC				; COMDAT

; 256  : BaseException_set_context(PyObject *self, PyObject *arg) {

  00000	48 89 54 24 10	 mov	 QWORD PTR [rsp+16], rdx
  00005	48 89 4c 24 08	 mov	 QWORD PTR [rsp+8], rcx
  0000a	48 83 ec 28	 sub	 rsp, 40			; 00000028H

; 257  :     if (arg == NULL) {

  0000e	48 83 7c 24 38
	00		 cmp	 QWORD PTR arg$[rsp], 0
  00014	75 1c		 jne	 SHORT $LN6@BaseExcept@16

; 258  :         PyErr_SetString(PyExc_TypeError, "__context__ may not be deleted");

  00016	48 8d 15 00 00
	00 00		 lea	 rdx, OFFSET FLAT:??_C@_0BP@KFHGPADI@__context__?5may?5not?5be?5deleted?$AA@
  0001d	48 8b 0d 00 00
	00 00		 mov	 rcx, QWORD PTR PyExc_TypeError
  00024	e8 00 00 00 00	 call	 PyErr_SetString

; 259  :         return -1;

  00029	b8 ff ff ff ff	 mov	 eax, -1
  0002e	eb 6a		 jmp	 SHORT $LN7@BaseExcept@16
  00030	eb 57		 jmp	 SHORT $LN5@BaseExcept@16
$LN6@BaseExcept@16:

; 260  :     } else if (arg == Py_None) {

  00032	48 8d 05 00 00
	00 00		 lea	 rax, OFFSET FLAT:_Py_NoneStruct
  00039	48 39 44 24 38	 cmp	 QWORD PTR arg$[rsp], rax
  0003e	75 0b		 jne	 SHORT $LN4@BaseExcept@16

; 261  :         arg = NULL;

  00040	48 c7 44 24 38
	00 00 00 00	 mov	 QWORD PTR arg$[rsp], 0
  00049	eb 3e		 jmp	 SHORT $LN3@BaseExcept@16
$LN4@BaseExcept@16:

; 262  :     } else if (!PyExceptionInstance_Check(arg)) {

  0004b	48 8b 44 24 38	 mov	 rax, QWORD PTR arg$[rsp]
  00050	48 8b 40 58	 mov	 rax, QWORD PTR [rax+88]
  00054	8b 80 00 01 00
	00		 mov	 eax, DWORD PTR [rax+256]
  0005a	25 00 00 00 40	 and	 eax, 1073741824		; 40000000H
  0005f	85 c0		 test	 eax, eax
  00061	75 1c		 jne	 SHORT $LN2@BaseExcept@16

; 263  :         PyErr_SetString(PyExc_TypeError, "exception context must be None "
; 264  :                         "or derive from BaseException");

  00063	48 8d 15 00 00
	00 00		 lea	 rdx, OFFSET FLAT:??_C@_0DM@EKFEABFK@exception?5context?5must?5be?5None?5o@
  0006a	48 8b 0d 00 00
	00 00		 mov	 rcx, QWORD PTR PyExc_TypeError
  00071	e8 00 00 00 00	 call	 PyErr_SetString

; 265  :         return -1;

  00076	b8 ff ff ff ff	 mov	 eax, -1
  0007b	eb 1d		 jmp	 SHORT $LN7@BaseExcept@16

; 266  :     } else {

  0007d	eb 0a		 jmp	 SHORT $LN1@BaseExcept@16
$LN2@BaseExcept@16:

; 267  :         /* PyException_SetContext steals this reference */
; 268  :         Py_INCREF(arg);

  0007f	48 8b 4c 24 38	 mov	 rcx, QWORD PTR arg$[rsp]
  00084	e8 00 00 00 00	 call	 _Py_IncRef
$LN1@BaseExcept@16:
$LN3@BaseExcept@16:
$LN5@BaseExcept@16:

; 269  :     }
; 270  :     PyException_SetContext(self, arg);

  00089	48 8b 54 24 38	 mov	 rdx, QWORD PTR arg$[rsp]
  0008e	48 8b 4c 24 30	 mov	 rcx, QWORD PTR self$[rsp]
  00093	e8 00 00 00 00	 call	 PyException_SetContext

; 271  :     return 0;

  00098	33 c0		 xor	 eax, eax
$LN7@BaseExcept@16:

; 272  : }

  0009a	48 83 c4 28	 add	 rsp, 40			; 00000028H
  0009e	c3		 ret	 0
BaseException_set_context ENDP
_TEXT	ENDS
PUBLIC	PyException_GetCause
;	COMDAT pdata
pdata	SEGMENT
$pdata$BaseException_get_cause DD imagerel BaseException_get_cause
	DD	imagerel BaseException_get_cause+63
	DD	imagerel $unwind$BaseException_get_cause
pdata	ENDS
;	COMDAT xdata
xdata	SEGMENT
$unwind$BaseException_get_cause DD 010901H
	DD	06209H
; Function compile flags: /Odtp
xdata	ENDS
;	COMDAT BaseException_get_cause
_TEXT	SEGMENT
res$ = 32
self$ = 64
BaseException_get_cause PROC				; COMDAT

; 275  : BaseException_get_cause(PyObject *self) {

  00000	48 89 4c 24 08	 mov	 QWORD PTR [rsp+8], rcx
  00005	48 83 ec 38	 sub	 rsp, 56			; 00000038H

; 276  :     PyObject *res = PyException_GetCause(self);

  00009	48 8b 4c 24 40	 mov	 rcx, QWORD PTR self$[rsp]
  0000e	e8 00 00 00 00	 call	 PyException_GetCause
  00013	48 89 44 24 20	 mov	 QWORD PTR res$[rsp], rax

; 277  :     if (res)

  00018	48 83 7c 24 20
	00		 cmp	 QWORD PTR res$[rsp], 0
  0001e	74 07		 je	 SHORT $LN1@BaseExcept@17

; 278  :         return res;  /* new reference already returned above */

  00020	48 8b 44 24 20	 mov	 rax, QWORD PTR res$[rsp]
  00025	eb 13		 jmp	 SHORT $LN2@BaseExcept@17
$LN1@BaseExcept@17:

; 279  :     Py_RETURN_NONE;

  00027	48 8d 0d 00 00
	00 00		 lea	 rcx, OFFSET FLAT:_Py_NoneStruct
  0002e	e8 00 00 00 00	 call	 _Py_IncRef
  00033	48 8d 05 00 00
	00 00		 lea	 rax, OFFSET FLAT:_Py_NoneStruct
$LN2@BaseExcept@17:

; 280  : }

  0003a	48 83 c4 38	 add	 rsp, 56			; 00000038H
  0003e	c3		 ret	 0
BaseException_get_cause ENDP
_TEXT	ENDS
PUBLIC	PyException_SetCause
PUBLIC	??_C@_0DK@EFOGLGHG@exception?5cause?5must?5be?5None?5or?5@ ; `string'
PUBLIC	??_C@_0BN@PKFHNKCD@__cause__?5may?5not?5be?5deleted?$AA@ ; `string'
;	COMDAT pdata
pdata	SEGMENT
$pdata$BaseException_set_cause DD imagerel BaseException_set_cause
	DD	imagerel BaseException_set_cause+159
	DD	imagerel $unwind$BaseException_set_cause
pdata	ENDS
;	COMDAT xdata
xdata	SEGMENT
$unwind$BaseException_set_cause DD 010e01H
	DD	0420eH
xdata	ENDS
;	COMDAT ??_C@_0DK@EFOGLGHG@exception?5cause?5must?5be?5None?5or?5@
CONST	SEGMENT
??_C@_0DK@EFOGLGHG@exception?5cause?5must?5be?5None?5or?5@ DB 'exception '
	DB	'cause must be None or derive from BaseException', 00H ; `string'
CONST	ENDS
;	COMDAT ??_C@_0BN@PKFHNKCD@__cause__?5may?5not?5be?5deleted?$AA@
CONST	SEGMENT
??_C@_0BN@PKFHNKCD@__cause__?5may?5not?5be?5deleted?$AA@ DB '__cause__ ma'
	DB	'y not be deleted', 00H			; `string'
; Function compile flags: /Odtp
CONST	ENDS
;	COMDAT BaseException_set_cause
_TEXT	SEGMENT
self$ = 48
arg$ = 56
BaseException_set_cause PROC				; COMDAT

; 283  : BaseException_set_cause(PyObject *self, PyObject *arg) {

  00000	48 89 54 24 10	 mov	 QWORD PTR [rsp+16], rdx
  00005	48 89 4c 24 08	 mov	 QWORD PTR [rsp+8], rcx
  0000a	48 83 ec 28	 sub	 rsp, 40			; 00000028H

; 284  :     if (arg == NULL) {

  0000e	48 83 7c 24 38
	00		 cmp	 QWORD PTR arg$[rsp], 0
  00014	75 1c		 jne	 SHORT $LN6@BaseExcept@18

; 285  :         PyErr_SetString(PyExc_TypeError, "__cause__ may not be deleted");

  00016	48 8d 15 00 00
	00 00		 lea	 rdx, OFFSET FLAT:??_C@_0BN@PKFHNKCD@__cause__?5may?5not?5be?5deleted?$AA@
  0001d	48 8b 0d 00 00
	00 00		 mov	 rcx, QWORD PTR PyExc_TypeError
  00024	e8 00 00 00 00	 call	 PyErr_SetString

; 286  :         return -1;

  00029	b8 ff ff ff ff	 mov	 eax, -1
  0002e	eb 6a		 jmp	 SHORT $LN7@BaseExcept@18
  00030	eb 57		 jmp	 SHORT $LN5@BaseExcept@18
$LN6@BaseExcept@18:

; 287  :     } else if (arg == Py_None) {

  00032	48 8d 05 00 00
	00 00		 lea	 rax, OFFSET FLAT:_Py_NoneStruct
  00039	48 39 44 24 38	 cmp	 QWORD PTR arg$[rsp], rax
  0003e	75 0b		 jne	 SHORT $LN4@BaseExcept@18

; 288  :         arg = NULL;

  00040	48 c7 44 24 38
	00 00 00 00	 mov	 QWORD PTR arg$[rsp], 0
  00049	eb 3e		 jmp	 SHORT $LN3@BaseExcept@18
$LN4@BaseExcept@18:

; 289  :     } else if (!PyExceptionInstance_Check(arg)) {

  0004b	48 8b 44 24 38	 mov	 rax, QWORD PTR arg$[rsp]
  00050	48 8b 40 58	 mov	 rax, QWORD PTR [rax+88]
  00054	8b 80 00 01 00
	00		 mov	 eax, DWORD PTR [rax+256]
  0005a	25 00 00 00 40	 and	 eax, 1073741824		; 40000000H
  0005f	85 c0		 test	 eax, eax
  00061	75 1c		 jne	 SHORT $LN2@BaseExcept@18

; 290  :         PyErr_SetString(PyExc_TypeError, "exception cause must be None "
; 291  :                         "or derive from BaseException");

  00063	48 8d 15 00 00
	00 00		 lea	 rdx, OFFSET FLAT:??_C@_0DK@EFOGLGHG@exception?5cause?5must?5be?5None?5or?5@
  0006a	48 8b 0d 00 00
	00 00		 mov	 rcx, QWORD PTR PyExc_TypeError
  00071	e8 00 00 00 00	 call	 PyErr_SetString

; 292  :         return -1;

  00076	b8 ff ff ff ff	 mov	 eax, -1
  0007b	eb 1d		 jmp	 SHORT $LN7@BaseExcept@18

; 293  :     } else {

  0007d	eb 0a		 jmp	 SHORT $LN1@BaseExcept@18
$LN2@BaseExcept@18:

; 294  :         /* PyException_SetCause steals this reference */
; 295  :         Py_INCREF(arg);

  0007f	48 8b 4c 24 38	 mov	 rcx, QWORD PTR arg$[rsp]
  00084	e8 00 00 00 00	 call	 _Py_IncRef
$LN1@BaseExcept@18:
$LN3@BaseExcept@18:
$LN5@BaseExcept@18:

; 296  :     }
; 297  :     PyException_SetCause(self, arg);

  00089	48 8b 54 24 38	 mov	 rdx, QWORD PTR arg$[rsp]
  0008e	48 8b 4c 24 30	 mov	 rcx, QWORD PTR self$[rsp]
  00093	e8 00 00 00 00	 call	 PyException_SetCause

; 298  :     return 0;

  00098	33 c0		 xor	 eax, eax
$LN7@BaseExcept@18:

; 299  : }

  0009a	48 83 c4 28	 add	 rsp, 40			; 00000028H
  0009e	c3		 ret	 0
BaseException_set_cause ENDP
_TEXT	ENDS
PUBLIC	PyException_GetTraceback
;	COMDAT pdata
pdata	SEGMENT
$pdata$PyException_GetTraceback DD imagerel $LN7
	DD	imagerel $LN7+65
	DD	imagerel $unwind$PyException_GetTraceback
pdata	ENDS
;	COMDAT xdata
xdata	SEGMENT
$unwind$PyException_GetTraceback DD 010901H
	DD	06209H
; Function compile flags: /Odtp
xdata	ENDS
;	COMDAT PyException_GetTraceback
_TEXT	SEGMENT
base_self$ = 32
self$ = 64
PyException_GetTraceback PROC				; COMDAT

; 315  : PyException_GetTraceback(PyObject *self) {

$LN7:
  00000	48 89 4c 24 08	 mov	 QWORD PTR [rsp+8], rcx
  00005	48 83 ec 38	 sub	 rsp, 56			; 00000038H

; 316  :     PyBaseExceptionObject *base_self = (PyBaseExceptionObject *)self;

  00009	48 8b 44 24 40	 mov	 rax, QWORD PTR self$[rsp]
  0000e	48 89 44 24 20	 mov	 QWORD PTR base_self$[rsp], rax
$LN4@PyExceptio:

; 317  :     Py_XINCREF(base_self->traceback);

  00013	48 8b 44 24 20	 mov	 rax, QWORD PTR base_self$[rsp]
  00018	48 83 78 70 00	 cmp	 QWORD PTR [rax+112], 0
  0001d	74 0e		 je	 SHORT $LN1@PyExceptio
  0001f	48 8b 44 24 20	 mov	 rax, QWORD PTR base_self$[rsp]
  00024	48 8b 48 70	 mov	 rcx, QWORD PTR [rax+112]
  00028	e8 00 00 00 00	 call	 _Py_IncRef
$LN1@PyExceptio:
  0002d	33 c0		 xor	 eax, eax
  0002f	85 c0		 test	 eax, eax
  00031	75 e0		 jne	 SHORT $LN4@PyExceptio

; 318  :     return base_self->traceback;

  00033	48 8b 44 24 20	 mov	 rax, QWORD PTR base_self$[rsp]
  00038	48 8b 40 70	 mov	 rax, QWORD PTR [rax+112]

; 319  : }

  0003c	48 83 c4 38	 add	 rsp, 56			; 00000038H
  00040	c3		 ret	 0
PyException_GetTraceback ENDP
_TEXT	ENDS
;	COMDAT pdata
pdata	SEGMENT
$pdata$PyException_SetTraceback DD imagerel $LN3
	DD	imagerel $LN3+34
	DD	imagerel $unwind$PyException_SetTraceback
pdata	ENDS
;	COMDAT xdata
xdata	SEGMENT
$unwind$PyException_SetTraceback DD 010e01H
	DD	0420eH
; Function compile flags: /Odtp
xdata	ENDS
;	COMDAT PyException_SetTraceback
_TEXT	SEGMENT
self$ = 48
tb$ = 56
PyException_SetTraceback PROC				; COMDAT

; 323  : PyException_SetTraceback(PyObject *self, PyObject *tb) {

$LN3:
  00000	48 89 54 24 10	 mov	 QWORD PTR [rsp+16], rdx
  00005	48 89 4c 24 08	 mov	 QWORD PTR [rsp+8], rcx
  0000a	48 83 ec 28	 sub	 rsp, 40			; 00000028H

; 324  :     return BaseException_set_tb((PyBaseExceptionObject *)self, tb);

  0000e	48 8b 54 24 38	 mov	 rdx, QWORD PTR tb$[rsp]
  00013	48 8b 4c 24 30	 mov	 rcx, QWORD PTR self$[rsp]
  00018	e8 00 00 00 00	 call	 BaseException_set_tb

; 325  : }

  0001d	48 83 c4 28	 add	 rsp, 40			; 00000028H
  00021	c3		 ret	 0
PyException_SetTraceback ENDP
_TEXT	ENDS
;	COMDAT pdata
pdata	SEGMENT
$pdata$PyException_GetCause DD imagerel $LN7
	DD	imagerel $LN7+60
	DD	imagerel $unwind$PyException_GetCause
pdata	ENDS
;	COMDAT xdata
xdata	SEGMENT
$unwind$PyException_GetCause DD 010901H
	DD	06209H
; Function compile flags: /Odtp
xdata	ENDS
;	COMDAT PyException_GetCause
_TEXT	SEGMENT
cause$ = 32
self$ = 64
PyException_GetCause PROC				; COMDAT

; 328  : PyException_GetCause(PyObject *self) {

$LN7:
  00000	48 89 4c 24 08	 mov	 QWORD PTR [rsp+8], rcx
  00005	48 83 ec 38	 sub	 rsp, 56			; 00000038H

; 329  :     PyObject *cause = ((PyBaseExceptionObject *)self)->cause;

  00009	48 8b 44 24 40	 mov	 rax, QWORD PTR self$[rsp]
  0000e	48 8b 80 80 00
	00 00		 mov	 rax, QWORD PTR [rax+128]
  00015	48 89 44 24 20	 mov	 QWORD PTR cause$[rsp], rax
$LN4@PyExceptio@2:

; 330  :     Py_XINCREF(cause);

  0001a	48 83 7c 24 20
	00		 cmp	 QWORD PTR cause$[rsp], 0
  00020	74 0a		 je	 SHORT $LN1@PyExceptio@2
  00022	48 8b 4c 24 20	 mov	 rcx, QWORD PTR cause$[rsp]
  00027	e8 00 00 00 00	 call	 _Py_IncRef
$LN1@PyExceptio@2:
  0002c	33 c0		 xor	 eax, eax
  0002e	85 c0		 test	 eax, eax
  00030	75 e8		 jne	 SHORT $LN4@PyExceptio@2

; 331  :     return cause;

  00032	48 8b 44 24 20	 mov	 rax, QWORD PTR cause$[rsp]

; 332  : }

  00037	48 83 c4 38	 add	 rsp, 56			; 00000038H
  0003b	c3		 ret	 0
PyException_GetCause ENDP
_TEXT	ENDS
;	COMDAT pdata
pdata	SEGMENT
$pdata$PyException_SetCause DD imagerel $LN7
	DD	imagerel $LN7+89
	DD	imagerel $unwind$PyException_SetCause
pdata	ENDS
;	COMDAT xdata
xdata	SEGMENT
$unwind$PyException_SetCause DD 010e01H
	DD	0620eH
; Function compile flags: /Odtp
xdata	ENDS
;	COMDAT PyException_SetCause
_TEXT	SEGMENT
old_cause$ = 32
self$ = 64
cause$ = 72
PyException_SetCause PROC				; COMDAT

; 336  : PyException_SetCause(PyObject *self, PyObject *cause) {

$LN7:
  00000	48 89 54 24 10	 mov	 QWORD PTR [rsp+16], rdx
  00005	48 89 4c 24 08	 mov	 QWORD PTR [rsp+8], rcx
  0000a	48 83 ec 38	 sub	 rsp, 56			; 00000038H

; 337  :     PyObject *old_cause = ((PyBaseExceptionObject *)self)->cause;

  0000e	48 8b 44 24 40	 mov	 rax, QWORD PTR self$[rsp]
  00013	48 8b 80 80 00
	00 00		 mov	 rax, QWORD PTR [rax+128]
  0001a	48 89 44 24 20	 mov	 QWORD PTR old_cause$[rsp], rax

; 338  :     ((PyBaseExceptionObject *)self)->cause = cause;

  0001f	48 8b 44 24 40	 mov	 rax, QWORD PTR self$[rsp]
  00024	48 8b 4c 24 48	 mov	 rcx, QWORD PTR cause$[rsp]
  00029	48 89 88 80 00
	00 00		 mov	 QWORD PTR [rax+128], rcx

; 339  :     ((PyBaseExceptionObject *)self)->suppress_context = 1;

  00030	48 8b 44 24 40	 mov	 rax, QWORD PTR self$[rsp]
  00035	c6 80 88 00 00
	00 01		 mov	 BYTE PTR [rax+136], 1
$LN4@PyExceptio@3:

; 340  :     Py_XDECREF(old_cause);

  0003c	48 83 7c 24 20
	00		 cmp	 QWORD PTR old_cause$[rsp], 0
  00042	74 0a		 je	 SHORT $LN1@PyExceptio@3
  00044	48 8b 4c 24 20	 mov	 rcx, QWORD PTR old_cause$[rsp]
  00049	e8 00 00 00 00	 call	 _Py_DecRef
$LN1@PyExceptio@3:
  0004e	33 c0		 xor	 eax, eax
  00050	85 c0		 test	 eax, eax
  00052	75 e8		 jne	 SHORT $LN4@PyExceptio@3

; 341  : }

  00054	48 83 c4 38	 add	 rsp, 56			; 00000038H
  00058	c3		 ret	 0
PyException_SetCause ENDP
_TEXT	ENDS
;	COMDAT pdata
pdata	SEGMENT
$pdata$PyException_GetContext DD imagerel $LN7
	DD	imagerel $LN7+57
	DD	imagerel $unwind$PyException_GetContext
pdata	ENDS
;	COMDAT xdata
xdata	SEGMENT
$unwind$PyException_GetContext DD 010901H
	DD	06209H
; Function compile flags: /Odtp
xdata	ENDS
;	COMDAT PyException_GetContext
_TEXT	SEGMENT
context$ = 32
self$ = 64
PyException_GetContext PROC				; COMDAT

; 344  : PyException_GetContext(PyObject *self) {

$LN7:
  00000	48 89 4c 24 08	 mov	 QWORD PTR [rsp+8], rcx
  00005	48 83 ec 38	 sub	 rsp, 56			; 00000038H

; 345  :     PyObject *context = ((PyBaseExceptionObject *)self)->context;

  00009	48 8b 44 24 40	 mov	 rax, QWORD PTR self$[rsp]
  0000e	48 8b 40 78	 mov	 rax, QWORD PTR [rax+120]
  00012	48 89 44 24 20	 mov	 QWORD PTR context$[rsp], rax
$LN4@PyExceptio@4:

; 346  :     Py_XINCREF(context);

  00017	48 83 7c 24 20
	00		 cmp	 QWORD PTR context$[rsp], 0
  0001d	74 0a		 je	 SHORT $LN1@PyExceptio@4
  0001f	48 8b 4c 24 20	 mov	 rcx, QWORD PTR context$[rsp]
  00024	e8 00 00 00 00	 call	 _Py_IncRef
$LN1@PyExceptio@4:
  00029	33 c0		 xor	 eax, eax
  0002b	85 c0		 test	 eax, eax
  0002d	75 e8		 jne	 SHORT $LN4@PyExceptio@4

; 347  :     return context;

  0002f	48 8b 44 24 20	 mov	 rax, QWORD PTR context$[rsp]

; 348  : }

  00034	48 83 c4 38	 add	 rsp, 56			; 00000038H
  00038	c3		 ret	 0
PyException_GetContext ENDP
_TEXT	ENDS
;	COMDAT pdata
pdata	SEGMENT
$pdata$PyException_SetContext DD imagerel $LN7
	DD	imagerel $LN7+71
	DD	imagerel $unwind$PyException_SetContext
pdata	ENDS
;	COMDAT xdata
xdata	SEGMENT
$unwind$PyException_SetContext DD 010e01H
	DD	0620eH
; Function compile flags: /Odtp
xdata	ENDS
;	COMDAT PyException_SetContext
_TEXT	SEGMENT
old_context$ = 32
self$ = 64
context$ = 72
PyException_SetContext PROC				; COMDAT

; 352  : PyException_SetContext(PyObject *self, PyObject *context) {

$LN7:
  00000	48 89 54 24 10	 mov	 QWORD PTR [rsp+16], rdx
  00005	48 89 4c 24 08	 mov	 QWORD PTR [rsp+8], rcx
  0000a	48 83 ec 38	 sub	 rsp, 56			; 00000038H

; 353  :     PyObject *old_context = ((PyBaseExceptionObject *)self)->context;

  0000e	48 8b 44 24 40	 mov	 rax, QWORD PTR self$[rsp]
  00013	48 8b 40 78	 mov	 rax, QWORD PTR [rax+120]
  00017	48 89 44 24 20	 mov	 QWORD PTR old_context$[rsp], rax

; 354  :     ((PyBaseExceptionObject *)self)->context = context;

  0001c	48 8b 44 24 40	 mov	 rax, QWORD PTR self$[rsp]
  00021	48 8b 4c 24 48	 mov	 rcx, QWORD PTR context$[rsp]
  00026	48 89 48 78	 mov	 QWORD PTR [rax+120], rcx
$LN4@PyExceptio@5:

; 355  :     Py_XDECREF(old_context);

  0002a	48 83 7c 24 20
	00		 cmp	 QWORD PTR old_context$[rsp], 0
  00030	74 0a		 je	 SHORT $LN1@PyExceptio@5
  00032	48 8b 4c 24 20	 mov	 rcx, QWORD PTR old_context$[rsp]
  00037	e8 00 00 00 00	 call	 _Py_DecRef
$LN1@PyExceptio@5:
  0003c	33 c0		 xor	 eax, eax
  0003e	85 c0		 test	 eax, eax
  00040	75 e8		 jne	 SHORT $LN4@PyExceptio@5

; 356  : }

  00042	48 83 c4 38	 add	 rsp, 56			; 00000038H
  00046	c3		 ret	 0
PyException_SetContext ENDP
_TEXT	ENDS
PUBLIC	??_C@_0BD@BGOBGIME@StopIteration_init?$AA@	; `string'
;	COMDAT pdata
pdata	SEGMENT
$pdata$StopIteration_init DD imagerel StopIteration_init
	DD	imagerel StopIteration_init+251
	DD	imagerel $unwind$StopIteration_init
pdata	ENDS
;	COMDAT xdata
xdata	SEGMENT
$unwind$StopIteration_init DD 011301H
	DD	0a213H
xdata	ENDS
;	COMDAT ??_C@_0BD@BGOBGIME@StopIteration_init?$AA@
CONST	SEGMENT
??_C@_0BD@BGOBGIME@StopIteration_init?$AA@ DB 'StopIteration_init', 00H ; `string'
; Function compile flags: /Odtp
CONST	ENDS
;	COMDAT StopIteration_init
_TEXT	SEGMENT
value$ = 48
size$ = 56
_py_tmp$20863 = 64
self$ = 96
args$ = 104
kwds$ = 112
StopIteration_init PROC					; COMDAT

; 490  : {

  00000	4c 89 44 24 18	 mov	 QWORD PTR [rsp+24], r8
  00005	48 89 54 24 10	 mov	 QWORD PTR [rsp+16], rdx
  0000a	48 89 4c 24 08	 mov	 QWORD PTR [rsp+8], rcx
  0000f	48 83 ec 58	 sub	 rsp, 88			; 00000058H

; 491  :     Py_ssize_t size = PyTuple_GET_SIZE(args);

  00013	48 8b 44 24 68	 mov	 rax, QWORD PTR args$[rsp]
  00018	48 8b 40 60	 mov	 rax, QWORD PTR [rax+96]
  0001c	48 89 44 24 38	 mov	 QWORD PTR size$[rsp], rax

; 492  :     PyObject *value;
; 493  : 
; 494  :     if (BaseException_init((PyBaseExceptionObject *)self, args, kwds) == -1)

  00021	4c 8b 44 24 70	 mov	 r8, QWORD PTR kwds$[rsp]
  00026	48 8b 54 24 68	 mov	 rdx, QWORD PTR args$[rsp]
  0002b	48 8b 4c 24 60	 mov	 rcx, QWORD PTR self$[rsp]
  00030	e8 00 00 00 00	 call	 BaseException_init
  00035	83 f8 ff	 cmp	 eax, -1
  00038	75 0a		 jne	 SHORT $LN7@StopIterat

; 495  :         return -1;

  0003a	b8 ff ff ff ff	 mov	 eax, -1
  0003f	e9 b2 00 00 00	 jmp	 $LN8@StopIterat
$LN7@StopIterat:
$LN6@StopIterat:

; 496  :     Py_CLEAR(self->value);

  00044	48 8b 44 24 60	 mov	 rax, QWORD PTR self$[rsp]
  00049	48 83 b8 90 00
	00 00 00	 cmp	 QWORD PTR [rax+144], 0
  00051	74 5c		 je	 SHORT $LN3@StopIterat
  00053	c7 44 24 20 10
	00 00 00	 mov	 DWORD PTR [rsp+32], 16
  0005b	48 8b 44 24 60	 mov	 rax, QWORD PTR self$[rsp]
  00060	4c 8b 88 90 00
	00 00		 mov	 r9, QWORD PTR [rax+144]
  00067	41 b8 f0 01 00
	00		 mov	 r8d, 496		; 000001f0H
  0006d	48 8d 15 00 00
	00 00		 lea	 rdx, OFFSET FLAT:??_C@_0BI@DKIONFF@?4?4?2Objects?2exceptions?4c?$AA@
  00074	48 8d 0d 00 00
	00 00		 lea	 rcx, OFFSET FLAT:??_C@_0BD@BGOBGIME@StopIteration_init?$AA@
  0007b	e8 00 00 00 00	 call	 _PyParallel_Guard
  00080	85 c0		 test	 eax, eax
  00082	75 2b		 jne	 SHORT $LN3@StopIterat
  00084	48 8b 44 24 60	 mov	 rax, QWORD PTR self$[rsp]
  00089	48 8b 80 90 00
	00 00		 mov	 rax, QWORD PTR [rax+144]
  00090	48 89 44 24 40	 mov	 QWORD PTR _py_tmp$20863[rsp], rax
  00095	48 8b 44 24 60	 mov	 rax, QWORD PTR self$[rsp]
  0009a	48 c7 80 90 00
	00 00 00 00 00
	00		 mov	 QWORD PTR [rax+144], 0
  000a5	48 8b 4c 24 40	 mov	 rcx, QWORD PTR _py_tmp$20863[rsp]
  000aa	e8 00 00 00 00	 call	 _Py_DecRef
$LN3@StopIterat:
  000af	33 c0		 xor	 eax, eax
  000b1	85 c0		 test	 eax, eax
  000b3	75 8f		 jne	 SHORT $LN6@StopIterat

; 497  :     if (size > 0)

  000b5	48 83 7c 24 38
	00		 cmp	 QWORD PTR size$[rsp], 0
  000bb	7e 10		 jle	 SHORT $LN2@StopIterat

; 498  :         value = PyTuple_GET_ITEM(args, 0);

  000bd	48 8b 44 24 68	 mov	 rax, QWORD PTR args$[rsp]
  000c2	48 8b 40 70	 mov	 rax, QWORD PTR [rax+112]
  000c6	48 89 44 24 30	 mov	 QWORD PTR value$[rsp], rax

; 499  :     else

  000cb	eb 0c		 jmp	 SHORT $LN1@StopIterat
$LN2@StopIterat:

; 500  :         value = Py_None;

  000cd	48 8d 05 00 00
	00 00		 lea	 rax, OFFSET FLAT:_Py_NoneStruct
  000d4	48 89 44 24 30	 mov	 QWORD PTR value$[rsp], rax
$LN1@StopIterat:

; 501  :     Py_INCREF(value);

  000d9	48 8b 4c 24 30	 mov	 rcx, QWORD PTR value$[rsp]
  000de	e8 00 00 00 00	 call	 _Py_IncRef

; 502  :     self->value = value;

  000e3	48 8b 44 24 60	 mov	 rax, QWORD PTR self$[rsp]
  000e8	48 8b 4c 24 30	 mov	 rcx, QWORD PTR value$[rsp]
  000ed	48 89 88 90 00
	00 00		 mov	 QWORD PTR [rax+144], rcx

; 503  :     return 0;

  000f4	33 c0		 xor	 eax, eax
$LN8@StopIterat:

; 504  : }

  000f6	48 83 c4 58	 add	 rsp, 88			; 00000058H
  000fa	c3		 ret	 0
StopIteration_init ENDP
_TEXT	ENDS
PUBLIC	??_C@_0BE@KHGFCJA@StopIteration_clear?$AA@	; `string'
;	COMDAT pdata
pdata	SEGMENT
$pdata$StopIteration_clear DD imagerel StopIteration_clear
	DD	imagerel StopIteration_clear+137
	DD	imagerel $unwind$StopIteration_clear
pdata	ENDS
;	COMDAT xdata
xdata	SEGMENT
$unwind$StopIteration_clear DD 010901H
	DD	08209H
xdata	ENDS
;	COMDAT ??_C@_0BE@KHGFCJA@StopIteration_clear?$AA@
CONST	SEGMENT
??_C@_0BE@KHGFCJA@StopIteration_clear?$AA@ DB 'StopIteration_clear', 00H ; `string'
; Function compile flags: /Odtp
CONST	ENDS
;	COMDAT StopIteration_clear
_TEXT	SEGMENT
_py_tmp$20880 = 48
self$ = 80
StopIteration_clear PROC				; COMDAT

; 508  : {

  00000	48 89 4c 24 08	 mov	 QWORD PTR [rsp+8], rcx
  00005	48 83 ec 48	 sub	 rsp, 72			; 00000048H
$LN4@StopIterat@2:

; 509  :     Py_CLEAR(self->value);

  00009	48 8b 44 24 50	 mov	 rax, QWORD PTR self$[rsp]
  0000e	48 83 b8 90 00
	00 00 00	 cmp	 QWORD PTR [rax+144], 0
  00016	74 5c		 je	 SHORT $LN1@StopIterat@2
  00018	c7 44 24 20 10
	00 00 00	 mov	 DWORD PTR [rsp+32], 16
  00020	48 8b 44 24 50	 mov	 rax, QWORD PTR self$[rsp]
  00025	4c 8b 88 90 00
	00 00		 mov	 r9, QWORD PTR [rax+144]
  0002c	41 b8 fd 01 00
	00		 mov	 r8d, 509		; 000001fdH
  00032	48 8d 15 00 00
	00 00		 lea	 rdx, OFFSET FLAT:??_C@_0BI@DKIONFF@?4?4?2Objects?2exceptions?4c?$AA@
  00039	48 8d 0d 00 00
	00 00		 lea	 rcx, OFFSET FLAT:??_C@_0BE@KHGFCJA@StopIteration_clear?$AA@
  00040	e8 00 00 00 00	 call	 _PyParallel_Guard
  00045	85 c0		 test	 eax, eax
  00047	75 2b		 jne	 SHORT $LN1@StopIterat@2
  00049	48 8b 44 24 50	 mov	 rax, QWORD PTR self$[rsp]
  0004e	48 8b 80 90 00
	00 00		 mov	 rax, QWORD PTR [rax+144]
  00055	48 89 44 24 30	 mov	 QWORD PTR _py_tmp$20880[rsp], rax
  0005a	48 8b 44 24 50	 mov	 rax, QWORD PTR self$[rsp]
  0005f	48 c7 80 90 00
	00 00 00 00 00
	00		 mov	 QWORD PTR [rax+144], 0
  0006a	48 8b 4c 24 30	 mov	 rcx, QWORD PTR _py_tmp$20880[rsp]
  0006f	e8 00 00 00 00	 call	 _Py_DecRef
$LN1@StopIterat@2:
  00074	33 c0		 xor	 eax, eax
  00076	85 c0		 test	 eax, eax
  00078	75 8f		 jne	 SHORT $LN4@StopIterat@2

; 510  :     return BaseException_clear((PyBaseExceptionObject *)self);

  0007a	48 8b 4c 24 50	 mov	 rcx, QWORD PTR self$[rsp]
  0007f	e8 00 00 00 00	 call	 BaseException_clear

; 511  : }

  00084	48 83 c4 48	 add	 rsp, 72			; 00000048H
  00088	c3		 ret	 0
StopIteration_clear ENDP
_TEXT	ENDS
PUBLIC	??_C@_0BG@LFOFOOAM@StopIteration_dealloc?$AA@	; `string'
;	COMDAT pdata
pdata	SEGMENT
$pdata$StopIteration_dealloc DD imagerel StopIteration_dealloc
	DD	imagerel StopIteration_dealloc+283
	DD	imagerel $unwind$StopIteration_dealloc
pdata	ENDS
;	COMDAT xdata
xdata	SEGMENT
$unwind$StopIteration_dealloc DD 010901H
	DD	08209H
xdata	ENDS
;	COMDAT ??_C@_0BG@LFOFOOAM@StopIteration_dealloc?$AA@
CONST	SEGMENT
??_C@_0BG@LFOFOOAM@StopIteration_dealloc?$AA@ DB 'StopIteration_dealloc', 00H ; `string'
; Function compile flags: /Odtp
CONST	ENDS
;	COMDAT StopIteration_dealloc
_TEXT	SEGMENT
g$20894 = 48
tv79 = 56
self$ = 80
StopIteration_dealloc PROC				; COMDAT

; 515  : {

  00000	48 89 4c 24 08	 mov	 QWORD PTR [rsp+8], rcx
  00005	48 83 ec 48	 sub	 rsp, 72			; 00000048H

; 516  :     _PyObject_GC_UNTRACK(self);

  00009	c7 44 24 20 10
	00 00 00	 mov	 DWORD PTR [rsp+32], 16
  00011	4c 8b 4c 24 50	 mov	 r9, QWORD PTR self$[rsp]
  00016	41 b8 04 02 00
	00		 mov	 r8d, 516		; 00000204H
  0001c	48 8d 15 00 00
	00 00		 lea	 rdx, OFFSET FLAT:??_C@_0BI@DKIONFF@?4?4?2Objects?2exceptions?4c?$AA@
  00023	48 8d 0d 00 00
	00 00		 lea	 rcx, OFFSET FLAT:??_C@_0BG@LFOFOOAM@StopIteration_dealloc?$AA@
  0002a	e8 00 00 00 00	 call	 _PyParallel_Guard
  0002f	85 c0		 test	 eax, eax
  00031	0f 85 c1 00 00
	00		 jne	 $LN4@StopIterat@3
$LN3@StopIterat@3:
  00037	c7 44 24 20 10
	00 00 00	 mov	 DWORD PTR [rsp+32], 16
  0003f	4c 8b 4c 24 50	 mov	 r9, QWORD PTR self$[rsp]
  00044	41 b8 04 02 00
	00		 mov	 r8d, 516		; 00000204H
  0004a	48 8d 15 00 00
	00 00		 lea	 rdx, OFFSET FLAT:??_C@_0BI@DKIONFF@?4?4?2Objects?2exceptions?4c?$AA@
  00051	48 8d 0d 00 00
	00 00		 lea	 rcx, OFFSET FLAT:??_C@_0BG@LFOFOOAM@StopIteration_dealloc?$AA@
  00058	e8 00 00 00 00	 call	 _PyParallel_Guard
  0005d	85 c0		 test	 eax, eax
  0005f	74 0b		 je	 SHORT $LN7@StopIterat@3
  00061	48 c7 44 24 38
	00 00 00 00	 mov	 QWORD PTR tv79[rsp], 0
  0006a	eb 0e		 jmp	 SHORT $LN8@StopIterat@3
$LN7@StopIterat@3:
  0006c	48 8b 44 24 50	 mov	 rax, QWORD PTR self$[rsp]
  00071	48 83 e8 18	 sub	 rax, 24
  00075	48 89 44 24 38	 mov	 QWORD PTR tv79[rsp], rax
$LN8@StopIterat@3:
  0007a	48 8b 44 24 38	 mov	 rax, QWORD PTR tv79[rsp]
  0007f	48 89 44 24 30	 mov	 QWORD PTR g$20894[rsp], rax
  00084	48 8b 44 24 30	 mov	 rax, QWORD PTR g$20894[rsp]
  00089	48 83 78 10 fe	 cmp	 QWORD PTR [rax+16], -2
  0008e	75 1c		 jne	 SHORT $LN9@StopIterat@3
  00090	41 b8 04 02 00
	00		 mov	 r8d, 516		; 00000204H
  00096	48 8d 15 00 00
	00 00		 lea	 rdx, OFFSET FLAT:??_C@_1DA@DBFJBBCA@?$AA?4?$AA?4?$AA?2?$AAO?$AAb?$AAj?$AAe?$AAc?$AAt?$AAs?$AA?2?$AAe?$AAx?$AAc?$AAe?$AAp?$AAt?$AAi?$AAo?$AAn?$AAs?$AA?4?$AAc?$AA?$AA@
  0009d	48 8d 0d 00 00
	00 00		 lea	 rcx, OFFSET FLAT:??_C@_1EM@HFMJMDDM@?$AAg?$AA?9?$AA?$DO?$AAg?$AAc?$AA?4?$AAg?$AAc?$AA_?$AAr?$AAe?$AAf?$AAs?$AA?5?$AA?$CB?$AA?$DN?$AA?5?$AA_?$AAP?$AAy?$AAG?$AAC?$AA_?$AAR?$AAE?$AAF?$AAS?$AA_?$AAU?$AAN?$AAT?$AAR@
  000a4	ff 15 00 00 00
	00		 call	 QWORD PTR __imp__wassert
  000aa	33 c0		 xor	 eax, eax
$LN9@StopIterat@3:
  000ac	48 8b 44 24 30	 mov	 rax, QWORD PTR g$20894[rsp]
  000b1	48 c7 40 10 fe
	ff ff ff	 mov	 QWORD PTR [rax+16], -2
  000b9	48 8b 44 24 30	 mov	 rax, QWORD PTR g$20894[rsp]
  000be	48 8b 40 08	 mov	 rax, QWORD PTR [rax+8]
  000c2	48 8b 4c 24 30	 mov	 rcx, QWORD PTR g$20894[rsp]
  000c7	48 8b 09	 mov	 rcx, QWORD PTR [rcx]
  000ca	48 89 08	 mov	 QWORD PTR [rax], rcx
  000cd	48 8b 44 24 30	 mov	 rax, QWORD PTR g$20894[rsp]
  000d2	48 8b 00	 mov	 rax, QWORD PTR [rax]
  000d5	48 8b 4c 24 30	 mov	 rcx, QWORD PTR g$20894[rsp]
  000da	48 8b 49 08	 mov	 rcx, QWORD PTR [rcx+8]
  000de	48 89 48 08	 mov	 QWORD PTR [rax+8], rcx
  000e2	48 8b 44 24 30	 mov	 rax, QWORD PTR g$20894[rsp]
  000e7	48 c7 00 00 00
	00 00		 mov	 QWORD PTR [rax], 0
  000ee	33 c0		 xor	 eax, eax
  000f0	85 c0		 test	 eax, eax
  000f2	0f 85 3f ff ff
	ff		 jne	 $LN3@StopIterat@3
$LN4@StopIterat@3:

; 517  :     StopIteration_clear(self);

  000f8	48 8b 4c 24 50	 mov	 rcx, QWORD PTR self$[rsp]
  000fd	e8 00 00 00 00	 call	 StopIteration_clear

; 518  :     Py_TYPE(self)->tp_free((PyObject *)self);

  00102	48 8b 44 24 50	 mov	 rax, QWORD PTR self$[rsp]
  00107	48 8b 40 58	 mov	 rax, QWORD PTR [rax+88]
  0010b	48 8b 4c 24 50	 mov	 rcx, QWORD PTR self$[rsp]
  00110	ff 90 98 01 00
	00		 call	 QWORD PTR [rax+408]

; 519  : }

  00116	48 83 c4 48	 add	 rsp, 72			; 00000048H
  0011a	c3		 ret	 0
StopIteration_dealloc ENDP
_TEXT	ENDS
PUBLIC	??_C@_0BH@NKDPCDNK@StopIteration_traverse?$AA@	; `string'
;	COMDAT pdata
pdata	SEGMENT
$pdata$StopIteration_traverse DD imagerel StopIteration_traverse
	DD	imagerel StopIteration_traverse+140
	DD	imagerel $unwind$StopIteration_traverse
pdata	ENDS
;	COMDAT xdata
xdata	SEGMENT
$unwind$StopIteration_traverse DD 011301H
	DD	06213H
xdata	ENDS
;	COMDAT ??_C@_0BH@NKDPCDNK@StopIteration_traverse?$AA@
CONST	SEGMENT
??_C@_0BH@NKDPCDNK@StopIteration_traverse?$AA@ DB 'StopIteration_traverse'
	DB	00H						; `string'
; Function compile flags: /Odtp
CONST	ENDS
;	COMDAT StopIteration_traverse
_TEXT	SEGMENT
vret$20915 = 32
self$ = 64
visit$ = 72
arg$ = 80
StopIteration_traverse PROC				; COMDAT

; 523  : {

  00000	4c 89 44 24 18	 mov	 QWORD PTR [rsp+24], r8
  00005	48 89 54 24 10	 mov	 QWORD PTR [rsp+16], rdx
  0000a	48 89 4c 24 08	 mov	 QWORD PTR [rsp+8], rcx
  0000f	48 83 ec 38	 sub	 rsp, 56			; 00000038H
$LN6@StopIterat@4:

; 524  :     Py_VISIT(self->value);

  00013	e8 00 00 00 00	 call	 _Py_PXCTX
  00018	85 c0		 test	 eax, eax
  0001a	74 1c		 je	 SHORT $LN3@StopIterat@4
  0001c	45 33 c9	 xor	 r9d, r9d
  0001f	41 b8 0c 02 00
	00		 mov	 r8d, 524		; 0000020cH
  00025	48 8d 15 00 00
	00 00		 lea	 rdx, OFFSET FLAT:??_C@_0BI@DKIONFF@?4?4?2Objects?2exceptions?4c?$AA@
  0002c	48 8d 0d 00 00
	00 00		 lea	 rcx, OFFSET FLAT:??_C@_0BH@NKDPCDNK@StopIteration_traverse?$AA@
  00033	e8 00 00 00 00	 call	 _PyParallel_ContextGuardFailure
$LN3@StopIterat@4:
  00038	48 8b 44 24 40	 mov	 rax, QWORD PTR self$[rsp]
  0003d	48 83 b8 90 00
	00 00 00	 cmp	 QWORD PTR [rax+144], 0
  00045	74 26		 je	 SHORT $LN2@StopIterat@4
  00047	48 8b 54 24 50	 mov	 rdx, QWORD PTR arg$[rsp]
  0004c	48 8b 44 24 40	 mov	 rax, QWORD PTR self$[rsp]
  00051	48 8b 88 90 00
	00 00		 mov	 rcx, QWORD PTR [rax+144]
  00058	ff 54 24 48	 call	 QWORD PTR visit$[rsp]
  0005c	89 44 24 20	 mov	 DWORD PTR vret$20915[rsp], eax
  00060	83 7c 24 20 00	 cmp	 DWORD PTR vret$20915[rsp], 0
  00065	74 06		 je	 SHORT $LN1@StopIterat@4
  00067	8b 44 24 20	 mov	 eax, DWORD PTR vret$20915[rsp]
  0006b	eb 1a		 jmp	 SHORT $LN7@StopIterat@4
$LN1@StopIterat@4:
$LN2@StopIterat@4:
  0006d	33 c0		 xor	 eax, eax
  0006f	85 c0		 test	 eax, eax
  00071	75 a0		 jne	 SHORT $LN6@StopIterat@4

; 525  :     return BaseException_traverse((PyBaseExceptionObject *)self, visit, arg);

  00073	4c 8b 44 24 50	 mov	 r8, QWORD PTR arg$[rsp]
  00078	48 8b 54 24 48	 mov	 rdx, QWORD PTR visit$[rsp]
  0007d	48 8b 4c 24 40	 mov	 rcx, QWORD PTR self$[rsp]
  00082	e8 00 00 00 00	 call	 BaseException_traverse
$LN7@StopIterat@4:

; 526  : }

  00087	48 83 c4 38	 add	 rsp, 56			; 00000038H
  0008b	c3		 ret	 0
StopIteration_traverse ENDP
_TEXT	ENDS
PUBLIC	??_C@_0BA@BPDEMEKG@SystemExit_init?$AA@		; `string'
;	COMDAT pdata
pdata	SEGMENT
$pdata$SystemExit_init DD imagerel SystemExit_init
	DD	imagerel SystemExit_init+268
	DD	imagerel $unwind$SystemExit_init
pdata	ENDS
;	COMDAT xdata
xdata	SEGMENT
$unwind$SystemExit_init DD 011301H
	DD	08213H
xdata	ENDS
;	COMDAT ??_C@_0BA@BPDEMEKG@SystemExit_init?$AA@
CONST	SEGMENT
??_C@_0BA@BPDEMEKG@SystemExit_init?$AA@ DB 'SystemExit_init', 00H ; `string'
; Function compile flags: /Odtp
CONST	ENDS
;	COMDAT SystemExit_init
_TEXT	SEGMENT
size$ = 48
_py_tmp$20988 = 56
self$ = 80
args$ = 88
kwds$ = 96
SystemExit_init PROC					; COMDAT

; 554  : {

  00000	4c 89 44 24 18	 mov	 QWORD PTR [rsp+24], r8
  00005	48 89 54 24 10	 mov	 QWORD PTR [rsp+16], rdx
  0000a	48 89 4c 24 08	 mov	 QWORD PTR [rsp+8], rcx
  0000f	48 83 ec 48	 sub	 rsp, 72			; 00000048H

; 555  :     Py_ssize_t size = PyTuple_GET_SIZE(args);

  00013	48 8b 44 24 58	 mov	 rax, QWORD PTR args$[rsp]
  00018	48 8b 40 60	 mov	 rax, QWORD PTR [rax+96]
  0001c	48 89 44 24 30	 mov	 QWORD PTR size$[rsp], rax

; 556  : 
; 557  :     if (BaseException_init((PyBaseExceptionObject *)self, args, kwds) == -1)

  00021	4c 8b 44 24 60	 mov	 r8, QWORD PTR kwds$[rsp]
  00026	48 8b 54 24 58	 mov	 rdx, QWORD PTR args$[rsp]
  0002b	48 8b 4c 24 50	 mov	 rcx, QWORD PTR self$[rsp]
  00030	e8 00 00 00 00	 call	 BaseException_init
  00035	83 f8 ff	 cmp	 eax, -1
  00038	75 0a		 jne	 SHORT $LN8@SystemExit

; 558  :         return -1;

  0003a	b8 ff ff ff ff	 mov	 eax, -1
  0003f	e9 c3 00 00 00	 jmp	 $LN9@SystemExit
$LN8@SystemExit:

; 559  : 
; 560  :     if (size == 0)

  00044	48 83 7c 24 30
	00		 cmp	 QWORD PTR size$[rsp], 0
  0004a	75 07		 jne	 SHORT $LN7@SystemExit

; 561  :         return 0;

  0004c	33 c0		 xor	 eax, eax
  0004e	e9 b4 00 00 00	 jmp	 $LN9@SystemExit
$LN7@SystemExit:
$LN6@SystemExit:

; 562  :     Py_CLEAR(self->code);

  00053	48 8b 44 24 50	 mov	 rax, QWORD PTR self$[rsp]
  00058	48 83 b8 90 00
	00 00 00	 cmp	 QWORD PTR [rax+144], 0
  00060	74 5c		 je	 SHORT $LN3@SystemExit
  00062	c7 44 24 20 10
	00 00 00	 mov	 DWORD PTR [rsp+32], 16
  0006a	48 8b 44 24 50	 mov	 rax, QWORD PTR self$[rsp]
  0006f	4c 8b 88 90 00
	00 00		 mov	 r9, QWORD PTR [rax+144]
  00076	41 b8 32 02 00
	00		 mov	 r8d, 562		; 00000232H
  0007c	48 8d 15 00 00
	00 00		 lea	 rdx, OFFSET FLAT:??_C@_0BI@DKIONFF@?4?4?2Objects?2exceptions?4c?$AA@
  00083	48 8d 0d 00 00
	00 00		 lea	 rcx, OFFSET FLAT:??_C@_0BA@BPDEMEKG@SystemExit_init?$AA@
  0008a	e8 00 00 00 00	 call	 _PyParallel_Guard
  0008f	85 c0		 test	 eax, eax
  00091	75 2b		 jne	 SHORT $LN3@SystemExit
  00093	48 8b 44 24 50	 mov	 rax, QWORD PTR self$[rsp]
  00098	48 8b 80 90 00
	00 00		 mov	 rax, QWORD PTR [rax+144]
  0009f	48 89 44 24 38	 mov	 QWORD PTR _py_tmp$20988[rsp], rax
  000a4	48 8b 44 24 50	 mov	 rax, QWORD PTR self$[rsp]
  000a9	48 c7 80 90 00
	00 00 00 00 00
	00		 mov	 QWORD PTR [rax+144], 0
  000b4	48 8b 4c 24 38	 mov	 rcx, QWORD PTR _py_tmp$20988[rsp]
  000b9	e8 00 00 00 00	 call	 _Py_DecRef
$LN3@SystemExit:
  000be	33 c0		 xor	 eax, eax
  000c0	85 c0		 test	 eax, eax
  000c2	75 8f		 jne	 SHORT $LN6@SystemExit

; 563  :     if (size == 1)

  000c4	48 83 7c 24 30
	01		 cmp	 QWORD PTR size$[rsp], 1
  000ca	75 17		 jne	 SHORT $LN2@SystemExit

; 564  :         self->code = PyTuple_GET_ITEM(args, 0);

  000cc	48 8b 44 24 50	 mov	 rax, QWORD PTR self$[rsp]
  000d1	48 8b 4c 24 58	 mov	 rcx, QWORD PTR args$[rsp]
  000d6	48 8b 49 70	 mov	 rcx, QWORD PTR [rcx+112]
  000da	48 89 88 90 00
	00 00		 mov	 QWORD PTR [rax+144], rcx

; 565  :     else /* size > 1 */

  000e1	eb 11		 jmp	 SHORT $LN1@SystemExit
$LN2@SystemExit:

; 566  :         self->code = args;

  000e3	48 8b 44 24 50	 mov	 rax, QWORD PTR self$[rsp]
  000e8	48 8b 4c 24 58	 mov	 rcx, QWORD PTR args$[rsp]
  000ed	48 89 88 90 00
	00 00		 mov	 QWORD PTR [rax+144], rcx
$LN1@SystemExit:

; 567  :     Py_INCREF(self->code);

  000f4	48 8b 44 24 50	 mov	 rax, QWORD PTR self$[rsp]
  000f9	48 8b 88 90 00
	00 00		 mov	 rcx, QWORD PTR [rax+144]
  00100	e8 00 00 00 00	 call	 _Py_IncRef

; 568  :     return 0;

  00105	33 c0		 xor	 eax, eax
$LN9@SystemExit:

; 569  : }

  00107	48 83 c4 48	 add	 rsp, 72			; 00000048H
  0010b	c3		 ret	 0
SystemExit_init ENDP
_TEXT	ENDS
PUBLIC	??_C@_0BB@KJMDIHEI@SystemExit_clear?$AA@	; `string'
;	COMDAT pdata
pdata	SEGMENT
$pdata$SystemExit_clear DD imagerel SystemExit_clear
	DD	imagerel SystemExit_clear+137
	DD	imagerel $unwind$SystemExit_clear
pdata	ENDS
;	COMDAT xdata
xdata	SEGMENT
$unwind$SystemExit_clear DD 010901H
	DD	08209H
xdata	ENDS
;	COMDAT ??_C@_0BB@KJMDIHEI@SystemExit_clear?$AA@
CONST	SEGMENT
??_C@_0BB@KJMDIHEI@SystemExit_clear?$AA@ DB 'SystemExit_clear', 00H ; `string'
; Function compile flags: /Odtp
CONST	ENDS
;	COMDAT SystemExit_clear
_TEXT	SEGMENT
_py_tmp$21005 = 48
self$ = 80
SystemExit_clear PROC					; COMDAT

; 573  : {

  00000	48 89 4c 24 08	 mov	 QWORD PTR [rsp+8], rcx
  00005	48 83 ec 48	 sub	 rsp, 72			; 00000048H
$LN4@SystemExit@2:

; 574  :     Py_CLEAR(self->code);

  00009	48 8b 44 24 50	 mov	 rax, QWORD PTR self$[rsp]
  0000e	48 83 b8 90 00
	00 00 00	 cmp	 QWORD PTR [rax+144], 0
  00016	74 5c		 je	 SHORT $LN1@SystemExit@2
  00018	c7 44 24 20 10
	00 00 00	 mov	 DWORD PTR [rsp+32], 16
  00020	48 8b 44 24 50	 mov	 rax, QWORD PTR self$[rsp]
  00025	4c 8b 88 90 00
	00 00		 mov	 r9, QWORD PTR [rax+144]
  0002c	41 b8 3e 02 00
	00		 mov	 r8d, 574		; 0000023eH
  00032	48 8d 15 00 00
	00 00		 lea	 rdx, OFFSET FLAT:??_C@_0BI@DKIONFF@?4?4?2Objects?2exceptions?4c?$AA@
  00039	48 8d 0d 00 00
	00 00		 lea	 rcx, OFFSET FLAT:??_C@_0BB@KJMDIHEI@SystemExit_clear?$AA@
  00040	e8 00 00 00 00	 call	 _PyParallel_Guard
  00045	85 c0		 test	 eax, eax
  00047	75 2b		 jne	 SHORT $LN1@SystemExit@2
  00049	48 8b 44 24 50	 mov	 rax, QWORD PTR self$[rsp]
  0004e	48 8b 80 90 00
	00 00		 mov	 rax, QWORD PTR [rax+144]
  00055	48 89 44 24 30	 mov	 QWORD PTR _py_tmp$21005[rsp], rax
  0005a	48 8b 44 24 50	 mov	 rax, QWORD PTR self$[rsp]
  0005f	48 c7 80 90 00
	00 00 00 00 00
	00		 mov	 QWORD PTR [rax+144], 0
  0006a	48 8b 4c 24 30	 mov	 rcx, QWORD PTR _py_tmp$21005[rsp]
  0006f	e8 00 00 00 00	 call	 _Py_DecRef
$LN1@SystemExit@2:
  00074	33 c0		 xor	 eax, eax
  00076	85 c0		 test	 eax, eax
  00078	75 8f		 jne	 SHORT $LN4@SystemExit@2

; 575  :     return BaseException_clear((PyBaseExceptionObject *)self);

  0007a	48 8b 4c 24 50	 mov	 rcx, QWORD PTR self$[rsp]
  0007f	e8 00 00 00 00	 call	 BaseException_clear

; 576  : }

  00084	48 83 c4 48	 add	 rsp, 72			; 00000048H
  00088	c3		 ret	 0
SystemExit_clear ENDP
_TEXT	ENDS
PUBLIC	??_C@_0BD@KLNCEPF@SystemExit_dealloc?$AA@	; `string'
;	COMDAT pdata
pdata	SEGMENT
$pdata$SystemExit_dealloc DD imagerel SystemExit_dealloc
	DD	imagerel SystemExit_dealloc+283
	DD	imagerel $unwind$SystemExit_dealloc
pdata	ENDS
;	COMDAT xdata
xdata	SEGMENT
$unwind$SystemExit_dealloc DD 010901H
	DD	08209H
xdata	ENDS
;	COMDAT ??_C@_0BD@KLNCEPF@SystemExit_dealloc?$AA@
CONST	SEGMENT
??_C@_0BD@KLNCEPF@SystemExit_dealloc?$AA@ DB 'SystemExit_dealloc', 00H ; `string'
; Function compile flags: /Odtp
CONST	ENDS
;	COMDAT SystemExit_dealloc
_TEXT	SEGMENT
g$21019 = 48
tv79 = 56
self$ = 80
SystemExit_dealloc PROC					; COMDAT

; 580  : {

  00000	48 89 4c 24 08	 mov	 QWORD PTR [rsp+8], rcx
  00005	48 83 ec 48	 sub	 rsp, 72			; 00000048H

; 581  :     _PyObject_GC_UNTRACK(self);

