; Listing generated by Microsoft (R) Optimizing Compiler Version 16.00.40219.01 

include listing.inc

INCLUDELIB MSVCRTD
INCLUDELIB OLDNAMES

PUBLIC	??_C@_0BA@LLHBKBEN@__phello__?4spam?$AA@	; `string'
PUBLIC	??_C@_0L@HHADLID@__phello__?$AA@		; `string'
PUBLIC	??_C@_09DJHDIGIJ@__hello__?$AA@			; `string'
PUBLIC	??_C@_0BC@BLEAGBOG@_frozen_importlib?$AA@	; `string'
PUBLIC	_Py_M__importlib
PUBLIC	PyImport_FrozenModules
;	COMDAT ??_C@_0BA@LLHBKBEN@__phello__?4spam?$AA@
CONST	SEGMENT
??_C@_0BA@LLHBKBEN@__phello__?4spam?$AA@ DB '__phello__.spam', 00H ; `string'
CONST	ENDS
;	COMDAT ??_C@_0L@HHADLID@__phello__?$AA@
CONST	SEGMENT
??_C@_0L@HHADLID@__phello__?$AA@ DB '__phello__', 00H	; `string'
CONST	ENDS
;	COMDAT ??_C@_09DJHDIGIJ@__hello__?$AA@
CONST	SEGMENT
??_C@_09DJHDIGIJ@__hello__?$AA@ DB '__hello__', 00H	; `string'
CONST	ENDS
;	COMDAT ??_C@_0BC@BLEAGBOG@_frozen_importlib?$AA@
CONST	SEGMENT
??_C@_0BC@BLEAGBOG@_frozen_importlib?$AA@ DB '_frozen_importlib', 00H ; `string'
CONST	ENDS
_DATA	SEGMENT
_Py_M__importlib DB 063H
	DB	00H
	DB	00H
	DB	00H
	DB	00H
	DB	00H
	DB	00H
	DB	00H
	DB	00H
	DB	00H
	DB	00H
	DB	00H
	DB	00H
	DB	06H
	DB	00H
	DB	00H
	DB	00H
	DB	040H
	DB	00H
	DB	00H
	DB	00H
	DB	073H
	DB	0ceH
	DB	03H
	DB	00H
	DB	00H
	DB	064H
	DB	00H
	DB	00H
	DB	05aH
	DB	00H
	DB	00H
	DB	064H
	DB	083H
	DB	00H
	DB	05aH
	DB	01H
	DB	00H
	DB	064H
	DB	04H
	DB	00H
	DB	064H
	DB	05H
	DB	00H
	DB	084H
	DB	00H
	DB	00H
	DB	05aH
	DB	02H
	DB	00H
	DB	064H
	DB	06H
	DB	00H
	DB	064H
	DB	07H
	DB	00H
	DB	084H
	DB	00H
	DB	00H
	DB	05aH
	DB	03H
	DB	00H
	DB	064H
	DB	08H
	DB	00H
	DB	064H
	DB	09H
	DB	00H
	DB	084H
	DB	00H
	DB	00H
	DB	05aH
	DB	04H
	DB	00H
	DB	064H
	DB	0aH
	DB	00H
	DB	064H
	DB	0bH
	DB	00H
	DB	084H
	DB	00H
	DB	00H
	DB	05aH
	DB	05H
	DB	00H
	DB	064H
	DB	0cH
	DB	00H
	DB	064H
	DB	0dH
	DB	00H
	DB	084H
	DB	00H
	DB	00H
	DB	05aH
	DB	06H
	DB	00H
	DB	064H
	DB	0eH
	DB	00H
	DB	064H
	DB	0fH
	DB	00H
	DB	084H
	DB	00H
	DB	00H
	DB	05aH
	DB	07H
	DB	00H
	DB	064H
	DB	010H
	DB	00H
	DB	064H
	DB	011H
	DB	00H
	DB	084H
	DB	00H
	DB	00H
	DB	05aH
	DB	08H
	DB	00H
	DB	064H
	DB	012H
	DB	00H
	DB	064H
	DB	013H
	DB	00H
	DB	084H
	DB	00H
	DB	00H
	DB	05aH
	DB	09H
	DB	00H
	DB	064H
	DB	014H
	DB	00H
	DB	064H
	DB	015H
	DB	00H
	DB	064H
	DB	016H
	DB	00H
	DB	084H
	DB	01H
	DB	00H
	DB	05aH
	DB	0aH
	DB	00H
	DB	064H
	DB	017H
	DB	00H
	DB	064H
	DB	018H
	DB	00H
	DB	084H
	DB	00H
	DB	00H
	DB	05aH
	DB	0bH
	DB	00H
	DB	065H
	DB	0cH
	DB	00H
	DB	065H
	DB	0bH
	DB	00H
	DB	06aH
	DB	0dH
	DB	00H
	DB	083H
	DB	01H
	DB	00H
	DB	05aH
	DB	0eH
	DB	00H
	DB	064H
	DB	019H
	DB	00H
	DB	064H
	DB	01aH
	DB	00H
	DB	084H
	DB	00H
	DB	00H
	DB	05aH
	DB	0fH
	DB	00H
	DB	069H
	DB	00H
	DB	00H
	DB	05aH
	DB	010H
	DB	00H
	DB	069H
	DB	00H
	DB	00H
	DB	05aH
	DB	011H
	DB	00H
	DB	047H
	DB	064H
	DB	01bH
	DB	00H
	DB	064H
	DB	01cH
	DB	00H
	DB	084H
	DB	00H
	DB	00H
	DB	064H
	DB	01cH
	DB	00H
	DB	065H
	DB	012H
	DB	00H
	DB	083H
	DB	03H
	DB	00H
	DB	05aH
	DB	013H
	DB	00H
	DB	047H
	DB	064H
	DB	01dH
	DB	00H
	DB	064H
	DB	01eH
	DB	00H
	DB	084H
	DB	00H
	DB	00H
	DB	064H
	DB	01eH
	DB	00H
	DB	083H
	DB	02H
	DB	00H
	DB	05aH
	DB	014H
	DB	00H
	DB	047H
	DB	064H
	DB	01fH
	DB	00H
	DB	064H
	DB	020H
	DB	00H
	DB	084H
	DB	00H
	DB	00H
	DB	064H
	DB	020H
	DB	00H
	DB	083H
	DB	02H
	DB	00H
	DB	05aH
	DB	015H
	DB	00H
	DB	064H
	DB	021H
	DB	00H
	DB	064H
	DB	022H
	DB	00H
	DB	084H
	DB	00H
	DB	00H
	DB	05aH
	DB	016H
	DB	00H
	DB	064H
	DB	023H
	DB	00H
	DB	064H
	DB	024H
	DB	00H
	DB	084H
	DB	00H
	DB	00H
	DB	05aH
	DB	017H
	DB	00H
	DB	064H
	DB	025H
	DB	00H
	DB	064H
	DB	026H
	DB	00H
	DB	084H
	DB	00H
	DB	00H
	DB	05aH
	DB	018H
	DB	00H
	DB	064H
	DB	027H
	DB	00H
	DB	065H
	DB	019H
	DB	00H
	DB	064H
	DB	028H
	DB	00H
	DB	083H
	DB	01H
	DB	00H
	DB	064H
	DB	029H
	DB	00H
	DB	03eH
	DB	042H
	DB	065H
	DB	019H
	DB	00H
	DB	064H
	DB	02aH
	DB	00H
	DB	083H
	DB	01H
	DB	00H
	DB	064H
	DB	02bH
	DB	00H
	DB	03eH
	DB	042H
	DB	05aH
	DB	01aH
	DB	00H
	DB	065H
	DB	01bH
	DB	00H
	DB	064H
	DB	02cH
	DB	00H
	DB	064H
	DB	02dH
	DB	00H
	DB	084H
	DB	00H
	DB	00H
	DB	065H
	DB	01cH
	DB	00H
	DB	064H
	DB	02eH
	DB	00H
	DB	064H
	DB	02fH
	DB	00H
	DB	064H
	DB	030H
	DB	00H
	DB	083H
	DB	03H
	DB	00H
	DB	044H
	DB	083H
	DB	01H
	DB	00H
	DB	083H
	DB	01H
	DB	00H
	DB	05aH
	DB	01dH
	DB	00H
	DB	064H
	DB	031H
	DB	00H
	DB	05aH
	DB	01eH
	DB	00H
	DB	064H
	DB	032H
	DB	00H
	DB	067H
	DB	01H
	DB	00H
	DB	05aH
	DB	01fH
	DB	00H
	DB	064H
	DB	033H
	DB	00H
	DB	067H
	DB	01H
	DB	00H
	DB	05aH
	DB	020H
	DB	00H
	DB	064H
	DB	034H
	DB	00H
	DB	067H
	DB	01H
	DB	00H
	DB	05aH
	DB	021H
	DB	00H
	DB	064H
	DB	082H
	DB	00H
	DB	064H
	DB	035H
	DB	00H
	DB	064H
	DB	036H
	DB	00H
	DB	084H
	DB	01H
	DB	00H
	DB	05aH
	DB	023H
	DB	00H
	DB	064H
	DB	037H
	DB	00H
	DB	064H
	DB	038H
	DB	00H
	DB	084H
	DB	00H
	DB	00H
	DB	05aH
	DB	024H
	DB	00H
	DB	064H
	DB	039H
	DB	00H
	DB	064H
	DB	03aH
	DB	00H
	DB	084H
	DB	00H
	DB	00H
	DB	05aH
	DB	025H
	DB	00H
	DB	064H
	DB	03bH
	DB	00H
	DB	064H
	DB	03cH
	DB	00H
	DB	064H
	DB	03dH
	DB	00H
	DB	064H
	DB	03eH
	DB	00H
	DB	084H
	DB	00H
	DB	01H
	DB	05aH
	DB	026H
	DB	00H
	DB	064H
	DB	03fH
	DB	00H
	DB	064H
	DB	040H
	DB	00H
	DB	084H
	DB	00H
	DB	00H
	DB	05aH
	DB	027H
	DB	00H
	DB	064H
	DB	041H
	DB	00H
	DB	064H
	DB	042H
	DB	00H
	DB	084H
	DB	00H
	DB	00H
	DB	05aH
	DB	028H
	DB	00H
	DB	064H
	DB	043H
	DB	00H
	DB	064H
	DB	044H
	DB	00H
	DB	084H
	DB	00H
	DB	00H
	DB	05aH
	DB	029H
	DB	00H
	DB	064H
	DB	045H
	DB	00H
	DB	064H
	DB	046H
	DB	00H
	DB	084H
	DB	00H
	DB	00H
	DB	05aH
	DB	02aH
	DB	00H
	DB	064H
	DB	047H
	DB	00H
	DB	064H
	DB	048H
	DB	00H
	DB	084H
	DB	00H
	DB	00H
	DB	05aH
	DB	02bH
	DB	00H
	DB	064H
	DB	049H
	DB	00H
	DB	064H
	DB	04aH
	DB	00H
	DB	084H
	DB	00H
	DB	00H
	DB	05aH
	DB	02cH
	DB	00H
	DB	064H
	DB	04bH
	DB	00H
	DB	064H
	DB	04cH
	DB	00H
	DB	084H
	DB	00H
	DB	00H
	DB	05aH
	DB	02dH
	DB	00H
	DB	047H
	DB	064H
	DB	04dH
	DB	00H
	DB	064H
	DB	04eH
	DB	00H
	DB	084H
	DB	00H
	DB	00H
	DB	064H
	DB	04eH
	DB	00H
	DB	083H
	DB	02H
	DB	00H
	DB	05aH
	DB	02eH
	DB	00H
	DB	047H
	DB	064H
	DB	04fH
	DB	00H
	DB	064H
	DB	050H
	DB	00H
	DB	084H
	DB	00H
	DB	00H
	DB	064H
	DB	050H
	DB	00H
	DB	083H
	DB	02H
	DB	00H
	DB	05aH
	DB	02fH
	DB	00H
	DB	047H
	DB	064H
	DB	051H
	DB	00H
	DB	064H
	DB	052H
	DB	00H
	DB	084H
	DB	00H
	DB	00H
	DB	064H
	DB	052H
	DB	00H
	DB	083H
	DB	02H
	DB	00H
	DB	05aH
	DB	030H
	DB	00H
	DB	047H
	DB	064H
	DB	053H
	DB	00H
	DB	064H
	DB	054H
	DB	00H
	DB	084H
	DB	00H
	DB	00H
	DB	064H
	DB	054H
	DB	00H
	DB	083H
	DB	02H
	DB	00H
	DB	05aH
	DB	031H
	DB	00H
	DB	047H
	DB	064H
	DB	055H
	DB	00H
	DB	064H
	DB	056H
	DB	00H
	DB	084H
	DB	00H
	DB	00H
	DB	064H
	DB	056H
	DB	00H
	DB	065H
	DB	031H
	DB	00H
	DB	083H
	DB	03H
	DB	00H
	DB	05aH
	DB	032H
	DB	00H
	DB	047H
	DB	064H
	DB	057H
	DB	00H
	DB	064H
	DB	058H
	DB	00H
	DB	084H
	DB	00H
	DB	00H
	DB	064H
	DB	058H
	DB	00H
	DB	083H
	DB	02H
	DB	00H
	DB	05aH
	DB	033H
	DB	00H
	DB	047H
	DB	064H
	DB	059H
	DB	00H
	DB	064H
	DB	05aH
	DB	00H
	DB	084H
	DB	00H
	DB	00H
	DB	064H
	DB	05aH
	DB	00H
	DB	065H
	DB	033H
	DB	00H
	DB	065H
	DB	032H
	DB	00H
	DB	083H
	DB	04H
	DB	00H
	DB	05aH
	DB	034H
	DB	00H
	DB	047H
	DB	064H
	DB	05bH
	DB	00H
	DB	064H
	DB	05cH
	DB	00H
	DB	084H
	DB	00H
	DB	00H
	DB	064H
	DB	05cH
	DB	00H
	DB	065H
	DB	033H
	DB	00H
	DB	065H
	DB	031H
	DB	00H
	DB	083H
	DB	04H
	DB	00H
	DB	05aH
	DB	035H
	DB	00H
	DB	067H
	DB	00H
	DB	00H
	DB	05aH
	DB	036H
	DB	00H
	DB	047H
	DB	064H
	DB	05dH
	DB	00H
	DB	064H
	DB	05eH
	DB	00H
	DB	084H
	DB	00H
	DB	00H
	DB	064H
	DB	05eH
	DB	00H
	DB	083H
	DB	02H
	DB	00H
	DB	05aH
	DB	037H
	DB	00H
	DB	047H
	DB	064H
	DB	05fH
	DB	00H
	DB	064H
	DB	060H
	DB	00H
	DB	084H
	DB	00H
	DB	00H
	DB	064H
	DB	060H
	DB	00H
	DB	083H
	DB	02H
	DB	00H
	DB	05aH
	DB	038H
	DB	00H
	DB	047H
	DB	064H
	DB	061H
	DB	00H
	DB	064H
	DB	062H
	DB	00H
	DB	084H
	DB	00H
	DB	00H
	DB	064H
	DB	062H
	DB	00H
	DB	083H
	DB	02H
	DB	00H
	DB	05aH
	DB	039H
	DB	00H
	DB	047H
	DB	064H
	DB	063H
	DB	00H
	DB	064H
	DB	064H
	DB	00H
	DB	084H
	DB	00H
	DB	00H
	DB	064H
	DB	064H
	DB	00H
	DB	083H
	DB	02H
	DB	00H
	DB	05aH
	DB	03aH
	DB	00H
	DB	047H
	DB	064H
	DB	065H
	DB	00H
	DB	064H
	DB	066H
	DB	00H
	DB	084H
	DB	00H
	DB	00H
	DB	064H
	DB	066H
	DB	00H
	DB	083H
	DB	02H
	DB	00H
	DB	05aH
	DB	03bH
	DB	00H
	DB	047H
	DB	064H
	DB	067H
	DB	00H
	DB	064H
	DB	068H
	DB	00H
	DB	084H
	DB	00H
	DB	00H
	DB	064H
	DB	068H
	DB	00H
	DB	083H
	DB	02H
	DB	00H
	DB	05aH
	DB	03cH
	DB	00H
	DB	064H
	DB	069H
	DB	00H
	DB	064H
	DB	06aH
	DB	00H
	DB	084H
	DB	00H
	DB	00H
	DB	05aH
	DB	03dH
	DB	00H
	DB	064H
	DB	06bH
	DB	00H
	DB	064H
	DB	06cH
	DB	00H
	DB	084H
	DB	00H
	DB	00H
	DB	05aH
	DB	03eH
	DB	00H
	DB	064H
	DB	06dH
	DB	00H
	DB	064H
	DB	06eH
	DB	00H
	DB	084H
	DB	00H
	DB	00H
	DB	05aH
	DB	03fH
	DB	00H
	DB	064H
	DB	06fH
	DB	00H
	DB	05aH
	DB	040H
	DB	00H
	DB	064H
	DB	070H
	DB	00H
	DB	064H
	DB	071H
	DB	00H
	DB	084H
	DB	00H
	DB	00H
	DB	05aH
	DB	041H
	DB	00H
	DB	064H
	DB	072H
	DB	00H
	DB	064H
	DB	073H
	DB	00H
	DB	084H
	DB	00H
	DB	00H
	DB	05aH
	DB	042H
	DB	00H
	DB	064H
	DB	082H
	DB	00H
	DB	064H
	DB	02eH
	DB	00H
	DB	064H
	DB	074H
	DB	00H
	DB	064H
	DB	075H
	DB	00H
	DB	084H
	DB	02H
	DB	00H
	DB	05aH
	DB	043H
	DB	00H
	DB	064H
	DB	076H
	DB	00H
	DB	064H
	DB	077H
	DB	00H
	DB	084H
	DB	00H
	DB	00H
	DB	05aH
	DB	044H
	DB	00H
	DB	064H
	DB	078H
	DB	00H
	DB	064H
	DB	079H
	DB	00H
	DB	084H
	DB	00H
	DB	00H
	DB	05aH
	DB	045H
	DB	00H
	DB	064H
	DB	07aH
	DB	00H
	DB	064H
	DB	07bH
	DB	00H
	DB	084H
	DB	00H
	DB	00H
	DB	05aH
	DB	046H
	DB	00H
	DB	064H
	DB	082H
	DB	00H
	DB	064H
	DB	082H
	DB	00H
	DB	066H
	DB	00H
	DB	00H
	DB	064H
	DB	02eH
	DB	00H
	DB	064H
	DB	07cH
	DB	00H
	DB	064H
	DB	07dH
	DB	00H
	DB	084H
	DB	04H
	DB	00H
	DB	05aH
	DB	047H
	DB	00H
	DB	064H
	DB	07eH
	DB	00H
	DB	064H
	DB	07fH
	DB	00H
	DB	084H
	DB	00H
	DB	00H
	DB	05aH
	DB	048H
	DB	00H
	DB	064H
	DB	080H
	DB	00H
	DB	064H
	DB	081H
	DB	00H
	DB	084H
	DB	00H
	DB	00H
	DB	05aH
	DB	049H
	DB	00H
	DB	064H
	DB	082H
	DB	00H
	DB	053H
	DB	028H
	DB	084H
	DB	00H
	DB	00H
	DB	00H
	DB	075H
	DB	053H
	DB	01H
	DB	00H
	DB	00H
	DB	043H
	DB	06fH
	DB	072H
	DB	065H
	DB	020H
	DB	069H
	DB	06dH
	DB	070H
	DB	06cH
	DB	065H
	DB	06dH
	DB	065H
	DB	06eH
	DB	074H
	DB	061H
	DB	074H
	DB	069H
	DB	06fH
	DB	06eH
	DB	020H
	DB	06fH
	DB	066H
	DB	020H
	DB	069H
	DB	06dH
	DB	070H
	DB	06fH
	DB	072H
	DB	074H
	DB	02eH
	DB	0aH
	DB	0aH
	DB	054H
	DB	068H
	DB	069H
	DB	073H
	DB	020H
	DB	06dH
	DB	06fH
	DB	064H
	DB	075H
	DB	06cH
	DB	065H
	DB	020H
	DB	069H
	DB	073H
	DB	020H
	DB	04eH
	DB	04fH
	DB	054H
	DB	020H
	DB	06dH
	DB	065H
	DB	061H
	DB	06eH
	DB	074H
	DB	020H
	DB	074H
	DB	06fH
	DB	020H
	DB	062H
	DB	065H
	DB	020H
	DB	064H
	DB	069H
	DB	072H
	DB	065H
	DB	063H
	DB	074H
	DB	06cH
	DB	079H
	DB	020H
	DB	069H
	DB	06dH
	DB	070H
	DB	06fH
	DB	072H
	DB	074H
	DB	065H
	DB	064H
	DB	021H
	DB	020H
	DB	049H
	DB	074H
	DB	020H
	DB	068H
	DB	061H
	DB	073H
	DB	020H
	DB	062H
	DB	065H
	DB	065H
	DB	06eH
	DB	020H
	DB	064H
	DB	065H
	DB	073H
	DB	069H
	DB	067H
	DB	06eH
	DB	065H
	DB	064H
	DB	020H
	DB	073H
	DB	075H
	DB	063H
	DB	068H
	DB	0aH
	DB	074H
	DB	068H
	DB	061H
	DB	074H
	DB	020H
	DB	069H
	DB	074H
	DB	020H
	DB	063H
	DB	061H
	DB	06eH
	DB	020H
	DB	062H
	DB	065H
	DB	020H
	DB	062H
	DB	06fH
	DB	06fH
	DB	074H
	DB	073H
	DB	074H
	DB	072H
	DB	061H
	DB	070H
	DB	070H
	DB	065H
	DB	064H
	DB	020H
	DB	069H
	DB	06eH
	DB	074H
	DB	06fH
	DB	020H
	DB	050H
	DB	079H
	DB	074H
	DB	068H
	DB	06fH
	DB	06eH
	DB	020H
	DB	061H
	DB	073H
	DB	020H
	DB	074H
	DB	068H
	DB	065H
	DB	020H
	DB	069H
	DB	06dH
	DB	070H
	DB	06cH
	DB	065H
	DB	06dH
	DB	065H
	DB	06eH
	DB	074H
	DB	061H
	DB	074H
	DB	069H
	DB	06fH
	DB	06eH
	DB	020H
	DB	06fH
	DB	066H
	DB	020H
	DB	069H
	DB	06dH
	DB	070H
	DB	06fH
	DB	072H
	DB	074H
	DB	02eH
	DB	020H
	DB	041H
	DB	073H
	DB	0aH
	DB	073H
	DB	075H
	DB	063H
	DB	068H
	DB	020H
	DB	069H
	DB	074H
	DB	020H
	DB	072H
	DB	065H
	DB	071H
	DB	075H
	DB	069H
	DB	072H
	DB	065H
	DB	073H
	DB	020H
	DB	074H
	DB	068H
	DB	065H
	DB	020H
	DB	069H
	DB	06eH
	DB	06aH
	DB	065H
	DB	063H
	DB	074H
	DB	069H
	DB	06fH
	DB	06eH
	DB	020H
	DB	06fH
	DB	066H
	DB	020H
	DB	073H
	DB	070H
	DB	065H
	DB	063H
	DB	069H
	DB	066H
	DB	069H
	DB	063H
	DB	020H
	DB	06dH
	DB	06fH
	DB	064H
	DB	075H
	DB	06cH
	DB	065H
	DB	073H
	DB	020H
	DB	061H
	DB	06eH
	DB	064H
	DB	020H
	DB	061H
	DB	074H
	DB	074H
	DB	072H
	DB	069H
	DB	062H
	DB	075H
	DB	074H
	DB	065H
	DB	073H
	DB	020H
	DB	069H
	DB	06eH
	DB	020H
	DB	06fH
	DB	072H
	DB	064H
	DB	065H
	DB	072H
	DB	020H
	DB	074H
	DB	06fH
	DB	0aH
	DB	077H
	DB	06fH
	DB	072H
	DB	06bH
	DB	02eH
	DB	020H
	DB	04fH
	DB	06eH
	DB	065H
	DB	020H
	DB	073H
	DB	068H
	DB	06fH
	DB	075H
	DB	06cH
	DB	064H
	DB	020H
	DB	075H
	DB	073H
	DB	065H
	DB	020H
	DB	069H
	DB	06dH
	DB	070H
	DB	06fH
	DB	072H
	DB	074H
	DB	06cH
	DB	069H
	DB	062H
	DB	020H
	DB	061H
	DB	073H
	DB	020H
	DB	074H
	DB	068H
	DB	065H
	DB	020H
	DB	070H
	DB	075H
	DB	062H
	DB	06cH
	DB	069H
	DB	063H
	DB	02dH
	DB	066H
	DB	061H
	DB	063H
	DB	069H
	DB	06eH
	DB	067H
	DB	020H
	DB	076H
	DB	065H
	DB	072H
	DB	073H
	DB	069H
	DB	06fH
	DB	06eH
	DB	020H
	DB	06fH
	DB	066H
	DB	020H
	DB	074H
	DB	068H
	DB	069H
	DB	073H
	DB	020H
	DB	06dH
	DB	06fH
	DB	064H
	DB	075H
	DB	06cH
	DB	065H
	DB	02eH
	DB	0aH
	DB	0aH
	DB	075H
	DB	03H
	DB	00H
	DB	00H
	DB	00H
	DB	077H
	DB	069H
	DB	06eH
	DB	075H
	DB	06H
	DB	00H
	DB	00H
	DB	00H
	DB	063H
	DB	079H
	DB	067H
	DB	077H
	DB	069H
	DB	06eH
	DB	075H
	DB	06H
	DB	00H
	DB	00H
	DB	00H
	DB	064H
	DB	061H
	DB	072H
	DB	077H
	DB	069H
	DB	06eH
	DB	063H
	DB	00H
	DB	00H
	DB	00H
	DB	00H
	DB	00H
	DB	00H
	DB	00H
	DB	00H
	DB	01H
	DB	00H
	DB	00H
	DB	00H
	DB	02H
	DB	00H
	DB	00H
	DB	00H
	DB	043H
	DB	00H
	DB	00H
	DB	00H
	DB	073H
	DB	031H
	DB	00H
	DB	00H
	DB	00H
	DB	074H
	DB	00H
	DB	00H
	DB	06aH
	DB	01H
	DB	00H
	DB	06aH
	DB	02H
	DB	00H
	DB	074H
	DB	03H
	DB	00H
	DB	083H
	DB	01H
	DB	00H
	DB	072H
	DB	021H
	DB	00H
	DB	064H
	DB	01H
	DB	00H
	DB	064H
	DB	02H
	DB	00H
	DB	084H
	DB	00H
	DB	00H
	DB	07dH
	DB	00H
	DB	00H
	DB	06eH
	DB	0cH
	DB	00H
	DB	064H
	DB	03H
	DB	00H
	DB	064H
	DB	02H
	DB	00H
	DB	084H
	DB	00H
	DB	00H
	DB	07dH
	DB	00H
	DB	00H
	DB	07cH
	DB	00H
	DB	00H
	DB	053H
	DB	028H
	DB	04H
	DB	00H
	DB	00H
	DB	00H
	DB	04eH
	DB	063H
	DB	00H
	DB	00H
	DB	00H
	DB	00H
	DB	00H
	DB	00H
	DB	00H
	DB	00H
	DB	00H
	DB	00H
	DB	00H
	DB	00H
	DB	02H
	DB	00H
	DB	00H
	DB	00H
	DB	053H
	DB	00H
	DB	00H
	DB	00H
	DB	073H
	DB	0dH
	DB	00H
	DB	00H
	DB	00H
	DB	064H
	DB	01H
	DB	00H
	DB	074H
	DB	00H
	DB	00H
	DB	06aH
	DB	01H
	DB	00H
	DB	06bH
	DB	06H
	DB	00H
	DB	053H
	DB	028H
	DB	02H
	DB	00H
	DB	00H
	DB	00H
	DB	075H
	DB	035H
	DB	00H
	DB	00H
	DB	00H
	DB	054H
	DB	072H
	DB	075H
	DB	065H
	DB	020H
	DB	069H
	DB	066H
	DB	020H
	DB	066H
	DB	069H
	DB	06cH
	DB	065H
	DB	06eH
	DB	061H
	DB	06dH
	DB	065H
	DB	073H
	DB	020H
	DB	06dH
	DB	075H
	DB	073H
	DB	074H
	DB	020H
	DB	062H
	DB	065H
	DB	020H
	DB	063H
	DB	068H
	DB	065H
	DB	063H
	DB	06bH
	DB	065H
	DB	064H
	DB	020H
	DB	063H
	DB	061H
	DB	073H
	DB	065H
	DB	02dH
	DB	069H
	DB	06eH
	DB	073H
	DB	065H
	DB	06eH
	DB	073H
	DB	069H
	DB	074H
	DB	069H
	DB	076H
	DB	065H
	DB	06cH
	DB	079H
	DB	02eH
	DB	073H
	DB	0cH
	DB	00H
	DB	00H
	DB	00H
	DB	050H
	DB	059H
	DB	054H
	DB	048H
	DB	04fH
	DB	04eH
	DB	043H
	DB	041H
	DB	053H
	DB	045H
	DB	04fH
	DB	04bH
	DB	028H
	DB	02H
	DB	00H
	DB	00H
	DB	00H
	DB	075H
	DB	03H
	DB	00H
	DB	00H
	DB	00H
	DB	05fH
	DB	06fH
	DB	073H
	DB	075H
	DB	07H
	DB	00H
	DB	00H
	DB	00H
	DB	065H
	DB	06eH
	DB	076H
	DB	069H
	DB	072H
	DB	06fH
	DB	06eH
	DB	028H
	DB	00H
	DB	00H
	DB	00H
	DB	00H
	DB	028H
	DB	00H
	DB	00H
	DB	00H
	DB	00H
	DB	028H
	DB	00H
	DB	00H
	DB	00H
	DB	00H
	DB	075H
	DB	01dH
	DB	00H
	DB	00H
	DB	00H
	DB	03cH
	DB	066H
	DB	072H
	DB	06fH
	DB	07aH
	DB	065H
	DB	06eH
	DB	020H
	DB	069H
	DB	06dH
	DB	070H
	DB	06fH
	DB	072H
	DB	074H
	DB	06cH
	DB	069H
	DB	062H
	DB	02eH
	DB	05fH
	DB	062H
	DB	06fH
	DB	06fH
	DB	074H
	DB	073H
	DB	074H
	DB	072H
	DB	061H
	DB	070H
	DB	03eH
	DB	075H
	DB	0bH
	DB	00H
	DB	00H
	DB	00H
	DB	05fH
	DB	072H
	DB	065H
	DB	06cH
	DB	061H
	DB	078H
	DB	05fH
	DB	063H
	DB	061H
	DB	073H
	DB	065H
	DB	022H
	DB	00H
	DB	00H
	DB	00H
	DB	073H
	DB	02H
	DB	00H
	DB	00H
	DB	00H
	DB	00H
	DB	02H
	DB	075H
	DB	025H
	DB	00H
	DB	00H
	DB	00H
	DB	05fH
	DB	06dH
	DB	061H
	DB	06bH
	DB	065H
	DB	05fH
	DB	072H
	DB	065H
	DB	06cH
	DB	061H
	DB	078H
	DB	05fH
	DB	063H
	DB	061H
	DB	073H
	DB	065H
	DB	02eH
	DB	03cH
	DB	06cH
	DB	06fH
	DB	063H
	DB	061H
	DB	06cH
	DB	073H
	DB	03eH
	DB	02eH
	DB	05fH
	DB	072H
	DB	065H
	DB	06cH
	DB	061H
	DB	078H
	DB	05fH
	DB	063H
	DB	061H
	DB	073H
	DB	065H
	DB	063H
	DB	00H
	DB	00H
	DB	00H
	DB	00H
	DB	00H
	DB	00H
	DB	00H
	DB	00H
	DB	00H
	DB	00H
	DB	00H
	DB	00H
	DB	01H
	DB	00H
	DB	00H
	DB	00H
	DB	053H
	DB	00H
	DB	00H
	DB	00H
	DB	073H
	DB	04H
	DB	00H
	DB	00H
	DB	00H
	DB	064H
	DB	01H
	DB	00H
	DB	053H
	DB	028H
	DB	02H
	DB	00H
	DB	00H
	DB	00H
	DB	075H
	DB	035H
	DB	00H
	DB	00H
	DB	00H
	DB	054H
	DB	072H
	DB	075H
	DB	065H
	DB	020H
	DB	069H
	DB	066H
	DB	020H
	DB	066H
	DB	069H
	DB	06cH
	DB	065H
	DB	06eH
	DB	061H
	DB	06dH
	DB	065H
	DB	073H
	DB	020H
	DB	06dH
	DB	075H
	DB	073H
	DB	074H
	DB	020H
	DB	062H
	DB	065H
	DB	020H
	DB	063H
	DB	068H
	DB	065H
	DB	063H
	DB	06bH
	DB	065H
	DB	064H
	DB	020H
	DB	063H
	DB	061H
	DB	073H
	DB	065H
	DB	02dH
	DB	069H
	DB	06eH
	DB	073H
	DB	065H
	DB	06eH
	DB	073H
	DB	069H
	DB	074H
	DB	069H
	DB	076H
	DB	065H
	DB	06cH
	DB	079H
	DB	02eH
	DB	046H
	DB	028H
	DB	01H
	DB	00H
	DB	00H
	DB	00H
	DB	075H
	DB	05H
	DB	00H
	DB	00H
	DB	00H
	DB	046H
	DB	061H
	DB	06cH
	DB	073H
	DB	065H
	DB	028H
	DB	00H
	DB	00H
	DB	00H
	DB	00H
	DB	028H
	DB	00H
	DB	00H
	DB	00H
	DB	00H
	DB	028H
	DB	00H
	DB	00H
	DB	00H
	DB	00H
	DB	075H
	DB	01dH
	DB	00H
	DB	00H
	DB	00H
	DB	03cH
	DB	066H
	DB	072H
	DB	06fH
	DB	07aH
	DB	065H
	DB	06eH
	DB	020H
	DB	069H
	DB	06dH
	DB	070H
	DB	06fH
	DB	072H
	DB	074H
	DB	06cH
	DB	069H
	DB	062H
	DB	02eH
	DB	05fH
	DB	062H
	DB	06fH
	DB	06fH
	DB	074H
	DB	073H
	DB	074H
	DB	072H
	DB	061H
	DB	070H
	DB	03eH
	DB	075H
	DB	0bH
	DB	00H
	DB	00H
	DB	00H
	DB	05fH
	DB	072H
	DB	065H
	DB	06cH
	DB	061H
	DB	078H
	DB	05fH
	DB	063H
	DB	061H
	DB	073H
	DB	065H
	DB	026H
	DB	00H
	DB	00H
	DB	00H
	DB	073H
	DB	02H
	DB	00H
	DB	00H
	DB	00H
	DB	00H
	DB	02H
	DB	028H
	DB	04H
	DB	00H
	DB	00H
	DB	00H
	DB	075H
	DB	03H
	DB	00H
	DB	00H
	DB	00H
	DB	073H
	DB	079H
	DB	073H
	DB	075H
	DB	08H
	DB	00H
	DB	00H
	DB	00H
	DB	070H
	DB	06cH
	DB	061H
	DB	074H
	DB	066H
	DB	06fH
	DB	072H
	DB	06dH
	DB	075H
	DB	0aH
	DB	00H
	DB	00H
	DB	00H
	DB	073H
	DB	074H
	DB	061H
	DB	072H
	DB	074H
	DB	073H
	DB	077H
	DB	069H
	DB	074H
	DB	068H
	DB	075H
	DB	01bH
	DB	00H
	DB	00H
	DB	00H
	DB	05fH
	DB	043H
	DB	041H
	DB	053H
	DB	045H
	DB	05fH
	DB	049H
	DB	04eH
	DB	053H
	DB	045H
	DB	04eH
	DB	053H
	DB	049H
	DB	054H
	DB	049H
	DB	056H
	DB	045H
	DB	05fH
	DB	050H
	DB	04cH
	DB	041H
	DB	054H
	DB	046H
	DB	04fH
	DB	052H
	DB	04dH
	DB	053H
	DB	028H
	DB	01H
	DB	00H
	DB	00H
	DB	00H
	DB	075H
	DB	0bH
	DB	00H
	DB	00H
	DB	00H
	DB	05fH
	DB	072H
	DB	065H
	DB	06cH
	DB	061H
	DB	078H
	DB	05fH
	DB	063H
	DB	061H
	DB	073H
	DB	065H
	DB	028H
	DB	00H
	DB	00H
	DB	00H
	DB	00H
	DB	028H
	DB	00H
	DB	00H
	DB	00H
	DB	00H
	DB	075H
	DB	01dH
	DB	00H
	DB	00H
	DB	00H
	DB	03cH
	DB	066H
	DB	072H
	DB	06fH
	DB	07aH
	DB	065H
	DB	06eH
	DB	020H
	DB	069H
	DB	06dH
	DB	070H
	DB	06fH
	DB	072H
	DB	074H
	DB	06cH
	DB	069H
	DB	062H
	DB	02eH
	DB	05fH
	DB	062H
	DB	06fH
	DB	06fH
	DB	074H
	DB	073H
	DB	074H
	DB	072H
	DB	061H
	DB	070H
	DB	03eH
	DB	075H
	DB	010H
	DB	00H
	DB	00H
	DB	00H
	DB	05fH
	DB	06dH
	DB	061H
	DB	06bH
	DB	065H
	DB	05fH
	DB	072H
	DB	065H
	DB	06cH
	DB	061H
	DB	078H
	DB	05fH
	DB	063H
	DB	061H
	DB	073H
	DB	065H
	DB	020H
	DB	00H
	DB	00H
	DB	00H
	DB	073H
	DB	08H
	DB	00H
	DB	00H
	DB	00H
	DB	00H
	DB	01H
	DB	012H
	DB	01H
	DB	0fH
	DB	04H
	DB	0cH
	DB	03H
	DB	075H
	DB	010H
	DB	00H
	DB	00H
	DB	00H
	DB	05fH
	DB	06dH
	DB	061H
	DB	06bH
	DB	065H
	DB	05fH
	DB	072H
	DB	065H
	DB	06cH
	DB	061H
	DB	078H
	DB	05fH
	DB	063H
	DB	061H
	DB	073H
	DB	065H
	DB	063H
	DB	01H
	DB	00H
	DB	00H
	DB	00H
	DB	00H
	DB	00H
	DB	00H
	DB	00H
	DB	02H
	DB	00H
	DB	00H
	DB	00H
	DB	03H
	DB	00H
	DB	00H
	DB	00H
	DB	043H
	DB	00H
	DB	00H
	DB	00H
	DB	073H
	DB	06cH
	DB	00H
	DB	00H
	DB	00H
	DB	074H
	DB	00H
	DB	00H
	DB	07cH
	DB	00H
	DB	00H
	DB	083H
	DB	01H
	DB	00H
	DB	07dH
	DB	00H
	DB	00H
	DB	067H
	DB	00H
	DB	00H
	DB	07dH
	DB	01H
	DB	00H
	DB	07cH
	DB	01H
	DB	00H
	DB	06aH
	DB	01H
	DB	00H
	DB	07cH
	DB	00H
	DB	00H
	DB	064H
	DB	01H
	DB	00H
	DB	040H
	DB	083H
	DB	01H
	DB	00H
	DB	01H
	DB	07cH
	DB	01H
	DB	00H
	DB	06aH
	DB	01H
	DB	00H
	DB	07cH
	DB	00H
	DB	00H
	DB	064H
	DB	02H
	DB	00H
	DB	03fH
	DB	064H
	DB	01H
	DB	00H
	DB	040H
	DB	083H
	DB	01H
	DB	00H
	DB	01H
	DB	07cH
	DB	01H
	DB	00H
	DB	06aH
	DB	01H
	DB	00H
	DB	07cH
	DB	00H
	DB	00H
	DB	064H
	DB	03H
	DB	00H
	DB	03fH
	DB	064H
	DB	01H
	DB	00H
	DB	040H
	DB	083H
	DB	01H
	DB	00H
	DB	01H
	DB	07cH
	DB	01H
	DB	00H
	DB	06aH
	DB	01H
	DB	00H
	DB	07cH
	DB	00H
	DB	00H
	DB	064H
	DB	04H
	DB	00H
	DB	03fH
	DB	064H
	DB	01H
	DB	00H
	DB	040H
	DB	083H
	DB	01H
	DB	00H
	DB	01H
	DB	074H
	DB	02H
	DB	00H
	DB	07cH
	DB	01H
	DB	00H
	DB	083H
	DB	01H
	DB	00H
	DB	053H
	DB	028H
	DB	05H
	DB	00H
	DB	00H
	DB	00H
	DB	075H
	DB	06fH
	DB	00H
	DB	00H
	DB	00H
	DB	043H
	DB	06fH
	DB	06eH
	DB	076H
	DB	065H
	DB	072H
	DB	074H
	DB	020H
	DB	061H
	DB	020H
	DB	033H
	DB	032H
	DB	02dH
	DB	062H
	DB	069H
	DB	074H
	DB	020H
	DB	069H
	DB	06eH
	DB	074H
	DB	065H
	DB	067H
	DB	065H
	DB	072H
	DB	020H
	DB	074H
	DB	06fH
	DB	020H
	DB	06cH
	DB	069H
	DB	074H
	DB	074H
	DB	06cH
	DB	065H
	DB	02dH
	DB	065H
	DB	06eH
	DB	064H
	DB	069H
	DB	061H
	DB	06eH
	DB	02eH
	DB	0aH
	DB	0aH
	DB	020H
	DB	020H
	DB	020H
	DB	020H
	DB	058H
	DB	058H
	DB	058H
	DB	020H
	DB	054H
	DB	065H
	DB	06dH
	DB	070H
	DB	06fH
	DB	072H
	DB	061H
	DB	072H
	DB	079H
	DB	020H
	DB	075H
	DB	06eH
	DB	074H
	DB	069H
	DB	06cH
	DB	020H
	DB	06dH
	DB	061H
	DB	072H
	DB	073H
	DB	068H
	DB	061H
	DB	06cH
	DB	027H
	DB	073H
	DB	020H
	DB	06cH
	DB	06fH
	DB	06eH
	DB	067H
	DB	020H
	DB	066H
	DB	075H
	DB	06eH
	DB	063H
	DB	074H
	DB	069H
	DB	06fH
	DB	06eH
	DB	073H
	DB	020H
	DB	061H
	DB	072H
	DB	065H
	DB	020H
	DB	065H
	DB	078H
	DB	070H
	DB	06fH
	DB	073H
	DB	065H
	DB	064H
	DB	02eH
	DB	0aH
	DB	0aH
	DB	020H
	DB	020H
	DB	020H
	DB	020H
	DB	069H
	DB	0ffH
	DB	00H
	DB	00H
	DB	00H
	DB	069H
	DB	08H
	DB	00H
	DB	00H
	DB	00H
	DB	069H
	DB	010H
	DB	00H
	DB	00H
	DB	00H
	DB	069H
	DB	018H
	DB	00H
	DB	00H
	DB	00H
	DB	028H
	DB	03H
	DB	00H
	DB	00H
	DB	00H
	DB	075H
	DB	03H
	DB	00H
	DB	00H
	DB	00H
	DB	069H
	DB	06eH
	DB	074H
	DB	075H
	DB	06H
	DB	00H
	DB	00H
	DB	00H
	DB	061H
	DB	070H
	DB	070H
	DB	065H
	DB	06eH
	DB	064H
	DB	075H
	DB	09H
	DB	00H
	DB	00H
	DB	00H
	DB	062H
	DB	079H
	DB	074H
	DB	065H
	DB	061H
	DB	072H
	DB	072H
	DB	061H
	DB	079H
	DB	028H
	DB	02H
	DB	00H
	DB	00H
	DB	00H
	DB	075H
	DB	01H
	DB	00H
	DB	00H
	DB	00H
	DB	078H
	DB	075H
	DB	09H
	DB	00H
	DB	00H
	DB	00H
	DB	069H
	DB	06eH
	DB	074H
	DB	05fH
	DB	062H
	DB	079H
	DB	074H
	DB	065H
	DB	073H
	DB	028H
	DB	00H
	DB	00H
	DB	00H
	DB	00H
	DB	028H
	DB	00H
	DB	00H
	DB	00H
	DB	00H
	DB	075H
	DB	01dH
	DB	00H
	DB	00H
	DB	00H
	DB	03cH
	DB	066H
	DB	072H
	DB	06fH
	DB	07aH
	DB	065H
	DB	06eH
	DB	020H
	DB	069H
	DB	06dH
	DB	070H
	DB	06fH
	DB	072H
	DB	074H
	DB	06cH
	DB	069H
	DB	062H
	DB	02eH
	DB	05fH
	DB	062H
	DB	06fH
	DB	06fH
	DB	074H
	DB	073H
	DB	074H
	DB	072H
	DB	061H
	DB	070H
	DB	03eH
	DB	075H
	DB	07H
	DB	00H
	DB	00H
	DB	00H
	DB	05fH
	DB	077H
	DB	05fH
	DB	06cH
	DB	06fH
	DB	06eH
	DB	067H
	DB	02dH
	DB	00H
	DB	00H
	DB	00H
	DB	073H
	DB	0eH
	DB	00H
	DB	00H
	DB	00H
	DB	00H
	DB	06H
	DB	0cH
	DB	01H
	DB	06H
	DB	01H
	DB	011H
	DB	01H
	DB	015H
	DB	01H
	DB	015H
	DB	01H
	DB	015H
	DB	01H
	DB	075H
	DB	07H
	DB	00H
	DB	00H
	DB	00H
	DB	05fH
	DB	077H
	DB	05fH
	DB	06cH
	DB	06fH
	DB	06eH
	DB	067H
	DB	063H
	DB	01H
	DB	00H
	DB	00H
	DB	00H
	DB	00H
	DB	00H
	DB	00H
	DB	00H
	DB	02H
	DB	00H
	DB	00H
	DB	00H
	DB	03H
	DB	00H
	DB	00H
	DB	00H
	DB	043H
	DB	00H
	DB	00H
	DB	00H
	DB	073H
	DB	044H
	DB	00H
	DB	00H
	DB	00H
	DB	07cH
	DB	00H
	DB	00H
	DB	064H
	DB	01H
	DB	00H
	DB	019H
	DB	07dH
	DB	01H
	DB	00H
	DB	07cH
	DB	01H
	DB	00H
	DB	07cH
	DB	00H
	DB	00H
	DB	064H
	DB	02H
	DB	00H
	DB	019H
	DB	064H
	DB	03H
	DB	00H
	DB	03eH
	DB	04fH
	DB	07dH
	DB	01H
	DB	00H
	DB	07cH
	DB	01H
	DB	00H
	DB	07cH
	DB	00H
	DB	00H
	DB	064H
	DB	04H
	DB	00H
	DB	019H
	DB	064H
	DB	05H
	DB	00H
	DB	03eH
	DB	04fH
	DB	07dH
	DB	01H
	DB	00H
	DB	07cH
	DB	01H
	DB	00H
	DB	07cH
	DB	00H
	DB	00H
	DB	064H
	DB	06H
	DB	00H
	DB	019H
	DB	064H
	DB	07H
	DB	00H
	DB	03eH
	DB	04fH
	DB	07dH
	DB	01H
	DB	00H
	DB	07cH
	DB	01H
	DB	00H
	DB	053H
	DB	028H
	DB	08H
	DB	00H
	DB	00H
	DB	00H
	DB	075H
	DB	073H
	DB	00H
	DB	00H
	DB	00H
	DB	043H
	DB	06fH
	DB	06eH
	DB	076H
	DB	065H
	DB	072H
	DB	074H
	DB	020H
	DB	034H
	DB	020H
	DB	062H
	DB	079H
	DB	074H
	DB	065H
	DB	073H
	DB	020H
	DB	069H
	DB	06eH
	DB	020H
	DB	06cH
	DB	069H
	DB	074H
	DB	074H
	DB	06cH
	DB	065H
	DB	02dH
	DB	065H
	DB	06eH
	DB	064H
	DB	069H
	DB	061H
	DB	06eH
	DB	020H
	DB	074H
	DB	06fH
	DB	020H
	DB	061H
	DB	06eH
	DB	020H
	DB	069H
	DB	06eH
	DB	074H
	DB	065H
	DB	067H
	DB	065H
	DB	072H
	DB	02eH
	DB	0aH
	DB	0aH
	DB	020H
	DB	020H
	DB	020H
	DB	020H
	DB	058H
	DB	058H
	DB	058H
	DB	020H
	DB	054H
	DB	065H
	DB	06dH
	DB	070H
	DB	06fH
	DB	072H
	DB	061H
	DB	072H
	DB	079H
	DB	020H
	DB	075H
	DB	06eH
	DB	074H
	DB	069H
	DB	06cH
	DB	020H
	DB	06dH
	DB	061H
	DB	072H
	DB	073H
	DB	068H
	DB	061H
	DB	06cH
	DB	027H
	DB	073H
	DB	020H
	DB	06cH
	DB	06fH
	DB	06eH
	DB	067H
	DB	020H
	DB	066H
	DB	075H
	DB	06eH
	DB	063H
	DB	074H
	DB	069H
	DB	06fH
	DB	06eH
	DB	020H
	DB	061H
	DB	072H
	DB	065H
	DB	020H
	DB	065H
	DB	078H
	DB	070H
	DB	06fH
	DB	073H
	DB	065H
	DB	064H
	DB	02eH
	DB	0aH
	DB	0aH
	DB	020H
	DB	020H
	DB	020H
	DB	020H
	DB	069H
	DB	00H
	DB	00H
	DB	00H
	DB	00H
	DB	069H
	DB	01H
	DB	00H
	DB	00H
	DB	00H
	DB	069H
	DB	08H
	DB	00H
	DB	00H
	DB	00H
	DB	069H
	DB	02H
	DB	00H
	DB	00H
	DB	00H
	DB	069H
	DB	010H
	DB	00H
	DB	00H
	DB	00H
	DB	069H
	DB	03H
	DB	00H
	DB	00H
	DB	00H
	DB	069H
	DB	018H
	DB	00H
	DB	00H
	DB	00H
	DB	028H
	DB	00H
	DB	00H
	DB	00H
	DB	00H
	DB	028H
	DB	02H
	DB	00H
	DB	00H
	DB	00H
	DB	075H
	DB	09H
	DB	00H
	DB	00H
	DB	00H
	DB	069H
	DB	06eH
	DB	074H
	DB	05fH
	DB	062H
	DB	079H
	DB	074H
	DB	065H
	DB	073H
	DB	075H
	DB	01H
	DB	00H
	DB	00H
	DB	00H
	DB	078H
	DB	028H
	DB	00H
	DB	00H
	DB	00H
	DB	00H
	DB	028H
	DB	00H
	DB	00H
	DB	00H
	DB	00H
	DB	075H
	DB	01dH
	DB	00H
	DB	00H
	DB	00H
	DB	03cH
	DB	066H
	DB	072H
	DB	06fH
	DB	07aH
	DB	065H
	DB	06eH
	DB	020H
	DB	069H
	DB	06dH
	DB	070H
	DB	06fH
	DB	072H
	DB	074H
	DB	06cH
	DB	069H
	DB	062H
	DB	02eH
	DB	05fH
	DB	062H
	DB	06fH
	DB	06fH
	DB	074H
	DB	073H
	DB	074H
	DB	072H
	DB	061H
	DB	070H
	DB	03eH
	DB	075H
	DB	07H
	DB	00H
	DB	00H
	DB	00H
	DB	05fH
	DB	072H
	DB	05fH
	DB	06cH
	DB	06fH
	DB	06eH
	DB	067H
	DB	03dH
	DB	00H
	DB	00H
	DB	00H
	DB	073H
	DB	0aH
	DB	00H
	DB	00H
	DB	00H
	DB	00H
	DB	06H
	DB	0aH
	DB	01H
	DB	012H
	DB	01H
	DB	012H
	DB	01H
	DB	012H
	DB	01H
	DB	075H
	DB	07H
	DB	00H
	DB	00H
	DB	00H
	DB	05fH
	DB	072H
	DB	05fH
	DB	06cH
	DB	06fH
	DB	06eH
	DB	067H
	DB	063H
	DB	00H
	DB	00H
	DB	00H
	DB	00H
	DB	00H
	DB	00H
	DB	00H
	DB	00H
	DB	03H
	DB	00H
	DB	00H
	DB	00H
	DB	04H
	DB	00H
	DB	00H
	DB	00H
	DB	047H
	DB	00H
	DB	00H
	DB	00H
	DB	073H
	DB	067H
	DB	00H
	DB	00H
	DB	00H
	DB	067H
	DB	00H
	DB	00H
	DB	07dH
	DB	01H
	DB	00H
	DB	078H
	DB	047H
	DB	00H
	DB	07cH
	DB	00H
	DB	00H
	DB	044H
	DB	05dH
	DB	03fH
	DB	00H
	DB	07dH
	DB	02H
	DB	00H
	DB	07cH
	DB	02H
	DB	00H
	DB	073H
	DB	01fH
	DB	00H
	DB	071H
	DB	0dH
	DB	00H
	DB	06eH
	DB	00H
	DB	00H
	DB	07cH
	DB	01H
	DB	00H
	DB	06aH
	DB	00H
	DB	00H
	DB	07cH
	DB	02H
	DB	00H
	DB	083H
	DB	01H
	DB	00H
	DB	01H
	DB	07cH
	DB	02H
	DB	00H
	DB	064H
	DB	04H
	DB	00H
	DB	019H
	DB	074H
	DB	01H
	DB	00H
	DB	06bH
	DB	07H
	DB	00H
	DB	072H
	DB	0dH
	DB	00H
	DB	07cH
	DB	01H
	DB	00H
	DB	06aH
	DB	00H
	DB	00H
	DB	074H
	DB	02H
	DB	00H
	DB	083H
	DB	01H
	DB	00H
	DB	01H
	DB	071H
	DB	0dH
	DB	00H
	DB	071H
	DB	0dH
	DB	00H
	DB	057H
	DB	064H
	DB	02H
	DB	00H
	DB	06aH
	DB	03H
	DB	00H
	DB	07cH
	DB	01H
	DB	00H
	DB	064H
	DB	03H
	DB	00H
	DB	064H
	DB	05H
	DB	00H
	DB	085H
	DB	02H
	DB	00H
	DB	019H
	DB	083H
	DB	01H
	DB	00H
	DB	053H
	DB	028H
	DB	06H
	DB	00H
	DB	00H
	DB	00H
	DB	075H
	DB	01fH
	DB	00H
	DB	00H
	DB	00H
	DB	052H
	DB	065H
	DB	070H
	DB	06cH
	DB	061H
	DB	063H
	DB	065H
	DB	06dH
	DB	065H
	DB	06eH
	DB	074H
	DB	020H
	DB	066H
	DB	06fH
	DB	072H
	DB	020H
	DB	06fH
	DB	073H
	DB	02eH
	DB	070H
	DB	061H
	DB	074H
	DB	068H
	DB	02eH
	DB	06aH
	DB	06fH
	DB	069H
	DB	06eH
	DB	028H
	DB	029H
	DB	02eH
	DB	069H
	DB	01H
	DB	00H
	DB	00H
	DB	00H
	DB	075H
	DB	00H
	DB	00H
	DB	00H
	DB	00H
	DB	04eH
	DB	069H
	DB	0ffH
	DB	0ffH
	DB	0ffH
	DB	0ffH
	DB	069H
	DB	0ffH
	DB	0ffH
	DB	0ffH
	DB	0ffH
	DB	028H
	DB	04H
	DB	00H
	DB	00H
	DB	00H
	DB	075H
	DB	06H
	DB	00H
	DB	00H
	DB	00H
	DB	061H
	DB	070H
	DB	070H
	DB	065H
	DB	06eH
	DB	064H
	DB	075H
	DB	0fH
	DB	00H
	DB	00H
	DB	00H
	DB	070H
	DB	061H
	DB	074H
	DB	068H
	DB	05fH
	DB	073H
	DB	065H
	DB	070H
	DB	061H
	DB	072H
	DB	061H
	DB	074H
	DB	06fH
	DB	072H
	DB	073H
	DB	075H
	DB	08H
	DB	00H
	DB	00H
	DB	00H
	DB	070H
	DB	061H
	DB	074H
	DB	068H
	DB	05fH
	DB	073H
	DB	065H
	DB	070H
	DB	075H
	DB	04H
	DB	00H
	DB	00H
	DB	00H
	DB	06aH
	DB	06fH
	DB	069H
	DB	06eH
	DB	028H
	DB	03H
	DB	00H
	DB	00H
	DB	00H
	DB	075H
	DB	0aH
	DB	00H
	DB	00H
	DB	00H
	DB	070H
	DB	061H
	DB	074H
	DB	068H
	DB	05fH
	DB	070H
	DB	061H
	DB	072H
	DB	074H
	DB	073H
	DB	075H
	DB	09H
	DB	00H
	DB	00H
	DB	00H
	DB	06eH
	DB	065H
	DB	077H
	DB	05fH
	DB	070H
	DB	061H
	DB	072H
	DB	074H
	DB	073H
	DB	075H
	DB	04H
	DB	00H
	DB	00H
	DB	00H
	DB	070H
	DB	061H
	DB	072H
	DB	074H
	DB	028H
	DB	00H
	DB	00H
	DB	00H
	DB	00H
	DB	028H
	DB	00H
	DB	00H
	DB	00H
	DB	00H
	DB	075H
	DB	01dH
	DB	00H
	DB	00H
	DB	00H
	DB	03cH
	DB	066H
	DB	072H
	DB	06fH
	DB	07aH
	DB	065H
	DB	06eH
	DB	020H
	DB	069H
	DB	06dH
	DB	070H
	DB	06fH
	DB	072H
	DB	074H
	DB	06cH
	DB	069H
	DB	062H
	DB	02eH
	DB	05fH
	DB	062H
	DB	06fH
	DB	06fH
	DB	074H
	DB	073H
	DB	074H
	DB	072H
	DB	061H
	DB	070H
	DB	03eH
	DB	075H
	DB	0aH
	DB	00H
	DB	00H
	DB	00H
	DB	05fH
	DB	070H
	DB	061H
	DB	074H
	DB	068H
	DB	05fH
	DB	06aH
	DB	06fH
	DB	069H
	DB	06eH
	DB	04aH
	DB	00H
	DB	00H
	DB	00H
	DB	073H
	DB	010H
	DB	00H
	DB	00H
	DB	00H
	DB	00H
	DB	02H
	DB	06H
	DB	01H
	DB	0dH
	DB	01H
	DB	06H
	DB	01H
	DB	06H
	DB	01H
	DB	0dH
	DB	01H
	DB	010H
	DB	01H
	DB	014H
	DB	01H
	DB	075H
	DB	0aH
	DB	00H
	DB	00H
	DB	00H
	DB	05fH
	DB	070H
	DB	061H
	DB	074H
	DB	068H
	DB	05fH
	DB	06aH
	DB	06fH
	DB	069H
	DB	06eH
	DB	063H
	DB	01H
	DB	00H
	DB	00H
	DB	00H
	DB	00H
	DB	00H
	DB	00H
	DB	00H
	DB	06H
	DB	00H
	DB	00H
	DB	00H
	DB	03H
	DB	00H
	DB	00H
	DB	00H
	DB	043H
	DB	00H
	DB	00H
	DB	00H
	DB	073H
	DB	055H
	DB	00H
	DB	00H
	DB	00H
	DB	078H
	DB	030H
	DB	00H
	DB	074H
	DB	00H
	DB	00H
	DB	07cH
	DB	00H
	DB	00H
	DB	083H
	DB	01H
	DB	00H
	DB	044H
	DB	05dH
	DB	01cH
	DB	00H
	DB	07dH
	DB	01H
	DB	00H
	DB	07cH
	DB	01H
	DB	00H
	DB	074H
	DB	01H
	DB	00H
	DB	06bH
	DB	06H
	DB	00H
	DB	072H
	DB	0dH
	DB	00H
	DB	07cH
	DB	01H
	DB	00H
	DB	07dH
	DB	02H
	DB	00H
	DB	050H
	DB	071H
	DB	0dH
	DB	00H
	DB	071H
	DB	0dH
	DB	00H
	DB	057H
	DB	074H
	DB	02H
	DB	00H
	DB	07dH
	DB	02H
	DB	00H
	DB	07cH
	DB	00H
	DB	00H
	DB	06aH
	DB	03H
	DB	00H
	DB	07cH
	DB	02H
	DB	00H
	DB	083H
	DB	01H
	DB	00H
	DB	05cH
	DB	03H
	DB	00H
	DB	07dH
	DB	03H
	DB	00H
	DB	07dH
	DB	04H
	DB	00H
	DB	07dH
	DB	05H
	DB	00H
	DB	07cH
	DB	03H
	DB	00H
	DB	07cH
	DB	05H
	DB	00H
	DB	066H
	DB	02H
	DB	00H
	DB	053H
	DB	028H
	DB	01H
	DB	00H
	DB	00H
	DB	00H
	DB	075H
	DB	020H
	DB	00H
	DB	00H
	DB	00H
	DB	052H
	DB	065H
	DB	070H
	DB	06cH
	DB	061H
	DB	063H
	DB	065H
	DB	06dH
	DB	065H
	DB	06eH
	DB	074H
	DB	020H
	DB	066H
	DB	06fH
	DB	072H
	DB	020H
	DB	06fH
	DB	073H
	DB	02eH
	DB	070H
	DB	061H
	DB	074H
	DB	068H
	DB	02eH
	DB	073H
	DB	070H
	DB	06cH
	DB	069H
	DB	074H
	DB	028H
	DB	029H
	DB	02eH
	DB	028H
	DB	04H
	DB	00H
	DB	00H
	DB	00H
	DB	075H
	DB	08H
	DB	00H
	DB	00H
	DB	00H
	DB	072H
	DB	065H
	DB	076H
	DB	065H
	DB	072H
	DB	073H
	DB	065H
	DB	064H
	DB	075H
	DB	0fH
	DB	00H
	DB	00H
	DB	00H
	DB	070H
	DB	061H
	DB	074H
	DB	068H
	DB	05fH
	DB	073H
	DB	065H
	DB	070H
	DB	061H
	DB	072H
	DB	061H
	DB	074H
	DB	06fH
	DB	072H
	DB	073H
	DB	075H
	DB	08H
	DB	00H
	DB	00H
	DB	00H
	DB	070H
	DB	061H
	DB	074H
	DB	068H
	DB	05fH
	DB	073H
	DB	065H
	DB	070H
	DB	075H
	DB	0aH
	DB	00H
	DB	00H
	DB	00H
	DB	072H
	DB	070H
	DB	061H
	DB	072H
	DB	074H
	DB	069H
	DB	074H
	DB	069H
	DB	06fH
	DB	06eH
	DB	028H
	DB	06H
	DB	00H
	DB	00H
	DB	00H
	DB	075H
	DB	04H
	DB	00H
	DB	00H
	DB	00H
	DB	070H
	DB	061H
	DB	074H
	DB	068H
	DB	075H
	DB	01H
	DB	00H
	DB	00H
	DB	00H
	DB	078H
	DB	075H
	DB	03H
	DB	00H
	DB	00H
	DB	00H
	DB	073H
	DB	065H
	DB	070H
	DB	075H
	DB	05H
	DB	00H
	DB	00H
	DB	00H
	DB	066H
	DB	072H
	DB	06fH
	DB	06eH
	DB	074H
	DB	075H
	DB	01H
	DB	00H
	DB	00H
	DB	00H
	DB	05fH
	DB	075H
	DB	04H
	DB	00H
	DB	00H
	DB	00H
	DB	074H
	DB	061H
	DB	069H
	DB	06cH
	DB	028H
	DB	00H
	DB	00H
	DB	00H
	DB	00H
	DB	028H
	DB	00H
	DB	00H
	DB	00H
	DB	00H
	DB	075H
	DB	01dH
	DB	00H
	DB	00H
	DB	00H
	DB	03cH
	DB	066H
	DB	072H
	DB	06fH
	DB	07aH
	DB	065H
	DB	06eH
	DB	020H
	DB	069H
	DB	06dH
	DB	070H
	DB	06fH
	DB	072H
	DB	074H
	DB	06cH
	DB	069H
	DB	062H
	DB	02eH
	DB	05fH
	DB	062H
	DB	06fH
	DB	06fH
	DB	074H
	DB	073H
	DB	074H
	DB	072H
	DB	061H
	DB	070H
	DB	03eH
	DB	075H
	DB	0bH
	DB	00H
	DB	00H
	DB	00H
	DB	05fH
	DB	070H
	DB	061H
	DB	074H
	DB	068H
	DB	05fH
	DB	073H
	DB	070H
	DB	06cH
	DB	069H
	DB	074H
	DB	056H
	DB	00H
	DB	00H
	DB	00H
	DB	073H
	DB	0eH
	DB	00H
	DB	00H
	DB	00H
	DB	00H
	DB	02H
	DB	013H
	DB	01H
	DB	0cH
	DB	01H
	DB	06H
	DB	01H
	DB	08H
	DB	02H
	DB	06H
	DB	01H
	DB	018H
	DB	01H
	DB	075H
	DB	0bH
	DB	00H
	DB	00H
	DB	00H
	DB	05fH
	DB	070H
	DB	061H
	DB	074H
	DB	068H
	DB	05fH
	DB	073H
	DB	070H
	DB	06cH
	DB	069H
	DB	074H
	DB	063H
	DB	02H
	DB	00H
	DB	00H
	DB	00H
	DB	00H
	DB	00H
	DB	00H
	DB	00H
	DB	03H
	DB	00H
	DB	00H
	DB	00H
	DB	0bH
	DB	00H
	DB	00H
	DB	00H
	DB	043H
	DB	00H
	DB	00H
	DB	00H
	DB	073H
	DB	03dH
	DB	00H
	DB	00H
	DB	00H
	DB	079H
	DB	013H
	DB	00H
	DB	074H
	DB	00H
	DB	00H
	DB	06aH
	DB	01H
	DB	00H
	DB	07cH
	DB	00H
	DB	00H
	DB	083H
	DB	01H
	DB	00H
	DB	07dH
	DB	02H
	DB	00H
	DB	057H
	DB	06eH
	DB	016H
	DB	00H
	DB	04H
	DB	074H
	DB	02H
	DB	00H
	DB	06bH
	DB	0aH
	DB	00H
	DB	072H
	DB	02bH
	DB	00H
	DB	01H
	DB	01H
	DB	01H
	DB	064H
	DB	02H
	DB	00H
	DB	053H
	DB	059H
	DB	06eH
	DB	01H
	DB	00H
	DB	058H
	DB	07cH
	DB	02H
	DB	00H
	DB	06aH
	DB	04H
	DB	00H
	DB	064H
	DB	01H
	DB	00H
	DB	040H
	DB	07cH
	DB	01H
	DB	00H
	DB	06bH
	DB	02H
	DB	00H
	DB	053H
	DB	028H
	DB	03H
	DB	00H
	DB	00H
	DB	00H
	DB	075H
	DB	031H
	DB	00H
	DB	00H
	DB	00H
	DB	054H
	DB	065H
	DB	073H
	DB	074H
	DB	020H
	DB	077H
	DB	068H
	DB	065H
	DB	074H
	DB	068H
	DB	065H
	DB	072H
	DB	020H
	DB	074H
	DB	068H
	DB	065H
	DB	020H
	DB	070H
	DB	061H
	DB	074H
	DB	068H
	DB	020H
	DB	069H
	DB	073H
	DB	020H
	DB	074H
	DB	068H
	DB	065H
	DB	020H
	DB	073H
	DB	070H
	DB	065H
	DB	063H
	DB	069H
	DB	066H
	DB	069H
	DB	065H
	DB	064H
	DB	020H
	DB	06dH
	DB	06fH
	DB	064H
	DB	065H
	DB	020H
	DB	074H
	DB	079H
	DB	070H
	DB	065H
	DB	02eH
	DB	069H
	DB	00H
	DB	0f0H
	DB	00H
	DB	00H
	DB	046H
	DB	028H
	DB	05H
	DB	00H
	DB	00H
	DB	00H
	DB	075H
	DB	03H
	DB	00H
	DB	00H
	DB	00H
	DB	05fH
	DB	06fH
	DB	073H
	DB	075H
	DB	04H
	DB	00H
	DB	00H
	DB	00H
	DB	073H
	DB	074H
	DB	061H
	DB	074H
	DB	075H
	DB	07H
	DB	00H
	DB	00H
	DB	00H
	DB	04fH
	DB	053H
	DB	045H
	DB	072H
	DB	072H
	DB	06fH
	DB	072H
	DB	075H
	DB	05H
	DB	00H
	DB	00H
	DB	00H
	DB	046H
	DB	061H
	DB	06cH
	DB	073H
	DB	065H
	DB	075H
	DB	07H
	DB	00H
	DB	00H
	DB	00H
	DB	073H
	DB	074H
	DB	05fH
	DB	06dH
	DB	06fH
	DB	064H
	DB	065H
	DB	028H
	DB	03H
	DB	00H
	DB	00H
	DB	00H
	DB	075H
	DB	04H
	DB	00H
	DB	00H
	DB	00H
	DB	070H
	DB	061H
	DB	074H
	DB	068H
	DB	075H
	DB	04H
	DB	00H
	DB	00H
	DB	00H
	DB	06dH
	DB	06fH
	DB	064H
	DB	065H
	DB	075H
	DB	09H
	DB	00H
	DB	00H
	DB	00H
	DB	073H
	DB	074H
	DB	061H
	DB	074H
	DB	05fH
	DB	069H
	DB	06eH
	DB	066H
	DB	06fH
	DB	028H
	DB	00H
	DB	00H
	DB	00H
	DB	00H
	DB	028H
	DB	00H
	DB	00H
	DB	00H
	DB	00H
	DB	075H
	DB	01dH
	DB	00H
	DB	00H
	DB	00H
	DB	03cH
	DB	066H
	DB	072H
	DB	06fH
	DB	07aH
	DB	065H
	DB	06eH
	DB	020H
	DB	069H
	DB	06dH
	DB	070H
	DB	06fH
	DB	072H
	DB	074H
	DB	06cH
	DB	069H
	DB	062H
	DB	02eH
	DB	05fH
	DB	062H
	DB	06fH
	DB	06fH
	DB	074H
	DB	073H
	DB	074H
	DB	072H
	DB	061H
	DB	070H
	DB	03eH
	DB	075H
	DB	012H
	DB	00H
	DB	00H
	DB	00H
	DB	05fH
	DB	070H
	DB	061H
	DB	074H
	DB	068H
	DB	05fH
	DB	069H
	DB	073H
	DB	05fH
	DB	06dH
	DB	06fH
	DB	064H
	DB	065H
	DB	05fH
	DB	074H
	DB	079H
	DB	070H
	DB	065H
	DB	062H
	DB	00H
	DB	00H
	DB	00H
	DB	073H
	DB	0aH
	DB	00H
	DB	00H
	DB	00H
	DB	00H
	DB	02H
	DB	03H
	DB	01H
	DB	013H
	DB	01H
	DB	0dH
	DB	01H
	DB	09H
	DB	01H
	DB	075H
	DB	012H
	DB	00H
	DB	00H
	DB	00H
	DB	05fH
	DB	070H
	DB	061H
	DB	074H
	DB	068H
	DB	05fH
	DB	069H
	DB	073H
	DB	05fH
	DB	06dH
	DB	06fH
	DB	064H
	DB	065H
	DB	05fH
	DB	074H
	DB	079H
	DB	070H
	DB	065H
	DB	063H
	DB	01H
	DB	00H
	DB	00H
	DB	00H
	DB	00H
	DB	00H
	DB	00H
	DB	00H
	DB	01H
	DB	00H
	DB	00H
	DB	00H
	DB	03H
	DB	00H
	DB	00H
	DB	00H
	DB	043H
	DB	00H
	DB	00H
	DB	00H
	DB	073H
	DB	0dH
	DB	00H
	DB	00H
	DB	00H
	DB	074H
	DB	00H
	DB	00H
	DB	07cH
	DB	00H
	DB	00H
	DB	064H
	DB	01H
	DB	00H
	DB	083H
	DB	02H
	DB	00H
	DB	053H
	DB	028H
	DB	02H
	DB	00H
	DB	00H
	DB	00H
	DB	075H
	DB	01fH
	DB	00H
	DB	00H
	DB	00H
	DB	052H
	DB	065H
	DB	070H
	DB	06cH
	DB	061H
	DB	063H
	DB	065H
	DB	06dH
	DB	065H
	DB	06eH
	DB	074H
	DB	020H
	DB	066H
	DB	06fH
	DB	072H
	DB	020H
	DB	06fH
	DB	073H
	DB	02eH
	DB	070H
	DB	061H
	DB	074H
	DB	068H
	DB	02eH
	DB	069H
	DB	073H
	DB	066H
	DB	069H
	DB	06cH
	DB	065H
	DB	02eH
	DB	069H
	DB	00H
	DB	080H
	DB	00H
	DB	00H
	DB	028H
	DB	01H
	DB	00H
	DB	00H
	DB	00H
	DB	075H
	DB	012H
	DB	00H
	DB	00H
	DB	00H
	DB	05fH
	DB	070H
	DB	061H
	DB	074H
	DB	068H
	DB	05fH
	DB	069H
	DB	073H
	DB	05fH
	DB	06dH
	DB	06fH
	DB	064H
	DB	065H
	DB	05fH
	DB	074H
	DB	079H
	DB	070H
	DB	065H
	DB	028H
	DB	01H
	DB	00H
	DB	00H
	DB	00H
	DB	075H
	DB	04H
	DB	00H
	DB	00H
	DB	00H
	DB	070H
	DB	061H
	DB	074H
	DB	068H
	DB	028H
	DB	00H
	DB	00H
	DB	00H
	DB	00H
	DB	028H
	DB	00H
	DB	00H
	DB	00H
	DB	00H
	DB	075H
	DB	01dH
	DB	00H
	DB	00H
	DB	00H
	DB	03cH
	DB	066H
	DB	072H
	DB	06fH
	DB	07aH
	DB	065H
	DB	06eH
	DB	020H
	DB	069H
	DB	06dH
	DB	070H
	DB	06fH
	DB	072H
	DB	074H
	DB	06cH
	DB	069H
	DB	062H
	DB	02eH
	DB	05fH
	DB	062H
	DB	06fH
	DB	06fH
	DB	074H
	DB	073H
	DB	074H
	DB	072H
	DB	061H
	DB	070H
	DB	03eH
	DB	075H
	DB	0cH
	DB	00H
	DB	00H
	DB	00H
	DB	05fH
	DB	070H
	DB	061H
	DB	074H
	DB	068H
	DB	05fH
	DB	069H
	DB	073H
	DB	066H
	DB	069H
	DB	06cH
	DB	065H
	DB	06cH
	DB	00H
	DB	00H
	DB	00H
	DB	073H
	DB	02H
	DB	00H
	DB	00H
	DB	00H
	DB	00H
	DB	02H
	DB	075H
	DB	0cH
	DB	00H
	DB	00H
	DB	00H
	DB	05fH
	DB	070H
	DB	061H
	DB	074H
	DB	068H
	DB	05fH
	DB	069H
	DB	073H
	DB	066H
	DB	069H
	DB	06cH
	DB	065H
	DB	063H
	DB	01H
	DB	00H
	DB	00H
	DB	00H
	DB	00H
	DB	00H
	DB	00H
	DB	00H
	DB	01H
	DB	00H
	DB	00H
	DB	00H
	DB	03H
	DB	00H
	DB	00H
	DB	00H
	DB	043H
	DB	00H
	DB	00H
	DB	00H
	DB	073H
	DB	022H
	DB	00H
	DB	00H
	DB	00H
	DB	07cH
	DB	00H
	DB	00H
	DB	073H
	DB	015H
	DB	00H
	DB	074H
	DB	00H
	DB	00H
	DB	06aH
	DB	01H
	DB	00H
	DB	083H
	DB	00H
	DB	00H
	DB	07dH
	DB	00H
	DB	00H
	DB	06eH
	DB	00H
	DB	00H
	DB	074H
	DB	02H
	DB	00H
	DB	07cH
	DB	00H
	DB	00H
	DB	064H
	DB	01H
	DB	00H
	DB	083H
	DB	02H
	DB	00H
	DB	053H
	DB	028H
	DB	02H
	DB	00H
	DB	00H
	DB	00H
	DB	075H
	DB	01eH
	DB	00H
	DB	00H
	DB	00H
	DB	052H
	DB	065H
	DB	070H
	DB	06cH
	DB	061H
	DB	063H
	DB	065H
	DB	06dH
	DB	065H
	DB	06eH
	DB	074H
	DB	020H
	DB	066H
	DB	06fH
	DB	072H
	DB	020H
	DB	06fH
	DB	073H
	DB	02eH
	DB	070H
	DB	061H
	DB	074H
	DB	068H
	DB	02eH
	DB	069H
	DB	073H
	DB	064H
	DB	069H
	DB	072H
	DB	02eH
	DB	069H
	DB	00H
	DB	040H
	DB	00H
	DB	00H
	DB	028H
	DB	03H
	DB	00H
	DB	00H
	DB	00H
	DB	075H
	DB	03H
	DB	00H
	DB	00H
	DB	00H
	DB	05fH
	DB	06fH
	DB	073H
	DB	075H
	DB	06H
	DB	00H
	DB	00H
	DB	00H
	DB	067H
	DB	065H
	DB	074H
	DB	063H
	DB	077H
	DB	064H
	DB	075H
	DB	012H
	DB	00H
	DB	00H
	DB	00H
	DB	05fH
	DB	070H
	DB	061H
	DB	074H
	DB	068H
	DB	05fH
	DB	069H
	DB	073H
	DB	05fH
	DB	06dH
	DB	06fH
	DB	064H
	DB	065H
	DB	05fH
	DB	074H
	DB	079H
	DB	070H
	DB	065H
	DB	028H
	DB	01H
	DB	00H
	DB	00H
	DB	00H
	DB	075H
	DB	04H
	DB	00H
	DB	00H
	DB	00H
	DB	070H
	DB	061H
	DB	074H
	DB	068H
	DB	028H
	DB	00H
	DB	00H
	DB	00H
	DB	00H
	DB	028H
	DB	00H
	DB	00H
	DB	00H
	DB	00H
	DB	075H
	DB	01dH
	DB	00H
	DB	00H
	DB	00H
	DB	03cH
	DB	066H
	DB	072H
	DB	06fH
	DB	07aH
	DB	065H
	DB	06eH
	DB	020H
	DB	069H
	DB	06dH
	DB	070H
	DB	06fH
	DB	072H
	DB	074H
	DB	06cH
	DB	069H
	DB	062H
	DB	02eH
	DB	05fH
	DB	062H
	DB	06fH
	DB	06fH
	DB	074H
	DB	073H
	DB	074H
	DB	072H
	DB	061H
	DB	070H
	DB	03eH
	DB	075H
	DB	0bH
	DB	00H
	DB	00H
	DB	00H
	DB	05fH
	DB	070H
	DB	061H
	DB	074H
	DB	068H
	DB	05fH
	DB	069H
	DB	073H
	DB	064H
	DB	069H
	DB	072H
	DB	072H
	DB	00H
	DB	00H
	DB	00H
	DB	073H
	DB	06H
	DB	00H
	DB	00H
	DB	00H
	DB	00H
	DB	02H
	DB	06H
	DB	01H
	DB	0fH
	DB	01H
	DB	075H
	DB	0bH
	DB	00H
	DB	00H
	DB	00H
	DB	05fH
	DB	070H
	DB	061H
	DB	074H
	DB	068H
	DB	05fH
	DB	069H
	DB	073H
	DB	064H
	DB	069H
	DB	072H
	DB	069H
	DB	0b6H
	DB	01H
	DB	00H
	DB	00H
	DB	063H
	DB	03H
	DB	00H
	DB	00H
	DB	00H
	DB	00H
	DB	00H
	DB	00H
	DB	00H
	DB	06H
	DB	00H
	DB	00H
	DB	00H
	DB	011H
	DB	00H
	DB	00H
	DB	00H
	DB	043H
	DB	00H
	DB	00H
	DB	00H
	DB	073H
	DB	0c0H
	DB	00H
	DB	00H
	DB	00H
	DB	064H
	DB	01H
	DB	00H
	DB	06aH
	DB	00H
	DB	00H
	DB	07cH
	DB	00H
	DB	00H
	DB	074H
	DB	01H
	DB	00H
	DB	07cH
	DB	00H
	DB	00H
	DB	083H
	DB	01H
	DB	00H
	DB	083H
	DB	02H
	DB	00H
	DB	07dH
	DB	03H
	DB	00H
	DB	074H
	DB	02H
	DB	00H
	DB	06aH
	DB	03H
	DB	00H
	DB	07cH
	DB	03H
	DB	00H
	DB	074H
	DB	02H
	DB	00H
	DB	06aH
	DB	04H
	DB	00H
	DB	074H
	DB	02H
	DB	00H
	DB	06aH
	DB	05H
	DB	00H
	DB	042H
	DB	074H
	DB	02H
	DB	00H
	DB	06aH
	DB	06H
	DB	00H
	DB	042H
	DB	07cH
	DB	02H
	DB	00H
	DB	064H
	DB	02H
	DB	00H
	DB	040H
	DB	083H
	DB	03H
	DB	00H
	DB	07dH
	DB	04H
	DB	00H
	DB	079H
	DB	03cH
	DB	00H
	DB	074H
	DB	07H
	DB	00H
	DB	06aH
	DB	08H
	DB	00H
	DB	07cH
	DB	04H
	DB	00H
	DB	064H
	DB	03H
	DB	00H
	DB	083H
	DB	02H
	DB	00H
	DB	08fH
	DB	014H
	DB	00H
	DB	07dH
	DB	05H
	DB	00H
	DB	07cH
	DB	05H
	DB	00H
	DB	06aH
	DB	09H
	DB	00H
	DB	07cH
	DB	01H
	DB	00H
	DB	083H
	DB	01H
	DB	00H
	DB	01H
	DB	057H
	DB	064H
	DB	04H
	DB	00H
	DB	051H
	DB	058H
	DB	074H
	DB	02H
	DB	00H
	DB	06aH
	DB	0aH
	DB	00H
	DB	07cH
	DB	03H
	DB	00H
	DB	07cH
	DB	00H
	DB	00H
	DB	083H
	DB	02H
	DB	00H
	DB	01H
	DB	057H
	DB	06eH
	DB	03bH
	DB	00H
	DB	04H
	DB	074H
	DB	0bH
	DB	00H
	DB	06bH
	DB	0aH
	DB	00H
	DB	072H
	DB	0bbH
	DB	00H
	DB	01H
	DB	01H
	DB	01H
	DB	079H
	DB	011H
	DB	00H
	DB	074H
	DB	02H
	DB	00H
	DB	06aH
	DB	0cH
	DB	00H
	DB	07cH
	DB	03H
	DB	00H
	DB	083H
	DB	01H
	DB	00H
	DB	01H
	DB	057H
	DB	06eH
	DB	012H
	DB	00H
	DB	04H
	DB	074H
	DB	0bH
	DB	00H
	DB	06bH
	DB	0aH
	DB	00H
	DB	072H
	DB	0b3H
	DB	00H
	DB	01H
	DB	01H
	DB	01H
	DB	059H
	DB	06eH
	DB	01H
	DB	00H
	DB	058H
	DB	082H
	DB	00H
	DB	00H
	DB	059H
	DB	06eH
	DB	01H
	DB	00H
	DB	058H
	DB	064H
	DB	04H
	DB	00H
	DB	053H
	DB	028H
	DB	05H
	DB	00H
	DB	00H
	DB	00H
	DB	075H
	DB	0a2H
	DB	00H
	DB	00H
	DB	00H
	DB	042H
	DB	065H
	DB	073H
	DB	074H
	DB	02dH
	DB	065H
	DB	066H
	DB	066H
	DB	06fH
	DB	072H
	DB	074H
	DB	020H
	DB	066H
	DB	075H
	DB	06eH
	DB	063H
	DB	074H
	DB	069H
	DB	06fH
	DB	06eH
	DB	020H
	DB	074H
	DB	06fH
	DB	020H
	DB	077H
	DB	072H
	DB	069H
	DB	074H
	DB	065H
	DB	020H
	DB	064H
	DB	061H
	DB	074H
	DB	061H
	DB	020H
	DB	074H
	DB	06fH
	DB	020H
	DB	061H
	DB	020H
	DB	070H
	DB	061H
	DB	074H
	DB	068H
	DB	020H
	DB	061H
	DB	074H
	DB	06fH
	DB	06dH
	DB	069H
	DB	063H
	DB	061H
	DB	06cH
	DB	06cH
	DB	079H
	DB	02eH
	DB	0aH
	DB	020H
	DB	020H
	DB	020H
	DB	020H
	DB	042H
	DB	065H
	DB	020H
	DB	070H
	DB	072H
	DB	065H
	DB	070H
	DB	061H
	DB	072H
	DB	065H
	DB	064H
	DB	020H
	DB	074H
	DB	06fH
	DB	020H
	DB	068H
	DB	061H
	DB	06eH
	DB	064H
	DB	06cH
	DB	065H
	DB	020H
	DB	061H
	DB	020H
	DB	046H
	DB	069H
	DB	06cH
	DB	065H
	DB	045H
	DB	078H
	DB	069H
	DB	073H
	DB	074H
	DB	073H
	DB	045H
	DB	072H
	DB	072H
	DB	06fH
	DB	072H
	DB	020H
	DB	069H
	DB	066H
	DB	020H
	DB	063H
	DB	06fH
	DB	06eH
	DB	063H
	DB	075H
	DB	072H
	DB	072H
	DB	065H
	DB	06eH
	DB	074H
	DB	020H
	DB	077H
	DB	072H
	DB	069H
	DB	074H
	DB	069H
	DB	06eH
	DB	067H
	DB	020H
	DB	06fH
	DB	066H
	DB	020H
	DB	074H
	DB	068H
	DB	065H
	DB	0aH
	DB	020H
	DB	020H
	DB	020H
	DB	020H
	DB	074H
	DB	065H
	DB	06dH
	DB	070H
	DB	06fH
	DB	072H
	DB	061H
	DB	072H
	DB	079H
	DB	020H
	DB	066H
	DB	069H
	DB	06cH
	DB	065H
	DB	020H
	DB	069H
	DB	073H
	DB	020H
	DB	061H
	DB	074H
	DB	074H
	DB	065H
	DB	06dH
	DB	070H
	DB	074H
	DB	065H
	DB	064H
	DB	02eH
	DB	075H
	DB	05H
	DB	00H
	DB	00H
	DB	00H
	DB	07bH
	DB	07dH
	DB	02eH
	DB	07bH
	DB	07dH
	DB	069H
	DB	0b6H
	DB	01H
	DB	00H
	DB	00H
	DB	075H
	DB	02H
	DB	00H
	DB	00H
	DB	00H
	DB	077H
	DB	062H
	DB	04eH
	DB	028H
	DB	0dH
	DB	00H
	DB	00H
	DB	00H
	DB	075H
	DB	06H
	DB	00H
	DB	00H
	DB	00H
	DB	066H
	DB	06fH
	DB	072H
	DB	06dH
	DB	061H
	DB	074H
	DB	075H
	DB	02H
	DB	00H
	DB	00H
	DB	00H
	DB	069H
	DB	064H
	DB	075H
	DB	03H
	DB	00H
	DB	00H
	DB	00H
	DB	05fH
	DB	06fH
	DB	073H
	DB	075H
	DB	04H
	DB	00H
	DB	00H
	DB	00H
	DB	06fH
	DB	070H
	DB	065H
	DB	06eH
	DB	075H
	DB	06H
	DB	00H
	DB	00H
	DB	00H
	DB	04fH
	DB	05fH
	DB	045H
	DB	058H
	DB	043H
	DB	04cH
	DB	075H
	DB	07H
	DB	00H
	DB	00H
	DB	00H
	DB	04fH
	DB	05fH
	DB	043H
	DB	052H
	DB	045H
	DB	041H
	DB	054H
	DB	075H
	DB	08H
	DB	00H
	DB	00H
	DB	00H
	DB	04fH
	DB	05fH
	DB	057H
	DB	052H
	DB	04fH
	DB	04eH
	DB	04cH
	DB	059H
	DB	075H
	DB	03H
	DB	00H
	DB	00H
	DB	00H
	DB	05fH
	DB	069H
	DB	06fH
	DB	075H
	DB	06H
	DB	00H
	DB	00H
	DB	00H
	DB	046H
	DB	069H
	DB	06cH
	DB	065H
	DB	049H
	DB	04fH
	DB	075H
	DB	05H
	DB	00H
	DB	00H
	DB	00H
	DB	077H
	DB	072H
	DB	069H
	DB	074H
	DB	065H
	DB	075H
	DB	07H
	DB	00H
	DB	00H
	DB	00H
	DB	072H
	DB	065H
	DB	070H
	DB	06cH
	DB	061H
	DB	063H
	DB	065H
	DB	075H
	DB	07H
	DB	00H
	DB	00H
	DB	00H
	DB	04fH
	DB	053H
	DB	045H
	DB	072H
	DB	072H
	DB	06fH
	DB	072H
	DB	075H
	DB	06H
	DB	00H
	DB	00H
	DB	00H
	DB	075H
	DB	06eH
	DB	06cH
	DB	069H
	DB	06eH
	DB	06bH
	DB	028H
	DB	06H
	DB	00H
	DB	00H
	DB	00H
	DB	075H
	DB	04H
	DB	00H
	DB	00H
	DB	00H
	DB	070H
	DB	061H
	DB	074H
	DB	068H
	DB	075H
	DB	04H
	DB	00H
	DB	00H
	DB	00H
	DB	064H
	DB	061H
	DB	074H
	DB	061H
	DB	075H
	DB	04H
	DB	00H
	DB	00H
	DB	00H
	DB	06dH
	DB	06fH
	DB	064H
	DB	065H
	DB	075H
	DB	08H
	DB	00H
	DB	00H
	DB	00H
	DB	070H
	DB	061H
	DB	074H
	DB	068H
	DB	05fH
	DB	074H
	DB	06dH
	DB	070H
	DB	075H
	DB	02H
	DB	00H
	DB	00H
	DB	00H
	DB	066H
	DB	064H
	DB	075H
	DB	04H
	DB	00H
	DB	00H
	DB	00H
	DB	066H
	DB	069H
	DB	06cH
	DB	065H
	DB	028H
	DB	00H
	DB	00H
	DB	00H
	DB	00H
	DB	028H
	DB	00H
	DB	00H
	DB	00H
	DB	00H
	DB	075H
	DB	01dH
	DB	00H
	DB	00H
	DB	00H
	DB	03cH
	DB	066H
	DB	072H
	DB	06fH
	DB	07aH
	DB	065H
	DB	06eH
	DB	020H
	DB	069H
	DB	06dH
	DB	070H
	DB	06fH
	DB	072H
	DB	074H
	DB	06cH
	DB	069H
	DB	062H
	DB	02eH
	DB	05fH
	DB	062H
	DB	06fH
	DB	06fH
	DB	074H
	DB	073H
	DB	074H
	DB	072H
	DB	061H
	DB	070H
	DB	03eH
	DB	075H
	DB	0dH
	DB	00H
	DB	00H
	DB	00H
	DB	05fH
	DB	077H
	DB	072H
	DB	069H
	DB	074H
	DB	065H
	DB	05fH
	DB	061H
	DB	074H
	DB	06fH
	DB	06dH
	DB	069H
	DB	063H
	DB	079H
	DB	00H
	DB	00H
	DB	00H
	DB	073H
	DB	01aH
	DB	00H
	DB	00H
	DB	00H
	DB	00H
	DB	05H
	DB	018H
	DB	01H
	DB	09H
	DB	01H
	DB	021H
	DB	01H
	DB	03H
	DB	03H
	DB	015H
	DB	01H
	DB	013H
	DB	01H
	DB	014H
	DB	01H
	DB	0dH
	DB	01H
	DB	03H
	DB	01H
	DB	011H
	DB	01H
	DB	0dH
	DB	01H
	DB	05H
	DB	01H
	DB	075H
	DB	0dH
	DB	00H
	DB	00H
	DB	00H
	DB	05fH
	DB	077H
	DB	072H
	DB	069H
	DB	074H
	DB	065H
	DB	05fH
	DB	061H
	DB	074H
	DB	06fH
	DB	06dH
	DB	069H
	DB	063H
	DB	063H
	DB	02H
	DB	00H
	DB	00H
	DB	00H
	DB	00H
	DB	00H
	DB	00H
	DB	00H
	DB	03H
	DB	00H
	DB	00H
	DB	00H
	DB	07H
	DB	00H
	DB	00H
	DB	00H
	DB	043H
	DB	00H
	DB	00H
	DB	00H
	DB	073H
	DB	05fH
	DB	00H
	DB	00H
	DB	00H
	DB	078H
	DB	045H
	DB	00H
	DB	064H
	DB	01H
	DB	00H
	DB	064H
	DB	02H
	DB	00H
	DB	064H
	DB	03H
	DB	00H
	DB	064H
	DB	04H
	DB	00H
	DB	067H
	DB	04H
	DB	00H
	DB	044H
	DB	05dH
	DB	031H
	DB	00H
	DB	07dH
	DB	02H
	DB	00H
	DB	074H
	DB	00H
	DB	00H
	DB	07cH
	DB	01H
	DB	00H
	DB	07cH
	DB	02H
	DB	00H
	DB	083H
	DB	02H
	DB	00H
	DB	072H
	DB	013H
	DB	00H
	DB	074H
	DB	01H
	DB	00H
	DB	07cH
	DB	00H
	DB	00H
	DB	07cH
	DB	02H
	DB	00H
	DB	074H
	DB	02H
	DB	00H
	DB	07cH
	DB	01H
	DB	00H
	DB	07cH
	DB	02H
	DB	00H
	DB	083H
	DB	02H
	DB	00H
	DB	083H
	DB	03H
	DB	00H
	DB	01H
	DB	071H
	DB	013H
	DB	00H
	DB	071H
	DB	013H
	DB	00H
	DB	057H
	DB	07cH
	DB	00H
	DB	00H
	DB	06aH
	DB	03H
	DB	00H
	DB	06aH
	DB	04H
	DB	00H
	DB	07cH
	DB	01H
	DB	00H
	DB	06aH
	DB	03H
	DB	00H
	DB	083H
	DB	01H
	DB	00H
	DB	01H
	DB	064H
	DB	05H
	DB	00H
	DB	053H
	DB	028H
	DB	06H
	DB	00H
	DB	00H
	DB	00H
	DB	075H
	DB	02fH
	DB	00H
	DB	00H
	DB	00H
	DB	053H
	DB	069H
	DB	06dH
	DB	070H
	DB	06cH
	DB	065H
	DB	020H
	DB	073H
	DB	075H
	DB	062H
	DB	073H
	DB	074H
	DB	069H
	DB	074H
	DB	075H
	DB	074H
	DB	065H
	DB	020H
	DB	066H
	DB	06fH
	DB	072H
	DB	020H
	DB	066H
	DB	075H
	DB	06eH
	DB	063H
	DB	074H
	DB	06fH
	DB	06fH
	DB	06cH
	DB	073H
	DB	02eH
	DB	075H
	DB	070H
	DB	064H
	DB	061H
	DB	074H
	DB	065H
	DB	05fH
	DB	077H
	DB	072H
	DB	061H
	DB	070H
	DB	070H
	DB	065H
	DB	072H
	DB	02eH
	DB	075H
	DB	0aH
	DB	00H
	DB	00H
	DB	00H
	DB	05fH
	DB	05fH
	DB	06dH
	DB	06fH
	DB	064H
	DB	075H
	DB	06cH
	DB	065H
	DB	05fH
	DB	05fH
	DB	075H
	DB	08H
	DB	00H
	DB	00H
	DB	00H
	DB	05fH
	DB	05fH
	DB	06eH
	DB	061H
	DB	06dH
	DB	065H
	DB	05fH
	DB	05fH
	DB	075H
	DB	0cH
	DB	00H
	DB	00H
	DB	00H
	DB	05fH
	DB	05fH
	DB	071H
	DB	075H
	DB	061H
	DB	06cH
	DB	06eH
	DB	061H
	DB	06dH
	DB	065H
	DB	05fH
	DB	05fH
	DB	075H
	DB	07H
	DB	00H
	DB	00H
	DB	00H
	DB	05fH
	DB	05fH
	DB	064H
	DB	06fH
	DB	063H
	DB	05fH
	DB	05fH
	DB	04eH
	DB	028H
	DB	05H
	DB	00H
	DB	00H
	DB	00H
	DB	075H
	DB	07H
	DB	00H
	DB	00H
	DB	00H
	DB	068H
	DB	061H
	DB	073H
	DB	061H
	DB	074H
	DB	074H
	DB	072H
	DB	075H
	DB	07H
	DB	00H
	DB	00H
	DB	00H
	DB	073H
	DB	065H
	DB	074H
	DB	061H
	DB	074H
	DB	074H
	DB	072H
	DB	075H
	DB	07H
	DB	00H
	DB	00H
	DB	00H
	DB	067H
	DB	065H
	DB	074H
	DB	061H
	DB	074H
	DB	074H
	DB	072H
	DB	075H
	DB	08H
	DB	00H
	DB	00H
	DB	00H
	DB	05fH
	DB	05fH
	DB	064H
	DB	069H
	DB	063H
	DB	074H
	DB	05fH
	DB	05fH
	DB	075H
	DB	06H
	DB	00H
	DB	00H
	DB	00H
	DB	075H
	DB	070H
	DB	064H
	DB	061H
	DB	074H
	DB	065H
	DB	028H
	DB	03H
	DB	00H
	DB	00H
	DB	00H
	DB	075H
	DB	03H
	DB	00H
	DB	00H
	DB	00H
	DB	06eH
	DB	065H
	DB	077H
	DB	075H
	DB	03H
	DB	00H
	DB	00H
	DB	00H
	DB	06fH
	DB	06cH
	DB	064H
	DB	075H
	DB	07H
	DB	00H
	DB	00H
	DB	00H
	DB	072H
	DB	065H
	DB	070H
	DB	06cH
	DB	061H
	DB	063H
	DB	065H
	DB	028H
	DB	00H
	DB	00H
	DB	00H
	DB	00H
	DB	028H
	DB	00H
	DB	00H
	DB	00H
	DB	00H
	DB	075H
	DB	01dH
	DB	00H
	DB	00H
	DB	00H
	DB	03cH
	DB	066H
	DB	072H
	DB	06fH
	DB	07aH
	DB	065H
	DB	06eH
	DB	020H
	DB	069H
	DB	06dH
	DB	070H
	DB	06fH
	DB	072H
	DB	074H
	DB	06cH
	DB	069H
	DB	062H
	DB	02eH
	DB	05fH
	DB	062H
	DB	06fH
	DB	06fH
	DB	074H
	DB	073H
	DB	074H
	DB	072H
	DB	061H
	DB	070H
	DB	03eH
	DB	075H
	DB	05H
	DB	00H
	DB	00H
	DB	00H
	DB	05fH
	DB	077H
	DB	072H
	DB	061H
	DB	070H
	DB	08fH
	DB	00H
	DB	00H
	DB	00H
	DB	073H
	DB	08H
	DB	00H
	DB	00H
	DB	00H
	DB	00H
	DB	02H
	DB	019H
	DB	01H
	DB	0fH
	DB	01H
	DB	020H
	DB	01H
	DB	075H
	DB	05H
	DB	00H
	DB	00H
	DB	00H
	DB	05fH
	DB	077H
	DB	072H
	DB	061H
	DB	070H
	DB	063H
	DB	01H
	DB	00H
	DB	00H
	DB	00H
	DB	00H
	DB	00H
	DB	00H
	DB	00H
	DB	01H
	DB	00H
	DB	00H
	DB	00H
	DB	02H
	DB	00H
	DB	00H
	DB	00H
	DB	043H
	DB	00H
	DB	00H
	DB	00H
	DB	073H
	DB	010H
	DB	00H
	DB	00H
	DB	00H
	DB	074H
	DB	00H
	DB	00H
	DB	074H
	DB	01H
	DB	00H
	DB	083H
	DB	01H
	DB	00H
	DB	07cH
	DB	00H
	DB	00H
	DB	083H
	DB	01H
	DB	00H
	DB	053H
	DB	028H
	DB	01H
	DB	00H
	DB	00H
	DB	00H
	DB	075H
	DB	04bH
	DB	00H
	DB	00H
	DB	00H
	DB	043H
	DB	072H
	DB	065H
	DB	061H
	DB	074H
	DB	065H
	DB	020H
	DB	061H
	DB	020H
	DB	06eH
	DB	065H
	DB	077H
	DB	020H
	DB	06dH
	DB	06fH
	DB	064H
	DB	075H
	DB	06cH
	DB	065H
	DB	02eH
	DB	0aH
	DB	0aH
	DB	020H
	DB	020H
	DB	020H
	DB	020H
	DB	054H
	DB	068H
	DB	065H
	DB	020H
	DB	06dH
	DB	06fH
	DB	064H
	DB	075H
	DB	06cH
	DB	065H
	DB	020H
	DB	069H
	DB	073H
	DB	020H
	DB	06eH
	DB	06fH
	DB	074H
	DB	020H
	DB	065H
	DB	06eH
	DB	074H
	DB	065H
	DB	072H
	DB	065H
	DB	064H
	DB	020H
	DB	069H
	DB	06eH
	DB	074H
	DB	06fH
	DB	020H
	DB	073H
	DB	079H
	DB	073H
	DB	02eH
	DB	06dH
	DB	06fH
	DB	064H
	DB	075H
	DB	06cH
	DB	065H
	DB	073H
	DB	02eH
	DB	0aH
	DB	0aH
	DB	020H
	DB	020H
	DB	020H
	DB	020H
	DB	028H
	DB	02H
	DB	00H
	DB	00H
	DB	00H
	DB	075H
	DB	04H
	DB	00H
	DB	00H
	DB	00H
	DB	074H
	DB	079H
	DB	070H
	DB	065H
	DB	075H
	DB	03H
	DB	00H
	DB	00H
	DB	00H
	DB	05fH
	DB	069H
	DB	06fH
	DB	028H
	DB	01H
	DB	00H
	DB	00H
	DB	00H
	DB	075H
	DB	04H
	DB	00H
	DB	00H
	DB	00H
	DB	06eH
	DB	061H
	DB	06dH
	DB	065H
	DB	028H
	DB	00H
	DB	00H
	DB	00H
	DB	00H
	DB	028H
	DB	00H
	DB	00H
	DB	00H
	DB	00H
	DB	075H
	DB	01dH
	DB	00H
	DB	00H
	DB	00H
	DB	03cH
	DB	066H
	DB	072H
	DB	06fH
	DB	07aH
	DB	065H
	DB	06eH
	DB	020H
	DB	069H
	DB	06dH
	DB	070H
	DB	06fH
	DB	072H
	DB	074H
	DB	06cH
	DB	069H
	DB	062H
	DB	02eH
	DB	05fH
	DB	062H
	DB	06fH
	DB	06fH
	DB	074H
	DB	073H
	DB	074H
	DB	072H
	DB	061H
	DB	070H
	DB	03eH
	DB	075H
	DB	0aH
	DB	00H
	DB	00H
	DB	00H
	DB	06eH
	DB	065H
	DB	077H
	DB	05fH
	DB	06dH
	DB	06fH
	DB	064H
	DB	075H
	DB	06cH
	DB	065H
	DB	09aH
	DB	00H
	DB	00H
	DB	00H
	DB	073H
	DB	02H
	DB	00H
	DB	00H
	DB	00H
	DB	00H
	DB	06H
	DB	075H
	DB	0aH
	DB	00H
	DB	00H
	DB	00H
	DB	06eH
	DB	065H
	DB	077H
	DB	05fH
	DB	06dH
	DB	06fH
	DB	064H
	DB	075H
	DB	06cH
	DB	065H
	DB	063H
	DB	01H
	DB	00H
	DB	00H
	DB	00H
	DB	00H
	DB	00H
	DB	00H
	DB	00H
	DB	01H
	DB	00H
	DB	00H
	DB	00H
	DB	01H
	DB	00H
	DB	00H
	DB	00H
	DB	042H
	DB	00H
	DB	00H
	DB	00H
	DB	073H
	DB	014H
	DB	00H
	DB	00H
	DB	00H
	DB	07cH
	DB	00H
	DB	00H
	DB	045H
	DB	065H
	DB	00H
	DB	00H
	DB	05aH
	DB	01H
	DB	00H
	DB	064H
	DB	00H
	DB	00H
	DB	05aH
	DB	02H
	DB	00H
	DB	064H
	DB	01H
	DB	00H
	DB	053H
	DB	028H
	DB	02H
	DB	00H
	DB	00H
	DB	00H
	DB	075H
	DB	0eH
	DB	00H
	DB	00H
	DB	00H
	DB	05fH
	DB	044H
	DB	065H
	DB	061H
	DB	064H
	DB	06cH
	DB	06fH
	DB	063H
	DB	06bH
	DB	045H
	DB	072H
	DB	072H
	DB	06fH
	DB	072H
	DB	04eH
	DB	028H
	DB	03H
	DB	00H
	DB	00H
	DB	00H
	DB	075H
	DB	08H
	DB	00H
	DB	00H
	DB	00H
	DB	05fH
	DB	05fH
	DB	06eH
	DB	061H
	DB	06dH
	DB	065H
	DB	05fH
	DB	05fH
	DB	075H
	DB	0aH
	DB	00H
	DB	00H
	DB	00H
	DB	05fH
	DB	05fH
	DB	06dH
	DB	06fH
	DB	064H
	DB	075H
	DB	06cH
	DB	065H
	DB	05fH
	DB	05fH
	DB	075H
	DB	0cH
	DB	00H
	DB	00H
	DB	00H
	DB	05fH
	DB	05fH
	DB	071H
	DB	075H
	DB	061H
	DB	06cH
	DB	06eH
	DB	061H
	DB	06dH
	DB	065H
	DB	05fH
	DB	05fH
	DB	028H
	DB	01H
	DB	00H
	DB	00H
	DB	00H
	DB	075H
	DB	0aH
	DB	00H
	DB	00H
	DB	00H
	DB	05fH
	DB	05fH
	DB	06cH
	DB	06fH
	DB	063H
	DB	061H
	DB	06cH
	DB	073H
	DB	05fH
	DB	05fH
	DB	028H
	DB	00H
	DB	00H
	DB	00H
	DB	00H
	DB	028H
	DB	00H
	DB	00H
	DB	00H
	DB	00H
	DB	075H
	DB	01dH
	DB	00H
	DB	00H
	DB	00H
	DB	03cH
	DB	066H
	DB	072H
	DB	06fH
	DB	07aH
	DB	065H
	DB	06eH
	DB	020H
	DB	069H
	DB	06dH
	DB	070H
	DB	06fH
	DB	072H
	DB	074H
	DB	06cH
	DB	069H
	DB	062H
	DB	02eH
	DB	05fH
	DB	062H
	DB	06fH
	DB	06fH
	DB	074H
	DB	073H
	DB	074H
	DB	072H
	DB	061H
	DB	070H
	DB	03eH
	DB	075H
	DB	0eH
	DB	00H
	DB	00H
	DB	00H
	DB	05fH
	DB	044H
	DB	065H
	DB	061H
	DB	064H
	DB	06cH
	DB	06fH
	DB	063H
	DB	06bH
	DB	045H
	DB	072H
	DB	072H
	DB	06fH
	DB	072H
	DB	0abH
	DB	00H
	DB	00H
	DB	00H
	DB	073H
	DB	02H
	DB	00H
	DB	00H
	DB	00H
	DB	010H
	DB	01H
	DB	075H
	DB	0eH
	DB	00H
	DB	00H
	DB	00H
	DB	05fH
	DB	044H
	DB	065H
	DB	061H
	DB	064H
	DB	06cH
	DB	06fH
	DB	063H
	DB	06bH
	DB	045H
	DB	072H
	DB	072H
	DB	06fH
	DB	072H
	DB	063H
	DB	01H
	DB	00H
	DB	00H
	DB	00H
	DB	00H
	DB	00H
	DB	00H
	DB	00H
	DB	01H
	DB	00H
	DB	00H
	DB	00H
	DB	02H
	DB	00H
	DB	00H
	DB	00H
	DB	042H
	DB	00H
	DB	00H
	DB	00H
	DB	073H
	DB	056H
	DB	00H
	DB	00H
	DB	00H
	DB	07cH
	DB	00H
	DB	00H
	DB	045H
	DB	065H
	DB	00H
	DB	00H
	DB	05aH
	DB	01H
	DB	00H
	DB	064H
	DB	00H
	DB	00H
	DB	05aH
	DB	02H
	DB	00H
	DB	064H
	DB	01H
	DB	00H
	DB	05aH
	DB	03H
	DB	00H
	DB	064H
	DB	02H
	DB	00H
	DB	064H
	DB	03H
	DB	00H
	DB	084H
	DB	00H
	DB	00H
	DB	05aH
	DB	04H
	DB	00H
	DB	064H
	DB	04H
	DB	00H
	DB	064H
	DB	05H
	DB	00H
	DB	084H
	DB	00H
	DB	00H
	DB	05aH
	DB	05H
	DB	00H
	DB	064H
	DB	06H
	DB	00H
	DB	064H
	DB	07H
	DB	00H
	DB	084H
	DB	00H
	DB	00H
	DB	05aH
	DB	06H
	DB	00H
	DB	064H
	DB	08H
	DB	00H
	DB	064H
	DB	09H
	DB	00H
	DB	084H
	DB	00H
	DB	00H
	DB	05aH
	DB	07H
	DB	00H
	DB	064H
	DB	0aH
	DB	00H
	DB	064H
	DB	0bH
	DB	00H
	DB	084H
	DB	00H
	DB	00H
	DB	05aH
	DB	08H
	DB	00H
	DB	064H
	DB	0cH
	DB	00H
	DB	053H
	DB	028H
	DB	0dH
	DB	00H
	DB	00H
	DB	00H
	DB	075H
	DB	0bH
	DB	00H
	DB	00H
	DB	00H
	DB	05fH
	DB	04dH
	DB	06fH
	DB	064H
	DB	075H
	DB	06cH
	DB	065H
	DB	04cH
	DB	06fH
	DB	063H
	DB	06bH
	DB	075H
	DB	0a9H
	DB	00H
	DB	00H
	DB	00H
	DB	041H
	DB	020H
	DB	072H
	DB	065H
	DB	063H
	DB	075H
	DB	072H
	DB	073H
	DB	069H
	DB	076H
	DB	065H
	DB	020H
	DB	06cH
	DB	06fH
	DB	063H
	DB	06bH
	DB	020H
	DB	069H
	DB	06dH
	DB	070H
	DB	06cH
	DB	065H
	DB	06dH
	DB	065H
	DB	06eH
	DB	074H
	DB	061H
	DB	074H
	DB	069H
	DB	06fH
	DB	06eH
	DB	020H
	DB	077H
	DB	068H
	DB	069H
	DB	063H
	DB	068H
	DB	020H
	DB	069H
	DB	073H
	DB	020H
	DB	061H
	DB	062H
	DB	06cH
	DB	065H
	DB	020H
	DB	074H
	DB	06fH
	DB	020H
	DB	064H
	DB	065H
	DB	074H
	DB	065H
	DB	063H
	DB	074H
	DB	020H
	DB	064H
	DB	065H
	DB	061H
	DB	064H
	DB	06cH
	DB	06fH
	DB	063H
	DB	06bH
	DB	073H
	DB	0aH
	DB	020H
	DB	020H
	DB	020H
	DB	020H
	DB	028H
	DB	065H
	DB	02eH
	DB	067H
	DB	02eH
	DB	020H
	DB	074H
	DB	068H
	DB	072H
	DB	065H
	DB	061H
	DB	064H
	DB	020H
	DB	031H
	DB	020H
	DB	074H
	DB	072H
	DB	079H
	DB	069H
	DB	06eH
	DB	067H
	DB	020H
	DB	074H
	DB	06fH
	DB	020H
	DB	074H
	DB	061H
	DB	06bH
	DB	065H
	DB	020H
	DB	06cH
	DB	06fH
	DB	063H
	DB	06bH
	DB	073H
	DB	020H
	DB	041H
	DB	020H
	DB	074H
	DB	068H
	DB	065H
	DB	06eH
	DB	020H
	DB	042H
	DB	02cH
	DB	020H
	DB	061H
	DB	06eH
	DB	064H
	DB	020H
	DB	074H
	DB	068H
	DB	072H
	DB	065H
	DB	061H
	DB	064H
	DB	020H
	DB	032H
	DB	020H
	DB	074H
	DB	072H
	DB	079H
	DB	069H
	DB	06eH
	DB	067H
	DB	020H
	DB	074H
	DB	06fH
	DB	0aH
	DB	020H
	DB	020H
	DB	020H
	DB	020H
	DB	074H
	DB	061H
	DB	06bH
	DB	065H
	DB	020H
	DB	06cH
	DB	06fH
	DB	063H
	DB	06bH
	DB	073H
	DB	020H
	DB	042H
	DB	020H
	DB	074H
	DB	068H
	DB	065H
	DB	06eH
	DB	020H
	DB	041H
	DB	029H
	DB	02eH
	DB	0aH
	DB	020H
	DB	020H
	DB	020H
	DB	020H
	DB	063H
	DB	02H
	DB	00H
	DB	00H
	DB	00H
	DB	00H
	DB	00H
	DB	00H
	DB	00H
	DB	02H
	DB	00H
	DB	00H
	DB	00H
	DB	02H
	DB	00H
	DB	00H
	DB	00H
	DB	043H
	DB	00H
	DB	00H
	DB	00H
	DB	073H
	DB	046H
	DB	00H
	DB	00H
	DB	00H
	DB	074H
	DB	00H
	DB	00H
	DB	06aH
	DB	01H
	DB	00H
	DB	083H
	DB	00H
	DB	00H
	DB	07cH
	DB	00H
	DB	00H
	DB	05fH
	DB	02H
	DB	00H
	DB	074H
	DB	00H
	DB	00H
	DB	06aH
	DB	01H
	DB	00H
	DB	083H
	DB	00H
	DB	00H
	DB	07cH
	DB	00H
	DB	00H
	DB	05fH
	DB	03H
	DB	00H
	DB	07cH
	DB	01H
	DB	00H
	DB	07cH
	DB	00H
	DB	00H
	DB	05fH
	DB	04H
	DB	00H
	DB	064H
	DB	00H
	DB	00H
	DB	07cH
	DB	00H
	DB	00H
	DB	05fH
	DB	06H
	DB	00H
	DB	064H
	DB	01H
	DB	00H
	DB	07cH
	DB	00H
	DB	00H
	DB	05fH
	DB	07H
	DB	00H
	DB	064H
	DB	01H
	DB	00H
	DB	07cH
	DB	00H
	DB	00H
	DB	05fH
	DB	08H
	DB	00H
	DB	064H
	DB	00H
	DB	00H
	DB	053H
	DB	028H
	DB	02H
	DB	00H
	DB	00H
	DB	00H
	DB	04eH
	DB	069H
	DB	00H
	DB	00H
	DB	00H
	DB	00H
	DB	028H
	DB	09H
	DB	00H
	DB	00H
	DB	00H
	DB	075H
	DB	07H
	DB	00H
	DB	00H
	DB	00H
	DB	05fH
	DB	074H
	DB	068H
	DB	072H
	DB	065H
	DB	061H
	DB	064H
	DB	075H
	DB	0dH
	DB	00H
	DB	00H
	DB	00H
	DB	061H
	DB	06cH
	DB	06cH
	DB	06fH
	DB	063H
	DB	061H
	DB	074H
	DB	065H
	DB	05fH
	DB	06cH
	DB	06fH
	DB	063H
	DB	06bH
	DB	075H
	DB	04H
	DB	00H
	DB	00H
	DB	00H
	DB	06cH
	DB	06fH
	DB	063H
	DB	06bH
	DB	075H
	DB	06H
	DB	00H
	DB	00H
	DB	00H
	DB	077H
	DB	061H
	DB	06bH
	DB	065H
	DB	075H
	DB	070H
	DB	075H
	DB	04H
	DB	00H
	DB	00H
	DB	00H
	DB	06eH
	DB	061H
	DB	06dH
	DB	065H
	DB	075H
	DB	04H
	DB	00H
	DB	00H
	DB	00H
	DB	04eH
	DB	06fH
	DB	06eH
	DB	065H
	DB	075H
	DB	05H
	DB	00H
	DB	00H
	DB	00H
	DB	06fH
	DB	077H
	DB	06eH
	DB	065H
	DB	072H
	DB	075H
	DB	05H
	DB	00H
	DB	00H
	DB	00H
	DB	063H
	DB	06fH
	DB	075H
	DB	06eH
	DB	074H
	DB	075H
	DB	07H
	DB	00H
	DB	00H
	DB	00H
	DB	077H
	DB	061H
	DB	069H
	DB	074H
	DB	065H
	DB	072H
	DB	073H
	DB	028H
	DB	02H
	DB	00H
	DB	00H
	DB	00H
	DB	075H
	DB	04H
	DB	00H
	DB	00H
	DB	00H
	DB	073H
	DB	065H
	DB	06cH
	DB	066H
	DB	075H
	DB	04H
	DB	00H
	DB	00H
	DB	00H
	DB	06eH
	DB	061H
	DB	06dH
	DB	065H
	DB	028H
	DB	00H
	DB	00H
	DB	00H
	DB	00H
	DB	028H
	DB	00H
	DB	00H
	DB	00H
	DB	00H
	DB	075H
	DB	01dH
	DB	00H
	DB	00H
	DB	00H
	DB	03cH
	DB	066H
	DB	072H
	DB	06fH
	DB	07aH
	DB	065H
	DB	06eH
	DB	020H
	DB	069H
	DB	06dH
	DB	070H
	DB	06fH
	DB	072H
	DB	074H
	DB	06cH
	DB	069H
	DB	062H
	DB	02eH
	DB	05fH
	DB	062H
	DB	06fH
	DB	06fH
	DB	074H
	DB	073H
	DB	074H
	DB	072H
	DB	061H
	DB	070H
	DB	03eH
	DB	075H
	DB	08H
	DB	00H
	DB	00H
	DB	00H
	DB	05fH
	DB	05fH
	DB	069H
	DB	06eH
	DB	069H
	DB	074H
	DB	05fH
	DB	05fH
	DB	0b5H
	DB	00H
	DB	00H
	DB	00H
	DB	073H
	DB	0cH
	DB	00H
	DB	00H
	DB	00H
	DB	00H
	DB	01H
	DB	0fH
	DB	01H
	DB	0fH
	DB	01H
	DB	09H
	DB	01H
	DB	09H
	DB	01H
	DB	09H
	DB	01H
	DB	075H
	DB	014H
	DB	00H
	DB	00H
	DB	00H
	DB	05fH
	DB	04dH
	DB	06fH
	DB	064H
	DB	075H
	DB	06cH
	DB	065H
	DB	04cH
	DB	06fH
	DB	063H
	DB	06bH
	DB	02eH
	DB	05fH
	DB	05fH
	DB	069H
	DB	06eH
	DB	069H
	DB	074H
	DB	05fH
	DB	05fH
	DB	063H
	DB	01H
	DB	00H
	DB	00H
	DB	00H
	DB	00H
	DB	00H
	DB	00H
	DB	00H
	DB	04H
	DB	00H
	DB	00H
	DB	00H
	DB	02H
	DB	00H
	DB	00H
	DB	00H
	DB	043H
	DB	00H
	DB	00H
	DB	00H
	DB	073H
	DB	057H
	DB	00H
	DB	00H
	DB	00H
	DB	074H
	DB	00H
	DB	00H
	DB	06aH
	DB	01H
	DB	00H
	DB	083H
	DB	00H
	DB	00H
	DB	07dH
	DB	01H
	DB	00H
	DB	07cH
	DB	00H
	DB	00H
	DB	06aH
	DB	02H
	DB	00H
	DB	07dH
	DB	02H
	DB	00H
	DB	078H
	DB	03bH
	DB	00H
	DB	074H
	DB	03H
	DB	00H
	DB	06aH
	DB	04H
	DB	00H
	DB	07cH
	DB	02H
	DB	00H
	DB	083H
	DB	01H
	DB	00H
	DB	07dH
	DB	03H
	DB	00H
	DB	07cH
	DB	03H
	DB	00H
	DB	064H
	DB	00H
	DB	00H
	DB	06bH
	DB	08H
	DB	00H
	DB	072H
	DB	037H
	DB	00H
	DB	064H
	DB	01H
	DB	00H
	DB	053H
	DB	07cH
	DB	03H
	DB	00H
	DB	06aH
	DB	02H
	DB	00H
	DB	07dH
	DB	02H
	DB	00H
	DB	07cH
	DB	02H
	DB	00H
	DB	07cH
	DB	01H
	DB	00H
	DB	06bH
	DB	02H
	DB	00H
	DB	072H
	DB	018H
	DB	00H
	DB	064H
	DB	02H
	DB	00H
	DB	053H
	DB	071H
	DB	018H
	DB	00H
	DB	064H
	DB	00H
	DB	00H
	DB	053H
	DB	028H
	DB	03H
	DB	00H
	DB	00H
	DB	00H
	DB	04eH
	DB	046H
	DB	054H
	DB	028H
	DB	08H
	DB	00H
	DB	00H
	DB	00H
	DB	075H
	DB	07H
	DB	00H
	DB	00H
	DB	00H
	DB	05fH
	DB	074H
	DB	068H
	DB	072H
	DB	065H
	DB	061H
	DB	064H
	DB	075H
	DB	09H
	DB	00H
	DB	00H
	DB	00H
	DB	067H
	DB	065H
	DB	074H
	DB	05fH
	DB	069H
	DB	064H
	DB	065H
	DB	06eH
	DB	074H
	DB	075H
	DB	05H
	DB	00H
	DB	00H
	DB	00H
	DB	06fH
	DB	077H
	DB	06eH
	DB	065H
	DB	072H
	DB	075H
	DB	0cH
	DB	00H
	DB	00H
	DB	00H
	DB	05fH
	DB	062H
	DB	06cH
	DB	06fH
	DB	063H
	DB	06bH
	DB	069H
	DB	06eH
	DB	067H
	DB	05fH
	DB	06fH
	DB	06eH
	DB	075H
	DB	03H
	DB	00H
	DB	00H
	DB	00H
	DB	067H
	DB	065H
	DB	074H
	DB	075H
	DB	04H
	DB	00H
	DB	00H
	DB	00H
	DB	04eH
	DB	06fH
	DB	06eH
	DB	065H
	DB	075H
	DB	05H
	DB	00H
	DB	00H
	DB	00H
	DB	046H
	DB	061H
	DB	06cH
	DB	073H
	DB	065H
	DB	075H
	DB	04H
	DB	00H
	DB	00H
	DB	00H
	DB	054H
	DB	072H
	DB	075H
	DB	065H
	DB	028H
	DB	04H
	DB	00H
	DB	00H
	DB	00H
	DB	075H
	DB	04H
	DB	00H
	DB	00H
	DB	00H
	DB	073H
	DB	065H
	DB	06cH
	DB	066H
	DB	075H
	DB	02H
	DB	00H
	DB	00H
	DB	00H
	DB	06dH
	DB	065H
	DB	075H
	DB	03H
	DB	00H
	DB	00H
	DB	00H
	DB	074H
	DB	069H
	DB	064H
	DB	075H
	DB	04H
	DB	00H
	DB	00H
	DB	00H
	DB	06cH
	DB	06fH
	DB	063H
	DB	06bH
	DB	028H
	DB	00H
	DB	00H
	DB	00H
	DB	00H
	DB	028H
	DB	00H
	DB	00H
	DB	00H
	DB	00H
	DB	075H
	DB	01dH
	DB	00H
	DB	00H
	DB	00H
	DB	03cH
	DB	066H
	DB	072H
	DB	06fH
	DB	07aH
	DB	065H
	DB	06eH
	DB	020H
	DB	069H
	DB	06dH
	DB	070H
	DB	06fH
	DB	072H
	DB	074H
	DB	06cH
	DB	069H
	DB	062H
	DB	02eH
	DB	05fH
	DB	062H
	DB	06fH
	DB	06fH
	DB	074H
	DB	073H
	DB	074H
	DB	072H
	DB	061H
	DB	070H
	DB	03eH
	DB	075H
	DB	0cH
	DB	00H
	DB	00H
	DB	00H
	DB	068H
	DB	061H
	DB	073H
	DB	05fH
	DB	064H
	DB	065H
	DB	061H
	DB	064H
	DB	06cH
	DB	06fH
	DB	063H
	DB	06bH
	DB	0bdH
	DB	00H
	DB	00H
	DB	00H
	DB	073H
	DB	012H
	DB	00H
	DB	00H
	DB	00H
	DB	00H
	DB	02H
	DB	0cH
	DB	01H
	DB	09H
	DB	01H
	DB	03H
	DB	01H
	DB	0fH
	DB	01H
	DB	0cH
	DB	01H
	DB	04H
	DB	01H
	DB	09H
	DB	01H
	DB	0cH
	DB	01H
	DB	075H
	DB	018H
	DB	00H
	DB	00H
	DB	00H
	DB	05fH
	DB	04dH
	DB	06fH
	DB	064H
	DB	075H
	DB	06cH
	DB	065H
	DB	04cH
	DB	06fH
	DB	063H
	DB	06bH
	DB	02eH
	DB	068H
	DB	061H
	DB	073H
	DB	05fH
	DB	064H
	DB	065H
	DB	061H
	DB	064H
	DB	06cH
	DB	06fH
	DB	063H
	DB	06bH
	DB	063H
	DB	01H
	DB	00H
	DB	00H
	DB	00H
	DB	00H
	DB	00H
	DB	00H
	DB	00H
	DB	02H
	DB	00H
	DB	00H
	DB	00H
	DB	011H
	DB	00H
	DB	00H
	DB	00H
	DB	043H
	DB	00H
	DB	00H
	DB	00H
	DB	073H
	DB	0d6H
	DB	00H
	DB	00H
	DB	00H
	DB	074H
	DB	00H
	DB	00H
	DB	06aH
	DB	01H
	DB	00H
	DB	083H
	DB	00H
	DB	00H
	DB	07dH
	DB	01H
	DB	00H
	DB	07cH
	DB	00H
	DB	00H
	DB	074H
	DB	02H
	DB	00H
	DB	07cH
	DB	01H
	DB	00H
	DB	03cH
	DB	07aH
	DB	0b1H
	DB	00H
	DB	078H
	DB	0aaH
	DB	00H
	DB	07cH
	DB	00H
	DB	00H
	DB	06aH
	DB	03H
	DB	00H
	DB	08fH
	DB	082H
	DB	00H
	DB	01H
	DB	07cH
	DB	00H
	DB	00H
	DB	06aH
	DB	04H
	DB	00H
	DB	064H
	DB	01H
	DB	00H
	DB	06bH
	DB	02H
	DB	00H
	DB	073H
	DB	044H
	DB	00H
	DB	07cH
	DB	00H
	DB	00H
	DB	06aH
	DB	05H
	DB	00H
	DB	07cH
	DB	01H
	DB	00H
	DB	06bH
	DB	02H
	DB	00H
	DB	072H
	DB	060H
	DB	00H
	DB	07cH
	DB	01H
	DB	00H
	DB	07cH
	DB	00H
	DB	00H
	DB	05fH
	DB	05H
	DB	00H
	DB	07cH
	DB	00H
	DB	00H
	DB	04H
	DB	06aH
	DB	04H
	DB	00H
	DB	064H
	DB	02H
	DB	00H
	DB	037H
	DB	02H
	DB	05fH
	DB	04H
	DB	00H
	DB	064H
	DB	05H
	DB	00H
	DB	053H
	DB	07cH
	DB	00H
	DB	00H
	DB	06aH
	DB	07H
	DB	00H
	DB	083H
	DB	00H
	DB	00H
	DB	072H
	DB	07fH
	DB	00H
	DB	074H
	DB	08H
	DB	00H
	DB	064H
	DB	03H
	DB	00H
	DB	07cH
	DB	00H
	DB	00H
	DB	016H
	DB	083H
	DB	01H
	DB	00H
	DB	082H
	DB	01H
	DB	00H
	DB	06eH
	DB	00H
	DB	00H
	DB	07cH
	DB	00H
	DB	00H
	DB	06aH
	DB	09H
	DB	00H
	DB	06aH
	DB	0aH
	DB	00H
	DB	064H
	DB	06H
	DB	00H
	DB	083H
	DB	01H
	DB	00H
	DB	072H
	DB	0a3H
	DB	00H
	DB	07cH
	DB	00H
	DB	00H
	DB	04H
	DB	06aH
	DB	0cH
	DB	00H
	DB	064H
	DB	02H
	DB	00H
	DB	037H
	DB	02H
	DB	05fH
	DB	0cH
	DB	00H
	DB	06eH
	DB	00H
	DB	00H
	DB	057H
	DB	064H
	DB	04H
	DB	00H
	DB	051H
	DB	058H
	DB	07cH
	DB	00H
	DB	00H
	DB	06aH
	DB	09H
	DB	00H
	DB	06aH
	DB	0aH
	DB	00H
	DB	083H
	DB	00H
	DB	00H
	DB	01H
	DB	07cH
	DB	00H
	DB	00H
	DB	06aH
	DB	09H
	DB	00H
	DB	06aH
	DB	0dH
	DB	00H
	DB	083H
	DB	00H
	DB	00H
	DB	01H
	DB	071H
	DB	01cH
	DB	00H
	DB	057H
	DB	064H
	DB	04H
	DB	00H
	DB	074H
	DB	02H
	DB	00H
	DB	07cH
	DB	01H
	DB	00H
	DB	03dH
	DB	058H
	DB	064H
	DB	04H
	DB	00H
	DB	053H
	DB	028H
	DB	07H
	DB	00H
	DB	00H
	DB	00H
	DB	075H
	DB	0b9H
	DB	00H
	DB	00H
	DB	00H
	DB	0aH
	DB	020H
	DB	020H
	DB	020H
	DB	020H
	DB	020H
	DB	020H
	DB	020H
	DB	020H
	DB	041H
	DB	063H
	DB	071H
	DB	075H
	DB	069H
	DB	072H
	DB	065H
	DB	020H
	DB	074H
	DB	068H
	DB	065H
	DB	020H
	DB	06dH
	DB	06fH
	DB	064H
	DB	075H
	DB	06cH
	DB	065H
	DB	020H
	DB	06cH
	DB	06fH
	DB	063H
	DB	06bH
	DB	02eH
	DB	020H
	DB	020H
	DB	049H
	DB	066H
	DB	020H
	DB	061H
	DB	020H
	DB	070H
	DB	06fH
	DB	074H
	DB	065H
	DB	06eH
	DB	074H
	DB	069H
	DB	061H
	DB	06cH
	DB	020H
	DB	064H
	DB	065H
	DB	061H
	DB	064H
	DB	06cH
	DB	06fH
	DB	063H
	DB	06bH
	DB	020H
	DB	069H
	DB	073H
	DB	020H
	DB	064H
	DB	065H
	DB	074H
	DB	065H
	DB	063H
	DB	074H
	DB	065H
	DB	064H
	DB	02cH
	DB	0aH
	DB	020H
	DB	020H
	DB	020H
	DB	020H
	DB	020H
	DB	020H
	DB	020H
	DB	020H
	DB	061H
	DB	020H
	DB	05fH
	DB	044H
	DB	065H
	DB	061H
	DB	064H
	DB	06cH
	DB	06fH
	DB	063H
	DB	06bH
	DB	045H
	DB	072H
	DB	072H
	DB	06fH
	DB	072H
	DB	020H
	DB	069H
	DB	073H
	DB	020H
	DB	072H
	DB	061H
	DB	069H
	DB	073H
	DB	065H
	DB	064H
	DB	02eH
	DB	0aH
	DB	020H
	DB	020H
	DB	020H
	DB	020H
	DB	020H
	DB	020H
	DB	020H
	DB	020H
	DB	04fH
	DB	074H
	DB	068H
	DB	065H
	DB	072H
	DB	077H
	DB	069H
	DB	073H
	DB	065H
	DB	02cH
	DB	020H
	DB	074H
	DB	068H
	DB	065H
	DB	020H
	DB	06cH
	DB	06fH
	DB	063H
	DB	06bH
	DB	020H
	DB	069H
	DB	073H
	DB	020H
	DB	061H
	DB	06cH
	DB	077H
	DB	061H
	DB	079H
	DB	073H
	DB	020H
	DB	061H
	DB	063H
	DB	071H
	DB	075H
	DB	069H
	DB	072H
	DB	065H
	DB	064H
	DB	020H
	DB	061H
	DB	06eH
	DB	064H
	DB	020H
	DB	054H
	DB	072H
	DB	075H
	DB	065H
	DB	020H
	DB	069H
	DB	073H
	DB	020H
	DB	072H
	DB	065H
	DB	074H
	DB	075H
	DB	072H
	DB	06eH
	DB	065H
	DB	064H
	DB	02eH
	DB	0aH
	DB	020H
	DB	020H
	DB	020H
	DB	020H
	DB	020H
	DB	020H
	DB	020H
	DB	020H
	DB	069H
	DB	00H
	DB	00H
	DB	00H
	DB	00H
	DB	069H
	DB	01H
	DB	00H
	DB	00H
	DB	00H
	DB	075H
	DB	017H
	DB	00H
	DB	00H
	DB	00H
	DB	064H
	DB	065H
	DB	061H
	DB	064H
	DB	06cH
	DB	06fH
	DB	063H
	DB	06bH
	DB	020H
	DB	064H
	DB	065H
	DB	074H
	DB	065H
	DB	063H
	DB	074H
	DB	065H
	DB	064H
	DB	020H
	DB	062H
	DB	079H
	DB	020H
	DB	025H
	DB	072H
	DB	04eH
	DB	054H
	DB	046H
	DB	028H
	DB	0eH
	DB	00H
	DB	00H
	DB	00H
	DB	075H
	DB	07H
	DB	00H
	DB	00H
	DB	00H
	DB	05fH
	DB	074H
	DB	068H
	DB	072H
	DB	065H
	DB	061H
	DB	064H
	DB	075H
	DB	09H
	DB	00H
	DB	00H
	DB	00H
	DB	067H
	DB	065H
	DB	074H
	DB	05fH
	DB	069H
	DB	064H
	DB	065H
	DB	06eH
	DB	074H
	DB	075H
	DB	0cH
	DB	00H
	DB	00H
	DB	00H
	DB	05fH
	DB	062H
	DB	06cH
	DB	06fH
	DB	063H
	DB	06bH
	DB	069H
	DB	06eH
	DB	067H
	DB	05fH
	DB	06fH
	DB	06eH
	DB	075H
	DB	04H
	DB	00H
	DB	00H
	DB	00H
	DB	06cH
	DB	06fH
	DB	063H
	DB	06bH
	DB	075H
	DB	05H
	DB	00H
	DB	00H
	DB	00H
	DB	063H
	DB	06fH
	DB	075H
	DB	06eH
	DB	074H
	DB	075H
	DB	05H
	DB	00H
	DB	00H
	DB	00H
	DB	06fH
	DB	077H
	DB	06eH
	DB	065H
	DB	072H
	DB	075H
	DB	04H
	DB	00H
	DB	00H
	DB	00H
	DB	054H
	DB	072H
	DB	075H
	DB	065H
	DB	075H
	DB	0cH
	DB	00H
	DB	00H
	DB	00H
	DB	068H
	DB	061H
	DB	073H
	DB	05fH
	DB	064H
	DB	065H
	DB	061H
	DB	064H
	DB	06cH
	DB	06fH
	DB	063H
	DB	06bH
	DB	075H
	DB	0eH
	DB	00H
	DB	00H
	DB	00H
	DB	05fH
	DB	044H
	DB	065H
	DB	061H
	DB	064H
	DB	06cH
	DB	06fH
	DB	063H
	DB	06bH
	DB	045H
	DB	072H
	DB	072H
	DB	06fH
	DB	072H
	DB	075H
	DB	06H
	DB	00H
	DB	00H
	DB	00H
	DB	077H
	DB	061H
	DB	06bH
	DB	065H
	DB	075H
	DB	070H
	DB	075H
	DB	07H
	DB	00H
	DB	00H
	DB	00H
	DB	061H
	DB	063H
	DB	071H
	DB	075H
	DB	069H
	DB	072H
	DB	065H
	DB	075H
	DB	05H
	DB	00H
	DB	00H
	DB	00H
	DB	046H
	DB	061H
	DB	06cH
	DB	073H
	DB	065H
	DB	075H
	DB	07H
	DB	00H
	DB	00H
	DB	00H
	DB	077H
	DB	061H
	DB	069H
	DB	074H
	DB	065H
	DB	072H
	DB	073H
	DB	075H
	DB	07H
	DB	00H
	DB	00H
	DB	00H
	DB	072H
	DB	065H
	DB	06cH
	DB	065H
	DB	061H
	DB	073H
	DB	065H
	DB	028H
	DB	02H
	DB	00H
	DB	00H
	DB	00H
	DB	075H
	DB	04H
	DB	00H
	DB	00H
	DB	00H
	DB	073H
	DB	065H
	DB	06cH
	DB	066H
	DB	075H
	DB	03H
	DB	00H
	DB	00H
	DB	00H
	DB	074H
	DB	069H
	DB	064H
	DB	028H
	DB	00H
	DB	00H
	DB	00H
	DB	00H
	DB	028H
	DB	00H
	DB	00H
	DB	00H
	DB	00H
	DB	075H
	DB	01dH
	DB	00H
	DB	00H
	DB	00H
	DB	03cH
	DB	066H
	DB	072H
	DB	06fH
	DB	07aH
	DB	065H
	DB	06eH
	DB	020H
	DB	069H
	DB	06dH
	DB	070H
	DB	06fH
	DB	072H
	DB	074H
	DB	06cH
	DB	069H
	DB	062H
	DB	02eH
	DB	05fH
	DB	062H
	DB	06fH
	DB	06fH
	DB	074H
	DB	073H
	DB	074H
	DB	072H
	DB	061H
	DB	070H
	DB	03eH
	DB	075H
	DB	07H
	DB	00H
	DB	00H
	DB	00H
	DB	061H
	DB	063H
	DB	071H
	DB	075H
	DB	069H
	DB	072H
	DB	065H
	DB	0c9H
	DB	00H
	DB	00H
	DB	00H
	DB	073H
	DB	020H
	DB	00H
	DB	00H
	DB	00H
	DB	00H
	DB	06H
	DB	0cH
	DB	01H
	DB	0aH
	DB	01H
	DB	03H
	DB	01H
	DB	03H
	DB	01H
	DB	0aH
	DB	01H
	DB	01eH
	DB	01H
	DB	09H
	DB	01H
	DB	0fH
	DB	01H
	DB	04H
	DB	01H
	DB	0cH
	DB	01H
	DB	013H
	DB	01H
	DB	012H
	DB	01H
	DB	018H
	DB	02H
	DB	0dH
	DB	01H
	DB	014H
	DB	02H
	DB	075H
	DB	013H
	DB	00H
	DB	00H
	DB	00H
	DB	05fH
	DB	04dH
	DB	06fH
	DB	064H
	DB	075H
	DB	06cH
	DB	065H
	DB	04cH
	DB	06fH
	DB	063H
	DB	06bH
	DB	02eH
	DB	061H
	DB	063H
	DB	071H
	DB	075H
	DB	069H
	DB	072H
	DB	065H
	DB	063H
	DB	01H
	DB	00H
	DB	00H
	DB	00H
	DB	00H
	DB	00H
	DB	00H
	DB	00H
	DB	02H
	DB	00H
	DB	00H
	DB	00H
	DB	0aH
	DB	00H
	DB	00H
	DB	00H
	DB	043H
	DB	00H
	DB	00H
	DB	00H
	DB	073H
	DB	0a5H
	DB	00H
	DB	00H
	DB	00H
	DB	074H
	DB	00H
	DB	00H
	DB	06aH
	DB	01H
	DB	00H
	DB	083H
	DB	00H
	DB	00H
	DB	07dH
	DB	01H
	DB	00H
	DB	07cH
	DB	00H
	DB	00H
	DB	06aH
	DB	02H
	DB	00H
	DB	08fH
	DB	08aH
	DB	00H
	DB	01H
	DB	07cH
	DB	00H
	DB	00H
	DB	06aH
	DB	03H
	DB	00H
	DB	07cH
	DB	01H
	DB	00H
	DB	06bH
	DB	03H
	DB	00H
	DB	072H
	DB	034H
	DB	00H
	DB	074H
	DB	04H
	DB	00H
	DB	064H
	DB	01H
	DB	00H
	DB	083H
	DB	01H
	DB	00H
	DB	082H
	DB	01H
	DB	00H
	DB	06eH
	DB	00H
	DB	00H
	DB	07cH
	DB	00H
	DB	00H
	DB	06aH
	DB	05H
	DB	00H
	DB	064H
	DB	02H
	DB	00H
	DB	06bH
	DB	04H
	DB	00H
	DB	073H
	DB	049H
	DB	00H
	DB	074H
	DB	06H
	DB	00H
	DB	082H
	DB	01H
	DB	00H
	DB	07cH
	DB	00H
	DB	00H
	DB	04H
	DB	06aH
	DB	05H
	DB	00H
	DB	064H
	DB	03H
	DB	00H
	DB	038H
	DB	02H
	DB	05fH
	DB	05H
	DB	00H
	DB	07cH
	DB	00H
	DB	00H
	DB	06aH
	DB	05H
	DB	00H
	DB	064H
	DB	02H
	DB	00H
	DB	06bH
	DB	02H
	DB	00H
	DB	072H
	DB	09bH
	DB	00H
	DB	064H
	DB	00H
	DB	00H
	DB	07cH
	DB	00H
	DB	00H
	DB	05fH
	DB	03H
	DB	00H
	DB	07cH
	DB	00H
	DB	00H
	DB	06aH
	DB	08H
	DB	00H
	DB	072H
	DB	09bH
	DB	00H
	DB	07cH
	DB	00H
	DB	00H
	DB	04H
	DB	06aH
	DB	08H
	DB	00H
	DB	064H
	DB	03H
	DB	00H
	DB	038H
	DB	02H
	DB	05fH
	DB	08H
	DB	00H
	DB	07cH
	DB	00H
	DB	00H
	DB	06aH
	DB	09H
	DB	00H
	DB	06aH
	DB	0aH
	DB	00H
	DB	083H
	DB	00H
	DB	00H
	DB	01H
	DB	071H
	DB	09bH
	DB	00H
	DB	06eH
	DB	00H
	DB	00H
	DB	057H
	DB	064H
	DB	00H
	DB	00H
	DB	051H
	DB	058H
	DB	064H
	DB	00H
	DB	00H
	DB	053H
	DB	028H
	DB	04H
	DB	00H
	DB	00H
	DB	00H
	DB	04eH
	DB	075H
	DB	01fH
	DB	00H
	DB	00H
	DB	00H
	DB	063H
	DB	061H
	DB	06eH
	DB	06eH
	DB	06fH
	DB	074H
	DB	020H
	DB	072H
	DB	065H
	DB	06cH
	DB	065H
	DB	061H
	DB	073H
	DB	065H
	DB	020H
	DB	075H
	DB	06eH
	DB	02dH
	DB	061H
	DB	063H
	DB	071H
	DB	075H
	DB	069H
	DB	072H
	DB	065H
	DB	064H
	DB	020H
	DB	06cH
	DB	06fH
	DB	063H
	DB	06bH
	DB	069H
	DB	00H
	DB	00H
	DB	00H
	DB	00H
	DB	069H
	DB	01H
	DB	00H
	DB	00H
	DB	00H
	DB	028H
	DB	0bH
	DB	00H
	DB	00H
	DB	00H
	DB	075H
	DB	07H
	DB	00H
	DB	00H
	DB	00H
	DB	05fH
	DB	074H
	DB	068H
	DB	072H
	DB	065H
	DB	061H
	DB	064H
	DB	075H
	DB	09H
	DB	00H
	DB	00H
	DB	00H
	DB	067H
	DB	065H
	DB	074H
	DB	05fH
	DB	069H
	DB	064H
	DB	065H
	DB	06eH
	DB	074H
	DB	075H
	DB	04H
	DB	00H
	DB	00H
	DB	00H
	DB	06cH
	DB	06fH
	DB	063H
	DB	06bH
	DB	075H
	DB	05H
	DB	00H
	DB	00H
	DB	00H
	DB	06fH
	DB	077H
	DB	06eH
	DB	065H
	DB	072H
	DB	075H
	DB	0cH
	DB	00H
	DB	00H
	DB	00H
	DB	052H
	DB	075H
	DB	06eH
	DB	074H
	DB	069H
	DB	06dH
	DB	065H
	DB	045H
	DB	072H
	DB	072H
	DB	06fH
	DB	072H
	DB	075H
	DB	05H
	DB	00H
	DB	00H
	DB	00H
	DB	063H
	DB	06fH
	DB	075H
	DB	06eH
	DB	074H
	DB	075H
	DB	0eH
	DB	00H
	DB	00H
	DB	00H
	DB	041H
	DB	073H
	DB	073H
	DB	065H
	DB	072H
	DB	074H
	DB	069H
	DB	06fH
	DB	06eH
	DB	045H
	DB	072H
	DB	072H
	DB	06fH
	DB	072H
	DB	075H
	DB	04H
	DB	00H
	DB	00H
	DB	00H
	DB	04eH
	DB	06fH
	DB	06eH
	DB	065H
	DB	075H
	DB	07H
	DB	00H
	DB	00H
	DB	00H
	DB	077H
	DB	061H
	DB	069H
	DB	074H
	DB	065H
	DB	072H
	DB	073H
	DB	075H
	DB	06H
	DB	00H
	DB	00H
	DB	00H
	DB	077H
	DB	061H
	DB	06bH
	DB	065H
	DB	075H
	DB	070H
	DB	075H
	DB	07H
	DB	00H
	DB	00H
	DB	00H
	DB	072H
	DB	065H
	DB	06cH
	DB	065H
	DB	061H
	DB	073H
	DB	065H
	DB	028H
	DB	02H
	DB	00H
	DB	00H
	DB	00H
	DB	075H
	DB	04H
	DB	00H
	DB	00H
	DB	00H
	DB	073H
	DB	065H
	DB	06cH
	DB	066H
	DB	075H
	DB	03H
	DB	00H
	DB	00H
	DB	00H
	DB	074H
	DB	069H
	DB	064H
	DB	028H
	DB	00H
	DB	00H
	DB	00H
	DB	00H
	DB	028H
	DB	00H
	DB	00H
	DB	00H
	DB	00H
	DB	075H
	DB	01dH
	DB	00H
	DB	00H
	DB	00H
	DB	03cH
	DB	066H
	DB	072H
	DB	06fH
	DB	07aH
	DB	065H
	DB	06eH
	DB	020H
	DB	069H
	DB	06dH
	DB	070H
	DB	06fH
	DB	072H
	DB	074H
	DB	06cH
	DB	069H
	DB	062H
	DB	02eH
	DB	05fH
	DB	062H
	DB	06fH
	DB	06fH
	DB	074H
	DB	073H
	DB	074H
	DB	072H
	DB	061H
	DB	070H
	DB	03eH
	DB	075H
	DB	07H
	DB	00H
	DB	00H
	DB	00H
	DB	072H
	DB	065H
	DB	06cH
	DB	065H
	DB	061H
	DB	073H
	DB	065H
	DB	0e2H
	DB	00H
	DB	00H
	DB	00H
	DB	073H
	DB	016H
	DB	00H
	DB	00H
	DB	00H
	DB	00H
	DB	01H
	DB	0cH
	DB	01H
	DB	0aH
	DB	01H
	DB	0fH
	DB	01H
	DB	0fH
	DB	01H
	DB	015H
	DB	01H
	DB	0fH
	DB	01H
	DB	0fH
	DB	01H
	DB	09H
	DB	01H
	DB	09H
	DB	01H
	DB	0fH
	DB	01H
	DB	075H
	DB	013H
	DB	00H
	DB	00H
	DB	00H
	DB	05fH
	DB	04dH
	DB	06fH
	DB	064H
	DB	075H
	DB	06cH
	DB	065H
	DB	04cH
	DB	06fH
	DB	063H
	DB	06bH
	DB	02eH
	DB	072H
	DB	065H
	DB	06cH
	DB	065H
	DB	061H
	DB	073H
	DB	065H
	DB	063H
	DB	01H
	DB	00H
	DB	00H
	DB	00H
	DB	00H
	DB	00H
	DB	00H
	DB	00H
	DB	01H
	DB	00H
	DB	00H
	DB	00H
	DB	04H
	DB	00H
	DB	00H
	DB	00H
	DB	043H
	DB	00H
	DB	00H
	DB	00H
	DB	073H
	DB	017H
	DB	00H
	DB	00H
	DB	00H
	DB	064H
	DB	01H
	DB	00H
	DB	07cH
	DB	00H
	DB	00H
	DB	06aH
	DB	00H
	DB	00H
	DB	074H
	DB	01H
	DB	00H
	DB	07cH
	DB	00H
	DB	00H
	DB	083H
	DB	01H
	DB	00H
	DB	066H
	DB	02H
	DB	00H
	DB	016H
	DB	053H
	DB	028H
	DB	02H
	DB	00H
	DB	00H
	DB	00H
	DB	04eH
	DB	075H
	DB	015H
	DB	00H
	DB	00H
	DB	00H
	DB	05fH
	DB	04dH
	DB	06fH
	DB	064H
	DB	075H
	DB	06cH
	DB	065H
	DB	04cH
	DB	06fH
	DB	063H
	DB	06bH
	DB	028H
	DB	025H
	DB	072H
	DB	029H
	DB	020H
	DB	061H
	DB	074H
	DB	020H
	DB	025H
	DB	064H
	DB	028H
	DB	02H
	DB	00H
	DB	00H
	DB	00H
	DB	075H
	DB	04H
	DB	00H
	DB	00H
	DB	00H
	DB	06eH
	DB	061H
	DB	06dH
	DB	065H
	DB	075H
	DB	02H
	DB	00H
	DB	00H
	DB	00H
	DB	069H
	DB	064H
	DB	028H
	DB	01H
	DB	00H
	DB	00H
	DB	00H
	DB	075H
	DB	04H
	DB	00H
	DB	00H
	DB	00H
	DB	073H
	DB	065H
	DB	06cH
	DB	066H
	DB	028H
	DB	00H
	DB	00H
	DB	00H
	DB	00H
	DB	028H
	DB	00H
	DB	00H
	DB	00H
	DB	00H
	DB	075H
	DB	01dH
	DB	00H
	DB	00H
	DB	00H
	DB	03cH
	DB	066H
	DB	072H
	DB	06fH
	DB	07aH
	DB	065H
	DB	06eH
	DB	020H
	DB	069H
	DB	06dH
	DB	070H
	DB	06fH
	DB	072H
	DB	074H
	DB	06cH
	DB	069H
	DB	062H
	DB	02eH
	DB	05fH
	DB	062H
	DB	06fH
	DB	06fH
	DB	074H
	DB	073H
	DB	074H
	DB	072H
	DB	061H
	DB	070H
	DB	03eH
	DB	075H
	DB	08H
	DB	00H
	DB	00H
	DB	00H
	DB	05fH
	DB	05fH
	DB	072H
	DB	065H
	DB	070H
	DB	072H
	DB	05fH
	DB	05fH
	DB	0efH
	DB	00H
	DB	00H
	DB	00H
	DB	073H
	DB	02H
	DB	00H
	DB	00H
	DB	00H
	DB	00H
	DB	01H
	DB	075H
	DB	014H
	DB	00H
	DB	00H
	DB	00H
	DB	05fH
	DB	04dH
	DB	06fH
	DB	064H
	DB	075H
	DB	06cH
	DB	065H
	DB	04cH
	DB	06fH
	DB	063H
	DB	06bH
	DB	02eH
	DB	05fH
	DB	05fH
	DB	072H
	DB	065H
	DB	070H
	DB	072H
	DB	05fH
	DB	05fH
	DB	04eH
	DB	028H
	DB	09H
	DB	00H
	DB	00H
	DB	00H
	DB	075H
	DB	08H
	DB	00H
	DB	00H
	DB	00H
	DB	05fH
	DB	05fH
	DB	06eH
	DB	061H
	DB	06dH
	DB	065H
	DB	05fH
	DB	05fH
	DB	075H
	DB	0aH
	DB	00H
	DB	00H
	DB	00H
	DB	05fH
	DB	05fH
	DB	06dH
	DB	06fH
	DB	064H
	DB	075H
	DB	06cH
	DB	065H
	DB	05fH
	DB	05fH
	DB	075H
	DB	0cH
	DB	00H
	DB	00H
	DB	00H
	DB	05fH
	DB	05fH
	DB	071H
	DB	075H
	DB	061H
	DB	06cH
	DB	06eH
	DB	061H
	DB	06dH
	DB	065H
	DB	05fH
	DB	05fH
	DB	075H
	DB	07H
	DB	00H
	DB	00H
	DB	00H
	DB	05fH
	DB	05fH
	DB	064H
	DB	06fH
	DB	063H
	DB	05fH
	DB	05fH
	DB	075H
	DB	08H
	DB	00H
	DB	00H
	DB	00H
	DB	05fH
	DB	05fH
	DB	069H
	DB	06eH
	DB	069H
	DB	074H
	DB	05fH
	DB	05fH
	DB	075H
	DB	0cH
	DB	00H
	DB	00H
	DB	00H
	DB	068H
	DB	061H
	DB	073H
	DB	05fH
	DB	064H
	DB	065H
	DB	061H
	DB	064H
	DB	06cH
	DB	06fH
	DB	063H
	DB	06bH
	DB	075H
	DB	07H
	DB	00H
	DB	00H
	DB	00H
	DB	061H
	DB	063H
	DB	071H
	DB	075H
	DB	069H
	DB	072H
	DB	065H
	DB	075H
	DB	07H
	DB	00H
	DB	00H
	DB	00H
	DB	072H
	DB	065H
	DB	06cH
	DB	065H
	DB	061H
	DB	073H
	DB	065H
	DB	075H
	DB	08H
	DB	00H
	DB	00H
	DB	00H
	DB	05fH
	DB	05fH
	DB	072H
	DB	065H
	DB	070H
	DB	072H
	DB	05fH
	DB	05fH
	DB	028H
	DB	01H
	DB	00H
	DB	00H
	DB	00H
	DB	075H
	DB	0aH
	DB	00H
	DB	00H
	DB	00H
	DB	05fH
	DB	05fH
	DB	06cH
	DB	06fH
	DB	063H
	DB	061H
	DB	06cH
	DB	073H
	DB	05fH
	DB	05fH
	DB	028H
	DB	00H
	DB	00H
	DB	00H
	DB	00H
	DB	028H
	DB	00H
	DB	00H
	DB	00H
	DB	00H
	DB	075H
	DB	01dH
	DB	00H
	DB	00H
	DB	00H
	DB	03cH
	DB	066H
	DB	072H
	DB	06fH
	DB	07aH
	DB	065H
	DB	06eH
	DB	020H
	DB	069H
	DB	06dH
	DB	070H
	DB	06fH
	DB	072H
	DB	074H
	DB	06cH
	DB	069H
	DB	062H
	DB	02eH
	DB	05fH
	DB	062H
	DB	06fH
	DB	06fH
	DB	074H
	DB	073H
	DB	074H
	DB	072H
	DB	061H
	DB	070H
	DB	03eH
	DB	075H
	DB	0bH
	DB	00H
	DB	00H
	DB	00H
	DB	05fH
	DB	04dH
	DB	06fH
	DB	064H
	DB	075H
	DB	06cH
	DB	065H
	DB	04cH
	DB	06fH
	DB	063H
	DB	06bH
	DB	0afH
	DB	00H
	DB	00H
	DB	00H
	DB	073H
	DB	0cH
	DB	00H
	DB	00H
	DB	00H
	DB	010H
	DB	04H
	DB	06H
	DB	02H
	DB	0cH
	DB	08H
	DB	0cH
	DB	0cH
	DB	0cH
	DB	019H
	DB	0cH
	DB	0dH
	DB	075H
	DB	0bH
	DB	00H
	DB	00H
	DB	00H
	DB	05fH
	DB	04dH
	DB	06fH
	DB	064H
	DB	075H
	DB	06cH
	DB	065H
	DB	04cH
	DB	06fH
	DB	063H
	DB	06bH
	DB	063H
	DB	01H
	DB	00H
	DB	00H
	DB	00H
	DB	00H
	DB	00H
	DB	00H
	DB	00H
	DB	01H
	DB	00H
	DB	00H
	DB	00H
	DB	02H
	DB	00H
	DB	00H
	DB	00H
	DB	042H
	DB	00H
	DB	00H
	DB	00H
	DB	073H
	DB	04aH
	DB	00H
	DB	00H
	DB	00H
	DB	07cH
	DB	00H
	DB	00H
	DB	045H
	DB	065H
	DB	00H
	DB	00H
	DB	05aH
	DB	01H
	DB	00H
	DB	064H
	DB	00H
	DB	00H
	DB	05aH
	DB	02H
	DB	00H
	DB	064H
	DB	01H
	DB	00H
	DB	05aH
	DB	03H
	DB	00H
	DB	064H
	DB	02H
	DB	00H
	DB	064H
	DB	03H
	DB	00H
	DB	084H
	DB	00H
	DB	00H
	DB	05aH
	DB	04H
	DB	00H
	DB	064H
	DB	04H
	DB	00H
	DB	064H
	DB	05H
	DB	00H
	DB	084H
	DB	00H
	DB	00H
	DB	05aH
	DB	05H
	DB	00H
	DB	064H
	DB	06H
	DB	00H
	DB	064H
	DB	07H
	DB	00H
	DB	084H
	DB	00H
	DB	00H
	DB	05aH
	DB	06H
	DB	00H
	DB	064H
	DB	08H
	DB	00H
	DB	064H
	DB	09H
	DB	00H
	DB	084H
	DB	00H
	DB	00H
	DB	05aH
	DB	07H
	DB	00H
	DB	064H
	DB	0aH
	DB	00H
	DB	053H
	DB	028H
	DB	0bH
	DB	00H
	DB	00H
	DB	00H
	DB	075H
	DB	010H
	DB	00H
	DB	00H
	DB	00H
	DB	05fH
	DB	044H
	DB	075H
	DB	06dH
	DB	06dH
	DB	079H
	DB	04dH
	DB	06fH
	DB	064H
	DB	075H
	DB	06cH
	DB	065H
	DB	04cH
	DB	06fH
	DB	063H
	DB	06bH
	DB	075H
	DB	056H
	DB	00H
	DB	00H
	DB	00H
	DB	041H
	DB	020H
	DB	073H
	DB	069H
	DB	06dH
	DB	070H
	DB	06cH
	DB	065H
	DB	020H
	DB	05fH
	DB	04dH
	DB	06fH
	DB	064H
	DB	075H
	DB	06cH
	DB	065H
	DB	04cH
	DB	06fH
	DB	063H
	DB	06bH
	DB	020H
	DB	065H
	DB	071H
	DB	075H
	DB	069H
	DB	076H
	DB	061H
	DB	06cH
	DB	065H
	DB	06eH
	DB	074H
	DB	020H
	DB	066H
	DB	06fH
	DB	072H
	DB	020H
	DB	050H
	DB	079H
	DB	074H
	DB	068H
	DB	06fH
	DB	06eH
	DB	020H
	DB	062H
	DB	075H
	DB	069H
	DB	06cH
	DB	064H
	DB	073H
	DB	020H
	DB	077H
	DB	069H
	DB	074H
	DB	068H
	DB	06fH
	DB	075H
	DB	074H
	DB	0aH
	DB	020H
	DB	020H
	DB	020H
	DB	020H
	DB	06dH
	DB	075H
	DB	06cH
	DB	074H
	DB	069H
	DB	02dH
	DB	074H
	DB	068H
	DB	072H
	DB	065H
	DB	061H
	DB	064H
	DB	069H
	DB	06eH
	DB	067H
	DB	020H
	DB	073H
	DB	075H
	DB	070H
	DB	070H
	DB	06fH
	DB	072H
	DB	074H
	DB	02eH
	DB	063H
	DB	02H
	DB	00H
	DB	00H
	DB	00H
	DB	00H
	DB	00H
	DB	00H
	DB	00H
	DB	02H
	DB	00H
	DB	00H
	DB	00H
	DB	02H
	DB	00H
	DB	00H
	DB	00H
	DB	043H
	DB	00H
	DB	00H
	DB	00H
	DB	073H
	DB	016H
	DB	00H
	DB	00H
	DB	00H
	DB	07cH
	DB	01H
	DB	00H
	DB	07cH
	DB	00H
	DB	00H
	DB	05fH
	DB	00H
	DB	00H
	DB	064H
	DB	01H
	DB	00H
	DB	07cH
	DB	00H
	DB	00H
	DB	05fH
	DB	01H
	DB	00H
	DB	064H
	DB	00H
	DB	00H
	DB	053H
	DB	028H
	DB	02H
	DB	00H
	DB	00H
	DB	00H
	DB	04eH
	DB	069H
	DB	00H
	DB	00H
	DB	00H
	DB	00H
	DB	028H
	DB	02H
	DB	00H
	DB	00H
	DB	00H
	DB	075H
	DB	04H
	DB	00H
	DB	00H
	DB	00H
	DB	06eH
	DB	061H
	DB	06dH
	DB	065H
	DB	075H
	DB	05H
	DB	00H
	DB	00H
	DB	00H
	DB	063H
	DB	06fH
	DB	075H
	DB	06eH
	DB	074H
	DB	028H
	DB	02H
	DB	00H
	DB	00H
	DB	00H
	DB	075H
	DB	04H
	DB	00H
	DB	00H
	DB	00H
	DB	073H
	DB	065H
	DB	06cH
	DB	066H
	DB	075H
	DB	04H
	DB	00H
	DB	00H
	DB	00H
	DB	06eH
	DB	061H
	DB	06dH
	DB	065H
	DB	028H
	DB	00H
	DB	00H
	DB	00H
	DB	00H
	DB	028H
	DB	00H
	DB	00H
	DB	00H
	DB	00H
	DB	075H
	DB	01dH
	DB	00H
	DB	00H
	DB	00H
	DB	03cH
	DB	066H
	DB	072H
	DB	06fH
	DB	07aH
	DB	065H
	DB	06eH
	DB	020H
	DB	069H
	DB	06dH
	DB	070H
	DB	06fH
	DB	072H
	DB	074H
	DB	06cH
	DB	069H
	DB	062H
	DB	02eH
	DB	05fH
	DB	062H
	DB	06fH
	DB	06fH
	DB	074H
	DB	073H
	DB	074H
	DB	072H
	DB	061H
	DB	070H
	DB	03eH
	DB	075H
	DB	08H
	DB	00H
	DB	00H
	DB	00H
	DB	05fH
	DB	05fH
	DB	069H
	DB	06eH
	DB	069H
	DB	074H
	DB	05fH
	DB	05fH
	DB	0f7H
	DB	00H
	DB	00H
	DB	00H
	DB	073H
	DB	04H
	DB	00H
	DB	00H
	DB	00H
	DB	00H
	DB	01H
	DB	09H
	DB	01H
	DB	075H
	DB	019H
	DB	00H
	DB	00H
	DB	00H
	DB	05fH
	DB	044H
	DB	075H
	DB	06dH
	DB	06dH
	DB	079H
	DB	04dH
	DB	06fH
	DB	064H
	DB	075H
	DB	06cH
	DB	065H
	DB	04cH
	DB	06fH
	DB	063H
	DB	06bH
	DB	02eH
	DB	05fH
	DB	05fH
	DB	069H
	DB	06eH
	DB	069H
	DB	074H
	DB	05fH
	DB	05fH
	DB	063H
	DB	01H
	DB	00H
	DB	00H
	DB	00H
	DB	00H
	DB	00H
	DB	00H
	DB	00H
	DB	01H
	DB	00H
	DB	00H
	DB	00H
	DB	03H
	DB	00H
	DB	00H
	DB	00H
	DB	043H
	DB	00H
	DB	00H
	DB	00H
	DB	073H
	DB	013H
	DB	00H
	DB	00H
	DB	00H
	DB	07cH
	DB	00H
	DB	00H
	DB	04H
	DB	06aH
	DB	00H
	DB	00H
	DB	064H
	DB	01H
	DB	00H
	DB	037H
	DB	02H
	DB	05fH
	DB	00H
	DB	00H
	DB	064H
	DB	02H
	DB	00H
	DB	053H
	DB	028H
	DB	03H
	DB	00H
	DB	00H
	DB	00H
	DB	04eH
	DB	069H
	DB	01H
	DB	00H
	DB	00H
	DB	00H
	DB	054H
	DB	028H
	DB	02H
	DB	00H
	DB	00H
	DB	00H
	DB	075H
	DB	05H
	DB	00H
	DB	00H
	DB	00H
	DB	063H
	DB	06fH
	DB	075H
	DB	06eH
	DB	074H
	DB	075H
	DB	04H
	DB	00H
	DB	00H
	DB	00H
	DB	054H
	DB	072H
	DB	075H
	DB	065H
	DB	028H
	DB	01H
	DB	00H
	DB	00H
	DB	00H
	DB	075H
	DB	04H
	DB	00H
	DB	00H
	DB	00H
	DB	073H
	DB	065H
	DB	06cH
	DB	066H
	DB	028H
	DB	00H
	DB	00H
	DB	00H
	DB	00H
	DB	028H
	DB	00H
	DB	00H
	DB	00H
	DB	00H
	DB	075H
	DB	01dH
	DB	00H
	DB	00H
	DB	00H
	DB	03cH
	DB	066H
	DB	072H
	DB	06fH
	DB	07aH
	DB	065H
	DB	06eH
	DB	020H
	DB	069H
	DB	06dH
	DB	070H
	DB	06fH
	DB	072H
	DB	074H
	DB	06cH
	DB	069H
	DB	062H
	DB	02eH
	DB	05fH
	DB	062H
	DB	06fH
	DB	06fH
	DB	074H
	DB	073H
	DB	074H
	DB	072H
	DB	061H
	DB	070H
	DB	03eH
	DB	075H
	DB	07H
	DB	00H
	DB	00H
	DB	00H
	DB	061H
	DB	063H
	DB	071H
	DB	075H
	DB	069H
	DB	072H
	DB	065H
	DB	0fbH
	DB	00H
	DB	00H
	DB	00H
	DB	073H
	DB	04H
	DB	00H
	DB	00H
	DB	00H
	DB	00H
	DB	01H
	DB	0fH
	DB	01H
	DB	075H
	DB	018H
	DB	00H
	DB	00H
	DB	00H
	DB	05fH
	DB	044H
	DB	075H
	DB	06dH
	DB	06dH
	DB	079H
	DB	04dH
	DB	06fH
	DB	064H
	DB	075H
	DB	06cH
	DB	065H
	DB	04cH
	DB	06fH
	DB	063H
	DB	06bH
	DB	02eH
	DB	061H
	DB	063H
	DB	071H
	DB	075H
	DB	069H
	DB	072H
	DB	065H
	DB	063H
	DB	01H
	DB	00H
	DB	00H
	DB	00H
	DB	00H
	DB	00H
	DB	00H
	DB	00H
	DB	01H
	DB	00H
	DB	00H
	DB	00H
	DB	03H
	DB	00H
	DB	00H
	DB	00H
	DB	043H
	DB	00H
	DB	00H
	DB	00H
	DB	073H
	DB	031H
	DB	00H
	DB	00H
	DB	00H
	DB	07cH
	DB	00H
	DB	00H
	DB	06aH
	DB	00H
	DB	00H
	DB	064H
	DB	01H
	DB	00H
	DB	06bH
	DB	02H
	DB	00H
	DB	072H
	DB	01eH
	DB	00H
	DB	074H
	DB	01H
	DB	00H
	DB	064H
	DB	02H
	DB	00H
	DB	083H
	DB	01H
	DB	00H
	DB	082H
	DB	01H
	DB	00H
	DB	06eH
	DB	00H
	DB	00H
	DB	07cH
	DB	00H
	DB	00H
	DB	04H
	DB	06aH
	DB	00H
	DB	00H
	DB	064H
	DB	03H
	DB	00H
	DB	038H
	DB	02H
	DB	05fH
	DB	00H
	DB	00H
	DB	064H
	DB	00H
	DB	00H
	DB	053H
	DB	028H
	DB	04H
	DB	00H
	DB	00H
	DB	00H
	DB	04eH
	DB	069H
	DB	00H
	DB	00H
	DB	00H
	DB	00H
	DB	075H
	DB	01fH
	DB	00H
	DB	00H
	DB	00H
	DB	063H
	DB	061H
	DB	06eH
	DB	06eH
	DB	06fH
	DB	074H
	DB	020H
	DB	072H
	DB	065H
	DB	06cH
	DB	065H
	DB	061H
	DB	073H
	DB	065H
	DB	020H
	DB	075H
	DB	06eH
	DB	02dH
	DB	061H
	DB	063H
	DB	071H
	DB	075H
	DB	069H
	DB	072H
	DB	065H
	DB	064H
	DB	020H
	DB	06cH
	DB	06fH
	DB	063H
	DB	06bH
	DB	069H
	DB	01H
	DB	00H
	DB	00H
	DB	00H
	DB	028H
	DB	02H
	DB	00H
	DB	00H
	DB	00H
	DB	075H
	DB	05H
	DB	00H
	DB	00H
	DB	00H
	DB	063H
	DB	06fH
	DB	075H
	DB	06eH
	DB	074H
	DB	075H
	DB	0cH
	DB	00H
	DB	00H
	DB	00H
	DB	052H
	DB	075H
	DB	06eH
	DB	074H
	DB	069H
	DB	06dH
	DB	065H
	DB	045H
	DB	072H
	DB	072H
	DB	06fH
	DB	072H
	DB	028H
	DB	01H
	DB	00H
	DB	00H
	DB	00H
	DB	075H
	DB	04H
	DB	00H
	DB	00H
	DB	00H
	DB	073H
	DB	065H
	DB	06cH
	DB	066H
	DB	028H
	DB	00H
	DB	00H
	DB	00H
	DB	00H
	DB	028H
	DB	00H
	DB	00H
	DB	00H
	DB	00H
	DB	075H
	DB	01dH
	DB	00H
	DB	00H
	DB	00H
	DB	03cH
	DB	066H
	DB	072H
	DB	06fH
	DB	07aH
	DB	065H
	DB	06eH
	DB	020H
	DB	069H
	DB	06dH
	DB	070H
	DB	06fH
	DB	072H
	DB	074H
	DB	06cH
	DB	069H
	DB	062H
	DB	02eH
	DB	05fH
	DB	062H
	DB	06fH
	DB	06fH
	DB	074H
	DB	073H
	DB	074H
	DB	072H
	DB	061H
	DB	070H
	DB	03eH
	DB	075H
	DB	07H
	DB	00H
	DB	00H
	DB	00H
	DB	072H
	DB	065H
	DB	06cH
	DB	065H
	DB	061H
	DB	073H
	DB	065H
	DB	0ffH
	DB	00H
	DB	00H
	DB	00H
	DB	073H
	DB	06H
	DB	00H
	DB	00H
	DB	00H
	DB	00H
	DB	01H
	DB	0fH
	DB	01H
	DB	0fH
	DB	01H
	DB	075H
	DB	018H
	DB	00H
	DB	00H
	DB	00H
	DB	05fH
	DB	044H
	DB	075H
	DB	06dH
	DB	06dH
	DB	079H
	DB	04dH
	DB	06fH
	DB	064H
	DB	075H
	DB	06cH
	DB	065H
	DB	04cH
	DB	06fH
	DB	063H
	DB	06bH
	DB	02eH
	DB	072H
	DB	065H
	DB	06cH
	DB	065H
	DB	061H
	DB	073H
	DB	065H
	DB	063H
	DB	01H
	DB	00H
	DB	00H
	DB	00H
	DB	00H
	DB	00H
	DB	00H
	DB	00H
	DB	01H
	DB	00H
	DB	00H
	DB	00H
	DB	04H
	DB	00H
	DB	00H
	DB	00H
	DB	043H
	DB	00H
	DB	00H
	DB	00H
	DB	073H
	DB	017H
	DB	00H
	DB	00H
	DB	00H
	DB	064H
	DB	01H
	DB	00H
	DB	07cH
	DB	00H
	DB	00H
	DB	06aH
	DB	00H
	DB	00H
	DB	074H
	DB	01H
	DB	00H
	DB	07cH
	DB	00H
	DB	00H
	DB	083H
	DB	01H
	DB	00H
	DB	066H
	DB	02H
	DB	00H
	DB	016H
	DB	053H
	DB	028H
	DB	02H
	DB	00H
	DB	00H
	DB	00H
	DB	04eH
	DB	075H
	DB	01aH
	DB	00H
	DB	00H
	DB	00H
	DB	05fH
	DB	044H
	DB	075H
	DB	06dH
	DB	06dH
	DB	079H
	DB	04dH
	DB	06fH
	DB	064H
	DB	075H
	DB	06cH
	DB	065H
	DB	04cH
	DB	06fH
	DB	063H
	DB	06bH
	DB	028H
	DB	025H
	DB	072H
	DB	029H
	DB	020H
	DB	061H
	DB	074H
	DB	020H
	DB	025H
	DB	064H
	DB	028H
	DB	02H
	DB	00H
	DB	00H
	DB	00H
	DB	075H
	DB	04H
	DB	00H
	DB	00H
	DB	00H
	DB	06eH
	DB	061H
	DB	06dH
	DB	065H
	DB	075H
	DB	02H
	DB	00H
	DB	00H
	DB	00H
	DB	069H
	DB	064H
	DB	028H
	DB	01H
	DB	00H
	DB	00H
	DB	00H
	DB	075H
	DB	04H
	DB	00H
	DB	00H
	DB	00H
	DB	073H
	DB	065H
	DB	06cH
	DB	066H
	DB	028H
	DB	00H
	DB	00H
	DB	00H
	DB	00H
	DB	028H
	DB	00H
	DB	00H
	DB	00H
	DB	00H
	DB	075H
	DB	01dH
	DB	00H
	DB	00H
	DB	00H
	DB	03cH
	DB	066H
	DB	072H
	DB	06fH
	DB	07aH
	DB	065H
	DB	06eH
	DB	020H
	DB	069H
	DB	06dH
	DB	070H
	DB	06fH
	DB	072H
	DB	074H
	DB	06cH
	DB	069H
	DB	062H
	DB	02eH
	DB	05fH
	DB	062H
	DB	06fH
	DB	06fH
	DB	074H
	DB	073H
	DB	074H
	DB	072H
	DB	061H
	DB	070H
	DB	03eH
	DB	075H
	DB	08H
	DB	00H
	DB	00H
	DB	00H
	DB	05fH
	DB	05fH
	DB	072H
	DB	065H
	DB	070H
	DB	072H
	DB	05fH
	DB	05fH
	DB	04H
	DB	01H
	DB	00H
	DB	00H
	DB	073H
	DB	02H
	DB	00H
	DB	00H
	DB	00H
	DB	00H
	DB	01H
	DB	075H
	DB	019H
	DB	00H
	DB	00H
	DB	00H
	DB	05fH
	DB	044H
	DB	075H
	DB	06dH
	DB	06dH
	DB	079H
	DB	04dH
	DB	06fH
	DB	064H
	DB	075H
	DB	06cH
	DB	065H
	DB	04cH
	DB	06fH
	DB	063H
	DB	06bH
	DB	02eH
	DB	05fH
	DB	05fH
	DB	072H
	DB	065H
	DB	070H
	DB	072H
	DB	05fH
	DB	05fH
	DB	04eH
	DB	028H
	DB	08H
	DB	00H
	DB	00H
	DB	00H
	DB	075H
	DB	08H
	DB	00H
	DB	00H
	DB	00H
	DB	05fH
	DB	05fH
	DB	06eH
	DB	061H
	DB	06dH
	DB	065H
	DB	05fH
	DB	05fH
	DB	075H
	DB	0aH
	DB	00H
	DB	00H
	DB	00H
	DB	05fH
	DB	05fH
	DB	06dH
	DB	06fH
	DB	064H
	DB	075H
	DB	06cH
	DB	065H
	DB	05fH
	DB	05fH
	DB	075H
	DB	0cH
	DB	00H
	DB	00H
	DB	00H
	DB	05fH
	DB	05fH
	DB	071H
	DB	075H
	DB	061H
	DB	06cH
	DB	06eH
	DB	061H
	DB	06dH
	DB	065H
	DB	05fH
	DB	05fH
	DB	075H
	DB	07H
	DB	00H
	DB	00H
	DB	00H
	DB	05fH
	DB	05fH
	DB	064H
	DB	06fH
	DB	063H
	DB	05fH
	DB	05fH
	DB	075H
	DB	08H
	DB	00H
	DB	00H
	DB	00H
	DB	05fH
	DB	05fH
	DB	069H
	DB	06eH
	DB	069H
	DB	074H
	DB	05fH
	DB	05fH
	DB	075H
	DB	07H
	DB	00H
	DB	00H
	DB	00H
	DB	061H
	DB	063H
	DB	071H
	DB	075H
	DB	069H
	DB	072H
	DB	065H
	DB	075H
	DB	07H
	DB	00H
	DB	00H
	DB	00H
	DB	072H
	DB	065H
	DB	06cH
	DB	065H
	DB	061H
	DB	073H
	DB	065H
	DB	075H
	DB	08H
	DB	00H
	DB	00H
	DB	00H
	DB	05fH
	DB	05fH
	DB	072H
	DB	065H
	DB	070H
	DB	072H
	DB	05fH
	DB	05fH
	DB	028H
	DB	01H
	DB	00H
	DB	00H
	DB	00H
	DB	075H
	DB	0aH
	DB	00H
	DB	00H
	DB	00H
	DB	05fH
	DB	05fH
	DB	06cH
	DB	06fH
	DB	063H
	DB	061H
	DB	06cH
	DB	073H
	DB	05fH
	DB	05fH
	DB	028H
	DB	00H
	DB	00H
	DB	00H
	DB	00H
	DB	028H
	DB	00H
	DB	00H
	DB	00H
	DB	00H
	DB	075H
	DB	01dH
	DB	00H
	DB	00H
	DB	00H
	DB	03cH
	DB	066H
	DB	072H
	DB	06fH
	DB	07aH
	DB	065H
	DB	06eH
	DB	020H
	DB	069H
	DB	06dH
	DB	070H
	DB	06fH
	DB	072H
	DB	074H
	DB	06cH
	DB	069H
	DB	062H
	DB	02eH
	DB	05fH
	DB	062H
	DB	06fH
	DB	06fH
	DB	074H
	DB	073H
	DB	074H
	DB	072H
	DB	061H
	DB	070H
	DB	03eH
	DB	075H
	DB	010H
	DB	00H
	DB	00H
	DB	00H
	DB	05fH
	DB	044H
	DB	075H
	DB	06dH
	DB	06dH
	DB	079H
	DB	04dH
	DB	06fH
	DB	064H
	DB	075H
	DB	06cH
	DB	065H
	DB	04cH
	DB	06fH
	DB	063H
	DB	06bH
	DB	0f3H
	DB	00H
	DB	00H
	DB	00H
	DB	073H
	DB	0aH
	DB	00H
	DB	00H
	DB	00H
	DB	010H
	DB	02H
	DB	06H
	DB	02H
	DB	0cH
	DB	04H
	DB	0cH
	DB	04H
	DB	0cH
	DB	05H
	DB	075H
	DB	010H
	DB	00H
	DB	00H
	DB	00H
	DB	05fH
	DB	044H
	DB	075H
	DB	06dH
	DB	06dH
	DB	079H
	DB	04dH
	DB	06fH
	DB	064H
	DB	075H
	DB	06cH
	DB	065H
	DB	04cH
	DB	06fH
	DB	063H
	DB	06bH
	DB	063H
	DB	01H
	DB	00H
	DB	00H
	DB	00H
	DB	00H
	DB	00H
	DB	00H
	DB	00H
	DB	03H
	DB	00H
	DB	00H
	DB	00H
	DB	0bH
	DB	00H
	DB	00H
	DB	00H
	DB	03H
	DB	00H
	DB	00H
	DB	00H
	DB	073H
	DB	08eH
	DB	00H
	DB	00H
	DB	00H
	DB	064H
	DB	03H
	DB	00H
	DB	07dH
	DB	01H
	DB	00H
	DB	079H
	DB	011H
	DB	00H
	DB	074H
	DB	01H
	DB	00H
	DB	088H
	DB	00H
	DB	00H
	DB	019H
	DB	083H
	DB	00H
	DB	00H
	DB	07dH
	DB	01H
	DB	00H
	DB	057H
	DB	06eH
	DB	012H
	DB	00H
	DB	04H
	DB	074H
	DB	02H
	DB	00H
	DB	06bH
	DB	0aH
	DB	00H
	DB	072H
	DB	02bH
	DB	00H
	DB	01H
	DB	01H
	DB	01H
	DB	059H
	DB	06eH
	DB	01H
	DB	00H
	DB	058H
	DB	07cH
	DB	01H
	DB	00H
	DB	064H
	DB	03H
	DB	00H
	DB	06bH
	DB	08H
	DB	00H
	DB	072H
	DB	08aH
	DB	00H
	DB	074H
	DB	03H
	DB	00H
	DB	064H
	DB	03H
	DB	00H
	DB	06bH
	DB	08H
	DB	00H
	DB	072H
	DB	053H
	DB	00H
	DB	074H
	DB	04H
	DB	00H
	DB	088H
	DB	00H
	DB	00H
	DB	083H
	DB	01H
	DB	00H
	DB	07dH
	DB	01H
	DB	00H
	DB	06eH
	DB	0cH
	DB	00H
	DB	074H
	DB	05H
	DB	00H
	DB	088H
	DB	00H
	DB	00H
	DB	083H
	DB	01H
	DB	00H
	DB	07dH
	DB	01H
	DB	00H
	DB	087H
	DB	00H
	DB	00H
	DB	066H
	DB	01H
	DB	00H
	DB	064H
	DB	01H
	DB	00H
	DB	064H
	DB	02H
	DB	00H
	DB	086H
	DB	00H
	DB	00H
	DB	07dH
	DB	02H
	DB	00H
	DB	074H
	DB	06H
	DB	00H
	DB	06aH
	DB	07H
	DB	00H
	DB	07cH
	DB	01H
	DB	00H
	DB	07cH
	DB	02H
	DB	00H
	DB	083H
	DB	02H
	DB	00H
	DB	074H
	DB	01H
	DB	00H
	DB	088H
	DB	00H
	DB	00H
	DB	03cH
	DB	06eH
	DB	00H
	DB	00H
	DB	07cH
	DB	01H
	DB	00H
	DB	053H
	DB	028H
	DB	04H
	DB	00H
	DB	00H
	DB	00H
	DB	075H
	DB	06dH
	DB	00H
	DB	00H
	DB	00H
	DB	047H
	DB	065H
	DB	074H
	DB	020H
	DB	06fH
	DB	072H
	DB	020H
	DB	063H
	DB	072H
	DB	065H
	DB	061H
	DB	074H
	DB	065H
	DB	020H
	DB	074H
	DB	068H
	DB	065H
	DB	020H
	DB	06dH
	DB	06fH
	DB	064H
	DB	075H
	DB	06cH
	DB	065H
	DB	020H
	DB	06cH
	DB	06fH
	DB	063H
	DB	06bH
	DB	020H
	DB	066H
	DB	06fH
	DB	072H
	DB	020H
	DB	061H
	DB	020H
	DB	067H
	DB	069H
	DB	076H
	DB	065H
	DB	06eH
	DB	020H
	DB	06dH
	DB	06fH
	DB	064H
	DB	075H
	DB	06cH
	DB	065H
	DB	020H
	DB	06eH
	DB	061H
	DB	06dH
	DB	065H
	DB	02eH
	DB	0aH
	DB	0aH
	DB	020H
	DB	020H
	DB	020H
	DB	020H
	DB	053H
	DB	068H
	DB	06fH
	DB	075H
	DB	06cH
	DB	064H
	DB	020H
	DB	06fH
	DB	06eH
	DB	06cH
	DB	079H
	DB	020H
	DB	062H
	DB	065H
	DB	020H
	DB	063H
	DB	061H
	DB	06cH
	DB	06cH
	DB	065H
	DB	064H
	DB	020H
	DB	077H
	DB	069H
	DB	074H
	DB	068H
	DB	020H
	DB	074H
	DB	068H
	DB	065H
	DB	020H
	DB	069H
	DB	06dH
	DB	070H
	DB	06fH
	DB	072H
	DB	074H
	DB	020H
	DB	06cH
	DB	06fH
	DB	063H
	DB	06bH
	DB	020H
	DB	074H
	DB	061H
	DB	06bH
	DB	065H
	DB	06eH
	DB	02eH
	DB	063H
	DB	01H
	DB	00H
	DB	00H
	DB	00H
	DB	00H
	DB	00H
	DB	00H
	DB	00H
	DB	01H
	DB	00H
	DB	00H
	DB	00H
	DB	02H
	DB	00H
	DB	00H
	DB	00H
	DB	013H
	DB	00H
	DB	00H
	DB	00H
	DB	073H
	DB	0bH
	DB	00H
	DB	00H
	DB	00H
	DB	074H
	DB	00H
	DB	00H
	DB	088H
	DB	00H
	DB	00H
	DB	03dH
	DB	064H
	DB	00H
	DB	00H
	DB	053H
	DB	028H
	DB	01H
	DB	00H
	DB	00H
	DB	00H
	DB	04eH
	DB	028H
	DB	01H
	DB	00H
	DB	00H
	DB	00H
	DB	075H
	DB	0dH
	DB	00H
	DB	00H
	DB	00H
	DB	05fH
	DB	06dH
	DB	06fH
	DB	064H
	DB	075H
	DB	06cH
	DB	065H
	DB	05fH
	DB	06cH
	DB	06fH
	DB	063H
	DB	06bH
	DB	073H
	DB	028H
	DB	01H
	DB	00H
	DB	00H
	DB	00H
	DB	075H
	DB	01H
	DB	00H
	DB	00H
	DB	00H
	DB	05fH
	DB	028H
	DB	01H
	DB	00H
	DB	00H
	DB	00H
	DB	075H
	DB	04H
	DB	00H
	DB	00H
	DB	00H
	DB	06eH
	DB	061H
	DB	06dH
	DB	065H
	DB	028H
	DB	00H
	DB	00H
	DB	00H
	DB	00H
	DB	075H
	DB	01dH
	DB	00H
	DB	00H
	DB	00H
	DB	03cH
	DB	066H
	DB	072H
	DB	06fH
	DB	07aH
	DB	065H
	DB	06eH
	DB	020H
	DB	069H
	DB	06dH
	DB	070H
	DB	06fH
	DB	072H
	DB	074H
	DB	06cH
	DB	069H
	DB	062H
	DB	02eH
	DB	05fH
	DB	062H
	DB	06fH
	DB	06fH
	DB	074H
	DB	073H
	DB	074H
	DB	072H
	DB	061H
	DB	070H
	DB	03eH
	DB	075H
	DB	02H
	DB	00H
	DB	00H
	DB	00H
	DB	063H
	DB	062H
	DB	018H
	DB	01H
	DB	00H
	DB	00H
	DB	073H
	DB	02H
	DB	00H
	DB	00H
	DB	00H
	DB	00H
	DB	01H
	DB	075H
	DB	01cH
	DB	00H
	DB	00H
	DB	00H
	DB	05fH
	DB	067H
	DB	065H
	DB	074H
	DB	05fH
	DB	06dH
	DB	06fH
	DB	064H
	DB	075H
	DB	06cH
	DB	065H
	DB	05fH
	DB	06cH
	DB	06fH
	DB	063H
	DB	06bH
	DB	02eH
	DB	03cH
	DB	06cH
	DB	06fH
	DB	063H
	DB	061H
	DB	06cH
	DB	073H
	DB	03eH
	DB	02eH
	DB	063H
	DB	062H
	DB	04eH
	DB	028H
	DB	08H
	DB	00H
	DB	00H
	DB	00H
	DB	075H
	DB	04H
	DB	00H
	DB	00H
	DB	00H
	DB	04eH
	DB	06fH
	DB	06eH
	DB	065H
	DB	075H
	DB	0dH
	DB	00H
	DB	00H
	DB	00H
	DB	05fH
	DB	06dH
	DB	06fH
	DB	064H
	DB	075H
	DB	06cH
	DB	065H
	DB	05fH
	DB	06cH
	DB	06fH
	DB	063H
	DB	06bH
	DB	073H
	DB	075H
	DB	08H
	DB	00H
	DB	00H
	DB	00H
	DB	04bH
	DB	065H
	DB	079H
	DB	045H
	DB	072H
	DB	072H
	DB	06fH
	DB	072H
	DB	075H
	DB	07H
	DB	00H
	DB	00H
	DB	00H
	DB	05fH
	DB	074H
	DB	068H
	DB	072H
	DB	065H
	DB	061H
	DB	064H
	DB	075H
	DB	010H
	DB	00H
	DB	00H
	DB	00H
	DB	05fH
	DB	044H
	DB	075H
	DB	06dH
	DB	06dH
	DB	079H
	DB	04dH
	DB	06fH
	DB	064H
	DB	075H
	DB	06cH
	DB	065H
	DB	04cH
	DB	06fH
	DB	063H
	DB	06bH
	DB	075H
	DB	0bH
	DB	00H
	DB	00H
	DB	00H
	DB	05fH
	DB	04dH
	DB	06fH
	DB	064H
	DB	075H
	DB	06cH
	DB	065H
	DB	04cH
	DB	06fH
	DB	063H
	DB	06bH
	DB	075H
	DB	08H
	DB	00H
	DB	00H
	DB	00H
	DB	05fH
	DB	077H
	DB	065H
	DB	061H
	DB	06bH
	DB	072H
	DB	065H
	DB	066H
	DB	075H
	DB	03H
	DB	00H
	DB	00H
	DB	00H
	DB	072H
	DB	065H
	DB	066H
	DB	028H
	DB	03H
	DB	00H
	DB	00H
	DB	00H
	DB	075H
	DB	04H
	DB	00H
	DB	00H
	DB	00H
	DB	06eH
	DB	061H
	DB	06dH
	DB	065H
	DB	075H
	DB	04H
	DB	00H
	DB	00H
	DB	00H
	DB	06cH
	DB	06fH
	DB	063H
	DB	06bH
	DB	075H
	DB	02H
	DB	00H
	DB	00H
	DB	00H
	DB	063H
	DB	062H
	DB	028H
	DB	00H
	DB	00H
	DB	00H
	DB	00H
	DB	028H
	DB	01H
	DB	00H
	DB	00H
	DB	00H
	DB	075H
	DB	04H
	DB	00H
	DB	00H
	DB	00H
	DB	06eH
	DB	061H
	DB	06dH
	DB	065H
	DB	075H
	DB	01dH
	DB	00H
	DB	00H
	DB	00H
	DB	03cH
	DB	066H
	DB	072H
	DB	06fH
	DB	07aH
	DB	065H
	DB	06eH
	DB	020H
	DB	069H
	DB	06dH
	DB	070H
	DB	06fH
	DB	072H
	DB	074H
	DB	06cH
	DB	069H
	DB	062H
	DB	02eH
	DB	05fH
	DB	062H
	DB	06fH
	DB	06fH
	DB	074H
	DB	073H
	DB	074H
	DB	072H
	DB	061H
	DB	070H
	DB	03eH
	DB	075H
	DB	010H
	DB	00H
	DB	00H
	DB	00H
	DB	05fH
	DB	067H
	DB	065H
	DB	074H
	DB	05fH
	DB	06dH
	DB	06fH
	DB	064H
	DB	075H
	DB	06cH
	DB	065H
	DB	05fH
	DB	06cH
	DB	06fH
	DB	063H
	DB	06bH
	DB	0aH
	DB	01H
	DB	00H
	DB	00H
	DB	073H
	DB	018H
	DB	00H
	DB	00H
	DB	00H
	DB	00H
	DB	04H
	DB	06H
	DB	01H
	DB	03H
	DB	01H
	DB	011H
	DB	01H
	DB	0dH
	DB	01H
	DB	05H
	DB	01H
	DB	0cH
	DB	01H
	DB	0cH
	DB	01H
	DB	0fH
	DB	02H
	DB	0cH
	DB	01H
	DB	012H
	DB	02H
	DB	019H
	DB	01H
	DB	075H
	DB	010H
	DB	00H
	DB	00H
	DB	00H
	DB	05fH
	DB	067H
	DB	065H
	DB	074H
	DB	05fH
	DB	06dH
	DB	06fH
	DB	064H
	DB	075H
	DB	06cH
	DB	065H
	DB	05fH
	DB	06cH
	DB	06fH
	DB	063H
	DB	06bH
	DB	063H
	DB	01H
	DB	00H
	DB	00H
	DB	00H
	DB	00H
	DB	00H
	DB	00H
	DB	00H
	DB	02H
	DB	00H
	DB	00H
	DB	00H
	DB	0bH
	DB	00H
	DB	00H
	DB	00H
	DB	043H
	DB	00H
	DB	00H
	DB	00H
	DB	073H
	DB	047H
	DB	00H
	DB	00H
	DB	00H
	DB	074H
	DB	00H
	DB	00H
	DB	07cH
	DB	00H
	DB	00H
	DB	083H
	DB	01H
	DB	00H
	DB	07dH
	DB	01H
	DB	00H
	DB	074H
	DB	01H
	DB	00H
	DB	06aH
	DB	02H
	DB	00H
	DB	083H
	DB	00H
	DB	00H
	DB	01H
	DB	079H
	DB	0eH
	DB	00H
	DB	07cH
	DB	01H
	DB	00H
	DB	06aH
	DB	03H
	DB	00H
	DB	083H
	DB	00H
	DB	00H
	DB	01H
	DB	057H
	DB	06eH
	DB	012H
	DB	00H
	DB	04H
	DB	074H
	DB	04H
	DB	00H
	DB	06bH
	DB	0aH
	DB	00H
	DB	072H
	DB	038H
	DB	00H
	DB	01H
	DB	01H
	DB	01H
	DB	059H
	DB	06eH
	DB	0bH
	DB	00H
	DB	058H
	DB	07cH
	DB	01H
	DB	00H
	DB	06aH
	DB	05H
	DB	00H
	DB	083H
	DB	00H
	DB	00H
	DB	01H
	DB	064H
	DB	01H
	DB	00H
	DB	053H
	DB	028H
	DB	02H
	DB	00H
	DB	00H
	DB	00H
	DB	075H
	DB	015H
	DB	01H
	DB	00H
	DB	00H
	DB	052H
	DB	065H
	DB	06cH
	DB	065H
	DB	061H
	DB	073H
	DB	065H
	DB	020H
	DB	074H
	DB	068H
	DB	065H
	DB	020H
	DB	067H
	DB	06cH
	DB	06fH
	DB	062H
	DB	061H
	DB	06cH
	DB	020H
	DB	069H
	DB	06dH
	DB	070H
	DB	06fH
	DB	072H
	DB	074H
	DB	020H
	DB	06cH
	DB	06fH
	DB	063H
	DB	06bH
	DB	02cH
	DB	020H
	DB	061H
	DB	06eH
	DB	064H
	DB	020H
	DB	061H
	DB	063H
	DB	071H
	DB	075H
	DB	069H
	DB	072H
	DB	065H
	DB	073H
	DB	020H
	DB	074H
	DB	068H
	DB	065H
	DB	06eH
	DB	020H
	DB	072H
	DB	065H
	DB	06cH
	DB	065H
	DB	061H
	DB	073H
	DB	065H
	DB	020H
	DB	074H
	DB	068H
	DB	065H
	DB	0aH
	DB	020H
	DB	020H
	DB	020H
	DB	020H
	DB	06dH
	DB	06fH
	DB	064H
	DB	075H
	DB	06cH
	DB	065H
	DB	020H
	DB	06cH
	DB	06fH
	DB	063H
	DB	06bH
	DB	020H
	DB	066H
	DB	06fH
	DB	072H
	DB	020H
	DB	061H
	DB	020H
	DB	067H
	DB	069H
	DB	076H
	DB	065H
	DB	06eH
	DB	020H
	DB	06dH
	DB	06fH
	DB	064H
	DB	075H
	DB	06cH
	DB	065H
	DB	020H
	DB	06eH
	DB	061H
	DB	06dH
	DB	065H
	DB	02eH
	DB	0aH
	DB	020H
	DB	020H
	DB	020H
	DB	020H
	DB	054H
	DB	068H
	DB	069H
	DB	073H
	DB	020H
	DB	069H
	DB	073H
	DB	020H
	DB	075H
	DB	073H
	DB	065H
	DB	064H
	DB	020H
	DB	074H
	DB	06fH
	DB	020H
	DB	065H
	DB	06eH
	DB	073H
	DB	075H
	DB	072H
	DB	065H
	DB	020H
	DB	061H
	DB	020H
	DB	06dH
	DB	06fH
	DB	064H
	DB	075H
	DB	06cH
	DB	065H
	DB	020H
	DB	069H
	DB	073H
	DB	020H
	DB	063H
	DB	06fH
	DB	06dH
	DB	070H
	DB	06cH
	DB	065H
	DB	074H
	DB	065H
	DB	06cH
	DB	079H
	DB	020H
	DB	069H
	DB	06eH
	DB	069H
	DB	074H
	DB	069H
	DB	061H
	DB	06cH
	DB	069H
	DB	07aH
	DB	065H
	DB	064H
	DB	02cH
	DB	020H
	DB	069H
	DB	06eH
	DB	020H
	DB	074H
	DB	068H
	DB	065H
	DB	0aH
	DB	020H
	DB	020H
	DB	020H
	DB	020H
	DB	065H
	DB	076H
	DB	065H
	DB	06eH
	DB	074H
	DB	020H
	DB	069H
	DB	074H
	DB	020H
	DB	069H
	DB	073H
	DB	020H
	DB	062H
	DB	065H
	DB	069H
	DB	06eH
	DB	067H
	DB	020H
	DB	069H
	DB	06dH
	DB	070H
	DB	06fH
	DB	072H
	DB	074H
	DB	065H
	DB	064H
	DB	020H
	DB	062H
	DB	079H
	DB	020H
	DB	061H
	DB	06eH
	DB	06fH
	DB	074H
	DB	068H
	DB	065H
	DB	072H
	DB	020H
	DB	074H
	DB	068H
	DB	072H
	DB	065H
	DB	061H
	DB	064H
	DB	02eH
	DB	0aH
	DB	0aH
	DB	020H
	DB	020H
	DB	020H
	DB	020H
	DB	053H
	DB	068H
	DB	06fH
	DB	075H
	DB	06cH
	DB	064H
	DB	020H
	DB	06fH
	DB	06eH
	DB	06cH
	DB	079H
	DB	020H
	DB	062H
	DB	065H
	DB	020H
	DB	063H
	DB	061H
	DB	06cH
	DB	06cH
	DB	065H
	DB	064H
	DB	020H
	DB	077H
	DB	069H
	DB	074H
	DB	068H
	DB	020H
	DB	074H
	DB	068H
	DB	065H
	DB	020H
	DB	069H
	DB	06dH
	DB	070H
	DB	06fH
	DB	072H
	DB	074H
	DB	020H
	DB	06cH
	DB	06fH
	DB	063H
	DB	06bH
	DB	020H
	DB	074H
	DB	061H
	DB	06bH
	DB	065H
	DB	06eH
	DB	02eH
	DB	04eH
	DB	028H
	DB	06H
	DB	00H
	DB	00H
	DB	00H
	DB	075H
	DB	010H
	DB	00H
	DB	00H
	DB	00H
	DB	05fH
	DB	067H
	DB	065H
	DB	074H
	DB	05fH
	DB	06dH
	DB	06fH
	DB	064H
	DB	075H
	DB	06cH
	DB	065H
	DB	05fH
	DB	06cH
	DB	06fH
	DB	063H
	DB	06bH
	DB	075H
	DB	04H
	DB	00H
	DB	00H
	DB	00H
	DB	05fH
	DB	069H
	DB	06dH
	DB	070H
	DB	075H
	DB	0cH
	DB	00H
	DB	00H
	DB	00H
	DB	072H
	DB	065H
	DB	06cH
	DB	065H
	DB	061H
	DB	073H
	DB	065H
	DB	05fH
	DB	06cH
	DB	06fH
	DB	063H
	DB	06bH
	DB	075H
	DB	07H
	DB	00H
	DB	00H
	DB	00H
	DB	061H
	DB	063H
	DB	071H
	DB	075H
	DB	069H
	DB	072H
	DB	065H
	DB	075H
	DB	0eH
	DB	00H
	DB	00H
	DB	00H
	DB	05fH
	DB	044H
	DB	065H
	DB	061H
	DB	064H
	DB	06cH
	DB	06fH
	DB	063H
	DB	06bH
	DB	045H
	DB	072H
	DB	072H
	DB	06fH
	DB	072H
	DB	075H
	DB	07H
	DB	00H
	DB	00H
	DB	00H
	DB	072H
	DB	065H
	DB	06cH
	DB	065H
	DB	061H
	DB	073H
	DB	065H
	DB	028H
	DB	02H
	DB	00H
	DB	00H
	DB	00H
	DB	075H
	DB	04H
	DB	00H
	DB	00H
	DB	00H
	DB	06eH
	DB	061H
	DB	06dH
	DB	065H
	DB	075H
	DB	04H
	DB	00H
	DB	00H
	DB	00H
	DB	06cH
	DB	06fH
	DB	063H
	DB	06bH
	DB	028H
	DB	00H
	DB	00H
	DB	00H
	DB	00H
	DB	028H
	DB	00H
	DB	00H
	DB	00H
	DB	00H
	DB	075H
	DB	01dH
	DB	00H
	DB	00H
	DB	00H
	DB	03cH
	DB	066H
	DB	072H
	DB	06fH
	DB	07aH
	DB	065H
	DB	06eH
	DB	020H
	DB	069H
	DB	06dH
	DB	070H
	DB	06fH
	DB	072H
	DB	074H
	DB	06cH
	DB	069H
	DB	062H
	DB	02eH
	DB	05fH
	DB	062H
	DB	06fH
	DB	06fH
	DB	074H
	DB	073H
	DB	074H
	DB	072H
	DB	061H
	DB	070H
	DB	03eH
	DB	075H
	DB	013H
	DB	00H
	DB	00H
	DB	00H
	DB	05fH
	DB	06cH
	DB	06fH
	DB	063H
	DB	06bH
	DB	05fH
	DB	075H
	DB	06eH
	DB	06cH
	DB	06fH
	DB	063H
	DB	06bH
	DB	05fH
	DB	06dH
	DB	06fH
	DB	064H
	DB	075H
	DB	06cH
	DB	065H
	DB	01dH
	DB	01H
	DB	00H
	DB	00H
	DB	073H
	DB	0eH
	DB	00H
	DB	00H
	DB	00H
	DB	00H
	DB	07H
	DB	0cH
	DB	01H
	DB	0aH
	DB	01H
	DB	03H
	DB	01H
	DB	0eH
	DB	01H
	DB	0dH
	DB	03H
	DB	05H
	DB	02H
	DB	075H
	DB	013H
	DB	00H
	DB	00H
	DB	00H
	DB	05fH
	DB	06cH
	DB	06fH
	DB	063H
	DB	06bH
	DB	05fH
	DB	075H
	DB	06eH
	DB	06cH
	DB	06fH
	DB	063H
	DB	06bH
	DB	05fH
	DB	06dH
	DB	06fH
	DB	064H
	DB	075H
	DB	06cH
	DB	065H
	DB	063H
	DB	01H
	DB	00H
	DB	00H
	DB	00H
	DB	00H
	DB	00H
	DB	00H
	DB	00H
	DB	03H
	DB	00H
	DB	00H
	DB	00H
	DB	03H
	DB	00H
	DB	00H
	DB	00H
	DB	04fH
	DB	00H
	DB	00H
	DB	00H
	DB	073H
	DB	0dH
	DB	00H
	DB	00H
	DB	00H
	DB	07cH
	DB	00H
	DB	00H
	DB	07cH
	DB	01H
	DB	00H
	DB	07cH
	DB	02H
	DB	00H
	DB	08eH
	DB	00H
	DB	00H
	DB	053H
	DB	028H
	DB	01H
	DB	00H
	DB	00H
	DB	00H
	DB	075H
	DB	02eH
	DB	01H
	DB	00H
	DB	00H
	DB	072H
	DB	065H
	DB	06dH
	DB	06fH
	DB	076H
	DB	065H
	DB	05fH
	DB	069H
	DB	06dH
	DB	070H
	DB	06fH
	DB	072H
	DB	074H
	DB	06cH
	DB	069H
	DB	062H
	DB	05fH
	DB	066H
	DB	072H
	DB	061H
	DB	06dH
	DB	065H
	DB	073H
	DB	020H
	DB	069H
	DB	06eH
	DB	020H
	DB	069H
	DB	06dH
	DB	070H
	DB	06fH
	DB	072H
	DB	074H
	DB	02eH
	DB	063H
	DB	020H
	DB	077H
	DB	069H
	DB	06cH
	DB	06cH
	DB	020H
	DB	061H
	DB	06cH
	DB	077H
	DB	061H
	DB	079H
	DB	073H
	DB	020H
	DB	072H
	DB	065H
	DB	06dH
	DB	06fH
	DB	076H
	DB	065H
	DB	020H
	DB	073H
	DB	065H
	DB	071H
	DB	075H
	DB	065H
	DB	06eH
	DB	063H
	DB	065H
	DB	073H
	DB	0aH
	DB	020H
	DB	020H
	DB	020H
	DB	020H
	DB	06fH
	DB	066H
	DB	020H
	DB	069H
	DB	06dH
	DB	070H
	DB	06fH
	DB	072H
	DB	074H
	DB	06cH
	DB	069H
	DB	062H
	DB	020H
	DB	066H
	DB	072H
	DB	061H
	DB	06dH
	DB	065H
	DB	073H
	DB	020H
	DB	074H
	DB	068H
	DB	061H
	DB	074H
	DB	020H
	DB	065H
	DB	06eH
	DB	064H
	DB	020H
	DB	077H
	DB	069H
	DB	074H
	DB	068H
	DB	020H
	DB	061H
	DB	020H
	DB	063H
	DB	061H
	DB	06cH
	DB	06cH
	DB	020H
	DB	074H
	DB	06fH
	DB	020H
	DB	074H
	DB	068H
	DB	069H
	DB	073H
	DB	020H
	DB	066H
	DB	075H
	DB	06eH
	DB	063H
	DB	074H
	DB	069H
	DB	06fH
	DB	06eH
	DB	0aH
	DB	0aH
	DB	020H
	DB	020H
	DB	020H
	DB	020H
	DB	055H
	DB	073H
	DB	065H
	DB	020H
	DB	069H
	DB	074H
	DB	020H
	DB	069H
	DB	06eH
	DB	073H
	DB	074H
	DB	065H
	DB	061H
	DB	064H
	DB	020H
	DB	06fH
	DB	066H
	DB	020H
	DB	061H
	DB	020H
	DB	06eH
	DB	06fH
	DB	072H
	DB	06dH
	DB	061H
	DB	06cH
	DB	020H
	DB	063H
	DB	061H
	DB	06cH
	DB	06cH
	DB	020H
	DB	069H
	DB	06eH
	DB	020H
	DB	070H
	DB	06cH
	DB	061H
	DB	063H
	DB	065H
	DB	073H
	DB	020H
	DB	077H
	DB	068H
	DB	065H
	DB	072H
	DB	065H
	DB	020H
	DB	069H
	DB	06eH
	DB	063H
	DB	06cH
	DB	075H
	DB	064H
	DB	069H
	DB	06eH
	DB	067H
	DB	020H
	DB	074H
	DB	068H
	DB	065H
	DB	020H
	DB	069H
	DB	06dH
	DB	070H
	DB	06fH
	DB	072H
	DB	074H
	DB	06cH
	DB	069H
	DB	062H
	DB	0aH
	DB	020H
	DB	020H
	DB	020H
	DB	020H
	DB	066H
	DB	072H
	DB	061H
	DB	06dH
	DB	065H
	DB	073H
	DB	020H
	DB	069H
	DB	06eH
	DB	074H
	DB	072H
	DB	06fH
	DB	064H
	DB	075H
	DB	063H
	DB	065H
	DB	073H
	DB	020H
	DB	075H
	DB	06eH
	DB	077H
	DB	061H
	DB	06eH
	DB	074H
	DB	065H
	DB	064H
	DB	020H
	DB	06eH
	DB	06fH
	DB	069H
	DB	073H
	DB	065H
	DB	020H
	DB	069H
	DB	06eH
	DB	074H
	DB	06fH
	DB	020H
	DB	074H
	DB	068H
	DB	065H
	DB	020H
	DB	074H
	DB	072H
	DB	061H
	DB	063H
	DB	065H
	DB	062H
	DB	061H
	DB	063H
	DB	06bH
	DB	020H
	DB	028H
	DB	065H
	DB	02eH
	DB	067H
	DB	02eH
	DB	020H
	DB	077H
	DB	068H
	DB	065H
	DB	06eH
	DB	020H
	DB	065H
	DB	078H
	DB	065H
	DB	063H
	DB	075H
	DB	074H
	DB	069H
	DB	06eH
	DB	067H
	DB	0aH
	DB	020H
	DB	020H
	DB	020H
	DB	020H
	DB	06dH
	DB	06fH
	DB	064H
	DB	075H
	DB	06cH
	DB	065H
	DB	020H
	DB	063H
	DB	06fH
	DB	064H
	DB	065H
	DB	029H
	DB	0aH
	DB	020H
	DB	020H
	DB	020H
	DB	020H
	DB	028H
	DB	00H
	DB	00H
	DB	00H
	DB	00H
	DB	028H
	DB	03H
	DB	00H
	DB	00H
	DB	00H
	DB	075H
	DB	01H
	DB	00H
	DB	00H
	DB	00H
	DB	066H
	DB	075H
	DB	04H
	DB	00H
	DB	00H
	DB	00H
	DB	061H
	DB	072H
	DB	067H
	DB	073H
	DB	075H
	DB	04H
	DB	00H
	DB	00H
	DB	00H
	DB	06bH
	DB	077H
	DB	064H
	DB	073H
	DB	028H
	DB	00H
	DB	00H
	DB	00H
	DB	00H
	DB	028H
	DB	00H
	DB	00H
	DB	00H
	DB	00H
	DB	075H
	DB	01dH
	DB	00H
	DB	00H
	DB	00H
	DB	03cH
	DB	066H
	DB	072H
	DB	06fH
	DB	07aH
	DB	065H
	DB	06eH
	DB	020H
	DB	069H
	DB	06dH
	DB	070H
	DB	06fH
	DB	072H
	DB	074H
	DB	06cH
	DB	069H
	DB	062H
	DB	02eH
	DB	05fH
	DB	062H
	DB	06fH
	DB	06fH
	DB	074H
	DB	073H
	DB	074H
	DB	072H
	DB	061H
	DB	070H
	DB	03eH
	DB	075H
	DB	019H
	DB	00H
	DB	00H
	DB	00H
	DB	05fH
	DB	063H
	DB	061H
	DB	06cH
	DB	06cH
	DB	05fH
	DB	077H
	DB	069H
	DB	074H
	DB	068H
	DB	05fH
	DB	066H
	DB	072H
	DB	061H
	DB	06dH
	DB	065H
	DB	073H
	DB	05fH
	DB	072H
	DB	065H
	DB	06dH
	DB	06fH
	DB	076H
	DB	065H
	DB	064H
	DB	031H
	DB	01H
	DB	00H
	DB	00H
	DB	073H
	DB	02H
	DB	00H
	DB	00H
	DB	00H
	DB	00H
	DB	08H
	DB	075H
	DB	019H
	DB	00H
	DB	00H
	DB	00H
	DB	05fH
	DB	063H
	DB	061H
	DB	06cH
	DB	06cH
	DB	05fH
	DB	077H
	DB	069H
	DB	074H
	DB	068H
	DB	05fH
	DB	066H
	DB	072H
	DB	061H
	DB	06dH
	DB	065H
	DB	073H
	DB	05fH
	DB	072H
	DB	065H
	DB	06dH
	DB	06fH
	DB	076H
	DB	065H
	DB	064H
	DB	069H
	DB	09eH
	DB	0cH
	DB	00H
	DB	00H
	DB	075H
	DB	01H
	DB	00H
	DB	00H
	DB	00H
	DB	0dH
	DB	069H
	DB	010H
	DB	00H
	DB	00H
	DB	00H
	DB	075H
	DB	01H
	DB	00H
	DB	00H
	DB	00H
	DB	0aH
	DB	069H
	DB	018H
	DB	00H
	DB	00H
	DB	00H
	DB	063H
	DB	01H
	DB	00H
	DB	00H
	DB	00H
	DB	00H
	DB	00H
	DB	00H
	DB	00H
	DB	02H
	DB	00H
	DB	00H
	DB	00H
	DB	04H
	DB	00H
	DB	00H
	DB	00H
	DB	043H
	DB	00H
	DB	00H
	DB	00H
	DB	073H
	DB	01eH
	DB	00H
	DB	00H
	DB	00H
	DB	067H
	DB	00H
	DB	00H
	DB	07cH
	DB	00H
	DB	00H
	DB	05dH
	DB	014H
	DB	00H
	DB	07dH
	DB	01H
	DB	00H
	DB	074H
	DB	00H
	DB	00H
	DB	07cH
	DB	01H
	DB	00H
	DB	03fH
	DB	064H
	DB	00H
	DB	00H
	DB	040H
	DB	091H
	DB	02H
	DB	00H
	DB	071H
	DB	06H
	DB	00H
	DB	053H
	DB	028H
	DB	01H
	DB	00H
	DB	00H
	DB	00H
	DB	069H
	DB	0ffH
	DB	00H
	DB	00H
	DB	00H
	DB	028H
	DB	01H
	DB	00H
	DB	00H
	DB	00H
	DB	075H
	DB	011H
	DB	00H
	DB	00H
	DB	00H
	DB	05fH
	DB	052H
	DB	041H
	DB	057H
	DB	05fH
	DB	04dH
	DB	041H
	DB	047H
	DB	049H
	DB	043H
	DB	05fH
	DB	04eH
	DB	055H
	DB	04dH
	DB	042H
	DB	045H
	DB	052H
	DB	028H
	DB	02H
	DB	00H
	DB	00H
	DB	00H
	DB	075H
	DB	02H
	DB	00H
	DB	00H
	DB	00H
	DB	02eH
	DB	030H
	DB	075H
	DB	01H
	DB	00H
	DB	00H
	DB	00H
	DB	06eH
	DB	028H
	DB	00H
	DB	00H
	DB	00H
	DB	00H
	DB	028H
	DB	00H
	DB	00H
	DB	00H
	DB	00H
	DB	075H
	DB	01dH
	DB	00H
	DB	00H
	DB	00H
	DB	03cH
	DB	066H
	DB	072H
	DB	06fH
	DB	07aH
	DB	065H
	DB	06eH
	DB	020H
	DB	069H
	DB	06dH
	DB	070H
	DB	06fH
	DB	072H
	DB	074H
	DB	06cH
	DB	069H
	DB	062H
	DB	02eH
	DB	05fH
	DB	062H
	DB	06fH
	DB	06fH
	DB	074H
	DB	073H
	DB	074H
	DB	072H
	DB	061H
	DB	070H
	DB	03eH
	DB	075H
	DB	0aH
	DB	00H
	DB	00H
	DB	00H
	DB	03cH
	DB	06cH
	DB	069H
	DB	073H
	DB	074H
	DB	063H
	DB	06fH
	DB	06dH
	DB	070H
	DB	03eH
	DB	096H
	DB	01H
	DB	00H
	DB	00H
	DB	073H
	DB	02H
	DB	00H
	DB	00H
	DB	00H
	DB	09H
	DB	00H
	DB	075H
	DB	0aH
	DB	00H
	DB	00H
	DB	00H
	DB	03cH
	DB	06cH
	DB	069H
	DB	073H
	DB	074H
	DB	063H
	DB	06fH
	DB	06dH
	DB	070H
	DB	03eH
	DB	069H
	DB	00H
	DB	00H
	DB	00H
	DB	00H
	DB	069H
	DB	019H
	DB	00H
	DB	00H
	DB	00H
	DB	069H
	DB	08H
	DB	00H
	DB	00H
	DB	00H
	DB	075H
	DB	0bH
	DB	00H
	DB	00H
	DB	00H
	DB	05fH
	DB	05fH
	DB	070H
	DB	079H
	DB	063H
	DB	061H
	DB	063H
	DB	068H
	DB	065H
	DB	05fH
	DB	05fH
	DB	075H
	DB	03H
	DB	00H
	DB	00H
	DB	00H
	DB	02eH
	DB	070H
	DB	079H
	DB	075H
	DB	04H
	DB	00H
	DB	00H
	DB	00H
	DB	02eH
	DB	070H
	DB	079H
	DB	063H
	DB	075H
	DB	04H
	DB	00H
	DB	00H
	DB	00H
	DB	02eH
	DB	070H
	DB	079H
	DB	06fH
	DB	063H
	DB	02H
	DB	00H
	DB	00H
	DB	00H
	DB	00H
	DB	00H
	DB	00H
	DB	00H
	DB	0bH
	DB	00H
	DB	00H
	DB	00H
	DB	06H
	DB	00H
	DB	00H
	DB	00H
	DB	043H
	DB	00H
	DB	00H
	DB	00H
	DB	073H
	DB	0b4H
	DB	00H
	DB	00H
	DB	00H
	DB	07cH
	DB	01H
	DB	00H
	DB	064H
	DB	05H
	DB	00H
	DB	06bH
	DB	08H
	DB	00H
	DB	072H
	DB	019H
	DB	00H
	DB	074H
	DB	01H
	DB	00H
	DB	06aH
	DB	02H
	DB	00H
	DB	06aH
	DB	03H
	DB	00H
	DB	0cH
	DB	06eH
	DB	03H
	DB	00H
	DB	07cH
	DB	01H
	DB	00H
	DB	07dH
	DB	02H
	DB	00H
	DB	07cH
	DB	02H
	DB	00H
	DB	072H
	DB	02eH
	DB	00H
	DB	074H
	DB	04H
	DB	00H
	DB	07dH
	DB	03H
	DB	00H
	DB	06eH
	DB	06H
	DB	00H
	DB	074H
	DB	05H
	DB	00H
	DB	07dH
	DB	03H
	DB	00H
	DB	074H
	DB	06H
	DB	00H
	DB	07cH
	DB	00H
	DB	00H
	DB	083H
	DB	01H
	DB	00H
	DB	05cH
	DB	02H
	DB	00H
	DB	07dH
	DB	04H
	DB	00H
	DB	07dH
	DB	05H
	DB	00H
	DB	07cH
	DB	05H
	DB	00H
	DB	06aH
	DB	07H
	DB	00H
	DB	064H
	DB	01H
	DB	00H
	DB	083H
	DB	01H
	DB	00H
	DB	05cH
	DB	03H
	DB	00H
	DB	07dH
	DB	06H
	DB	00H
	DB	07dH
	DB	07H
	DB	00H
	DB	07dH
	DB	08H
	DB	00H
	DB	074H
	DB	01H
	DB	00H
	DB	06aH
	DB	08H
	DB	00H
	DB	06aH
	DB	09H
	DB	00H
	DB	07dH
	DB	09H
	DB	00H
	DB	07cH
	DB	09H
	DB	00H
	DB	064H
	DB	05H
	DB	00H
	DB	06bH
	DB	08H
	DB	00H
	DB	072H
	DB	085H
	DB	00H
	DB	074H
	DB	0aH
	DB	00H
	DB	064H
	DB	02H
	DB	00H
	DB	083H
	DB	01H
	DB	00H
	DB	082H
	DB	01H
	DB	00H
	DB	06eH
	DB	00H
	DB	00H
	DB	064H
	DB	03H
	DB	00H
	DB	06aH
	DB	0bH
	DB	00H
	DB	07cH
	DB	06H
	DB	00H
	DB	07cH
	DB	07H
	DB	00H
	DB	07cH
	DB	09H
	DB	00H
	DB	07cH
	DB	03H
	DB	00H
	DB	064H
	DB	04H
	DB	00H
	DB	019H
	DB	067H
	DB	04H
	DB	00H
	DB	083H
	DB	01H
	DB	00H
	DB	07dH
	DB	0aH
	DB	00H
	DB	074H
	DB	0cH
	DB	00H
	DB	07cH
	DB	04H
	DB	00H
	DB	074H
	DB	0dH
	DB	00H
	DB	07cH
	DB	0aH
	DB	00H
	DB	083H
	DB	03H
	DB	00H
	DB	053H
	DB	028H
	DB	06H
	DB	00H
	DB	00H
	DB	00H
	DB	075H
	DB	0f4H
	DB	01H
	DB	00H
	DB	00H
	DB	047H
	DB	069H
	DB	076H
	DB	065H
	DB	06eH
	DB	020H
	DB	074H
	DB	068H
	DB	065H
	DB	020H
	DB	070H
	DB	061H
	DB	074H
	DB	068H
	DB	020H
	DB	074H
	DB	06fH
	DB	020H
	DB	061H
	DB	020H
	DB	02eH
	DB	070H
	DB	079H
	DB	020H
	DB	066H
	DB	069H
	DB	06cH
	DB	065H
	DB	02cH
	DB	020H
	DB	072H
	DB	065H
	DB	074H
	DB	075H
	DB	072H
	DB	06eH
	DB	020H
	DB	074H
	DB	068H
	DB	065H
	DB	020H
	DB	070H
	DB	061H
	DB	074H
	DB	068H
	DB	020H
	DB	074H
	DB	06fH
	DB	020H
	DB	069H
	DB	074H
	DB	073H
	DB	020H
	DB	02eH
	DB	070H
	DB	079H
	DB	063H
	DB	02fH
	DB	02eH
	DB	070H
	DB	079H
	DB	06fH
	DB	020H
	DB	066H
	DB	069H
	DB	06cH
	DB	065H
	DB	02eH
	DB	0aH
	DB	0aH
	DB	020H
	DB	020H
	DB	020H
	DB	020H
	DB	054H
	DB	068H
	DB	065H
	DB	020H
	DB	02eH
	DB	070H
	DB	079H
	DB	020H
	DB	066H
	DB	069H
	DB	06cH
	DB	065H
	DB	020H
	DB	064H
	DB	06fH
	DB	065H
	DB	073H
	DB	020H
	DB	06eH
	DB	06fH
	DB	074H
	DB	020H
	DB	06eH
	DB	065H
	DB	065H
	DB	064H
	DB	020H
	DB	074H
	DB	06fH
	DB	020H
	DB	065H
	DB	078H
	DB	069H
	DB	073H
	DB	074H
	DB	03bH
	DB	020H
	DB	074H
	DB	068H
	DB	069H
	DB	073H
	DB	020H
	DB	073H
	DB	069H
	DB	06dH
	DB	070H
	DB	06cH
	DB	079H
	DB	020H
	DB	072H
	DB	065H
	DB	074H
	DB	075H
	DB	072H
	DB	06eH
	DB	073H
	DB	020H
	DB	074H
	DB	068H
	DB	065H
	DB	020H
	DB	070H
	DB	061H
	DB	074H
	DB	068H
	DB	020H
	DB	074H
	DB	06fH
	DB	020H
	DB	074H
	DB	068H
	DB	065H
	DB	0aH
	DB	020H
	DB	020H
	DB	020H
	DB	020H
	DB	02eH
	DB	070H
	DB	079H
	DB	063H
	DB	02fH
	DB	02eH
	DB	070H
	DB	079H
	DB	06fH
	DB	020H
	DB	066H
	DB	069H
	DB	06cH
	DB	065H
	DB	020H
	DB	063H
	DB	061H
	DB	06cH
	DB	063H
	DB	075H
	DB	06cH
	DB	061H
	DB	074H
	DB	065H
	DB	064H
	DB	020H
	DB	061H
	DB	073H
	DB	020H
	DB	069H
	DB	066H
	DB	020H
	DB	074H
	DB	068H
	DB	065H
	DB	020H
	DB	02eH
	DB	070H
	DB	079H
	DB	020H
	DB	066H
	DB	069H
	DB	06cH
	DB	065H
	DB	020H
	DB	077H
	DB	065H
	DB	072H
	DB	065H
	DB	020H
	DB	069H
	DB	06dH
	DB	070H
	DB	06fH
	DB	072H
	DB	074H
	DB	065H
	DB	064H
	DB	02eH
	DB	020H
	DB	020H
	DB	054H
	DB	068H
	DB	065H
	DB	020H
	DB	065H
	DB	078H
	DB	074H
	DB	065H
	DB	06eH
	DB	073H
	DB	069H
	DB	06fH
	DB	06eH
	DB	0aH
	DB	020H
	DB	020H
	DB	020H
	DB	020H
	DB	077H
	DB	069H
	DB	06cH
	DB	06cH
	DB	020H
	DB	062H
	DB	065H
	DB	020H
	DB	02eH
	DB	070H
	DB	079H
	DB	063H
	DB	020H
	DB	075H
	DB	06eH
	DB	06cH
	DB	065H
	DB	073H
	DB	073H
	DB	020H
	DB	073H
	DB	079H
	DB	073H
	DB	02eH
	DB	066H
	DB	06cH
	DB	061H
	DB	067H
	DB	073H
	DB	02eH
	DB	06fH
	DB	070H
	DB	074H
	DB	069H
	DB	06dH
	DB	069H
	DB	07aH
	DB	065H
	DB	020H
	DB	069H
	DB	073H
	DB	020H
	DB	06eH
	DB	06fH
	DB	06eH
	DB	02dH
	DB	07aH
	DB	065H
	DB	072H
	DB	06fH
	DB	02cH
	DB	020H
	DB	074H
	DB	068H
	DB	065H
	DB	06eH
	DB	020H
	DB	069H
	DB	074H
	DB	020H
	DB	077H
	DB	069H
	DB	06cH
	DB	06cH
	DB	020H
	DB	062H
	DB	065H
	DB	020H
	DB	02eH
	DB	070H
	DB	079H
	DB	06fH
	DB	02eH
	DB	0aH
	DB	0aH
	DB	020H
	DB	020H
	DB	020H
	DB	020H
	DB	049H
	DB	066H
	DB	020H
	DB	064H
	DB	065H
	DB	062H
	DB	075H
	DB	067H
	DB	05fH
	DB	06fH
	DB	076H
	DB	065H
	DB	072H
	DB	072H
	DB	069H
	DB	064H
	DB	065H
	DB	020H
	DB	069H
	DB	073H
	DB	020H
	DB	06eH
	DB	06fH
	DB	074H
	DB	020H
	DB	04eH
	DB	06fH
	DB	06eH
	DB	065H
	DB	02cH
	DB	020H
	DB	074H
	DB	068H
	DB	065H
	DB	06eH
	DB	020H
	DB	069H
	DB	074H
	DB	020H
	DB	06dH
	DB	075H
	DB	073H
	DB	074H
	DB	020H
	DB	062H
	DB	065H
	DB	020H
	DB	061H
	DB	020H
	DB	062H
	DB	06fH
	DB	06fH
	DB	06cH
	DB	065H
	DB	061H
	DB	06eH
	DB	020H
	DB	061H
	DB	06eH
	DB	064H
	DB	020H
	DB	069H
	DB	073H
	DB	020H
	DB	075H
	DB	073H
	DB	065H
	DB	064H
	DB	020H
	DB	069H
	DB	06eH
	DB	0aH
	DB	020H
	DB	020H
	DB	020H
	DB	020H
	DB	070H
	DB	06cH
	DB	061H
	DB	063H
	DB	065H
	DB	020H
	DB	06fH
	DB	066H
	DB	020H
	DB	073H
	DB	079H
	DB	073H
	DB	02eH
	DB	066H
	DB	06cH
	DB	061H
	DB	067H
	DB	073H
	DB	02eH
	DB	06fH
	DB	070H
	DB	074H
	DB	069H
	DB	06dH
	DB	069H
	DB	07aH
	DB	065H
	DB	02eH
	DB	0aH
	DB	0aH
	DB	020H
	DB	020H
	DB	020H
	DB	020H
	DB	049H
	DB	066H
	DB	020H
	DB	073H
	DB	079H
	DB	073H
	DB	02eH
	DB	069H
	DB	06dH
	DB	070H
	DB	06cH
	DB	065H
	DB	06dH
	DB	065H
	DB	06eH
	DB	074H
	DB	061H
	DB	074H
	DB	069H
	DB	06fH
	DB	06eH
	DB	02eH
	DB	063H
	DB	061H
	DB	063H
	DB	068H
	DB	065H
	DB	05fH
	DB	074H
	DB	061H
	DB	067H
	DB	020H
	DB	069H
	DB	073H
	DB	020H
	DB	04eH
	DB	06fH
	DB	06eH
	DB	065H
	DB	020H
	DB	074H
	DB	068H
	DB	065H
	DB	06eH
	DB	020H
	DB	04eH
	DB	06fH
	DB	074H
	DB	049H
	DB	06dH
	DB	070H
	DB	06cH
	DB	065H
	DB	06dH
	DB	065H
	DB	06eH
	DB	074H
	DB	065H
	DB	064H
	DB	045H
	DB	072H
	DB	072H
	DB	06fH
	DB	072H
	DB	020H
	DB	069H
	DB	073H
	DB	020H
	DB	072H
	DB	061H
	DB	069H
	DB	073H
	DB	065H
	DB	064H
	DB	02eH
	DB	0aH
	DB	0aH
	DB	020H
	DB	020H
	DB	020H
	DB	020H
	DB	075H
	DB	01H
	DB	00H
	DB	00H
	DB	00H
	DB	02eH
	DB	075H
	DB	024H
	DB	00H
	DB	00H
	DB	00H
	DB	073H
	DB	079H
	DB	073H
	DB	02eH
	DB	069H
	DB	06dH
	DB	070H
	DB	06cH
	DB	065H
	DB	06dH
	DB	065H
	DB	06eH
	DB	074H
	DB	061H
	DB	074H
	DB	069H
	DB	06fH
	DB	06eH
	DB	02eH
	DB	063H
	DB	061H
	DB	063H
	DB	068H
	DB	065H
	DB	05fH
	DB	074H
	DB	061H
	DB	067H
	DB	020H
	DB	069H
	DB	073H
	DB	020H
	DB	04eH
	DB	06fH
	DB	06eH
	DB	065H
	DB	075H
	DB	00H
	DB	00H
	DB	00H
	DB	00H
	DB	069H
	DB	00H
	DB	00H
	DB	00H
	DB	00H
	DB	04eH
	DB	028H
	DB	0eH
	DB	00H
	DB	00H
	DB	00H
	DB	075H
	DB	04H
	DB	00H
	DB	00H
	DB	00H
	DB	04eH
	DB	06fH
	DB	06eH
	DB	065H
	DB	075H
	DB	03H
	DB	00H
	DB	00H
	DB	00H
	DB	073H
	DB	079H
	DB	073H
	DB	075H
	DB	05H
	DB	00H
	DB	00H
	DB	00H
	DB	066H
	DB	06cH
	DB	061H
	DB	067H
	DB	073H
	DB	075H
	DB	08H
	DB	00H
	DB	00H
	DB	00H
	DB	06fH
	DB	070H
	DB	074H
	DB	069H
	DB	06dH
	DB	069H
	DB	07aH
	DB	065H
	DB	075H
	DB	017H
	DB	00H
	DB	00H
	DB	00H
	DB	044H
	DB	045H
	DB	042H
	DB	055H
	DB	047H
	DB	05fH
	DB	042H
	DB	059H
	DB	054H
	DB	045H
	DB	043H
	DB	04fH
	DB	044H
	DB	045H
	DB	05fH
	DB	053H
	DB	055H
	DB	046H
	DB	046H
	DB	049H
	DB	058H
	DB	045H
	DB	053H
	DB	075H
	DB	01bH
	DB	00H
	DB	00H
	DB	00H
	DB	04fH
	DB	050H
	DB	054H
	DB	049H
	DB	04dH
	DB	049H
	DB	05aH
	DB	045H
	DB	044H
	DB	05fH
	DB	042H
	DB	059H
	DB	054H
	DB	045H
	DB	043H
	DB	04fH
	DB	044H
	DB	045H
	DB	05fH
	DB	053H
	DB	055H
	DB	046H
	DB	046H
	DB	049H
	DB	058H
	DB	045H
	DB	053H
	DB	075H
	DB	0bH
	DB	00H
	DB	00H
	DB	00H
	DB	05fH
	DB	070H
	DB	061H
	DB	074H
	DB	068H
	DB	05fH
	DB	073H
	DB	070H
	DB	06cH
	DB	069H
	DB	074H
	DB	075H
	DB	09H
	DB	00H
	DB	00H
	DB	00H
	DB	070H
	DB	061H
	DB	072H
	DB	074H
	DB	069H
	DB	074H
	DB	069H
	DB	06fH
	DB	06eH
	DB	075H
	DB	0eH
	DB	00H
	DB	00H
	DB	00H
	DB	069H
	DB	06dH
	DB	070H
	DB	06cH
	DB	065H
	DB	06dH
	DB	065H
	DB	06eH
	DB	074H
	DB	061H
	DB	074H
	DB	069H
	DB	06fH
	DB	06eH
	DB	075H
	DB	09H
	DB	00H
	DB	00H
	DB	00H
	DB	063H
	DB	061H
	DB	063H
	DB	068H
	DB	065H
	DB	05fH
	DB	074H
	DB	061H
	DB	067H
	DB	075H
	DB	013H
	DB	00H
	DB	00H
	DB	00H
	DB	04eH
	DB	06fH
	DB	074H
	DB	049H
	DB	06dH
	DB	070H
	DB	06cH
	DB	065H
	DB	06dH
	DB	065H
	DB	06eH
	DB	074H
	DB	065H
	DB	064H
	DB	045H
	DB	072H
	DB	072H
	DB	06fH
	DB	072H
	DB	075H
	DB	04H
	DB	00H
	DB	00H
	DB	00H
	DB	06aH
	DB	06fH
	DB	069H
	DB	06eH
	DB	075H
	DB	0aH
	DB	00H
	DB	00H
	DB	00H
	DB	05fH
	DB	070H
	DB	061H
	DB	074H
	DB	068H
	DB	05fH
	DB	06aH
	DB	06fH
	DB	069H
	DB	06eH
	DB	075H
	DB	08H
	DB	00H
	DB	00H
	DB	00H
	DB	05fH
	DB	050H
	DB	059H
	DB	043H
	DB	041H
	DB	043H
	DB	048H
	DB	045H
	DB	028H
	DB	0bH
	DB	00H
	DB	00H
	DB	00H
	DB	075H
	DB	04H
	DB	00H
	DB	00H
	DB	00H
	DB	070H
	DB	061H
	DB	074H
	DB	068H
	DB	075H
	DB	0eH
	DB	00H
	DB	00H
	DB	00H
	DB	064H
	DB	065H
	DB	062H
	DB	075H
	DB	067H
	DB	05fH
	DB	06fH
	DB	076H
	DB	065H
	DB	072H
	DB	072H
	DB	069H
	DB	064H
	DB	065H
	DB	075H
	DB	05H
	DB	00H
	DB	00H
	DB	00H
	DB	064H
	DB	065H
	DB	062H
	DB	075H
	DB	067H
	DB	075H
	DB	08H
	DB	00H
	DB	00H
	DB	00H
	DB	073H
	DB	075H
	DB	066H
	DB	066H
	DB	069H
	DB	078H
	DB	065H
	DB	073H
	DB	075H
	DB	04H
	DB	00H
	DB	00H
	DB	00H
	DB	068H
	DB	065H
	DB	061H
	DB	064H
	DB	075H
	DB	04H
	DB	00H
	DB	00H
	DB	00H
	DB	074H
	DB	061H
	DB	069H
	DB	06cH
	DB	075H
	DB	0dH
	DB	00H
	DB	00H
	DB	00H
	DB	062H
	DB	061H
	DB	073H
	DB	065H
	DB	05fH
	DB	066H
	DB	069H
	DB	06cH
	DB	065H
	DB	06eH
	DB	061H
	DB	06dH
	DB	065H
	DB	075H
	DB	03H
	DB	00H
	DB	00H
	DB	00H
	DB	073H
	DB	065H
	DB	070H
	DB	075H
	DB	01H
	DB	00H
	DB	00H
	DB	00H
	DB	05fH
	DB	075H
	DB	03H
	DB	00H
	DB	00H
	DB	00H
	DB	074H
	DB	061H
	DB	067H
	DB	075H
	DB	08H
	DB	00H
	DB	00H
	DB	00H
	DB	066H
	DB	069H
	DB	06cH
	DB	065H
	DB	06eH
	DB	061H
	DB	06dH
	DB	065H
	DB	028H
	DB	00H
	DB	00H
	DB	00H
	DB	00H
	DB	028H
	DB	00H
	DB	00H
	DB	00H
	DB	00H
	DB	075H
	DB	01dH
	DB	00H
	DB	00H
	DB	00H
	DB	03cH
	DB	066H
	DB	072H
	DB	06fH
	DB	07aH
	DB	065H
	DB	06eH
	DB	020H
	DB	069H
	DB	06dH
	DB	070H
	DB	06fH
	DB	072H
	DB	074H
	DB	06cH
	DB	069H
	DB	062H
	DB	02eH
	DB	05fH
	DB	062H
	DB	06fH
	DB	06fH
	DB	074H
	DB	073H
	DB	074H
	DB	072H
	DB	061H
	DB	070H
	DB	03eH
	DB	075H
	DB	011H
	DB	00H
	DB	00H
	DB	00H
	DB	063H
	DB	061H
	DB	063H
	DB	068H
	DB	065H
	DB	05fH
	DB	066H
	DB	072H
	DB	06fH
	DB	06dH
	DB	05fH
	DB	073H
	DB	06fH
	DB	075H
	DB	072H
	DB	063H
	DB	065H
	DB	09fH
	DB	01H
	DB	00H
	DB	00H
	DB	073H
	DB	016H
	DB	00H
	DB	00H
	DB	00H
	DB	00H
	DB	0dH
	DB	01fH
	DB	01H
	DB	06H
	DB	01H
	DB	09H
	DB	02H
	DB	06H
	DB	01H
	DB	012H
	DB	01H
	DB	018H
	DB	01H
	DB	0cH
	DB	01H
	DB	0cH
	DB	01H
	DB	0fH
	DB	01H
	DB	01fH
	DB	01H
	DB	075H
	DB	011H
	DB	00H
	DB	00H
	DB	00H
	DB	063H
	DB	061H
	DB	063H
	DB	068H
	DB	065H
	DB	05fH
	DB	066H
	DB	072H
	DB	06fH
	DB	06dH
	DB	05fH
	DB	073H
	DB	06fH
	DB	075H
	DB	072H
	DB	063H
	DB	065H
	DB	063H
	DB	01H
	DB	00H
	DB	00H
	DB	00H
	DB	00H
	DB	00H
	DB	00H
	DB	00H
	DB	05H
	DB	00H
	DB	00H
	DB	00H
	DB	05H
	DB	00H
	DB	00H
	DB	00H
	DB	043H
	DB	00H
	DB	00H
	DB	00H
	DB	073H
	DB	0c1H
	DB	00H
	DB	00H
	DB	00H
	DB	074H
	DB	00H
	DB	00H
	DB	06aH
	DB	01H
	DB	00H
	DB	06aH
	DB	02H
	DB	00H
	DB	064H
	DB	07H
	DB	00H
	DB	06bH
	DB	08H
	DB	00H
	DB	072H
	DB	021H
	DB	00H
	DB	074H
	DB	04H
	DB	00H
	DB	064H
	DB	01H
	DB	00H
	DB	083H
	DB	01H
	DB	00H
	DB	082H
	DB	01H
	DB	00H
	DB	06eH
	DB	00H
	DB	00H
	DB	074H
	DB	05H
	DB	00H
	DB	07cH
	DB	00H
	DB	00H
	DB	083H
	DB	01H
	DB	00H
	DB	05cH
	DB	02H
	DB	00H
	DB	07dH
	DB	01H
	DB	00H
	DB	07dH
	DB	02H
	DB	00H
	DB	074H
	DB	05H
	DB	00H
	DB	07cH
	DB	01H
	DB	00H
	DB	083H
	DB	01H
	DB	00H
	DB	05cH
	DB	02H
	DB	00H
	DB	07dH
	DB	01H
	DB	00H
	DB	07dH
	DB	03H
	DB	00H
	DB	07cH
	DB	03H
	DB	00H
	DB	074H
	DB	06H
	DB	00H
	DB	06bH
	DB	03H
	DB	00H
	DB	072H
	DB	06cH
	DB	00H
	DB	074H
	DB	07H
	DB	00H
	DB	064H
	DB	02H
	DB	00H
	DB	06aH
	DB	08H
	DB	00H
	DB	074H
	DB	06H
	DB	00H
	DB	07cH
	DB	00H
	DB	00H
	DB	083H
	DB	02H
	DB	00H
	DB	083H
	DB	01H
	DB	00H
	DB	082H
	DB	01H
	DB	00H
	DB	06eH
	DB	00H
	DB	00H
	DB	07cH
	DB	02H
	DB	00H
	DB	06aH
	DB	09H
	DB	00H
	DB	064H
	DB	03H
	DB	00H
	DB	083H
	DB	01H
	DB	00H
	DB	064H
	DB	04H
	DB	00H
	DB	06bH
	DB	03H
	DB	00H
	DB	072H
	DB	099H
	DB	00H
	DB	074H
	DB	07H
	DB	00H
	DB	064H
	DB	05H
	DB	00H
	DB	06aH
	DB	08H
	DB	00H
	DB	07cH
	DB	02H
	DB	00H
	DB	083H
	DB	01H
	DB	00H
	DB	083H
	DB	01H
	DB	00H
	DB	082H
	DB	01H
	DB	00H
	DB	06eH
	DB	00H
	DB	00H
	DB	07cH
	DB	02H
	DB	00H
	DB	06aH
	DB	0aH
	DB	00H
	DB	064H
	DB	03H
	DB	00H
	DB	083H
	DB	01H
	DB	00H
	DB	064H
	DB	06H
	DB	00H
	DB	019H
	DB	07dH
	DB	04H
	DB	00H
	DB	074H
	DB	0bH
	DB	00H
	DB	07cH
	DB	01H
	DB	00H
	DB	07cH
	DB	04H
	DB	00H
	DB	074H
	DB	0cH
	DB	00H
	DB	064H
	DB	06H
	DB	00H
	DB	019H
	DB	017H
	DB	083H
	DB	02H
	DB	00H
	DB	053H
	DB	028H
	DB	08H
	DB	00H
	DB	00H
	DB	00H
	DB	075H
	DB	079H
	DB	01H
	DB	00H
	DB	00H
	DB	047H
	DB	069H
	DB	076H
	DB	065H
	DB	06eH
	DB	020H
	DB	074H
	DB	068H
	DB	065H
	DB	020H
	DB	070H
	DB	061H
	DB	074H
	DB	068H
	DB	020H
	DB	074H
	DB	06fH
	DB	020H
	DB	061H
	DB	020H
	DB	02eH
	DB	070H
	DB	079H
	DB	063H
	DB	02eH
	DB	02fH
	DB	02eH
	DB	070H
	DB	079H
	DB	06fH
	DB	020H
	DB	066H
	DB	069H
	DB	06cH
	DB	065H
	DB	02cH
	DB	020H
	DB	072H
	DB	065H
	DB	074H
	DB	075H
	DB	072H
	DB	06eH
	DB	020H
	DB	074H
	DB	068H
	DB	065H
	DB	020H
	DB	070H
	DB	061H
	DB	074H
	DB	068H
	DB	020H
	DB	074H
	DB	06fH
	DB	020H
	DB	069H
	DB	074H
	DB	073H
	DB	020H
	DB	02eH
	DB	070H
	DB	079H
	DB	020H
	DB	066H
	DB	069H
	DB	06cH
	DB	065H
	DB	02eH
	DB	0aH
	DB	0aH
	DB	020H
	DB	020H
	DB	020H
	DB	020H
	DB	054H
	DB	068H
	DB	065H
	DB	020H
	DB	02eH
	DB	070H
	DB	079H
	DB	063H
	DB	02fH
	DB	02eH
	DB	070H
	DB	079H
	DB	06fH
	DB	020H
	DB	066H
	DB	069H
	DB	06cH
	DB	065H
	DB	020H
	DB	064H
	DB	06fH
	DB	065H
	DB	073H
	DB	020H
	DB	06eH
	DB	06fH
	DB	074H
	DB	020H
	DB	06eH
	DB	065H
	DB	065H
	DB	064H
	DB	020H
	DB	074H
	DB	06fH
	DB	020H
	DB	065H
	DB	078H
	DB	069H
	DB	073H
	DB	074H
	DB	03bH
	DB	020H
	DB	074H
	DB	068H
	DB	069H
	DB	073H
	DB	020H
	DB	073H
	DB	069H
	DB	06dH
	DB	070H
	DB	06cH
	DB	079H
	DB	020H
	DB	072H
	DB	065H
	DB	074H
	DB	075H
	DB	072H
	DB	06eH
	DB	073H
	DB	020H
	DB	074H
	DB	068H
	DB	065H
	DB	020H
	DB	070H
	DB	061H
	DB	074H
	DB	068H
	DB	020H
	DB	074H
	DB	06fH
	DB	0aH
	DB	020H
	DB	020H
	DB	020H
	DB	020H
	DB	074H
	DB	068H
	DB	065H
	DB	020H
	DB	02eH
	DB	070H
	DB	079H
	DB	020H
	DB	066H
	DB	069H
	DB	06cH
	DB	065H
	DB	020H
	DB	063H
	DB	061H
	DB	06cH
	DB	063H
	DB	075H
	DB	06cH
	DB	061H
	DB	074H
	DB	065H
	DB	064H
	DB	020H
	DB	074H
	DB	06fH
	DB	020H
	DB	063H
	DB	06fH
	DB	072H
	DB	072H
	DB	065H
	DB	073H
	DB	070H
	DB	06fH
	DB	06eH
	DB	064H
	DB	020H
	DB	074H
	DB	06fH
	DB	020H
	DB	074H
	DB	068H
	DB	065H
	DB	020H
	DB	02eH
	DB	070H
	DB	079H
	DB	063H
	DB	02fH
	DB	02eH
	DB	070H
	DB	079H
	DB	06fH
	DB	020H
	DB	066H
	DB	069H
	DB	06cH
	DB	065H
	DB	02eH
	DB	020H
	DB	020H
	DB	049H
	DB	066H
	DB	020H
	DB	070H
	DB	061H
	DB	074H
	DB	068H
	DB	020H
	DB	064H
	DB	06fH
	DB	065H
	DB	073H
	DB	0aH
	DB	020H
	DB	020H
	DB	020H
	DB	020H
	DB	06eH
	DB	06fH
	DB	074H
	DB	020H
	DB	063H
	DB	06fH
	DB	06eH
	DB	066H
	DB	06fH
	DB	072H
	DB	06dH
	DB	020H
	DB	074H
	DB	06fH
	DB	020H
	DB	050H
	DB	045H
	DB	050H
	DB	020H
	DB	033H
	DB	031H
	DB	034H
	DB	037H
	DB	020H
	DB	066H
	DB	06fH
	DB	072H
	DB	06dH
	DB	061H
	DB	074H
	DB	02cH
	DB	020H
	DB	056H
	DB	061H
	DB	06cH
	DB	075H
	DB	065H
	DB	045H
	DB	072H
	DB	072H
	DB	06fH
	DB	072H
	DB	020H
	DB	077H
	DB	069H
	DB	06cH
	DB	06cH
	DB	020H
	DB	062H
	DB	065H
	DB	020H
	DB	072H
	DB	061H
	DB	069H
	DB	073H
	DB	065H
	DB	064H
	DB	02eH
	DB	020H
	DB	049H
	DB	066H
	DB	0aH
	DB	020H
	DB	020H
	DB	020H
	DB	020H
	DB	073H
	DB	079H
	DB	073H
	DB	02eH
	DB	069H
	DB	06dH
	DB	070H
	DB	06cH
	DB	065H
	DB	06dH
	DB	065H
	DB	06eH
	DB	074H
	DB	061H
	DB	074H
	DB	069H
	DB	06fH
	DB	06eH
	DB	02eH
	DB	063H
	DB	061H
	DB	063H
	DB	068H
	DB	065H
	DB	05fH
	DB	074H
	DB	061H
	DB	067H
	DB	020H
	DB	069H
	DB	073H
	DB	020H
	DB	04eH
	DB	06fH
	DB	06eH
	DB	065H
	DB	020H
	DB	074H
	DB	068H
	DB	065H
	DB	06eH
	DB	020H
	DB	04eH
	DB	06fH
	DB	074H
	DB	049H
	DB	06dH
	DB	070H
	DB	06cH
	DB	065H
	DB	06dH
	DB	065H
	DB	06eH
	DB	074H
	DB	065H
	DB	064H
	DB	045H
	DB	072H
	DB	072H
	DB	06fH
	DB	072H
	DB	020H
	DB	069H
	DB	073H
	DB	020H
	DB	072H
	DB	061H
	DB	069H
	DB	073H
	DB	065H
	DB	064H
	DB	02eH
	DB	0aH
	DB	0aH
	DB	020H
	DB	020H
	DB	020H
	DB	020H
	DB	075H
	DB	024H
	DB	00H
	DB	00H
	DB	00H
	DB	073H
	DB	079H
	DB	073H
	DB	02eH
	DB	069H
	DB	06dH
	DB	070H
	DB	06cH
	DB	065H
	DB	06dH
	DB	065H
	DB	06eH
	DB	074H
	DB	061H
	DB	074H
	DB	069H
	DB	06fH
	DB	06eH
	DB	02eH
	DB	063H
	DB	061H
	DB	063H
	DB	068H
	DB	065H
	DB	05fH
	DB	074H
	DB	061H
	DB	067H
	DB	020H
	DB	069H
	DB	073H
	DB	020H
	DB	04eH
	DB	06fH
	DB	06eH
	DB	065H
	DB	075H
	DB	025H
	DB	00H
	DB	00H
	DB	00H
	DB	07bH
	DB	07dH
	DB	020H
	DB	06eH
	DB	06fH
	DB	074H
	DB	020H
	DB	062H
	DB	06fH
	DB	074H
	DB	074H
	DB	06fH
	DB	06dH
	DB	02dH
	DB	06cH
	DB	065H
	DB	076H
	DB	065H
	DB	06cH
	DB	020H
	DB	064H
	DB	069H
	DB	072H
	DB	065H
	DB	063H
	DB	074H
	DB	06fH
	DB	072H
	DB	079H
	DB	020H
	DB	069H
	DB	06eH
	DB	020H
	DB	07bH
	DB	021H
	DB	072H
	DB	07dH
	DB	075H
	DB	01H
	DB	00H
	DB	00H
	DB	00H
	DB	02eH
	DB	069H
	DB	02H
	DB	00H
	DB	00H
	DB	00H
	DB	075H
	DB	01cH
	DB	00H
	DB	00H
	DB	00H
	DB	065H
	DB	078H
	DB	070H
	DB	065H
	DB	063H
	DB	074H
	DB	065H
	DB	064H
	DB	020H
	DB	06fH
	DB	06eH
	DB	06cH
	DB	079H
	DB	020H
	DB	032H
	DB	020H
	DB	064H
	DB	06fH
	DB	074H
	DB	073H
	DB	020H
	DB	069H
	DB	06eH
	DB	020H
	DB	07bH
	DB	021H
	DB	072H
	DB	07dH
	DB	069H
	DB	00H
	DB	00H
	DB	00H
	DB	00H
	DB	04eH
	DB	028H
	DB	0dH
	DB	00H
	DB	00H
	DB	00H
	DB	075H
	DB	03H
	DB	00H
	DB	00H
	DB	00H
	DB	073H
	DB	079H
	DB	073H
	DB	075H
	DB	0eH
	DB	00H
	DB	00H
	DB	00H
	DB	069H
	DB	06dH
	DB	070H
	DB	06cH
	DB	065H
	DB	06dH
	DB	065H
	DB	06eH
	DB	074H
	DB	061H
	DB	074H
	DB	069H
	DB	06fH
	DB	06eH
	DB	075H
	DB	09H
	DB	00H
	DB	00H
	DB	00H
	DB	063H
	DB	061H
	DB	063H
	DB	068H
	DB	065H
	DB	05fH
	DB	074H
	DB	061H
	DB	067H
	DB	075H
	DB	04H
	DB	00H
	DB	00H
	DB	00H
	DB	04eH
	DB	06fH
	DB	06eH
	DB	065H
	DB	075H
	DB	013H
	DB	00H
	DB	00H
	DB	00H
	DB	04eH
	DB	06fH
	DB	074H
	DB	049H
	DB	06dH
	DB	070H
	DB	06cH
	DB	065H
	DB	06dH
	DB	065H
	DB	06eH
	DB	074H
	DB	065H
	DB	064H
	DB	045H
	DB	072H
	DB	072H
	DB	06fH
	DB	072H
	DB	075H
	DB	0bH
	DB	00H
	DB	00H
	DB	00H
	DB	05fH
	DB	070H
	DB	061H
	DB	074H
	DB	068H
	DB	05fH
	DB	073H
	DB	070H
	DB	06cH
	DB	069H
	DB	074H
	DB	075H
	DB	08H
	DB	00H
	DB	00H
	DB	00H
	DB	05fH
	DB	050H
	DB	059H
	DB	043H
	DB	041H
	DB	043H
	DB	048H
	DB	045H
	DB	075H
	DB	0aH
	DB	00H
	DB	00H
	DB	00H
	DB	056H
	DB	061H
	DB	06cH
	DB	075H
	DB	065H
	DB	045H
	DB	072H
	DB	072H
	DB	06fH
	DB	072H
	DB	075H
	DB	06H
	DB	00H
	DB	00H
	DB	00H
	DB	066H
	DB	06fH
	DB	072H
	DB	06dH
	DB	061H
	DB	074H
	DB	075H
	DB	05H
	DB	00H
	DB	00H
	DB	00H
	DB	063H
	DB	06fH
	DB	075H
	DB	06eH
	DB	074H
	DB	075H
	DB	09H
	DB	00H
	DB	00H
	DB	00H
	DB	070H
	DB	061H
	DB	072H
	DB	074H
	DB	069H
	DB	074H
	DB	069H
	DB	06fH
	DB	06eH
	DB	075H
	DB	0aH
	DB	00H
	DB	00H
	DB	00H
	DB	05fH
	DB	070H
	DB	061H
	DB	074H
	DB	068H
	DB	05fH
	DB	06aH
	DB	06fH
	DB	069H
	DB	06eH
	DB	075H
	DB	0fH
	DB	00H
	DB	00H
	DB	00H
	DB	053H
	DB	04fH
	DB	055H
	DB	052H
	DB	043H
	DB	045H
	DB	05fH
	DB	053H
	DB	055H
	DB	046H
	DB	046H
	DB	049H
	DB	058H
	DB	045H
	DB	053H
	DB	028H
	DB	05H
	DB	00H
	DB	00H
	DB	00H
	DB	075H
	DB	04H
	DB	00H
	DB	00H
	DB	00H
	DB	070H
	DB	061H
	DB	074H
	DB	068H
	DB	075H
	DB	04H
	DB	00H
	DB	00H
	DB	00H
	DB	068H
	DB	065H
	DB	061H
	DB	064H
	DB	075H
	DB	010H
	DB	00H
	DB	00H
	DB	00H
	DB	070H
	DB	079H
	DB	063H
	DB	061H
	DB	063H
	DB	068H
	DB	065H
	DB	05fH
	DB	066H
	DB	069H
	DB	06cH
	DB	065H
	DB	06eH
	DB	061H
	DB	06dH
	DB	065H
	DB	075H
	DB	07H
	DB	00H
	DB	00H
	DB	00H
	DB	070H
	DB	079H
	DB	063H
	DB	061H
	DB	063H
	DB	068H
	DB	065H
	DB	075H
	DB	0dH
	DB	00H
	DB	00H
	DB	00H
	DB	062H
	DB	061H
	DB	073H
	DB	065H
	DB	05fH
	DB	066H
	DB	069H
	DB	06cH
	DB	065H
	DB	06eH
	DB	061H
	DB	06dH
	DB	065H
	DB	028H
	DB	00H
	DB	00H
	DB	00H
	DB	00H
	DB	028H
	DB	00H
	DB	00H
	DB	00H
	DB	00H
	DB	075H
	DB	01dH
	DB	00H
	DB	00H
	DB	00H
	DB	03cH
	DB	066H
	DB	072H
	DB	06fH
	DB	07aH
	DB	065H
	DB	06eH
	DB	020H
	DB	069H
	DB	06dH
	DB	070H
	DB	06fH
	DB	072H
	DB	074H
	DB	06cH
	DB	069H
	DB	062H
	DB	02eH
	DB	05fH
	DB	062H
	DB	06fH
	DB	06fH
	DB	074H
	DB	073H
	DB	074H
	DB	072H
	DB	061H
	DB	070H
	DB	03eH
	DB	075H
	DB	011H
	DB	00H
	DB	00H
	DB	00H
	DB	073H
	DB	06fH
	DB	075H
	DB	072H
	DB	063H
	DB	065H
	DB	05fH
	DB	066H
	DB	072H
	DB	06fH
	DB	06dH
	DB	05fH
	DB	063H
	DB	061H
	DB	063H
	DB	068H
	DB	065H
	DB	0baH
	DB	01H
	DB	00H
	DB	00H
	DB	073H
	DB	018H
	DB	00H
	DB	00H
	DB	00H
	DB	00H
	DB	09H
	DB	012H
	DB	01H
	DB	0fH
	DB	01H
	DB	012H
	DB	01H
	DB	012H
	DB	01H
	DB	0cH
	DB	01H
	DB	09H
	DB	01H
	DB	012H
	DB	01H
	DB	015H
	DB	01H
	DB	09H
	DB	01H
	DB	0fH
	DB	01H
	DB	013H
	DB	01H
	DB	075H
	DB	011H
	DB	00H
	DB	00H
	DB	00H
	DB	073H
	DB	06fH
	DB	075H
	DB	072H
	DB	063H
	DB	065H
	DB	05fH
	DB	066H
	DB	072H
	DB	06fH
	DB	06dH
	DB	05fH
	DB	063H
	DB	061H
	DB	063H
	DB	068H
	DB	065H
	DB	063H
	DB	01H
	DB	00H
	DB	00H
	DB	00H
	DB	00H
	DB	00H
	DB	00H
	DB	00H
	DB	05H
	DB	00H
	DB	00H
	DB	00H
	DB	0dH
	DB	00H
	DB	00H
	DB	00H
	DB	043H
	DB	00H
	DB	00H
	DB	00H
	DB	073H
	DB	0a4H
	DB	00H
	DB	00H
	DB	00H
	DB	074H
	DB	00H
	DB	00H
	DB	07cH
	DB	00H
	DB	00H
	DB	083H
	DB	01H
	DB	00H
	DB	064H
	DB	01H
	DB	00H
	DB	06bH
	DB	02H
	DB	00H
	DB	072H
	DB	016H
	DB	00H
	DB	064H
	DB	06H
	DB	00H
	DB	053H
	DB	07cH
	DB	00H
	DB	00H
	DB	06aH
	DB	02H
	DB	00H
	DB	064H
	DB	02H
	DB	00H
	DB	083H
	DB	01H
	DB	00H
	DB	05cH
	DB	03H
	DB	00H
	DB	07dH
	DB	01H
	DB	00H
	DB	07dH
	DB	02H
	DB	00H
	DB	07dH
	DB	03H
	DB	00H
	DB	07cH
	DB	01H
	DB	00H
	DB	0cH
	DB	073H
	DB	051H
	DB	00H
	DB	07cH
	DB	03H
	DB	00H
	DB	06aH
	DB	03H
	DB	00H
	DB	083H
	DB	00H
	DB	00H
	DB	064H
	DB	07H
	DB	00H
	DB	064H
	DB	08H
	DB	00H
	DB	085H
	DB	02H
	DB	00H
	DB	019H
	DB	064H
	DB	05H
	DB	00H
	DB	06bH
	DB	03H
	DB	00H
	DB	072H
	DB	055H
	DB	00H
	DB	07cH
	DB	00H
	DB	00H
	DB	053H
	DB	079H
	DB	010H
	DB	00H
	DB	074H
	DB	04H
	DB	00H
	DB	07cH
	DB	00H
	DB	00H
	DB	083H
	DB	01H
	DB	00H
	DB	07dH
	DB	04H
	DB	00H
	DB	057H
	DB	06eH
	DB	028H
	DB	00H
	DB	04H
	DB	074H
	DB	05H
	DB	00H
	DB	074H
	DB	06H
	DB	00H
	DB	066H
	DB	02H
	DB	00H
	DB	06bH
	DB	0aH
	DB	00H
	DB	072H
	DB	08fH
	DB	00H
	DB	01H
	DB	01H
	DB	01H
	DB	07cH
	DB	00H
	DB	00H
	DB	064H
	DB	06H
	DB	00H
	DB	064H
	DB	09H
	DB	00H
	DB	085H
	DB	02H
	DB	00H
	DB	019H
	DB	07dH
	DB	04H
	DB	00H
	DB	059H
	DB	06eH
	DB	01H
	DB	00H
	DB	058H
	DB	074H
	DB	07H
	DB	00H
	DB	07cH
	DB	04H
	DB	00H
	DB	083H
	DB	01H
	DB	00H
	DB	072H
	DB	0a0H
	DB	00H
	DB	07cH
	DB	04H
	DB	00H
	DB	053H
	DB	07cH
	DB	00H
	DB	00H
	DB	053H
	DB	028H
	DB	0aH
	DB	00H
	DB	00H
	DB	00H
	DB	075H
	DB	0bcH
	DB	00H
	DB	00H
	DB	00H
	DB	043H
	DB	06fH
	DB	06eH
	DB	076H
	DB	065H
	DB	072H
	DB	074H
	DB	020H
	DB	061H
	DB	020H
	DB	062H
	DB	079H
	DB	074H
	DB	065H
	DB	063H
	DB	06fH
	DB	064H
	DB	065H
	DB	020H
	DB	066H
	DB	069H
	DB	06cH
	DB	065H
	DB	020H
	DB	070H
	DB	061H
	DB	074H
	DB	068H
	DB	020H
	DB	074H
	DB	06fH
	DB	020H
	DB	061H
	DB	020H
	DB	073H
	DB	06fH
	DB	075H
	DB	072H
	DB	063H
	DB	065H
	DB	020H
	DB	070H
	DB	061H
	DB	074H
	DB	068H
	DB	020H
	DB	028H
	DB	069H
	DB	066H
	DB	020H
	DB	070H
	DB	06fH
	DB	073H
	DB	073H
	DB	069H
	DB	062H
	DB	06cH
	DB	065H
	DB	029H
	DB	02eH
	DB	0aH
	DB	0aH
	DB	020H
	DB	020H
	DB	020H
	DB	020H
	DB	054H
	DB	068H
	DB	069H
	DB	073H
	DB	020H
	DB	066H
	DB	075H
	DB	06eH
	DB	063H
	DB	074H
	DB	069H
	DB	06fH
	DB	06eH
	DB	020H
	DB	065H
	DB	078H
	DB	069H
	DB	073H
	DB	074H
	DB	073H
	DB	020H
	DB	070H
	DB	075H
	DB	072H
	DB	065H
	DB	06cH
	DB	079H
	DB	020H
	DB	066H
	DB	06fH
	DB	072H
	DB	020H
	DB	062H
	DB	061H
	DB	063H
	DB	06bH
	DB	077H
	DB	061H
	DB	072H
	DB	064H
	DB	073H
	DB	02dH
	DB	063H
	DB	06fH
	DB	06dH
	DB	070H
	DB	061H
	DB	074H
	DB	069H
	DB	062H
	DB	069H
	DB	06cH
	DB	069H
	DB	074H
	DB	079H
	DB	020H
	DB	066H
	DB	06fH
	DB	072H
	DB	0aH
	DB	020H
	DB	020H
	DB	020H
	DB	020H
	DB	050H
	DB	079H
	DB	049H
	DB	06dH
	DB	070H
	DB	06fH
	DB	072H
	DB	074H
	DB	05fH
	DB	045H
	DB	078H
	DB	065H
	DB	063H
	DB	043H
	DB	06fH
	DB	064H
	DB	065H
	DB	04dH
	DB	06fH
	DB	064H
	DB	075H
	DB	06cH
	DB	065H
	DB	057H
	DB	069H
	DB	074H
	DB	068H
	DB	046H
	DB	069H
	DB	06cH
	DB	065H
	DB	06eH
	DB	061H
	DB	06dH
	DB	065H
	DB	073H
	DB	028H
	DB	029H
	DB	020H
	DB	069H
	DB	06eH
	DB	020H
	DB	074H
	DB	068H
	DB	065H
	DB	020H
	DB	043H
	DB	020H
	DB	041H
	DB	050H
	DB	049H
	DB	02eH
	DB	0aH
	DB	0aH
	DB	020H
	DB	020H
	DB	020H
	DB	020H
	DB	069H
	DB	00H
	DB	00H
	DB	00H
	DB	00H
	DB	075H
	DB	01H
	DB	00H
	DB	00H
	DB	00H
	DB	02eH
	DB	069H
	DB	03H
	DB	00H
	DB	00H
	DB	00H
	DB	069H
	DB	01H
	DB	00H
	DB	00H
	DB	00H
	DB	075H
	DB	02H
	DB	00H
	DB	00H
	DB	00H
	DB	070H
	DB	079H
	DB	04eH
	DB	069H
	DB	0fdH
	DB	0ffH
	DB	0ffH
	DB	0ffH
	DB	069H
	DB	0ffH
	DB	0ffH
	DB	0ffH
	DB	0ffH
	DB	069H
	DB	0ffH
	DB	0ffH
	DB	0ffH
	DB	0ffH
	DB	028H
	DB	08H
	DB	00H
	DB	00H
	DB	00H
	DB	075H
	DB	03H
	DB	00H
	DB	00H
	DB	00H
	DB	06cH
	DB	065H
	DB	06eH
	DB	075H
	DB	04H
	DB	00H
	DB	00H
	DB	00H
	DB	04eH
	DB	06fH
	DB	06eH
	DB	065H
	DB	075H
	DB	0aH
	DB	00H
	DB	00H
	DB	00H
	DB	072H
	DB	070H
	DB	061H
	DB	072H
	DB	074H
	DB	069H
	DB	074H
	DB	069H
	DB	06fH
	DB	06eH
	DB	075H
	DB	05H
	DB	00H
	DB	00H
	DB	00H
	DB	06cH
	DB	06fH
	DB	077H
	DB	065H
	DB	072H
	DB	075H
	DB	011H
	DB	00H
	DB	00H
	DB	00H
	DB	073H
	DB	06fH
	DB	075H
	DB	072H
	DB	063H
	DB	065H
	DB	05fH
	DB	066H
	DB	072H
	DB	06fH
	DB	06dH
	DB	05fH
	DB	063H
	DB	061H
	DB	063H
	DB	068H
	DB	065H
	DB	075H
	DB	013H
	DB	00H
	DB	00H
	DB	00H
	DB	04eH
	DB	06fH
	DB	074H
	DB	049H
	DB	06dH
	DB	070H
	DB	06cH
	DB	065H
	DB	06dH
	DB	065H
	DB	06eH
	DB	074H
	DB	065H
	DB	064H
	DB	045H
	DB	072H
	DB	072H
	DB	06fH
	DB	072H
	DB	075H
	DB	0aH
	DB	00H
	DB	00H
	DB	00H
	DB	056H
	DB	061H
	DB	06cH
	DB	075H
	DB	065H
	DB	045H
	DB	072H
	DB	072H
	DB	06fH
	DB	072H
	DB	075H
	DB	0cH
	DB	00H
	DB	00H
	DB	00H
	DB	05fH
	DB	070H
	DB	061H
	DB	074H
	DB	068H
	DB	05fH
	DB	069H
	DB	073H
	DB	066H
	DB	069H
	DB	06cH
	DB	065H
	DB	028H
	DB	05H
	DB	00H
	DB	00H
	DB	00H
	DB	075H
	DB	0dH
	DB	00H
	DB	00H
	DB	00H
	DB	062H
	DB	079H
	DB	074H
	DB	065H
	DB	063H
	DB	06fH
	DB	064H
	DB	065H
	DB	05fH
	DB	070H
	DB	061H
	DB	074H
	DB	068H
	DB	075H
	DB	04H
	DB	00H
	DB	00H
	DB	00H
	DB	072H
	DB	065H
	DB	073H
	DB	074H
	DB	075H
	DB	01H
	DB	00H
	DB	00H
	DB	00H
	DB	05fH
	DB	075H
	DB	09H
	DB	00H
	DB	00H
	DB	00H
	DB	065H
	DB	078H
	DB	074H
	DB	065H
	DB	06eH
	DB	073H
	DB	069H
	DB	06fH
	DB	06eH
	DB	075H
	DB	0bH
	DB	00H
	DB	00H
	DB	00H
	DB	073H
	DB	06fH
	DB	075H
	DB	072H
	DB	063H
	DB	065H
	DB	05fH
	DB	070H
	DB	061H
	DB	074H
	DB	068H
	DB	028H
	DB	00H
	DB	00H
	DB	00H
	DB	00H
	DB	028H
	DB	00H
	DB	00H
	DB	00H
	DB	00H
	DB	075H
	DB	01dH
	DB	00H
	DB	00H
	DB	00H
	DB	03cH
	DB	066H
	DB	072H
	DB	06fH
	DB	07aH
	DB	065H
	DB	06eH
	DB	020H
	DB	069H
	DB	06dH
	DB	070H
	DB	06fH
	DB	072H
	DB	074H
	DB	06cH
	DB	069H
	DB	062H
	DB	02eH
	DB	05fH
	DB	062H
	DB	06fH
	DB	06fH
	DB	074H
	DB	073H
	DB	074H
	DB	072H
	DB	061H
	DB	070H
	DB	03eH
	DB	075H
	DB	0fH
	DB	00H
	DB	00H
	DB	00H
	DB	05fH
	DB	067H
	DB	065H
	DB	074H
	DB	05fH
	DB	073H
	DB	06fH
	DB	075H
	DB	072H
	DB	063H
	DB	065H
	DB	066H
	DB	069H
	DB	06cH
	DB	065H
	DB	0d1H
	DB	01H
	DB	00H
	DB	00H
	DB	073H
	DB	014H
	DB	00H
	DB	00H
	DB	00H
	DB	00H
	DB	07H
	DB	012H
	DB	01H
	DB	04H
	DB	01H
	DB	018H
	DB	01H
	DB	023H
	DB	01H
	DB	04H
	DB	01H
	DB	03H
	DB	01H
	DB	010H
	DB	01H
	DB	013H
	DB	01H
	DB	015H
	DB	01H
	DB	075H
	DB	0fH
	DB	00H
	DB	00H
	DB	00H
	DB	05fH
	DB	067H
	DB	065H
	DB	074H
	DB	05fH
	DB	073H
	DB	06fH
	DB	075H
	DB	072H
	DB	063H
	DB	065H
	DB	066H
	DB	069H
	DB	06cH
	DB	065H
	DB	075H
	DB	09H
	DB	00H
	DB	00H
	DB	00H
	DB	076H
	DB	065H
	DB	072H
	DB	062H
	DB	06fH
	DB	073H
	DB	069H
	DB	074H
	DB	079H
	DB	069H
	DB	01H
	DB	00H
	DB	00H
	DB	00H
	DB	063H
	DB	01H
	DB	00H
	DB	00H
	DB	00H
	DB	01H
	DB	00H
	DB	00H
	DB	00H
	DB	03H
	DB	00H
	DB	00H
	DB	00H
	DB	04H
	DB	00H
	DB	00H
	DB	00H
	DB	047H
	DB	00H
	DB	00H
	DB	00H
	DB	073H
	DB	051H
	DB	00H
	DB	00H
	DB	00H
	DB	074H
	DB	00H
	DB	00H
	DB	06aH
	DB	01H
	DB	00H
	DB	06aH
	DB	02H
	DB	00H
	DB	07cH
	DB	01H
	DB	00H
	DB	06bH
	DB	05H
	DB	00H
	DB	072H
	DB	04dH
	DB	00H
	DB	07cH
	DB	00H
	DB	00H
	DB	06aH
	DB	03H
	DB	00H
	DB	064H
	DB	06H
	DB	00H
	DB	083H
	DB	01H
	DB	00H
	DB	073H
	DB	02eH
	DB	00H
	DB	064H
	DB	03H
	DB	00H
	DB	07cH
	DB	00H
	DB	00H
	DB	017H
	DB	07dH
	DB	00H
	DB	00H
	DB	06eH
	DB	00H
	DB	00H
	DB	074H
	DB	04H
	DB	00H
	DB	07cH
	DB	00H
	DB	00H
	DB	06aH
	DB	05H
	DB	00H
	DB	07cH
	DB	02H
	DB	00H
	DB	08cH
	DB	00H
	DB	00H
	DB	064H
	DB	04H
	DB	00H
	DB	074H
	DB	00H
	DB	00H
	DB	06aH
	DB	06H
	DB	00H
	DB	083H
	DB	01H
	DB	01H
	DB	01H
	DB	06eH
	DB	00H
	DB	00H
	DB	064H
	DB	05H
	DB	00H
	DB	053H
	DB	028H
	DB	07H
	DB	00H
	DB	00H
	DB	00H
	DB	075H
	DB	03dH
	DB	00H
	DB	00H
	DB	00H
	DB	050H
	DB	072H
	DB	069H
	DB	06eH
	DB	074H
	DB	020H
	DB	074H
	DB	068H
	DB	065H
	DB	020H
	DB	06dH
	DB	065H
	DB	073H
	DB	073H
	DB	061H
	DB	067H
	DB	065H
	DB	020H
	DB	074H
	DB	06fH
	DB	020H
	DB	073H
	DB	074H
	DB	064H
	DB	065H
	DB	072H
	DB	072H
	DB	020H
	DB	069H
	DB	066H
	DB	020H
	DB	02dH
	DB	076H
	DB	02fH
	DB	050H
	DB	059H
	DB	054H
	DB	048H
	DB	04fH
	DB	04eH
	DB	056H
	DB	045H
	DB	052H
	DB	042H
	DB	04fH
	DB	053H
	DB	045H
	DB	020H
	DB	069H
	DB	073H
	DB	020H
	DB	074H
	DB	075H
	DB	072H
	DB	06eH
	DB	065H
	DB	064H
	DB	020H
	DB	06fH
	DB	06eH
	DB	02eH
	DB	075H
	DB	01H
	DB	00H
	DB	00H
	DB	00H
	DB	023H
	DB	075H
	DB	07H
	DB	00H
	DB	00H
	DB	00H
	DB	069H
	DB	06dH
	DB	070H
	DB	06fH
	DB	072H
	DB	074H
	DB	020H
	DB	075H
	DB	02H
	DB	00H
	DB	00H
	DB	00H
	DB	023H
	DB	020H
	DB	075H
	DB	04H
	DB	00H
	DB	00H
	DB	00H
	DB	066H
	DB	069H
	DB	06cH
	DB	065H
	DB	04eH
	DB	028H
	DB	02H
	DB	00H
	DB	00H
	DB	00H
	DB	075H
	DB	01H
	DB	00H
	DB	00H
	DB	00H
	DB	023H
	DB	075H
	DB	07H
	DB	00H
	DB	00H
	DB	00H
	DB	069H
	DB	06dH
	DB	070H
	DB	06fH
	DB	072H
	DB	074H
	DB	020H
	DB	028H
	DB	07H
	DB	00H
	DB	00H
	DB	00H
	DB	075H
	DB	03H
	DB	00H
	DB	00H
	DB	00H
	DB	073H
	DB	079H
	DB	073H
	DB	075H
	DB	05H
	DB	00H
	DB	00H
	DB	00H
	DB	066H
	DB	06cH
	DB	061H
	DB	067H
	DB	073H
	DB	075H
	DB	07H
	DB	00H
	DB	00H
	DB	00H
	DB	076H
	DB	065H
	DB	072H
	DB	062H
	DB	06fH
	DB	073H
	DB	065H
	DB	075H
	DB	0aH
	DB	00H
	DB	00H
	DB	00H
	DB	073H
	DB	074H
	DB	061H
	DB	072H
	DB	074H
	DB	073H
	DB	077H
	DB	069H
	DB	074H
	DB	068H
	DB	075H
	DB	05H
	DB	00H
	DB	00H
	DB	00H
	DB	070H
	DB	072H
	DB	069H
	DB	06eH
	DB	074H
	DB	075H
	DB	06H
	DB	00H
	DB	00H
	DB	00H
	DB	066H
	DB	06fH
	DB	072H
	DB	06dH
	DB	061H
	DB	074H
	DB	075H
	DB	06H
	DB	00H
	DB	00H
	DB	00H
	DB	073H
	DB	074H
	DB	064H
	DB	065H
	DB	072H
	DB	072H
	DB	028H
	DB	03H
	DB	00H
	DB	00H
	DB	00H
	DB	075H
	DB	07H
	DB	00H
	DB	00H
	DB	00H
	DB	06dH
	DB	065H
	DB	073H
	DB	073H
	DB	061H
	DB	067H
	DB	065H
	DB	075H
	DB	09H
	DB	00H
	DB	00H
	DB	00H
	DB	076H
	DB	065H
	DB	072H
	DB	062H
	DB	06fH
	DB	073H
	DB	069H
	DB	074H
	DB	079H
	DB	075H
	DB	04H
	DB	00H
	DB	00H
	DB	00H
	DB	061H
	DB	072H
	DB	067H
	DB	073H
	DB	028H
	DB	00H
	DB	00H
	DB	00H
	DB	00H
	DB	028H
	DB	00H
	DB	00H
	DB	00H
	DB	00H
	DB	075H
	DB	01dH
	DB	00H
	DB	00H
	DB	00H
	DB	03cH
	DB	066H
	DB	072H
	DB	06fH
	DB	07aH
	DB	065H
	DB	06eH
	DB	020H
	DB	069H
	DB	06dH
	DB	070H
	DB	06fH
	DB	072H
	DB	074H
	DB	06cH
	DB	069H
	DB	062H
	DB	02eH
	DB	05fH
	DB	062H
	DB	06fH
	DB	06fH
	DB	074H
	DB	073H
	DB	074H
	DB	072H
	DB	061H
	DB	070H
	DB	03eH
	DB	075H
	DB	010H
	DB	00H
	DB	00H
	DB	00H
	DB	05fH
	DB	076H
	DB	065H
	DB	072H
	DB	062H
	DB	06fH
	DB	073H
	DB	065H
	DB	05fH
	DB	06dH
	DB	065H
	DB	073H
	DB	073H
	DB	061H
	DB	067H
	DB	065H
	DB	0e4H
	DB	01H
	DB	00H
	DB	00H
	DB	073H
	DB	08H
	DB	00H
	DB	00H
	DB	00H
	DB	00H
	DB	02H
	DB	012H
	DB	01H
	DB	0fH
	DB	01H
	DB	0dH
	DB	01H
	DB	075H
	DB	010H
	DB	00H
	DB	00H
	DB	00H
	DB	05fH
	DB	076H
	DB	065H
	DB	072H
	DB	062H
	DB	06fH
	DB	073H
	DB	065H
	DB	05fH
	DB	06dH
	DB	065H
	DB	073H
	DB	073H
	DB	061H
	DB	067H
	DB	065H
	DB	063H
	DB	01H
	DB	00H
	DB	00H
	DB	00H
	DB	00H
	DB	00H
	DB	00H
	DB	00H
	DB	02H
	DB	00H
	DB	00H
	DB	00H
	DB	03H
	DB	00H
	DB	00H
	DB	00H
	DB	03H
	DB	00H
	DB	00H
	DB	00H
	DB	073H
	DB	023H
	DB	00H
	DB	00H
	DB	00H
	DB	087H
	DB	00H
	DB	00H
	DB	066H
	DB	01H
	DB	00H
	DB	064H
	DB	01H
	DB	00H
	DB	064H
	DB	02H
	DB	00H
	DB	086H
	DB	00H
	DB	00H
	DB	07dH
	DB	01H
	DB	00H
	DB	074H
	DB	00H
	DB	00H
	DB	07cH
	DB	01H
	DB	00H
	DB	088H
	DB	00H
	DB	00H
	DB	083H
	DB	02H
	DB	00H
	DB	01H
	DB	07cH
	DB	01H
	DB	00H
	DB	053H
	DB	028H
	DB	03H
	DB	00H
	DB	00H
	DB	00H
	DB	075H
	DB	027H
	DB	00H
	DB	00H
	DB	00H
	DB	053H
	DB	065H
	DB	074H
	DB	020H
	DB	05fH
	DB	05fH
	DB	070H
	DB	061H
	DB	063H
	DB	06bH
	DB	061H
	DB	067H
	DB	065H
	DB	05fH
	DB	05fH
	DB	020H
	DB	06fH
	DB	06eH
	DB	020H
	DB	074H
	DB	068H
	DB	065H
	DB	020H
	DB	072H
	DB	065H
	DB	074H
	DB	075H
	DB	072H
	DB	06eH
	DB	065H
	DB	064H
	DB	020H
	DB	06dH
	DB	06fH
	DB	064H
	DB	075H
	DB	06cH
	DB	065H
	DB	02eH
	DB	063H
	DB	00H
	DB	00H
	DB	00H
	DB	00H
	DB	00H
	DB	00H
	DB	00H
	DB	00H
	DB	03H
	DB	00H
	DB	00H
	DB	00H
	DB	04H
	DB	00H
	DB	00H
	DB	00H
	DB	01fH
	DB	00H
	DB	00H
	DB	00H
	DB	073H
	DB	065H
	DB	00H
	DB	00H
	DB	00H
	DB	088H
	DB	00H
	DB	00H
	DB	07cH
	DB	00H
	DB	00H
	DB	07cH
	DB	01H
	DB	00H
	DB	08eH
	DB	00H
	DB	00H
	DB	07dH
	DB	02H
	DB	00H
	DB	074H
	DB	00H
	DB	00H
	DB	07cH
	DB	02H
	DB	00H
	DB	064H
	DB	01H
	DB	00H
	DB	064H
	DB	00H
	DB	00H
	DB	083H
	DB	03H
	DB	00H
	DB	064H
	DB	00H
	DB	00H
	DB	06bH
	DB	08H
	DB	00H
	DB	072H
	DB	061H
	DB	00H
	DB	07cH
	DB	02H
	DB	00H
	DB	06aH
	DB	02H
	DB	00H
	DB	07cH
	DB	02H
	DB	00H
	DB	05fH
	DB	03H
	DB	00H
	DB	074H
	DB	04H
	DB	00H
	DB	07cH
	DB	02H
	DB	00H
	DB	064H
	DB	02H
	DB	00H
	DB	083H
	DB	02H
	DB	00H
	DB	073H
	DB	061H
	DB	00H
	DB	07cH
	DB	02H
	DB	00H
	DB	06aH
	DB	03H
	DB	00H
	DB	06aH
	DB	05H
	DB	00H
	DB	064H
	DB	03H
	DB	00H
	DB	083H
	DB	01H
	DB	00H
	DB	064H
	DB	04H
	DB	00H
	DB	019H
	DB	07cH
	DB	02H
	DB	00H
	DB	05fH
	DB	03H
	DB	00H
	DB	071H
	DB	061H
	DB	00H
	DB	06eH
	DB	00H
	DB	00H
	DB	07cH
	DB	02H
	DB	00H
	DB	053H
	DB	028H
	DB	05H
	DB	00H
	DB	00H
	DB	00H
	DB	04eH
	DB	075H
	DB	0bH
	DB	00H
	DB	00H
	DB	00H
	DB	05fH
	DB	05fH
	DB	070H
	DB	061H
	DB	063H
	DB	06bH
	DB	061H
	DB	067H
	DB	065H
	DB	05fH
	DB	05fH
	DB	075H
	DB	08H
	DB	00H
	DB	00H
	DB	00H
	DB	05fH
	DB	05fH
	DB	070H
	DB	061H
	DB	074H
	DB	068H
	DB	05fH
	DB	05fH
	DB	075H
	DB	01H
	DB	00H
	DB	00H
	DB	00H
	DB	02eH
	DB	069H
	DB	00H
	DB	00H
	DB	00H
	DB	00H
	DB	028H
	DB	06H
	DB	00H
	DB	00H
	DB	00H
	DB	075H
	DB	07H
	DB	00H
	DB	00H
	DB	00H
	DB	067H
	DB	065H
	DB	074H
	DB	061H
	DB	074H
	DB	074H
	DB	072H
	DB	075H
	DB	04H
	DB	00H
	DB	00H
	DB	00H
	DB	04eH
	DB	06fH
	DB	06eH
	DB	065H
	DB	075H
	DB	08H
	DB	00H
	DB	00H
	DB	00H
	DB	05fH
	DB	05fH
	DB	06eH
	DB	061H
	DB	06dH
	DB	065H
	DB	05fH
	DB	05fH
	DB	075H
	DB	0bH
	DB	00H
	DB	00H
	DB	00H
	DB	05fH
	DB	05fH
	DB	070H
	DB	061H
	DB	063H
	DB	06bH
	DB	061H
	DB	067H
	DB	065H
	DB	05fH
	DB	05fH
	DB	075H
	DB	07H
	DB	00H
	DB	00H
	DB	00H
	DB	068H
	DB	061H
	DB	073H
	DB	061H
	DB	074H
	DB	074H
	DB	072H
	DB	075H
	DB	0aH
	DB	00H
	DB	00H
	DB	00H
	DB	072H
	DB	070H
	DB	061H
	DB	072H
	DB	074H
	DB	069H
	DB	074H
	DB	069H
	DB	06fH
	DB	06eH
	DB	028H
	DB	03H
	DB	00H
	DB	00H
	DB	00H
	DB	075H
	DB	04H
	DB	00H
	DB	00H
	DB	00H
	DB	061H
	DB	072H
	DB	067H
	DB	073H
	DB	075H
	DB	06H
	DB	00H
	DB	00H
	DB	00H
	DB	06bH
	DB	077H
	DB	061H
	DB	072H
	DB	067H
	DB	073H
	DB	075H
	DB	06H
	DB	00H
	DB	00H
	DB	00H
	DB	06dH
	DB	06fH
	DB	064H
	DB	075H
	DB	06cH
	DB	065H
	DB	028H
	DB	01H
	DB	00H
	DB	00H
	DB	00H
	DB	075H
	DB	03H
	DB	00H
	DB	00H
	DB	00H
	DB	066H
	DB	078H
	DB	06eH
	DB	028H
	DB	00H
	DB	00H
	DB	00H
	DB	00H
	DB	075H
	DB	01dH
	DB	00H
	DB	00H
	DB	00H
	DB	03cH
	DB	066H
	DB	072H
	DB	06fH
	DB	07aH
	DB	065H
	DB	06eH
	DB	020H
	DB	069H
	DB	06dH
	DB	070H
	DB	06fH
	DB	072H
	DB	074H
	DB	06cH
	DB	069H
	DB	062H
	DB	02eH
	DB	05fH
	DB	062H
	DB	06fH
	DB	06fH
	DB	074H
	DB	073H
	DB	074H
	DB	072H
	DB	061H
	DB	070H
	DB	03eH
	DB	075H
	DB	013H
	DB	00H
	DB	00H
	DB	00H
	DB	073H
	DB	065H
	DB	074H
	DB	05fH
	DB	070H
	DB	061H
	DB	063H
	DB	06bH
	DB	061H
	DB	067H
	DB	065H
	DB	05fH
	DB	077H
	DB	072H
	DB	061H
	DB	070H
	DB	070H
	DB	065H
	DB	072H
	DB	0eeH
	DB	01H
	DB	00H
	DB	00H
	DB	073H
	DB	0cH
	DB	00H
	DB	00H
	DB	00H
	DB	00H
	DB	01H
	DB	0fH
	DB	01H
	DB	018H
	DB	01H
	DB	0cH
	DB	01H
	DB	0fH
	DB	01H
	DB	01fH
	DB	01H
	DB	075H
	DB	028H
	DB	00H
	DB	00H
	DB	00H
	DB	073H
	DB	065H
	DB	074H
	DB	05fH
	DB	070H
	DB	061H
	DB	063H
	DB	06bH
	DB	061H
	DB	067H
	DB	065H
	DB	02eH
	DB	03cH
	DB	06cH
	DB	06fH
	DB	063H
	DB	061H
	DB	06cH
	DB	073H
	DB	03eH
	DB	02eH
	DB	073H
	DB	065H
	DB	074H
	DB	05fH
	DB	070H
	DB	061H
	DB	063H
	DB	06bH
	DB	061H
	DB	067H
	DB	065H
	DB	05fH
	DB	077H
	DB	072H
	DB	061H
	DB	070H
	DB	070H
	DB	065H
	DB	072H
	DB	028H
	DB	01H
	DB	00H
	DB	00H
	DB	00H
	DB	075H
	DB	05H
	DB	00H
	DB	00H
	DB	00H
	DB	05fH
	DB	077H
	DB	072H
	DB	061H
	DB	070H
	DB	028H
	DB	02H
	DB	00H
	DB	00H
	DB	00H
	DB	075H
	DB	03H
	DB	00H
	DB	00H
	DB	00H
	DB	066H
	DB	078H
	DB	06eH
	DB	075H
	DB	013H
	DB	00H
	DB	00H
	DB	00H
	DB	073H
	DB	065H
	DB	074H
	DB	05fH
	DB	070H
	DB	061H
	DB	063H
	DB	06bH
	DB	061H
	DB	067H
	DB	065H
	DB	05fH
	DB	077H
	DB	072H
	DB	061H
	DB	070H
	DB	070H
	DB	065H
	DB	072H
	DB	028H
	DB	00H
	DB	00H
	DB	00H
	DB	00H
	DB	028H
	DB	01H
	DB	00H
	DB	00H
	DB	00H
	DB	075H
	DB	03H
	DB	00H
	DB	00H
	DB	00H
	DB	066H
	DB	078H
	DB	06eH
	DB	075H
	DB	01dH
	DB	00H
	DB	00H
	DB	00H
	DB	03cH
	DB	066H
	DB	072H
	DB	06fH
	DB	07aH
	DB	065H
	DB	06eH
	DB	020H
	DB	069H
	DB	06dH
	DB	070H
	DB	06fH
	DB	072H
	DB	074H
	DB	06cH
	DB	069H
	DB	062H
	DB	02eH
	DB	05fH
	DB	062H
	DB	06fH
	DB	06fH
	DB	074H
	DB	073H
	DB	074H
	DB	072H
	DB	061H
	DB	070H
	DB	03eH
	DB	075H
	DB	0bH
	DB	00H
	DB	00H
	DB	00H
	DB	073H
	DB	065H
	DB	074H
	DB	05fH
	DB	070H
	DB	061H
	DB	063H
	DB	06bH
	DB	061H
	DB	067H
	DB	065H
	DB	0ecH
	DB	01H
	DB	00H
	DB	00H
	DB	073H
	DB	06H
	DB	00H
	DB	00H
	DB	00H
	DB	00H
	DB	02H
	DB	012H
	DB	07H
	DB	0dH
	DB	01H
	DB	075H
	DB	0bH
	DB	00H
	DB	00H
	DB	00H
	DB	073H
	DB	065H
	DB	074H
	DB	05fH
	DB	070H
	DB	061H
	DB	063H
	DB	06bH
	DB	061H
	DB	067H
	DB	065H
	DB	063H
	DB	01H
	DB	00H
	DB	00H
	DB	00H
	DB	00H
	DB	00H
	DB	00H
	DB	00H
	DB	02H
	DB	00H
	DB	00H
	DB	00H
	DB	03H
	DB	00H
	DB	00H
	DB	00H
	DB	03H
	DB	00H
	DB	00H
	DB	00H
	DB	073H
	DB	023H
	DB	00H
	DB	00H
	DB	00H
	DB	087H
	DB	00H
	DB	00H
	DB	066H
	DB	01H
	DB	00H
	DB	064H
	DB	01H
	DB	00H
	DB	064H
	DB	02H
	DB	00H
	DB	086H
	DB	00H
	DB	00H
	DB	07dH
	DB	01H
	DB	00H
	DB	074H
	DB	00H
	DB	00H
	DB	07cH
	DB	01H
	DB	00H
	DB	088H
	DB	00H
	DB	00H
	DB	083H
	DB	02H
	DB	00H
	DB	01H
	DB	07cH
	DB	01H
	DB	00H
	DB	053H
	DB	028H
	DB	03H
	DB	00H
	DB	00H
	DB	00H
	DB	075H
	DB	026H
	DB	00H
	DB	00H
	DB	00H
	DB	053H
	DB	065H
	DB	074H
	DB	020H
	DB	05fH
	DB	05fH
	DB	06cH
	DB	06fH
	DB	061H
	DB	064H
	DB	065H
	DB	072H
	DB	05fH
	DB	05fH
	DB	020H
	DB	06fH
	DB	06eH
	DB	020H
	DB	074H
	DB	068H
	DB	065H
	DB	020H
	DB	072H
	DB	065H
	DB	074H
	DB	075H
	DB	072H
	DB	06eH
	DB	065H
	DB	064H
	DB	020H
	DB	06dH
	DB	06fH
	DB	064H
	DB	075H
	DB	06cH
	DB	065H
	DB	02eH
	DB	063H
	DB	01H
	DB	00H
	DB	00H
	DB	00H
	DB	00H
	DB	00H
	DB	00H
	DB	00H
	DB	04H
	DB	00H
	DB	00H
	DB	00H
	DB	04H
	DB	00H
	DB	00H
	DB	00H
	DB	01fH
	DB	00H
	DB	00H
	DB	00H
	DB	073H
	DB	031H
	DB	00H
	DB	00H
	DB	00H
	DB	088H
	DB	00H
	DB	00H
	DB	07cH
	DB	00H
	DB	00H
	DB	07cH
	DB	01H
	DB	00H
	DB	07cH
	DB	02H
	DB	00H
	DB	08eH
	DB	01H
	DB	00H
	DB	07dH
	DB	03H
	DB	00H
	DB	074H
	DB	00H
	DB	00H
	DB	07cH
	DB	03H
	DB	00H
	DB	064H
	DB	01H
	DB	00H
	DB	083H
	DB	02H
	DB	00H
	DB	073H
	DB	02dH
	DB	00H
	DB	07cH
	DB	00H
	DB	00H
	DB	07cH
	DB	03H
	DB	00H
	DB	05fH
	DB	01H
	DB	00H
	DB	06eH
	DB	00H
	DB	00H
	DB	07cH
	DB	03H
	DB	00H
	DB	053H
	DB	028H
	DB	02H
	DB	00H
	DB	00H
	DB	00H
	DB	04eH
	DB	075H
	DB	0aH
	DB	00H
	DB	00H
	DB	00H
	DB	05fH
	DB	05fH
	DB	06cH
	DB	06fH
	DB	061H
	DB	064H
	DB	065H
	DB	072H
	DB	05fH
	DB	05fH
	DB	028H
	DB	02H
	DB	00H
	DB	00H
	DB	00H
	DB	075H
	DB	07H
	DB	00H
	DB	00H
	DB	00H
	DB	068H
	DB	061H
	DB	073H
	DB	061H
	DB	074H
	DB	074H
	DB	072H
	DB	075H
	DB	0aH
	DB	00H
	DB	00H
	DB	00H
	DB	05fH
	DB	05fH
	DB	06cH
	DB	06fH
	DB	061H
	DB	064H
	DB	065H
	DB	072H
	DB	05fH
	DB	05fH
	DB	028H
	DB	04H
	DB	00H
	DB	00H
	DB	00H
	DB	075H
	DB	04H
	DB	00H
	DB	00H
	DB	00H
	DB	073H
	DB	065H
	DB	06cH
	DB	066H
	DB	075H
	DB	04H
	DB	00H
	DB	00H
	DB	00H
	DB	061H
	DB	072H
	DB	067H
	DB	073H
	DB	075H
	DB	06H
	DB	00H
	DB	00H
	DB	00H
	DB	06bH
	DB	077H
	DB	061H
	DB	072H
	DB	067H
	DB	073H
	DB	075H
	DB	06H
	DB	00H
	DB	00H
	DB	00H
	DB	06dH
	DB	06fH
	DB	064H
	DB	075H
	DB	06cH
	DB	065H
	DB	028H
	DB	01H
	DB	00H
	DB	00H
	DB	00H
	DB	075H
	DB	03H
	DB	00H
	DB	00H
	DB	00H
	DB	066H
	DB	078H
	DB	06eH
	DB	028H
	DB	00H
	DB	00H
	DB	00H
	DB	00H
	DB	075H
	DB	01dH
	DB	00H
	DB	00H
	DB	00H
	DB	03cH
	DB	066H
	DB	072H
	DB	06fH
	DB	07aH
	DB	065H
	DB	06eH
	DB	020H
	DB	069H
	DB	06dH
	DB	070H
	DB	06fH
	DB	072H
	DB	074H
	DB	06cH
	DB	069H
	DB	062H
	DB	02eH
	DB	05fH
	DB	062H
	DB	06fH
	DB	06fH
	DB	074H
	DB	073H
	DB	074H
	DB	072H
	DB	061H
	DB	070H
	DB	03eH
	DB	075H
	DB	012H
	DB	00H
	DB	00H
	DB	00H
	DB	073H
	DB	065H
	DB	074H
	DB	05fH
	DB	06cH
	DB	06fH
	DB	061H
	DB	064H
	DB	065H
	DB	072H
	DB	05fH
	DB	077H
	DB	072H
	DB	061H
	DB	070H
	DB	070H
	DB	065H
	DB	072H
	DB	0fbH
	DB	01H
	DB	00H
	DB	00H
	DB	073H
	DB	08H
	DB	00H
	DB	00H
	DB	00H
	DB	00H
	DB	01H
	DB	012H
	DB	01H
	DB	0fH
	DB	01H
	DB	0cH
	DB	01H
	DB	075H
	DB	026H
	DB	00H
	DB	00H
	DB	00H
	DB	073H
	DB	065H
	DB	074H
	DB	05fH
	DB	06cH
	DB	06fH
	DB	061H
	DB	064H
	DB	065H
	DB	072H
	DB	02eH
	DB	03cH
	DB	06cH
	DB	06fH
	DB	063H
	DB	061H
	DB	06cH
	DB	073H
	DB	03eH
	DB	02eH
	DB	073H
	DB	065H
	DB	074H
	DB	05fH
	DB	06cH
	DB	06fH
	DB	061H
	DB	064H
	DB	065H
	DB	072H
	DB	05fH
	DB	077H
	DB	072H
	DB	061H
	DB	070H
	DB	070H
	DB	065H
	DB	072H
	DB	028H
	DB	01H
	DB	00H
	DB	00H
	DB	00H
	DB	075H
	DB	05H
	DB	00H
	DB	00H
	DB	00H
	DB	05fH
	DB	077H
	DB	072H
	DB	061H
	DB	070H
	DB	028H
	DB	02H
	DB	00H
	DB	00H
	DB	00H
	DB	075H
	DB	03H
	DB	00H
	DB	00H
	DB	00H
	DB	066H
	DB	078H
	DB	06eH
	DB	075H
	DB	012H
	DB	00H
	DB	00H
	DB	00H
	DB	073H
	DB	065H
	DB	074H
	DB	05fH
	DB	06cH
	DB	06fH
	DB	061H
	DB	064H
	DB	065H
	DB	072H
	DB	05fH
	DB	077H
	DB	072H
	DB	061H
	DB	070H
	DB	070H
	DB	065H
	DB	072H
	DB	028H
	DB	00H
	DB	00H
	DB	00H
	DB	00H
	DB	028H
	DB	01H
	DB	00H
	DB	00H
	DB	00H
	DB	075H
	DB	03H
	DB	00H
	DB	00H
	DB	00H
	DB	066H
	DB	078H
	DB	06eH
	DB	075H
	DB	01dH
	DB	00H
	DB	00H
	DB	00H
	DB	03cH
	DB	066H
	DB	072H
	DB	06fH
	DB	07aH
	DB	065H
	DB	06eH
	DB	020H
	DB	069H
	DB	06dH
	DB	070H
	DB	06fH
	DB	072H
	DB	074H
	DB	06cH
	DB	069H
	DB	062H
	DB	02eH
	DB	05fH
	DB	062H
	DB	06fH
	DB	06fH
	DB	074H
	DB	073H
	DB	074H
	DB	072H
	DB	061H
	DB	070H
	DB	03eH
	DB	075H
	DB	0aH
	DB	00H
	DB	00H
	DB	00H
	DB	073H
	DB	065H
	DB	074H
	DB	05fH
	DB	06cH
	DB	06fH
	DB	061H
	DB	064H
	DB	065H
	DB	072H
	DB	0f9H
	DB	01H
	DB	00H
	DB	00H
	DB	073H
	DB	06H
	DB	00H
	DB	00H
	DB	00H
	DB	00H
	DB	02H
	DB	012H
	DB	05H
	DB	0dH
	DB	01H
	DB	075H
	DB	0aH
	DB	00H
	DB	00H
	DB	00H
	DB	073H
	DB	065H
	DB	074H
	DB	05fH
	DB	06cH
	DB	06fH
	DB	061H
	DB	064H
	DB	065H
	DB	072H
	DB	063H
	DB	01H
	DB	00H
	DB	00H
	DB	00H
	DB	00H
	DB	00H
	DB	00H
	DB	00H
	DB	02H
	DB	00H
	DB	00H
	DB	00H
	DB	03H
	DB	00H
	DB	00H
	DB	00H
	DB	03H
	DB	00H
	DB	00H
	DB	00H
	DB	073H
	DB	023H
	DB	00H
	DB	00H
	DB	00H
	DB	087H
	DB	00H
	DB	00H
	DB	066H
	DB	01H
	DB	00H
	DB	064H
	DB	01H
	DB	00H
	DB	064H
	DB	02H
	DB	00H
	DB	086H
	DB	00H
	DB	00H
	DB	07dH
	DB	01H
	DB	00H
	DB	074H
	DB	00H
	DB	00H
	DB	07cH
	DB	01H
	DB	00H
	DB	088H
	DB	00H
	DB	00H
	DB	083H
	DB	02H
	DB	00H
	DB	01H
	DB	07cH
	DB	01H
	DB	00H
	DB	053H
	DB	028H
	DB	03H
	DB	00H
	DB	00H
	DB	00H
	DB	075H
	DB	02aH
	DB	03H
	DB	00H
	DB	00H
	DB	044H
	DB	065H
	DB	063H
	DB	06fH
	DB	072H
	DB	061H
	DB	074H
	DB	06fH
	DB	072H
	DB	020H
	DB	074H
	DB	06fH
	DB	020H
	DB	068H
	DB	061H
	DB	06eH
	DB	064H
	DB	06cH
	DB	065H
	DB	020H
	DB	073H
	DB	065H
	DB	06cH
	DB	065H
	DB	063H
	DB	074H
	DB	069H
	DB	06eH
	DB	067H
	DB	020H
	DB	074H
	DB	068H
	DB	065H
	DB	020H
	DB	070H
	DB	072H
	DB	06fH
	DB	070H
	DB	065H
	DB	072H
	DB	020H
	DB	06dH
	DB	06fH
	DB	064H
	DB	075H
	DB	06cH
	DB	065H
	DB	020H
	DB	066H
	DB	06fH
	DB	072H
	DB	020H
	DB	06cH
	DB	06fH
	DB	061H
	DB	064H
	DB	065H
	DB	072H
	DB	073H
	DB	02eH
	DB	0aH
	DB	0aH
	DB	020H
	DB	020H
	DB	020H
	DB	020H
	DB	054H
	DB	068H
	DB	065H
	DB	020H
	DB	064H
	DB	065H
	DB	063H
	DB	06fH
	DB	072H
	DB	061H
	DB	074H
	DB	065H
	DB	064H
	DB	020H
	DB	066H
	DB	075H
	DB	06eH
	DB	063H
	DB	074H
	DB	069H
	DB	06fH
	DB	06eH
	DB	020H
	DB	069H
	DB	073H
	DB	020H
	DB	070H
	DB	061H
	DB	073H
	DB	073H
	DB	065H
	DB	064H
	DB	020H
	DB	074H
	DB	068H
	DB	065H
	DB	020H
	DB	06dH
	DB	06fH
	DB	064H
	DB	075H
	DB	06cH
	DB	065H
	DB	020H
	DB	074H
	DB	06fH
	DB	020H
	DB	075H
	DB	073H
	DB	065H
	DB	020H
	DB	069H
	DB	06eH
	DB	073H
	DB	074H
	DB	065H
	DB	061H
	DB	064H
	DB	020H
	DB	06fH
	DB	066H
	DB	020H
	DB	074H
	DB	068H
	DB	065H
	DB	020H
	DB	06dH
	DB	06fH
	DB	064H
	DB	075H
	DB	06cH
	DB	065H
	DB	0aH
	DB	020H
	DB	020H
	DB	020H
	DB	020H
	DB	06eH
	DB	061H
	DB	06dH
	DB	065H
	DB	02eH
	DB	020H
	DB	054H
	DB	068H
	DB	065H
	DB	020H
	DB	06dH
	DB	06fH
	DB	064H
	DB	075H
	DB	06cH
	DB	065H
	DB	020H
	DB	070H
	DB	061H
	DB	073H
	DB	073H
	DB	065H
	DB	064H
	DB	020H
	DB	069H
	DB	06eH
	DB	020H
	DB	074H
	DB	06fH
	DB	020H
	DB	074H
	DB	068H
	DB	065H
	DB	020H
	DB	066H
	DB	075H
	DB	06eH
	DB	063H
	DB	074H
	DB	069H
	DB	06fH
	DB	06eH
	DB	020H
	DB	069H
	DB	073H
	DB	020H
	DB	065H
	DB	069H
	DB	074H
	DB	068H
	DB	065H
	DB	072H
	DB	020H
	DB	066H
	DB	072H
	DB	06fH
	DB	06dH
	DB	020H
	DB	073H
	DB	079H
	DB	073H
	DB	02eH
	DB	06dH
	DB	06fH
	DB	064H
	DB	075H
	DB	06cH
	DB	065H
	DB	073H
	DB	020H
	DB	069H
	DB	066H
	DB	0aH
	DB	020H
	DB	020H
	DB	020H
	DB	020H
	DB	069H
	DB	074H
	DB	020H
	DB	061H
	DB	06cH
	DB	072H
	DB	065H
	DB	061H
	DB	064H
	DB	079H
	DB	020H
	DB	065H
	DB	078H
	DB	069H
	DB	073H
	DB	074H
	DB	073H
	DB	020H
	DB	06fH
	DB	072H
	DB	020H
	DB	069H
	DB	073H
	DB	020H
	DB	061H
	DB	020H
	DB	06eH
	DB	065H
	DB	077H
	DB	020H
	DB	06dH
	DB	06fH
	DB	064H
	DB	075H
	DB	06cH
	DB	065H
	DB	02eH
	DB	020H
	DB	049H
	DB	066H
	DB	020H
	DB	074H
	DB	068H
	DB	065H
	DB	020H
	DB	06dH
	DB	06fH
	DB	064H
	DB	075H
	DB	06cH
	DB	065H
	DB	020H
	DB	069H
	DB	073H
	DB	020H
	DB	06eH
	DB	065H
	DB	077H
	DB	02cH
	DB	020H
	DB	074H
	DB	068H
	DB	065H
	DB	06eH
	DB	020H
	DB	05fH
	DB	05fH
	DB	06eH
	DB	061H
	DB	06dH
	DB	065H
	DB	05fH
	DB	05fH
	DB	0aH
	DB	020H
	DB	020H
	DB	020H
	DB	020H
	DB	069H
	DB	073H
	DB	020H
	DB	073H
	DB	065H
	DB	074H
	DB	020H
	DB	074H
	DB	068H
	DB	065H
	DB	020H
	DB	066H
	DB	069H
	DB	072H
	DB	073H
	DB	074H
	DB	020H
	DB	061H
	DB	072H
	DB	067H
	DB	075H
	DB	06dH
	DB	065H
	DB	06eH
	DB	074H
	DB	020H
	DB	074H
	DB	06fH
	DB	020H
	DB	074H
	DB	068H
	DB	065H
	DB	020H
	DB	06dH
	DB	065H
	DB	074H
	DB	068H
	DB	06fH
	DB	064H
	DB	02cH
	DB	020H
	DB	05fH
	DB	05fH
	DB	06cH
	DB	06fH
	DB	061H
	DB	064H
	DB	065H
	DB	072H
	DB	05fH
	DB	05fH
	DB	020H
	DB	069H
	DB	073H
	DB	020H
	DB	073H
	DB	065H
	DB	074H
	DB	020H
	DB	074H
	DB	06fH
	DB	020H
	DB	073H
	DB	065H
	DB	06cH
	DB	066H
	DB	02cH
	DB	020H
	DB	061H
	DB	06eH
	DB	064H
	DB	0aH
	DB	020H
	DB	020H
	DB	020H
	DB	020H
	DB	05fH
	DB	05fH
	DB	070H
	DB	061H
	DB	063H
	DB	06bH
	DB	061H
	DB	067H
	DB	065H
	DB	05fH
	DB	05fH
	DB	020H
	DB	069H
	DB	073H
	DB	020H
	DB	073H
	DB	065H
	DB	074H
	DB	020H
	DB	061H
	DB	063H
	DB	063H
	DB	06fH
	DB	072H
	DB	064H
	DB	069H
	DB	06eH
	DB	067H
	DB	06cH
	DB	079H
	DB	020H
	DB	028H
	DB	069H
	DB	066H
	DB	020H
	DB	073H
	DB	065H
	DB	06cH
	DB	066H
	DB	02eH
	DB	069H
	DB	073H
	DB	05fH
	DB	070H
	DB	061H
	DB	063H
	DB	06bH
	DB	061H
	DB	067H
	DB	065H
	DB	028H
	DB	029H
	DB	020H
	DB	069H
	DB	073H
	DB	020H
	DB	064H
	DB	065H
	DB	066H
	DB	069H
	DB	06eH
	DB	065H
	DB	064H
	DB	029H
	DB	020H
	DB	077H
	DB	069H
	DB	06cH
	DB	06cH
	DB	020H
	DB	062H
	DB	065H
	DB	020H
	DB	073H
	DB	065H
	DB	074H
	DB	0aH
	DB	020H
	DB	020H
	DB	020H
	DB	020H
	DB	062H
	DB	065H
	DB	066H
	DB	06fH
	DB	072H
	DB	065H
	DB	020H
	DB	069H
	DB	074H
	DB	020H
	DB	069H
	DB	073H
	DB	020H
	DB	070H
	DB	061H
	DB	073H
	DB	073H
	DB	065H
	DB	064H
	DB	020H
	DB	074H
	DB	06fH
	DB	020H
	DB	074H
	DB	068H
	DB	065H
	DB	020H
	DB	064H
	DB	065H
	DB	063H
	DB	06fH
	DB	072H
	DB	061H
	DB	074H
	DB	065H
	DB	064H
	DB	020H
	DB	066H
	DB	075H
	DB	06eH
	DB	063H
	DB	074H
	DB	069H
	DB	06fH
	DB	06eH
	DB	020H
	DB	028H
	DB	069H
	DB	066H
	DB	020H
	DB	073H
	DB	065H
	DB	06cH
	DB	066H
	DB	02eH
	DB	069H
	DB	073H
	DB	05fH
	DB	070H
	DB	061H
	DB	063H
	DB	06bH
	DB	061H
	DB	067H
	DB	065H
	DB	028H
	DB	029H
	DB	020H
	DB	064H
	DB	06fH
	DB	065H
	DB	073H
	DB	0aH
	DB	020H
	DB	020H
	DB	020H
	DB	020H
	DB	06eH
	DB	06fH
	DB	074H
	DB	020H
	DB	077H
	DB	06fH
	DB	072H
	DB	06bH
	DB	020H
	DB	066H
	DB	06fH
	DB	072H
	DB	020H
	DB	074H
	DB	068H
	DB	065H
	DB	020H
	DB	06dH
	DB	06fH
	DB	064H
	DB	075H
	DB	06cH
	DB	065H
	DB	020H
	DB	069H
	DB	074H
	DB	020H
	DB	077H
	DB	069H
	DB	06cH
	DB	06cH
	DB	020H
	DB	062H
	DB	065H
	DB	020H
	DB	073H
	DB	065H
	DB	074H
	DB	020H
	DB	070H
	DB	06fH
	DB	073H
	DB	074H
	DB	02dH
	DB	06cH
	DB	06fH
	DB	061H
	DB	064H
	DB	029H
	DB	02eH
	DB	0aH
	DB	0aH
	DB	020H
	DB	020H
	DB	020H
	DB	020H
	DB	049H
	DB	066H
	DB	020H
	DB	061H
	DB	06eH
	DB	020H
	DB	065H
	DB	078H
	DB	063H
	DB	065H
	DB	070H
	DB	074H
	DB	069H
	DB	06fH
	DB	06eH
	DB	020H
	DB	069H
	DB	073H
	DB	020H
	DB	072H
	DB	061H
	DB	069H
	DB	073H
	DB	065H
	DB	064H
	DB	020H
	DB	061H
	DB	06eH
	DB	064H
	DB	020H
	DB	074H
	DB	068H
	DB	065H
	DB	020H
	DB	064H
	DB	065H
	DB	063H
	DB	06fH
	DB	072H
	DB	061H
	DB	074H
	DB	06fH
	DB	072H
	DB	020H
	DB	063H
	DB	072H
	DB	065H
	DB	061H
	DB	074H
	DB	065H
	DB	064H
	DB	020H
	DB	074H
	DB	068H
	DB	065H
	DB	020H
	DB	06dH
	DB	06fH
	DB	064H
	DB	075H
	DB	06cH
	DB	065H
	DB	020H
	DB	069H
	DB	074H
	DB	020H
	DB	069H
	DB	073H
	DB	0aH
	DB	020H
	DB	020H
	DB	020H
	DB	020H
	DB	073H
	DB	075H
	DB	062H
	DB	073H
	DB	065H
	DB	071H
	DB	075H
	DB	065H
	DB	06eH
	DB	074H
	DB	06cH
	DB	079H
	DB	020H
	DB	072H
	DB	065H
	DB	06dH
	DB	06fH
	DB	076H
	DB	065H
	DB	064H
	DB	020H
	DB	066H
	DB	072H
	DB	06fH
	DB	06dH
	DB	020H
	DB	073H
	DB	079H
	DB	073H
	DB	02eH
	DB	06dH
	DB	06fH
	DB	064H
	DB	075H
	DB	06cH
	DB	065H
	DB	073H
	DB	02eH
	DB	0aH
	DB	0aH
	DB	020H
	DB	020H
	DB	020H
	DB	020H
	DB	054H
	DB	068H
	DB	065H
	DB	020H
	DB	064H
	DB	065H
	DB	063H
	DB	06fH
	DB	072H
	DB	061H
	DB	074H
	DB	06fH
	DB	072H
	DB	020H
	DB	061H
	DB	073H
	DB	073H
	DB	075H
	DB	06dH
	DB	065H
	DB	073H
	DB	020H
	DB	074H
	DB	068H
	DB	061H
	DB	074H
	DB	020H
	DB	074H
	DB	068H
	DB	065H
	DB	020H
	DB	064H
	DB	065H
	DB	063H
	DB	06fH
	DB	072H
	DB	061H
	DB	074H
	DB	065H
	DB	064H
	DB	020H
	DB	066H
	DB	075H
	DB	06eH
	DB	063H
	DB	074H
	DB	069H
	DB	06fH
	DB	06eH
	DB	020H
	DB	074H
	DB	061H
	DB	06bH
	DB	065H
	DB	073H
	DB	020H
	DB	074H
	DB	068H
	DB	065H
	DB	020H
	DB	06dH
	DB	06fH
	DB	064H
	DB	075H
	DB	06cH
	DB	065H
	DB	020H
	DB	06eH
	DB	061H
	DB	06dH
	DB	065H
	DB	020H
	DB	061H
	DB	073H
	DB	0aH
	DB	020H
	DB	020H
	DB	020H
	DB	020H
	DB	074H
	DB	068H
	DB	065H
	DB	020H
	DB	073H
	DB	065H
	DB	063H
	DB	06fH
	DB	06eH
	DB	064H
	DB	020H
	DB	061H
	DB	072H
	DB	067H
	DB	075H
	DB	06dH
	DB	065H
	DB	06eH
	DB	074H
	DB	02eH
	DB	0aH
	DB	0aH
	DB	020H
	DB	020H
	DB	020H
	DB	020H
	DB	063H
	DB	02H
	DB	00H
	DB	00H
	DB	00H
	DB	00H
	DB	00H
	DB	00H
	DB	00H
	DB	07H
	DB	00H
	DB	00H
	DB	00H
	DB	019H
	DB	00H
	DB	00H
	DB	00H
	DB	01fH
	DB	00H
	DB	00H
	DB	00H
	DB	073H
	DB	0feH
	DB	00H
	DB	00H
	DB	00H
	DB	074H
	DB	00H
	DB	00H
	DB	06aH
	DB	01H
	DB	00H
	DB	06aH
	DB	02H
	DB	00H
	DB	07cH
	DB	01H
	DB	00H
	DB	083H
	DB	01H
	DB	00H
	DB	07dH
	DB	04H
	DB	00H
	DB	07cH
	DB	04H
	DB	00H
	DB	064H
	DB	00H
	DB	00H
	DB	06bH
	DB	09H
	DB	00H
	DB	07dH
	DB	05H
	DB	00H
	DB	07cH
	DB	05H
	DB	00H
	DB	073H
	DB	0a8H
	DB	00H
	DB	074H
	DB	04H
	DB	00H
	DB	07cH
	DB	01H
	DB	00H
	DB	083H
	DB	01H
	DB	00H
	DB	07dH
	DB	04H
	DB	00H
	DB	064H
	DB	03H
	DB	00H
	DB	07cH
	DB	04H
	DB	00H
	DB	05fH
	DB	06H
	DB	00H
	DB	07cH
	DB	04H
	DB	00H
	DB	074H
	DB	00H
	DB	00H
	DB	06aH
	DB	01H
	DB	00H
	DB	07cH
	DB	01H
	DB	00H
	DB	03cH
	DB	07cH
	DB	00H
	DB	00H
	DB	07cH
	DB	04H
	DB	00H
	DB	05fH
	DB	07H
	DB	00H
	DB	079H
	DB	013H
	DB	00H
	DB	07cH
	DB	00H
	DB	00H
	DB	06aH
	DB	08H
	DB	00H
	DB	07cH
	DB	01H
	DB	00H
	DB	083H
	DB	01H
	DB	00H
	DB	07dH
	DB	06H
	DB	00H
	DB	057H
	DB	06eH
	DB	018H
	DB	00H
	DB	04H
	DB	074H
	DB	09H
	DB	00H
	DB	074H
	DB	0aH
	DB	00H
	DB	066H
	DB	02H
	DB	00H
	DB	06bH
	DB	0aH
	DB	00H
	DB	072H
	DB	07cH
	DB	00H
	DB	01H
	DB	01H
	DB	01H
	DB	059H
	DB	071H
	DB	0b1H
	DB	00H
	DB	058H
	DB	07cH
	DB	06H
	DB	00H
	DB	072H
	DB	08fH
	DB	00H
	DB	07cH
	DB	01H
	DB	00H
	DB	07cH
	DB	04H
	DB	00H
	DB	05fH
	DB	0bH
	DB	00H
	DB	071H
	DB	0b1H
	DB	00H
	DB	07cH
	DB	01H
	DB	00H
	DB	06aH
	DB	0cH
	DB	00H
	DB	064H
	DB	01H
	DB	00H
	DB	083H
	DB	01H
	DB	00H
	DB	064H
	DB	02H
	DB	00H
	DB	019H
	DB	07cH
	DB	04H
	DB	00H
	DB	05fH
	DB	0bH
	DB	00H
	DB	06eH
	DB	09H
	DB	00H
	DB	064H
	DB	03H
	DB	00H
	DB	07cH
	DB	04H
	DB	00H
	DB	05fH
	DB	06H
	DB	00H
	DB	07aH
	DB	03cH
	DB	00H
	DB	079H
	DB	017H
	DB	00H
	DB	088H
	DB	00H
	DB	00H
	DB	07cH
	DB	00H
	DB	00H
	DB	07cH
	DB	04H
	DB	00H
	DB	07cH
	DB	02H
	DB	00H
	DB	07cH
	DB	03H
	DB	00H
	DB	08eH
	DB	02H
	DB	00H
	DB	053H
	DB	057H
	DB	06eH
	DB	01eH
	DB	00H
	DB	01H
	DB	01H
	DB	01H
	DB	07cH
	DB	05H
	DB	00H
	DB	073H
	DB	0e4H
	DB	00H
	DB	074H
	DB	00H
	DB	00H
	DB	06aH
	DB	01H
	DB	00H
	DB	07cH
	DB	01H
	DB	00H
	DB	03dH
	DB	06eH
	DB	00H
	DB	00H
	DB	082H
	DB	00H
	DB	00H
	DB	059H
	DB	06eH
	DB	01H
	DB	00H
	DB	058H
	DB	057H
	DB	064H
	DB	00H
	DB	00H
	DB	064H
	DB	04H
	DB	00H
	DB	07cH
	DB	04H
	DB	00H
	DB	05fH
	DB	06H
	DB	00H
	DB	058H
	DB	064H
	DB	00H
	DB	00H
	DB	053H
	DB	028H
	DB	05H
	DB	00H
	DB	00H
	DB	00H
	DB	04eH
	DB	075H
	DB	01H
	DB	00H
	DB	00H
	DB	00H
	DB	02eH
	DB	069H
	DB	00H
	DB	00H
	DB	00H
	DB	00H
	DB	054H
	DB	046H
	DB	028H
	DB	0eH
	DB	00H
	DB	00H
	DB	00H
	DB	075H
	DB	03H
	DB	00H
	DB	00H
	DB	00H
	DB	073H
	DB	079H
	DB	073H
	DB	075H
	DB	07H
	DB	00H
	DB	00H
	DB	00H
	DB	06dH
	DB	06fH
	DB	064H
	DB	075H
	DB	06cH
	DB	065H
	DB	073H
	DB	075H
	DB	03H
	DB	00H
	DB	00H
	DB	00H
	DB	067H
	DB	065H
	DB	074H
	DB	075H
	DB	04H
	DB	00H
	DB	00H
	DB	00H
	DB	04eH
	DB	06fH
	DB	06eH
	DB	065H
	DB	075H
	DB	0aH
	DB	00H
	DB	00H
	DB	00H
	DB	06eH
	DB	065H
	DB	077H
	DB	05fH
	DB	06dH
	DB	06fH
	DB	064H
	DB	075H
	DB	06cH
	DB	065H
	DB	075H
	DB	04H
	DB	00H
	DB	00H
	DB	00H
	DB	054H
	DB	072H
	DB	075H
	DB	065H
	DB	075H
	DB	010H
	DB	00H
	DB	00H
	DB	00H
	DB	05fH
	DB	05fH
	DB	069H
	DB	06eH
	DB	069H
	DB	074H
	DB	069H
	DB	061H
	DB	06cH
	DB	069H
	DB	07aH
	DB	069H
	DB	06eH
	DB	067H
	DB	05fH
	DB	05fH
	DB	075H
	DB	0aH
	DB	00H
	DB	00H
	DB	00H
	DB	05fH
	DB	05fH
	DB	06cH
	DB	06fH
	DB	061H
	DB	064H
	DB	065H
	DB	072H
	DB	05fH
	DB	05fH
	DB	075H
	DB	0aH
	DB	00H
	DB	00H
	DB	00H
	DB	069H
	DB	073H
	DB	05fH
	DB	070H
	DB	061H
	DB	063H
	DB	06bH
	DB	061H
	DB	067H
	DB	065H
	DB	075H
	DB	0bH
	DB	00H
	DB	00H
	DB	00H
	DB	049H
	DB	06dH
	DB	070H
	DB	06fH
	DB	072H
	DB	074H
	DB	045H
	DB	072H
	DB	072H
	DB	06fH
	DB	072H
	DB	075H
	DB	0eH
	DB	00H
	DB	00H
	DB	00H
	DB	041H
	DB	074H
	DB	074H
	DB	072H
	DB	069H
	DB	062H
	DB	075H
	DB	074H
	DB	065H
	DB	045H
	DB	072H
	DB	072H
	DB	06fH
	DB	072H
	DB	075H
	DB	0bH
	DB	00H
	DB	00H
	DB	00H
	DB	05fH
	DB	05fH
	DB	070H
	DB	061H
	DB	063H
	DB	06bH
	DB	061H
	DB	067H
	DB	065H
	DB	05fH
	DB	05fH
	DB	075H
	DB	0aH
	DB	00H
	DB	00H
	DB	00H
	DB	072H
	DB	070H
	DB	061H
	DB	072H
	DB	074H
	DB	069H
	DB	074H
	DB	069H
	DB	06fH
	DB	06eH
	DB	075H
	DB	05H
	DB	00H
	DB	00H
	DB	00H
	DB	046H
	DB	061H
	DB	06cH
	DB	073H
	DB	065H
	DB	028H
	DB	07H
	DB	00H
	DB	00H
	DB	00H
	DB	075H
	DB	04H
	DB	00H
	DB	00H
	DB	00H
	DB	073H
	DB	065H
	DB	06cH
	DB	066H
	DB	075H
	DB	08H
	DB	00H
	DB	00H
	DB	00H
	DB	066H
	DB	075H
	DB	06cH
	DB	06cH
	DB	06eH
	DB	061H
	DB	06dH
	DB	065H
	DB	075H
	DB	04H
	DB	00H
	DB	00H
	DB	00H
	DB	061H
	DB	072H
	DB	067H
	DB	073H
	DB	075H
	DB	06H
	DB	00H
	DB	00H
	DB	00H
	DB	06bH
	DB	077H
	DB	061H
	DB	072H
	DB	067H
	DB	073H
	DB	075H
	DB	06H
	DB	00H
	DB	00H
	DB	00H
	DB	06dH
	DB	06fH
	DB	064H
	DB	075H
	DB	06cH
	DB	065H
	DB	075H
	DB	09H
	DB	00H
	DB	00H
	DB	00H
	DB	069H
	DB	073H
	DB	05fH
	DB	072H
	DB	065H
	DB	06cH
	DB	06fH
	DB	061H
	DB	064H
	DB	075H
	DB	0aH
	DB	00H
	DB	00H
	DB	00H
	DB	069H
	DB	073H
	DB	05fH
	DB	070H
	DB	061H
	DB	063H
	DB	06bH
	DB	061H
	DB	067H
	DB	065H
	DB	028H
	DB	01H
	DB	00H
	DB	00H
	DB	00H
	DB	075H
	DB	03H
	DB	00H
	DB	00H
	DB	00H
	DB	066H
	DB	078H
	DB	06eH
	DB	028H
	DB	00H
	DB	00H
	DB	00H
	DB	00H
	DB	075H
	DB	01dH
	DB	00H
	DB	00H
	DB	00H
	DB	03cH
	DB	066H
	DB	072H
	DB	06fH
	DB	07aH
	DB	065H
	DB	06eH
	DB	020H
	DB	069H
	DB	06dH
	DB	070H
	DB	06fH
	DB	072H
	DB	074H
	DB	06cH
	DB	069H
	DB	062H
	DB	02eH
	DB	05fH
	DB	062H
	DB	06fH
	DB	06fH
	DB	074H
	DB	073H
	DB	074H
	DB	072H
	DB	061H
	DB	070H
	DB	03eH
	DB	075H
	DB	019H
	DB	00H
	DB	00H
	DB	00H
	DB	06dH
	DB	06fH
	DB	064H
	DB	075H
	DB	06cH
	DB	065H
	DB	05fH
	DB	066H
	DB	06fH
	DB	072H
	DB	05fH
	DB	06cH
	DB	06fH
	DB	061H
	DB	064H
	DB	065H
	DB	072H
	DB	05fH
	DB	077H
	DB	072H
	DB	061H
	DB	070H
	DB	070H
	DB	065H
	DB	072H
	DB	016H
	DB	02H
	DB	00H
	DB	00H
	DB	073H
	DB	02cH
	DB	00H
	DB	00H
	DB	00H
	DB	00H
	DB	01H
	DB	012H
	DB	01H
	DB	0cH
	DB	01H
	DB	06H
	DB	04H
	DB	0cH
	DB	03H
	DB	09H
	DB	01H
	DB	0dH
	DB	01H
	DB	09H
	DB	01H
	DB	03H
	DB	01H
	DB	013H
	DB	01H
	DB	013H
	DB	01H
	DB	05H
	DB	02H
	DB	06H
	DB	01H
	DB	0cH
	DB	02H
	DB	019H
	DB	02H
	DB	09H
	DB	01H
	DB	06H
	DB	02H
	DB	017H
	DB	01H
	DB	03H
	DB	01H
	DB	06H
	DB	01H
	DB	0dH
	DB	01H
	DB	0cH
	DB	02H
	DB	075H
	DB	034H
	DB	00H
	DB	00H
	DB	00H
	DB	06dH
	DB	06fH
	DB	064H
	DB	075H
	DB	06cH
	DB	065H
	DB	05fH
	DB	066H
	DB	06fH
	DB	072H
	DB	05fH
	DB	06cH
	DB	06fH
	DB	061H
	DB	064H
	DB	065H
	DB	072H
	DB	02eH
	DB	03cH
	DB	06cH
	DB	06fH
	DB	063H
	DB	061H
	DB	06cH
	DB	073H
	DB	03eH
	DB	02eH
	DB	06dH
	DB	06fH
	DB	064H
	DB	075H
	DB	06cH
	DB	065H
	DB	05fH
	DB	066H
	DB	06fH
	DB	072H
	DB	05fH
	DB	06cH
	DB	06fH
	DB	061H
	DB	064H
	DB	065H
	DB	072H
	DB	05fH
	DB	077H
	DB	072H
	DB	061H
	DB	070H
	DB	070H
	DB	065H
	DB	072H
	DB	028H
	DB	01H
	DB	00H
	DB	00H
	DB	00H
	DB	075H
	DB	05H
	DB	00H
	DB	00H
	DB	00H
	DB	05fH
	DB	077H
	DB	072H
	DB	061H
	DB	070H
	DB	028H
	DB	02H
	DB	00H
	DB	00H
	DB	00H
	DB	075H
	DB	03H
	DB	00H
	DB	00H
	DB	00H
	DB	066H
	DB	078H
	DB	06eH
	DB	075H
	DB	019H
	DB	00H
	DB	00H
	DB	00H
	DB	06dH
	DB	06fH
	DB	064H
	DB	075H
	DB	06cH
	DB	065H
	DB	05fH
	DB	066H
	DB	06fH
	DB	072H
	DB	05fH
	DB	06cH
	DB	06fH
	DB	061H
	DB	064H
	DB	065H
	DB	072H
	DB	05fH
	DB	077H
	DB	072H
	DB	061H
	DB	070H
	DB	070H
	DB	065H
	DB	072H
	DB	028H
	DB	00H
	DB	00H
	DB	00H
	DB	00H
	DB	028H
	DB	01H
	DB	00H
	DB	00H
	DB	00H
	DB	075H
	DB	03H
	DB	00H
	DB	00H
	DB	00H
	DB	066H
	DB	078H
	DB	06eH
	DB	075H
	DB	01dH
	DB	00H
	DB	00H
	DB	00H
	DB	03cH
	DB	066H
	DB	072H
	DB	06fH
	DB	07aH
	DB	065H
	DB	06eH
	DB	020H
	DB	069H
	DB	06dH
	DB	070H
	DB	06fH
	DB	072H
	DB	074H
	DB	06cH
	DB	069H
	DB	062H
	DB	02eH
	DB	05fH
	DB	062H
	DB	06fH
	DB	06fH
	DB	074H
	DB	073H
	DB	074H
	DB	072H
	DB	061H
	DB	070H
	DB	03eH
	DB	075H
	DB	011H
	DB	00H
	DB	00H
	DB	00H
	DB	06dH
	DB	06fH
	DB	064H
	DB	075H
	DB	06cH
	DB	065H
	DB	05fH
	DB	066H
	DB	06fH
	DB	072H
	DB	05fH
	DB	06cH
	DB	06fH
	DB	061H
	DB	064H
	DB	065H
	DB	072H
	DB	04H
	DB	02H
	DB	00H
	DB	00H
	DB	073H
	DB	06H
	DB	00H
	DB	00H
	DB	00H
	DB	00H
	DB	012H
	DB	012H
	DB	021H
	DB	0dH
	DB	01H
	DB	075H
	DB	011H
	DB	00H
	DB	00H
	DB	00H
	DB	06dH
	DB	06fH
	DB	064H
	DB	075H
	DB	06cH
	DB	065H
	DB	05fH
	DB	066H
	DB	06fH
	DB	072H
	DB	05fH
	DB	06cH
	DB	06fH
	DB	061H
	DB	064H
	DB	065H
	DB	072H
	DB	063H
	DB	01H
	DB	00H
	DB	00H
	DB	00H
	DB	00H
	DB	00H
	DB	00H
	DB	00H
	DB	02H
	DB	00H
	DB	00H
	DB	00H
	DB	04H
	DB	00H
	DB	00H
	DB	00H
	DB	03H
	DB	00H
	DB	00H
	DB	00H
	DB	073H
	DB	026H
	DB	00H
	DB	00H
	DB	00H
	DB	064H
	DB	03H
	DB	00H
	DB	087H
	DB	00H
	DB	00H
	DB	066H
	DB	01H
	DB	00H
	DB	064H
	DB	01H
	DB	00H
	DB	064H
	DB	02H
	DB	00H
	DB	086H
	DB	01H
	DB	00H
	DB	07dH
	DB	01H
	DB	00H
	DB	074H
	DB	01H
	DB	00H
	DB	07cH
	DB	01H
	DB	00H
	DB	088H
	DB	00H
	DB	00H
	DB	083H
	DB	02H
	DB	00H
	DB	01H
	DB	07cH
	DB	01H
	DB	00H
	DB	053H
	DB	028H
	DB	04H
	DB	00H
	DB	00H
	DB	00H
	DB	075H
	DB	0fcH
	DB	00H
	DB	00H
	DB	00H
	DB	044H
	DB	065H
	DB	063H
	DB	06fH
	DB	072H
	DB	061H
	DB	074H
	DB	06fH
	DB	072H
	DB	020H
	DB	074H
	DB	06fH
	DB	020H
	DB	076H
	DB	065H
	DB	072H
	DB	069H
	DB	066H
	DB	079H
	DB	020H
	DB	074H
	DB	068H
	DB	061H
	DB	074H
	DB	020H
	DB	074H
	DB	068H
	DB	065H
	DB	020H
	DB	06dH
	DB	06fH
	DB	064H
	DB	075H
	DB	06cH
	DB	065H
	DB	020H
	DB	062H
	DB	065H
	DB	069H
	DB	06eH
	DB	067H
	DB	020H
	DB	072H
	DB	065H
	DB	071H
	DB	075H
	DB	065H
	DB	073H
	DB	074H
	DB	065H
	DB	064H
	DB	020H
	DB	06dH
	DB	061H
	DB	074H
	DB	063H
	DB	068H
	DB	065H
	DB	073H
	DB	020H
	DB	074H
	DB	068H
	DB	065H
	DB	020H
	DB	06fH
	DB	06eH
	DB	065H
	DB	020H
	DB	074H
	DB	068H
	DB	065H
	DB	0aH
	DB	020H
	DB	020H
	DB	020H
	DB	020H
	DB	06cH
	DB	06fH
	DB	061H
	DB	064H
	DB	065H
	DB	072H
	DB	020H
	DB	063H
	DB	061H
	DB	06eH
	DB	020H
	DB	068H
	DB	061H
	DB	06eH
	DB	064H
	DB	06cH
	DB	065H
	DB	02eH
	DB	0aH
	DB	0aH
	DB	020H
	DB	020H
	DB	020H
	DB	020H
	DB	054H
	DB	068H
	DB	065H
	DB	020H
	DB	066H
	DB	069H
	DB	072H
	DB	073H
	DB	074H
	DB	020H
	DB	061H
	DB	072H
	DB	067H
	DB	075H
	DB	06dH
	DB	065H
	DB	06eH
	DB	074H
	DB	020H
	DB	028H
	DB	073H
	DB	065H
	DB	06cH
	DB	066H
	DB	029H
	DB	020H
	DB	06dH
	DB	075H
	DB	073H
	DB	074H
	DB	020H
	DB	064H
	DB	065H
	DB	066H
	DB	069H
	DB	06eH
	DB	065H
	DB	020H
	DB	05fH
	DB	06eH
	DB	061H
	DB	06dH
	DB	065H
	DB	020H
	DB	077H
	DB	068H
	DB	069H
	DB	063H
	DB	068H
	DB	020H
	DB	074H
	DB	068H
	DB	065H
	DB	020H
	DB	073H
	DB	065H
	DB	063H
	DB	06fH
	DB	06eH
	DB	064H
	DB	020H
	DB	061H
	DB	072H
	DB	067H
	DB	075H
	DB	06dH
	DB	065H
	DB	06eH
	DB	074H
	DB	020H
	DB	069H
	DB	073H
	DB	0aH
	DB	020H
	DB	020H
	DB	020H
	DB	020H
	DB	063H
	DB	06fH
	DB	06dH
	DB	070H
	DB	061H
	DB	072H
	DB	065H
	DB	064H
	DB	020H
	DB	061H
	DB	067H
	DB	061H
	DB	069H
	DB	06eH
	DB	073H
	DB	074H
	DB	02eH
	DB	020H
	DB	049H
	DB	066H
	DB	020H
	DB	074H
	DB	068H
	DB	065H
	DB	020H
	DB	063H
	DB	06fH
	DB	06dH
	DB	070H
	DB	061H
	DB	072H
	DB	069H
	DB	073H
	DB	06fH
	DB	06eH
	DB	020H
	DB	066H
	DB	061H
	DB	069H
	DB	06cH
	DB	073H
	DB	020H
	DB	074H
	DB	068H
	DB	065H
	DB	06eH
	DB	020H
	DB	049H
	DB	06dH
	DB	070H
	DB	06fH
	DB	072H
	DB	074H
	DB	045H
	DB	072H
	DB	072H
	DB	06fH
	DB	072H
	DB	020H
	DB	069H
	DB	073H
	DB	020H
	DB	072H
	DB	061H
	DB	069H
	DB	073H
	DB	065H
	DB	064H
	DB	02eH
	DB	0aH
	DB	0aH
	DB	020H
	DB	020H
	DB	020H
	DB	020H
	DB	063H
	DB	02H
	DB	00H
	DB	00H
	DB	00H
	DB	00H
	DB	00H
	DB	00H
	DB	00H
	DB	04H
	DB	00H
	DB	00H
	DB	00H
	DB	05H
	DB	00H
	DB	00H
	DB	00H
	DB	01fH
	DB	00H
	DB	00H
	DB	00H
	DB	073H
	DB	053H
	DB	00H
	DB	00H
	DB	00H
	DB	07cH
	DB	01H
	DB	00H
	DB	064H
	DB	00H
	DB	00H
	DB	06bH
	DB	08H
	DB	00H
	DB	072H
	DB	018H
	DB	00H
	DB	07cH
	DB	00H
	DB	00H
	DB	06aH
	DB	01H
	DB	00H
	DB	07dH
	DB	01H
	DB	00H
	DB	06eH
	DB	028H
	DB	00H
	DB	07cH
	DB	00H
	DB	00H
	DB	06aH
	DB	01H
	DB	00H
	DB	07cH
	DB	01H
	DB	00H
	DB	06bH
	DB	03H
	DB	00H
	DB	072H
	DB	040H
	DB	00H
	DB	074H
	DB	02H
	DB	00H
	DB	064H
	DB	01H
	DB	00H
	DB	07cH
	DB	01H
	DB	00H
	DB	016H
	DB	064H
	DB	02H
	DB	00H
	DB	07cH
	DB	01H
	DB	00H
	DB	083H
	DB	01H
	DB	01H
	DB	082H
	DB	01H
	DB	00H
	DB	06eH
	DB	00H
	DB	00H
	DB	088H
	DB	00H
	DB	00H
	DB	07cH
	DB	00H
	DB	00H
	DB	07cH
	DB	01H
	DB	00H
	DB	07cH
	DB	02H
	DB	00H
	DB	07cH
	DB	03H
	DB	00H
	DB	08eH
	DB	02H
	DB	00H
	DB	053H
	DB	028H
	DB	03H
	DB	00H
	DB	00H
	DB	00H
	DB	04eH
	DB	075H
	DB	017H
	DB	00H
	DB	00H
	DB	00H
	DB	06cH
	DB	06fH
	DB	061H
	DB	064H
	DB	065H
	DB	072H
	DB	020H
	DB	063H
	DB	061H
	DB	06eH
	DB	06eH
	DB	06fH
	DB	074H
	DB	020H
	DB	068H
	DB	061H
	DB	06eH
	DB	064H
	DB	06cH
	DB	065H
	DB	020H
	DB	025H
	DB	073H
	DB	075H
	DB	04H
	DB	00H
	DB	00H
	DB	00H
	DB	06eH
	DB	061H
	DB	06dH
	DB	065H
	DB	028H
	DB	03H
	DB	00H
	DB	00H
	DB	00H
	DB	075H
	DB	04H
	DB	00H
	DB	00H
	DB	00H
	DB	04eH
	DB	06fH
	DB	06eH
	DB	065H
	DB	075H
	DB	04H
	DB	00H
	DB	00H
	DB	00H
	DB	06eH
	DB	061H
	DB	06dH
	DB	065H
	DB	075H
	DB	0bH
	DB	00H
	DB	00H
	DB	00H
	DB	049H
	DB	06dH
	DB	070H
	DB	06fH
	DB	072H
	DB	074H
	DB	045H
	DB	072H
	DB	072H
	DB	06fH
	DB	072H
	DB	028H
	DB	04H
	DB	00H
	DB	00H
	DB	00H
	DB	075H
	DB	04H
	DB	00H
	DB	00H
	DB	00H
	DB	073H
	DB	065H
	DB	06cH
	DB	066H
	DB	075H
	DB	04H
	DB	00H
	DB	00H
	DB	00H
	DB	06eH
	DB	061H
	DB	06dH
	DB	065H
	DB	075H
	DB	04H
	DB	00H
	DB	00H
	DB	00H
	DB	061H
	DB	072H
	DB	067H
	DB	073H
	DB	075H
	DB	06H
	DB	00H
	DB	00H
	DB	00H
	DB	06bH
	DB	077H
	DB	061H
	DB	072H
	DB	067H
	DB	073H
	DB	028H
	DB	01H
	DB	00H
	DB	00H
	DB	00H
	DB	075H
	DB	06H
	DB	00H
	DB	00H
	DB	00H
	DB	06dH
	DB	065H
	DB	074H
	DB	068H
	DB	06fH
	DB	064H
	DB	028H
	DB	00H
	DB	00H
	DB	00H
	DB	00H
	DB	075H
	DB	01dH
	DB	00H
	DB	00H
	DB	00H
	DB	03cH
	DB	066H
	DB	072H
	DB	06fH
	DB	07aH
	DB	065H
	DB	06eH
	DB	020H
	DB	069H
	DB	06dH
	DB	070H
	DB	06fH
	DB	072H
	DB	074H
	DB	06cH
	DB	069H
	DB	062H
	DB	02eH
	DB	05fH
	DB	062H
	DB	06fH
	DB	06fH
	DB	074H
	DB	073H
	DB	074H
	DB	072H
	DB	061H
	DB	070H
	DB	03eH
	DB	075H
	DB	013H
	DB	00H
	DB	00H
	DB	00H
	DB	05fH
	DB	063H
	DB	068H
	DB	065H
	DB	063H
	DB	06bH
	DB	05fH
	DB	06eH
	DB	061H
	DB	06dH
	DB	065H
	DB	05fH
	DB	077H
	DB	072H
	DB	061H
	DB	070H
	DB	070H
	DB	065H
	DB	072H
	DB	043H
	DB	02H
	DB	00H
	DB	00H
	DB	073H
	DB	0aH
	DB	00H
	DB	00H
	DB	00H
	DB	00H
	DB	01H
	DB	0cH
	DB	01H
	DB	0cH
	DB	01H
	DB	0fH
	DB	01H
	DB	019H
	DB	01H
	DB	075H
	DB	028H
	DB	00H
	DB	00H
	DB	00H
	DB	05fH
	DB	063H
	DB	068H
	DB	065H
	DB	063H
	DB	06bH
	DB	05fH
	DB	06eH
	DB	061H
	DB	06dH
	DB	065H
	DB	02eH
	DB	03cH
	DB	06cH
	DB	06fH
	DB	063H
	DB	061H
	DB	06cH
	DB	073H
	DB	03eH
	DB	02eH
	DB	05fH
	DB	063H
	DB	068H
	DB	065H
	DB	063H
	DB	06bH
	DB	05fH
	DB	06eH
	DB	061H
	DB	06dH
	DB	065H
	DB	05fH
	DB	077H
	DB	072H
	DB	061H
	DB	070H
	DB	070H
	DB	065H
	DB	072H
	DB	04eH
	DB	028H
	DB	02H
	DB	00H
	DB	00H
	DB	00H
	DB	075H
	DB	04H
	DB	00H
	DB	00H
	DB	00H
	DB	04eH
	DB	06fH
	DB	06eH
	DB	065H
	DB	075H
	DB	05H
	DB	00H
	DB	00H
	DB	00H
	DB	05fH
	DB	077H
	DB	072H
	DB	061H
	DB	070H
	DB	028H
	DB	02H
	DB	00H
	DB	00H
	DB	00H
	DB	075H
	DB	06H
	DB	00H
	DB	00H
	DB	00H
	DB	06dH
	DB	065H
	DB	074H
	DB	068H
	DB	06fH
	DB	064H
	DB	075H
	DB	013H
	DB	00H
	DB	00H
	DB	00H
	DB	05fH
	DB	063H
	DB	068H
	DB	065H
	DB	063H
	DB	06bH
	DB	05fH
	DB	06eH
	DB	061H
	DB	06dH
	DB	065H
	DB	05fH
	DB	077H
	DB	072H
	DB	061H
	DB	070H
	DB	070H
	DB	065H
	DB	072H
	DB	028H
	DB	00H
	DB	00H
	DB	00H
	DB	00H
	DB	028H
	DB	01H
	DB	00H
	DB	00H
	DB	00H
	DB	075H
	DB	06H
	DB	00H
	DB	00H
	DB	00H
	DB	06dH
	DB	065H
	DB	074H
	DB	068H
	DB	06fH
	DB	064H
	DB	075H
	DB	01dH
	DB	00H
	DB	00H
	DB	00H
	DB	03cH
	DB	066H
	DB	072H
	DB	06fH
	DB	07aH
	DB	065H
	DB	06eH
	DB	020H
	DB	069H
	DB	06dH
	DB	070H
	DB	06fH
	DB	072H
	DB	074H
	DB	06cH
	DB	069H
	DB	062H
	DB	02eH
	DB	05fH
	DB	062H
	DB	06fH
	DB	06fH
	DB	074H
	DB	073H
	DB	074H
	DB	072H
	DB	061H
	DB	070H
	DB	03eH
	DB	075H
	DB	0bH
	DB	00H
	DB	00H
	DB	00H
	DB	05fH
	DB	063H
	DB	068H
	DB	065H
	DB	063H
	DB	06bH
	DB	05fH
	DB	06eH
	DB	061H
	DB	06dH
	DB	065H
	DB	03bH
	DB	02H
	DB	00H
	DB	00H
	DB	073H
	DB	06H
	DB	00H
	DB	00H
	DB	00H
	DB	00H
	DB	08H
	DB	015H
	DB	06H
	DB	0dH
	DB	01H
	DB	075H
	DB	0bH
	DB	00H
	DB	00H
	DB	00H
	DB	05fH
	DB	063H
	DB	068H
	DB	065H
	DB	063H
	DB	06bH
	DB	05fH
	DB	06eH
	DB	061H
	DB	06dH
	DB	065H
	DB	063H
	DB	01H
	DB	00H
	DB	00H
	DB	00H
	DB	00H
	DB	00H
	DB	00H
	DB	00H
	DB	02H
	DB	00H
	DB	00H
	DB	00H
	DB	03H
	DB	00H
	DB	00H
	DB	00H
	DB	03H
	DB	00H
	DB	00H
	DB	00H
	DB	073H
	DB	023H
	DB	00H
	DB	00H
	DB	00H
	DB	087H
	DB	00H
	DB	00H
	DB	066H
	DB	01H
	DB	00H
	DB	064H
	DB	01H
	DB	00H
	DB	064H
	DB	02H
	DB	00H
	DB	086H
	DB	00H
	DB	00H
	DB	07dH
	DB	01H
	DB	00H
	DB	074H
	DB	00H
	DB	00H
	DB	07cH
	DB	01H
	DB	00H
	DB	088H
	DB	00H
	DB	00H
	DB	083H
	DB	02H
	DB	00H
	DB	01H
	DB	07cH
	DB	01H
	DB	00H
	DB	053H
	DB	028H
	DB	03H
	DB	00H
	DB	00H
	DB	00H
	DB	075H
	DB	031H
	DB	00H
	DB	00H
	DB	00H
	DB	044H
	DB	065H
	DB	063H
	DB	06fH
	DB	072H
	DB	061H
	DB	074H
	DB	06fH
	DB	072H
	DB	020H
	DB	074H
	DB	06fH
	DB	020H
	DB	076H
	DB	065H
	DB	072H
	DB	069H
	DB	066H
	DB	079H
	DB	020H
	DB	074H
	DB	068H
	DB	065H
	DB	020H
	DB	06eH
	DB	061H
	DB	06dH
	DB	065H
	DB	064H
	DB	020H
	DB	06dH
	DB	06fH
	DB	064H
	DB	075H
	DB	06cH
	DB	065H
	DB	020H
	DB	069H
	DB	073H
	DB	020H
	DB	062H
	DB	075H
	DB	069H
	DB	06cH
	DB	074H
	DB	02dH
	DB	069H
	DB	06eH
	DB	02eH
	DB	063H
	DB	02H
	DB	00H
	DB	00H
	DB	00H
	DB	00H
	DB	00H
	DB	00H
	DB	00H
	DB	02H
	DB	00H
	DB	00H
	DB	00H
	DB	04H
	DB	00H
	DB	00H
	DB	00H
	DB	013H
	DB	00H
	DB	00H
	DB	00H
	DB	073H
	DB	03aH
	DB	00H
	DB	00H
	DB	00H
	DB	07cH
	DB	01H
	DB	00H
	DB	074H
	DB	00H
	DB	00H
	DB	06aH
	DB	01H
	DB	00H
	DB	06bH
	DB	07H
	DB	00H
	DB	072H
	DB	02dH
	DB	00H
	DB	074H
	DB	02H
	DB	00H
	DB	064H
	DB	01H
	DB	00H
	DB	06aH
	DB	03H
	DB	00H
	DB	07cH
	DB	01H
	DB	00H
	DB	083H
	DB	01H
	DB	00H
	DB	064H
	DB	02H
	DB	00H
	DB	07cH
	DB	01H
	DB	00H
	DB	083H
	DB	01H
	DB	01H
	DB	082H
	DB	01H
	DB	00H
	DB	06eH
	DB	00H
	DB	00H
	DB	088H
	DB	00H
	DB	00H
	DB	07cH
	DB	00H
	DB	00H
	DB	07cH
	DB	01H
	DB	00H
	DB	083H
	DB	02H
	DB	00H
	DB	053H
	DB	028H
	DB	03H
	DB	00H
	DB	00H
	DB	00H
	DB	04eH
	DB	075H
	DB	01bH
	DB	00H
	DB	00H
	DB	00H
	DB	07bH
	DB	07dH
	DB	020H
	DB	069H
	DB	073H
	DB	020H
	DB	06eH
	DB	06fH
	DB	074H
	DB	020H
	DB	061H
	DB	020H
	DB	062H
	DB	075H
	DB	069H
	DB	06cH
	DB	074H
	DB	02dH
	DB	069H
	DB	06eH
	DB	020H
	DB	06dH
	DB	06fH
	DB	064H
	DB	075H
	DB	06cH
	DB	065H
	DB	075H
	DB	04H
	DB	00H
	DB	00H
	DB	00H
	DB	06eH
	DB	061H
	DB	06dH
	DB	065H
	DB	028H
	DB	04H
	DB	00H
	DB	00H
	DB	00H
	DB	075H
	DB	03H
	DB	00H
	DB	00H
	DB	00H
	DB	073H
	DB	079H
	DB	073H
	DB	075H
	DB	014H
	DB	00H
	DB	00H
	DB	00H
	DB	062H
	DB	075H
	DB	069H
	DB	06cH
	DB	074H
	DB	069H
	DB	06eH
	DB	05fH
	DB	06dH
	DB	06fH
	DB	064H
	DB	075H
	DB	06cH
	DB	065H
	DB	05fH
	DB	06eH
	DB	061H
	DB	06dH
	DB	065H
	DB	073H
	DB	075H
	DB	0bH
	DB	00H
	DB	00H
	DB	00H
	DB	049H
	DB	06dH
	DB	070H
	DB	06fH
	DB	072H
	DB	074H
	DB	045H
	DB	072H
	DB	072H
	DB	06fH
	DB	072H
	DB	075H
	DB	06H
	DB	00H
	DB	00H
	DB	00H
	DB	066H
	DB	06fH
	DB	072H
	DB	06dH
	DB	061H
	DB	074H
	DB	028H
	DB	02H
	DB	00H
	DB	00H
	DB	00H
	DB	075H
	DB	04H
	DB	00H
	DB	00H
	DB	00H
	DB	073H
	DB	065H
	DB	06cH
	DB	066H
	DB	075H
	DB	08H
	DB	00H
	DB	00H
	DB	00H
	DB	066H
	DB	075H
	DB	06cH
	DB	06cH
	DB	06eH
	DB	061H
	DB	06dH
	DB	065H
	DB	028H
	DB	01H
	DB	00H
	DB	00H
	DB	00H
	DB	075H
	DB	03H
	DB	00H
	DB	00H
	DB	00H
	DB	066H
	DB	078H
	DB	06eH
	DB	028H
	DB	00H
	DB	00H
	DB	00H
	DB	00H
	DB	075H
	DB	01dH
	DB	00H
	DB	00H
	DB	00H
	DB	03cH
	DB	066H
	DB	072H
	DB	06fH
	DB	07aH
	DB	065H
	DB	06eH
	DB	020H
	DB	069H
	DB	06dH
	DB	070H
	DB	06fH
	DB	072H
	DB	074H
	DB	06cH
	DB	069H
	DB	062H
	DB	02eH
	DB	05fH
	DB	062H
	DB	06fH
	DB	06fH
	DB	074H
	DB	073H
	DB	074H
	DB	072H
	DB	061H
	DB	070H
	DB	03eH
	DB	075H
	DB	019H
	DB	00H
	DB	00H
	DB	00H
	DB	05fH
	DB	072H
	DB	065H
	DB	071H
	DB	075H
	DB	069H
	DB	072H
	DB	065H
	DB	073H
	DB	05fH
	DB	062H
	DB	075H
	DB	069H
	DB	06cH
	DB	074H
	DB	069H
	DB	06eH
	DB	05fH
	DB	077H
	DB	072H
	DB	061H
	DB	070H
	DB	070H
	DB	065H
	DB	072H
	DB	04fH
	DB	02H
	DB	00H
	DB	00H
	DB	073H
	DB	08H
	DB	00H
	DB	00H
	DB	00H
	DB	00H
	DB	01H
	DB	0fH
	DB	01H
	DB	012H
	DB	01H
	DB	0cH
	DB	01H
	DB	075H
	DB	034H
	DB	00H
	DB	00H
	DB	00H
	DB	05fH
	DB	072H
	DB	065H
	DB	071H
	DB	075H
	DB	069H
	DB	072H
	DB	065H
	DB	073H
	DB	05fH
	DB	062H
	DB	075H
	DB	069H
	DB	06cH
	DB	074H
	DB	069H
	DB	06eH
	DB	02eH
	DB	03cH
	DB	06cH
	DB	06fH
	DB	063H
	DB	061H
	DB	06cH
	DB	073H
	DB	03eH
	DB	02eH
	DB	05fH
	DB	072H
	DB	065H
	DB	071H
	DB	075H
	DB	069H
	DB	072H
	DB	065H
	DB	073H
	DB	05fH
	DB	062H
	DB	075H
	DB	069H
	DB	06cH
	DB	074H
	DB	069H
	DB	06eH
	DB	05fH
	DB	077H
	DB	072H
	DB	061H
	DB	070H
	DB	070H
	DB	065H
	DB	072H
	DB	028H
	DB	01H
	DB	00H
	DB	00H
	DB	00H
	DB	075H
	DB	05H
	DB	00H
	DB	00H
	DB	00H
	DB	05fH
	DB	077H
	DB	072H
	DB	061H
	DB	070H
	DB	028H
	DB	02H
	DB	00H
	DB	00H
	DB	00H
	DB	075H
	DB	03H
	DB	00H
	DB	00H
	DB	00H
	DB	066H
	DB	078H
	DB	06eH
	DB	075H
	DB	019H
	DB	00H
	DB	00H
	DB	00H
	DB	05fH
	DB	072H
	DB	065H
	DB	071H
	DB	075H
	DB	069H
	DB	072H
	DB	065H
	DB	073H
	DB	05fH
	DB	062H
	DB	075H
	DB	069H
	DB	06cH
	DB	074H
	DB	069H
	DB	06eH
	DB	05fH
	DB	077H
	DB	072H
	DB	061H
	DB	070H
	DB	070H
	DB	065H
	DB	072H
	DB	028H
	DB	00H
	DB	00H
	DB	00H
	DB	00H
	DB	028H
	DB	01H
	DB	00H
	DB	00H
	DB	00H
	DB	075H
	DB	03H
	DB	00H
	DB	00H
	DB	00H
	DB	066H
	DB	078H
	DB	06eH
	DB	075H
	DB	01dH
	DB	00H
	DB	00H
	DB	00H
	DB	03cH
	DB	066H
	DB	072H
	DB	06fH
	DB	07aH
	DB	065H
	DB	06eH
	DB	020H
	DB	069H
	DB	06dH
	DB	070H
	DB	06fH
	DB	072H
	DB	074H
	DB	06cH
	DB	069H
	DB	062H
	DB	02eH
	DB	05fH
	DB	062H
	DB	06fH
	DB	06fH
	DB	074H
	DB	073H
	DB	074H
	DB	072H
	DB	061H
	DB	070H
	DB	03eH
	DB	075H
	DB	011H
	DB	00H
	DB	00H
	DB	00H
	DB	05fH
	DB	072H
	DB	065H
	DB	071H
	DB	075H
	DB	069H
	DB	072H
	DB	065H
	DB	073H
	DB	05fH
	DB	062H
	DB	075H
	DB	069H
	DB	06cH
	DB	074H
	DB	069H
	DB	06eH
	DB	04dH
	DB	02H
	DB	00H
	DB	00H
	DB	073H
	DB	06H
	DB	00H
	DB	00H
	DB	00H
	DB	00H
	DB	02H
	DB	012H
	DB	05H
	DB	0dH
	DB	01H
	DB	075H
	DB	011H
	DB	00H
	DB	00H
	DB	00H
	DB	05fH
	DB	072H
	DB	065H
	DB	071H
	DB	075H
	DB	069H
	DB	072H
	DB	065H
	DB	073H
	DB	05fH
	DB	062H
	DB	075H
	DB	069H
	DB	06cH
	DB	074H
	DB	069H
	DB	06eH
	DB	063H
	DB	01H
	DB	00H
	DB	00H
	DB	00H
	DB	00H
	DB	00H
	DB	00H
	DB	00H
	DB	02H
	DB	00H
	DB	00H
	DB	00H
	DB	03H
	DB	00H
	DB	00H
	DB	00H
	DB	03H
	DB	00H
	DB	00H
	DB	00H
	DB	073H
	DB	023H
	DB	00H
	DB	00H
	DB	00H
	DB	087H
	DB	00H
	DB	00H
	DB	066H
	DB	01H
	DB	00H
	DB	064H
	DB	01H
	DB	00H
	DB	064H
	DB	02H
	DB	00H
	DB	086H
	DB	00H
	DB	00H
	DB	07dH
	DB	01H
	DB	00H
	DB	074H
	DB	00H
	DB	00H
	DB	07cH
	DB	01H
	DB	00H
	DB	088H
	DB	00H
	DB	00H
	DB	083H
	DB	02H
	DB	00H
	DB	01H
	DB	07cH
	DB	01H
	DB	00H
	DB	053H
	DB	028H
	DB	03H
	DB	00H
	DB	00H
	DB	00H
	DB	075H
	DB	02fH
	DB	00H
	DB	00H
	DB	00H
	DB	044H
	DB	065H
	DB	063H
	DB	06fH
	DB	072H
	DB	061H
	DB	074H
	DB	06fH
	DB	072H
	DB	020H
	DB	074H
	DB	06fH
	DB	020H
	DB	076H
	DB	065H
	DB	072H
	DB	069H
	DB	066H
	DB	079H
	DB	020H
	DB	074H
	DB	068H
	DB	065H
	DB	020H
	DB	06eH
	DB	061H
	DB	06dH
	DB	065H
	DB	064H
	DB	020H
	DB	06dH
	DB	06fH
	DB	064H
	DB	075H
	DB	06cH
	DB	065H
	DB	020H
	DB	069H
	DB	073H
	DB	020H
	DB	066H
	DB	072H
	DB	06fH
	DB	07aH
	DB	065H
	DB	06eH
	DB	02eH
	DB	063H
	DB	02H
	DB	00H
	DB	00H
	DB	00H
	DB	00H
	DB	00H
	DB	00H
	DB	00H
	DB	02H
	DB	00H
	DB	00H
	DB	00H
	DB	04H
	DB	00H
	DB	00H
	DB	00H
	DB	013H
	DB	00H
	DB	00H
	DB	00H
	DB	073H
	DB	03aH
	DB	00H
	DB	00H
	DB	00H
	DB	074H
	DB	00H
	DB	00H
	DB	06aH
	DB	01H
	DB	00H
	DB	07cH
	DB	01H
	DB	00H
	DB	083H
	DB	01H
	DB	00H
	DB	073H
	DB	02dH
	DB	00H
	DB	074H
	DB	02H
	DB	00H
	DB	064H
	DB	01H
	DB	00H
	DB	06aH
	DB	03H
	DB	00H
	DB	07cH
	DB	01H
	DB	00H
	DB	083H
	DB	01H
	DB	00H
	DB	064H
	DB	02H
	DB	00H
	DB	07cH
	DB	01H
	DB	00H
	DB	083H
	DB	01H
	DB	01H
	DB	082H
	DB	01H
	DB	00H
	DB	06eH
	DB	00H
	DB	00H
	DB	088H
	DB	00H
	DB	00H
	DB	07cH
	DB	00H
	DB	00H
	DB	07cH
	DB	01H
	DB	00H
	DB	083H
	DB	02H
	DB	00H
	DB	053H
	DB	028H
	DB	03H
	DB	00H
	DB	00H
	DB	00H
	DB	04eH
	DB	075H
	DB	019H
	DB	00H
	DB	00H
	DB	00H
	DB	07bH
	DB	07dH
	DB	020H
	DB	069H
	DB	073H
	DB	020H
	DB	06eH
	DB	06fH
	DB	074H
	DB	020H
	DB	061H
	DB	020H
	DB	066H
	DB	072H
	DB	06fH
	DB	07aH
	DB	065H
	DB	06eH
	DB	020H
	DB	06dH
	DB	06fH
	DB	064H
	DB	075H
	DB	06cH
	DB	065H
	DB	075H
	DB	04H
	DB	00H
	DB	00H
	DB	00H
	DB	06eH
	DB	061H
	DB	06dH
	DB	065H
	DB	028H
	DB	04H
	DB	00H
	DB	00H
	DB	00H
	DB	075H
	DB	04H
	DB	00H
	DB	00H
	DB	00H
	DB	05fH
	DB	069H
	DB	06dH
	DB	070H
	DB	075H
	DB	09H
	DB	00H
	DB	00H
	DB	00H
	DB	069H
	DB	073H
	DB	05fH
	DB	066H
	DB	072H
	DB	06fH
	DB	07aH
	DB	065H
	DB	06eH
	DB	075H
	DB	0bH
	DB	00H
	DB	00H
	DB	00H
	DB	049H
	DB	06dH
	DB	070H
	DB	06fH
	DB	072H
	DB	074H
	DB	045H
	DB	072H
	DB	072H
	DB	06fH
	DB	072H
	DB	075H
	DB	06H
	DB	00H
	DB	00H
	DB	00H
	DB	066H
	DB	06fH
	DB	072H
	DB	06dH
	DB	061H
	DB	074H
	DB	028H
	DB	02H
	DB	00H
	DB	00H
	DB	00H
	DB	075H
	DB	04H
	DB	00H
	DB	00H
	DB	00H
	DB	073H
	DB	065H
	DB	06cH
	DB	066H
	DB	075H
	DB	08H
	DB	00H
	DB	00H
	DB	00H
	DB	066H
	DB	075H
	DB	06cH
	DB	06cH
	DB	06eH
	DB	061H
	DB	06dH
	DB	065H
	DB	028H
	DB	01H
	DB	00H
	DB	00H
	DB	00H
	DB	075H
	DB	03H
	DB	00H
	DB	00H
	DB	00H
	DB	066H
	DB	078H
	DB	06eH
	DB	028H
	DB	00H
	DB	00H
	DB	00H
	DB	00H
	DB	075H
	DB	01dH
	DB	00H
	DB	00H
	DB	00H
	DB	03cH
	DB	066H
	DB	072H
	DB	06fH
	DB	07aH
	DB	065H
	DB	06eH
	DB	020H
	DB	069H
	DB	06dH
	DB	070H
	DB	06fH
	DB	072H
	DB	074H
	DB	06cH
	DB	069H
	DB	062H
	DB	02eH
	DB	05fH
	DB	062H
	DB	06fH
	DB	06fH
	DB	074H
	DB	073H
	DB	074H
	DB	072H
	DB	061H
	DB	070H
	DB	03eH
	DB	075H
	DB	018H
	DB	00H
	DB	00H
	DB	00H
	DB	05fH
	DB	072H
	DB	065H
	DB	071H
	DB	075H
	DB	069H
	DB	072H
	DB	065H
	DB	073H
	DB	05fH
	DB	066H
	DB	072H
	DB	06fH
	DB	07aH
	DB	065H
	DB	06eH
	DB	05fH
	DB	077H
	DB	072H
	DB	061H
	DB	070H
	DB	070H
	DB	065H
	DB	072H
	DB	05aH
	DB	02H
	DB	00H
	DB	00H
	DB	073H
	DB	08H
	DB	00H
	DB	00H
	DB	00H
	DB	00H
	DB	01H
	DB	0fH
	DB	01H
	DB	012H
	DB	01H
	DB	0cH
	DB	01H
	DB	075H
	DB	032H
	DB	00H
	DB	00H
	DB	00H
	DB	05fH
	DB	072H
	DB	065H
	DB	071H
	DB	075H
	DB	069H
	DB	072H
	DB	065H
	DB	073H
	DB	05fH
	DB	066H
	DB	072H
	DB	06fH
	DB	07aH
	DB	065H
	DB	06eH
	DB	02eH
	DB	03cH
	DB	06cH
	DB	06fH
	DB	063H
	DB	061H
	DB	06cH
	DB	073H
	DB	03eH
	DB	02eH
	DB	05fH
	DB	072H
	DB	065H
	DB	071H
	DB	075H
	DB	069H
	DB	072H
	DB	065H
	DB	073H
	DB	05fH
	DB	066H
	DB	072H
	DB	06fH
	DB	07aH
	DB	065H
	DB	06eH
	DB	05fH
	DB	077H
	DB	072H
	DB	061H
	DB	070H
	DB	070H
	DB	065H
	DB	072H
	DB	028H
	DB	01H
	DB	00H
	DB	00H
	DB	00H
	DB	075H
	DB	05H
	DB	00H
	DB	00H
	DB	00H
	DB	05fH
	DB	077H
	DB	072H
	DB	061H
	DB	070H
	DB	028H
	DB	02H
	DB	00H
	DB	00H
	DB	00H
	DB	075H
	DB	03H
	DB	00H
	DB	00H
	DB	00H
	DB	066H
	DB	078H
	DB	06eH
	DB	075H
	DB	018H
	DB	00H
	DB	00H
	DB	00H
	DB	05fH
	DB	072H
	DB	065H
	DB	071H
	DB	075H
	DB	069H
	DB	072H
	DB	065H
	DB	073H
	DB	05fH
	DB	066H
	DB	072H
	DB	06fH
	DB	07aH
	DB	065H
	DB	06eH
	DB	05fH
	DB	077H
	DB	072H
	DB	061H
	DB	070H
	DB	070H
	DB	065H
	DB	072H
	DB	028H
	DB	00H
	DB	00H
	DB	00H
	DB	00H
	DB	028H
	DB	01H
	DB	00H
	DB	00H
	DB	00H
	DB	075H
	DB	03H
	DB	00H
	DB	00H
	DB	00H
	DB	066H
	DB	078H
	DB	06eH
	DB	075H
	DB	01dH
	DB	00H
	DB	00H
	DB	00H
	DB	03cH
	DB	066H
	DB	072H
	DB	06fH
	DB	07aH
	DB	065H
	DB	06eH
	DB	020H
	DB	069H
	DB	06dH
	DB	070H
	DB	06fH
	DB	072H
	DB	074H
	DB	06cH
	DB	069H
	DB	062H
	DB	02eH
	DB	05fH
	DB	062H
	DB	06fH
	DB	06fH
	DB	074H
	DB	073H
	DB	074H
	DB	072H
	DB	061H
	DB	070H
	DB	03eH
	DB	075H
	DB	010H
	DB	00H
	DB	00H
	DB	00H
	DB	05fH
	DB	072H
	DB	065H
	DB	071H
	DB	075H
	DB	069H
	DB	072H
	DB	065H
	DB	073H
	DB	05fH
	DB	066H
	DB	072H
	DB	06fH
	DB	07aH
	DB	065H
	DB	06eH
	DB	058H
	DB	02H
	DB	00H
	DB	00H
	DB	073H
	DB	06H
	DB	00H
	DB	00H
	DB	00H
	DB	00H
	DB	02H
	DB	012H
	DB	05H
	DB	0dH
	DB	01H
	DB	075H
	DB	010H
	DB	00H
	DB	00H
	DB	00H
	DB	05fH
	DB	072H
	DB	065H
	DB	071H
	DB	075H
	DB	069H
	DB	072H
	DB	065H
	DB	073H
	DB	05fH
	DB	066H
	DB	072H
	DB	06fH
	DB	07aH
	DB	065H
	DB	06eH
	DB	063H
	DB	02H
	DB	00H
	DB	00H
	DB	00H
	DB	00H
	DB	00H
	DB	00H
	DB	00H
	DB	05H
	DB	00H
	DB	00H
	DB	00H
	DB	05H
	DB	00H
	DB	00H
	DB	00H
	DB	043H
	DB	00H
	DB	00H
	DB	00H
	DB	073H
	DB	057H
	DB	00H
	DB	00H
	DB	00H
	DB	07cH
	DB	00H
	DB	00H
	DB	06aH
	DB	00H
	DB	00H
	DB	07cH
	DB	01H
	DB	00H
	DB	083H
	DB	01H
	DB	00H
	DB	05cH
	DB	02H
	DB	00H
	DB	07dH
	DB	02H
	DB	00H
	DB	07dH
	DB	03H
	DB	00H
	DB	07cH
	DB	02H
	DB	00H
	DB	064H
	DB	03H
	DB	00H
	DB	06bH
	DB	08H
	DB	00H
	DB	072H
	DB	053H
	DB	00H
	DB	074H
	DB	02H
	DB	00H
	DB	07cH
	DB	03H
	DB	00H
	DB	083H
	DB	01H
	DB	00H
	DB	072H
	DB	053H
	DB	00H
	DB	064H
	DB	01H
	DB	00H
	DB	07dH
	DB	04H
	DB	00H
	DB	074H
	DB	03H
	DB	00H
	DB	06aH
	DB	04H
	DB	00H
	DB	07cH
	DB	04H
	DB	00H
	DB	06aH
	DB	05H
	DB	00H
	DB	07cH
	DB	03H
	DB	00H
	DB	064H
	DB	02H
	DB	00H
	DB	019H
	DB	083H
	DB	01H
	DB	00H
	DB	074H
	DB	06H
	DB	00H
	DB	083H
	DB	02H
	DB	00H
	DB	01H
	DB	06eH
	DB	00H
	DB	00H
	DB	07cH
	DB	02H
	DB	00H
	DB	053H
	DB	028H
	DB	04H
	DB	00H
	DB	00H
	DB	00H
	DB	075H
	DB	056H
	DB	00H
	DB	00H
	DB	00H
	DB	054H
	DB	072H
	DB	079H
	DB	020H
	DB	074H
	DB	06fH
	DB	020H
	DB	066H
	DB	069H
	DB	06eH
	DB	064H
	DB	020H
	DB	061H
	DB	020H
	DB	06cH
	DB	06fH
	DB	061H
	DB	064H
	DB	065H
	DB	072H
	DB	020H
	DB	066H
	DB	06fH
	DB	072H
	DB	020H
	DB	074H
	DB	068H
	DB	065H
	DB	020H
	DB	073H
	DB	070H
	DB	065H
	DB	063H
	DB	069H
	DB	066H
	DB	069H
	DB	065H
	DB	064H
	DB	020H
	DB	06dH
	DB	06fH
	DB	064H
	DB	075H
	DB	06cH
	DB	065H
	DB	020H
	DB	062H
	DB	079H
	DB	020H
	DB	064H
	DB	065H
	DB	06cH
	DB	065H
	DB	067H
	DB	061H
	DB	074H
	DB	069H
	DB	06eH
	DB	067H
	DB	020H
	DB	074H
	DB	06fH
	DB	0aH
	DB	020H
	DB	020H
	DB	020H
	DB	020H
	DB	073H
	DB	065H
	DB	06cH
	DB	066H
	DB	02eH
	DB	066H
	DB	069H
	DB	06eH
	DB	064H
	DB	05fH
	DB	06cH
	DB	06fH
	DB	061H
	DB	064H
	DB	065H
	DB	072H
	DB	028H
	DB	029H
	DB	02eH
	DB	075H
	DB	02cH
	DB	00H
	DB	00H
	DB	00H
	DB	04eH
	DB	06fH
	DB	074H
	DB	020H
	DB	069H
	DB	06dH
	DB	070H
	DB	06fH
	DB	072H
	DB	074H
	DB	069H
	DB	06eH
	DB	067H
	DB	020H
	DB	064H
	DB	069H
	DB	072H
	DB	065H
	DB	063H
	DB	074H
	DB	06fH
	DB	072H
	DB	079H
	DB	020H
	DB	07bH
	DB	07dH
	DB	03aH
	DB	020H
	DB	06dH
	DB	069H
	DB	073H
	DB	073H
	DB	069H
	DB	06eH
	DB	067H
	DB	020H
	DB	05fH
	DB	05fH
	DB	069H
	DB	06eH
	DB	069H
	DB	074H
	DB	05fH
	DB	05fH
	DB	069H
	DB	00H
	DB	00H
	DB	00H
	DB	00H
	DB	04eH
	DB	028H
	DB	07H
	DB	00H
	DB	00H
	DB	00H
	DB	075H
	DB	0bH
	DB	00H
	DB	00H
	DB	00H
	DB	066H
	DB	069H
	DB	06eH
	DB	064H
	DB	05fH
	DB	06cH
	DB	06fH
	DB	061H
	DB	064H
	DB	065H
	DB	072H
	DB	075H
	DB	04H
	DB	00H
	DB	00H
	DB	00H
	DB	04eH
	DB	06fH
	DB	06eH
	DB	065H
	DB	075H
	DB	03H
	DB	00H
	DB	00H
	DB	00H
	DB	06cH
	DB	065H
	DB	06eH
	DB	075H
	DB	09H
	DB	00H
	DB	00H
	DB	00H
	DB	05fH
	DB	077H
	DB	061H
	DB	072H
	DB	06eH
	DB	069H
	DB	06eH
	DB	067H
	DB	073H
	DB	075H
	DB	04H
	DB	00H
	DB	00H
	DB	00H
	DB	077H
	DB	061H
	DB	072H
	DB	06eH
	DB	075H
	DB	06H
	DB	00H
	DB	00H
	DB	00H
	DB	066H
	DB	06fH
	DB	072H
	DB	06dH
	DB	061H
	DB	074H
	DB	075H
	DB	0dH
	DB	00H
	DB	00H
	DB	00H
	DB	049H
	DB	06dH
	DB	070H
	DB	06fH
	DB	072H
	DB	074H
	DB	057H
	DB	061H
	DB	072H
	DB	06eH
	DB	069H
	DB	06eH
	DB	067H
	DB	028H
	DB	05H
	DB	00H
	DB	00H
	DB	00H
	DB	075H
	DB	04H
	DB	00H
	DB	00H
	DB	00H
	DB	073H
	DB	065H
	DB	06cH
	DB	066H
	DB	075H
	DB	08H
	DB	00H
	DB	00H
	DB	00H
	DB	066H
	DB	075H
	DB	06cH
	DB	06cH
	DB	06eH
	DB	061H
	DB	06dH
	DB	065H
	DB	075H
	DB	06H
	DB	00H
	DB	00H
	DB	00H
	DB	06cH
	DB	06fH
	DB	061H
	DB	064H
	DB	065H
	DB	072H
	DB	075H
	DB	08H
	DB	00H
	DB	00H
	DB	00H
	DB	070H
	DB	06fH
	DB	072H
	DB	074H
	DB	069H
	DB	06fH
	DB	06eH
	DB	073H
	DB	075H
	DB	03H
	DB	00H
	DB	00H
	DB	00H
	DB	06dH
	DB	073H
	DB	067H
	DB	028H
	DB	00H
	DB	00H
	DB	00H
	DB	00H
	DB	028H
	DB	00H
	DB	00H
	DB	00H
	DB	00H
	DB	075H
	DB	01dH
	DB	00H
	DB	00H
	DB	00H
	DB	03cH
	DB	066H
	DB	072H
	DB	06fH
	DB	07aH
	DB	065H
	DB	06eH
	DB	020H
	DB	069H
	DB	06dH
	DB	070H
	DB	06fH
	DB	072H
	DB	074H
	DB	06cH
	DB	069H
	DB	062H
	DB	02eH
	DB	05fH
	DB	062H
	DB	06fH
	DB	06fH
	DB	074H
	DB	073H
	DB	074H
	DB	072H
	DB	061H
	DB	070H
	DB	03eH
	DB	075H
	DB	011H
	DB	00H
	DB	00H
	DB	00H
	DB	05fH
	DB	066H
	DB	069H
	DB	06eH
	DB	064H
	DB	05fH
	DB	06dH
	DB	06fH
	DB	064H
	DB	075H
	DB	06cH
	DB	065H
	DB	05fH
	DB	073H
	DB	068H
	DB	069H
	DB	06dH
	DB	063H
	DB	02H
	DB	00H
	DB	00H
	DB	073H
	DB	0aH
	DB	00H
	DB	00H
	DB	00H
	DB	00H
	DB	06H
	DB	015H
	DB	01H
	DB	018H
	DB	01H
	DB	06H
	DB	01H
	DB	020H
	DB	01H
	DB	075H
	DB	011H
	DB	00H
	DB	00H
	DB	00H
	DB	05fH
	DB	066H
	DB	069H
	DB	06eH
	DB	064H
	DB	05fH
	DB	06dH
	DB	06fH
	DB	064H
	DB	075H
	DB	06cH
	DB	065H
	DB	05fH
	DB	073H
	DB	068H
	DB	069H
	DB	06dH
	DB	063H
	DB	01H
	DB	00H
	DB	00H
	DB	00H
	DB	00H
	DB	00H
	DB	00H
	DB	00H
	DB	01H
	DB	00H
	DB	00H
	DB	00H
	DB	06H
	DB	00H
	DB	00H
	DB	00H
	DB	042H
	DB	00H
	DB	00H
	DB	00H
	DB	073H
	DB	0adH
	DB	00H
	DB	00H
	DB	00H
	DB	07cH
	DB	00H
	DB	00H
	DB	045H
	DB	065H
	DB	00H
	DB	00H
	DB	05aH
	DB	01H
	DB	00H
	DB	064H
	DB	00H
	DB	00H
	DB	05aH
	DB	02H
	DB	00H
	DB	064H
	DB	01H
	DB	00H
	DB	05aH
	DB	03H
	DB	00H
	DB	065H
	DB	04H
	DB	00H
	DB	064H
	DB	02H
	DB	00H
	DB	064H
	DB	03H
	DB	00H
	DB	084H
	DB	00H
	DB	00H
	DB	083H
	DB	01H
	DB	00H
	DB	05aH
	DB	05H
	DB	00H
	DB	065H
	DB	04H
	DB	00H
	DB	064H
	DB	0eH
	DB	00H
	DB	064H
	DB	04H
	DB	00H
	DB	064H
	DB	05H
	DB	00H
	DB	084H
	DB	01H
	DB	00H
	DB	083H
	DB	01H
	DB	00H
	DB	05aH
	DB	07H
	DB	00H
	DB	065H
	DB	04H
	DB	00H
	DB	065H
	DB	08H
	DB	00H
	DB	065H
	DB	09H
	DB	00H
	DB	065H
	DB	0aH
	DB	00H
	DB	064H
	DB	06H
	DB	00H
	DB	064H
	DB	07H
	DB	00H
	DB	084H
	DB	00H
	DB	00H
	DB	083H
	DB	01H
	DB	00H
	DB	083H
	DB	01H
	DB	00H
	DB	083H
	DB	01H
	DB	00H
	DB	083H
	DB	01H
	DB	00H
	DB	05aH
	DB	0bH
	DB	00H
	DB	065H
	DB	04H
	DB	00H
	DB	065H
	DB	0aH
	DB	00H
	DB	064H
	DB	08H
	DB	00H
	DB	064H
	DB	09H
	DB	00H
	DB	084H
	DB	00H
	DB	00H
	DB	083H
	DB	01H
	DB	00H
	DB	083H
	DB	01H
	DB	00H
	DB	05aH
	DB	0cH
	DB	00H
	DB	065H
	DB	04H
	DB	00H
	DB	065H
	DB	0aH
	DB	00H
	DB	064H
	DB	0aH
	DB	00H
	DB	064H
	DB	0bH
	DB	00H
	DB	084H
	DB	00H
	DB	00H
	DB	083H
	DB	01H
	DB	00H
	DB	083H
	DB	01H
	DB	00H
	DB	05aH
	DB	0dH
	DB	00H
	DB	065H
	DB	04H
	DB	00H
	DB	065H
	DB	0aH
	DB	00H
	DB	064H
	DB	0cH
	DB	00H
	DB	064H
	DB	0dH
	DB	00H
	DB	084H
	DB	00H
	DB	00H
	DB	083H
	DB	01H
	DB	00H
	DB	083H
	DB	01H
	DB	00H
	DB	05aH
	DB	0eH
	DB	00H
	DB	064H
	DB	0eH
	DB	00H
	DB	053H
	DB	028H
	DB	0fH
	DB	00H
	DB	00H
	DB	00H
	DB	075H
	DB	0fH
	DB	00H
	DB	00H
	DB	00H
	DB	042H
	DB	075H
	DB	069H
	DB	06cH
	DB	074H
	DB	069H
	DB	06eH
	DB	049H
	DB	06dH
	DB	070H
	DB	06fH
	DB	072H
	DB	074H
	DB	065H
	DB	072H
	DB	075H
	DB	090H
	DB	00H
	DB	00H
	DB	00H
	DB	04dH
	DB	065H
	DB	074H
	DB	061H
	DB	020H
	DB	070H
	DB	061H
	DB	074H
	DB	068H
	DB	020H
	DB	069H
	DB	06dH
	DB	070H
	DB	06fH
	DB	072H
	DB	074H
	DB	020H
	DB	066H
	DB	06fH
	DB	072H
	DB	020H
	DB	062H
	DB	075H
	DB	069H
	DB	06cH
	DB	074H
	DB	02dH
	DB	069H
	DB	06eH
	DB	020H
	DB	06dH
	DB	06fH
	DB	064H
	DB	075H
	DB	06cH
	DB	065H
	DB	073H
	DB	02eH
	DB	0aH
	DB	0aH
	DB	020H
	DB	020H
	DB	020H
	DB	020H
	DB	041H
	DB	06cH
	DB	06cH
	DB	020H
	DB	06dH
	DB	065H
	DB	074H
	DB	068H
	DB	06fH
	DB	064H
	DB	073H
	DB	020H
	DB	061H
	DB	072H
	DB	065H
	DB	020H
	DB	065H
	DB	069H
	DB	074H
	DB	068H
	DB	065H
	DB	072H
	DB	020H
	DB	063H
	DB	06cH
	DB	061H
	DB	073H
	DB	073H
	DB	020H
	DB	06fH
	DB	072H
	DB	020H
	DB	073H
	DB	074H
	DB	061H
	DB	074H
	DB	069H
	DB	063H
	DB	020H
	DB	06dH
	DB	065H
	DB	074H
	DB	068H
	DB	06fH
	DB	064H
	DB	073H
	DB	020H
	DB	074H
	DB	06fH
	DB	020H
	DB	061H
	DB	076H
	DB	06fH
	DB	069H
	DB	064H
	DB	020H
	DB	074H
	DB	068H
	DB	065H
	DB	020H
	DB	06eH
	DB	065H
	DB	065H
	DB	064H
	DB	020H
	DB	074H
	DB	06fH
	DB	0aH
	DB	020H
	DB	020H
	DB	020H
	DB	020H
	DB	069H
	DB	06eH
	DB	073H
	DB	074H
	DB	061H
	DB	06eH
	DB	074H
	DB	069H
	DB	061H
	DB	074H
	DB	065H
	DB	020H
	DB	074H
	DB	068H
	DB	065H
	DB	020H
	DB	063H
	DB	06cH
	DB	061H
	DB	073H
	DB	073H
	DB	02eH
	DB	0aH
	DB	0aH
	DB	020H
	DB	020H
	DB	020H
	DB	020H
	DB	063H
	DB	02H
	DB	00H
	DB	00H
	DB	00H
	DB	00H
	DB	00H
	DB	00H
	DB	00H
	DB	02H
	DB	00H
	DB	00H
	DB	00H
	DB	02H
	DB	00H
	DB	00H
	DB	00H
	DB	043H
	DB	00H
	DB	00H
	DB	00H
	DB	073H
	DB	010H
	DB	00H
	DB	00H
	DB	00H
	DB	064H
	DB	01H
	DB	00H
	DB	06aH
	DB	00H
	DB	00H
	DB	07cH
	DB	01H
	DB	00H
	DB	06aH
	DB	01H
	DB	00H
	DB	083H
	DB	01H
	DB	00H
	DB	053H
	DB	028H
	DB	02H
	DB	00H
	DB	00H
	DB	00H
	DB	04eH
	DB	075H
	DB	018H
	DB	00H
	DB	00H
	DB	00H
	DB	03cH
	DB	06dH
	DB	06fH
	DB	064H
	DB	075H
	DB	06cH
	DB	065H
	DB	020H
	DB	027H
	DB	07bH
	DB	07dH
	DB	027H
	DB	020H
	DB	028H
	DB	062H
	DB	075H
	DB	069H
	DB	06cH
	DB	074H
	DB	02dH
	DB	069H
	DB	06eH
	DB	029H
	DB	03eH
	DB	028H
	DB	02H
	DB	00H
	DB	00H
	DB	00H
	DB	075H
	DB	06H
	DB	00H
	DB	00H
	DB	00H
	DB	066H
	DB	06fH
	DB	072H
	DB	06dH
	DB	061H
	DB	074H
	DB	075H
	DB	08H
	DB	00H
	DB	00H
	DB	00H
	DB	05fH
	DB	05fH
	DB	06eH
	DB	061H
	DB	06dH
	DB	065H
	DB	05fH
	DB	05fH
	DB	028H
	DB	02H
	DB	00H
	DB	00H
	DB	00H
	DB	075H
	DB	03H
	DB	00H
	DB	00H
	DB	00H
	DB	063H
	DB	06cH
	DB	073H
	DB	075H
	DB	06H
	DB	00H
	DB	00H
	DB	00H
	DB	06dH
	DB	06fH
	DB	064H
	DB	075H
	DB	06cH
	DB	065H
	DB	028H
	DB	00H
	DB	00H
	DB	00H
	DB	00H
	DB	028H
	DB	00H
	DB	00H
	DB	00H
	DB	00H
	DB	075H
	DB	01dH
	DB	00H
	DB	00H
	DB	00H
	DB	03cH
	DB	066H
	DB	072H
	DB	06fH
	DB	07aH
	DB	065H
	DB	06eH
	DB	020H
	DB	069H
	DB	06dH
	DB	070H
	DB	06fH
	DB	072H
	DB	074H
	DB	06cH
	DB	069H
	DB	062H
	DB	02eH
	DB	05fH
	DB	062H
	DB	06fH
	DB	06fH
	DB	074H
	DB	073H
	DB	074H
	DB	072H
	DB	061H
	DB	070H
	DB	03eH
	DB	075H
	DB	0bH
	DB	00H
	DB	00H
	DB	00H
	DB	06dH
	DB	06fH
	DB	064H
	DB	075H
	DB	06cH
	DB	065H
	DB	05fH
	DB	072H
	DB	065H
	DB	070H
	DB	072H
	DB	07dH
	DB	02H
	DB	00H
	DB	00H
	DB	073H
	DB	02H
	DB	00H
	DB	00H
	DB	00H
	DB	00H
	DB	02H
	DB	075H
	DB	01bH
	DB	00H
	DB	00H
	DB	00H
	DB	042H
	DB	075H
	DB	069H
	DB	06cH
	DB	074H
	DB	069H
	DB	06eH
	DB	049H
	DB	06dH
	DB	070H
	DB	06fH
	DB	072H
	DB	074H
	DB	065H
	DB	072H
	DB	02eH
	DB	06dH
	DB	06fH
	DB	064H
	DB	075H
	DB	06cH
	DB	065H
	DB	05fH
	DB	072H
	DB	065H
	DB	070H
	DB	072H
	DB	063H
	DB	03H
	DB	00H
	DB	00H
	DB	00H
	DB	00H
	DB	00H
	DB	00H
	DB	00H
	DB	03H
	DB	00H
	DB	00H
	DB	00H
	DB	02H
	DB	00H
	DB	00H
	DB	00H
	DB	043H
	DB	00H
	DB	00H
	DB	00H
	DB	073H
	DB	027H
	DB	00H
	DB	00H
	DB	00H
	DB	07cH
	DB	02H
	DB	00H
	DB	064H
	DB	01H
	DB	00H
	DB	06bH
	DB	09H
	DB	00H
	DB	072H
	DB	010H
	DB	00H
	DB	064H
	DB	01H
	DB	00H
	DB	053H
	DB	074H
	DB	01H
	DB	00H
	DB	06aH
	DB	02H
	DB	00H
	DB	07cH
	DB	01H
	DB	00H
	DB	083H
	DB	01H
	DB	00H
	DB	072H
	DB	023H
	DB	00H
	DB	07cH
	DB	00H
	DB	00H
	DB	053H
	DB	064H
	DB	01H
	DB	00H
	DB	053H
	DB	028H
	DB	02H
	DB	00H
	DB	00H
	DB	00H
	DB	075H
	DB	071H
	DB	00H
	DB	00H
	DB	00H
	DB	046H
	DB	069H
	DB	06eH
	DB	064H
	DB	020H
	DB	074H
	DB	068H
	DB	065H
	DB	020H
	DB	062H
	DB	075H
	DB	069H
	DB	06cH
	DB	074H
	DB	02dH
	DB	069H
	DB	06eH
	DB	020H
	DB	06dH
	DB	06fH
	DB	064H
	DB	075H
	DB	06cH
	DB	065H
	DB	02eH
	DB	0aH
	DB	0aH
	DB	020H
	DB	020H
	DB	020H
	DB	020H
	DB	020H
	DB	020H
	DB	020H
	DB	020H
	DB	049H
	DB	066H
	DB	020H
	DB	027H
	DB	070H
	DB	061H
	DB	074H
	DB	068H
	DB	027H
	DB	020H
	DB	069H
	DB	073H
	DB	020H
	DB	065H
	DB	076H
	DB	065H
	DB	072H
	DB	020H
	DB	073H
	DB	070H
	DB	065H
	DB	063H
	DB	069H
	DB	066H
	DB	069H
	DB	065H
	DB	064H
	DB	020H
	DB	074H
	DB	068H
	DB	065H
	DB	06eH
	DB	020H
	DB	074H
	DB	068H
	DB	065H
	DB	020H
	DB	073H
	DB	065H
	DB	061H
	DB	072H
	DB	063H
	DB	068H
	DB	020H
	DB	069H
	DB	073H
	DB	020H
	DB	063H
	DB	06fH
	DB	06eH
	DB	073H
	DB	069H
	DB	064H
	DB	065H
	DB	072H
	DB	065H
	DB	064H
	DB	020H
	DB	061H
	DB	020H
	DB	066H
	DB	061H
	DB	069H
	DB	06cH
	DB	075H
	DB	072H
	DB	065H
	DB	02eH
	DB	0aH
	DB	0aH
	DB	020H
	DB	020H
	DB	020H
	DB	020H
	DB	020H
	DB	020H
	DB	020H
	DB	020H
	DB	04eH
	DB	028H
	DB	03H
	DB	00H
	DB	00H
	DB	00H
	DB	075H
	DB	04H
	DB	00H
	DB	00H
	DB	00H
	DB	04eH
	DB	06fH
	DB	06eH
	DB	065H
	DB	075H
	DB	04H
	DB	00H
	DB	00H
	DB	00H
	DB	05fH
	DB	069H
	DB	06dH
	DB	070H
	DB	075H
	DB	0aH
	DB	00H
	DB	00H
	DB	00H
	DB	069H
	DB	073H
	DB	05fH
	DB	062H
	DB	075H
	DB	069H
	DB	06cH
	DB	074H
	DB	069H
	DB	06eH
	DB	028H
	DB	03H
	DB	00H
	DB	00H
	DB	00H
	DB	075H
	DB	03H
	DB	00H
	DB	00H
	DB	00H
	DB	063H
	DB	06cH
	DB	073H
	DB	075H
	DB	08H
	DB	00H
	DB	00H
	DB	00H
	DB	066H
	DB	075H
	DB	06cH
	DB	06cH
	DB	06eH
	DB	061H
	DB	06dH
	DB	065H
	DB	075H
	DB	04H
	DB	00H
	DB	00H
	DB	00H
	DB	070H
	DB	061H
	DB	074H
	DB	068H
	DB	028H
	DB	00H
	DB	00H
	DB	00H
	DB	00H
	DB	028H
	DB	00H
	DB	00H
	DB	00H
	DB	00H
	DB	075H
	DB	01dH
	DB	00H
	DB	00H
	DB	00H
	DB	03cH
	DB	066H
	DB	072H
	DB	06fH
	DB	07aH
	DB	065H
	DB	06eH
	DB	020H
	DB	069H
	DB	06dH
	DB	070H
	DB	06fH
	DB	072H
	DB	074H
	DB	06cH
	DB	069H
	DB	062H
	DB	02eH
	DB	05fH
	DB	062H
	DB	06fH
	DB	06fH
	DB	074H
	DB	073H
	DB	074H
	DB	072H
	DB	061H
	DB	070H
	DB	03eH
	DB	075H
	DB	0bH
	DB	00H
	DB	00H
	DB	00H
	DB	066H
	DB	069H
	DB	06eH
	DB	064H
	DB	05fH
	DB	06dH
	DB	06fH
	DB	064H
	DB	075H
	DB	06cH
	DB	065H
	DB	081H
	DB	02H
	DB	00H
	DB	00H
	DB	073H
	DB	06H
	DB	00H
	DB	00H
	DB	00H
	DB	00H
	DB	07H
	DB	0cH
	DB	01H
	DB	04H
	DB	01H
	DB	075H
	DB	01bH
	DB	00H
	DB	00H
	DB	00H
	DB	042H
	DB	075H
	DB	069H
	DB	06cH
	DB	074H
	DB	069H
	DB	06eH
	DB	049H
	DB	06dH
	DB	070H
	DB	06fH
	DB	072H
	DB	074H
	DB	065H
	DB	072H
	DB	02eH
	DB	066H
	DB	069H
	DB	06eH
	DB	064H
	DB	05fH
	DB	06dH
	DB	06fH
	DB	064H
	DB	075H
	DB	06cH
	DB	065H
	DB	063H
	DB	02H
	DB	00H
	DB	00H
	DB	00H
	DB	00H
	DB	00H
	DB	00H
	DB	00H
	DB	03H
	DB	00H
	DB	00H
	DB	00H
	DB	09H
	DB	00H
	DB	00H
	DB	00H
	DB	043H
	DB	00H
	DB	00H
	DB	00H
	DB	073H
	DB	058H
	DB	00H
	DB	00H
	DB	00H
	DB	07cH
	DB	01H
	DB	00H
	DB	074H
	DB	00H
	DB	00H
	DB	06aH
	DB	01H
	DB	00H
	DB	06bH
	DB	06H
	DB	00H
	DB	07dH
	DB	02H
	DB	00H
	DB	079H
	DB	014H
	DB	00H
	DB	074H
	DB	02H
	DB	00H
	DB	074H
	DB	03H
	DB	00H
	DB	06aH
	DB	04H
	DB	00H
	DB	07cH
	DB	01H
	DB	00H
	DB	083H
	DB	02H
	DB	00H
	DB	053H
	DB	057H
	DB	06eH
	DB	02eH
	DB	00H
	DB	01H
	DB	01H
	DB	01H
	DB	07cH
	DB	02H
	DB	00H
	DB	0cH
	DB	072H
	DB	04cH
	DB	00H
	DB	07cH
	DB	01H
	DB	00H
	DB	074H
	DB	00H
	DB	00H
	DB	06aH
	DB	01H
	DB	00H
	DB	06bH
	DB	06H
	DB	00H
	DB	072H
	DB	04cH
	DB	00H
	DB	074H
	DB	00H
	DB	00H
	DB	06aH
	DB	01H
	DB	00H
	DB	07cH
	DB	01H
	DB	00H
	DB	03dH
	DB	06eH
	DB	00H
	DB	00H
	DB	082H
	DB	00H
	DB	00H
	DB	059H
	DB	06eH
	DB	01H
	DB	00H
	DB	058H
	DB	064H
	DB	01H
	DB	00H
	DB	053H
	DB	028H
	DB	02H
	DB	00H
	DB	00H
	DB	00H
	DB	075H
	DB	017H
	DB	00H
	DB	00H
	DB	00H
	DB	04cH
	DB	06fH
	DB	061H
	DB	064H
	DB	020H
	DB	061H
	DB	020H
	DB	062H
	DB	075H
	DB	069H
	DB	06cH
	DB	074H
	DB	02dH
	DB	069H
	DB	06eH
	DB	020H
	DB	06dH
	DB	06fH
	DB	064H
	DB	075H
	DB	06cH
	DB	065H
	DB	02eH
	DB	04eH
	DB	028H
	DB	05H
	DB	00H
	DB	00H
	DB	00H
	DB	075H
	DB	03H
	DB	00H
	DB	00H
	DB	00H
	DB	073H
	DB	079H
	DB	073H
	DB	075H
	DB	07H
	DB	00H
	DB	00H
	DB	00H
	DB	06dH
	DB	06fH
	DB	064H
	DB	075H
	DB	06cH
	DB	065H
	DB	073H
	DB	075H
	DB	019H
	DB	00H
	DB	00H
	DB	00H
	DB	05fH
	DB	063H
	DB	061H
	DB	06cH
	DB	06cH
	DB	05fH
	DB	077H
	DB	069H
	DB	074H
	DB	068H
	DB	05fH
	DB	066H
	DB	072H
	DB	061H
	DB	06dH
	DB	065H
	DB	073H
	DB	05fH
	DB	072H
	DB	065H
	DB	06dH
	DB	06fH
	DB	076H
	DB	065H
	DB	064H
	DB	075H
	DB	04H
	DB	00H
	DB	00H
	DB	00H
	DB	05fH
	DB	069H
	DB	06dH
	DB	070H
	DB	075H
	DB	0cH
	DB	00H
	DB	00H
	DB	00H
	DB	069H
	DB	06eH
	DB	069H
	DB	074H
	DB	05fH
	DB	062H
	DB	075H
	DB	069H
	DB	06cH
	DB	074H
	DB	069H
	DB	06eH
	DB	028H
	DB	03H
	DB	00H
	DB	00H
	DB	00H
	DB	075H
	DB	03H
	DB	00H
	DB	00H
	DB	00H
	DB	063H
	DB	06cH
	DB	073H
	DB	075H
	DB	08H
	DB	00H
	DB	00H
	DB	00H
	DB	066H
	DB	075H
	DB	06cH
	DB	06cH
	DB	06eH
	DB	061H
	DB	06dH
	DB	065H
	DB	075H
	DB	09H
	DB	00H
	DB	00H
	DB	00H
	DB	069H
	DB	073H
	DB	05fH
	DB	072H
	DB	065H
	DB	06cH
	DB	06fH
	DB	061H
	DB	064H
	DB	028H
	DB	00H
	DB	00H
	DB	00H
	DB	00H
	DB	028H
	DB	00H
	DB	00H
	DB	00H
	DB	00H
	DB	075H
	DB	01dH
	DB	00H
	DB	00H
	DB	00H
	DB	03cH
	DB	066H
	DB	072H
	DB	06fH
	DB	07aH
	DB	065H
	DB	06eH
	DB	020H
	DB	069H
	DB	06dH
	DB	070H
	DB	06fH
	DB	072H
	DB	074H
	DB	06cH
	DB	069H
	DB	062H
	DB	02eH
	DB	05fH
	DB	062H
	DB	06fH
	DB	06fH
	DB	074H
	DB	073H
	DB	074H
	DB	072H
	DB	061H
	DB	070H
	DB	03eH
	DB	075H
	DB	0bH
	DB	00H
	DB	00H
	DB	00H
	DB	06cH
	DB	06fH
	DB	061H
	DB	064H
	DB	05fH
	DB	06dH
	DB	06fH
	DB	064H
	DB	075H
	DB	06cH
	DB	065H
	DB	08cH
	DB	02H
	DB	00H
	DB	00H
	DB	073H
	DB	0eH
	DB	00H
	DB	00H
	DB	00H
	DB	00H
	DB	06H
	DB	0fH
	DB	01H
	DB	03H
	DB	01H
	DB	014H
	DB	01H
	DB	03H
	DB	01H
	DB	016H
	DB	01H
	DB	0dH
	DB	01H
	DB	075H
	DB	01bH
	DB	00H
	DB	00H
	DB	00H
	DB	042H
	DB	075H
	DB	069H
	DB	06cH
	DB	074H
	DB	069H
	DB	06eH
	DB	049H
	DB	06dH
	DB	070H
	DB	06fH
	DB	072H
	DB	074H
	DB	065H
	DB	072H
	DB	02eH
	DB	06cH
	DB	06fH
	DB	061H
	DB	064H
	DB	05fH
	DB	06dH
	DB	06fH
	DB	064H
	DB	075H
	DB	06cH
	DB	065H
	DB	063H
	DB	02H
	DB	00H
	DB	00H
	DB	00H
	DB	00H
	DB	00H
	DB	00H
	DB	00H
	DB	02H
	DB	00H
	DB	00H
	DB	00H
	DB	01H
	DB	00H
	DB	00H
	DB	00H
	DB	043H
	DB	00H
	DB	00H
	DB	00H
	DB	073H
	DB	04H
	DB	00H
	DB	00H
	DB	00H
	DB	064H
	DB	01H
	DB	00H
	DB	053H
	DB	028H
	DB	02H
	DB	00H
	DB	00H
	DB	00H
	DB	075H
	DB	039H
	DB	00H
	DB	00H
	DB	00H
	DB	052H
	DB	065H
	DB	074H
	DB	075H
	DB	072H
	DB	06eH
	DB	020H
	DB	04eH
	DB	06fH
	DB	06eH
	DB	065H
	DB	020H
	DB	061H
	DB	073H
	DB	020H
	DB	062H
	DB	075H
	DB	069H
	DB	06cH
	DB	074H
	DB	02dH
	DB	069H
	DB	06eH
	DB	020H
	DB	06dH
	DB	06fH
	DB	064H
	DB	075H
	DB	06cH
	DB	065H
	DB	073H
	DB	020H
	DB	064H
	DB	06fH
	DB	020H
	DB	06eH
	DB	06fH
	DB	074H
	DB	020H
	DB	068H
	DB	061H
	DB	076H
	DB	065H
	DB	020H
	DB	063H
	DB	06fH
	DB	064H
	DB	065H
	DB	020H
	DB	06fH
	DB	062H
	DB	06aH
	DB	065H
	DB	063H
	DB	074H
	DB	073H
	DB	02eH
	DB	04eH
	DB	028H
	DB	01H
	DB	00H
	DB	00H
	DB	00H
	DB	075H
	DB	04H
	DB	00H
	DB	00H
	DB	00H
	DB	04eH
	DB	06fH
	DB	06eH
	DB	065H
	DB	028H
	DB	02H
	DB	00H
	DB	00H
	DB	00H
	DB	075H
	DB	03H
	DB	00H
	DB	00H
	DB	00H
	DB	063H
	DB	06cH
	DB	073H
	DB	075H
	DB	08H
	DB	00H
	DB	00H
	DB	00H
	DB	066H
	DB	075H
	DB	06cH
	DB	06cH
	DB	06eH
	DB	061H
	DB	06dH
	DB	065H
	DB	028H
	DB	00H
	DB	00H
	DB	00H
	DB	00H
	DB	028H
	DB	00H
	DB	00H
	DB	00H
	DB	00H
	DB	075H
	DB	01dH
	DB	00H
	DB	00H
	DB	00H
	DB	03cH
	DB	066H
	DB	072H
	DB	06fH
	DB	07aH
	DB	065H
	DB	06eH
	DB	020H
	DB	069H
	DB	06dH
	DB	070H
	DB	06fH
	DB	072H
	DB	074H
	DB	06cH
	DB	069H
	DB	062H
	DB	02eH
	DB	05fH
	DB	062H
	DB	06fH
	DB	06fH
	DB	074H
	DB	073H
	DB	074H
	DB	072H
	DB	061H
	DB	070H
	DB	03eH
	DB	075H
	DB	08H
	DB	00H
	DB	00H
	DB	00H
	DB	067H
	DB	065H
	DB	074H
	DB	05fH
	DB	063H
	DB	06fH
	DB	064H
	DB	065H
	DB	09aH
	DB	02H
	DB	00H
	DB	00H
	DB	073H
	DB	02H
	DB	00H
	DB	00H
	DB	00H
	DB	00H
	DB	04H
	DB	075H
	DB	018H
	DB	00H
	DB	00H
	DB	00H
	DB	042H
	DB	075H
	DB	069H
	DB	06cH
	DB	074H
	DB	069H
	DB	06eH
	DB	049H
	DB	06dH
	DB	070H
	DB	06fH
	DB	072H
	DB	074H
	DB	065H
	DB	072H
	DB	02eH
	DB	067H
	DB	065H
	DB	074H
	DB	05fH
	DB	063H
	DB	06fH
	DB	064H
	DB	065H
	DB	063H
	DB	02H
	DB	00H
	DB	00H
	DB	00H
	DB	00H
	DB	00H
	DB	00H
	DB	00H
	DB	02H
	DB	00H
	DB	00H
	DB	00H
	DB	01H
	DB	00H
	DB	00H
	DB	00H
	DB	043H
	DB	00H
	DB	00H
	DB	00H
	DB	073H
	DB	04H
	DB	00H
	DB	00H
	DB	00H
	DB	064H
	DB	01H
	DB	00H
	DB	053H
	DB	028H
	DB	02H
	DB	00H
	DB	00H
	DB	00H
	DB	075H
	DB	038H
	DB	00H
	DB	00H
	DB	00H
	DB	052H
	DB	065H
	DB	074H
	DB	075H
	DB	072H
	DB	06eH
	DB	020H
	DB	04eH
	DB	06fH
	DB	06eH
	DB	065H
	DB	020H
	DB	061H
	DB	073H
	DB	020H
	DB	062H
	DB	075H
	DB	069H
	DB	06cH
	DB	074H
	DB	02dH
	DB	069H
	DB	06eH
	DB	020H
	DB	06dH
	DB	06fH
	DB	064H
	DB	075H
	DB	06cH
	DB	065H
	DB	073H
	DB	020H
	DB	064H
	DB	06fH
	DB	020H
	DB	06eH
	DB	06fH
	DB	074H
	DB	020H
	DB	068H
	DB	061H
	DB	076H
	DB	065H
	DB	020H
	DB	073H
	DB	06fH
	DB	075H
	DB	072H
	DB	063H
	DB	065H
	DB	020H
	DB	063H
	DB	06fH
	DB	064H
	DB	065H
	DB	02eH
	DB	04eH
	DB	028H
	DB	01H
	DB	00H
	DB	00H
	DB	00H
	DB	075H
	DB	04H
	DB	00H
	DB	00H
	DB	00H
	DB	04eH
	DB	06fH
	DB	06eH
	DB	065H
	DB	028H
	DB	02H
	DB	00H
	DB	00H
	DB	00H
	DB	075H
	DB	03H
	DB	00H
	DB	00H
	DB	00H
	DB	063H
	DB	06cH
	DB	073H
	DB	075H
	DB	08H
	DB	00H
	DB	00H
	DB	00H
	DB	066H
	DB	075H
	DB	06cH
	DB	06cH
	DB	06eH
	DB	061H
	DB	06dH
	DB	065H
	DB	028H
	DB	00H
	DB	00H
	DB	00H
	DB	00H
	DB	028H
	DB	00H
	DB	00H
	DB	00H
	DB	00H
	DB	075H
	DB	01dH
	DB	00H
	DB	00H
	DB	00H
	DB	03cH
	DB	066H
	DB	072H
	DB	06fH
	DB	07aH
	DB	065H
	DB	06eH
	DB	020H
	DB	069H
	DB	06dH
	DB	070H
	DB	06fH
	DB	072H
	DB	074H
	DB	06cH
	DB	069H
	DB	062H
	DB	02eH
	DB	05fH
	DB	062H
	DB	06fH
	DB	06fH
	DB	074H
	DB	073H
	DB	074H
	DB	072H
	DB	061H
	DB	070H
	DB	03eH
	DB	075H
	DB	0aH
	DB	00H
	DB	00H
	DB	00H
	DB	067H
	DB	065H
	DB	074H
	DB	05fH
	DB	073H
	DB	06fH
	DB	075H
	DB	072H
	DB	063H
	DB	065H
	DB	0a0H
	DB	02H
	DB	00H
	DB	00H
	DB	073H
	DB	02H
	DB	00H
	DB	00H
	DB	00H
	DB	00H
	DB	04H
	DB	075H
	DB	01aH
	DB	00H
	DB	00H
	DB	00H
	DB	042H
	DB	075H
	DB	069H
	DB	06cH
	DB	074H
	DB	069H
	DB	06eH
	DB	049H
	DB	06dH
	DB	070H
	DB	06fH
	DB	072H
	DB	074H
	DB	065H
	DB	072H
	DB	02eH
	DB	067H
	DB	065H
	DB	074H
	DB	05fH
	DB	073H
	DB	06fH
	DB	075H
	DB	072H
	DB	063H
	DB	065H
	DB	063H
	DB	02H
	DB	00H
	DB	00H
	DB	00H
	DB	00H
	DB	00H
	DB	00H
	DB	00H
	DB	02H
	DB	00H
	DB	00H
	DB	00H
	DB	01H
	DB	00H
	DB	00H
	DB	00H
	DB	043H
	DB	00H
	DB	00H
	DB	00H
	DB	073H
	DB	04H
	DB	00H
	DB	00H
	DB	00H
	DB	064H
	DB	01H
	DB	00H
	DB	053H
	DB	028H
	DB	02H
	DB	00H
	DB	00H
	DB	00H
	DB	075H
	DB	034H
	DB	00H
	DB	00H
	DB	00H
	DB	052H
	DB	065H
	DB	074H
	DB	075H
	DB	072H
	DB	06eH
	DB	020H
	DB	046H
	DB	061H
	DB	06cH
	DB	073H
	DB	065H
	DB	020H
	DB	061H
	DB	073H
	DB	020H
	DB	062H
	DB	075H
	DB	069H
	DB	06cH
	DB	074H
	DB	02dH
	DB	069H
	DB	06eH
	DB	020H
	DB	06dH
	DB	06fH
	DB	064H
	DB	075H
	DB	06cH
	DB	065H
	DB	073H
	DB	020H
	DB	061H
	DB	072H
	DB	065H
	DB	020H
	DB	06eH
	DB	065H
	DB	076H
	DB	065H
	DB	072H
	DB	020H
	DB	070H
	DB	061H
	DB	063H
	DB	06bH
	DB	061H
	DB	067H
	DB	065H
	DB	073H
	DB	02eH
	DB	046H
	DB	028H
	DB	01H
	DB	00H
	DB	00H
	DB	00H
	DB	075H
	DB	05H
	DB	00H
	DB	00H
	DB	00H
	DB	046H
	DB	061H
	DB	06cH
	DB	073H
	DB	065H
	DB	028H
	DB	02H
	DB	00H
	DB	00H
	DB	00H
	DB	075H
	DB	03H
	DB	00H
	DB	00H
	DB	00H
	DB	063H
	DB	06cH
	DB	073H
	DB	075H
	DB	08H
	DB	00H
	DB	00H
	DB	00H
	DB	066H
	DB	075H
	DB	06cH
	DB	06cH
	DB	06eH
	DB	061H
	DB	06dH
	DB	065H
	DB	028H
	DB	00H
	DB	00H
	DB	00H
	DB	00H
	DB	028H
	DB	00H
	DB	00H
	DB	00H
	DB	00H
	DB	075H
	DB	01dH
	DB	00H
	DB	00H
	DB	00H
	DB	03cH
	DB	066H
	DB	072H
	DB	06fH
	DB	07aH
	DB	065H
	DB	06eH
	DB	020H
	DB	069H
	DB	06dH
	DB	070H
	DB	06fH
	DB	072H
	DB	074H
	DB	06cH
	DB	069H
	DB	062H
	DB	02eH
	DB	05fH
	DB	062H
	DB	06fH
	DB	06fH
	DB	074H
	DB	073H
	DB	074H
	DB	072H
	DB	061H
	DB	070H
	DB	03eH
	DB	075H
	DB	0aH
	DB	00H
	DB	00H
	DB	00H
	DB	069H
	DB	073H
	DB	05fH
	DB	070H
	DB	061H
	DB	063H
	DB	06bH
	DB	061H
	DB	067H
	DB	065H
	DB	0a6H
	DB	02H
	DB	00H
	DB	00H
	DB	073H
	DB	02H
	DB	00H
	DB	00H
	DB	00H
	DB	00H
	DB	04H
	DB	075H
	DB	01aH
	DB	00H
	DB	00H
	DB	00H
	DB	042H
	DB	075H
	DB	069H
	DB	06cH
	DB	074H
	DB	069H
	DB	06eH
	DB	049H
	DB	06dH
	DB	070H
	DB	06fH
	DB	072H
	DB	074H
	DB	065H
	DB	072H
	DB	02eH
	DB	069H
	DB	073H
	DB	05fH
	DB	070H
	DB	061H
	DB	063H
	DB	06bH
	DB	061H
	DB	067H
	DB	065H
	DB	04eH
	DB	028H
	DB	0fH
	DB	00H
	DB	00H
	DB	00H
	DB	075H
	DB	08H
	DB	00H
	DB	00H
	DB	00H
	DB	05fH
	DB	05fH
	DB	06eH
	DB	061H
	DB	06dH
	DB	065H
	DB	05fH
	DB	05fH
	DB	075H
	DB	0aH
	DB	00H
	DB	00H
	DB	00H
	DB	05fH
	DB	05fH
	DB	06dH
	DB	06fH
	DB	064H
	DB	075H
	DB	06cH
	DB	065H
	DB	05fH
	DB	05fH
	DB	075H
	DB	0cH
	DB	00H
	DB	00H
	DB	00H
	DB	05fH
	DB	05fH
	DB	071H
	DB	075H
	DB	061H
	DB	06cH
	DB	06eH
	DB	061H
	DB	06dH
	DB	065H
	DB	05fH
	DB	05fH
	DB	075H
	DB	07H
	DB	00H
	DB	00H
	DB	00H
	DB	05fH
	DB	05fH
	DB	064H
	DB	06fH
	DB	063H
	DB	05fH
	DB	05fH
	DB	075H
	DB	0bH
	DB	00H
	DB	00H
	DB	00H
	DB	063H
	DB	06cH
	DB	061H
	DB	073H
	DB	073H
	DB	06dH
	DB	065H
	DB	074H
	DB	068H
	DB	06fH
	DB	064H
	DB	075H
	DB	0bH
	DB	00H
	DB	00H
	DB	00H
	DB	06dH
	DB	06fH
	DB	064H
	DB	075H
	DB	06cH
	DB	065H
	DB	05fH
	DB	072H
	DB	065H
	DB	070H
	DB	072H
	DB	075H
	DB	04H
	DB	00H
	DB	00H
	DB	00H
	DB	04eH
	DB	06fH
	DB	06eH
	DB	065H
	DB	075H
	DB	0bH
	DB	00H
	DB	00H
	DB	00H
	DB	066H
	DB	069H
	DB	06eH
	DB	064H
	DB	05fH
	DB	06dH
	DB	06fH
	DB	064H
	DB	075H
	DB	06cH
	DB	065H
	DB	075H
	DB	0bH
	DB	00H
	DB	00H
	DB	00H
	DB	073H
	DB	065H
	DB	074H
	DB	05fH
	DB	070H
	DB	061H
	DB	063H
	DB	06bH
	DB	061H
	DB	067H
	DB	065H
	DB	075H
	DB	0aH
	DB	00H
	DB	00H
	DB	00H
	DB	073H
	DB	065H
	DB	074H
	DB	05fH
	DB	06cH
	DB	06fH
	DB	061H
	DB	064H
	DB	065H
	DB	072H
	DB	075H
	DB	011H
	DB	00H
	DB	00H
	DB	00H
	DB	05fH
	DB	072H
	DB	065H
	DB	071H
	DB	075H
	DB	069H
	DB	072H
	DB	065H
	DB	073H
	DB	05fH
	DB	062H
	DB	075H
	DB	069H
	DB	06cH
	DB	074H
	DB	069H
	DB	06eH
	DB	075H
	DB	0bH
	DB	00H
	DB	00H
	DB	00H
	DB	06cH
	DB	06fH
	DB	061H
	DB	064H
	DB	05fH
	DB	06dH
	DB	06fH
	DB	064H
	DB	075H
	DB	06cH
	DB	065H
	DB	075H
	DB	08H
	DB	00H
	DB	00H
	DB	00H
	DB	067H
	DB	065H
	DB	074H
	DB	05fH
	DB	063H
	DB	06fH
	DB	064H
	DB	065H
	DB	075H
	DB	0aH
	DB	00H
	DB	00H
	DB	00H
	DB	067H
	DB	065H
	DB	074H
	DB	05fH
	DB	073H
	DB	06fH
	DB	075H
	DB	072H
	DB	063H
	DB	065H
	DB	075H
	DB	0aH
	DB	00H
	DB	00H
	DB	00H
	DB	069H
	DB	073H
	DB	05fH
	DB	070H
	DB	061H
	DB	063H
	DB	06bH
	DB	061H
	DB	067H
	DB	065H
	DB	028H
	DB	01H
	DB	00H
	DB	00H
	DB	00H
	DB	075H
	DB	0aH
	DB	00H
	DB	00H
	DB	00H
	DB	05fH
	DB	05fH
	DB	06cH
	DB	06fH
	DB	063H
	DB	061H
	DB	06cH
	DB	073H
	DB	05fH
	DB	05fH
	DB	028H
	DB	00H
	DB	00H
	DB	00H
	DB	00H
	DB	028H
	DB	00H
	DB	00H
	DB	00H
	DB	00H
	DB	075H
	DB	01dH
	DB	00H
	DB	00H
	DB	00H
	DB	03cH
	DB	066H
	DB	072H
	DB	06fH
	DB	07aH
	DB	065H
	DB	06eH
	DB	020H
	DB	069H
	DB	06dH
	DB	070H
	DB	06fH
	DB	072H
	DB	074H
	DB	06cH
	DB	069H
	DB	062H
	DB	02eH
	DB	05fH
	DB	062H
	DB	06fH
	DB	06fH
	DB	074H
	DB	073H
	DB	074H
	DB	072H
	DB	061H
	DB	070H
	DB	03eH
	DB	075H
	DB	0fH
	DB	00H
	DB	00H
	DB	00H
	DB	042H
	DB	075H
	DB	069H
	DB	06cH
	DB	074H
	DB	069H
	DB	06eH
	DB	049H
	DB	06dH
	DB	070H
	DB	06fH
	DB	072H
	DB	074H
	DB	065H
	DB	072H
	DB	074H
	DB	02H
	DB	00H
	DB	00H
	DB	073H
	DB	01cH
	DB	00H
	DB	00H
	DB	00H
	DB	010H
	DB	07H
	DB	06H
	DB	02H
	DB	012H
	DB	04H
	DB	03H
	DB	01H
	DB	012H
	DB	0aH
	DB	03H
	DB	01H
	DB	03H
	DB	01H
	DB	03H
	DB	01H
	DB	01bH
	DB	0bH
	DB	03H
	DB	01H
	DB	015H
	DB	05H
	DB	03H
	DB	01H
	DB	015H
	DB	05H
	DB	03H
	DB	01H
	DB	075H
	DB	0fH
	DB	00H
	DB	00H
	DB	00H
	DB	042H
	DB	075H
	DB	069H
	DB	06cH
	DB	074H
	DB	069H
	DB	06eH
	DB	049H
	DB	06dH
	DB	070H
	DB	06fH
	DB	072H
	DB	074H
	DB	065H
	DB	072H
	DB	063H
	DB	01H
	DB	00H
	DB	00H
	DB	00H
	DB	00H
	DB	00H
	DB	00H
	DB	00H
	DB	01H
	DB	00H
	DB	00H
	DB	00H
	DB	06H
	DB	00H
	DB	00H
	DB	00H
	DB	042H
	DB	00H
	DB	00H
	DB	00H
	DB	073H
	DB	0adH
	DB	00H
	DB	00H
	DB	00H
	DB	07cH
	DB	00H
	DB	00H
	DB	045H
	DB	065H
	DB	00H
	DB	00H
	DB	05aH
	DB	01H
	DB	00H
	DB	064H
	DB	00H
	DB	00H
	DB	05aH
	DB	02H
	DB	00H
	DB	064H
	DB	01H
	DB	00H
	DB	05aH
	DB	03H
	DB	00H
	DB	065H
	DB	04H
	DB	00H
	DB	064H
	DB	02H
	DB	00H
	DB	064H
	DB	03H
	DB	00H
	DB	084H
	DB	00H
	DB	00H
	DB	083H
	DB	01H
	DB	00H
	DB	05aH
	DB	05H
	DB	00H
	DB	065H
	DB	04H
	DB	00H
	DB	064H
	DB	0eH
	DB	00H
	DB	064H
	DB	04H
	DB	00H
	DB	064H
	DB	05H
	DB	00H
	DB	084H
	DB	01H
	DB	00H
	DB	083H
	DB	01H
	DB	00H
	DB	05aH
	DB	07H
	DB	00H
	DB	065H
	DB	04H
	DB	00H
	DB	065H
	DB	08H
	DB	00H
	DB	065H
	DB	09H
	DB	00H
	DB	065H
	DB	0aH
	DB	00H
	DB	064H
	DB	06H
	DB	00H
	DB	064H
	DB	07H
	DB	00H
	DB	084H
	DB	00H
	DB	00H
	DB	083H
	DB	01H
	DB	00H
	DB	083H
	DB	01H
	DB	00H
	DB	083H
	DB	01H
	DB	00H
	DB	083H
	DB	01H
	DB	00H
	DB	05aH
	DB	0bH
	DB	00H
	DB	065H
	DB	04H
	DB	00H
	DB	065H
	DB	0aH
	DB	00H
	DB	064H
	DB	08H
	DB	00H
	DB	064H
	DB	09H
	DB	00H
	DB	084H
	DB	00H
	DB	00H
	DB	083H
	DB	01H
	DB	00H
	DB	083H
	DB	01H
	DB	00H
	DB	05aH
	DB	0cH
	DB	00H
	DB	065H
	DB	04H
	DB	00H
	DB	065H
	DB	0aH
	DB	00H
	DB	064H
	DB	0aH
	DB	00H
	DB	064H
	DB	0bH
	DB	00H
	DB	084H
	DB	00H
	DB	00H
	DB	083H
	DB	01H
	DB	00H
	DB	083H
	DB	01H
	DB	00H
	DB	05aH
	DB	0dH
	DB	00H
	DB	065H
	DB	04H
	DB	00H
	DB	065H
	DB	0aH
	DB	00H
	DB	064H
	DB	0cH
	DB	00H
	DB	064H
	DB	0dH
	DB	00H
	DB	084H
	DB	00H
	DB	00H
	DB	083H
	DB	01H
	DB	00H
	DB	083H
	DB	01H
	DB	00H
	DB	05aH
	DB	0eH
	DB	00H
	DB	064H
	DB	0eH
	DB	00H
	DB	053H
	DB	028H
	DB	0fH
	DB	00H
	DB	00H
	DB	00H
	DB	075H
	DB	0eH
	DB	00H
	DB	00H
	DB	00H
	DB	046H
	DB	072H
	DB	06fH
	DB	07aH
	DB	065H
	DB	06eH
	DB	049H
	DB	06dH
	DB	070H
	DB	06fH
	DB	072H
	DB	074H
	DB	065H
	DB	072H
	DB	075H
	DB	08eH
	DB	00H
	DB	00H
	DB	00H
	DB	04dH
	DB	065H
	DB	074H
	DB	061H
	DB	020H
	DB	070H
	DB	061H
	DB	074H
	DB	068H
	DB	020H
	DB	069H
	DB	06dH
	DB	070H
	DB	06fH
	DB	072H
	DB	074H
	DB	020H
	DB	066H
	DB	06fH
	DB	072H
	DB	020H
	DB	066H
	DB	072H
	DB	06fH
	DB	07aH
	DB	065H
	DB	06eH
	DB	020H
	DB	06dH
	DB	06fH
	DB	064H
	DB	075H
	DB	06cH
	DB	065H
	DB	073H
	DB	02eH
	DB	0aH
	DB	0aH
	DB	020H
	DB	020H
	DB	020H
	DB	020H
	DB	041H
	DB	06cH
	DB	06cH
	DB	020H
	DB	06dH
	DB	065H
	DB	074H
	DB	068H
	DB	06fH
	DB	064H
	DB	073H
	DB	020H
	DB	061H
	DB	072H
	DB	065H
	DB	020H
	DB	065H
	DB	069H
	DB	074H
	DB	068H
	DB	065H
	DB	072H
	DB	020H
	DB	063H
	DB	06cH
	DB	061H
	DB	073H
	DB	073H
	DB	020H
	DB	06fH
	DB	072H
	DB	020H
	DB	073H
	DB	074H
	DB	061H
	DB	074H
	DB	069H
	DB	063H
	DB	020H
	DB	06dH
	DB	065H
	DB	074H
	DB	068H
	DB	06fH
	DB	064H
	DB	073H
	DB	020H
	DB	074H
	DB	06fH
	DB	020H
	DB	061H
	DB	076H
	DB	06fH
	DB	069H
	DB	064H
	DB	020H
	DB	074H
	DB	068H
	DB	065H
	DB	020H
	DB	06eH
	DB	065H
	DB	065H
	DB	064H
	DB	020H
	DB	074H
	DB	06fH
	DB	0aH
	DB	020H
	DB	020H
	DB	020H
	DB	020H
	DB	069H
	DB	06eH
	DB	073H
	DB	074H
	DB	061H
	DB	06eH
	DB	074H
	DB	069H
	DB	061H
	DB	074H
	DB	065H
	DB	020H
	DB	074H
	DB	068H
	DB	065H
	DB	020H
	DB	063H
	DB	06cH
	DB	061H
	DB	073H
	DB	073H
	DB	02eH
	DB	0aH
	DB	0aH
	DB	020H
	DB	020H
	DB	020H
	DB	020H
	DB	063H
	DB	02H
	DB	00H
	DB	00H
	DB	00H
	DB	00H
	DB	00H
	DB	00H
	DB	00H
	DB	02H
	DB	00H
	DB	00H
	DB	00H
	DB	02H
	DB	00H
	DB	00H
	DB	00H
	DB	043H
	DB	00H
	DB	00H
	DB	00H
	DB	073H
	DB	010H
	DB	00H
	DB	00H
	DB	00H
	DB	064H
	DB	01H
	DB	00H
	DB	06aH
	DB	00H
	DB	00H
	DB	07cH
	DB	01H
	DB	00H
	DB	06aH
	DB	01H
	DB	00H
	DB	083H
	DB	01H
	DB	00H
	DB	053H
	DB	028H
	DB	02H
	DB	00H
	DB	00H
	DB	00H
	DB	04eH
	DB	075H
	DB	016H
	DB	00H
	DB	00H
	DB	00H
	DB	03cH
	DB	06dH
	DB	06fH
	DB	064H
	DB	075H
	DB	06cH
	DB	065H
	DB	020H
	DB	027H
	DB	07bH
	DB	07dH
	DB	027H
	DB	020H
	DB	028H
	DB	066H
	DB	072H
	DB	06fH
	DB	07aH
	DB	065H
	DB	06eH
	DB	029H
	DB	03eH
	DB	028H
	DB	02H
	DB	00H
	DB	00H
	DB	00H
	DB	075H
	DB	06H
	DB	00H
	DB	00H
	DB	00H
	DB	066H
	DB	06fH
	DB	072H
	DB	06dH
	DB	061H
	DB	074H
	DB	075H
	DB	08H
	DB	00H
	DB	00H
	DB	00H
	DB	05fH
	DB	05fH
	DB	06eH
	DB	061H
	DB	06dH
	DB	065H
	DB	05fH
	DB	05fH
	DB	028H
	DB	02H
	DB	00H
	DB	00H
	DB	00H
	DB	075H
	DB	03H
	DB	00H
	DB	00H
	DB	00H
	DB	063H
	DB	06cH
	DB	073H
	DB	075H
	DB	01H
	DB	00H
	DB	00H
	DB	00H
	DB	06dH
	DB	028H
	DB	00H
	DB	00H
	DB	00H
	DB	00H
	DB	028H
	DB	00H
	DB	00H
	DB	00H
	DB	00H
	DB	075H
	DB	01dH
	DB	00H
	DB	00H
	DB	00H
	DB	03cH
	DB	066H
	DB	072H
	DB	06fH
	DB	07aH
	DB	065H
	DB	06eH
	DB	020H
	DB	069H
	DB	06dH
	DB	070H
	DB	06fH
	DB	072H
	DB	074H
	DB	06cH
	DB	069H
	DB	062H
	DB	02eH
	DB	05fH
	DB	062H
	DB	06fH
	DB	06fH
	DB	074H
	DB	073H
	DB	074H
	DB	072H
	DB	061H
	DB	070H
	DB	03eH
	DB	075H
	DB	0bH
	DB	00H
	DB	00H
	DB	00H
	DB	06dH
	DB	06fH
	DB	064H
	DB	075H
	DB	06cH
	DB	065H
	DB	05fH
	DB	072H
	DB	065H
	DB	070H
	DB	072H
	DB	0b6H
	DB	02H
	DB	00H
	DB	00H
	DB	073H
	DB	02H
	DB	00H
	DB	00H
	DB	00H
	DB	00H
	DB	02H
	DB	075H
	DB	01aH
	DB	00H
	DB	00H
	DB	00H
	DB	046H
	DB	072H
	DB	06fH
	DB	07aH
	DB	065H
	DB	06eH
	DB	049H
	DB	06dH
	DB	070H
	DB	06fH
	DB	072H
	DB	074H
	DB	065H
	DB	072H
	DB	02eH
	DB	06dH
	DB	06fH
	DB	064H
	DB	075H
	DB	06cH
	DB	065H
	DB	05fH
	DB	072H
	DB	065H
	DB	070H
	DB	072H
	DB	063H
	DB	03H
	DB	00H
	DB	00H
	DB	00H
	DB	00H
	DB	00H
	DB	00H
	DB	00H
	DB	03H
	DB	00H
	DB	00H
	DB	00H
	DB	02H
	DB	00H
	DB	00H
	DB	00H
	DB	043H
	DB	00H
	DB	00H
	DB	00H
	DB	073H
	DB	017H
	DB	00H
	DB	00H
	DB	00H
	DB	074H
	DB	00H
	DB	00H
	DB	06aH
	DB	01H
	DB	00H
	DB	07cH
	DB	01H
	DB	00H
	DB	083H
	DB	01H
	DB	00H
	DB	072H
	DB	013H
	DB	00H
	DB	07cH
	DB	00H
	DB	00H
	DB	053H
	DB	064H
	DB	01H
	DB	00H
	DB	053H
	DB	028H
	DB	02H
	DB	00H
	DB	00H
	DB	00H
	DB	075H
	DB	015H
	DB	00H
	DB	00H
	DB	00H
	DB	046H
	DB	069H
	DB	06eH
	DB	064H
	DB	020H
	DB	061H
	DB	020H
	DB	066H
	DB	072H
	DB	06fH
	DB	07aH
	DB	065H
	DB	06eH
	DB	020H
	DB	06dH
	DB	06fH
	DB	064H
	DB	075H
	DB	06cH
	DB	065H
	DB	02eH
	DB	04eH
	DB	028H
	DB	03H
	DB	00H
	DB	00H
	DB	00H
	DB	075H
	DB	04H
	DB	00H
	DB	00H
	DB	00H
	DB	05fH
	DB	069H
	DB	06dH
	DB	070H
	DB	075H
	DB	09H
	DB	00H
	DB	00H
	DB	00H
	DB	069H
	DB	073H
	DB	05fH
	DB	066H
	DB	072H
	DB	06fH
	DB	07aH
	DB	065H
	DB	06eH
	DB	075H
	DB	04H
	DB	00H
	DB	00H
	DB	00H
	DB	04eH
	DB	06fH
	DB	06eH
	DB	065H
	DB	028H
	DB	03H
	DB	00H
	DB	00H
	DB	00H
	DB	075H
	DB	03H
	DB	00H
	DB	00H
	DB	00H
	DB	063H
	DB	06cH
	DB	073H
	DB	075H
	DB	08H
	DB	00H
	DB	00H
	DB	00H
	DB	066H
	DB	075H
	DB	06cH
	DB	06cH
	DB	06eH
	DB	061H
	DB	06dH
	DB	065H
	DB	075H
	DB	04H
	DB	00H
	DB	00H
	DB	00H
	DB	070H
	DB	061H
	DB	074H
	DB	068H
	DB	028H
	DB	00H
	DB	00H
	DB	00H
	DB	00H
	DB	028H
	DB	00H
	DB	00H
	DB	00H
	DB	00H
	DB	075H
	DB	01dH
	DB	00H
	DB	00H
	DB	00H
	DB	03cH
	DB	066H
	DB	072H
	DB	06fH
	DB	07aH
	DB	065H
	DB	06eH
	DB	020H
	DB	069H
	DB	06dH
	DB	070H
	DB	06fH
	DB	072H
	DB	074H
	DB	06cH
	DB	069H
	DB	062H
	DB	02eH
	DB	05fH
	DB	062H
	DB	06fH
	DB	06fH
	DB	074H
	DB	073H
	DB	074H
	DB	072H
	DB	061H
	DB	070H
	DB	03eH
	DB	075H
	DB	0bH
	DB	00H
	DB	00H
	DB	00H
	DB	066H
	DB	069H
	DB	06eH
	DB	064H
	DB	05fH
	DB	06dH
	DB	06fH
	DB	064H
	DB	075H
	DB	06cH
	DB	065H
	DB	0baH
	DB	02H
	DB	00H
	DB	00H
	DB	073H
	DB	02H
	DB	00H
	DB	00H
	DB	00H
	DB	00H
	DB	03H
	DB	075H
	DB	01aH
	DB	00H
	DB	00H
	DB	00H
	DB	046H
	DB	072H
	DB	06fH
	DB	07aH
	DB	065H
	DB	06eH
	DB	049H
	DB	06dH
	DB	070H
	DB	06fH
	DB	072H
	DB	074H
	DB	065H
	DB	072H
	DB	02eH
	DB	066H
	DB	069H
	DB	06eH
	DB	064H
	DB	05fH
	DB	06dH
	DB	06fH
	DB	064H
	DB	075H
	DB	06cH
	DB	065H
	DB	063H
	DB	02H
	DB	00H
	DB	00H
	DB	00H
	DB	00H
	DB	00H
	DB	00H
	DB	00H
	DB	04H
	DB	00H
	DB	00H
	DB	00H
	DB	09H
	DB	00H
	DB	00H
	DB	00H
	DB	043H
	DB	00H
	DB	00H
	DB	00H
	DB	073H
	DB	064H
	DB	00H
	DB	00H
	DB	00H
	DB	07cH
	DB	01H
	DB	00H
	DB	074H
	DB	00H
	DB	00H
	DB	06aH
	DB	01H
	DB	00H
	DB	06bH
	DB	06H
	DB	00H
	DB	07dH
	DB	02H
	DB	00H
	DB	079H
	DB	020H
	DB	00H
	DB	074H
	DB	02H
	DB	00H
	DB	074H
	DB	03H
	DB	00H
	DB	06aH
	DB	04H
	DB	00H
	DB	07cH
	DB	01H
	DB	00H
	DB	083H
	DB	02H
	DB	00H
	DB	07dH
	DB	03H
	DB	00H
	DB	07cH
	DB	03H
	DB	00H
	DB	060H
	DB	05H
	DB	00H
	DB	07cH
	DB	03H
	DB	00H
	DB	053H
	DB	057H
	DB	06eH
	DB	02eH
	DB	00H
	DB	01H
	DB	01H
	DB	01H
	DB	07cH
	DB	02H
	DB	00H
	DB	0cH
	DB	072H
	DB	058H
	DB	00H
	DB	07cH
	DB	01H
	DB	00H
	DB	074H
	DB	00H
	DB	00H
	DB	06aH
	DB	01H
	DB	00H
	DB	06bH
	DB	06H
	DB	00H
	DB	072H
	DB	058H
	DB	00H
	DB	074H
	DB	00H
	DB	00H
	DB	06aH
	DB	01H
	DB	00H
	DB	07cH
	DB	01H
	DB	00H
	DB	03dH
	DB	06eH
	DB	00H
	DB	00H
	DB	082H
	DB	00H
	DB	00H
	DB	059H
	DB	06eH
	DB	01H
	DB	00H
	DB	058H
	DB	064H
	DB	01H
	DB	00H
	DB	053H
	DB	028H
	DB	02H
	DB	00H
	DB	00H
	DB	00H
	DB	075H
	DB	015H
	DB	00H
	DB	00H
	DB	00H
	DB	04cH
	DB	06fH
	DB	061H
	DB	064H
	DB	020H
	DB	061H
	DB	020H
	DB	066H
	DB	072H
	DB	06fH
	DB	07aH
	DB	065H
	DB	06eH
	DB	020H
	DB	06dH
	DB	06fH
	DB	064H
	DB	075H
	DB	06cH
	DB	065H
	DB	02eH
	DB	04eH
	DB	028H
	DB	06H
	DB	00H
	DB	00H
	DB	00H
	DB	075H
	DB	03H
	DB	00H
	DB	00H
	DB	00H
	DB	073H
	DB	079H
	DB	073H
	DB	075H
	DB	07H
	DB	00H
	DB	00H
	DB	00H
	DB	06dH
	DB	06fH
	DB	064H
	DB	075H
	DB	06cH
	DB	065H
	DB	073H
	DB	075H
	DB	019H
	DB	00H
	DB	00H
	DB	00H
	DB	05fH
	DB	063H
	DB	061H
	DB	06cH
	DB	06cH
	DB	05fH
	DB	077H
	DB	069H
	DB	074H
	DB	068H
	DB	05fH
	DB	066H
	DB	072H
	DB	061H
	DB	06dH
	DB	065H
	DB	073H
	DB	05fH
	DB	072H
	DB	065H
	DB	06dH
	DB	06fH
	DB	076H
	DB	065H
	DB	064H
	DB	075H
	DB	04H
	DB	00H
	DB	00H
	DB	00H
	DB	05fH
	DB	069H
	DB	06dH
	DB	070H
	DB	075H
	DB	0bH
	DB	00H
	DB	00H
	DB	00H
	DB	069H
	DB	06eH
	DB	069H
	DB	074H
	DB	05fH
	DB	066H
	DB	072H
	DB	06fH
	DB	07aH
	DB	065H
	DB	06eH
	DB	075H
	DB	08H
	DB	00H
	DB	00H
	DB	00H
	DB	05fH
	DB	05fH
	DB	066H
	DB	069H
	DB	06cH
	DB	065H
	DB	05fH
	DB	05fH
	DB	028H
	DB	04H
	DB	00H
	DB	00H
	DB	00H
	DB	075H
	DB	03H
	DB	00H
	DB	00H
	DB	00H
	DB	063H
	DB	06cH
	DB	073H
	DB	075H
	DB	08H
	DB	00H
	DB	00H
	DB	00H
	DB	066H
	DB	075H
	DB	06cH
	DB	06cH
	DB	06eH
	DB	061H
	DB	06dH
	DB	065H
	DB	075H
	DB	09H
	DB	00H
	DB	00H
	DB	00H
	DB	069H
	DB	073H
	DB	05fH
	DB	072H
	DB	065H
	DB	06cH
	DB	06fH
	DB	061H
	DB	064H
	DB	075H
	DB	01H
	DB	00H
	DB	00H
	DB	00H
	DB	06dH
	DB	028H
	DB	00H
	DB	00H
	DB	00H
	DB	00H
	DB	028H
	DB	00H
	DB	00H
	DB	00H
	DB	00H
	DB	075H
	DB	01dH
	DB	00H
	DB	00H
	DB	00H
	DB	03cH
	DB	066H
	DB	072H
	DB	06fH
	DB	07aH
	DB	065H
	DB	06eH
	DB	020H
	DB	069H
	DB	06dH
	DB	070H
	DB	06fH
	DB	072H
	DB	074H
	DB	06cH
	DB	069H
	DB	062H
	DB	02eH
	DB	05fH
	DB	062H
	DB	06fH
	DB	06fH
	DB	074H
	DB	073H
	DB	074H
	DB	072H
	DB	061H
	DB	070H
	DB	03eH
	DB	075H
	DB	0bH
	DB	00H
	DB	00H
	DB	00H
	DB	06cH
	DB	06fH
	DB	061H
	DB	064H
	DB	05fH
	DB	06dH
	DB	06fH
	DB	064H
	DB	075H
	DB	06cH
	DB	065H
	DB	0bfH
	DB	02H
	DB	00H
	DB	00H
	DB	073H
	DB	012H
	DB	00H
	DB	00H
	DB	00H
	DB	00H
	DB	06H
	DB	0fH
	DB	01H
	DB	03H
	DB	01H
	DB	012H
	DB	02H
	DB	06H
	DB	01H
	DB	08H
	DB	01H
	DB	03H
	DB	01H
	DB	016H
	DB	01H
	DB	0dH
	DB	01H
	DB	075H
	DB	01aH
	DB	00H
	DB	00H
	DB	00H
	DB	046H
	DB	072H
	DB	06fH
	DB	07aH
	DB	065H
	DB	06eH
	DB	049H
	DB	06dH
	DB	070H
	DB	06fH
	DB	072H
	DB	074H
	DB	065H
	DB	072H
	DB	02eH
	DB	06cH
	DB	06fH
	DB	061H
	DB	064H
	DB	05fH
	DB	06dH
	DB	06fH
	DB	064H
	DB	075H
	DB	06cH
	DB	065H
	DB	063H
	DB	02H
	DB	00H
	DB	00H
	DB	00H
	DB	00H
	DB	00H
	DB	00H
	DB	00H
	DB	02H
	DB	00H
	DB	00H
	DB	00H
	DB	02H
	DB	00H
	DB	00H
	DB	00H
	DB	043H
	DB	00H
	DB	00H
	DB	00H
	DB	073H
	DB	0dH
	DB	00H
	DB	00H
	DB	00H
	DB	074H
	DB	00H
	DB	00H
	DB	06aH
	DB	01H
	DB	00H
	DB	07cH
	DB	01H
	DB	00H
	DB	083H
	DB	01H
	DB	00H
	DB	053H
	DB	028H
	DB	01H
	DB	00H
	DB	00H
	DB	00H
	DB	075H
	DB	02dH
	DB	00H
	DB	00H
	DB	00H
	DB	052H
	DB	065H
	DB	074H
	DB	075H
	DB	072H
	DB	06eH
	DB	020H
	DB	074H
	DB	068H
	DB	065H
	DB	020H
	DB	063H
	DB	06fH
	DB	064H
	DB	065H
	DB	020H
	DB	06fH
	DB	062H
	DB	06aH
	DB	065H
	DB	063H
	DB	074H
	DB	020H
	DB	066H
	DB	06fH
	DB	072H
	DB	020H
	DB	074H
	DB	068H
	DB	065H
	DB	020H
	DB	066H
	DB	072H
	DB	06fH
	DB	07aH
	DB	065H
	DB	06eH
	DB	020H
	DB	06dH
	DB	06fH
	DB	064H
	DB	075H
	DB	06cH
	DB	065H
	DB	02eH
	DB	028H
	DB	02H
	DB	00H
	DB	00H
	DB	00H
	DB	075H
	DB	04H
	DB	00H
	DB	00H
	DB	00H
	DB	05fH
	DB	069H
	DB	06dH
	DB	070H
	DB	075H
	DB	011H
	DB	00H
	DB	00H
	DB	00H
	DB	067H
	DB	065H
	DB	074H
	DB	05fH
	DB	066H
	DB	072H
	DB	06fH
	DB	07aH
	DB	065H
	DB	06eH
	DB	05fH
	DB	06fH
	DB	062H
	DB	06aH
	DB	065H
	DB	063H
	DB	074H
	DB	028H
	DB	02H
	DB	00H
	DB	00H
	DB	00H
	DB	075H
	DB	03H
	DB	00H
	DB	00H
	DB	00H
	DB	063H
	DB	06cH
	DB	073H
	DB	075H
	DB	08H
	DB	00H
	DB	00H
	DB	00H
	DB	066H
	DB	075H
	DB	06cH
	DB	06cH
	DB	06eH
	DB	061H
	DB	06dH
	DB	065H
	DB	028H
	DB	00H
	DB	00H
	DB	00H
	DB	00H
	DB	028H
	DB	00H
	DB	00H
	DB	00H
	DB	00H
	DB	075H
	DB	01dH
	DB	00H
	DB	00H
	DB	00H
	DB	03cH
	DB	066H
	DB	072H
	DB	06fH
	DB	07aH
	DB	065H
	DB	06eH
	DB	020H
	DB	069H
	DB	06dH
	DB	070H
	DB	06fH
	DB	072H
	DB	074H
	DB	06cH
	DB	069H
	DB	062H
	DB	02eH
	DB	05fH
	DB	062H
	DB	06fH
	DB	06fH
	DB	074H
	DB	073H
	DB	074H
	DB	072H
	DB	061H
	DB	070H
	DB	03eH
	DB	075H
	DB	08H
	DB	00H
	DB	00H
	DB	00H
	DB	067H
	DB	065H
	DB	074H
	DB	05fH
	DB	063H
	DB	06fH
	DB	064H
	DB	065H
	DB	0d0H
	DB	02H
	DB	00H
	DB	00H
	DB	073H
	DB	02H
	DB	00H
	DB	00H
	DB	00H
	DB	00H
	DB	04H
	DB	075H
	DB	017H
	DB	00H
	DB	00H
	DB	00H
	DB	046H
	DB	072H
	DB	06fH
	DB	07aH
	DB	065H
	DB	06eH
	DB	049H
	DB	06dH
	DB	070H
	DB	06fH
	DB	072H
	DB	074H
	DB	065H
	DB	072H
	DB	02eH
	DB	067H
	DB	065H
	DB	074H
	DB	05fH
	DB	063H
	DB	06fH
	DB	064H
	DB	065H
	DB	063H
	DB	02H
	DB	00H
	DB	00H
	DB	00H
	DB	00H
	DB	00H
	DB	00H
	DB	00H
	DB	02H
	DB	00H
	DB	00H
	DB	00H
	DB	01H
	DB	00H
	DB	00H
	DB	00H
	DB	043H
	DB	00H
	DB	00H
	DB	00H
	DB	073H
	DB	04H
	DB	00H
	DB	00H
	DB	00H
	DB	064H
	DB	01H
	DB	00H
	DB	053H
	DB	028H
	DB	02H
	DB	00H
	DB	00H
	DB	00H
	DB	075H
	DB	036H
	DB	00H
	DB	00H
	DB	00H
	DB	052H
	DB	065H
	DB	074H
	DB	075H
	DB	072H
	DB	06eH
	DB	020H
	DB	04eH
	DB	06fH
	DB	06eH
	DB	065H
	DB	020H
	DB	061H
	DB	073H
	DB	020H
	DB	066H
	DB	072H
	DB	06fH
	DB	07aH
	DB	065H
	DB	06eH
	DB	020H
	DB	06dH
	DB	06fH
	DB	064H
	DB	075H
	DB	06cH
	DB	065H
	DB	073H
	DB	020H
	DB	064H
	DB	06fH
	DB	020H
	DB	06eH
	DB	06fH
	DB	074H
	DB	020H
	DB	068H
	DB	061H
	DB	076H
	DB	065H
	DB	020H
	DB	073H
	DB	06fH
	DB	075H
	DB	072H
	DB	063H
	DB	065H
	DB	020H
	DB	063H
