; Listing generated by Microsoft (R) Optimizing Compiler Version 16.00.40219.01 

include listing.inc

INCLUDELIB MSVCRTD
INCLUDELIB OLDNAMES

PUBLIC	??_C@_0BE@NHGCEHEH@?$CF?480s?5?$CI?$CF?480s?$CJ?5?$CF?480s?$AA@ ; `string'
PUBLIC	??_C@_05MAFOEECJ@3?43?45?$AA@			; `string'
PUBLIC	Py_GetVersion
EXTRN	PyOS_snprintf:PROC
EXTRN	Py_GetBuildInfo:PROC
EXTRN	Py_GetCompiler:PROC
_BSS	SEGMENT
?version@?1??Py_GetVersion@@9@9 DB 0faH DUP (?)		; `Py_GetVersion'::`2'::version
_BSS	ENDS
;	COMDAT pdata
; File c:\src\pyparallel\python\getversion.c
pdata	SEGMENT
$pdata$Py_GetVersion DD imagerel $LN3
	DD	imagerel $LN3+77
	DD	imagerel $unwind$Py_GetVersion
pdata	ENDS
;	COMDAT xdata
xdata	SEGMENT
$unwind$Py_GetVersion DD 010401H
	DD	08204H
xdata	ENDS
;	COMDAT ??_C@_0BE@NHGCEHEH@?$CF?480s?5?$CI?$CF?480s?$CJ?5?$CF?480s?$AA@
CONST	SEGMENT
??_C@_0BE@NHGCEHEH@?$CF?480s?5?$CI?$CF?480s?$CJ?5?$CF?480s?$AA@ DB '%.80s'
	DB	' (%.80s) %.80s', 00H			; `string'
CONST	ENDS
;	COMDAT ??_C@_05MAFOEECJ@3?43?45?$AA@
CONST	SEGMENT
??_C@_05MAFOEECJ@3?43?45?$AA@ DB '3.3.5', 00H		; `string'
; Function compile flags: /Odtp
CONST	ENDS
;	COMDAT Py_GetVersion
_TEXT	SEGMENT
tv65 = 48
Py_GetVersion PROC					; COMDAT

; 10   : {

$LN3:
  00000	48 83 ec 48	 sub	 rsp, 72			; 00000048H

; 11   : 	static char version[250];
; 12   : 	PyOS_snprintf(version, sizeof(version), "%.80s (%.80s) %.80s",
; 13   : 		      PY_VERSION, Py_GetBuildInfo(), Py_GetCompiler());

  00004	e8 00 00 00 00	 call	 Py_GetCompiler
  00009	48 89 44 24 30	 mov	 QWORD PTR tv65[rsp], rax
  0000e	e8 00 00 00 00	 call	 Py_GetBuildInfo
  00013	48 8b 4c 24 30	 mov	 rcx, QWORD PTR tv65[rsp]
  00018	48 89 4c 24 28	 mov	 QWORD PTR [rsp+40], rcx
  0001d	48 89 44 24 20	 mov	 QWORD PTR [rsp+32], rax
  00022	4c 8d 0d 00 00
	00 00		 lea	 r9, OFFSET FLAT:??_C@_05MAFOEECJ@3?43?45?$AA@
  00029	4c 8d 05 00 00
	00 00		 lea	 r8, OFFSET FLAT:??_C@_0BE@NHGCEHEH@?$CF?480s?5?$CI?$CF?480s?$CJ?5?$CF?480s?$AA@
  00030	ba fa 00 00 00	 mov	 edx, 250		; 000000faH
  00035	48 8d 0d 00 00
	00 00		 lea	 rcx, OFFSET FLAT:?version@?1??Py_GetVersion@@9@9
  0003c	e8 00 00 00 00	 call	 PyOS_snprintf

; 14   : 	return version;

  00041	48 8d 05 00 00
	00 00		 lea	 rax, OFFSET FLAT:?version@?1??Py_GetVersion@@9@9

; 15   : }

  00048	48 83 c4 48	 add	 rsp, 72			; 00000048H
  0004c	c3		 ret	 0
Py_GetVersion ENDP
_TEXT	ENDS
END
