; Listing generated by Microsoft (R) Optimizing Compiler Version 16.00.40219.01 

include listing.inc

INCLUDELIB MSVCRTD
INCLUDELIB OLDNAMES

PUBLIC	??_C@_0BF@EBOOGILH@list_reverseiterator?$AA@	; `string'
PUBLIC	??_C@_0O@NAJHOHI@list_iterator?$AA@		; `string'
PUBLIC	??_C@_0N@MOOGCAMH@__setstate__?$AA@		; `string'
PUBLIC	??_C@_0L@NNMACJIG@__reduce__?$AA@		; `string'
PUBLIC	??_C@_0BA@BJLPBKGK@__length_hint__?$AA@		; `string'
PUBLIC	??_C@_04DONFEANM@list?$AA@			; `string'
PUBLIC	??_C@_04PIMMHFGE@sort?$AA@			; `string'
PUBLIC	??_C@_05IOMEMJEC@count?$AA@			; `string'
PUBLIC	??_C@_05FKHKFDID@index?$AA@			; `string'
PUBLIC	??_C@_06LEMKAMD@remove?$AA@			; `string'
PUBLIC	??_C@_03NJDAHFJE@pop?$AA@			; `string'
PUBLIC	??_C@_06BPBOMFNI@extend?$AA@			; `string'
PUBLIC	??_C@_06OAOPNKHP@insert?$AA@			; `string'
PUBLIC	??_C@_06PCICMFGG@append?$AA@			; `string'
PUBLIC	??_C@_04COAGEIMF@copy?$AA@			; `string'
PUBLIC	??_C@_05MEHLAELG@clear?$AA@			; `string'
PUBLIC	??_C@_0L@HOGGIPGN@__sizeof__?$AA@		; `string'
PUBLIC	??_C@_0N@FDLIKANA@__reversed__?$AA@		; `string'
PUBLIC	??_C@_0M@GAJGCIJD@__getitem__?$AA@		; `string'
PUBLIC	??_C@_08IBBDGPOF@sequence?$AA@			; `string'
PUBLIC	??_C@_07KOIEOCCE@reverse?$AA@			; `string'
PUBLIC	??_C@_03ICHNJLJF@key?$AA@			; `string'
PUBLIC	PyList_Type
PUBLIC	PyListIter_Type
PUBLIC	PyListRevIter_Type
EXTRN	PyObject_SelfIter:PROC
EXTRN	PyObject_GC_Del:PROC
EXTRN	PyType_GenericNew:PROC
EXTRN	PyType_GenericAlloc:PROC
EXTRN	PyObject_GenericGetAttr:PROC
EXTRN	PyObject_HashNotImplemented:PROC
EXTRN	PyType_Type:BYTE
_BSS	SEGMENT
numfree	DD	01H DUP (?)
	ALIGN	8

indexerr DQ	01H DUP (?)
?sep@?1??list_repr@@9@9 DQ 01H DUP (?)			; `list_repr'::`2'::sep
_BSS	ENDS
;	COMDAT ??_C@_0BF@EBOOGILH@list_reverseiterator?$AA@
CONST	SEGMENT
??_C@_0BF@EBOOGILH@list_reverseiterator?$AA@ DB 'list_reverseiterator', 00H ; `string'
CONST	ENDS
;	COMDAT ??_C@_0O@NAJHOHI@list_iterator?$AA@
CONST	SEGMENT
??_C@_0O@NAJHOHI@list_iterator?$AA@ DB 'list_iterator', 00H ; `string'
CONST	ENDS
;	COMDAT ??_C@_0N@MOOGCAMH@__setstate__?$AA@
CONST	SEGMENT
??_C@_0N@MOOGCAMH@__setstate__?$AA@ DB '__setstate__', 00H ; `string'
CONST	ENDS
;	COMDAT ??_C@_0L@NNMACJIG@__reduce__?$AA@
CONST	SEGMENT
??_C@_0L@NNMACJIG@__reduce__?$AA@ DB '__reduce__', 00H	; `string'
CONST	ENDS
;	COMDAT ??_C@_0BA@BJLPBKGK@__length_hint__?$AA@
CONST	SEGMENT
??_C@_0BA@BJLPBKGK@__length_hint__?$AA@ DB '__length_hint__', 00H ; `string'
CONST	ENDS
;	COMDAT ??_C@_04DONFEANM@list?$AA@
CONST	SEGMENT
??_C@_04DONFEANM@list?$AA@ DB 'list', 00H		; `string'
CONST	ENDS
;	COMDAT ??_C@_04PIMMHFGE@sort?$AA@
CONST	SEGMENT
??_C@_04PIMMHFGE@sort?$AA@ DB 'sort', 00H		; `string'
CONST	ENDS
;	COMDAT ??_C@_05IOMEMJEC@count?$AA@
CONST	SEGMENT
??_C@_05IOMEMJEC@count?$AA@ DB 'count', 00H		; `string'
CONST	ENDS
;	COMDAT ??_C@_05FKHKFDID@index?$AA@
CONST	SEGMENT
??_C@_05FKHKFDID@index?$AA@ DB 'index', 00H		; `string'
CONST	ENDS
;	COMDAT ??_C@_06LEMKAMD@remove?$AA@
CONST	SEGMENT
??_C@_06LEMKAMD@remove?$AA@ DB 'remove', 00H		; `string'
CONST	ENDS
;	COMDAT ??_C@_03NJDAHFJE@pop?$AA@
CONST	SEGMENT
??_C@_03NJDAHFJE@pop?$AA@ DB 'pop', 00H			; `string'
CONST	ENDS
;	COMDAT ??_C@_06BPBOMFNI@extend?$AA@
CONST	SEGMENT
??_C@_06BPBOMFNI@extend?$AA@ DB 'extend', 00H		; `string'
CONST	ENDS
;	COMDAT ??_C@_06OAOPNKHP@insert?$AA@
CONST	SEGMENT
??_C@_06OAOPNKHP@insert?$AA@ DB 'insert', 00H		; `string'
CONST	ENDS
;	COMDAT ??_C@_06PCICMFGG@append?$AA@
CONST	SEGMENT
??_C@_06PCICMFGG@append?$AA@ DB 'append', 00H		; `string'
CONST	ENDS
;	COMDAT ??_C@_04COAGEIMF@copy?$AA@
CONST	SEGMENT
??_C@_04COAGEIMF@copy?$AA@ DB 'copy', 00H		; `string'
CONST	ENDS
;	COMDAT ??_C@_05MEHLAELG@clear?$AA@
CONST	SEGMENT
??_C@_05MEHLAELG@clear?$AA@ DB 'clear', 00H		; `string'
CONST	ENDS
;	COMDAT ??_C@_0L@HOGGIPGN@__sizeof__?$AA@
CONST	SEGMENT
??_C@_0L@HOGGIPGN@__sizeof__?$AA@ DB '__sizeof__', 00H	; `string'
CONST	ENDS
;	COMDAT ??_C@_0N@FDLIKANA@__reversed__?$AA@
CONST	SEGMENT
??_C@_0N@FDLIKANA@__reversed__?$AA@ DB '__reversed__', 00H ; `string'
CONST	ENDS
;	COMDAT ??_C@_0M@GAJGCIJD@__getitem__?$AA@
CONST	SEGMENT
??_C@_0M@GAJGCIJD@__getitem__?$AA@ DB '__getitem__', 00H ; `string'
CONST	ENDS
;	COMDAT ??_C@_08IBBDGPOF@sequence?$AA@
CONST	SEGMENT
??_C@_08IBBDGPOF@sequence?$AA@ DB 'sequence', 00H	; `string'
CONST	ENDS
_DATA	SEGMENT
?kwlist@?1??listsort@@9@9 DQ FLAT:??_C@_03ICHNJLJF@key?$AA@ ; `listsort'::`2'::kwlist
	DQ	FLAT:??_C@_07KOIEOCCE@reverse?$AA@
	DQ	0000000000000000H
?kwlist@?1??list_init@@9@9 DQ FLAT:??_C@_08IBBDGPOF@sequence?$AA@ ; `list_init'::`2'::kwlist
	DQ	0000000000000000H
getitem_doc DB	'x.__getitem__(y) <==> x[y]', 00H
	ORG $+5
reversed_doc DB	'L.__reversed__() -- return a reverse iterator over the l'
	DB	'ist', 00H
	ORG $+4
sizeof_doc DB	'L.__sizeof__() -- size of L in memory, in bytes', 00H
clear_doc DB	'L.clear() -> None -- remove all items from L', 00H
	ORG $+3
copy_doc DB	'L.copy() -> list -- a shallow copy of L', 00H
append_doc DB	'L.append(object) -> None -- append object to end', 00H
	ORG $+15
extend_doc DB	'L.extend(iterable) -> None -- extend list by appending e'
	DB	'lements from the iterable', 00H
	ORG $+6
insert_doc DB	'L.insert(index, object) -- insert object before index', 00H
	ORG $+2
pop_doc	DB	'L.pop([index]) -> item -- remove and return item at inde'
	DB	'x (default last).', 0aH, 'Raises IndexError if list is empty '
	DB	'or index is out of range.', 00H
	ORG $+9
remove_doc DB	'L.remove(value) -> None -- remove first occurrence of va'
	DB	'lue.', 0aH, 'Raises ValueError if the value is not present.', 00H
	ORG $+4
index_doc DB	'L.index(value, [start, [stop]]) -> integer -- return fir'
	DB	'st index of value.', 0aH, 'Raises ValueError if the value is '
	DB	'not present.', 00H
	ORG $+6
count_doc DB	'L.count(value) -> integer -- return number of occurrence'
	DB	's of value', 00H
	ORG $+5
reverse_doc DB	'L.reverse() -- reverse *IN PLACE*', 00H
	ORG $+6
sort_doc DB	'L.sort(key=None, reverse=False) -> None -- stable sort *'
	DB	'IN PLACE*', 00H
	ORG $+14
list_methods DQ	FLAT:??_C@_0M@GAJGCIJD@__getitem__?$AA@
	DQ	FLAT:list_subscript
	DD	048H
	ORG $+4
	DQ	FLAT:getitem_doc
	DQ	FLAT:??_C@_0N@FDLIKANA@__reversed__?$AA@
	DQ	FLAT:list_reversed
	DD	04H
	ORG $+4
	DQ	FLAT:reversed_doc
	DQ	FLAT:??_C@_0L@HOGGIPGN@__sizeof__?$AA@
	DQ	FLAT:list_sizeof
	DD	04H
	ORG $+4
	DQ	FLAT:sizeof_doc
	DQ	FLAT:??_C@_05MEHLAELG@clear?$AA@
	DQ	FLAT:listclear
	DD	04H
	ORG $+4
	DQ	FLAT:clear_doc
	DQ	FLAT:??_C@_04COAGEIMF@copy?$AA@
	DQ	FLAT:listcopy
	DD	04H
	ORG $+4
	DQ	FLAT:copy_doc
	DQ	FLAT:??_C@_06PCICMFGG@append?$AA@
	DQ	FLAT:listappend
	DD	08H
	ORG $+4
	DQ	FLAT:append_doc
	DQ	FLAT:??_C@_06OAOPNKHP@insert?$AA@
	DQ	FLAT:listinsert
	DD	01H
	ORG $+4
	DQ	FLAT:insert_doc
	DQ	FLAT:??_C@_06BPBOMFNI@extend?$AA@
	DQ	FLAT:listextend
	DD	08H
	ORG $+4
	DQ	FLAT:extend_doc
	DQ	FLAT:??_C@_03NJDAHFJE@pop?$AA@
	DQ	FLAT:listpop
	DD	01H
	ORG $+4
	DQ	FLAT:pop_doc
	DQ	FLAT:??_C@_06LEMKAMD@remove?$AA@
	DQ	FLAT:listremove
	DD	08H
	ORG $+4
	DQ	FLAT:remove_doc
	DQ	FLAT:??_C@_05FKHKFDID@index?$AA@
	DQ	FLAT:listindex
	DD	01H
	ORG $+4
	DQ	FLAT:index_doc
	DQ	FLAT:??_C@_05IOMEMJEC@count?$AA@
	DQ	FLAT:listcount
	DD	08H
	ORG $+4
	DQ	FLAT:count_doc
	DQ	FLAT:??_C@_07KOIEOCCE@reverse?$AA@
	DQ	FLAT:listreverse
	DD	04H
	ORG $+4
	DQ	FLAT:reverse_doc
	DQ	FLAT:??_C@_04PIMMHFGE@sort?$AA@
	DQ	FLAT:listsort
	DD	03H
	ORG $+4
	DQ	FLAT:sort_doc
	DQ	0000000000000000H
	DQ	0000000000000000H
	ORG $+16
list_as_sequence DQ FLAT:list_length
	DQ	FLAT:list_concat
	DQ	FLAT:list_repeat
	DQ	FLAT:list_item
	DQ	0000000000000000H
	DQ	FLAT:list_ass_item
	DQ	0000000000000000H
	DQ	FLAT:list_contains
	DQ	FLAT:list_inplace_concat
	DQ	FLAT:list_inplace_repeat
list_doc DB	'list() -> new empty list', 0aH, 'list(iterable) -> new l'
	DB	'ist initialized from iterable''s items', 00H
	ORG $+2
list_as_mapping DQ FLAT:list_length
	DQ	FLAT:list_subscript
	DQ	FLAT:list_ass_subscript
PyList_Type DQ	dead1234beef5678H
	DQ	dead1234beef5678H
	DQ	0000000000000000H
	ORG $+8
	DQ	0000000000000001H
	DQ	0000000000000000H
	DQ	0000000000000000H
	DQ	0000000000000000H
	DQ	dead1234beef5678H
	DQ	dead1234beef5678H
	DQ	0000000000000001H
	DQ	FLAT:PyType_Type
	DQ	0000000000000000H
	ORG $+8
	DQ	FLAT:??_C@_04DONFEANM@list?$AA@
	DQ	0000000000000080H
	DQ	0000000000000000H
	DQ	FLAT:list_dealloc
	DQ	0000000000000000H
	DQ	0000000000000000H
	DQ	0000000000000000H
	DQ	0000000000000000H
	DQ	FLAT:list_repr
	DQ	0000000000000000H
	DQ	FLAT:list_as_sequence
	DQ	FLAT:list_as_mapping
	DQ	FLAT:PyObject_HashNotImplemented
	DQ	0000000000000000H
	DQ	0000000000000000H
	DQ	FLAT:PyObject_GenericGetAttr
	DQ	0000000000000000H
	DQ	0000000000000000H
	DD	02044400H
	ORG $+4
	DQ	FLAT:list_doc
	DQ	FLAT:list_traverse
	DQ	FLAT:list_clear
	DQ	FLAT:list_richcompare
	DQ	0000000000000000H
	DQ	FLAT:list_iter
	DQ	0000000000000000H
	DQ	FLAT:list_methods
	DQ	0000000000000000H
	DQ	0000000000000000H
	DQ	0000000000000000H
	DQ	0000000000000000H
	DQ	0000000000000000H
	DQ	0000000000000000H
	DQ	0000000000000000H
	DQ	FLAT:list_init
	DQ	FLAT:PyType_GenericAlloc
	DQ	FLAT:PyType_GenericNew
	DQ	FLAT:PyObject_GC_Del
	ORG $+64
length_hint_doc DB 'Private method returning an estimate of len(list(it))'
	DB	'.', 00H
	ORG $+1
reduce_doc DB	'Return state information for pickling.', 00H
	ORG $+1
setstate_doc DB	'Set state information for unpickling.', 00H
	ORG $+10
listiter_methods DQ FLAT:??_C@_0BA@BJLPBKGK@__length_hint__?$AA@
	DQ	FLAT:listiter_len
	DD	04H
	ORG $+4
	DQ	FLAT:length_hint_doc
	DQ	FLAT:??_C@_0L@NNMACJIG@__reduce__?$AA@
	DQ	FLAT:listiter_reduce
	DD	04H
	ORG $+4
	DQ	FLAT:reduce_doc
	DQ	FLAT:??_C@_0N@MOOGCAMH@__setstate__?$AA@
	DQ	FLAT:listiter_setstate
	DD	08H
	ORG $+4
	DQ	FLAT:setstate_doc
	DQ	0000000000000000H
	DQ	0000000000000000H
	ORG $+16
PyListIter_Type DQ dead1234beef5678H
	DQ	dead1234beef5678H
	DQ	0000000000000000H
	ORG $+8
	DQ	0000000000000001H
	DQ	0000000000000000H
	DQ	0000000000000000H
	DQ	0000000000000000H
	DQ	dead1234beef5678H
	DQ	dead1234beef5678H
	DQ	0000000000000001H
	DQ	FLAT:PyType_Type
	DQ	0000000000000000H
	ORG $+8
	DQ	FLAT:??_C@_0O@NAJHOHI@list_iterator?$AA@
	DQ	0000000000000070H
	DQ	0000000000000000H
	DQ	FLAT:listiter_dealloc
	DQ	0000000000000000H
	DQ	0000000000000000H
	DQ	0000000000000000H
	DQ	0000000000000000H
	DQ	0000000000000000H
	DQ	0000000000000000H
	DQ	0000000000000000H
	DQ	0000000000000000H
	DQ	0000000000000000H
	DQ	0000000000000000H
	DQ	0000000000000000H
	DQ	FLAT:PyObject_GenericGetAttr
	DQ	0000000000000000H
	DQ	0000000000000000H
	DD	044000H
	ORG $+4
	DQ	0000000000000000H
	DQ	FLAT:listiter_traverse
	DQ	0000000000000000H
	DQ	0000000000000000H
	DQ	0000000000000000H
	DQ	FLAT:PyObject_SelfIter
	DQ	FLAT:listiter_next
	DQ	FLAT:listiter_methods
	DQ	0000000000000000H
	ORG $+144
listreviter_methods DQ FLAT:??_C@_0BA@BJLPBKGK@__length_hint__?$AA@
	DQ	FLAT:listreviter_len
	DD	04H
	ORG $+4
	DQ	FLAT:length_hint_doc
	DQ	FLAT:??_C@_0L@NNMACJIG@__reduce__?$AA@
	DQ	FLAT:listreviter_reduce
	DD	04H
	ORG $+4
	DQ	FLAT:reduce_doc
	DQ	FLAT:??_C@_0N@MOOGCAMH@__setstate__?$AA@
	DQ	FLAT:listreviter_setstate
	DD	08H
	ORG $+4
	DQ	FLAT:setstate_doc
	DQ	0000000000000000H
	DQ	0000000000000000H
	ORG $+16
PyListRevIter_Type DQ dead1234beef5678H
	DQ	dead1234beef5678H
	DQ	0000000000000000H
	ORG $+8
	DQ	0000000000000001H
	DQ	0000000000000000H
	DQ	0000000000000000H
	DQ	0000000000000000H
	DQ	dead1234beef5678H
	DQ	dead1234beef5678H
	DQ	0000000000000001H
	DQ	FLAT:PyType_Type
	DQ	0000000000000000H
	ORG $+8
	DQ	FLAT:??_C@_0BF@EBOOGILH@list_reverseiterator?$AA@
	DQ	0000000000000070H
	DQ	0000000000000000H
	DQ	FLAT:listreviter_dealloc
	DQ	0000000000000000H
	DQ	0000000000000000H
	DQ	0000000000000000H
	DQ	0000000000000000H
	DQ	0000000000000000H
	DQ	0000000000000000H
	DQ	0000000000000000H
	DQ	0000000000000000H
	DQ	0000000000000000H
	DQ	0000000000000000H
	DQ	0000000000000000H
	DQ	FLAT:PyObject_GenericGetAttr
	DQ	0000000000000000H
	DQ	0000000000000000H
	DD	044000H
	ORG $+4
	DQ	0000000000000000H
	DQ	FLAT:listreviter_traverse
	DQ	0000000000000000H
	DQ	0000000000000000H
	DQ	0000000000000000H
	DQ	FLAT:PyObject_SelfIter
	DQ	FLAT:listreviter_next
	DQ	FLAT:listreviter_methods
	DQ	0000000000000000H
	ORG $+144
_DATA	ENDS
;	COMDAT ??_C@_07KOIEOCCE@reverse?$AA@
CONST	SEGMENT
??_C@_07KOIEOCCE@reverse?$AA@ DB 'reverse', 00H		; `string'
CONST	ENDS
;	COMDAT ??_C@_03ICHNJLJF@key?$AA@
CONST	SEGMENT
??_C@_03ICHNJLJF@key?$AA@ DB 'key', 00H			; `string'
CONST	ENDS
PUBLIC	??_C@_1CM@CNNMDFEO@?$AAP?$AAy?$AAL?$AAi?$AAs?$AAt?$AA_?$AAC?$AAh?$AAe?$AAc?$AAk?$AAE?$AAx?$AAa?$AAc?$AAt?$AA?$CI?$AAo?$AAp?$AA?$CJ?$AA?$AA@ ; `string'
PUBLIC	??_C@_1DA@FFHCLKCK@?$AA?4?$AA?4?$AA?2?$AAO?$AAb?$AAj?$AAe?$AAc?$AAt?$AAs?$AA?2?$AAl?$AAi?$AAs?$AAt?$AAo?$AAb?$AAj?$AAe?$AAc?$AAt?$AA?4?$AAc?$AA?$AA@ ; `string'
PUBLIC	PyList_ClearFreeList
EXTRN	__imp__wassert:PROC
EXTRN	_Py_PXCTX:PROC
_BSS	SEGMENT
free_list DQ	050H DUP (?)
_BSS	ENDS
;	COMDAT pdata
; File c:\src\pyparallel\objects\listobject.c
pdata	SEGMENT
$pdata$PyList_ClearFreeList DD imagerel $LN7
	DD	imagerel $LN7+140
	DD	imagerel $unwind$PyList_ClearFreeList
pdata	ENDS
;	COMDAT xdata
xdata	SEGMENT
$unwind$PyList_ClearFreeList DD 010401H
	DD	06204H
xdata	ENDS
;	COMDAT ??_C@_1CM@CNNMDFEO@?$AAP?$AAy?$AAL?$AAi?$AAs?$AAt?$AA_?$AAC?$AAh?$AAe?$AAc?$AAk?$AAE?$AAx?$AAa?$AAc?$AAt?$AA?$CI?$AAo?$AAp?$AA?$CJ?$AA?$AA@
CONST	SEGMENT
??_C@_1CM@CNNMDFEO@?$AAP?$AAy?$AAL?$AAi?$AAs?$AAt?$AA_?$AAC?$AAh?$AAe?$AAc?$AAk?$AAE?$AAx?$AAa?$AAc?$AAt?$AA?$CI?$AAo?$AAp?$AA?$CJ?$AA?$AA@ DB 'P'
	DB	00H, 'y', 00H, 'L', 00H, 'i', 00H, 's', 00H, 't', 00H, '_', 00H
	DB	'C', 00H, 'h', 00H, 'e', 00H, 'c', 00H, 'k', 00H, 'E', 00H, 'x'
	DB	00H, 'a', 00H, 'c', 00H, 't', 00H, '(', 00H, 'o', 00H, 'p', 00H
	DB	')', 00H, 00H, 00H				; `string'
CONST	ENDS
;	COMDAT ??_C@_1DA@FFHCLKCK@?$AA?4?$AA?4?$AA?2?$AAO?$AAb?$AAj?$AAe?$AAc?$AAt?$AAs?$AA?2?$AAl?$AAi?$AAs?$AAt?$AAo?$AAb?$AAj?$AAe?$AAc?$AAt?$AA?4?$AAc?$AA?$AA@
CONST	SEGMENT
??_C@_1DA@FFHCLKCK@?$AA?4?$AA?4?$AA?2?$AAO?$AAb?$AAj?$AAe?$AAc?$AAt?$AAs?$AA?2?$AAl?$AAi?$AAs?$AAt?$AAo?$AAb?$AAj?$AAe?$AAc?$AAt?$AA?4?$AAc?$AA?$AA@ DB '.'
	DB	00H, '.', 00H, '\', 00H, 'O', 00H, 'b', 00H, 'j', 00H, 'e', 00H
	DB	'c', 00H, 't', 00H, 's', 00H, '\', 00H, 'l', 00H, 'i', 00H, 's'
	DB	00H, 't', 00H, 'o', 00H, 'b', 00H, 'j', 00H, 'e', 00H, 'c', 00H
	DB	't', 00H, '.', 00H, 'c', 00H, 00H, 00H	; `string'
; Function compile flags: /Odtp
CONST	ENDS
;	COMDAT PyList_ClearFreeList
_TEXT	SEGMENT
ret$ = 32
op$ = 40
PyList_ClearFreeList PROC				; COMDAT

; 110  : {

$LN7:
  00000	48 83 ec 38	 sub	 rsp, 56			; 00000038H

; 111  :     PyListObject *op;
; 112  :     int ret = numfree;

  00004	8b 05 00 00 00
	00		 mov	 eax, DWORD PTR numfree
  0000a	89 44 24 20	 mov	 DWORD PTR ret$[rsp], eax

; 113  :     if (Py_PXCTX)

  0000e	e8 00 00 00 00	 call	 _Py_PXCTX
  00013	85 c0		 test	 eax, eax
  00015	74 04		 je	 SHORT $LN3@PyList_Cle

; 114  :         return 0;

  00017	33 c0		 xor	 eax, eax
  00019	eb 6c		 jmp	 SHORT $LN4@PyList_Cle
$LN3@PyList_Cle:
$LN2@PyList_Cle:

; 115  :     while (numfree) {

  0001b	83 3d 00 00 00
	00 00		 cmp	 DWORD PTR numfree, 0
  00022	74 5f		 je	 SHORT $LN1@PyList_Cle

; 116  :         op = free_list[--numfree];

  00024	8b 05 00 00 00
	00		 mov	 eax, DWORD PTR numfree
  0002a	ff c8		 dec	 eax
  0002c	89 05 00 00 00
	00		 mov	 DWORD PTR numfree, eax
  00032	48 63 05 00 00
	00 00		 movsxd	 rax, DWORD PTR numfree
  00039	48 8d 0d 00 00
	00 00		 lea	 rcx, OFFSET FLAT:free_list
  00040	48 8b 04 c1	 mov	 rax, QWORD PTR [rcx+rax*8]
  00044	48 89 44 24 28	 mov	 QWORD PTR op$[rsp], rax

; 117  :         assert(PyList_CheckExact(op));

  00049	48 8d 05 00 00
	00 00		 lea	 rax, OFFSET FLAT:PyList_Type
  00050	48 8b 4c 24 28	 mov	 rcx, QWORD PTR op$[rsp]
  00055	48 39 41 58	 cmp	 QWORD PTR [rcx+88], rax
  00059	74 1c		 je	 SHORT $LN6@PyList_Cle
  0005b	41 b8 75 00 00
	00		 mov	 r8d, 117		; 00000075H
  00061	48 8d 15 00 00
	00 00		 lea	 rdx, OFFSET FLAT:??_C@_1DA@FFHCLKCK@?$AA?4?$AA?4?$AA?2?$AAO?$AAb?$AAj?$AAe?$AAc?$AAt?$AAs?$AA?2?$AAl?$AAi?$AAs?$AAt?$AAo?$AAb?$AAj?$AAe?$AAc?$AAt?$AA?4?$AAc?$AA?$AA@
  00068	48 8d 0d 00 00
	00 00		 lea	 rcx, OFFSET FLAT:??_C@_1CM@CNNMDFEO@?$AAP?$AAy?$AAL?$AAi?$AAs?$AAt?$AA_?$AAC?$AAh?$AAe?$AAc?$AAk?$AAE?$AAx?$AAa?$AAc?$AAt?$AA?$CI?$AAo?$AAp?$AA?$CJ?$AA?$AA@
  0006f	ff 15 00 00 00
	00		 call	 QWORD PTR __imp__wassert
  00075	33 c0		 xor	 eax, eax
$LN6@PyList_Cle:

; 118  :         PyObject_GC_Del(op);

  00077	48 8b 4c 24 28	 mov	 rcx, QWORD PTR op$[rsp]
  0007c	e8 00 00 00 00	 call	 PyObject_GC_Del

; 119  :     }

  00081	eb 98		 jmp	 SHORT $LN2@PyList_Cle
$LN1@PyList_Cle:

; 120  :     return ret;

  00083	8b 44 24 20	 mov	 eax, DWORD PTR ret$[rsp]
$LN4@PyList_Cle:

; 121  : }

  00087	48 83 c4 38	 add	 rsp, 56			; 00000038H
  0008b	c3		 ret	 0
PyList_ClearFreeList ENDP
_TEXT	ENDS
PUBLIC	PyList_Fini
;	COMDAT pdata
pdata	SEGMENT
$pdata$PyList_Fini DD imagerel $LN3
	DD	imagerel $LN3+14
	DD	imagerel $unwind$PyList_Fini
pdata	ENDS
;	COMDAT xdata
xdata	SEGMENT
$unwind$PyList_Fini DD 010401H
	DD	04204H
; Function compile flags: /Odtp
xdata	ENDS
;	COMDAT PyList_Fini
_TEXT	SEGMENT
PyList_Fini PROC					; COMDAT

; 125  : {

$LN3:
  00000	48 83 ec 28	 sub	 rsp, 40			; 00000028H

; 126  :     PyList_ClearFreeList();

  00004	e8 00 00 00 00	 call	 PyList_ClearFreeList

; 127  : }

  00009	48 83 c4 28	 add	 rsp, 40			; 00000028H
  0000d	c3		 ret	 0
PyList_Fini ENDP
_TEXT	ENDS
PUBLIC	??_C@_0BC@LHCEILJJ@free?5PyListObject?$AA@	; `string'
PUBLIC	_PyList_DebugMallocStats
EXTRN	_PyDebugAllocatorStats:PROC
;	COMDAT pdata
pdata	SEGMENT
$pdata$_PyList_DebugMallocStats DD imagerel $LN3
	DD	imagerel $LN3+44
	DD	imagerel $unwind$_PyList_DebugMallocStats
pdata	ENDS
;	COMDAT xdata
xdata	SEGMENT
$unwind$_PyList_DebugMallocStats DD 010901H
	DD	04209H
xdata	ENDS
;	COMDAT ??_C@_0BC@LHCEILJJ@free?5PyListObject?$AA@
CONST	SEGMENT
??_C@_0BC@LHCEILJJ@free?5PyListObject?$AA@ DB 'free PyListObject', 00H ; `string'
; Function compile flags: /Odtp
CONST	ENDS
;	COMDAT _PyList_DebugMallocStats
_TEXT	SEGMENT
out$ = 48
_PyList_DebugMallocStats PROC				; COMDAT

; 132  : {

$LN3:
  00000	48 89 4c 24 08	 mov	 QWORD PTR [rsp+8], rcx
  00005	48 83 ec 28	 sub	 rsp, 40			; 00000028H

; 133  :     _PyDebugAllocatorStats(out,
; 134  :                            "free PyListObject",
; 135  :                            numfree, sizeof(PyListObject));

  00009	41 b9 80 00 00
	00		 mov	 r9d, 128		; 00000080H
  0000f	44 8b 05 00 00
	00 00		 mov	 r8d, DWORD PTR numfree
  00016	48 8d 15 00 00
	00 00		 lea	 rdx, OFFSET FLAT:??_C@_0BC@LHCEILJJ@free?5PyListObject?$AA@
  0001d	48 8b 4c 24 30	 mov	 rcx, QWORD PTR out$[rsp]
  00022	e8 00 00 00 00	 call	 _PyDebugAllocatorStats

; 136  : }

  00027	48 83 c4 28	 add	 rsp, 40			; 00000028H
  0002b	c3		 ret	 0
_PyList_DebugMallocStats ENDP
_TEXT	ENDS
PUBLIC	??_C@_0BK@BNIPEKEF@GC?5object?5already?5tracked?$AA@ ; `string'
PUBLIC	??_C@_0L@LDEBGCGJ@PyList_New?$AA@		; `string'
PUBLIC	_Py_DecRef
PUBLIC	??_C@_0BI@EJIDBIMM@?4?4?2Objects?2listobject?4c?$AA@ ; `string'
PUBLIC	PyList_New
EXTRN	_PyGC_generation0:QWORD
EXTRN	Py_FatalError:PROC
EXTRN	_PyParallel_Guard:PROC
EXTRN	memset:PROC
EXTRN	_PyMem_DebugMalloc:PROC
EXTRN	_PxMem_Malloc:PROC
EXTRN	_PyObject_GC_New:PROC
EXTRN	_PxObject_New:PROC
EXTRN	_Py_NewReference:PROC
EXTRN	PyErr_NoMemory:PROC
EXTRN	_PyErr_BadInternalCall:PROC
;	COMDAT pdata
pdata	SEGMENT
$pdata$PyList_New DD imagerel $LN22
	DD	imagerel $LN22+626
	DD	imagerel $unwind$PyList_New
pdata	ENDS
;	COMDAT xdata
xdata	SEGMENT
$unwind$PyList_New DD 010901H
	DD	0c209H
xdata	ENDS
;	COMDAT ??_C@_0BK@BNIPEKEF@GC?5object?5already?5tracked?$AA@
CONST	SEGMENT
??_C@_0BK@BNIPEKEF@GC?5object?5already?5tracked?$AA@ DB 'GC object alread'
	DB	'y tracked', 00H				; `string'
CONST	ENDS
;	COMDAT ??_C@_0L@LDEBGCGJ@PyList_New?$AA@
CONST	SEGMENT
??_C@_0L@LDEBGCGJ@PyList_New?$AA@ DB 'PyList_New', 00H	; `string'
CONST	ENDS
;	COMDAT ??_C@_0BI@EJIDBIMM@?4?4?2Objects?2listobject?4c?$AA@
CONST	SEGMENT
??_C@_0BI@EJIDBIMM@?4?4?2Objects?2listobject?4c?$AA@ DB '..\Objects\listo'
	DB	'bject.c', 00H				; `string'
; Function compile flags: /Odtp
CONST	ENDS
;	COMDAT PyList_New
_TEXT	SEGMENT
nbytes$ = 48
op$ = 56
g$20402 = 64
tv84 = 72
tv95 = 80
tv153 = 88
size$ = 112
PyList_New PROC						; COMDAT

; 140  : {

$LN22:
  00000	48 89 4c 24 08	 mov	 QWORD PTR [rsp+8], rcx
  00005	48 83 ec 68	 sub	 rsp, 104		; 00000068H

; 141  :     PyListObject *op;
; 142  :     size_t nbytes;
; 143  : #ifdef SHOW_ALLOC_COUNT
; 144  :     static int initialized = 0;
; 145  :     if (!initialized) {
; 146  :         Py_AtExit(show_alloc);
; 147  :         initialized = 1;
; 148  :     }
; 149  : #endif
; 150  : 
; 151  :     if (size < 0) {

  00009	48 83 7c 24 70
	00		 cmp	 QWORD PTR size$[rsp], 0
  0000f	7d 18		 jge	 SHORT $LN13@PyList_New

; 152  :         PyErr_BadInternalCall();

  00011	ba 98 00 00 00	 mov	 edx, 152		; 00000098H
  00016	48 8d 0d 00 00
	00 00		 lea	 rcx, OFFSET FLAT:??_C@_0BI@EJIDBIMM@?4?4?2Objects?2listobject?4c?$AA@
  0001d	e8 00 00 00 00	 call	 _PyErr_BadInternalCall

; 153  :         return NULL;

  00022	33 c0		 xor	 eax, eax
  00024	e9 44 02 00 00	 jmp	 $LN14@PyList_New
$LN13@PyList_New:

; 154  :     }
; 155  :     /* Check for overflow without an actual overflow,
; 156  :      *  which can cause compiler to optimise out */
; 157  :     if ((size_t)size > PY_SIZE_MAX / sizeof(PyObject *))

  00029	48 b8 ff ff ff
	ff ff ff ff 1f	 mov	 rax, 2305843009213693951 ; 1fffffffffffffffH
  00033	48 39 44 24 70	 cmp	 QWORD PTR size$[rsp], rax
  00038	76 0a		 jbe	 SHORT $LN12@PyList_New

; 158  :         return PyErr_NoMemory();

  0003a	e8 00 00 00 00	 call	 PyErr_NoMemory
  0003f	e9 29 02 00 00	 jmp	 $LN14@PyList_New
$LN12@PyList_New:

; 159  :     nbytes = size * sizeof(PyObject *);

  00044	48 8b 44 24 70	 mov	 rax, QWORD PTR size$[rsp]
  00049	48 c1 e0 03	 shl	 rax, 3
  0004d	48 89 44 24 30	 mov	 QWORD PTR nbytes$[rsp], rax

; 160  :     if (!Py_PXCTX && numfree) {

  00052	e8 00 00 00 00	 call	 _Py_PXCTX
  00057	85 c0		 test	 eax, eax
  00059	75 3a		 jne	 SHORT $LN11@PyList_New
  0005b	83 3d 00 00 00
	00 00		 cmp	 DWORD PTR numfree, 0
  00062	74 31		 je	 SHORT $LN11@PyList_New

; 161  :         numfree--;

  00064	8b 05 00 00 00
	00		 mov	 eax, DWORD PTR numfree
  0006a	ff c8		 dec	 eax
  0006c	89 05 00 00 00
	00		 mov	 DWORD PTR numfree, eax

; 162  :         op = free_list[numfree];

  00072	48 63 05 00 00
	00 00		 movsxd	 rax, DWORD PTR numfree
  00079	48 8d 0d 00 00
	00 00		 lea	 rcx, OFFSET FLAT:free_list
  00080	48 8b 04 c1	 mov	 rax, QWORD PTR [rcx+rax*8]
  00084	48 89 44 24 38	 mov	 QWORD PTR op$[rsp], rax

; 163  :         _Py_NewReference((PyObject *)op);

  00089	48 8b 4c 24 38	 mov	 rcx, QWORD PTR op$[rsp]
  0008e	e8 00 00 00 00	 call	 _Py_NewReference

; 164  : #ifdef SHOW_ALLOC_COUNT
; 165  :         count_reuse++;
; 166  : #endif
; 167  :     } else {

  00093	eb 46		 jmp	 SHORT $LN10@PyList_New
$LN11@PyList_New:

; 168  :         op = PyObject_GC_New(PyListObject, &PyList_Type);

  00095	e8 00 00 00 00	 call	 _Py_PXCTX
  0009a	85 c0		 test	 eax, eax
  0009c	74 13		 je	 SHORT $LN16@PyList_New
  0009e	48 8d 0d 00 00
	00 00		 lea	 rcx, OFFSET FLAT:PyList_Type
  000a5	e8 00 00 00 00	 call	 _PxObject_New
  000aa	48 89 44 24 48	 mov	 QWORD PTR tv84[rsp], rax
  000af	eb 11		 jmp	 SHORT $LN17@PyList_New
$LN16@PyList_New:
  000b1	48 8d 0d 00 00
	00 00		 lea	 rcx, OFFSET FLAT:PyList_Type
  000b8	e8 00 00 00 00	 call	 _PyObject_GC_New
  000bd	48 89 44 24 48	 mov	 QWORD PTR tv84[rsp], rax
$LN17@PyList_New:
  000c2	48 8b 44 24 48	 mov	 rax, QWORD PTR tv84[rsp]
  000c7	48 89 44 24 38	 mov	 QWORD PTR op$[rsp], rax

; 169  :         if (op == NULL)

  000cc	48 83 7c 24 38
	00		 cmp	 QWORD PTR op$[rsp], 0
  000d2	75 07		 jne	 SHORT $LN9@PyList_New

; 170  :             return NULL;

  000d4	33 c0		 xor	 eax, eax
  000d6	e9 92 01 00 00	 jmp	 $LN14@PyList_New
$LN9@PyList_New:
$LN10@PyList_New:

; 171  : #ifdef SHOW_ALLOC_COUNT
; 172  :         count_alloc++;
; 173  : #endif
; 174  :     }
; 175  :     if (size <= 0)

  000db	48 83 7c 24 70
	00		 cmp	 QWORD PTR size$[rsp], 0
  000e1	7f 0f		 jg	 SHORT $LN8@PyList_New

; 176  :         op->ob_item = NULL;

  000e3	48 8b 44 24 38	 mov	 rax, QWORD PTR op$[rsp]
  000e8	48 c7 40 70 00
	00 00 00	 mov	 QWORD PTR [rax+112], 0

; 177  :     else {

  000f0	eb 6c		 jmp	 SHORT $LN7@PyList_New
$LN8@PyList_New:

; 178  :         op->ob_item = (PyObject **) PyMem_MALLOC(nbytes);

  000f2	e8 00 00 00 00	 call	 _Py_PXCTX
  000f7	85 c0		 test	 eax, eax
  000f9	74 11		 je	 SHORT $LN18@PyList_New
  000fb	48 8b 4c 24 30	 mov	 rcx, QWORD PTR nbytes$[rsp]
  00100	e8 00 00 00 00	 call	 _PxMem_Malloc
  00105	48 89 44 24 50	 mov	 QWORD PTR tv95[rsp], rax
  0010a	eb 0f		 jmp	 SHORT $LN19@PyList_New
$LN18@PyList_New:
  0010c	48 8b 4c 24 30	 mov	 rcx, QWORD PTR nbytes$[rsp]
  00111	e8 00 00 00 00	 call	 _PyMem_DebugMalloc
  00116	48 89 44 24 50	 mov	 QWORD PTR tv95[rsp], rax
$LN19@PyList_New:
  0011b	48 8b 44 24 38	 mov	 rax, QWORD PTR op$[rsp]
  00120	48 8b 4c 24 50	 mov	 rcx, QWORD PTR tv95[rsp]
  00125	48 89 48 70	 mov	 QWORD PTR [rax+112], rcx

; 179  :         if (op->ob_item == NULL) {

  00129	48 8b 44 24 38	 mov	 rax, QWORD PTR op$[rsp]
  0012e	48 83 78 70 00	 cmp	 QWORD PTR [rax+112], 0
  00133	75 14		 jne	 SHORT $LN6@PyList_New

; 180  :             Py_DECREF(op);

  00135	48 8b 4c 24 38	 mov	 rcx, QWORD PTR op$[rsp]
  0013a	e8 00 00 00 00	 call	 _Py_DecRef

; 181  :             return PyErr_NoMemory();

  0013f	e8 00 00 00 00	 call	 PyErr_NoMemory
  00144	e9 24 01 00 00	 jmp	 $LN14@PyList_New
$LN6@PyList_New:

; 182  :         }
; 183  :         memset(op->ob_item, 0, nbytes);

  00149	4c 8b 44 24 30	 mov	 r8, QWORD PTR nbytes$[rsp]
  0014e	33 d2		 xor	 edx, edx
  00150	48 8b 44 24 38	 mov	 rax, QWORD PTR op$[rsp]
  00155	48 8b 48 70	 mov	 rcx, QWORD PTR [rax+112]
  00159	e8 00 00 00 00	 call	 memset
$LN7@PyList_New:

; 184  :     }
; 185  :     Py_SIZE(op) = size;

  0015e	48 8b 44 24 38	 mov	 rax, QWORD PTR op$[rsp]
  00163	48 8b 4c 24 70	 mov	 rcx, QWORD PTR size$[rsp]
  00168	48 89 48 60	 mov	 QWORD PTR [rax+96], rcx

; 186  :     op->allocated = size;

  0016c	48 8b 44 24 38	 mov	 rax, QWORD PTR op$[rsp]
  00171	48 8b 4c 24 70	 mov	 rcx, QWORD PTR size$[rsp]
  00176	48 89 48 78	 mov	 QWORD PTR [rax+120], rcx

; 187  :     _PyObject_GC_TRACK(op);

  0017a	c7 44 24 20 10
	00 00 00	 mov	 DWORD PTR [rsp+32], 16
  00182	4c 8b 4c 24 38	 mov	 r9, QWORD PTR op$[rsp]
  00187	41 b8 bb 00 00
	00		 mov	 r8d, 187		; 000000bbH
  0018d	48 8d 15 00 00
	00 00		 lea	 rdx, OFFSET FLAT:??_C@_0BI@EJIDBIMM@?4?4?2Objects?2listobject?4c?$AA@
  00194	48 8d 0d 00 00
	00 00		 lea	 rcx, OFFSET FLAT:??_C@_0L@LDEBGCGJ@PyList_New?$AA@
  0019b	e8 00 00 00 00	 call	 _PyParallel_Guard
  001a0	85 c0		 test	 eax, eax
  001a2	0f 85 c0 00 00
	00		 jne	 $LN5@PyList_New
$LN4@PyList_New:
  001a8	c7 44 24 20 10
	00 00 00	 mov	 DWORD PTR [rsp+32], 16
  001b0	4c 8b 4c 24 38	 mov	 r9, QWORD PTR op$[rsp]
  001b5	41 b8 bb 00 00
	00		 mov	 r8d, 187		; 000000bbH
  001bb	48 8d 15 00 00
	00 00		 lea	 rdx, OFFSET FLAT:??_C@_0BI@EJIDBIMM@?4?4?2Objects?2listobject?4c?$AA@
  001c2	48 8d 0d 00 00
	00 00		 lea	 rcx, OFFSET FLAT:??_C@_0L@LDEBGCGJ@PyList_New?$AA@
  001c9	e8 00 00 00 00	 call	 _PyParallel_Guard
  001ce	85 c0		 test	 eax, eax
  001d0	74 0b		 je	 SHORT $LN20@PyList_New
  001d2	48 c7 44 24 58
	00 00 00 00	 mov	 QWORD PTR tv153[rsp], 0
  001db	eb 0e		 jmp	 SHORT $LN21@PyList_New
$LN20@PyList_New:
  001dd	48 8b 44 24 38	 mov	 rax, QWORD PTR op$[rsp]
  001e2	48 83 e8 18	 sub	 rax, 24
  001e6	48 89 44 24 58	 mov	 QWORD PTR tv153[rsp], rax
$LN21@PyList_New:
  001eb	48 8b 44 24 58	 mov	 rax, QWORD PTR tv153[rsp]
  001f0	48 89 44 24 40	 mov	 QWORD PTR g$20402[rsp], rax
  001f5	48 8b 44 24 40	 mov	 rax, QWORD PTR g$20402[rsp]
  001fa	48 83 78 10 fe	 cmp	 QWORD PTR [rax+16], -2
  001ff	74 0c		 je	 SHORT $LN1@PyList_New
  00201	48 8d 0d 00 00
	00 00		 lea	 rcx, OFFSET FLAT:??_C@_0BK@BNIPEKEF@GC?5object?5already?5tracked?$AA@
  00208	e8 00 00 00 00	 call	 Py_FatalError
$LN1@PyList_New:
  0020d	48 8b 44 24 40	 mov	 rax, QWORD PTR g$20402[rsp]
  00212	48 c7 40 10 fd
	ff ff ff	 mov	 QWORD PTR [rax+16], -3
  0021a	48 8b 44 24 40	 mov	 rax, QWORD PTR g$20402[rsp]
  0021f	48 8b 0d 00 00
	00 00		 mov	 rcx, QWORD PTR _PyGC_generation0
  00226	48 89 08	 mov	 QWORD PTR [rax], rcx
  00229	48 8b 44 24 40	 mov	 rax, QWORD PTR g$20402[rsp]
  0022e	48 8b 0d 00 00
	00 00		 mov	 rcx, QWORD PTR _PyGC_generation0
  00235	48 8b 49 08	 mov	 rcx, QWORD PTR [rcx+8]
  00239	48 89 48 08	 mov	 QWORD PTR [rax+8], rcx
  0023d	48 8b 44 24 40	 mov	 rax, QWORD PTR g$20402[rsp]
  00242	48 8b 40 08	 mov	 rax, QWORD PTR [rax+8]
  00246	48 8b 4c 24 40	 mov	 rcx, QWORD PTR g$20402[rsp]
  0024b	48 89 08	 mov	 QWORD PTR [rax], rcx
  0024e	48 8b 05 00 00
	00 00		 mov	 rax, QWORD PTR _PyGC_generation0
  00255	48 8b 4c 24 40	 mov	 rcx, QWORD PTR g$20402[rsp]
  0025a	48 89 48 08	 mov	 QWORD PTR [rax+8], rcx
  0025e	33 c0		 xor	 eax, eax
  00260	85 c0		 test	 eax, eax
  00262	0f 85 40 ff ff
	ff		 jne	 $LN4@PyList_New
$LN5@PyList_New:

; 188  :     return (PyObject *) op;

  00268	48 8b 44 24 38	 mov	 rax, QWORD PTR op$[rsp]
$LN14@PyList_New:

; 189  : }

  0026d	48 83 c4 68	 add	 rsp, 104		; 00000068H
  00271	c3		 ret	 0
PyList_New ENDP
_TEXT	ENDS
PUBLIC	??_C@_0L@DMHMLFIA@_Py_DecRef?$AA@		; `string'
PUBLIC	??_C@_0CD@HDJFDCDP@c?3?2src?2pyparallel?2include?2object@ ; `string'
EXTRN	_Py_Dealloc:PROC
EXTRN	_Py_NegativeRefcount:PROC
EXTRN	_Py_RefTotal:QWORD
EXTRN	Px_DecRef:PROC
;	COMDAT pdata
; File c:\src\pyparallel\include\object.h
pdata	SEGMENT
$pdata$_Py_DecRef DD imagerel $LN13
	DD	imagerel $LN13+257
	DD	imagerel $unwind$_Py_DecRef
pdata	ENDS
;	COMDAT xdata
xdata	SEGMENT
$unwind$_Py_DecRef DD 010901H
	DD	08209H
xdata	ENDS
;	COMDAT ??_C@_0L@DMHMLFIA@_Py_DecRef?$AA@
CONST	SEGMENT
??_C@_0L@DMHMLFIA@_Py_DecRef?$AA@ DB '_Py_DecRef', 00H	; `string'
CONST	ENDS
;	COMDAT ??_C@_0CD@HDJFDCDP@c?3?2src?2pyparallel?2include?2object@
CONST	SEGMENT
??_C@_0CD@HDJFDCDP@c?3?2src?2pyparallel?2include?2object@ DB 'c:\src\pypa'
	DB	'rallel\include\object.h', 00H		; `string'
; Function compile flags: /Odtp
CONST	ENDS
;	COMDAT _Py_DecRef
_TEXT	SEGMENT
tv81 = 48
op$ = 80
_Py_DecRef PROC						; COMDAT

; 923  : {

$LN13:
  00000	48 89 4c 24 08	 mov	 QWORD PTR [rsp+8], rcx
  00005	48 83 ec 48	 sub	 rsp, 72			; 00000048H

; 924  :     if (!Py_PXCTX) {

  00009	e8 00 00 00 00	 call	 _Py_PXCTX
  0000e	85 c0		 test	 eax, eax
  00010	0f 85 e6 00 00
	00		 jne	 $LN8@Py_DecRef

; 925  :         if (Px_PERSISTED(op) || Px_CLONED(op))

  00016	48 8b 44 24 50	 mov	 rax, QWORD PTR op$[rsp]
  0001b	48 8b 40 20	 mov	 rax, QWORD PTR [rax+32]
  0001f	48 83 e0 20	 and	 rax, 32			; 00000020H
  00023	48 85 c0	 test	 rax, rax
  00026	75 14		 jne	 SHORT $LN6@Py_DecRef
  00028	48 8b 44 24 50	 mov	 rax, QWORD PTR op$[rsp]
  0002d	48 8b 40 20	 mov	 rax, QWORD PTR [rax+32]
  00031	48 25 80 00 00
	00		 and	 rax, 128		; 00000080H
  00037	48 85 c0	 test	 rax, rax
  0003a	74 0f		 je	 SHORT $LN7@Py_DecRef
$LN6@Py_DecRef:

; 926  :             Px_DECREF(op);

  0003c	48 8b 4c 24 50	 mov	 rcx, QWORD PTR op$[rsp]
  00041	e8 00 00 00 00	 call	 Px_DecRef
  00046	e9 b1 00 00 00	 jmp	 $LN5@Py_DecRef
$LN7@Py_DecRef:

; 927  :         else if (!Px_ISPX(op)) {

  0004b	48 8b 44 24 50	 mov	 rax, QWORD PTR op$[rsp]
  00050	48 8b 40 20	 mov	 rax, QWORD PTR [rax+32]
  00054	48 83 e0 02	 and	 rax, 2
  00058	48 85 c0	 test	 rax, rax
  0005b	0f 85 9b 00 00
	00		 jne	 $LN4@Py_DecRef

; 928  :             _Py_DEC_REFTOTAL;

  00061	e8 00 00 00 00	 call	 _Py_PXCTX
  00066	85 c0		 test	 eax, eax
  00068	74 02		 je	 SHORT $LN11@Py_DecRef
  0006a	eb 11		 jmp	 SHORT $LN12@Py_DecRef
$LN11@Py_DecRef:
  0006c	48 8b 05 00 00
	00 00		 mov	 rax, QWORD PTR _Py_RefTotal
  00073	48 ff c8	 dec	 rax
  00076	48 89 05 00 00
	00 00		 mov	 QWORD PTR _Py_RefTotal, rax
$LN12@Py_DecRef:

; 929  :             if ((--((PyObject *)(op))->ob_refcnt) != 0) {

  0007d	48 8b 44 24 50	 mov	 rax, QWORD PTR op$[rsp]
  00082	48 8b 40 50	 mov	 rax, QWORD PTR [rax+80]
  00086	48 ff c8	 dec	 rax
  00089	48 89 44 24 30	 mov	 QWORD PTR tv81[rsp], rax
  0008e	48 8b 44 24 50	 mov	 rax, QWORD PTR op$[rsp]
  00093	48 8b 4c 24 30	 mov	 rcx, QWORD PTR tv81[rsp]
  00098	48 89 48 50	 mov	 QWORD PTR [rax+80], rcx
  0009c	48 83 7c 24 30
	00		 cmp	 QWORD PTR tv81[rsp], 0
  000a2	74 4e		 je	 SHORT $LN3@Py_DecRef

; 930  :                 _Py_CHECK_REFCNT(op);

  000a4	c7 44 24 20 10
	00 00 00	 mov	 DWORD PTR [rsp+32], 16
  000ac	4c 8b 4c 24 50	 mov	 r9, QWORD PTR op$[rsp]
  000b1	41 b8 a2 03 00
	00		 mov	 r8d, 930		; 000003a2H
  000b7	48 8d 15 00 00
	00 00		 lea	 rdx, OFFSET FLAT:??_C@_0CD@HDJFDCDP@c?3?2src?2pyparallel?2include?2object@
  000be	48 8d 0d 00 00
	00 00		 lea	 rcx, OFFSET FLAT:??_C@_0L@DMHMLFIA@_Py_DecRef?$AA@
  000c5	e8 00 00 00 00	 call	 _PyParallel_Guard
  000ca	85 c0		 test	 eax, eax
  000cc	75 22		 jne	 SHORT $LN2@Py_DecRef
  000ce	48 8b 44 24 50	 mov	 rax, QWORD PTR op$[rsp]
  000d3	48 83 78 50 00	 cmp	 QWORD PTR [rax+80], 0
  000d8	7d 16		 jge	 SHORT $LN2@Py_DecRef
  000da	4c 8b 44 24 50	 mov	 r8, QWORD PTR op$[rsp]
  000df	ba a2 03 00 00	 mov	 edx, 930		; 000003a2H
  000e4	48 8d 0d 00 00
	00 00		 lea	 rcx, OFFSET FLAT:??_C@_0CD@HDJFDCDP@c?3?2src?2pyparallel?2include?2object@
  000eb	e8 00 00 00 00	 call	 _Py_NegativeRefcount
$LN2@Py_DecRef:

; 931  :             } else

  000f0	eb 0a		 jmp	 SHORT $LN1@Py_DecRef
$LN3@Py_DecRef:

; 932  :                 _Py_Dealloc((PyObject *)(op));

  000f2	48 8b 4c 24 50	 mov	 rcx, QWORD PTR op$[rsp]
  000f7	e8 00 00 00 00	 call	 _Py_Dealloc
$LN1@Py_DecRef:
$LN4@Py_DecRef:
$LN5@Py_DecRef:
$LN8@Py_DecRef:

; 933  :         }
; 934  :     }
; 935  : }

  000fc	48 83 c4 48	 add	 rsp, 72			; 00000048H
  00100	c3		 ret	 0
_Py_DecRef ENDP
_TEXT	ENDS
PUBLIC	PyList_Size
;	COMDAT pdata
; File c:\src\pyparallel\objects\listobject.c
pdata	SEGMENT
$pdata$PyList_Size DD imagerel $LN5
	DD	imagerel $LN5+75
	DD	imagerel $unwind$PyList_Size
pdata	ENDS
;	COMDAT xdata
xdata	SEGMENT
$unwind$PyList_Size DD 010901H
	DD	04209H
; Function compile flags: /Odtp
xdata	ENDS
;	COMDAT PyList_Size
_TEXT	SEGMENT
op$ = 48
PyList_Size PROC					; COMDAT

; 193  : {

$LN5:
  00000	48 89 4c 24 08	 mov	 QWORD PTR [rsp+8], rcx
  00005	48 83 ec 28	 sub	 rsp, 40			; 00000028H

; 194  :     if (!PyList_Check(op)) {

  00009	48 8b 44 24 30	 mov	 rax, QWORD PTR op$[rsp]
  0000e	48 8b 40 58	 mov	 rax, QWORD PTR [rax+88]
  00012	8b 80 00 01 00
	00		 mov	 eax, DWORD PTR [rax+256]
  00018	25 00 00 00 02	 and	 eax, 33554432		; 02000000H
  0001d	85 c0		 test	 eax, eax
  0001f	75 1c		 jne	 SHORT $LN2@PyList_Siz

; 195  :         PyErr_BadInternalCall();

  00021	ba c3 00 00 00	 mov	 edx, 195		; 000000c3H
  00026	48 8d 0d 00 00
	00 00		 lea	 rcx, OFFSET FLAT:??_C@_0BI@EJIDBIMM@?4?4?2Objects?2listobject?4c?$AA@
  0002d	e8 00 00 00 00	 call	 _PyErr_BadInternalCall

; 196  :         return -1;

  00032	48 c7 c0 ff ff
	ff ff		 mov	 rax, -1
  00039	eb 0b		 jmp	 SHORT $LN3@PyList_Siz

; 197  :     }
; 198  :     else

  0003b	eb 09		 jmp	 SHORT $LN1@PyList_Siz
$LN2@PyList_Siz:

; 199  :         return Py_SIZE(op);

  0003d	48 8b 44 24 30	 mov	 rax, QWORD PTR op$[rsp]
  00042	48 8b 40 60	 mov	 rax, QWORD PTR [rax+96]
$LN1@PyList_Siz:
$LN3@PyList_Siz:

; 200  : }

  00046	48 83 c4 28	 add	 rsp, 40			; 00000028H
  0004a	c3		 ret	 0
PyList_Size ENDP
_TEXT	ENDS
PUBLIC	??_C@_0BI@PPFNPBPL@list?5index?5out?5of?5range?$AA@ ; `string'
PUBLIC	PyList_GetItem
EXTRN	PyErr_SetObject:PROC
EXTRN	PyExc_IndexError:QWORD
EXTRN	PyUnicode_FromString:PROC
;	COMDAT pdata
pdata	SEGMENT
$pdata$PyList_GetItem DD imagerel $LN8
	DD	imagerel $LN8+172
	DD	imagerel $unwind$PyList_GetItem
pdata	ENDS
;	COMDAT xdata
xdata	SEGMENT
$unwind$PyList_GetItem DD 010e01H
	DD	0420eH
xdata	ENDS
;	COMDAT ??_C@_0BI@PPFNPBPL@list?5index?5out?5of?5range?$AA@
CONST	SEGMENT
??_C@_0BI@PPFNPBPL@list?5index?5out?5of?5range?$AA@ DB 'list index out of'
	DB	' range', 00H				; `string'
; Function compile flags: /Odtp
CONST	ENDS
;	COMDAT PyList_GetItem
_TEXT	SEGMENT
op$ = 48
i$ = 56
PyList_GetItem PROC					; COMDAT

; 206  : {

$LN8:
  00000	48 89 54 24 10	 mov	 QWORD PTR [rsp+16], rdx
  00005	48 89 4c 24 08	 mov	 QWORD PTR [rsp+8], rcx
  0000a	48 83 ec 28	 sub	 rsp, 40			; 00000028H

; 207  :     if (!PyList_Check(op)) {

  0000e	48 8b 44 24 30	 mov	 rax, QWORD PTR op$[rsp]
  00013	48 8b 40 58	 mov	 rax, QWORD PTR [rax+88]
  00017	8b 80 00 01 00
	00		 mov	 eax, DWORD PTR [rax+256]
  0001d	25 00 00 00 02	 and	 eax, 33554432		; 02000000H
  00022	85 c0		 test	 eax, eax
  00024	75 15		 jne	 SHORT $LN5@PyList_Get

; 208  :         PyErr_BadInternalCall();

  00026	ba d0 00 00 00	 mov	 edx, 208		; 000000d0H
  0002b	48 8d 0d 00 00
	00 00		 lea	 rcx, OFFSET FLAT:??_C@_0BI@EJIDBIMM@?4?4?2Objects?2listobject?4c?$AA@
  00032	e8 00 00 00 00	 call	 _PyErr_BadInternalCall

; 209  :         return NULL;

  00037	33 c0		 xor	 eax, eax
  00039	eb 6c		 jmp	 SHORT $LN6@PyList_Get
$LN5@PyList_Get:

; 210  :     }
; 211  :     if (i < 0 || i >= Py_SIZE(op)) {

  0003b	48 83 7c 24 38
	00		 cmp	 QWORD PTR i$[rsp], 0
  00041	7c 10		 jl	 SHORT $LN3@PyList_Get
  00043	48 8b 44 24 30	 mov	 rax, QWORD PTR op$[rsp]
  00048	48 8b 40 60	 mov	 rax, QWORD PTR [rax+96]
  0004c	48 39 44 24 38	 cmp	 QWORD PTR i$[rsp], rax
  00051	7c 42		 jl	 SHORT $LN4@PyList_Get
$LN3@PyList_Get:

; 212  :         if (indexerr == NULL) {

  00053	48 83 3d 00 00
	00 00 00	 cmp	 QWORD PTR indexerr, 0
  0005b	75 21		 jne	 SHORT $LN2@PyList_Get

; 213  :             indexerr = PyUnicode_FromString(
; 214  :                 "list index out of range");

  0005d	48 8d 0d 00 00
	00 00		 lea	 rcx, OFFSET FLAT:??_C@_0BI@PPFNPBPL@list?5index?5out?5of?5range?$AA@
  00064	e8 00 00 00 00	 call	 PyUnicode_FromString
  00069	48 89 05 00 00
	00 00		 mov	 QWORD PTR indexerr, rax

; 215  :             if (indexerr == NULL)

  00070	48 83 3d 00 00
	00 00 00	 cmp	 QWORD PTR indexerr, 0
  00078	75 04		 jne	 SHORT $LN1@PyList_Get

; 216  :                 return NULL;

  0007a	33 c0		 xor	 eax, eax
  0007c	eb 29		 jmp	 SHORT $LN6@PyList_Get
$LN1@PyList_Get:
$LN2@PyList_Get:

; 217  :         }
; 218  :         PyErr_SetObject(PyExc_IndexError, indexerr);

  0007e	48 8b 15 00 00
	00 00		 mov	 rdx, QWORD PTR indexerr
  00085	48 8b 0d 00 00
	00 00		 mov	 rcx, QWORD PTR PyExc_IndexError
  0008c	e8 00 00 00 00	 call	 PyErr_SetObject

; 219  :         return NULL;

  00091	33 c0		 xor	 eax, eax
  00093	eb 12		 jmp	 SHORT $LN6@PyList_Get
$LN4@PyList_Get:

; 220  :     }
; 221  :     return ((PyListObject *)op) -> ob_item[i];

  00095	48 8b 44 24 30	 mov	 rax, QWORD PTR op$[rsp]
  0009a	48 8b 40 70	 mov	 rax, QWORD PTR [rax+112]
  0009e	48 8b 4c 24 38	 mov	 rcx, QWORD PTR i$[rsp]
  000a3	48 8b 04 c8	 mov	 rax, QWORD PTR [rax+rcx*8]
$LN6@PyList_Get:

; 222  : }

  000a7	48 83 c4 28	 add	 rsp, 40			; 00000028H
  000ab	c3		 ret	 0
PyList_GetItem ENDP
_TEXT	ENDS
PUBLIC	??_C@_0CD@MGPAAEOB@list?5assignment?5index?5out?5of?5ran@ ; `string'
PUBLIC	PyList_SetItem
EXTRN	PyErr_SetString:PROC
;	COMDAT pdata
pdata	SEGMENT
$pdata$PyList_SetItem DD imagerel $LN18
	DD	imagerel $LN18+248
	DD	imagerel $unwind$PyList_SetItem
pdata	ENDS
;	COMDAT xdata
xdata	SEGMENT
$unwind$PyList_SetItem DD 011301H
	DD	06213H
xdata	ENDS
;	COMDAT ??_C@_0CD@MGPAAEOB@list?5assignment?5index?5out?5of?5ran@
CONST	SEGMENT
??_C@_0CD@MGPAAEOB@list?5assignment?5index?5out?5of?5ran@ DB 'list assign'
	DB	'ment index out of range', 00H		; `string'
; Function compile flags: /Odtp
CONST	ENDS
;	COMDAT PyList_SetItem
_TEXT	SEGMENT
p$ = 32
olditem$ = 40
op$ = 64
i$ = 72
newitem$ = 80
PyList_SetItem PROC					; COMDAT

; 227  : {

$LN18:
  00000	4c 89 44 24 18	 mov	 QWORD PTR [rsp+24], r8
  00005	48 89 54 24 10	 mov	 QWORD PTR [rsp+16], rdx
  0000a	48 89 4c 24 08	 mov	 QWORD PTR [rsp+8], rcx
  0000f	48 83 ec 38	 sub	 rsp, 56			; 00000038H

; 228  :     register PyObject *olditem;
; 229  :     register PyObject **p;
; 230  :     if (!PyList_Check(op)) {

  00013	48 8b 44 24 40	 mov	 rax, QWORD PTR op$[rsp]
  00018	48 8b 40 58	 mov	 rax, QWORD PTR [rax+88]
  0001c	8b 80 00 01 00
	00		 mov	 eax, DWORD PTR [rax+256]
  00022	25 00 00 00 02	 and	 eax, 33554432		; 02000000H
  00027	85 c0		 test	 eax, eax
  00029	75 33		 jne	 SHORT $LN15@PyList_Set
$LN14@PyList_Set:

; 231  :         Py_XDECREF(newitem);

  0002b	48 83 7c 24 50
	00		 cmp	 QWORD PTR newitem$[rsp], 0
  00031	74 0a		 je	 SHORT $LN11@PyList_Set
  00033	48 8b 4c 24 50	 mov	 rcx, QWORD PTR newitem$[rsp]
  00038	e8 00 00 00 00	 call	 _Py_DecRef
$LN11@PyList_Set:
  0003d	33 c0		 xor	 eax, eax
  0003f	85 c0		 test	 eax, eax
  00041	75 e8		 jne	 SHORT $LN14@PyList_Set

; 232  :         PyErr_BadInternalCall();

  00043	ba e8 00 00 00	 mov	 edx, 232		; 000000e8H
  00048	48 8d 0d 00 00
	00 00		 lea	 rcx, OFFSET FLAT:??_C@_0BI@EJIDBIMM@?4?4?2Objects?2listobject?4c?$AA@
  0004f	e8 00 00 00 00	 call	 _PyErr_BadInternalCall

; 233  :         return -1;

  00054	b8 ff ff ff ff	 mov	 eax, -1
  00059	e9 95 00 00 00	 jmp	 $LN16@PyList_Set
$LN15@PyList_Set:

; 234  :     }
; 235  : 
; 236  :     /*
; 237  :     if (Px_PROTECTION_ERROR(op))
; 238  :         return -1;
; 239  :     */
; 240  : 
; 241  :     if (i < 0 || i >= Py_SIZE(op)) {

  0005e	48 83 7c 24 48
	00		 cmp	 QWORD PTR i$[rsp], 0
  00064	7c 10		 jl	 SHORT $LN9@PyList_Set
  00066	48 8b 44 24 40	 mov	 rax, QWORD PTR op$[rsp]
  0006b	48 8b 40 60	 mov	 rax, QWORD PTR [rax+96]
  0006f	48 39 44 24 48	 cmp	 QWORD PTR i$[rsp], rax
  00074	7c 32		 jl	 SHORT $LN10@PyList_Set
$LN9@PyList_Set:
$LN8@PyList_Set:

; 242  :         Py_XDECREF(newitem);

  00076	48 83 7c 24 50
	00		 cmp	 QWORD PTR newitem$[rsp], 0
  0007c	74 0a		 je	 SHORT $LN5@PyList_Set
  0007e	48 8b 4c 24 50	 mov	 rcx, QWORD PTR newitem$[rsp]
  00083	e8 00 00 00 00	 call	 _Py_DecRef
$LN5@PyList_Set:
  00088	33 c0		 xor	 eax, eax
  0008a	85 c0		 test	 eax, eax
  0008c	75 e8		 jne	 SHORT $LN8@PyList_Set

; 243  :         PyErr_SetString(PyExc_IndexError,
; 244  :                         "list assignment index out of range");

  0008e	48 8d 15 00 00
	00 00		 lea	 rdx, OFFSET FLAT:??_C@_0CD@MGPAAEOB@list?5assignment?5index?5out?5of?5ran@
  00095	48 8b 0d 00 00
	00 00		 mov	 rcx, QWORD PTR PyExc_IndexError
  0009c	e8 00 00 00 00	 call	 PyErr_SetString

; 245  :         return -1;

  000a1	b8 ff ff ff ff	 mov	 eax, -1
  000a6	eb 4b		 jmp	 SHORT $LN16@PyList_Set
$LN10@PyList_Set:

; 246  :     }
; 247  :     p = ((PyListObject *)op) -> ob_item + i;

  000a8	48 8b 44 24 40	 mov	 rax, QWORD PTR op$[rsp]
  000ad	48 8b 40 70	 mov	 rax, QWORD PTR [rax+112]
  000b1	48 8b 4c 24 48	 mov	 rcx, QWORD PTR i$[rsp]
  000b6	48 8d 04 c8	 lea	 rax, QWORD PTR [rax+rcx*8]
  000ba	48 89 44 24 20	 mov	 QWORD PTR p$[rsp], rax

; 248  :     olditem = *p;

  000bf	48 8b 44 24 20	 mov	 rax, QWORD PTR p$[rsp]
  000c4	48 8b 00	 mov	 rax, QWORD PTR [rax]
  000c7	48 89 44 24 28	 mov	 QWORD PTR olditem$[rsp], rax

; 249  :     /*
; 250  :     if (Px_ASSIGNMENT_ERROR(op, olditem))
; 251  :         return -1;
; 252  :     */
; 253  :     *p = newitem;

  000cc	48 8b 44 24 20	 mov	 rax, QWORD PTR p$[rsp]
  000d1	48 8b 4c 24 50	 mov	 rcx, QWORD PTR newitem$[rsp]
  000d6	48 89 08	 mov	 QWORD PTR [rax], rcx
$LN4@PyList_Set:

; 254  :     Py_XDECREF(olditem);

  000d9	48 83 7c 24 28
	00		 cmp	 QWORD PTR olditem$[rsp], 0
  000df	74 0a		 je	 SHORT $LN1@PyList_Set
  000e1	48 8b 4c 24 28	 mov	 rcx, QWORD PTR olditem$[rsp]
  000e6	e8 00 00 00 00	 call	 _Py_DecRef
$LN1@PyList_Set:
  000eb	33 c0		 xor	 eax, eax
  000ed	85 c0		 test	 eax, eax
  000ef	75 e8		 jne	 SHORT $LN4@PyList_Set

; 255  :     return 0;

  000f1	33 c0		 xor	 eax, eax
$LN16@PyList_Set:

; 256  : }

  000f3	48 83 c4 38	 add	 rsp, 56			; 00000038H
  000f7	c3		 ret	 0
PyList_SetItem ENDP
_TEXT	ENDS
PUBLIC	PyList_Insert
;	COMDAT pdata
pdata	SEGMENT
$pdata$PyList_Insert DD imagerel $LN4
	DD	imagerel $LN4+92
	DD	imagerel $unwind$PyList_Insert
pdata	ENDS
;	COMDAT xdata
xdata	SEGMENT
$unwind$PyList_Insert DD 011301H
	DD	04213H
; Function compile flags: /Odtp
xdata	ENDS
;	COMDAT PyList_Insert
_TEXT	SEGMENT
op$ = 48
where$ = 56
newitem$ = 64
PyList_Insert PROC					; COMDAT

; 294  : {

$LN4:
  00000	4c 89 44 24 18	 mov	 QWORD PTR [rsp+24], r8
  00005	48 89 54 24 10	 mov	 QWORD PTR [rsp+16], rdx
  0000a	48 89 4c 24 08	 mov	 QWORD PTR [rsp+8], rcx
  0000f	48 83 ec 28	 sub	 rsp, 40			; 00000028H

; 295  :     if (!PyList_Check(op)) {

  00013	48 8b 44 24 30	 mov	 rax, QWORD PTR op$[rsp]
  00018	48 8b 40 58	 mov	 rax, QWORD PTR [rax+88]
  0001c	8b 80 00 01 00
	00		 mov	 eax, DWORD PTR [rax+256]
  00022	25 00 00 00 02	 and	 eax, 33554432		; 02000000H
  00027	85 c0		 test	 eax, eax
  00029	75 18		 jne	 SHORT $LN1@PyList_Ins

; 296  :         PyErr_BadInternalCall();

  0002b	ba 28 01 00 00	 mov	 edx, 296		; 00000128H
  00030	48 8d 0d 00 00
	00 00		 lea	 rcx, OFFSET FLAT:??_C@_0BI@EJIDBIMM@?4?4?2Objects?2listobject?4c?$AA@
  00037	e8 00 00 00 00	 call	 _PyErr_BadInternalCall

; 297  :         return -1;

  0003c	b8 ff ff ff ff	 mov	 eax, -1
  00041	eb 14		 jmp	 SHORT $LN2@PyList_Ins
$LN1@PyList_Ins:

; 298  :     }
; 299  :     /* Px_CHECK_PROTECTION handled by inst1()->list_resize() */
; 300  :     return ins1((PyListObject *)op, where, newitem);

  00043	4c 8b 44 24 40	 mov	 r8, QWORD PTR newitem$[rsp]
  00048	48 8b 54 24 38	 mov	 rdx, QWORD PTR where$[rsp]
  0004d	48 8b 4c 24 30	 mov	 rcx, QWORD PTR op$[rsp]
  00052	e8 00 00 00 00	 call	 ins1
$LN2@PyList_Ins:

; 301  : }

  00057	48 83 c4 28	 add	 rsp, 40			; 00000028H
  0005b	c3		 ret	 0
PyList_Insert ENDP
_TEXT	ENDS
PUBLIC	_Py_IncRef
PUBLIC	??_C@_0CA@KPHNNLBH@cannot?5add?5more?5objects?5to?5list?$AA@ ; `string'
EXTRN	PyExc_OverflowError:QWORD
;	COMDAT pdata
pdata	SEGMENT
$pdata$ins1 DD	imagerel ins1
	DD	imagerel ins1+334
	DD	imagerel $unwind$ins1
pdata	ENDS
;	COMDAT xdata
xdata	SEGMENT
$unwind$ins1 DD	011301H
	DD	08213H
xdata	ENDS
;	COMDAT ??_C@_0CA@KPHNNLBH@cannot?5add?5more?5objects?5to?5list?$AA@
CONST	SEGMENT
??_C@_0CA@KPHNNLBH@cannot?5add?5more?5objects?5to?5list?$AA@ DB 'cannot a'
	DB	'dd more objects to list', 00H		; `string'
; Function compile flags: /Odtp
CONST	ENDS
;	COMDAT ins1
_TEXT	SEGMENT
n$ = 32
i$ = 40
items$ = 48
self$ = 80
where$ = 88
v$ = 96
ins1	PROC						; COMDAT

; 260  : {

  00000	4c 89 44 24 18	 mov	 QWORD PTR [rsp+24], r8
  00005	48 89 54 24 10	 mov	 QWORD PTR [rsp+16], rdx
  0000a	48 89 4c 24 08	 mov	 QWORD PTR [rsp+8], rcx
  0000f	48 83 ec 48	 sub	 rsp, 72			; 00000048H

; 261  :     Py_ssize_t i, n = Py_SIZE(self);

  00013	48 8b 44 24 50	 mov	 rax, QWORD PTR self$[rsp]
  00018	48 8b 40 60	 mov	 rax, QWORD PTR [rax+96]
  0001c	48 89 44 24 20	 mov	 QWORD PTR n$[rsp], rax

; 262  :     PyObject **items;
; 263  :     if (v == NULL) {

  00021	48 83 7c 24 60
	00		 cmp	 QWORD PTR v$[rsp], 0
  00027	75 1b		 jne	 SHORT $LN8@ins1

; 264  :         PyErr_BadInternalCall();

  00029	ba 08 01 00 00	 mov	 edx, 264		; 00000108H
  0002e	48 8d 0d 00 00
	00 00		 lea	 rcx, OFFSET FLAT:??_C@_0BI@EJIDBIMM@?4?4?2Objects?2listobject?4c?$AA@
  00035	e8 00 00 00 00	 call	 _PyErr_BadInternalCall

; 265  :         return -1;

  0003a	b8 ff ff ff ff	 mov	 eax, -1
  0003f	e9 05 01 00 00	 jmp	 $LN9@ins1
$LN8@ins1:

; 266  :     }
; 267  :     if (n == PY_SSIZE_T_MAX) {

  00044	48 b8 ff ff ff
	ff ff ff ff 7f	 mov	 rax, 9223372036854775807 ; 7fffffffffffffffH
  0004e	48 39 44 24 20	 cmp	 QWORD PTR n$[rsp], rax
  00053	75 1d		 jne	 SHORT $LN7@ins1

; 268  :         PyErr_SetString(PyExc_OverflowError,
; 269  :             "cannot add more objects to list");

  00055	48 8d 15 00 00
	00 00		 lea	 rdx, OFFSET FLAT:??_C@_0CA@KPHNNLBH@cannot?5add?5more?5objects?5to?5list?$AA@
  0005c	48 8b 0d 00 00
	00 00		 mov	 rcx, QWORD PTR PyExc_OverflowError
  00063	e8 00 00 00 00	 call	 PyErr_SetString

; 270  :         return -1;

  00068	b8 ff ff ff ff	 mov	 eax, -1
  0006d	e9 d7 00 00 00	 jmp	 $LN9@ins1
$LN7@ins1:

; 271  :     }
; 272  : 
; 273  :     /* Px_CHECK_PROTECTION handled by list_resize() */
; 274  :     if (list_resize(self, n+1) == -1)

  00072	48 8b 44 24 20	 mov	 rax, QWORD PTR n$[rsp]
  00077	48 ff c0	 inc	 rax
  0007a	48 8b d0	 mov	 rdx, rax
  0007d	48 8b 4c 24 50	 mov	 rcx, QWORD PTR self$[rsp]
  00082	e8 00 00 00 00	 call	 list_resize
  00087	83 f8 ff	 cmp	 eax, -1
  0008a	75 0a		 jne	 SHORT $LN6@ins1

; 275  :         return -1;

  0008c	b8 ff ff ff ff	 mov	 eax, -1
  00091	e9 b3 00 00 00	 jmp	 $LN9@ins1
$LN6@ins1:

; 276  : 
; 277  :     if (where < 0) {

  00096	48 83 7c 24 58
	00		 cmp	 QWORD PTR where$[rsp], 0
  0009c	7d 26		 jge	 SHORT $LN5@ins1

; 278  :         where += n;

  0009e	48 8b 44 24 20	 mov	 rax, QWORD PTR n$[rsp]
  000a3	48 8b 4c 24 58	 mov	 rcx, QWORD PTR where$[rsp]
  000a8	48 03 c8	 add	 rcx, rax
  000ab	48 8b c1	 mov	 rax, rcx
  000ae	48 89 44 24 58	 mov	 QWORD PTR where$[rsp], rax

; 279  :         if (where < 0)

  000b3	48 83 7c 24 58
	00		 cmp	 QWORD PTR where$[rsp], 0
  000b9	7d 09		 jge	 SHORT $LN4@ins1

; 280  :             where = 0;

  000bb	48 c7 44 24 58
	00 00 00 00	 mov	 QWORD PTR where$[rsp], 0
$LN4@ins1:
$LN5@ins1:

; 281  :     }
; 282  :     if (where > n)

  000c4	48 8b 44 24 20	 mov	 rax, QWORD PTR n$[rsp]
  000c9	48 39 44 24 58	 cmp	 QWORD PTR where$[rsp], rax
  000ce	7e 0a		 jle	 SHORT $LN3@ins1

; 283  :         where = n;

  000d0	48 8b 44 24 20	 mov	 rax, QWORD PTR n$[rsp]
  000d5	48 89 44 24 58	 mov	 QWORD PTR where$[rsp], rax
$LN3@ins1:

; 284  :     items = self->ob_item;

  000da	48 8b 44 24 50	 mov	 rax, QWORD PTR self$[rsp]
  000df	48 8b 40 70	 mov	 rax, QWORD PTR [rax+112]
  000e3	48 89 44 24 30	 mov	 QWORD PTR items$[rsp], rax

; 285  :     for (i = n; --i >= where; )

  000e8	48 8b 44 24 20	 mov	 rax, QWORD PTR n$[rsp]
  000ed	48 89 44 24 28	 mov	 QWORD PTR i$[rsp], rax
$LN2@ins1:
  000f2	48 8b 44 24 28	 mov	 rax, QWORD PTR i$[rsp]
  000f7	48 ff c8	 dec	 rax
  000fa	48 89 44 24 28	 mov	 QWORD PTR i$[rsp], rax
  000ff	48 8b 44 24 58	 mov	 rax, QWORD PTR where$[rsp]
  00104	48 39 44 24 28	 cmp	 QWORD PTR i$[rsp], rax
  00109	7c 1f		 jl	 SHORT $LN1@ins1

; 286  :         items[i+1] = items[i];

  0010b	48 8b 44 24 30	 mov	 rax, QWORD PTR items$[rsp]
  00110	48 8b 4c 24 28	 mov	 rcx, QWORD PTR i$[rsp]
  00115	48 8b 54 24 30	 mov	 rdx, QWORD PTR items$[rsp]
  0011a	4c 8b 44 24 28	 mov	 r8, QWORD PTR i$[rsp]
  0011f	4a 8b 14 c2	 mov	 rdx, QWORD PTR [rdx+r8*8]
  00123	48 89 54 c8 08	 mov	 QWORD PTR [rax+rcx*8+8], rdx
  00128	eb c8		 jmp	 SHORT $LN2@ins1
$LN1@ins1:

; 287  :     Py_INCREF(v);

  0012a	48 8b 4c 24 60	 mov	 rcx, QWORD PTR v$[rsp]
  0012f	e8 00 00 00 00	 call	 _Py_IncRef

; 288  :     items[where] = v;

  00134	48 8b 44 24 30	 mov	 rax, QWORD PTR items$[rsp]
  00139	48 8b 4c 24 58	 mov	 rcx, QWORD PTR where$[rsp]
  0013e	48 8b 54 24 60	 mov	 rdx, QWORD PTR v$[rsp]
  00143	48 89 14 c8	 mov	 QWORD PTR [rax+rcx*8], rdx

; 289  :     return 0;

  00147	33 c0		 xor	 eax, eax
$LN9@ins1:

; 290  : }

  00149	48 83 c4 48	 add	 rsp, 72			; 00000048H
  0014d	c3		 ret	 0
ins1	ENDP
_TEXT	ENDS
PUBLIC	??_C@_0L@DHGMCEID@_Py_IncRef?$AA@		; `string'
;	COMDAT pdata
; File c:\src\pyparallel\include\object.h
pdata	SEGMENT
$pdata$_Py_IncRef DD imagerel $LN7
	DD	imagerel $LN7+132
	DD	imagerel $unwind$_Py_IncRef
pdata	ENDS
;	COMDAT xdata
xdata	SEGMENT
$unwind$_Py_IncRef DD 010901H
	DD	06209H
xdata	ENDS
;	COMDAT ??_C@_0L@DHGMCEID@_Py_IncRef?$AA@
CONST	SEGMENT
??_C@_0L@DHGMCEID@_Py_IncRef?$AA@ DB '_Py_IncRef', 00H	; `string'
; Function compile flags: /Odtp
CONST	ENDS
;	COMDAT _Py_IncRef
_TEXT	SEGMENT
op$ = 64
_Py_IncRef PROC						; COMDAT

; 904  : {

$LN7:
  00000	48 89 4c 24 08	 mov	 QWORD PTR [rsp+8], rcx
  00005	48 83 ec 38	 sub	 rsp, 56			; 00000038H

; 905  :     if ((!Py_PXCTX && (Py_ISPY(op) || Px_PERSISTED(op)))) {

  00009	e8 00 00 00 00	 call	 _Py_PXCTX
  0000e	85 c0		 test	 eax, eax
  00010	75 6d		 jne	 SHORT $LN2@Py_IncRef
  00012	c7 44 24 20 02
	00 00 00	 mov	 DWORD PTR [rsp+32], 2
  0001a	4c 8b 4c 24 40	 mov	 r9, QWORD PTR op$[rsp]
  0001f	41 b8 89 03 00
	00		 mov	 r8d, 905		; 00000389H
  00025	48 8d 15 00 00
	00 00		 lea	 rdx, OFFSET FLAT:??_C@_0CD@HDJFDCDP@c?3?2src?2pyparallel?2include?2object@
  0002c	48 8d 0d 00 00
	00 00		 lea	 rcx, OFFSET FLAT:??_C@_0L@DHGMCEID@_Py_IncRef?$AA@
  00033	e8 00 00 00 00	 call	 _PyParallel_Guard
  00038	85 c0		 test	 eax, eax
  0003a	75 12		 jne	 SHORT $LN1@Py_IncRef
  0003c	48 8b 44 24 40	 mov	 rax, QWORD PTR op$[rsp]
  00041	48 8b 40 20	 mov	 rax, QWORD PTR [rax+32]
  00045	48 83 e0 20	 and	 rax, 32			; 00000020H
  00049	48 85 c0	 test	 rax, rax
  0004c	74 31		 je	 SHORT $LN2@Py_IncRef
$LN1@Py_IncRef:

; 906  :         _Py_INC_REFTOTAL;

  0004e	e8 00 00 00 00	 call	 _Py_PXCTX
  00053	85 c0		 test	 eax, eax
  00055	74 02		 je	 SHORT $LN5@Py_IncRef
  00057	eb 11		 jmp	 SHORT $LN6@Py_IncRef
$LN5@Py_IncRef:
  00059	48 8b 05 00 00
	00 00		 mov	 rax, QWORD PTR _Py_RefTotal
  00060	48 ff c0	 inc	 rax
  00063	48 89 05 00 00
	00 00		 mov	 QWORD PTR _Py_RefTotal, rax
$LN6@Py_IncRef:

; 907  :         (((PyObject*)(op))->ob_refcnt++);

  0006a	48 8b 44 24 40	 mov	 rax, QWORD PTR op$[rsp]
  0006f	48 8b 40 50	 mov	 rax, QWORD PTR [rax+80]
  00073	48 ff c0	 inc	 rax
  00076	48 8b 4c 24 40	 mov	 rcx, QWORD PTR op$[rsp]
  0007b	48 89 41 50	 mov	 QWORD PTR [rcx+80], rax
$LN2@Py_IncRef:

; 908  :     }
; 909  : }

  0007f	48 83 c4 38	 add	 rsp, 56			; 00000038H
  00083	c3		 ret	 0
_Py_IncRef ENDP
_TEXT	ENDS
PUBLIC	??_C@_0BL@MDNNEGKD@list_resize?5from?5px?5thread?$AA@ ; `string'
PUBLIC	??_C@_0M@CEKCPCJF@list_resize?$AA@		; `string'
PUBLIC	??_C@_1EM@HFDLILCI@?$AAs?$AAe?$AAl?$AAf?$AA?9?$AA?$DO?$AAo?$AAb?$AA_?$AAi?$AAt?$AAe?$AAm?$AA?5?$AA?$CB?$AA?$DN?$AA?5?$AAN?$AAU?$AAL?$AAL?$AA?5?$AA?$HM?$AA?$HM?$AA?5?$AAn?$AAe?$AAw?$AAs?$AAi?$AAz?$AAe@ ; `string'
EXTRN	_PyMem_DebugRealloc:PROC
EXTRN	_PxMem_Realloc:PROC
EXTRN	PyExc_AssignmentError:QWORD
;	COMDAT pdata
; File c:\src\pyparallel\objects\listobject.c
pdata	SEGMENT
$pdata$list_resize DD imagerel list_resize
	DD	imagerel list_resize+550
	DD	imagerel $unwind$list_resize
pdata	ENDS
;	COMDAT xdata
xdata	SEGMENT
$unwind$list_resize DD 010e01H
	DD	0c20eH
xdata	ENDS
;	COMDAT ??_C@_0BL@MDNNEGKD@list_resize?5from?5px?5thread?$AA@
CONST	SEGMENT
??_C@_0BL@MDNNEGKD@list_resize?5from?5px?5thread?$AA@ DB 'list_resize fro'
	DB	'm px thread', 00H				; `string'
CONST	ENDS
;	COMDAT ??_C@_0M@CEKCPCJF@list_resize?$AA@
CONST	SEGMENT
??_C@_0M@CEKCPCJF@list_resize?$AA@ DB 'list_resize', 00H ; `string'
CONST	ENDS
;	COMDAT ??_C@_1EM@HFDLILCI@?$AAs?$AAe?$AAl?$AAf?$AA?9?$AA?$DO?$AAo?$AAb?$AA_?$AAi?$AAt?$AAe?$AAm?$AA?5?$AA?$CB?$AA?$DN?$AA?5?$AAN?$AAU?$AAL?$AAL?$AA?5?$AA?$HM?$AA?$HM?$AA?5?$AAn?$AAe?$AAw?$AAs?$AAi?$AAz?$AAe@
CONST	SEGMENT
??_C@_1EM@HFDLILCI@?$AAs?$AAe?$AAl?$AAf?$AA?9?$AA?$DO?$AAo?$AAb?$AA_?$AAi?$AAt?$AAe?$AAm?$AA?5?$AA?$CB?$AA?$DN?$AA?5?$AAN?$AAU?$AAL?$AAL?$AA?5?$AA?$HM?$AA?$HM?$AA?5?$AAn?$AAe?$AAw?$AAs?$AAi?$AAz?$AAe@ DB 's'
	DB	00H, 'e', 00H, 'l', 00H, 'f', 00H, '-', 00H, '>', 00H, 'o', 00H
	DB	'b', 00H, '_', 00H, 'i', 00H, 't', 00H, 'e', 00H, 'm', 00H, ' '
	DB	00H, '!', 00H, '=', 00H, ' ', 00H, 'N', 00H, 'U', 00H, 'L', 00H
	DB	'L', 00H, ' ', 00H, '|', 00H, '|', 00H, ' ', 00H, 'n', 00H, 'e'
	DB	00H, 'w', 00H, 's', 00H, 'i', 00H, 'z', 00H, 'e', 00H, ' ', 00H
	DB	'=', 00H, '=', 00H, ' ', 00H, '0', 00H, 00H, 00H ; `string'
; Function compile flags: /Odtp
CONST	ENDS
;	COMDAT list_resize
_TEXT	SEGMENT
allocated$ = 48
new_allocated$ = 56
items$ = 64
tv89 = 72
tv142 = 80
tv141 = 88
self$ = 112
newsize$ = 120
list_resize PROC					; COMDAT

; 27   : {

  00000	48 89 54 24 10	 mov	 QWORD PTR [rsp+16], rdx
  00005	48 89 4c 24 08	 mov	 QWORD PTR [rsp+8], rcx
  0000a	48 83 ec 68	 sub	 rsp, 104		; 00000068H

; 28   :     PyObject **items;
; 29   :     size_t new_allocated;
; 30   :     Py_ssize_t allocated = self->allocated;

  0000e	48 8b 44 24 70	 mov	 rax, QWORD PTR self$[rsp]
  00013	48 8b 40 78	 mov	 rax, QWORD PTR [rax+120]
  00017	48 89 44 24 30	 mov	 QWORD PTR allocated$[rsp], rax

; 31   : 
; 32   :     /* Bypass realloc() when a previous overallocation is large enough
; 33   :        to accommodate the newsize.  If the newsize falls lower than half
; 34   :        the allocated size, then proceed with the realloc() to shrink the list.
; 35   :     */
; 36   :     if (allocated >= newsize && newsize >= (allocated >> 1)) {

  0001c	48 8b 44 24 78	 mov	 rax, QWORD PTR newsize$[rsp]
  00021	48 39 44 24 30	 cmp	 QWORD PTR allocated$[rsp], rax
  00026	7c 54		 jl	 SHORT $LN8@list_resiz
  00028	48 8b 44 24 30	 mov	 rax, QWORD PTR allocated$[rsp]
  0002d	48 d1 f8	 sar	 rax, 1
  00030	48 39 44 24 78	 cmp	 QWORD PTR newsize$[rsp], rax
  00035	7c 45		 jl	 SHORT $LN8@list_resiz

; 37   :         assert(self->ob_item != NULL || newsize == 0);

  00037	48 8b 44 24 70	 mov	 rax, QWORD PTR self$[rsp]
  0003c	48 83 78 70 00	 cmp	 QWORD PTR [rax+112], 0
  00041	75 24		 jne	 SHORT $LN11@list_resiz
  00043	48 83 7c 24 78
	00		 cmp	 QWORD PTR newsize$[rsp], 0
  00049	74 1c		 je	 SHORT $LN11@list_resiz
  0004b	41 b8 25 00 00
	00		 mov	 r8d, 37			; 00000025H
  00051	48 8d 15 00 00
	00 00		 lea	 rdx, OFFSET FLAT:??_C@_1DA@FFHCLKCK@?$AA?4?$AA?4?$AA?2?$AAO?$AAb?$AAj?$AAe?$AAc?$AAt?$AAs?$AA?2?$AAl?$AAi?$AAs?$AAt?$AAo?$AAb?$AAj?$AAe?$AAc?$AAt?$AA?4?$AAc?$AA?$AA@
  00058	48 8d 0d 00 00
	00 00		 lea	 rcx, OFFSET FLAT:??_C@_1EM@HFDLILCI@?$AAs?$AAe?$AAl?$AAf?$AA?9?$AA?$DO?$AAo?$AAb?$AA_?$AAi?$AAt?$AAe?$AAm?$AA?5?$AA?$CB?$AA?$DN?$AA?5?$AAN?$AAU?$AAL?$AAL?$AA?5?$AA?$HM?$AA?$HM?$AA?5?$AAn?$AAe?$AAw?$AAs?$AAi?$AAz?$AAe@
  0005f	ff 15 00 00 00
	00		 call	 QWORD PTR __imp__wassert
  00065	33 c0		 xor	 eax, eax
$LN11@list_resiz:

; 38   :         Py_SIZE(self) = newsize;

  00067	48 8b 44 24 70	 mov	 rax, QWORD PTR self$[rsp]
  0006c	48 8b 4c 24 78	 mov	 rcx, QWORD PTR newsize$[rsp]
  00071	48 89 48 60	 mov	 QWORD PTR [rax+96], rcx

; 39   :         return 0;

  00075	33 c0		 xor	 eax, eax
  00077	e9 a5 01 00 00	 jmp	 $LN9@list_resiz
$LN8@list_resiz:

; 40   :     }
; 41   : 
; 42   : #ifdef WITH_PARALLEL
; 43   :     if (Py_PXCTX && Py_ISPY(self)) {

  0007c	e8 00 00 00 00	 call	 _Py_PXCTX
  00081	85 c0		 test	 eax, eax
  00083	74 47		 je	 SHORT $LN7@list_resiz
  00085	c7 44 24 20 02
	00 00 00	 mov	 DWORD PTR [rsp+32], 2
  0008d	4c 8b 4c 24 70	 mov	 r9, QWORD PTR self$[rsp]
  00092	41 b8 2b 00 00
	00		 mov	 r8d, 43			; 0000002bH
  00098	48 8d 15 00 00
	00 00		 lea	 rdx, OFFSET FLAT:??_C@_0BI@EJIDBIMM@?4?4?2Objects?2listobject?4c?$AA@
  0009f	48 8d 0d 00 00
	00 00		 lea	 rcx, OFFSET FLAT:??_C@_0M@CEKCPCJF@list_resize?$AA@
  000a6	e8 00 00 00 00	 call	 _PyParallel_Guard
  000ab	85 c0		 test	 eax, eax
  000ad	74 1d		 je	 SHORT $LN7@list_resiz

; 44   :         PyErr_SetString(PyExc_AssignmentError, "list_resize from px thread");

  000af	48 8d 15 00 00
	00 00		 lea	 rdx, OFFSET FLAT:??_C@_0BL@MDNNEGKD@list_resize?5from?5px?5thread?$AA@
  000b6	48 8b 0d 00 00
	00 00		 mov	 rcx, QWORD PTR PyExc_AssignmentError
  000bd	e8 00 00 00 00	 call	 PyErr_SetString

; 45   :         return -1;

  000c2	b8 ff ff ff ff	 mov	 eax, -1
  000c7	e9 55 01 00 00	 jmp	 $LN9@list_resiz
$LN7@list_resiz:

; 46   :     }
; 47   : #endif
; 48   : 
; 49   :     /* This over-allocates proportional to the list size, making room
; 50   :      * for additional growth.  The over-allocation is mild, but is
; 51   :      * enough to give linear-time amortized behavior over a long
; 52   :      * sequence of appends() in the presence of a poorly-performing
; 53   :      * system realloc().
; 54   :      * The growth pattern is:  0, 4, 8, 16, 25, 35, 46, 58, 72, 88, ...
; 55   :      */
; 56   :     new_allocated = (newsize >> 3) + (newsize < 9 ? 3 : 6);

  000cc	48 83 7c 24 78
	09		 cmp	 QWORD PTR newsize$[rsp], 9
  000d2	7d 0a		 jge	 SHORT $LN12@list_resiz
  000d4	c7 44 24 48 03
	00 00 00	 mov	 DWORD PTR tv89[rsp], 3
  000dc	eb 08		 jmp	 SHORT $LN13@list_resiz
$LN12@list_resiz:
  000de	c7 44 24 48 06
	00 00 00	 mov	 DWORD PTR tv89[rsp], 6
$LN13@list_resiz:
  000e6	48 8b 44 24 78	 mov	 rax, QWORD PTR newsize$[rsp]
  000eb	48 c1 f8 03	 sar	 rax, 3
  000ef	48 63 4c 24 48	 movsxd	 rcx, DWORD PTR tv89[rsp]
  000f4	48 03 c1	 add	 rax, rcx
  000f7	48 89 44 24 38	 mov	 QWORD PTR new_allocated$[rsp], rax

; 57   : 
; 58   :     /* check for integer overflow */
; 59   :     if (new_allocated > PY_SIZE_MAX - newsize) {

  000fc	48 c7 c0 ff ff
	ff ff		 mov	 rax, -1
  00103	48 2b 44 24 78	 sub	 rax, QWORD PTR newsize$[rsp]
  00108	48 39 44 24 38	 cmp	 QWORD PTR new_allocated$[rsp], rax
  0010d	76 11		 jbe	 SHORT $LN6@list_resiz

; 60   :         PyErr_NoMemory();

  0010f	e8 00 00 00 00	 call	 PyErr_NoMemory

; 61   :         return -1;

  00114	b8 ff ff ff ff	 mov	 eax, -1
  00119	e9 03 01 00 00	 jmp	 $LN9@list_resiz

; 62   :     } else {

  0011e	eb 15		 jmp	 SHORT $LN5@list_resiz
$LN6@list_resiz:

; 63   :         new_allocated += newsize;

  00120	48 8b 44 24 78	 mov	 rax, QWORD PTR newsize$[rsp]
  00125	48 8b 4c 24 38	 mov	 rcx, QWORD PTR new_allocated$[rsp]
  0012a	48 03 c8	 add	 rcx, rax
  0012d	48 8b c1	 mov	 rax, rcx
  00130	48 89 44 24 38	 mov	 QWORD PTR new_allocated$[rsp], rax
$LN5@list_resiz:

; 64   :     }
; 65   : 
; 66   :     if (newsize == 0)

  00135	48 83 7c 24 78
	00		 cmp	 QWORD PTR newsize$[rsp], 0
  0013b	75 09		 jne	 SHORT $LN4@list_resiz

; 67   :         new_allocated = 0;

  0013d	48 c7 44 24 38
	00 00 00 00	 mov	 QWORD PTR new_allocated$[rsp], 0
$LN4@list_resiz:

; 68   :     items = self->ob_item;

  00146	48 8b 44 24 70	 mov	 rax, QWORD PTR self$[rsp]
  0014b	48 8b 40 70	 mov	 rax, QWORD PTR [rax+112]
  0014f	48 89 44 24 40	 mov	 QWORD PTR items$[rsp], rax

; 69   :     if (new_allocated <= (PY_SIZE_MAX / sizeof(PyObject *)))

  00154	48 b8 ff ff ff
	ff ff ff ff 1f	 mov	 rax, 2305843009213693951 ; 1fffffffffffffffH
  0015e	48 39 44 24 38	 cmp	 QWORD PTR new_allocated$[rsp], rax
  00163	77 73		 ja	 SHORT $LN3@list_resiz

; 70   :         PyMem_RESIZE(items, PyObject *, new_allocated);

  00165	48 b8 ff ff ff
	ff ff ff ff 0f	 mov	 rax, 1152921504606846975 ; 0fffffffffffffffH
  0016f	48 39 44 24 38	 cmp	 QWORD PTR new_allocated$[rsp], rax
  00174	76 0b		 jbe	 SHORT $LN16@list_resiz
  00176	48 c7 44 24 50
	00 00 00 00	 mov	 QWORD PTR tv142[rsp], 0
  0017f	eb 4b		 jmp	 SHORT $LN17@list_resiz
$LN16@list_resiz:
  00181	e8 00 00 00 00	 call	 _Py_PXCTX
  00186	85 c0		 test	 eax, eax
  00188	74 1d		 je	 SHORT $LN14@list_resiz
  0018a	48 8b 44 24 38	 mov	 rax, QWORD PTR new_allocated$[rsp]
  0018f	48 c1 e0 03	 shl	 rax, 3
  00193	48 8b d0	 mov	 rdx, rax
  00196	48 8b 4c 24 40	 mov	 rcx, QWORD PTR items$[rsp]
  0019b	e8 00 00 00 00	 call	 _PxMem_Realloc
  001a0	48 89 44 24 58	 mov	 QWORD PTR tv141[rsp], rax
  001a5	eb 1b		 jmp	 SHORT $LN15@list_resiz
$LN14@list_resiz:
  001a7	48 8b 44 24 38	 mov	 rax, QWORD PTR new_allocated$[rsp]
  001ac	48 c1 e0 03	 shl	 rax, 3
  001b0	48 8b d0	 mov	 rdx, rax
  001b3	48 8b 4c 24 40	 mov	 rcx, QWORD PTR items$[rsp]
  001b8	e8 00 00 00 00	 call	 _PyMem_DebugRealloc
  001bd	48 89 44 24 58	 mov	 QWORD PTR tv141[rsp], rax
$LN15@list_resiz:
  001c2	48 8b 44 24 58	 mov	 rax, QWORD PTR tv141[rsp]
  001c7	48 89 44 24 50	 mov	 QWORD PTR tv142[rsp], rax
$LN17@list_resiz:
  001cc	48 8b 44 24 50	 mov	 rax, QWORD PTR tv142[rsp]
  001d1	48 89 44 24 40	 mov	 QWORD PTR items$[rsp], rax

; 71   :     else

  001d6	eb 09		 jmp	 SHORT $LN2@list_resiz
$LN3@list_resiz:

; 72   :         items = NULL;

  001d8	48 c7 44 24 40
	00 00 00 00	 mov	 QWORD PTR items$[rsp], 0
$LN2@list_resiz:

; 73   :     if (items == NULL) {

  001e1	48 83 7c 24 40
	00		 cmp	 QWORD PTR items$[rsp], 0
  001e7	75 0c		 jne	 SHORT $LN1@list_resiz

; 74   :         PyErr_NoMemory();

  001e9	e8 00 00 00 00	 call	 PyErr_NoMemory

; 75   :         return -1;

  001ee	b8 ff ff ff ff	 mov	 eax, -1
  001f3	eb 2c		 jmp	 SHORT $LN9@list_resiz
$LN1@list_resiz:

; 76   :     }
; 77   :     self->ob_item = items;

  001f5	48 8b 44 24 70	 mov	 rax, QWORD PTR self$[rsp]
  001fa	48 8b 4c 24 40	 mov	 rcx, QWORD PTR items$[rsp]
  001ff	48 89 48 70	 mov	 QWORD PTR [rax+112], rcx

; 78   :     Py_SIZE(self) = newsize;

  00203	48 8b 44 24 70	 mov	 rax, QWORD PTR self$[rsp]
  00208	48 8b 4c 24 78	 mov	 rcx, QWORD PTR newsize$[rsp]
  0020d	48 89 48 60	 mov	 QWORD PTR [rax+96], rcx

; 79   :     self->allocated = new_allocated;

  00211	48 8b 44 24 70	 mov	 rax, QWORD PTR self$[rsp]
  00216	48 8b 4c 24 38	 mov	 rcx, QWORD PTR new_allocated$[rsp]
  0021b	48 89 48 78	 mov	 QWORD PTR [rax+120], rcx

; 80   :     return 0;

  0021f	33 c0		 xor	 eax, eax
$LN9@list_resiz:

; 81   : }

  00221	48 83 c4 68	 add	 rsp, 104		; 00000068H
  00225	c3		 ret	 0
list_resize ENDP
_TEXT	ENDS
PUBLIC	PyList_Append
;	COMDAT pdata
pdata	SEGMENT
$pdata$PyList_Append DD imagerel $LN4
	DD	imagerel $LN4+90
	DD	imagerel $unwind$PyList_Append
pdata	ENDS
;	COMDAT xdata
xdata	SEGMENT
$unwind$PyList_Append DD 010e01H
	DD	0420eH
; Function compile flags: /Odtp
xdata	ENDS
;	COMDAT PyList_Append
_TEXT	SEGMENT
op$ = 48
newitem$ = 56
PyList_Append PROC					; COMDAT

; 326  : {

$LN4:
  00000	48 89 54 24 10	 mov	 QWORD PTR [rsp+16], rdx
  00005	48 89 4c 24 08	 mov	 QWORD PTR [rsp+8], rcx
  0000a	48 83 ec 28	 sub	 rsp, 40			; 00000028H

; 327  :     if (PyList_Check(op) && (newitem != NULL))

  0000e	48 8b 44 24 30	 mov	 rax, QWORD PTR op$[rsp]
  00013	48 8b 40 58	 mov	 rax, QWORD PTR [rax+88]
  00017	8b 80 00 01 00
	00		 mov	 eax, DWORD PTR [rax+256]
  0001d	25 00 00 00 02	 and	 eax, 33554432		; 02000000H
  00022	85 c0		 test	 eax, eax
  00024	74 19		 je	 SHORT $LN1@PyList_App
  00026	48 83 7c 24 38
	00		 cmp	 QWORD PTR newitem$[rsp], 0
  0002c	74 11		 je	 SHORT $LN1@PyList_App

; 328  :         /* Px_CHECK_PROTECTION handled by app1()->list_resize() */
; 329  :         return app1((PyListObject *)op, newitem);

  0002e	48 8b 54 24 38	 mov	 rdx, QWORD PTR newitem$[rsp]
  00033	48 8b 4c 24 30	 mov	 rcx, QWORD PTR op$[rsp]
  00038	e8 00 00 00 00	 call	 app1
  0003d	eb 16		 jmp	 SHORT $LN2@PyList_App
$LN1@PyList_App:

; 330  :     PyErr_BadInternalCall();

  0003f	ba 4a 01 00 00	 mov	 edx, 330		; 0000014aH
  00044	48 8d 0d 00 00
	00 00		 lea	 rcx, OFFSET FLAT:??_C@_0BI@EJIDBIMM@?4?4?2Objects?2listobject?4c?$AA@
  0004b	e8 00 00 00 00	 call	 _PyErr_BadInternalCall

; 331  :     return -1;

  00050	b8 ff ff ff ff	 mov	 eax, -1
$LN2@PyList_App:

; 332  : }

  00055	48 83 c4 28	 add	 rsp, 40			; 00000028H
  00059	c3		 ret	 0
PyList_Append ENDP
_TEXT	ENDS
PUBLIC	??_C@_1BE@GPCKPIHH@?$AAv?$AA?5?$AA?$CB?$AA?$DN?$AA?5?$AAN?$AAU?$AAL?$AAL?$AA?$AA@ ; `string'
;	COMDAT pdata
pdata	SEGMENT
$pdata$app1 DD	imagerel app1
	DD	imagerel app1+180
	DD	imagerel $unwind$app1
pdata	ENDS
;	COMDAT xdata
xdata	SEGMENT
$unwind$app1 DD	010e01H
	DD	0620eH
xdata	ENDS
;	COMDAT ??_C@_1BE@GPCKPIHH@?$AAv?$AA?5?$AA?$CB?$AA?$DN?$AA?5?$AAN?$AAU?$AAL?$AAL?$AA?$AA@
CONST	SEGMENT
??_C@_1BE@GPCKPIHH@?$AAv?$AA?5?$AA?$CB?$AA?$DN?$AA?5?$AAN?$AAU?$AAL?$AAL?$AA?$AA@ DB 'v'
	DB	00H, ' ', 00H, '!', 00H, '=', 00H, ' ', 00H, 'N', 00H, 'U', 00H
	DB	'L', 00H, 'L', 00H, 00H, 00H			; `string'
; Function compile flags: /Odtp
CONST	ENDS
;	COMDAT app1
_TEXT	SEGMENT
n$ = 32
self$ = 64
v$ = 72
app1	PROC						; COMDAT

; 305  : {

  00000	48 89 54 24 10	 mov	 QWORD PTR [rsp+16], rdx
  00005	48 89 4c 24 08	 mov	 QWORD PTR [rsp+8], rcx
  0000a	48 83 ec 38	 sub	 rsp, 56			; 00000038H

; 306  :     Py_ssize_t n = PyList_GET_SIZE(self);

  0000e	48 8b 44 24 40	 mov	 rax, QWORD PTR self$[rsp]
  00013	48 8b 40 60	 mov	 rax, QWORD PTR [rax+96]
  00017	48 89 44 24 20	 mov	 QWORD PTR n$[rsp], rax

; 307  : 
; 308  :     assert (v != NULL);

  0001c	48 83 7c 24 48
	00		 cmp	 QWORD PTR v$[rsp], 0
  00022	75 1c		 jne	 SHORT $LN5@app1
  00024	41 b8 34 01 00
	00		 mov	 r8d, 308		; 00000134H
  0002a	48 8d 15 00 00
	00 00		 lea	 rdx, OFFSET FLAT:??_C@_1DA@FFHCLKCK@?$AA?4?$AA?4?$AA?2?$AAO?$AAb?$AAj?$AAe?$AAc?$AAt?$AAs?$AA?2?$AAl?$AAi?$AAs?$AAt?$AAo?$AAb?$AAj?$AAe?$AAc?$AAt?$AA?4?$AAc?$AA?$AA@
  00031	48 8d 0d 00 00
	00 00		 lea	 rcx, OFFSET FLAT:??_C@_1BE@GPCKPIHH@?$AAv?$AA?5?$AA?$CB?$AA?$DN?$AA?5?$AAN?$AAU?$AAL?$AAL?$AA?$AA@
  00038	ff 15 00 00 00
	00		 call	 QWORD PTR __imp__wassert
  0003e	33 c0		 xor	 eax, eax
$LN5@app1:

; 309  :     if (n == PY_SSIZE_T_MAX) {

  00040	48 b8 ff ff ff
	ff ff ff ff 7f	 mov	 rax, 9223372036854775807 ; 7fffffffffffffffH
  0004a	48 39 44 24 20	 cmp	 QWORD PTR n$[rsp], rax
  0004f	75 1a		 jne	 SHORT $LN2@app1

; 310  :         PyErr_SetString(PyExc_OverflowError,
; 311  :             "cannot add more objects to list");

  00051	48 8d 15 00 00
	00 00		 lea	 rdx, OFFSET FLAT:??_C@_0CA@KPHNNLBH@cannot?5add?5more?5objects?5to?5list?$AA@
  00058	48 8b 0d 00 00
	00 00		 mov	 rcx, QWORD PTR PyExc_OverflowError
  0005f	e8 00 00 00 00	 call	 PyErr_SetString

; 312  :         return -1;

  00064	b8 ff ff ff ff	 mov	 eax, -1
  00069	eb 44		 jmp	 SHORT $LN3@app1
$LN2@app1:

; 313  :     }
; 314  : 
; 315  :     /* Px_CHECK_PROTECTION handled by list_resize() */
; 316  :     if (list_resize(self, n+1) == -1)

  0006b	48 8b 44 24 20	 mov	 rax, QWORD PTR n$[rsp]
  00070	48 ff c0	 inc	 rax
  00073	48 8b d0	 mov	 rdx, rax
  00076	48 8b 4c 24 40	 mov	 rcx, QWORD PTR self$[rsp]
  0007b	e8 00 00 00 00	 call	 list_resize
  00080	83 f8 ff	 cmp	 eax, -1
  00083	75 07		 jne	 SHORT $LN1@app1

; 317  :         return -1;

  00085	b8 ff ff ff ff	 mov	 eax, -1
  0008a	eb 23		 jmp	 SHORT $LN3@app1
$LN1@app1:

; 318  : 
; 319  :     Py_INCREF(v);

  0008c	48 8b 4c 24 48	 mov	 rcx, QWORD PTR v$[rsp]
  00091	e8 00 00 00 00	 call	 _Py_IncRef

; 320  :     PyList_SET_ITEM(self, n, v);

  00096	48 8b 44 24 40	 mov	 rax, QWORD PTR self$[rsp]
  0009b	48 8b 40 70	 mov	 rax, QWORD PTR [rax+112]
  0009f	48 8b 4c 24 20	 mov	 rcx, QWORD PTR n$[rsp]
  000a4	48 8b 54 24 48	 mov	 rdx, QWORD PTR v$[rsp]
  000a9	48 89 14 c8	 mov	 QWORD PTR [rax+rcx*8], rdx

; 321  :     return 0;

  000ad	33 c0		 xor	 eax, eax
$LN3@app1:

; 322  : }

  000af	48 83 c4 38	 add	 rsp, 56			; 00000038H
  000b3	c3		 ret	 0
app1	ENDP
_TEXT	ENDS
PUBLIC	??_C@_0N@IKFOGEIE@list_dealloc?$AA@		; `string'
EXTRN	_PyTrash_thread_deposit_object:PROC
EXTRN	_PyTrash_thread_destroy_chain:PROC
EXTRN	_PyMem_DebugFree:PROC
EXTRN	_PxMem_Free:PROC
EXTRN	PyThreadState_Get:PROC
EXTRN	PyObject_GC_UnTrack:PROC
EXTRN	_PyParallel_ContextGuardFailure:PROC
;	COMDAT pdata
pdata	SEGMENT
$pdata$list_dealloc DD imagerel list_dealloc
	DD	imagerel list_dealloc+437
	DD	imagerel $unwind$list_dealloc
pdata	ENDS
;	COMDAT xdata
xdata	SEGMENT
$unwind$list_dealloc DD 010901H
	DD	08209H
xdata	ENDS
;	COMDAT ??_C@_0N@IKFOGEIE@list_dealloc?$AA@
CONST	SEGMENT
??_C@_0N@IKFOGEIE@list_dealloc?$AA@ DB 'list_dealloc', 00H ; `string'
; Function compile flags: /Odtp
CONST	ENDS
;	COMDAT list_dealloc
_TEXT	SEGMENT
i$ = 32
_tstate$20539 = 40
tv129 = 48
op$ = 80
list_dealloc PROC					; COMDAT

; 338  : {

  00000	48 89 4c 24 08	 mov	 QWORD PTR [rsp+8], rcx
  00005	48 83 ec 48	 sub	 rsp, 72			; 00000048H

; 339  :     Py_ssize_t i;
; 340  :     Py_GUARD

  00009	e8 00 00 00 00	 call	 _Py_PXCTX
  0000e	85 c0		 test	 eax, eax
  00010	74 1c		 je	 SHORT $LN16@list_deall
  00012	45 33 c9	 xor	 r9d, r9d
  00015	41 b8 54 01 00
	00		 mov	 r8d, 340		; 00000154H
  0001b	48 8d 15 00 00
	00 00		 lea	 rdx, OFFSET FLAT:??_C@_0BI@EJIDBIMM@?4?4?2Objects?2listobject?4c?$AA@
  00022	48 8d 0d 00 00
	00 00		 lea	 rcx, OFFSET FLAT:??_C@_0N@IKFOGEIE@list_dealloc?$AA@
  00029	e8 00 00 00 00	 call	 _PyParallel_ContextGuardFailure
$LN16@list_deall:

; 341  :     PyObject_GC_UnTrack(op);

  0002e	48 8b 4c 24 50	 mov	 rcx, QWORD PTR op$[rsp]
  00033	e8 00 00 00 00	 call	 PyObject_GC_UnTrack
$LN15@list_deall:

; 342  :     Py_TRASHCAN_SAFE_BEGIN(op)

  00038	e8 00 00 00 00	 call	 PyThreadState_Get
  0003d	48 89 44 24 28	 mov	 QWORD PTR _tstate$20539[rsp], rax
  00042	48 8b 44 24 28	 mov	 rax, QWORD PTR _tstate$20539[rsp]
  00047	83 b8 94 00 00
	00 32		 cmp	 DWORD PTR [rax+148], 50	; 00000032H
  0004e	0f 8d 48 01 00
	00		 jge	 $LN12@list_deall
  00054	48 8b 44 24 28	 mov	 rax, QWORD PTR _tstate$20539[rsp]
  00059	8b 80 94 00 00
	00		 mov	 eax, DWORD PTR [rax+148]
  0005f	ff c0		 inc	 eax
  00061	48 8b 4c 24 28	 mov	 rcx, QWORD PTR _tstate$20539[rsp]
  00066	89 81 94 00 00
	00		 mov	 DWORD PTR [rcx+148], eax

; 343  :     if (op->ob_item != NULL) {

  0006c	48 8b 44 24 50	 mov	 rax, QWORD PTR op$[rsp]
  00071	48 83 78 70 00	 cmp	 QWORD PTR [rax+112], 0
  00076	0f 84 8e 00 00
	00		 je	 $LN11@list_deall

; 344  :         /* Do it backwards, for Christian Tismer.
; 345  :            There's a simple test case where somehow this reduces
; 346  :            thrashing when a *very* large list is created and
; 347  :            immediately deleted. */
; 348  :         i = Py_SIZE(op);

  0007c	48 8b 44 24 50	 mov	 rax, QWORD PTR op$[rsp]
  00081	48 8b 40 60	 mov	 rax, QWORD PTR [rax+96]
  00085	48 89 44 24 20	 mov	 QWORD PTR i$[rsp], rax
$LN10@list_deall:

; 349  :         while (--i >= 0) {

  0008a	48 8b 44 24 20	 mov	 rax, QWORD PTR i$[rsp]
  0008f	48 ff c8	 dec	 rax
  00092	48 89 44 24 20	 mov	 QWORD PTR i$[rsp], rax
  00097	48 83 7c 24 20
	00		 cmp	 QWORD PTR i$[rsp], 0
  0009d	7c 34		 jl	 SHORT $LN9@list_deall
$LN8@list_deall:

; 350  :             Py_XDECREF(op->ob_item[i]);

  0009f	48 8b 44 24 50	 mov	 rax, QWORD PTR op$[rsp]
  000a4	48 8b 40 70	 mov	 rax, QWORD PTR [rax+112]
  000a8	48 8b 4c 24 20	 mov	 rcx, QWORD PTR i$[rsp]
  000ad	48 83 3c c8 00	 cmp	 QWORD PTR [rax+rcx*8], 0
  000b2	74 17		 je	 SHORT $LN5@list_deall
  000b4	48 8b 44 24 50	 mov	 rax, QWORD PTR op$[rsp]
  000b9	48 8b 40 70	 mov	 rax, QWORD PTR [rax+112]
  000bd	48 8b 4c 24 20	 mov	 rcx, QWORD PTR i$[rsp]
  000c2	48 8b 0c c8	 mov	 rcx, QWORD PTR [rax+rcx*8]
  000c6	e8 00 00 00 00	 call	 _Py_DecRef
$LN5@list_deall:
  000cb	33 c0		 xor	 eax, eax
  000cd	85 c0		 test	 eax, eax
  000cf	75 ce		 jne	 SHORT $LN8@list_deall

; 351  :         }

  000d1	eb b7		 jmp	 SHORT $LN10@list_deall
$LN9@list_deall:

; 352  :         PyMem_FREE(op->ob_item);

  000d3	e8 00 00 00 00	 call	 _Py_PXCTX
  000d8	85 c0		 test	 eax, eax
  000da	74 18		 je	 SHORT $LN19@list_deall
  000dc	48 8b 44 24 50	 mov	 rax, QWORD PTR op$[rsp]
  000e1	48 8b 48 70	 mov	 rcx, QWORD PTR [rax+112]
  000e5	e8 00 00 00 00	 call	 _PxMem_Free
  000ea	c7 44 24 30 00
	00 00 00	 mov	 DWORD PTR tv129[rsp], 0
  000f2	eb 16		 jmp	 SHORT $LN20@list_deall
$LN19@list_deall:
  000f4	48 8b 44 24 50	 mov	 rax, QWORD PTR op$[rsp]
  000f9	48 8b 48 70	 mov	 rcx, QWORD PTR [rax+112]
  000fd	e8 00 00 00 00	 call	 _PyMem_DebugFree
  00102	c7 44 24 30 00
	00 00 00	 mov	 DWORD PTR tv129[rsp], 0
$LN20@list_deall:
$LN11@list_deall:

; 353  :     }
; 354  :     if (numfree < PyList_MAXFREELIST && PyList_CheckExact(op))

  0010a	83 3d 00 00 00
	00 50		 cmp	 DWORD PTR numfree, 80	; 00000050H
  00111	7d 39		 jge	 SHORT $LN4@list_deall
  00113	48 8d 05 00 00
	00 00		 lea	 rax, OFFSET FLAT:PyList_Type
  0011a	48 8b 4c 24 50	 mov	 rcx, QWORD PTR op$[rsp]
  0011f	48 39 41 58	 cmp	 QWORD PTR [rcx+88], rax
  00123	75 27		 jne	 SHORT $LN4@list_deall

; 355  :         free_list[numfree++] = op;

  00125	48 63 05 00 00
	00 00		 movsxd	 rax, DWORD PTR numfree
  0012c	48 8d 0d 00 00
	00 00		 lea	 rcx, OFFSET FLAT:free_list
  00133	48 8b 54 24 50	 mov	 rdx, QWORD PTR op$[rsp]
  00138	48 89 14 c1	 mov	 QWORD PTR [rcx+rax*8], rdx
  0013c	8b 05 00 00 00
	00		 mov	 eax, DWORD PTR numfree
  00142	ff c0		 inc	 eax
  00144	89 05 00 00 00
	00		 mov	 DWORD PTR numfree, eax

; 356  :     else

  0014a	eb 14		 jmp	 SHORT $LN3@list_deall
$LN4@list_deall:

; 357  :         Py_TYPE(op)->tp_free((PyObject *)op);

  0014c	48 8b 44 24 50	 mov	 rax, QWORD PTR op$[rsp]
  00151	48 8b 40 58	 mov	 rax, QWORD PTR [rax+88]
  00155	48 8b 4c 24 50	 mov	 rcx, QWORD PTR op$[rsp]
  0015a	ff 90 98 01 00
	00		 call	 QWORD PTR [rax+408]
$LN3@list_deall:

; 358  :     Py_TRASHCAN_SAFE_END(op)

  00160	48 8b 44 24 28	 mov	 rax, QWORD PTR _tstate$20539[rsp]
  00165	8b 80 94 00 00
	00		 mov	 eax, DWORD PTR [rax+148]
  0016b	ff c8		 dec	 eax
  0016d	48 8b 4c 24 28	 mov	 rcx, QWORD PTR _tstate$20539[rsp]
  00172	89 81 94 00 00
	00		 mov	 DWORD PTR [rcx+148], eax
  00178	48 8b 44 24 28	 mov	 rax, QWORD PTR _tstate$20539[rsp]
  0017d	48 83 b8 98 00
	00 00 00	 cmp	 QWORD PTR [rax+152], 0
  00185	74 13		 je	 SHORT $LN2@list_deall
  00187	48 8b 44 24 28	 mov	 rax, QWORD PTR _tstate$20539[rsp]
  0018c	83 b8 94 00 00
	00 00		 cmp	 DWORD PTR [rax+148], 0
  00193	7f 05		 jg	 SHORT $LN2@list_deall
  00195	e8 00 00 00 00	 call	 _PyTrash_thread_destroy_chain
$LN2@list_deall:
  0019a	eb 0a		 jmp	 SHORT $LN1@list_deall
$LN12@list_deall:
  0019c	48 8b 4c 24 50	 mov	 rcx, QWORD PTR op$[rsp]
  001a1	e8 00 00 00 00	 call	 _PyTrash_thread_deposit_object
$LN1@list_deall:
  001a6	33 c0		 xor	 eax, eax
  001a8	85 c0		 test	 eax, eax
  001aa	0f 85 88 fe ff
	ff		 jne	 $LN15@list_deall

; 359  : }

  001b0	48 83 c4 48	 add	 rsp, 72			; 00000048H
  001b4	c3		 ret	 0
list_dealloc ENDP
_TEXT	ENDS
PUBLIC	??_C@_01LBDDMOBJ@?$FN?$AA@			; `string'
PUBLIC	??_C@_0CC@LCJMBFL@?5while?5getting?5the?5repr?5of?5a?5lis@ ; `string'
PUBLIC	??_C@_09CGFMFLFL@list_repr?$AA@			; `string'
PUBLIC	??_C@_01OHGJGJJP@?$FL?$AA@			; `string'
PUBLIC	??_C@_05CLKOKHPD@?$FL?4?4?4?$FN?$AA@		; `string'
PUBLIC	??_C@_02KEGNLNML@?0?5?$AA@			; `string'
PUBLIC	??_C@_02GPECMEKF@?$FL?$FN?$AA@			; `string'
EXTRN	_PyAccu_Destroy:PROC
EXTRN	_PyAccu_Finish:PROC
EXTRN	Py_ReprLeave:PROC
EXTRN	PyObject_Repr:PROC
EXTRN	_Py_CheckRecursiveCall:PROC
EXTRN	_Py_CheckRecursionLimit:DWORD
EXTRN	_PyAccu_Accumulate:PROC
EXTRN	_PyAccu_Init:PROC
EXTRN	Py_ReprEnter:PROC
;	COMDAT pdata
pdata	SEGMENT
$pdata$list_repr DD imagerel list_repr
	DD	imagerel list_repr+949
	DD	imagerel $unwind$list_repr
pdata	ENDS
;	COMDAT xdata
xdata	SEGMENT
$unwind$list_repr DD 020c01H
	DD	013010cH
xdata	ENDS
;	COMDAT ??_C@_01LBDDMOBJ@?$FN?$AA@
CONST	SEGMENT
??_C@_01LBDDMOBJ@?$FN?$AA@ DB ']', 00H			; `string'
CONST	ENDS
;	COMDAT ??_C@_0CC@LCJMBFL@?5while?5getting?5the?5repr?5of?5a?5lis@
CONST	SEGMENT
??_C@_0CC@LCJMBFL@?5while?5getting?5the?5repr?5of?5a?5lis@ DB ' while get'
	DB	'ting the repr of a list', 00H		; `string'
CONST	ENDS
;	COMDAT ??_C@_09CGFMFLFL@list_repr?$AA@
CONST	SEGMENT
??_C@_09CGFMFLFL@list_repr?$AA@ DB 'list_repr', 00H	; `string'
CONST	ENDS
;	COMDAT ??_C@_01OHGJGJJP@?$FL?$AA@
CONST	SEGMENT
??_C@_01OHGJGJJP@?$FL?$AA@ DB '[', 00H			; `string'
CONST	ENDS
;	COMDAT ??_C@_05CLKOKHPD@?$FL?4?4?4?$FN?$AA@
CONST	SEGMENT
??_C@_05CLKOKHPD@?$FL?4?4?4?$FN?$AA@ DB '[...]', 00H	; `string'
CONST	ENDS
;	COMDAT ??_C@_02KEGNLNML@?0?5?$AA@
CONST	SEGMENT
??_C@_02KEGNLNML@?0?5?$AA@ DB ', ', 00H			; `string'
CONST	ENDS
;	COMDAT ??_C@_02GPECMEKF@?$FL?$FN?$AA@
CONST	SEGMENT
??_C@_02GPECMEKF@?$FL?$FN?$AA@ DB '[]', 00H		; `string'
; Function compile flags: /Odtp
CONST	ENDS
;	COMDAT list_repr
_TEXT	SEGMENT
i$ = 48
s$ = 56
acc$ = 64
_py_tmp$20595 = 80
_py_tmp$20617 = 88
_py_tmp$20629 = 96
tv79 = 104
tv137 = 112
tv156 = 120
tv150 = 128
v$ = 160
list_repr PROC						; COMDAT

; 363  : {

  00000	48 89 4c 24 08	 mov	 QWORD PTR [rsp+8], rcx
  00005	48 81 ec 98 00
	00 00		 sub	 rsp, 152		; 00000098H

; 364  :     Py_ssize_t i;
; 365  :     PyObject *s = NULL;

  0000c	48 c7 44 24 38
	00 00 00 00	 mov	 QWORD PTR s$[rsp], 0

; 366  :     _PyAccu acc;
; 367  :     static PyObject *sep = NULL;
; 368  : 
; 369  :     if (Py_SIZE(v) == 0) {

  00015	48 8b 84 24 a0
	00 00 00	 mov	 rax, QWORD PTR v$[rsp]
  0001d	48 83 78 60 00	 cmp	 QWORD PTR [rax+96], 0
  00022	75 11		 jne	 SHORT $LN36@list_repr

; 370  :         return PyUnicode_FromString("[]");

  00024	48 8d 0d 00 00
	00 00		 lea	 rcx, OFFSET FLAT:??_C@_02GPECMEKF@?$FL?$FN?$AA@
  0002b	e8 00 00 00 00	 call	 PyUnicode_FromString
  00030	e9 78 03 00 00	 jmp	 $LN37@list_repr
$LN36@list_repr:

; 371  :     }
; 372  : 
; 373  :     if (sep == NULL) {

  00035	48 83 3d 00 00
	00 00 00	 cmp	 QWORD PTR ?sep@?1??list_repr@@9@9, 0
  0003d	75 24		 jne	 SHORT $LN35@list_repr

; 374  :         sep = PyUnicode_FromString(", ");

  0003f	48 8d 0d 00 00
	00 00		 lea	 rcx, OFFSET FLAT:??_C@_02KEGNLNML@?0?5?$AA@
  00046	e8 00 00 00 00	 call	 PyUnicode_FromString
  0004b	48 89 05 00 00
	00 00		 mov	 QWORD PTR ?sep@?1??list_repr@@9@9, rax

; 375  :         if (sep == NULL)

  00052	48 83 3d 00 00
	00 00 00	 cmp	 QWORD PTR ?sep@?1??list_repr@@9@9, 0
  0005a	75 07		 jne	 SHORT $LN34@list_repr

; 376  :             return NULL;

  0005c	33 c0		 xor	 eax, eax
  0005e	e9 4a 03 00 00	 jmp	 $LN37@list_repr
$LN34@list_repr:
$LN35@list_repr:

; 377  :     }
; 378  : 
; 379  :     i = Py_ReprEnter((PyObject*)v);

  00063	48 8b 8c 24 a0
	00 00 00	 mov	 rcx, QWORD PTR v$[rsp]
  0006b	e8 00 00 00 00	 call	 Py_ReprEnter
  00070	48 98		 cdqe
  00072	48 89 44 24 30	 mov	 QWORD PTR i$[rsp], rax

; 380  :     if (i != 0) {

  00077	48 83 7c 24 30
	00		 cmp	 QWORD PTR i$[rsp], 0
  0007d	74 2e		 je	 SHORT $LN33@list_repr

; 381  :         return i > 0 ? PyUnicode_FromString("[...]") : NULL;

  0007f	48 83 7c 24 30
	00		 cmp	 QWORD PTR i$[rsp], 0
  00085	7e 13		 jle	 SHORT $LN39@list_repr
  00087	48 8d 0d 00 00
	00 00		 lea	 rcx, OFFSET FLAT:??_C@_05CLKOKHPD@?$FL?4?4?4?$FN?$AA@
  0008e	e8 00 00 00 00	 call	 PyUnicode_FromString
  00093	48 89 44 24 68	 mov	 QWORD PTR tv79[rsp], rax
  00098	eb 09		 jmp	 SHORT $LN40@list_repr
$LN39@list_repr:
  0009a	48 c7 44 24 68
	00 00 00 00	 mov	 QWORD PTR tv79[rsp], 0
$LN40@list_repr:
  000a3	48 8b 44 24 68	 mov	 rax, QWORD PTR tv79[rsp]
  000a8	e9 00 03 00 00	 jmp	 $LN37@list_repr
$LN33@list_repr:

; 382  :     }
; 383  : 
; 384  :     if (_PyAccu_Init(&acc))

  000ad	48 8d 4c 24 40	 lea	 rcx, QWORD PTR acc$[rsp]
  000b2	e8 00 00 00 00	 call	 _PyAccu_Init
  000b7	85 c0		 test	 eax, eax
  000b9	74 05		 je	 SHORT $LN32@list_repr

; 385  :         goto error;

  000bb	e9 bc 02 00 00	 jmp	 $error$20585
$LN32@list_repr:

; 386  : 
; 387  :     s = PyUnicode_FromString("[");

  000c0	48 8d 0d 00 00
	00 00		 lea	 rcx, OFFSET FLAT:??_C@_01OHGJGJJP@?$FL?$AA@
  000c7	e8 00 00 00 00	 call	 PyUnicode_FromString
  000cc	48 89 44 24 38	 mov	 QWORD PTR s$[rsp], rax

; 388  :     if (s == NULL || _PyAccu_Accumulate(&acc, s))

  000d1	48 83 7c 24 38
	00		 cmp	 QWORD PTR s$[rsp], 0
  000d7	74 13		 je	 SHORT $LN30@list_repr
  000d9	48 8b 54 24 38	 mov	 rdx, QWORD PTR s$[rsp]
  000de	48 8d 4c 24 40	 lea	 rcx, QWORD PTR acc$[rsp]
  000e3	e8 00 00 00 00	 call	 _PyAccu_Accumulate
  000e8	85 c0		 test	 eax, eax
  000ea	74 05		 je	 SHORT $LN31@list_repr
$LN30@list_repr:

; 389  :         goto error;

  000ec	e9 8b 02 00 00	 jmp	 $error$20585
$LN31@list_repr:
$LN29@list_repr:

; 390  :     Py_CLEAR(s);

  000f1	48 83 7c 24 38
	00		 cmp	 QWORD PTR s$[rsp], 0
  000f7	74 47		 je	 SHORT $LN26@list_repr
  000f9	c7 44 24 20 10
	00 00 00	 mov	 DWORD PTR [rsp+32], 16
  00101	4c 8b 4c 24 38	 mov	 r9, QWORD PTR s$[rsp]
  00106	41 b8 86 01 00
	00		 mov	 r8d, 390		; 00000186H
  0010c	48 8d 15 00 00
	00 00		 lea	 rdx, OFFSET FLAT:??_C@_0BI@EJIDBIMM@?4?4?2Objects?2listobject?4c?$AA@
  00113	48 8d 0d 00 00
	00 00		 lea	 rcx, OFFSET FLAT:??_C@_09CGFMFLFL@list_repr?$AA@
  0011a	e8 00 00 00 00	 call	 _PyParallel_Guard
  0011f	85 c0		 test	 eax, eax
  00121	75 1d		 jne	 SHORT $LN26@list_repr
  00123	48 8b 44 24 38	 mov	 rax, QWORD PTR s$[rsp]
  00128	48 89 44 24 50	 mov	 QWORD PTR _py_tmp$20595[rsp], rax
  0012d	48 c7 44 24 38
	00 00 00 00	 mov	 QWORD PTR s$[rsp], 0
  00136	48 8b 4c 24 50	 mov	 rcx, QWORD PTR _py_tmp$20595[rsp]
  0013b	e8 00 00 00 00	 call	 _Py_DecRef
$LN26@list_repr:
  00140	33 c0		 xor	 eax, eax
  00142	85 c0		 test	 eax, eax
  00144	75 ab		 jne	 SHORT $LN29@list_repr

; 391  : 
; 392  :     /* Do repr() on each element.  Note that this may mutate the list,
; 393  :        so must refetch the list size on each iteration. */
; 394  :     for (i = 0; i < Py_SIZE(v); ++i) {

  00146	48 c7 44 24 30
	00 00 00 00	 mov	 QWORD PTR i$[rsp], 0
  0014f	eb 0d		 jmp	 SHORT $LN25@list_repr
$LN24@list_repr:
  00151	48 8b 44 24 30	 mov	 rax, QWORD PTR i$[rsp]
  00156	48 ff c0	 inc	 rax
  00159	48 89 44 24 30	 mov	 QWORD PTR i$[rsp], rax
$LN25@list_repr:
  0015e	48 8b 84 24 a0
	00 00 00	 mov	 rax, QWORD PTR v$[rsp]
  00166	48 8b 40 60	 mov	 rax, QWORD PTR [rax+96]
  0016a	48 39 44 24 30	 cmp	 QWORD PTR i$[rsp], rax
  0016f	0f 8d 6b 01 00
	00		 jge	 $LN23@list_repr

; 395  :         if (Py_EnterRecursiveCall(" while getting the repr of a list"))

  00175	e8 00 00 00 00	 call	 PyThreadState_Get
  0017a	48 83 c0 18	 add	 rax, 24
  0017e	48 89 44 24 70	 mov	 QWORD PTR tv137[rsp], rax
  00183	48 8b 44 24 70	 mov	 rax, QWORD PTR tv137[rsp]
  00188	8b 00		 mov	 eax, DWORD PTR [rax]
  0018a	ff c0		 inc	 eax
  0018c	48 8b 4c 24 70	 mov	 rcx, QWORD PTR tv137[rsp]
  00191	89 01		 mov	 DWORD PTR [rcx], eax
  00193	48 8b 44 24 70	 mov	 rax, QWORD PTR tv137[rsp]
  00198	8b 0d 00 00 00
	00		 mov	 ecx, DWORD PTR _Py_CheckRecursionLimit
  0019e	39 08		 cmp	 DWORD PTR [rax], ecx
  001a0	7e 15		 jle	 SHORT $LN22@list_repr
  001a2	48 8d 0d 00 00
	00 00		 lea	 rcx, OFFSET FLAT:??_C@_0CC@LCJMBFL@?5while?5getting?5the?5repr?5of?5a?5lis@
  001a9	e8 00 00 00 00	 call	 _Py_CheckRecursiveCall
  001ae	85 c0		 test	 eax, eax
  001b0	74 05		 je	 SHORT $LN22@list_repr

; 396  :             goto error;

  001b2	e9 c5 01 00 00	 jmp	 $error$20585
$LN22@list_repr:

; 397  :         s = PyObject_Repr(v->ob_item[i]);

  001b7	48 8b 84 24 a0
	00 00 00	 mov	 rax, QWORD PTR v$[rsp]
  001bf	48 8b 40 70	 mov	 rax, QWORD PTR [rax+112]
  001c3	48 8b 4c 24 30	 mov	 rcx, QWORD PTR i$[rsp]
  001c8	48 8b 0c c8	 mov	 rcx, QWORD PTR [rax+rcx*8]
  001cc	e8 00 00 00 00	 call	 PyObject_Repr
  001d1	48 89 44 24 38	 mov	 QWORD PTR s$[rsp], rax
$LN21@list_repr:

; 398  :         Py_LeaveRecursiveCall();

  001d6	83 3d 00 00 00
	00 64		 cmp	 DWORD PTR _Py_CheckRecursionLimit, 100 ; 00000064H
  001dd	7e 0f		 jle	 SHORT $LN41@list_repr
  001df	8b 05 00 00 00
	00		 mov	 eax, DWORD PTR _Py_CheckRecursionLimit
  001e5	83 e8 32	 sub	 eax, 50			; 00000032H
  001e8	89 44 24 78	 mov	 DWORD PTR tv156[rsp], eax
  001ec	eb 10		 jmp	 SHORT $LN42@list_repr
$LN41@list_repr:
  001ee	8b 05 00 00 00
	00		 mov	 eax, DWORD PTR _Py_CheckRecursionLimit
  001f4	c1 f8 02	 sar	 eax, 2
  001f7	6b c0 03	 imul	 eax, 3
  001fa	89 44 24 78	 mov	 DWORD PTR tv156[rsp], eax
$LN42@list_repr:
  001fe	e8 00 00 00 00	 call	 PyThreadState_Get
  00203	48 83 c0 18	 add	 rax, 24
  00207	48 89 84 24 80
	00 00 00	 mov	 QWORD PTR tv150[rsp], rax
  0020f	48 8b 84 24 80
	00 00 00	 mov	 rax, QWORD PTR tv150[rsp]
  00217	8b 00		 mov	 eax, DWORD PTR [rax]
  00219	ff c8		 dec	 eax
  0021b	48 8b 8c 24 80
	00 00 00	 mov	 rcx, QWORD PTR tv150[rsp]
  00223	89 01		 mov	 DWORD PTR [rcx], eax
  00225	48 8b 84 24 80
	00 00 00	 mov	 rax, QWORD PTR tv150[rsp]
  0022d	8b 4c 24 78	 mov	 ecx, DWORD PTR tv156[rsp]
  00231	39 08		 cmp	 DWORD PTR [rax], ecx
  00233	7d 09		 jge	 SHORT $LN18@list_repr
  00235	e8 00 00 00 00	 call	 PyThreadState_Get
  0023a	c6 40 1c 00	 mov	 BYTE PTR [rax+28], 0
$LN18@list_repr:
  0023e	33 c0		 xor	 eax, eax
  00240	85 c0		 test	 eax, eax
  00242	75 92		 jne	 SHORT $LN21@list_repr

; 399  :         if (i > 0 && _PyAccu_Accumulate(&acc, sep))

  00244	48 83 7c 24 30
	00		 cmp	 QWORD PTR i$[rsp], 0
  0024a	7e 1a		 jle	 SHORT $LN17@list_repr
  0024c	48 8b 15 00 00
	00 00		 mov	 rdx, QWORD PTR ?sep@?1??list_repr@@9@9
  00253	48 8d 4c 24 40	 lea	 rcx, QWORD PTR acc$[rsp]
  00258	e8 00 00 00 00	 call	 _PyAccu_Accumulate
  0025d	85 c0		 test	 eax, eax
  0025f	74 05		 je	 SHORT $LN17@list_repr

; 400  :             goto error;

  00261	e9 16 01 00 00	 jmp	 $error$20585
$LN17@list_repr:

; 401  :         if (s == NULL || _PyAccu_Accumulate(&acc, s))

  00266	48 83 7c 24 38
	00		 cmp	 QWORD PTR s$[rsp], 0
  0026c	74 13		 je	 SHORT $LN15@list_repr
  0026e	48 8b 54 24 38	 mov	 rdx, QWORD PTR s$[rsp]
  00273	48 8d 4c 24 40	 lea	 rcx, QWORD PTR acc$[rsp]
  00278	e8 00 00 00 00	 call	 _PyAccu_Accumulate
  0027d	85 c0		 test	 eax, eax
  0027f	74 05		 je	 SHORT $LN16@list_repr
$LN15@list_repr:

; 402  :             goto error;

  00281	e9 f6 00 00 00	 jmp	 $error$20585
$LN16@list_repr:
$LN14@list_repr:

; 403  :         Py_CLEAR(s);

  00286	48 83 7c 24 38
	00		 cmp	 QWORD PTR s$[rsp], 0
  0028c	74 47		 je	 SHORT $LN11@list_repr
  0028e	c7 44 24 20 10
	00 00 00	 mov	 DWORD PTR [rsp+32], 16
  00296	4c 8b 4c 24 38	 mov	 r9, QWORD PTR s$[rsp]
  0029b	41 b8 93 01 00
	00		 mov	 r8d, 403		; 00000193H
  002a1	48 8d 15 00 00
	00 00		 lea	 rdx, OFFSET FLAT:??_C@_0BI@EJIDBIMM@?4?4?2Objects?2listobject?4c?$AA@
  002a8	48 8d 0d 00 00
	00 00		 lea	 rcx, OFFSET FLAT:??_C@_09CGFMFLFL@list_repr?$AA@
  002af	e8 00 00 00 00	 call	 _PyParallel_Guard
  002b4	85 c0		 test	 eax, eax
  002b6	75 1d		 jne	 SHORT $LN11@list_repr
  002b8	48 8b 44 24 38	 mov	 rax, QWORD PTR s$[rsp]
  002bd	48 89 44 24 58	 mov	 QWORD PTR _py_tmp$20617[rsp], rax
  002c2	48 c7 44 24 38
	00 00 00 00	 mov	 QWORD PTR s$[rsp], 0
  002cb	48 8b 4c 24 58	 mov	 rcx, QWORD PTR _py_tmp$20617[rsp]
  002d0	e8 00 00 00 00	 call	 _Py_DecRef
$LN11@list_repr:
  002d5	33 c0		 xor	 eax, eax
  002d7	85 c0		 test	 eax, eax
  002d9	75 ab		 jne	 SHORT $LN14@list_repr

; 404  :     }

  002db	e9 71 fe ff ff	 jmp	 $LN24@list_repr
$LN23@list_repr:

; 405  :     s = PyUnicode_FromString("]");

  002e0	48 8d 0d 00 00
	00 00		 lea	 rcx, OFFSET FLAT:??_C@_01LBDDMOBJ@?$FN?$AA@
  002e7	e8 00 00 00 00	 call	 PyUnicode_FromString
  002ec	48 89 44 24 38	 mov	 QWORD PTR s$[rsp], rax

; 406  :     if (s == NULL || _PyAccu_Accumulate(&acc, s))

  002f1	48 83 7c 24 38
	00		 cmp	 QWORD PTR s$[rsp], 0
  002f7	74 13		 je	 SHORT $LN9@list_repr
  002f9	48 8b 54 24 38	 mov	 rdx, QWORD PTR s$[rsp]
  002fe	48 8d 4c 24 40	 lea	 rcx, QWORD PTR acc$[rsp]
  00303	e8 00 00 00 00	 call	 _PyAccu_Accumulate
  00308	85 c0		 test	 eax, eax
  0030a	74 02		 je	 SHORT $LN10@list_repr
$LN9@list_repr:

; 407  :         goto error;

  0030c	eb 6e		 jmp	 SHORT $error$20585
$LN10@list_repr:
$LN8@list_repr:

; 408  :     Py_CLEAR(s);

  0030e	48 83 7c 24 38
	00		 cmp	 QWORD PTR s$[rsp], 0
  00314	74 47		 je	 SHORT $LN5@list_repr
  00316	c7 44 24 20 10
	00 00 00	 mov	 DWORD PTR [rsp+32], 16
  0031e	4c 8b 4c 24 38	 mov	 r9, QWORD PTR s$[rsp]
  00323	41 b8 98 01 00
	00		 mov	 r8d, 408		; 00000198H
  00329	48 8d 15 00 00
	00 00		 lea	 rdx, OFFSET FLAT:??_C@_0BI@EJIDBIMM@?4?4?2Objects?2listobject?4c?$AA@
  00330	48 8d 0d 00 00
	00 00		 lea	 rcx, OFFSET FLAT:??_C@_09CGFMFLFL@list_repr?$AA@
  00337	e8 00 00 00 00	 call	 _PyParallel_Guard
  0033c	85 c0		 test	 eax, eax
  0033e	75 1d		 jne	 SHORT $LN5@list_repr
  00340	48 8b 44 24 38	 mov	 rax, QWORD PTR s$[rsp]
  00345	48 89 44 24 60	 mov	 QWORD PTR _py_tmp$20629[rsp], rax
  0034a	48 c7 44 24 38
	00 00 00 00	 mov	 QWORD PTR s$[rsp], 0
  00353	48 8b 4c 24 60	 mov	 rcx, QWORD PTR _py_tmp$20629[rsp]
  00358	e8 00 00 00 00	 call	 _Py_DecRef
$LN5@list_repr:
  0035d	33 c0		 xor	 eax, eax
  0035f	85 c0		 test	 eax, eax
  00361	75 ab		 jne	 SHORT $LN8@list_repr

; 409  : 
; 410  :     Py_ReprLeave((PyObject *)v);

  00363	48 8b 8c 24 a0
	00 00 00	 mov	 rcx, QWORD PTR v$[rsp]
  0036b	e8 00 00 00 00	 call	 Py_ReprLeave

; 411  :     return _PyAccu_Finish(&acc);

  00370	48 8d 4c 24 40	 lea	 rcx, QWORD PTR acc$[rsp]
  00375	e8 00 00 00 00	 call	 _PyAccu_Finish
  0037a	eb 31		 jmp	 SHORT $LN37@list_repr
$error$20585:

; 412  : 
; 413  : error:
; 414  :     _PyAccu_Destroy(&acc);

  0037c	48 8d 4c 24 40	 lea	 rcx, QWORD PTR acc$[rsp]
  00381	e8 00 00 00 00	 call	 _PyAccu_Destroy
$LN4@list_repr:

; 415  :     Py_XDECREF(s);

  00386	48 83 7c 24 38
	00		 cmp	 QWORD PTR s$[rsp], 0
  0038c	74 0a		 je	 SHORT $LN1@list_repr
  0038e	48 8b 4c 24 38	 mov	 rcx, QWORD PTR s$[rsp]
  00393	e8 00 00 00 00	 call	 _Py_DecRef
$LN1@list_repr:
  00398	33 c0		 xor	 eax, eax
  0039a	85 c0		 test	 eax, eax
  0039c	75 e8		 jne	 SHORT $LN4@list_repr

; 416  :     Py_ReprLeave((PyObject *)v);

  0039e	48 8b 8c 24 a0
	00 00 00	 mov	 rcx, QWORD PTR v$[rsp]
  003a6	e8 00 00 00 00	 call	 Py_ReprLeave

; 417  :     return NULL;

  003ab	33 c0		 xor	 eax, eax
$LN37@list_repr:

; 418  : }

  003ad	48 81 c4 98 00
	00 00		 add	 rsp, 152		; 00000098H
  003b4	c3		 ret	 0
list_repr ENDP
; Function compile flags: /Odtp
_TEXT	ENDS
;	COMDAT list_length
_TEXT	SEGMENT
a$ = 8
list_length PROC					; COMDAT

; 422  : {

  00000	48 89 4c 24 08	 mov	 QWORD PTR [rsp+8], rcx

; 423  :     return Py_SIZE(a);

  00005	48 8b 44 24 08	 mov	 rax, QWORD PTR a$[rsp]
  0000a	48 8b 40 60	 mov	 rax, QWORD PTR [rax+96]

; 424  : }

  0000e	c3		 ret	 0
list_length ENDP
_TEXT	ENDS
EXTRN	PyObject_RichCompareBool:PROC
;	COMDAT pdata
pdata	SEGMENT
$pdata$list_contains DD imagerel list_contains
	DD	imagerel list_contains+118
	DD	imagerel $unwind$list_contains
pdata	ENDS
;	COMDAT xdata
xdata	SEGMENT
$unwind$list_contains DD 010e01H
	DD	0620eH
; Function compile flags: /Odtp
xdata	ENDS
;	COMDAT list_contains
_TEXT	SEGMENT
i$ = 32
cmp$ = 40
a$ = 64
el$ = 72
list_contains PROC					; COMDAT

; 428  : {

  00000	48 89 54 24 10	 mov	 QWORD PTR [rsp+16], rdx
  00005	48 89 4c 24 08	 mov	 QWORD PTR [rsp+8], rcx
  0000a	48 83 ec 38	 sub	 rsp, 56			; 00000038H

; 429  :     Py_ssize_t i;
; 430  :     int cmp;
; 431  : 
; 432  :     for (i = 0, cmp = 0 ; cmp == 0 && i < Py_SIZE(a); ++i)

  0000e	48 c7 44 24 20
	00 00 00 00	 mov	 QWORD PTR i$[rsp], 0
  00017	c7 44 24 28 00
	00 00 00	 mov	 DWORD PTR cmp$[rsp], 0
  0001f	eb 0d		 jmp	 SHORT $LN3@list_conta
$LN2@list_conta:
  00021	48 8b 44 24 20	 mov	 rax, QWORD PTR i$[rsp]
  00026	48 ff c0	 inc	 rax
  00029	48 89 44 24 20	 mov	 QWORD PTR i$[rsp], rax
$LN3@list_conta:
  0002e	83 7c 24 28 00	 cmp	 DWORD PTR cmp$[rsp], 0
  00033	75 38		 jne	 SHORT $LN1@list_conta
  00035	48 8b 44 24 40	 mov	 rax, QWORD PTR a$[rsp]
  0003a	48 8b 40 60	 mov	 rax, QWORD PTR [rax+96]
  0003e	48 39 44 24 20	 cmp	 QWORD PTR i$[rsp], rax
  00043	7d 28		 jge	 SHORT $LN1@list_conta

; 433  :         cmp = PyObject_RichCompareBool(el, PyList_GET_ITEM(a, i),
; 434  :                                            Py_EQ);

  00045	48 8b 44 24 40	 mov	 rax, QWORD PTR a$[rsp]
  0004a	48 8b 40 70	 mov	 rax, QWORD PTR [rax+112]
  0004e	41 b8 02 00 00
	00		 mov	 r8d, 2
  00054	48 8b 4c 24 20	 mov	 rcx, QWORD PTR i$[rsp]
  00059	48 8b 14 c8	 mov	 rdx, QWORD PTR [rax+rcx*8]
  0005d	48 8b 4c 24 48	 mov	 rcx, QWORD PTR el$[rsp]
  00062	e8 00 00 00 00	 call	 PyObject_RichCompareBool
  00067	89 44 24 28	 mov	 DWORD PTR cmp$[rsp], eax
  0006b	eb b4		 jmp	 SHORT $LN2@list_conta
$LN1@list_conta:

; 435  :     return cmp;

  0006d	8b 44 24 28	 mov	 eax, DWORD PTR cmp$[rsp]

; 436  : }

  00071	48 83 c4 38	 add	 rsp, 56			; 00000038H
  00075	c3		 ret	 0
list_contains ENDP
_TEXT	ENDS
;	COMDAT pdata
pdata	SEGMENT
$pdata$list_item DD imagerel list_item
	DD	imagerel list_item+150
	DD	imagerel $unwind$list_item
pdata	ENDS
;	COMDAT xdata
xdata	SEGMENT
$unwind$list_item DD 010e01H
	DD	0420eH
; Function compile flags: /Odtp
xdata	ENDS
;	COMDAT list_item
_TEXT	SEGMENT
a$ = 48
i$ = 56
list_item PROC						; COMDAT

; 440  : {

  00000	48 89 54 24 10	 mov	 QWORD PTR [rsp+16], rdx
  00005	48 89 4c 24 08	 mov	 QWORD PTR [rsp+8], rcx
  0000a	48 83 ec 28	 sub	 rsp, 40			; 00000028H

; 441  :     if (i < 0 || i >= Py_SIZE(a)) {

  0000e	48 83 7c 24 38
	00		 cmp	 QWORD PTR i$[rsp], 0
  00014	7c 10		 jl	 SHORT $LN3@list_item
  00016	48 8b 44 24 30	 mov	 rax, QWORD PTR a$[rsp]
  0001b	48 8b 40 60	 mov	 rax, QWORD PTR [rax+96]
  0001f	48 39 44 24 38	 cmp	 QWORD PTR i$[rsp], rax
  00024	7c 42		 jl	 SHORT $LN4@list_item
$LN3@list_item:

; 442  :         if (indexerr == NULL) {

  00026	48 83 3d 00 00
	00 00 00	 cmp	 QWORD PTR indexerr, 0
  0002e	75 21		 jne	 SHORT $LN2@list_item

; 443  :             indexerr = PyUnicode_FromString(
; 444  :                 "list index out of range");

  00030	48 8d 0d 00 00
	00 00		 lea	 rcx, OFFSET FLAT:??_C@_0BI@PPFNPBPL@list?5index?5out?5of?5range?$AA@
  00037	e8 00 00 00 00	 call	 PyUnicode_FromString
  0003c	48 89 05 00 00
	00 00		 mov	 QWORD PTR indexerr, rax

; 445  :             if (indexerr == NULL)

  00043	48 83 3d 00 00
	00 00 00	 cmp	 QWORD PTR indexerr, 0
  0004b	75 04		 jne	 SHORT $LN1@list_item

; 446  :                 return NULL;

  0004d	33 c0		 xor	 eax, eax
  0004f	eb 40		 jmp	 SHORT $LN5@list_item
$LN1@list_item:
$LN2@list_item:

; 447  :         }
; 448  :         PyErr_SetObject(PyExc_IndexError, indexerr);

  00051	48 8b 15 00 00
	00 00		 mov	 rdx, QWORD PTR indexerr
  00058	48 8b 0d 00 00
	00 00		 mov	 rcx, QWORD PTR PyExc_IndexError
  0005f	e8 00 00 00 00	 call	 PyErr_SetObject

; 449  :         return NULL;

  00064	33 c0		 xor	 eax, eax
  00066	eb 29		 jmp	 SHORT $LN5@list_item
$LN4@list_item:

; 450  :     }
; 451  :     Py_INCREF(a->ob_item[i]);

  00068	48 8b 44 24 30	 mov	 rax, QWORD PTR a$[rsp]
  0006d	48 8b 40 70	 mov	 rax, QWORD PTR [rax+112]
  00071	48 8b 4c 24 38	 mov	 rcx, QWORD PTR i$[rsp]
  00076	48 8b 0c c8	 mov	 rcx, QWORD PTR [rax+rcx*8]
  0007a	e8 00 00 00 00	 call	 _Py_IncRef

; 452  :     return a->ob_item[i];

  0007f	48 8b 44 24 30	 mov	 rax, QWORD PTR a$[rsp]
  00084	48 8b 40 70	 mov	 rax, QWORD PTR [rax+112]
  00088	48 8b 4c 24 38	 mov	 rcx, QWORD PTR i$[rsp]
  0008d	48 8b 04 c8	 mov	 rax, QWORD PTR [rax+rcx*8]
$LN5@list_item:

; 453  : }

  00091	48 83 c4 28	 add	 rsp, 40			; 00000028H
  00095	c3		 ret	 0
list_item ENDP
_TEXT	ENDS
PUBLIC	PyList_GetSlice
;	COMDAT pdata
pdata	SEGMENT
$pdata$PyList_GetSlice DD imagerel $LN4
	DD	imagerel $LN4+89
	DD	imagerel $unwind$PyList_GetSlice
pdata	ENDS
;	COMDAT xdata
xdata	SEGMENT
$unwind$PyList_GetSlice DD 011301H
	DD	04213H
; Function compile flags: /Odtp
xdata	ENDS
;	COMDAT PyList_GetSlice
_TEXT	SEGMENT
a$ = 48
ilow$ = 56
ihigh$ = 64
PyList_GetSlice PROC					; COMDAT

; 486  : {

$LN4:
  00000	4c 89 44 24 18	 mov	 QWORD PTR [rsp+24], r8
  00005	48 89 54 24 10	 mov	 QWORD PTR [rsp+16], rdx
  0000a	48 89 4c 24 08	 mov	 QWORD PTR [rsp+8], rcx
  0000f	48 83 ec 28	 sub	 rsp, 40			; 00000028H

; 487  :     if (!PyList_Check(a)) {

  00013	48 8b 44 24 30	 mov	 rax, QWORD PTR a$[rsp]
  00018	48 8b 40 58	 mov	 rax, QWORD PTR [rax+88]
  0001c	8b 80 00 01 00
	00		 mov	 eax, DWORD PTR [rax+256]
  00022	25 00 00 00 02	 and	 eax, 33554432		; 02000000H
  00027	85 c0		 test	 eax, eax
  00029	75 15		 jne	 SHORT $LN1@PyList_Get@2

; 488  :         PyErr_BadInternalCall();

  0002b	ba e8 01 00 00	 mov	 edx, 488		; 000001e8H
  00030	48 8d 0d 00 00
	00 00		 lea	 rcx, OFFSET FLAT:??_C@_0BI@EJIDBIMM@?4?4?2Objects?2listobject?4c?$AA@
  00037	e8 00 00 00 00	 call	 _PyErr_BadInternalCall

; 489  :         return NULL;

  0003c	33 c0		 xor	 eax, eax
  0003e	eb 14		 jmp	 SHORT $LN2@PyList_Get@2
$LN1@PyList_Get@2:

; 490  :     }
; 491  :     return list_slice((PyListObject *)a, ilow, ihigh);

  00040	4c 8b 44 24 40	 mov	 r8, QWORD PTR ihigh$[rsp]
  00045	48 8b 54 24 38	 mov	 rdx, QWORD PTR ilow$[rsp]
  0004a	48 8b 4c 24 30	 mov	 rcx, QWORD PTR a$[rsp]
  0004f	e8 00 00 00 00	 call	 list_slice
$LN2@PyList_Get@2:

; 492  : }

  00054	48 83 c4 28	 add	 rsp, 40			; 00000028H
  00058	c3		 ret	 0
PyList_GetSlice ENDP
_TEXT	ENDS
;	COMDAT pdata
pdata	SEGMENT
$pdata$list_slice DD imagerel list_slice
	DD	imagerel list_slice+306
	DD	imagerel $unwind$list_slice
pdata	ENDS
;	COMDAT xdata
xdata	SEGMENT
$unwind$list_slice DD 011301H
	DD	0a213H
; Function compile flags: /Odtp
xdata	ENDS
;	COMDAT list_slice
_TEXT	SEGMENT
i$ = 32
dest$ = 40
len$ = 48
src$ = 56
np$ = 64
v$20705 = 72
a$ = 96
ilow$ = 104
ihigh$ = 112
list_slice PROC						; COMDAT

; 457  : {

  00000	4c 89 44 24 18	 mov	 QWORD PTR [rsp+24], r8
  00005	48 89 54 24 10	 mov	 QWORD PTR [rsp+16], rdx
  0000a	48 89 4c 24 08	 mov	 QWORD PTR [rsp+8], rcx
  0000f	48 83 ec 58	 sub	 rsp, 88			; 00000058H

; 458  :     PyListObject *np;
; 459  :     PyObject **src, **dest;
; 460  :     Py_ssize_t i, len;
; 461  :     if (ilow < 0)

  00013	48 83 7c 24 68
	00		 cmp	 QWORD PTR ilow$[rsp], 0
  00019	7d 0b		 jge	 SHORT $LN10@list_slice

; 462  :         ilow = 0;

  0001b	48 c7 44 24 68
	00 00 00 00	 mov	 QWORD PTR ilow$[rsp], 0
  00024	eb 1e		 jmp	 SHORT $LN9@list_slice
$LN10@list_slice:

; 463  :     else if (ilow > Py_SIZE(a))

  00026	48 8b 44 24 60	 mov	 rax, QWORD PTR a$[rsp]
  0002b	48 8b 40 60	 mov	 rax, QWORD PTR [rax+96]
  0002f	48 39 44 24 68	 cmp	 QWORD PTR ilow$[rsp], rax
  00034	7e 0e		 jle	 SHORT $LN8@list_slice

; 464  :         ilow = Py_SIZE(a);

  00036	48 8b 44 24 60	 mov	 rax, QWORD PTR a$[rsp]
  0003b	48 8b 40 60	 mov	 rax, QWORD PTR [rax+96]
  0003f	48 89 44 24 68	 mov	 QWORD PTR ilow$[rsp], rax
$LN8@list_slice:
$LN9@list_slice:

; 465  :     if (ihigh < ilow)

  00044	48 8b 44 24 68	 mov	 rax, QWORD PTR ilow$[rsp]
  00049	48 39 44 24 70	 cmp	 QWORD PTR ihigh$[rsp], rax
  0004e	7d 0c		 jge	 SHORT $LN7@list_slice

; 466  :         ihigh = ilow;

  00050	48 8b 44 24 68	 mov	 rax, QWORD PTR ilow$[rsp]
  00055	48 89 44 24 70	 mov	 QWORD PTR ihigh$[rsp], rax
  0005a	eb 1e		 jmp	 SHORT $LN6@list_slice
$LN7@list_slice:

; 467  :     else if (ihigh > Py_SIZE(a))

  0005c	48 8b 44 24 60	 mov	 rax, QWORD PTR a$[rsp]
  00061	48 8b 40 60	 mov	 rax, QWORD PTR [rax+96]
  00065	48 39 44 24 70	 cmp	 QWORD PTR ihigh$[rsp], rax
  0006a	7e 0e		 jle	 SHORT $LN5@list_slice

; 468  :         ihigh = Py_SIZE(a);

  0006c	48 8b 44 24 60	 mov	 rax, QWORD PTR a$[rsp]
  00071	48 8b 40 60	 mov	 rax, QWORD PTR [rax+96]
  00075	48 89 44 24 70	 mov	 QWORD PTR ihigh$[rsp], rax
$LN5@list_slice:
$LN6@list_slice:

; 469  :     len = ihigh - ilow;

  0007a	48 8b 44 24 68	 mov	 rax, QWORD PTR ilow$[rsp]
  0007f	48 8b 4c 24 70	 mov	 rcx, QWORD PTR ihigh$[rsp]
  00084	48 2b c8	 sub	 rcx, rax
  00087	48 8b c1	 mov	 rax, rcx
  0008a	48 89 44 24 30	 mov	 QWORD PTR len$[rsp], rax

; 470  :     np = (PyListObject *) PyList_New(len);

  0008f	48 8b 4c 24 30	 mov	 rcx, QWORD PTR len$[rsp]
  00094	e8 00 00 00 00	 call	 PyList_New
  00099	48 89 44 24 40	 mov	 QWORD PTR np$[rsp], rax

; 471  :     if (np == NULL)

  0009e	48 83 7c 24 40
	00		 cmp	 QWORD PTR np$[rsp], 0
  000a4	75 07		 jne	 SHORT $LN4@list_slice

; 472  :         return NULL;

  000a6	33 c0		 xor	 eax, eax
  000a8	e9 80 00 00 00	 jmp	 $LN11@list_slice
$LN4@list_slice:

; 473  : 
; 474  :     src = a->ob_item + ilow;

  000ad	48 8b 44 24 60	 mov	 rax, QWORD PTR a$[rsp]
  000b2	48 8b 40 70	 mov	 rax, QWORD PTR [rax+112]
  000b6	48 8b 4c 24 68	 mov	 rcx, QWORD PTR ilow$[rsp]
  000bb	48 8d 04 c8	 lea	 rax, QWORD PTR [rax+rcx*8]
  000bf	48 89 44 24 38	 mov	 QWORD PTR src$[rsp], rax

; 475  :     dest = np->ob_item;

  000c4	48 8b 44 24 40	 mov	 rax, QWORD PTR np$[rsp]
  000c9	48 8b 40 70	 mov	 rax, QWORD PTR [rax+112]
  000cd	48 89 44 24 28	 mov	 QWORD PTR dest$[rsp], rax

; 476  :     for (i = 0; i < len; i++) {

  000d2	48 c7 44 24 20
	00 00 00 00	 mov	 QWORD PTR i$[rsp], 0
  000db	eb 0d		 jmp	 SHORT $LN3@list_slice
$LN2@list_slice:
  000dd	48 8b 44 24 20	 mov	 rax, QWORD PTR i$[rsp]
  000e2	48 ff c0	 inc	 rax
  000e5	48 89 44 24 20	 mov	 QWORD PTR i$[rsp], rax
$LN3@list_slice:
  000ea	48 8b 44 24 30	 mov	 rax, QWORD PTR len$[rsp]
  000ef	48 39 44 24 20	 cmp	 QWORD PTR i$[rsp], rax
  000f4	7d 32		 jge	 SHORT $LN1@list_slice

; 477  :         PyObject *v = src[i];

  000f6	48 8b 44 24 38	 mov	 rax, QWORD PTR src$[rsp]
  000fb	48 8b 4c 24 20	 mov	 rcx, QWORD PTR i$[rsp]
  00100	48 8b 04 c8	 mov	 rax, QWORD PTR [rax+rcx*8]
  00104	48 89 44 24 48	 mov	 QWORD PTR v$20705[rsp], rax

; 478  :         Py_INCREF(v);

  00109	48 8b 4c 24 48	 mov	 rcx, QWORD PTR v$20705[rsp]
  0010e	e8 00 00 00 00	 call	 _Py_IncRef

; 479  :         dest[i] = v;

  00113	48 8b 44 24 28	 mov	 rax, QWORD PTR dest$[rsp]
  00118	48 8b 4c 24 20	 mov	 rcx, QWORD PTR i$[rsp]
  0011d	48 8b 54 24 48	 mov	 rdx, QWORD PTR v$20705[rsp]
  00122	48 89 14 c8	 mov	 QWORD PTR [rax+rcx*8], rdx

; 480  :     }

  00126	eb b5		 jmp	 SHORT $LN2@list_slice
$LN1@list_slice:

; 481  :     return (PyObject *)np;

  00128	48 8b 44 24 40	 mov	 rax, QWORD PTR np$[rsp]
$LN11@list_slice:

; 482  : }

  0012d	48 83 c4 58	 add	 rsp, 88			; 00000058H
  00131	c3		 ret	 0
list_slice ENDP
_TEXT	ENDS
PUBLIC	??_C@_0DB@BIAFAIAC@can?5only?5concatenate?5list?5?$CInot?5?$CC@ ; `string'
EXTRN	PyErr_Format:PROC
EXTRN	PyExc_TypeError:QWORD
;	COMDAT pdata
pdata	SEGMENT
$pdata$list_concat DD imagerel list_concat
	DD	imagerel list_concat+407
	DD	imagerel $unwind$list_concat
pdata	ENDS
;	COMDAT xdata
xdata	SEGMENT
$unwind$list_concat DD 010e01H
	DD	0c20eH
xdata	ENDS
;	COMDAT ??_C@_0DB@BIAFAIAC@can?5only?5concatenate?5list?5?$CInot?5?$CC@
CONST	SEGMENT
??_C@_0DB@BIAFAIAC@can?5only?5concatenate?5list?5?$CInot?5?$CC@ DB 'can o'
	DB	'nly concatenate list (not "%.200s") to list', 00H ; `string'
; Function compile flags: /Odtp
CONST	ENDS
;	COMDAT list_concat
_TEXT	SEGMENT
i$ = 32
dest$ = 40
size$ = 48
np$ = 56
src$ = 64
v$20747 = 72
v$20756 = 80
a$ = 112
bb$ = 120
list_concat PROC					; COMDAT

; 496  : {

  00000	48 89 54 24 10	 mov	 QWORD PTR [rsp+16], rdx
  00005	48 89 4c 24 08	 mov	 QWORD PTR [rsp+8], rcx
  0000a	48 83 ec 68	 sub	 rsp, 104		; 00000068H

; 497  :     Py_ssize_t size;
; 498  :     Py_ssize_t i;
; 499  :     PyObject **src, **dest;
; 500  :     PyListObject *np;
; 501  :     if (!PyList_Check(bb)) {

  0000e	48 8b 44 24 78	 mov	 rax, QWORD PTR bb$[rsp]
  00013	48 8b 40 58	 mov	 rax, QWORD PTR [rax+88]
  00017	8b 80 00 01 00
	00		 mov	 eax, DWORD PTR [rax+256]
  0001d	25 00 00 00 02	 and	 eax, 33554432		; 02000000H
  00022	85 c0		 test	 eax, eax
  00024	75 27		 jne	 SHORT $LN9@list_conca

; 502  :         PyErr_Format(PyExc_TypeError,
; 503  :                   "can only concatenate list (not \"%.200s\") to list",
; 504  :                   bb->ob_type->tp_name);

  00026	48 8b 44 24 78	 mov	 rax, QWORD PTR bb$[rsp]
  0002b	48 8b 40 58	 mov	 rax, QWORD PTR [rax+88]
  0002f	4c 8b 40 70	 mov	 r8, QWORD PTR [rax+112]
  00033	48 8d 15 00 00
	00 00		 lea	 rdx, OFFSET FLAT:??_C@_0DB@BIAFAIAC@can?5only?5concatenate?5list?5?$CInot?5?$CC@
  0003a	48 8b 0d 00 00
	00 00		 mov	 rcx, QWORD PTR PyExc_TypeError
  00041	e8 00 00 00 00	 call	 PyErr_Format

; 505  :         return NULL;

  00046	33 c0		 xor	 eax, eax
  00048	e9 45 01 00 00	 jmp	 $LN10@list_conca
$LN9@list_conca:

; 506  :     }
; 507  : #define b ((PyListObject *)bb)
; 508  :     size = Py_SIZE(a) + Py_SIZE(b);

  0004d	48 8b 44 24 70	 mov	 rax, QWORD PTR a$[rsp]
  00052	48 8b 40 60	 mov	 rax, QWORD PTR [rax+96]
  00056	48 8b 4c 24 78	 mov	 rcx, QWORD PTR bb$[rsp]
  0005b	48 03 41 60	 add	 rax, QWORD PTR [rcx+96]
  0005f	48 89 44 24 30	 mov	 QWORD PTR size$[rsp], rax

; 509  :     if (size < 0)

  00064	48 83 7c 24 30
	00		 cmp	 QWORD PTR size$[rsp], 0
  0006a	7d 0a		 jge	 SHORT $LN8@list_conca

; 510  :         return PyErr_NoMemory();

  0006c	e8 00 00 00 00	 call	 PyErr_NoMemory
  00071	e9 1c 01 00 00	 jmp	 $LN10@list_conca
$LN8@list_conca:

; 511  :     np = (PyListObject *) PyList_New(size);

  00076	48 8b 4c 24 30	 mov	 rcx, QWORD PTR size$[rsp]
  0007b	e8 00 00 00 00	 call	 PyList_New
  00080	48 89 44 24 38	 mov	 QWORD PTR np$[rsp], rax

; 512  :     if (np == NULL) {

  00085	48 83 7c 24 38
	00		 cmp	 QWORD PTR np$[rsp], 0
  0008b	75 07		 jne	 SHORT $LN7@list_conca

; 513  :         return NULL;

  0008d	33 c0		 xor	 eax, eax
  0008f	e9 fe 00 00 00	 jmp	 $LN10@list_conca
$LN7@list_conca:

; 514  :     }
; 515  :     src = a->ob_item;

  00094	48 8b 44 24 70	 mov	 rax, QWORD PTR a$[rsp]
  00099	48 8b 40 70	 mov	 rax, QWORD PTR [rax+112]
  0009d	48 89 44 24 40	 mov	 QWORD PTR src$[rsp], rax

; 516  :     dest = np->ob_item;

  000a2	48 8b 44 24 38	 mov	 rax, QWORD PTR np$[rsp]
  000a7	48 8b 40 70	 mov	 rax, QWORD PTR [rax+112]
  000ab	48 89 44 24 28	 mov	 QWORD PTR dest$[rsp], rax

; 517  :     for (i = 0; i < Py_SIZE(a); i++) {

  000b0	48 c7 44 24 20
	00 00 00 00	 mov	 QWORD PTR i$[rsp], 0
  000b9	eb 0d		 jmp	 SHORT $LN6@list_conca
$LN5@list_conca:
  000bb	48 8b 44 24 20	 mov	 rax, QWORD PTR i$[rsp]
  000c0	48 ff c0	 inc	 rax
  000c3	48 89 44 24 20	 mov	 QWORD PTR i$[rsp], rax
$LN6@list_conca:
  000c8	48 8b 44 24 70	 mov	 rax, QWORD PTR a$[rsp]
  000cd	48 8b 40 60	 mov	 rax, QWORD PTR [rax+96]
  000d1	48 39 44 24 20	 cmp	 QWORD PTR i$[rsp], rax
  000d6	7d 32		 jge	 SHORT $LN4@list_conca

; 518  :         PyObject *v = src[i];

  000d8	48 8b 44 24 40	 mov	 rax, QWORD PTR src$[rsp]
  000dd	48 8b 4c 24 20	 mov	 rcx, QWORD PTR i$[rsp]
  000e2	48 8b 04 c8	 mov	 rax, QWORD PTR [rax+rcx*8]
  000e6	48 89 44 24 48	 mov	 QWORD PTR v$20747[rsp], rax

; 519  :         Py_INCREF(v);

  000eb	48 8b 4c 24 48	 mov	 rcx, QWORD PTR v$20747[rsp]
  000f0	e8 00 00 00 00	 call	 _Py_IncRef

; 520  :         dest[i] = v;

  000f5	48 8b 44 24 28	 mov	 rax, QWORD PTR dest$[rsp]
  000fa	48 8b 4c 24 20	 mov	 rcx, QWORD PTR i$[rsp]
  000ff	48 8b 54 24 48	 mov	 rdx, QWORD PTR v$20747[rsp]
  00104	48 89 14 c8	 mov	 QWORD PTR [rax+rcx*8], rdx

; 521  :     }

  00108	eb b1		 jmp	 SHORT $LN5@list_conca
$LN4@list_conca:

; 522  :     src = b->ob_item;

  0010a	48 8b 44 24 78	 mov	 rax, QWORD PTR bb$[rsp]
  0010f	48 8b 40 70	 mov	 rax, QWORD PTR [rax+112]
  00113	48 89 44 24 40	 mov	 QWORD PTR src$[rsp], rax

; 523  :     dest = np->ob_item + Py_SIZE(a);

  00118	48 8b 44 24 70	 mov	 rax, QWORD PTR a$[rsp]
  0011d	48 8b 40 60	 mov	 rax, QWORD PTR [rax+96]
  00121	48 8b 4c 24 38	 mov	 rcx, QWORD PTR np$[rsp]
  00126	48 8b 49 70	 mov	 rcx, QWORD PTR [rcx+112]
  0012a	48 8d 04 c1	 lea	 rax, QWORD PTR [rcx+rax*8]
  0012e	48 89 44 24 28	 mov	 QWORD PTR dest$[rsp], rax

; 524  :     for (i = 0; i < Py_SIZE(b); i++) {

  00133	48 c7 44 24 20
	00 00 00 00	 mov	 QWORD PTR i$[rsp], 0
  0013c	eb 0d		 jmp	 SHORT $LN3@list_conca
$LN2@list_conca:
  0013e	48 8b 44 24 20	 mov	 rax, QWORD PTR i$[rsp]
  00143	48 ff c0	 inc	 rax
  00146	48 89 44 24 20	 mov	 QWORD PTR i$[rsp], rax
$LN3@list_conca:
  0014b	48 8b 44 24 78	 mov	 rax, QWORD PTR bb$[rsp]
  00150	48 8b 40 60	 mov	 rax, QWORD PTR [rax+96]
  00154	48 39 44 24 20	 cmp	 QWORD PTR i$[rsp], rax
  00159	7d 32		 jge	 SHORT $LN1@list_conca

; 525  :         PyObject *v = src[i];

  0015b	48 8b 44 24 40	 mov	 rax, QWORD PTR src$[rsp]
  00160	48 8b 4c 24 20	 mov	 rcx, QWORD PTR i$[rsp]
  00165	48 8b 04 c8	 mov	 rax, QWORD PTR [rax+rcx*8]
  00169	48 89 44 24 50	 mov	 QWORD PTR v$20756[rsp], rax

; 526  :         Py_INCREF(v);

  0016e	48 8b 4c 24 50	 mov	 rcx, QWORD PTR v$20756[rsp]
  00173	e8 00 00 00 00	 call	 _Py_IncRef

; 527  :         dest[i] = v;

  00178	48 8b 44 24 28	 mov	 rax, QWORD PTR dest$[rsp]
  0017d	48 8b 4c 24 20	 mov	 rcx, QWORD PTR i$[rsp]
  00182	48 8b 54 24 50	 mov	 rdx, QWORD PTR v$20756[rsp]
  00187	48 89 14 c8	 mov	 QWORD PTR [rax+rcx*8], rdx

; 528  :     }

  0018b	eb b1		 jmp	 SHORT $LN2@list_conca
$LN1@list_conca:

; 529  :     return (PyObject *)np;

  0018d	48 8b 44 24 38	 mov	 rax, QWORD PTR np$[rsp]
$LN10@list_conca:

; 530  : #undef b
; 531  : }

  00192	48 83 c4 68	 add	 rsp, 104		; 00000068H
  00196	c3		 ret	 0
list_concat ENDP
_TEXT	ENDS
;	COMDAT pdata
pdata	SEGMENT
$pdata$list_repeat DD imagerel list_repeat
	DD	imagerel list_repeat+434
	DD	imagerel $unwind$list_repeat
pdata	ENDS
;	COMDAT xdata
xdata	SEGMENT
$unwind$list_repeat DD 010e01H
	DD	0c20eH
; Function compile flags: /Odtp
xdata	ENDS
;	COMDAT list_repeat
_TEXT	SEGMENT
p$ = 32
elem$ = 40
i$ = 48
size$ = 56
items$ = 64
np$ = 72
j$ = 80
a$ = 112
n$ = 120
list_repeat PROC					; COMDAT

; 535  : {

  00000	48 89 54 24 10	 mov	 QWORD PTR [rsp+16], rdx
  00005	48 89 4c 24 08	 mov	 QWORD PTR [rsp+8], rcx
  0000a	48 83 ec 68	 sub	 rsp, 104		; 00000068H

; 536  :     Py_ssize_t i, j;
; 537  :     Py_ssize_t size;
; 538  :     PyListObject *np;
; 539  :     PyObject **p, **items;
; 540  :     PyObject *elem;
; 541  :     if (n < 0)

  0000e	48 83 7c 24 78
	00		 cmp	 QWORD PTR n$[rsp], 0
  00014	7d 09		 jge	 SHORT $LN14@list_repea

; 542  :         n = 0;

  00016	48 c7 44 24 78
	00 00 00 00	 mov	 QWORD PTR n$[rsp], 0
$LN14@list_repea:

; 543  :     if (n > 0 && Py_SIZE(a) > PY_SSIZE_T_MAX / n)

  0001f	48 83 7c 24 78
	00		 cmp	 QWORD PTR n$[rsp], 0
  00025	7e 26		 jle	 SHORT $LN13@list_repea
  00027	48 b8 ff ff ff
	ff ff ff ff 7f	 mov	 rax, 9223372036854775807 ; 7fffffffffffffffH
  00031	48 99		 cdq
  00033	48 f7 7c 24 78	 idiv	 QWORD PTR n$[rsp]
  00038	48 8b 4c 24 70	 mov	 rcx, QWORD PTR a$[rsp]
  0003d	48 39 41 60	 cmp	 QWORD PTR [rcx+96], rax
  00041	7e 0a		 jle	 SHORT $LN13@list_repea

; 544  :         return PyErr_NoMemory();

  00043	e8 00 00 00 00	 call	 PyErr_NoMemory
  00048	e9 60 01 00 00	 jmp	 $LN15@list_repea
$LN13@list_repea:

; 545  :     size = Py_SIZE(a) * n;

  0004d	48 8b 44 24 70	 mov	 rax, QWORD PTR a$[rsp]
  00052	48 8b 40 60	 mov	 rax, QWORD PTR [rax+96]
  00056	48 0f af 44 24
	78		 imul	 rax, QWORD PTR n$[rsp]
  0005c	48 89 44 24 38	 mov	 QWORD PTR size$[rsp], rax

; 546  :     if (size == 0)

  00061	48 83 7c 24 38
	00		 cmp	 QWORD PTR size$[rsp], 0
  00067	75 0c		 jne	 SHORT $LN12@list_repea

; 547  :         return PyList_New(0);

  00069	33 c9		 xor	 ecx, ecx
  0006b	e8 00 00 00 00	 call	 PyList_New
  00070	e9 38 01 00 00	 jmp	 $LN15@list_repea
$LN12@list_repea:

; 548  :     np = (PyListObject *) PyList_New(size);

  00075	48 8b 4c 24 38	 mov	 rcx, QWORD PTR size$[rsp]
  0007a	e8 00 00 00 00	 call	 PyList_New
  0007f	48 89 44 24 48	 mov	 QWORD PTR np$[rsp], rax

; 549  :     if (np == NULL)

  00084	48 83 7c 24 48
	00		 cmp	 QWORD PTR np$[rsp], 0
  0008a	75 07		 jne	 SHORT $LN11@list_repea

; 550  :         return NULL;

  0008c	33 c0		 xor	 eax, eax
  0008e	e9 1a 01 00 00	 jmp	 $LN15@list_repea
$LN11@list_repea:

; 551  : 
; 552  :     items = np->ob_item;

  00093	48 8b 44 24 48	 mov	 rax, QWORD PTR np$[rsp]
  00098	48 8b 40 70	 mov	 rax, QWORD PTR [rax+112]
  0009c	48 89 44 24 40	 mov	 QWORD PTR items$[rsp], rax

; 553  :     if (Py_SIZE(a) == 1) {

  000a1	48 8b 44 24 70	 mov	 rax, QWORD PTR a$[rsp]
  000a6	48 83 78 60 01	 cmp	 QWORD PTR [rax+96], 1
  000ab	75 5e		 jne	 SHORT $LN10@list_repea

; 554  :         elem = a->ob_item[0];

  000ad	48 8b 44 24 70	 mov	 rax, QWORD PTR a$[rsp]
  000b2	48 8b 40 70	 mov	 rax, QWORD PTR [rax+112]
  000b6	48 8b 00	 mov	 rax, QWORD PTR [rax]
  000b9	48 89 44 24 28	 mov	 QWORD PTR elem$[rsp], rax

; 555  :         for (i = 0; i < n; i++) {

  000be	48 c7 44 24 30
	00 00 00 00	 mov	 QWORD PTR i$[rsp], 0
  000c7	eb 0d		 jmp	 SHORT $LN9@list_repea
$LN8@list_repea:
  000c9	48 8b 44 24 30	 mov	 rax, QWORD PTR i$[rsp]
  000ce	48 ff c0	 inc	 rax
  000d1	48 89 44 24 30	 mov	 QWORD PTR i$[rsp], rax
$LN9@list_repea:
  000d6	48 8b 44 24 78	 mov	 rax, QWORD PTR n$[rsp]
  000db	48 39 44 24 30	 cmp	 QWORD PTR i$[rsp], rax
  000e0	7d 1f		 jge	 SHORT $LN7@list_repea

; 556  :             items[i] = elem;

  000e2	48 8b 44 24 40	 mov	 rax, QWORD PTR items$[rsp]
  000e7	48 8b 4c 24 30	 mov	 rcx, QWORD PTR i$[rsp]
  000ec	48 8b 54 24 28	 mov	 rdx, QWORD PTR elem$[rsp]
  000f1	48 89 14 c8	 mov	 QWORD PTR [rax+rcx*8], rdx

; 557  :             Py_INCREF(elem);

  000f5	48 8b 4c 24 28	 mov	 rcx, QWORD PTR elem$[rsp]
  000fa	e8 00 00 00 00	 call	 _Py_IncRef

; 558  :         }

  000ff	eb c8		 jmp	 SHORT $LN8@list_repea
$LN7@list_repea:

; 559  :         return (PyObject *) np;

  00101	48 8b 44 24 48	 mov	 rax, QWORD PTR np$[rsp]
  00106	e9 a2 00 00 00	 jmp	 $LN15@list_repea
$LN10@list_repea:

; 560  :     }
; 561  :     p = np->ob_item;

  0010b	48 8b 44 24 48	 mov	 rax, QWORD PTR np$[rsp]
  00110	48 8b 40 70	 mov	 rax, QWORD PTR [rax+112]
  00114	48 89 44 24 20	 mov	 QWORD PTR p$[rsp], rax

; 562  :     items = a->ob_item;

  00119	48 8b 44 24 70	 mov	 rax, QWORD PTR a$[rsp]
  0011e	48 8b 40 70	 mov	 rax, QWORD PTR [rax+112]
  00122	48 89 44 24 40	 mov	 QWORD PTR items$[rsp], rax

; 563  :     for (i = 0; i < n; i++) {

  00127	48 c7 44 24 30
	00 00 00 00	 mov	 QWORD PTR i$[rsp], 0
  00130	eb 0d		 jmp	 SHORT $LN6@list_repea
$LN5@list_repea:
  00132	48 8b 44 24 30	 mov	 rax, QWORD PTR i$[rsp]
  00137	48 ff c0	 inc	 rax
  0013a	48 89 44 24 30	 mov	 QWORD PTR i$[rsp], rax
$LN6@list_repea:
  0013f	48 8b 44 24 78	 mov	 rax, QWORD PTR n$[rsp]
  00144	48 39 44 24 30	 cmp	 QWORD PTR i$[rsp], rax
  00149	7d 5d		 jge	 SHORT $LN4@list_repea

; 564  :         for (j = 0; j < Py_SIZE(a); j++) {

  0014b	48 c7 44 24 50
	00 00 00 00	 mov	 QWORD PTR j$[rsp], 0
  00154	eb 0d		 jmp	 SHORT $LN3@list_repea
$LN2@list_repea:
  00156	48 8b 44 24 50	 mov	 rax, QWORD PTR j$[rsp]
  0015b	48 ff c0	 inc	 rax
  0015e	48 89 44 24 50	 mov	 QWORD PTR j$[rsp], rax
$LN3@list_repea:
  00163	48 8b 44 24 70	 mov	 rax, QWORD PTR a$[rsp]
  00168	48 8b 40 60	 mov	 rax, QWORD PTR [rax+96]
  0016c	48 39 44 24 50	 cmp	 QWORD PTR j$[rsp], rax
  00171	7d 33		 jge	 SHORT $LN1@list_repea

; 565  :             *p = items[j];

  00173	48 8b 44 24 20	 mov	 rax, QWORD PTR p$[rsp]
  00178	48 8b 4c 24 40	 mov	 rcx, QWORD PTR items$[rsp]
  0017d	48 8b 54 24 50	 mov	 rdx, QWORD PTR j$[rsp]
  00182	48 8b 0c d1	 mov	 rcx, QWORD PTR [rcx+rdx*8]
  00186	48 89 08	 mov	 QWORD PTR [rax], rcx

; 566  :             Py_INCREF(*p);

  00189	48 8b 44 24 20	 mov	 rax, QWORD PTR p$[rsp]
  0018e	48 8b 08	 mov	 rcx, QWORD PTR [rax]
  00191	e8 00 00 00 00	 call	 _Py_IncRef

; 567  :             p++;

  00196	48 8b 44 24 20	 mov	 rax, QWORD PTR p$[rsp]
  0019b	48 83 c0 08	 add	 rax, 8
  0019f	48 89 44 24 20	 mov	 QWORD PTR p$[rsp], rax

; 568  :         }

  001a4	eb b0		 jmp	 SHORT $LN2@list_repea
$LN1@list_repea:

; 569  :     }

  001a6	eb 8a		 jmp	 SHORT $LN5@list_repea
$LN4@list_repea:

; 570  :     return (PyObject *) np;

  001a8	48 8b 44 24 48	 mov	 rax, QWORD PTR np$[rsp]
$LN15@list_repea:

; 571  : }

  001ad	48 83 c4 68	 add	 rsp, 104		; 00000068H
  001b1	c3		 ret	 0
list_repeat ENDP
_TEXT	ENDS
;	COMDAT pdata
pdata	SEGMENT
$pdata$list_clear DD imagerel list_clear
	DD	imagerel list_clear+207
	DD	imagerel $unwind$list_clear
pdata	ENDS
;	COMDAT xdata
xdata	SEGMENT
$unwind$list_clear DD 010901H
	DD	08209H
; Function compile flags: /Odtp
xdata	ENDS
;	COMDAT list_clear
_TEXT	SEGMENT
i$ = 32
item$ = 40
tv83 = 48
a$ = 80
list_clear PROC						; COMDAT

; 575  : {

  00000	48 89 4c 24 08	 mov	 QWORD PTR [rsp+8], rcx
  00005	48 83 ec 48	 sub	 rsp, 72			; 00000048H

; 576  :     Py_ssize_t i;
; 577  :     PyObject **item = a->ob_item;

  00009	48 8b 44 24 50	 mov	 rax, QWORD PTR a$[rsp]
  0000e	48 8b 40 70	 mov	 rax, QWORD PTR [rax+112]
  00012	48 89 44 24 28	 mov	 QWORD PTR item$[rsp], rax

; 578  :     if (item != NULL) {

  00017	48 83 7c 24 28
	00		 cmp	 QWORD PTR item$[rsp], 0
  0001d	0f 84 a5 00 00
	00		 je	 $LN7@list_clear

; 579  :         /* Because XDECREF can recursively invoke operations on
; 580  :            this list, we make it empty first. */
; 581  :         i = Py_SIZE(a);

  00023	48 8b 44 24 50	 mov	 rax, QWORD PTR a$[rsp]
  00028	48 8b 40 60	 mov	 rax, QWORD PTR [rax+96]
  0002c	48 89 44 24 20	 mov	 QWORD PTR i$[rsp], rax

; 582  :         Py_SIZE(a) = 0;

  00031	48 8b 44 24 50	 mov	 rax, QWORD PTR a$[rsp]
  00036	48 c7 40 60 00
	00 00 00	 mov	 QWORD PTR [rax+96], 0

; 583  :         a->ob_item = NULL;

  0003e	48 8b 44 24 50	 mov	 rax, QWORD PTR a$[rsp]
  00043	48 c7 40 70 00
	00 00 00	 mov	 QWORD PTR [rax+112], 0

; 584  :         a->allocated = 0;

  0004b	48 8b 44 24 50	 mov	 rax, QWORD PTR a$[rsp]
  00050	48 c7 40 78 00
	00 00 00	 mov	 QWORD PTR [rax+120], 0
$LN6@list_clear:

; 585  :         while (--i >= 0) {

  00058	48 8b 44 24 20	 mov	 rax, QWORD PTR i$[rsp]
  0005d	48 ff c8	 dec	 rax
  00060	48 89 44 24 20	 mov	 QWORD PTR i$[rsp], rax
  00065	48 83 7c 24 20
	00		 cmp	 QWORD PTR i$[rsp], 0
  0006b	7c 2c		 jl	 SHORT $LN5@list_clear
$LN4@list_clear:

; 586  :             Py_XDECREF(item[i]);

  0006d	48 8b 44 24 28	 mov	 rax, QWORD PTR item$[rsp]
  00072	48 8b 4c 24 20	 mov	 rcx, QWORD PTR i$[rsp]
  00077	48 83 3c c8 00	 cmp	 QWORD PTR [rax+rcx*8], 0
  0007c	74 13		 je	 SHORT $LN1@list_clear
  0007e	48 8b 44 24 28	 mov	 rax, QWORD PTR item$[rsp]
  00083	48 8b 4c 24 20	 mov	 rcx, QWORD PTR i$[rsp]
  00088	48 8b 0c c8	 mov	 rcx, QWORD PTR [rax+rcx*8]
  0008c	e8 00 00 00 00	 call	 _Py_DecRef
$LN1@list_clear:
  00091	33 c0		 xor	 eax, eax
  00093	85 c0		 test	 eax, eax
  00095	75 d6		 jne	 SHORT $LN4@list_clear

; 587  :         }

  00097	eb bf		 jmp	 SHORT $LN6@list_clear
$LN5@list_clear:

; 588  :         PyMem_FREE(item);

  00099	e8 00 00 00 00	 call	 _Py_PXCTX
  0009e	85 c0		 test	 eax, eax
  000a0	74 14		 je	 SHORT $LN10@list_clear
  000a2	48 8b 4c 24 28	 mov	 rcx, QWORD PTR item$[rsp]
  000a7	e8 00 00 00 00	 call	 _PxMem_Free
  000ac	c7 44 24 30 00
	00 00 00	 mov	 DWORD PTR tv83[rsp], 0
  000b4	eb 12		 jmp	 SHORT $LN11@list_clear
$LN10@list_clear:
  000b6	48 8b 4c 24 28	 mov	 rcx, QWORD PTR item$[rsp]
  000bb	e8 00 00 00 00	 call	 _PyMem_DebugFree
  000c0	c7 44 24 30 00
	00 00 00	 mov	 DWORD PTR tv83[rsp], 0
$LN11@list_clear:
$LN7@list_clear:

; 589  :     }
; 590  :     /* Never fails; the return value can be ignored.
; 591  :        Note that there is no guarantee that the list is actually empty
; 592  :        at this point, because XDECREF may have populated it again! */
; 593  :     return 0;

  000c8	33 c0		 xor	 eax, eax

; 594  : }

  000ca	48 83 c4 48	 add	 rsp, 72			; 00000048H
  000ce	c3		 ret	 0
list_clear ENDP
_TEXT	ENDS
PUBLIC	PyList_SetSlice
;	COMDAT pdata
pdata	SEGMENT
$pdata$PyList_SetSlice DD imagerel $LN4
	DD	imagerel $LN4+102
	DD	imagerel $unwind$PyList_SetSlice
pdata	ENDS
;	COMDAT xdata
xdata	SEGMENT
$unwind$PyList_SetSlice DD 011801H
	DD	04218H
; Function compile flags: /Odtp
xdata	ENDS
;	COMDAT PyList_SetSlice
_TEXT	SEGMENT
a$ = 48
ilow$ = 56
ihigh$ = 64
v$ = 72
PyList_SetSlice PROC					; COMDAT

; 710  : {

$LN4:
  00000	4c 89 4c 24 20	 mov	 QWORD PTR [rsp+32], r9
  00005	4c 89 44 24 18	 mov	 QWORD PTR [rsp+24], r8
  0000a	48 89 54 24 10	 mov	 QWORD PTR [rsp+16], rdx
  0000f	48 89 4c 24 08	 mov	 QWORD PTR [rsp+8], rcx
  00014	48 83 ec 28	 sub	 rsp, 40			; 00000028H

; 711  :     if (!PyList_Check(a)) {

  00018	48 8b 44 24 30	 mov	 rax, QWORD PTR a$[rsp]
  0001d	48 8b 40 58	 mov	 rax, QWORD PTR [rax+88]
  00021	8b 80 00 01 00
	00		 mov	 eax, DWORD PTR [rax+256]
  00027	25 00 00 00 02	 and	 eax, 33554432		; 02000000H
  0002c	85 c0		 test	 eax, eax
  0002e	75 18		 jne	 SHORT $LN1@PyList_Set@2

; 712  :         PyErr_BadInternalCall();

  00030	ba c8 02 00 00	 mov	 edx, 712		; 000002c8H
  00035	48 8d 0d 00 00
	00 00		 lea	 rcx, OFFSET FLAT:??_C@_0BI@EJIDBIMM@?4?4?2Objects?2listobject?4c?$AA@
  0003c	e8 00 00 00 00	 call	 _PyErr_BadInternalCall

; 713  :         return -1;

  00041	b8 ff ff ff ff	 mov	 eax, -1
  00046	eb 19		 jmp	 SHORT $LN2@PyList_Set@2
$LN1@PyList_Set@2:

; 714  :     }
; 715  : 
; 716  :     /* Px_CHECK_PROTECTION handled by list_ass_slice(). */
; 717  :     return list_ass_slice((PyListObject *)a, ilow, ihigh, v);

  00048	4c 8b 4c 24 48	 mov	 r9, QWORD PTR v$[rsp]
  0004d	4c 8b 44 24 40	 mov	 r8, QWORD PTR ihigh$[rsp]
  00052	48 8b 54 24 38	 mov	 rdx, QWORD PTR ilow$[rsp]
  00057	48 8b 4c 24 30	 mov	 rcx, QWORD PTR a$[rsp]
  0005c	e8 00 00 00 00	 call	 list_ass_slice
$LN2@PyList_Set@2:

; 718  : }

  00061	48 83 c4 28	 add	 rsp, 40			; 00000028H
  00065	c3		 ret	 0
PyList_SetSlice ENDP
_TEXT	ENDS
PUBLIC	??_C@_1BG@MLPMIIJE@?$AAn?$AAo?$AAr?$AAi?$AAg?$AA?5?$AA?$DO?$AA?$DN?$AA?5?$AA0?$AA?$AA@ ; `string'
PUBLIC	??_C@_0BM@INPHMALO@can?5only?5assign?5an?5iterable?$AA@ ; `string'
PUBLIC	??_C@_0EF@DGJDNGLM@parallel?5thread?5attempted?5to?5ass@ ; `string'
EXTRN	__imp_memmove:PROC
EXTRN	memcpy:PROC
EXTRN	PySequence_Fast:PROC
;	COMDAT pdata
pdata	SEGMENT
$pdata$list_ass_slice DD imagerel list_ass_slice
	DD	imagerel list_ass_slice+1773
	DD	imagerel $unwind$list_ass_slice
pdata	ENDS
;	COMDAT xdata
xdata	SEGMENT
$unwind$list_ass_slice DD 021b01H
	DD	01f011bH
xdata	ENDS
;	COMDAT ??_C@_1BG@MLPMIIJE@?$AAn?$AAo?$AAr?$AAi?$AAg?$AA?5?$AA?$DO?$AA?$DN?$AA?5?$AA0?$AA?$AA@
CONST	SEGMENT
??_C@_1BG@MLPMIIJE@?$AAn?$AAo?$AAr?$AAi?$AAg?$AA?5?$AA?$DO?$AA?$DN?$AA?5?$AA0?$AA?$AA@ DB 'n'
	DB	00H, 'o', 00H, 'r', 00H, 'i', 00H, 'g', 00H, ' ', 00H, '>', 00H
	DB	'=', 00H, ' ', 00H, '0', 00H, 00H, 00H	; `string'
CONST	ENDS
;	COMDAT ??_C@_0BM@INPHMALO@can?5only?5assign?5an?5iterable?$AA@
CONST	SEGMENT
??_C@_0BM@INPHMALO@can?5only?5assign?5an?5iterable?$AA@ DB 'can only assi'
	DB	'gn an iterable', 00H			; `string'
CONST	ENDS
;	COMDAT ??_C@_0EF@DGJDNGLM@parallel?5thread?5attempted?5to?5ass@
CONST	SEGMENT
??_C@_0EF@DGJDNGLM@parallel?5thread?5attempted?5to?5ass@ DB 'parallel thr'
	DB	'ead attempted to assign to a slice of a main thread list', 00H ; `string'
; Function compile flags: /Odtp
CONST	ENDS
;	COMDAT list_ass_slice
_TEXT	SEGMENT
vitem$ = 32
norig$ = 40
recycle_on_stack$ = 48
n$ = 112
s$ = 120
recycle$ = 128
k$ = 136
result$ = 144
d$ = 152
item$ = 160
v_as_SF$ = 168
w$20904 = 176
tv95 = 184
tv134 = 192
tv167 = 200
tv185 = 208
tv208 = 216
tv234 = 224
a$ = 256
ilow$ = 264
ihigh$ = 272
v$ = 280
list_ass_slice PROC					; COMDAT

; 604  : {

  00000	4c 89 4c 24 20	 mov	 QWORD PTR [rsp+32], r9
  00005	4c 89 44 24 18	 mov	 QWORD PTR [rsp+24], r8
  0000a	48 89 54 24 10	 mov	 QWORD PTR [rsp+16], rdx
  0000f	48 89 4c 24 08	 mov	 QWORD PTR [rsp+8], rcx
  00014	48 81 ec f8 00
	00 00		 sub	 rsp, 248		; 000000f8H

; 605  :     /* Because [X]DECREF can recursively invoke list operations on
; 606  :        this list, we must postpone all [X]DECREF activity until
; 607  :        after the list is back in its canonical shape.  Therefore
; 608  :        we must allocate an additional array, 'recycle', into which
; 609  :        we temporarily copy the items that are deleted from the
; 610  :        list. :-( */
; 611  :     PyObject *recycle_on_stack[8];
; 612  :     PyObject **recycle = recycle_on_stack; /* will allocate more if needed */

  0001b	48 8d 44 24 30	 lea	 rax, QWORD PTR recycle_on_stack$[rsp]
  00020	48 89 84 24 80
	00 00 00	 mov	 QWORD PTR recycle$[rsp], rax

; 613  :     PyObject **item;
; 614  :     PyObject **vitem = NULL;

  00028	48 c7 44 24 20
	00 00 00 00	 mov	 QWORD PTR vitem$[rsp], 0

; 615  :     PyObject *v_as_SF = NULL; /* PySequence_Fast(v) */

  00031	48 c7 84 24 a8
	00 00 00 00 00
	00 00		 mov	 QWORD PTR v_as_SF$[rsp], 0

; 616  :     Py_ssize_t n; /* # of elements in replacement list */
; 617  :     Py_ssize_t norig; /* # of elements in list getting replaced */
; 618  :     Py_ssize_t d; /* Change in size */
; 619  :     Py_ssize_t k;
; 620  :     size_t s;
; 621  :     int result = -1;            /* guilty until proved innocent */

  0003d	c7 84 24 90 00
	00 00 ff ff ff
	ff		 mov	 DWORD PTR result$[rsp], -1

; 622  : #ifdef WITH_PARALLEL
; 623  :     if (Py_PXCTX && Px_ISPY(a)) {

  00048	e8 00 00 00 00	 call	 _Py_PXCTX
  0004d	85 c0		 test	 eax, eax
  0004f	74 34		 je	 SHORT $LN42@list_ass_s
  00051	48 8b 84 24 00
	01 00 00	 mov	 rax, QWORD PTR a$[rsp]
  00059	48 8b 40 20	 mov	 rax, QWORD PTR [rax+32]
  0005d	48 83 e0 01	 and	 rax, 1
  00061	48 85 c0	 test	 rax, rax
  00064	74 1f		 je	 SHORT $LN42@list_ass_s

; 624  :         PyErr_SetString(PyExc_AssignmentError,
; 625  :                         "parallel thread attempted to assign to a slice "
; 626  :                         "of a main thread list");

  00066	48 8d 15 00 00
	00 00		 lea	 rdx, OFFSET FLAT:??_C@_0EF@DGJDNGLM@parallel?5thread?5attempted?5to?5ass@
  0006d	48 8b 0d 00 00
	00 00		 mov	 rcx, QWORD PTR PyExc_AssignmentError
  00074	e8 00 00 00 00	 call	 PyErr_SetString

; 627  :         return result;

  00079	8b 84 24 90 00
	00 00		 mov	 eax, DWORD PTR result$[rsp]
  00080	e9 60 06 00 00	 jmp	 $LN43@list_ass_s
$LN42@list_ass_s:

; 628  :     }
; 629  : #endif
; 630  : #define b ((PyListObject *)v)
; 631  :     if (v == NULL)

  00085	48 83 bc 24 18
	01 00 00 00	 cmp	 QWORD PTR v$[rsp], 0
  0008e	75 0e		 jne	 SHORT $LN41@list_ass_s

; 632  :         n = 0;

  00090	48 c7 44 24 70
	00 00 00 00	 mov	 QWORD PTR n$[rsp], 0

; 633  :     else {

  00099	e9 61 01 00 00	 jmp	 $LN40@list_ass_s
$LN41@list_ass_s:

; 634  :         if (a == b) {

  0009e	48 8b 84 24 18
	01 00 00	 mov	 rax, QWORD PTR v$[rsp]
  000a6	48 39 84 24 00
	01 00 00	 cmp	 QWORD PTR a$[rsp], rax
  000ae	75 7f		 jne	 SHORT $LN39@list_ass_s

; 635  :             /* Special case "a[i:j] = a" -- copy b first */
; 636  :             v = list_slice(b, 0, Py_SIZE(b));

  000b0	48 8b 84 24 18
	01 00 00	 mov	 rax, QWORD PTR v$[rsp]
  000b8	4c 8b 40 60	 mov	 r8, QWORD PTR [rax+96]
  000bc	33 d2		 xor	 edx, edx
  000be	48 8b 8c 24 18
	01 00 00	 mov	 rcx, QWORD PTR v$[rsp]
  000c6	e8 00 00 00 00	 call	 list_slice
  000cb	48 89 84 24 18
	01 00 00	 mov	 QWORD PTR v$[rsp], rax

; 637  :             if (v == NULL)

  000d3	48 83 bc 24 18
	01 00 00 00	 cmp	 QWORD PTR v$[rsp], 0
  000dc	75 0c		 jne	 SHORT $LN38@list_ass_s

; 638  :                 return result;

  000de	8b 84 24 90 00
	00 00		 mov	 eax, DWORD PTR result$[rsp]
  000e5	e9 fb 05 00 00	 jmp	 $LN43@list_ass_s
$LN38@list_ass_s:

; 639  :             result = list_ass_slice(a, ilow, ihigh, v);

  000ea	4c 8b 8c 24 18
	01 00 00	 mov	 r9, QWORD PTR v$[rsp]
  000f2	4c 8b 84 24 10
	01 00 00	 mov	 r8, QWORD PTR ihigh$[rsp]
  000fa	48 8b 94 24 08
	01 00 00	 mov	 rdx, QWORD PTR ilow$[rsp]
  00102	48 8b 8c 24 00
	01 00 00	 mov	 rcx, QWORD PTR a$[rsp]
  0010a	e8 00 00 00 00	 call	 list_ass_slice
  0010f	89 84 24 90 00
	00 00		 mov	 DWORD PTR result$[rsp], eax

; 640  :             Py_DECREF(v);

  00116	48 8b 8c 24 18
	01 00 00	 mov	 rcx, QWORD PTR v$[rsp]
  0011e	e8 00 00 00 00	 call	 _Py_DecRef

; 641  :             return result;

  00123	8b 84 24 90 00
	00 00		 mov	 eax, DWORD PTR result$[rsp]
  0012a	e9 b6 05 00 00	 jmp	 $LN43@list_ass_s
$LN39@list_ass_s:

; 642  :         }
; 643  :         v_as_SF = PySequence_Fast(v, "can only assign an iterable");

  0012f	48 8d 15 00 00
	00 00		 lea	 rdx, OFFSET FLAT:??_C@_0BM@INPHMALO@can?5only?5assign?5an?5iterable?$AA@
  00136	48 8b 8c 24 18
	01 00 00	 mov	 rcx, QWORD PTR v$[rsp]
  0013e	e8 00 00 00 00	 call	 PySequence_Fast
  00143	48 89 84 24 a8
	00 00 00	 mov	 QWORD PTR v_as_SF$[rsp], rax

; 644  :         if(v_as_SF == NULL)

  0014b	48 83 bc 24 a8
	00 00 00 00	 cmp	 QWORD PTR v_as_SF$[rsp], 0
  00154	75 05		 jne	 SHORT $LN37@list_ass_s

; 645  :             goto Error;

  00156	e9 1b 05 00 00	 jmp	 $Error$20859
$LN37@list_ass_s:

; 646  :         n = PySequence_Fast_GET_SIZE(v_as_SF);

  0015b	48 8b 84 24 a8
	00 00 00	 mov	 rax, QWORD PTR v_as_SF$[rsp]
  00163	48 8b 40 58	 mov	 rax, QWORD PTR [rax+88]
  00167	8b 80 00 01 00
	00		 mov	 eax, DWORD PTR [rax+256]
  0016d	25 00 00 00 02	 and	 eax, 33554432		; 02000000H
  00172	85 c0		 test	 eax, eax
  00174	74 16		 je	 SHORT $LN45@list_ass_s
  00176	48 8b 84 24 a8
	00 00 00	 mov	 rax, QWORD PTR v_as_SF$[rsp]
  0017e	48 8b 40 60	 mov	 rax, QWORD PTR [rax+96]
  00182	48 89 84 24 b8
	00 00 00	 mov	 QWORD PTR tv95[rsp], rax
  0018a	eb 14		 jmp	 SHORT $LN46@list_ass_s
$LN45@list_ass_s:
  0018c	48 8b 84 24 a8
	00 00 00	 mov	 rax, QWORD PTR v_as_SF$[rsp]
  00194	48 8b 40 60	 mov	 rax, QWORD PTR [rax+96]
  00198	48 89 84 24 b8
	00 00 00	 mov	 QWORD PTR tv95[rsp], rax
$LN46@list_ass_s:
  001a0	48 8b 84 24 b8
	00 00 00	 mov	 rax, QWORD PTR tv95[rsp]
  001a8	48 89 44 24 70	 mov	 QWORD PTR n$[rsp], rax

; 647  :         vitem = PySequence_Fast_ITEMS(v_as_SF);

  001ad	48 8b 84 24 a8
	00 00 00	 mov	 rax, QWORD PTR v_as_SF$[rsp]
  001b5	48 8b 40 58	 mov	 rax, QWORD PTR [rax+88]
  001b9	8b 80 00 01 00
	00		 mov	 eax, DWORD PTR [rax+256]
  001bf	25 00 00 00 02	 and	 eax, 33554432		; 02000000H
  001c4	85 c0		 test	 eax, eax
  001c6	74 16		 je	 SHORT $LN47@list_ass_s
  001c8	48 8b 84 24 a8
	00 00 00	 mov	 rax, QWORD PTR v_as_SF$[rsp]
  001d0	48 8b 40 70	 mov	 rax, QWORD PTR [rax+112]
  001d4	48 89 84 24 c0
	00 00 00	 mov	 QWORD PTR tv134[rsp], rax
  001dc	eb 14		 jmp	 SHORT $LN48@list_ass_s
$LN47@list_ass_s:
  001de	48 8b 84 24 a8
	00 00 00	 mov	 rax, QWORD PTR v_as_SF$[rsp]
  001e6	48 83 c0 70	 add	 rax, 112		; 00000070H
  001ea	48 89 84 24 c0
	00 00 00	 mov	 QWORD PTR tv134[rsp], rax
$LN48@list_ass_s:
  001f2	48 8b 84 24 c0
	00 00 00	 mov	 rax, QWORD PTR tv134[rsp]
  001fa	48 89 44 24 20	 mov	 QWORD PTR vitem$[rsp], rax
$LN40@list_ass_s:

; 648  :     }
; 649  :     if (ilow < 0)

  001ff	48 83 bc 24 08
	01 00 00 00	 cmp	 QWORD PTR ilow$[rsp], 0
  00208	7d 0e		 jge	 SHORT $LN36@list_ass_s

; 650  :         ilow = 0;

  0020a	48 c7 84 24 08
	01 00 00 00 00
	00 00		 mov	 QWORD PTR ilow$[rsp], 0
  00216	eb 2a		 jmp	 SHORT $LN35@list_ass_s
$LN36@list_ass_s:

; 651  :     else if (ilow > Py_SIZE(a))

  00218	48 8b 84 24 00
	01 00 00	 mov	 rax, QWORD PTR a$[rsp]
  00220	48 8b 40 60	 mov	 rax, QWORD PTR [rax+96]
  00224	48 39 84 24 08
	01 00 00	 cmp	 QWORD PTR ilow$[rsp], rax
  0022c	7e 14		 jle	 SHORT $LN34@list_ass_s

; 652  :         ilow = Py_SIZE(a);

  0022e	48 8b 84 24 00
	01 00 00	 mov	 rax, QWORD PTR a$[rsp]
  00236	48 8b 40 60	 mov	 rax, QWORD PTR [rax+96]
  0023a	48 89 84 24 08
	01 00 00	 mov	 QWORD PTR ilow$[rsp], rax
$LN34@list_ass_s:
$LN35@list_ass_s:

; 653  : 
; 654  :     if (ihigh < ilow)

  00242	48 8b 84 24 08
	01 00 00	 mov	 rax, QWORD PTR ilow$[rsp]
  0024a	48 39 84 24 10
	01 00 00	 cmp	 QWORD PTR ihigh$[rsp], rax
  00252	7d 12		 jge	 SHORT $LN33@list_ass_s

; 655  :         ihigh = ilow;

  00254	48 8b 84 24 08
	01 00 00	 mov	 rax, QWORD PTR ilow$[rsp]
  0025c	48 89 84 24 10
	01 00 00	 mov	 QWORD PTR ihigh$[rsp], rax
  00264	eb 2a		 jmp	 SHORT $LN32@list_ass_s
$LN33@list_ass_s:

; 656  :     else if (ihigh > Py_SIZE(a))

  00266	48 8b 84 24 00
	01 00 00	 mov	 rax, QWORD PTR a$[rsp]
  0026e	48 8b 40 60	 mov	 rax, QWORD PTR [rax+96]
  00272	48 39 84 24 10
	01 00 00	 cmp	 QWORD PTR ihigh$[rsp], rax
  0027a	7e 14		 jle	 SHORT $LN31@list_ass_s

; 657  :         ihigh = Py_SIZE(a);

  0027c	48 8b 84 24 00
	01 00 00	 mov	 rax, QWORD PTR a$[rsp]
  00284	48 8b 40 60	 mov	 rax, QWORD PTR [rax+96]
  00288	48 89 84 24 10
	01 00 00	 mov	 QWORD PTR ihigh$[rsp], rax
$LN31@list_ass_s:
$LN32@list_ass_s:

; 658  : 
; 659  :     norig = ihigh - ilow;

  00290	48 8b 84 24 08
	01 00 00	 mov	 rax, QWORD PTR ilow$[rsp]
  00298	48 8b 8c 24 10
	01 00 00	 mov	 rcx, QWORD PTR ihigh$[rsp]
  002a0	48 2b c8	 sub	 rcx, rax
  002a3	48 8b c1	 mov	 rax, rcx
  002a6	48 89 44 24 28	 mov	 QWORD PTR norig$[rsp], rax

; 660  :     assert(norig >= 0);

  002ab	48 83 7c 24 28
	00		 cmp	 QWORD PTR norig$[rsp], 0
  002b1	7d 1c		 jge	 SHORT $LN49@list_ass_s
  002b3	41 b8 94 02 00
	00		 mov	 r8d, 660		; 00000294H
  002b9	48 8d 15 00 00
	00 00		 lea	 rdx, OFFSET FLAT:??_C@_1DA@FFHCLKCK@?$AA?4?$AA?4?$AA?2?$AAO?$AAb?$AAj?$AAe?$AAc?$AAt?$AAs?$AA?2?$AAl?$AAi?$AAs?$AAt?$AAo?$AAb?$AAj?$AAe?$AAc?$AAt?$AA?4?$AAc?$AA?$AA@
  002c0	48 8d 0d 00 00
	00 00		 lea	 rcx, OFFSET FLAT:??_C@_1BG@MLPMIIJE@?$AAn?$AAo?$AAr?$AAi?$AAg?$AA?5?$AA?$DO?$AA?$DN?$AA?5?$AA0?$AA?$AA@
  002c7	ff 15 00 00 00
	00		 call	 QWORD PTR __imp__wassert
  002cd	33 c0		 xor	 eax, eax
$LN49@list_ass_s:

; 661  :     d = n - norig;

  002cf	48 8b 44 24 28	 mov	 rax, QWORD PTR norig$[rsp]
  002d4	48 8b 4c 24 70	 mov	 rcx, QWORD PTR n$[rsp]
  002d9	48 2b c8	 sub	 rcx, rax
  002dc	48 8b c1	 mov	 rax, rcx
  002df	48 89 84 24 98
	00 00 00	 mov	 QWORD PTR d$[rsp], rax

; 662  :     if (Py_SIZE(a) + d == 0) {

  002e7	48 8b 84 24 00
	01 00 00	 mov	 rax, QWORD PTR a$[rsp]
  002ef	48 8b 40 60	 mov	 rax, QWORD PTR [rax+96]
  002f3	48 03 84 24 98
	00 00 00	 add	 rax, QWORD PTR d$[rsp]
  002fb	48 85 c0	 test	 rax, rax
  002fe	75 30		 jne	 SHORT $LN30@list_ass_s
$LN29@list_ass_s:

; 663  :         Py_XDECREF(v_as_SF);

  00300	48 83 bc 24 a8
	00 00 00 00	 cmp	 QWORD PTR v_as_SF$[rsp], 0
  00309	74 0d		 je	 SHORT $LN26@list_ass_s
  0030b	48 8b 8c 24 a8
	00 00 00	 mov	 rcx, QWORD PTR v_as_SF$[rsp]
  00313	e8 00 00 00 00	 call	 _Py_DecRef
$LN26@list_ass_s:
  00318	33 c0		 xor	 eax, eax
  0031a	85 c0		 test	 eax, eax
  0031c	75 e2		 jne	 SHORT $LN29@list_ass_s

; 664  :         return list_clear(a);

  0031e	48 8b 8c 24 00
	01 00 00	 mov	 rcx, QWORD PTR a$[rsp]
  00326	e8 00 00 00 00	 call	 list_clear
  0032b	e9 b5 03 00 00	 jmp	 $LN43@list_ass_s
$LN30@list_ass_s:

; 665  :     }
; 666  :     item = a->ob_item;

  00330	48 8b 84 24 00
	01 00 00	 mov	 rax, QWORD PTR a$[rsp]
  00338	48 8b 40 70	 mov	 rax, QWORD PTR [rax+112]
  0033c	48 89 84 24 a0
	00 00 00	 mov	 QWORD PTR item$[rsp], rax

; 667  :     /* recycle the items that we are about to remove */
; 668  :     s = norig * sizeof(PyObject *);

  00344	48 8b 44 24 28	 mov	 rax, QWORD PTR norig$[rsp]
  00349	48 c1 e0 03	 shl	 rax, 3
  0034d	48 89 44 24 78	 mov	 QWORD PTR s$[rsp], rax

; 669  :     if (s > sizeof(recycle_on_stack)) {

  00352	48 83 7c 24 78
	40		 cmp	 QWORD PTR s$[rsp], 64	; 00000040H
  00358	76 54		 jbe	 SHORT $LN25@list_ass_s

; 670  :         recycle = (PyObject **)PyMem_MALLOC(s);

  0035a	e8 00 00 00 00	 call	 _Py_PXCTX
  0035f	85 c0		 test	 eax, eax
  00361	74 14		 je	 SHORT $LN50@list_ass_s
  00363	48 8b 4c 24 78	 mov	 rcx, QWORD PTR s$[rsp]
  00368	e8 00 00 00 00	 call	 _PxMem_Malloc
  0036d	48 89 84 24 c8
	00 00 00	 mov	 QWORD PTR tv167[rsp], rax
  00375	eb 12		 jmp	 SHORT $LN51@list_ass_s
$LN50@list_ass_s:
  00377	48 8b 4c 24 78	 mov	 rcx, QWORD PTR s$[rsp]
  0037c	e8 00 00 00 00	 call	 _PyMem_DebugMalloc
  00381	48 89 84 24 c8
	00 00 00	 mov	 QWORD PTR tv167[rsp], rax
$LN51@list_ass_s:
  00389	48 8b 84 24 c8
	00 00 00	 mov	 rax, QWORD PTR tv167[rsp]
  00391	48 89 84 24 80
	00 00 00	 mov	 QWORD PTR recycle$[rsp], rax

; 671  :         if (recycle == NULL) {

  00399	48 83 bc 24 80
	00 00 00 00	 cmp	 QWORD PTR recycle$[rsp], 0
  003a2	75 0a		 jne	 SHORT $LN24@list_ass_s

; 672  :             PyErr_NoMemory();

  003a4	e8 00 00 00 00	 call	 PyErr_NoMemory

; 673  :             goto Error;

  003a9	e9 c8 02 00 00	 jmp	 $Error$20859
$LN24@list_ass_s:
$LN25@list_ass_s:

; 674  :         }
; 675  :     }
; 676  :     memcpy(recycle, &item[ilow], s);

  003ae	48 8b 84 24 a0
	00 00 00	 mov	 rax, QWORD PTR item$[rsp]
  003b6	48 8b 8c 24 08
	01 00 00	 mov	 rcx, QWORD PTR ilow$[rsp]
  003be	48 8d 04 c8	 lea	 rax, QWORD PTR [rax+rcx*8]
  003c2	4c 8b 44 24 78	 mov	 r8, QWORD PTR s$[rsp]
  003c7	48 8b d0	 mov	 rdx, rax
  003ca	48 8b 8c 24 80
	00 00 00	 mov	 rcx, QWORD PTR recycle$[rsp]
  003d2	e8 00 00 00 00	 call	 memcpy

; 677  : 
; 678  :     if (d < 0) { /* Delete -d items */

  003d7	48 83 bc 24 98
	00 00 00 00	 cmp	 QWORD PTR d$[rsp], 0
  003e0	0f 8d ad 00 00
	00		 jge	 $LN23@list_ass_s

; 679  :         memmove(&item[ihigh+d], &item[ihigh],
; 680  :             (Py_SIZE(a) - ihigh)*sizeof(PyObject *));

  003e6	48 8b 84 24 00
	01 00 00	 mov	 rax, QWORD PTR a$[rsp]
  003ee	48 8b 8c 24 10
	01 00 00	 mov	 rcx, QWORD PTR ihigh$[rsp]
  003f6	48 8b 40 60	 mov	 rax, QWORD PTR [rax+96]
  003fa	48 2b c1	 sub	 rax, rcx
  003fd	48 c1 e0 03	 shl	 rax, 3
  00401	48 8b 8c 24 a0
	00 00 00	 mov	 rcx, QWORD PTR item$[rsp]
  00409	48 8b 94 24 10
	01 00 00	 mov	 rdx, QWORD PTR ihigh$[rsp]
  00411	48 8d 0c d1	 lea	 rcx, QWORD PTR [rcx+rdx*8]
  00415	48 8b 94 24 98
	00 00 00	 mov	 rdx, QWORD PTR d$[rsp]
  0041d	4c 8b 84 24 10
	01 00 00	 mov	 r8, QWORD PTR ihigh$[rsp]
  00425	4c 03 c2	 add	 r8, rdx
  00428	49 8b d0	 mov	 rdx, r8
  0042b	4c 8b 84 24 a0
	00 00 00	 mov	 r8, QWORD PTR item$[rsp]
  00433	49 8d 14 d0	 lea	 rdx, QWORD PTR [r8+rdx*8]
  00437	48 89 94 24 d0
	00 00 00	 mov	 QWORD PTR tv185[rsp], rdx
  0043f	4c 8b c0	 mov	 r8, rax
  00442	48 8b d1	 mov	 rdx, rcx
  00445	48 8b 84 24 d0
	00 00 00	 mov	 rax, QWORD PTR tv185[rsp]
  0044d	48 8b c8	 mov	 rcx, rax
  00450	ff 15 00 00 00
	00		 call	 QWORD PTR __imp_memmove

; 681  :         list_resize(a, Py_SIZE(a) + d);

  00456	48 8b 84 24 00
	01 00 00	 mov	 rax, QWORD PTR a$[rsp]
  0045e	48 8b 40 60	 mov	 rax, QWORD PTR [rax+96]
  00462	48 03 84 24 98
	00 00 00	 add	 rax, QWORD PTR d$[rsp]
  0046a	48 8b d0	 mov	 rdx, rax
  0046d	48 8b 8c 24 00
	01 00 00	 mov	 rcx, QWORD PTR a$[rsp]
  00475	e8 00 00 00 00	 call	 list_resize

; 682  :         item = a->ob_item;

  0047a	48 8b 84 24 00
	01 00 00	 mov	 rax, QWORD PTR a$[rsp]
  00482	48 8b 40 70	 mov	 rax, QWORD PTR [rax+112]
  00486	48 89 84 24 a0
	00 00 00	 mov	 QWORD PTR item$[rsp], rax
  0048e	e9 d5 00 00 00	 jmp	 $LN22@list_ass_s
$LN23@list_ass_s:

; 683  :     }
; 684  :     else if (d > 0) { /* Insert d items */

  00493	48 83 bc 24 98
	00 00 00 00	 cmp	 QWORD PTR d$[rsp], 0
  0049c	0f 8e c6 00 00
	00		 jle	 $LN21@list_ass_s

; 685  :         k = Py_SIZE(a);

  004a2	48 8b 84 24 00
	01 00 00	 mov	 rax, QWORD PTR a$[rsp]
  004aa	48 8b 40 60	 mov	 rax, QWORD PTR [rax+96]
  004ae	48 89 84 24 88
	00 00 00	 mov	 QWORD PTR k$[rsp], rax

; 686  :         if (list_resize(a, k+d) < 0)

  004b6	48 8b 84 24 98
	00 00 00	 mov	 rax, QWORD PTR d$[rsp]
  004be	48 8b 8c 24 88
	00 00 00	 mov	 rcx, QWORD PTR k$[rsp]
  004c6	48 03 c8	 add	 rcx, rax
  004c9	48 8b c1	 mov	 rax, rcx
  004cc	48 8b d0	 mov	 rdx, rax
  004cf	48 8b 8c 24 00
	01 00 00	 mov	 rcx, QWORD PTR a$[rsp]
  004d7	e8 00 00 00 00	 call	 list_resize
  004dc	85 c0		 test	 eax, eax
  004de	7d 05		 jge	 SHORT $LN20@list_ass_s

; 687  :             goto Error;

  004e0	e9 91 01 00 00	 jmp	 $Error$20859
$LN20@list_ass_s:

; 688  :         item = a->ob_item;

  004e5	48 8b 84 24 00
	01 00 00	 mov	 rax, QWORD PTR a$[rsp]
  004ed	48 8b 40 70	 mov	 rax, QWORD PTR [rax+112]
  004f1	48 89 84 24 a0
	00 00 00	 mov	 QWORD PTR item$[rsp], rax

; 689  :         memmove(&item[ihigh+d], &item[ihigh],
; 690  :             (k - ihigh)*sizeof(PyObject *));

  004f9	48 8b 84 24 10
	01 00 00	 mov	 rax, QWORD PTR ihigh$[rsp]
  00501	48 8b 8c 24 88
	00 00 00	 mov	 rcx, QWORD PTR k$[rsp]
  00509	48 2b c8	 sub	 rcx, rax
  0050c	48 8b c1	 mov	 rax, rcx
  0050f	48 c1 e0 03	 shl	 rax, 3
  00513	48 8b 8c 24 a0
	00 00 00	 mov	 rcx, QWORD PTR item$[rsp]
  0051b	48 8b 94 24 10
	01 00 00	 mov	 rdx, QWORD PTR ihigh$[rsp]
  00523	48 8d 0c d1	 lea	 rcx, QWORD PTR [rcx+rdx*8]
  00527	48 8b 94 24 98
	00 00 00	 mov	 rdx, QWORD PTR d$[rsp]
  0052f	4c 8b 84 24 10
	01 00 00	 mov	 r8, QWORD PTR ihigh$[rsp]
  00537	4c 03 c2	 add	 r8, rdx
  0053a	49 8b d0	 mov	 rdx, r8
  0053d	4c 8b 84 24 a0
	00 00 00	 mov	 r8, QWORD PTR item$[rsp]
  00545	49 8d 14 d0	 lea	 rdx, QWORD PTR [r8+rdx*8]
  00549	48 89 94 24 d8
	00 00 00	 mov	 QWORD PTR tv208[rsp], rdx
  00551	4c 8b c0	 mov	 r8, rax
  00554	48 8b d1	 mov	 rdx, rcx
  00557	48 8b 84 24 d8
	00 00 00	 mov	 rax, QWORD PTR tv208[rsp]
  0055f	48 8b c8	 mov	 rcx, rax
  00562	ff 15 00 00 00
	00		 call	 QWORD PTR __imp_memmove
$LN21@list_ass_s:
$LN22@list_ass_s:

; 691  :     }
; 692  :     for (k = 0; k < n; k++, ilow++) {

  00568	48 c7 84 24 88
	00 00 00 00 00
	00 00		 mov	 QWORD PTR k$[rsp], 0
  00574	eb 26		 jmp	 SHORT $LN19@list_ass_s
$LN18@list_ass_s:
  00576	48 8b 84 24 88
	00 00 00	 mov	 rax, QWORD PTR k$[rsp]
  0057e	48 ff c0	 inc	 rax
  00581	48 89 84 24 88
	00 00 00	 mov	 QWORD PTR k$[rsp], rax
  00589	48 8b 84 24 08
	01 00 00	 mov	 rax, QWORD PTR ilow$[rsp]
  00591	48 ff c0	 inc	 rax
  00594	48 89 84 24 08
	01 00 00	 mov	 QWORD PTR ilow$[rsp], rax
$LN19@list_ass_s:
  0059c	48 8b 44 24 70	 mov	 rax, QWORD PTR n$[rsp]
  005a1	48 39 84 24 88
	00 00 00	 cmp	 QWORD PTR k$[rsp], rax
  005a9	7d 58		 jge	 SHORT $LN17@list_ass_s

; 693  :         PyObject *w = vitem[k];

  005ab	48 8b 44 24 20	 mov	 rax, QWORD PTR vitem$[rsp]
  005b0	48 8b 8c 24 88
	00 00 00	 mov	 rcx, QWORD PTR k$[rsp]
  005b8	48 8b 04 c8	 mov	 rax, QWORD PTR [rax+rcx*8]
  005bc	48 89 84 24 b0
	00 00 00	 mov	 QWORD PTR w$20904[rsp], rax
$LN16@list_ass_s:

; 694  :         Py_XINCREF(w);

  005c4	48 83 bc 24 b0
	00 00 00 00	 cmp	 QWORD PTR w$20904[rsp], 0
  005cd	74 0d		 je	 SHORT $LN13@list_ass_s
  005cf	48 8b 8c 24 b0
	00 00 00	 mov	 rcx, QWORD PTR w$20904[rsp]
  005d7	e8 00 00 00 00	 call	 _Py_IncRef
$LN13@list_ass_s:
  005dc	33 c0		 xor	 eax, eax
  005de	85 c0		 test	 eax, eax
  005e0	75 e2		 jne	 SHORT $LN16@list_ass_s

; 695  :         item[ilow] = w;

  005e2	48 8b 84 24 a0
	00 00 00	 mov	 rax, QWORD PTR item$[rsp]
  005ea	48 8b 8c 24 08
	01 00 00	 mov	 rcx, QWORD PTR ilow$[rsp]
  005f2	48 8b 94 24 b0
	00 00 00	 mov	 rdx, QWORD PTR w$20904[rsp]
  005fa	48 89 14 c8	 mov	 QWORD PTR [rax+rcx*8], rdx

; 696  :     }

  005fe	e9 73 ff ff ff	 jmp	 $LN18@list_ass_s
$LN17@list_ass_s:

; 697  :     for (k = norig - 1; k >= 0; --k)

  00603	48 8b 44 24 28	 mov	 rax, QWORD PTR norig$[rsp]
  00608	48 ff c8	 dec	 rax
  0060b	48 89 84 24 88
	00 00 00	 mov	 QWORD PTR k$[rsp], rax
  00613	eb 13		 jmp	 SHORT $LN12@list_ass_s
$LN11@list_ass_s:
  00615	48 8b 84 24 88
	00 00 00	 mov	 rax, QWORD PTR k$[rsp]
  0061d	48 ff c8	 dec	 rax
  00620	48 89 84 24 88
	00 00 00	 mov	 QWORD PTR k$[rsp], rax
$LN12@list_ass_s:
  00628	48 83 bc 24 88
	00 00 00 00	 cmp	 QWORD PTR k$[rsp], 0
  00631	7c 38		 jl	 SHORT $LN10@list_ass_s
$LN9@list_ass_s:

; 698  :         Py_XDECREF(recycle[k]);

  00633	48 8b 84 24 80
	00 00 00	 mov	 rax, QWORD PTR recycle$[rsp]
  0063b	48 8b 8c 24 88
	00 00 00	 mov	 rcx, QWORD PTR k$[rsp]
  00643	48 83 3c c8 00	 cmp	 QWORD PTR [rax+rcx*8], 0
  00648	74 19		 je	 SHORT $LN6@list_ass_s
  0064a	48 8b 84 24 80
	00 00 00	 mov	 rax, QWORD PTR recycle$[rsp]
  00652	48 8b 8c 24 88
	00 00 00	 mov	 rcx, QWORD PTR k$[rsp]
  0065a	48 8b 0c c8	 mov	 rcx, QWORD PTR [rax+rcx*8]
  0065e	e8 00 00 00 00	 call	 _Py_DecRef
$LN6@list_ass_s:
  00663	33 c0		 xor	 eax, eax
  00665	85 c0		 test	 eax, eax
  00667	75 ca		 jne	 SHORT $LN9@list_ass_s
  00669	eb aa		 jmp	 SHORT $LN11@list_ass_s
$LN10@list_ass_s:

; 699  :     result = 0;

  0066b	c7 84 24 90 00
	00 00 00 00 00
	00		 mov	 DWORD PTR result$[rsp], 0
$Error$20859:

; 700  :  Error:
; 701  :     if (recycle != recycle_on_stack)

  00676	48 8d 44 24 30	 lea	 rax, QWORD PTR recycle_on_stack$[rsp]
  0067b	48 39 84 24 80
	00 00 00	 cmp	 QWORD PTR recycle$[rsp], rax
  00683	74 3b		 je	 SHORT $LN5@list_ass_s

; 702  :         PyMem_FREE(recycle);

  00685	e8 00 00 00 00	 call	 _Py_PXCTX
  0068a	85 c0		 test	 eax, eax
  0068c	74 1a		 je	 SHORT $LN52@list_ass_s
  0068e	48 8b 8c 24 80
	00 00 00	 mov	 rcx, QWORD PTR recycle$[rsp]
  00696	e8 00 00 00 00	 call	 _PxMem_Free
  0069b	c7 84 24 e0 00
	00 00 00 00 00
	00		 mov	 DWORD PTR tv234[rsp], 0
  006a6	eb 18		 jmp	 SHORT $LN53@list_ass_s
$LN52@list_ass_s:
  006a8	48 8b 8c 24 80
	00 00 00	 mov	 rcx, QWORD PTR recycle$[rsp]
  006b0	e8 00 00 00 00	 call	 _PyMem_DebugFree
  006b5	c7 84 24 e0 00
	00 00 00 00 00
	00		 mov	 DWORD PTR tv234[rsp], 0
$LN53@list_ass_s:
$LN5@list_ass_s:
$LN4@list_ass_s:

; 703  :     Py_XDECREF(v_as_SF);

  006c0	48 83 bc 24 a8
	00 00 00 00	 cmp	 QWORD PTR v_as_SF$[rsp], 0
  006c9	74 0d		 je	 SHORT $LN1@list_ass_s
  006cb	48 8b 8c 24 a8
	00 00 00	 mov	 rcx, QWORD PTR v_as_SF$[rsp]
  006d3	e8 00 00 00 00	 call	 _Py_DecRef
$LN1@list_ass_s:
  006d8	33 c0		 xor	 eax, eax
  006da	85 c0		 test	 eax, eax
  006dc	75 e2		 jne	 SHORT $LN4@list_ass_s

; 704  :     return result;

  006de	8b 84 24 90 00
	00 00		 mov	 eax, DWORD PTR result$[rsp]
$LN43@list_ass_s:

; 705  : #undef b
; 706  : }

  006e5	48 81 c4 f8 00
	00 00		 add	 rsp, 248		; 000000f8H
  006ec	c3		 ret	 0
list_ass_slice ENDP
_TEXT	ENDS
;	COMDAT pdata
pdata	SEGMENT
$pdata$list_inplace_repeat DD imagerel list_inplace_repeat
	DD	imagerel list_inplace_repeat+353
	DD	imagerel $unwind$list_inplace_repeat
pdata	ENDS
;	COMDAT xdata
xdata	SEGMENT
$unwind$list_inplace_repeat DD 010e01H
	DD	0a20eH
; Function compile flags: /Odtp
xdata	ENDS
;	COMDAT list_inplace_repeat
_TEXT	SEGMENT
p$ = 32
i$ = 40
size$ = 48
items$ = 56
j$ = 64
o$20967 = 72
self$ = 96
n$ = 104
list_inplace_repeat PROC				; COMDAT

; 722  : {

  00000	48 89 54 24 10	 mov	 QWORD PTR [rsp+16], rdx
  00005	48 89 4c 24 08	 mov	 QWORD PTR [rsp+8], rcx
  0000a	48 83 ec 58	 sub	 rsp, 88			; 00000058H

; 723  :     PyObject **items;
; 724  :     Py_ssize_t size, i, j, p;
; 725  : 
; 726  :     /*
; 727  :     if (Px_PROTECTION_ERROR(self))
; 728  :         return NULL;
; 729  :     */
; 730  : 
; 731  :     size = PyList_GET_SIZE(self);

  0000e	48 8b 44 24 60	 mov	 rax, QWORD PTR self$[rsp]
  00013	48 8b 40 60	 mov	 rax, QWORD PTR [rax+96]
  00017	48 89 44 24 30	 mov	 QWORD PTR size$[rsp], rax

; 732  :     if (size == 0 || n == 1) {

  0001c	48 83 7c 24 30
	00		 cmp	 QWORD PTR size$[rsp], 0
  00022	74 08		 je	 SHORT $LN10@list_inpla
  00024	48 83 7c 24 68
	01		 cmp	 QWORD PTR n$[rsp], 1
  0002a	75 14		 jne	 SHORT $LN11@list_inpla
$LN10@list_inpla:

; 733  :         Py_INCREF(self);

  0002c	48 8b 4c 24 60	 mov	 rcx, QWORD PTR self$[rsp]
  00031	e8 00 00 00 00	 call	 _Py_IncRef

; 734  :         return (PyObject *)self;

  00036	48 8b 44 24 60	 mov	 rax, QWORD PTR self$[rsp]
  0003b	e9 1c 01 00 00	 jmp	 $LN12@list_inpla
$LN11@list_inpla:

; 735  :     }
; 736  : 
; 737  :     if (n < 1) {

  00040	48 83 7c 24 68
	01		 cmp	 QWORD PTR n$[rsp], 1
  00046	7d 1e		 jge	 SHORT $LN9@list_inpla

; 738  :         (void)list_clear(self);

  00048	48 8b 4c 24 60	 mov	 rcx, QWORD PTR self$[rsp]
  0004d	e8 00 00 00 00	 call	 list_clear

; 739  :         Py_INCREF(self);

  00052	48 8b 4c 24 60	 mov	 rcx, QWORD PTR self$[rsp]
  00057	e8 00 00 00 00	 call	 _Py_IncRef

; 740  :         return (PyObject *)self;

  0005c	48 8b 44 24 60	 mov	 rax, QWORD PTR self$[rsp]
  00061	e9 f6 00 00 00	 jmp	 $LN12@list_inpla
$LN9@list_inpla:

; 741  :     }
; 742  : 
; 743  :     if (size > PY_SSIZE_T_MAX / n) {

  00066	48 b8 ff ff ff
	ff ff ff ff 7f	 mov	 rax, 9223372036854775807 ; 7fffffffffffffffH
  00070	48 99		 cdq
  00072	48 f7 7c 24 68	 idiv	 QWORD PTR n$[rsp]
  00077	48 39 44 24 30	 cmp	 QWORD PTR size$[rsp], rax
  0007c	7e 0a		 jle	 SHORT $LN8@list_inpla

; 744  :         return PyErr_NoMemory();

  0007e	e8 00 00 00 00	 call	 PyErr_NoMemory
  00083	e9 d4 00 00 00	 jmp	 $LN12@list_inpla
$LN8@list_inpla:

; 745  :     }
; 746  : 
; 747  :     if (list_resize(self, size*n) == -1)

  00088	48 8b 44 24 30	 mov	 rax, QWORD PTR size$[rsp]
  0008d	48 0f af 44 24
	68		 imul	 rax, QWORD PTR n$[rsp]
  00093	48 8b d0	 mov	 rdx, rax
  00096	48 8b 4c 24 60	 mov	 rcx, QWORD PTR self$[rsp]
  0009b	e8 00 00 00 00	 call	 list_resize
  000a0	83 f8 ff	 cmp	 eax, -1
  000a3	75 07		 jne	 SHORT $LN7@list_inpla

; 748  :         return NULL;

  000a5	33 c0		 xor	 eax, eax
  000a7	e9 b0 00 00 00	 jmp	 $LN12@list_inpla
$LN7@list_inpla:

; 749  : 
; 750  :     p = size;

  000ac	48 8b 44 24 30	 mov	 rax, QWORD PTR size$[rsp]
  000b1	48 89 44 24 20	 mov	 QWORD PTR p$[rsp], rax

; 751  :     items = self->ob_item;

  000b6	48 8b 44 24 60	 mov	 rax, QWORD PTR self$[rsp]
  000bb	48 8b 40 70	 mov	 rax, QWORD PTR [rax+112]
  000bf	48 89 44 24 38	 mov	 QWORD PTR items$[rsp], rax

; 752  :     for (i = 1; i < n; i++) { /* Start counting at 1, not 0 */

  000c4	48 c7 44 24 28
	01 00 00 00	 mov	 QWORD PTR i$[rsp], 1
  000cd	eb 0d		 jmp	 SHORT $LN6@list_inpla
$LN5@list_inpla:
  000cf	48 8b 44 24 28	 mov	 rax, QWORD PTR i$[rsp]
  000d4	48 ff c0	 inc	 rax
  000d7	48 89 44 24 28	 mov	 QWORD PTR i$[rsp], rax
$LN6@list_inpla:
  000dc	48 8b 44 24 68	 mov	 rax, QWORD PTR n$[rsp]
  000e1	48 39 44 24 28	 cmp	 QWORD PTR i$[rsp], rax
  000e6	7d 65		 jge	 SHORT $LN4@list_inpla

; 753  :         for (j = 0; j < size; j++) {

  000e8	48 c7 44 24 40
	00 00 00 00	 mov	 QWORD PTR j$[rsp], 0
  000f1	eb 0d		 jmp	 SHORT $LN3@list_inpla
$LN2@list_inpla:
  000f3	48 8b 44 24 40	 mov	 rax, QWORD PTR j$[rsp]
  000f8	48 ff c0	 inc	 rax
  000fb	48 89 44 24 40	 mov	 QWORD PTR j$[rsp], rax
$LN3@list_inpla:
  00100	48 8b 44 24 30	 mov	 rax, QWORD PTR size$[rsp]
  00105	48 39 44 24 40	 cmp	 QWORD PTR j$[rsp], rax
  0010a	7d 3f		 jge	 SHORT $LN1@list_inpla

; 754  :             PyObject *o = items[j];

  0010c	48 8b 44 24 38	 mov	 rax, QWORD PTR items$[rsp]
  00111	48 8b 4c 24 40	 mov	 rcx, QWORD PTR j$[rsp]
  00116	48 8b 04 c8	 mov	 rax, QWORD PTR [rax+rcx*8]
  0011a	48 89 44 24 48	 mov	 QWORD PTR o$20967[rsp], rax

; 755  :             Py_INCREF(o);

  0011f	48 8b 4c 24 48	 mov	 rcx, QWORD PTR o$20967[rsp]
  00124	e8 00 00 00 00	 call	 _Py_IncRef

; 756  :             items[p++] = o;

  00129	48 8b 44 24 38	 mov	 rax, QWORD PTR items$[rsp]
  0012e	48 8b 4c 24 20	 mov	 rcx, QWORD PTR p$[rsp]
  00133	48 8b 54 24 48	 mov	 rdx, QWORD PTR o$20967[rsp]
  00138	48 89 14 c8	 mov	 QWORD PTR [rax+rcx*8], rdx
  0013c	48 8b 44 24 20	 mov	 rax, QWORD PTR p$[rsp]
  00141	48 ff c0	 inc	 rax
  00144	48 89 44 24 20	 mov	 QWORD PTR p$[rsp], rax

; 757  :         }

  00149	eb a8		 jmp	 SHORT $LN2@list_inpla
$LN1@list_inpla:

; 758  :     }

  0014b	eb 82		 jmp	 SHORT $LN5@list_inpla
$LN4@list_inpla:

; 759  :     Py_INCREF(self);

  0014d	48 8b 4c 24 60	 mov	 rcx, QWORD PTR self$[rsp]
  00152	e8 00 00 00 00	 call	 _Py_IncRef

; 760  :     return (PyObject *)self;

  00157	48 8b 44 24 60	 mov	 rax, QWORD PTR self$[rsp]
$LN12@list_inpla:

; 761  : }

  0015c	48 83 c4 58	 add	 rsp, 88			; 00000058H
  00160	c3		 ret	 0
list_inplace_repeat ENDP
_TEXT	ENDS
;	COMDAT pdata
pdata	SEGMENT
$pdata$list_ass_item DD imagerel list_ass_item
	DD	imagerel list_ass_item+183
	DD	imagerel $unwind$list_ass_item
pdata	ENDS
;	COMDAT xdata
xdata	SEGMENT
$unwind$list_ass_item DD 011301H
	DD	06213H
; Function compile flags: /Odtp
xdata	ENDS
;	COMDAT list_ass_item
_TEXT	SEGMENT
old_value$ = 32
a$ = 64
i$ = 72
v$ = 80
list_ass_item PROC					; COMDAT

; 765  : {

  00000	4c 89 44 24 18	 mov	 QWORD PTR [rsp+24], r8
  00005	48 89 54 24 10	 mov	 QWORD PTR [rsp+16], rdx
  0000a	48 89 4c 24 08	 mov	 QWORD PTR [rsp+8], rcx
  0000f	48 83 ec 38	 sub	 rsp, 56			; 00000038H

; 766  :     PyObject *old_value;
; 767  :     if (i < 0 || i >= Py_SIZE(a)) {

  00013	48 83 7c 24 48
	00		 cmp	 QWORD PTR i$[rsp], 0
  00019	7c 10		 jl	 SHORT $LN2@list_ass_i
  0001b	48 8b 44 24 40	 mov	 rax, QWORD PTR a$[rsp]
  00020	48 8b 40 60	 mov	 rax, QWORD PTR [rax+96]
  00024	48 39 44 24 48	 cmp	 QWORD PTR i$[rsp], rax
  00029	7c 1a		 jl	 SHORT $LN3@list_ass_i
$LN2@list_ass_i:

; 768  :         PyErr_SetString(PyExc_IndexError,
; 769  :                         "list assignment index out of range");

  0002b	48 8d 15 00 00
	00 00		 lea	 rdx, OFFSET FLAT:??_C@_0CD@MGPAAEOB@list?5assignment?5index?5out?5of?5ran@
  00032	48 8b 0d 00 00
	00 00		 mov	 rcx, QWORD PTR PyExc_IndexError
  00039	e8 00 00 00 00	 call	 PyErr_SetString

; 770  :         return -1;

  0003e	b8 ff ff ff ff	 mov	 eax, -1
  00043	eb 6d		 jmp	 SHORT $LN4@list_ass_i
$LN3@list_ass_i:

; 771  :     }
; 772  :     if (v == NULL)

  00045	48 83 7c 24 50
	00		 cmp	 QWORD PTR v$[rsp], 0
  0004b	75 21		 jne	 SHORT $LN1@list_ass_i

; 773  :         /* Px_CHECK_PROTECTION handled by list_ass_slice() */
; 774  :         return list_ass_slice(a, i, i+1, v);

  0004d	48 8b 44 24 48	 mov	 rax, QWORD PTR i$[rsp]
  00052	48 ff c0	 inc	 rax
  00055	4c 8b 4c 24 50	 mov	 r9, QWORD PTR v$[rsp]
  0005a	4c 8b c0	 mov	 r8, rax
  0005d	48 8b 54 24 48	 mov	 rdx, QWORD PTR i$[rsp]
  00062	48 8b 4c 24 40	 mov	 rcx, QWORD PTR a$[rsp]
  00067	e8 00 00 00 00	 call	 list_ass_slice
  0006c	eb 44		 jmp	 SHORT $LN4@list_ass_i
$LN1@list_ass_i:

; 775  :     old_value = a->ob_item[i];

  0006e	48 8b 44 24 40	 mov	 rax, QWORD PTR a$[rsp]
  00073	48 8b 40 70	 mov	 rax, QWORD PTR [rax+112]
  00077	48 8b 4c 24 48	 mov	 rcx, QWORD PTR i$[rsp]
  0007c	48 8b 04 c8	 mov	 rax, QWORD PTR [rax+rcx*8]
  00080	48 89 44 24 20	 mov	 QWORD PTR old_value$[rsp], rax

; 776  :     /*
; 777  :     if (Px_ASSIGNMENT_ERROR(a, old_value))
; 778  :         return -1;
; 779  :     */
; 780  :     Py_INCREF(v);

  00085	48 8b 4c 24 50	 mov	 rcx, QWORD PTR v$[rsp]
  0008a	e8 00 00 00 00	 call	 _Py_IncRef

; 781  :     a->ob_item[i] = v;

  0008f	48 8b 44 24 40	 mov	 rax, QWORD PTR a$[rsp]
  00094	48 8b 40 70	 mov	 rax, QWORD PTR [rax+112]
  00098	48 8b 4c 24 48	 mov	 rcx, QWORD PTR i$[rsp]
  0009d	48 8b 54 24 50	 mov	 rdx, QWORD PTR v$[rsp]
  000a2	48 89 14 c8	 mov	 QWORD PTR [rax+rcx*8], rdx

; 782  :     Py_DECREF(old_value);

  000a6	48 8b 4c 24 20	 mov	 rcx, QWORD PTR old_value$[rsp]
  000ab	e8 00 00 00 00	 call	 _Py_DecRef

; 783  :     return 0;

  000b0	33 c0		 xor	 eax, eax
$LN4@list_ass_i:

; 784  : }

  000b2	48 83 c4 38	 add	 rsp, 56			; 00000038H
  000b6	c3		 ret	 0
list_ass_item ENDP
_TEXT	ENDS
PUBLIC	??_C@_09EEABNKNH@nO?3insert?$AA@		; `string'
EXTRN	_Py_NoneStruct:BYTE
EXTRN	PyArg_ParseTuple:PROC
;	COMDAT pdata
pdata	SEGMENT
$pdata$listinsert DD imagerel listinsert
	DD	imagerel listinsert+101
	DD	imagerel $unwind$listinsert
pdata	ENDS
;	COMDAT xdata
xdata	SEGMENT
$unwind$listinsert DD 010e01H
	DD	0620eH
xdata	ENDS
;	COMDAT ??_C@_09EEABNKNH@nO?3insert?$AA@
CONST	SEGMENT
??_C@_09EEABNKNH@nO?3insert?$AA@ DB 'nO:insert', 00H	; `string'
; Function compile flags: /Odtp
CONST	ENDS
;	COMDAT listinsert
_TEXT	SEGMENT
v$ = 32
i$ = 40
self$ = 64
args$ = 72
listinsert PROC						; COMDAT

; 788  : {

  00000	48 89 54 24 10	 mov	 QWORD PTR [rsp+16], rdx
  00005	48 89 4c 24 08	 mov	 QWORD PTR [rsp+8], rcx
  0000a	48 83 ec 38	 sub	 rsp, 56			; 00000038H

; 789  :     Py_ssize_t i;
; 790  :     PyObject *v;
; 791  :     if (!PyArg_ParseTuple(args, "nO:insert", &i, &v))

  0000e	4c 8d 4c 24 20	 lea	 r9, QWORD PTR v$[rsp]
  00013	4c 8d 44 24 28	 lea	 r8, QWORD PTR i$[rsp]
  00018	48 8d 15 00 00
	00 00		 lea	 rdx, OFFSET FLAT:??_C@_09EEABNKNH@nO?3insert?$AA@
  0001f	48 8b 4c 24 48	 mov	 rcx, QWORD PTR args$[rsp]
  00024	e8 00 00 00 00	 call	 PyArg_ParseTuple
  00029	85 c0		 test	 eax, eax
  0002b	75 04		 jne	 SHORT $LN2@listinsert

; 792  :         return NULL;

  0002d	33 c0		 xor	 eax, eax
  0002f	eb 2f		 jmp	 SHORT $LN3@listinsert
$LN2@listinsert:

; 793  :     /* Px_CHECK_PROTECTION handled by ins1()->list_resize() */
; 794  :     if (ins1(self, i, v) == 0)

  00031	4c 8b 44 24 20	 mov	 r8, QWORD PTR v$[rsp]
  00036	48 8b 54 24 28	 mov	 rdx, QWORD PTR i$[rsp]
  0003b	48 8b 4c 24 40	 mov	 rcx, QWORD PTR self$[rsp]
  00040	e8 00 00 00 00	 call	 ins1
  00045	85 c0		 test	 eax, eax
  00047	75 15		 jne	 SHORT $LN1@listinsert

; 795  :         Py_RETURN_NONE;

  00049	48 8d 0d 00 00
	00 00		 lea	 rcx, OFFSET FLAT:_Py_NoneStruct
  00050	e8 00 00 00 00	 call	 _Py_IncRef
  00055	48 8d 05 00 00
	00 00		 lea	 rax, OFFSET FLAT:_Py_NoneStruct
  0005c	eb 02		 jmp	 SHORT $LN3@listinsert
$LN1@listinsert:

; 796  :     return NULL;

  0005e	33 c0		 xor	 eax, eax
$LN3@listinsert:

; 797  : }

  00060	48 83 c4 38	 add	 rsp, 56			; 00000038H
  00064	c3		 ret	 0
listinsert ENDP
_TEXT	ENDS
;	COMDAT pdata
pdata	SEGMENT
$pdata$listclear DD imagerel listclear
	DD	imagerel listclear+43
	DD	imagerel $unwind$listclear
pdata	ENDS
;	COMDAT xdata
xdata	SEGMENT
$unwind$listclear DD 010901H
	DD	04209H
; Function compile flags: /Odtp
xdata	ENDS
;	COMDAT listclear
_TEXT	SEGMENT
self$ = 48
listclear PROC						; COMDAT

; 801  : {

  00000	48 89 4c 24 08	 mov	 QWORD PTR [rsp+8], rcx
  00005	48 83 ec 28	 sub	 rsp, 40			; 00000028H

; 802  :     /*
; 803  :     if (Px_PROTECTION_ERROR(self))
; 804  :         return NULL;
; 805  :     */
; 806  :     list_clear(self);

  00009	48 8b 4c 24 30	 mov	 rcx, QWORD PTR self$[rsp]
  0000e	e8 00 00 00 00	 call	 list_clear

; 807  :     Py_RETURN_NONE;

  00013	48 8d 0d 00 00
	00 00		 lea	 rcx, OFFSET FLAT:_Py_NoneStruct
  0001a	e8 00 00 00 00	 call	 _Py_IncRef
  0001f	48 8d 05 00 00
	00 00		 lea	 rax, OFFSET FLAT:_Py_NoneStruct

; 808  : }

  00026	48 83 c4 28	 add	 rsp, 40			; 00000028H
  0002a	c3		 ret	 0
listclear ENDP
_TEXT	ENDS
;	COMDAT pdata
pdata	SEGMENT
$pdata$listcopy DD imagerel listcopy
	DD	imagerel listcopy+35
	DD	imagerel $unwind$listcopy
pdata	ENDS
;	COMDAT xdata
xdata	SEGMENT
$unwind$listcopy DD 010901H
	DD	04209H
; Function compile flags: /Odtp
xdata	ENDS
;	COMDAT listcopy
_TEXT	SEGMENT
self$ = 48
listcopy PROC						; COMDAT

; 812  : {

  00000	48 89 4c 24 08	 mov	 QWORD PTR [rsp+8], rcx
  00005	48 83 ec 28	 sub	 rsp, 40			; 00000028H

; 813  :     return list_slice(self, 0, Py_SIZE(self));

  00009	48 8b 44 24 30	 mov	 rax, QWORD PTR self$[rsp]
  0000e	4c 8b 40 60	 mov	 r8, QWORD PTR [rax+96]
  00012	33 d2		 xor	 edx, edx
  00014	48 8b 4c 24 30	 mov	 rcx, QWORD PTR self$[rsp]
  00019	e8 00 00 00 00	 call	 list_slice

; 814  : }

  0001e	48 83 c4 28	 add	 rsp, 40			; 00000028H
  00022	c3		 ret	 0
listcopy ENDP
_TEXT	ENDS
;	COMDAT pdata
pdata	SEGMENT
$pdata$listappend DD imagerel listappend
	DD	imagerel listappend+61
	DD	imagerel $unwind$listappend
pdata	ENDS
;	COMDAT xdata
xdata	SEGMENT
$unwind$listappend DD 010e01H
	DD	0420eH
; Function compile flags: /Odtp
xdata	ENDS
;	COMDAT listappend
_TEXT	SEGMENT
self$ = 48
v$ = 56
listappend PROC						; COMDAT

; 818  : {

  00000	48 89 54 24 10	 mov	 QWORD PTR [rsp+16], rdx
  00005	48 89 4c 24 08	 mov	 QWORD PTR [rsp+8], rcx
  0000a	48 83 ec 28	 sub	 rsp, 40			; 00000028H

; 819  :     /* Px_CHECK_PROTECTION handled by app1()->list_resize() */
; 820  :     if (app1(self, v) == 0)

  0000e	48 8b 54 24 38	 mov	 rdx, QWORD PTR v$[rsp]
  00013	48 8b 4c 24 30	 mov	 rcx, QWORD PTR self$[rsp]
  00018	e8 00 00 00 00	 call	 app1
  0001d	85 c0		 test	 eax, eax
  0001f	75 15		 jne	 SHORT $LN1@listappend

; 821  :         Py_RETURN_NONE;

  00021	48 8d 0d 00 00
	00 00		 lea	 rcx, OFFSET FLAT:_Py_NoneStruct
  00028	e8 00 00 00 00	 call	 _Py_IncRef
  0002d	48 8d 05 00 00
	00 00		 lea	 rax, OFFSET FLAT:_Py_NoneStruct
  00034	eb 02		 jmp	 SHORT $LN2@listappend
$LN1@listappend:

; 822  :     return NULL;

  00036	33 c0		 xor	 eax, eax
$LN2@listappend:

; 823  : }

  00038	48 83 c4 28	 add	 rsp, 40			; 00000028H
  0003c	c3		 ret	 0
listappend ENDP
_TEXT	ENDS
PUBLIC	??_C@_0BK@PNNFBCAN@argument?5must?5be?5iterable?$AA@ ; `string'
EXTRN	PyErr_Clear:PROC
EXTRN	PyErr_ExceptionMatches:PROC
EXTRN	PyExc_StopIteration:QWORD
EXTRN	PyErr_Occurred:PROC
EXTRN	_PyObject_LengthHint:PROC
EXTRN	PyObject_GetIter:PROC
EXTRN	PyTuple_Type:BYTE
;	COMDAT pdata
pdata	SEGMENT
$pdata$listextend DD imagerel listextend
	DD	imagerel listextend+1048
	DD	imagerel $unwind$listextend
pdata	ENDS
;	COMDAT xdata
xdata	SEGMENT
$unwind$listextend DD 021101H
	DD	0130111H
xdata	ENDS
;	COMDAT ??_C@_0BK@PNNFBCAN@argument?5must?5be?5iterable?$AA@
CONST	SEGMENT
??_C@_0BK@PNNFBCAN@argument?5must?5be?5iterable?$AA@ DB 'argument must be'
	DB	' iterable', 00H				; `string'
; Function compile flags: /Odtp
CONST	ENDS
;	COMDAT listextend
_TEXT	SEGMENT
it$ = 32
iternext$ = 40
i$ = 48
mn$ = 56
n$ = 64
m$ = 72
dest$21039 = 80
src$21038 = 88
o$21059 = 96
item$21077 = 104
status$21089 = 112
tv79 = 120
tv128 = 128
self$ = 160
b$ = 168
listextend PROC						; COMDAT

; 827  : {

  00000	48 89 54 24 10	 mov	 QWORD PTR [rsp+16], rdx
  00005	48 89 4c 24 08	 mov	 QWORD PTR [rsp+8], rcx
  0000a	48 81 ec 98 00
	00 00		 sub	 rsp, 152		; 00000098H

; 828  :     PyObject *it;      /* iter(v) */
; 829  :     Py_ssize_t m;                  /* size of self */
; 830  :     Py_ssize_t n;                  /* guess for size of b */
; 831  :     Py_ssize_t mn;                 /* m + n */
; 832  :     Py_ssize_t i;
; 833  :     PyObject *(*iternext)(PyObject *);
; 834  : 
; 835  :     /*
; 836  :     if (Px_PROTECTION_ERROR(self))
; 837  :         return NULL;
; 838  :     */
; 839  : 
; 840  :     /* Special cases:
; 841  :        1) lists and tuples which can use PySequence_Fast ops
; 842  :        2) extending self to self requires making a copy first
; 843  :     */
; 844  :     if (PyList_CheckExact(b) || PyTuple_CheckExact(b) || (PyObject *)self == b) {

  00011	48 8d 05 00 00
	00 00		 lea	 rax, OFFSET FLAT:PyList_Type
  00018	48 8b 8c 24 a8
	00 00 00	 mov	 rcx, QWORD PTR b$[rsp]
  00020	48 39 41 58	 cmp	 QWORD PTR [rcx+88], rax
  00024	74 2b		 je	 SHORT $LN21@listextend
  00026	48 8d 05 00 00
	00 00		 lea	 rax, OFFSET FLAT:PyTuple_Type
  0002d	48 8b 8c 24 a8
	00 00 00	 mov	 rcx, QWORD PTR b$[rsp]
  00035	48 39 41 58	 cmp	 QWORD PTR [rcx+88], rax
  00039	74 16		 je	 SHORT $LN21@listextend
  0003b	48 8b 84 24 a8
	00 00 00	 mov	 rax, QWORD PTR b$[rsp]
  00043	48 39 84 24 a0
	00 00 00	 cmp	 QWORD PTR self$[rsp], rax
  0004b	0f 85 d5 01 00
	00		 jne	 $LN22@listextend
$LN21@listextend:

; 845  :         PyObject **src, **dest;
; 846  :         b = PySequence_Fast(b, "argument must be iterable");

  00051	48 8d 15 00 00
	00 00		 lea	 rdx, OFFSET FLAT:??_C@_0BK@PNNFBCAN@argument?5must?5be?5iterable?$AA@
  00058	48 8b 8c 24 a8
	00 00 00	 mov	 rcx, QWORD PTR b$[rsp]
  00060	e8 00 00 00 00	 call	 PySequence_Fast
  00065	48 89 84 24 a8
	00 00 00	 mov	 QWORD PTR b$[rsp], rax

; 847  :         if (!b)

  0006d	48 83 bc 24 a8
	00 00 00 00	 cmp	 QWORD PTR b$[rsp], 0
  00076	75 07		 jne	 SHORT $LN20@listextend

; 848  :             return NULL;

  00078	33 c0		 xor	 eax, eax
  0007a	e9 91 03 00 00	 jmp	 $LN23@listextend
$LN20@listextend:

; 849  :         n = PySequence_Fast_GET_SIZE(b);

  0007f	48 8b 84 24 a8
	00 00 00	 mov	 rax, QWORD PTR b$[rsp]
  00087	48 8b 40 58	 mov	 rax, QWORD PTR [rax+88]
  0008b	8b 80 00 01 00
	00		 mov	 eax, DWORD PTR [rax+256]
  00091	25 00 00 00 02	 and	 eax, 33554432		; 02000000H
  00096	85 c0		 test	 eax, eax
  00098	74 13		 je	 SHORT $LN25@listextend
  0009a	48 8b 84 24 a8
	00 00 00	 mov	 rax, QWORD PTR b$[rsp]
  000a2	48 8b 40 60	 mov	 rax, QWORD PTR [rax+96]
  000a6	48 89 44 24 78	 mov	 QWORD PTR tv79[rsp], rax
  000ab	eb 11		 jmp	 SHORT $LN26@listextend
$LN25@listextend:
  000ad	48 8b 84 24 a8
	00 00 00	 mov	 rax, QWORD PTR b$[rsp]
  000b5	48 8b 40 60	 mov	 rax, QWORD PTR [rax+96]
  000b9	48 89 44 24 78	 mov	 QWORD PTR tv79[rsp], rax
$LN26@listextend:
  000be	48 8b 44 24 78	 mov	 rax, QWORD PTR tv79[rsp]
  000c3	48 89 44 24 40	 mov	 QWORD PTR n$[rsp], rax

; 850  :         if (n == 0) {

  000c8	48 83 7c 24 40
	00		 cmp	 QWORD PTR n$[rsp], 0
  000ce	75 25		 jne	 SHORT $LN19@listextend

; 851  :             /* short circuit when b is empty */
; 852  :             Py_DECREF(b);

  000d0	48 8b 8c 24 a8
	00 00 00	 mov	 rcx, QWORD PTR b$[rsp]
  000d8	e8 00 00 00 00	 call	 _Py_DecRef

; 853  :             Py_RETURN_NONE;

  000dd	48 8d 0d 00 00
	00 00		 lea	 rcx, OFFSET FLAT:_Py_NoneStruct
  000e4	e8 00 00 00 00	 call	 _Py_IncRef
  000e9	48 8d 05 00 00
	00 00		 lea	 rax, OFFSET FLAT:_Py_NoneStruct
  000f0	e9 1b 03 00 00	 jmp	 $LN23@listextend
$LN19@listextend:

; 854  :         }
; 855  :         m = Py_SIZE(self);

  000f5	48 8b 84 24 a0
	00 00 00	 mov	 rax, QWORD PTR self$[rsp]
  000fd	48 8b 40 60	 mov	 rax, QWORD PTR [rax+96]
  00101	48 89 44 24 48	 mov	 QWORD PTR m$[rsp], rax

; 856  :         if (list_resize(self, m + n) == -1) {

  00106	48 8b 44 24 40	 mov	 rax, QWORD PTR n$[rsp]
  0010b	48 8b 4c 24 48	 mov	 rcx, QWORD PTR m$[rsp]
  00110	48 03 c8	 add	 rcx, rax
  00113	48 8b c1	 mov	 rax, rcx
  00116	48 8b d0	 mov	 rdx, rax
  00119	48 8b 8c 24 a0
	00 00 00	 mov	 rcx, QWORD PTR self$[rsp]
  00121	e8 00 00 00 00	 call	 list_resize
  00126	83 f8 ff	 cmp	 eax, -1
  00129	75 14		 jne	 SHORT $LN18@listextend

; 857  :             Py_DECREF(b);

  0012b	48 8b 8c 24 a8
	00 00 00	 mov	 rcx, QWORD PTR b$[rsp]
  00133	e8 00 00 00 00	 call	 _Py_DecRef

; 858  :             return NULL;

  00138	33 c0		 xor	 eax, eax
  0013a	e9 d1 02 00 00	 jmp	 $LN23@listextend
$LN18@listextend:

; 859  :         }
; 860  :         /* note that we may still have self == b here for the
; 861  :          * situation a.extend(a), but the following code works
; 862  :          * in that case too.  Just make sure to resize self
; 863  :          * before calling PySequence_Fast_ITEMS.
; 864  :          */
; 865  :         /* populate the end of self with b's items */
; 866  :         src = PySequence_Fast_ITEMS(b);

  0013f	48 8b 84 24 a8
	00 00 00	 mov	 rax, QWORD PTR b$[rsp]
  00147	48 8b 40 58	 mov	 rax, QWORD PTR [rax+88]
  0014b	8b 80 00 01 00
	00		 mov	 eax, DWORD PTR [rax+256]
  00151	25 00 00 00 02	 and	 eax, 33554432		; 02000000H
  00156	85 c0		 test	 eax, eax
  00158	74 16		 je	 SHORT $LN27@listextend
  0015a	48 8b 84 24 a8
	00 00 00	 mov	 rax, QWORD PTR b$[rsp]
  00162	48 8b 40 70	 mov	 rax, QWORD PTR [rax+112]
  00166	48 89 84 24 80
	00 00 00	 mov	 QWORD PTR tv128[rsp], rax
  0016e	eb 14		 jmp	 SHORT $LN28@listextend
$LN27@listextend:
  00170	48 8b 84 24 a8
	00 00 00	 mov	 rax, QWORD PTR b$[rsp]
  00178	48 83 c0 70	 add	 rax, 112		; 00000070H
  0017c	48 89 84 24 80
	00 00 00	 mov	 QWORD PTR tv128[rsp], rax
$LN28@listextend:
  00184	48 8b 84 24 80
	00 00 00	 mov	 rax, QWORD PTR tv128[rsp]
  0018c	48 89 44 24 58	 mov	 QWORD PTR src$21038[rsp], rax

; 867  :         dest = self->ob_item + m;

  00191	48 8b 84 24 a0
	00 00 00	 mov	 rax, QWORD PTR self$[rsp]
  00199	48 8b 40 70	 mov	 rax, QWORD PTR [rax+112]
  0019d	48 8b 4c 24 48	 mov	 rcx, QWORD PTR m$[rsp]
  001a2	48 8d 04 c8	 lea	 rax, QWORD PTR [rax+rcx*8]
  001a6	48 89 44 24 50	 mov	 QWORD PTR dest$21039[rsp], rax

; 868  :         for (i = 0; i < n; i++) {

  001ab	48 c7 44 24 30
	00 00 00 00	 mov	 QWORD PTR i$[rsp], 0
  001b4	eb 0d		 jmp	 SHORT $LN17@listextend
$LN16@listextend:
  001b6	48 8b 44 24 30	 mov	 rax, QWORD PTR i$[rsp]
  001bb	48 ff c0	 inc	 rax
  001be	48 89 44 24 30	 mov	 QWORD PTR i$[rsp], rax
$LN17@listextend:
  001c3	48 8b 44 24 40	 mov	 rax, QWORD PTR n$[rsp]
  001c8	48 39 44 24 30	 cmp	 QWORD PTR i$[rsp], rax
  001cd	7d 32		 jge	 SHORT $LN15@listextend

; 869  :             PyObject *o = src[i];

  001cf	48 8b 44 24 58	 mov	 rax, QWORD PTR src$21038[rsp]
  001d4	48 8b 4c 24 30	 mov	 rcx, QWORD PTR i$[rsp]
  001d9	48 8b 04 c8	 mov	 rax, QWORD PTR [rax+rcx*8]
  001dd	48 89 44 24 60	 mov	 QWORD PTR o$21059[rsp], rax

; 870  :             Py_INCREF(o);

  001e2	48 8b 4c 24 60	 mov	 rcx, QWORD PTR o$21059[rsp]
  001e7	e8 00 00 00 00	 call	 _Py_IncRef

; 871  :             dest[i] = o;

  001ec	48 8b 44 24 50	 mov	 rax, QWORD PTR dest$21039[rsp]
  001f1	48 8b 4c 24 30	 mov	 rcx, QWORD PTR i$[rsp]
  001f6	48 8b 54 24 60	 mov	 rdx, QWORD PTR o$21059[rsp]
  001fb	48 89 14 c8	 mov	 QWORD PTR [rax+rcx*8], rdx

; 872  :         }

  001ff	eb b5		 jmp	 SHORT $LN16@listextend
$LN15@listextend:

; 873  :         Py_DECREF(b);

  00201	48 8b 8c 24 a8
	00 00 00	 mov	 rcx, QWORD PTR b$[rsp]
  00209	e8 00 00 00 00	 call	 _Py_DecRef

; 874  :         Py_RETURN_NONE;

  0020e	48 8d 0d 00 00
	00 00		 lea	 rcx, OFFSET FLAT:_Py_NoneStruct
  00215	e8 00 00 00 00	 call	 _Py_IncRef
  0021a	48 8d 05 00 00
	00 00		 lea	 rax, OFFSET FLAT:_Py_NoneStruct
  00221	e9 ea 01 00 00	 jmp	 $LN23@listextend
$LN22@listextend:

; 875  :     }
; 876  : 
; 877  :     it = PyObject_GetIter(b);

  00226	48 8b 8c 24 a8
	00 00 00	 mov	 rcx, QWORD PTR b$[rsp]
  0022e	e8 00 00 00 00	 call	 PyObject_GetIter
  00233	48 89 44 24 20	 mov	 QWORD PTR it$[rsp], rax

; 878  :     if (it == NULL)

  00238	48 83 7c 24 20
	00		 cmp	 QWORD PTR it$[rsp], 0
  0023e	75 07		 jne	 SHORT $LN14@listextend

; 879  :         return NULL;

  00240	33 c0		 xor	 eax, eax
  00242	e9 c9 01 00 00	 jmp	 $LN23@listextend
$LN14@listextend:

; 880  :     iternext = *it->ob_type->tp_iternext;

  00247	48 8b 44 24 20	 mov	 rax, QWORD PTR it$[rsp]
  0024c	48 8b 40 58	 mov	 rax, QWORD PTR [rax+88]
  00250	48 8b 80 38 01
	00 00		 mov	 rax, QWORD PTR [rax+312]
  00257	48 89 44 24 28	 mov	 QWORD PTR iternext$[rsp], rax

; 881  : 
; 882  :     /* Guess a result list size. */
; 883  :     n = _PyObject_LengthHint(b, 8);

  0025c	ba 08 00 00 00	 mov	 edx, 8
  00261	48 8b 8c 24 a8
	00 00 00	 mov	 rcx, QWORD PTR b$[rsp]
  00269	e8 00 00 00 00	 call	 _PyObject_LengthHint
  0026e	48 89 44 24 40	 mov	 QWORD PTR n$[rsp], rax

; 884  :     if (n == -1) {

  00273	48 83 7c 24 40
	ff		 cmp	 QWORD PTR n$[rsp], -1
  00279	75 11		 jne	 SHORT $LN13@listextend

; 885  :         Py_DECREF(it);

  0027b	48 8b 4c 24 20	 mov	 rcx, QWORD PTR it$[rsp]
  00280	e8 00 00 00 00	 call	 _Py_DecRef

; 886  :         return NULL;

  00285	33 c0		 xor	 eax, eax
  00287	e9 84 01 00 00	 jmp	 $LN23@listextend
$LN13@listextend:

; 887  :     }
; 888  :     m = Py_SIZE(self);

  0028c	48 8b 84 24 a0
	00 00 00	 mov	 rax, QWORD PTR self$[rsp]
  00294	48 8b 40 60	 mov	 rax, QWORD PTR [rax+96]
  00298	48 89 44 24 48	 mov	 QWORD PTR m$[rsp], rax

; 889  :     mn = m + n;

  0029d	48 8b 44 24 40	 mov	 rax, QWORD PTR n$[rsp]
  002a2	48 8b 4c 24 48	 mov	 rcx, QWORD PTR m$[rsp]
  002a7	48 03 c8	 add	 rcx, rax
  002aa	48 8b c1	 mov	 rax, rcx
  002ad	48 89 44 24 38	 mov	 QWORD PTR mn$[rsp], rax

; 890  :     if (mn >= m) {

  002b2	48 8b 44 24 48	 mov	 rax, QWORD PTR m$[rsp]
  002b7	48 39 44 24 38	 cmp	 QWORD PTR mn$[rsp], rax
  002bc	7c 2d		 jl	 SHORT $LN12@listextend

; 891  :         /* Make room. */
; 892  :         if (list_resize(self, mn) == -1)

  002be	48 8b 54 24 38	 mov	 rdx, QWORD PTR mn$[rsp]
  002c3	48 8b 8c 24 a0
	00 00 00	 mov	 rcx, QWORD PTR self$[rsp]
  002cb	e8 00 00 00 00	 call	 list_resize
  002d0	83 f8 ff	 cmp	 eax, -1
  002d3	75 05		 jne	 SHORT $LN11@listextend

; 893  :             goto error;

  002d5	e9 2a 01 00 00	 jmp	 $error$21072
$LN11@listextend:

; 894  :         /* Make the list sane again. */
; 895  :         Py_SIZE(self) = m;

  002da	48 8b 84 24 a0
	00 00 00	 mov	 rax, QWORD PTR self$[rsp]
  002e2	48 8b 4c 24 48	 mov	 rcx, QWORD PTR m$[rsp]
  002e7	48 89 48 60	 mov	 QWORD PTR [rax+96], rcx
$LN12@listextend:
$LN10@listextend:

; 896  :     }
; 897  :     /* Else m + n overflowed; on the chance that n lied, and there really
; 898  :      * is enough room, ignore it.  If n was telling the truth, we'll
; 899  :      * eventually run out of memory during the loop.
; 900  :      */
; 901  : 
; 902  :     /* Run iterator to exhaustion. */
; 903  :     for (;;) {
; 904  :         PyObject *item = iternext(it);

  002eb	48 8b 4c 24 20	 mov	 rcx, QWORD PTR it$[rsp]
  002f0	ff 54 24 28	 call	 QWORD PTR iternext$[rsp]
  002f4	48 89 44 24 68	 mov	 QWORD PTR item$21077[rsp], rax

; 905  :         if (item == NULL) {

  002f9	48 83 7c 24 68
	00		 cmp	 QWORD PTR item$21077[rsp], 0
  002ff	75 2b		 jne	 SHORT $LN8@listextend

; 906  :             if (PyErr_Occurred()) {

  00301	e8 00 00 00 00	 call	 PyErr_Occurred
  00306	48 85 c0	 test	 rax, rax
  00309	74 1c		 je	 SHORT $LN7@listextend

; 907  :                 if (PyErr_ExceptionMatches(PyExc_StopIteration))

  0030b	48 8b 0d 00 00
	00 00		 mov	 rcx, QWORD PTR PyExc_StopIteration
  00312	e8 00 00 00 00	 call	 PyErr_ExceptionMatches
  00317	85 c0		 test	 eax, eax
  00319	74 07		 je	 SHORT $LN6@listextend

; 908  :                     PyErr_Clear();

  0031b	e8 00 00 00 00	 call	 PyErr_Clear

; 909  :                 else

  00320	eb 05		 jmp	 SHORT $LN5@listextend
$LN6@listextend:

; 910  :                     goto error;

  00322	e9 dd 00 00 00	 jmp	 $error$21072
$LN5@listextend:
$LN7@listextend:

; 911  :             }
; 912  :             break;

  00327	e9 86 00 00 00	 jmp	 $LN9@listextend
$LN8@listextend:

; 913  :         }
; 914  :         if (Py_SIZE(self) < self->allocated) {

  0032c	48 8b 84 24 a0
	00 00 00	 mov	 rax, QWORD PTR self$[rsp]
  00334	48 8b 8c 24 a0
	00 00 00	 mov	 rcx, QWORD PTR self$[rsp]
  0033c	48 8b 49 78	 mov	 rcx, QWORD PTR [rcx+120]
  00340	48 39 48 60	 cmp	 QWORD PTR [rax+96], rcx
  00344	7d 3e		 jge	 SHORT $LN4@listextend

; 915  :             /* steals ref */
; 916  :             PyList_SET_ITEM(self, Py_SIZE(self), item);

  00346	48 8b 84 24 a0
	00 00 00	 mov	 rax, QWORD PTR self$[rsp]
  0034e	48 8b 40 60	 mov	 rax, QWORD PTR [rax+96]
  00352	48 8b 8c 24 a0
	00 00 00	 mov	 rcx, QWORD PTR self$[rsp]
  0035a	48 8b 49 70	 mov	 rcx, QWORD PTR [rcx+112]
  0035e	48 8b 54 24 68	 mov	 rdx, QWORD PTR item$21077[rsp]
  00363	48 89 14 c1	 mov	 QWORD PTR [rcx+rax*8], rdx

; 917  :             ++Py_SIZE(self);

  00367	48 8b 84 24 a0
	00 00 00	 mov	 rax, QWORD PTR self$[rsp]
  0036f	48 8b 40 60	 mov	 rax, QWORD PTR [rax+96]
  00373	48 ff c0	 inc	 rax
  00376	48 8b 8c 24 a0
	00 00 00	 mov	 rcx, QWORD PTR self$[rsp]
  0037e	48 89 41 60	 mov	 QWORD PTR [rcx+96], rax

; 918  :         }
; 919  :         else {

  00382	eb 29		 jmp	 SHORT $LN3@listextend
$LN4@listextend:

; 920  :             int status = app1(self, item);

  00384	48 8b 54 24 68	 mov	 rdx, QWORD PTR item$21077[rsp]
  00389	48 8b 8c 24 a0
	00 00 00	 mov	 rcx, QWORD PTR self$[rsp]
  00391	e8 00 00 00 00	 call	 app1
  00396	89 44 24 70	 mov	 DWORD PTR status$21089[rsp], eax

; 921  :             Py_DECREF(item);  /* append creates a new ref */

  0039a	48 8b 4c 24 68	 mov	 rcx, QWORD PTR item$21077[rsp]
  0039f	e8 00 00 00 00	 call	 _Py_DecRef

; 922  :             if (status < 0)

  003a4	83 7c 24 70 00	 cmp	 DWORD PTR status$21089[rsp], 0
  003a9	7d 02		 jge	 SHORT $LN2@listextend

; 923  :                 goto error;

  003ab	eb 57		 jmp	 SHORT $error$21072
$LN2@listextend:
$LN3@listextend:

; 924  :         }
; 925  :     }

  003ad	e9 39 ff ff ff	 jmp	 $LN10@listextend
$LN9@listextend:

; 926  : 
; 927  :     /* Cut back result list if initial guess was too large. */
; 928  :     if (Py_SIZE(self) < self->allocated)

  003b2	48 8b 84 24 a0
	00 00 00	 mov	 rax, QWORD PTR self$[rsp]
  003ba	48 8b 8c 24 a0
	00 00 00	 mov	 rcx, QWORD PTR self$[rsp]
  003c2	48 8b 49 78	 mov	 rcx, QWORD PTR [rcx+120]
  003c6	48 39 48 60	 cmp	 QWORD PTR [rax+96], rcx
  003ca	7d 19		 jge	 SHORT $LN1@listextend

; 929  :         list_resize(self, Py_SIZE(self));  /* shrinking can't fail */

  003cc	48 8b 84 24 a0
	00 00 00	 mov	 rax, QWORD PTR self$[rsp]
  003d4	48 8b 50 60	 mov	 rdx, QWORD PTR [rax+96]
  003d8	48 8b 8c 24 a0
	00 00 00	 mov	 rcx, QWORD PTR self$[rsp]
  003e0	e8 00 00 00 00	 call	 list_resize
$LN1@listextend:

; 930  : 
; 931  :     Py_DECREF(it);

  003e5	48 8b 4c 24 20	 mov	 rcx, QWORD PTR it$[rsp]
  003ea	e8 00 00 00 00	 call	 _Py_DecRef

; 932  :     Py_RETURN_NONE;

  003ef	48 8d 0d 00 00
	00 00		 lea	 rcx, OFFSET FLAT:_Py_NoneStruct
  003f6	e8 00 00 00 00	 call	 _Py_IncRef
  003fb	48 8d 05 00 00
	00 00		 lea	 rax, OFFSET FLAT:_Py_NoneStruct
  00402	eb 0c		 jmp	 SHORT $LN23@listextend
$error$21072:

; 933  : 
; 934  :   error:
; 935  :     Py_DECREF(it);

  00404	48 8b 4c 24 20	 mov	 rcx, QWORD PTR it$[rsp]
  00409	e8 00 00 00 00	 call	 _Py_DecRef

; 936  :     return NULL;

  0040e	33 c0		 xor	 eax, eax
$LN23@listextend:

; 937  : }

  00410	48 81 c4 98 00
	00 00		 add	 rsp, 152		; 00000098H
  00417	c3		 ret	 0
listextend ENDP
_TEXT	ENDS
PUBLIC	_PyList_Extend
;	COMDAT pdata
pdata	SEGMENT
$pdata$_PyList_Extend DD imagerel $LN3
	DD	imagerel $LN3+34
	DD	imagerel $unwind$_PyList_Extend
pdata	ENDS
;	COMDAT xdata
xdata	SEGMENT
$unwind$_PyList_Extend DD 010e01H
	DD	0420eH
; Function compile flags: /Odtp
xdata	ENDS
;	COMDAT _PyList_Extend
_TEXT	SEGMENT
self$ = 48
b$ = 56
_PyList_Extend PROC					; COMDAT

; 941  : {

$LN3:
  00000	48 89 54 24 10	 mov	 QWORD PTR [rsp+16], rdx
  00005	48 89 4c 24 08	 mov	 QWORD PTR [rsp+8], rcx
  0000a	48 83 ec 28	 sub	 rsp, 40			; 00000028H

; 942  :     /* Px_CHECK_PROTECTION handled by listextend() */
; 943  :     return listextend(self, b);

  0000e	48 8b 54 24 38	 mov	 rdx, QWORD PTR b$[rsp]
  00013	48 8b 4c 24 30	 mov	 rcx, QWORD PTR self$[rsp]
  00018	e8 00 00 00 00	 call	 listextend

; 944  : }

  0001d	48 83 c4 28	 add	 rsp, 40			; 00000028H
  00021	c3		 ret	 0
_PyList_Extend ENDP
_TEXT	ENDS
;	COMDAT pdata
pdata	SEGMENT
$pdata$list_inplace_concat DD imagerel list_inplace_concat
	DD	imagerel list_inplace_concat+79
	DD	imagerel $unwind$list_inplace_concat
pdata	ENDS
;	COMDAT xdata
xdata	SEGMENT
$unwind$list_inplace_concat DD 010e01H
	DD	0620eH
; Function compile flags: /Odtp
xdata	ENDS
;	COMDAT list_inplace_concat
_TEXT	SEGMENT
result$ = 32
self$ = 64
other$ = 72
list_inplace_concat PROC				; COMDAT

; 948  : {

  00000	48 89 54 24 10	 mov	 QWORD PTR [rsp+16], rdx
  00005	48 89 4c 24 08	 mov	 QWORD PTR [rsp+8], rcx
  0000a	48 83 ec 38	 sub	 rsp, 56			; 00000038H

; 949  :     PyObject *result;
; 950  : 
; 951  :     /* Px_CHECK_PROTECTION handled by listextend() */
; 952  :     result = listextend(self, other);

  0000e	48 8b 54 24 48	 mov	 rdx, QWORD PTR other$[rsp]
  00013	48 8b 4c 24 40	 mov	 rcx, QWORD PTR self$[rsp]
  00018	e8 00 00 00 00	 call	 listextend
  0001d	48 89 44 24 20	 mov	 QWORD PTR result$[rsp], rax

; 953  :     if (result == NULL)

  00022	48 83 7c 24 20
	00		 cmp	 QWORD PTR result$[rsp], 0
  00028	75 07		 jne	 SHORT $LN1@list_inpla@2

; 954  :         return result;

  0002a	48 8b 44 24 20	 mov	 rax, QWORD PTR result$[rsp]
  0002f	eb 19		 jmp	 SHORT $LN2@list_inpla@2
$LN1@list_inpla@2:

; 955  :     Py_DECREF(result);

  00031	48 8b 4c 24 20	 mov	 rcx, QWORD PTR result$[rsp]
  00036	e8 00 00 00 00	 call	 _Py_DecRef

; 956  :     Py_INCREF(self);

  0003b	48 8b 4c 24 40	 mov	 rcx, QWORD PTR self$[rsp]
  00040	e8 00 00 00 00	 call	 _Py_IncRef

; 957  :     return (PyObject *)self;

  00045	48 8b 44 24 40	 mov	 rax, QWORD PTR self$[rsp]
$LN2@list_inpla@2:

; 958  : }

  0004a	48 83 c4 38	 add	 rsp, 56			; 00000038H
  0004e	c3		 ret	 0
list_inplace_concat ENDP
_TEXT	ENDS
PUBLIC	??_C@_1BI@CIBACNIM@?$AAs?$AAt?$AAa?$AAt?$AAu?$AAs?$AA?5?$AA?$DO?$AA?$DN?$AA?5?$AA0?$AA?$AA@ ; `string'
PUBLIC	??_C@_0BH@IJGJGNPF@pop?5index?5out?5of?5range?$AA@ ; `string'
PUBLIC	??_C@_0BE@BLOKHBKG@pop?5from?5empty?5list?$AA@	; `string'
PUBLIC	??_C@_06JHLPABKE@?$HMn?3pop?$AA@		; `string'
;	COMDAT pdata
pdata	SEGMENT
$pdata$listpop DD imagerel listpop
	DD	imagerel listpop+378
	DD	imagerel $unwind$listpop
pdata	ENDS
;	COMDAT xdata
xdata	SEGMENT
$unwind$listpop DD 010e01H
	DD	0820eH
xdata	ENDS
;	COMDAT ??_C@_1BI@CIBACNIM@?$AAs?$AAt?$AAa?$AAt?$AAu?$AAs?$AA?5?$AA?$DO?$AA?$DN?$AA?5?$AA0?$AA?$AA@
CONST	SEGMENT
??_C@_1BI@CIBACNIM@?$AAs?$AAt?$AAa?$AAt?$AAu?$AAs?$AA?5?$AA?$DO?$AA?$DN?$AA?5?$AA0?$AA?$AA@ DB 's'
	DB	00H, 't', 00H, 'a', 00H, 't', 00H, 'u', 00H, 's', 00H, ' ', 00H
	DB	'>', 00H, '=', 00H, ' ', 00H, '0', 00H, 00H, 00H ; `string'
CONST	ENDS
;	COMDAT ??_C@_0BH@IJGJGNPF@pop?5index?5out?5of?5range?$AA@
CONST	SEGMENT
??_C@_0BH@IJGJGNPF@pop?5index?5out?5of?5range?$AA@ DB 'pop index out of r'
	DB	'ange', 00H					; `string'
CONST	ENDS
;	COMDAT ??_C@_0BE@BLOKHBKG@pop?5from?5empty?5list?$AA@
CONST	SEGMENT
??_C@_0BE@BLOKHBKG@pop?5from?5empty?5list?$AA@ DB 'pop from empty list', 00H ; `string'
CONST	ENDS
;	COMDAT ??_C@_06JHLPABKE@?$HMn?3pop?$AA@
CONST	SEGMENT
??_C@_06JHLPABKE@?$HMn?3pop?$AA@ DB '|n:pop', 00H	; `string'
; Function compile flags: /Odtp
CONST	ENDS
;	COMDAT listpop
_TEXT	SEGMENT
v$ = 32
i$ = 40
status$ = 48
self$ = 80
args$ = 88
listpop	PROC						; COMDAT

; 962  : {

  00000	48 89 54 24 10	 mov	 QWORD PTR [rsp+16], rdx
  00005	48 89 4c 24 08	 mov	 QWORD PTR [rsp+8], rcx
  0000a	48 83 ec 48	 sub	 rsp, 72			; 00000048H

; 963  :     Py_ssize_t i = -1;

  0000e	48 c7 44 24 28
	ff ff ff ff	 mov	 QWORD PTR i$[rsp], -1

; 964  :     PyObject *v;
; 965  :     int status;
; 966  : 
; 967  :     if (!PyArg_ParseTuple(args, "|n:pop", &i))

  00017	4c 8d 44 24 28	 lea	 r8, QWORD PTR i$[rsp]
  0001c	48 8d 15 00 00
	00 00		 lea	 rdx, OFFSET FLAT:??_C@_06JHLPABKE@?$HMn?3pop?$AA@
  00023	48 8b 4c 24 58	 mov	 rcx, QWORD PTR args$[rsp]
  00028	e8 00 00 00 00	 call	 PyArg_ParseTuple
  0002d	85 c0		 test	 eax, eax
  0002f	75 07		 jne	 SHORT $LN6@listpop

; 968  :         return NULL;

  00031	33 c0		 xor	 eax, eax
  00033	e9 3d 01 00 00	 jmp	 $LN7@listpop
$LN6@listpop:

; 969  : 
; 970  :     if (Py_SIZE(self) == 0) {

  00038	48 8b 44 24 50	 mov	 rax, QWORD PTR self$[rsp]
  0003d	48 83 78 60 00	 cmp	 QWORD PTR [rax+96], 0
  00042	75 1a		 jne	 SHORT $LN5@listpop

; 971  :         /* Special-case most common failure cause */
; 972  :         PyErr_SetString(PyExc_IndexError, "pop from empty list");

  00044	48 8d 15 00 00
	00 00		 lea	 rdx, OFFSET FLAT:??_C@_0BE@BLOKHBKG@pop?5from?5empty?5list?$AA@
  0004b	48 8b 0d 00 00
	00 00		 mov	 rcx, QWORD PTR PyExc_IndexError
  00052	e8 00 00 00 00	 call	 PyErr_SetString

; 973  :         return NULL;

  00057	33 c0		 xor	 eax, eax
  00059	e9 17 01 00 00	 jmp	 $LN7@listpop
$LN5@listpop:

; 974  :     }
; 975  :     if (i < 0)

  0005e	48 83 7c 24 28
	00		 cmp	 QWORD PTR i$[rsp], 0
  00064	7d 19		 jge	 SHORT $LN4@listpop

; 976  :         i += Py_SIZE(self);

  00066	48 8b 44 24 50	 mov	 rax, QWORD PTR self$[rsp]
  0006b	48 8b 40 60	 mov	 rax, QWORD PTR [rax+96]
  0006f	48 8b 4c 24 28	 mov	 rcx, QWORD PTR i$[rsp]
  00074	48 03 c8	 add	 rcx, rax
  00077	48 8b c1	 mov	 rax, rcx
  0007a	48 89 44 24 28	 mov	 QWORD PTR i$[rsp], rax
$LN4@listpop:

; 977  :     if (i < 0 || i >= Py_SIZE(self)) {

  0007f	48 83 7c 24 28
	00		 cmp	 QWORD PTR i$[rsp], 0
  00085	7c 10		 jl	 SHORT $LN2@listpop
  00087	48 8b 44 24 50	 mov	 rax, QWORD PTR self$[rsp]
  0008c	48 8b 40 60	 mov	 rax, QWORD PTR [rax+96]
  00090	48 39 44 24 28	 cmp	 QWORD PTR i$[rsp], rax
  00095	7c 1a		 jl	 SHORT $LN3@listpop
$LN2@listpop:

; 978  :         PyErr_SetString(PyExc_IndexError, "pop index out of range");

  00097	48 8d 15 00 00
	00 00		 lea	 rdx, OFFSET FLAT:??_C@_0BH@IJGJGNPF@pop?5index?5out?5of?5range?$AA@
  0009e	48 8b 0d 00 00
	00 00		 mov	 rcx, QWORD PTR PyExc_IndexError
  000a5	e8 00 00 00 00	 call	 PyErr_SetString

; 979  :         return NULL;

  000aa	33 c0		 xor	 eax, eax
  000ac	e9 c4 00 00 00	 jmp	 $LN7@listpop
$LN3@listpop:

; 980  :     }
; 981  :     v = self->ob_item[i];

  000b1	48 8b 44 24 50	 mov	 rax, QWORD PTR self$[rsp]
  000b6	48 8b 40 70	 mov	 rax, QWORD PTR [rax+112]
  000ba	48 8b 4c 24 28	 mov	 rcx, QWORD PTR i$[rsp]
  000bf	48 8b 04 c8	 mov	 rax, QWORD PTR [rax+rcx*8]
  000c3	48 89 44 24 20	 mov	 QWORD PTR v$[rsp], rax

; 982  :     /* Px_CHECK_PROTECTION handled by list_resize() or list_ass_slice() */
; 983  :     if (i == Py_SIZE(self) - 1) {

  000c8	48 8b 44 24 50	 mov	 rax, QWORD PTR self$[rsp]
  000cd	48 8b 40 60	 mov	 rax, QWORD PTR [rax+96]
  000d1	48 ff c8	 dec	 rax
  000d4	48 39 44 24 28	 cmp	 QWORD PTR i$[rsp], rax
  000d9	75 47		 jne	 SHORT $LN1@listpop

; 984  :         status = list_resize(self, Py_SIZE(self) - 1);

  000db	48 8b 44 24 50	 mov	 rax, QWORD PTR self$[rsp]
  000e0	48 8b 40 60	 mov	 rax, QWORD PTR [rax+96]
  000e4	48 ff c8	 dec	 rax
  000e7	48 8b d0	 mov	 rdx, rax
  000ea	48 8b 4c 24 50	 mov	 rcx, QWORD PTR self$[rsp]
  000ef	e8 00 00 00 00	 call	 list_resize
  000f4	89 44 24 30	 mov	 DWORD PTR status$[rsp], eax

; 985  :         assert(status >= 0);

  000f8	83 7c 24 30 00	 cmp	 DWORD PTR status$[rsp], 0
  000fd	7d 1c		 jge	 SHORT $LN9@listpop
  000ff	41 b8 d9 03 00
	00		 mov	 r8d, 985		; 000003d9H
  00105	48 8d 15 00 00
	00 00		 lea	 rdx, OFFSET FLAT:??_C@_1DA@FFHCLKCK@?$AA?4?$AA?4?$AA?2?$AAO?$AAb?$AAj?$AAe?$AAc?$AAt?$AAs?$AA?2?$AAl?$AAi?$AAs?$AAt?$AAo?$AAb?$AAj?$AAe?$AAc?$AAt?$AA?4?$AAc?$AA?$AA@
  0010c	48 8d 0d 00 00
	00 00		 lea	 rcx, OFFSET FLAT:??_C@_1BI@CIBACNIM@?$AAs?$AAt?$AAa?$AAt?$AAu?$AAs?$AA?5?$AA?$DO?$AA?$DN?$AA?5?$AA0?$AA?$AA@
  00113	ff 15 00 00 00
	00		 call	 QWORD PTR __imp__wassert
  00119	33 c0		 xor	 eax, eax
$LN9@listpop:

; 986  :         return v; /* and v now owns the reference the list had */

  0011b	48 8b 44 24 20	 mov	 rax, QWORD PTR v$[rsp]
  00120	eb 53		 jmp	 SHORT $LN7@listpop
$LN1@listpop:

; 987  :     }
; 988  :     Py_INCREF(v);

  00122	48 8b 4c 24 20	 mov	 rcx, QWORD PTR v$[rsp]
  00127	e8 00 00 00 00	 call	 _Py_IncRef

; 989  :     status = list_ass_slice(self, i, i+1, (PyObject *)NULL);

  0012c	48 8b 44 24 28	 mov	 rax, QWORD PTR i$[rsp]
  00131	48 ff c0	 inc	 rax
  00134	45 33 c9	 xor	 r9d, r9d
  00137	4c 8b c0	 mov	 r8, rax
  0013a	48 8b 54 24 28	 mov	 rdx, QWORD PTR i$[rsp]
  0013f	48 8b 4c 24 50	 mov	 rcx, QWORD PTR self$[rsp]
  00144	e8 00 00 00 00	 call	 list_ass_slice
  00149	89 44 24 30	 mov	 DWORD PTR status$[rsp], eax

; 990  :     assert(status >= 0);

  0014d	83 7c 24 30 00	 cmp	 DWORD PTR status$[rsp], 0
  00152	7d 1c		 jge	 SHORT $LN10@listpop
  00154	41 b8 de 03 00
	00		 mov	 r8d, 990		; 000003deH
  0015a	48 8d 15 00 00
	00 00		 lea	 rdx, OFFSET FLAT:??_C@_1DA@FFHCLKCK@?$AA?4?$AA?4?$AA?2?$AAO?$AAb?$AAj?$AAe?$AAc?$AAt?$AAs?$AA?2?$AAl?$AAi?$AAs?$AAt?$AAo?$AAb?$AAj?$AAe?$AAc?$AAt?$AA?4?$AAc?$AA?$AA@
  00161	48 8d 0d 00 00
	00 00		 lea	 rcx, OFFSET FLAT:??_C@_1BI@CIBACNIM@?$AAs?$AAt?$AAa?$AAt?$AAu?$AAs?$AA?5?$AA?$DO?$AA?$DN?$AA?5?$AA0?$AA?$AA@
  00168	ff 15 00 00 00
	00		 call	 QWORD PTR __imp__wassert
  0016e	33 c0		 xor	 eax, eax
$LN10@listpop:

; 991  :     /* Use status, so that in a release build compilers don't
; 992  :      * complain about the unused name.
; 993  :      */
; 994  :     (void) status;
; 995  : 
; 996  :     return v;

  00170	48 8b 44 24 20	 mov	 rax, QWORD PTR v$[rsp]
$LN7@listpop:

; 997  : }

  00175	48 83 c4 48	 add	 rsp, 72			; 00000048H
  00179	c3		 ret	 0
listpop	ENDP
_TEXT	ENDS
PUBLIC	??_C@_0BK@BOEBAINE@list?5modified?5during?5sort?$AA@ ; `string'
PUBLIC	??_C@_1EG@IMBMBMLO@?$AAm?$AAs?$AA?4?$AAp?$AAe?$AAn?$AAd?$AAi?$AAn?$AAg?$AA?$FL?$AA0?$AA?$FN?$AA?4?$AAl?$AAe?$AAn?$AA?5?$AA?$DN?$AA?$DN?$AA?5?$AAs?$AAa?$AAv?$AAe?$AAd?$AA_?$AAo?$AAb?$AA_?$AAs?$AAi@ ; `string'
PUBLIC	??_C@_1LM@FKLCHDEB@?$AAk?$AAe?$AAy?$AAs?$AA?5?$AA?$DN?$AA?$DN?$AA?5?$AAN?$AAU?$AAL?$AAL?$AA?5?$AA?$DP?$AA?5?$AAm?$AAs?$AA?4?$AAp?$AAe?$AAn?$AAd?$AAi?$AAn?$AAg?$AA?$FL?$AA0?$AA?$FN?$AA?4?$AAb?$AAa?$AAs@ ; `string'
PUBLIC	??_C@_1BE@OOKFICLJ@?$AAm?$AAs?$AA?4?$AAn?$AA?5?$AA?$DN?$AA?$DN?$AA?5?$AA1?$AA?$AA@ ; `string'
PUBLIC	??_C@_1DC@PLPKLELL@?$AAm?$AAs?$AA?4?$AAn?$AA?5?$AA?$DM?$AA?5?$AAM?$AAA?$AAX?$AA_?$AAM?$AAE?$AAR?$AAG?$AAE?$AA_?$AAP?$AAE?$AAN?$AAD?$AAI?$AAN?$AAG?$AA?$AA@ ; `string'
PUBLIC	$T23300
PUBLIC	??_C@_0CL@HOEKIDMG@must?5use?5keyword?5argument?5for?5ke@ ; `string'
PUBLIC	??_C@_08IFACFLKK@?$HMOi?3sort?$AA@		; `string'
PUBLIC	??_C@_1CG@HIEBMCAP@?$AAP?$AAy?$AAL?$AAi?$AAs?$AAt?$AA_?$AAC?$AAh?$AAe?$AAc?$AAk?$AA?$CI?$AAs?$AAe?$AAl?$AAf?$AA?$CJ?$AA?$AA@ ; `string'
PUBLIC	??_C@_1BK@KLMFOMEM@?$AAs?$AAe?$AAl?$AAf?$AA?5?$AA?$CB?$AA?$DN?$AA?5?$AAN?$AAU?$AAL?$AAL?$AA?$AA@ ; `string'
EXTRN	PyExc_ValueError:QWORD
EXTRN	PyObject_CallFunctionObjArgs:PROC
EXTRN	PyArg_ParseTupleAndKeywords:PROC
EXTRN	__chkstk:PROC
;	COMDAT pdata
pdata	SEGMENT
$pdata$listsort DD imagerel listsort
	DD	imagerel listsort+2442
	DD	imagerel $unwind$listsort
pdata	ENDS
;	COMDAT xdata
xdata	SEGMENT
$unwind$listsort DD 041e01H
	DD	0225011eH
	DD	060107011H
xdata	ENDS
;	COMDAT ??_C@_0BK@BOEBAINE@list?5modified?5during?5sort?$AA@
CONST	SEGMENT
??_C@_0BK@BOEBAINE@list?5modified?5during?5sort?$AA@ DB 'list modified du'
	DB	'ring sort', 00H				; `string'
CONST	ENDS
;	COMDAT ??_C@_1EG@IMBMBMLO@?$AAm?$AAs?$AA?4?$AAp?$AAe?$AAn?$AAd?$AAi?$AAn?$AAg?$AA?$FL?$AA0?$AA?$FN?$AA?4?$AAl?$AAe?$AAn?$AA?5?$AA?$DN?$AA?$DN?$AA?5?$AAs?$AAa?$AAv?$AAe?$AAd?$AA_?$AAo?$AAb?$AA_?$AAs?$AAi@
CONST	SEGMENT
??_C@_1EG@IMBMBMLO@?$AAm?$AAs?$AA?4?$AAp?$AAe?$AAn?$AAd?$AAi?$AAn?$AAg?$AA?$FL?$AA0?$AA?$FN?$AA?4?$AAl?$AAe?$AAn?$AA?5?$AA?$DN?$AA?$DN?$AA?5?$AAs?$AAa?$AAv?$AAe?$AAd?$AA_?$AAo?$AAb?$AA_?$AAs?$AAi@ DB 'm'
	DB	00H, 's', 00H, '.', 00H, 'p', 00H, 'e', 00H, 'n', 00H, 'd', 00H
	DB	'i', 00H, 'n', 00H, 'g', 00H, '[', 00H, '0', 00H, ']', 00H, '.'
	DB	00H, 'l', 00H, 'e', 00H, 'n', 00H, ' ', 00H, '=', 00H, '=', 00H
	DB	' ', 00H, 's', 00H, 'a', 00H, 'v', 00H, 'e', 00H, 'd', 00H, '_'
	DB	00H, 'o', 00H, 'b', 00H, '_', 00H, 's', 00H, 'i', 00H, 'z', 00H
	DB	'e', 00H, 00H, 00H				; `string'
CONST	ENDS
;	COMDAT ??_C@_1LM@FKLCHDEB@?$AAk?$AAe?$AAy?$AAs?$AA?5?$AA?$DN?$AA?$DN?$AA?5?$AAN?$AAU?$AAL?$AAL?$AA?5?$AA?$DP?$AA?5?$AAm?$AAs?$AA?4?$AAp?$AAe?$AAn?$AAd?$AAi?$AAn?$AAg?$AA?$FL?$AA0?$AA?$FN?$AA?4?$AAb?$AAa?$AAs@
CONST	SEGMENT
??_C@_1LM@FKLCHDEB@?$AAk?$AAe?$AAy?$AAs?$AA?5?$AA?$DN?$AA?$DN?$AA?5?$AAN?$AAU?$AAL?$AAL?$AA?5?$AA?$DP?$AA?5?$AAm?$AAs?$AA?4?$AAp?$AAe?$AAn?$AAd?$AAi?$AAn?$AAg?$AA?$FL?$AA0?$AA?$FN?$AA?4?$AAb?$AAa?$AAs@ DB 'k'
	DB	00H, 'e', 00H, 'y', 00H, 's', 00H, ' ', 00H, '=', 00H, '=', 00H
	DB	' ', 00H, 'N', 00H, 'U', 00H, 'L', 00H, 'L', 00H, ' ', 00H, '?'
	DB	00H, ' ', 00H, 'm', 00H, 's', 00H, '.', 00H, 'p', 00H, 'e', 00H
	DB	'n', 00H, 'd', 00H, 'i', 00H, 'n', 00H, 'g', 00H, '[', 00H, '0'
	DB	00H, ']', 00H, '.', 00H, 'b', 00H, 'a', 00H, 's', 00H, 'e', 00H
	DB	'.', 00H, 'k', 00H, 'e', 00H, 'y', 00H, 's', 00H, ' ', 00H, '='
	DB	00H, '=', 00H, ' ', 00H, 's', 00H, 'a', 00H, 'v', 00H, 'e', 00H
	DB	'd', 00H, '_', 00H, 'o', 00H, 'b', 00H, '_', 00H, 'i', 00H, 't'
	DB	00H, 'e', 00H, 'm', 00H, ' ', 00H, ':', 00H, ' ', 00H, 'm', 00H
	DB	's', 00H, '.', 00H, 'p', 00H, 'e', 00H, 'n', 00H, 'd', 00H, 'i'
	DB	00H, 'n', 00H, 'g', 00H, '[', 00H, '0', 00H, ']', 00H, '.', 00H
	DB	'b', 00H, 'a', 00H, 's', 00H, 'e', 00H, '.', 00H, 'k', 00H, 'e'
	DB	00H, 'y', 00H, 's', 00H, ' ', 00H, '=', 00H, '=', 00H, ' ', 00H
	DB	'&', 00H, 'k', 00H, 'e', 00H, 'y', 00H, 's', 00H, '[', 00H, '0'
	DB	00H, ']', 00H, 00H, 00H			; `string'
CONST	ENDS
;	COMDAT ??_C@_1BE@OOKFICLJ@?$AAm?$AAs?$AA?4?$AAn?$AA?5?$AA?$DN?$AA?$DN?$AA?5?$AA1?$AA?$AA@
CONST	SEGMENT
??_C@_1BE@OOKFICLJ@?$AAm?$AAs?$AA?4?$AAn?$AA?5?$AA?$DN?$AA?$DN?$AA?5?$AA1?$AA?$AA@ DB 'm'
	DB	00H, 's', 00H, '.', 00H, 'n', 00H, ' ', 00H, '=', 00H, '=', 00H
	DB	' ', 00H, '1', 00H, 00H, 00H			; `string'
CONST	ENDS
;	COMDAT ??_C@_1DC@PLPKLELL@?$AAm?$AAs?$AA?4?$AAn?$AA?5?$AA?$DM?$AA?5?$AAM?$AAA?$AAX?$AA_?$AAM?$AAE?$AAR?$AAG?$AAE?$AA_?$AAP?$AAE?$AAN?$AAD?$AAI?$AAN?$AAG?$AA?$AA@
CONST	SEGMENT
??_C@_1DC@PLPKLELL@?$AAm?$AAs?$AA?4?$AAn?$AA?5?$AA?$DM?$AA?5?$AAM?$AAA?$AAX?$AA_?$AAM?$AAE?$AAR?$AAG?$AAE?$AA_?$AAP?$AAE?$AAN?$AAD?$AAI?$AAN?$AAG?$AA?$AA@ DB 'm'
	DB	00H, 's', 00H, '.', 00H, 'n', 00H, ' ', 00H, '<', 00H, ' ', 00H
	DB	'M', 00H, 'A', 00H, 'X', 00H, '_', 00H, 'M', 00H, 'E', 00H, 'R'
	DB	00H, 'G', 00H, 'E', 00H, '_', 00H, 'P', 00H, 'E', 00H, 'N', 00H
	DB	'D', 00H, 'I', 00H, 'N', 00H, 'G', 00H, 00H, 00H ; `string'
CONST	ENDS
;	COMDAT ??_C@_0CL@HOEKIDMG@must?5use?5keyword?5argument?5for?5ke@
CONST	SEGMENT
??_C@_0CL@HOEKIDMG@must?5use?5keyword?5argument?5for?5ke@ DB 'must use ke'
	DB	'yword argument for key function', 00H	; `string'
CONST	ENDS
;	COMDAT ??_C@_08IFACFLKK@?$HMOi?3sort?$AA@
CONST	SEGMENT
??_C@_08IFACFLKK@?$HMOi?3sort?$AA@ DB '|Oi:sort', 00H	; `string'
CONST	ENDS
;	COMDAT ??_C@_1CG@HIEBMCAP@?$AAP?$AAy?$AAL?$AAi?$AAs?$AAt?$AA_?$AAC?$AAh?$AAe?$AAc?$AAk?$AA?$CI?$AAs?$AAe?$AAl?$AAf?$AA?$CJ?$AA?$AA@
CONST	SEGMENT
??_C@_1CG@HIEBMCAP@?$AAP?$AAy?$AAL?$AAi?$AAs?$AAt?$AA_?$AAC?$AAh?$AAe?$AAc?$AAk?$AA?$CI?$AAs?$AAe?$AAl?$AAf?$AA?$CJ?$AA?$AA@ DB 'P'
	DB	00H, 'y', 00H, 'L', 00H, 'i', 00H, 's', 00H, 't', 00H, '_', 00H
	DB	'C', 00H, 'h', 00H, 'e', 00H, 'c', 00H, 'k', 00H, '(', 00H, 's'
	DB	00H, 'e', 00H, 'l', 00H, 'f', 00H, ')', 00H, 00H, 00H ; `string'
CONST	ENDS
;	COMDAT ??_C@_1BK@KLMFOMEM@?$AAs?$AAe?$AAl?$AAf?$AA?5?$AA?$CB?$AA?$DN?$AA?5?$AAN?$AAU?$AAL?$AAL?$AA?$AA@
CONST	SEGMENT
??_C@_1BK@KLMFOMEM@?$AAs?$AAe?$AAl?$AAf?$AA?5?$AA?$CB?$AA?$DN?$AA?5?$AAN?$AAU?$AAL?$AAL?$AA?$AA@ DB 's'
	DB	00H, 'e', 00H, 'l', 00H, 'f', 00H, ' ', 00H, '!', 00H, '=', 00H
	DB	' ', 00H, 'N', 00H, 'U', 00H, 'L', 00H, 'L', 00H, 00H, 00H ; `string'
; Function compile flags: /Odtp
CONST	ENDS
;	COMDAT listsort
_TEXT	SEGMENT
lo$ = 48
i$ = 64
nremaining$ = 72
ms$ = 80
saved_ob_item$ = 4208
keyfunc$ = 4216
minrun$ = 4224
keys$ = 4232
saved_ob_size$ = 4240
reverse$ = 4248
result$ = 4256
final_ob_item$ = 4264
saved_allocated$ = 4272
n$21731 = 4280
descending$21730 = 4288
force$21736 = 4296
$T23300 = 4304
tv142 = 4320
tv171 = 4328
tv173 = 4332
tv202 = 4336
tv208 = 4344
tv244 = 4352
tv245 = 4356
tv243 = 4360
tv270 = 4364
tv302 = 4368
self$ = 4416
args$ = 4424
kwds$ = 4432
listsort PROC						; COMDAT

; 1964 : {

  00000	4c 89 44 24 18	 mov	 QWORD PTR [rsp+24], r8
  00005	48 89 54 24 10	 mov	 QWORD PTR [rsp+16], rdx
  0000a	48 89 4c 24 08	 mov	 QWORD PTR [rsp+8], rcx
  0000f	56		 push	 rsi
  00010	57		 push	 rdi
  00011	b8 28 11 00 00	 mov	 eax, 4392		; 00001128H
  00016	e8 00 00 00 00	 call	 __chkstk
  0001b	48 2b e0	 sub	 rsp, rax

; 1965 :     MergeState ms;
; 1966 :     Py_ssize_t nremaining;
; 1967 :     Py_ssize_t minrun;
; 1968 :     sortslice lo;
; 1969 :     Py_ssize_t saved_ob_size, saved_allocated;
; 1970 :     PyObject **saved_ob_item;
; 1971 :     PyObject **final_ob_item;
; 1972 :     PyObject *result = NULL;            /* guilty until proved innocent */

  0001e	48 c7 84 24 a0
	10 00 00 00 00
	00 00		 mov	 QWORD PTR result$[rsp], 0

; 1973 :     int reverse = 0;

  0002a	c7 84 24 98 10
	00 00 00 00 00
	00		 mov	 DWORD PTR reverse$[rsp], 0

; 1974 :     PyObject *keyfunc = NULL;

  00035	48 c7 84 24 78
	10 00 00 00 00
	00 00		 mov	 QWORD PTR keyfunc$[rsp], 0

; 1975 :     Py_ssize_t i;
; 1976 :     static char *kwlist[] = {"key", "reverse", 0};
; 1977 :     PyObject **keys;
; 1978 : 
; 1979 :     assert(self != NULL);

  00041	48 83 bc 24 40
	11 00 00 00	 cmp	 QWORD PTR self$[rsp], 0
  0004a	75 1c		 jne	 SHORT $LN50@listsort
  0004c	41 b8 bb 07 00
	00		 mov	 r8d, 1979		; 000007bbH
  00052	48 8d 15 00 00
	00 00		 lea	 rdx, OFFSET FLAT:??_C@_1DA@FFHCLKCK@?$AA?4?$AA?4?$AA?2?$AAO?$AAb?$AAj?$AAe?$AAc?$AAt?$AAs?$AA?2?$AAl?$AAi?$AAs?$AAt?$AAo?$AAb?$AAj?$AAe?$AAc?$AAt?$AA?4?$AAc?$AA?$AA@
  00059	48 8d 0d 00 00
	00 00		 lea	 rcx, OFFSET FLAT:??_C@_1BK@KLMFOMEM@?$AAs?$AAe?$AAl?$AAf?$AA?5?$AA?$CB?$AA?$DN?$AA?5?$AAN?$AAU?$AAL?$AAL?$AA?$AA@
  00060	ff 15 00 00 00
	00		 call	 QWORD PTR __imp__wassert
  00066	33 c0		 xor	 eax, eax
$LN50@listsort:

; 1980 :     assert (PyList_Check(self));

  00068	48 8b 84 24 40
	11 00 00	 mov	 rax, QWORD PTR self$[rsp]
  00070	48 8b 40 58	 mov	 rax, QWORD PTR [rax+88]
  00074	8b 80 00 01 00
	00		 mov	 eax, DWORD PTR [rax+256]
  0007a	25 00 00 00 02	 and	 eax, 33554432		; 02000000H
  0007f	85 c0		 test	 eax, eax
  00081	75 1c		 jne	 SHORT $LN51@listsort
  00083	41 b8 bc 07 00
	00		 mov	 r8d, 1980		; 000007bcH
  00089	48 8d 15 00 00
	00 00		 lea	 rdx, OFFSET FLAT:??_C@_1DA@FFHCLKCK@?$AA?4?$AA?4?$AA?2?$AAO?$AAb?$AAj?$AAe?$AAc?$AAt?$AAs?$AA?2?$AAl?$AAi?$AAs?$AAt?$AAo?$AAb?$AAj?$AAe?$AAc?$AAt?$AA?4?$AAc?$AA?$AA@
  00090	48 8d 0d 00 00
	00 00		 lea	 rcx, OFFSET FLAT:??_C@_1CG@HIEBMCAP@?$AAP?$AAy?$AAL?$AAi?$AAs?$AAt?$AA_?$AAC?$AAh?$AAe?$AAc?$AAk?$AA?$CI?$AAs?$AAe?$AAl?$AAf?$AA?$CJ?$AA?$AA@
  00097	ff 15 00 00 00
	00		 call	 QWORD PTR __imp__wassert
  0009d	33 c0		 xor	 eax, eax
$LN51@listsort:

; 1981 : 
; 1982 :     /*
; 1983 :     if (Px_PROTECTION_ERROR(self))
; 1984 :         return NULL;
; 1985 :     */
; 1986 : 
; 1987 :     if (args != NULL) {

  0009f	48 83 bc 24 48
	11 00 00 00	 cmp	 QWORD PTR args$[rsp], 0
  000a8	74 71		 je	 SHORT $LN47@listsort

; 1988 :         if (!PyArg_ParseTupleAndKeywords(args, kwds, "|Oi:sort",
; 1989 :             kwlist, &keyfunc, &reverse))

  000aa	48 8d 84 24 98
	10 00 00	 lea	 rax, QWORD PTR reverse$[rsp]
  000b2	48 89 44 24 28	 mov	 QWORD PTR [rsp+40], rax
  000b7	48 8d 84 24 78
	10 00 00	 lea	 rax, QWORD PTR keyfunc$[rsp]
  000bf	48 89 44 24 20	 mov	 QWORD PTR [rsp+32], rax
  000c4	4c 8d 0d 00 00
	00 00		 lea	 r9, OFFSET FLAT:?kwlist@?1??listsort@@9@9
  000cb	4c 8d 05 00 00
	00 00		 lea	 r8, OFFSET FLAT:??_C@_08IFACFLKK@?$HMOi?3sort?$AA@
  000d2	48 8b 94 24 50
	11 00 00	 mov	 rdx, QWORD PTR kwds$[rsp]
  000da	48 8b 8c 24 48
	11 00 00	 mov	 rcx, QWORD PTR args$[rsp]
  000e2	e8 00 00 00 00	 call	 PyArg_ParseTupleAndKeywords
  000e7	85 c0		 test	 eax, eax
  000e9	75 07		 jne	 SHORT $LN46@listsort

; 1990 :             return NULL;

  000eb	33 c0		 xor	 eax, eax
  000ed	e9 8e 08 00 00	 jmp	 $LN48@listsort
$LN46@listsort:

; 1991 :         if (Py_SIZE(args) > 0) {

  000f2	48 8b 84 24 48
	11 00 00	 mov	 rax, QWORD PTR args$[rsp]
  000fa	48 83 78 60 00	 cmp	 QWORD PTR [rax+96], 0
  000ff	7e 1a		 jle	 SHORT $LN45@listsort

; 1992 :             PyErr_SetString(PyExc_TypeError,
; 1993 :                 "must use keyword argument for key function");

  00101	48 8d 15 00 00
	00 00		 lea	 rdx, OFFSET FLAT:??_C@_0CL@HOEKIDMG@must?5use?5keyword?5argument?5for?5ke@
  00108	48 8b 0d 00 00
	00 00		 mov	 rcx, QWORD PTR PyExc_TypeError
  0010f	e8 00 00 00 00	 call	 PyErr_SetString

; 1994 :             return NULL;

  00114	33 c0		 xor	 eax, eax
  00116	e9 65 08 00 00	 jmp	 $LN48@listsort
$LN45@listsort:
$LN47@listsort:

; 1995 :         }
; 1996 :     }
; 1997 :     if (keyfunc == Py_None)

  0011b	48 8d 05 00 00
	00 00		 lea	 rax, OFFSET FLAT:_Py_NoneStruct
  00122	48 39 84 24 78
	10 00 00	 cmp	 QWORD PTR keyfunc$[rsp], rax
  0012a	75 0c		 jne	 SHORT $LN44@listsort

; 1998 :         keyfunc = NULL;

  0012c	48 c7 84 24 78
	10 00 00 00 00
	00 00		 mov	 QWORD PTR keyfunc$[rsp], 0
$LN44@listsort:

; 1999 : 
; 2000 :     /* The list is temporarily made empty, so that mutations performed
; 2001 :      * by comparison functions can't affect the slice of memory we're
; 2002 :      * sorting (allowing mutations during sorting is a core-dump
; 2003 :      * factory, since ob_item may change).
; 2004 :      */
; 2005 :     saved_ob_size = Py_SIZE(self);

  00138	48 8b 84 24 40
	11 00 00	 mov	 rax, QWORD PTR self$[rsp]
  00140	48 8b 40 60	 mov	 rax, QWORD PTR [rax+96]
  00144	48 89 84 24 90
	10 00 00	 mov	 QWORD PTR saved_ob_size$[rsp], rax

; 2006 :     saved_ob_item = self->ob_item;

  0014c	48 8b 84 24 40
	11 00 00	 mov	 rax, QWORD PTR self$[rsp]
  00154	48 8b 40 70	 mov	 rax, QWORD PTR [rax+112]
  00158	48 89 84 24 70
	10 00 00	 mov	 QWORD PTR saved_ob_item$[rsp], rax

; 2007 :     saved_allocated = self->allocated;

  00160	48 8b 84 24 40
	11 00 00	 mov	 rax, QWORD PTR self$[rsp]
  00168	48 8b 40 78	 mov	 rax, QWORD PTR [rax+120]
  0016c	48 89 84 24 b0
	10 00 00	 mov	 QWORD PTR saved_allocated$[rsp], rax

; 2008 :     Py_SIZE(self) = 0;

  00174	48 8b 84 24 40
	11 00 00	 mov	 rax, QWORD PTR self$[rsp]
  0017c	48 c7 40 60 00
	00 00 00	 mov	 QWORD PTR [rax+96], 0

; 2009 :     self->ob_item = NULL;

  00184	48 8b 84 24 40
	11 00 00	 mov	 rax, QWORD PTR self$[rsp]
  0018c	48 c7 40 70 00
	00 00 00	 mov	 QWORD PTR [rax+112], 0

; 2010 :     self->allocated = -1; /* any operation will reset it to >= 0 */

  00194	48 8b 84 24 40
	11 00 00	 mov	 rax, QWORD PTR self$[rsp]
  0019c	48 c7 40 78 ff
	ff ff ff	 mov	 QWORD PTR [rax+120], -1

; 2011 : 
; 2012 :     if (keyfunc == NULL) {

  001a4	48 83 bc 24 78
	10 00 00 00	 cmp	 QWORD PTR keyfunc$[rsp], 0
  001ad	75 27		 jne	 SHORT $LN43@listsort

; 2013 :         keys = NULL;

  001af	48 c7 84 24 88
	10 00 00 00 00
	00 00		 mov	 QWORD PTR keys$[rsp], 0

; 2014 :         lo.keys = saved_ob_item;

  001bb	48 8b 84 24 70
	10 00 00	 mov	 rax, QWORD PTR saved_ob_item$[rsp]
  001c3	48 89 44 24 30	 mov	 QWORD PTR lo$[rsp], rax

; 2015 :         lo.values = NULL;

  001c8	48 c7 44 24 38
	00 00 00 00	 mov	 QWORD PTR lo$[rsp+8], 0

; 2016 :     }
; 2017 :     else {

  001d1	e9 b7 01 00 00	 jmp	 $LN42@listsort
$LN43@listsort:

; 2018 :         if (saved_ob_size < MERGESTATE_TEMP_SIZE/2)

  001d6	48 81 bc 24 90
	10 00 00 80 00
	00 00		 cmp	 QWORD PTR saved_ob_size$[rsp], 128 ; 00000080H
  001e2	7d 1a		 jge	 SHORT $LN41@listsort

; 2019 :             /* Leverage stack space we allocated but won't otherwise use */
; 2020 :             keys = &ms.temparray[saved_ob_size+1];

  001e4	48 8b 84 24 90
	10 00 00	 mov	 rax, QWORD PTR saved_ob_size$[rsp]
  001ec	48 8d 84 c4 78
	08 00 00	 lea	 rax, QWORD PTR ms$[rsp+rax*8+2088]
  001f4	48 89 84 24 88
	10 00 00	 mov	 QWORD PTR keys$[rsp], rax

; 2021 :         else {

  001fc	eb 65		 jmp	 SHORT $LN40@listsort
$LN41@listsort:

; 2022 :             keys = PyMem_MALLOC(sizeof(PyObject *) * saved_ob_size);

  001fe	e8 00 00 00 00	 call	 _Py_PXCTX
  00203	85 c0		 test	 eax, eax
  00205	74 1e		 je	 SHORT $LN52@listsort
  00207	48 8b 84 24 90
	10 00 00	 mov	 rax, QWORD PTR saved_ob_size$[rsp]
  0020f	48 c1 e0 03	 shl	 rax, 3
  00213	48 8b c8	 mov	 rcx, rax
  00216	e8 00 00 00 00	 call	 _PxMem_Malloc
  0021b	48 89 84 24 e0
	10 00 00	 mov	 QWORD PTR tv142[rsp], rax
  00223	eb 1c		 jmp	 SHORT $LN53@listsort
$LN52@listsort:
  00225	48 8b 84 24 90
	10 00 00	 mov	 rax, QWORD PTR saved_ob_size$[rsp]
  0022d	48 c1 e0 03	 shl	 rax, 3
  00231	48 8b c8	 mov	 rcx, rax
  00234	e8 00 00 00 00	 call	 _PyMem_DebugMalloc
  00239	48 89 84 24 e0
	10 00 00	 mov	 QWORD PTR tv142[rsp], rax
$LN53@listsort:
  00241	48 8b 84 24 e0
	10 00 00	 mov	 rax, QWORD PTR tv142[rsp]
  00249	48 89 84 24 88
	10 00 00	 mov	 QWORD PTR keys$[rsp], rax

; 2023 :             if (keys == NULL)

  00251	48 83 bc 24 88
	10 00 00 00	 cmp	 QWORD PTR keys$[rsp], 0
  0025a	75 07		 jne	 SHORT $LN39@listsort

; 2024 :                 return NULL;

  0025c	33 c0		 xor	 eax, eax
  0025e	e9 1d 07 00 00	 jmp	 $LN48@listsort
$LN39@listsort:
$LN40@listsort:

; 2025 :         }
; 2026 : 
; 2027 :         for (i = 0; i < saved_ob_size ; i++) {

  00263	48 c7 44 24 40
	00 00 00 00	 mov	 QWORD PTR i$[rsp], 0
  0026c	eb 0d		 jmp	 SHORT $LN38@listsort
$LN37@listsort:
  0026e	48 8b 44 24 40	 mov	 rax, QWORD PTR i$[rsp]
  00273	48 ff c0	 inc	 rax
  00276	48 89 44 24 40	 mov	 QWORD PTR i$[rsp], rax
$LN38@listsort:
  0027b	48 8b 84 24 90
	10 00 00	 mov	 rax, QWORD PTR saved_ob_size$[rsp]
  00283	48 39 44 24 40	 cmp	 QWORD PTR i$[rsp], rax
  00288	0f 8d e5 00 00
	00		 jge	 $LN36@listsort

; 2028 :             keys[i] = PyObject_CallFunctionObjArgs(keyfunc, saved_ob_item[i],
; 2029 :                                                    NULL);

  0028e	45 33 c0	 xor	 r8d, r8d
  00291	48 8b 84 24 70
	10 00 00	 mov	 rax, QWORD PTR saved_ob_item$[rsp]
  00299	48 8b 4c 24 40	 mov	 rcx, QWORD PTR i$[rsp]
  0029e	48 8b 14 c8	 mov	 rdx, QWORD PTR [rax+rcx*8]
  002a2	48 8b 8c 24 78
	10 00 00	 mov	 rcx, QWORD PTR keyfunc$[rsp]
  002aa	e8 00 00 00 00	 call	 PyObject_CallFunctionObjArgs
  002af	48 8b 8c 24 88
	10 00 00	 mov	 rcx, QWORD PTR keys$[rsp]
  002b7	48 8b 54 24 40	 mov	 rdx, QWORD PTR i$[rsp]
  002bc	48 89 04 d1	 mov	 QWORD PTR [rcx+rdx*8], rax

; 2030 :             if (keys[i] == NULL) {

  002c0	48 8b 84 24 88
	10 00 00	 mov	 rax, QWORD PTR keys$[rsp]
  002c8	48 8b 4c 24 40	 mov	 rcx, QWORD PTR i$[rsp]
  002cd	48 83 3c c8 00	 cmp	 QWORD PTR [rax+rcx*8], 0
  002d2	0f 85 96 00 00
	00		 jne	 $LN35@listsort

; 2031 :                 for (i=i-1 ; i>=0 ; i--)

  002d8	48 8b 44 24 40	 mov	 rax, QWORD PTR i$[rsp]
  002dd	48 ff c8	 dec	 rax
  002e0	48 89 44 24 40	 mov	 QWORD PTR i$[rsp], rax
  002e5	eb 0d		 jmp	 SHORT $LN34@listsort
$LN33@listsort:
  002e7	48 8b 44 24 40	 mov	 rax, QWORD PTR i$[rsp]
  002ec	48 ff c8	 dec	 rax
  002ef	48 89 44 24 40	 mov	 QWORD PTR i$[rsp], rax
$LN34@listsort:
  002f4	48 83 7c 24 40
	00		 cmp	 QWORD PTR i$[rsp], 0
  002fa	7c 18		 jl	 SHORT $LN32@listsort

; 2032 :                     Py_DECREF(keys[i]);

  002fc	48 8b 84 24 88
	10 00 00	 mov	 rax, QWORD PTR keys$[rsp]
  00304	48 8b 4c 24 40	 mov	 rcx, QWORD PTR i$[rsp]
  00309	48 8b 0c c8	 mov	 rcx, QWORD PTR [rax+rcx*8]
  0030d	e8 00 00 00 00	 call	 _Py_DecRef
  00312	eb d3		 jmp	 SHORT $LN33@listsort
$LN32@listsort:

; 2033 :                 if (keys != &ms.temparray[saved_ob_size+1])

  00314	48 8b 84 24 90
	10 00 00	 mov	 rax, QWORD PTR saved_ob_size$[rsp]
  0031c	48 8d 84 c4 78
	08 00 00	 lea	 rax, QWORD PTR ms$[rsp+rax*8+2088]
  00324	48 39 84 24 88
	10 00 00	 cmp	 QWORD PTR keys$[rsp], rax
  0032c	74 3b		 je	 SHORT $LN31@listsort

; 2034 :                     PyMem_FREE(keys);

  0032e	e8 00 00 00 00	 call	 _Py_PXCTX
  00333	85 c0		 test	 eax, eax
  00335	74 1a		 je	 SHORT $LN54@listsort
  00337	48 8b 8c 24 88
	10 00 00	 mov	 rcx, QWORD PTR keys$[rsp]
  0033f	e8 00 00 00 00	 call	 _PxMem_Free
  00344	c7 84 24 e8 10
	00 00 00 00 00
	00		 mov	 DWORD PTR tv171[rsp], 0
  0034f	eb 18		 jmp	 SHORT $LN55@listsort
$LN54@listsort:
  00351	48 8b 8c 24 88
	10 00 00	 mov	 rcx, QWORD PTR keys$[rsp]
  00359	e8 00 00 00 00	 call	 _PyMem_DebugFree
  0035e	c7 84 24 e8 10
	00 00 00 00 00
	00		 mov	 DWORD PTR tv171[rsp], 0
$LN55@listsort:
$LN31@listsort:

; 2035 :                 goto keyfunc_fail;

  00369	e9 fa 04 00 00	 jmp	 $keyfunc_fail$21720
$LN35@listsort:

; 2036 :             }
; 2037 :         }

  0036e	e9 fb fe ff ff	 jmp	 $LN37@listsort
$LN36@listsort:

; 2038 : 
; 2039 :         lo.keys = keys;

  00373	48 8b 84 24 88
	10 00 00	 mov	 rax, QWORD PTR keys$[rsp]
  0037b	48 89 44 24 30	 mov	 QWORD PTR lo$[rsp], rax

; 2040 :         lo.values = saved_ob_item;

  00380	48 8b 84 24 70
	10 00 00	 mov	 rax, QWORD PTR saved_ob_item$[rsp]
  00388	48 89 44 24 38	 mov	 QWORD PTR lo$[rsp+8], rax
$LN42@listsort:

; 2041 :     }
; 2042 : 
; 2043 :     merge_init(&ms, saved_ob_size, keys != NULL);

  0038d	48 83 bc 24 88
	10 00 00 00	 cmp	 QWORD PTR keys$[rsp], 0
  00396	74 0d		 je	 SHORT $LN56@listsort
  00398	c7 84 24 ec 10
	00 00 01 00 00
	00		 mov	 DWORD PTR tv173[rsp], 1
  003a3	eb 0b		 jmp	 SHORT $LN57@listsort
$LN56@listsort:
  003a5	c7 84 24 ec 10
	00 00 00 00 00
	00		 mov	 DWORD PTR tv173[rsp], 0
$LN57@listsort:
  003b0	44 8b 84 24 ec
	10 00 00	 mov	 r8d, DWORD PTR tv173[rsp]
  003b8	48 8b 94 24 90
	10 00 00	 mov	 rdx, QWORD PTR saved_ob_size$[rsp]
  003c0	48 8d 4c 24 50	 lea	 rcx, QWORD PTR ms$[rsp]
  003c5	e8 00 00 00 00	 call	 merge_init

; 2044 : 
; 2045 :     nremaining = saved_ob_size;

  003ca	48 8b 84 24 90
	10 00 00	 mov	 rax, QWORD PTR saved_ob_size$[rsp]
  003d2	48 89 44 24 48	 mov	 QWORD PTR nremaining$[rsp], rax

; 2046 :     if (nremaining < 2)

  003d7	48 83 7c 24 48
	02		 cmp	 QWORD PTR nremaining$[rsp], 2
  003dd	7d 05		 jge	 SHORT $LN30@listsort

; 2047 :         goto succeed;

  003df	e9 56 03 00 00	 jmp	 $succeed$21723
$LN30@listsort:

; 2048 : 
; 2049 :     /* Reverse sort stability achieved by initially reversing the list,
; 2050 :     applying a stable forward sort, then reversing the final result. */
; 2051 :     if (reverse) {

  003e4	83 bc 24 98 10
	00 00 00	 cmp	 DWORD PTR reverse$[rsp], 0
  003ec	74 53		 je	 SHORT $LN29@listsort

; 2052 :         if (keys != NULL)

  003ee	48 83 bc 24 88
	10 00 00 00	 cmp	 QWORD PTR keys$[rsp], 0
  003f7	74 24		 je	 SHORT $LN28@listsort

; 2053 :             reverse_slice(&keys[0], &keys[saved_ob_size]);

  003f9	48 8b 84 24 88
	10 00 00	 mov	 rax, QWORD PTR keys$[rsp]
  00401	48 8b 8c 24 90
	10 00 00	 mov	 rcx, QWORD PTR saved_ob_size$[rsp]
  00409	48 8d 04 c8	 lea	 rax, QWORD PTR [rax+rcx*8]
  0040d	48 8b d0	 mov	 rdx, rax
  00410	48 8b 8c 24 88
	10 00 00	 mov	 rcx, QWORD PTR keys$[rsp]
  00418	e8 00 00 00 00	 call	 reverse_slice
$LN28@listsort:

; 2054 :         reverse_slice(&saved_ob_item[0], &saved_ob_item[saved_ob_size]);

  0041d	48 8b 84 24 70
	10 00 00	 mov	 rax, QWORD PTR saved_ob_item$[rsp]
  00425	48 8b 8c 24 90
	10 00 00	 mov	 rcx, QWORD PTR saved_ob_size$[rsp]
  0042d	48 8d 04 c8	 lea	 rax, QWORD PTR [rax+rcx*8]
  00431	48 8b d0	 mov	 rdx, rax
  00434	48 8b 8c 24 70
	10 00 00	 mov	 rcx, QWORD PTR saved_ob_item$[rsp]
  0043c	e8 00 00 00 00	 call	 reverse_slice
$LN29@listsort:

; 2055 :     }
; 2056 : 
; 2057 :     /* March over the array once, left to right, finding natural runs,
; 2058 :      * and extending short natural runs to minrun elements.
; 2059 :      */
; 2060 :     minrun = merge_compute_minrun(nremaining);

  00441	48 8b 4c 24 48	 mov	 rcx, QWORD PTR nremaining$[rsp]
  00446	e8 00 00 00 00	 call	 merge_compute_minrun
  0044b	48 89 84 24 80
	10 00 00	 mov	 QWORD PTR minrun$[rsp], rax
$LN27@listsort:

; 2061 :     do {
; 2062 :         int descending;
; 2063 :         Py_ssize_t n;
; 2064 : 
; 2065 :         /* Identify next run. */
; 2066 :         n = count_run(lo.keys, lo.keys + nremaining, &descending);

  00453	48 8b 44 24 30	 mov	 rax, QWORD PTR lo$[rsp]
  00458	48 8b 4c 24 48	 mov	 rcx, QWORD PTR nremaining$[rsp]
  0045d	48 8d 04 c8	 lea	 rax, QWORD PTR [rax+rcx*8]
  00461	4c 8d 84 24 c0
	10 00 00	 lea	 r8, QWORD PTR descending$21730[rsp]
  00469	48 8b d0	 mov	 rdx, rax
  0046c	48 8b 4c 24 30	 mov	 rcx, QWORD PTR lo$[rsp]
  00471	e8 00 00 00 00	 call	 count_run
  00476	48 89 84 24 b8
	10 00 00	 mov	 QWORD PTR n$21731[rsp], rax

; 2067 :         if (n < 0)

  0047e	48 83 bc 24 b8
	10 00 00 00	 cmp	 QWORD PTR n$21731[rsp], 0
  00487	7d 05		 jge	 SHORT $LN24@listsort

; 2068 :             goto fail;

  00489	e9 bb 02 00 00	 jmp	 $fail$21733
$LN24@listsort:

; 2069 :         if (descending)

  0048e	83 bc 24 c0 10
	00 00 00	 cmp	 DWORD PTR descending$21730[rsp], 0
  00496	74 12		 je	 SHORT $LN23@listsort

; 2070 :             reverse_sortslice(&lo, n);

  00498	48 8b 94 24 b8
	10 00 00	 mov	 rdx, QWORD PTR n$21731[rsp]
  004a0	48 8d 4c 24 30	 lea	 rcx, QWORD PTR lo$[rsp]
  004a5	e8 00 00 00 00	 call	 reverse_sortslice
$LN23@listsort:

; 2071 :         /* If short, extend to min(minrun, nremaining). */
; 2072 :         if (n < minrun) {

  004aa	48 8b 84 24 80
	10 00 00	 mov	 rax, QWORD PTR minrun$[rsp]
  004b2	48 39 84 24 b8
	10 00 00	 cmp	 QWORD PTR n$21731[rsp], rax
  004ba	0f 8d b6 00 00
	00		 jge	 $LN22@listsort

; 2073 :             const Py_ssize_t force = nremaining <= minrun ?
; 2074 :                               nremaining : minrun;

  004c0	48 8b 84 24 80
	10 00 00	 mov	 rax, QWORD PTR minrun$[rsp]
  004c8	48 39 44 24 48	 cmp	 QWORD PTR nremaining$[rsp], rax
  004cd	7f 0f		 jg	 SHORT $LN58@listsort
  004cf	48 8b 44 24 48	 mov	 rax, QWORD PTR nremaining$[rsp]
  004d4	48 89 84 24 f0
	10 00 00	 mov	 QWORD PTR tv202[rsp], rax
  004dc	eb 10		 jmp	 SHORT $LN59@listsort
$LN58@listsort:
  004de	48 8b 84 24 80
	10 00 00	 mov	 rax, QWORD PTR minrun$[rsp]
  004e6	48 89 84 24 f0
	10 00 00	 mov	 QWORD PTR tv202[rsp], rax
$LN59@listsort:
  004ee	48 8b 84 24 f0
	10 00 00	 mov	 rax, QWORD PTR tv202[rsp]
  004f6	48 89 84 24 c8
	10 00 00	 mov	 QWORD PTR force$21736[rsp], rax

; 2075 :             if (binarysort(lo, lo.keys + force, lo.keys + n) < 0)

  004fe	48 8b 44 24 30	 mov	 rax, QWORD PTR lo$[rsp]
  00503	48 8b 8c 24 b8
	10 00 00	 mov	 rcx, QWORD PTR n$21731[rsp]
  0050b	48 8d 04 c8	 lea	 rax, QWORD PTR [rax+rcx*8]
  0050f	48 8b 4c 24 30	 mov	 rcx, QWORD PTR lo$[rsp]
  00514	48 8b 94 24 c8
	10 00 00	 mov	 rdx, QWORD PTR force$21736[rsp]
  0051c	48 8d 0c d1	 lea	 rcx, QWORD PTR [rcx+rdx*8]
  00520	48 89 8c 24 f8
	10 00 00	 mov	 QWORD PTR tv208[rsp], rcx
  00528	48 8d 94 24 d0
	10 00 00	 lea	 rdx, QWORD PTR $T23300[rsp]
  00530	4c 8d 44 24 30	 lea	 r8, QWORD PTR lo$[rsp]
  00535	48 8b fa	 mov	 rdi, rdx
  00538	49 8b f0	 mov	 rsi, r8
  0053b	b9 10 00 00 00	 mov	 ecx, 16
  00540	f3 a4		 rep movsb
  00542	4c 8b c0	 mov	 r8, rax
  00545	48 8b 84 24 f8
	10 00 00	 mov	 rax, QWORD PTR tv208[rsp]
  0054d	48 8b d0	 mov	 rdx, rax
  00550	48 8d 8c 24 d0
	10 00 00	 lea	 rcx, QWORD PTR $T23300[rsp]
  00558	e8 00 00 00 00	 call	 binarysort
  0055d	85 c0		 test	 eax, eax
  0055f	7d 05		 jge	 SHORT $LN21@listsort

; 2076 :                 goto fail;

  00561	e9 e3 01 00 00	 jmp	 $fail$21733
$LN21@listsort:

; 2077 :             n = force;

  00566	48 8b 84 24 c8
	10 00 00	 mov	 rax, QWORD PTR force$21736[rsp]
  0056e	48 89 84 24 b8
	10 00 00	 mov	 QWORD PTR n$21731[rsp], rax
$LN22@listsort:

; 2078 :         }
; 2079 :         /* Push run onto pending-runs stack, and maybe merge. */
; 2080 :         assert(ms.n < MAX_MERGE_PENDING);

  00576	83 7c 24 70 55	 cmp	 DWORD PTR ms$[rsp+32], 85 ; 00000055H
  0057b	7c 1c		 jl	 SHORT $LN60@listsort
  0057d	41 b8 20 08 00
	00		 mov	 r8d, 2080		; 00000820H
  00583	48 8d 15 00 00
	00 00		 lea	 rdx, OFFSET FLAT:??_C@_1DA@FFHCLKCK@?$AA?4?$AA?4?$AA?2?$AAO?$AAb?$AAj?$AAe?$AAc?$AAt?$AAs?$AA?2?$AAl?$AAi?$AAs?$AAt?$AAo?$AAb?$AAj?$AAe?$AAc?$AAt?$AA?4?$AAc?$AA?$AA@
  0058a	48 8d 0d 00 00
	00 00		 lea	 rcx, OFFSET FLAT:??_C@_1DC@PLPKLELL@?$AAm?$AAs?$AA?4?$AAn?$AA?5?$AA?$DM?$AA?5?$AAM?$AAA?$AAX?$AA_?$AAM?$AAE?$AAR?$AAG?$AAE?$AA_?$AAP?$AAE?$AAN?$AAD?$AAI?$AAN?$AAG?$AA?$AA@
  00591	ff 15 00 00 00
	00		 call	 QWORD PTR __imp__wassert
  00597	33 c0		 xor	 eax, eax
$LN60@listsort:

; 2081 :         ms.pending[ms.n].base = lo;

  00599	48 63 44 24 70	 movsxd	 rax, DWORD PTR ms$[rsp+32]
  0059e	48 6b c0 18	 imul	 rax, 24
  005a2	48 8d 4c 24 30	 lea	 rcx, QWORD PTR lo$[rsp]
  005a7	48 8d 7c 04 78	 lea	 rdi, QWORD PTR ms$[rsp+rax+40]
  005ac	48 8b f1	 mov	 rsi, rcx
  005af	b9 10 00 00 00	 mov	 ecx, 16
  005b4	f3 a4		 rep movsb

; 2082 :         ms.pending[ms.n].len = n;

  005b6	48 63 44 24 70	 movsxd	 rax, DWORD PTR ms$[rsp+32]
  005bb	48 6b c0 18	 imul	 rax, 24
  005bf	48 8b 8c 24 b8
	10 00 00	 mov	 rcx, QWORD PTR n$21731[rsp]
  005c7	48 89 8c 04 88
	00 00 00	 mov	 QWORD PTR ms$[rsp+rax+56], rcx

; 2083 :         ++ms.n;

  005cf	8b 44 24 70	 mov	 eax, DWORD PTR ms$[rsp+32]
  005d3	ff c0		 inc	 eax
  005d5	89 44 24 70	 mov	 DWORD PTR ms$[rsp+32], eax

; 2084 :         if (merge_collapse(&ms) < 0)

  005d9	48 8d 4c 24 50	 lea	 rcx, QWORD PTR ms$[rsp]
  005de	e8 00 00 00 00	 call	 merge_collapse
  005e3	85 c0		 test	 eax, eax
  005e5	7d 05		 jge	 SHORT $LN20@listsort

; 2085 :             goto fail;

  005e7	e9 5d 01 00 00	 jmp	 $fail$21733
$LN20@listsort:

; 2086 :         /* Advance to find next run. */
; 2087 :         sortslice_advance(&lo, n);

  005ec	48 8b 94 24 b8
	10 00 00	 mov	 rdx, QWORD PTR n$21731[rsp]
  005f4	48 8d 4c 24 30	 lea	 rcx, QWORD PTR lo$[rsp]
  005f9	e8 00 00 00 00	 call	 sortslice_advance

; 2088 :         nremaining -= n;

  005fe	48 8b 84 24 b8
	10 00 00	 mov	 rax, QWORD PTR n$21731[rsp]
  00606	48 8b 4c 24 48	 mov	 rcx, QWORD PTR nremaining$[rsp]
  0060b	48 2b c8	 sub	 rcx, rax
  0060e	48 8b c1	 mov	 rax, rcx
  00611	48 89 44 24 48	 mov	 QWORD PTR nremaining$[rsp], rax

; 2089 :     } while (nremaining);

  00616	48 83 7c 24 48
	00		 cmp	 QWORD PTR nremaining$[rsp], 0
  0061c	0f 85 31 fe ff
	ff		 jne	 $LN27@listsort

; 2090 : 
; 2091 :     if (merge_force_collapse(&ms) < 0)

  00622	48 8d 4c 24 50	 lea	 rcx, QWORD PTR ms$[rsp]
  00627	e8 00 00 00 00	 call	 merge_force_collapse
  0062c	85 c0		 test	 eax, eax
  0062e	7d 05		 jge	 SHORT $LN19@listsort

; 2092 :         goto fail;

  00630	e9 14 01 00 00	 jmp	 $fail$21733
$LN19@listsort:

; 2093 :     assert(ms.n == 1);

  00635	83 7c 24 70 01	 cmp	 DWORD PTR ms$[rsp+32], 1
  0063a	74 1c		 je	 SHORT $LN61@listsort
  0063c	41 b8 2d 08 00
	00		 mov	 r8d, 2093		; 0000082dH
  00642	48 8d 15 00 00
	00 00		 lea	 rdx, OFFSET FLAT:??_C@_1DA@FFHCLKCK@?$AA?4?$AA?4?$AA?2?$AAO?$AAb?$AAj?$AAe?$AAc?$AAt?$AAs?$AA?2?$AAl?$AAi?$AAs?$AAt?$AAo?$AAb?$AAj?$AAe?$AAc?$AAt?$AA?4?$AAc?$AA?$AA@
  00649	48 8d 0d 00 00
	00 00		 lea	 rcx, OFFSET FLAT:??_C@_1BE@OOKFICLJ@?$AAm?$AAs?$AA?4?$AAn?$AA?5?$AA?$DN?$AA?$DN?$AA?5?$AA1?$AA?$AA@
  00650	ff 15 00 00 00
	00		 call	 QWORD PTR __imp__wassert
  00656	33 c0		 xor	 eax, eax
$LN61@listsort:

; 2094 :     assert(keys == NULL
; 2095 :            ? ms.pending[0].base.keys == saved_ob_item
; 2096 :            : ms.pending[0].base.keys == &keys[0]);

  00658	48 83 bc 24 88
	10 00 00 00	 cmp	 QWORD PTR keys$[rsp], 0
  00661	75 37		 jne	 SHORT $LN66@listsort
  00663	48 8b 84 24 70
	10 00 00	 mov	 rax, QWORD PTR saved_ob_item$[rsp]
  0066b	48 39 44 24 78	 cmp	 QWORD PTR ms$[rsp+40], rax
  00670	75 0d		 jne	 SHORT $LN64@listsort
  00672	c7 84 24 00 11
	00 00 01 00 00
	00		 mov	 DWORD PTR tv244[rsp], 1
  0067d	eb 0b		 jmp	 SHORT $LN65@listsort
$LN64@listsort:
  0067f	c7 84 24 00 11
	00 00 00 00 00
	00		 mov	 DWORD PTR tv244[rsp], 0
$LN65@listsort:
  0068a	8b 84 24 00 11
	00 00		 mov	 eax, DWORD PTR tv244[rsp]
  00691	89 84 24 04 11
	00 00		 mov	 DWORD PTR tv245[rsp], eax
  00698	eb 35		 jmp	 SHORT $LN67@listsort
$LN66@listsort:
  0069a	48 8b 84 24 88
	10 00 00	 mov	 rax, QWORD PTR keys$[rsp]
  006a2	48 39 44 24 78	 cmp	 QWORD PTR ms$[rsp+40], rax
  006a7	75 0d		 jne	 SHORT $LN62@listsort
  006a9	c7 84 24 08 11
	00 00 01 00 00
	00		 mov	 DWORD PTR tv243[rsp], 1
  006b4	eb 0b		 jmp	 SHORT $LN63@listsort
$LN62@listsort:
  006b6	c7 84 24 08 11
	00 00 00 00 00
	00		 mov	 DWORD PTR tv243[rsp], 0
$LN63@listsort:
  006c1	8b 84 24 08 11
	00 00		 mov	 eax, DWORD PTR tv243[rsp]
  006c8	89 84 24 04 11
	00 00		 mov	 DWORD PTR tv245[rsp], eax
$LN67@listsort:
  006cf	83 bc 24 04 11
	00 00 00	 cmp	 DWORD PTR tv245[rsp], 0
  006d7	75 1c		 jne	 SHORT $LN68@listsort
  006d9	41 b8 30 08 00
	00		 mov	 r8d, 2096		; 00000830H
  006df	48 8d 15 00 00
	00 00		 lea	 rdx, OFFSET FLAT:??_C@_1DA@FFHCLKCK@?$AA?4?$AA?4?$AA?2?$AAO?$AAb?$AAj?$AAe?$AAc?$AAt?$AAs?$AA?2?$AAl?$AAi?$AAs?$AAt?$AAo?$AAb?$AAj?$AAe?$AAc?$AAt?$AA?4?$AAc?$AA?$AA@
  006e6	48 8d 0d 00 00
	00 00		 lea	 rcx, OFFSET FLAT:??_C@_1LM@FKLCHDEB@?$AAk?$AAe?$AAy?$AAs?$AA?5?$AA?$DN?$AA?$DN?$AA?5?$AAN?$AAU?$AAL?$AAL?$AA?5?$AA?$DP?$AA?5?$AAm?$AAs?$AA?4?$AAp?$AAe?$AAn?$AAd?$AAi?$AAn?$AAg?$AA?$FL?$AA0?$AA?$FN?$AA?4?$AAb?$AAa?$AAs@
  006ed	ff 15 00 00 00
	00		 call	 QWORD PTR __imp__wassert
  006f3	33 c0		 xor	 eax, eax
$LN68@listsort:

; 2097 :     assert(ms.pending[0].len == saved_ob_size);

  006f5	48 8b 84 24 90
	10 00 00	 mov	 rax, QWORD PTR saved_ob_size$[rsp]
  006fd	48 39 84 24 88
	00 00 00	 cmp	 QWORD PTR ms$[rsp+56], rax
  00705	74 1c		 je	 SHORT $LN69@listsort
  00707	41 b8 31 08 00
	00		 mov	 r8d, 2097		; 00000831H
  0070d	48 8d 15 00 00
	00 00		 lea	 rdx, OFFSET FLAT:??_C@_1DA@FFHCLKCK@?$AA?4?$AA?4?$AA?2?$AAO?$AAb?$AAj?$AAe?$AAc?$AAt?$AAs?$AA?2?$AAl?$AAi?$AAs?$AAt?$AAo?$AAb?$AAj?$AAe?$AAc?$AAt?$AA?4?$AAc?$AA?$AA@
  00714	48 8d 0d 00 00
	00 00		 lea	 rcx, OFFSET FLAT:??_C@_1EG@IMBMBMLO@?$AAm?$AAs?$AA?4?$AAp?$AAe?$AAn?$AAd?$AAi?$AAn?$AAg?$AA?$FL?$AA0?$AA?$FN?$AA?4?$AAl?$AAe?$AAn?$AA?5?$AA?$DN?$AA?$DN?$AA?5?$AAs?$AAa?$AAv?$AAe?$AAd?$AA_?$AAo?$AAb?$AA_?$AAs?$AAi@
  0071b	ff 15 00 00 00
	00		 call	 QWORD PTR __imp__wassert
  00721	33 c0		 xor	 eax, eax
$LN69@listsort:

; 2098 :     lo = ms.pending[0].base;

  00723	48 8d 44 24 30	 lea	 rax, QWORD PTR lo$[rsp]
  00728	48 8d 4c 24 78	 lea	 rcx, QWORD PTR ms$[rsp+40]
  0072d	48 8b f8	 mov	 rdi, rax
  00730	48 8b f1	 mov	 rsi, rcx
  00733	b9 10 00 00 00	 mov	 ecx, 16
  00738	f3 a4		 rep movsb
$succeed$21723:

; 2099 : 
; 2100 : succeed:
; 2101 :     result = Py_None;

  0073a	48 8d 05 00 00
	00 00		 lea	 rax, OFFSET FLAT:_Py_NoneStruct
  00741	48 89 84 24 a0
	10 00 00	 mov	 QWORD PTR result$[rsp], rax
$fail$21733:

; 2102 : fail:
; 2103 :     if (keys != NULL) {

  00749	48 83 bc 24 88
	10 00 00 00	 cmp	 QWORD PTR keys$[rsp], 0
  00752	0f 84 94 00 00
	00		 je	 $LN18@listsort

; 2104 :         for (i = 0; i < saved_ob_size; i++)

  00758	48 c7 44 24 40
	00 00 00 00	 mov	 QWORD PTR i$[rsp], 0
  00761	eb 0d		 jmp	 SHORT $LN17@listsort
$LN16@listsort:
  00763	48 8b 44 24 40	 mov	 rax, QWORD PTR i$[rsp]
  00768	48 ff c0	 inc	 rax
  0076b	48 89 44 24 40	 mov	 QWORD PTR i$[rsp], rax
$LN17@listsort:
  00770	48 8b 84 24 90
	10 00 00	 mov	 rax, QWORD PTR saved_ob_size$[rsp]
  00778	48 39 44 24 40	 cmp	 QWORD PTR i$[rsp], rax
  0077d	7d 18		 jge	 SHORT $LN15@listsort

; 2105 :             Py_DECREF(keys[i]);

  0077f	48 8b 84 24 88
	10 00 00	 mov	 rax, QWORD PTR keys$[rsp]
  00787	48 8b 4c 24 40	 mov	 rcx, QWORD PTR i$[rsp]
  0078c	48 8b 0c c8	 mov	 rcx, QWORD PTR [rax+rcx*8]
  00790	e8 00 00 00 00	 call	 _Py_DecRef
  00795	eb cc		 jmp	 SHORT $LN16@listsort
$LN15@listsort:

; 2106 :         if (keys != &ms.temparray[saved_ob_size+1])

  00797	48 8b 84 24 90
	10 00 00	 mov	 rax, QWORD PTR saved_ob_size$[rsp]
  0079f	48 8d 84 c4 78
	08 00 00	 lea	 rax, QWORD PTR ms$[rsp+rax*8+2088]
  007a7	48 39 84 24 88
	10 00 00	 cmp	 QWORD PTR keys$[rsp], rax
  007af	74 3b		 je	 SHORT $LN14@listsort

; 2107 :             PyMem_FREE(keys);

  007b1	e8 00 00 00 00	 call	 _Py_PXCTX
  007b6	85 c0		 test	 eax, eax
  007b8	74 1a		 je	 SHORT $LN70@listsort
  007ba	48 8b 8c 24 88
	10 00 00	 mov	 rcx, QWORD PTR keys$[rsp]
  007c2	e8 00 00 00 00	 call	 _PxMem_Free
  007c7	c7 84 24 0c 11
	00 00 00 00 00
	00		 mov	 DWORD PTR tv270[rsp], 0
  007d2	eb 18		 jmp	 SHORT $LN71@listsort
$LN70@listsort:
  007d4	48 8b 8c 24 88
	10 00 00	 mov	 rcx, QWORD PTR keys$[rsp]
  007dc	e8 00 00 00 00	 call	 _PyMem_DebugFree
  007e1	c7 84 24 0c 11
	00 00 00 00 00
	00		 mov	 DWORD PTR tv270[rsp], 0
$LN71@listsort:
$LN14@listsort:
$LN18@listsort:

; 2108 :     }
; 2109 : 
; 2110 :     if (self->allocated != -1 && result != NULL) {

  007ec	48 8b 84 24 40
	11 00 00	 mov	 rax, QWORD PTR self$[rsp]
  007f4	48 83 78 78 ff	 cmp	 QWORD PTR [rax+120], -1
  007f9	74 2a		 je	 SHORT $LN13@listsort
  007fb	48 83 bc 24 a0
	10 00 00 00	 cmp	 QWORD PTR result$[rsp], 0
  00804	74 1f		 je	 SHORT $LN13@listsort

; 2111 :         /* The user mucked with the list during the sort,
; 2112 :          * and we don't already have another error to report.
; 2113 :          */
; 2114 :         PyErr_SetString(PyExc_ValueError, "list modified during sort");

  00806	48 8d 15 00 00
	00 00		 lea	 rdx, OFFSET FLAT:??_C@_0BK@BOEBAINE@list?5modified?5during?5sort?$AA@
  0080d	48 8b 0d 00 00
	00 00		 mov	 rcx, QWORD PTR PyExc_ValueError
  00814	e8 00 00 00 00	 call	 PyErr_SetString

; 2115 :         result = NULL;

  00819	48 c7 84 24 a0
	10 00 00 00 00
	00 00		 mov	 QWORD PTR result$[rsp], 0
$LN13@listsort:

; 2116 :     }
; 2117 : 
; 2118 :     if (reverse && saved_ob_size > 1)

  00825	83 bc 24 98 10
	00 00 00	 cmp	 DWORD PTR reverse$[rsp], 0
  0082d	74 2f		 je	 SHORT $LN12@listsort
  0082f	48 83 bc 24 90
	10 00 00 01	 cmp	 QWORD PTR saved_ob_size$[rsp], 1
  00838	7e 24		 jle	 SHORT $LN12@listsort

; 2119 :         reverse_slice(saved_ob_item, saved_ob_item + saved_ob_size);

  0083a	48 8b 84 24 70
	10 00 00	 mov	 rax, QWORD PTR saved_ob_item$[rsp]
  00842	48 8b 8c 24 90
	10 00 00	 mov	 rcx, QWORD PTR saved_ob_size$[rsp]
  0084a	48 8d 04 c8	 lea	 rax, QWORD PTR [rax+rcx*8]
  0084e	48 8b d0	 mov	 rdx, rax
  00851	48 8b 8c 24 70
	10 00 00	 mov	 rcx, QWORD PTR saved_ob_item$[rsp]
  00859	e8 00 00 00 00	 call	 reverse_slice
$LN12@listsort:

; 2120 : 
; 2121 :     merge_freemem(&ms);

  0085e	48 8d 4c 24 50	 lea	 rcx, QWORD PTR ms$[rsp]
  00863	e8 00 00 00 00	 call	 merge_freemem
$keyfunc_fail$21720:

; 2122 : 
; 2123 : keyfunc_fail:
; 2124 :     final_ob_item = self->ob_item;

  00868	48 8b 84 24 40
	11 00 00	 mov	 rax, QWORD PTR self$[rsp]
  00870	48 8b 40 70	 mov	 rax, QWORD PTR [rax+112]
  00874	48 89 84 24 a8
	10 00 00	 mov	 QWORD PTR final_ob_item$[rsp], rax

; 2125 :     i = Py_SIZE(self);

  0087c	48 8b 84 24 40
	11 00 00	 mov	 rax, QWORD PTR self$[rsp]
  00884	48 8b 40 60	 mov	 rax, QWORD PTR [rax+96]
  00888	48 89 44 24 40	 mov	 QWORD PTR i$[rsp], rax

; 2126 :     Py_SIZE(self) = saved_ob_size;

  0088d	48 8b 84 24 40
	11 00 00	 mov	 rax, QWORD PTR self$[rsp]
  00895	48 8b 8c 24 90
	10 00 00	 mov	 rcx, QWORD PTR saved_ob_size$[rsp]
  0089d	48 89 48 60	 mov	 QWORD PTR [rax+96], rcx

; 2127 :     self->ob_item = saved_ob_item;

  008a1	48 8b 84 24 40
	11 00 00	 mov	 rax, QWORD PTR self$[rsp]
  008a9	48 8b 8c 24 70
	10 00 00	 mov	 rcx, QWORD PTR saved_ob_item$[rsp]
  008b1	48 89 48 70	 mov	 QWORD PTR [rax+112], rcx

; 2128 :     self->allocated = saved_allocated;

  008b5	48 8b 84 24 40
	11 00 00	 mov	 rax, QWORD PTR self$[rsp]
  008bd	48 8b 8c 24 b0
	10 00 00	 mov	 rcx, QWORD PTR saved_allocated$[rsp]
  008c5	48 89 48 78	 mov	 QWORD PTR [rax+120], rcx

; 2129 :     if (final_ob_item != NULL) {

  008c9	48 83 bc 24 a8
	10 00 00 00	 cmp	 QWORD PTR final_ob_item$[rsp], 0
  008d2	0f 84 82 00 00
	00		 je	 $LN11@listsort
$LN10@listsort:

; 2130 :         /* we cannot use list_clear() for this because it does not
; 2131 :            guarantee that the list is really empty when it returns */
; 2132 :         while (--i >= 0) {

  008d8	48 8b 44 24 40	 mov	 rax, QWORD PTR i$[rsp]
  008dd	48 ff c8	 dec	 rax
  008e0	48 89 44 24 40	 mov	 QWORD PTR i$[rsp], rax
  008e5	48 83 7c 24 40
	00		 cmp	 QWORD PTR i$[rsp], 0
  008eb	7c 32		 jl	 SHORT $LN9@listsort
$LN8@listsort:

; 2133 :             Py_XDECREF(final_ob_item[i]);

  008ed	48 8b 84 24 a8
	10 00 00	 mov	 rax, QWORD PTR final_ob_item$[rsp]
  008f5	48 8b 4c 24 40	 mov	 rcx, QWORD PTR i$[rsp]
  008fa	48 83 3c c8 00	 cmp	 QWORD PTR [rax+rcx*8], 0
  008ff	74 16		 je	 SHORT $LN5@listsort
  00901	48 8b 84 24 a8
	10 00 00	 mov	 rax, QWORD PTR final_ob_item$[rsp]
  00909	48 8b 4c 24 40	 mov	 rcx, QWORD PTR i$[rsp]
  0090e	48 8b 0c c8	 mov	 rcx, QWORD PTR [rax+rcx*8]
  00912	e8 00 00 00 00	 call	 _Py_DecRef
$LN5@listsort:
  00917	33 c0		 xor	 eax, eax
  00919	85 c0		 test	 eax, eax
  0091b	75 d0		 jne	 SHORT $LN8@listsort

; 2134 :         }

  0091d	eb b9		 jmp	 SHORT $LN10@listsort
$LN9@listsort:

; 2135 :         PyMem_FREE(final_ob_item);

  0091f	e8 00 00 00 00	 call	 _Py_PXCTX
  00924	85 c0		 test	 eax, eax
  00926	74 1a		 je	 SHORT $LN72@listsort
  00928	48 8b 8c 24 a8
	10 00 00	 mov	 rcx, QWORD PTR final_ob_item$[rsp]
  00930	e8 00 00 00 00	 call	 _PxMem_Free
  00935	c7 84 24 10 11
	00 00 00 00 00
	00		 mov	 DWORD PTR tv302[rsp], 0
  00940	eb 18		 jmp	 SHORT $LN73@listsort
$LN72@listsort:
  00942	48 8b 8c 24 a8
	10 00 00	 mov	 rcx, QWORD PTR final_ob_item$[rsp]
  0094a	e8 00 00 00 00	 call	 _PyMem_DebugFree
  0094f	c7 84 24 10 11
	00 00 00 00 00
	00		 mov	 DWORD PTR tv302[rsp], 0
$LN73@listsort:
$LN11@listsort:
$LN4@listsort:

; 2136 :     }
; 2137 :     Py_XINCREF(result);

  0095a	48 83 bc 24 a0
	10 00 00 00	 cmp	 QWORD PTR result$[rsp], 0
  00963	74 0d		 je	 SHORT $LN1@listsort
  00965	48 8b 8c 24 a0
	10 00 00	 mov	 rcx, QWORD PTR result$[rsp]
  0096d	e8 00 00 00 00	 call	 _Py_IncRef
$LN1@listsort:
  00972	33 c0		 xor	 eax, eax
  00974	85 c0		 test	 eax, eax
  00976	75 e2		 jne	 SHORT $LN4@listsort

; 2138 :     return result;

  00978	48 8b 84 24 a0
	10 00 00	 mov	 rax, QWORD PTR result$[rsp]
$LN48@listsort:

; 2139 : }

  00980	48 81 c4 28 11
	00 00		 add	 rsp, 4392		; 00001128H
  00987	5f		 pop	 rdi
  00988	5e		 pop	 rsi
  00989	c3		 ret	 0
listsort ENDP
_TEXT	ENDS
PUBLIC	??_C@_1BC@PHKJEJOK@?$AAl?$AAo?$AA?5?$AA?$CG?$AA?$CG?$AA?5?$AAh?$AAi?$AA?$AA@ ; `string'
;	COMDAT pdata
pdata	SEGMENT
$pdata$reverse_slice DD imagerel reverse_slice
	DD	imagerel reverse_slice+161
	DD	imagerel $unwind$reverse_slice
pdata	ENDS
;	COMDAT xdata
xdata	SEGMENT
$unwind$reverse_slice DD 010e01H
	DD	0620eH
xdata	ENDS
;	COMDAT ??_C@_1BC@PHKJEJOK@?$AAl?$AAo?$AA?5?$AA?$CG?$AA?$CG?$AA?5?$AAh?$AAi?$AA?$AA@
CONST	SEGMENT
??_C@_1BC@PHKJEJOK@?$AAl?$AAo?$AA?5?$AA?$CG?$AA?$CG?$AA?5?$AAh?$AAi?$AA?$AA@ DB 'l'
	DB	00H, 'o', 00H, ' ', 00H, '&', 00H, '&', 00H, ' ', 00H, 'h', 00H
	DB	'i', 00H, 00H, 00H				; `string'
; Function compile flags: /Odtp
CONST	ENDS
;	COMDAT reverse_slice
_TEXT	SEGMENT
t$21160 = 32
lo$ = 64
hi$ = 72
reverse_slice PROC					; COMDAT

; 1002 : {

  00000	48 89 54 24 10	 mov	 QWORD PTR [rsp+16], rdx
  00005	48 89 4c 24 08	 mov	 QWORD PTR [rsp+8], rcx
  0000a	48 83 ec 38	 sub	 rsp, 56			; 00000038H

; 1003 :     assert(lo && hi);

  0000e	48 83 7c 24 40
	00		 cmp	 QWORD PTR lo$[rsp], 0
  00014	74 08		 je	 SHORT $LN5@reverse_sl
  00016	48 83 7c 24 48
	00		 cmp	 QWORD PTR hi$[rsp], 0
  0001c	75 1c		 jne	 SHORT $LN6@reverse_sl
$LN5@reverse_sl:
  0001e	41 b8 eb 03 00
	00		 mov	 r8d, 1003		; 000003ebH
  00024	48 8d 15 00 00
	00 00		 lea	 rdx, OFFSET FLAT:??_C@_1DA@FFHCLKCK@?$AA?4?$AA?4?$AA?2?$AAO?$AAb?$AAj?$AAe?$AAc?$AAt?$AAs?$AA?2?$AAl?$AAi?$AAs?$AAt?$AAo?$AAb?$AAj?$AAe?$AAc?$AAt?$AA?4?$AAc?$AA?$AA@
  0002b	48 8d 0d 00 00
	00 00		 lea	 rcx, OFFSET FLAT:??_C@_1BC@PHKJEJOK@?$AAl?$AAo?$AA?5?$AA?$CG?$AA?$CG?$AA?5?$AAh?$AAi?$AA?$AA@
  00032	ff 15 00 00 00
	00		 call	 QWORD PTR __imp__wassert
  00038	33 c0		 xor	 eax, eax
$LN6@reverse_sl:

; 1004 : 
; 1005 :     /* Px_CHECK_PROTECTION handled by callers (listreverse, listsort,
; 1006 :      * PyList_Reverse()).
; 1007 :      */
; 1008 : 
; 1009 :     --hi;

  0003a	48 8b 44 24 48	 mov	 rax, QWORD PTR hi$[rsp]
  0003f	48 83 e8 08	 sub	 rax, 8
  00043	48 89 44 24 48	 mov	 QWORD PTR hi$[rsp], rax
$LN2@reverse_sl:

; 1010 :     while (lo < hi) {

  00048	48 8b 44 24 48	 mov	 rax, QWORD PTR hi$[rsp]
  0004d	48 39 44 24 40	 cmp	 QWORD PTR lo$[rsp], rax
  00052	73 48		 jae	 SHORT $LN1@reverse_sl

; 1011 :         PyObject *t = *lo;

  00054	48 8b 44 24 40	 mov	 rax, QWORD PTR lo$[rsp]
  00059	48 8b 00	 mov	 rax, QWORD PTR [rax]
  0005c	48 89 44 24 20	 mov	 QWORD PTR t$21160[rsp], rax

; 1012 :         *lo = *hi;

  00061	48 8b 44 24 40	 mov	 rax, QWORD PTR lo$[rsp]
  00066	48 8b 4c 24 48	 mov	 rcx, QWORD PTR hi$[rsp]
  0006b	48 8b 09	 mov	 rcx, QWORD PTR [rcx]
  0006e	48 89 08	 mov	 QWORD PTR [rax], rcx

; 1013 :         *hi = t;

  00071	48 8b 44 24 48	 mov	 rax, QWORD PTR hi$[rsp]
  00076	48 8b 4c 24 20	 mov	 rcx, QWORD PTR t$21160[rsp]
  0007b	48 89 08	 mov	 QWORD PTR [rax], rcx

; 1014 :         ++lo;

  0007e	48 8b 44 24 40	 mov	 rax, QWORD PTR lo$[rsp]
  00083	48 83 c0 08	 add	 rax, 8
  00087	48 89 44 24 40	 mov	 QWORD PTR lo$[rsp], rax

; 1015 :         --hi;

  0008c	48 8b 44 24 48	 mov	 rax, QWORD PTR hi$[rsp]
  00091	48 83 e8 08	 sub	 rax, 8
  00095	48 89 44 24 48	 mov	 QWORD PTR hi$[rsp], rax

; 1016 :     }

  0009a	eb ac		 jmp	 SHORT $LN2@reverse_sl
$LN1@reverse_sl:

; 1017 : }

  0009c	48 83 c4 38	 add	 rsp, 56			; 00000038H
  000a0	c3		 ret	 0
reverse_slice ENDP
; Function compile flags: /Odtp
_TEXT	ENDS
;	COMDAT sortslice_advance
_TEXT	SEGMENT
slice$ = 8
n$ = 16
sortslice_advance PROC					; COMDAT

; 1082 : {

  00000	48 89 54 24 10	 mov	 QWORD PTR [rsp+16], rdx
  00005	48 89 4c 24 08	 mov	 QWORD PTR [rsp+8], rcx

; 1083 :     slice->keys += n;

  0000a	48 8b 44 24 08	 mov	 rax, QWORD PTR slice$[rsp]
  0000f	48 8b 00	 mov	 rax, QWORD PTR [rax]
  00012	48 8b 4c 24 10	 mov	 rcx, QWORD PTR n$[rsp]
  00017	48 8d 04 c8	 lea	 rax, QWORD PTR [rax+rcx*8]
  0001b	48 8b 4c 24 08	 mov	 rcx, QWORD PTR slice$[rsp]
  00020	48 89 01	 mov	 QWORD PTR [rcx], rax

; 1084 :     if (slice->values != NULL)

  00023	48 8b 44 24 08	 mov	 rax, QWORD PTR slice$[rsp]
  00028	48 83 78 08 00	 cmp	 QWORD PTR [rax+8], 0
  0002d	74 1b		 je	 SHORT $LN1@sortslice_

; 1085 :         slice->values += n;

  0002f	48 8b 44 24 08	 mov	 rax, QWORD PTR slice$[rsp]
  00034	48 8b 40 08	 mov	 rax, QWORD PTR [rax+8]
  00038	48 8b 4c 24 10	 mov	 rcx, QWORD PTR n$[rsp]
  0003d	48 8d 04 c8	 lea	 rax, QWORD PTR [rax+rcx*8]
  00041	48 8b 4c 24 08	 mov	 rcx, QWORD PTR slice$[rsp]
  00046	48 89 41 08	 mov	 QWORD PTR [rcx+8], rax
$LN1@sortslice_:

; 1086 : }

  0004a	f3 c3		 fatret	 0
sortslice_advance ENDP
_TEXT	ENDS
PUBLIC	??_C@_1O@NFACGBMB@?$AAl?$AA?5?$AA?$DN?$AA?$DN?$AA?5?$AAr?$AA?$AA@ ; `string'
PUBLIC	??_C@_1M@PCNHDANK@?$AAl?$AA?5?$AA?$DM?$AA?5?$AAr?$AA?$AA@ ; `string'
PUBLIC	??_C@_1EA@CMEFGAPF@?$AAl?$AAo?$AA?4?$AAk?$AAe?$AAy?$AAs?$AA?5?$AA?$DM?$AA?$DN?$AA?5?$AAs?$AAt?$AAa?$AAr?$AAt?$AA?5?$AA?$CG?$AA?$CG?$AA?5?$AAs?$AAt?$AAa?$AAr?$AAt?$AA?5?$AA?$DM?$AA?$DN?$AA?5?$AAh?$AAi?$AA?$AA@ ; `string'
;	COMDAT pdata
pdata	SEGMENT
$pdata$binarysort DD imagerel binarysort
	DD	imagerel binarysort+639
	DD	imagerel $unwind$binarysort
pdata	ENDS
;	COMDAT xdata
xdata	SEGMENT
$unwind$binarysort DD 011301H
	DD	0a213H
xdata	ENDS
;	COMDAT ??_C@_1O@NFACGBMB@?$AAl?$AA?5?$AA?$DN?$AA?$DN?$AA?5?$AAr?$AA?$AA@
CONST	SEGMENT
??_C@_1O@NFACGBMB@?$AAl?$AA?5?$AA?$DN?$AA?$DN?$AA?5?$AAr?$AA?$AA@ DB 'l', 00H
	DB	' ', 00H, '=', 00H, '=', 00H, ' ', 00H, 'r', 00H, 00H, 00H ; `string'
CONST	ENDS
;	COMDAT ??_C@_1M@PCNHDANK@?$AAl?$AA?5?$AA?$DM?$AA?5?$AAr?$AA?$AA@
CONST	SEGMENT
??_C@_1M@PCNHDANK@?$AAl?$AA?5?$AA?$DM?$AA?5?$AAr?$AA?$AA@ DB 'l', 00H, ' '
	DB	00H, '<', 00H, ' ', 00H, 'r', 00H, 00H, 00H	; `string'
CONST	ENDS
;	COMDAT ??_C@_1EA@CMEFGAPF@?$AAl?$AAo?$AA?4?$AAk?$AAe?$AAy?$AAs?$AA?5?$AA?$DM?$AA?$DN?$AA?5?$AAs?$AAt?$AAa?$AAr?$AAt?$AA?5?$AA?$CG?$AA?$CG?$AA?5?$AAs?$AAt?$AAa?$AAr?$AAt?$AA?5?$AA?$DM?$AA?$DN?$AA?5?$AAh?$AAi?$AA?$AA@
CONST	SEGMENT
??_C@_1EA@CMEFGAPF@?$AAl?$AAo?$AA?4?$AAk?$AAe?$AAy?$AAs?$AA?5?$AA?$DM?$AA?$DN?$AA?5?$AAs?$AAt?$AAa?$AAr?$AAt?$AA?5?$AA?$CG?$AA?$CG?$AA?5?$AAs?$AAt?$AAa?$AAr?$AAt?$AA?5?$AA?$DM?$AA?$DN?$AA?5?$AAh?$AAi?$AA?$AA@ DB 'l'
	DB	00H, 'o', 00H, '.', 00H, 'k', 00H, 'e', 00H, 'y', 00H, 's', 00H
	DB	' ', 00H, '<', 00H, '=', 00H, ' ', 00H, 's', 00H, 't', 00H, 'a'
	DB	00H, 'r', 00H, 't', 00H, ' ', 00H, '&', 00H, '&', 00H, ' ', 00H
	DB	's', 00H, 't', 00H, 'a', 00H, 'r', 00H, 't', 00H, ' ', 00H, '<'
	DB	00H, '=', 00H, ' ', 00H, 'h', 00H, 'i', 00H, 00H, 00H ; `string'
; Function compile flags: /Odtp
CONST	ENDS
;	COMDAT binarysort
_TEXT	SEGMENT
p$ = 32
pivot$ = 40
k$ = 48
l$ = 56
r$ = 64
offset$21270 = 72
lo$ = 96
hi$ = 104
start$ = 112
binarysort PROC						; COMDAT

; 1114 : {

  00000	4c 89 44 24 18	 mov	 QWORD PTR [rsp+24], r8
  00005	48 89 54 24 10	 mov	 QWORD PTR [rsp+16], rdx
  0000a	48 89 4c 24 08	 mov	 QWORD PTR [rsp+8], rcx
  0000f	48 83 ec 58	 sub	 rsp, 88			; 00000058H

; 1115 :     register Py_ssize_t k;
; 1116 :     register PyObject **l, **p, **r;
; 1117 :     register PyObject *pivot;
; 1118 : 
; 1119 :     assert(lo.keys <= start && start <= hi);

  00013	48 8b 44 24 60	 mov	 rax, QWORD PTR lo$[rsp]
  00018	48 8b 4c 24 70	 mov	 rcx, QWORD PTR start$[rsp]
  0001d	48 39 08	 cmp	 QWORD PTR [rax], rcx
  00020	77 0c		 ja	 SHORT $LN20@binarysort
  00022	48 8b 44 24 68	 mov	 rax, QWORD PTR hi$[rsp]
  00027	48 39 44 24 70	 cmp	 QWORD PTR start$[rsp], rax
  0002c	76 1c		 jbe	 SHORT $LN21@binarysort
$LN20@binarysort:
  0002e	41 b8 5f 04 00
	00		 mov	 r8d, 1119		; 0000045fH
  00034	48 8d 15 00 00
	00 00		 lea	 rdx, OFFSET FLAT:??_C@_1DA@FFHCLKCK@?$AA?4?$AA?4?$AA?2?$AAO?$AAb?$AAj?$AAe?$AAc?$AAt?$AAs?$AA?2?$AAl?$AAi?$AAs?$AAt?$AAo?$AAb?$AAj?$AAe?$AAc?$AAt?$AA?4?$AAc?$AA?$AA@
  0003b	48 8d 0d 00 00
	00 00		 lea	 rcx, OFFSET FLAT:??_C@_1EA@CMEFGAPF@?$AAl?$AAo?$AA?4?$AAk?$AAe?$AAy?$AAs?$AA?5?$AA?$DM?$AA?$DN?$AA?5?$AAs?$AAt?$AAa?$AAr?$AAt?$AA?5?$AA?$CG?$AA?$CG?$AA?5?$AAs?$AAt?$AAa?$AAr?$AAt?$AA?5?$AA?$DM?$AA?$DN?$AA?5?$AAh?$AAi?$AA?$AA@
  00042	ff 15 00 00 00
	00		 call	 QWORD PTR __imp__wassert
  00048	33 c0		 xor	 eax, eax
$LN21@binarysort:

; 1120 :     /* assert [lo, start) is sorted */
; 1121 :     if (lo.keys == start)

  0004a	48 8b 44 24 60	 mov	 rax, QWORD PTR lo$[rsp]
  0004f	48 8b 4c 24 70	 mov	 rcx, QWORD PTR start$[rsp]
  00054	48 39 08	 cmp	 QWORD PTR [rax], rcx
  00057	75 0e		 jne	 SHORT $LN17@binarysort

; 1122 :         ++start;

  00059	48 8b 44 24 70	 mov	 rax, QWORD PTR start$[rsp]
  0005e	48 83 c0 08	 add	 rax, 8
  00062	48 89 44 24 70	 mov	 QWORD PTR start$[rsp], rax
$LN17@binarysort:

; 1123 :     for (; start < hi; ++start) {

  00067	eb 0e		 jmp	 SHORT $LN16@binarysort
$LN15@binarysort:
  00069	48 8b 44 24 70	 mov	 rax, QWORD PTR start$[rsp]
  0006e	48 83 c0 08	 add	 rax, 8
  00072	48 89 44 24 70	 mov	 QWORD PTR start$[rsp], rax
$LN16@binarysort:
  00077	48 8b 44 24 68	 mov	 rax, QWORD PTR hi$[rsp]
  0007c	48 39 44 24 70	 cmp	 QWORD PTR start$[rsp], rax
  00081	0f 83 ea 01 00
	00		 jae	 $LN14@binarysort

; 1124 :         /* set l to where *start belongs */
; 1125 :         l = lo.keys;

  00087	48 8b 44 24 60	 mov	 rax, QWORD PTR lo$[rsp]
  0008c	48 8b 00	 mov	 rax, QWORD PTR [rax]
  0008f	48 89 44 24 38	 mov	 QWORD PTR l$[rsp], rax

; 1126 :         r = start;

  00094	48 8b 44 24 70	 mov	 rax, QWORD PTR start$[rsp]
  00099	48 89 44 24 40	 mov	 QWORD PTR r$[rsp], rax

; 1127 :         pivot = *r;

  0009e	48 8b 44 24 40	 mov	 rax, QWORD PTR r$[rsp]
  000a3	48 8b 00	 mov	 rax, QWORD PTR [rax]
  000a6	48 89 44 24 28	 mov	 QWORD PTR pivot$[rsp], rax

; 1128 :         /* Invariants:
; 1129 :          * pivot >= all in [lo, l).
; 1130 :          * pivot  < all in [r, start).
; 1131 :          * The second is vacuously true at the start.
; 1132 :          */
; 1133 :         assert(l < r);

  000ab	48 8b 44 24 40	 mov	 rax, QWORD PTR r$[rsp]
  000b0	48 39 44 24 38	 cmp	 QWORD PTR l$[rsp], rax
  000b5	72 1c		 jb	 SHORT $LN22@binarysort
  000b7	41 b8 6d 04 00
	00		 mov	 r8d, 1133		; 0000046dH
  000bd	48 8d 15 00 00
	00 00		 lea	 rdx, OFFSET FLAT:??_C@_1DA@FFHCLKCK@?$AA?4?$AA?4?$AA?2?$AAO?$AAb?$AAj?$AAe?$AAc?$AAt?$AAs?$AA?2?$AAl?$AAi?$AAs?$AAt?$AAo?$AAb?$AAj?$AAe?$AAc?$AAt?$AA?4?$AAc?$AA?$AA@
  000c4	48 8d 0d 00 00
	00 00		 lea	 rcx, OFFSET FLAT:??_C@_1M@PCNHDANK@?$AAl?$AA?5?$AA?$DM?$AA?5?$AAr?$AA?$AA@
  000cb	ff 15 00 00 00
	00		 call	 QWORD PTR __imp__wassert
  000d1	33 c0		 xor	 eax, eax
$LN22@binarysort:
$LN13@binarysort:

; 1134 :         do {
; 1135 :             p = l + ((r - l) >> 1);

  000d3	48 8b 44 24 38	 mov	 rax, QWORD PTR l$[rsp]
  000d8	48 8b 4c 24 40	 mov	 rcx, QWORD PTR r$[rsp]
  000dd	48 2b c8	 sub	 rcx, rax
  000e0	48 8b c1	 mov	 rax, rcx
  000e3	48 c1 f8 03	 sar	 rax, 3
  000e7	48 d1 f8	 sar	 rax, 1
  000ea	48 8b 4c 24 38	 mov	 rcx, QWORD PTR l$[rsp]
  000ef	48 8d 04 c1	 lea	 rax, QWORD PTR [rcx+rax*8]
  000f3	48 89 44 24 20	 mov	 QWORD PTR p$[rsp], rax

; 1136 :             IFLT(pivot, *p)

  000f8	45 33 c0	 xor	 r8d, r8d
  000fb	48 8b 44 24 20	 mov	 rax, QWORD PTR p$[rsp]
  00100	48 8b 10	 mov	 rdx, QWORD PTR [rax]
  00103	48 8b 4c 24 28	 mov	 rcx, QWORD PTR pivot$[rsp]
  00108	e8 00 00 00 00	 call	 PyObject_RichCompareBool
  0010d	48 98		 cdqe
  0010f	48 89 44 24 30	 mov	 QWORD PTR k$[rsp], rax
  00114	48 83 7c 24 30
	00		 cmp	 QWORD PTR k$[rsp], 0
  0011a	7d 05		 jge	 SHORT $LN10@binarysort
  0011c	e9 54 01 00 00	 jmp	 $fail$21260
$LN10@binarysort:
  00121	48 83 7c 24 30
	00		 cmp	 QWORD PTR k$[rsp], 0
  00127	74 0c		 je	 SHORT $LN9@binarysort

; 1137 :                 r = p;

  00129	48 8b 44 24 20	 mov	 rax, QWORD PTR p$[rsp]
  0012e	48 89 44 24 40	 mov	 QWORD PTR r$[rsp], rax

; 1138 :             else

  00133	eb 0e		 jmp	 SHORT $LN8@binarysort
$LN9@binarysort:

; 1139 :                 l = p+1;

  00135	48 8b 44 24 20	 mov	 rax, QWORD PTR p$[rsp]
  0013a	48 83 c0 08	 add	 rax, 8
  0013e	48 89 44 24 38	 mov	 QWORD PTR l$[rsp], rax
$LN8@binarysort:

; 1140 :         } while (l < r);

  00143	48 8b 44 24 40	 mov	 rax, QWORD PTR r$[rsp]
  00148	48 39 44 24 38	 cmp	 QWORD PTR l$[rsp], rax
  0014d	72 84		 jb	 SHORT $LN13@binarysort

; 1141 :         assert(l == r);

  0014f	48 8b 44 24 40	 mov	 rax, QWORD PTR r$[rsp]
  00154	48 39 44 24 38	 cmp	 QWORD PTR l$[rsp], rax
  00159	74 1c		 je	 SHORT $LN23@binarysort
  0015b	41 b8 75 04 00
	00		 mov	 r8d, 1141		; 00000475H
  00161	48 8d 15 00 00
	00 00		 lea	 rdx, OFFSET FLAT:??_C@_1DA@FFHCLKCK@?$AA?4?$AA?4?$AA?2?$AAO?$AAb?$AAj?$AAe?$AAc?$AAt?$AAs?$AA?2?$AAl?$AAi?$AAs?$AAt?$AAo?$AAb?$AAj?$AAe?$AAc?$AAt?$AA?4?$AAc?$AA?$AA@
  00168	48 8d 0d 00 00
	00 00		 lea	 rcx, OFFSET FLAT:??_C@_1O@NFACGBMB@?$AAl?$AA?5?$AA?$DN?$AA?$DN?$AA?5?$AAr?$AA?$AA@
  0016f	ff 15 00 00 00
	00		 call	 QWORD PTR __imp__wassert
  00175	33 c0		 xor	 eax, eax
$LN23@binarysort:

; 1142 :         /* The invariants still hold, so pivot >= all in [lo, l) and
; 1143 :            pivot < all in [l, start), so pivot belongs at l.  Note
; 1144 :            that if there are elements equal to pivot, l points to the
; 1145 :            first slot after them -- that's why this sort is stable.
; 1146 :            Slide over to make room.
; 1147 :            Caution: using memmove is much slower under MSVC 5;
; 1148 :            we're not usually moving many slots. */
; 1149 :         for (p = start; p > l; --p)

  00177	48 8b 44 24 70	 mov	 rax, QWORD PTR start$[rsp]
  0017c	48 89 44 24 20	 mov	 QWORD PTR p$[rsp], rax
  00181	eb 0e		 jmp	 SHORT $LN7@binarysort
$LN6@binarysort:
  00183	48 8b 44 24 20	 mov	 rax, QWORD PTR p$[rsp]
  00188	48 83 e8 08	 sub	 rax, 8
