; Listing generated by Microsoft (R) Optimizing Compiler Version 16.00.40219.01 

include listing.inc

INCLUDELIB MSVCRTD
INCLUDELIB OLDNAMES

PUBLIC	??_C@_0N@EJLIILFJ@sys?4int_info?$AA@		; `string'
PUBLIC	??_C@_0DG@LNJMIEPA@size?5in?5bytes?5of?5the?5C?5type?5used@ ; `string'
PUBLIC	??_C@_0N@IECNJPGN@sizeof_digit?$AA@		; `string'
PUBLIC	??_C@_0BI@LACMDNDE@size?5of?5a?5digit?5in?5bits?$AA@ ; `string'
PUBLIC	??_C@_0P@FEHGIBKA@bits_per_digit?$AA@		; `string'
PUBLIC	??_C@_03JBIPMCLC@int?$AA@			; `string'
PUBLIC	??_C@_0DF@LGNICKCI@the?5denominator?5of?5a?5rational?5nu@ ; `string'
PUBLIC	??_C@_0M@LLLKACAC@denominator?$AA@		; `string'
PUBLIC	??_C@_0DD@BMEDFGDO@the?5numerator?5of?5a?5rational?5numb@ ; `string'
PUBLIC	??_C@_09KDGIKBGN@numerator?$AA@			; `string'
PUBLIC	??_C@_0CH@FCKKLBGM@the?5imaginary?5part?5of?5a?5complex?5@ ; `string'
PUBLIC	??_C@_04HBKGOHH@imag?$AA@			; `string'
PUBLIC	??_C@_0CC@GEFHKKP@the?5real?5part?5of?5a?5complex?5numbe@ ; `string'
PUBLIC	??_C@_04DGGKDJMA@real?$AA@			; `string'
PUBLIC	??_C@_0CB@JHJAIPOI@Returns?5size?5in?5memory?0?5in?5bytes@ ; `string'
PUBLIC	??_C@_0L@HOGGIPGN@__sizeof__?$AA@		; `string'
PUBLIC	??_C@_0L@MEMCGMKL@__format__?$AA@		; `string'
PUBLIC	??_C@_0P@BCBHENLA@__getnewargs__?$AA@		; `string'
PUBLIC	??_C@_0GA@KJCBPGNO@Rounding?5an?5Integral?5returns?5its@ ; `string'
PUBLIC	??_C@_09PJGAHDBG@__round__?$AA@			; `string'
PUBLIC	??_C@_0CH@CCENPBPG@Ceiling?5of?5an?5Integral?5returns?5i@ ; `string'
PUBLIC	??_C@_08GFGNDJJM@__ceil__?$AA@			; `string'
PUBLIC	??_C@_0CF@ODDNPKME@Flooring?5an?5Integral?5returns?5its@ ; `string'
PUBLIC	??_C@_09NKCGFGFE@__floor__?$AA@			; `string'
PUBLIC	??_C@_0CH@PIJCOPCL@Truncating?5an?5Integral?5returns?5i@ ; `string'
PUBLIC	??_C@_09KENBLPCG@__trunc__?$AA@			; `string'
PUBLIC	??_C@_0L@NMKBBNFG@from_bytes?$AA@		; `string'
PUBLIC	??_C@_08HHECGKBL@to_bytes?$AA@			; `string'
PUBLIC	??_C@_0L@PKHLKCCO@bit_length?$AA@		; `string'
PUBLIC	??_C@_0DA@INOKAKKF@Returns?5self?0?5the?5complex?5conjug@ ; `string'
PUBLIC	??_C@_09PHMNDPIK@conjugate?$AA@			; `string'
PUBLIC	??_C@_05FBJAGGIG@bytes?$AA@			; `string'
PUBLIC	??_C@_06CPIODIKA@signed?$AA@			; `string'
PUBLIC	??_C@_09PJBCLGKJ@byteorder?$AA@			; `string'
PUBLIC	??_C@_06IJDLPEM@length?$AA@			; `string'
PUBLIC	??_C@_04BHIIPFEC@base?$AA@			; `string'
PUBLIC	??_C@_01FJMABOPO@x?$AA@				; `string'
PUBLIC	_PyLong_DigitValue
PUBLIC	PyLong_Type
EXTRN	_PyObject_DebugFree:PROC
EXTRN	PyObject_GenericGetAttr:PROC
EXTRN	PyType_Type:BYTE
_BSS	SEGMENT
?log_base_BASE@?6??PyLong_FromString@@9@9 DQ 025H DUP (?) ; `PyLong_FromString'::`7'::log_base_BASE
?convwidth_base@?6??PyLong_FromString@@9@9 DD 025H DUP (?) ; `PyLong_FromString'::`7'::convwidth_base
	ALIGN	8

?convmultmax_base@?6??PyLong_FromString@@9@9 DQ 025H DUP (?) ; `PyLong_FromString'::`7'::convmultmax_base
_BSS	ENDS
;	COMDAT ??_C@_0N@EJLIILFJ@sys?4int_info?$AA@
CONST	SEGMENT
??_C@_0N@EJLIILFJ@sys?4int_info?$AA@ DB 'sys.int_info', 00H ; `string'
CONST	ENDS
;	COMDAT ??_C@_0DG@LNJMIEPA@size?5in?5bytes?5of?5the?5C?5type?5used@
CONST	SEGMENT
??_C@_0DG@LNJMIEPA@size?5in?5bytes?5of?5the?5C?5type?5used@ DB 'size in b'
	DB	'ytes of the C type used to represent a digit', 00H ; `string'
CONST	ENDS
;	COMDAT ??_C@_0N@IECNJPGN@sizeof_digit?$AA@
CONST	SEGMENT
??_C@_0N@IECNJPGN@sizeof_digit?$AA@ DB 'sizeof_digit', 00H ; `string'
CONST	ENDS
;	COMDAT ??_C@_0BI@LACMDNDE@size?5of?5a?5digit?5in?5bits?$AA@
CONST	SEGMENT
??_C@_0BI@LACMDNDE@size?5of?5a?5digit?5in?5bits?$AA@ DB 'size of a digit '
	DB	'in bits', 00H				; `string'
CONST	ENDS
;	COMDAT ??_C@_0P@FEHGIBKA@bits_per_digit?$AA@
CONST	SEGMENT
??_C@_0P@FEHGIBKA@bits_per_digit?$AA@ DB 'bits_per_digit', 00H ; `string'
CONST	ENDS
;	COMDAT ??_C@_03JBIPMCLC@int?$AA@
CONST	SEGMENT
??_C@_03JBIPMCLC@int?$AA@ DB 'int', 00H			; `string'
CONST	ENDS
;	COMDAT ??_C@_0DF@LGNICKCI@the?5denominator?5of?5a?5rational?5nu@
CONST	SEGMENT
??_C@_0DF@LGNICKCI@the?5denominator?5of?5a?5rational?5nu@ DB 'the denomin'
	DB	'ator of a rational number in lowest terms', 00H ; `string'
CONST	ENDS
;	COMDAT ??_C@_0M@LLLKACAC@denominator?$AA@
CONST	SEGMENT
??_C@_0M@LLLKACAC@denominator?$AA@ DB 'denominator', 00H ; `string'
CONST	ENDS
;	COMDAT ??_C@_0DD@BMEDFGDO@the?5numerator?5of?5a?5rational?5numb@
CONST	SEGMENT
??_C@_0DD@BMEDFGDO@the?5numerator?5of?5a?5rational?5numb@ DB 'the numerat'
	DB	'or of a rational number in lowest terms', 00H ; `string'
CONST	ENDS
;	COMDAT ??_C@_09KDGIKBGN@numerator?$AA@
CONST	SEGMENT
??_C@_09KDGIKBGN@numerator?$AA@ DB 'numerator', 00H	; `string'
CONST	ENDS
;	COMDAT ??_C@_0CH@FCKKLBGM@the?5imaginary?5part?5of?5a?5complex?5@
CONST	SEGMENT
??_C@_0CH@FCKKLBGM@the?5imaginary?5part?5of?5a?5complex?5@ DB 'the imagin'
	DB	'ary part of a complex number', 00H		; `string'
CONST	ENDS
;	COMDAT ??_C@_04HBKGOHH@imag?$AA@
CONST	SEGMENT
??_C@_04HBKGOHH@imag?$AA@ DB 'imag', 00H		; `string'
CONST	ENDS
;	COMDAT ??_C@_0CC@GEFHKKP@the?5real?5part?5of?5a?5complex?5numbe@
CONST	SEGMENT
??_C@_0CC@GEFHKKP@the?5real?5part?5of?5a?5complex?5numbe@ DB 'the real pa'
	DB	'rt of a complex number', 00H		; `string'
CONST	ENDS
;	COMDAT ??_C@_04DGGKDJMA@real?$AA@
CONST	SEGMENT
??_C@_04DGGKDJMA@real?$AA@ DB 'real', 00H		; `string'
CONST	ENDS
;	COMDAT ??_C@_0CB@JHJAIPOI@Returns?5size?5in?5memory?0?5in?5bytes@
CONST	SEGMENT
??_C@_0CB@JHJAIPOI@Returns?5size?5in?5memory?0?5in?5bytes@ DB 'Returns si'
	DB	'ze in memory, in bytes', 00H		; `string'
CONST	ENDS
;	COMDAT ??_C@_0L@HOGGIPGN@__sizeof__?$AA@
CONST	SEGMENT
??_C@_0L@HOGGIPGN@__sizeof__?$AA@ DB '__sizeof__', 00H	; `string'
CONST	ENDS
;	COMDAT ??_C@_0L@MEMCGMKL@__format__?$AA@
CONST	SEGMENT
??_C@_0L@MEMCGMKL@__format__?$AA@ DB '__format__', 00H	; `string'
CONST	ENDS
;	COMDAT ??_C@_0P@BCBHENLA@__getnewargs__?$AA@
CONST	SEGMENT
??_C@_0P@BCBHENLA@__getnewargs__?$AA@ DB '__getnewargs__', 00H ; `string'
CONST	ENDS
;	COMDAT ??_C@_0GA@KJCBPGNO@Rounding?5an?5Integral?5returns?5its@
CONST	SEGMENT
??_C@_0GA@KJCBPGNO@Rounding?5an?5Integral?5returns?5its@ DB 'Rounding an '
	DB	'Integral returns itself.', 0aH, 'Rounding with an ndigits arg'
	DB	'ument also returns an integer.', 00H	; `string'
CONST	ENDS
;	COMDAT ??_C@_09PJGAHDBG@__round__?$AA@
CONST	SEGMENT
??_C@_09PJGAHDBG@__round__?$AA@ DB '__round__', 00H	; `string'
CONST	ENDS
;	COMDAT ??_C@_0CH@CCENPBPG@Ceiling?5of?5an?5Integral?5returns?5i@
CONST	SEGMENT
??_C@_0CH@CCENPBPG@Ceiling?5of?5an?5Integral?5returns?5i@ DB 'Ceiling of '
	DB	'an Integral returns itself.', 00H		; `string'
CONST	ENDS
;	COMDAT ??_C@_08GFGNDJJM@__ceil__?$AA@
CONST	SEGMENT
??_C@_08GFGNDJJM@__ceil__?$AA@ DB '__ceil__', 00H	; `string'
CONST	ENDS
;	COMDAT ??_C@_0CF@ODDNPKME@Flooring?5an?5Integral?5returns?5its@
CONST	SEGMENT
??_C@_0CF@ODDNPKME@Flooring?5an?5Integral?5returns?5its@ DB 'Flooring an '
	DB	'Integral returns itself.', 00H		; `string'
CONST	ENDS
;	COMDAT ??_C@_09NKCGFGFE@__floor__?$AA@
CONST	SEGMENT
??_C@_09NKCGFGFE@__floor__?$AA@ DB '__floor__', 00H	; `string'
CONST	ENDS
;	COMDAT ??_C@_0CH@PIJCOPCL@Truncating?5an?5Integral?5returns?5i@
CONST	SEGMENT
??_C@_0CH@PIJCOPCL@Truncating?5an?5Integral?5returns?5i@ DB 'Truncating a'
	DB	'n Integral returns itself.', 00H		; `string'
CONST	ENDS
;	COMDAT ??_C@_09KENBLPCG@__trunc__?$AA@
CONST	SEGMENT
??_C@_09KENBLPCG@__trunc__?$AA@ DB '__trunc__', 00H	; `string'
CONST	ENDS
;	COMDAT ??_C@_0L@NMKBBNFG@from_bytes?$AA@
CONST	SEGMENT
??_C@_0L@NMKBBNFG@from_bytes?$AA@ DB 'from_bytes', 00H	; `string'
CONST	ENDS
;	COMDAT ??_C@_08HHECGKBL@to_bytes?$AA@
CONST	SEGMENT
??_C@_08HHECGKBL@to_bytes?$AA@ DB 'to_bytes', 00H	; `string'
CONST	ENDS
;	COMDAT ??_C@_0L@PKHLKCCO@bit_length?$AA@
CONST	SEGMENT
??_C@_0L@PKHLKCCO@bit_length?$AA@ DB 'bit_length', 00H	; `string'
CONST	ENDS
;	COMDAT ??_C@_0DA@INOKAKKF@Returns?5self?0?5the?5complex?5conjug@
CONST	SEGMENT
??_C@_0DA@INOKAKKF@Returns?5self?0?5the?5complex?5conjug@ DB 'Returns sel'
	DB	'f, the complex conjugate of any int.', 00H	; `string'
CONST	ENDS
;	COMDAT ??_C@_09PHMNDPIK@conjugate?$AA@
CONST	SEGMENT
??_C@_09PHMNDPIK@conjugate?$AA@ DB 'conjugate', 00H	; `string'
CONST	ENDS
;	COMDAT ??_C@_05FBJAGGIG@bytes?$AA@
CONST	SEGMENT
??_C@_05FBJAGGIG@bytes?$AA@ DB 'bytes', 00H		; `string'
CONST	ENDS
;	COMDAT ??_C@_06CPIODIKA@signed?$AA@
CONST	SEGMENT
??_C@_06CPIODIKA@signed?$AA@ DB 'signed', 00H		; `string'
CONST	ENDS
;	COMDAT ??_C@_09PJBCLGKJ@byteorder?$AA@
CONST	SEGMENT
??_C@_09PJBCLGKJ@byteorder?$AA@ DB 'byteorder', 00H	; `string'
CONST	ENDS
;	COMDAT ??_C@_06IJDLPEM@length?$AA@
CONST	SEGMENT
??_C@_06IJDLPEM@length?$AA@ DB 'length', 00H		; `string'
CONST	ENDS
;	COMDAT ??_C@_04BHIIPFEC@base?$AA@
CONST	SEGMENT
??_C@_04BHIIPFEC@base?$AA@ DB 'base', 00H		; `string'
CONST	ENDS
;	COMDAT ??_C@_01FJMABOPO@x?$AA@
CONST	SEGMENT
??_C@_01FJMABOPO@x?$AA@ DB 'x', 00H			; `string'
CONST	ENDS
_DATA	SEGMENT
_PyLong_DigitValue DB 025H
	DB	025H
	DB	025H
	DB	025H
	DB	025H
	DB	025H
	DB	025H
	DB	025H
	DB	025H
	DB	025H
	DB	025H
	DB	025H
	DB	025H
	DB	025H
	DB	025H
	DB	025H
	DB	025H
	DB	025H
	DB	025H
	DB	025H
	DB	025H
	DB	025H
	DB	025H
	DB	025H
	DB	025H
	DB	025H
	DB	025H
	DB	025H
	DB	025H
	DB	025H
	DB	025H
	DB	025H
	DB	025H
	DB	025H
	DB	025H
	DB	025H
	DB	025H
	DB	025H
	DB	025H
	DB	025H
	DB	025H
	DB	025H
	DB	025H
	DB	025H
	DB	025H
	DB	025H
	DB	025H
	DB	025H
	DB	00H
	DB	01H
	DB	02H
	DB	03H
	DB	04H
	DB	05H
	DB	06H
	DB	07H
	DB	08H
	DB	09H
	DB	025H
	DB	025H
	DB	025H
	DB	025H
	DB	025H
	DB	025H
	DB	025H
	DB	0aH
	DB	0bH
	DB	0cH
	DB	0dH
	DB	0eH
	DB	0fH
	DB	010H
	DB	011H
	DB	012H
	DB	013H
	DB	014H
	DB	015H
	DB	016H
	DB	017H
	DB	018H
	DB	019H
	DB	01aH
	DB	01bH
	DB	01cH
	DB	01dH
	DB	01eH
	DB	01fH
	DB	020H
	DB	021H
	DB	022H
	DB	023H
	DB	025H
	DB	025H
	DB	025H
	DB	025H
	DB	025H
	DB	025H
	DB	0aH
	DB	0bH
	DB	0cH
	DB	0dH
	DB	0eH
	DB	0fH
	DB	010H
	DB	011H
	DB	012H
	DB	013H
	DB	014H
	DB	015H
	DB	016H
	DB	017H
	DB	018H
	DB	019H
	DB	01aH
	DB	01bH
	DB	01cH
	DB	01dH
	DB	01eH
	DB	01fH
	DB	020H
	DB	021H
	DB	022H
	DB	023H
	DB	025H
	DB	025H
	DB	025H
	DB	025H
	DB	025H
	DB	025H
	DB	025H
	DB	025H
	DB	025H
	DB	025H
	DB	025H
	DB	025H
	DB	025H
	DB	025H
	DB	025H
	DB	025H
	DB	025H
	DB	025H
	DB	025H
	DB	025H
	DB	025H
	DB	025H
	DB	025H
	DB	025H
	DB	025H
	DB	025H
	DB	025H
	DB	025H
	DB	025H
	DB	025H
	DB	025H
	DB	025H
	DB	025H
	DB	025H
	DB	025H
	DB	025H
	DB	025H
	DB	025H
	DB	025H
	DB	025H
	DB	025H
	DB	025H
	DB	025H
	DB	025H
	DB	025H
	DB	025H
	DB	025H
	DB	025H
	DB	025H
	DB	025H
	DB	025H
	DB	025H
	DB	025H
	DB	025H
	DB	025H
	DB	025H
	DB	025H
	DB	025H
	DB	025H
	DB	025H
	DB	025H
	DB	025H
	DB	025H
	DB	025H
	DB	025H
	DB	025H
	DB	025H
	DB	025H
	DB	025H
	DB	025H
	DB	025H
	DB	025H
	DB	025H
	DB	025H
	DB	025H
	DB	025H
	DB	025H
	DB	025H
	DB	025H
	DB	025H
	DB	025H
	DB	025H
	DB	025H
	DB	025H
	DB	025H
	DB	025H
	DB	025H
	DB	025H
	DB	025H
	DB	025H
	DB	025H
	DB	025H
	DB	025H
	DB	025H
	DB	025H
	DB	025H
	DB	025H
	DB	025H
	DB	025H
	DB	025H
	DB	025H
	DB	025H
	DB	025H
	DB	025H
	DB	025H
	DB	025H
	DB	025H
	DB	025H
	DB	025H
	DB	025H
	DB	025H
	DB	025H
	DB	025H
	DB	025H
	DB	025H
	DB	025H
	DB	025H
	DB	025H
	DB	025H
	DB	025H
	DB	025H
	DB	025H
	DB	025H
	DB	025H
	DB	025H
	DB	025H
	DB	025H
	DB	025H
	DB	025H
	DB	025H
	DB	025H
	DB	025H
	DB	025H
?kwlist@?1??long_new@@9@9 DQ FLAT:??_C@_01FJMABOPO@x?$AA@ ; `long_new'::`2'::kwlist
	DQ	FLAT:??_C@_04BHIIPFEC@base?$AA@
	DQ	0000000000000000H
	ORG $+8
long_bit_length_doc DB 'int.bit_length() -> int', 0aH, 0aH, 'Number of bi'
	DB	'ts necessary to represent self in binary.', 0aH, '>>> bin(37)'
	DB	0aH, '''0b100101''', 0aH, '>>> (37).bit_length()', 0aH, '6', 00H
	ORG $+2
?kwlist@?1??long_to_bytes@@9@9 DQ FLAT:??_C@_06IJDLPEM@length?$AA@ ; `long_to_bytes'::`2'::kwlist
	DQ	FLAT:??_C@_09PJBCLGKJ@byteorder?$AA@
	DQ	FLAT:??_C@_06CPIODIKA@signed?$AA@
	DQ	0000000000000000H
long_to_bytes_doc DB 'int.to_bytes(length, byteorder, *, signed=False) ->'
	DB	' bytes', 0aH, 0aH, 'Return an array of bytes representing an '
	DB	'integer.', 0aH, 0aH, 'The integer is represented using length'
	DB	' bytes.  An OverflowError is', 0aH, 'raised if the integer is'
	DB	' not representable with the given number of', 0aH, 'bytes.', 0aH
	DB	0aH, 'The byteorder argument determines the byte order used to'
	DB	' represent the', 0aH, 'integer.  If byteorder is ''big'', the'
	DB	' most significant byte is at the', 0aH, 'beginning of the byt'
	DB	'e array.  If byteorder is ''little'', the most', 0aH, 'signif'
	DB	'icant byte is at the end of the byte array.  To request the n'
	DB	'ative', 0aH, 'byte order of the host system, use `sys.byteord'
	DB	'er'' as the byte order value.', 0aH, 0aH, 'The signed keyword'
	DB	'-only argument determines whether two''s complement is', 0aH, 'u'
	DB	'sed to represent the integer.  If signed is False and a negat'
	DB	'ive integer', 0aH, 'is given, an OverflowError is raised.', 00H
	ORG $+7
?kwlist@?1??long_from_bytes@@9@9 DQ FLAT:??_C@_05FBJAGGIG@bytes?$AA@ ; `long_from_bytes'::`2'::kwlist
	DQ	FLAT:??_C@_09PJBCLGKJ@byteorder?$AA@
	DQ	FLAT:??_C@_06CPIODIKA@signed?$AA@
	DQ	0000000000000000H
long_from_bytes_doc DB 'int.from_bytes(bytes, byteorder, *, signed=False)'
	DB	' -> int', 0aH, 0aH, 'Return the integer represented by the gi'
	DB	'ven array of bytes.', 0aH, 0aH, 'The bytes argument must eith'
	DB	'er support the buffer protocol or be an', 0aH, 'iterable obje'
	DB	'ct producing bytes.  Bytes and bytearray are examples of', 0aH
	DB	'built-in objects that support the buffer protocol.', 0aH, 0aH
	DB	'The byteorder argument determines the byte order used to repr'
	DB	'esent the', 0aH, 'integer.  If byteorder is ''big'', the most'
	DB	' significant byte is at the', 0aH, 'beginning of the byte arr'
	DB	'ay.  If byteorder is ''little'', the most', 0aH, 'significant'
	DB	' byte is at the end of the byte array.  To request the native'
	DB	0aH, 'byte order of the host system, use `sys.byteorder'' as t'
	DB	'he byte order value.', 0aH, 0aH, 'The signed keyword-only arg'
	DB	'ument indicates whether two''s complement is', 0aH, 'used to '
	DB	'represent the integer.', 00H
	ORG $+2
long_methods DQ	FLAT:??_C@_09PHMNDPIK@conjugate?$AA@
	DQ	FLAT:long_long
	DD	04H
	ORG $+4
	DQ	FLAT:??_C@_0DA@INOKAKKF@Returns?5self?0?5the?5complex?5conjug@
	DQ	FLAT:??_C@_0L@PKHLKCCO@bit_length?$AA@
	DQ	FLAT:long_bit_length
	DD	04H
	ORG $+4
	DQ	FLAT:long_bit_length_doc
	DQ	FLAT:??_C@_08HHECGKBL@to_bytes?$AA@
	DQ	FLAT:long_to_bytes
	DD	03H
	ORG $+4
	DQ	FLAT:long_to_bytes_doc
	DQ	FLAT:??_C@_0L@NMKBBNFG@from_bytes?$AA@
	DQ	FLAT:long_from_bytes
	DD	013H
	ORG $+4
	DQ	FLAT:long_from_bytes_doc
	DQ	FLAT:??_C@_09KENBLPCG@__trunc__?$AA@
	DQ	FLAT:long_long
	DD	04H
	ORG $+4
	DQ	FLAT:??_C@_0CH@PIJCOPCL@Truncating?5an?5Integral?5returns?5i@
	DQ	FLAT:??_C@_09NKCGFGFE@__floor__?$AA@
	DQ	FLAT:long_long
	DD	04H
	ORG $+4
	DQ	FLAT:??_C@_0CF@ODDNPKME@Flooring?5an?5Integral?5returns?5its@
	DQ	FLAT:??_C@_08GFGNDJJM@__ceil__?$AA@
	DQ	FLAT:long_long
	DD	04H
	ORG $+4
	DQ	FLAT:??_C@_0CH@CCENPBPG@Ceiling?5of?5an?5Integral?5returns?5i@
	DQ	FLAT:??_C@_09PJGAHDBG@__round__?$AA@
	DQ	FLAT:long_round
	DD	01H
	ORG $+4
	DQ	FLAT:??_C@_0GA@KJCBPGNO@Rounding?5an?5Integral?5returns?5its@
	DQ	FLAT:??_C@_0P@BCBHENLA@__getnewargs__?$AA@
	DQ	FLAT:long_getnewargs
	DD	04H
	ORG $+4
	ORG $+8
	DQ	FLAT:??_C@_0L@MEMCGMKL@__format__?$AA@
	DQ	FLAT:long__format__
	DD	01H
	ORG $+4
	ORG $+8
	DQ	FLAT:??_C@_0L@HOGGIPGN@__sizeof__?$AA@
	DQ	FLAT:long_sizeof
	DD	04H
	ORG $+4
	DQ	FLAT:??_C@_0CB@JHJAIPOI@Returns?5size?5in?5memory?0?5in?5bytes@
	DQ	0000000000000000H
	DQ	0000000000000000H
	ORG $+16
long_getset DQ	FLAT:??_C@_04DGGKDJMA@real?$AA@
	DQ	FLAT:long_long
	DQ	0000000000000000H
	DQ	FLAT:??_C@_0CC@GEFHKKP@the?5real?5part?5of?5a?5complex?5numbe@
	DQ	0000000000000000H
	DQ	FLAT:??_C@_04HBKGOHH@imag?$AA@
	DQ	FLAT:long_get0
	DQ	0000000000000000H
	DQ	FLAT:??_C@_0CH@FCKKLBGM@the?5imaginary?5part?5of?5a?5complex?5@
	DQ	0000000000000000H
	DQ	FLAT:??_C@_09KDGIKBGN@numerator?$AA@
	DQ	FLAT:long_long
	DQ	0000000000000000H
	DQ	FLAT:??_C@_0DD@BMEDFGDO@the?5numerator?5of?5a?5rational?5numb@
	DQ	0000000000000000H
	DQ	FLAT:??_C@_0M@LLLKACAC@denominator?$AA@
	DQ	FLAT:long_get1
	DQ	0000000000000000H
	DQ	FLAT:??_C@_0DF@LGNICKCI@the?5denominator?5of?5a?5rational?5nu@
	DQ	0000000000000000H
	DQ	0000000000000000H
	ORG $+32
	ORG $+8
long_doc DB	'int(x=0) -> integer', 0aH, 'int(x, base=10) -> integer', 0aH
	DB	0aH, 'Convert a number or string to an integer, or return 0 if'
	DB	' no arguments', 0aH, 'are given.  If x is a number, return x.'
	DB	'__int__().  For floating point', 0aH, 'numbers, this truncate'
	DB	's towards zero.', 0aH, 0aH, 'If x is not a number or if base '
	DB	'is given, then x must be a string,', 0aH, 'bytes, or bytearra'
	DB	'y instance representing an integer literal in the', 0aH, 'giv'
	DB	'en base.  The literal can be preceded by ''+'' or ''-'' and b'
	DB	'e surrounded', 0aH, 'by whitespace.  The base defaults to 10.'
	DB	'  Valid bases are 0 and 2-36.', 0aH, 'Base 0 means to interpr'
	DB	'et the base from the string as an integer literal.', 0aH, '>>'
	DB	'> int(''0b100'', base=0)', 0aH, '4', 00H
	ORG $+2
long_as_number DQ FLAT:long_add
	DQ	FLAT:long_sub
	DQ	FLAT:long_mul
	DQ	FLAT:long_mod
	DQ	FLAT:long_divmod
	DQ	FLAT:long_pow
	DQ	FLAT:long_neg
	DQ	FLAT:long_long
	DQ	FLAT:long_abs
	DQ	FLAT:long_bool
	DQ	FLAT:long_invert
	DQ	FLAT:long_lshift
	DQ	FLAT:long_rshift
	DQ	FLAT:long_and
	DQ	FLAT:long_xor
	DQ	FLAT:long_or
	DQ	FLAT:long_long
	DQ	0000000000000000H
	DQ	FLAT:long_float
	DQ	0000000000000000H
	DQ	0000000000000000H
	DQ	0000000000000000H
	DQ	0000000000000000H
	DQ	0000000000000000H
	DQ	0000000000000000H
	DQ	0000000000000000H
	DQ	0000000000000000H
	DQ	0000000000000000H
	DQ	0000000000000000H
	DQ	FLAT:long_div
	DQ	FLAT:long_true_divide
	DQ	0000000000000000H
	DQ	0000000000000000H
	DQ	FLAT:long_long
PyLong_Type DQ	dead1234beef5678H
	DQ	dead1234beef5678H
	DQ	0000000000000000H
	ORG $+8
	DQ	0000000000000001H
	DQ	0000000000000000H
	DQ	0000000000000000H
	DQ	0000000000000000H
	DQ	dead1234beef5678H
	DQ	dead1234beef5678H
	DQ	0000000000000001H
	DQ	FLAT:PyType_Type
	DQ	0000000000000000H
	ORG $+8
	DQ	FLAT:??_C@_03JBIPMCLC@int?$AA@
	DQ	0000000000000070H
	DQ	0000000000000004H
	DQ	FLAT:long_dealloc
	DQ	0000000000000000H
	DQ	0000000000000000H
	DQ	0000000000000000H
	DQ	0000000000000000H
	DQ	FLAT:long_to_decimal_string
	DQ	FLAT:long_as_number
	DQ	0000000000000000H
	DQ	0000000000000000H
	DQ	FLAT:long_hash
	DQ	0000000000000000H
	DQ	FLAT:long_to_decimal_string
	DQ	FLAT:PyObject_GenericGetAttr
	DQ	0000000000000000H
	DQ	0000000000000000H
	DD	01040400H
	ORG $+4
	DQ	FLAT:long_doc
	DQ	0000000000000000H
	DQ	0000000000000000H
	DQ	FLAT:long_richcompare
	DQ	0000000000000000H
	DQ	0000000000000000H
	DQ	0000000000000000H
	DQ	FLAT:long_methods
	DQ	0000000000000000H
	DQ	FLAT:long_getset
	DQ	0000000000000000H
	DQ	0000000000000000H
	DQ	0000000000000000H
	DQ	0000000000000000H
	DQ	0000000000000000H
	DQ	0000000000000000H
	DQ	0000000000000000H
	DQ	FLAT:long_new
	DQ	FLAT:_PyObject_DebugFree
	ORG $+64
int_info__doc__ DB 'sys.int_info', 0aH, 0aH, 'A struct sequence that hold'
	DB	's information about Python''s', 0aH, 'internal representation'
	DB	' of integers.  The attributes are read only.', 00H
	ORG $+6
int_info_fields DQ FLAT:??_C@_0P@FEHGIBKA@bits_per_digit?$AA@
	DQ	FLAT:??_C@_0BI@LACMDNDE@size?5of?5a?5digit?5in?5bits?$AA@
	DQ	FLAT:??_C@_0N@IECNJPGN@sizeof_digit?$AA@
	DQ	FLAT:??_C@_0DG@LNJMIEPA@size?5in?5bytes?5of?5the?5C?5type?5used@
	DQ	0000000000000000H
	DQ	0000000000000000H
int_info_desc DQ FLAT:??_C@_0N@EJLIILFJ@sys?4int_info?$AA@
	DQ	FLAT:int_info__doc__
	DQ	FLAT:int_info_fields
	DD	02H
	ORG $+4
_DATA	ENDS
CONST	SEGMENT
BitLengthTable DB 00H
	DB	01H
	DB	02H
	DB	02H
	DB	03H
	DB	03H
	DB	03H
	DB	03H
	DB	04H
	DB	04H
	DB	04H
	DB	04H
	DB	04H
	DB	04H
	DB	04H
	DB	04H
	DB	05H
	DB	05H
	DB	05H
	DB	05H
	DB	05H
	DB	05H
	DB	05H
	DB	05H
	DB	05H
	DB	05H
	DB	05H
	DB	05H
	DB	05H
	DB	05H
	DB	05H
	DB	05H
?half_even_correction@?1??_PyLong_Frexp@@9@9 DD 00H	; `_PyLong_Frexp'::`2'::half_even_correction
	DD	0ffffffffH
	DD	0fffffffeH
	DD	01H
	DD	00H
	DD	0ffffffffH
	DD	02H
	DD	01H
CONST	ENDS
PUBLIC	_Py_DecRef
PUBLIC	??_C@_0CH@FBOPHEGH@__int__?5returned?5non?9int?5?$CItype?5?$CF@ ; `string'
PUBLIC	??_C@_0CJ@CAOECIFE@an?5integer?5is?5required?5?$CIgot?5type@ ; `string'
PUBLIC	_Py_IncRef
PUBLIC	_PyLong_FromNbInt
EXTRN	PyErr_Format:PROC
EXTRN	PyExc_TypeError:QWORD
;	COMDAT pdata
; File c:\src\pyparallel\objects\longobject.c
pdata	SEGMENT
$pdata$_PyLong_FromNbInt DD imagerel $LN9
	DD	imagerel $LN9+264
	DD	imagerel $unwind$_PyLong_FromNbInt
pdata	ENDS
;	COMDAT xdata
xdata	SEGMENT
$unwind$_PyLong_FromNbInt DD 010901H
	DD	06209H
xdata	ENDS
;	COMDAT ??_C@_0CH@FBOPHEGH@__int__?5returned?5non?9int?5?$CItype?5?$CF@
CONST	SEGMENT
??_C@_0CH@FBOPHEGH@__int__?5returned?5non?9int?5?$CItype?5?$CF@ DB '__int'
	DB	'__ returned non-int (type %.200s)', 00H	; `string'
CONST	ENDS
;	COMDAT ??_C@_0CJ@CAOECIFE@an?5integer?5is?5required?5?$CIgot?5type@
CONST	SEGMENT
??_C@_0CJ@CAOECIFE@an?5integer?5is?5required?5?$CIgot?5type@ DB 'an integ'
	DB	'er is required (got type %.200s)', 00H	; `string'
; Function compile flags: /Odtp
CONST	ENDS
;	COMDAT _PyLong_FromNbInt
_TEXT	SEGMENT
result$ = 32
nb$ = 40
integral$ = 64
_PyLong_FromNbInt PROC					; COMDAT

; 126  : {

$LN9:
  00000	48 89 4c 24 08	 mov	 QWORD PTR [rsp+8], rcx
  00005	48 83 ec 38	 sub	 rsp, 56			; 00000038H

; 127  :     PyNumberMethods *nb;
; 128  :     PyObject *result;
; 129  : 
; 130  :     /* Fast path for the case that we already have an int. */
; 131  :     if (PyLong_CheckExact(integral)) {

  00009	48 8d 05 00 00
	00 00		 lea	 rax, OFFSET FLAT:PyLong_Type
  00010	48 8b 4c 24 40	 mov	 rcx, QWORD PTR integral$[rsp]
  00015	48 39 41 58	 cmp	 QWORD PTR [rcx+88], rax
  00019	75 14		 jne	 SHORT $LN6@PyLong_Fro

; 132  :         Py_INCREF(integral);

  0001b	48 8b 4c 24 40	 mov	 rcx, QWORD PTR integral$[rsp]
  00020	e8 00 00 00 00	 call	 _Py_IncRef

; 133  :         return (PyLongObject *)integral;

  00025	48 8b 44 24 40	 mov	 rax, QWORD PTR integral$[rsp]
  0002a	e9 d4 00 00 00	 jmp	 $LN7@PyLong_Fro
$LN6@PyLong_Fro:

; 134  :     }
; 135  : 
; 136  :     nb = Py_TYPE(integral)->tp_as_number;

  0002f	48 8b 44 24 40	 mov	 rax, QWORD PTR integral$[rsp]
  00034	48 8b 40 58	 mov	 rax, QWORD PTR [rax+88]
  00038	48 8b 80 b8 00
	00 00		 mov	 rax, QWORD PTR [rax+184]
  0003f	48 89 44 24 28	 mov	 QWORD PTR nb$[rsp], rax

; 137  :     if (nb == NULL || nb->nb_int == NULL) {

  00044	48 83 7c 24 28
	00		 cmp	 QWORD PTR nb$[rsp], 0
  0004a	74 0f		 je	 SHORT $LN4@PyLong_Fro
  0004c	48 8b 44 24 28	 mov	 rax, QWORD PTR nb$[rsp]
  00051	48 83 b8 80 00
	00 00 00	 cmp	 QWORD PTR [rax+128], 0
  00059	75 27		 jne	 SHORT $LN5@PyLong_Fro
$LN4@PyLong_Fro:

; 138  :         PyErr_Format(PyExc_TypeError,
; 139  :                      "an integer is required (got type %.200s)",
; 140  :                      Py_TYPE(integral)->tp_name);

  0005b	48 8b 44 24 40	 mov	 rax, QWORD PTR integral$[rsp]
  00060	48 8b 40 58	 mov	 rax, QWORD PTR [rax+88]
  00064	4c 8b 40 70	 mov	 r8, QWORD PTR [rax+112]
  00068	48 8d 15 00 00
	00 00		 lea	 rdx, OFFSET FLAT:??_C@_0CJ@CAOECIFE@an?5integer?5is?5required?5?$CIgot?5type@
  0006f	48 8b 0d 00 00
	00 00		 mov	 rcx, QWORD PTR PyExc_TypeError
  00076	e8 00 00 00 00	 call	 PyErr_Format

; 141  :         return NULL;

  0007b	33 c0		 xor	 eax, eax
  0007d	e9 81 00 00 00	 jmp	 $LN7@PyLong_Fro
$LN5@PyLong_Fro:

; 142  :     }
; 143  : 
; 144  :     /* Convert using the nb_int slot, which should return something
; 145  :        of exact type int. */
; 146  :     result = nb->nb_int(integral);

  00082	48 8b 4c 24 40	 mov	 rcx, QWORD PTR integral$[rsp]
  00087	48 8b 44 24 28	 mov	 rax, QWORD PTR nb$[rsp]
  0008c	ff 90 80 00 00
	00		 call	 QWORD PTR [rax+128]
  00092	48 89 44 24 20	 mov	 QWORD PTR result$[rsp], rax

; 147  :     if (!result || PyLong_CheckExact(result))

  00097	48 83 7c 24 20
	00		 cmp	 QWORD PTR result$[rsp], 0
  0009d	74 12		 je	 SHORT $LN2@PyLong_Fro
  0009f	48 8d 05 00 00
	00 00		 lea	 rax, OFFSET FLAT:PyLong_Type
  000a6	48 8b 4c 24 20	 mov	 rcx, QWORD PTR result$[rsp]
  000ab	48 39 41 58	 cmp	 QWORD PTR [rcx+88], rax
  000af	75 07		 jne	 SHORT $LN3@PyLong_Fro
$LN2@PyLong_Fro:

; 148  :         return (PyLongObject *)result;

  000b1	48 8b 44 24 20	 mov	 rax, QWORD PTR result$[rsp]
  000b6	eb 4b		 jmp	 SHORT $LN7@PyLong_Fro
$LN3@PyLong_Fro:

; 149  :     if (!PyLong_Check(result)) {

  000b8	48 8b 44 24 20	 mov	 rax, QWORD PTR result$[rsp]
  000bd	48 8b 40 58	 mov	 rax, QWORD PTR [rax+88]
  000c1	8b 80 00 01 00
	00		 mov	 eax, DWORD PTR [rax+256]
  000c7	25 00 00 00 01	 and	 eax, 16777216		; 01000000H
  000cc	85 c0		 test	 eax, eax
  000ce	75 2e		 jne	 SHORT $LN1@PyLong_Fro

; 150  :         PyErr_Format(PyExc_TypeError,
; 151  :                      "__int__ returned non-int (type %.200s)",
; 152  :                      result->ob_type->tp_name);

  000d0	48 8b 44 24 20	 mov	 rax, QWORD PTR result$[rsp]
  000d5	48 8b 40 58	 mov	 rax, QWORD PTR [rax+88]
  000d9	4c 8b 40 70	 mov	 r8, QWORD PTR [rax+112]
  000dd	48 8d 15 00 00
	00 00		 lea	 rdx, OFFSET FLAT:??_C@_0CH@FBOPHEGH@__int__?5returned?5non?9int?5?$CItype?5?$CF@
  000e4	48 8b 0d 00 00
	00 00		 mov	 rcx, QWORD PTR PyExc_TypeError
  000eb	e8 00 00 00 00	 call	 PyErr_Format

; 153  :         Py_DECREF(result);

  000f0	48 8b 4c 24 20	 mov	 rcx, QWORD PTR result$[rsp]
  000f5	e8 00 00 00 00	 call	 _Py_DecRef

; 154  :         return NULL;

  000fa	33 c0		 xor	 eax, eax
  000fc	eb 05		 jmp	 SHORT $LN7@PyLong_Fro
$LN1@PyLong_Fro:

; 155  :     }
; 156  :     return (PyLongObject *)result;

  000fe	48 8b 44 24 20	 mov	 rax, QWORD PTR result$[rsp]
$LN7@PyLong_Fro:

; 157  : }

  00103	48 83 c4 38	 add	 rsp, 56			; 00000038H
  00107	c3		 ret	 0
_PyLong_FromNbInt ENDP
_TEXT	ENDS
PUBLIC	??_C@_0L@DHGMCEID@_Py_IncRef?$AA@		; `string'
PUBLIC	??_C@_0CD@HDJFDCDP@c?3?2src?2pyparallel?2include?2object@ ; `string'
EXTRN	_Py_RefTotal:QWORD
EXTRN	_PyParallel_Guard:PROC
EXTRN	_Py_PXCTX:PROC
;	COMDAT pdata
; File c:\src\pyparallel\include\object.h
pdata	SEGMENT
$pdata$_Py_IncRef DD imagerel $LN7
	DD	imagerel $LN7+132
	DD	imagerel $unwind$_Py_IncRef
pdata	ENDS
;	COMDAT xdata
xdata	SEGMENT
$unwind$_Py_IncRef DD 010901H
	DD	06209H
xdata	ENDS
;	COMDAT ??_C@_0L@DHGMCEID@_Py_IncRef?$AA@
CONST	SEGMENT
??_C@_0L@DHGMCEID@_Py_IncRef?$AA@ DB '_Py_IncRef', 00H	; `string'
CONST	ENDS
;	COMDAT ??_C@_0CD@HDJFDCDP@c?3?2src?2pyparallel?2include?2object@
CONST	SEGMENT
??_C@_0CD@HDJFDCDP@c?3?2src?2pyparallel?2include?2object@ DB 'c:\src\pypa'
	DB	'rallel\include\object.h', 00H		; `string'
; Function compile flags: /Odtp
CONST	ENDS
;	COMDAT _Py_IncRef
_TEXT	SEGMENT
op$ = 64
_Py_IncRef PROC						; COMDAT

; 904  : {

$LN7:
  00000	48 89 4c 24 08	 mov	 QWORD PTR [rsp+8], rcx
  00005	48 83 ec 38	 sub	 rsp, 56			; 00000038H

; 905  :     if ((!Py_PXCTX && (Py_ISPY(op) || Px_PERSISTED(op)))) {

  00009	e8 00 00 00 00	 call	 _Py_PXCTX
  0000e	85 c0		 test	 eax, eax
  00010	75 6d		 jne	 SHORT $LN2@Py_IncRef
  00012	c7 44 24 20 02
	00 00 00	 mov	 DWORD PTR [rsp+32], 2
  0001a	4c 8b 4c 24 40	 mov	 r9, QWORD PTR op$[rsp]
  0001f	41 b8 89 03 00
	00		 mov	 r8d, 905		; 00000389H
  00025	48 8d 15 00 00
	00 00		 lea	 rdx, OFFSET FLAT:??_C@_0CD@HDJFDCDP@c?3?2src?2pyparallel?2include?2object@
  0002c	48 8d 0d 00 00
	00 00		 lea	 rcx, OFFSET FLAT:??_C@_0L@DHGMCEID@_Py_IncRef?$AA@
  00033	e8 00 00 00 00	 call	 _PyParallel_Guard
  00038	85 c0		 test	 eax, eax
  0003a	75 12		 jne	 SHORT $LN1@Py_IncRef
  0003c	48 8b 44 24 40	 mov	 rax, QWORD PTR op$[rsp]
  00041	48 8b 40 20	 mov	 rax, QWORD PTR [rax+32]
  00045	48 83 e0 20	 and	 rax, 32			; 00000020H
  00049	48 85 c0	 test	 rax, rax
  0004c	74 31		 je	 SHORT $LN2@Py_IncRef
$LN1@Py_IncRef:

; 906  :         _Py_INC_REFTOTAL;

  0004e	e8 00 00 00 00	 call	 _Py_PXCTX
  00053	85 c0		 test	 eax, eax
  00055	74 02		 je	 SHORT $LN5@Py_IncRef
  00057	eb 11		 jmp	 SHORT $LN6@Py_IncRef
$LN5@Py_IncRef:
  00059	48 8b 05 00 00
	00 00		 mov	 rax, QWORD PTR _Py_RefTotal
  00060	48 ff c0	 inc	 rax
  00063	48 89 05 00 00
	00 00		 mov	 QWORD PTR _Py_RefTotal, rax
$LN6@Py_IncRef:

; 907  :         (((PyObject*)(op))->ob_refcnt++);

  0006a	48 8b 44 24 40	 mov	 rax, QWORD PTR op$[rsp]
  0006f	48 8b 40 50	 mov	 rax, QWORD PTR [rax+80]
  00073	48 ff c0	 inc	 rax
  00076	48 8b 4c 24 40	 mov	 rcx, QWORD PTR op$[rsp]
  0007b	48 89 41 50	 mov	 QWORD PTR [rcx+80], rax
$LN2@Py_IncRef:

; 908  :     }
; 909  : }

  0007f	48 83 c4 38	 add	 rsp, 56			; 00000038H
  00083	c3		 ret	 0
_Py_IncRef ENDP
_TEXT	ENDS
PUBLIC	??_C@_0L@DMHMLFIA@_Py_DecRef?$AA@		; `string'
EXTRN	_Py_Dealloc:PROC
EXTRN	_Py_NegativeRefcount:PROC
EXTRN	Px_DecRef:PROC
;	COMDAT pdata
pdata	SEGMENT
$pdata$_Py_DecRef DD imagerel $LN13
	DD	imagerel $LN13+257
	DD	imagerel $unwind$_Py_DecRef
pdata	ENDS
;	COMDAT xdata
xdata	SEGMENT
$unwind$_Py_DecRef DD 010901H
	DD	08209H
xdata	ENDS
;	COMDAT ??_C@_0L@DMHMLFIA@_Py_DecRef?$AA@
CONST	SEGMENT
??_C@_0L@DMHMLFIA@_Py_DecRef?$AA@ DB '_Py_DecRef', 00H	; `string'
; Function compile flags: /Odtp
CONST	ENDS
;	COMDAT _Py_DecRef
_TEXT	SEGMENT
tv81 = 48
op$ = 80
_Py_DecRef PROC						; COMDAT

; 923  : {

$LN13:
  00000	48 89 4c 24 08	 mov	 QWORD PTR [rsp+8], rcx
  00005	48 83 ec 48	 sub	 rsp, 72			; 00000048H

; 924  :     if (!Py_PXCTX) {

  00009	e8 00 00 00 00	 call	 _Py_PXCTX
  0000e	85 c0		 test	 eax, eax
  00010	0f 85 e6 00 00
	00		 jne	 $LN8@Py_DecRef

; 925  :         if (Px_PERSISTED(op) || Px_CLONED(op))

  00016	48 8b 44 24 50	 mov	 rax, QWORD PTR op$[rsp]
  0001b	48 8b 40 20	 mov	 rax, QWORD PTR [rax+32]
  0001f	48 83 e0 20	 and	 rax, 32			; 00000020H
  00023	48 85 c0	 test	 rax, rax
  00026	75 14		 jne	 SHORT $LN6@Py_DecRef
  00028	48 8b 44 24 50	 mov	 rax, QWORD PTR op$[rsp]
  0002d	48 8b 40 20	 mov	 rax, QWORD PTR [rax+32]
  00031	48 25 80 00 00
	00		 and	 rax, 128		; 00000080H
  00037	48 85 c0	 test	 rax, rax
  0003a	74 0f		 je	 SHORT $LN7@Py_DecRef
$LN6@Py_DecRef:

; 926  :             Px_DECREF(op);

  0003c	48 8b 4c 24 50	 mov	 rcx, QWORD PTR op$[rsp]
  00041	e8 00 00 00 00	 call	 Px_DecRef
  00046	e9 b1 00 00 00	 jmp	 $LN5@Py_DecRef
$LN7@Py_DecRef:

; 927  :         else if (!Px_ISPX(op)) {

  0004b	48 8b 44 24 50	 mov	 rax, QWORD PTR op$[rsp]
  00050	48 8b 40 20	 mov	 rax, QWORD PTR [rax+32]
  00054	48 83 e0 02	 and	 rax, 2
  00058	48 85 c0	 test	 rax, rax
  0005b	0f 85 9b 00 00
	00		 jne	 $LN4@Py_DecRef

; 928  :             _Py_DEC_REFTOTAL;

  00061	e8 00 00 00 00	 call	 _Py_PXCTX
  00066	85 c0		 test	 eax, eax
  00068	74 02		 je	 SHORT $LN11@Py_DecRef
  0006a	eb 11		 jmp	 SHORT $LN12@Py_DecRef
$LN11@Py_DecRef:
  0006c	48 8b 05 00 00
	00 00		 mov	 rax, QWORD PTR _Py_RefTotal
  00073	48 ff c8	 dec	 rax
  00076	48 89 05 00 00
	00 00		 mov	 QWORD PTR _Py_RefTotal, rax
$LN12@Py_DecRef:

; 929  :             if ((--((PyObject *)(op))->ob_refcnt) != 0) {

  0007d	48 8b 44 24 50	 mov	 rax, QWORD PTR op$[rsp]
  00082	48 8b 40 50	 mov	 rax, QWORD PTR [rax+80]
  00086	48 ff c8	 dec	 rax
  00089	48 89 44 24 30	 mov	 QWORD PTR tv81[rsp], rax
  0008e	48 8b 44 24 50	 mov	 rax, QWORD PTR op$[rsp]
  00093	48 8b 4c 24 30	 mov	 rcx, QWORD PTR tv81[rsp]
  00098	48 89 48 50	 mov	 QWORD PTR [rax+80], rcx
  0009c	48 83 7c 24 30
	00		 cmp	 QWORD PTR tv81[rsp], 0
  000a2	74 4e		 je	 SHORT $LN3@Py_DecRef

; 930  :                 _Py_CHECK_REFCNT(op);

  000a4	c7 44 24 20 10
	00 00 00	 mov	 DWORD PTR [rsp+32], 16
  000ac	4c 8b 4c 24 50	 mov	 r9, QWORD PTR op$[rsp]
  000b1	41 b8 a2 03 00
	00		 mov	 r8d, 930		; 000003a2H
  000b7	48 8d 15 00 00
	00 00		 lea	 rdx, OFFSET FLAT:??_C@_0CD@HDJFDCDP@c?3?2src?2pyparallel?2include?2object@
  000be	48 8d 0d 00 00
	00 00		 lea	 rcx, OFFSET FLAT:??_C@_0L@DMHMLFIA@_Py_DecRef?$AA@
  000c5	e8 00 00 00 00	 call	 _PyParallel_Guard
  000ca	85 c0		 test	 eax, eax
  000cc	75 22		 jne	 SHORT $LN2@Py_DecRef
  000ce	48 8b 44 24 50	 mov	 rax, QWORD PTR op$[rsp]
  000d3	48 83 78 50 00	 cmp	 QWORD PTR [rax+80], 0
  000d8	7d 16		 jge	 SHORT $LN2@Py_DecRef
  000da	4c 8b 44 24 50	 mov	 r8, QWORD PTR op$[rsp]
  000df	ba a2 03 00 00	 mov	 edx, 930		; 000003a2H
  000e4	48 8d 0d 00 00
	00 00		 lea	 rcx, OFFSET FLAT:??_C@_0CD@HDJFDCDP@c?3?2src?2pyparallel?2include?2object@
  000eb	e8 00 00 00 00	 call	 _Py_NegativeRefcount
$LN2@Py_DecRef:

; 931  :             } else

  000f0	eb 0a		 jmp	 SHORT $LN1@Py_DecRef
$LN3@Py_DecRef:

; 932  :                 _Py_Dealloc((PyObject *)(op));

  000f2	48 8b 4c 24 50	 mov	 rcx, QWORD PTR op$[rsp]
  000f7	e8 00 00 00 00	 call	 _Py_Dealloc
$LN1@Py_DecRef:
$LN4@Py_DecRef:
$LN5@Py_DecRef:
$LN8@Py_DecRef:

; 933  :         }
; 934  :     }
; 935  : }

  000fc	48 83 c4 48	 add	 rsp, 72			; 00000048H
  00100	c3		 ret	 0
_Py_DecRef ENDP
_TEXT	ENDS
PUBLIC	??_C@_0BL@NJCLNNOK@too?5many?5digits?5in?5integer?$AA@ ; `string'
PUBLIC	_PyLong_New
EXTRN	PyErr_NoMemory:PROC
EXTRN	_PyObject_DebugMalloc:PROC
EXTRN	PyErr_SetString:PROC
EXTRN	PyExc_OverflowError:QWORD
;	COMDAT pdata
; File c:\src\pyparallel\objects\longobject.c
pdata	SEGMENT
$pdata$_PyLong_New DD imagerel $LN5
	DD	imagerel $LN5+119
	DD	imagerel $unwind$_PyLong_New
pdata	ENDS
;	COMDAT xdata
xdata	SEGMENT
$unwind$_PyLong_New DD 010901H
	DD	06209H
xdata	ENDS
;	COMDAT ??_C@_0BL@NJCLNNOK@too?5many?5digits?5in?5integer?$AA@
CONST	SEGMENT
??_C@_0BL@NJCLNNOK@too?5many?5digits?5in?5integer?$AA@ DB 'too many digit'
	DB	's in integer', 00H				; `string'
; Function compile flags: /Odtp
CONST	ENDS
;	COMDAT _PyLong_New
_TEXT	SEGMENT
result$ = 32
size$ = 64
_PyLong_New PROC					; COMDAT

; 168  : {

$LN5:
  00000	48 89 4c 24 08	 mov	 QWORD PTR [rsp+8], rcx
  00005	48 83 ec 38	 sub	 rsp, 56			; 00000038H

; 169  :     PyLongObject *result;
; 170  :     /* Number of bytes needed is: offsetof(PyLongObject, ob_digit) +
; 171  :        sizeof(digit)*size.  Previous incarnations of this code used
; 172  :        sizeof(PyVarObject) instead of the offsetof, but this risks being
; 173  :        incorrect in the presence of padding between the PyVarObject header
; 174  :        and the digits. */
; 175  :     if (size > (Py_ssize_t)MAX_LONG_DIGITS) {

  00009	48 b8 e3 ff ff
	ff ff ff ff 1f	 mov	 rax, 2305843009213693923 ; 1fffffffffffffe3H
  00013	48 39 44 24 40	 cmp	 QWORD PTR size$[rsp], rax
  00018	7e 17		 jle	 SHORT $LN2@PyLong_New

; 176  :         PyErr_SetString(PyExc_OverflowError,
; 177  :                         "too many digits in integer");

  0001a	48 8d 15 00 00
	00 00		 lea	 rdx, OFFSET FLAT:??_C@_0BL@NJCLNNOK@too?5many?5digits?5in?5integer?$AA@
  00021	48 8b 0d 00 00
	00 00		 mov	 rcx, QWORD PTR PyExc_OverflowError
  00028	e8 00 00 00 00	 call	 PyErr_SetString

; 178  :         return NULL;

  0002d	33 c0		 xor	 eax, eax
  0002f	eb 41		 jmp	 SHORT $LN3@PyLong_New
$LN2@PyLong_New:

; 179  :     }
; 180  :     result = PyObject_MALLOC(offsetof(PyLongObject, ob_digit) +
; 181  :                              size*sizeof(digit));

  00031	48 8b 44 24 40	 mov	 rax, QWORD PTR size$[rsp]
  00036	48 8d 04 85 70
	00 00 00	 lea	 rax, QWORD PTR [rax*4+112]
  0003e	48 8b c8	 mov	 rcx, rax
  00041	e8 00 00 00 00	 call	 _PyObject_DebugMalloc
  00046	48 89 44 24 20	 mov	 QWORD PTR result$[rsp], rax

; 182  :     if (!result) {

  0004b	48 83 7c 24 20
	00		 cmp	 QWORD PTR result$[rsp], 0
  00051	75 09		 jne	 SHORT $LN1@PyLong_New

; 183  :         PyErr_NoMemory();

  00053	e8 00 00 00 00	 call	 PyErr_NoMemory

; 184  :         return NULL;

  00058	33 c0		 xor	 eax, eax
  0005a	eb 16		 jmp	 SHORT $LN3@PyLong_New
$LN1@PyLong_New:

; 185  :     }
; 186  :     return (PyLongObject*)PyObject_INIT_VAR((PyVarObject *)result, &PyLong_Type, size);

  0005c	4c 8b 44 24 40	 mov	 r8, QWORD PTR size$[rsp]
  00061	48 8d 15 00 00
	00 00		 lea	 rdx, OFFSET FLAT:PyLong_Type
  00068	48 8b 4c 24 20	 mov	 rcx, QWORD PTR result$[rsp]
  0006d	e8 00 00 00 00	 call	 PyObject_INIT_VAR
$LN3@PyLong_New:

; 187  : }

  00072	48 83 c4 38	 add	 rsp, 56			; 00000038H
  00076	c3		 ret	 0
_PyLong_New ENDP
_TEXT	ENDS
EXTRN	_Py_NewReference:PROC
EXTRN	_PxObject_InitVar:PROC
;	COMDAT pdata
; File c:\src\pyparallel\include\objimpl.h
pdata	SEGMENT
$pdata$PyObject_INIT_VAR DD imagerel PyObject_INIT_VAR
	DD	imagerel PyObject_INIT_VAR+108
	DD	imagerel $unwind$PyObject_INIT_VAR
pdata	ENDS
;	COMDAT xdata
xdata	SEGMENT
$unwind$PyObject_INIT_VAR DD 011301H
	DD	04213H
; Function compile flags: /Odtp
xdata	ENDS
;	COMDAT PyObject_INIT_VAR
_TEXT	SEGMENT
op$ = 48
tp$ = 56
n$ = 64
PyObject_INIT_VAR PROC					; COMDAT

; 247  : {

  00000	4c 89 44 24 18	 mov	 QWORD PTR [rsp+24], r8
  00005	48 89 54 24 10	 mov	 QWORD PTR [rsp+16], rdx
  0000a	48 89 4c 24 08	 mov	 QWORD PTR [rsp+8], rcx
  0000f	48 83 ec 28	 sub	 rsp, 40			; 00000028H

; 248  :     Px_RETURN(_PxObject_InitVar(op, tp, n))

  00013	e8 00 00 00 00	 call	 _Py_PXCTX
  00018	85 c0		 test	 eax, eax
  0001a	74 16		 je	 SHORT $LN1@PyObject_I
  0001c	4c 8b 44 24 40	 mov	 r8, QWORD PTR n$[rsp]
  00021	48 8b 54 24 38	 mov	 rdx, QWORD PTR tp$[rsp]
  00026	48 8b 4c 24 30	 mov	 rcx, QWORD PTR op$[rsp]
  0002b	e8 00 00 00 00	 call	 _PxObject_InitVar
  00030	eb 35		 jmp	 SHORT $LN2@PyObject_I
$LN1@PyObject_I:

; 249  :     Py_SIZE(op) = n;

  00032	48 8b 44 24 30	 mov	 rax, QWORD PTR op$[rsp]
  00037	48 8b 4c 24 40	 mov	 rcx, QWORD PTR n$[rsp]
  0003c	48 89 48 60	 mov	 QWORD PTR [rax+96], rcx

; 250  :     Py_TYPE(op) = tp;

  00040	48 8b 44 24 30	 mov	 rax, QWORD PTR op$[rsp]
  00045	48 8b 4c 24 38	 mov	 rcx, QWORD PTR tp$[rsp]
  0004a	48 89 48 58	 mov	 QWORD PTR [rax+88], rcx

; 251  :     _PyObject_InitHead((PyObject *)op);

  0004e	48 8b 4c 24 30	 mov	 rcx, QWORD PTR op$[rsp]
  00053	e8 00 00 00 00	 call	 _PyObject_InitHead

; 252  :     _Py_NewReference((PyObject *)op);

  00058	48 8b 4c 24 30	 mov	 rcx, QWORD PTR op$[rsp]
  0005d	e8 00 00 00 00	 call	 _Py_NewReference

; 253  :     return op;

  00062	48 8b 44 24 30	 mov	 rax, QWORD PTR op$[rsp]
$LN2@PyObject_I:

; 254  : }

  00067	48 83 c4 28	 add	 rsp, 40			; 00000028H
  0006b	c3		 ret	 0
PyObject_INIT_VAR ENDP
_TEXT	ENDS
PUBLIC	??_C@_1BI@GPFDFIDP@?$AAP?$AAy?$AA_?$AAT?$AAY?$AAP?$AAE?$AA?$CI?$AAo?$AAp?$AA?$CJ?$AA?$AA@ ; `string'
PUBLIC	??_C@_1EI@MBCBHLGB@?$AAc?$AA?3?$AA?2?$AAs?$AAr?$AAc?$AA?2?$AAp?$AAy?$AAp?$AAa?$AAr?$AAa?$AAl?$AAl?$AAe?$AAl?$AA?2?$AAi?$AAn?$AAc?$AAl?$AAu?$AAd?$AAe?$AA?2?$AAo?$AAb?$AAj?$AAi?$AAm?$AAp@ ; `string'
EXTRN	__imp__wassert:PROC
;	COMDAT pdata
pdata	SEGMENT
$pdata$_PyObject_InitHead DD imagerel _PyObject_InitHead
	DD	imagerel _PyObject_InitHead+182
	DD	imagerel $unwind$_PyObject_InitHead
pdata	ENDS
;	COMDAT xdata
xdata	SEGMENT
$unwind$_PyObject_InitHead DD 010901H
	DD	04209H
xdata	ENDS
;	COMDAT ??_C@_1BI@GPFDFIDP@?$AAP?$AAy?$AA_?$AAT?$AAY?$AAP?$AAE?$AA?$CI?$AAo?$AAp?$AA?$CJ?$AA?$AA@
CONST	SEGMENT
??_C@_1BI@GPFDFIDP@?$AAP?$AAy?$AA_?$AAT?$AAY?$AAP?$AAE?$AA?$CI?$AAo?$AAp?$AA?$CJ?$AA?$AA@ DB 'P'
	DB	00H, 'y', 00H, '_', 00H, 'T', 00H, 'Y', 00H, 'P', 00H, 'E', 00H
	DB	'(', 00H, 'o', 00H, 'p', 00H, ')', 00H, 00H, 00H ; `string'
CONST	ENDS
;	COMDAT ??_C@_1EI@MBCBHLGB@?$AAc?$AA?3?$AA?2?$AAs?$AAr?$AAc?$AA?2?$AAp?$AAy?$AAp?$AAa?$AAr?$AAa?$AAl?$AAl?$AAe?$AAl?$AA?2?$AAi?$AAn?$AAc?$AAl?$AAu?$AAd?$AAe?$AA?2?$AAo?$AAb?$AAj?$AAi?$AAm?$AAp@
CONST	SEGMENT
??_C@_1EI@MBCBHLGB@?$AAc?$AA?3?$AA?2?$AAs?$AAr?$AAc?$AA?2?$AAp?$AAy?$AAp?$AAa?$AAr?$AAa?$AAl?$AAl?$AAe?$AAl?$AA?2?$AAi?$AAn?$AAc?$AAl?$AAu?$AAd?$AAe?$AA?2?$AAo?$AAb?$AAj?$AAi?$AAm?$AAp@ DB 'c'
	DB	00H, ':', 00H, '\', 00H, 's', 00H, 'r', 00H, 'c', 00H, '\', 00H
	DB	'p', 00H, 'y', 00H, 'p', 00H, 'a', 00H, 'r', 00H, 'a', 00H, 'l'
	DB	00H, 'l', 00H, 'e', 00H, 'l', 00H, '\', 00H, 'i', 00H, 'n', 00H
	DB	'c', 00H, 'l', 00H, 'u', 00H, 'd', 00H, 'e', 00H, '\', 00H, 'o'
	DB	00H, 'b', 00H, 'j', 00H, 'i', 00H, 'm', 00H, 'p', 00H, 'l', 00H
	DB	'.', 00H, 'h', 00H, 00H, 00H			; `string'
; Function compile flags: /Odtp
CONST	ENDS
;	COMDAT _PyObject_InitHead
_TEXT	SEGMENT
op$ = 48
_PyObject_InitHead PROC					; COMDAT

; 215  : {

  00000	48 89 4c 24 08	 mov	 QWORD PTR [rsp+8], rcx
  00005	48 83 ec 28	 sub	 rsp, 40			; 00000028H

; 216  :     assert(Py_TYPE(op));

  00009	48 8b 44 24 30	 mov	 rax, QWORD PTR op$[rsp]
  0000e	48 83 78 58 00	 cmp	 QWORD PTR [rax+88], 0
  00013	75 1c		 jne	 SHORT $LN3@PyObject_I@2
  00015	41 b8 d8 00 00
	00		 mov	 r8d, 216		; 000000d8H
  0001b	48 8d 15 00 00
	00 00		 lea	 rdx, OFFSET FLAT:??_C@_1EI@MBCBHLGB@?$AAc?$AA?3?$AA?2?$AAs?$AAr?$AAc?$AA?2?$AAp?$AAy?$AAp?$AAa?$AAr?$AAa?$AAl?$AAl?$AAe?$AAl?$AA?2?$AAi?$AAn?$AAc?$AAl?$AAu?$AAd?$AAe?$AA?2?$AAo?$AAb?$AAj?$AAi?$AAm?$AAp@
  00022	48 8d 0d 00 00
	00 00		 lea	 rcx, OFFSET FLAT:??_C@_1BI@GPFDFIDP@?$AAP?$AAy?$AA_?$AAT?$AAY?$AAP?$AAE?$AA?$CI?$AAo?$AAp?$AA?$CJ?$AA?$AA@
  00029	ff 15 00 00 00
	00		 call	 QWORD PTR __imp__wassert
  0002f	33 c0		 xor	 eax, eax
$LN3@PyObject_I@2:

; 217  :     op->is_px = _Py_NOT_PARALLEL;

  00031	48 8b 44 24 30	 mov	 rax, QWORD PTR op$[rsp]
  00036	48 b9 78 56 ef
	be 34 12 ad de	 mov	 rcx, -2401243008567650696 ; dead1234beef5678H
  00040	48 89 08	 mov	 QWORD PTR [rax], rcx

; 218  :     op->px    = _Py_NOT_PARALLEL;

  00043	48 8b 44 24 30	 mov	 rax, QWORD PTR op$[rsp]
  00048	48 b9 78 56 ef
	be 34 12 ad de	 mov	 rcx, -2401243008567650696 ; dead1234beef5678H
  00052	48 89 48 08	 mov	 QWORD PTR [rax+8], rcx

; 219  :     op->slist_entry.Next = NULL;

  00056	48 8b 44 24 30	 mov	 rax, QWORD PTR op$[rsp]
  0005b	48 c7 40 10 00
	00 00 00	 mov	 QWORD PTR [rax+16], 0

; 220  :     op->px_flags  = Py_PXFLAGS_ISPY;

  00063	48 8b 44 24 30	 mov	 rax, QWORD PTR op$[rsp]
  00068	48 c7 40 20 01
	00 00 00	 mov	 QWORD PTR [rax+32], 1

; 221  :     op->srw_lock  = NULL;

  00070	48 8b 44 24 30	 mov	 rax, QWORD PTR op$[rsp]
  00075	48 c7 40 28 00
	00 00 00	 mov	 QWORD PTR [rax+40], 0

; 222  :     op->event     = NULL;

  0007d	48 8b 44 24 30	 mov	 rax, QWORD PTR op$[rsp]
  00082	48 c7 40 30 00
	00 00 00	 mov	 QWORD PTR [rax+48], 0

; 223  :     op->orig_type = NULL;

  0008a	48 8b 44 24 30	 mov	 rax, QWORD PTR op$[rsp]
  0008f	48 c7 40 38 00
	00 00 00	 mov	 QWORD PTR [rax+56], 0

; 224  : #ifdef Py_TRACE_REFS
; 225  :     op->_ob_next = NULL;

  00097	48 8b 44 24 30	 mov	 rax, QWORD PTR op$[rsp]
  0009c	48 c7 40 40 00
	00 00 00	 mov	 QWORD PTR [rax+64], 0

; 226  :     op->_ob_prev = NULL;

  000a4	48 8b 44 24 30	 mov	 rax, QWORD PTR op$[rsp]
  000a9	48 c7 40 48 00
	00 00 00	 mov	 QWORD PTR [rax+72], 0

; 227  : #else
; 228  :     op->_ob_next = _Py_NOT_PARALLEL;
; 229  :     op->_ob_prev = _Py_NOT_PARALLEL;
; 230  : #endif
; 231  : }

  000b1	48 83 c4 28	 add	 rsp, 40			; 00000028H
  000b5	c3		 ret	 0
_PyObject_InitHead ENDP
_TEXT	ENDS
PUBLIC	??_C@_1BI@DCHLDCPP@?$AAs?$AAr?$AAc?$AA?5?$AA?$CB?$AA?$DN?$AA?5?$AAN?$AAU?$AAL?$AAL?$AA?$AA@ ; `string'
PUBLIC	??_C@_1DA@PBBNJFBE@?$AA?4?$AA?4?$AA?2?$AAO?$AAb?$AAj?$AAe?$AAc?$AAt?$AAs?$AA?2?$AAl?$AAo?$AAn?$AAg?$AAo?$AAb?$AAj?$AAe?$AAc?$AAt?$AA?4?$AAc?$AA?$AA@ ; `string'
PUBLIC	_PyLong_Copy
;	COMDAT pdata
; File c:\src\pyparallel\objects\longobject.c
pdata	SEGMENT
$pdata$_PyLong_Copy DD imagerel $LN17
	DD	imagerel $LN17+303
	DD	imagerel $unwind$_PyLong_Copy
pdata	ENDS
;	COMDAT xdata
xdata	SEGMENT
$unwind$_PyLong_Copy DD 010901H
	DD	08209H
xdata	ENDS
;	COMDAT ??_C@_1BI@DCHLDCPP@?$AAs?$AAr?$AAc?$AA?5?$AA?$CB?$AA?$DN?$AA?5?$AAN?$AAU?$AAL?$AAL?$AA?$AA@
CONST	SEGMENT
??_C@_1BI@DCHLDCPP@?$AAs?$AAr?$AAc?$AA?5?$AA?$CB?$AA?$DN?$AA?5?$AAN?$AAU?$AAL?$AAL?$AA?$AA@ DB 's'
	DB	00H, 'r', 00H, 'c', 00H, ' ', 00H, '!', 00H, '=', 00H, ' ', 00H
	DB	'N', 00H, 'U', 00H, 'L', 00H, 'L', 00H, 00H, 00H ; `string'
CONST	ENDS
;	COMDAT ??_C@_1DA@PBBNJFBE@?$AA?4?$AA?4?$AA?2?$AAO?$AAb?$AAj?$AAe?$AAc?$AAt?$AAs?$AA?2?$AAl?$AAo?$AAn?$AAg?$AAo?$AAb?$AAj?$AAe?$AAc?$AAt?$AA?4?$AAc?$AA?$AA@
CONST	SEGMENT
??_C@_1DA@PBBNJFBE@?$AA?4?$AA?4?$AA?2?$AAO?$AAb?$AAj?$AAe?$AAc?$AAt?$AAs?$AA?2?$AAl?$AAo?$AAn?$AAg?$AAo?$AAb?$AAj?$AAe?$AAc?$AAt?$AA?4?$AAc?$AA?$AA@ DB '.'
	DB	00H, '.', 00H, '\', 00H, 'O', 00H, 'b', 00H, 'j', 00H, 'e', 00H
	DB	'c', 00H, 't', 00H, 's', 00H, '\', 00H, 'l', 00H, 'o', 00H, 'n'
	DB	00H, 'g', 00H, 'o', 00H, 'b', 00H, 'j', 00H, 'e', 00H, 'c', 00H
	DB	't', 00H, '.', 00H, 'c', 00H, 00H, 00H	; `string'
; Function compile flags: /Odtp
CONST	ENDS
;	COMDAT _PyLong_Copy
_TEXT	SEGMENT
i$ = 32
result$ = 40
ival$20401 = 48
tv83 = 52
tv82 = 56
src$ = 80
_PyLong_Copy PROC					; COMDAT

; 191  : {

$LN17:
  00000	48 89 4c 24 08	 mov	 QWORD PTR [rsp+8], rcx
  00005	48 83 ec 48	 sub	 rsp, 72			; 00000048H

; 192  :     PyLongObject *result;
; 193  :     Py_ssize_t i;
; 194  : 
; 195  :     assert(src != NULL);

  00009	48 83 7c 24 50
	00		 cmp	 QWORD PTR src$[rsp], 0
  0000f	75 1c		 jne	 SHORT $LN12@PyLong_Cop
  00011	41 b8 c3 00 00
	00		 mov	 r8d, 195		; 000000c3H
  00017	48 8d 15 00 00
	00 00		 lea	 rdx, OFFSET FLAT:??_C@_1DA@PBBNJFBE@?$AA?4?$AA?4?$AA?2?$AAO?$AAb?$AAj?$AAe?$AAc?$AAt?$AAs?$AA?2?$AAl?$AAo?$AAn?$AAg?$AAo?$AAb?$AAj?$AAe?$AAc?$AAt?$AA?4?$AAc?$AA?$AA@
  0001e	48 8d 0d 00 00
	00 00		 lea	 rcx, OFFSET FLAT:??_C@_1BI@DCHLDCPP@?$AAs?$AAr?$AAc?$AA?5?$AA?$CB?$AA?$DN?$AA?5?$AAN?$AAU?$AAL?$AAL?$AA?$AA@
  00025	ff 15 00 00 00
	00		 call	 QWORD PTR __imp__wassert
  0002b	33 c0		 xor	 eax, eax
$LN12@PyLong_Cop:

; 196  :     i = Py_SIZE(src);

  0002d	48 8b 44 24 50	 mov	 rax, QWORD PTR src$[rsp]
  00032	48 8b 40 60	 mov	 rax, QWORD PTR [rax+96]
  00036	48 89 44 24 20	 mov	 QWORD PTR i$[rsp], rax

; 197  :     if (i < 0)

  0003b	48 83 7c 24 20
	00		 cmp	 QWORD PTR i$[rsp], 0
  00041	7d 0d		 jge	 SHORT $LN9@PyLong_Cop

; 198  :         i = -(i);

  00043	48 8b 44 24 20	 mov	 rax, QWORD PTR i$[rsp]
  00048	48 f7 d8	 neg	 rax
  0004b	48 89 44 24 20	 mov	 QWORD PTR i$[rsp], rax
$LN9@PyLong_Cop:

; 199  :     if (i < 2) {

  00050	48 83 7c 24 20
	02		 cmp	 QWORD PTR i$[rsp], 2
  00056	7d 70		 jge	 SHORT $LN8@PyLong_Cop

; 200  :         sdigit ival = MEDIUM_VALUE(src);

  00058	48 8b 44 24 50	 mov	 rax, QWORD PTR src$[rsp]
  0005d	48 83 78 60 00	 cmp	 QWORD PTR [rax+96], 0
  00062	7d 10		 jge	 SHORT $LN15@PyLong_Cop
  00064	48 8b 44 24 50	 mov	 rax, QWORD PTR src$[rsp]
  00069	8b 40 70	 mov	 eax, DWORD PTR [rax+112]
  0006c	f7 d8		 neg	 eax
  0006e	89 44 24 34	 mov	 DWORD PTR tv83[rsp], eax
  00072	eb 2a		 jmp	 SHORT $LN16@PyLong_Cop
$LN15@PyLong_Cop:
  00074	48 8b 44 24 50	 mov	 rax, QWORD PTR src$[rsp]
  00079	48 83 78 60 00	 cmp	 QWORD PTR [rax+96], 0
  0007e	75 0a		 jne	 SHORT $LN13@PyLong_Cop
  00080	c7 44 24 38 00
	00 00 00	 mov	 DWORD PTR tv82[rsp], 0
  00088	eb 0c		 jmp	 SHORT $LN14@PyLong_Cop
$LN13@PyLong_Cop:
  0008a	48 8b 44 24 50	 mov	 rax, QWORD PTR src$[rsp]
  0008f	8b 40 70	 mov	 eax, DWORD PTR [rax+112]
  00092	89 44 24 38	 mov	 DWORD PTR tv82[rsp], eax
$LN14@PyLong_Cop:
  00096	8b 44 24 38	 mov	 eax, DWORD PTR tv82[rsp]
  0009a	89 44 24 34	 mov	 DWORD PTR tv83[rsp], eax
$LN16@PyLong_Cop:
  0009e	8b 44 24 34	 mov	 eax, DWORD PTR tv83[rsp]
  000a2	89 44 24 30	 mov	 DWORD PTR ival$20401[rsp], eax
$LN7@PyLong_Cop:

; 201  :         CHECK_SMALL_INT(ival);

  000a6	83 7c 24 30 fb	 cmp	 DWORD PTR ival$20401[rsp], -5
  000ab	7c 15		 jl	 SHORT $LN4@PyLong_Cop
  000ad	81 7c 24 30 01
	01 00 00	 cmp	 DWORD PTR ival$20401[rsp], 257 ; 00000101H
  000b5	7d 0b		 jge	 SHORT $LN4@PyLong_Cop
  000b7	8b 4c 24 30	 mov	 ecx, DWORD PTR ival$20401[rsp]
  000bb	e8 00 00 00 00	 call	 get_small_int
  000c0	eb 68		 jmp	 SHORT $LN10@PyLong_Cop
$LN4@PyLong_Cop:
  000c2	33 c0		 xor	 eax, eax
  000c4	85 c0		 test	 eax, eax
  000c6	75 de		 jne	 SHORT $LN7@PyLong_Cop
$LN8@PyLong_Cop:

; 202  :     }
; 203  :     result = _PyLong_New(i);

  000c8	48 8b 4c 24 20	 mov	 rcx, QWORD PTR i$[rsp]
  000cd	e8 00 00 00 00	 call	 _PyLong_New
  000d2	48 89 44 24 28	 mov	 QWORD PTR result$[rsp], rax

; 204  :     if (result != NULL) {

  000d7	48 83 7c 24 28
	00		 cmp	 QWORD PTR result$[rsp], 0
  000dd	74 46		 je	 SHORT $LN3@PyLong_Cop

; 205  :         Py_SIZE(result) = Py_SIZE(src);

  000df	48 8b 44 24 28	 mov	 rax, QWORD PTR result$[rsp]
  000e4	48 8b 4c 24 50	 mov	 rcx, QWORD PTR src$[rsp]
  000e9	48 8b 49 60	 mov	 rcx, QWORD PTR [rcx+96]
  000ed	48 89 48 60	 mov	 QWORD PTR [rax+96], rcx
$LN2@PyLong_Cop:

; 206  :         while (--i >= 0)

  000f1	48 8b 44 24 20	 mov	 rax, QWORD PTR i$[rsp]
  000f6	48 ff c8	 dec	 rax
  000f9	48 89 44 24 20	 mov	 QWORD PTR i$[rsp], rax
  000fe	48 83 7c 24 20
	00		 cmp	 QWORD PTR i$[rsp], 0
  00104	7c 1f		 jl	 SHORT $LN1@PyLong_Cop

; 207  :             result->ob_digit[i] = src->ob_digit[i];

  00106	48 8b 44 24 28	 mov	 rax, QWORD PTR result$[rsp]
  0010b	48 8b 4c 24 20	 mov	 rcx, QWORD PTR i$[rsp]
  00110	48 8b 54 24 50	 mov	 rdx, QWORD PTR src$[rsp]
  00115	4c 8b 44 24 20	 mov	 r8, QWORD PTR i$[rsp]
  0011a	42 8b 54 82 70	 mov	 edx, DWORD PTR [rdx+r8*4+112]
  0011f	89 54 88 70	 mov	 DWORD PTR [rax+rcx*4+112], edx
  00123	eb cc		 jmp	 SHORT $LN2@PyLong_Cop
$LN1@PyLong_Cop:
$LN3@PyLong_Cop:

; 208  :     }
; 209  :     return (PyObject *)result;

  00125	48 8b 44 24 28	 mov	 rax, QWORD PTR result$[rsp]
$LN10@PyLong_Cop:

; 210  : }

  0012a	48 83 c4 48	 add	 rsp, 72			; 00000048H
  0012e	c3		 ret	 0
_PyLong_Copy ENDP
_TEXT	ENDS
_BSS	SEGMENT
small_ints DB	08300H DUP (?)
_BSS	ENDS
;	COMDAT pdata
pdata	SEGMENT
$pdata$get_small_int DD imagerel get_small_int
	DD	imagerel get_small_int+60
	DD	imagerel $unwind$get_small_int
pdata	ENDS
;	COMDAT xdata
xdata	SEGMENT
$unwind$get_small_int DD 010801H
	DD	06208H
; Function compile flags: /Odtp
xdata	ENDS
;	COMDAT get_small_int
_TEXT	SEGMENT
v$ = 32
ival$ = 64
get_small_int PROC					; COMDAT

; 38   : {

  00000	89 4c 24 08	 mov	 DWORD PTR [rsp+8], ecx
  00004	48 83 ec 38	 sub	 rsp, 56			; 00000038H

; 39   :     PyObject *v = (PyObject*)(small_ints + ival + NSMALLNEGINTS);

  00008	48 63 44 24 40	 movsxd	 rax, DWORD PTR ival$[rsp]
  0000d	48 69 c0 80 00
	00 00		 imul	 rax, 128		; 00000080H
  00014	48 8d 0d 00 00
	00 00		 lea	 rcx, OFFSET FLAT:small_ints
  0001b	48 8d 84 01 80
	02 00 00	 lea	 rax, QWORD PTR [rcx+rax+640]
  00023	48 89 44 24 20	 mov	 QWORD PTR v$[rsp], rax

; 40   :     Py_INCREF(v);

  00028	48 8b 4c 24 20	 mov	 rcx, QWORD PTR v$[rsp]
  0002d	e8 00 00 00 00	 call	 _Py_IncRef

; 41   : #ifdef COUNT_ALLOCS
; 42   :     if (ival >= 0)
; 43   :         quick_int_allocs++;
; 44   :     else
; 45   :         quick_neg_int_allocs++;
; 46   : #endif
; 47   :     return v;

  00032	48 8b 44 24 20	 mov	 rax, QWORD PTR v$[rsp]

; 48   : }

  00037	48 83 c4 38	 add	 rsp, 56			; 00000038H
  0003b	c3		 ret	 0
get_small_int ENDP
_TEXT	ENDS
PUBLIC	??_C@_1MK@KLKBDGLE@?$AA?$CI?$AAu?$AAn?$AAs?$AAi?$AAg?$AAn?$AAe?$AAd?$AA?5?$AAl?$AAo?$AAn?$AAg?$AA?$CJ?$AA?$CI?$AAd?$AAi?$AAg?$AAi?$AAt?$AA?$CJ?$AA?$CI?$AAt?$AA?5?$AA?$CG?$AA?5?$AA?$CI?$AA?$CI?$AAd?$AAi?$AAg@ ; `string'
PUBLIC	??_C@_1FO@DCJIMMDP@?$AA?$CI?$AAu?$AAn?$AAs?$AAi?$AAg?$AAn?$AAe?$AAd?$AA?5?$AAl?$AAo?$AAn?$AAg?$AA?$CJ?$AA?$CI?$AAd?$AAi?$AAg?$AAi?$AAt?$AA?$CJ?$AA?$CI?$AAa?$AAb?$AAs?$AA_?$AAi?$AAv?$AAa?$AAl?$AA?$CJ@ ; `string'
PUBLIC	PyLong_FromLong
;	COMDAT pdata
pdata	SEGMENT
$pdata$PyLong_FromLong DD imagerel $LN18
	DD	imagerel $LN18+425
	DD	imagerel $unwind$PyLong_FromLong
pdata	ENDS
;	COMDAT xdata
xdata	SEGMENT
$unwind$PyLong_FromLong DD 010801H
	DD	08208H
xdata	ENDS
;	COMDAT ??_C@_1MK@KLKBDGLE@?$AA?$CI?$AAu?$AAn?$AAs?$AAi?$AAg?$AAn?$AAe?$AAd?$AA?5?$AAl?$AAo?$AAn?$AAg?$AA?$CJ?$AA?$CI?$AAd?$AAi?$AAg?$AAi?$AAt?$AA?$CJ?$AA?$CI?$AAt?$AA?5?$AA?$CG?$AA?5?$AA?$CI?$AA?$CI?$AAd?$AAi?$AAg@
CONST	SEGMENT
??_C@_1MK@KLKBDGLE@?$AA?$CI?$AAu?$AAn?$AAs?$AAi?$AAg?$AAn?$AAe?$AAd?$AA?5?$AAl?$AAo?$AAn?$AAg?$AA?$CJ?$AA?$CI?$AAd?$AAi?$AAg?$AAi?$AAt?$AA?$CJ?$AA?$CI?$AAt?$AA?5?$AA?$CG?$AA?5?$AA?$CI?$AA?$CI?$AAd?$AAi?$AAg@ DB '('
	DB	00H, 'u', 00H, 'n', 00H, 's', 00H, 'i', 00H, 'g', 00H, 'n', 00H
	DB	'e', 00H, 'd', 00H, ' ', 00H, 'l', 00H, 'o', 00H, 'n', 00H, 'g'
	DB	00H, ')', 00H, '(', 00H, 'd', 00H, 'i', 00H, 'g', 00H, 'i', 00H
	DB	't', 00H, ')', 00H, '(', 00H, 't', 00H, ' ', 00H, '&', 00H, ' '
	DB	00H, '(', 00H, '(', 00H, 'd', 00H, 'i', 00H, 'g', 00H, 'i', 00H
	DB	't', 00H, ')', 00H, '(', 00H, '(', 00H, '(', 00H, 'd', 00H, 'i'
	DB	00H, 'g', 00H, 'i', 00H, 't', 00H, ')', 00H, '1', 00H, ' ', 00H
	DB	'<', 00H, '<', 00H, ' ', 00H, '3', 00H, '0', 00H, ')', 00H, ' '
	DB	00H, '-', 00H, ' ', 00H, '1', 00H, ')', 00H, ')', 00H, ')', 00H
	DB	' ', 00H, '=', 00H, '=', 00H, ' ', 00H, '(', 00H, 't', 00H, ' '
	DB	00H, '&', 00H, ' ', 00H, '(', 00H, '(', 00H, 'd', 00H, 'i', 00H
	DB	'g', 00H, 'i', 00H, 't', 00H, ')', 00H, '(', 00H, '(', 00H, '('
	DB	00H, 'd', 00H, 'i', 00H, 'g', 00H, 'i', 00H, 't', 00H, ')', 00H
	DB	'1', 00H, ' ', 00H, '<', 00H, '<', 00H, ' ', 00H, '3', 00H, '0'
	DB	00H, ')', 00H, ' ', 00H, '-', 00H, ' ', 00H, '1', 00H, ')', 00H
	DB	')', 00H, ')', 00H, 00H, 00H			; `string'
CONST	ENDS
;	COMDAT ??_C@_1FO@DCJIMMDP@?$AA?$CI?$AAu?$AAn?$AAs?$AAi?$AAg?$AAn?$AAe?$AAd?$AA?5?$AAl?$AAo?$AAn?$AAg?$AA?$CJ?$AA?$CI?$AAd?$AAi?$AAg?$AAi?$AAt?$AA?$CJ?$AA?$CI?$AAa?$AAb?$AAs?$AA_?$AAi?$AAv?$AAa?$AAl?$AA?$CJ@
CONST	SEGMENT
??_C@_1FO@DCJIMMDP@?$AA?$CI?$AAu?$AAn?$AAs?$AAi?$AAg?$AAn?$AAe?$AAd?$AA?5?$AAl?$AAo?$AAn?$AAg?$AA?$CJ?$AA?$CI?$AAd?$AAi?$AAg?$AAi?$AAt?$AA?$CJ?$AA?$CI?$AAa?$AAb?$AAs?$AA_?$AAi?$AAv?$AAa?$AAl?$AA?$CJ@ DB '('
	DB	00H, 'u', 00H, 'n', 00H, 's', 00H, 'i', 00H, 'g', 00H, 'n', 00H
	DB	'e', 00H, 'd', 00H, ' ', 00H, 'l', 00H, 'o', 00H, 'n', 00H, 'g'
	DB	00H, ')', 00H, '(', 00H, 'd', 00H, 'i', 00H, 'g', 00H, 'i', 00H
	DB	't', 00H, ')', 00H, '(', 00H, 'a', 00H, 'b', 00H, 's', 00H, '_'
	DB	00H, 'i', 00H, 'v', 00H, 'a', 00H, 'l', 00H, ')', 00H, ' ', 00H
	DB	'=', 00H, '=', 00H, ' ', 00H, '(', 00H, 'a', 00H, 'b', 00H, 's'
	DB	00H, '_', 00H, 'i', 00H, 'v', 00H, 'a', 00H, 'l', 00H, ')', 00H
	DB	00H, 00H					; `string'
; Function compile flags: /Odtp
CONST	ENDS
;	COMDAT PyLong_FromLong
_TEXT	SEGMENT
v$ = 32
abs_ival$ = 40
sign$ = 44
ndigits$ = 48
t$ = 52
p$20451 = 56
ival$ = 80
PyLong_FromLong PROC					; COMDAT

; 216  : {

$LN18:
  00000	89 4c 24 08	 mov	 DWORD PTR [rsp+8], ecx
  00004	48 83 ec 48	 sub	 rsp, 72			; 00000048H

; 217  :     PyLongObject *v;
; 218  :     unsigned long abs_ival;
; 219  :     unsigned long t;  /* unsigned so >> doesn't propagate sign bit */
; 220  :     int ndigits = 0;

  00008	c7 44 24 30 00
	00 00 00	 mov	 DWORD PTR ndigits$[rsp], 0

; 221  :     int sign = 1;

  00010	c7 44 24 2c 01
	00 00 00	 mov	 DWORD PTR sign$[rsp], 1
$LN13@PyLong_Fro@2:

; 222  : 
; 223  :     CHECK_SMALL_INT(ival);

  00018	83 7c 24 50 fb	 cmp	 DWORD PTR ival$[rsp], -5
  0001d	7c 18		 jl	 SHORT $LN10@PyLong_Fro@2
  0001f	81 7c 24 50 01
	01 00 00	 cmp	 DWORD PTR ival$[rsp], 257 ; 00000101H
  00027	7d 0e		 jge	 SHORT $LN10@PyLong_Fro@2
  00029	8b 4c 24 50	 mov	 ecx, DWORD PTR ival$[rsp]
  0002d	e8 00 00 00 00	 call	 get_small_int
  00032	e9 6d 01 00 00	 jmp	 $LN14@PyLong_Fro@2
$LN10@PyLong_Fro@2:
  00037	33 c0		 xor	 eax, eax
  00039	85 c0		 test	 eax, eax
  0003b	75 db		 jne	 SHORT $LN13@PyLong_Fro@2

; 224  : 
; 225  :     if (ival < 0) {

  0003d	83 7c 24 50 00	 cmp	 DWORD PTR ival$[rsp], 0
  00042	7d 14		 jge	 SHORT $LN9@PyLong_Fro@2

; 226  :         /* negate: can't write this as abs_ival = -ival since that
; 227  :            invokes undefined behaviour when ival is LONG_MIN */
; 228  :         abs_ival = 0U-(unsigned long)ival;

  00044	33 c0		 xor	 eax, eax
  00046	2b 44 24 50	 sub	 eax, DWORD PTR ival$[rsp]
  0004a	89 44 24 28	 mov	 DWORD PTR abs_ival$[rsp], eax

; 229  :         sign = -1;

  0004e	c7 44 24 2c ff
	ff ff ff	 mov	 DWORD PTR sign$[rsp], -1

; 230  :     }
; 231  :     else {

  00056	eb 08		 jmp	 SHORT $LN8@PyLong_Fro@2
$LN9@PyLong_Fro@2:

; 232  :         abs_ival = (unsigned long)ival;

  00058	8b 44 24 50	 mov	 eax, DWORD PTR ival$[rsp]
  0005c	89 44 24 28	 mov	 DWORD PTR abs_ival$[rsp], eax
$LN8@PyLong_Fro@2:

; 233  :     }
; 234  : 
; 235  :     /* Fast path for single-digit ints */
; 236  :     if (!(abs_ival >> PyLong_SHIFT)) {

  00060	8b 44 24 28	 mov	 eax, DWORD PTR abs_ival$[rsp]
  00064	c1 e8 1e	 shr	 eax, 30
  00067	85 c0		 test	 eax, eax
  00069	75 61		 jne	 SHORT $LN7@PyLong_Fro@2

; 237  :         v = _PyLong_New(1);

  0006b	b9 01 00 00 00	 mov	 ecx, 1
  00070	e8 00 00 00 00	 call	 _PyLong_New
  00075	48 89 44 24 20	 mov	 QWORD PTR v$[rsp], rax

; 238  :         if (v) {

  0007a	48 83 7c 24 20
	00		 cmp	 QWORD PTR v$[rsp], 0
  00080	74 40		 je	 SHORT $LN6@PyLong_Fro@2

; 239  :             Py_SIZE(v) = sign;

  00082	48 63 44 24 2c	 movsxd	 rax, DWORD PTR sign$[rsp]
  00087	48 8b 4c 24 20	 mov	 rcx, QWORD PTR v$[rsp]
  0008c	48 89 41 60	 mov	 QWORD PTR [rcx+96], rax

; 240  :             v->ob_digit[0] = Py_SAFE_DOWNCAST(
; 241  :                 abs_ival, unsigned long, digit);

  00090	8b 44 24 28	 mov	 eax, DWORD PTR abs_ival$[rsp]
  00094	39 44 24 28	 cmp	 DWORD PTR abs_ival$[rsp], eax
  00098	74 1c		 je	 SHORT $LN16@PyLong_Fro@2
  0009a	41 b8 f1 00 00
	00		 mov	 r8d, 241		; 000000f1H
  000a0	48 8d 15 00 00
	00 00		 lea	 rdx, OFFSET FLAT:??_C@_1DA@PBBNJFBE@?$AA?4?$AA?4?$AA?2?$AAO?$AAb?$AAj?$AAe?$AAc?$AAt?$AAs?$AA?2?$AAl?$AAo?$AAn?$AAg?$AAo?$AAb?$AAj?$AAe?$AAc?$AAt?$AA?4?$AAc?$AA?$AA@
  000a7	48 8d 0d 00 00
	00 00		 lea	 rcx, OFFSET FLAT:??_C@_1FO@DCJIMMDP@?$AA?$CI?$AAu?$AAn?$AAs?$AAi?$AAg?$AAn?$AAe?$AAd?$AA?5?$AAl?$AAo?$AAn?$AAg?$AA?$CJ?$AA?$CI?$AAd?$AAi?$AAg?$AAi?$AAt?$AA?$CJ?$AA?$CI?$AAa?$AAb?$AAs?$AA_?$AAi?$AAv?$AAa?$AAl?$AA?$CJ@
  000ae	ff 15 00 00 00
	00		 call	 QWORD PTR __imp__wassert
  000b4	33 c0		 xor	 eax, eax
$LN16@PyLong_Fro@2:
  000b6	48 8b 44 24 20	 mov	 rax, QWORD PTR v$[rsp]
  000bb	8b 4c 24 28	 mov	 ecx, DWORD PTR abs_ival$[rsp]
  000bf	89 48 70	 mov	 DWORD PTR [rax+112], ecx
$LN6@PyLong_Fro@2:

; 242  :         }
; 243  :         return (PyObject*)v;

  000c2	48 8b 44 24 20	 mov	 rax, QWORD PTR v$[rsp]
  000c7	e9 d8 00 00 00	 jmp	 $LN14@PyLong_Fro@2
$LN7@PyLong_Fro@2:

; 244  :     }
; 245  : 
; 246  : #if PyLong_SHIFT==15
; 247  :     /* 2 digits */
; 248  :     if (!(abs_ival >> 2*PyLong_SHIFT)) {
; 249  :         v = _PyLong_New(2);
; 250  :         if (v) {
; 251  :             Py_SIZE(v) = 2*sign;
; 252  :             v->ob_digit[0] = Py_SAFE_DOWNCAST(
; 253  :                 abs_ival & PyLong_MASK, unsigned long, digit);
; 254  :             v->ob_digit[1] = Py_SAFE_DOWNCAST(
; 255  :                   abs_ival >> PyLong_SHIFT, unsigned long, digit);
; 256  :         }
; 257  :         return (PyObject*)v;
; 258  :     }
; 259  : #endif
; 260  : 
; 261  :     /* Larger numbers: loop to determine number of digits */
; 262  :     t = abs_ival;

  000cc	8b 44 24 28	 mov	 eax, DWORD PTR abs_ival$[rsp]
  000d0	89 44 24 34	 mov	 DWORD PTR t$[rsp], eax
$LN5@PyLong_Fro@2:

; 263  :     while (t) {

  000d4	83 7c 24 34 00	 cmp	 DWORD PTR t$[rsp], 0
  000d9	74 17		 je	 SHORT $LN4@PyLong_Fro@2

; 264  :         ++ndigits;

  000db	8b 44 24 30	 mov	 eax, DWORD PTR ndigits$[rsp]
  000df	ff c0		 inc	 eax
  000e1	89 44 24 30	 mov	 DWORD PTR ndigits$[rsp], eax

; 265  :         t >>= PyLong_SHIFT;

  000e5	8b 44 24 34	 mov	 eax, DWORD PTR t$[rsp]
  000e9	c1 e8 1e	 shr	 eax, 30
  000ec	89 44 24 34	 mov	 DWORD PTR t$[rsp], eax

; 266  :     }

  000f0	eb e2		 jmp	 SHORT $LN5@PyLong_Fro@2
$LN4@PyLong_Fro@2:

; 267  :     v = _PyLong_New(ndigits);

  000f2	48 63 44 24 30	 movsxd	 rax, DWORD PTR ndigits$[rsp]
  000f7	48 8b c8	 mov	 rcx, rax
  000fa	e8 00 00 00 00	 call	 _PyLong_New
  000ff	48 89 44 24 20	 mov	 QWORD PTR v$[rsp], rax

; 268  :     if (v != NULL) {

  00104	48 83 7c 24 20
	00		 cmp	 QWORD PTR v$[rsp], 0
  0010a	0f 84 8f 00 00
	00		 je	 $LN3@PyLong_Fro@2

; 269  :         digit *p = v->ob_digit;

  00110	48 8b 44 24 20	 mov	 rax, QWORD PTR v$[rsp]
  00115	48 83 c0 70	 add	 rax, 112		; 00000070H
  00119	48 89 44 24 38	 mov	 QWORD PTR p$20451[rsp], rax

; 270  :         Py_SIZE(v) = ndigits*sign;

  0011e	8b 44 24 30	 mov	 eax, DWORD PTR ndigits$[rsp]
  00122	0f af 44 24 2c	 imul	 eax, DWORD PTR sign$[rsp]
  00127	48 98		 cdqe
  00129	48 8b 4c 24 20	 mov	 rcx, QWORD PTR v$[rsp]
  0012e	48 89 41 60	 mov	 QWORD PTR [rcx+96], rax

; 271  :         t = abs_ival;

  00132	8b 44 24 28	 mov	 eax, DWORD PTR abs_ival$[rsp]
  00136	89 44 24 34	 mov	 DWORD PTR t$[rsp], eax
$LN2@PyLong_Fro@2:

; 272  :         while (t) {

  0013a	83 7c 24 34 00	 cmp	 DWORD PTR t$[rsp], 0
  0013f	74 5e		 je	 SHORT $LN1@PyLong_Fro@2

; 273  :             *p++ = Py_SAFE_DOWNCAST(
; 274  :                 t & PyLong_MASK, unsigned long, digit);

  00141	8b 44 24 34	 mov	 eax, DWORD PTR t$[rsp]
  00145	25 ff ff ff 3f	 and	 eax, 1073741823		; 3fffffffH
  0014a	8b 4c 24 34	 mov	 ecx, DWORD PTR t$[rsp]
  0014e	81 e1 ff ff ff
	3f		 and	 ecx, 1073741823		; 3fffffffH
  00154	3b c1		 cmp	 eax, ecx
  00156	74 1c		 je	 SHORT $LN17@PyLong_Fro@2
  00158	41 b8 12 01 00
	00		 mov	 r8d, 274		; 00000112H
  0015e	48 8d 15 00 00
	00 00		 lea	 rdx, OFFSET FLAT:??_C@_1DA@PBBNJFBE@?$AA?4?$AA?4?$AA?2?$AAO?$AAb?$AAj?$AAe?$AAc?$AAt?$AAs?$AA?2?$AAl?$AAo?$AAn?$AAg?$AAo?$AAb?$AAj?$AAe?$AAc?$AAt?$AA?4?$AAc?$AA?$AA@
  00165	48 8d 0d 00 00
	00 00		 lea	 rcx, OFFSET FLAT:??_C@_1MK@KLKBDGLE@?$AA?$CI?$AAu?$AAn?$AAs?$AAi?$AAg?$AAn?$AAe?$AAd?$AA?5?$AAl?$AAo?$AAn?$AAg?$AA?$CJ?$AA?$CI?$AAd?$AAi?$AAg?$AAi?$AAt?$AA?$CJ?$AA?$CI?$AAt?$AA?5?$AA?$CG?$AA?5?$AA?$CI?$AA?$CI?$AAd?$AAi?$AAg@
  0016c	ff 15 00 00 00
	00		 call	 QWORD PTR __imp__wassert
  00172	33 c0		 xor	 eax, eax
$LN17@PyLong_Fro@2:
  00174	8b 44 24 34	 mov	 eax, DWORD PTR t$[rsp]
  00178	25 ff ff ff 3f	 and	 eax, 1073741823		; 3fffffffH
  0017d	48 8b 4c 24 38	 mov	 rcx, QWORD PTR p$20451[rsp]
  00182	89 01		 mov	 DWORD PTR [rcx], eax
  00184	48 8b 44 24 38	 mov	 rax, QWORD PTR p$20451[rsp]
  00189	48 83 c0 04	 add	 rax, 4
  0018d	48 89 44 24 38	 mov	 QWORD PTR p$20451[rsp], rax

; 275  :             t >>= PyLong_SHIFT;

  00192	8b 44 24 34	 mov	 eax, DWORD PTR t$[rsp]
  00196	c1 e8 1e	 shr	 eax, 30
  00199	89 44 24 34	 mov	 DWORD PTR t$[rsp], eax

; 276  :         }

  0019d	eb 9b		 jmp	 SHORT $LN2@PyLong_Fro@2
$LN1@PyLong_Fro@2:
$LN3@PyLong_Fro@2:

; 277  :     }
; 278  :     return (PyObject *)v;

  0019f	48 8b 44 24 20	 mov	 rax, QWORD PTR v$[rsp]
$LN14@PyLong_Fro@2:

; 279  : }

  001a4	48 83 c4 48	 add	 rsp, 72			; 00000048H
  001a8	c3		 ret	 0
PyLong_FromLong ENDP
_TEXT	ENDS
PUBLIC	PyLong_FromUnsignedLong
;	COMDAT pdata
pdata	SEGMENT
$pdata$PyLong_FromUnsignedLong DD imagerel $LN9
	DD	imagerel $LN9+192
	DD	imagerel $unwind$PyLong_FromUnsignedLong
pdata	ENDS
;	COMDAT xdata
xdata	SEGMENT
$unwind$PyLong_FromUnsignedLong DD 010801H
	DD	08208H
; Function compile flags: /Odtp
xdata	ENDS
;	COMDAT PyLong_FromUnsignedLong
_TEXT	SEGMENT
v$ = 32
ndigits$ = 40
t$ = 44
p$20482 = 48
ival$ = 80
PyLong_FromUnsignedLong PROC				; COMDAT

; 285  : {

$LN9:
  00000	89 4c 24 08	 mov	 DWORD PTR [rsp+8], ecx
  00004	48 83 ec 48	 sub	 rsp, 72			; 00000048H

; 286  :     PyLongObject *v;
; 287  :     unsigned long t;
; 288  :     int ndigits = 0;

  00008	c7 44 24 28 00
	00 00 00	 mov	 DWORD PTR ndigits$[rsp], 0

; 289  : 
; 290  :     if (ival < PyLong_BASE)

  00010	81 7c 24 50 00
	00 00 40	 cmp	 DWORD PTR ival$[rsp], 1073741824 ; 40000000H
  00018	73 0e		 jae	 SHORT $LN6@PyLong_Fro@3

; 291  :         return PyLong_FromLong(ival);

  0001a	8b 4c 24 50	 mov	 ecx, DWORD PTR ival$[rsp]
  0001e	e8 00 00 00 00	 call	 PyLong_FromLong
  00023	e9 93 00 00 00	 jmp	 $LN7@PyLong_Fro@3
$LN6@PyLong_Fro@3:

; 292  :     /* Count the number of Python digits. */
; 293  :     t = (unsigned long)ival;

  00028	8b 44 24 50	 mov	 eax, DWORD PTR ival$[rsp]
  0002c	89 44 24 2c	 mov	 DWORD PTR t$[rsp], eax
$LN5@PyLong_Fro@3:

; 294  :     while (t) {

  00030	83 7c 24 2c 00	 cmp	 DWORD PTR t$[rsp], 0
  00035	74 17		 je	 SHORT $LN4@PyLong_Fro@3

; 295  :         ++ndigits;

  00037	8b 44 24 28	 mov	 eax, DWORD PTR ndigits$[rsp]
  0003b	ff c0		 inc	 eax
  0003d	89 44 24 28	 mov	 DWORD PTR ndigits$[rsp], eax

; 296  :         t >>= PyLong_SHIFT;

  00041	8b 44 24 2c	 mov	 eax, DWORD PTR t$[rsp]
  00045	c1 e8 1e	 shr	 eax, 30
  00048	89 44 24 2c	 mov	 DWORD PTR t$[rsp], eax

; 297  :     }

  0004c	eb e2		 jmp	 SHORT $LN5@PyLong_Fro@3
$LN4@PyLong_Fro@3:

; 298  :     v = _PyLong_New(ndigits);

  0004e	48 63 44 24 28	 movsxd	 rax, DWORD PTR ndigits$[rsp]
  00053	48 8b c8	 mov	 rcx, rax
  00056	e8 00 00 00 00	 call	 _PyLong_New
  0005b	48 89 44 24 20	 mov	 QWORD PTR v$[rsp], rax

; 299  :     if (v != NULL) {

  00060	48 83 7c 24 20
	00		 cmp	 QWORD PTR v$[rsp], 0
  00066	74 4e		 je	 SHORT $LN3@PyLong_Fro@3

; 300  :         digit *p = v->ob_digit;

  00068	48 8b 44 24 20	 mov	 rax, QWORD PTR v$[rsp]
  0006d	48 83 c0 70	 add	 rax, 112		; 00000070H
  00071	48 89 44 24 30	 mov	 QWORD PTR p$20482[rsp], rax

; 301  :         Py_SIZE(v) = ndigits;

  00076	48 63 44 24 28	 movsxd	 rax, DWORD PTR ndigits$[rsp]
  0007b	48 8b 4c 24 20	 mov	 rcx, QWORD PTR v$[rsp]
  00080	48 89 41 60	 mov	 QWORD PTR [rcx+96], rax
$LN2@PyLong_Fro@3:

; 302  :         while (ival) {

  00084	83 7c 24 50 00	 cmp	 DWORD PTR ival$[rsp], 0
  00089	74 2b		 je	 SHORT $LN1@PyLong_Fro@3

; 303  :             *p++ = (digit)(ival & PyLong_MASK);

  0008b	8b 44 24 50	 mov	 eax, DWORD PTR ival$[rsp]
  0008f	25 ff ff ff 3f	 and	 eax, 1073741823		; 3fffffffH
  00094	48 8b 4c 24 30	 mov	 rcx, QWORD PTR p$20482[rsp]
  00099	89 01		 mov	 DWORD PTR [rcx], eax
  0009b	48 8b 44 24 30	 mov	 rax, QWORD PTR p$20482[rsp]
  000a0	48 83 c0 04	 add	 rax, 4
  000a4	48 89 44 24 30	 mov	 QWORD PTR p$20482[rsp], rax

; 304  :             ival >>= PyLong_SHIFT;

  000a9	8b 44 24 50	 mov	 eax, DWORD PTR ival$[rsp]
  000ad	c1 e8 1e	 shr	 eax, 30
  000b0	89 44 24 50	 mov	 DWORD PTR ival$[rsp], eax

; 305  :         }

  000b4	eb ce		 jmp	 SHORT $LN2@PyLong_Fro@3
$LN1@PyLong_Fro@3:
$LN3@PyLong_Fro@3:

; 306  :     }
; 307  :     return (PyObject *)v;

  000b6	48 8b 44 24 20	 mov	 rax, QWORD PTR v$[rsp]
$LN7@PyLong_Fro@3:

; 308  : }

  000bb	48 83 c4 48	 add	 rsp, 72			; 00000048H
  000bf	c3		 ret	 0
PyLong_FromUnsignedLong ENDP
_TEXT	ENDS
PUBLIC	__mask@@NegDouble@
PUBLIC	??_C@_0CE@HNDAIPOH@cannot?5convert?5float?5NaN?5to?5inte@ ; `string'
PUBLIC	??_C@_0CJ@FCONGJCF@cannot?5convert?5float?5infinity?5to@ ; `string'
PUBLIC	PyLong_FromDouble
EXTRN	__imp_ldexp:PROC
EXTRN	__imp_frexp:PROC
EXTRN	PyExc_ValueError:QWORD
EXTRN	__imp__isnan:PROC
EXTRN	__imp__finite:PROC
EXTRN	_fltused:DWORD
;	COMDAT pdata
pdata	SEGMENT
$pdata$PyLong_FromDouble DD imagerel $LN11
	DD	imagerel $LN11+441
	DD	imagerel $unwind$PyLong_FromDouble
pdata	ENDS
;	COMDAT xdata
xdata	SEGMENT
$unwind$PyLong_FromDouble DD 010a01H
	DD	0a20aH
xdata	ENDS
;	COMDAT __mask@@NegDouble@
CONST	SEGMENT
__mask@@NegDouble@ DB 00H, 00H, 00H, 00H, 00H, 00H, 00H, 080H, 00H, 00H, 00H
	DB	00H, 00H, 00H, 00H, 080H
CONST	ENDS
;	COMDAT ??_C@_0CE@HNDAIPOH@cannot?5convert?5float?5NaN?5to?5inte@
CONST	SEGMENT
??_C@_0CE@HNDAIPOH@cannot?5convert?5float?5NaN?5to?5inte@ DB 'cannot conv'
	DB	'ert float NaN to integer', 00H		; `string'
CONST	ENDS
;	COMDAT ??_C@_0CJ@FCONGJCF@cannot?5convert?5float?5infinity?5to@
CONST	SEGMENT
??_C@_0CJ@FCONGJCF@cannot?5convert?5float?5infinity?5to@ DB 'cannot conve'
	DB	'rt float infinity to integer', 00H		; `string'
; Function compile flags: /Odtp
CONST	ENDS
;	COMDAT PyLong_FromDouble
_TEXT	SEGMENT
v$ = 32
i$ = 40
expo$ = 44
neg$ = 48
frac$ = 56
ndig$ = 64
bits$20514 = 68
dval$ = 96
PyLong_FromDouble PROC					; COMDAT

; 314  : {

$LN11:
  00000	f2 0f 11 44 24
	08		 movsdx	 QWORD PTR [rsp+8], xmm0
  00006	48 83 ec 58	 sub	 rsp, 88			; 00000058H

; 315  :     PyLongObject *v;
; 316  :     double frac;
; 317  :     int i, ndig, expo, neg;
; 318  :     neg = 0;

  0000a	c7 44 24 30 00
	00 00 00	 mov	 DWORD PTR neg$[rsp], 0

; 319  :     if (Py_IS_INFINITY(dval)) {

  00012	f2 0f 10 44 24
	60		 movsdx	 xmm0, QWORD PTR dval$[rsp]
  00018	ff 15 00 00 00
	00		 call	 QWORD PTR __imp__finite
  0001e	85 c0		 test	 eax, eax
  00020	75 2a		 jne	 SHORT $LN8@PyLong_Fro@4
  00022	f2 0f 10 44 24
	60		 movsdx	 xmm0, QWORD PTR dval$[rsp]
  00028	ff 15 00 00 00
	00		 call	 QWORD PTR __imp__isnan
  0002e	85 c0		 test	 eax, eax
  00030	75 1a		 jne	 SHORT $LN8@PyLong_Fro@4

; 320  :         PyErr_SetString(PyExc_OverflowError,
; 321  :                         "cannot convert float infinity to integer");

  00032	48 8d 15 00 00
	00 00		 lea	 rdx, OFFSET FLAT:??_C@_0CJ@FCONGJCF@cannot?5convert?5float?5infinity?5to@
  00039	48 8b 0d 00 00
	00 00		 mov	 rcx, QWORD PTR PyExc_OverflowError
  00040	e8 00 00 00 00	 call	 PyErr_SetString

; 322  :         return NULL;

  00045	33 c0		 xor	 eax, eax
  00047	e9 68 01 00 00	 jmp	 $LN9@PyLong_Fro@4
$LN8@PyLong_Fro@4:

; 323  :     }
; 324  :     if (Py_IS_NAN(dval)) {

  0004c	f2 0f 10 44 24
	60		 movsdx	 xmm0, QWORD PTR dval$[rsp]
  00052	ff 15 00 00 00
	00		 call	 QWORD PTR __imp__isnan
  00058	85 c0		 test	 eax, eax
  0005a	74 1a		 je	 SHORT $LN7@PyLong_Fro@4

; 325  :         PyErr_SetString(PyExc_ValueError,
; 326  :                         "cannot convert float NaN to integer");

  0005c	48 8d 15 00 00
	00 00		 lea	 rdx, OFFSET FLAT:??_C@_0CE@HNDAIPOH@cannot?5convert?5float?5NaN?5to?5inte@
  00063	48 8b 0d 00 00
	00 00		 mov	 rcx, QWORD PTR PyExc_ValueError
  0006a	e8 00 00 00 00	 call	 PyErr_SetString

; 327  :         return NULL;

  0006f	33 c0		 xor	 eax, eax
  00071	e9 3e 01 00 00	 jmp	 $LN9@PyLong_Fro@4
$LN7@PyLong_Fro@4:

; 328  :     }
; 329  :     if (dval < 0.0) {

  00076	66 0f 57 c0	 xorpd	 xmm0, xmm0
  0007a	66 0f 2f 44 24
	60		 comisd	 xmm0, QWORD PTR dval$[rsp]
  00080	76 1c		 jbe	 SHORT $LN6@PyLong_Fro@4

; 330  :         neg = 1;

  00082	c7 44 24 30 01
	00 00 00	 mov	 DWORD PTR neg$[rsp], 1

; 331  :         dval = -dval;

  0008a	f2 0f 10 44 24
	60		 movsdx	 xmm0, QWORD PTR dval$[rsp]
  00090	66 0f 57 05 00
	00 00 00	 xorpd	 xmm0, QWORD PTR __mask@@NegDouble@
  00098	f2 0f 11 44 24
	60		 movsdx	 QWORD PTR dval$[rsp], xmm0
$LN6@PyLong_Fro@4:

; 332  :     }
; 333  :     frac = frexp(dval, &expo); /* dval = frac*2**expo; 0.0 <= frac < 1.0 */

  0009e	48 8d 54 24 2c	 lea	 rdx, QWORD PTR expo$[rsp]
  000a3	f2 0f 10 44 24
	60		 movsdx	 xmm0, QWORD PTR dval$[rsp]
  000a9	ff 15 00 00 00
	00		 call	 QWORD PTR __imp_frexp
  000af	f2 0f 11 44 24
	38		 movsdx	 QWORD PTR frac$[rsp], xmm0

; 334  :     if (expo <= 0)

  000b5	83 7c 24 2c 00	 cmp	 DWORD PTR expo$[rsp], 0
  000ba	7f 0c		 jg	 SHORT $LN5@PyLong_Fro@4

; 335  :         return PyLong_FromLong(0L);

  000bc	33 c9		 xor	 ecx, ecx
  000be	e8 00 00 00 00	 call	 PyLong_FromLong
  000c3	e9 ec 00 00 00	 jmp	 $LN9@PyLong_Fro@4
$LN5@PyLong_Fro@4:

; 336  :     ndig = (expo-1) / PyLong_SHIFT + 1; /* Number of 'digits' in result */

  000c8	8b 44 24 2c	 mov	 eax, DWORD PTR expo$[rsp]
  000cc	ff c8		 dec	 eax
  000ce	99		 cdq
  000cf	b9 1e 00 00 00	 mov	 ecx, 30
  000d4	f7 f9		 idiv	 ecx
  000d6	ff c0		 inc	 eax
  000d8	89 44 24 40	 mov	 DWORD PTR ndig$[rsp], eax

; 337  :     v = _PyLong_New(ndig);

  000dc	48 63 44 24 40	 movsxd	 rax, DWORD PTR ndig$[rsp]
  000e1	48 8b c8	 mov	 rcx, rax
  000e4	e8 00 00 00 00	 call	 _PyLong_New
  000e9	48 89 44 24 20	 mov	 QWORD PTR v$[rsp], rax

; 338  :     if (v == NULL)

  000ee	48 83 7c 24 20
	00		 cmp	 QWORD PTR v$[rsp], 0
  000f4	75 07		 jne	 SHORT $LN4@PyLong_Fro@4

; 339  :         return NULL;

  000f6	33 c0		 xor	 eax, eax
  000f8	e9 b7 00 00 00	 jmp	 $LN9@PyLong_Fro@4
$LN4@PyLong_Fro@4:

; 340  :     frac = ldexp(frac, (expo-1) % PyLong_SHIFT + 1);

  000fd	8b 44 24 2c	 mov	 eax, DWORD PTR expo$[rsp]
  00101	ff c8		 dec	 eax
  00103	99		 cdq
  00104	b9 1e 00 00 00	 mov	 ecx, 30
  00109	f7 f9		 idiv	 ecx
  0010b	8b c2		 mov	 eax, edx
  0010d	ff c0		 inc	 eax
  0010f	8b d0		 mov	 edx, eax
  00111	f2 0f 10 44 24
	38		 movsdx	 xmm0, QWORD PTR frac$[rsp]
  00117	ff 15 00 00 00
	00		 call	 QWORD PTR __imp_ldexp
  0011d	f2 0f 11 44 24
	38		 movsdx	 QWORD PTR frac$[rsp], xmm0

; 341  :     for (i = ndig; --i >= 0; ) {

  00123	8b 44 24 40	 mov	 eax, DWORD PTR ndig$[rsp]
  00127	89 44 24 28	 mov	 DWORD PTR i$[rsp], eax
$LN3@PyLong_Fro@4:
  0012b	8b 44 24 28	 mov	 eax, DWORD PTR i$[rsp]
  0012f	ff c8		 dec	 eax
  00131	89 44 24 28	 mov	 DWORD PTR i$[rsp], eax
  00135	83 7c 24 28 00	 cmp	 DWORD PTR i$[rsp], 0
  0013a	7c 57		 jl	 SHORT $LN2@PyLong_Fro@4

; 342  :         digit bits = (digit)frac;

  0013c	f2 48 0f 2c 44
	24 38		 cvttsd2si rax, QWORD PTR frac$[rsp]
  00143	89 44 24 44	 mov	 DWORD PTR bits$20514[rsp], eax

; 343  :         v->ob_digit[i] = bits;

  00147	48 63 44 24 28	 movsxd	 rax, DWORD PTR i$[rsp]
  0014c	48 8b 4c 24 20	 mov	 rcx, QWORD PTR v$[rsp]
  00151	8b 54 24 44	 mov	 edx, DWORD PTR bits$20514[rsp]
  00155	89 54 81 70	 mov	 DWORD PTR [rcx+rax*4+112], edx

; 344  :         frac = frac - (double)bits;

  00159	8b 44 24 44	 mov	 eax, DWORD PTR bits$20514[rsp]
  0015d	66 0f ef c0	 pxor	 xmm0, xmm0
  00161	f2 48 0f 2a c0	 cvtsi2sd xmm0, rax
  00166	f2 0f 10 4c 24
	38		 movsdx	 xmm1, QWORD PTR frac$[rsp]
  0016c	f2 0f 5c c8	 subsd	 xmm1, xmm0
  00170	66 0f 28 c1	 movapd	 xmm0, xmm1
  00174	f2 0f 11 44 24
	38		 movsdx	 QWORD PTR frac$[rsp], xmm0

; 345  :         frac = ldexp(frac, PyLong_SHIFT);

  0017a	ba 1e 00 00 00	 mov	 edx, 30
  0017f	f2 0f 10 44 24
	38		 movsdx	 xmm0, QWORD PTR frac$[rsp]
  00185	ff 15 00 00 00
	00		 call	 QWORD PTR __imp_ldexp
  0018b	f2 0f 11 44 24
	38		 movsdx	 QWORD PTR frac$[rsp], xmm0

; 346  :     }

  00191	eb 98		 jmp	 SHORT $LN3@PyLong_Fro@4
$LN2@PyLong_Fro@4:

; 347  :     if (neg)

  00193	83 7c 24 30 00	 cmp	 DWORD PTR neg$[rsp], 0
  00198	74 15		 je	 SHORT $LN1@PyLong_Fro@4

; 348  :         Py_SIZE(v) = -(Py_SIZE(v));

  0019a	48 8b 44 24 20	 mov	 rax, QWORD PTR v$[rsp]
  0019f	48 8b 40 60	 mov	 rax, QWORD PTR [rax+96]
  001a3	48 f7 d8	 neg	 rax
  001a6	48 8b 4c 24 20	 mov	 rcx, QWORD PTR v$[rsp]
  001ab	48 89 41 60	 mov	 QWORD PTR [rcx+96], rax
$LN1@PyLong_Fro@4:

; 349  :     return (PyObject *)v;

  001af	48 8b 44 24 20	 mov	 rax, QWORD PTR v$[rsp]
$LN9@PyLong_Fro@4:

; 350  : }

  001b4	48 83 c4 58	 add	 rsp, 88			; 00000058H
  001b8	c3		 ret	 0
PyLong_FromDouble ENDP
_TEXT	ENDS
PUBLIC	??_C@_0BI@PEFAOAL@?4?4?2Objects?2longobject?4c?$AA@ ; `string'
PUBLIC	PyLong_AsLongAndOverflow
EXTRN	_PyErr_BadInternalCall:PROC
;	COMDAT pdata
pdata	SEGMENT
$pdata$PyLong_AsLongAndOverflow DD imagerel $LN22
	DD	imagerel $LN22+468
	DD	imagerel $unwind$PyLong_AsLongAndOverflow
pdata	ENDS
;	COMDAT xdata
xdata	SEGMENT
$unwind$PyLong_AsLongAndOverflow DD 010e01H
	DD	0a20eH
xdata	ENDS
;	COMDAT ??_C@_0BI@PEFAOAL@?4?4?2Objects?2longobject?4c?$AA@
CONST	SEGMENT
??_C@_0BI@PEFAOAL@?4?4?2Objects?2longobject?4c?$AA@ DB '..\Objects\longob'
	DB	'ject.c', 00H				; `string'
; Function compile flags: /Odtp
CONST	ENDS
;	COMDAT PyLong_AsLongAndOverflow
_TEXT	SEGMENT
res$ = 32
v$ = 40
do_decref$ = 48
x$ = 52
i$ = 56
prev$ = 64
sign$ = 68
tv75 = 72
vv$ = 96
overflow$ = 104
PyLong_AsLongAndOverflow PROC				; COMDAT

; 376  : {

$LN22:
  00000	48 89 54 24 10	 mov	 QWORD PTR [rsp+16], rdx
  00005	48 89 4c 24 08	 mov	 QWORD PTR [rsp+8], rcx
  0000a	48 83 ec 58	 sub	 rsp, 88			; 00000058H

; 377  :     /* This version by Tim Peters */
; 378  :     register PyLongObject *v;
; 379  :     unsigned long x, prev;
; 380  :     long res;
; 381  :     Py_ssize_t i;
; 382  :     int sign;
; 383  :     int do_decref = 0; /* if nb_int was called */

  0000e	c7 44 24 30 00
	00 00 00	 mov	 DWORD PTR do_decref$[rsp], 0

; 384  : 
; 385  :     *overflow = 0;

  00016	48 8b 44 24 68	 mov	 rax, QWORD PTR overflow$[rsp]
  0001b	c7 00 00 00 00
	00		 mov	 DWORD PTR [rax], 0

; 386  :     if (vv == NULL) {

  00021	48 83 7c 24 60
	00		 cmp	 QWORD PTR vv$[rsp], 0
  00027	75 1b		 jne	 SHORT $LN19@PyLong_AsL

; 387  :         PyErr_BadInternalCall();

  00029	ba 83 01 00 00	 mov	 edx, 387		; 00000183H
  0002e	48 8d 0d 00 00
	00 00		 lea	 rcx, OFFSET FLAT:??_C@_0BI@PEFAOAL@?4?4?2Objects?2longobject?4c?$AA@
  00035	e8 00 00 00 00	 call	 _PyErr_BadInternalCall

; 388  :         return -1;

  0003a	b8 ff ff ff ff	 mov	 eax, -1
  0003f	e9 8b 01 00 00	 jmp	 $LN20@PyLong_AsL
$LN19@PyLong_AsL:

; 389  :     }
; 390  : 
; 391  :     if (PyLong_Check(vv)) {

  00044	48 8b 44 24 60	 mov	 rax, QWORD PTR vv$[rsp]
  00049	48 8b 40 58	 mov	 rax, QWORD PTR [rax+88]
  0004d	8b 80 00 01 00
	00		 mov	 eax, DWORD PTR [rax+256]
  00053	25 00 00 00 01	 and	 eax, 16777216		; 01000000H
  00058	85 c0		 test	 eax, eax
  0005a	74 0c		 je	 SHORT $LN18@PyLong_AsL

; 392  :         v = (PyLongObject *)vv;

  0005c	48 8b 44 24 60	 mov	 rax, QWORD PTR vv$[rsp]
  00061	48 89 44 24 28	 mov	 QWORD PTR v$[rsp], rax

; 393  :     }
; 394  :     else {

  00066	eb 29		 jmp	 SHORT $LN17@PyLong_AsL
$LN18@PyLong_AsL:

; 395  :         v = _PyLong_FromNbInt(vv);

  00068	48 8b 4c 24 60	 mov	 rcx, QWORD PTR vv$[rsp]
  0006d	e8 00 00 00 00	 call	 _PyLong_FromNbInt
  00072	48 89 44 24 28	 mov	 QWORD PTR v$[rsp], rax

; 396  :         if (v == NULL)

  00077	48 83 7c 24 28
	00		 cmp	 QWORD PTR v$[rsp], 0
  0007d	75 0a		 jne	 SHORT $LN16@PyLong_AsL

; 397  :             return -1;

  0007f	b8 ff ff ff ff	 mov	 eax, -1
  00084	e9 46 01 00 00	 jmp	 $LN20@PyLong_AsL
$LN16@PyLong_AsL:

; 398  :         do_decref = 1;

  00089	c7 44 24 30 01
	00 00 00	 mov	 DWORD PTR do_decref$[rsp], 1
$LN17@PyLong_AsL:

; 399  :     }
; 400  : 
; 401  :     res = -1;

  00091	c7 44 24 20 ff
	ff ff ff	 mov	 DWORD PTR res$[rsp], -1

; 402  :     i = Py_SIZE(v);

  00099	48 8b 44 24 28	 mov	 rax, QWORD PTR v$[rsp]
  0009e	48 8b 40 60	 mov	 rax, QWORD PTR [rax+96]
  000a2	48 89 44 24 38	 mov	 QWORD PTR i$[rsp], rax

; 403  : 
; 404  :     switch (i) {

  000a7	48 8b 44 24 38	 mov	 rax, QWORD PTR i$[rsp]
  000ac	48 89 44 24 48	 mov	 QWORD PTR tv75[rsp], rax
  000b1	48 83 7c 24 48
	ff		 cmp	 QWORD PTR tv75[rsp], -1
  000b7	74 12		 je	 SHORT $LN13@PyLong_AsL
  000b9	48 83 7c 24 48
	00		 cmp	 QWORD PTR tv75[rsp], 0
  000bf	74 1d		 je	 SHORT $LN12@PyLong_AsL
  000c1	48 83 7c 24 48
	01		 cmp	 QWORD PTR tv75[rsp], 1
  000c7	74 22		 je	 SHORT $LN11@PyLong_AsL
  000c9	eb 31		 jmp	 SHORT $LN10@PyLong_AsL
$LN13@PyLong_AsL:

; 405  :     case -1:
; 406  :         res = -(sdigit)v->ob_digit[0];

  000cb	48 8b 44 24 28	 mov	 rax, QWORD PTR v$[rsp]
  000d0	8b 40 70	 mov	 eax, DWORD PTR [rax+112]
  000d3	f7 d8		 neg	 eax
  000d5	89 44 24 20	 mov	 DWORD PTR res$[rsp], eax

; 407  :         break;

  000d9	e9 dc 00 00 00	 jmp	 $LN14@PyLong_AsL
$LN12@PyLong_AsL:

; 408  :     case 0:
; 409  :         res = 0;

  000de	c7 44 24 20 00
	00 00 00	 mov	 DWORD PTR res$[rsp], 0

; 410  :         break;

  000e6	e9 cf 00 00 00	 jmp	 $LN14@PyLong_AsL
$LN11@PyLong_AsL:

; 411  :     case 1:
; 412  :         res = v->ob_digit[0];

  000eb	48 8b 44 24 28	 mov	 rax, QWORD PTR v$[rsp]
  000f0	8b 40 70	 mov	 eax, DWORD PTR [rax+112]
  000f3	89 44 24 20	 mov	 DWORD PTR res$[rsp], eax

; 413  :         break;

  000f7	e9 be 00 00 00	 jmp	 $LN14@PyLong_AsL
$LN10@PyLong_AsL:

; 414  :     default:
; 415  :         sign = 1;

  000fc	c7 44 24 44 01
	00 00 00	 mov	 DWORD PTR sign$[rsp], 1

; 416  :         x = 0;

  00104	c7 44 24 34 00
	00 00 00	 mov	 DWORD PTR x$[rsp], 0

; 417  :         if (i < 0) {

  0010c	48 83 7c 24 38
	00		 cmp	 QWORD PTR i$[rsp], 0
  00112	7d 15		 jge	 SHORT $LN9@PyLong_AsL

; 418  :             sign = -1;

  00114	c7 44 24 44 ff
	ff ff ff	 mov	 DWORD PTR sign$[rsp], -1

; 419  :             i = -(i);

  0011c	48 8b 44 24 38	 mov	 rax, QWORD PTR i$[rsp]
  00121	48 f7 d8	 neg	 rax
  00124	48 89 44 24 38	 mov	 QWORD PTR i$[rsp], rax
$LN9@PyLong_AsL:
$LN8@PyLong_AsL:

; 420  :         }
; 421  :         while (--i >= 0) {

  00129	48 8b 44 24 38	 mov	 rax, QWORD PTR i$[rsp]
  0012e	48 ff c8	 dec	 rax
  00131	48 89 44 24 38	 mov	 QWORD PTR i$[rsp], rax
  00136	48 83 7c 24 38
	00		 cmp	 QWORD PTR i$[rsp], 0
  0013c	7c 3d		 jl	 SHORT $LN7@PyLong_AsL

; 422  :             prev = x;

  0013e	8b 44 24 34	 mov	 eax, DWORD PTR x$[rsp]
  00142	89 44 24 40	 mov	 DWORD PTR prev$[rsp], eax

; 423  :             x = (x << PyLong_SHIFT) | v->ob_digit[i];

  00146	8b 44 24 34	 mov	 eax, DWORD PTR x$[rsp]
  0014a	c1 e0 1e	 shl	 eax, 30
  0014d	48 8b 4c 24 28	 mov	 rcx, QWORD PTR v$[rsp]
  00152	48 8b 54 24 38	 mov	 rdx, QWORD PTR i$[rsp]
  00157	0b 44 91 70	 or	 eax, DWORD PTR [rcx+rdx*4+112]
  0015b	89 44 24 34	 mov	 DWORD PTR x$[rsp], eax

; 424  :             if ((x >> PyLong_SHIFT) != prev) {

  0015f	8b 44 24 34	 mov	 eax, DWORD PTR x$[rsp]
  00163	c1 e8 1e	 shr	 eax, 30
  00166	3b 44 24 40	 cmp	 eax, DWORD PTR prev$[rsp]
  0016a	74 0d		 je	 SHORT $LN6@PyLong_AsL

; 425  :                 *overflow = sign;

  0016c	48 8b 44 24 68	 mov	 rax, QWORD PTR overflow$[rsp]
  00171	8b 4c 24 44	 mov	 ecx, DWORD PTR sign$[rsp]
  00175	89 08		 mov	 DWORD PTR [rax], ecx

; 426  :                 goto exit;

  00177	eb 41		 jmp	 SHORT $exit$20559
$LN6@PyLong_AsL:

; 427  :             }
; 428  :         }

  00179	eb ae		 jmp	 SHORT $LN8@PyLong_AsL
$LN7@PyLong_AsL:

; 429  :         /* Haven't lost any bits, but casting to long requires extra
; 430  :          * care (see comment above).
; 431  :          */
; 432  :         if (x <= (unsigned long)LONG_MAX) {

  0017b	81 7c 24 34 ff
	ff ff 7f	 cmp	 DWORD PTR x$[rsp], 2147483647 ; 7fffffffH
  00183	77 0f		 ja	 SHORT $LN5@PyLong_AsL

; 433  :             res = (long)x * sign;

  00185	8b 44 24 34	 mov	 eax, DWORD PTR x$[rsp]
  00189	0f af 44 24 44	 imul	 eax, DWORD PTR sign$[rsp]
  0018e	89 44 24 20	 mov	 DWORD PTR res$[rsp], eax
  00192	eb 26		 jmp	 SHORT $LN4@PyLong_AsL
$LN5@PyLong_AsL:

; 434  :         }
; 435  :         else if (sign < 0 && x == PY_ABS_LONG_MIN) {

  00194	83 7c 24 44 00	 cmp	 DWORD PTR sign$[rsp], 0
  00199	7d 14		 jge	 SHORT $LN3@PyLong_AsL
  0019b	81 7c 24 34 00
	00 00 80	 cmp	 DWORD PTR x$[rsp], -2147483648 ; 80000000H
  001a3	75 0a		 jne	 SHORT $LN3@PyLong_AsL

; 436  :             res = LONG_MIN;

  001a5	c7 44 24 20 00
	00 00 80	 mov	 DWORD PTR res$[rsp], -2147483648 ; ffffffff80000000H

; 437  :         }
; 438  :         else {

  001ad	eb 0b		 jmp	 SHORT $LN2@PyLong_AsL
$LN3@PyLong_AsL:

; 439  :             *overflow = sign;

  001af	48 8b 44 24 68	 mov	 rax, QWORD PTR overflow$[rsp]
  001b4	8b 4c 24 44	 mov	 ecx, DWORD PTR sign$[rsp]
  001b8	89 08		 mov	 DWORD PTR [rax], ecx
$LN2@PyLong_AsL:
$LN4@PyLong_AsL:
$LN14@PyLong_AsL:
$exit$20559:

; 440  :             /* res is already set to -1 */
; 441  :         }
; 442  :     }
; 443  :   exit:
; 444  :     if (do_decref) {

  001ba	83 7c 24 30 00	 cmp	 DWORD PTR do_decref$[rsp], 0
  001bf	74 0a		 je	 SHORT $LN1@PyLong_AsL

; 445  :         Py_DECREF(v);

  001c1	48 8b 4c 24 28	 mov	 rcx, QWORD PTR v$[rsp]
  001c6	e8 00 00 00 00	 call	 _Py_DecRef
$LN1@PyLong_AsL:

; 446  :     }
; 447  :     return res;

  001cb	8b 44 24 20	 mov	 eax, DWORD PTR res$[rsp]
$LN20@PyLong_AsL:

; 448  : }

  001cf	48 83 c4 58	 add	 rsp, 88			; 00000058H
  001d3	c3		 ret	 0
PyLong_AsLongAndOverflow ENDP
_TEXT	ENDS
PUBLIC	??_C@_0CK@CMJMJMG@Python?5int?5too?5large?5to?5convert?5@ ; `string'
PUBLIC	PyLong_AsLong
;	COMDAT pdata
pdata	SEGMENT
$pdata$PyLong_AsLong DD imagerel $LN4
	DD	imagerel $LN4+63
	DD	imagerel $unwind$PyLong_AsLong
pdata	ENDS
;	COMDAT xdata
xdata	SEGMENT
$unwind$PyLong_AsLong DD 010901H
	DD	06209H
xdata	ENDS
;	COMDAT ??_C@_0CK@CMJMJMG@Python?5int?5too?5large?5to?5convert?5@
CONST	SEGMENT
??_C@_0CK@CMJMJMG@Python?5int?5too?5large?5to?5convert?5@ DB 'Python int '
	DB	'too large to convert to C long', 00H	; `string'
; Function compile flags: /Odtp
CONST	ENDS
;	COMDAT PyLong_AsLong
_TEXT	SEGMENT
overflow$ = 32
result$ = 36
obj$ = 64
PyLong_AsLong PROC					; COMDAT

; 455  : {

$LN4:
  00000	48 89 4c 24 08	 mov	 QWORD PTR [rsp+8], rcx
  00005	48 83 ec 38	 sub	 rsp, 56			; 00000038H

; 456  :     int overflow;
; 457  :     long result = PyLong_AsLongAndOverflow(obj, &overflow);

  00009	48 8d 54 24 20	 lea	 rdx, QWORD PTR overflow$[rsp]
  0000e	48 8b 4c 24 40	 mov	 rcx, QWORD PTR obj$[rsp]
  00013	e8 00 00 00 00	 call	 PyLong_AsLongAndOverflow
  00018	89 44 24 24	 mov	 DWORD PTR result$[rsp], eax

; 458  :     if (overflow) {

  0001c	83 7c 24 20 00	 cmp	 DWORD PTR overflow$[rsp], 0
  00021	74 13		 je	 SHORT $LN1@PyLong_AsL@2

; 459  :         /* XXX: could be cute and give a different
; 460  :            message for overflow == -1 */
; 461  :         PyErr_SetString(PyExc_OverflowError,
; 462  :                         "Python int too large to convert to C long");

  00023	48 8d 15 00 00
	00 00		 lea	 rdx, OFFSET FLAT:??_C@_0CK@CMJMJMG@Python?5int?5too?5large?5to?5convert?5@
  0002a	48 8b 0d 00 00
	00 00		 mov	 rcx, QWORD PTR PyExc_OverflowError
  00031	e8 00 00 00 00	 call	 PyErr_SetString
$LN1@PyLong_AsL@2:

; 463  :     }
; 464  :     return result;

  00036	8b 44 24 24	 mov	 eax, DWORD PTR result$[rsp]

; 465  : }

  0003a	48 83 c4 38	 add	 rsp, 56			; 00000038H
  0003e	c3		 ret	 0
PyLong_AsLong ENDP
_TEXT	ENDS
PUBLIC	??_C@_0CJ@PBLNFIOG@Python?5int?5too?5large?5to?5convert?5@ ; `string'
PUBLIC	_PyLong_AsInt
;	COMDAT pdata
pdata	SEGMENT
$pdata$_PyLong_AsInt DD imagerel $LN5
	DD	imagerel $LN5+90
	DD	imagerel $unwind$_PyLong_AsInt
pdata	ENDS
;	COMDAT xdata
xdata	SEGMENT
$unwind$_PyLong_AsInt DD 010901H
	DD	06209H
xdata	ENDS
;	COMDAT ??_C@_0CJ@PBLNFIOG@Python?5int?5too?5large?5to?5convert?5@
CONST	SEGMENT
??_C@_0CJ@PBLNFIOG@Python?5int?5too?5large?5to?5convert?5@ DB 'Python int'
	DB	' too large to convert to C int', 00H	; `string'
; Function compile flags: /Odtp
CONST	ENDS
;	COMDAT _PyLong_AsInt
_TEXT	SEGMENT
overflow$ = 32
result$ = 36
obj$ = 64
_PyLong_AsInt PROC					; COMDAT

; 472  : {

$LN5:
  00000	48 89 4c 24 08	 mov	 QWORD PTR [rsp+8], rcx
  00005	48 83 ec 38	 sub	 rsp, 56			; 00000038H

; 473  :     int overflow;
; 474  :     long result = PyLong_AsLongAndOverflow(obj, &overflow);

  00009	48 8d 54 24 20	 lea	 rdx, QWORD PTR overflow$[rsp]
  0000e	48 8b 4c 24 40	 mov	 rcx, QWORD PTR obj$[rsp]
  00013	e8 00 00 00 00	 call	 PyLong_AsLongAndOverflow
  00018	89 44 24 24	 mov	 DWORD PTR result$[rsp], eax

; 475  :     if (overflow || result > INT_MAX || result < INT_MIN) {

  0001c	83 7c 24 20 00	 cmp	 DWORD PTR overflow$[rsp], 0
  00021	75 14		 jne	 SHORT $LN1@PyLong_AsI
  00023	81 7c 24 24 ff
	ff ff 7f	 cmp	 DWORD PTR result$[rsp], 2147483647 ; 7fffffffH
  0002b	7f 0a		 jg	 SHORT $LN1@PyLong_AsI
  0002d	81 7c 24 24 00
	00 00 80	 cmp	 DWORD PTR result$[rsp], -2147483648 ; ffffffff80000000H
  00035	7d 1a		 jge	 SHORT $LN2@PyLong_AsI
$LN1@PyLong_AsI:

; 476  :         /* XXX: could be cute and give a different
; 477  :            message for overflow == -1 */
; 478  :         PyErr_SetString(PyExc_OverflowError,
; 479  :                         "Python int too large to convert to C int");

  00037	48 8d 15 00 00
	00 00		 lea	 rdx, OFFSET FLAT:??_C@_0CJ@PBLNFIOG@Python?5int?5too?5large?5to?5convert?5@
  0003e	48 8b 0d 00 00
	00 00		 mov	 rcx, QWORD PTR PyExc_OverflowError
  00045	e8 00 00 00 00	 call	 PyErr_SetString

; 480  :         return -1;

  0004a	b8 ff ff ff ff	 mov	 eax, -1
  0004f	eb 04		 jmp	 SHORT $LN3@PyLong_AsI
$LN2@PyLong_AsI:

; 481  :     }
; 482  :     return (int)result;

  00051	8b 44 24 24	 mov	 eax, DWORD PTR result$[rsp]
$LN3@PyLong_AsI:

; 483  : }

  00055	48 83 c4 38	 add	 rsp, 56			; 00000038H
  00059	c3		 ret	 0
_PyLong_AsInt ENDP
_TEXT	ENDS
PUBLIC	??_C@_0CN@MNHJJIBL@Python?5int?5too?5large?5to?5convert?5@ ; `string'
PUBLIC	??_C@_0BH@LPEFKOAK@an?5integer?5is?5required?$AA@ ; `string'
PUBLIC	PyLong_AsSsize_t
;	COMDAT pdata
pdata	SEGMENT
$pdata$PyLong_AsSsize_t DD imagerel $LN17
	DD	imagerel $LN17+431
	DD	imagerel $unwind$PyLong_AsSsize_t
pdata	ENDS
;	COMDAT xdata
xdata	SEGMENT
$unwind$PyLong_AsSsize_t DD 010901H
	DD	0a209H
xdata	ENDS
;	COMDAT ??_C@_0CN@MNHJJIBL@Python?5int?5too?5large?5to?5convert?5@
CONST	SEGMENT
??_C@_0CN@MNHJJIBL@Python?5int?5too?5large?5to?5convert?5@ DB 'Python int'
	DB	' too large to convert to C ssize_t', 00H	; `string'
CONST	ENDS
;	COMDAT ??_C@_0BH@LPEFKOAK@an?5integer?5is?5required?$AA@
CONST	SEGMENT
??_C@_0BH@LPEFKOAK@an?5integer?5is?5required?$AA@ DB 'an integer is requi'
	DB	'red', 00H					; `string'
; Function compile flags: /Odtp
CONST	ENDS
;	COMDAT PyLong_AsSsize_t
_TEXT	SEGMENT
v$ = 32
x$ = 40
i$ = 48
prev$ = 56
sign$ = 64
tv74 = 72
vv$ = 96
PyLong_AsSsize_t PROC					; COMDAT

; 489  : PyLong_AsSsize_t(PyObject *vv) {

$LN17:
  00000	48 89 4c 24 08	 mov	 QWORD PTR [rsp+8], rcx
  00005	48 83 ec 58	 sub	 rsp, 88			; 00000058H

; 490  :     register PyLongObject *v;
; 491  :     size_t x, prev;
; 492  :     Py_ssize_t i;
; 493  :     int sign;
; 494  : 
; 495  :     if (vv == NULL) {

  00009	48 83 7c 24 60
	00		 cmp	 QWORD PTR vv$[rsp], 0
  0000f	75 1d		 jne	 SHORT $LN14@PyLong_AsS

; 496  :         PyErr_BadInternalCall();

  00011	ba f0 01 00 00	 mov	 edx, 496		; 000001f0H
  00016	48 8d 0d 00 00
	00 00		 lea	 rcx, OFFSET FLAT:??_C@_0BI@PEFAOAL@?4?4?2Objects?2longobject?4c?$AA@
  0001d	e8 00 00 00 00	 call	 _PyErr_BadInternalCall

; 497  :         return -1;

  00022	48 c7 c0 ff ff
	ff ff		 mov	 rax, -1
  00029	e9 7c 01 00 00	 jmp	 $LN15@PyLong_AsS
$LN14@PyLong_AsS:

; 498  :     }
; 499  :     if (!PyLong_Check(vv)) {

  0002e	48 8b 44 24 60	 mov	 rax, QWORD PTR vv$[rsp]
  00033	48 8b 40 58	 mov	 rax, QWORD PTR [rax+88]
  00037	8b 80 00 01 00
	00		 mov	 eax, DWORD PTR [rax+256]
  0003d	25 00 00 00 01	 and	 eax, 16777216		; 01000000H
  00042	85 c0		 test	 eax, eax
  00044	75 1f		 jne	 SHORT $LN13@PyLong_AsS

; 500  :         PyErr_SetString(PyExc_TypeError, "an integer is required");

  00046	48 8d 15 00 00
	00 00		 lea	 rdx, OFFSET FLAT:??_C@_0BH@LPEFKOAK@an?5integer?5is?5required?$AA@
  0004d	48 8b 0d 00 00
	00 00		 mov	 rcx, QWORD PTR PyExc_TypeError
  00054	e8 00 00 00 00	 call	 PyErr_SetString

; 501  :         return -1;

  00059	48 c7 c0 ff ff
	ff ff		 mov	 rax, -1
  00060	e9 45 01 00 00	 jmp	 $LN15@PyLong_AsS
$LN13@PyLong_AsS:

; 502  :     }
; 503  : 
; 504  :     v = (PyLongObject *)vv;

  00065	48 8b 44 24 60	 mov	 rax, QWORD PTR vv$[rsp]
  0006a	48 89 44 24 20	 mov	 QWORD PTR v$[rsp], rax

; 505  :     i = Py_SIZE(v);

  0006f	48 8b 44 24 20	 mov	 rax, QWORD PTR v$[rsp]
  00074	48 8b 40 60	 mov	 rax, QWORD PTR [rax+96]
  00078	48 89 44 24 30	 mov	 QWORD PTR i$[rsp], rax

; 506  :     switch (i) {

  0007d	48 8b 44 24 30	 mov	 rax, QWORD PTR i$[rsp]
  00082	48 89 44 24 48	 mov	 QWORD PTR tv74[rsp], rax
  00087	48 83 7c 24 48
	ff		 cmp	 QWORD PTR tv74[rsp], -1
  0008d	74 12		 je	 SHORT $LN10@PyLong_AsS
  0008f	48 83 7c 24 48
	00		 cmp	 QWORD PTR tv74[rsp], 0
  00095	74 1b		 je	 SHORT $LN9@PyLong_AsS
  00097	48 83 7c 24 48
	01		 cmp	 QWORD PTR tv74[rsp], 1
  0009d	74 1a		 je	 SHORT $LN8@PyLong_AsS
  0009f	eb 25		 jmp	 SHORT $LN11@PyLong_AsS
$LN10@PyLong_AsS:

; 507  :     case -1: return -(sdigit)v->ob_digit[0];

  000a1	48 8b 44 24 20	 mov	 rax, QWORD PTR v$[rsp]
  000a6	8b 40 70	 mov	 eax, DWORD PTR [rax+112]
  000a9	f7 d8		 neg	 eax
  000ab	48 98		 cdqe
  000ad	e9 f8 00 00 00	 jmp	 $LN15@PyLong_AsS
$LN9@PyLong_AsS:

; 508  :     case 0: return 0;

  000b2	33 c0		 xor	 eax, eax
  000b4	e9 f1 00 00 00	 jmp	 $LN15@PyLong_AsS
$LN8@PyLong_AsS:

; 509  :     case 1: return v->ob_digit[0];

  000b9	48 8b 44 24 20	 mov	 rax, QWORD PTR v$[rsp]
  000be	8b 40 70	 mov	 eax, DWORD PTR [rax+112]
  000c1	e9 e4 00 00 00	 jmp	 $LN15@PyLong_AsS
$LN11@PyLong_AsS:

; 510  :     }
; 511  :     sign = 1;

  000c6	c7 44 24 40 01
	00 00 00	 mov	 DWORD PTR sign$[rsp], 1

; 512  :     x = 0;

  000ce	48 c7 44 24 28
	00 00 00 00	 mov	 QWORD PTR x$[rsp], 0

; 513  :     if (i < 0) {

  000d7	48 83 7c 24 30
	00		 cmp	 QWORD PTR i$[rsp], 0
  000dd	7d 15		 jge	 SHORT $LN7@PyLong_AsS

; 514  :         sign = -1;

  000df	c7 44 24 40 ff
	ff ff ff	 mov	 DWORD PTR sign$[rsp], -1

; 515  :         i = -(i);

  000e7	48 8b 44 24 30	 mov	 rax, QWORD PTR i$[rsp]
  000ec	48 f7 d8	 neg	 rax
  000ef	48 89 44 24 30	 mov	 QWORD PTR i$[rsp], rax
$LN7@PyLong_AsS:
$LN6@PyLong_AsS:

; 516  :     }
; 517  :     while (--i >= 0) {

  000f4	48 8b 44 24 30	 mov	 rax, QWORD PTR i$[rsp]
  000f9	48 ff c8	 dec	 rax
  000fc	48 89 44 24 30	 mov	 QWORD PTR i$[rsp], rax
  00101	48 83 7c 24 30
	00		 cmp	 QWORD PTR i$[rsp], 0
  00107	7c 3d		 jl	 SHORT $LN5@PyLong_AsS

; 518  :         prev = x;

  00109	48 8b 44 24 28	 mov	 rax, QWORD PTR x$[rsp]
  0010e	48 89 44 24 38	 mov	 QWORD PTR prev$[rsp], rax

; 519  :         x = (x << PyLong_SHIFT) | v->ob_digit[i];

  00113	48 8b 44 24 28	 mov	 rax, QWORD PTR x$[rsp]
  00118	48 c1 e0 1e	 shl	 rax, 30
  0011c	48 8b 4c 24 20	 mov	 rcx, QWORD PTR v$[rsp]
  00121	48 8b 54 24 30	 mov	 rdx, QWORD PTR i$[rsp]
  00126	8b 4c 91 70	 mov	 ecx, DWORD PTR [rcx+rdx*4+112]
  0012a	48 0b c1	 or	 rax, rcx
  0012d	48 89 44 24 28	 mov	 QWORD PTR x$[rsp], rax

; 520  :         if ((x >> PyLong_SHIFT) != prev)

  00132	48 8b 44 24 28	 mov	 rax, QWORD PTR x$[rsp]
  00137	48 c1 e8 1e	 shr	 rax, 30
  0013b	48 3b 44 24 38	 cmp	 rax, QWORD PTR prev$[rsp]
  00140	74 02		 je	 SHORT $LN4@PyLong_AsS

; 521  :             goto overflow;

  00142	eb 4c		 jmp	 SHORT $overflow$20613
$LN4@PyLong_AsS:

; 522  :     }

  00144	eb ae		 jmp	 SHORT $LN6@PyLong_AsS
$LN5@PyLong_AsS:

; 523  :     /* Haven't lost any bits, but casting to a signed type requires
; 524  :      * extra care (see comment above).
; 525  :      */
; 526  :     if (x <= (size_t)PY_SSIZE_T_MAX) {

  00146	48 b8 ff ff ff
	ff ff ff ff 7f	 mov	 rax, 9223372036854775807 ; 7fffffffffffffffH
  00150	48 39 44 24 28	 cmp	 QWORD PTR x$[rsp], rax
  00155	77 15		 ja	 SHORT $LN3@PyLong_AsS

; 527  :         return (Py_ssize_t)x * sign;

  00157	48 63 44 24 40	 movsxd	 rax, DWORD PTR sign$[rsp]
  0015c	48 8b 4c 24 28	 mov	 rcx, QWORD PTR x$[rsp]
  00161	48 0f af c8	 imul	 rcx, rax
  00165	48 8b c1	 mov	 rax, rcx
  00168	eb 40		 jmp	 SHORT $LN15@PyLong_AsS
  0016a	eb 24		 jmp	 SHORT $LN2@PyLong_AsS
$LN3@PyLong_AsS:

; 528  :     }
; 529  :     else if (sign < 0 && x == PY_ABS_SSIZE_T_MIN) {

  0016c	83 7c 24 40 00	 cmp	 DWORD PTR sign$[rsp], 0
  00171	7d 1d		 jge	 SHORT $LN1@PyLong_AsS
  00173	48 b8 00 00 00
	00 00 00 00 80	 mov	 rax, -9223372036854775808 ; 8000000000000000H
  0017d	48 39 44 24 28	 cmp	 QWORD PTR x$[rsp], rax
  00182	75 0c		 jne	 SHORT $LN1@PyLong_AsS

; 530  :         return PY_SSIZE_T_MIN;

  00184	48 b8 00 00 00
	00 00 00 00 80	 mov	 rax, -9223372036854775808 ; 8000000000000000H
  0018e	eb 1a		 jmp	 SHORT $LN15@PyLong_AsS
$LN1@PyLong_AsS:
$LN2@PyLong_AsS:
$overflow$20613:

; 531  :     }
; 532  :     /* else overflow */
; 533  : 
; 534  :   overflow:
; 535  :     PyErr_SetString(PyExc_OverflowError,
; 536  :                     "Python int too large to convert to C ssize_t");

  00190	48 8d 15 00 00
	00 00		 lea	 rdx, OFFSET FLAT:??_C@_0CN@MNHJJIBL@Python?5int?5too?5large?5to?5convert?5@
  00197	48 8b 0d 00 00
	00 00		 mov	 rcx, QWORD PTR PyExc_OverflowError
  0019e	e8 00 00 00 00	 call	 PyErr_SetString

; 537  :     return -1;

  001a3	48 c7 c0 ff ff
	ff ff		 mov	 rax, -1
$LN15@PyLong_AsS:

; 538  : }

  001aa	48 83 c4 58	 add	 rsp, 88			; 00000058H
  001ae	c3		 ret	 0
PyLong_AsSsize_t ENDP
_TEXT	ENDS
PUBLIC	??_C@_0DD@FEJEGDLF@python?5int?5too?5large?5to?5convert?5@ ; `string'
PUBLIC	??_C@_0CN@MPCGIGO@can?8t?5convert?5negative?5value?5to?5@ ; `string'
PUBLIC	PyLong_AsUnsignedLong
;	COMDAT pdata
pdata	SEGMENT
$pdata$PyLong_AsUnsignedLong DD imagerel $LN13
	DD	imagerel $LN13+312
	DD	imagerel $unwind$PyLong_AsUnsignedLong
pdata	ENDS
;	COMDAT xdata
xdata	SEGMENT
$unwind$PyLong_AsUnsignedLong DD 010901H
	DD	0a209H
xdata	ENDS
;	COMDAT ??_C@_0DD@FEJEGDLF@python?5int?5too?5large?5to?5convert?5@
CONST	SEGMENT
??_C@_0DD@FEJEGDLF@python?5int?5too?5large?5to?5convert?5@ DB 'python int'
	DB	' too large to convert to C unsigned long', 00H ; `string'
CONST	ENDS
;	COMDAT ??_C@_0CN@MPCGIGO@can?8t?5convert?5negative?5value?5to?5@
CONST	SEGMENT
??_C@_0CN@MPCGIGO@can?8t?5convert?5negative?5value?5to?5@ DB 'can''t conv'
	DB	'ert negative value to unsigned int', 00H	; `string'
; Function compile flags: /Odtp
CONST	ENDS
;	COMDAT PyLong_AsUnsignedLong
_TEXT	SEGMENT
v$ = 32
x$ = 40
i$ = 48
prev$ = 56
tv77 = 64
vv$ = 96
PyLong_AsUnsignedLong PROC				; COMDAT

; 545  : {

$LN13:
  00000	48 89 4c 24 08	 mov	 QWORD PTR [rsp+8], rcx
  00005	48 83 ec 58	 sub	 rsp, 88			; 00000058H

; 546  :     register PyLongObject *v;
; 547  :     unsigned long x, prev;
; 548  :     Py_ssize_t i;
; 549  : 
; 550  :     if (vv == NULL) {

  00009	48 83 7c 24 60
	00		 cmp	 QWORD PTR vv$[rsp], 0
  0000f	75 1b		 jne	 SHORT $LN10@PyLong_AsU

; 551  :         PyErr_BadInternalCall();

  00011	ba 27 02 00 00	 mov	 edx, 551		; 00000227H
  00016	48 8d 0d 00 00
	00 00		 lea	 rcx, OFFSET FLAT:??_C@_0BI@PEFAOAL@?4?4?2Objects?2longobject?4c?$AA@
  0001d	e8 00 00 00 00	 call	 _PyErr_BadInternalCall

; 552  :         return (unsigned long)-1;

  00022	b8 ff ff ff ff	 mov	 eax, -1			; ffffffffH
  00027	e9 07 01 00 00	 jmp	 $LN11@PyLong_AsU
$LN10@PyLong_AsU:

; 553  :     }
; 554  :     if (!PyLong_Check(vv)) {

  0002c	48 8b 44 24 60	 mov	 rax, QWORD PTR vv$[rsp]
  00031	48 8b 40 58	 mov	 rax, QWORD PTR [rax+88]
  00035	8b 80 00 01 00
	00		 mov	 eax, DWORD PTR [rax+256]
  0003b	25 00 00 00 01	 and	 eax, 16777216		; 01000000H
  00040	85 c0		 test	 eax, eax
  00042	75 1d		 jne	 SHORT $LN9@PyLong_AsU

; 555  :         PyErr_SetString(PyExc_TypeError, "an integer is required");

  00044	48 8d 15 00 00
	00 00		 lea	 rdx, OFFSET FLAT:??_C@_0BH@LPEFKOAK@an?5integer?5is?5required?$AA@
  0004b	48 8b 0d 00 00
	00 00		 mov	 rcx, QWORD PTR PyExc_TypeError
  00052	e8 00 00 00 00	 call	 PyErr_SetString

; 556  :         return (unsigned long)-1;

  00057	b8 ff ff ff ff	 mov	 eax, -1			; ffffffffH
  0005c	e9 d2 00 00 00	 jmp	 $LN11@PyLong_AsU
$LN9@PyLong_AsU:

; 557  :     }
; 558  : 
; 559  :     v = (PyLongObject *)vv;

  00061	48 8b 44 24 60	 mov	 rax, QWORD PTR vv$[rsp]
  00066	48 89 44 24 20	 mov	 QWORD PTR v$[rsp], rax

; 560  :     i = Py_SIZE(v);

  0006b	48 8b 44 24 20	 mov	 rax, QWORD PTR v$[rsp]
  00070	48 8b 40 60	 mov	 rax, QWORD PTR [rax+96]
  00074	48 89 44 24 30	 mov	 QWORD PTR i$[rsp], rax

; 561  :     x = 0;

  00079	c7 44 24 28 00
	00 00 00	 mov	 DWORD PTR x$[rsp], 0

; 562  :     if (i < 0) {

  00081	48 83 7c 24 30
	00		 cmp	 QWORD PTR i$[rsp], 0
  00087	7d 1d		 jge	 SHORT $LN8@PyLong_AsU

; 563  :         PyErr_SetString(PyExc_OverflowError,
; 564  :                         "can't convert negative value to unsigned int");

  00089	48 8d 15 00 00
	00 00		 lea	 rdx, OFFSET FLAT:??_C@_0CN@MPCGIGO@can?8t?5convert?5negative?5value?5to?5@
  00090	48 8b 0d 00 00
	00 00		 mov	 rcx, QWORD PTR PyExc_OverflowError
  00097	e8 00 00 00 00	 call	 PyErr_SetString

; 565  :         return (unsigned long) -1;

  0009c	b8 ff ff ff ff	 mov	 eax, -1			; ffffffffH
  000a1	e9 8d 00 00 00	 jmp	 $LN11@PyLong_AsU
$LN8@PyLong_AsU:

; 566  :     }
; 567  :     switch (i) {

  000a6	48 8b 44 24 30	 mov	 rax, QWORD PTR i$[rsp]
  000ab	48 89 44 24 40	 mov	 QWORD PTR tv77[rsp], rax
  000b0	48 83 7c 24 40
	00		 cmp	 QWORD PTR tv77[rsp], 0
  000b6	74 0a		 je	 SHORT $LN5@PyLong_AsU
  000b8	48 83 7c 24 40
	01		 cmp	 QWORD PTR tv77[rsp], 1
  000be	74 06		 je	 SHORT $LN4@PyLong_AsU
  000c0	eb 0e		 jmp	 SHORT $LN6@PyLong_AsU
$LN5@PyLong_AsU:

; 568  :     case 0: return 0;

  000c2	33 c0		 xor	 eax, eax
  000c4	eb 6d		 jmp	 SHORT $LN11@PyLong_AsU
$LN4@PyLong_AsU:

; 569  :     case 1: return v->ob_digit[0];

  000c6	48 8b 44 24 20	 mov	 rax, QWORD PTR v$[rsp]
  000cb	8b 40 70	 mov	 eax, DWORD PTR [rax+112]
  000ce	eb 63		 jmp	 SHORT $LN11@PyLong_AsU
$LN6@PyLong_AsU:
$LN3@PyLong_AsU:

; 570  :     }
; 571  :     while (--i >= 0) {

  000d0	48 8b 44 24 30	 mov	 rax, QWORD PTR i$[rsp]
  000d5	48 ff c8	 dec	 rax
  000d8	48 89 44 24 30	 mov	 QWORD PTR i$[rsp], rax
  000dd	48 83 7c 24 30
	00		 cmp	 QWORD PTR i$[rsp], 0
  000e3	7c 4a		 jl	 SHORT $LN2@PyLong_AsU

; 572  :         prev = x;

  000e5	8b 44 24 28	 mov	 eax, DWORD PTR x$[rsp]
  000e9	89 44 24 38	 mov	 DWORD PTR prev$[rsp], eax

; 573  :         x = (x << PyLong_SHIFT) | v->ob_digit[i];

  000ed	8b 44 24 28	 mov	 eax, DWORD PTR x$[rsp]
  000f1	c1 e0 1e	 shl	 eax, 30
  000f4	48 8b 4c 24 20	 mov	 rcx, QWORD PTR v$[rsp]
  000f9	48 8b 54 24 30	 mov	 rdx, QWORD PTR i$[rsp]
  000fe	0b 44 91 70	 or	 eax, DWORD PTR [rcx+rdx*4+112]
  00102	89 44 24 28	 mov	 DWORD PTR x$[rsp], eax

; 574  :         if ((x >> PyLong_SHIFT) != prev) {

  00106	8b 44 24 28	 mov	 eax, DWORD PTR x$[rsp]
  0010a	c1 e8 1e	 shr	 eax, 30
  0010d	3b 44 24 38	 cmp	 eax, DWORD PTR prev$[rsp]
  00111	74 1a		 je	 SHORT $LN1@PyLong_AsU

; 575  :             PyErr_SetString(PyExc_OverflowError,
; 576  :                             "python int too large to convert "
; 577  :                             "to C unsigned long");

  00113	48 8d 15 00 00
	00 00		 lea	 rdx, OFFSET FLAT:??_C@_0DD@FEJEGDLF@python?5int?5too?5large?5to?5convert?5@
  0011a	48 8b 0d 00 00
	00 00		 mov	 rcx, QWORD PTR PyExc_OverflowError
  00121	e8 00 00 00 00	 call	 PyErr_SetString

; 578  :             return (unsigned long) -1;

  00126	b8 ff ff ff ff	 mov	 eax, -1			; ffffffffH
  0012b	eb 06		 jmp	 SHORT $LN11@PyLong_AsU
$LN1@PyLong_AsU:

; 579  :         }
; 580  :     }

  0012d	eb a1		 jmp	 SHORT $LN3@PyLong_AsU
$LN2@PyLong_AsU:

; 581  :     return x;

  0012f	8b 44 24 28	 mov	 eax, DWORD PTR x$[rsp]
$LN11@PyLong_AsU:

; 582  : }

  00133	48 83 c4 58	 add	 rsp, 88			; 00000058H
  00137	c3		 ret	 0
PyLong_AsUnsignedLong ENDP
_TEXT	ENDS
PUBLIC	??_C@_0CM@CLANCLJJ@Python?5int?5too?5large?5to?5convert?5@ ; `string'
PUBLIC	??_C@_0CH@MBHBMDDI@can?8t?5convert?5negative?5value?5to?5@ ; `string'
PUBLIC	PyLong_AsSize_t
;	COMDAT pdata
pdata	SEGMENT
$pdata$PyLong_AsSize_t DD imagerel $LN13
	DD	imagerel $LN13+333
	DD	imagerel $unwind$PyLong_AsSize_t
pdata	ENDS
;	COMDAT xdata
xdata	SEGMENT
$unwind$PyLong_AsSize_t DD 010901H
	DD	0a209H
xdata	ENDS
;	COMDAT ??_C@_0CM@CLANCLJJ@Python?5int?5too?5large?5to?5convert?5@
CONST	SEGMENT
??_C@_0CM@CLANCLJJ@Python?5int?5too?5large?5to?5convert?5@ DB 'Python int'
	DB	' too large to convert to C size_t', 00H	; `string'
CONST	ENDS
;	COMDAT ??_C@_0CH@MBHBMDDI@can?8t?5convert?5negative?5value?5to?5@
CONST	SEGMENT
??_C@_0CH@MBHBMDDI@can?8t?5convert?5negative?5value?5to?5@ DB 'can''t con'
	DB	'vert negative value to size_t', 00H		; `string'
; Function compile flags: /Odtp
CONST	ENDS
;	COMDAT PyLong_AsSize_t
_TEXT	SEGMENT
v$ = 32
x$ = 40
i$ = 48
prev$ = 56
tv77 = 64
vv$ = 96
PyLong_AsSize_t PROC					; COMDAT

; 589  : {

$LN13:
  00000	48 89 4c 24 08	 mov	 QWORD PTR [rsp+8], rcx
  00005	48 83 ec 58	 sub	 rsp, 88			; 00000058H

; 590  :     register PyLongObject *v;
; 591  :     size_t x, prev;
; 592  :     Py_ssize_t i;
; 593  : 
; 594  :     if (vv == NULL) {

  00009	48 83 7c 24 60
	00		 cmp	 QWORD PTR vv$[rsp], 0
  0000f	75 1d		 jne	 SHORT $LN10@PyLong_AsS@2

; 595  :         PyErr_BadInternalCall();

  00011	ba 53 02 00 00	 mov	 edx, 595		; 00000253H
  00016	48 8d 0d 00 00
	00 00		 lea	 rcx, OFFSET FLAT:??_C@_0BI@PEFAOAL@?4?4?2Objects?2longobject?4c?$AA@
  0001d	e8 00 00 00 00	 call	 _PyErr_BadInternalCall

; 596  :         return (size_t) -1;

  00022	48 c7 c0 ff ff
	ff ff		 mov	 rax, -1
  00029	e9 1a 01 00 00	 jmp	 $LN11@PyLong_AsS@2
$LN10@PyLong_AsS@2:

; 597  :     }
; 598  :     if (!PyLong_Check(vv)) {

  0002e	48 8b 44 24 60	 mov	 rax, QWORD PTR vv$[rsp]
  00033	48 8b 40 58	 mov	 rax, QWORD PTR [rax+88]
  00037	8b 80 00 01 00
	00		 mov	 eax, DWORD PTR [rax+256]
  0003d	25 00 00 00 01	 and	 eax, 16777216		; 01000000H
  00042	85 c0		 test	 eax, eax
  00044	75 1f		 jne	 SHORT $LN9@PyLong_AsS@2

; 599  :         PyErr_SetString(PyExc_TypeError, "an integer is required");

  00046	48 8d 15 00 00
	00 00		 lea	 rdx, OFFSET FLAT:??_C@_0BH@LPEFKOAK@an?5integer?5is?5required?$AA@
  0004d	48 8b 0d 00 00
	00 00		 mov	 rcx, QWORD PTR PyExc_TypeError
  00054	e8 00 00 00 00	 call	 PyErr_SetString

; 600  :         return (size_t)-1;

  00059	48 c7 c0 ff ff
	ff ff		 mov	 rax, -1
  00060	e9 e3 00 00 00	 jmp	 $LN11@PyLong_AsS@2
$LN9@PyLong_AsS@2:

; 601  :     }
; 602  : 
; 603  :     v = (PyLongObject *)vv;

  00065	48 8b 44 24 60	 mov	 rax, QWORD PTR vv$[rsp]
  0006a	48 89 44 24 20	 mov	 QWORD PTR v$[rsp], rax

; 604  :     i = Py_SIZE(v);

  0006f	48 8b 44 24 20	 mov	 rax, QWORD PTR v$[rsp]
  00074	48 8b 40 60	 mov	 rax, QWORD PTR [rax+96]
  00078	48 89 44 24 30	 mov	 QWORD PTR i$[rsp], rax

; 605  :     x = 0;

  0007d	48 c7 44 24 28
	00 00 00 00	 mov	 QWORD PTR x$[rsp], 0

; 606  :     if (i < 0) {

  00086	48 83 7c 24 30
	00		 cmp	 QWORD PTR i$[rsp], 0
  0008c	7d 1f		 jge	 SHORT $LN8@PyLong_AsS@2

; 607  :         PyErr_SetString(PyExc_OverflowError,
; 608  :                    "can't convert negative value to size_t");

  0008e	48 8d 15 00 00
	00 00		 lea	 rdx, OFFSET FLAT:??_C@_0CH@MBHBMDDI@can?8t?5convert?5negative?5value?5to?5@
  00095	48 8b 0d 00 00
	00 00		 mov	 rcx, QWORD PTR PyExc_OverflowError
  0009c	e8 00 00 00 00	 call	 PyErr_SetString

; 609  :         return (size_t) -1;

  000a1	48 c7 c0 ff ff
	ff ff		 mov	 rax, -1
  000a8	e9 9b 00 00 00	 jmp	 $LN11@PyLong_AsS@2
$LN8@PyLong_AsS@2:

; 610  :     }
; 611  :     switch (i) {

  000ad	48 8b 44 24 30	 mov	 rax, QWORD PTR i$[rsp]
  000b2	48 89 44 24 40	 mov	 QWORD PTR tv77[rsp], rax
  000b7	48 83 7c 24 40
	00		 cmp	 QWORD PTR tv77[rsp], 0
  000bd	74 0a		 je	 SHORT $LN5@PyLong_AsS@2
  000bf	48 83 7c 24 40
	01		 cmp	 QWORD PTR tv77[rsp], 1
  000c5	74 06		 je	 SHORT $LN4@PyLong_AsS@2
  000c7	eb 0e		 jmp	 SHORT $LN6@PyLong_AsS@2
$LN5@PyLong_AsS@2:

; 612  :     case 0: return 0;

  000c9	33 c0		 xor	 eax, eax
  000cb	eb 7b		 jmp	 SHORT $LN11@PyLong_AsS@2
$LN4@PyLong_AsS@2:

; 613  :     case 1: return v->ob_digit[0];

  000cd	48 8b 44 24 20	 mov	 rax, QWORD PTR v$[rsp]
  000d2	8b 40 70	 mov	 eax, DWORD PTR [rax+112]
  000d5	eb 71		 jmp	 SHORT $LN11@PyLong_AsS@2
$LN6@PyLong_AsS@2:
$LN3@PyLong_AsS@2:

; 614  :     }
; 615  :     while (--i >= 0) {

  000d7	48 8b 44 24 30	 mov	 rax, QWORD PTR i$[rsp]
  000dc	48 ff c8	 dec	 rax
  000df	48 89 44 24 30	 mov	 QWORD PTR i$[rsp], rax
  000e4	48 83 7c 24 30
	00		 cmp	 QWORD PTR i$[rsp], 0
  000ea	7c 57		 jl	 SHORT $LN2@PyLong_AsS@2

; 616  :         prev = x;

  000ec	48 8b 44 24 28	 mov	 rax, QWORD PTR x$[rsp]
  000f1	48 89 44 24 38	 mov	 QWORD PTR prev$[rsp], rax

; 617  :         x = (x << PyLong_SHIFT) | v->ob_digit[i];

  000f6	48 8b 44 24 28	 mov	 rax, QWORD PTR x$[rsp]
  000fb	48 c1 e0 1e	 shl	 rax, 30
  000ff	48 8b 4c 24 20	 mov	 rcx, QWORD PTR v$[rsp]
  00104	48 8b 54 24 30	 mov	 rdx, QWORD PTR i$[rsp]
  00109	8b 4c 91 70	 mov	 ecx, DWORD PTR [rcx+rdx*4+112]
  0010d	48 0b c1	 or	 rax, rcx
  00110	48 89 44 24 28	 mov	 QWORD PTR x$[rsp], rax

; 618  :         if ((x >> PyLong_SHIFT) != prev) {

  00115	48 8b 44 24 28	 mov	 rax, QWORD PTR x$[rsp]
  0011a	48 c1 e8 1e	 shr	 rax, 30
  0011e	48 3b 44 24 38	 cmp	 rax, QWORD PTR prev$[rsp]
  00123	74 1c		 je	 SHORT $LN1@PyLong_AsS@2

; 619  :             PyErr_SetString(PyExc_OverflowError,
; 620  :                 "Python int too large to convert to C size_t");

  00125	48 8d 15 00 00
	00 00		 lea	 rdx, OFFSET FLAT:??_C@_0CM@CLANCLJJ@Python?5int?5too?5large?5to?5convert?5@
  0012c	48 8b 0d 00 00
	00 00		 mov	 rcx, QWORD PTR PyExc_OverflowError
  00133	e8 00 00 00 00	 call	 PyErr_SetString

; 621  :             return (size_t) -1;

  00138	48 c7 c0 ff ff
	ff ff		 mov	 rax, -1
  0013f	eb 07		 jmp	 SHORT $LN11@PyLong_AsS@2
$LN1@PyLong_AsS@2:

; 622  :         }
; 623  :     }

  00141	eb 94		 jmp	 SHORT $LN3@PyLong_AsS@2
$LN2@PyLong_AsS@2:

; 624  :     return x;

  00143	48 8b 44 24 28	 mov	 rax, QWORD PTR x$[rsp]
$LN11@PyLong_AsS@2:

; 625  : }

  00148	48 83 c4 58	 add	 rsp, 88			; 00000058H
  0014c	c3		 ret	 0
PyLong_AsSize_t ENDP
_TEXT	ENDS
PUBLIC	PyLong_AsUnsignedLongMask
;	COMDAT pdata
pdata	SEGMENT
$pdata$PyLong_AsUnsignedLongMask DD imagerel $LN6
	DD	imagerel $LN6+140
	DD	imagerel $unwind$PyLong_AsUnsignedLongMask
pdata	ENDS
;	COMDAT xdata
xdata	SEGMENT
$unwind$PyLong_AsUnsignedLongMask DD 010901H
	DD	06209H
; Function compile flags: /Odtp
xdata	ENDS
;	COMDAT PyLong_AsUnsignedLongMask
_TEXT	SEGMENT
lo$ = 32
val$ = 40
op$ = 64
PyLong_AsUnsignedLongMask PROC				; COMDAT

; 662  : {

$LN6:
  00000	48 89 4c 24 08	 mov	 QWORD PTR [rsp+8], rcx
  00005	48 83 ec 38	 sub	 rsp, 56			; 00000038H

; 663  :     PyLongObject *lo;
; 664  :     unsigned long val;
; 665  : 
; 666  :     if (op == NULL) {

  00009	48 83 7c 24 40
	00		 cmp	 QWORD PTR op$[rsp], 0
  0000f	75 18		 jne	 SHORT $LN3@PyLong_AsU@2

; 667  :         PyErr_BadInternalCall();

  00011	ba 9b 02 00 00	 mov	 edx, 667		; 0000029bH
  00016	48 8d 0d 00 00
	00 00		 lea	 rcx, OFFSET FLAT:??_C@_0BI@PEFAOAL@?4?4?2Objects?2longobject?4c?$AA@
  0001d	e8 00 00 00 00	 call	 _PyErr_BadInternalCall

; 668  :         return (unsigned long)-1;

  00022	b8 ff ff ff ff	 mov	 eax, -1			; ffffffffH
  00027	eb 5e		 jmp	 SHORT $LN4@PyLong_AsU@2
$LN3@PyLong_AsU@2:

; 669  :     }
; 670  : 
; 671  :     if (PyLong_Check(op)) {

  00029	48 8b 44 24 40	 mov	 rax, QWORD PTR op$[rsp]
  0002e	48 8b 40 58	 mov	 rax, QWORD PTR [rax+88]
  00032	8b 80 00 01 00
	00		 mov	 eax, DWORD PTR [rax+256]
  00038	25 00 00 00 01	 and	 eax, 16777216		; 01000000H
  0003d	85 c0		 test	 eax, eax
  0003f	74 0c		 je	 SHORT $LN2@PyLong_AsU@2

; 672  :         return _PyLong_AsUnsignedLongMask(op);

  00041	48 8b 4c 24 40	 mov	 rcx, QWORD PTR op$[rsp]
  00046	e8 00 00 00 00	 call	 _PyLong_AsUnsignedLongMask
  0004b	eb 3a		 jmp	 SHORT $LN4@PyLong_AsU@2
$LN2@PyLong_AsU@2:

; 673  :     }
; 674  : 
; 675  :     lo = _PyLong_FromNbInt(op);

  0004d	48 8b 4c 24 40	 mov	 rcx, QWORD PTR op$[rsp]
  00052	e8 00 00 00 00	 call	 _PyLong_FromNbInt
  00057	48 89 44 24 20	 mov	 QWORD PTR lo$[rsp], rax

; 676  :     if (lo == NULL)

  0005c	48 83 7c 24 20
	00		 cmp	 QWORD PTR lo$[rsp], 0
  00062	75 07		 jne	 SHORT $LN1@PyLong_AsU@2

; 677  :         return (unsigned long)-1;

  00064	b8 ff ff ff ff	 mov	 eax, -1			; ffffffffH
  00069	eb 1c		 jmp	 SHORT $LN4@PyLong_AsU@2
$LN1@PyLong_AsU@2:

; 678  : 
; 679  :     val = _PyLong_AsUnsignedLongMask((PyObject *)lo);

  0006b	48 8b 4c 24 20	 mov	 rcx, QWORD PTR lo$[rsp]
  00070	e8 00 00 00 00	 call	 _PyLong_AsUnsignedLongMask
  00075	89 44 24 28	 mov	 DWORD PTR val$[rsp], eax

; 680  :     Py_DECREF(lo);

  00079	48 8b 4c 24 20	 mov	 rcx, QWORD PTR lo$[rsp]
  0007e	e8 00 00 00 00	 call	 _Py_DecRef

; 681  :     return val;

  00083	8b 44 24 28	 mov	 eax, DWORD PTR val$[rsp]
$LN4@PyLong_AsU@2:

; 682  : }

  00087	48 83 c4 38	 add	 rsp, 56			; 00000038H
  0008b	c3		 ret	 0
PyLong_AsUnsignedLongMask ENDP
_TEXT	ENDS
;	COMDAT pdata
pdata	SEGMENT
$pdata$_PyLong_AsUnsignedLongMask DD imagerel _PyLong_AsUnsignedLongMask
	DD	imagerel _PyLong_AsUnsignedLongMask+241
	DD	imagerel $unwind$_PyLong_AsUnsignedLongMask
pdata	ENDS
;	COMDAT xdata
xdata	SEGMENT
$unwind$_PyLong_AsUnsignedLongMask DD 010901H
	DD	0a209H
; Function compile flags: /Odtp
xdata	ENDS
;	COMDAT _PyLong_AsUnsignedLongMask
_TEXT	SEGMENT
v$ = 32
x$ = 40
i$ = 48
sign$ = 56
tv72 = 64
vv$ = 96
_PyLong_AsUnsignedLongMask PROC				; COMDAT

; 632  : {

  00000	48 89 4c 24 08	 mov	 QWORD PTR [rsp+8], rcx
  00005	48 83 ec 58	 sub	 rsp, 88			; 00000058H

; 633  :     register PyLongObject *v;
; 634  :     unsigned long x;
; 635  :     Py_ssize_t i;
; 636  :     int sign;
; 637  : 
; 638  :     if (vv == NULL || !PyLong_Check(vv)) {

  00009	48 83 7c 24 60
	00		 cmp	 QWORD PTR vv$[rsp], 0
  0000f	74 18		 je	 SHORT $LN8@PyLong_AsU@3
  00011	48 8b 44 24 60	 mov	 rax, QWORD PTR vv$[rsp]
  00016	48 8b 40 58	 mov	 rax, QWORD PTR [rax+88]
  0001a	8b 80 00 01 00
	00		 mov	 eax, DWORD PTR [rax+256]
  00020	25 00 00 00 01	 and	 eax, 16777216		; 01000000H
  00025	85 c0		 test	 eax, eax
  00027	75 1b		 jne	 SHORT $LN9@PyLong_AsU@3
$LN8@PyLong_AsU@3:

; 639  :         PyErr_BadInternalCall();

  00029	ba 7f 02 00 00	 mov	 edx, 639		; 0000027fH
  0002e	48 8d 0d 00 00
	00 00		 lea	 rcx, OFFSET FLAT:??_C@_0BI@PEFAOAL@?4?4?2Objects?2longobject?4c?$AA@
  00035	e8 00 00 00 00	 call	 _PyErr_BadInternalCall

; 640  :         return (unsigned long) -1;

  0003a	b8 ff ff ff ff	 mov	 eax, -1			; ffffffffH
  0003f	e9 a8 00 00 00	 jmp	 $LN10@PyLong_AsU@3
$LN9@PyLong_AsU@3:

; 641  :     }
; 642  :     v = (PyLongObject *)vv;

  00044	48 8b 44 24 60	 mov	 rax, QWORD PTR vv$[rsp]
  00049	48 89 44 24 20	 mov	 QWORD PTR v$[rsp], rax

; 643  :     i = Py_SIZE(v);

  0004e	48 8b 44 24 20	 mov	 rax, QWORD PTR v$[rsp]
  00053	48 8b 40 60	 mov	 rax, QWORD PTR [rax+96]
  00057	48 89 44 24 30	 mov	 QWORD PTR i$[rsp], rax

; 644  :     switch (i) {

  0005c	48 8b 44 24 30	 mov	 rax, QWORD PTR i$[rsp]
  00061	48 89 44 24 40	 mov	 QWORD PTR tv72[rsp], rax
  00066	48 83 7c 24 40
	00		 cmp	 QWORD PTR tv72[rsp], 0
  0006c	74 0a		 je	 SHORT $LN5@PyLong_AsU@3
  0006e	48 83 7c 24 40
	01		 cmp	 QWORD PTR tv72[rsp], 1
  00074	74 06		 je	 SHORT $LN4@PyLong_AsU@3
  00076	eb 0e		 jmp	 SHORT $LN6@PyLong_AsU@3
$LN5@PyLong_AsU@3:

; 645  :     case 0: return 0;

  00078	33 c0		 xor	 eax, eax
  0007a	eb 70		 jmp	 SHORT $LN10@PyLong_AsU@3
$LN4@PyLong_AsU@3:

; 646  :     case 1: return v->ob_digit[0];

  0007c	48 8b 44 24 20	 mov	 rax, QWORD PTR v$[rsp]
  00081	8b 40 70	 mov	 eax, DWORD PTR [rax+112]
  00084	eb 66		 jmp	 SHORT $LN10@PyLong_AsU@3
$LN6@PyLong_AsU@3:

; 647  :     }
; 648  :     sign = 1;

  00086	c7 44 24 38 01
	00 00 00	 mov	 DWORD PTR sign$[rsp], 1

; 649  :     x = 0;

  0008e	c7 44 24 28 00
	00 00 00	 mov	 DWORD PTR x$[rsp], 0

; 650  :     if (i < 0) {

  00096	48 83 7c 24 30
	00		 cmp	 QWORD PTR i$[rsp], 0
  0009c	7d 15		 jge	 SHORT $LN3@PyLong_AsU@3

; 651  :         sign = -1;

  0009e	c7 44 24 38 ff
	ff ff ff	 mov	 DWORD PTR sign$[rsp], -1

; 652  :         i = -i;

  000a6	48 8b 44 24 30	 mov	 rax, QWORD PTR i$[rsp]
  000ab	48 f7 d8	 neg	 rax
  000ae	48 89 44 24 30	 mov	 QWORD PTR i$[rsp], rax
$LN3@PyLong_AsU@3:
$LN2@PyLong_AsU@3:

; 653  :     }
; 654  :     while (--i >= 0) {

  000b3	48 8b 44 24 30	 mov	 rax, QWORD PTR i$[rsp]
  000b8	48 ff c8	 dec	 rax
  000bb	48 89 44 24 30	 mov	 QWORD PTR i$[rsp], rax
  000c0	48 83 7c 24 30
	00		 cmp	 QWORD PTR i$[rsp], 0
  000c6	7c 1b		 jl	 SHORT $LN1@PyLong_AsU@3

; 655  :         x = (x << PyLong_SHIFT) | v->ob_digit[i];

  000c8	8b 44 24 28	 mov	 eax, DWORD PTR x$[rsp]
  000cc	c1 e0 1e	 shl	 eax, 30
  000cf	48 8b 4c 24 20	 mov	 rcx, QWORD PTR v$[rsp]
  000d4	48 8b 54 24 30	 mov	 rdx, QWORD PTR i$[rsp]
  000d9	0b 44 91 70	 or	 eax, DWORD PTR [rcx+rdx*4+112]
  000dd	89 44 24 28	 mov	 DWORD PTR x$[rsp], eax

; 656  :     }

  000e1	eb d0		 jmp	 SHORT $LN2@PyLong_AsU@3
$LN1@PyLong_AsU@3:

; 657  :     return x * sign;

  000e3	8b 44 24 28	 mov	 eax, DWORD PTR x$[rsp]
  000e7	0f af 44 24 38	 imul	 eax, DWORD PTR sign$[rsp]
$LN10@PyLong_AsU@3:

; 658  : }

  000ec	48 83 c4 58	 add	 rsp, 88			; 00000058H
  000f0	c3		 ret	 0
_PyLong_AsUnsignedLongMask ENDP
_TEXT	ENDS
PUBLIC	??_C@_1CA@NJGFBMIA@?$AAP?$AAy?$AAL?$AAo?$AAn?$AAg?$AA_?$AAC?$AAh?$AAe?$AAc?$AAk?$AA?$CI?$AAv?$AA?$CJ?$AA?$AA@ ; `string'
PUBLIC	??_C@_1BE@GPCKPIHH@?$AAv?$AA?5?$AA?$CB?$AA?$DN?$AA?5?$AAN?$AAU?$AAL?$AAL?$AA?$AA@ ; `string'
PUBLIC	_PyLong_Sign
;	COMDAT pdata
pdata	SEGMENT
$pdata$_PyLong_Sign DD imagerel $LN9
	DD	imagerel $LN9+176
	DD	imagerel $unwind$_PyLong_Sign
pdata	ENDS
;	COMDAT xdata
xdata	SEGMENT
$unwind$_PyLong_Sign DD 010901H
	DD	06209H
xdata	ENDS
;	COMDAT ??_C@_1CA@NJGFBMIA@?$AAP?$AAy?$AAL?$AAo?$AAn?$AAg?$AA_?$AAC?$AAh?$AAe?$AAc?$AAk?$AA?$CI?$AAv?$AA?$CJ?$AA?$AA@
CONST	SEGMENT
??_C@_1CA@NJGFBMIA@?$AAP?$AAy?$AAL?$AAo?$AAn?$AAg?$AA_?$AAC?$AAh?$AAe?$AAc?$AAk?$AA?$CI?$AAv?$AA?$CJ?$AA?$AA@ DB 'P'
	DB	00H, 'y', 00H, 'L', 00H, 'o', 00H, 'n', 00H, 'g', 00H, '_', 00H
	DB	'C', 00H, 'h', 00H, 'e', 00H, 'c', 00H, 'k', 00H, '(', 00H, 'v'
	DB	00H, ')', 00H, 00H, 00H			; `string'
CONST	ENDS
;	COMDAT ??_C@_1BE@GPCKPIHH@?$AAv?$AA?5?$AA?$CB?$AA?$DN?$AA?5?$AAN?$AAU?$AAL?$AAL?$AA?$AA@
CONST	SEGMENT
??_C@_1BE@GPCKPIHH@?$AAv?$AA?5?$AA?$CB?$AA?$DN?$AA?5?$AAN?$AAU?$AAL?$AAL?$AA?$AA@ DB 'v'
	DB	00H, ' ', 00H, '!', 00H, '=', 00H, ' ', 00H, 'N', 00H, 'U', 00H
	DB	'L', 00H, 'L', 00H, 00H, 00H			; `string'
; Function compile flags: /Odtp
CONST	ENDS
;	COMDAT _PyLong_Sign
_TEXT	SEGMENT
v$ = 32
tv82 = 40
tv81 = 44
vv$ = 64
_PyLong_Sign PROC					; COMDAT

; 686  : {

$LN9:
  00000	48 89 4c 24 08	 mov	 QWORD PTR [rsp+8], rcx
  00005	48 83 ec 38	 sub	 rsp, 56			; 00000038H

; 687  :     PyLongObject *v = (PyLongObject *)vv;

  00009	48 8b 44 24 40	 mov	 rax, QWORD PTR vv$[rsp]
  0000e	48 89 44 24 20	 mov	 QWORD PTR v$[rsp], rax

; 688  : 
; 689  :     assert(v != NULL);

  00013	48 83 7c 24 20
	00		 cmp	 QWORD PTR v$[rsp], 0
  00019	75 1c		 jne	 SHORT $LN3@PyLong_Sig
  0001b	41 b8 b1 02 00
	00		 mov	 r8d, 689		; 000002b1H
  00021	48 8d 15 00 00
	00 00		 lea	 rdx, OFFSET FLAT:??_C@_1DA@PBBNJFBE@?$AA?4?$AA?4?$AA?2?$AAO?$AAb?$AAj?$AAe?$AAc?$AAt?$AAs?$AA?2?$AAl?$AAo?$AAn?$AAg?$AAo?$AAb?$AAj?$AAe?$AAc?$AAt?$AA?4?$AAc?$AA?$AA@
  00028	48 8d 0d 00 00
	00 00		 lea	 rcx, OFFSET FLAT:??_C@_1BE@GPCKPIHH@?$AAv?$AA?5?$AA?$CB?$AA?$DN?$AA?5?$AAN?$AAU?$AAL?$AAL?$AA?$AA@
  0002f	ff 15 00 00 00
	00		 call	 QWORD PTR __imp__wassert
  00035	33 c0		 xor	 eax, eax
$LN3@PyLong_Sig:

; 690  :     assert(PyLong_Check(v));

  00037	48 8b 44 24 20	 mov	 rax, QWORD PTR v$[rsp]
  0003c	48 8b 40 58	 mov	 rax, QWORD PTR [rax+88]
  00040	8b 80 00 01 00
	00		 mov	 eax, DWORD PTR [rax+256]
  00046	25 00 00 00 01	 and	 eax, 16777216		; 01000000H
  0004b	85 c0		 test	 eax, eax
  0004d	75 1c		 jne	 SHORT $LN4@PyLong_Sig
  0004f	41 b8 b2 02 00
	00		 mov	 r8d, 690		; 000002b2H
  00055	48 8d 15 00 00
	00 00		 lea	 rdx, OFFSET FLAT:??_C@_1DA@PBBNJFBE@?$AA?4?$AA?4?$AA?2?$AAO?$AAb?$AAj?$AAe?$AAc?$AAt?$AAs?$AA?2?$AAl?$AAo?$AAn?$AAg?$AAo?$AAb?$AAj?$AAe?$AAc?$AAt?$AA?4?$AAc?$AA?$AA@
  0005c	48 8d 0d 00 00
	00 00		 lea	 rcx, OFFSET FLAT:??_C@_1CA@NJGFBMIA@?$AAP?$AAy?$AAL?$AAo?$AAn?$AAg?$AA_?$AAC?$AAh?$AAe?$AAc?$AAk?$AA?$CI?$AAv?$AA?$CJ?$AA?$AA@
  00063	ff 15 00 00 00
	00		 call	 QWORD PTR __imp__wassert
  00069	33 c0		 xor	 eax, eax
$LN4@PyLong_Sig:

; 691  : 
; 692  :     return Py_SIZE(v) == 0 ? 0 : (Py_SIZE(v) < 0 ? -1 : 1);

  0006b	48 8b 44 24 20	 mov	 rax, QWORD PTR v$[rsp]
  00070	48 83 78 60 00	 cmp	 QWORD PTR [rax+96], 0
  00075	75 0a		 jne	 SHORT $LN7@PyLong_Sig
  00077	c7 44 24 28 00
	00 00 00	 mov	 DWORD PTR tv82[rsp], 0
  0007f	eb 26		 jmp	 SHORT $LN8@PyLong_Sig
$LN7@PyLong_Sig:
  00081	48 8b 44 24 20	 mov	 rax, QWORD PTR v$[rsp]
  00086	48 83 78 60 00	 cmp	 QWORD PTR [rax+96], 0
  0008b	7d 0a		 jge	 SHORT $LN5@PyLong_Sig
  0008d	c7 44 24 2c ff
	ff ff ff	 mov	 DWORD PTR tv81[rsp], -1
  00095	eb 08		 jmp	 SHORT $LN6@PyLong_Sig
$LN5@PyLong_Sig:
  00097	c7 44 24 2c 01
	00 00 00	 mov	 DWORD PTR tv81[rsp], 1
$LN6@PyLong_Sig:
  0009f	8b 44 24 2c	 mov	 eax, DWORD PTR tv81[rsp]
  000a3	89 44 24 28	 mov	 DWORD PTR tv82[rsp], eax
$LN8@PyLong_Sig:
  000a7	8b 44 24 28	 mov	 eax, DWORD PTR tv82[rsp]

; 693  : }

  000ab	48 83 c4 38	 add	 rsp, 56			; 00000038H
  000af	c3		 ret	 0
_PyLong_Sign ENDP
_TEXT	ENDS
PUBLIC	??_C@_0DG@ICDEHKHP@int?5has?5too?5many?5bits?5to?5express@ ; `string'
PUBLIC	??_C@_1FM@BMOIEENO@?$AAn?$AAd?$AAi?$AAg?$AAi?$AAt?$AAs?$AA?5?$AA?$DN?$AA?$DN?$AA?5?$AA0?$AA?5?$AA?$HM?$AA?$HM?$AA?5?$AAv?$AA?9?$AA?$DO?$AAo?$AAb?$AA_?$AAd?$AAi?$AAg?$AAi?$AAt?$AA?$FL?$AAn?$AAd?$AAi?$AAg@ ; `string'
PUBLIC	_PyLong_NumBits
;	COMDAT pdata
pdata	SEGMENT
$pdata$_PyLong_NumBits DD imagerel $LN14
	DD	imagerel $LN14+370
	DD	imagerel $unwind$_PyLong_NumBits
pdata	ENDS
;	COMDAT xdata
xdata	SEGMENT
$unwind$_PyLong_NumBits DD 010901H
	DD	0a209H
xdata	ENDS
;	COMDAT ??_C@_0DG@ICDEHKHP@int?5has?5too?5many?5bits?5to?5express@
CONST	SEGMENT
??_C@_0DG@ICDEHKHP@int?5has?5too?5many?5bits?5to?5express@ DB 'int has to'
	DB	'o many bits to express in a platform size_t', 00H ; `string'
CONST	ENDS
;	COMDAT ??_C@_1FM@BMOIEENO@?$AAn?$AAd?$AAi?$AAg?$AAi?$AAt?$AAs?$AA?5?$AA?$DN?$AA?$DN?$AA?5?$AA0?$AA?5?$AA?$HM?$AA?$HM?$AA?5?$AAv?$AA?9?$AA?$DO?$AAo?$AAb?$AA_?$AAd?$AAi?$AAg?$AAi?$AAt?$AA?$FL?$AAn?$AAd?$AAi?$AAg@
CONST	SEGMENT
??_C@_1FM@BMOIEENO@?$AAn?$AAd?$AAi?$AAg?$AAi?$AAt?$AAs?$AA?5?$AA?$DN?$AA?$DN?$AA?5?$AA0?$AA?5?$AA?$HM?$AA?$HM?$AA?5?$AAv?$AA?9?$AA?$DO?$AAo?$AAb?$AA_?$AAd?$AAi?$AAg?$AAi?$AAt?$AA?$FL?$AAn?$AAd?$AAi?$AAg@ DB 'n'
	DB	00H, 'd', 00H, 'i', 00H, 'g', 00H, 'i', 00H, 't', 00H, 's', 00H
	DB	' ', 00H, '=', 00H, '=', 00H, ' ', 00H, '0', 00H, ' ', 00H, '|'
	DB	00H, '|', 00H, ' ', 00H, 'v', 00H, '-', 00H, '>', 00H, 'o', 00H
	DB	'b', 00H, '_', 00H, 'd', 00H, 'i', 00H, 'g', 00H, 'i', 00H, 't'
	DB	00H, '[', 00H, 'n', 00H, 'd', 00H, 'i', 00H, 'g', 00H, 'i', 00H
	DB	't', 00H, 's', 00H, ' ', 00H, '-', 00H, ' ', 00H, '1', 00H, ']'
	DB	00H, ' ', 00H, '!', 00H, '=', 00H, ' ', 00H, '0', 00H, 00H, 00H ; `string'
; Function compile flags: /Odtp
CONST	ENDS
;	COMDAT _PyLong_NumBits
_TEXT	SEGMENT
v$ = 32
ndigits$ = 40
result$ = 48
msd$20757 = 56
tv82 = 64
vv$ = 96
_PyLong_NumBits PROC					; COMDAT

; 697  : {

$LN14:
  00000	48 89 4c 24 08	 mov	 QWORD PTR [rsp+8], rcx
  00005	48 83 ec 58	 sub	 rsp, 88			; 00000058H

; 698  :     PyLongObject *v = (PyLongObject *)vv;

  00009	48 8b 44 24 60	 mov	 rax, QWORD PTR vv$[rsp]
  0000e	48 89 44 24 20	 mov	 QWORD PTR v$[rsp], rax

; 699  :     size_t result = 0;

  00013	48 c7 44 24 30
	00 00 00 00	 mov	 QWORD PTR result$[rsp], 0

; 700  :     Py_ssize_t ndigits;
; 701  : 
; 702  :     assert(v != NULL);

  0001c	48 83 7c 24 20
	00		 cmp	 QWORD PTR v$[rsp], 0
  00022	75 1c		 jne	 SHORT $LN9@PyLong_Num
  00024	41 b8 be 02 00
	00		 mov	 r8d, 702		; 000002beH
  0002a	48 8d 15 00 00
	00 00		 lea	 rdx, OFFSET FLAT:??_C@_1DA@PBBNJFBE@?$AA?4?$AA?4?$AA?2?$AAO?$AAb?$AAj?$AAe?$AAc?$AAt?$AAs?$AA?2?$AAl?$AAo?$AAn?$AAg?$AAo?$AAb?$AAj?$AAe?$AAc?$AAt?$AA?4?$AAc?$AA?$AA@
  00031	48 8d 0d 00 00
	00 00		 lea	 rcx, OFFSET FLAT:??_C@_1BE@GPCKPIHH@?$AAv?$AA?5?$AA?$CB?$AA?$DN?$AA?5?$AAN?$AAU?$AAL?$AAL?$AA?$AA@
  00038	ff 15 00 00 00
	00		 call	 QWORD PTR __imp__wassert
  0003e	33 c0		 xor	 eax, eax
$LN9@PyLong_Num:

; 703  :     assert(PyLong_Check(v));

  00040	48 8b 44 24 20	 mov	 rax, QWORD PTR v$[rsp]
  00045	48 8b 40 58	 mov	 rax, QWORD PTR [rax+88]
  00049	8b 80 00 01 00
	00		 mov	 eax, DWORD PTR [rax+256]
  0004f	25 00 00 00 01	 and	 eax, 16777216		; 01000000H
  00054	85 c0		 test	 eax, eax
  00056	75 1c		 jne	 SHORT $LN10@PyLong_Num
  00058	41 b8 bf 02 00
	00		 mov	 r8d, 703		; 000002bfH
  0005e	48 8d 15 00 00
	00 00		 lea	 rdx, OFFSET FLAT:??_C@_1DA@PBBNJFBE@?$AA?4?$AA?4?$AA?2?$AAO?$AAb?$AAj?$AAe?$AAc?$AAt?$AAs?$AA?2?$AAl?$AAo?$AAn?$AAg?$AAo?$AAb?$AAj?$AAe?$AAc?$AAt?$AA?4?$AAc?$AA?$AA@
  00065	48 8d 0d 00 00
	00 00		 lea	 rcx, OFFSET FLAT:??_C@_1CA@NJGFBMIA@?$AAP?$AAy?$AAL?$AAo?$AAn?$AAg?$AA_?$AAC?$AAh?$AAe?$AAc?$AAk?$AA?$CI?$AAv?$AA?$CJ?$AA?$AA@
  0006c	ff 15 00 00 00
	00		 call	 QWORD PTR __imp__wassert
  00072	33 c0		 xor	 eax, eax
$LN10@PyLong_Num:

; 704  :     ndigits = ABS(Py_SIZE(v));

  00074	48 8b 44 24 20	 mov	 rax, QWORD PTR v$[rsp]
  00079	48 83 78 60 00	 cmp	 QWORD PTR [rax+96], 0
  0007e	7d 13		 jge	 SHORT $LN11@PyLong_Num
  00080	48 8b 44 24 20	 mov	 rax, QWORD PTR v$[rsp]
  00085	48 8b 40 60	 mov	 rax, QWORD PTR [rax+96]
  00089	48 f7 d8	 neg	 rax
  0008c	48 89 44 24 40	 mov	 QWORD PTR tv82[rsp], rax
  00091	eb 0e		 jmp	 SHORT $LN12@PyLong_Num
$LN11@PyLong_Num:
  00093	48 8b 44 24 20	 mov	 rax, QWORD PTR v$[rsp]
  00098	48 8b 40 60	 mov	 rax, QWORD PTR [rax+96]
  0009c	48 89 44 24 40	 mov	 QWORD PTR tv82[rsp], rax
$LN12@PyLong_Num:
  000a1	48 8b 44 24 40	 mov	 rax, QWORD PTR tv82[rsp]
  000a6	48 89 44 24 28	 mov	 QWORD PTR ndigits$[rsp], rax

; 705  :     assert(ndigits == 0 || v->ob_digit[ndigits - 1] != 0);

  000ab	48 83 7c 24 28
	00		 cmp	 QWORD PTR ndigits$[rsp], 0
  000b1	74 2d		 je	 SHORT $LN13@PyLong_Num
  000b3	48 8b 44 24 20	 mov	 rax, QWORD PTR v$[rsp]
  000b8	48 8b 4c 24 28	 mov	 rcx, QWORD PTR ndigits$[rsp]
  000bd	83 7c 88 6c 00	 cmp	 DWORD PTR [rax+rcx*4+108], 0
  000c2	75 1c		 jne	 SHORT $LN13@PyLong_Num
  000c4	41 b8 c1 02 00
	00		 mov	 r8d, 705		; 000002c1H
  000ca	48 8d 15 00 00
	00 00		 lea	 rdx, OFFSET FLAT:??_C@_1DA@PBBNJFBE@?$AA?4?$AA?4?$AA?2?$AAO?$AAb?$AAj?$AAe?$AAc?$AAt?$AAs?$AA?2?$AAl?$AAo?$AAn?$AAg?$AAo?$AAb?$AAj?$AAe?$AAc?$AAt?$AA?4?$AAc?$AA?$AA@
  000d1	48 8d 0d 00 00
	00 00		 lea	 rcx, OFFSET FLAT:??_C@_1FM@BMOIEENO@?$AAn?$AAd?$AAi?$AAg?$AAi?$AAt?$AAs?$AA?5?$AA?$DN?$AA?$DN?$AA?5?$AA0?$AA?5?$AA?$HM?$AA?$HM?$AA?5?$AAv?$AA?9?$AA?$DO?$AAo?$AAb?$AA_?$AAd?$AAi?$AAg?$AAi?$AAt?$AA?$FL?$AAn?$AAd?$AAi?$AAg@
  000d8	ff 15 00 00 00
	00		 call	 QWORD PTR __imp__wassert
  000de	33 c0		 xor	 eax, eax
$LN13@PyLong_Num:

; 706  :     if (ndigits > 0) {

  000e0	48 83 7c 24 28
	00		 cmp	 QWORD PTR ndigits$[rsp], 0
  000e6	7e 64		 jle	 SHORT $LN6@PyLong_Num

; 707  :         digit msd = v->ob_digit[ndigits - 1];

  000e8	48 8b 44 24 20	 mov	 rax, QWORD PTR v$[rsp]
  000ed	48 8b 4c 24 28	 mov	 rcx, QWORD PTR ndigits$[rsp]
  000f2	8b 44 88 6c	 mov	 eax, DWORD PTR [rax+rcx*4+108]
  000f6	89 44 24 38	 mov	 DWORD PTR msd$20757[rsp], eax

; 708  :         if ((size_t)(ndigits - 1) > PY_SIZE_MAX / (size_t)PyLong_SHIFT)

  000fa	48 8b 44 24 28	 mov	 rax, QWORD PTR ndigits$[rsp]
  000ff	48 ff c8	 dec	 rax
  00102	48 b9 88 88 88
	88 88 88 88 08	 mov	 rcx, 614891469123651720	; 0888888888888888H
  0010c	48 3b c1	 cmp	 rax, rcx
  0010f	76 02		 jbe	 SHORT $LN5@PyLong_Num

; 709  :             goto Overflow;

  00111	eb 40		 jmp	 SHORT $Overflow$20761
$LN5@PyLong_Num:

; 710  :         result = (size_t)(ndigits - 1) * (size_t)PyLong_SHIFT;

  00113	48 8b 44 24 28	 mov	 rax, QWORD PTR ndigits$[rsp]
  00118	48 ff c8	 dec	 rax
  0011b	48 6b c0 1e	 imul	 rax, 30
  0011f	48 89 44 24 30	 mov	 QWORD PTR result$[rsp], rax
$LN4@PyLong_Num:

; 711  :         do {
; 712  :             ++result;

  00124	48 8b 44 24 30	 mov	 rax, QWORD PTR result$[rsp]
  00129	48 ff c0	 inc	 rax
  0012c	48 89 44 24 30	 mov	 QWORD PTR result$[rsp], rax

; 713  :             if (result == 0)

  00131	48 83 7c 24 30
	00		 cmp	 QWORD PTR result$[rsp], 0
  00137	75 02		 jne	 SHORT $LN1@PyLong_Num

; 714  :                 goto Overflow;

  00139	eb 18		 jmp	 SHORT $Overflow$20761
$LN1@PyLong_Num:

; 715  :             msd >>= 1;

  0013b	8b 44 24 38	 mov	 eax, DWORD PTR msd$20757[rsp]
  0013f	d1 e8		 shr	 eax, 1
  00141	89 44 24 38	 mov	 DWORD PTR msd$20757[rsp], eax

; 716  :         } while (msd);

  00145	83 7c 24 38 00	 cmp	 DWORD PTR msd$20757[rsp], 0
  0014a	75 d8		 jne	 SHORT $LN4@PyLong_Num
$LN6@PyLong_Num:

; 717  :     }
; 718  :     return result;

  0014c	48 8b 44 24 30	 mov	 rax, QWORD PTR result$[rsp]
  00151	eb 1a		 jmp	 SHORT $LN7@PyLong_Num
$Overflow$20761:

; 719  : 
; 720  :   Overflow:
; 721  :     PyErr_SetString(PyExc_OverflowError, "int has too many bits "
; 722  :                     "to express in a platform size_t");

  00153	48 8d 15 00 00
	00 00		 lea	 rdx, OFFSET FLAT:??_C@_0DG@ICDEHKHP@int?5has?5too?5many?5bits?5to?5express@
  0015a	48 8b 0d 00 00
	00 00		 mov	 rcx, QWORD PTR PyExc_OverflowError
  00161	e8 00 00 00 00	 call	 PyErr_SetString

; 723  :     return (size_t)-1;

  00166	48 c7 c0 ff ff
	ff ff		 mov	 rax, -1
$LN7@PyLong_Num:

; 724  : }

  0016d	48 83 c4 58	 add	 rsp, 88			; 00000058H
  00171	c3		 ret	 0
_PyLong_NumBits ENDP
_TEXT	ENDS
PUBLIC	??_C@_1DC@JIKGJNGJ@?$AAa?$AAc?$AAc?$AAu?$AAm?$AAb?$AAi?$AAt?$AAs?$AA?5?$AA?$DM?$AA?5?$AAP?$AAy?$AAL?$AAo?$AAn?$AAg?$AA_?$AAS?$AAH?$AAI?$AAF?$AAT?$AA?$AA@ ; `string'
PUBLIC	??_C@_1CC@MDCGJMOK@?$AAi?$AAd?$AAi?$AAg?$AAi?$AAt?$AA?5?$AA?$DM?$AA?5?$AAn?$AAd?$AAi?$AAg?$AAi?$AAt?$AAs?$AA?$AA@ ; `string'
PUBLIC	??_C@_0CG@IILJNAIE@byte?5array?5too?5long?5to?5convert?5t@ ; `string'
PUBLIC	_PyLong_FromByteArray
;	COMDAT pdata
pdata	SEGMENT
$pdata$_PyLong_FromByteArray DD imagerel $LN30
	DD	imagerel $LN30+1187
	DD	imagerel $unwind$_PyLong_FromByteArray
pdata	ENDS
;	COMDAT xdata
xdata	SEGMENT
$unwind$_PyLong_FromByteArray DD 021b01H
	DD	019011bH
xdata	ENDS
;	COMDAT ??_C@_1DC@JIKGJNGJ@?$AAa?$AAc?$AAc?$AAu?$AAm?$AAb?$AAi?$AAt?$AAs?$AA?5?$AA?$DM?$AA?5?$AAP?$AAy?$AAL?$AAo?$AAn?$AAg?$AA_?$AAS?$AAH?$AAI?$AAF?$AAT?$AA?$AA@
CONST	SEGMENT
??_C@_1DC@JIKGJNGJ@?$AAa?$AAc?$AAc?$AAu?$AAm?$AAb?$AAi?$AAt?$AAs?$AA?5?$AA?$DM?$AA?5?$AAP?$AAy?$AAL?$AAo?$AAn?$AAg?$AA_?$AAS?$AAH?$AAI?$AAF?$AAT?$AA?$AA@ DB 'a'
	DB	00H, 'c', 00H, 'c', 00H, 'u', 00H, 'm', 00H, 'b', 00H, 'i', 00H
	DB	't', 00H, 's', 00H, ' ', 00H, '<', 00H, ' ', 00H, 'P', 00H, 'y'
	DB	00H, 'L', 00H, 'o', 00H, 'n', 00H, 'g', 00H, '_', 00H, 'S', 00H
	DB	'H', 00H, 'I', 00H, 'F', 00H, 'T', 00H, 00H, 00H ; `string'
CONST	ENDS
;	COMDAT ??_C@_1CC@MDCGJMOK@?$AAi?$AAd?$AAi?$AAg?$AAi?$AAt?$AA?5?$AA?$DM?$AA?5?$AAn?$AAd?$AAi?$AAg?$AAi?$AAt?$AAs?$AA?$AA@
CONST	SEGMENT
??_C@_1CC@MDCGJMOK@?$AAi?$AAd?$AAi?$AAg?$AAi?$AAt?$AA?5?$AA?$DM?$AA?5?$AAn?$AAd?$AAi?$AAg?$AAi?$AAt?$AAs?$AA?$AA@ DB 'i'
	DB	00H, 'd', 00H, 'i', 00H, 'g', 00H, 'i', 00H, 't', 00H, ' ', 00H
	DB	'<', 00H, ' ', 00H, 'n', 00H, 'd', 00H, 'i', 00H, 'g', 00H, 'i'
	DB	00H, 't', 00H, 's', 00H, 00H, 00H		; `string'
CONST	ENDS
;	COMDAT ??_C@_0CG@IILJNAIE@byte?5array?5too?5long?5to?5convert?5t@
CONST	SEGMENT
??_C@_0CG@IILJNAIE@byte?5array?5too?5long?5to?5convert?5t@ DB 'byte array'
	DB	' too long to convert to int', 00H		; `string'
; Function compile flags: /Odtp
CONST	ENDS
;	COMDAT _PyLong_FromByteArray
_TEXT	SEGMENT
v$ = 32
pstartbyte$ = 40
idigit$ = 48
pendbyte$ = 56
incr$ = 64
ndigits$ = 72
numsignificantbytes$ = 80
p$20791 = 88
insignficant$20793 = 96
i$20790 = 104
pincr$20792 = 112
p$20811 = 120
i$20807 = 128
accumbits$20810 = 136
accum$20809 = 144
carry$20808 = 152
thisbyte$20815 = 160
tv75 = 168
tv78 = 172
tv183 = 176
bytes$ = 208
n$ = 216
little_endian$ = 224
is_signed$ = 232
_PyLong_FromByteArray PROC				; COMDAT

; 729  : {

$LN30:
  00000	44 89 4c 24 20	 mov	 DWORD PTR [rsp+32], r9d
  00005	44 89 44 24 18	 mov	 DWORD PTR [rsp+24], r8d
  0000a	48 89 54 24 10	 mov	 QWORD PTR [rsp+16], rdx
  0000f	48 89 4c 24 08	 mov	 QWORD PTR [rsp+8], rcx
  00014	48 81 ec c8 00
	00 00		 sub	 rsp, 200		; 000000c8H

; 730  :     const unsigned char* pstartbyte;    /* LSB of bytes */
; 731  :     int incr;                           /* direction to move pstartbyte */
; 732  :     const unsigned char* pendbyte;      /* MSB of bytes */
; 733  :     size_t numsignificantbytes;         /* number of bytes that matter */
; 734  :     Py_ssize_t ndigits;                 /* number of Python int digits */
; 735  :     PyLongObject* v;                    /* result */
; 736  :     Py_ssize_t idigit = 0;              /* next free index in v->ob_digit */

  0001b	48 c7 44 24 30
	00 00 00 00	 mov	 QWORD PTR idigit$[rsp], 0

; 737  : 
; 738  :     if (n == 0)

  00024	48 83 bc 24 d8
	00 00 00 00	 cmp	 QWORD PTR n$[rsp], 0
  0002d	75 0c		 jne	 SHORT $LN17@PyLong_Fro@5

; 739  :         return PyLong_FromLong(0L);

  0002f	33 c9		 xor	 ecx, ecx
  00031	e8 00 00 00 00	 call	 PyLong_FromLong
  00036	e9 60 04 00 00	 jmp	 $LN18@PyLong_Fro@5
$LN17@PyLong_Fro@5:

; 740  : 
; 741  :     if (little_endian) {

  0003b	83 bc 24 e0 00
	00 00 00	 cmp	 DWORD PTR little_endian$[rsp], 0
  00043	74 31		 je	 SHORT $LN16@PyLong_Fro@5

; 742  :         pstartbyte = bytes;

  00045	48 8b 84 24 d0
	00 00 00	 mov	 rax, QWORD PTR bytes$[rsp]
  0004d	48 89 44 24 28	 mov	 QWORD PTR pstartbyte$[rsp], rax

; 743  :         pendbyte = bytes + n - 1;

  00052	48 8b 84 24 d0
	00 00 00	 mov	 rax, QWORD PTR bytes$[rsp]
  0005a	48 8b 8c 24 d8
	00 00 00	 mov	 rcx, QWORD PTR n$[rsp]
  00062	48 8d 44 08 ff	 lea	 rax, QWORD PTR [rax+rcx-1]
  00067	48 89 44 24 38	 mov	 QWORD PTR pendbyte$[rsp], rax

; 744  :         incr = 1;

  0006c	c7 44 24 40 01
	00 00 00	 mov	 DWORD PTR incr$[rsp], 1

; 745  :     }
; 746  :     else {

  00074	eb 2f		 jmp	 SHORT $LN15@PyLong_Fro@5
$LN16@PyLong_Fro@5:

; 747  :         pstartbyte = bytes + n - 1;

  00076	48 8b 84 24 d0
	00 00 00	 mov	 rax, QWORD PTR bytes$[rsp]
  0007e	48 8b 8c 24 d8
	00 00 00	 mov	 rcx, QWORD PTR n$[rsp]
  00086	48 8d 44 08 ff	 lea	 rax, QWORD PTR [rax+rcx-1]
  0008b	48 89 44 24 28	 mov	 QWORD PTR pstartbyte$[rsp], rax

; 748  :         pendbyte = bytes;

  00090	48 8b 84 24 d0
	00 00 00	 mov	 rax, QWORD PTR bytes$[rsp]
  00098	48 89 44 24 38	 mov	 QWORD PTR pendbyte$[rsp], rax

; 749  :         incr = -1;

  0009d	c7 44 24 40 ff
	ff ff ff	 mov	 DWORD PTR incr$[rsp], -1
$LN15@PyLong_Fro@5:

; 750  :     }
; 751  : 
; 752  :     if (is_signed)

  000a5	83 bc 24 e8 00
	00 00 00	 cmp	 DWORD PTR is_signed$[rsp], 0
  000ad	74 35		 je	 SHORT $LN14@PyLong_Fro@5

; 753  :         is_signed = *pendbyte >= 0x80;

  000af	48 8b 44 24 38	 mov	 rax, QWORD PTR pendbyte$[rsp]
  000b4	0f b6 00	 movzx	 eax, BYTE PTR [rax]
  000b7	3d 80 00 00 00	 cmp	 eax, 128		; 00000080H
  000bc	7c 0d		 jl	 SHORT $LN20@PyLong_Fro@5
  000be	c7 84 24 a8 00
	00 00 01 00 00
	00		 mov	 DWORD PTR tv75[rsp], 1
  000c9	eb 0b		 jmp	 SHORT $LN21@PyLong_Fro@5
$LN20@PyLong_Fro@5:
  000cb	c7 84 24 a8 00
	00 00 00 00 00
	00		 mov	 DWORD PTR tv75[rsp], 0
$LN21@PyLong_Fro@5:
  000d6	8b 84 24 a8 00
	00 00		 mov	 eax, DWORD PTR tv75[rsp]
  000dd	89 84 24 e8 00
	00 00		 mov	 DWORD PTR is_signed$[rsp], eax
$LN14@PyLong_Fro@5:

; 754  : 
; 755  :     /* Compute numsignificantbytes.  This consists of finding the most
; 756  :        significant byte.  Leading 0 bytes are insignificant if the number
; 757  :        is positive, and leading 0xff bytes if negative. */
; 758  :     {
; 759  :         size_t i;
; 760  :         const unsigned char* p = pendbyte;

  000e4	48 8b 44 24 38	 mov	 rax, QWORD PTR pendbyte$[rsp]
  000e9	48 89 44 24 58	 mov	 QWORD PTR p$20791[rsp], rax

; 761  :         const int pincr = -incr;  /* search MSB to LSB */

  000ee	8b 44 24 40	 mov	 eax, DWORD PTR incr$[rsp]
  000f2	f7 d8		 neg	 eax
  000f4	89 44 24 70	 mov	 DWORD PTR pincr$20792[rsp], eax

; 762  :         const unsigned char insignficant = is_signed ? 0xff : 0x00;

  000f8	83 bc 24 e8 00
	00 00 00	 cmp	 DWORD PTR is_signed$[rsp], 0
  00100	74 0d		 je	 SHORT $LN22@PyLong_Fro@5
  00102	c7 84 24 ac 00
	00 00 ff 00 00
	00		 mov	 DWORD PTR tv78[rsp], 255 ; 000000ffH
  0010d	eb 0b		 jmp	 SHORT $LN23@PyLong_Fro@5
$LN22@PyLong_Fro@5:
  0010f	c7 84 24 ac 00
	00 00 00 00 00
	00		 mov	 DWORD PTR tv78[rsp], 0
$LN23@PyLong_Fro@5:
  0011a	0f b6 84 24 ac
	00 00 00	 movzx	 eax, BYTE PTR tv78[rsp]
  00122	88 44 24 60	 mov	 BYTE PTR insignficant$20793[rsp], al

; 763  : 
; 764  :         for (i = 0; i < n; ++i, p += pincr) {

  00126	48 c7 44 24 68
	00 00 00 00	 mov	 QWORD PTR i$20790[rsp], 0
  0012f	eb 22		 jmp	 SHORT $LN13@PyLong_Fro@5
$LN12@PyLong_Fro@5:
  00131	48 8b 44 24 68	 mov	 rax, QWORD PTR i$20790[rsp]
  00136	48 ff c0	 inc	 rax
  00139	48 89 44 24 68	 mov	 QWORD PTR i$20790[rsp], rax
  0013e	48 63 44 24 70	 movsxd	 rax, DWORD PTR pincr$20792[rsp]
  00143	48 8b 4c 24 58	 mov	 rcx, QWORD PTR p$20791[rsp]
  00148	48 03 c8	 add	 rcx, rax
  0014b	48 8b c1	 mov	 rax, rcx
  0014e	48 89 44 24 58	 mov	 QWORD PTR p$20791[rsp], rax
$LN13@PyLong_Fro@5:
  00153	48 8b 84 24 d8
	00 00 00	 mov	 rax, QWORD PTR n$[rsp]
  0015b	48 39 44 24 68	 cmp	 QWORD PTR i$20790[rsp], rax
  00160	73 15		 jae	 SHORT $LN11@PyLong_Fro@5

; 765  :             if (*p != insignficant)

  00162	48 8b 44 24 58	 mov	 rax, QWORD PTR p$20791[rsp]
  00167	0f b6 00	 movzx	 eax, BYTE PTR [rax]
  0016a	0f b6 4c 24 60	 movzx	 ecx, BYTE PTR insignficant$20793[rsp]
  0016f	3b c1		 cmp	 eax, ecx
  00171	74 02		 je	 SHORT $LN10@PyLong_Fro@5

; 766  :                 break;

  00173	eb 02		 jmp	 SHORT $LN11@PyLong_Fro@5
$LN10@PyLong_Fro@5:

; 767  :         }

  00175	eb ba		 jmp	 SHORT $LN12@PyLong_Fro@5
$LN11@PyLong_Fro@5:

; 768  :         numsignificantbytes = n - i;

  00177	48 8b 44 24 68	 mov	 rax, QWORD PTR i$20790[rsp]
  0017c	48 8b 8c 24 d8
	00 00 00	 mov	 rcx, QWORD PTR n$[rsp]
  00184	48 2b c8	 sub	 rcx, rax
  00187	48 8b c1	 mov	 rax, rcx
  0018a	48 89 44 24 50	 mov	 QWORD PTR numsignificantbytes$[rsp], rax

; 769  :         /* 2's-comp is a bit tricky here, e.g. 0xff00 == -0x0100, so
; 770  :            actually has 2 significant bytes.  OTOH, 0xff0001 ==
; 771  :            -0x00ffff, so we wouldn't *need* to bump it there; but we
; 772  :            do for 0xffff = -0x0001.  To be safe without bothering to
; 773  :            check every case, bump it regardless. */
; 774  :         if (is_signed && numsignificantbytes < n)

  0018f	83 bc 24 e8 00
	00 00 00	 cmp	 DWORD PTR is_signed$[rsp], 0
  00197	74 1c		 je	 SHORT $LN9@PyLong_Fro@5
  00199	48 8b 84 24 d8
	00 00 00	 mov	 rax, QWORD PTR n$[rsp]
  001a1	48 39 44 24 50	 cmp	 QWORD PTR numsignificantbytes$[rsp], rax
  001a6	73 0d		 jae	 SHORT $LN9@PyLong_Fro@5

; 775  :             ++numsignificantbytes;

  001a8	48 8b 44 24 50	 mov	 rax, QWORD PTR numsignificantbytes$[rsp]
  001ad	48 ff c0	 inc	 rax
  001b0	48 89 44 24 50	 mov	 QWORD PTR numsignificantbytes$[rsp], rax
$LN9@PyLong_Fro@5:

; 776  :     }
; 777  : 
; 778  :     /* How many Python int digits do we need?  We have
; 779  :        8*numsignificantbytes bits, and each Python int digit has
; 780  :        PyLong_SHIFT bits, so it's the ceiling of the quotient. */
; 781  :     /* catch overflow before it happens */
; 782  :     if (numsignificantbytes > (PY_SSIZE_T_MAX - PyLong_SHIFT) / 8) {

  001b5	48 b8 fc ff ff
	ff ff ff ff 0f	 mov	 rax, 1152921504606846972 ; 0ffffffffffffffcH
  001bf	48 39 44 24 50	 cmp	 QWORD PTR numsignificantbytes$[rsp], rax
  001c4	76 1a		 jbe	 SHORT $LN8@PyLong_Fro@5

; 783  :         PyErr_SetString(PyExc_OverflowError,
; 784  :                         "byte array too long to convert to int");

  001c6	48 8d 15 00 00
	00 00		 lea	 rdx, OFFSET FLAT:??_C@_0CG@IILJNAIE@byte?5array?5too?5long?5to?5convert?5t@
  001cd	48 8b 0d 00 00
	00 00		 mov	 rcx, QWORD PTR PyExc_OverflowError
  001d4	e8 00 00 00 00	 call	 PyErr_SetString

; 785  :         return NULL;

  001d9	33 c0		 xor	 eax, eax
  001db	e9 bb 02 00 00	 jmp	 $LN18@PyLong_Fro@5
$LN8@PyLong_Fro@5:

; 786  :     }
; 787  :     ndigits = (numsignificantbytes * 8 + PyLong_SHIFT - 1) / PyLong_SHIFT;

  001e0	48 8b 44 24 50	 mov	 rax, QWORD PTR numsignificantbytes$[rsp]
  001e5	48 8d 04 c5 1d
	00 00 00	 lea	 rax, QWORD PTR [rax*8+29]
  001ed	33 d2		 xor	 edx, edx
  001ef	b9 1e 00 00 00	 mov	 ecx, 30
  001f4	48 f7 f1	 div	 rcx
  001f7	48 89 44 24 48	 mov	 QWORD PTR ndigits$[rsp], rax

; 788  :     v = _PyLong_New(ndigits);

  001fc	48 8b 4c 24 48	 mov	 rcx, QWORD PTR ndigits$[rsp]
  00201	e8 00 00 00 00	 call	 _PyLong_New
  00206	48 89 44 24 20	 mov	 QWORD PTR v$[rsp], rax

; 789  :     if (v == NULL)

  0020b	48 83 7c 24 20
	00		 cmp	 QWORD PTR v$[rsp], 0
  00211	75 07		 jne	 SHORT $LN7@PyLong_Fro@5

; 790  :         return NULL;

  00213	33 c0		 xor	 eax, eax
  00215	e9 81 02 00 00	 jmp	 $LN18@PyLong_Fro@5
$LN7@PyLong_Fro@5:

; 791  : 
; 792  :     /* Copy the bits over.  The tricky parts are computing 2's-comp on
; 793  :        the fly for signed numbers, and dealing with the mismatch between
; 794  :        8-bit bytes and (probably) 15-bit Python digits.*/
; 795  :     {
; 796  :         size_t i;
; 797  :         twodigits carry = 1;                    /* for 2's-comp calculation */

  0021a	48 c7 84 24 98
	00 00 00 01 00
	00 00		 mov	 QWORD PTR carry$20808[rsp], 1

; 798  :         twodigits accum = 0;                    /* sliding register */

  00226	48 c7 84 24 90
	00 00 00 00 00
	00 00		 mov	 QWORD PTR accum$20809[rsp], 0

; 799  :         unsigned int accumbits = 0;             /* number of bits in accum */

  00232	c7 84 24 88 00
	00 00 00 00 00
	00		 mov	 DWORD PTR accumbits$20810[rsp], 0

; 800  :         const unsigned char* p = pstartbyte;

  0023d	48 8b 44 24 28	 mov	 rax, QWORD PTR pstartbyte$[rsp]
  00242	48 89 44 24 78	 mov	 QWORD PTR p$20811[rsp], rax

; 801  : 
; 802  :         for (i = 0; i < numsignificantbytes; ++i, p += incr) {

  00247	48 c7 84 24 80
	00 00 00 00 00
	00 00		 mov	 QWORD PTR i$20807[rsp], 0
  00253	eb 28		 jmp	 SHORT $LN6@PyLong_Fro@5
$LN5@PyLong_Fro@5:
  00255	48 8b 84 24 80
	00 00 00	 mov	 rax, QWORD PTR i$20807[rsp]
  0025d	48 ff c0	 inc	 rax
  00260	48 89 84 24 80
	00 00 00	 mov	 QWORD PTR i$20807[rsp], rax
  00268	48 63 44 24 40	 movsxd	 rax, DWORD PTR incr$[rsp]
  0026d	48 8b 4c 24 78	 mov	 rcx, QWORD PTR p$20811[rsp]
  00272	48 03 c8	 add	 rcx, rax
  00275	48 8b c1	 mov	 rax, rcx
  00278	48 89 44 24 78	 mov	 QWORD PTR p$20811[rsp], rax
$LN6@PyLong_Fro@5:
  0027d	48 8b 44 24 50	 mov	 rax, QWORD PTR numsignificantbytes$[rsp]
  00282	48 39 84 24 80
	00 00 00	 cmp	 QWORD PTR i$20807[rsp], rax
  0028a	0f 83 4d 01 00
	00		 jae	 $LN4@PyLong_Fro@5

; 803  :             twodigits thisbyte = *p;

  00290	48 8b 44 24 78	 mov	 rax, QWORD PTR p$20811[rsp]
  00295	0f b6 00	 movzx	 eax, BYTE PTR [rax]
  00298	48 89 84 24 a0
	00 00 00	 mov	 QWORD PTR thisbyte$20815[rsp], rax

; 804  :             /* Compute correction for 2's comp, if needed. */
; 805  :             if (is_signed) {

  002a0	83 bc 24 e8 00
	00 00 00	 cmp	 DWORD PTR is_signed$[rsp], 0
  002a8	74 48		 je	 SHORT $LN3@PyLong_Fro@5

; 806  :                 thisbyte = (0xff ^ thisbyte) + carry;

  002aa	48 8b 84 24 a0
	00 00 00	 mov	 rax, QWORD PTR thisbyte$20815[rsp]
  002b2	48 35 ff 00 00
	00		 xor	 rax, 255		; 000000ffH
  002b8	48 03 84 24 98
	00 00 00	 add	 rax, QWORD PTR carry$20808[rsp]
  002c0	48 89 84 24 a0
	00 00 00	 mov	 QWORD PTR thisbyte$20815[rsp], rax

; 807  :                 carry = thisbyte >> 8;

  002c8	48 8b 84 24 a0
	00 00 00	 mov	 rax, QWORD PTR thisbyte$20815[rsp]
  002d0	48 c1 e8 08	 shr	 rax, 8
  002d4	48 89 84 24 98
	00 00 00	 mov	 QWORD PTR carry$20808[rsp], rax

; 808  :                 thisbyte &= 0xff;

  002dc	48 8b 84 24 a0
	00 00 00	 mov	 rax, QWORD PTR thisbyte$20815[rsp]
  002e4	48 25 ff 00 00
	00		 and	 rax, 255		; 000000ffH
  002ea	48 89 84 24 a0
	00 00 00	 mov	 QWORD PTR thisbyte$20815[rsp], rax
$LN3@PyLong_Fro@5:

; 809  :             }
; 810  :             /* Because we're going LSB to MSB, thisbyte is
; 811  :                more significant than what's already in accum,
; 812  :                so needs to be prepended to accum. */
; 813  :             accum |= (twodigits)thisbyte << accumbits;

  002f2	8b 84 24 88 00
	00 00		 mov	 eax, DWORD PTR accumbits$20810[rsp]
  002f9	0f b6 c8	 movzx	 ecx, al
  002fc	48 8b 84 24 a0
	00 00 00	 mov	 rax, QWORD PTR thisbyte$20815[rsp]
  00304	48 d3 e0	 shl	 rax, cl
  00307	48 8b 8c 24 90
	00 00 00	 mov	 rcx, QWORD PTR accum$20809[rsp]
  0030f	48 0b c8	 or	 rcx, rax
  00312	48 8b c1	 mov	 rax, rcx
  00315	48 89 84 24 90
	00 00 00	 mov	 QWORD PTR accum$20809[rsp], rax

; 814  :             accumbits += 8;

  0031d	8b 84 24 88 00
	00 00		 mov	 eax, DWORD PTR accumbits$20810[rsp]
  00324	83 c0 08	 add	 eax, 8
  00327	89 84 24 88 00
	00 00		 mov	 DWORD PTR accumbits$20810[rsp], eax

; 815  :             if (accumbits >= PyLong_SHIFT) {

  0032e	83 bc 24 88 00
	00 00 1e	 cmp	 DWORD PTR accumbits$20810[rsp], 30
  00336	0f 82 9c 00 00
	00		 jb	 $LN2@PyLong_Fro@5

; 816  :                 /* There's enough to fill a Python digit. */
; 817  :                 assert(idigit < ndigits);

  0033c	48 8b 44 24 48	 mov	 rax, QWORD PTR ndigits$[rsp]
  00341	48 39 44 24 30	 cmp	 QWORD PTR idigit$[rsp], rax
  00346	7c 1c		 jl	 SHORT $LN24@PyLong_Fro@5
  00348	41 b8 31 03 00
	00		 mov	 r8d, 817		; 00000331H
  0034e	48 8d 15 00 00
	00 00		 lea	 rdx, OFFSET FLAT:??_C@_1DA@PBBNJFBE@?$AA?4?$AA?4?$AA?2?$AAO?$AAb?$AAj?$AAe?$AAc?$AAt?$AAs?$AA?2?$AAl?$AAo?$AAn?$AAg?$AAo?$AAb?$AAj?$AAe?$AAc?$AAt?$AA?4?$AAc?$AA?$AA@
  00355	48 8d 0d 00 00
	00 00		 lea	 rcx, OFFSET FLAT:??_C@_1CC@MDCGJMOK@?$AAi?$AAd?$AAi?$AAg?$AAi?$AAt?$AA?5?$AA?$DM?$AA?5?$AAn?$AAd?$AAi?$AAg?$AAi?$AAt?$AAs?$AA?$AA@
  0035c	ff 15 00 00 00
	00		 call	 QWORD PTR __imp__wassert
  00362	33 c0		 xor	 eax, eax
$LN24@PyLong_Fro@5:

; 818  :                 v->ob_digit[idigit] = (digit)(accum & PyLong_MASK);

  00364	48 8b 84 24 90
	00 00 00	 mov	 rax, QWORD PTR accum$20809[rsp]
  0036c	48 25 ff ff ff
	3f		 and	 rax, 1073741823		; 3fffffffH
  00372	48 8b 4c 24 20	 mov	 rcx, QWORD PTR v$[rsp]
  00377	48 8b 54 24 30	 mov	 rdx, QWORD PTR idigit$[rsp]
  0037c	89 44 91 70	 mov	 DWORD PTR [rcx+rdx*4+112], eax

; 819  :                 ++idigit;

  00380	48 8b 44 24 30	 mov	 rax, QWORD PTR idigit$[rsp]
  00385	48 ff c0	 inc	 rax
  00388	48 89 44 24 30	 mov	 QWORD PTR idigit$[rsp], rax

; 820  :                 accum >>= PyLong_SHIFT;

  0038d	48 8b 84 24 90
	00 00 00	 mov	 rax, QWORD PTR accum$20809[rsp]
  00395	48 c1 e8 1e	 shr	 rax, 30
  00399	48 89 84 24 90
	00 00 00	 mov	 QWORD PTR accum$20809[rsp], rax

; 821  :                 accumbits -= PyLong_SHIFT;

  003a1	8b 84 24 88 00
	00 00		 mov	 eax, DWORD PTR accumbits$20810[rsp]
  003a8	83 e8 1e	 sub	 eax, 30
  003ab	89 84 24 88 00
	00 00		 mov	 DWORD PTR accumbits$20810[rsp], eax

; 822  :                 assert(accumbits < PyLong_SHIFT);

  003b2	83 bc 24 88 00
	00 00 1e	 cmp	 DWORD PTR accumbits$20810[rsp], 30
  003ba	72 1c		 jb	 SHORT $LN25@PyLong_Fro@5
  003bc	41 b8 36 03 00
	00		 mov	 r8d, 822		; 00000336H
  003c2	48 8d 15 00 00
	00 00		 lea	 rdx, OFFSET FLAT:??_C@_1DA@PBBNJFBE@?$AA?4?$AA?4?$AA?2?$AAO?$AAb?$AAj?$AAe?$AAc?$AAt?$AAs?$AA?2?$AAl?$AAo?$AAn?$AAg?$AAo?$AAb?$AAj?$AAe?$AAc?$AAt?$AA?4?$AAc?$AA?$AA@
  003c9	48 8d 0d 00 00
	00 00		 lea	 rcx, OFFSET FLAT:??_C@_1DC@JIKGJNGJ@?$AAa?$AAc?$AAc?$AAu?$AAm?$AAb?$AAi?$AAt?$AAs?$AA?5?$AA?$DM?$AA?5?$AAP?$AAy?$AAL?$AAo?$AAn?$AAg?$AA_?$AAS?$AAH?$AAI?$AAF?$AAT?$AA?$AA@
  003d0	ff 15 00 00 00
	00		 call	 QWORD PTR __imp__wassert
  003d6	33 c0		 xor	 eax, eax
$LN25@PyLong_Fro@5:
$LN2@PyLong_Fro@5:

; 823  :             }
; 824  :         }

  003d8	e9 78 fe ff ff	 jmp	 $LN5@PyLong_Fro@5
$LN4@PyLong_Fro@5:

; 825  :         assert(accumbits < PyLong_SHIFT);

  003dd	83 bc 24 88 00
	00 00 1e	 cmp	 DWORD PTR accumbits$20810[rsp], 30
  003e5	72 1c		 jb	 SHORT $LN26@PyLong_Fro@5
  003e7	41 b8 39 03 00
	00		 mov	 r8d, 825		; 00000339H
  003ed	48 8d 15 00 00
	00 00		 lea	 rdx, OFFSET FLAT:??_C@_1DA@PBBNJFBE@?$AA?4?$AA?4?$AA?2?$AAO?$AAb?$AAj?$AAe?$AAc?$AAt?$AAs?$AA?2?$AAl?$AAo?$AAn?$AAg?$AAo?$AAb?$AAj?$AAe?$AAc?$AAt?$AA?4?$AAc?$AA?$AA@
  003f4	48 8d 0d 00 00
	00 00		 lea	 rcx, OFFSET FLAT:??_C@_1DC@JIKGJNGJ@?$AAa?$AAc?$AAc?$AAu?$AAm?$AAb?$AAi?$AAt?$AAs?$AA?5?$AA?$DM?$AA?5?$AAP?$AAy?$AAL?$AAo?$AAn?$AAg?$AA_?$AAS?$AAH?$AAI?$AAF?$AAT?$AA?$AA@
  003fb	ff 15 00 00 00
	00		 call	 QWORD PTR __imp__wassert
  00401	33 c0		 xor	 eax, eax
$LN26@PyLong_Fro@5:

; 826  :         if (accumbits) {

  00403	83 bc 24 88 00
	00 00 00	 cmp	 DWORD PTR accumbits$20810[rsp], 0
  0040b	74 4a		 je	 SHORT $LN1@PyLong_Fro@5

; 827  :             assert(idigit < ndigits);

  0040d	48 8b 44 24 48	 mov	 rax, QWORD PTR ndigits$[rsp]
  00412	48 39 44 24 30	 cmp	 QWORD PTR idigit$[rsp], rax
  00417	7c 1c		 jl	 SHORT $LN27@PyLong_Fro@5
  00419	41 b8 3b 03 00
	00		 mov	 r8d, 827		; 0000033bH
  0041f	48 8d 15 00 00
	00 00		 lea	 rdx, OFFSET FLAT:??_C@_1DA@PBBNJFBE@?$AA?4?$AA?4?$AA?2?$AAO?$AAb?$AAj?$AAe?$AAc?$AAt?$AAs?$AA?2?$AAl?$AAo?$AAn?$AAg?$AAo?$AAb?$AAj?$AAe?$AAc?$AAt?$AA?4?$AAc?$AA?$AA@
  00426	48 8d 0d 00 00
	00 00		 lea	 rcx, OFFSET FLAT:??_C@_1CC@MDCGJMOK@?$AAi?$AAd?$AAi?$AAg?$AAi?$AAt?$AA?5?$AA?$DM?$AA?5?$AAn?$AAd?$AAi?$AAg?$AAi?$AAt?$AAs?$AA?$AA@
  0042d	ff 15 00 00 00
	00		 call	 QWORD PTR __imp__wassert
  00433	33 c0		 xor	 eax, eax
$LN27@PyLong_Fro@5:

; 828  :             v->ob_digit[idigit] = (digit)accum;

  00435	48 8b 44 24 20	 mov	 rax, QWORD PTR v$[rsp]
  0043a	48 8b 4c 24 30	 mov	 rcx, QWORD PTR idigit$[rsp]
  0043f	8b 94 24 90 00
	00 00		 mov	 edx, DWORD PTR accum$20809[rsp]
  00446	89 54 88 70	 mov	 DWORD PTR [rax+rcx*4+112], edx

; 829  :             ++idigit;

  0044a	48 8b 44 24 30	 mov	 rax, QWORD PTR idigit$[rsp]
  0044f	48 ff c0	 inc	 rax
  00452	48 89 44 24 30	 mov	 QWORD PTR idigit$[rsp], rax
$LN1@PyLong_Fro@5:

; 830  :         }
; 831  :     }
; 832  : 
; 833  :     Py_SIZE(v) = is_signed ? -idigit : idigit;

  00457	83 bc 24 e8 00
	00 00 00	 cmp	 DWORD PTR is_signed$[rsp], 0
  0045f	74 12		 je	 SHORT $LN28@PyLong_Fro@5
  00461	48 8b 44 24 30	 mov	 rax, QWORD PTR idigit$[rsp]
  00466	48 f7 d8	 neg	 rax
  00469	48 89 84 24 b0
	00 00 00	 mov	 QWORD PTR tv183[rsp], rax
  00471	eb 0d		 jmp	 SHORT $LN29@PyLong_Fro@5
$LN28@PyLong_Fro@5:
  00473	48 8b 44 24 30	 mov	 rax, QWORD PTR idigit$[rsp]
  00478	48 89 84 24 b0
	00 00 00	 mov	 QWORD PTR tv183[rsp], rax
$LN29@PyLong_Fro@5:
  00480	48 8b 44 24 20	 mov	 rax, QWORD PTR v$[rsp]
  00485	48 8b 8c 24 b0
	00 00 00	 mov	 rcx, QWORD PTR tv183[rsp]
  0048d	48 89 48 60	 mov	 QWORD PTR [rax+96], rcx

; 834  :     return (PyObject *)long_normalize(v);

  00491	48 8b 4c 24 20	 mov	 rcx, QWORD PTR v$[rsp]
  00496	e8 00 00 00 00	 call	 long_normalize
$LN18@PyLong_Fro@5:

; 835  : }

  0049b	48 81 c4 c8 00
	00 00		 add	 rsp, 200		; 000000c8H
  004a2	c3		 ret	 0
_PyLong_FromByteArray ENDP
_TEXT	ENDS
;	COMDAT pdata
pdata	SEGMENT
$pdata$long_normalize DD imagerel long_normalize
	DD	imagerel long_normalize+179
	DD	imagerel $unwind$long_normalize
pdata	ENDS
;	COMDAT xdata
xdata	SEGMENT
$unwind$long_normalize DD 010901H
	DD	04209H
; Function compile flags: /Odtp
xdata	ENDS
;	COMDAT long_normalize
_TEXT	SEGMENT
i$ = 0
j$ = 8
tv69 = 16
tv82 = 24
v$ = 48
long_normalize PROC					; COMDAT

; 108  : {

  00000	48 89 4c 24 08	 mov	 QWORD PTR [rsp+8], rcx
  00005	48 83 ec 28	 sub	 rsp, 40			; 00000028H

; 109  :     Py_ssize_t j = ABS(Py_SIZE(v));

  00009	48 8b 44 24 30	 mov	 rax, QWORD PTR v$[rsp]
  0000e	48 83 78 60 00	 cmp	 QWORD PTR [rax+96], 0
  00013	7d 13		 jge	 SHORT $LN6@long_norma
  00015	48 8b 44 24 30	 mov	 rax, QWORD PTR v$[rsp]
  0001a	48 8b 40 60	 mov	 rax, QWORD PTR [rax+96]
  0001e	48 f7 d8	 neg	 rax
  00021	48 89 44 24 10	 mov	 QWORD PTR tv69[rsp], rax
  00026	eb 0e		 jmp	 SHORT $LN7@long_norma
$LN6@long_norma:
  00028	48 8b 44 24 30	 mov	 rax, QWORD PTR v$[rsp]
  0002d	48 8b 40 60	 mov	 rax, QWORD PTR [rax+96]
  00031	48 89 44 24 10	 mov	 QWORD PTR tv69[rsp], rax
$LN7@long_norma:
  00036	48 8b 44 24 10	 mov	 rax, QWORD PTR tv69[rsp]
  0003b	48 89 44 24 08	 mov	 QWORD PTR j$[rsp], rax

; 110  :     Py_ssize_t i = j;

  00040	48 8b 44 24 08	 mov	 rax, QWORD PTR j$[rsp]
  00045	48 89 04 24	 mov	 QWORD PTR i$[rsp], rax
$LN3@long_norma:

; 111  : 
; 112  :     while (i > 0 && v->ob_digit[i-1] == 0)

  00049	48 83 3c 24 00	 cmp	 QWORD PTR i$[rsp], 0
  0004e	7e 1d		 jle	 SHORT $LN2@long_norma
  00050	48 8b 44 24 30	 mov	 rax, QWORD PTR v$[rsp]
  00055	48 8b 0c 24	 mov	 rcx, QWORD PTR i$[rsp]
  00059	83 7c 88 6c 00	 cmp	 DWORD PTR [rax+rcx*4+108], 0
  0005e	75 0d		 jne	 SHORT $LN2@long_norma

; 113  :         --i;

  00060	48 8b 04 24	 mov	 rax, QWORD PTR i$[rsp]
  00064	48 ff c8	 dec	 rax
  00067	48 89 04 24	 mov	 QWORD PTR i$[rsp], rax
  0006b	eb dc		 jmp	 SHORT $LN3@long_norma
$LN2@long_norma:

; 114  :     if (i != j)

  0006d	48 8b 44 24 08	 mov	 rax, QWORD PTR j$[rsp]
  00072	48 39 04 24	 cmp	 QWORD PTR i$[rsp], rax
  00076	74 31		 je	 SHORT $LN1@long_norma

; 115  :         Py_SIZE(v) = (Py_SIZE(v) < 0) ? -(i) : i;

  00078	48 8b 44 24 30	 mov	 rax, QWORD PTR v$[rsp]
  0007d	48 83 78 60 00	 cmp	 QWORD PTR [rax+96], 0
  00082	7d 0e		 jge	 SHORT $LN8@long_norma
  00084	48 8b 04 24	 mov	 rax, QWORD PTR i$[rsp]
  00088	48 f7 d8	 neg	 rax
  0008b	48 89 44 24 18	 mov	 QWORD PTR tv82[rsp], rax
  00090	eb 09		 jmp	 SHORT $LN9@long_norma
$LN8@long_norma:
  00092	48 8b 04 24	 mov	 rax, QWORD PTR i$[rsp]
  00096	48 89 44 24 18	 mov	 QWORD PTR tv82[rsp], rax
$LN9@long_norma:
  0009b	48 8b 44 24 30	 mov	 rax, QWORD PTR v$[rsp]
  000a0	48 8b 4c 24 18	 mov	 rcx, QWORD PTR tv82[rsp]
  000a5	48 89 48 60	 mov	 QWORD PTR [rax+96], rcx
$LN1@long_norma:

; 116  :     return v;

  000a9	48 8b 44 24 30	 mov	 rax, QWORD PTR v$[rsp]

; 117  : }

  000ae	48 83 c4 28	 add	 rsp, 40			; 00000028H
  000b2	c3		 ret	 0
long_normalize ENDP
_TEXT	ENDS
PUBLIC	??_C@_0BH@KCBHMDHM@int?5too?5big?5to?5convert?$AA@ ; `string'
PUBLIC	??_C@_1BO@COLFMDIL@?$AAa?$AAc?$AAc?$AAu?$AAm?$AAb?$AAi?$AAt?$AAs?$AA?5?$AA?$DN?$AA?$DN?$AA?5?$AA0?$AA?$AA@ ; `string'
PUBLIC	??_C@_1BG@NKCMNFPP@?$AAc?$AAa?$AAr?$AAr?$AAy?$AA?5?$AA?$DN?$AA?$DN?$AA?5?$AA0?$AA?$AA@ ; `string'
PUBLIC	??_C@_1BM@CMHCCDBJ@?$AAa?$AAc?$AAc?$AAu?$AAm?$AAb?$AAi?$AAt?$AAs?$AA?5?$AA?$DM?$AA?5?$AA8?$AA?$AA@ ; `string'
PUBLIC	??_C@_0CH@PHDOCLKE@can?8t?5convert?5negative?5int?5to?5un@ ; `string'
PUBLIC	??_C@_1DK@LBNDCCEL@?$AAv?$AA?5?$AA?$CB?$AA?$DN?$AA?5?$AAN?$AAU?$AAL?$AAL?$AA?5?$AA?$CG?$AA?$CG?$AA?5?$AAP?$AAy?$AAL?$AAo?$AAn?$AAg?$AA_?$AAC?$AAh?$AAe?$AAc?$AAk?$AA?$CI?$AAv?$AA?$CJ?$AA?$AA@ ; `string'
PUBLIC	_PyLong_AsByteArray
;	COMDAT pdata
pdata	SEGMENT
$pdata$_PyLong_AsByteArray DD imagerel $LN43
	DD	imagerel $LN43+1254
	DD	imagerel $unwind$_PyLong_AsByteArray
pdata	ENDS
;	COMDAT xdata
xdata	SEGMENT
$unwind$_PyLong_AsByteArray DD 021b01H
	DD	013011bH
xdata	ENDS
;	COMDAT ??_C@_0BH@KCBHMDHM@int?5too?5big?5to?5convert?$AA@
CONST	SEGMENT
??_C@_0BH@KCBHMDHM@int?5too?5big?5to?5convert?$AA@ DB 'int too big to con'
	DB	'vert', 00H					; `string'
CONST	ENDS
;	COMDAT ??_C@_1BO@COLFMDIL@?$AAa?$AAc?$AAc?$AAu?$AAm?$AAb?$AAi?$AAt?$AAs?$AA?5?$AA?$DN?$AA?$DN?$AA?5?$AA0?$AA?$AA@
CONST	SEGMENT
??_C@_1BO@COLFMDIL@?$AAa?$AAc?$AAc?$AAu?$AAm?$AAb?$AAi?$AAt?$AAs?$AA?5?$AA?$DN?$AA?$DN?$AA?5?$AA0?$AA?$AA@ DB 'a'
	DB	00H, 'c', 00H, 'c', 00H, 'u', 00H, 'm', 00H, 'b', 00H, 'i', 00H
	DB	't', 00H, 's', 00H, ' ', 00H, '=', 00H, '=', 00H, ' ', 00H, '0'
	DB	00H, 00H, 00H				; `string'
CONST	ENDS
;	COMDAT ??_C@_1BG@NKCMNFPP@?$AAc?$AAa?$AAr?$AAr?$AAy?$AA?5?$AA?$DN?$AA?$DN?$AA?5?$AA0?$AA?$AA@
CONST	SEGMENT
??_C@_1BG@NKCMNFPP@?$AAc?$AAa?$AAr?$AAr?$AAy?$AA?5?$AA?$DN?$AA?$DN?$AA?5?$AA0?$AA?$AA@ DB 'c'
	DB	00H, 'a', 00H, 'r', 00H, 'r', 00H, 'y', 00H, ' ', 00H, '=', 00H
	DB	'=', 00H, ' ', 00H, '0', 00H, 00H, 00H	; `string'
CONST	ENDS
;	COMDAT ??_C@_1BM@CMHCCDBJ@?$AAa?$AAc?$AAc?$AAu?$AAm?$AAb?$AAi?$AAt?$AAs?$AA?5?$AA?$DM?$AA?5?$AA8?$AA?$AA@
CONST	SEGMENT
??_C@_1BM@CMHCCDBJ@?$AAa?$AAc?$AAc?$AAu?$AAm?$AAb?$AAi?$AAt?$AAs?$AA?5?$AA?$DM?$AA?5?$AA8?$AA?$AA@ DB 'a'
	DB	00H, 'c', 00H, 'c', 00H, 'u', 00H, 'm', 00H, 'b', 00H, 'i', 00H
	DB	't', 00H, 's', 00H, ' ', 00H, '<', 00H, ' ', 00H, '8', 00H, 00H
	DB	00H						; `string'
CONST	ENDS
;	COMDAT ??_C@_0CH@PHDOCLKE@can?8t?5convert?5negative?5int?5to?5un@
CONST	SEGMENT
??_C@_0CH@PHDOCLKE@can?8t?5convert?5negative?5int?5to?5un@ DB 'can''t con'
	DB	'vert negative int to unsigned', 00H		; `string'
CONST	ENDS
;	COMDAT ??_C@_1DK@LBNDCCEL@?$AAv?$AA?5?$AA?$CB?$AA?$DN?$AA?5?$AAN?$AAU?$AAL?$AAL?$AA?5?$AA?$CG?$AA?$CG?$AA?5?$AAP?$AAy?$AAL?$AAo?$AAn?$AAg?$AA_?$AAC?$AAh?$AAe?$AAc?$AAk?$AA?$CI?$AAv?$AA?$CJ?$AA?$AA@
CONST	SEGMENT
??_C@_1DK@LBNDCCEL@?$AAv?$AA?5?$AA?$CB?$AA?$DN?$AA?5?$AAN?$AAU?$AAL?$AAL?$AA?5?$AA?$CG?$AA?$CG?$AA?5?$AAP?$AAy?$AAL?$AAo?$AAn?$AAg?$AA_?$AAC?$AAh?$AAe?$AAc?$AAk?$AA?$CI?$AAv?$AA?$CJ?$AA?$AA@ DB 'v'
	DB	00H, ' ', 00H, '!', 00H, '=', 00H, ' ', 00H, 'N', 00H, 'U', 00H
	DB	'L', 00H, 'L', 00H, ' ', 00H, '&', 00H, '&', 00H, ' ', 00H, 'P'
	DB	00H, 'y', 00H, 'L', 00H, 'o', 00H, 'n', 00H, 'g', 00H, '_', 00H
	DB	'C', 00H, 'h', 00H, 'e', 00H, 'c', 00H, 'k', 00H, '(', 00H, 'v'
	DB	00H, ')', 00H, 00H, 00H			; `string'
; Function compile flags: /Odtp
CONST	ENDS
;	COMDAT _PyLong_AsByteArray
_TEXT	SEGMENT
p$ = 32
do_twos_comp$ = 40
i$ = 48
pincr$ = 56
accumbits$ = 60
carry$ = 64
accum$ = 72
ndigits$ = 80
j$ = 88
thisdigit$20869 = 96
s$20877 = 100
msb$20901 = 104
sign_bit_set$20902 = 108
signbyte$20907 = 112
tv95 = 116
tv145 = 120
tv252 = 128
tv186 = 136
tv194 = 140
v$ = 160
bytes$ = 168
n$ = 176
little_endian$ = 184
is_signed$ = 192
_PyLong_AsByteArray PROC				; COMDAT

; 841  : {

$LN43:
  00000	44 89 4c 24 20	 mov	 DWORD PTR [rsp+32], r9d
  00005	4c 89 44 24 18	 mov	 QWORD PTR [rsp+24], r8
  0000a	48 89 54 24 10	 mov	 QWORD PTR [rsp+16], rdx
  0000f	48 89 4c 24 08	 mov	 QWORD PTR [rsp+8], rcx
  00014	48 81 ec 98 00
	00 00		 sub	 rsp, 152		; 00000098H

; 842  :     Py_ssize_t i;               /* index into v->ob_digit */
; 843  :     Py_ssize_t ndigits;         /* |v->ob_size| */
; 844  :     twodigits accum;            /* sliding register */
; 845  :     unsigned int accumbits;     /* # bits in accum */
; 846  :     int do_twos_comp;           /* store 2's-comp?  is_signed and v < 0 */
; 847  :     digit carry;                /* for computing 2's-comp */
; 848  :     size_t j;                   /* # bytes filled */
; 849  :     unsigned char* p;           /* pointer to next byte in bytes */
; 850  :     int pincr;                  /* direction to move p */
; 851  : 
; 852  :     assert(v != NULL && PyLong_Check(v));

  0001b	48 83 bc 24 a0
	00 00 00 00	 cmp	 QWORD PTR v$[rsp], 0
  00024	74 1b		 je	 SHORT $LN29@PyLong_AsB
  00026	48 8b 84 24 a0
	00 00 00	 mov	 rax, QWORD PTR v$[rsp]
  0002e	48 8b 40 58	 mov	 rax, QWORD PTR [rax+88]
  00032	8b 80 00 01 00
	00		 mov	 eax, DWORD PTR [rax+256]
  00038	25 00 00 00 01	 and	 eax, 16777216		; 01000000H
  0003d	85 c0		 test	 eax, eax
  0003f	75 1c		 jne	 SHORT $LN30@PyLong_AsB
$LN29@PyLong_AsB:
  00041	41 b8 54 03 00
	00		 mov	 r8d, 852		; 00000354H
  00047	48 8d 15 00 00
	00 00		 lea	 rdx, OFFSET FLAT:??_C@_1DA@PBBNJFBE@?$AA?4?$AA?4?$AA?2?$AAO?$AAb?$AAj?$AAe?$AAc?$AAt?$AAs?$AA?2?$AAl?$AAo?$AAn?$AAg?$AAo?$AAb?$AAj?$AAe?$AAc?$AAt?$AA?4?$AAc?$AA?$AA@
  0004e	48 8d 0d 00 00
	00 00		 lea	 rcx, OFFSET FLAT:??_C@_1DK@LBNDCCEL@?$AAv?$AA?5?$AA?$CB?$AA?$DN?$AA?5?$AAN?$AAU?$AAL?$AAL?$AA?5?$AA?$CG?$AA?$CG?$AA?5?$AAP?$AAy?$AAL?$AAo?$AAn?$AAg?$AA_?$AAC?$AAh?$AAe?$AAc?$AAk?$AA?$CI?$AAv?$AA?$CJ?$AA?$AA@
  00055	ff 15 00 00 00
	00		 call	 QWORD PTR __imp__wassert
  0005b	33 c0		 xor	 eax, eax
$LN30@PyLong_AsB:

; 853  : 
; 854  :     if (Py_SIZE(v) < 0) {

  0005d	48 8b 84 24 a0
	00 00 00	 mov	 rax, QWORD PTR v$[rsp]
  00065	48 83 78 60 00	 cmp	 QWORD PTR [rax+96], 0
  0006a	7d 45		 jge	 SHORT $LN26@PyLong_AsB

; 855  :         ndigits = -(Py_SIZE(v));

  0006c	48 8b 84 24 a0
	00 00 00	 mov	 rax, QWORD PTR v$[rsp]
  00074	48 8b 40 60	 mov	 rax, QWORD PTR [rax+96]
  00078	48 f7 d8	 neg	 rax
  0007b	48 89 44 24 50	 mov	 QWORD PTR ndigits$[rsp], rax

; 856  :         if (!is_signed) {

  00080	83 bc 24 c0 00
	00 00 00	 cmp	 DWORD PTR is_signed$[rsp], 0
  00088	75 1d		 jne	 SHORT $LN25@PyLong_AsB

; 857  :             PyErr_SetString(PyExc_OverflowError,
; 858  :                             "can't convert negative int to unsigned");

  0008a	48 8d 15 00 00
	00 00		 lea	 rdx, OFFSET FLAT:??_C@_0CH@PHDOCLKE@can?8t?5convert?5negative?5int?5to?5un@
  00091	48 8b 0d 00 00
	00 00		 mov	 rcx, QWORD PTR PyExc_OverflowError
  00098	e8 00 00 00 00	 call	 PyErr_SetString

; 859  :             return -1;

  0009d	b8 ff ff ff ff	 mov	 eax, -1
  000a2	e9 37 04 00 00	 jmp	 $LN27@PyLong_AsB
$LN25@PyLong_AsB:

; 860  :         }
; 861  :         do_twos_comp = 1;

  000a7	c7 44 24 28 01
	00 00 00	 mov	 DWORD PTR do_twos_comp$[rsp], 1

; 862  :     }
; 863  :     else {

  000af	eb 19		 jmp	 SHORT $LN24@PyLong_AsB
$LN26@PyLong_AsB:

; 864  :         ndigits = Py_SIZE(v);

  000b1	48 8b 84 24 a0
	00 00 00	 mov	 rax, QWORD PTR v$[rsp]
  000b9	48 8b 40 60	 mov	 rax, QWORD PTR [rax+96]
  000bd	48 89 44 24 50	 mov	 QWORD PTR ndigits$[rsp], rax

; 865  :         do_twos_comp = 0;

  000c2	c7 44 24 28 00
	00 00 00	 mov	 DWORD PTR do_twos_comp$[rsp], 0
$LN24@PyLong_AsB:

; 866  :     }
; 867  : 
; 868  :     if (little_endian) {

  000ca	83 bc 24 b8 00
	00 00 00	 cmp	 DWORD PTR little_endian$[rsp], 0
  000d2	74 17		 je	 SHORT $LN23@PyLong_AsB

; 869  :         p = bytes;

  000d4	48 8b 84 24 a8
	00 00 00	 mov	 rax, QWORD PTR bytes$[rsp]
  000dc	48 89 44 24 20	 mov	 QWORD PTR p$[rsp], rax

; 870  :         pincr = 1;

  000e1	c7 44 24 38 01
	00 00 00	 mov	 DWORD PTR pincr$[rsp], 1

; 871  :     }
; 872  :     else {

  000e9	eb 22		 jmp	 SHORT $LN22@PyLong_AsB
$LN23@PyLong_AsB:

; 873  :         p = bytes + n - 1;

  000eb	48 8b 84 24 a8
	00 00 00	 mov	 rax, QWORD PTR bytes$[rsp]
  000f3	48 8b 8c 24 b0
	00 00 00	 mov	 rcx, QWORD PTR n$[rsp]
  000fb	48 8d 44 08 ff	 lea	 rax, QWORD PTR [rax+rcx-1]
  00100	48 89 44 24 20	 mov	 QWORD PTR p$[rsp], rax

; 874  :         pincr = -1;

  00105	c7 44 24 38 ff
	ff ff ff	 mov	 DWORD PTR pincr$[rsp], -1
$LN22@PyLong_AsB:

; 875  :     }
; 876  : 
; 877  :     /* Copy over all the Python digits.
; 878  :        It's crucial that every Python digit except for the MSD contribute
; 879  :        exactly PyLong_SHIFT bits to the total, so first assert that the int is
; 880  :        normalized. */
; 881  :     assert(ndigits == 0 || v->ob_digit[ndigits - 1] != 0);

  0010d	48 83 7c 24 50
	00		 cmp	 QWORD PTR ndigits$[rsp], 0
  00113	74 30		 je	 SHORT $LN31@PyLong_AsB
  00115	48 8b 84 24 a0
	00 00 00	 mov	 rax, QWORD PTR v$[rsp]
  0011d	48 8b 4c 24 50	 mov	 rcx, QWORD PTR ndigits$[rsp]
  00122	83 7c 88 6c 00	 cmp	 DWORD PTR [rax+rcx*4+108], 0
  00127	75 1c		 jne	 SHORT $LN31@PyLong_AsB
  00129	41 b8 71 03 00
	00		 mov	 r8d, 881		; 00000371H
  0012f	48 8d 15 00 00
	00 00		 lea	 rdx, OFFSET FLAT:??_C@_1DA@PBBNJFBE@?$AA?4?$AA?4?$AA?2?$AAO?$AAb?$AAj?$AAe?$AAc?$AAt?$AAs?$AA?2?$AAl?$AAo?$AAn?$AAg?$AAo?$AAb?$AAj?$AAe?$AAc?$AAt?$AA?4?$AAc?$AA?$AA@
  00136	48 8d 0d 00 00
	00 00		 lea	 rcx, OFFSET FLAT:??_C@_1FM@BMOIEENO@?$AAn?$AAd?$AAi?$AAg?$AAi?$AAt?$AAs?$AA?5?$AA?$DN?$AA?$DN?$AA?5?$AA0?$AA?5?$AA?$HM?$AA?$HM?$AA?5?$AAv?$AA?9?$AA?$DO?$AAo?$AAb?$AA_?$AAd?$AAi?$AAg?$AAi?$AAt?$AA?$FL?$AAn?$AAd?$AAi?$AAg@
  0013d	ff 15 00 00 00
	00		 call	 QWORD PTR __imp__wassert
  00143	33 c0		 xor	 eax, eax
$LN31@PyLong_AsB:

; 882  :     j = 0;

  00145	48 c7 44 24 58
	00 00 00 00	 mov	 QWORD PTR j$[rsp], 0

; 883  :     accum = 0;

  0014e	48 c7 44 24 48
	00 00 00 00	 mov	 QWORD PTR accum$[rsp], 0

; 884  :     accumbits = 0;

  00157	c7 44 24 3c 00
	00 00 00	 mov	 DWORD PTR accumbits$[rsp], 0

; 885  :     carry = do_twos_comp ? 1 : 0;

  0015f	83 7c 24 28 00	 cmp	 DWORD PTR do_twos_comp$[rsp], 0
  00164	74 0a		 je	 SHORT $LN32@PyLong_AsB
  00166	c7 44 24 74 01
	00 00 00	 mov	 DWORD PTR tv95[rsp], 1
  0016e	eb 08		 jmp	 SHORT $LN33@PyLong_AsB
$LN32@PyLong_AsB:
  00170	c7 44 24 74 00
	00 00 00	 mov	 DWORD PTR tv95[rsp], 0
$LN33@PyLong_AsB:
  00178	8b 44 24 74	 mov	 eax, DWORD PTR tv95[rsp]
  0017c	89 44 24 40	 mov	 DWORD PTR carry$[rsp], eax

; 886  :     for (i = 0; i < ndigits; ++i) {

  00180	48 c7 44 24 30
	00 00 00 00	 mov	 QWORD PTR i$[rsp], 0
  00189	eb 0d		 jmp	 SHORT $LN21@PyLong_AsB
$LN20@PyLong_AsB:
  0018b	48 8b 44 24 30	 mov	 rax, QWORD PTR i$[rsp]
  00190	48 ff c0	 inc	 rax
  00193	48 89 44 24 30	 mov	 QWORD PTR i$[rsp], rax
$LN21@PyLong_AsB:
  00198	48 8b 44 24 50	 mov	 rax, QWORD PTR ndigits$[rsp]
  0019d	48 39 44 24 30	 cmp	 QWORD PTR i$[rsp], rax
  001a2	0f 8d 2e 01 00
	00		 jge	 $LN19@PyLong_AsB

; 887  :         digit thisdigit = v->ob_digit[i];

  001a8	48 8b 84 24 a0
	00 00 00	 mov	 rax, QWORD PTR v$[rsp]
  001b0	48 8b 4c 24 30	 mov	 rcx, QWORD PTR i$[rsp]
  001b5	8b 44 88 70	 mov	 eax, DWORD PTR [rax+rcx*4+112]
  001b9	89 44 24 60	 mov	 DWORD PTR thisdigit$20869[rsp], eax

; 888  :         if (do_twos_comp) {

  001bd	83 7c 24 28 00	 cmp	 DWORD PTR do_twos_comp$[rsp], 0
  001c2	74 29		 je	 SHORT $LN18@PyLong_AsB

; 889  :             thisdigit = (thisdigit ^ PyLong_MASK) + carry;

  001c4	8b 44 24 60	 mov	 eax, DWORD PTR thisdigit$20869[rsp]
  001c8	35 ff ff ff 3f	 xor	 eax, 1073741823		; 3fffffffH
  001cd	03 44 24 40	 add	 eax, DWORD PTR carry$[rsp]
  001d1	89 44 24 60	 mov	 DWORD PTR thisdigit$20869[rsp], eax

; 890  :             carry = thisdigit >> PyLong_SHIFT;

  001d5	8b 44 24 60	 mov	 eax, DWORD PTR thisdigit$20869[rsp]
  001d9	c1 e8 1e	 shr	 eax, 30
  001dc	89 44 24 40	 mov	 DWORD PTR carry$[rsp], eax

; 891  :             thisdigit &= PyLong_MASK;

  001e0	8b 44 24 60	 mov	 eax, DWORD PTR thisdigit$20869[rsp]
  001e4	25 ff ff ff 3f	 and	 eax, 1073741823		; 3fffffffH
  001e9	89 44 24 60	 mov	 DWORD PTR thisdigit$20869[rsp], eax
$LN18@PyLong_AsB:

; 892  :         }
; 893  :         /* Because we're going LSB to MSB, thisdigit is more
; 894  :            significant than what's already in accum, so needs to be
; 895  :            prepended to accum. */
; 896  :         accum |= (twodigits)thisdigit << accumbits;

  001ed	8b 44 24 60	 mov	 eax, DWORD PTR thisdigit$20869[rsp]
  001f1	8b 4c 24 3c	 mov	 ecx, DWORD PTR accumbits$[rsp]
  001f5	48 d3 e0	 shl	 rax, cl
  001f8	48 8b 4c 24 48	 mov	 rcx, QWORD PTR accum$[rsp]
  001fd	48 0b c8	 or	 rcx, rax
  00200	48 8b c1	 mov	 rax, rcx
  00203	48 89 44 24 48	 mov	 QWORD PTR accum$[rsp], rax

; 897  : 
; 898  :         /* The most-significant digit may be (probably is) at least
; 899  :            partly empty. */
; 900  :         if (i == ndigits - 1) {

  00208	48 8b 44 24 50	 mov	 rax, QWORD PTR ndigits$[rsp]
  0020d	48 ff c8	 dec	 rax
  00210	48 39 44 24 30	 cmp	 QWORD PTR i$[rsp], rax
  00215	75 45		 jne	 SHORT $LN17@PyLong_AsB

; 901  :             /* Count # of sign bits -- they needn't be stored,
; 902  :              * although for signed conversion we need later to
; 903  :              * make sure at least one sign bit gets stored. */
; 904  :             digit s = do_twos_comp ? thisdigit ^ PyLong_MASK : thisdigit;

  00217	83 7c 24 28 00	 cmp	 DWORD PTR do_twos_comp$[rsp], 0
  0021c	74 0f		 je	 SHORT $LN34@PyLong_AsB
  0021e	8b 44 24 60	 mov	 eax, DWORD PTR thisdigit$20869[rsp]
  00222	35 ff ff ff 3f	 xor	 eax, 1073741823		; 3fffffffH
  00227	89 44 24 78	 mov	 DWORD PTR tv145[rsp], eax
  0022b	eb 08		 jmp	 SHORT $LN35@PyLong_AsB
$LN34@PyLong_AsB:
  0022d	8b 44 24 60	 mov	 eax, DWORD PTR thisdigit$20869[rsp]
  00231	89 44 24 78	 mov	 DWORD PTR tv145[rsp], eax
$LN35@PyLong_AsB:
  00235	8b 44 24 78	 mov	 eax, DWORD PTR tv145[rsp]
  00239	89 44 24 64	 mov	 DWORD PTR s$20877[rsp], eax
$LN16@PyLong_AsB:

; 905  :             while (s != 0) {

  0023d	83 7c 24 64 00	 cmp	 DWORD PTR s$20877[rsp], 0
  00242	74 16		 je	 SHORT $LN15@PyLong_AsB

; 906  :                 s >>= 1;

  00244	8b 44 24 64	 mov	 eax, DWORD PTR s$20877[rsp]
  00248	d1 e8		 shr	 eax, 1
  0024a	89 44 24 64	 mov	 DWORD PTR s$20877[rsp], eax

; 907  :                 accumbits++;

  0024e	8b 44 24 3c	 mov	 eax, DWORD PTR accumbits$[rsp]
  00252	ff c0		 inc	 eax
  00254	89 44 24 3c	 mov	 DWORD PTR accumbits$[rsp], eax

; 908  :             }

  00258	eb e3		 jmp	 SHORT $LN16@PyLong_AsB
$LN15@PyLong_AsB:

; 909  :         }
; 910  :         else

  0025a	eb 0b		 jmp	 SHORT $LN14@PyLong_AsB
$LN17@PyLong_AsB:

; 911  :             accumbits += PyLong_SHIFT;

  0025c	8b 44 24 3c	 mov	 eax, DWORD PTR accumbits$[rsp]
  00260	83 c0 1e	 add	 eax, 30
  00263	89 44 24 3c	 mov	 DWORD PTR accumbits$[rsp], eax
$LN14@PyLong_AsB:
$LN13@PyLong_AsB:

; 912  : 
; 913  :         /* Store as many bytes as possible. */
; 914  :         while (accumbits >= 8) {

  00267	83 7c 24 3c 08	 cmp	 DWORD PTR accumbits$[rsp], 8
  0026c	72 63		 jb	 SHORT $LN12@PyLong_AsB

; 915  :             if (j >= n)

  0026e	48 8b 84 24 b0
	00 00 00	 mov	 rax, QWORD PTR n$[rsp]
  00276	48 39 44 24 58	 cmp	 QWORD PTR j$[rsp], rax
  0027b	72 05		 jb	 SHORT $LN11@PyLong_AsB

; 916  :                 goto Overflow;

  0027d	e9 44 02 00 00	 jmp	 $Overflow$20888
$LN11@PyLong_AsB:

; 917  :             ++j;

  00282	48 8b 44 24 58	 mov	 rax, QWORD PTR j$[rsp]
  00287	48 ff c0	 inc	 rax
  0028a	48 89 44 24 58	 mov	 QWORD PTR j$[rsp], rax

; 918  :             *p = (unsigned char)(accum & 0xff);

  0028f	48 8b 44 24 48	 mov	 rax, QWORD PTR accum$[rsp]
  00294	48 25 ff 00 00
	00		 and	 rax, 255		; 000000ffH
  0029a	48 8b 4c 24 20	 mov	 rcx, QWORD PTR p$[rsp]
  0029f	88 01		 mov	 BYTE PTR [rcx], al

; 919  :             p += pincr;

  002a1	48 63 44 24 38	 movsxd	 rax, DWORD PTR pincr$[rsp]
  002a6	48 8b 4c 24 20	 mov	 rcx, QWORD PTR p$[rsp]
  002ab	48 03 c8	 add	 rcx, rax
  002ae	48 8b c1	 mov	 rax, rcx
  002b1	48 89 44 24 20	 mov	 QWORD PTR p$[rsp], rax

; 920  :             accumbits -= 8;

  002b6	8b 44 24 3c	 mov	 eax, DWORD PTR accumbits$[rsp]
  002ba	83 e8 08	 sub	 eax, 8
  002bd	89 44 24 3c	 mov	 DWORD PTR accumbits$[rsp], eax

; 921  :             accum >>= 8;

  002c1	48 8b 44 24 48	 mov	 rax, QWORD PTR accum$[rsp]
  002c6	48 c1 e8 08	 shr	 rax, 8
  002ca	48 89 44 24 48	 mov	 QWORD PTR accum$[rsp], rax

; 922  :         }

  002cf	eb 96		 jmp	 SHORT $LN13@PyLong_AsB
$LN12@PyLong_AsB:

; 923  :     }

  002d1	e9 b5 fe ff ff	 jmp	 $LN20@PyLong_AsB
$LN19@PyLong_AsB:

; 924  : 
; 925  :     /* Store the straggler (if any). */
; 926  :     assert(accumbits < 8);

  002d6	83 7c 24 3c 08	 cmp	 DWORD PTR accumbits$[rsp], 8
  002db	72 1c		 jb	 SHORT $LN36@PyLong_AsB
  002dd	41 b8 9e 03 00
	00		 mov	 r8d, 926		; 0000039eH
  002e3	48 8d 15 00 00
	00 00		 lea	 rdx, OFFSET FLAT:??_C@_1DA@PBBNJFBE@?$AA?4?$AA?4?$AA?2?$AAO?$AAb?$AAj?$AAe?$AAc?$AAt?$AAs?$AA?2?$AAl?$AAo?$AAn?$AAg?$AAo?$AAb?$AAj?$AAe?$AAc?$AAt?$AA?4?$AAc?$AA?$AA@
  002ea	48 8d 0d 00 00
	00 00		 lea	 rcx, OFFSET FLAT:??_C@_1BM@CMHCCDBJ@?$AAa?$AAc?$AAc?$AAu?$AAm?$AAb?$AAi?$AAt?$AAs?$AA?5?$AA?$DM?$AA?5?$AA8?$AA?$AA@
  002f1	ff 15 00 00 00
	00		 call	 QWORD PTR __imp__wassert
  002f7	33 c0		 xor	 eax, eax
$LN36@PyLong_AsB:

; 927  :     assert(carry == 0);  /* else do_twos_comp and *every* digit was 0 */

  002f9	83 7c 24 40 00	 cmp	 DWORD PTR carry$[rsp], 0
  002fe	74 1c		 je	 SHORT $LN37@PyLong_AsB
  00300	41 b8 9f 03 00
	00		 mov	 r8d, 927		; 0000039fH
  00306	48 8d 15 00 00
	00 00		 lea	 rdx, OFFSET FLAT:??_C@_1DA@PBBNJFBE@?$AA?4?$AA?4?$AA?2?$AAO?$AAb?$AAj?$AAe?$AAc?$AAt?$AAs?$AA?2?$AAl?$AAo?$AAn?$AAg?$AAo?$AAb?$AAj?$AAe?$AAc?$AAt?$AA?4?$AAc?$AA?$AA@
  0030d	48 8d 0d 00 00
	00 00		 lea	 rcx, OFFSET FLAT:??_C@_1BG@NKCMNFPP@?$AAc?$AAa?$AAr?$AAr?$AAy?$AA?5?$AA?$DN?$AA?$DN?$AA?5?$AA0?$AA?$AA@
  00314	ff 15 00 00 00
	00		 call	 QWORD PTR __imp__wassert
  0031a	33 c0		 xor	 eax, eax
$LN37@PyLong_AsB:

; 928  :     if (accumbits > 0) {

  0031c	83 7c 24 3c 00	 cmp	 DWORD PTR accumbits$[rsp], 0
  00321	0f 86 85 00 00
	00		 jbe	 $LN10@PyLong_AsB

; 929  :         if (j >= n)

  00327	48 8b 84 24 b0
	00 00 00	 mov	 rax, QWORD PTR n$[rsp]
  0032f	48 39 44 24 58	 cmp	 QWORD PTR j$[rsp], rax
  00334	72 05		 jb	 SHORT $LN9@PyLong_AsB

; 930  :             goto Overflow;

  00336	e9 8b 01 00 00	 jmp	 $Overflow$20888
$LN9@PyLong_AsB:

; 931  :         ++j;

  0033b	48 8b 44 24 58	 mov	 rax, QWORD PTR j$[rsp]
  00340	48 ff c0	 inc	 rax
  00343	48 89 44 24 58	 mov	 QWORD PTR j$[rsp], rax

; 932  :         if (do_twos_comp) {

  00348	83 7c 24 28 00	 cmp	 DWORD PTR do_twos_comp$[rsp], 0
  0034d	74 31		 je	 SHORT $LN8@PyLong_AsB

; 933  :             /* Fill leading bits of the byte with sign bits
; 934  :                (appropriately pretending that the int had an
; 935  :                infinite supply of sign bits). */
; 936  :             accum |= (~(twodigits)0) << accumbits;

  0034f	8b 44 24 3c	 mov	 eax, DWORD PTR accumbits$[rsp]
  00353	48 c7 c1 ff ff
	ff ff		 mov	 rcx, -1
  0035a	48 89 8c 24 80
	00 00 00	 mov	 QWORD PTR tv252[rsp], rcx
  00362	0f b6 c8	 movzx	 ecx, al
  00365	48 8b 84 24 80
	00 00 00	 mov	 rax, QWORD PTR tv252[rsp]
  0036d	48 d3 e0	 shl	 rax, cl
  00370	48 8b 4c 24 48	 mov	 rcx, QWORD PTR accum$[rsp]
  00375	48 0b c8	 or	 rcx, rax
  00378	48 8b c1	 mov	 rax, rcx
  0037b	48 89 44 24 48	 mov	 QWORD PTR accum$[rsp], rax
$LN8@PyLong_AsB:

; 937  :         }
; 938  :         *p = (unsigned char)(accum & 0xff);

  00380	48 8b 44 24 48	 mov	 rax, QWORD PTR accum$[rsp]
  00385	48 25 ff 00 00
	00		 and	 rax, 255		; 000000ffH
  0038b	48 8b 4c 24 20	 mov	 rcx, QWORD PTR p$[rsp]
  00390	88 01		 mov	 BYTE PTR [rcx], al

; 939  :         p += pincr;

  00392	48 63 44 24 38	 movsxd	 rax, DWORD PTR pincr$[rsp]
  00397	48 8b 4c 24 20	 mov	 rcx, QWORD PTR p$[rsp]
  0039c	48 03 c8	 add	 rcx, rax
  0039f	48 8b c1	 mov	 rax, rcx
  003a2	48 89 44 24 20	 mov	 QWORD PTR p$[rsp], rax
  003a7	e9 aa 00 00 00	 jmp	 $LN7@PyLong_AsB
$LN10@PyLong_AsB:

; 940  :     }
; 941  :     else if (j == n && n > 0 && is_signed) {

  003ac	48 8b 84 24 b0
	00 00 00	 mov	 rax, QWORD PTR n$[rsp]
  003b4	48 39 44 24 58	 cmp	 QWORD PTR j$[rsp], rax
  003b9	0f 85 97 00 00
	00		 jne	 $LN6@PyLong_AsB
  003bf	48 83 bc 24 b0
	00 00 00 00	 cmp	 QWORD PTR n$[rsp], 0
  003c8	0f 86 88 00 00
	00		 jbe	 $LN6@PyLong_AsB
  003ce	83 bc 24 c0 00
	00 00 00	 cmp	 DWORD PTR is_signed$[rsp], 0
  003d6	74 7e		 je	 SHORT $LN6@PyLong_AsB

; 942  :         /* The main loop filled the byte array exactly, so the code
; 943  :            just above didn't get to ensure there's a sign bit, and the
; 944  :            loop below wouldn't add one either.  Make sure a sign bit
; 945  :            exists. */
; 946  :         unsigned char msb = *(p - pincr);

  003d8	48 63 44 24 38	 movsxd	 rax, DWORD PTR pincr$[rsp]
  003dd	48 8b 4c 24 20	 mov	 rcx, QWORD PTR p$[rsp]
  003e2	48 2b c8	 sub	 rcx, rax
  003e5	48 8b c1	 mov	 rax, rcx
  003e8	0f b6 00	 movzx	 eax, BYTE PTR [rax]
  003eb	88 44 24 68	 mov	 BYTE PTR msb$20901[rsp], al

; 947  :         int sign_bit_set = msb >= 0x80;

  003ef	0f b6 44 24 68	 movzx	 eax, BYTE PTR msb$20901[rsp]
  003f4	3d 80 00 00 00	 cmp	 eax, 128		; 00000080H
  003f9	7c 0d		 jl	 SHORT $LN38@PyLong_AsB
  003fb	c7 84 24 88 00
	00 00 01 00 00
	00		 mov	 DWORD PTR tv186[rsp], 1
  00406	eb 0b		 jmp	 SHORT $LN39@PyLong_AsB
$LN38@PyLong_AsB:
  00408	c7 84 24 88 00
	00 00 00 00 00
	00		 mov	 DWORD PTR tv186[rsp], 0
$LN39@PyLong_AsB:
  00413	8b 84 24 88 00
	00 00		 mov	 eax, DWORD PTR tv186[rsp]
  0041a	89 44 24 6c	 mov	 DWORD PTR sign_bit_set$20902[rsp], eax

; 948  :         assert(accumbits == 0);

  0041e	83 7c 24 3c 00	 cmp	 DWORD PTR accumbits$[rsp], 0
  00423	74 1c		 je	 SHORT $LN40@PyLong_AsB
  00425	41 b8 b4 03 00
	00		 mov	 r8d, 948		; 000003b4H
  0042b	48 8d 15 00 00
	00 00		 lea	 rdx, OFFSET FLAT:??_C@_1DA@PBBNJFBE@?$AA?4?$AA?4?$AA?2?$AAO?$AAb?$AAj?$AAe?$AAc?$AAt?$AAs?$AA?2?$AAl?$AAo?$AAn?$AAg?$AAo?$AAb?$AAj?$AAe?$AAc?$AAt?$AA?4?$AAc?$AA?$AA@
  00432	48 8d 0d 00 00
	00 00		 lea	 rcx, OFFSET FLAT:??_C@_1BO@COLFMDIL@?$AAa?$AAc?$AAc?$AAu?$AAm?$AAb?$AAi?$AAt?$AAs?$AA?5?$AA?$DN?$AA?$DN?$AA?5?$AA0?$AA?$AA@
  00439	ff 15 00 00 00
	00		 call	 QWORD PTR __imp__wassert
  0043f	33 c0		 xor	 eax, eax
$LN40@PyLong_AsB:

; 949  :         if (sign_bit_set == do_twos_comp)

  00441	8b 44 24 28	 mov	 eax, DWORD PTR do_twos_comp$[rsp]
  00445	39 44 24 6c	 cmp	 DWORD PTR sign_bit_set$20902[rsp], eax
  00449	75 09		 jne	 SHORT $LN5@PyLong_AsB

; 950  :             return 0;

  0044b	33 c0		 xor	 eax, eax
  0044d	e9 8c 00 00 00	 jmp	 $LN27@PyLong_AsB

; 951  :         else

  00452	eb 02		 jmp	 SHORT $LN4@PyLong_AsB
$LN5@PyLong_AsB:

; 952  :             goto Overflow;

  00454	eb 70		 jmp	 SHORT $Overflow$20888
$LN4@PyLong_AsB:
$LN6@PyLong_AsB:
$LN7@PyLong_AsB:

; 953  :     }
; 954  : 
; 955  :     /* Fill remaining bytes with copies of the sign bit. */
; 956  :     {
; 957  :         unsigned char signbyte = do_twos_comp ? 0xffU : 0U;

  00456	83 7c 24 28 00	 cmp	 DWORD PTR do_twos_comp$[rsp], 0
  0045b	74 0d		 je	 SHORT $LN41@PyLong_AsB
  0045d	c7 84 24 8c 00
	00 00 ff 00 00
	00		 mov	 DWORD PTR tv194[rsp], 255 ; 000000ffH
  00468	eb 0b		 jmp	 SHORT $LN42@PyLong_AsB
$LN41@PyLong_AsB:
  0046a	c7 84 24 8c 00
	00 00 00 00 00
	00		 mov	 DWORD PTR tv194[rsp], 0
$LN42@PyLong_AsB:
  00475	0f b6 84 24 8c
	00 00 00	 movzx	 eax, BYTE PTR tv194[rsp]
  0047d	88 44 24 70	 mov	 BYTE PTR signbyte$20907[rsp], al

; 958  :         for ( ; j < n; ++j, p += pincr)

  00481	eb 22		 jmp	 SHORT $LN3@PyLong_AsB
$LN2@PyLong_AsB:
  00483	48 8b 44 24 58	 mov	 rax, QWORD PTR j$[rsp]
  00488	48 ff c0	 inc	 rax
  0048b	48 89 44 24 58	 mov	 QWORD PTR j$[rsp], rax
  00490	48 63 44 24 38	 movsxd	 rax, DWORD PTR pincr$[rsp]
  00495	48 8b 4c 24 20	 mov	 rcx, QWORD PTR p$[rsp]
  0049a	48 03 c8	 add	 rcx, rax
  0049d	48 8b c1	 mov	 rax, rcx
  004a0	48 89 44 24 20	 mov	 QWORD PTR p$[rsp], rax
$LN3@PyLong_AsB:
  004a5	48 8b 84 24 b0
	00 00 00	 mov	 rax, QWORD PTR n$[rsp]
  004ad	48 39 44 24 58	 cmp	 QWORD PTR j$[rsp], rax
  004b2	73 0e		 jae	 SHORT $LN1@PyLong_AsB

; 959  :             *p = signbyte;

  004b4	48 8b 44 24 20	 mov	 rax, QWORD PTR p$[rsp]
  004b9	0f b6 4c 24 70	 movzx	 ecx, BYTE PTR signbyte$20907[rsp]
  004be	88 08		 mov	 BYTE PTR [rax], cl
  004c0	eb c1		 jmp	 SHORT $LN2@PyLong_AsB
$LN1@PyLong_AsB:

; 960  :     }
; 961  : 
; 962  :     return 0;

  004c2	33 c0		 xor	 eax, eax
  004c4	eb 18		 jmp	 SHORT $LN27@PyLong_AsB
$Overflow$20888:

; 963  : 
; 964  :   Overflow:
; 965  :     PyErr_SetString(PyExc_OverflowError, "int too big to convert");

  004c6	48 8d 15 00 00
	00 00		 lea	 rdx, OFFSET FLAT:??_C@_0BH@KCBHMDHM@int?5too?5big?5to?5convert?$AA@
  004cd	48 8b 0d 00 00
	00 00		 mov	 rcx, QWORD PTR PyExc_OverflowError
  004d4	e8 00 00 00 00	 call	 PyErr_SetString

; 966  :     return -1;

  004d9	b8 ff ff ff ff	 mov	 eax, -1
$LN27@PyLong_AsB:

; 967  : 
; 968  : }

  004de	48 81 c4 98 00
	00 00		 add	 rsp, 152		; 00000098H
  004e5	c3		 ret	 0
_PyLong_AsByteArray ENDP
_TEXT	ENDS
PUBLIC	PyLong_FromUnsignedLongLong
PUBLIC	PyLong_FromVoidPtr
;	COMDAT pdata
pdata	SEGMENT
$pdata$PyLong_FromVoidPtr DD imagerel $LN4
	DD	imagerel $LN4+41
	DD	imagerel $unwind$PyLong_FromVoidPtr
pdata	ENDS
;	COMDAT xdata
xdata	SEGMENT
$unwind$PyLong_FromVoidPtr DD 010901H
	DD	04209H
; Function compile flags: /Odtp
xdata	ENDS
;	COMDAT PyLong_FromVoidPtr
_TEXT	SEGMENT
p$ = 48
PyLong_FromVoidPtr PROC					; COMDAT

; 974  : {

$LN4:
  00000	48 89 4c 24 08	 mov	 QWORD PTR [rsp+8], rcx
  00005	48 83 ec 28	 sub	 rsp, 40			; 00000028H

; 975  : #if SIZEOF_VOID_P <= SIZEOF_LONG
; 976  :     /* special-case null pointer */
; 977  :     if (!p)
; 978  :         return PyLong_FromLong(0);
; 979  :     return PyLong_FromUnsignedLong((unsigned long)(Py_uintptr_t)p);
; 980  : #else
; 981  : 
; 982  : #ifndef HAVE_LONG_LONG
; 983  : #   error "PyLong_FromVoidPtr: sizeof(void*) > sizeof(long), but no long long"
; 984  : #endif
; 985  : #if SIZEOF_LONG_LONG < SIZEOF_VOID_P
; 986  : #   error "PyLong_FromVoidPtr: sizeof(PY_LONG_LONG) < sizeof(void*)"
; 987  : #endif
; 988  :     /* special-case null pointer */
; 989  :     if (!p)

  00009	48 83 7c 24 30
	00		 cmp	 QWORD PTR p$[rsp], 0
  0000f	75 09		 jne	 SHORT $LN1@PyLong_Fro@6

; 990  :         return PyLong_FromLong(0);

  00011	33 c9		 xor	 ecx, ecx
  00013	e8 00 00 00 00	 call	 PyLong_FromLong
  00018	eb 0a		 jmp	 SHORT $LN2@PyLong_Fro@6
$LN1@PyLong_Fro@6:

; 991  :     return PyLong_FromUnsignedLongLong((unsigned PY_LONG_LONG)(Py_uintptr_t)p);

  0001a	48 8b 4c 24 30	 mov	 rcx, QWORD PTR p$[rsp]
  0001f	e8 00 00 00 00	 call	 PyLong_FromUnsignedLongLong
$LN2@PyLong_Fro@6:

; 992  : #endif /* SIZEOF_VOID_P <= SIZEOF_LONG */
; 993  : 
; 994  : }

  00024	48 83 c4 28	 add	 rsp, 40			; 00000028H
  00028	c3		 ret	 0
PyLong_FromVoidPtr ENDP
_TEXT	ENDS
PUBLIC	PyLong_AsUnsignedLongLong
PUBLIC	PyLong_AsLongLong
PUBLIC	PyLong_AsVoidPtr
EXTRN	PyErr_Occurred:PROC
;	COMDAT pdata
pdata	SEGMENT
$pdata$PyLong_AsVoidPtr DD imagerel $LN6
	DD	imagerel $LN6+111
	DD	imagerel $unwind$PyLong_AsVoidPtr
pdata	ENDS
;	COMDAT xdata
xdata	SEGMENT
$unwind$PyLong_AsVoidPtr DD 010901H
	DD	06209H
; Function compile flags: /Odtp
xdata	ENDS
;	COMDAT PyLong_AsVoidPtr
_TEXT	SEGMENT
x$ = 32
vv$ = 64
PyLong_AsVoidPtr PROC					; COMDAT

; 1000 : {

$LN6:
  00000	48 89 4c 24 08	 mov	 QWORD PTR [rsp+8], rcx
  00005	48 83 ec 38	 sub	 rsp, 56			; 00000038H

; 1001 : #if SIZEOF_VOID_P <= SIZEOF_LONG
; 1002 :     long x;
; 1003 : 
; 1004 :     if (PyLong_Check(vv) && _PyLong_Sign(vv) < 0)
; 1005 :         x = PyLong_AsLong(vv);
; 1006 :     else
; 1007 :         x = PyLong_AsUnsignedLong(vv);
; 1008 : #else
; 1009 : 
; 1010 : #ifndef HAVE_LONG_LONG
; 1011 : #   error "PyLong_AsVoidPtr: sizeof(void*) > sizeof(long), but no long long"
; 1012 : #endif
; 1013 : #if SIZEOF_LONG_LONG < SIZEOF_VOID_P
; 1014 : #   error "PyLong_AsVoidPtr: sizeof(PY_LONG_LONG) < sizeof(void*)"
; 1015 : #endif
; 1016 :     PY_LONG_LONG x;
; 1017 : 
; 1018 :     if (PyLong_Check(vv) && _PyLong_Sign(vv) < 0)

  00009	48 8b 44 24 40	 mov	 rax, QWORD PTR vv$[rsp]
  0000e	48 8b 40 58	 mov	 rax, QWORD PTR [rax+88]
  00012	8b 80 00 01 00
	00		 mov	 eax, DWORD PTR [rax+256]
  00018	25 00 00 00 01	 and	 eax, 16777216		; 01000000H
  0001d	85 c0		 test	 eax, eax
  0001f	74 1f		 je	 SHORT $LN3@PyLong_AsV
  00021	48 8b 4c 24 40	 mov	 rcx, QWORD PTR vv$[rsp]
  00026	e8 00 00 00 00	 call	 _PyLong_Sign
  0002b	85 c0		 test	 eax, eax
  0002d	7d 11		 jge	 SHORT $LN3@PyLong_AsV

; 1019 :         x = PyLong_AsLongLong(vv);

  0002f	48 8b 4c 24 40	 mov	 rcx, QWORD PTR vv$[rsp]
  00034	e8 00 00 00 00	 call	 PyLong_AsLongLong
  00039	48 89 44 24 20	 mov	 QWORD PTR x$[rsp], rax

; 1020 :     else

  0003e	eb 0f		 jmp	 SHORT $LN2@PyLong_AsV
$LN3@PyLong_AsV:

; 1021 :         x = PyLong_AsUnsignedLongLong(vv);

  00040	48 8b 4c 24 40	 mov	 rcx, QWORD PTR vv$[rsp]
  00045	e8 00 00 00 00	 call	 PyLong_AsUnsignedLongLong
  0004a	48 89 44 24 20	 mov	 QWORD PTR x$[rsp], rax
$LN2@PyLong_AsV:

; 1022 : 
; 1023 : #endif /* SIZEOF_VOID_P <= SIZEOF_LONG */
; 1024 : 
; 1025 :     if (x == -1 && PyErr_Occurred())

  0004f	48 83 7c 24 20
	ff		 cmp	 QWORD PTR x$[rsp], -1
  00055	75 0e		 jne	 SHORT $LN1@PyLong_AsV
  00057	e8 00 00 00 00	 call	 PyErr_Occurred
  0005c	48 85 c0	 test	 rax, rax
  0005f	74 04		 je	 SHORT $LN1@PyLong_AsV

; 1026 :         return NULL;

  00061	33 c0		 xor	 eax, eax
  00063	eb 05		 jmp	 SHORT $LN4@PyLong_AsV
$LN1@PyLong_AsV:

; 1027 :     return (void *)x;

  00065	48 8b 44 24 20	 mov	 rax, QWORD PTR x$[rsp]
$LN4@PyLong_AsV:

; 1028 : }

  0006a	48 83 c4 38	 add	 rsp, 56			; 00000038H
  0006e	c3		 ret	 0
PyLong_AsVoidPtr ENDP
_TEXT	ENDS
PUBLIC	PyLong_FromLongLong
;	COMDAT pdata
pdata	SEGMENT
$pdata$PyLong_FromLongLong DD imagerel $LN16
	DD	imagerel $LN16+313
	DD	imagerel $unwind$PyLong_FromLongLong
pdata	ENDS
;	COMDAT xdata
xdata	SEGMENT
$unwind$PyLong_FromLongLong DD 010901H
	DD	0c209H
; Function compile flags: /Odtp
xdata	ENDS
;	COMDAT PyLong_FromLongLong
_TEXT	SEGMENT
negative$ = 32
v$ = 40
abs_ival$ = 48
ndigits$ = 56
t$ = 64
p$20952 = 72
tv83 = 80
ival$ = 112
PyLong_FromLongLong PROC				; COMDAT

; 1043 : {

$LN16:
  00000	48 89 4c 24 08	 mov	 QWORD PTR [rsp+8], rcx
  00005	48 83 ec 68	 sub	 rsp, 104		; 00000068H

; 1044 :     PyLongObject *v;
; 1045 :     unsigned PY_LONG_LONG abs_ival;
; 1046 :     unsigned PY_LONG_LONG t;  /* unsigned so >> doesn't propagate sign bit */
; 1047 :     int ndigits = 0;

  00009	c7 44 24 38 00
	00 00 00	 mov	 DWORD PTR ndigits$[rsp], 0

; 1048 :     int negative = 0;

  00011	c7 44 24 20 00
	00 00 00	 mov	 DWORD PTR negative$[rsp], 0
$LN11@PyLong_Fro@7:

; 1049 : 
; 1050 :     CHECK_SMALL_INT(ival);

  00019	48 83 7c 24 70
	fb		 cmp	 QWORD PTR ival$[rsp], -5
  0001f	7c 19		 jl	 SHORT $LN8@PyLong_Fro@7
  00021	48 81 7c 24 70
	01 01 00 00	 cmp	 QWORD PTR ival$[rsp], 257 ; 00000101H
  0002a	7d 0e		 jge	 SHORT $LN8@PyLong_Fro@7
  0002c	8b 4c 24 70	 mov	 ecx, DWORD PTR ival$[rsp]
  00030	e8 00 00 00 00	 call	 get_small_int
  00035	e9 fa 00 00 00	 jmp	 $LN12@PyLong_Fro@7
$LN8@PyLong_Fro@7:
  0003a	33 c0		 xor	 eax, eax
  0003c	85 c0		 test	 eax, eax
  0003e	75 d9		 jne	 SHORT $LN11@PyLong_Fro@7

; 1051 :     if (ival < 0) {

  00040	48 83 7c 24 70
	00		 cmp	 QWORD PTR ival$[rsp], 0
  00046	7d 1e		 jge	 SHORT $LN7@PyLong_Fro@7

; 1052 :         /* avoid signed overflow on negation;  see comments
; 1053 :            in PyLong_FromLong above. */
; 1054 :         abs_ival = (unsigned PY_LONG_LONG)(-1-ival) + 1;

  00048	48 c7 c0 ff ff
	ff ff		 mov	 rax, -1
  0004f	48 2b 44 24 70	 sub	 rax, QWORD PTR ival$[rsp]
  00054	48 ff c0	 inc	 rax
  00057	48 89 44 24 30	 mov	 QWORD PTR abs_ival$[rsp], rax

; 1055 :         negative = 1;

  0005c	c7 44 24 20 01
	00 00 00	 mov	 DWORD PTR negative$[rsp], 1

; 1056 :     }
; 1057 :     else {

  00064	eb 0a		 jmp	 SHORT $LN6@PyLong_Fro@7
$LN7@PyLong_Fro@7:

; 1058 :         abs_ival = (unsigned PY_LONG_LONG)ival;

  00066	48 8b 44 24 70	 mov	 rax, QWORD PTR ival$[rsp]
  0006b	48 89 44 24 30	 mov	 QWORD PTR abs_ival$[rsp], rax
$LN6@PyLong_Fro@7:

; 1059 :     }
; 1060 : 
; 1061 :     /* Count the number of Python digits.
; 1062 :        We used to pick 5 ("big enough for anything"), but that's a
; 1063 :        waste of time and space given that 5*15 = 75 bits are rarely
; 1064 :        needed. */
; 1065 :     t = abs_ival;

  00070	48 8b 44 24 30	 mov	 rax, QWORD PTR abs_ival$[rsp]
  00075	48 89 44 24 40	 mov	 QWORD PTR t$[rsp], rax
$LN5@PyLong_Fro@7:

; 1066 :     while (t) {

  0007a	48 83 7c 24 40
	00		 cmp	 QWORD PTR t$[rsp], 0
  00080	74 1a		 je	 SHORT $LN4@PyLong_Fro@7

; 1067 :         ++ndigits;

  00082	8b 44 24 38	 mov	 eax, DWORD PTR ndigits$[rsp]
  00086	ff c0		 inc	 eax
  00088	89 44 24 38	 mov	 DWORD PTR ndigits$[rsp], eax

; 1068 :         t >>= PyLong_SHIFT;

  0008c	48 8b 44 24 40	 mov	 rax, QWORD PTR t$[rsp]
  00091	48 c1 e8 1e	 shr	 rax, 30
  00095	48 89 44 24 40	 mov	 QWORD PTR t$[rsp], rax

; 1069 :     }

  0009a	eb de		 jmp	 SHORT $LN5@PyLong_Fro@7
$LN4@PyLong_Fro@7:

; 1070 :     v = _PyLong_New(ndigits);

  0009c	48 63 44 24 38	 movsxd	 rax, DWORD PTR ndigits$[rsp]
  000a1	48 8b c8	 mov	 rcx, rax
  000a4	e8 00 00 00 00	 call	 _PyLong_New
  000a9	48 89 44 24 28	 mov	 QWORD PTR v$[rsp], rax

; 1071 :     if (v != NULL) {

  000ae	48 83 7c 24 28
	00		 cmp	 QWORD PTR v$[rsp], 0
  000b4	74 79		 je	 SHORT $LN3@PyLong_Fro@7

; 1072 :         digit *p = v->ob_digit;

  000b6	48 8b 44 24 28	 mov	 rax, QWORD PTR v$[rsp]
  000bb	48 83 c0 70	 add	 rax, 112		; 00000070H
  000bf	48 89 44 24 48	 mov	 QWORD PTR p$20952[rsp], rax

; 1073 :         Py_SIZE(v) = negative ? -ndigits : ndigits;

  000c4	83 7c 24 20 00	 cmp	 DWORD PTR negative$[rsp], 0
  000c9	74 0c		 je	 SHORT $LN14@PyLong_Fro@7
  000cb	8b 44 24 38	 mov	 eax, DWORD PTR ndigits$[rsp]
  000cf	f7 d8		 neg	 eax
  000d1	89 44 24 50	 mov	 DWORD PTR tv83[rsp], eax
  000d5	eb 08		 jmp	 SHORT $LN15@PyLong_Fro@7
$LN14@PyLong_Fro@7:
  000d7	8b 44 24 38	 mov	 eax, DWORD PTR ndigits$[rsp]
  000db	89 44 24 50	 mov	 DWORD PTR tv83[rsp], eax
$LN15@PyLong_Fro@7:
  000df	48 63 44 24 50	 movsxd	 rax, DWORD PTR tv83[rsp]
  000e4	48 8b 4c 24 28	 mov	 rcx, QWORD PTR v$[rsp]
  000e9	48 89 41 60	 mov	 QWORD PTR [rcx+96], rax

; 1074 :         t = abs_ival;

  000ed	48 8b 44 24 30	 mov	 rax, QWORD PTR abs_ival$[rsp]
  000f2	48 89 44 24 40	 mov	 QWORD PTR t$[rsp], rax
$LN2@PyLong_Fro@7:

; 1075 :         while (t) {

  000f7	48 83 7c 24 40
	00		 cmp	 QWORD PTR t$[rsp], 0
  000fd	74 30		 je	 SHORT $LN1@PyLong_Fro@7

; 1076 :             *p++ = (digit)(t & PyLong_MASK);

  000ff	48 8b 44 24 40	 mov	 rax, QWORD PTR t$[rsp]
  00104	48 25 ff ff ff
	3f		 and	 rax, 1073741823		; 3fffffffH
  0010a	48 8b 4c 24 48	 mov	 rcx, QWORD PTR p$20952[rsp]
  0010f	89 01		 mov	 DWORD PTR [rcx], eax
  00111	48 8b 44 24 48	 mov	 rax, QWORD PTR p$20952[rsp]
  00116	48 83 c0 04	 add	 rax, 4
  0011a	48 89 44 24 48	 mov	 QWORD PTR p$20952[rsp], rax

; 1077 :             t >>= PyLong_SHIFT;

  0011f	48 8b 44 24 40	 mov	 rax, QWORD PTR t$[rsp]
  00124	48 c1 e8 1e	 shr	 rax, 30
  00128	48 89 44 24 40	 mov	 QWORD PTR t$[rsp], rax

; 1078 :         }

  0012d	eb c8		 jmp	 SHORT $LN2@PyLong_Fro@7
$LN1@PyLong_Fro@7:
$LN3@PyLong_Fro@7:

; 1079 :     }
; 1080 :     return (PyObject *)v;

  0012f	48 8b 44 24 28	 mov	 rax, QWORD PTR v$[rsp]
$LN12@PyLong_Fro@7:

; 1081 : }

  00134	48 83 c4 68	 add	 rsp, 104		; 00000068H
  00138	c3		 ret	 0
PyLong_FromLongLong ENDP
_TEXT	ENDS
;	COMDAT pdata
pdata	SEGMENT
$pdata$PyLong_FromUnsignedLongLong DD imagerel $LN9
	DD	imagerel $LN9+206
	DD	imagerel $unwind$PyLong_FromUnsignedLongLong
pdata	ENDS
;	COMDAT xdata
xdata	SEGMENT
$unwind$PyLong_FromUnsignedLongLong DD 010901H
	DD	08209H
; Function compile flags: /Odtp
xdata	ENDS
;	COMDAT PyLong_FromUnsignedLongLong
_TEXT	SEGMENT
v$ = 32
ndigits$ = 40
t$ = 48
p$20976 = 56
ival$ = 80
PyLong_FromUnsignedLongLong PROC			; COMDAT

; 1087 : {

$LN9:
  00000	48 89 4c 24 08	 mov	 QWORD PTR [rsp+8], rcx
  00005	48 83 ec 48	 sub	 rsp, 72			; 00000048H

; 1088 :     PyLongObject *v;
; 1089 :     unsigned PY_LONG_LONG t;
; 1090 :     int ndigits = 0;

  00009	c7 44 24 28 00
	00 00 00	 mov	 DWORD PTR ndigits$[rsp], 0

; 1091 : 
; 1092 :     if (ival < PyLong_BASE)

  00011	48 81 7c 24 50
	00 00 00 40	 cmp	 QWORD PTR ival$[rsp], 1073741824 ; 40000000H
  0001a	73 0e		 jae	 SHORT $LN6@PyLong_Fro@8

; 1093 :         return PyLong_FromLong((long)ival);

  0001c	8b 4c 24 50	 mov	 ecx, DWORD PTR ival$[rsp]
  00020	e8 00 00 00 00	 call	 PyLong_FromLong
  00025	e9 9f 00 00 00	 jmp	 $LN7@PyLong_Fro@8
$LN6@PyLong_Fro@8:

; 1094 :     /* Count the number of Python digits. */
; 1095 :     t = (unsigned PY_LONG_LONG)ival;

  0002a	48 8b 44 24 50	 mov	 rax, QWORD PTR ival$[rsp]
  0002f	48 89 44 24 30	 mov	 QWORD PTR t$[rsp], rax
$LN5@PyLong_Fro@8:

; 1096 :     while (t) {

  00034	48 83 7c 24 30
	00		 cmp	 QWORD PTR t$[rsp], 0
  0003a	74 1a		 je	 SHORT $LN4@PyLong_Fro@8

; 1097 :         ++ndigits;

  0003c	8b 44 24 28	 mov	 eax, DWORD PTR ndigits$[rsp]
  00040	ff c0		 inc	 eax
  00042	89 44 24 28	 mov	 DWORD PTR ndigits$[rsp], eax

; 1098 :         t >>= PyLong_SHIFT;

  00046	48 8b 44 24 30	 mov	 rax, QWORD PTR t$[rsp]
  0004b	48 c1 e8 1e	 shr	 rax, 30
  0004f	48 89 44 24 30	 mov	 QWORD PTR t$[rsp], rax

; 1099 :     }

  00054	eb de		 jmp	 SHORT $LN5@PyLong_Fro@8
$LN4@PyLong_Fro@8:

; 1100 :     v = _PyLong_New(ndigits);

  00056	48 63 44 24 28	 movsxd	 rax, DWORD PTR ndigits$[rsp]
  0005b	48 8b c8	 mov	 rcx, rax
  0005e	e8 00 00 00 00	 call	 _PyLong_New
  00063	48 89 44 24 20	 mov	 QWORD PTR v$[rsp], rax

; 1101 :     if (v != NULL) {

  00068	48 83 7c 24 20
	00		 cmp	 QWORD PTR v$[rsp], 0
  0006e	74 54		 je	 SHORT $LN3@PyLong_Fro@8

; 1102 :         digit *p = v->ob_digit;

  00070	48 8b 44 24 20	 mov	 rax, QWORD PTR v$[rsp]
  00075	48 83 c0 70	 add	 rax, 112		; 00000070H
  00079	48 89 44 24 38	 mov	 QWORD PTR p$20976[rsp], rax

; 1103 :         Py_SIZE(v) = ndigits;

  0007e	48 63 44 24 28	 movsxd	 rax, DWORD PTR ndigits$[rsp]
  00083	48 8b 4c 24 20	 mov	 rcx, QWORD PTR v$[rsp]
  00088	48 89 41 60	 mov	 QWORD PTR [rcx+96], rax
$LN2@PyLong_Fro@8:

; 1104 :         while (ival) {

  0008c	48 83 7c 24 50
	00		 cmp	 QWORD PTR ival$[rsp], 0
  00092	74 30		 je	 SHORT $LN1@PyLong_Fro@8

; 1105 :             *p++ = (digit)(ival & PyLong_MASK);

  00094	48 8b 44 24 50	 mov	 rax, QWORD PTR ival$[rsp]
  00099	48 25 ff ff ff
	3f		 and	 rax, 1073741823		; 3fffffffH
  0009f	48 8b 4c 24 38	 mov	 rcx, QWORD PTR p$20976[rsp]
  000a4	89 01		 mov	 DWORD PTR [rcx], eax
  000a6	48 8b 44 24 38	 mov	 rax, QWORD PTR p$20976[rsp]
  000ab	48 83 c0 04	 add	 rax, 4
  000af	48 89 44 24 38	 mov	 QWORD PTR p$20976[rsp], rax

; 1106 :             ival >>= PyLong_SHIFT;

  000b4	48 8b 44 24 50	 mov	 rax, QWORD PTR ival$[rsp]
  000b9	48 c1 e8 1e	 shr	 rax, 30
  000bd	48 89 44 24 50	 mov	 QWORD PTR ival$[rsp], rax

; 1107 :         }

  000c2	eb c8		 jmp	 SHORT $LN2@PyLong_Fro@8
$LN1@PyLong_Fro@8:
$LN3@PyLong_Fro@8:

; 1108 :     }
; 1109 :     return (PyObject *)v;

  000c4	48 8b 44 24 20	 mov	 rax, QWORD PTR v$[rsp]
$LN7@PyLong_Fro@8:

; 1110 : }

  000c9	48 83 c4 48	 add	 rsp, 72			; 00000048H
  000cd	c3		 ret	 0
PyLong_FromUnsignedLongLong ENDP
_TEXT	ENDS
PUBLIC	PyLong_FromSsize_t
;	COMDAT pdata
pdata	SEGMENT
$pdata$PyLong_FromSsize_t DD imagerel $LN16
	DD	imagerel $LN16+313
	DD	imagerel $unwind$PyLong_FromSsize_t
pdata	ENDS
;	COMDAT xdata
xdata	SEGMENT
$unwind$PyLong_FromSsize_t DD 010901H
	DD	0c209H
; Function compile flags: /Odtp
xdata	ENDS
;	COMDAT PyLong_FromSsize_t
_TEXT	SEGMENT
negative$ = 32
v$ = 40
abs_ival$ = 48
ndigits$ = 56
t$ = 64
p$21007 = 72
tv83 = 80
ival$ = 112
PyLong_FromSsize_t PROC					; COMDAT

; 1116 : {

$LN16:
  00000	48 89 4c 24 08	 mov	 QWORD PTR [rsp+8], rcx
  00005	48 83 ec 68	 sub	 rsp, 104		; 00000068H

; 1117 :     PyLongObject *v;
; 1118 :     size_t abs_ival;
; 1119 :     size_t t;  /* unsigned so >> doesn't propagate sign bit */
; 1120 :     int ndigits = 0;

  00009	c7 44 24 38 00
	00 00 00	 mov	 DWORD PTR ndigits$[rsp], 0

; 1121 :     int negative = 0;

  00011	c7 44 24 20 00
	00 00 00	 mov	 DWORD PTR negative$[rsp], 0
$LN11@PyLong_Fro@9:

; 1122 : 
; 1123 :     CHECK_SMALL_INT(ival);

  00019	48 83 7c 24 70
	fb		 cmp	 QWORD PTR ival$[rsp], -5
  0001f	7c 19		 jl	 SHORT $LN8@PyLong_Fro@9
  00021	48 81 7c 24 70
	01 01 00 00	 cmp	 QWORD PTR ival$[rsp], 257 ; 00000101H
  0002a	7d 0e		 jge	 SHORT $LN8@PyLong_Fro@9
  0002c	8b 4c 24 70	 mov	 ecx, DWORD PTR ival$[rsp]
  00030	e8 00 00 00 00	 call	 get_small_int
  00035	e9 fa 00 00 00	 jmp	 $LN12@PyLong_Fro@9
$LN8@PyLong_Fro@9:
  0003a	33 c0		 xor	 eax, eax
  0003c	85 c0		 test	 eax, eax
  0003e	75 d9		 jne	 SHORT $LN11@PyLong_Fro@9

; 1124 :     if (ival < 0) {

  00040	48 83 7c 24 70
	00		 cmp	 QWORD PTR ival$[rsp], 0
  00046	7d 1e		 jge	 SHORT $LN7@PyLong_Fro@9

; 1125 :         /* avoid signed overflow when ival = SIZE_T_MIN */
; 1126 :         abs_ival = (size_t)(-1-ival)+1;

  00048	48 c7 c0 ff ff
	ff ff		 mov	 rax, -1
  0004f	48 2b 44 24 70	 sub	 rax, QWORD PTR ival$[rsp]
  00054	48 ff c0	 inc	 rax
  00057	48 89 44 24 30	 mov	 QWORD PTR abs_ival$[rsp], rax

; 1127 :         negative = 1;

  0005c	c7 44 24 20 01
	00 00 00	 mov	 DWORD PTR negative$[rsp], 1

; 1128 :     }
; 1129 :     else {

  00064	eb 0a		 jmp	 SHORT $LN6@PyLong_Fro@9
$LN7@PyLong_Fro@9:

; 1130 :         abs_ival = (size_t)ival;

  00066	48 8b 44 24 70	 mov	 rax, QWORD PTR ival$[rsp]
  0006b	48 89 44 24 30	 mov	 QWORD PTR abs_ival$[rsp], rax
$LN6@PyLong_Fro@9:

; 1131 :     }
; 1132 : 
; 1133 :     /* Count the number of Python digits. */
; 1134 :     t = abs_ival;

  00070	48 8b 44 24 30	 mov	 rax, QWORD PTR abs_ival$[rsp]
  00075	48 89 44 24 40	 mov	 QWORD PTR t$[rsp], rax
$LN5@PyLong_Fro@9:

; 1135 :     while (t) {

  0007a	48 83 7c 24 40
	00		 cmp	 QWORD PTR t$[rsp], 0
  00080	74 1a		 je	 SHORT $LN4@PyLong_Fro@9

; 1136 :         ++ndigits;

  00082	8b 44 24 38	 mov	 eax, DWORD PTR ndigits$[rsp]
  00086	ff c0		 inc	 eax
  00088	89 44 24 38	 mov	 DWORD PTR ndigits$[rsp], eax

; 1137 :         t >>= PyLong_SHIFT;

  0008c	48 8b 44 24 40	 mov	 rax, QWORD PTR t$[rsp]
  00091	48 c1 e8 1e	 shr	 rax, 30
  00095	48 89 44 24 40	 mov	 QWORD PTR t$[rsp], rax

; 1138 :     }

  0009a	eb de		 jmp	 SHORT $LN5@PyLong_Fro@9
$LN4@PyLong_Fro@9:

; 1139 :     v = _PyLong_New(ndigits);

  0009c	48 63 44 24 38	 movsxd	 rax, DWORD PTR ndigits$[rsp]
  000a1	48 8b c8	 mov	 rcx, rax
  000a4	e8 00 00 00 00	 call	 _PyLong_New
  000a9	48 89 44 24 28	 mov	 QWORD PTR v$[rsp], rax

; 1140 :     if (v != NULL) {

  000ae	48 83 7c 24 28
	00		 cmp	 QWORD PTR v$[rsp], 0
  000b4	74 79		 je	 SHORT $LN3@PyLong_Fro@9

; 1141 :         digit *p = v->ob_digit;

  000b6	48 8b 44 24 28	 mov	 rax, QWORD PTR v$[rsp]
  000bb	48 83 c0 70	 add	 rax, 112		; 00000070H
  000bf	48 89 44 24 48	 mov	 QWORD PTR p$21007[rsp], rax

; 1142 :         Py_SIZE(v) = negative ? -ndigits : ndigits;

  000c4	83 7c 24 20 00	 cmp	 DWORD PTR negative$[rsp], 0
  000c9	74 0c		 je	 SHORT $LN14@PyLong_Fro@9
  000cb	8b 44 24 38	 mov	 eax, DWORD PTR ndigits$[rsp]
  000cf	f7 d8		 neg	 eax
  000d1	89 44 24 50	 mov	 DWORD PTR tv83[rsp], eax
  000d5	eb 08		 jmp	 SHORT $LN15@PyLong_Fro@9
$LN14@PyLong_Fro@9:
  000d7	8b 44 24 38	 mov	 eax, DWORD PTR ndigits$[rsp]
  000db	89 44 24 50	 mov	 DWORD PTR tv83[rsp], eax
$LN15@PyLong_Fro@9:
  000df	48 63 44 24 50	 movsxd	 rax, DWORD PTR tv83[rsp]
  000e4	48 8b 4c 24 28	 mov	 rcx, QWORD PTR v$[rsp]
  000e9	48 89 41 60	 mov	 QWORD PTR [rcx+96], rax

; 1143 :         t = abs_ival;

  000ed	48 8b 44 24 30	 mov	 rax, QWORD PTR abs_ival$[rsp]
  000f2	48 89 44 24 40	 mov	 QWORD PTR t$[rsp], rax
$LN2@PyLong_Fro@9:

; 1144 :         while (t) {

  000f7	48 83 7c 24 40
	00		 cmp	 QWORD PTR t$[rsp], 0
  000fd	74 30		 je	 SHORT $LN1@PyLong_Fro@9

; 1145 :             *p++ = (digit)(t & PyLong_MASK);

  000ff	48 8b 44 24 40	 mov	 rax, QWORD PTR t$[rsp]
  00104	48 25 ff ff ff
	3f		 and	 rax, 1073741823		; 3fffffffH
  0010a	48 8b 4c 24 48	 mov	 rcx, QWORD PTR p$21007[rsp]
  0010f	89 01		 mov	 DWORD PTR [rcx], eax
  00111	48 8b 44 24 48	 mov	 rax, QWORD PTR p$21007[rsp]
  00116	48 83 c0 04	 add	 rax, 4
  0011a	48 89 44 24 48	 mov	 QWORD PTR p$21007[rsp], rax

; 1146 :             t >>= PyLong_SHIFT;

  0011f	48 8b 44 24 40	 mov	 rax, QWORD PTR t$[rsp]
  00124	48 c1 e8 1e	 shr	 rax, 30
  00128	48 89 44 24 40	 mov	 QWORD PTR t$[rsp], rax

; 1147 :         }

  0012d	eb c8		 jmp	 SHORT $LN2@PyLong_Fro@9
$LN1@PyLong_Fro@9:
$LN3@PyLong_Fro@9:

; 1148 :     }
; 1149 :     return (PyObject *)v;

  0012f	48 8b 44 24 28	 mov	 rax, QWORD PTR v$[rsp]
$LN12@PyLong_Fro@9:

; 1150 : }

  00134	48 83 c4 68	 add	 rsp, 104		; 00000068H
  00138	c3		 ret	 0
PyLong_FromSsize_t ENDP
_TEXT	ENDS
PUBLIC	PyLong_FromSize_t
;	COMDAT pdata
pdata	SEGMENT
$pdata$PyLong_FromSize_t DD imagerel $LN9
	DD	imagerel $LN9+206
	DD	imagerel $unwind$PyLong_FromSize_t
pdata	ENDS
;	COMDAT xdata
xdata	SEGMENT
$unwind$PyLong_FromSize_t DD 010901H
	DD	08209H
; Function compile flags: /Odtp
xdata	ENDS
;	COMDAT PyLong_FromSize_t
_TEXT	SEGMENT
v$ = 32
ndigits$ = 40
t$ = 48
p$21030 = 56
ival$ = 80
PyLong_FromSize_t PROC					; COMDAT

; 1156 : {

$LN9:
  00000	48 89 4c 24 08	 mov	 QWORD PTR [rsp+8], rcx
  00005	48 83 ec 48	 sub	 rsp, 72			; 00000048H

; 1157 :     PyLongObject *v;
; 1158 :     size_t t;
; 1159 :     int ndigits = 0;

  00009	c7 44 24 28 00
	00 00 00	 mov	 DWORD PTR ndigits$[rsp], 0

; 1160 : 
; 1161 :     if (ival < PyLong_BASE)

  00011	48 81 7c 24 50
	00 00 00 40	 cmp	 QWORD PTR ival$[rsp], 1073741824 ; 40000000H
  0001a	73 0e		 jae	 SHORT $LN6@PyLong_Fro@10

; 1162 :         return PyLong_FromLong((long)ival);

  0001c	8b 4c 24 50	 mov	 ecx, DWORD PTR ival$[rsp]
  00020	e8 00 00 00 00	 call	 PyLong_FromLong
  00025	e9 9f 00 00 00	 jmp	 $LN7@PyLong_Fro@10
$LN6@PyLong_Fro@10:

; 1163 :     /* Count the number of Python digits. */
; 1164 :     t = ival;

  0002a	48 8b 44 24 50	 mov	 rax, QWORD PTR ival$[rsp]
  0002f	48 89 44 24 30	 mov	 QWORD PTR t$[rsp], rax
$LN5@PyLong_Fro@10:

; 1165 :     while (t) {

  00034	48 83 7c 24 30
	00		 cmp	 QWORD PTR t$[rsp], 0
  0003a	74 1a		 je	 SHORT $LN4@PyLong_Fro@10

; 1166 :         ++ndigits;

  0003c	8b 44 24 28	 mov	 eax, DWORD PTR ndigits$[rsp]
  00040	ff c0		 inc	 eax
  00042	89 44 24 28	 mov	 DWORD PTR ndigits$[rsp], eax

; 1167 :         t >>= PyLong_SHIFT;

  00046	48 8b 44 24 30	 mov	 rax, QWORD PTR t$[rsp]
  0004b	48 c1 e8 1e	 shr	 rax, 30
  0004f	48 89 44 24 30	 mov	 QWORD PTR t$[rsp], rax

; 1168 :     }

  00054	eb de		 jmp	 SHORT $LN5@PyLong_Fro@10
$LN4@PyLong_Fro@10:

; 1169 :     v = _PyLong_New(ndigits);

  00056	48 63 44 24 28	 movsxd	 rax, DWORD PTR ndigits$[rsp]
  0005b	48 8b c8	 mov	 rcx, rax
  0005e	e8 00 00 00 00	 call	 _PyLong_New
  00063	48 89 44 24 20	 mov	 QWORD PTR v$[rsp], rax

; 1170 :     if (v != NULL) {

  00068	48 83 7c 24 20
	00		 cmp	 QWORD PTR v$[rsp], 0
  0006e	74 54		 je	 SHORT $LN3@PyLong_Fro@10

; 1171 :         digit *p = v->ob_digit;

  00070	48 8b 44 24 20	 mov	 rax, QWORD PTR v$[rsp]
  00075	48 83 c0 70	 add	 rax, 112		; 00000070H
  00079	48 89 44 24 38	 mov	 QWORD PTR p$21030[rsp], rax

; 1172 :         Py_SIZE(v) = ndigits;

  0007e	48 63 44 24 28	 movsxd	 rax, DWORD PTR ndigits$[rsp]
  00083	48 8b 4c 24 20	 mov	 rcx, QWORD PTR v$[rsp]
  00088	48 89 41 60	 mov	 QWORD PTR [rcx+96], rax
$LN2@PyLong_Fro@10:

; 1173 :         while (ival) {

  0008c	48 83 7c 24 50
	00		 cmp	 QWORD PTR ival$[rsp], 0
  00092	74 30		 je	 SHORT $LN1@PyLong_Fro@10

; 1174 :             *p++ = (digit)(ival & PyLong_MASK);

  00094	48 8b 44 24 50	 mov	 rax, QWORD PTR ival$[rsp]
  00099	48 25 ff ff ff
	3f		 and	 rax, 1073741823		; 3fffffffH
  0009f	48 8b 4c 24 38	 mov	 rcx, QWORD PTR p$21030[rsp]
  000a4	89 01		 mov	 DWORD PTR [rcx], eax
  000a6	48 8b 44 24 38	 mov	 rax, QWORD PTR p$21030[rsp]
  000ab	48 83 c0 04	 add	 rax, 4
  000af	48 89 44 24 38	 mov	 QWORD PTR p$21030[rsp], rax

; 1175 :             ival >>= PyLong_SHIFT;

  000b4	48 8b 44 24 50	 mov	 rax, QWORD PTR ival$[rsp]
  000b9	48 c1 e8 1e	 shr	 rax, 30
  000bd	48 89 44 24 50	 mov	 QWORD PTR ival$[rsp], rax

; 1176 :         }

  000c2	eb c8		 jmp	 SHORT $LN2@PyLong_Fro@10
$LN1@PyLong_Fro@10:
$LN3@PyLong_Fro@10:

; 1177 :     }
; 1178 :     return (PyObject *)v;

  000c4	48 8b 44 24 20	 mov	 rax, QWORD PTR v$[rsp]
$LN7@PyLong_Fro@10:

; 1179 : }

  000c9	48 83 c4 48	 add	 rsp, 72			; 00000048H
  000cd	c3		 ret	 0
PyLong_FromSize_t ENDP
_TEXT	ENDS
;	COMDAT pdata
pdata	SEGMENT
$pdata$PyLong_AsLongLong DD imagerel $LN16
	DD	imagerel $LN16+320
	DD	imagerel $unwind$PyLong_AsLongLong
pdata	ENDS
;	COMDAT xdata
xdata	SEGMENT
$unwind$PyLong_AsLongLong DD 010901H
	DD	0c209H
; Function compile flags: /Odtp
xdata	ENDS
;	COMDAT PyLong_AsLongLong
_TEXT	SEGMENT
res$ = 48
v$ = 56
do_decref$ = 64
bytes$ = 72
one$ = 80
tv75 = 88
vv$ = 112
PyLong_AsLongLong PROC					; COMDAT

; 1186 : {

$LN16:
  00000	48 89 4c 24 08	 mov	 QWORD PTR [rsp+8], rcx
  00005	48 83 ec 68	 sub	 rsp, 104		; 00000068H

; 1187 :     PyLongObject *v;
; 1188 :     PY_LONG_LONG bytes;
; 1189 :     int one = 1;

  00009	c7 44 24 50 01
	00 00 00	 mov	 DWORD PTR one$[rsp], 1

; 1190 :     int res;
; 1191 :     int do_decref = 0; /* if nb_int was called */

  00011	c7 44 24 40 00
	00 00 00	 mov	 DWORD PTR do_decref$[rsp], 0

; 1192 : 
; 1193 :     if (vv == NULL) {

  00019	48 83 7c 24 70
	00		 cmp	 QWORD PTR vv$[rsp], 0
  0001f	75 1d		 jne	 SHORT $LN13@PyLong_AsL@3

; 1194 :         PyErr_BadInternalCall();

  00021	ba aa 04 00 00	 mov	 edx, 1194		; 000004aaH
  00026	48 8d 0d 00 00
	00 00		 lea	 rcx, OFFSET FLAT:??_C@_0BI@PEFAOAL@?4?4?2Objects?2longobject?4c?$AA@
  0002d	e8 00 00 00 00	 call	 _PyErr_BadInternalCall

; 1195 :         return -1;

  00032	48 c7 c0 ff ff
	ff ff		 mov	 rax, -1
  00039	e9 fd 00 00 00	 jmp	 $LN14@PyLong_AsL@3
$LN13@PyLong_AsL@3:

; 1196 :     }
; 1197 : 
; 1198 :     if (PyLong_Check(vv)) {

  0003e	48 8b 44 24 70	 mov	 rax, QWORD PTR vv$[rsp]
  00043	48 8b 40 58	 mov	 rax, QWORD PTR [rax+88]
  00047	8b 80 00 01 00
	00		 mov	 eax, DWORD PTR [rax+256]
  0004d	25 00 00 00 01	 and	 eax, 16777216		; 01000000H
  00052	85 c0		 test	 eax, eax
  00054	74 0c		 je	 SHORT $LN12@PyLong_AsL@3

; 1199 :         v = (PyLongObject *)vv;

  00056	48 8b 44 24 70	 mov	 rax, QWORD PTR vv$[rsp]
  0005b	48 89 44 24 38	 mov	 QWORD PTR v$[rsp], rax

; 1200 :     }
; 1201 :     else {

  00060	eb 2b		 jmp	 SHORT $LN11@PyLong_AsL@3
$LN12@PyLong_AsL@3:

; 1202 :         v = _PyLong_FromNbInt(vv);

  00062	48 8b 4c 24 70	 mov	 rcx, QWORD PTR vv$[rsp]
  00067	e8 00 00 00 00	 call	 _PyLong_FromNbInt
  0006c	48 89 44 24 38	 mov	 QWORD PTR v$[rsp], rax

; 1203 :         if (v == NULL)

  00071	48 83 7c 24 38
	00		 cmp	 QWORD PTR v$[rsp], 0
  00077	75 0c		 jne	 SHORT $LN10@PyLong_AsL@3

; 1204 :             return -1;

  00079	48 c7 c0 ff ff
	ff ff		 mov	 rax, -1
  00080	e9 b6 00 00 00	 jmp	 $LN14@PyLong_AsL@3
$LN10@PyLong_AsL@3:

; 1205 :         do_decref = 1;

  00085	c7 44 24 40 01
	00 00 00	 mov	 DWORD PTR do_decref$[rsp], 1
$LN11@PyLong_AsL@3:

; 1206 :     }
; 1207 : 
; 1208 :     res = 0;

  0008d	c7 44 24 30 00
	00 00 00	 mov	 DWORD PTR res$[rsp], 0

; 1209 :     switch(Py_SIZE(v)) {

  00095	48 8b 44 24 38	 mov	 rax, QWORD PTR v$[rsp]
  0009a	48 8b 40 60	 mov	 rax, QWORD PTR [rax+96]
  0009e	48 89 44 24 58	 mov	 QWORD PTR tv75[rsp], rax
  000a3	48 83 7c 24 58
	ff		 cmp	 QWORD PTR tv75[rsp], -1
  000a9	74 12		 je	 SHORT $LN7@PyLong_AsL@3
  000ab	48 83 7c 24 58
	00		 cmp	 QWORD PTR tv75[rsp], 0
  000b1	74 1d		 je	 SHORT $LN6@PyLong_AsL@3
  000b3	48 83 7c 24 58
	01		 cmp	 QWORD PTR tv75[rsp], 1
  000b9	74 20		 je	 SHORT $LN5@PyLong_AsL@3
  000bb	eb 2d		 jmp	 SHORT $LN4@PyLong_AsL@3
$LN7@PyLong_AsL@3:

; 1210 :     case -1:
; 1211 :         bytes = -(sdigit)v->ob_digit[0];

  000bd	48 8b 44 24 38	 mov	 rax, QWORD PTR v$[rsp]
  000c2	8b 40 70	 mov	 eax, DWORD PTR [rax+112]
  000c5	f7 d8		 neg	 eax
  000c7	48 98		 cdqe
  000c9	48 89 44 24 48	 mov	 QWORD PTR bytes$[rsp], rax

; 1212 :         break;

  000ce	eb 43		 jmp	 SHORT $LN8@PyLong_AsL@3
$LN6@PyLong_AsL@3:

; 1213 :     case 0:
; 1214 :         bytes = 0;

  000d0	48 c7 44 24 48
	00 00 00 00	 mov	 QWORD PTR bytes$[rsp], 0

; 1215 :         break;

  000d9	eb 38		 jmp	 SHORT $LN8@PyLong_AsL@3
$LN5@PyLong_AsL@3:

; 1216 :     case 1:
; 1217 :         bytes = v->ob_digit[0];

  000db	48 8b 44 24 38	 mov	 rax, QWORD PTR v$[rsp]
  000e0	8b 40 70	 mov	 eax, DWORD PTR [rax+112]
  000e3	48 89 44 24 48	 mov	 QWORD PTR bytes$[rsp], rax

; 1218 :         break;

  000e8	eb 29		 jmp	 SHORT $LN8@PyLong_AsL@3
$LN4@PyLong_AsL@3:

; 1219 :     default:
; 1220 :         res = _PyLong_AsByteArray((PyLongObject *)v, (unsigned char *)&bytes,
; 1221 :                                   SIZEOF_LONG_LONG, IS_LITTLE_ENDIAN, 1);

  000ea	0f b6 44 24 50	 movzx	 eax, BYTE PTR one$[rsp]
  000ef	c7 44 24 20 01
	00 00 00	 mov	 DWORD PTR [rsp+32], 1
  000f7	44 8b c8	 mov	 r9d, eax
  000fa	41 b8 08 00 00
	00		 mov	 r8d, 8
  00100	48 8d 54 24 48	 lea	 rdx, QWORD PTR bytes$[rsp]
  00105	48 8b 4c 24 38	 mov	 rcx, QWORD PTR v$[rsp]
  0010a	e8 00 00 00 00	 call	 _PyLong_AsByteArray
  0010f	89 44 24 30	 mov	 DWORD PTR res$[rsp], eax
$LN8@PyLong_AsL@3:

; 1222 :     }
; 1223 :     if (do_decref) {

  00113	83 7c 24 40 00	 cmp	 DWORD PTR do_decref$[rsp], 0
  00118	74 0a		 je	 SHORT $LN3@PyLong_AsL@3

; 1224 :         Py_DECREF(v);

  0011a	48 8b 4c 24 38	 mov	 rcx, QWORD PTR v$[rsp]
  0011f	e8 00 00 00 00	 call	 _Py_DecRef
$LN3@PyLong_AsL@3:

; 1225 :     }
; 1226 : 
; 1227 :     /* Plan 9 can't handle PY_LONG_LONG in ? : expressions */
; 1228 :     if (res < 0)

  00124	83 7c 24 30 00	 cmp	 DWORD PTR res$[rsp], 0
  00129	7d 0b		 jge	 SHORT $LN2@PyLong_AsL@3

; 1229 :         return (PY_LONG_LONG)-1;

  0012b	48 c7 c0 ff ff
	ff ff		 mov	 rax, -1
  00132	eb 07		 jmp	 SHORT $LN14@PyLong_AsL@3

; 1230 :     else

  00134	eb 05		 jmp	 SHORT $LN1@PyLong_AsL@3
$LN2@PyLong_AsL@3:

; 1231 :         return bytes;

  00136	48 8b 44 24 48	 mov	 rax, QWORD PTR bytes$[rsp]
$LN1@PyLong_AsL@3:
$LN14@PyLong_AsL@3:

; 1232 : }

  0013b	48 83 c4 68	 add	 rsp, 104		; 00000068H
  0013f	c3		 ret	 0
PyLong_AsLongLong ENDP
_TEXT	ENDS
;	COMDAT pdata
pdata	SEGMENT
$pdata$PyLong_AsUnsignedLongLong DD imagerel $LN11
	DD	imagerel $LN11+229
	DD	imagerel $unwind$PyLong_AsUnsignedLongLong
pdata	ENDS
;	COMDAT xdata
xdata	SEGMENT
$unwind$PyLong_AsUnsignedLongLong DD 010901H
	DD	0c209H
; Function compile flags: /Odtp
xdata	ENDS
;	COMDAT PyLong_AsUnsignedLongLong
_TEXT	SEGMENT
res$ = 48
v$ = 56
bytes$ = 64
one$ = 72
tv74 = 80
vv$ = 112
PyLong_AsUnsignedLongLong PROC				; COMDAT

; 1239 : {

$LN11:
  00000	48 89 4c 24 08	 mov	 QWORD PTR [rsp+8], rcx
  00005	48 83 ec 68	 sub	 rsp, 104		; 00000068H

; 1240 :     PyLongObject *v;
; 1241 :     unsigned PY_LONG_LONG bytes;
; 1242 :     int one = 1;

  00009	c7 44 24 48 01
	00 00 00	 mov	 DWORD PTR one$[rsp], 1

; 1243 :     int res;
; 1244 : 
; 1245 :     if (vv == NULL) {

  00011	48 83 7c 24 70
	00		 cmp	 QWORD PTR vv$[rsp], 0
  00017	75 1d		 jne	 SHORT $LN8@PyLong_AsU@4

; 1246 :         PyErr_BadInternalCall();

  00019	ba de 04 00 00	 mov	 edx, 1246		; 000004deH
  0001e	48 8d 0d 00 00
	00 00		 lea	 rcx, OFFSET FLAT:??_C@_0BI@PEFAOAL@?4?4?2Objects?2longobject?4c?$AA@
  00025	e8 00 00 00 00	 call	 _PyErr_BadInternalCall

; 1247 :         return (unsigned PY_LONG_LONG)-1;

  0002a	48 c7 c0 ff ff
	ff ff		 mov	 rax, -1
  00031	e9 aa 00 00 00	 jmp	 $LN9@PyLong_AsU@4
$LN8@PyLong_AsU@4:

; 1248 :     }
; 1249 :     if (!PyLong_Check(vv)) {

  00036	48 8b 44 24 70	 mov	 rax, QWORD PTR vv$[rsp]
  0003b	48 8b 40 58	 mov	 rax, QWORD PTR [rax+88]
  0003f	8b 80 00 01 00
	00		 mov	 eax, DWORD PTR [rax+256]
  00045	25 00 00 00 01	 and	 eax, 16777216		; 01000000H
  0004a	85 c0		 test	 eax, eax
  0004c	75 1c		 jne	 SHORT $LN7@PyLong_AsU@4

; 1250 :         PyErr_SetString(PyExc_TypeError, "an integer is required");

  0004e	48 8d 15 00 00
	00 00		 lea	 rdx, OFFSET FLAT:??_C@_0BH@LPEFKOAK@an?5integer?5is?5required?$AA@
  00055	48 8b 0d 00 00
	00 00		 mov	 rcx, QWORD PTR PyExc_TypeError
  0005c	e8 00 00 00 00	 call	 PyErr_SetString

; 1251 :         return (unsigned PY_LONG_LONG)-1;

  00061	48 c7 c0 ff ff
	ff ff		 mov	 rax, -1
  00068	eb 76		 jmp	 SHORT $LN9@PyLong_AsU@4
$LN7@PyLong_AsU@4:

; 1252 :     }
; 1253 : 
; 1254 :     v = (PyLongObject*)vv;

  0006a	48 8b 44 24 70	 mov	 rax, QWORD PTR vv$[rsp]
  0006f	48 89 44 24 38	 mov	 QWORD PTR v$[rsp], rax

; 1255 :     switch(Py_SIZE(v)) {

  00074	48 8b 44 24 38	 mov	 rax, QWORD PTR v$[rsp]
  00079	48 8b 40 60	 mov	 rax, QWORD PTR [rax+96]
  0007d	48 89 44 24 50	 mov	 QWORD PTR tv74[rsp], rax
  00082	48 83 7c 24 50
	00		 cmp	 QWORD PTR tv74[rsp], 0
  00088	74 0a		 je	 SHORT $LN4@PyLong_AsU@4
  0008a	48 83 7c 24 50
	01		 cmp	 QWORD PTR tv74[rsp], 1
  00090	74 06		 je	 SHORT $LN3@PyLong_AsU@4
  00092	eb 0e		 jmp	 SHORT $LN5@PyLong_AsU@4
$LN4@PyLong_AsU@4:

; 1256 :     case 0: return 0;

  00094	33 c0		 xor	 eax, eax
  00096	eb 48		 jmp	 SHORT $LN9@PyLong_AsU@4
$LN3@PyLong_AsU@4:

; 1257 :     case 1: return v->ob_digit[0];

  00098	48 8b 44 24 38	 mov	 rax, QWORD PTR v$[rsp]
  0009d	8b 40 70	 mov	 eax, DWORD PTR [rax+112]
  000a0	eb 3e		 jmp	 SHORT $LN9@PyLong_AsU@4
$LN5@PyLong_AsU@4:

; 1258 :     }
; 1259 : 
; 1260 :     res = _PyLong_AsByteArray((PyLongObject *)vv, (unsigned char *)&bytes,
; 1261 :                               SIZEOF_LONG_LONG, IS_LITTLE_ENDIAN, 0);

  000a2	0f b6 44 24 48	 movzx	 eax, BYTE PTR one$[rsp]
  000a7	c7 44 24 20 00
	00 00 00	 mov	 DWORD PTR [rsp+32], 0
  000af	44 8b c8	 mov	 r9d, eax
  000b2	41 b8 08 00 00
	00		 mov	 r8d, 8
  000b8	48 8d 54 24 40	 lea	 rdx, QWORD PTR bytes$[rsp]
  000bd	48 8b 4c 24 70	 mov	 rcx, QWORD PTR vv$[rsp]
  000c2	e8 00 00 00 00	 call	 _PyLong_AsByteArray
  000c7	89 44 24 30	 mov	 DWORD PTR res$[rsp], eax

; 1262 : 
; 1263 :     /* Plan 9 can't handle PY_LONG_LONG in ? : expressions */
; 1264 :     if (res < 0)

  000cb	83 7c 24 30 00	 cmp	 DWORD PTR res$[rsp], 0
  000d0	7d 09		 jge	 SHORT $LN2@PyLong_AsU@4

; 1265 :         return (unsigned PY_LONG_LONG)res;

  000d2	48 63 44 24 30	 movsxd	 rax, DWORD PTR res$[rsp]
  000d7	eb 07		 jmp	 SHORT $LN9@PyLong_AsU@4

; 1266 :     else

  000d9	eb 05		 jmp	 SHORT $LN1@PyLong_AsU@4
$LN2@PyLong_AsU@4:

; 1267 :         return bytes;

  000db	48 8b 44 24 40	 mov	 rax, QWORD PTR bytes$[rsp]
$LN1@PyLong_AsU@4:
$LN9@PyLong_AsU@4:

; 1268 : }

  000e0	48 83 c4 68	 add	 rsp, 104		; 00000068H
  000e4	c3		 ret	 0
PyLong_AsUnsignedLongLong ENDP
_TEXT	ENDS
PUBLIC	PyLong_AsUnsignedLongLongMask
;	COMDAT pdata
pdata	SEGMENT
$pdata$PyLong_AsUnsignedLongLongMask DD imagerel $LN6
	DD	imagerel $LN6+144
	DD	imagerel $unwind$PyLong_AsUnsignedLongLongMask
pdata	ENDS
;	COMDAT xdata
xdata	SEGMENT
$unwind$PyLong_AsUnsignedLongLongMask DD 010901H
	DD	06209H
; Function compile flags: /Odtp
xdata	ENDS
;	COMDAT PyLong_AsUnsignedLongLongMask
_TEXT	SEGMENT
lo$ = 32
val$ = 40
op$ = 64
PyLong_AsUnsignedLongLongMask PROC			; COMDAT

; 1305 : {

$LN6:
  00000	48 89 4c 24 08	 mov	 QWORD PTR [rsp+8], rcx
  00005	48 83 ec 38	 sub	 rsp, 56			; 00000038H

; 1306 :     PyLongObject *lo;
; 1307 :     unsigned PY_LONG_LONG val;
; 1308 : 
; 1309 :     if (op == NULL) {

  00009	48 83 7c 24 40
	00		 cmp	 QWORD PTR op$[rsp], 0
  0000f	75 18		 jne	 SHORT $LN3@PyLong_AsU@5

; 1310 :         PyErr_BadInternalCall();

  00011	ba 1e 05 00 00	 mov	 edx, 1310		; 0000051eH
  00016	48 8d 0d 00 00
	00 00		 lea	 rcx, OFFSET FLAT:??_C@_0BI@PEFAOAL@?4?4?2Objects?2longobject?4c?$AA@
  0001d	e8 00 00 00 00	 call	 _PyErr_BadInternalCall

; 1311 :         return (unsigned long)-1;

  00022	b8 ff ff ff ff	 mov	 eax, -1			; ffffffffH
  00027	eb 62		 jmp	 SHORT $LN4@PyLong_AsU@5
$LN3@PyLong_AsU@5:

; 1312 :     }
; 1313 : 
; 1314 :     if (PyLong_Check(op)) {

  00029	48 8b 44 24 40	 mov	 rax, QWORD PTR op$[rsp]
  0002e	48 8b 40 58	 mov	 rax, QWORD PTR [rax+88]
  00032	8b 80 00 01 00
	00		 mov	 eax, DWORD PTR [rax+256]
  00038	25 00 00 00 01	 and	 eax, 16777216		; 01000000H
  0003d	85 c0		 test	 eax, eax
  0003f	74 0c		 je	 SHORT $LN2@PyLong_AsU@5

; 1315 :         return _PyLong_AsUnsignedLongLongMask(op);

  00041	48 8b 4c 24 40	 mov	 rcx, QWORD PTR op$[rsp]
  00046	e8 00 00 00 00	 call	 _PyLong_AsUnsignedLongLongMask
  0004b	eb 3e		 jmp	 SHORT $LN4@PyLong_AsU@5
$LN2@PyLong_AsU@5:

; 1316 :     }
; 1317 : 
; 1318 :     lo = _PyLong_FromNbInt(op);

  0004d	48 8b 4c 24 40	 mov	 rcx, QWORD PTR op$[rsp]
  00052	e8 00 00 00 00	 call	 _PyLong_FromNbInt
  00057	48 89 44 24 20	 mov	 QWORD PTR lo$[rsp], rax

; 1319 :     if (lo == NULL)

  0005c	48 83 7c 24 20
	00		 cmp	 QWORD PTR lo$[rsp], 0
  00062	75 09		 jne	 SHORT $LN1@PyLong_AsU@5

; 1320 :         return (unsigned PY_LONG_LONG)-1;

  00064	48 c7 c0 ff ff
	ff ff		 mov	 rax, -1
  0006b	eb 1e		 jmp	 SHORT $LN4@PyLong_AsU@5
$LN1@PyLong_AsU@5:

; 1321 : 
; 1322 :     val = _PyLong_AsUnsignedLongLongMask((PyObject *)lo);

  0006d	48 8b 4c 24 20	 mov	 rcx, QWORD PTR lo$[rsp]
  00072	e8 00 00 00 00	 call	 _PyLong_AsUnsignedLongLongMask
  00077	48 89 44 24 28	 mov	 QWORD PTR val$[rsp], rax

; 1323 :     Py_DECREF(lo);

  0007c	48 8b 4c 24 20	 mov	 rcx, QWORD PTR lo$[rsp]
  00081	e8 00 00 00 00	 call	 _Py_DecRef

; 1324 :     return val;

  00086	48 8b 44 24 28	 mov	 rax, QWORD PTR val$[rsp]
$LN4@PyLong_AsU@5:

; 1325 : }

  0008b	48 83 c4 38	 add	 rsp, 56			; 00000038H
  0008f	c3		 ret	 0
PyLong_AsUnsignedLongLongMask ENDP
_TEXT	ENDS
;	COMDAT pdata
pdata	SEGMENT
$pdata$_PyLong_AsUnsignedLongLongMask DD imagerel _PyLong_AsUnsignedLongLongMask
	DD	imagerel _PyLong_AsUnsignedLongLongMask+266
	DD	imagerel $unwind$_PyLong_AsUnsignedLongLongMask
pdata	ENDS
;	COMDAT xdata
xdata	SEGMENT
$unwind$_PyLong_AsUnsignedLongLongMask DD 010901H
	DD	0a209H
; Function compile flags: /Odtp
xdata	ENDS
;	COMDAT _PyLong_AsUnsignedLongLongMask
_TEXT	SEGMENT
v$ = 32
x$ = 40
i$ = 48
sign$ = 56
tv72 = 64
vv$ = 96
_PyLong_AsUnsignedLongLongMask PROC			; COMDAT

; 1275 : {

  00000	48 89 4c 24 08	 mov	 QWORD PTR [rsp+8], rcx
  00005	48 83 ec 58	 sub	 rsp, 88			; 00000058H

; 1276 :     register PyLongObject *v;
; 1277 :     unsigned PY_LONG_LONG x;
; 1278 :     Py_ssize_t i;
; 1279 :     int sign;
; 1280 : 
; 1281 :     if (vv == NULL || !PyLong_Check(vv)) {

  00009	48 83 7c 24 60
	00		 cmp	 QWORD PTR vv$[rsp], 0
  0000f	74 18		 je	 SHORT $LN8@PyLong_AsU@6
  00011	48 8b 44 24 60	 mov	 rax, QWORD PTR vv$[rsp]
  00016	48 8b 40 58	 mov	 rax, QWORD PTR [rax+88]
  0001a	8b 80 00 01 00
	00		 mov	 eax, DWORD PTR [rax+256]
  00020	25 00 00 00 01	 and	 eax, 16777216		; 01000000H
  00025	85 c0		 test	 eax, eax
  00027	75 1b		 jne	 SHORT $LN9@PyLong_AsU@6
$LN8@PyLong_AsU@6:

; 1282 :         PyErr_BadInternalCall();

  00029	ba 02 05 00 00	 mov	 edx, 1282		; 00000502H
  0002e	48 8d 0d 00 00
	00 00		 lea	 rcx, OFFSET FLAT:??_C@_0BI@PEFAOAL@?4?4?2Objects?2longobject?4c?$AA@
  00035	e8 00 00 00 00	 call	 _PyErr_BadInternalCall

; 1283 :         return (unsigned long) -1;

  0003a	b8 ff ff ff ff	 mov	 eax, -1			; ffffffffH
  0003f	e9 c1 00 00 00	 jmp	 $LN10@PyLong_AsU@6
$LN9@PyLong_AsU@6:

; 1284 :     }
; 1285 :     v = (PyLongObject *)vv;

  00044	48 8b 44 24 60	 mov	 rax, QWORD PTR vv$[rsp]
  00049	48 89 44 24 20	 mov	 QWORD PTR v$[rsp], rax

; 1286 :     switch(Py_SIZE(v)) {

  0004e	48 8b 44 24 20	 mov	 rax, QWORD PTR v$[rsp]
  00053	48 8b 40 60	 mov	 rax, QWORD PTR [rax+96]
  00057	48 89 44 24 40	 mov	 QWORD PTR tv72[rsp], rax
  0005c	48 83 7c 24 40
	00		 cmp	 QWORD PTR tv72[rsp], 0
  00062	74 0a		 je	 SHORT $LN5@PyLong_AsU@6
  00064	48 83 7c 24 40
	01		 cmp	 QWORD PTR tv72[rsp], 1
  0006a	74 09		 je	 SHORT $LN4@PyLong_AsU@6
  0006c	eb 14		 jmp	 SHORT $LN6@PyLong_AsU@6
$LN5@PyLong_AsU@6:

; 1287 :     case 0: return 0;

  0006e	33 c0		 xor	 eax, eax
  00070	e9 90 00 00 00	 jmp	 $LN10@PyLong_AsU@6
$LN4@PyLong_AsU@6:

; 1288 :     case 1: return v->ob_digit[0];

  00075	48 8b 44 24 20	 mov	 rax, QWORD PTR v$[rsp]
  0007a	8b 40 70	 mov	 eax, DWORD PTR [rax+112]
  0007d	e9 83 00 00 00	 jmp	 $LN10@PyLong_AsU@6
$LN6@PyLong_AsU@6:

; 1289 :     }
; 1290 :     i = Py_SIZE(v);

  00082	48 8b 44 24 20	 mov	 rax, QWORD PTR v$[rsp]
  00087	48 8b 40 60	 mov	 rax, QWORD PTR [rax+96]
  0008b	48 89 44 24 30	 mov	 QWORD PTR i$[rsp], rax

; 1291 :     sign = 1;

  00090	c7 44 24 38 01
	00 00 00	 mov	 DWORD PTR sign$[rsp], 1

; 1292 :     x = 0;

  00098	48 c7 44 24 28
	00 00 00 00	 mov	 QWORD PTR x$[rsp], 0

; 1293 :     if (i < 0) {

  000a1	48 83 7c 24 30
	00		 cmp	 QWORD PTR i$[rsp], 0
  000a7	7d 15		 jge	 SHORT $LN3@PyLong_AsU@6

; 1294 :         sign = -1;

  000a9	c7 44 24 38 ff
	ff ff ff	 mov	 DWORD PTR sign$[rsp], -1

; 1295 :         i = -i;

  000b1	48 8b 44 24 30	 mov	 rax, QWORD PTR i$[rsp]
  000b6	48 f7 d8	 neg	 rax
  000b9	48 89 44 24 30	 mov	 QWORD PTR i$[rsp], rax
$LN3@PyLong_AsU@6:
$LN2@PyLong_AsU@6:

; 1296 :     }
; 1297 :     while (--i >= 0) {

  000be	48 8b 44 24 30	 mov	 rax, QWORD PTR i$[rsp]
  000c3	48 ff c8	 dec	 rax
  000c6	48 89 44 24 30	 mov	 QWORD PTR i$[rsp], rax
  000cb	48 83 7c 24 30
	00		 cmp	 QWORD PTR i$[rsp], 0
  000d1	7c 21		 jl	 SHORT $LN1@PyLong_AsU@6

; 1298 :         x = (x << PyLong_SHIFT) | v->ob_digit[i];

  000d3	48 8b 44 24 28	 mov	 rax, QWORD PTR x$[rsp]
  000d8	48 c1 e0 1e	 shl	 rax, 30
  000dc	48 8b 4c 24 20	 mov	 rcx, QWORD PTR v$[rsp]
  000e1	48 8b 54 24 30	 mov	 rdx, QWORD PTR i$[rsp]
  000e6	8b 4c 91 70	 mov	 ecx, DWORD PTR [rcx+rdx*4+112]
  000ea	48 0b c1	 or	 rax, rcx
  000ed	48 89 44 24 28	 mov	 QWORD PTR x$[rsp], rax

; 1299 :     }

  000f2	eb ca		 jmp	 SHORT $LN2@PyLong_AsU@6
$LN1@PyLong_AsU@6:

; 1300 :     return x * sign;

  000f4	48 63 44 24 38	 movsxd	 rax, DWORD PTR sign$[rsp]
  000f9	48 8b 4c 24 28	 mov	 rcx, QWORD PTR x$[rsp]
  000fe	48 0f af c8	 imul	 rcx, rax
  00102	48 8b c1	 mov	 rax, rcx
$LN10@PyLong_AsU@6:

; 1301 : }

  00105	48 83 c4 58	 add	 rsp, 88			; 00000058H
  00109	c3		 ret	 0
_PyLong_AsUnsignedLongLongMask ENDP
_TEXT	ENDS
PUBLIC	PyLong_AsLongLongAndOverflow
;	COMDAT pdata
pdata	SEGMENT
$pdata$PyLong_AsLongLongAndOverflow DD imagerel $LN22
	DD	imagerel $LN22+521
	DD	imagerel $unwind$PyLong_AsLongLongAndOverflow
pdata	ENDS
;	COMDAT xdata
xdata	SEGMENT
$unwind$PyLong_AsLongLongAndOverflow DD 010e01H
	DD	0c20eH
; Function compile flags: /Odtp
xdata	ENDS
;	COMDAT PyLong_AsLongLongAndOverflow
_TEXT	SEGMENT
res$ = 32
v$ = 40
do_decref$ = 48
x$ = 56
i$ = 64
prev$ = 72
sign$ = 80
tv75 = 88
vv$ = 112
overflow$ = 120
PyLong_AsLongLongAndOverflow PROC			; COMDAT

; 1340 : {

$LN22:
  00000	48 89 54 24 10	 mov	 QWORD PTR [rsp+16], rdx
  00005	48 89 4c 24 08	 mov	 QWORD PTR [rsp+8], rcx
  0000a	48 83 ec 68	 sub	 rsp, 104		; 00000068H

; 1341 :     /* This version by Tim Peters */
; 1342 :     register PyLongObject *v;
; 1343 :     unsigned PY_LONG_LONG x, prev;
; 1344 :     PY_LONG_LONG res;
; 1345 :     Py_ssize_t i;
; 1346 :     int sign;
; 1347 :     int do_decref = 0; /* if nb_int was called */

  0000e	c7 44 24 30 00
	00 00 00	 mov	 DWORD PTR do_decref$[rsp], 0

; 1348 : 
; 1349 :     *overflow = 0;

  00016	48 8b 44 24 78	 mov	 rax, QWORD PTR overflow$[rsp]
  0001b	c7 00 00 00 00
	00		 mov	 DWORD PTR [rax], 0

; 1350 :     if (vv == NULL) {

  00021	48 83 7c 24 70
	00		 cmp	 QWORD PTR vv$[rsp], 0
  00027	75 1d		 jne	 SHORT $LN19@PyLong_AsL@4

; 1351 :         PyErr_BadInternalCall();

  00029	ba 47 05 00 00	 mov	 edx, 1351		; 00000547H
  0002e	48 8d 0d 00 00
	00 00		 lea	 rcx, OFFSET FLAT:??_C@_0BI@PEFAOAL@?4?4?2Objects?2longobject?4c?$AA@
  00035	e8 00 00 00 00	 call	 _PyErr_BadInternalCall

; 1352 :         return -1;

  0003a	48 c7 c0 ff ff
	ff ff		 mov	 rax, -1
  00041	e9 be 01 00 00	 jmp	 $LN20@PyLong_AsL@4
$LN19@PyLong_AsL@4:

; 1353 :     }
; 1354 : 
; 1355 :     if (PyLong_Check(vv)) {

  00046	48 8b 44 24 70	 mov	 rax, QWORD PTR vv$[rsp]
  0004b	48 8b 40 58	 mov	 rax, QWORD PTR [rax+88]
  0004f	8b 80 00 01 00
	00		 mov	 eax, DWORD PTR [rax+256]
  00055	25 00 00 00 01	 and	 eax, 16777216		; 01000000H
  0005a	85 c0		 test	 eax, eax
  0005c	74 0c		 je	 SHORT $LN18@PyLong_AsL@4

; 1356 :         v = (PyLongObject *)vv;

  0005e	48 8b 44 24 70	 mov	 rax, QWORD PTR vv$[rsp]
  00063	48 89 44 24 28	 mov	 QWORD PTR v$[rsp], rax

; 1357 :     }
; 1358 :     else {

  00068	eb 2b		 jmp	 SHORT $LN17@PyLong_AsL@4
$LN18@PyLong_AsL@4:

; 1359 :         v = _PyLong_FromNbInt(vv);

  0006a	48 8b 4c 24 70	 mov	 rcx, QWORD PTR vv$[rsp]
  0006f	e8 00 00 00 00	 call	 _PyLong_FromNbInt
  00074	48 89 44 24 28	 mov	 QWORD PTR v$[rsp], rax

; 1360 :         if (v == NULL)

  00079	48 83 7c 24 28
	00		 cmp	 QWORD PTR v$[rsp], 0
  0007f	75 0c		 jne	 SHORT $LN16@PyLong_AsL@4

; 1361 :             return -1;

  00081	48 c7 c0 ff ff
	ff ff		 mov	 rax, -1
  00088	e9 77 01 00 00	 jmp	 $LN20@PyLong_AsL@4
$LN16@PyLong_AsL@4:

; 1362 :         do_decref = 1;

  0008d	c7 44 24 30 01
	00 00 00	 mov	 DWORD PTR do_decref$[rsp], 1
$LN17@PyLong_AsL@4:

; 1363 :     }
; 1364 : 
; 1365 :     res = -1;

  00095	48 c7 44 24 20
	ff ff ff ff	 mov	 QWORD PTR res$[rsp], -1

; 1366 :     i = Py_SIZE(v);

  0009e	48 8b 44 24 28	 mov	 rax, QWORD PTR v$[rsp]
  000a3	48 8b 40 60	 mov	 rax, QWORD PTR [rax+96]
  000a7	48 89 44 24 40	 mov	 QWORD PTR i$[rsp], rax

; 1367 : 
; 1368 :     switch (i) {

  000ac	48 8b 44 24 40	 mov	 rax, QWORD PTR i$[rsp]
  000b1	48 89 44 24 58	 mov	 QWORD PTR tv75[rsp], rax
  000b6	48 83 7c 24 58
	ff		 cmp	 QWORD PTR tv75[rsp], -1
  000bc	74 12		 je	 SHORT $LN13@PyLong_AsL@4
  000be	48 83 7c 24 58
	00		 cmp	 QWORD PTR tv75[rsp], 0
  000c4	74 20		 je	 SHORT $LN12@PyLong_AsL@4
  000c6	48 83 7c 24 58
	01		 cmp	 QWORD PTR tv75[rsp], 1
  000cc	74 26		 je	 SHORT $LN11@PyLong_AsL@4
  000ce	eb 36		 jmp	 SHORT $LN10@PyLong_AsL@4
$LN13@PyLong_AsL@4:

; 1369 :     case -1:
; 1370 :         res = -(sdigit)v->ob_digit[0];

  000d0	48 8b 44 24 28	 mov	 rax, QWORD PTR v$[rsp]
  000d5	8b 40 70	 mov	 eax, DWORD PTR [rax+112]
  000d8	f7 d8		 neg	 eax
  000da	48 98		 cdqe
  000dc	48 89 44 24 20	 mov	 QWORD PTR res$[rsp], rax

; 1371 :         break;

  000e1	e9 08 01 00 00	 jmp	 $LN14@PyLong_AsL@4
$LN12@PyLong_AsL@4:

; 1372 :     case 0:
; 1373 :         res = 0;

  000e6	48 c7 44 24 20
	00 00 00 00	 mov	 QWORD PTR res$[rsp], 0

; 1374 :         break;

  000ef	e9 fa 00 00 00	 jmp	 $LN14@PyLong_AsL@4
$LN11@PyLong_AsL@4:

; 1375 :     case 1:
; 1376 :         res = v->ob_digit[0];

  000f4	48 8b 44 24 28	 mov	 rax, QWORD PTR v$[rsp]
  000f9	8b 40 70	 mov	 eax, DWORD PTR [rax+112]
  000fc	48 89 44 24 20	 mov	 QWORD PTR res$[rsp], rax

; 1377 :         break;

  00101	e9 e8 00 00 00	 jmp	 $LN14@PyLong_AsL@4
$LN10@PyLong_AsL@4:

; 1378 :     default:
; 1379 :         sign = 1;

  00106	c7 44 24 50 01
	00 00 00	 mov	 DWORD PTR sign$[rsp], 1

; 1380 :         x = 0;

  0010e	48 c7 44 24 38
	00 00 00 00	 mov	 QWORD PTR x$[rsp], 0

; 1381 :         if (i < 0) {

  00117	48 83 7c 24 40
	00		 cmp	 QWORD PTR i$[rsp], 0
  0011d	7d 15		 jge	 SHORT $LN9@PyLong_AsL@4

; 1382 :             sign = -1;

  0011f	c7 44 24 50 ff
	ff ff ff	 mov	 DWORD PTR sign$[rsp], -1

; 1383 :             i = -(i);

  00127	48 8b 44 24 40	 mov	 rax, QWORD PTR i$[rsp]
  0012c	48 f7 d8	 neg	 rax
  0012f	48 89 44 24 40	 mov	 QWORD PTR i$[rsp], rax
$LN9@PyLong_AsL@4:
$LN8@PyLong_AsL@4:

; 1384 :         }
; 1385 :         while (--i >= 0) {

  00134	48 8b 44 24 40	 mov	 rax, QWORD PTR i$[rsp]
  00139	48 ff c8	 dec	 rax
  0013c	48 89 44 24 40	 mov	 QWORD PTR i$[rsp], rax
  00141	48 83 7c 24 40
	00		 cmp	 QWORD PTR i$[rsp], 0
  00147	7c 48		 jl	 SHORT $LN7@PyLong_AsL@4

; 1386 :             prev = x;

  00149	48 8b 44 24 38	 mov	 rax, QWORD PTR x$[rsp]
  0014e	48 89 44 24 48	 mov	 QWORD PTR prev$[rsp], rax

; 1387 :             x = (x << PyLong_SHIFT) + v->ob_digit[i];

  00153	48 8b 44 24 38	 mov	 rax, QWORD PTR x$[rsp]
  00158	48 c1 e0 1e	 shl	 rax, 30
  0015c	48 8b 4c 24 28	 mov	 rcx, QWORD PTR v$[rsp]
  00161	48 8b 54 24 40	 mov	 rdx, QWORD PTR i$[rsp]
  00166	8b 4c 91 70	 mov	 ecx, DWORD PTR [rcx+rdx*4+112]
  0016a	48 03 c1	 add	 rax, rcx
  0016d	48 89 44 24 38	 mov	 QWORD PTR x$[rsp], rax

; 1388 :             if ((x >> PyLong_SHIFT) != prev) {

  00172	48 8b 44 24 38	 mov	 rax, QWORD PTR x$[rsp]
  00177	48 c1 e8 1e	 shr	 rax, 30
  0017b	48 3b 44 24 48	 cmp	 rax, QWORD PTR prev$[rsp]
  00180	74 0d		 je	 SHORT $LN6@PyLong_AsL@4

; 1389 :                 *overflow = sign;

  00182	48 8b 44 24 78	 mov	 rax, QWORD PTR overflow$[rsp]
  00187	8b 4c 24 50	 mov	 ecx, DWORD PTR sign$[rsp]
  0018b	89 08		 mov	 DWORD PTR [rax], ecx

; 1390 :                 goto exit;

  0018d	eb 5f		 jmp	 SHORT $exit$21178
$LN6@PyLong_AsL@4:

; 1391 :             }
; 1392 :         }

  0018f	eb a3		 jmp	 SHORT $LN8@PyLong_AsL@4
$LN7@PyLong_AsL@4:

; 1393 :         /* Haven't lost any bits, but casting to long requires extra
; 1394 :          * care (see comment above).
; 1395 :          */
; 1396 :         if (x <= (unsigned PY_LONG_LONG)PY_LLONG_MAX) {

  00191	48 b8 ff ff ff
	ff ff ff ff 7f	 mov	 rax, 9223372036854775807 ; 7fffffffffffffffH
  0019b	48 39 44 24 38	 cmp	 QWORD PTR x$[rsp], rax
  001a0	77 18		 ja	 SHORT $LN5@PyLong_AsL@4

; 1397 :             res = (PY_LONG_LONG)x * sign;

  001a2	48 63 44 24 50	 movsxd	 rax, DWORD PTR sign$[rsp]
  001a7	48 8b 4c 24 38	 mov	 rcx, QWORD PTR x$[rsp]
  001ac	48 0f af c8	 imul	 rcx, rax
  001b0	48 8b c1	 mov	 rax, rcx
  001b3	48 89 44 24 20	 mov	 QWORD PTR res$[rsp], rax
  001b8	eb 34		 jmp	 SHORT $LN4@PyLong_AsL@4
$LN5@PyLong_AsL@4:

; 1398 :         }
; 1399 :         else if (sign < 0 && x == PY_ABS_LLONG_MIN) {

  001ba	83 7c 24 50 00	 cmp	 DWORD PTR sign$[rsp], 0
  001bf	7d 22		 jge	 SHORT $LN3@PyLong_AsL@4
  001c1	48 b8 00 00 00
	00 00 00 00 80	 mov	 rax, -9223372036854775808 ; 8000000000000000H
  001cb	48 39 44 24 38	 cmp	 QWORD PTR x$[rsp], rax
  001d0	75 11		 jne	 SHORT $LN3@PyLong_AsL@4

; 1400 :             res = PY_LLONG_MIN;

  001d2	48 b8 00 00 00
	00 00 00 00 80	 mov	 rax, -9223372036854775808 ; 8000000000000000H
  001dc	48 89 44 24 20	 mov	 QWORD PTR res$[rsp], rax

; 1401 :         }
; 1402 :         else {

  001e1	eb 0b		 jmp	 SHORT $LN2@PyLong_AsL@4
$LN3@PyLong_AsL@4:

; 1403 :             *overflow = sign;

  001e3	48 8b 44 24 78	 mov	 rax, QWORD PTR overflow$[rsp]
  001e8	8b 4c 24 50	 mov	 ecx, DWORD PTR sign$[rsp]
  001ec	89 08		 mov	 DWORD PTR [rax], ecx
$LN2@PyLong_AsL@4:
$LN4@PyLong_AsL@4:
$LN14@PyLong_AsL@4:
$exit$21178:

; 1404 :             /* res is already set to -1 */
; 1405 :         }
; 1406 :     }
; 1407 :   exit:
; 1408 :     if (do_decref) {

  001ee	83 7c 24 30 00	 cmp	 DWORD PTR do_decref$[rsp], 0
  001f3	74 0a		 je	 SHORT $LN1@PyLong_AsL@4

; 1409 :         Py_DECREF(v);

  001f5	48 8b 4c 24 28	 mov	 rcx, QWORD PTR v$[rsp]
  001fa	e8 00 00 00 00	 call	 _Py_DecRef
$LN1@PyLong_AsL@4:

; 1410 :     }
; 1411 :     return res;

  001ff	48 8b 44 24 20	 mov	 rax, QWORD PTR res$[rsp]
$LN20@PyLong_AsL@4:

; 1412 : }

  00204	48 83 c4 68	 add	 rsp, 104		; 00000068H
  00208	c3		 ret	 0
PyLong_AsLongLongAndOverflow ENDP
_TEXT	ENDS
;	COMDAT pdata
pdata	SEGMENT
$pdata$long_to_decimal_string DD imagerel long_to_decimal_string
	DD	imagerel long_to_decimal_string+46
	DD	imagerel $unwind$long_to_decimal_string
pdata	ENDS
;	COMDAT xdata
xdata	SEGMENT
$unwind$long_to_decimal_string DD 010901H
	DD	06209H
; Function compile flags: /Odtp
xdata	ENDS
;	COMDAT long_to_decimal_string
_TEXT	SEGMENT
v$ = 32
aa$ = 64
long_to_decimal_string PROC				; COMDAT

; 1734 : {

  00000	48 89 4c 24 08	 mov	 QWORD PTR [rsp+8], rcx
  00005	48 83 ec 38	 sub	 rsp, 56			; 00000038H

; 1735 :     PyObject *v;
; 1736 :     if (long_to_decimal_string_internal(aa, &v, NULL) == -1)

  00009	45 33 c0	 xor	 r8d, r8d
  0000c	48 8d 54 24 20	 lea	 rdx, QWORD PTR v$[rsp]
  00011	48 8b 4c 24 40	 mov	 rcx, QWORD PTR aa$[rsp]
  00016	e8 00 00 00 00	 call	 long_to_decimal_string_internal
  0001b	83 f8 ff	 cmp	 eax, -1
  0001e	75 04		 jne	 SHORT $LN1@long_to_de

; 1737 :         return NULL;

  00020	33 c0		 xor	 eax, eax
  00022	eb 05		 jmp	 SHORT $LN2@long_to_de
$LN1@long_to_de:

; 1738 :     return v;

  00024	48 8b 44 24 20	 mov	 rax, QWORD PTR v$[rsp]
$LN2@long_to_de:

; 1739 : }

  00029	48 83 c4 38	 add	 rsp, 56			; 00000038H
  0002d	c3		 ret	 0
long_to_decimal_string ENDP
_TEXT	ENDS
PUBLIC	??_C@_1EI@DMGNHGGF@?$AA_?$AAP?$AAy?$AAU?$AAn?$AAi?$AAc?$AAo?$AAd?$AAe?$AA_?$AAC?$AAh?$AAe?$AAc?$AAk?$AAC?$AAo?$AAn?$AAs?$AAi?$AAs?$AAt?$AAe?$AAn?$AAc?$AAy?$AA?$CI?$AAs?$AAt?$AAr?$AA?0@ ; `string'
PUBLIC	??_C@_1EG@GNEEJBAF@?$AAp?$AA?5?$AA?$DN?$AA?$DN?$AA?5?$AA?$CI?$AAP?$AAy?$AA_?$AAU?$AAC?$AAS?$AA4?$AA?$CK?$AA?$CJ?$AAP?$AAy?$AAU?$AAn?$AAi?$AAc?$AAo?$AAd?$AAe?$AA_?$AAD?$AAA?$AAT?$AAA?$AA?$CI?$AAs?$AAt@ ; `string'
PUBLIC	??_C@_1HM@HLIFOHHE@?$AAp?$AA?5?$AA?$DN?$AA?$DN?$AA?5?$AA?$CI?$AA?$CI?$AAP?$AAy?$AA_?$AAU?$AAC?$AAS?$AA4?$AA?$CK?$AA?$CJ?$AAP?$AAy?$AAU?$AAn?$AAi?$AAc?$AAo?$AAd?$AAe?$AA_?$AAD?$AAA?$AAT?$AAA?$AA?$CI?$AAw@ ; `string'
PUBLIC	??_C@_1DK@MKLBCJPK@?$AAk?$AAi?$AAn?$AAd?$AA?5?$AA?$DN?$AA?$DN?$AA?5?$AAP?$AAy?$AAU?$AAn?$AAi?$AAc?$AAo?$AAd?$AAe?$AA_?$AA4?$AAB?$AAY?$AAT?$AAE?$AA_?$AAK?$AAI?$AAN?$AAD?$AA?$AA@ ; `string'
PUBLIC	??_C@_1EG@LGIAMOCO@?$AAp?$AA?5?$AA?$DN?$AA?$DN?$AA?5?$AA?$CI?$AAP?$AAy?$AA_?$AAU?$AAC?$AAS?$AA2?$AA?$CK?$AA?$CJ?$AAP?$AAy?$AAU?$AAn?$AAi?$AAc?$AAo?$AAd?$AAe?$AA_?$AAD?$AAA?$AAT?$AAA?$AA?$CI?$AAs?$AAt@ ; `string'
PUBLIC	??_C@_1HM@NOGJJOMH@?$AAp?$AA?5?$AA?$DN?$AA?$DN?$AA?5?$AA?$CI?$AA?$CI?$AAP?$AAy?$AA_?$AAU?$AAC?$AAS?$AA2?$AA?$CK?$AA?$CJ?$AAP?$AAy?$AAU?$AAn?$AAi?$AAc?$AAo?$AAd?$AAe?$AA_?$AAD?$AAA?$AAT?$AAA?$AA?$CI?$AAw@ ; `string'
PUBLIC	??_C@_1EG@DGNKGCJL@?$AAp?$AA?5?$AA?$DN?$AA?$DN?$AA?5?$AA?$CI?$AAP?$AAy?$AA_?$AAU?$AAC?$AAS?$AA1?$AA?$CK?$AA?$CJ?$AAP?$AAy?$AAU?$AAn?$AAi?$AAc?$AAo?$AAd?$AAe?$AA_?$AAD?$AAA?$AAT?$AAA?$AA?$CI?$AAs?$AAt@ ; `string'
PUBLIC	??_C@_1HM@GBCHCBDO@?$AAp?$AA?5?$AA?$DN?$AA?$DN?$AA?5?$AA?$CI?$AA?$CI?$AAP?$AAy?$AA_?$AAU?$AAC?$AAS?$AA1?$AA?$CK?$AA?$CJ?$AAP?$AAy?$AAU?$AAn?$AAi?$AAc?$AAo?$AAd?$AAe?$AA_?$AAD?$AAA?$AAT?$AAA?$AA?$CI?$AAw@ ; `string'
PUBLIC	??_C@_1EI@DHHCGFBB@?$AA?$CI?$AA?$CI?$AAP?$AAy?$AAU?$AAn?$AAi?$AAc?$AAo?$AAd?$AAe?$AAO?$AAb?$AAj?$AAe?$AAc?$AAt?$AA?$CK?$AA?$CJ?$AA?$CI?$AAs?$AAt?$AAr?$AA?$CJ?$AA?$CJ?$AA?9?$AA?$DO?$AAd?$AAa?$AAt?$AAa?$AA?4@ ; `string'
PUBLIC	??_C@_1FO@LMCAFPPO@?$AA?$CI?$AA?$CI?$AAP?$AAy?$AAU?$AAn?$AAi?$AAc?$AAo?$AAd?$AAe?$AAO?$AAb?$AAj?$AAe?$AAc?$AAt?$AA?$CK?$AA?$CJ?$AA?$CI?$AAw?$AAr?$AAi?$AAt?$AAe?$AAr?$AA?9?$AA?$DO?$AAb?$AAu?$AAf?$AAf@ ; `string'
PUBLIC	??_C@_1EG@PPKNGJHM@?$AAP?$AAy?$AAU?$AAn?$AAi?$AAc?$AAo?$AAd?$AAe?$AA_?$AAI?$AAS?$AA_?$AAR?$AAE?$AAA?$AAD?$AAY?$AA?$CI?$AAw?$AAr?$AAi?$AAt?$AAe?$AAr?$AA?9?$AA?$DO?$AAb?$AAu?$AAf?$AAf?$AAe@ ; `string'
PUBLIC	??_C@_1EA@NPPKNACA@?$AAP?$AAy?$AAU?$AAn?$AAi?$AAc?$AAo?$AAd?$AAe?$AA_?$AAC?$AAh?$AAe?$AAc?$AAk?$AA?$CI?$AAw?$AAr?$AAi?$AAt?$AAe?$AAr?$AA?9?$AA?$DO?$AAb?$AAu?$AAf?$AAf?$AAe?$AAr?$AA?$CJ?$AA?$AA@ ; `string'
PUBLIC	??_C@_1DA@IKKPLFAK@?$AAP?$AAy?$AAU?$AAn?$AAi?$AAc?$AAo?$AAd?$AAe?$AA_?$AAI?$AAS?$AA_?$AAR?$AAE?$AAA?$AAD?$AAY?$AA?$CI?$AAs?$AAt?$AAr?$AA?$CJ?$AA?$AA@ ; `string'
PUBLIC	??_C@_1CK@MNBGFFCA@?$AAP?$AAy?$AAU?$AAn?$AAi?$AAc?$AAo?$AAd?$AAe?$AA_?$AAC?$AAh?$AAe?$AAc?$AAk?$AA?$CI?$AAs?$AAt?$AAr?$AA?$CJ?$AA?$AA@ ; `string'
PUBLIC	??_C@_0BM@IDJHHDAH@long?5is?5too?5large?5to?5format?$AA@ ; `string'
EXTRN	_PyUnicode_CheckConsistency:PROC
EXTRN	PyUnicode_New:PROC
EXTRN	_PyUnicodeWriter_PrepareInternal:PROC
EXTRN	PyErr_CheckSignals:PROC
;	COMDAT pdata
pdata	SEGMENT
$pdata$long_to_decimal_string_internal DD imagerel long_to_decimal_string_internal
	DD	imagerel long_to_decimal_string_internal+7168
	DD	imagerel $unwind$long_to_decimal_string_internal
pdata	ENDS
;	COMDAT xdata
xdata	SEGMENT
$unwind$long_to_decimal_string_internal DD 021601H
	DD	0330116H
xdata	ENDS
;	COMDAT ??_C@_1EI@DMGNHGGF@?$AA_?$AAP?$AAy?$AAU?$AAn?$AAi?$AAc?$AAo?$AAd?$AAe?$AA_?$AAC?$AAh?$AAe?$AAc?$AAk?$AAC?$AAo?$AAn?$AAs?$AAi?$AAs?$AAt?$AAe?$AAn?$AAc?$AAy?$AA?$CI?$AAs?$AAt?$AAr?$AA?0@
CONST	SEGMENT
??_C@_1EI@DMGNHGGF@?$AA_?$AAP?$AAy?$AAU?$AAn?$AAi?$AAc?$AAo?$AAd?$AAe?$AA_?$AAC?$AAh?$AAe?$AAc?$AAk?$AAC?$AAo?$AAn?$AAs?$AAi?$AAs?$AAt?$AAe?$AAn?$AAc?$AAy?$AA?$CI?$AAs?$AAt?$AAr?$AA?0@ DB '_'
	DB	00H, 'P', 00H, 'y', 00H, 'U', 00H, 'n', 00H, 'i', 00H, 'c', 00H
	DB	'o', 00H, 'd', 00H, 'e', 00H, '_', 00H, 'C', 00H, 'h', 00H, 'e'
	DB	00H, 'c', 00H, 'k', 00H, 'C', 00H, 'o', 00H, 'n', 00H, 's', 00H
	DB	'i', 00H, 's', 00H, 't', 00H, 'e', 00H, 'n', 00H, 'c', 00H, 'y'
	DB	00H, '(', 00H, 's', 00H, 't', 00H, 'r', 00H, ',', 00H, ' ', 00H
	DB	'1', 00H, ')', 00H, 00H, 00H			; `string'
CONST	ENDS
;	COMDAT ??_C@_1EG@GNEEJBAF@?$AAp?$AA?5?$AA?$DN?$AA?$DN?$AA?5?$AA?$CI?$AAP?$AAy?$AA_?$AAU?$AAC?$AAS?$AA4?$AA?$CK?$AA?$CJ?$AAP?$AAy?$AAU?$AAn?$AAi?$AAc?$AAo?$AAd?$AAe?$AA_?$AAD?$AAA?$AAT?$AAA?$AA?$CI?$AAs?$AAt@
CONST	SEGMENT
??_C@_1EG@GNEEJBAF@?$AAp?$AA?5?$AA?$DN?$AA?$DN?$AA?5?$AA?$CI?$AAP?$AAy?$AA_?$AAU?$AAC?$AAS?$AA4?$AA?$CK?$AA?$CJ?$AAP?$AAy?$AAU?$AAn?$AAi?$AAc?$AAo?$AAd?$AAe?$AA_?$AAD?$AAA?$AAT?$AAA?$AA?$CI?$AAs?$AAt@ DB 'p'
	DB	00H, ' ', 00H, '=', 00H, '=', 00H, ' ', 00H, '(', 00H, 'P', 00H
	DB	'y', 00H, '_', 00H, 'U', 00H, 'C', 00H, 'S', 00H, '4', 00H, '*'
	DB	00H, ')', 00H, 'P', 00H, 'y', 00H, 'U', 00H, 'n', 00H, 'i', 00H
	DB	'c', 00H, 'o', 00H, 'd', 00H, 'e', 00H, '_', 00H, 'D', 00H, 'A'
	DB	00H, 'T', 00H, 'A', 00H, '(', 00H, 's', 00H, 't', 00H, 'r', 00H
	DB	')', 00H, 00H, 00H				; `string'
CONST	ENDS
;	COMDAT ??_C@_1HM@HLIFOHHE@?$AAp?$AA?5?$AA?$DN?$AA?$DN?$AA?5?$AA?$CI?$AA?$CI?$AAP?$AAy?$AA_?$AAU?$AAC?$AAS?$AA4?$AA?$CK?$AA?$CJ?$AAP?$AAy?$AAU?$AAn?$AAi?$AAc?$AAo?$AAd?$AAe?$AA_?$AAD?$AAA?$AAT?$AAA?$AA?$CI?$AAw@
CONST	SEGMENT
??_C@_1HM@HLIFOHHE@?$AAp?$AA?5?$AA?$DN?$AA?$DN?$AA?5?$AA?$CI?$AA?$CI?$AAP?$AAy?$AA_?$AAU?$AAC?$AAS?$AA4?$AA?$CK?$AA?$CJ?$AAP?$AAy?$AAU?$AAn?$AAi?$AAc?$AAo?$AAd?$AAe?$AA_?$AAD?$AAA?$AAT?$AAA?$AA?$CI?$AAw@ DB 'p'
	DB	00H, ' ', 00H, '=', 00H, '=', 00H, ' ', 00H, '(', 00H, '(', 00H
	DB	'P', 00H, 'y', 00H, '_', 00H, 'U', 00H, 'C', 00H, 'S', 00H, '4'
	DB	00H, '*', 00H, ')', 00H, 'P', 00H, 'y', 00H, 'U', 00H, 'n', 00H
	DB	'i', 00H, 'c', 00H, 'o', 00H, 'd', 00H, 'e', 00H, '_', 00H, 'D'
	DB	00H, 'A', 00H, 'T', 00H, 'A', 00H, '(', 00H, 'w', 00H, 'r', 00H
	DB	'i', 00H, 't', 00H, 'e', 00H, 'r', 00H, '-', 00H, '>', 00H, 'b'
	DB	00H, 'u', 00H, 'f', 00H, 'f', 00H, 'e', 00H, 'r', 00H, ')', 00H
	DB	' ', 00H, '+', 00H, ' ', 00H, 'w', 00H, 'r', 00H, 'i', 00H, 't'
	DB	00H, 'e', 00H, 'r', 00H, '-', 00H, '>', 00H, 'p', 00H, 'o', 00H
	DB	's', 00H, ')', 00H, 00H, 00H			; `string'
CONST	ENDS
;	COMDAT ??_C@_1DK@MKLBCJPK@?$AAk?$AAi?$AAn?$AAd?$AA?5?$AA?$DN?$AA?$DN?$AA?5?$AAP?$AAy?$AAU?$AAn?$AAi?$AAc?$AAo?$AAd?$AAe?$AA_?$AA4?$AAB?$AAY?$AAT?$AAE?$AA_?$AAK?$AAI?$AAN?$AAD?$AA?$AA@
CONST	SEGMENT
??_C@_1DK@MKLBCJPK@?$AAk?$AAi?$AAn?$AAd?$AA?5?$AA?$DN?$AA?$DN?$AA?5?$AAP?$AAy?$AAU?$AAn?$AAi?$AAc?$AAo?$AAd?$AAe?$AA_?$AA4?$AAB?$AAY?$AAT?$AAE?$AA_?$AAK?$AAI?$AAN?$AAD?$AA?$AA@ DB 'k'
	DB	00H, 'i', 00H, 'n', 00H, 'd', 00H, ' ', 00H, '=', 00H, '=', 00H
	DB	' ', 00H, 'P', 00H, 'y', 00H, 'U', 00H, 'n', 00H, 'i', 00H, 'c'
	DB	00H, 'o', 00H, 'd', 00H, 'e', 00H, '_', 00H, '4', 00H, 'B', 00H
	DB	'Y', 00H, 'T', 00H, 'E', 00H, '_', 00H, 'K', 00H, 'I', 00H, 'N'
	DB	00H, 'D', 00H, 00H, 00H			; `string'
CONST	ENDS
;	COMDAT ??_C@_1EG@LGIAMOCO@?$AAp?$AA?5?$AA?$DN?$AA?$DN?$AA?5?$AA?$CI?$AAP?$AAy?$AA_?$AAU?$AAC?$AAS?$AA2?$AA?$CK?$AA?$CJ?$AAP?$AAy?$AAU?$AAn?$AAi?$AAc?$AAo?$AAd?$AAe?$AA_?$AAD?$AAA?$AAT?$AAA?$AA?$CI?$AAs?$AAt@
CONST	SEGMENT
??_C@_1EG@LGIAMOCO@?$AAp?$AA?5?$AA?$DN?$AA?$DN?$AA?5?$AA?$CI?$AAP?$AAy?$AA_?$AAU?$AAC?$AAS?$AA2?$AA?$CK?$AA?$CJ?$AAP?$AAy?$AAU?$AAn?$AAi?$AAc?$AAo?$AAd?$AAe?$AA_?$AAD?$AAA?$AAT?$AAA?$AA?$CI?$AAs?$AAt@ DB 'p'
	DB	00H, ' ', 00H, '=', 00H, '=', 00H, ' ', 00H, '(', 00H, 'P', 00H
	DB	'y', 00H, '_', 00H, 'U', 00H, 'C', 00H, 'S', 00H, '2', 00H, '*'
	DB	00H, ')', 00H, 'P', 00H, 'y', 00H, 'U', 00H, 'n', 00H, 'i', 00H
	DB	'c', 00H, 'o', 00H, 'd', 00H, 'e', 00H, '_', 00H, 'D', 00H, 'A'
	DB	00H, 'T', 00H, 'A', 00H, '(', 00H, 's', 00H, 't', 00H, 'r', 00H
	DB	')', 00H, 00H, 00H				; `string'
CONST	ENDS
;	COMDAT ??_C@_1HM@NOGJJOMH@?$AAp?$AA?5?$AA?$DN?$AA?$DN?$AA?5?$AA?$CI?$AA?$CI?$AAP?$AAy?$AA_?$AAU?$AAC?$AAS?$AA2?$AA?$CK?$AA?$CJ?$AAP?$AAy?$AAU?$AAn?$AAi?$AAc?$AAo?$AAd?$AAe?$AA_?$AAD?$AAA?$AAT?$AAA?$AA?$CI?$AAw@
CONST	SEGMENT
??_C@_1HM@NOGJJOMH@?$AAp?$AA?5?$AA?$DN?$AA?$DN?$AA?5?$AA?$CI?$AA?$CI?$AAP?$AAy?$AA_?$AAU?$AAC?$AAS?$AA2?$AA?$CK?$AA?$CJ?$AAP?$AAy?$AAU?$AAn?$AAi?$AAc?$AAo?$AAd?$AAe?$AA_?$AAD?$AAA?$AAT?$AAA?$AA?$CI?$AAw@ DB 'p'
	DB	00H, ' ', 00H, '=', 00H, '=', 00H, ' ', 00H, '(', 00H, '(', 00H
	DB	'P', 00H, 'y', 00H, '_', 00H, 'U', 00H, 'C', 00H, 'S', 00H, '2'
	DB	00H, '*', 00H, ')', 00H, 'P', 00H, 'y', 00H, 'U', 00H, 'n', 00H
	DB	'i', 00H, 'c', 00H, 'o', 00H, 'd', 00H, 'e', 00H, '_', 00H, 'D'
	DB	00H, 'A', 00H, 'T', 00H, 'A', 00H, '(', 00H, 'w', 00H, 'r', 00H
	DB	'i', 00H, 't', 00H, 'e', 00H, 'r', 00H, '-', 00H, '>', 00H, 'b'
	DB	00H, 'u', 00H, 'f', 00H, 'f', 00H, 'e', 00H, 'r', 00H, ')', 00H
	DB	' ', 00H, '+', 00H, ' ', 00H, 'w', 00H, 'r', 00H, 'i', 00H, 't'
	DB	00H, 'e', 00H, 'r', 00H, '-', 00H, '>', 00H, 'p', 00H, 'o', 00H
	DB	's', 00H, ')', 00H, 00H, 00H			; `string'
CONST	ENDS
;	COMDAT ??_C@_1EG@DGNKGCJL@?$AAp?$AA?5?$AA?$DN?$AA?$DN?$AA?5?$AA?$CI?$AAP?$AAy?$AA_?$AAU?$AAC?$AAS?$AA1?$AA?$CK?$AA?$CJ?$AAP?$AAy?$AAU?$AAn?$AAi?$AAc?$AAo?$AAd?$AAe?$AA_?$AAD?$AAA?$AAT?$AAA?$AA?$CI?$AAs?$AAt@
CONST	SEGMENT
??_C@_1EG@DGNKGCJL@?$AAp?$AA?5?$AA?$DN?$AA?$DN?$AA?5?$AA?$CI?$AAP?$AAy?$AA_?$AAU?$AAC?$AAS?$AA1?$AA?$CK?$AA?$CJ?$AAP?$AAy?$AAU?$AAn?$AAi?$AAc?$AAo?$AAd?$AAe?$AA_?$AAD?$AAA?$AAT?$AAA?$AA?$CI?$AAs?$AAt@ DB 'p'
	DB	00H, ' ', 00H, '=', 00H, '=', 00H, ' ', 00H, '(', 00H, 'P', 00H
	DB	'y', 00H, '_', 00H, 'U', 00H, 'C', 00H, 'S', 00H, '1', 00H, '*'
	DB	00H, ')', 00H, 'P', 00H, 'y', 00H, 'U', 00H, 'n', 00H, 'i', 00H
	DB	'c', 00H, 'o', 00H, 'd', 00H, 'e', 00H, '_', 00H, 'D', 00H, 'A'
	DB	00H, 'T', 00H, 'A', 00H, '(', 00H, 's', 00H, 't', 00H, 'r', 00H
	DB	')', 00H, 00H, 00H				; `string'
CONST	ENDS
;	COMDAT ??_C@_1HM@GBCHCBDO@?$AAp?$AA?5?$AA?$DN?$AA?$DN?$AA?5?$AA?$CI?$AA?$CI?$AAP?$AAy?$AA_?$AAU?$AAC?$AAS?$AA1?$AA?$CK?$AA?$CJ?$AAP?$AAy?$AAU?$AAn?$AAi?$AAc?$AAo?$AAd?$AAe?$AA_?$AAD?$AAA?$AAT?$AAA?$AA?$CI?$AAw@
CONST	SEGMENT
??_C@_1HM@GBCHCBDO@?$AAp?$AA?5?$AA?$DN?$AA?$DN?$AA?5?$AA?$CI?$AA?$CI?$AAP?$AAy?$AA_?$AAU?$AAC?$AAS?$AA1?$AA?$CK?$AA?$CJ?$AAP?$AAy?$AAU?$AAn?$AAi?$AAc?$AAo?$AAd?$AAe?$AA_?$AAD?$AAA?$AAT?$AAA?$AA?$CI?$AAw@ DB 'p'
	DB	00H, ' ', 00H, '=', 00H, '=', 00H, ' ', 00H, '(', 00H, '(', 00H
	DB	'P', 00H, 'y', 00H, '_', 00H, 'U', 00H, 'C', 00H, 'S', 00H, '1'
	DB	00H, '*', 00H, ')', 00H, 'P', 00H, 'y', 00H, 'U', 00H, 'n', 00H
	DB	'i', 00H, 'c', 00H, 'o', 00H, 'd', 00H, 'e', 00H, '_', 00H, 'D'
	DB	00H, 'A', 00H, 'T', 00H, 'A', 00H, '(', 00H, 'w', 00H, 'r', 00H
	DB	'i', 00H, 't', 00H, 'e', 00H, 'r', 00H, '-', 00H, '>', 00H, 'b'
	DB	00H, 'u', 00H, 'f', 00H, 'f', 00H, 'e', 00H, 'r', 00H, ')', 00H
	DB	' ', 00H, '+', 00H, ' ', 00H, 'w', 00H, 'r', 00H, 'i', 00H, 't'
	DB	00H, 'e', 00H, 'r', 00H, '-', 00H, '>', 00H, 'p', 00H, 'o', 00H
	DB	's', 00H, ')', 00H, 00H, 00H			; `string'
CONST	ENDS
;	COMDAT ??_C@_1EI@DHHCGFBB@?$AA?$CI?$AA?$CI?$AAP?$AAy?$AAU?$AAn?$AAi?$AAc?$AAo?$AAd?$AAe?$AAO?$AAb?$AAj?$AAe?$AAc?$AAt?$AA?$CK?$AA?$CJ?$AA?$CI?$AAs?$AAt?$AAr?$AA?$CJ?$AA?$CJ?$AA?9?$AA?$DO?$AAd?$AAa?$AAt?$AAa?$AA?4@
CONST	SEGMENT
??_C@_1EI@DHHCGFBB@?$AA?$CI?$AA?$CI?$AAP?$AAy?$AAU?$AAn?$AAi?$AAc?$AAo?$AAd?$AAe?$AAO?$AAb?$AAj?$AAe?$AAc?$AAt?$AA?$CK?$AA?$CJ?$AA?$CI?$AAs?$AAt?$AAr?$AA?$CJ?$AA?$CJ?$AA?9?$AA?$DO?$AAd?$AAa?$AAt?$AAa?$AA?4@ DB '('
	DB	00H, '(', 00H, 'P', 00H, 'y', 00H, 'U', 00H, 'n', 00H, 'i', 00H
	DB	'c', 00H, 'o', 00H, 'd', 00H, 'e', 00H, 'O', 00H, 'b', 00H, 'j'
	DB	00H, 'e', 00H, 'c', 00H, 't', 00H, '*', 00H, ')', 00H, '(', 00H
	DB	's', 00H, 't', 00H, 'r', 00H, ')', 00H, ')', 00H, '-', 00H, '>'
	DB	00H, 'd', 00H, 'a', 00H, 't', 00H, 'a', 00H, '.', 00H, 'a', 00H
	DB	'n', 00H, 'y', 00H, 00H, 00H			; `string'
CONST	ENDS
;	COMDAT ??_C@_1FO@LMCAFPPO@?$AA?$CI?$AA?$CI?$AAP?$AAy?$AAU?$AAn?$AAi?$AAc?$AAo?$AAd?$AAe?$AAO?$AAb?$AAj?$AAe?$AAc?$AAt?$AA?$CK?$AA?$CJ?$AA?$CI?$AAw?$AAr?$AAi?$AAt?$AAe?$AAr?$AA?9?$AA?$DO?$AAb?$AAu?$AAf?$AAf@
CONST	SEGMENT
??_C@_1FO@LMCAFPPO@?$AA?$CI?$AA?$CI?$AAP?$AAy?$AAU?$AAn?$AAi?$AAc?$AAo?$AAd?$AAe?$AAO?$AAb?$AAj?$AAe?$AAc?$AAt?$AA?$CK?$AA?$CJ?$AA?$CI?$AAw?$AAr?$AAi?$AAt?$AAe?$AAr?$AA?9?$AA?$DO?$AAb?$AAu?$AAf?$AAf@ DB '('
	DB	00H, '(', 00H, 'P', 00H, 'y', 00H, 'U', 00H, 'n', 00H, 'i', 00H
	DB	'c', 00H, 'o', 00H, 'd', 00H, 'e', 00H, 'O', 00H, 'b', 00H, 'j'
	DB	00H, 'e', 00H, 'c', 00H, 't', 00H, '*', 00H, ')', 00H, '(', 00H
	DB	'w', 00H, 'r', 00H, 'i', 00H, 't', 00H, 'e', 00H, 'r', 00H, '-'
	DB	00H, '>', 00H, 'b', 00H, 'u', 00H, 'f', 00H, 'f', 00H, 'e', 00H
	DB	'r', 00H, ')', 00H, ')', 00H, '-', 00H, '>', 00H, 'd', 00H, 'a'
	DB	00H, 't', 00H, 'a', 00H, '.', 00H, 'a', 00H, 'n', 00H, 'y', 00H
	DB	00H, 00H					; `string'
CONST	ENDS
;	COMDAT ??_C@_1EG@PPKNGJHM@?$AAP?$AAy?$AAU?$AAn?$AAi?$AAc?$AAo?$AAd?$AAe?$AA_?$AAI?$AAS?$AA_?$AAR?$AAE?$AAA?$AAD?$AAY?$AA?$CI?$AAw?$AAr?$AAi?$AAt?$AAe?$AAr?$AA?9?$AA?$DO?$AAb?$AAu?$AAf?$AAf?$AAe@
CONST	SEGMENT
??_C@_1EG@PPKNGJHM@?$AAP?$AAy?$AAU?$AAn?$AAi?$AAc?$AAo?$AAd?$AAe?$AA_?$AAI?$AAS?$AA_?$AAR?$AAE?$AAA?$AAD?$AAY?$AA?$CI?$AAw?$AAr?$AAi?$AAt?$AAe?$AAr?$AA?9?$AA?$DO?$AAb?$AAu?$AAf?$AAf?$AAe@ DB 'P'
	DB	00H, 'y', 00H, 'U', 00H, 'n', 00H, 'i', 00H, 'c', 00H, 'o', 00H
	DB	'd', 00H, 'e', 00H, '_', 00H, 'I', 00H, 'S', 00H, '_', 00H, 'R'
	DB	00H, 'E', 00H, 'A', 00H, 'D', 00H, 'Y', 00H, '(', 00H, 'w', 00H
	DB	'r', 00H, 'i', 00H, 't', 00H, 'e', 00H, 'r', 00H, '-', 00H, '>'
	DB	00H, 'b', 00H, 'u', 00H, 'f', 00H, 'f', 00H, 'e', 00H, 'r', 00H
	DB	')', 00H, 00H, 00H				; `string'
CONST	ENDS
;	COMDAT ??_C@_1EA@NPPKNACA@?$AAP?$AAy?$AAU?$AAn?$AAi?$AAc?$AAo?$AAd?$AAe?$AA_?$AAC?$AAh?$AAe?$AAc?$AAk?$AA?$CI?$AAw?$AAr?$AAi?$AAt?$AAe?$AAr?$AA?9?$AA?$DO?$AAb?$AAu?$AAf?$AAf?$AAe?$AAr?$AA?$CJ?$AA?$AA@
CONST	SEGMENT
??_C@_1EA@NPPKNACA@?$AAP?$AAy?$AAU?$AAn?$AAi?$AAc?$AAo?$AAd?$AAe?$AA_?$AAC?$AAh?$AAe?$AAc?$AAk?$AA?$CI?$AAw?$AAr?$AAi?$AAt?$AAe?$AAr?$AA?9?$AA?$DO?$AAb?$AAu?$AAf?$AAf?$AAe?$AAr?$AA?$CJ?$AA?$AA@ DB 'P'
	DB	00H, 'y', 00H, 'U', 00H, 'n', 00H, 'i', 00H, 'c', 00H, 'o', 00H
	DB	'd', 00H, 'e', 00H, '_', 00H, 'C', 00H, 'h', 00H, 'e', 00H, 'c'
	DB	00H, 'k', 00H, '(', 00H, 'w', 00H, 'r', 00H, 'i', 00H, 't', 00H
	DB	'e', 00H, 'r', 00H, '-', 00H, '>', 00H, 'b', 00H, 'u', 00H, 'f'
	DB	00H, 'f', 00H, 'e', 00H, 'r', 00H, ')', 00H, 00H, 00H ; `string'
CONST	ENDS
;	COMDAT ??_C@_1DA@IKKPLFAK@?$AAP?$AAy?$AAU?$AAn?$AAi?$AAc?$AAo?$AAd?$AAe?$AA_?$AAI?$AAS?$AA_?$AAR?$AAE?$AAA?$AAD?$AAY?$AA?$CI?$AAs?$AAt?$AAr?$AA?$CJ?$AA?$AA@
CONST	SEGMENT
??_C@_1DA@IKKPLFAK@?$AAP?$AAy?$AAU?$AAn?$AAi?$AAc?$AAo?$AAd?$AAe?$AA_?$AAI?$AAS?$AA_?$AAR?$AAE?$AAA?$AAD?$AAY?$AA?$CI?$AAs?$AAt?$AAr?$AA?$CJ?$AA?$AA@ DB 'P'
	DB	00H, 'y', 00H, 'U', 00H, 'n', 00H, 'i', 00H, 'c', 00H, 'o', 00H
	DB	'd', 00H, 'e', 00H, '_', 00H, 'I', 00H, 'S', 00H, '_', 00H, 'R'
	DB	00H, 'E', 00H, 'A', 00H, 'D', 00H, 'Y', 00H, '(', 00H, 's', 00H
	DB	't', 00H, 'r', 00H, ')', 00H, 00H, 00H	; `string'
CONST	ENDS
