; Listing generated by Microsoft (R) Optimizing Compiler Version 16.00.40219.01 

include listing.inc

INCLUDELIB MSVCRTD
INCLUDELIB OLDNAMES

PUBLIC	??_C@_06NAHKMOGH@_async?$AA@			; `string'
PUBLIC	_async_call_from_main_thread_and_wait
PUBLIC	??_C@_0BP@JFECJGF@call_from_main_thread_and_wait?$AA@ ; `string'
PUBLIC	_async_call_from_main_thread
PUBLIC	??_C@_0BG@GDMKOJLI@call_from_main_thread?$AA@	; `string'
PUBLIC	_async_persisted_contexts
PUBLIC	??_C@_0BD@FHGOHLMH@persisted_contexts?$AA@	; `string'
PUBLIC	_async_is_parallel_thread
PUBLIC	??_C@_0BD@IOGDFFJL@is_parallel_thread?$AA@	; `string'
PUBLIC	_async_active_contexts
PUBLIC	??_C@_0BA@IAMMEFIL@active_contexts?$AA@		; `string'
PUBLIC	_async_signal_and_wait
PUBLIC	??_C@_0BA@KFOAPOMJ@signal_and_wait?$AA@		; `string'
PUBLIC	_async_submit_write_io
PUBLIC	??_C@_0BA@NELHJCPB@submit_write_io?$AA@		; `string'
PUBLIC	_async_try_write_lock
PUBLIC	??_C@_0P@PGLFFOAC@try_write_lock?$AA@		; `string'
PUBLIC	_async_try_read_lock
PUBLIC	??_C@_0O@NMLNLIJN@try_read_lock?$AA@		; `string'
PUBLIC	_async_submit_server
PUBLIC	??_C@_0O@FHOJKAJP@submit_server?$AA@		; `string'
PUBLIC	_async_submit_client
PUBLIC	??_C@_0O@BIKLHLBM@submit_client?$AA@		; `string'
PUBLIC	_async_submit_class
PUBLIC	??_C@_0N@GJCHEFMD@submit_class?$AA@		; `string'
PUBLIC	_async_submit_timer
PUBLIC	??_C@_0N@PEHCKJKL@submit_timer?$AA@		; `string'
PUBLIC	_async__dbg_address
PUBLIC	??_C@_0N@EONPHPCE@_dbg_address?$AA@		; `string'
PUBLIC	_async_active_count
PUBLIC	??_C@_0N@BBPNBAFF@active_count?$AA@		; `string'
PUBLIC	_async_is_active_ex
PUBLIC	??_C@_0N@BKLNKEHO@is_active_ex?$AA@		; `string'
PUBLIC	_async_write_unlock
PUBLIC	??_C@_0N@MOAFFPLO@write_unlock?$AA@		; `string'
PUBLIC	_async_read_unlock
PUBLIC	??_C@_0M@KBMFGJKH@read_unlock?$AA@		; `string'
PUBLIC	_async_submit_wait
PUBLIC	??_C@_0M@MONDDDPF@submit_wait?$AA@		; `string'
PUBLIC	_async_submit_work
PUBLIC	??_C@_0M@PDCFAGMJ@submit_work?$AA@		; `string'
PUBLIC	_async_write_lock
PUBLIC	??_C@_0L@LOEOJHDP@write_lock?$AA@		; `string'
PUBLIC	_async_filecloser
PUBLIC	??_C@_0L@NHCCIFLF@filecloser?$AA@		; `string'
PUBLIC	_async_fileopener
PUBLIC	??_C@_0L@IMFFLKMC@fileopener?$AA@		; `string'
PUBLIC	_async__post_open
PUBLIC	??_C@_0L@ILCHLJH@_post_open?$AA@		; `string'
PUBLIC	_async_read_lock
PUBLIC	??_C@_09JFECMODK@read_lock?$AA@			; `string'
PUBLIC	_async_submit_io
PUBLIC	??_C@_09NGDECFMF@submit_io?$AA@			; `string'
PUBLIC	_async_is_active
PUBLIC	??_C@_09NFIEOJGK@is_active?$AA@			; `string'
PUBLIC	_async_protected
PUBLIC	??_C@_09IPOLMLK@protected?$AA@			; `string'
PUBLIC	_async_unprotect
PUBLIC	??_C@_09LHNJOGML@unprotect?$AA@			; `string'
PUBLIC	_async_cpu_count
PUBLIC	??_C@_09CHNCHKJL@cpu_count?$AA@			; `string'
PUBLIC	_async_run_once
PUBLIC	??_C@_08JHMCJIFL@run_once?$AA@			; `string'
PUBLIC	_async_register
PUBLIC	??_C@_08DHHIDNEP@register?$AA@			; `string'
PUBLIC	_async__rawfile
PUBLIC	??_C@_08GIJFBOPB@_rawfile?$AA@			; `string'
PUBLIC	_async__address
PUBLIC	??_C@_08JJIPKIML@_address?$AA@			; `string'
PUBLIC	_async_prewait
PUBLIC	??_C@_07NBHOAOAJ@prewait?$AA@			; `string'
PUBLIC	_async_protect
PUBLIC	??_C@_07LFLAEFDO@protect?$AA@			; `string'
PUBLIC	_async_server
PUBLIC	??_C@_06HJHJCKIO@server?$AA@			; `string'
PUBLIC	_async_client
PUBLIC	??_C@_06DGDLPBAN@client?$AA@			; `string'
PUBLIC	_async_signal
PUBLIC	??_C@_06OAFOBKHE@signal?$AA@			; `string'
PUBLIC	_async__close
PUBLIC	??_C@_06EINEPANJ@_close?$AA@			; `string'
PUBLIC	_async_stderr
PUBLIC	??_C@_06FJGNEBG@stderr?$AA@			; `string'
PUBLIC	_async_stdout
PUBLIC	??_C@_06DJDOIFHB@stdout?$AA@			; `string'
PUBLIC	_async_rdtsc
PUBLIC	??_C@_05JIFPPKLN@rdtsc?$AA@			; `string'
PUBLIC	_async_write
PUBLIC	??_C@_05NGFEDHGN@write?$AA@			; `string'
PUBLIC	_async_print
PUBLIC	??_C@_05IJDJACGD@print?$AA@			; `string'
PUBLIC	_async_list
PUBLIC	??_C@_04DONFEANM@list?$AA@			; `string'
PUBLIC	_async_dict
PUBLIC	??_C@_04BCIDKIGN@dict?$AA@			; `string'
PUBLIC	_async_read
PUBLIC	??_C@_04POLDLDMI@read?$AA@			; `string'
PUBLIC	_async_wait
PUBLIC	??_C@_04PNOAOIAG@wait?$AA@			; `string'
PUBLIC	_async_run
PUBLIC	??_C@_03LGMJKEGG@run?$AA@			; `string'
PUBLIC	_async_map
PUBLIC	??_C@_0M@NCDCDINH@OO?3register?$AA@		; `string'
PUBLIC	??_C@_08FCFPNNHF@protocol?$AA@			; `string'
PUBLIC	??_C@_09PBENLGJM@transport?$AA@			; `string'
PUBLIC	??_C@_0BM@BICFFLHA@Asynchronous?5Socket?5Objects?$AA@ ; `string'
PUBLIC	pxsocket_dealloc
PUBLIC	??_C@_0O@POBIDKD@_async?4socket?$AA@		; `string'
PUBLIC	??_C@_0BH@CNEGKLNK@sock_timeout?5attribute?$AA@	; `string'
PUBLIC	??_C@_0N@EJAJFIKO@sock_timeout?$AA@		; `string'
PUBLIC	??_C@_0BF@PGBPHFFO@sock_proto?5attribute?$AA@	; `string'
PUBLIC	??_C@_0L@LEEOFDBB@sock_proto?$AA@		; `string'
PUBLIC	??_C@_0BE@GKFOEKAL@sock_type?5attribute?$AA@	; `string'
PUBLIC	??_C@_09POMCLMKJ@sock_type?$AA@			; `string'
PUBLIC	??_C@_0BG@OGFLPBML@sock_family?5attribute?$AA@	; `string'
PUBLIC	??_C@_0M@MPEABHKE@sock_family?$AA@		; `string'
PUBLIC	??_C@_0P@JEFMDHHI@port?5attribute?$AA@		; `string'
PUBLIC	??_C@_0P@MCCBLNDF@host?5attribute?$AA@		; `string'
PUBLIC	??_C@_0N@MACGLBGI@ip?5attribute?$AA@		; `string'
PUBLIC	??_C@_02GIIHKPLE@ip?$AA@			; `string'
PUBLIC	pxsocket_next_send_id
PUBLIC	??_C@_0N@NCCDGHBG@next_send_id?$AA@		; `string'
PUBLIC	pxsocket_sendfile
PUBLIC	??_C@_08JCEFHKI@sendfile?$AA@			; `string'
PUBLIC	pxsocket_close
PUBLIC	??_C@_05LBOHBHFK@close?$AA@			; `string'
PUBLIC	??_C@_0BH@JFNJHNMC@max_sync_recv_attempts?$AA@	; `string'
PUBLIC	??_C@_0BH@GAODOAFA@max_sync_send_attempts?$AA@	; `string'
PUBLIC	??_C@_0O@DEOIOEML@shutdown_send?$AA@		; `string'
PUBLIC	??_C@_0M@FFOAFBMD@concurrency?$AA@		; `string'
PUBLIC	??_C@_0L@LPJIDIJF@throughput?$AA@		; `string'
PUBLIC	??_C@_0L@JKAFEJJM@lines_mode?$AA@		; `string'
PUBLIC	??_C@_0O@FEMJBDAD@send_complete?$AA@		; `string'
PUBLIC	??_C@_0O@HGCJJJHB@recv_shutdown?$AA@		; `string'
PUBLIC	??_C@_0O@IDBDAEOD@send_shutdown?$AA@		; `string'
PUBLIC	??_C@_0M@NJCGKHAI@recv_failed?$AA@		; `string'
PUBLIC	??_C@_0M@DFELAKCA@send_failed?$AA@		; `string'
PUBLIC	_Py_HandleCtrlC
PUBLIC	xlist_new
PUBLIC	xlist_alloc
PUBLIC	??_C@_0BI@GPMFHCMJ@Interlocked?5List?5Object?$AA@ ; `string'
PUBLIC	xlist_dealloc
PUBLIC	??_C@_05KOEEJJMO@xlist?$AA@			; `string'
PUBLIC	PyXList_Length
PUBLIC	xlist_flush
PUBLIC	??_C@_05GLCAEPFP@flush?$AA@			; `string'
PUBLIC	xlist_push
PUBLIC	??_C@_04GHHNIPCF@push?$AA@			; `string'
PUBLIC	xlist_pop
PUBLIC	??_C@_03NJDAHFJE@pop?$AA@			; `string'
PUBLIC	??_C@_09KKLBMLNG@_parallel?$AA@			; `string'
PUBLIC	_parallel_map
PUBLIC	??_C@_03HBNNNHNM@map?$AA@			; `string'
PUBLIC	??_C@_0P@LHLKCILO@?$HMs?$CDiiii?3socket?$AA@	; `string'
PUBLIC	??_C@_0BA@BGFLKNPD@max_line_length?$AA@		; `string'
PUBLIC	??_C@_0P@KIPMBABE@auto_reconnect?$AA@		; `string'
PUBLIC	??_C@_0N@OMMDCOFJ@wait_for_eol?$AA@		; `string'
PUBLIC	??_C@_09JDOKIHNG@line_mode?$AA@			; `string'
PUBLIC	??_C@_0BI@NHGFAPHE@initial_regex_to_expect?$AA@	; `string'
PUBLIC	??_C@_0BI@IECGIAPO@initial_words_to_expect?$AA@	; `string'
PUBLIC	??_C@_0BG@FNILJMKJ@initial_bytes_to_send?$AA@	; `string'
PUBLIC	??_C@_0BJ@PIOCLNOP@initial_connection_error?$AA@ ; `string'
PUBLIC	??_C@_0BC@KOBHOIFN@exception_handler?$AA@	; `string'
PUBLIC	??_C@_0BA@KKCDIOEH@connection_done?$AA@		; `string'
PUBLIC	??_C@_0BD@JBGBNIPL@connection_timeout?$AA@	; `string'
PUBLIC	??_C@_0BC@PBJEBHHN@connection_closed?$AA@	; `string'
PUBLIC	??_C@_0BA@NNHENGLF@connection_lost?$AA@		; `string'
PUBLIC	??_C@_0N@HICNGCPO@eof_received?$AA@		; `string'
PUBLIC	??_C@_0P@FHJFIELO@lines_received?$AA@		; `string'
PUBLIC	??_C@_0O@KHJLGLGO@data_received?$AA@		; `string'
PUBLIC	??_C@_0BA@EKHLBOND@connection_made?$AA@		; `string'
PUBLIC	??_C@_05BENFLAID@proto?$AA@			; `string'
PUBLIC	??_C@_04GPMDFGEJ@type?$AA@			; `string'
PUBLIC	??_C@_06NBOBHOCP@family?$AA@			; `string'
PUBLIC	??_C@_04LPGMAPLE@port?$AA@			; `string'
PUBLIC	??_C@_04OODOLJMA@host?$AA@			; `string'
PUBLIC	last_context_heap_malloc_addr
PUBLIC	heap_override
PUBLIC	TSTATE
PUBLIC	tls
PUBLIC	last_heap_override_malloc_addr
PUBLIC	ctx
PUBLIC	Py_MainThreadId
PUBLIC	Py_MainProcessId
PUBLIC	Py_ParallelContextsEnabled
PUBLIC	_PxObjectSignature
PUBLIC	_PxSocketSignature
PUBLIC	_PxSocketBufSignature
PUBLIC	_PxBlockingCallsThreshold
PUBLIC	_Py_CtrlCPressed
PUBLIC	_Py_InstalledCtrlCHandler
PUBLIC	_PyParallel_Finalized
PUBLIC	_PxSocketServer_PreallocatedSockets
PUBLIC	_PxSocket_MaxSyncSendAttempts
PUBLIC	_PxSocket_MaxSyncRecvAttempts
PUBLIC	_PxSocket_MaxRecvBufSize
PUBLIC	_PyTLSHeap_DefaultSize
PUBLIC	_PxSocket_SendListSize
PUBLIC	_PxSocket_ActiveHogs
PUBLIC	_PxSocket_ActiveIOLoops
PUBLIC	_PyParallel_NumCPUs
PUBLIC	_Px_ObjectSignature_CallDepth
PUBLIC	_Px_SafeObjectSignatureTest_CallDepth
PUBLIC	PyXList_Type
PUBLIC	_Py_CtrlCHandlerRoutine
PUBLIC	_async_methods
PUBLIC	_asyncmodule
EXTRN	PyType_GenericAlloc:PROC
EXTRN	PyObject_GenericSetAttr:PROC
EXTRN	PyObject_GenericGetAttr:PROC
_TLS	SEGMENT
last_context_heap_malloc_addr DQ 01H DUP (?)
heap_override DQ 01H DUP (?)
TSTATE	DQ	01H DUP (?)
tls	DB	05e40H DUP (?)
_TLS	ENDS
_DATA	SEGMENT
COMM	PyExc_AssignmentError:QWORD
COMM	PyExc_AsyncError:QWORD
_DATA	ENDS
_TLS	SEGMENT
last_heap_override_malloc_addr DQ 01H DUP (?)
_TLS	ENDS
_BSS	SEGMENT
_Py_CtrlCPressed DD 01H DUP (?)
_Py_InstalledCtrlCHandler DD 01H DUP (?)
_PyParallel_Finalized DD 01H DUP (?)
_PxSocket_ActiveHogs DD 01H DUP (?)
_PxSocket_ActiveIOLoops DD 01H DUP (?)
_PyParallel_NumCPUs DD 01H DUP (?)
_BSS	ENDS
;	COMDAT ??_C@_06NAHKMOGH@_async?$AA@
CONST	SEGMENT
??_C@_06NAHKMOGH@_async?$AA@ DB '_async', 00H		; `string'
CONST	ENDS
;	COMDAT ??_C@_0BP@JFECJGF@call_from_main_thread_and_wait?$AA@
CONST	SEGMENT
??_C@_0BP@JFECJGF@call_from_main_thread_and_wait?$AA@ DB 'call_from_main_'
	DB	'thread_and_wait', 00H			; `string'
CONST	ENDS
;	COMDAT ??_C@_0BG@GDMKOJLI@call_from_main_thread?$AA@
CONST	SEGMENT
??_C@_0BG@GDMKOJLI@call_from_main_thread?$AA@ DB 'call_from_main_thread', 00H ; `string'
CONST	ENDS
;	COMDAT ??_C@_0BD@FHGOHLMH@persisted_contexts?$AA@
CONST	SEGMENT
??_C@_0BD@FHGOHLMH@persisted_contexts?$AA@ DB 'persisted_contexts', 00H ; `string'
CONST	ENDS
;	COMDAT ??_C@_0BD@IOGDFFJL@is_parallel_thread?$AA@
CONST	SEGMENT
??_C@_0BD@IOGDFFJL@is_parallel_thread?$AA@ DB 'is_parallel_thread', 00H ; `string'
CONST	ENDS
;	COMDAT ??_C@_0BA@IAMMEFIL@active_contexts?$AA@
CONST	SEGMENT
??_C@_0BA@IAMMEFIL@active_contexts?$AA@ DB 'active_contexts', 00H ; `string'
CONST	ENDS
;	COMDAT ??_C@_0BA@KFOAPOMJ@signal_and_wait?$AA@
CONST	SEGMENT
??_C@_0BA@KFOAPOMJ@signal_and_wait?$AA@ DB 'signal_and_wait', 00H ; `string'
CONST	ENDS
;	COMDAT ??_C@_0BA@NELHJCPB@submit_write_io?$AA@
CONST	SEGMENT
??_C@_0BA@NELHJCPB@submit_write_io?$AA@ DB 'submit_write_io', 00H ; `string'
CONST	ENDS
;	COMDAT ??_C@_0P@PGLFFOAC@try_write_lock?$AA@
CONST	SEGMENT
??_C@_0P@PGLFFOAC@try_write_lock?$AA@ DB 'try_write_lock', 00H ; `string'
CONST	ENDS
;	COMDAT ??_C@_0O@NMLNLIJN@try_read_lock?$AA@
CONST	SEGMENT
??_C@_0O@NMLNLIJN@try_read_lock?$AA@ DB 'try_read_lock', 00H ; `string'
CONST	ENDS
;	COMDAT ??_C@_0O@FHOJKAJP@submit_server?$AA@
CONST	SEGMENT
??_C@_0O@FHOJKAJP@submit_server?$AA@ DB 'submit_server', 00H ; `string'
CONST	ENDS
;	COMDAT ??_C@_0O@BIKLHLBM@submit_client?$AA@
CONST	SEGMENT
??_C@_0O@BIKLHLBM@submit_client?$AA@ DB 'submit_client', 00H ; `string'
CONST	ENDS
;	COMDAT ??_C@_0N@GJCHEFMD@submit_class?$AA@
CONST	SEGMENT
??_C@_0N@GJCHEFMD@submit_class?$AA@ DB 'submit_class', 00H ; `string'
CONST	ENDS
;	COMDAT ??_C@_0N@PEHCKJKL@submit_timer?$AA@
CONST	SEGMENT
??_C@_0N@PEHCKJKL@submit_timer?$AA@ DB 'submit_timer', 00H ; `string'
CONST	ENDS
;	COMDAT ??_C@_0N@EONPHPCE@_dbg_address?$AA@
CONST	SEGMENT
??_C@_0N@EONPHPCE@_dbg_address?$AA@ DB '_dbg_address', 00H ; `string'
CONST	ENDS
;	COMDAT ??_C@_0N@BBPNBAFF@active_count?$AA@
CONST	SEGMENT
??_C@_0N@BBPNBAFF@active_count?$AA@ DB 'active_count', 00H ; `string'
CONST	ENDS
;	COMDAT ??_C@_0N@BKLNKEHO@is_active_ex?$AA@
CONST	SEGMENT
??_C@_0N@BKLNKEHO@is_active_ex?$AA@ DB 'is_active_ex', 00H ; `string'
CONST	ENDS
;	COMDAT ??_C@_0N@MOAFFPLO@write_unlock?$AA@
CONST	SEGMENT
??_C@_0N@MOAFFPLO@write_unlock?$AA@ DB 'write_unlock', 00H ; `string'
CONST	ENDS
;	COMDAT ??_C@_0M@KBMFGJKH@read_unlock?$AA@
CONST	SEGMENT
??_C@_0M@KBMFGJKH@read_unlock?$AA@ DB 'read_unlock', 00H ; `string'
CONST	ENDS
;	COMDAT ??_C@_0M@MONDDDPF@submit_wait?$AA@
CONST	SEGMENT
??_C@_0M@MONDDDPF@submit_wait?$AA@ DB 'submit_wait', 00H ; `string'
CONST	ENDS
;	COMDAT ??_C@_0M@PDCFAGMJ@submit_work?$AA@
CONST	SEGMENT
??_C@_0M@PDCFAGMJ@submit_work?$AA@ DB 'submit_work', 00H ; `string'
CONST	ENDS
;	COMDAT ??_C@_0L@LOEOJHDP@write_lock?$AA@
CONST	SEGMENT
??_C@_0L@LOEOJHDP@write_lock?$AA@ DB 'write_lock', 00H	; `string'
CONST	ENDS
;	COMDAT ??_C@_0L@NHCCIFLF@filecloser?$AA@
CONST	SEGMENT
??_C@_0L@NHCCIFLF@filecloser?$AA@ DB 'filecloser', 00H	; `string'
CONST	ENDS
;	COMDAT ??_C@_0L@IMFFLKMC@fileopener?$AA@
CONST	SEGMENT
??_C@_0L@IMFFLKMC@fileopener?$AA@ DB 'fileopener', 00H	; `string'
CONST	ENDS
;	COMDAT ??_C@_0L@ILCHLJH@_post_open?$AA@
CONST	SEGMENT
??_C@_0L@ILCHLJH@_post_open?$AA@ DB '_post_open', 00H	; `string'
CONST	ENDS
;	COMDAT ??_C@_09JFECMODK@read_lock?$AA@
CONST	SEGMENT
??_C@_09JFECMODK@read_lock?$AA@ DB 'read_lock', 00H	; `string'
CONST	ENDS
;	COMDAT ??_C@_09NGDECFMF@submit_io?$AA@
CONST	SEGMENT
??_C@_09NGDECFMF@submit_io?$AA@ DB 'submit_io', 00H	; `string'
CONST	ENDS
;	COMDAT ??_C@_09NFIEOJGK@is_active?$AA@
CONST	SEGMENT
??_C@_09NFIEOJGK@is_active?$AA@ DB 'is_active', 00H	; `string'
CONST	ENDS
;	COMDAT ??_C@_09IPOLMLK@protected?$AA@
CONST	SEGMENT
??_C@_09IPOLMLK@protected?$AA@ DB 'protected', 00H	; `string'
CONST	ENDS
;	COMDAT ??_C@_09LHNJOGML@unprotect?$AA@
CONST	SEGMENT
??_C@_09LHNJOGML@unprotect?$AA@ DB 'unprotect', 00H	; `string'
CONST	ENDS
;	COMDAT ??_C@_09CHNCHKJL@cpu_count?$AA@
CONST	SEGMENT
??_C@_09CHNCHKJL@cpu_count?$AA@ DB 'cpu_count', 00H	; `string'
CONST	ENDS
;	COMDAT ??_C@_08JHMCJIFL@run_once?$AA@
CONST	SEGMENT
??_C@_08JHMCJIFL@run_once?$AA@ DB 'run_once', 00H	; `string'
CONST	ENDS
;	COMDAT ??_C@_08DHHIDNEP@register?$AA@
CONST	SEGMENT
??_C@_08DHHIDNEP@register?$AA@ DB 'register', 00H	; `string'
CONST	ENDS
;	COMDAT ??_C@_08GIJFBOPB@_rawfile?$AA@
CONST	SEGMENT
??_C@_08GIJFBOPB@_rawfile?$AA@ DB '_rawfile', 00H	; `string'
CONST	ENDS
;	COMDAT ??_C@_08JJIPKIML@_address?$AA@
CONST	SEGMENT
??_C@_08JJIPKIML@_address?$AA@ DB '_address', 00H	; `string'
CONST	ENDS
;	COMDAT ??_C@_07NBHOAOAJ@prewait?$AA@
CONST	SEGMENT
??_C@_07NBHOAOAJ@prewait?$AA@ DB 'prewait', 00H		; `string'
CONST	ENDS
;	COMDAT ??_C@_07LFLAEFDO@protect?$AA@
CONST	SEGMENT
??_C@_07LFLAEFDO@protect?$AA@ DB 'protect', 00H		; `string'
CONST	ENDS
;	COMDAT ??_C@_06HJHJCKIO@server?$AA@
CONST	SEGMENT
??_C@_06HJHJCKIO@server?$AA@ DB 'server', 00H		; `string'
CONST	ENDS
;	COMDAT ??_C@_06DGDLPBAN@client?$AA@
CONST	SEGMENT
??_C@_06DGDLPBAN@client?$AA@ DB 'client', 00H		; `string'
CONST	ENDS
;	COMDAT ??_C@_06OAFOBKHE@signal?$AA@
CONST	SEGMENT
??_C@_06OAFOBKHE@signal?$AA@ DB 'signal', 00H		; `string'
CONST	ENDS
;	COMDAT ??_C@_06EINEPANJ@_close?$AA@
CONST	SEGMENT
??_C@_06EINEPANJ@_close?$AA@ DB '_close', 00H		; `string'
CONST	ENDS
;	COMDAT ??_C@_06FJGNEBG@stderr?$AA@
CONST	SEGMENT
??_C@_06FJGNEBG@stderr?$AA@ DB 'stderr', 00H		; `string'
CONST	ENDS
;	COMDAT ??_C@_06DJDOIFHB@stdout?$AA@
CONST	SEGMENT
??_C@_06DJDOIFHB@stdout?$AA@ DB 'stdout', 00H		; `string'
CONST	ENDS
;	COMDAT ??_C@_05JIFPPKLN@rdtsc?$AA@
CONST	SEGMENT
??_C@_05JIFPPKLN@rdtsc?$AA@ DB 'rdtsc', 00H		; `string'
CONST	ENDS
;	COMDAT ??_C@_05NGFEDHGN@write?$AA@
CONST	SEGMENT
??_C@_05NGFEDHGN@write?$AA@ DB 'write', 00H		; `string'
CONST	ENDS
;	COMDAT ??_C@_05IJDJACGD@print?$AA@
CONST	SEGMENT
??_C@_05IJDJACGD@print?$AA@ DB 'print', 00H		; `string'
CONST	ENDS
;	COMDAT ??_C@_04DONFEANM@list?$AA@
CONST	SEGMENT
??_C@_04DONFEANM@list?$AA@ DB 'list', 00H		; `string'
CONST	ENDS
;	COMDAT ??_C@_04BCIDKIGN@dict?$AA@
CONST	SEGMENT
??_C@_04BCIDKIGN@dict?$AA@ DB 'dict', 00H		; `string'
CONST	ENDS
;	COMDAT ??_C@_04POLDLDMI@read?$AA@
CONST	SEGMENT
??_C@_04POLDLDMI@read?$AA@ DB 'read', 00H		; `string'
CONST	ENDS
;	COMDAT ??_C@_04PNOAOIAG@wait?$AA@
CONST	SEGMENT
??_C@_04PNOAOIAG@wait?$AA@ DB 'wait', 00H		; `string'
CONST	ENDS
;	COMDAT ??_C@_03LGMJKEGG@run?$AA@
CONST	SEGMENT
??_C@_03LGMJKEGG@run?$AA@ DB 'run', 00H			; `string'
CONST	ENDS
;	COMDAT ??_C@_0M@NCDCDINH@OO?3register?$AA@
CONST	SEGMENT
??_C@_0M@NCDCDINH@OO?3register?$AA@ DB 'OO:register', 00H ; `string'
CONST	ENDS
;	COMDAT ??_C@_08FCFPNNHF@protocol?$AA@
CONST	SEGMENT
??_C@_08FCFPNNHF@protocol?$AA@ DB 'protocol', 00H	; `string'
CONST	ENDS
;	COMDAT ??_C@_09PBENLGJM@transport?$AA@
CONST	SEGMENT
??_C@_09PBENLGJM@transport?$AA@ DB 'transport', 00H	; `string'
CONST	ENDS
;	COMDAT ??_C@_0BM@BICFFLHA@Asynchronous?5Socket?5Objects?$AA@
CONST	SEGMENT
??_C@_0BM@BICFFLHA@Asynchronous?5Socket?5Objects?$AA@ DB 'Asynchronous So'
	DB	'cket Objects', 00H				; `string'
CONST	ENDS
;	COMDAT ??_C@_0O@POBIDKD@_async?4socket?$AA@
CONST	SEGMENT
??_C@_0O@POBIDKD@_async?4socket?$AA@ DB '_async.socket', 00H ; `string'
CONST	ENDS
;	COMDAT ??_C@_0BH@CNEGKLNK@sock_timeout?5attribute?$AA@
CONST	SEGMENT
??_C@_0BH@CNEGKLNK@sock_timeout?5attribute?$AA@ DB 'sock_timeout attribut'
	DB	'e', 00H					; `string'
CONST	ENDS
;	COMDAT ??_C@_0N@EJAJFIKO@sock_timeout?$AA@
CONST	SEGMENT
??_C@_0N@EJAJFIKO@sock_timeout?$AA@ DB 'sock_timeout', 00H ; `string'
CONST	ENDS
;	COMDAT ??_C@_0BF@PGBPHFFO@sock_proto?5attribute?$AA@
CONST	SEGMENT
??_C@_0BF@PGBPHFFO@sock_proto?5attribute?$AA@ DB 'sock_proto attribute', 00H ; `string'
CONST	ENDS
;	COMDAT ??_C@_0L@LEEOFDBB@sock_proto?$AA@
CONST	SEGMENT
??_C@_0L@LEEOFDBB@sock_proto?$AA@ DB 'sock_proto', 00H	; `string'
CONST	ENDS
;	COMDAT ??_C@_0BE@GKFOEKAL@sock_type?5attribute?$AA@
CONST	SEGMENT
??_C@_0BE@GKFOEKAL@sock_type?5attribute?$AA@ DB 'sock_type attribute', 00H ; `string'
CONST	ENDS
;	COMDAT ??_C@_09POMCLMKJ@sock_type?$AA@
CONST	SEGMENT
??_C@_09POMCLMKJ@sock_type?$AA@ DB 'sock_type', 00H	; `string'
CONST	ENDS
;	COMDAT ??_C@_0BG@OGFLPBML@sock_family?5attribute?$AA@
CONST	SEGMENT
??_C@_0BG@OGFLPBML@sock_family?5attribute?$AA@ DB 'sock_family attribute', 00H ; `string'
CONST	ENDS
;	COMDAT ??_C@_0M@MPEABHKE@sock_family?$AA@
CONST	SEGMENT
??_C@_0M@MPEABHKE@sock_family?$AA@ DB 'sock_family', 00H ; `string'
CONST	ENDS
;	COMDAT ??_C@_0P@JEFMDHHI@port?5attribute?$AA@
CONST	SEGMENT
??_C@_0P@JEFMDHHI@port?5attribute?$AA@ DB 'port attribute', 00H ; `string'
CONST	ENDS
;	COMDAT ??_C@_0P@MCCBLNDF@host?5attribute?$AA@
CONST	SEGMENT
??_C@_0P@MCCBLNDF@host?5attribute?$AA@ DB 'host attribute', 00H ; `string'
CONST	ENDS
;	COMDAT ??_C@_0N@MACGLBGI@ip?5attribute?$AA@
CONST	SEGMENT
??_C@_0N@MACGLBGI@ip?5attribute?$AA@ DB 'ip attribute', 00H ; `string'
CONST	ENDS
;	COMDAT ??_C@_02GIIHKPLE@ip?$AA@
CONST	SEGMENT
??_C@_02GIIHKPLE@ip?$AA@ DB 'ip', 00H			; `string'
CONST	ENDS
;	COMDAT ??_C@_0N@NCCDGHBG@next_send_id?$AA@
CONST	SEGMENT
??_C@_0N@NCCDGHBG@next_send_id?$AA@ DB 'next_send_id', 00H ; `string'
CONST	ENDS
;	COMDAT ??_C@_08JCEFHKI@sendfile?$AA@
CONST	SEGMENT
??_C@_08JCEFHKI@sendfile?$AA@ DB 'sendfile', 00H	; `string'
CONST	ENDS
;	COMDAT ??_C@_05LBOHBHFK@close?$AA@
CONST	SEGMENT
??_C@_05LBOHBHFK@close?$AA@ DB 'close', 00H		; `string'
CONST	ENDS
;	COMDAT ??_C@_0BH@JFNJHNMC@max_sync_recv_attempts?$AA@
CONST	SEGMENT
??_C@_0BH@JFNJHNMC@max_sync_recv_attempts?$AA@ DB 'max_sync_recv_attempts'
	DB	00H						; `string'
CONST	ENDS
;	COMDAT ??_C@_0BH@GAODOAFA@max_sync_send_attempts?$AA@
CONST	SEGMENT
??_C@_0BH@GAODOAFA@max_sync_send_attempts?$AA@ DB 'max_sync_send_attempts'
	DB	00H						; `string'
CONST	ENDS
;	COMDAT ??_C@_0O@DEOIOEML@shutdown_send?$AA@
CONST	SEGMENT
??_C@_0O@DEOIOEML@shutdown_send?$AA@ DB 'shutdown_send', 00H ; `string'
CONST	ENDS
;	COMDAT ??_C@_0M@FFOAFBMD@concurrency?$AA@
CONST	SEGMENT
??_C@_0M@FFOAFBMD@concurrency?$AA@ DB 'concurrency', 00H ; `string'
CONST	ENDS
;	COMDAT ??_C@_0L@LPJIDIJF@throughput?$AA@
CONST	SEGMENT
??_C@_0L@LPJIDIJF@throughput?$AA@ DB 'throughput', 00H	; `string'
CONST	ENDS
;	COMDAT ??_C@_0L@JKAFEJJM@lines_mode?$AA@
CONST	SEGMENT
??_C@_0L@JKAFEJJM@lines_mode?$AA@ DB 'lines_mode', 00H	; `string'
CONST	ENDS
;	COMDAT ??_C@_0O@FEMJBDAD@send_complete?$AA@
CONST	SEGMENT
??_C@_0O@FEMJBDAD@send_complete?$AA@ DB 'send_complete', 00H ; `string'
CONST	ENDS
;	COMDAT ??_C@_0O@HGCJJJHB@recv_shutdown?$AA@
CONST	SEGMENT
??_C@_0O@HGCJJJHB@recv_shutdown?$AA@ DB 'recv_shutdown', 00H ; `string'
CONST	ENDS
;	COMDAT ??_C@_0O@IDBDAEOD@send_shutdown?$AA@
CONST	SEGMENT
??_C@_0O@IDBDAEOD@send_shutdown?$AA@ DB 'send_shutdown', 00H ; `string'
CONST	ENDS
;	COMDAT ??_C@_0M@NJCGKHAI@recv_failed?$AA@
CONST	SEGMENT
??_C@_0M@NJCGKHAI@recv_failed?$AA@ DB 'recv_failed', 00H ; `string'
CONST	ENDS
;	COMDAT ??_C@_0M@DFELAKCA@send_failed?$AA@
CONST	SEGMENT
??_C@_0M@DFELAKCA@send_failed?$AA@ DB 'send_failed', 00H ; `string'
CONST	ENDS
;	COMDAT ??_C@_0BI@GPMFHCMJ@Interlocked?5List?5Object?$AA@
CONST	SEGMENT
??_C@_0BI@GPMFHCMJ@Interlocked?5List?5Object?$AA@ DB 'Interlocked List Ob'
	DB	'ject', 00H					; `string'
CONST	ENDS
;	COMDAT ??_C@_05KOEEJJMO@xlist?$AA@
CONST	SEGMENT
??_C@_05KOEEJJMO@xlist?$AA@ DB 'xlist', 00H		; `string'
CONST	ENDS
;	COMDAT ??_C@_05GLCAEPFP@flush?$AA@
CONST	SEGMENT
??_C@_05GLCAEPFP@flush?$AA@ DB 'flush', 00H		; `string'
CONST	ENDS
;	COMDAT ??_C@_04GHHNIPCF@push?$AA@
CONST	SEGMENT
??_C@_04GHHNIPCF@push?$AA@ DB 'push', 00H		; `string'
CONST	ENDS
;	COMDAT ??_C@_03NJDAHFJE@pop?$AA@
CONST	SEGMENT
??_C@_03NJDAHFJE@pop?$AA@ DB 'pop', 00H			; `string'
CONST	ENDS
;	COMDAT ??_C@_09KKLBMLNG@_parallel?$AA@
CONST	SEGMENT
??_C@_09KKLBMLNG@_parallel?$AA@ DB '_parallel', 00H	; `string'
CONST	ENDS
;	COMDAT ??_C@_03HBNNNHNM@map?$AA@
CONST	SEGMENT
??_C@_03HBNNNHNM@map?$AA@ DB 'map', 00H			; `string'
CONST	ENDS
_TLS	SEGMENT
_Px_SafeObjectSignatureTest_CallDepth DD 00H
_Px_ObjectSignature_CallDepth DD 00H
_PxNewThread DD	01H
	ORG $+20
ctx	DQ	0000000000000000H
PyId_max_sync_recv_attempts DQ 0000000000000000H
	DQ	FLAT:??_C@_0BH@JFNJHNMC@max_sync_recv_attempts?$AA@
	DQ	0000000000000000H
PyId_max_sync_send_attempts DQ 0000000000000000H
	DQ	FLAT:??_C@_0BH@GAODOAFA@max_sync_send_attempts?$AA@
	DQ	0000000000000000H
PyId_shutdown_send DQ 0000000000000000H
	DQ	FLAT:??_C@_0O@DEOIOEML@shutdown_send?$AA@
	DQ	0000000000000000H
PyId_concurrency DQ 0000000000000000H
	DQ	FLAT:??_C@_0M@FFOAFBMD@concurrency?$AA@
	DQ	0000000000000000H
PyId_throughput DQ 0000000000000000H
	DQ	FLAT:??_C@_0L@LPJIDIJF@throughput?$AA@
	DQ	0000000000000000H
PyId_lines_mode DQ 0000000000000000H
	DQ	FLAT:??_C@_0L@JKAFEJJM@lines_mode?$AA@
	DQ	0000000000000000H
PyId_initial_bytes_to_send DQ 0000000000000000H
	DQ	FLAT:??_C@_0BG@FNILJMKJ@initial_bytes_to_send?$AA@
	DQ	0000000000000000H
PyId_exception_handler DQ 0000000000000000H
	DQ	FLAT:??_C@_0BC@KOBHOIFN@exception_handler?$AA@
	DQ	0000000000000000H
PyId_connection_closed DQ 0000000000000000H
	DQ	FLAT:??_C@_0BC@PBJEBHHN@connection_closed?$AA@
	DQ	0000000000000000H
PyId_connection_made DQ 0000000000000000H
	DQ	FLAT:??_C@_0BA@EKHLBOND@connection_made?$AA@
	DQ	0000000000000000H
PyId_lines_received DQ 0000000000000000H
	DQ	FLAT:??_C@_0P@FHJFIELO@lines_received?$AA@
	DQ	0000000000000000H
PyId_data_received DQ 0000000000000000H
	DQ	FLAT:??_C@_0O@KHJLGLGO@data_received?$AA@
	DQ	0000000000000000H
PyId_send_complete DQ 0000000000000000H
	DQ	FLAT:??_C@_0O@FEMJBDAD@send_complete?$AA@
	DQ	0000000000000000H
PyId_recv_shutdown DQ 0000000000000000H
	DQ	FLAT:??_C@_0O@HGCJJJHB@recv_shutdown?$AA@
	DQ	0000000000000000H
PyId_send_shutdown DQ 0000000000000000H
	DQ	FLAT:??_C@_0O@IDBDAEOD@send_shutdown?$AA@
	DQ	0000000000000000H
PyId_recv_failed DQ 0000000000000000H
	DQ	FLAT:??_C@_0M@NJCGKHAI@recv_failed?$AA@
	DQ	0000000000000000H
PyId_send_failed DQ 0000000000000000H
	DQ	FLAT:??_C@_0M@DFELAKCA@send_failed?$AA@
	DQ	0000000000000000H
_TLS	ENDS
;	COMDAT ??_C@_0P@LHLKCILO@?$HMs?$CDiiii?3socket?$AA@
CONST	SEGMENT
??_C@_0P@LHLKCILO@?$HMs?$CDiiii?3socket?$AA@ DB '|s#iiii:socket', 00H ; `string'
CONST	ENDS
;	COMDAT ??_C@_0BA@BGFLKNPD@max_line_length?$AA@
CONST	SEGMENT
??_C@_0BA@BGFLKNPD@max_line_length?$AA@ DB 'max_line_length', 00H ; `string'
CONST	ENDS
;	COMDAT ??_C@_0P@KIPMBABE@auto_reconnect?$AA@
CONST	SEGMENT
??_C@_0P@KIPMBABE@auto_reconnect?$AA@ DB 'auto_reconnect', 00H ; `string'
CONST	ENDS
;	COMDAT ??_C@_0N@OMMDCOFJ@wait_for_eol?$AA@
CONST	SEGMENT
??_C@_0N@OMMDCOFJ@wait_for_eol?$AA@ DB 'wait_for_eol', 00H ; `string'
CONST	ENDS
;	COMDAT ??_C@_09JDOKIHNG@line_mode?$AA@
CONST	SEGMENT
??_C@_09JDOKIHNG@line_mode?$AA@ DB 'line_mode', 00H	; `string'
CONST	ENDS
;	COMDAT ??_C@_0BI@NHGFAPHE@initial_regex_to_expect?$AA@
CONST	SEGMENT
??_C@_0BI@NHGFAPHE@initial_regex_to_expect?$AA@ DB 'initial_regex_to_expe'
	DB	'ct', 00H					; `string'
CONST	ENDS
;	COMDAT ??_C@_0BI@IECGIAPO@initial_words_to_expect?$AA@
CONST	SEGMENT
??_C@_0BI@IECGIAPO@initial_words_to_expect?$AA@ DB 'initial_words_to_expe'
	DB	'ct', 00H					; `string'
CONST	ENDS
;	COMDAT ??_C@_0BG@FNILJMKJ@initial_bytes_to_send?$AA@
CONST	SEGMENT
??_C@_0BG@FNILJMKJ@initial_bytes_to_send?$AA@ DB 'initial_bytes_to_send', 00H ; `string'
CONST	ENDS
;	COMDAT ??_C@_0BJ@PIOCLNOP@initial_connection_error?$AA@
CONST	SEGMENT
??_C@_0BJ@PIOCLNOP@initial_connection_error?$AA@ DB 'initial_connection_e'
	DB	'rror', 00H					; `string'
CONST	ENDS
;	COMDAT ??_C@_0BC@KOBHOIFN@exception_handler?$AA@
CONST	SEGMENT
??_C@_0BC@KOBHOIFN@exception_handler?$AA@ DB 'exception_handler', 00H ; `string'
CONST	ENDS
;	COMDAT ??_C@_0BA@KKCDIOEH@connection_done?$AA@
CONST	SEGMENT
??_C@_0BA@KKCDIOEH@connection_done?$AA@ DB 'connection_done', 00H ; `string'
CONST	ENDS
;	COMDAT ??_C@_0BD@JBGBNIPL@connection_timeout?$AA@
CONST	SEGMENT
??_C@_0BD@JBGBNIPL@connection_timeout?$AA@ DB 'connection_timeout', 00H ; `string'
CONST	ENDS
;	COMDAT ??_C@_0BC@PBJEBHHN@connection_closed?$AA@
CONST	SEGMENT
??_C@_0BC@PBJEBHHN@connection_closed?$AA@ DB 'connection_closed', 00H ; `string'
CONST	ENDS
;	COMDAT ??_C@_0BA@NNHENGLF@connection_lost?$AA@
CONST	SEGMENT
??_C@_0BA@NNHENGLF@connection_lost?$AA@ DB 'connection_lost', 00H ; `string'
CONST	ENDS
;	COMDAT ??_C@_0N@HICNGCPO@eof_received?$AA@
CONST	SEGMENT
??_C@_0N@HICNGCPO@eof_received?$AA@ DB 'eof_received', 00H ; `string'
CONST	ENDS
;	COMDAT ??_C@_0P@FHJFIELO@lines_received?$AA@
CONST	SEGMENT
??_C@_0P@FHJFIELO@lines_received?$AA@ DB 'lines_received', 00H ; `string'
CONST	ENDS
;	COMDAT ??_C@_0O@KHJLGLGO@data_received?$AA@
CONST	SEGMENT
??_C@_0O@KHJLGLGO@data_received?$AA@ DB 'data_received', 00H ; `string'
CONST	ENDS
;	COMDAT ??_C@_0BA@EKHLBOND@connection_made?$AA@
CONST	SEGMENT
??_C@_0BA@EKHLBOND@connection_made?$AA@ DB 'connection_made', 00H ; `string'
CONST	ENDS
_DATA	SEGMENT
pxsocket_kwlist DQ FLAT:??_C@_04OODOLJMA@host?$AA@
	DQ	FLAT:??_C@_04LPGMAPLE@port?$AA@
	DQ	FLAT:??_C@_06NBOBHOCP@family?$AA@
	DQ	FLAT:??_C@_04GPMDFGEJ@type?$AA@
	DQ	FLAT:??_C@_05BENFLAID@proto?$AA@
	DQ	0000000000000000H
pxsocket_protocol_attrs DQ FLAT:??_C@_0BA@EKHLBOND@connection_made?$AA@
	DQ	FLAT:??_C@_0O@KHJLGLGO@data_received?$AA@
	DQ	FLAT:??_C@_0P@FHJFIELO@lines_received?$AA@
	DQ	FLAT:??_C@_0N@HICNGCPO@eof_received?$AA@
	DQ	FLAT:??_C@_0BA@NNHENGLF@connection_lost?$AA@
	DQ	FLAT:??_C@_0BC@PBJEBHHN@connection_closed?$AA@
	DQ	FLAT:??_C@_0BD@JBGBNIPL@connection_timeout?$AA@
	DQ	FLAT:??_C@_0BA@KKCDIOEH@connection_done?$AA@
	DQ	FLAT:??_C@_0BC@KOBHOIFN@exception_handler?$AA@
	DQ	FLAT:??_C@_0BJ@PIOCLNOP@initial_connection_error?$AA@
	DQ	FLAT:??_C@_0BG@FNILJMKJ@initial_bytes_to_send?$AA@
	DQ	FLAT:??_C@_0BI@IECGIAPO@initial_words_to_expect?$AA@
	DQ	FLAT:??_C@_0BI@NHGFAPHE@initial_regex_to_expect?$AA@
	DQ	FLAT:??_C@_09JDOKIHNG@line_mode?$AA@
	DQ	FLAT:??_C@_0N@OMMDCOFJ@wait_for_eol?$AA@
	DQ	FLAT:??_C@_0P@KIPMBABE@auto_reconnect?$AA@
	DQ	FLAT:??_C@_0BA@BGFLKNPD@max_line_length?$AA@
	DQ	0000000000000000H
pxsocket_kwlist_formatstring DQ FLAT:??_C@_0P@LHLKCILO@?$HMs?$CDiiii?3socket?$AA@
Py_MainProcessId DD 0ffffffffH
Py_ParallelContextsEnabled DD 0ffffffffH
_PxObjectSignature DQ ffffffffffffffffH
_PxSocketSignature DQ ffffffffffffffffH
_PxSocketBufSignature DQ ffffffffffffffffH
_PxBlockingCallsThreshold DD 014H
_PxSocketServer_PreallocatedSockets DD 03e8H
_PxSocket_MaxSyncSendAttempts DD 03H
_PxSocket_MaxSyncRecvAttempts DD 03H
_PxSocket_MaxRecvBufSize DD 010000H
_PyTLSHeap_DefaultSize DD 0200000H
Py_MainThreadId DD 0ffffffffH
_PxSocket_SendListSize DD 01eH
_parallel_doc DB '_parallel module.', 0aH, 0aH, 'Functions:', 0aH, 0aH, 'm'
	DB	'ap()', 0aH, 00H
	ORG $+2
_async_cpu_count_doc DB 'cpu_count() -> integer', 0aH, 0aH, 'Return an in'
	DB	'teger representing the number of online logical CPUs,', 0aH, 'o'
	DB	'r -1 if this value cannot be established.', 00H
	ORG $+3
_Py_CtrlCHandlerRoutine DQ FLAT:_Py_HandleCtrlC
_parallel_map_doc DB 'map(callable, iterable) -> list', 0aH, 0aH, 'Calls '
	DB	'``callable`` with each item in ``iterable``.', 0aH, 'Returns '
	DB	'a list of results.', 00H
	ORG $+1
_parallel_methods DQ FLAT:??_C@_03HBNNNHNM@map?$AA@
	DQ	FLAT:_parallel_map
	DD	01H
	ORG $+4
	DQ	FLAT:_parallel_map_doc
	DQ	0000000000000000H
	DQ	0000000000000000H
	ORG $+16
_parallelmodule DQ dead1234beef5678H
	DQ	dead1234beef5678H
	DQ	0000000000000000H
	ORG $+8
	DQ	0000000000000001H
	DQ	0000000000000000H
	DQ	0000000000000000H
	DQ	0000000000000000H
	DQ	dead1234beef5678H
	DQ	dead1234beef5678H
	DQ	0000000000000001H
	DQ	0000000000000000H
	DQ	0000000000000000H
	DQ	0000000000000000H
	DQ	0000000000000000H
	ORG $+8
	DQ	FLAT:??_C@_09KKLBMLNG@_parallel?$AA@
	DQ	FLAT:_parallel_doc
	DQ	ffffffffffffffffH
	DQ	FLAT:_parallel_methods
	DQ	0000000000000000H
	DQ	0000000000000000H
	DQ	0000000000000000H
	DQ	0000000000000000H
xlist_pop_doc DB 'XXX TODO', 0aH, 00H
	ORG $+2
pxsocket_accept_doc DB 'x', 0aH, 00H
	ORG $+1
xlist_push_doc DB 'XXX TODO', 0aH, 00H
	ORG $+2
pxsocket_bind_doc DB 'x', 0aH, 00H
	ORG $+1
xlist_size_doc DB 'XXX TODO', 0aH, 00H
	ORG $+2
pxsocket_connect_doc DB 'x', 0aH, 00H
	ORG $+1
xlist_flush_doc DB 'XXX TODO', 0aH, 00H
	ORG $+6
xlist_methods DQ FLAT:??_C@_03NJDAHFJE@pop?$AA@
	DQ	FLAT:xlist_pop
	DD	04H
	ORG $+4
	DQ	FLAT:xlist_pop_doc
	DQ	FLAT:??_C@_04GHHNIPCF@push?$AA@
	DQ	FLAT:xlist_push
	DD	08H
	ORG $+4
	DQ	FLAT:xlist_push_doc
	DQ	FLAT:??_C@_05GLCAEPFP@flush?$AA@
	DQ	FLAT:xlist_flush
	DD	04H
	ORG $+4
	DQ	FLAT:xlist_flush_doc
	DQ	0000000000000000H
	DQ	0000000000000000H
	ORG $+16
xlist_as_sequence DQ FLAT:PyXList_Length
	DQ	0000000000000000H
	DQ	0000000000000000H
	DQ	0000000000000000H
	DQ	0000000000000000H
	DQ	0000000000000000H
	DQ	0000000000000000H
	DQ	0000000000000000H
	DQ	0000000000000000H
	DQ	0000000000000000H
PyXList_Type DQ	dead1234beef5678H
	DQ	dead1234beef5678H
	DQ	0000000000000000H
	ORG $+8
	DQ	0000000000000001H
	DQ	0000000000000000H
	DQ	0000000000000000H
	DQ	0000000000000000H
	DQ	dead1234beef5678H
	DQ	dead1234beef5678H
	DQ	0000000000000001H
	DQ	0000000000000000H
	ORG $+16
	DQ	FLAT:??_C@_05KOEEJJMO@xlist?$AA@
	DQ	00000000000000a0H
	DQ	0000000000000000H
	DQ	FLAT:xlist_dealloc
	DQ	0000000000000000H
	DQ	0000000000000000H
	DQ	0000000000000000H
	DQ	0000000000000000H
	DQ	0000000000000000H
	DQ	0000000000000000H
	DQ	FLAT:xlist_as_sequence
	DQ	0000000000000000H
	DQ	0000000000000000H
	DQ	0000000000000000H
	DQ	0000000000000000H
	DQ	FLAT:PyObject_GenericGetAttr
	DQ	0000000000000000H
	DQ	0000000000000000H
	DD	040000H
	ORG $+4
	DQ	FLAT:??_C@_0BI@GPMFHCMJ@Interlocked?5List?5Object?$AA@
	DQ	0000000000000000H
	DQ	0000000000000000H
	DQ	0000000000000000H
	DQ	0000000000000000H
	DQ	0000000000000000H
	DQ	0000000000000000H
	DQ	FLAT:xlist_methods
	DQ	0000000000000000H
	DQ	0000000000000000H
	DQ	0000000000000000H
	DQ	0000000000000000H
	DQ	0000000000000000H
	DQ	0000000000000000H
	DQ	0000000000000000H
	DQ	0000000000000000H
	DQ	FLAT:xlist_alloc
	DQ	FLAT:xlist_new
	DQ	0000000000000000H
	ORG $+64
_async_list_doc DB 'Helper function for creating an async-protected insta'
	DB	'nce of type ''##name''', 0aH, 00H
	ORG $+5
_async_dict_doc DB 'Helper function for creating an async-protected insta'
	DB	'nce of type ''##name''', 0aH, 00H
	ORG $+5
_async_doc DB	'_async module.', 0aH, 0aH, 'Functions:', 0aH, 0aH, 'run('
	DB	')', 0aH, 'map(callable, iterable[, chunksize[, callback[, err'
	DB	'back]]])', 0aH, 'submit_work(func[, args[, kwds[, callback[, '
	DB	'errback]]]])', 0aH, 'submit_wait(wait, func[, args[, kwds[, c'
	DB	'allback[, errback]]]])', 0aH, 'submit_timer(timer, func[, arg'
	DB	's[, kwds[, callback[, errback]]]])', 0aH, 'submit_io(func[, a'
	DB	'rgs[, kwds[, callback[, errback]]]])', 0aH, 'submit_server(ob'
	DB	'j)', 0aH, 'submit_client(obj)', 0aH, 0aH, 'Socket IO function'
	DB	's:', 0aH, 'connect(sock, (host, port)[, buf[, callback[, errb'
	DB	'ack]]])', 0aH, 00H
	ORG $+3
_async_run_doc DB 'run() -> None', 0aH, 0aH, 'Runs the _async event loop.'
	DB	00H
	ORG $+1
pxsocket_close_doc DB 'x', 0aH, 00H
	ORG $+1
?kwlist@?1??_async_register@@9@9 DQ FLAT:??_C@_09PBENLGJM@transport?$AA@ ; `_async_register'::`2'::kwlist
	DQ	FLAT:??_C@_08FCFPNNHF@protocol?$AA@
	DQ	0000000000000000H
_async_unregister_doc DB 'unregister(object) -> None', 0aH, 0aH, 'Unregis'
	DB	'ters an asynchronous object.', 00H
_async_read_doc DB 'XXX TODO', 0aH, 00H
	ORG $+2
pxsocket_listen_doc DB 'x', 0aH, 00H
	ORG $+1
_async_open_doc DB 'XXX TODO', 0aH, 00H
	ORG $+6
_async_pipe_doc DB 'XXX TODO', 0aH, 00H
	ORG $+6
_async_write_doc DB 'XXX TODO', 0aH, 00H
	ORG $+6
_async_fileopener_doc DB 'XXX TODO', 0aH, 00H
	ORG $+6
_async_filecloser_doc DB 'XXX TODO', 0aH, 00H
	ORG $+6
_async__address_doc DB 'XXX TODO', 0aH, 00H
	ORG $+6
_async__dbg_address_doc DB 'XXX TODO', 0aH, 00H
	ORG $+6
_async__close_doc DB 'XXX TODO', 0aH, 00H
	ORG $+6
_async__rawfile_doc DB 'XXX TODO', 0aH, 00H
	ORG $+6
_async__post_open_doc DB 'XXX TODO', 0aH, 00H
	ORG $+6
_async_submit_write_io_doc DB 'XXX TODO', 0aH, 00H
	ORG $+6
_async_map_doc DB 'XXX TODO', 0aH, 00H
	ORG $+6
_async_wait_doc DB 'XXX TODO', 0aH, 00H
	ORG $+6
_async_rdtsc_doc DB 'XXX TODO', 0aH, 00H
	ORG $+6
_async_client_doc DB 'XXX TODO', 0aH, 00H
	ORG $+6
_async_server_doc DB 'XXX TODO', 0aH, 00H
	ORG $+6
_async_signal_doc DB 'XXX TODO', 0aH, 00H
	ORG $+6
_async_prewait_doc DB 'XXX TODO', 0aH, 00H
	ORG $+6
_async_protect_doc DB 'XXX TODO', 0aH, 00H
	ORG $+6
_async_run_once_doc DB 'XXX TODO', 0aH, 00H
	ORG $+6
_async_unprotect_doc DB 'XXX TODO', 0aH, 00H
	ORG $+6
_async_protected_doc DB 'XXX TODO', 0aH, 00H
	ORG $+6
_async_is_active_doc DB 'XXX TODO', 0aH, 00H
	ORG $+6
_async_read_lock_doc DB 'XXX TODO', 0aH, 00H
	ORG $+6
_async_read_unlock_doc DB 'XXX TODO', 0aH, 00H
	ORG $+6
_async_try_read_lock_doc DB 'XXX TODO', 0aH, 00H
	ORG $+6
_async_write_lock_doc DB 'XXX TODO', 0aH, 00H
	ORG $+6
_async_write_unlock_doc DB 'XXX TODO', 0aH, 00H
	ORG $+6
_async_try_write_lock_doc DB 'XXX TODO', 0aH, 00H
	ORG $+6
_async_submit_io_doc DB 'XXX TODO', 0aH, 00H
	ORG $+6
_async_submit_work_doc DB 'XXX TODO', 0aH, 00H
	ORG $+6
_async_submit_wait_doc DB 'XXX TODO', 0aH, 00H
	ORG $+6
_async_is_active_ex_doc DB 'XXX TODO', 0aH, 00H
	ORG $+6
_async_active_count_doc DB 'XXX TODO', 0aH, 00H
	ORG $+6
_async_submit_timer_doc DB 'XXX TODO', 0aH, 00H
	ORG $+6
_async_submit_class_doc DB 'XXX TODO', 0aH, 00H
	ORG $+6
_async_submit_client_doc DB 'XXX TODO', 0aH, 00H
	ORG $+6
_async_submit_server_doc DB 'XXX TODO', 0aH, 00H
	ORG $+6
_async_active_contexts_doc DB 'XXX TODO', 0aH, 00H
	ORG $+6
_async_persisted_contexts_doc DB 'XXX TODO', 0aH, 00H
	ORG $+6
_async_signal_and_wait_doc DB 'XXX TODO', 0aH, 00H
	ORG $+6
_async_is_parallel_thread_doc DB 'XXX TODO', 0aH, 00H
	ORG $+6
_async_call_from_main_thread_doc DB 'XXX TODO', 0aH, 00H
	ORG $+6
_async_call_from_main_thread_and_wait_doc DB 'XXX TODO', 0aH, 00H
	ORG $+6
pxsocket_write_doc DB 'XXX TODO', 0aH, 00H
	ORG $+6
pxsocket_next_send_id_doc DB 'xxx todo', 0aH, 00H
	ORG $+6
pxsocket_sendfile_doc DB 'xxx todo', 0aH, 00H
	ORG $+6
PxSocketMethods DQ FLAT:??_C@_05LBOHBHFK@close?$AA@
	DQ	FLAT:pxsocket_close
	DD	04H
	ORG $+4
	DQ	FLAT:pxsocket_close_doc
	DQ	FLAT:??_C@_08JCEFHKI@sendfile?$AA@
	DQ	FLAT:pxsocket_sendfile
	DD	01H
	ORG $+4
	DQ	FLAT:pxsocket_sendfile_doc
	DQ	FLAT:??_C@_0N@NCCDGHBG@next_send_id?$AA@
	DQ	FLAT:pxsocket_next_send_id
	DD	04H
	ORG $+4
	DQ	FLAT:pxsocket_next_send_id_doc
	DQ	0000000000000000H
	DQ	0000000000000000H
	ORG $+16
PxSocketMembers DQ FLAT:??_C@_02GIIHKPLE@ip?$AA@
	DD	05H
	ORG $+4
	DQ	0000000000000214H
	DD	00H
	ORG $+4
	DQ	FLAT:??_C@_0N@MACGLBGI@ip?5attribute?$AA@
	DQ	FLAT:??_C@_04OODOLJMA@host?$AA@
	DD	05H
	ORG $+4
	DQ	0000000000000228H
	DD	00H
	ORG $+4
	DQ	FLAT:??_C@_0P@MCCBLNDF@host?5attribute?$AA@
	DQ	FLAT:??_C@_04LPGMAPLE@port?$AA@
	DD	01H
	ORG $+4
	DQ	0000000000000230H
	DD	01H
	ORG $+4
	DQ	FLAT:??_C@_0P@JEFMDHHI@port?5attribute?$AA@
	DQ	FLAT:??_C@_0M@MPEABHKE@sock_family?$AA@
	DD	01H
	ORG $+4
	DQ	0000000000000068H
	DD	01H
	ORG $+4
	DQ	FLAT:??_C@_0BG@OGFLPBML@sock_family?5attribute?$AA@
	DQ	FLAT:??_C@_09POMCLMKJ@sock_type?$AA@
	DD	01H
	ORG $+4
	DQ	000000000000006cH
	DD	01H
	ORG $+4
	DQ	FLAT:??_C@_0BE@GKFOEKAL@sock_type?5attribute?$AA@
	DQ	FLAT:??_C@_0L@LEEOFDBB@sock_proto?$AA@
	DD	01H
	ORG $+4
	DQ	0000000000000070H
	DD	01H
	ORG $+4
	DQ	FLAT:??_C@_0BF@PGBPHFFO@sock_proto?5attribute?$AA@
	DQ	FLAT:??_C@_0N@EJAJFIKO@sock_timeout?$AA@
	DD	04H
	ORG $+4
	DQ	0000000000000080H
	DD	01H
	ORG $+4
	DQ	FLAT:??_C@_0BH@CNEGKLNK@sock_timeout?5attribute?$AA@
	DQ	0000000000000000H
	ORG $+32
PxSocket_Type DQ dead1234beef5678H
	DQ	dead1234beef5678H
	DQ	0000000000000000H
	ORG $+8
	DQ	0000000000000001H
	DQ	0000000000000000H
	DQ	0000000000000000H
	DQ	0000000000000000H
	DQ	dead1234beef5678H
	DQ	dead1234beef5678H
	DQ	0000000000000001H
	DQ	0000000000000000H
	DQ	0000000000000000H
	ORG $+8
	DQ	FLAT:??_C@_0O@POBIDKD@_async?4socket?$AA@
	DQ	0000000000000450H
	DQ	0000000000000000H
	DQ	FLAT:pxsocket_dealloc
	DQ	0000000000000000H
	DQ	0000000000000000H
	DQ	0000000000000000H
	DQ	0000000000000000H
	DQ	0000000000000000H
	DQ	0000000000000000H
	DQ	0000000000000000H
	DQ	0000000000000000H
	DQ	0000000000000000H
	DQ	0000000000000000H
	DQ	0000000000000000H
	DQ	FLAT:PyObject_GenericGetAttr
	DQ	FLAT:PyObject_GenericSetAttr
	DQ	0000000000000000H
	DD	040000H
	ORG $+4
	DQ	FLAT:??_C@_0BM@BICFFLHA@Asynchronous?5Socket?5Objects?$AA@
	DQ	0000000000000000H
	DQ	0000000000000000H
	DQ	0000000000000000H
	DQ	0000000000000000H
	DQ	0000000000000000H
	DQ	0000000000000000H
	DQ	FLAT:PxSocketMethods
	DQ	FLAT:PxSocketMembers
	DQ	0000000000000000H
	DQ	0000000000000000H
	DQ	0000000000000000H
	DQ	0000000000000000H
	DQ	0000000000000000H
	DQ	0000000000000000H
	DQ	0000000000000000H
	DQ	FLAT:PyType_GenericAlloc
	DQ	0000000000000000H
	DQ	0000000000000000H
	ORG $+64
_async_print_doc DB 'xxx todo', 0aH, 00H
	ORG $+6
_async_stdout_doc DB 'xxx todo', 0aH, 00H
	ORG $+6
_async_stderr_doc DB 'xxx todo', 0aH, 00H
	ORG $+6
_async_register_doc DB 'register(transport=object, protocol=object) -> No'
	DB	'ne', 0aH, 0aH, 'Register an asynchronous transport object wit'
	DB	'h the given protocol.', 00H
?fmt@?1??_async_register@@9@9 DQ FLAT:??_C@_0M@NCDCDINH@OO?3register?$AA@ ; `_async_register'::`2'::fmt
_async_methods DQ FLAT:??_C@_03HBNNNHNM@map?$AA@
	DQ	FLAT:_async_map
	DD	01H
	ORG $+4
	DQ	FLAT:_async_map_doc
	DQ	FLAT:??_C@_03LGMJKEGG@run?$AA@
	DQ	FLAT:_async_run
	DD	04H
	ORG $+4
	DQ	FLAT:_async_run_doc
	DQ	FLAT:??_C@_04PNOAOIAG@wait?$AA@
	DQ	FLAT:_async_wait
	DD	08H
	ORG $+4
	DQ	FLAT:_async_wait_doc
	DQ	FLAT:??_C@_04POLDLDMI@read?$AA@
	DQ	FLAT:_async_read
	DD	01H
	ORG $+4
	DQ	FLAT:_async_read_doc
	DQ	FLAT:??_C@_04BCIDKIGN@dict?$AA@
	DQ	FLAT:_async_dict
	DD	03H
	ORG $+4
	DQ	FLAT:_async_dict_doc
	DQ	FLAT:??_C@_04DONFEANM@list?$AA@
	DQ	FLAT:_async_list
	DD	03H
	ORG $+4
	DQ	FLAT:_async_list_doc
	DQ	FLAT:??_C@_05IJDJACGD@print?$AA@
	DQ	FLAT:_async_print
	DD	01H
	ORG $+4
	DQ	FLAT:_async_print_doc
	DQ	FLAT:??_C@_05NGFEDHGN@write?$AA@
	DQ	FLAT:_async_write
	DD	01H
	ORG $+4
	DQ	FLAT:_async_write_doc
	DQ	FLAT:??_C@_05JIFPPKLN@rdtsc?$AA@
	DQ	FLAT:_async_rdtsc
	DD	04H
	ORG $+4
	DQ	FLAT:_async_rdtsc_doc
	DQ	FLAT:??_C@_06DJDOIFHB@stdout?$AA@
	DQ	FLAT:_async_stdout
	DD	08H
	ORG $+4
	DQ	FLAT:_async_stdout_doc
	DQ	FLAT:??_C@_06FJGNEBG@stderr?$AA@
	DQ	FLAT:_async_stderr
	DD	08H
	ORG $+4
	DQ	FLAT:_async_stderr_doc
	DQ	FLAT:??_C@_06EINEPANJ@_close?$AA@
	DQ	FLAT:_async__close
	DD	08H
	ORG $+4
	DQ	FLAT:_async__close_doc
	DQ	FLAT:??_C@_06OAFOBKHE@signal?$AA@
	DQ	FLAT:_async_signal
	DD	08H
	ORG $+4
	DQ	FLAT:_async_signal_doc
	DQ	FLAT:??_C@_06DGDLPBAN@client?$AA@
	DQ	FLAT:_async_client
	DD	03H
	ORG $+4
	DQ	FLAT:_async_client_doc
	DQ	FLAT:??_C@_06HJHJCKIO@server?$AA@
	DQ	FLAT:_async_server
	DD	03H
	ORG $+4
	DQ	FLAT:_async_server_doc
	DQ	FLAT:??_C@_07LFLAEFDO@protect?$AA@
	DQ	FLAT:_async_protect
	DD	08H
	ORG $+4
	DQ	FLAT:_async_protect_doc
	DQ	FLAT:??_C@_07NBHOAOAJ@prewait?$AA@
	DQ	FLAT:_async_prewait
	DD	08H
	ORG $+4
	DQ	FLAT:_async_prewait_doc
	DQ	FLAT:??_C@_08JJIPKIML@_address?$AA@
	DQ	FLAT:_async__address
	DD	08H
	ORG $+4
	DQ	FLAT:_async__address_doc
	DQ	FLAT:??_C@_08GIJFBOPB@_rawfile?$AA@
	DQ	FLAT:_async__rawfile
	DD	08H
	ORG $+4
	DQ	FLAT:_async__rawfile_doc
	DQ	FLAT:??_C@_08DHHIDNEP@register?$AA@
	DQ	FLAT:_async_register
	DD	03H
	ORG $+4
	DQ	FLAT:_async_register_doc
	DQ	FLAT:??_C@_08JHMCJIFL@run_once?$AA@
	DQ	FLAT:_async_run_once
	DD	04H
	ORG $+4
	DQ	FLAT:_async_run_once_doc
	DQ	FLAT:??_C@_09CHNCHKJL@cpu_count?$AA@
	DQ	FLAT:_async_cpu_count
	DD	04H
	ORG $+4
	DQ	FLAT:_async_cpu_count_doc
	DQ	FLAT:??_C@_09LHNJOGML@unprotect?$AA@
	DQ	FLAT:_async_unprotect
	DD	08H
	ORG $+4
	DQ	FLAT:_async_unprotect_doc
	DQ	FLAT:??_C@_09IPOLMLK@protected?$AA@
	DQ	FLAT:_async_protected
	DD	08H
	ORG $+4
	DQ	FLAT:_async_protected_doc
	DQ	FLAT:??_C@_09NFIEOJGK@is_active?$AA@
	DQ	FLAT:_async_is_active
	DD	04H
	ORG $+4
	DQ	FLAT:_async_is_active_doc
	DQ	FLAT:??_C@_09NGDECFMF@submit_io?$AA@
	DQ	FLAT:_async_submit_io
	DD	01H
	ORG $+4
	DQ	FLAT:_async_submit_io_doc
	DQ	FLAT:??_C@_09JFECMODK@read_lock?$AA@
	DQ	FLAT:_async_read_lock
	DD	08H
	ORG $+4
	DQ	FLAT:_async_read_lock_doc
	DQ	FLAT:??_C@_0L@ILCHLJH@_post_open?$AA@
	DQ	FLAT:_async__post_open
	DD	01H
	ORG $+4
	DQ	FLAT:_async__post_open_doc
	DQ	FLAT:??_C@_0L@IMFFLKMC@fileopener?$AA@
	DQ	FLAT:_async_fileopener
	DD	01H
	ORG $+4
	DQ	FLAT:_async_fileopener_doc
	DQ	FLAT:??_C@_0L@NHCCIFLF@filecloser?$AA@
	DQ	FLAT:_async_filecloser
	DD	01H
	ORG $+4
	DQ	FLAT:_async_filecloser_doc
	DQ	FLAT:??_C@_0L@LOEOJHDP@write_lock?$AA@
	DQ	FLAT:_async_write_lock
	DD	08H
	ORG $+4
	DQ	FLAT:_async_write_lock_doc
	DQ	FLAT:??_C@_0M@PDCFAGMJ@submit_work?$AA@
	DQ	FLAT:_async_submit_work
	DD	01H
	ORG $+4
	DQ	FLAT:_async_submit_work_doc
	DQ	FLAT:??_C@_0M@MONDDDPF@submit_wait?$AA@
	DQ	FLAT:_async_submit_wait
	DD	01H
	ORG $+4
	DQ	FLAT:_async_submit_wait_doc
	DQ	FLAT:??_C@_0M@KBMFGJKH@read_unlock?$AA@
	DQ	FLAT:_async_read_unlock
	DD	08H
	ORG $+4
	DQ	FLAT:_async_read_unlock_doc
	DQ	FLAT:??_C@_0N@MOAFFPLO@write_unlock?$AA@
	DQ	FLAT:_async_write_unlock
	DD	08H
	ORG $+4
	DQ	FLAT:_async_write_unlock_doc
	DQ	FLAT:??_C@_0N@BKLNKEHO@is_active_ex?$AA@
	DQ	FLAT:_async_is_active_ex
	DD	04H
	ORG $+4
	DQ	FLAT:_async_is_active_ex_doc
	DQ	FLAT:??_C@_0N@BBPNBAFF@active_count?$AA@
	DQ	FLAT:_async_active_count
	DD	04H
	ORG $+4
	DQ	FLAT:_async_active_count_doc
	DQ	FLAT:??_C@_0N@EONPHPCE@_dbg_address?$AA@
	DQ	FLAT:_async__dbg_address
	DD	08H
	ORG $+4
	DQ	FLAT:_async__dbg_address_doc
	DQ	FLAT:??_C@_0N@PEHCKJKL@submit_timer?$AA@
	DQ	FLAT:_async_submit_timer
	DD	01H
	ORG $+4
	DQ	FLAT:_async_submit_timer_doc
	DQ	FLAT:??_C@_0N@GJCHEFMD@submit_class?$AA@
	DQ	FLAT:_async_submit_class
	DD	08H
	ORG $+4
	DQ	FLAT:_async_submit_class_doc
	DQ	FLAT:??_C@_0O@BIKLHLBM@submit_client?$AA@
	DQ	FLAT:_async_submit_client
	DD	08H
	ORG $+4
	DQ	FLAT:_async_submit_client_doc
	DQ	FLAT:??_C@_0O@FHOJKAJP@submit_server?$AA@
	DQ	FLAT:_async_submit_server
	DD	08H
	ORG $+4
	DQ	FLAT:_async_submit_server_doc
	DQ	FLAT:??_C@_0O@NMLNLIJN@try_read_lock?$AA@
	DQ	FLAT:_async_try_read_lock
	DD	08H
	ORG $+4
	DQ	FLAT:_async_try_read_lock_doc
	DQ	FLAT:??_C@_0P@PGLFFOAC@try_write_lock?$AA@
	DQ	FLAT:_async_try_write_lock
	DD	08H
	ORG $+4
	DQ	FLAT:_async_try_write_lock_doc
	DQ	FLAT:??_C@_0BA@NELHJCPB@submit_write_io?$AA@
	DQ	FLAT:_async_submit_write_io
	DD	01H
	ORG $+4
	DQ	FLAT:_async_submit_write_io_doc
	DQ	FLAT:??_C@_0BA@KFOAPOMJ@signal_and_wait?$AA@
	DQ	FLAT:_async_signal_and_wait
	DD	01H
	ORG $+4
	DQ	FLAT:_async_signal_and_wait_doc
	DQ	FLAT:??_C@_0BA@IAMMEFIL@active_contexts?$AA@
	DQ	FLAT:_async_active_contexts
	DD	04H
	ORG $+4
	DQ	FLAT:_async_active_contexts_doc
	DQ	FLAT:??_C@_0BD@IOGDFFJL@is_parallel_thread?$AA@
	DQ	FLAT:_async_is_parallel_thread
	DD	04H
	ORG $+4
	DQ	FLAT:_async_is_parallel_thread_doc
	DQ	FLAT:??_C@_0BD@FHGOHLMH@persisted_contexts?$AA@
	DQ	FLAT:_async_persisted_contexts
	DD	04H
	ORG $+4
	DQ	FLAT:_async_persisted_contexts_doc
	DQ	FLAT:??_C@_0BG@GDMKOJLI@call_from_main_thread?$AA@
	DQ	FLAT:_async_call_from_main_thread
	DD	01H
	ORG $+4
	DQ	FLAT:_async_call_from_main_thread_doc
	DQ	FLAT:??_C@_0BP@JFECJGF@call_from_main_thread_and_wait?$AA@
	DQ	FLAT:_async_call_from_main_thread_and_wait
	DD	01H
	ORG $+4
	DQ	FLAT:_async_call_from_main_thread_and_wait_doc
	DQ	0000000000000000H
	DQ	0000000000000000H
	ORG $+16
_asyncmodule DQ	dead1234beef5678H
	DQ	dead1234beef5678H
	DQ	0000000000000000H
	ORG $+8
	DQ	0000000000000001H
	DQ	0000000000000000H
	DQ	0000000000000000H
	DQ	0000000000000000H
	DQ	dead1234beef5678H
	DQ	dead1234beef5678H
	DQ	0000000000000001H
	DQ	0000000000000000H
	DQ	0000000000000000H
	DQ	0000000000000000H
	DQ	0000000000000000H
	ORG $+8
	DQ	FLAT:??_C@_06NAHKMOGH@_async?$AA@
	DQ	FLAT:_async_doc
	DQ	ffffffffffffffffH
	DQ	FLAT:_async_methods
	DQ	0000000000000000H
	DQ	0000000000000000H
	DQ	0000000000000000H
	DQ	0000000000000000H
_DATA	ENDS
;	COMDAT ??_C@_05BENFLAID@proto?$AA@
CONST	SEGMENT
??_C@_05BENFLAID@proto?$AA@ DB 'proto', 00H		; `string'
CONST	ENDS
;	COMDAT ??_C@_04GPMDFGEJ@type?$AA@
CONST	SEGMENT
??_C@_04GPMDFGEJ@type?$AA@ DB 'type', 00H		; `string'
CONST	ENDS
;	COMDAT ??_C@_06NBOBHOCP@family?$AA@
CONST	SEGMENT
??_C@_06NBOBHOCP@family?$AA@ DB 'family', 00H		; `string'
CONST	ENDS
;	COMDAT ??_C@_04LPGMAPLE@port?$AA@
CONST	SEGMENT
??_C@_04LPGMAPLE@port?$AA@ DB 'port', 00H		; `string'
CONST	ENDS
;	COMDAT ??_C@_04OODOLJMA@host?$AA@
CONST	SEGMENT
??_C@_04OODOLJMA@host?$AA@ DB 'host', 00H		; `string'
CONST	ENDS
CONST	SEGMENT
_AcceptEx_GUID DD 0b5367df1H
	DW	0cbacH
	DW	011cfH
	DB	095H
	DB	0caH
	DB	00H
	DB	080H
	DB	05fH
	DB	048H
	DB	0a1H
	DB	092H
_ConnectEx_GUID DD 025a207b9H
	DW	0ddf3H
	DW	04660H
	DB	08eH
	DB	0e9H
	DB	076H
	DB	0e5H
	DB	08cH
	DB	074H
	DB	06H
	DB	03eH
_WSARecvMsg_GUID DD 0f689d7c8H
	DW	06f1fH
	DW	0436bH
	DB	08aH
	DB	053H
	DB	0e5H
	DB	04fH
	DB	0e3H
	DB	051H
	DB	0c3H
	DB	022H
_WSASendMsg_GUID DD 0a441e712H
	DW	0754fH
	DW	043caH
	DB	084H
	DB	0a7H
	DB	0dH
	DB	0eeH
	DB	044H
	DB	0cfH
	DB	060H
	DB	06dH
_DisconnectEx_GUID DD 07fda2e11H
	DW	08630H
	DW	0436fH
	DB	0a0H
	DB	031H
	DB	0f5H
	DB	036H
	DB	0a6H
	DB	0eeH
	DB	0c1H
	DB	057H
_TransmitFile_GUID DD 0b5367df0H
	DW	0cbacH
	DW	011cfH
	DB	095H
	DB	0caH
	DB	00H
	DB	080H
	DB	05fH
	DB	048H
	DB	0a1H
	DB	092H
_TransmitPackets_GUID DD 0d9689da0H
	DW	01f90H
	DW	011d3H
	DB	099H
	DB	071H
	DB	00H
	DB	0c0H
	DB	04fH
	DB	068H
	DB	0c8H
	DB	076H
_GetAcceptExSockaddrs_GUID DD 0b5367df2H
	DW	0cbacH
	DW	011cfH
	DB	095H
	DB	0caH
	DB	00H
	DB	080H
	DB	05fH
	DB	048H
	DB	0a1H
	DB	092H
CONST	ENDS
PUBLIC	_Py_PXCTX
PUBLIC	_PyParallel_DoesContextHaveActiveHeapSnapshot
EXTRN	_tls_index:DWORD
;	COMDAT pdata
; File c:\src\pyparallel\python\pyparallel.c
pdata	SEGMENT
$pdata$_PyParallel_DoesContextHaveActiveHeapSnapshot DD imagerel $LN7
	DD	imagerel $LN7+98
	DD	imagerel $unwind$_PyParallel_DoesContextHaveActiveHeapSnapshot
pdata	ENDS
;	COMDAT xdata
xdata	SEGMENT
$unwind$_PyParallel_DoesContextHaveActiveHeapSnapshot DD 010401H
	DD	06204H
; Function compile flags: /Odtp
xdata	ENDS
;	COMDAT _PyParallel_DoesContextHaveActiveHeapSnapshot
_TEXT	SEGMENT
tv75 = 32
tv74 = 36
_PyParallel_DoesContextHaveActiveHeapSnapshot PROC	; COMDAT

; 110  : {

$LN7:
  00000	48 83 ec 38	 sub	 rsp, 56			; 00000038H

; 111  :     return (!Py_PXCTX ? 0 : (ctx->snapshot_id == 0));

  00004	e8 00 00 00 00	 call	 _Py_PXCTX
  00009	85 c0		 test	 eax, eax
  0000b	75 0a		 jne	 SHORT $LN5@PyParallel
  0000d	c7 44 24 20 00
	00 00 00	 mov	 DWORD PTR tv75[rsp], 0
  00015	eb 42		 jmp	 SHORT $LN6@PyParallel
$LN5@PyParallel:
  00017	b8 00 00 00 00	 mov	 eax, OFFSET FLAT:ctx
  0001c	8b c0		 mov	 eax, eax
  0001e	8b 0d 00 00 00
	00		 mov	 ecx, DWORD PTR _tls_index
  00024	65 48 8b 14 25
	58 00 00 00	 mov	 rdx, QWORD PTR gs:88
  0002d	48 8b 0c ca	 mov	 rcx, QWORD PTR [rdx+rcx*8]
  00031	48 8b 04 01	 mov	 rax, QWORD PTR [rcx+rax]
  00035	48 83 b8 f0 01
	00 00 00	 cmp	 QWORD PTR [rax+496], 0
  0003d	75 0a		 jne	 SHORT $LN3@PyParallel
  0003f	c7 44 24 24 01
	00 00 00	 mov	 DWORD PTR tv74[rsp], 1
  00047	eb 08		 jmp	 SHORT $LN4@PyParallel
$LN3@PyParallel:
  00049	c7 44 24 24 00
	00 00 00	 mov	 DWORD PTR tv74[rsp], 0
$LN4@PyParallel:
  00051	8b 44 24 24	 mov	 eax, DWORD PTR tv74[rsp]
  00055	89 44 24 20	 mov	 DWORD PTR tv75[rsp], eax
$LN6@PyParallel:
  00059	8b 44 24 20	 mov	 eax, DWORD PTR tv75[rsp]

; 112  : }

  0005d	48 83 c4 38	 add	 rsp, 56			; 00000038H
  00061	c3		 ret	 0
_PyParallel_DoesContextHaveActiveHeapSnapshot ENDP
_TEXT	ENDS
PUBLIC	_PyParallel_IsTLSHeapActive
;	COMDAT pdata
pdata	SEGMENT
$pdata$_PyParallel_IsTLSHeapActive DD imagerel $LN7
	DD	imagerel $LN7+94
	DD	imagerel $unwind$_PyParallel_IsTLSHeapActive
pdata	ENDS
;	COMDAT xdata
xdata	SEGMENT
$unwind$_PyParallel_IsTLSHeapActive DD 010401H
	DD	06204H
; Function compile flags: /Odtp
xdata	ENDS
;	COMDAT _PyParallel_IsTLSHeapActive
_TEXT	SEGMENT
tv75 = 32
tv74 = 36
_PyParallel_IsTLSHeapActive PROC			; COMDAT

; 118  : {

$LN7:
  00000	48 83 ec 38	 sub	 rsp, 56			; 00000038H

; 119  :     return (!Py_PXCTX ? 0 : Px_TLS_HEAP_ACTIVE);

  00004	e8 00 00 00 00	 call	 _Py_PXCTX
  00009	85 c0		 test	 eax, eax
  0000b	75 0a		 jne	 SHORT $LN5@PyParallel@2
  0000d	c7 44 24 20 00
	00 00 00	 mov	 DWORD PTR tv75[rsp], 0
  00015	eb 3e		 jmp	 SHORT $LN6@PyParallel@2
$LN5@PyParallel@2:
  00017	b8 00 00 00 00	 mov	 eax, OFFSET FLAT:tls
  0001c	8b c0		 mov	 eax, eax
  0001e	8b 0d 00 00 00
	00		 mov	 ecx, DWORD PTR _tls_index
  00024	65 48 8b 14 25
	58 00 00 00	 mov	 rdx, QWORD PTR gs:88
  0002d	48 8b 0c ca	 mov	 rcx, QWORD PTR [rdx+rcx*8]
  00031	83 bc 01 d0 00
	00 00 00	 cmp	 DWORD PTR [rcx+rax+208], 0
  00039	7e 0a		 jle	 SHORT $LN3@PyParallel@2
  0003b	c7 44 24 24 01
	00 00 00	 mov	 DWORD PTR tv74[rsp], 1
  00043	eb 08		 jmp	 SHORT $LN4@PyParallel@2
$LN3@PyParallel@2:
  00045	c7 44 24 24 00
	00 00 00	 mov	 DWORD PTR tv74[rsp], 0
$LN4@PyParallel@2:
  0004d	8b 44 24 24	 mov	 eax, DWORD PTR tv74[rsp]
  00051	89 44 24 20	 mov	 DWORD PTR tv75[rsp], eax
$LN6@PyParallel@2:
  00055	8b 44 24 20	 mov	 eax, DWORD PTR tv75[rsp]

; 120  : }

  00059	48 83 c4 38	 add	 rsp, 56			; 00000038H
  0005d	c3		 ret	 0
_PyParallel_IsTLSHeapActive ENDP
_TEXT	ENDS
PUBLIC	_PyParallel_GetTLSHeapDepth
;	COMDAT pdata
pdata	SEGMENT
$pdata$_PyParallel_GetTLSHeapDepth DD imagerel $LN5
	DD	imagerel $LN5+69
	DD	imagerel $unwind$_PyParallel_GetTLSHeapDepth
pdata	ENDS
;	COMDAT xdata
xdata	SEGMENT
$unwind$_PyParallel_GetTLSHeapDepth DD 010401H
	DD	06204H
; Function compile flags: /Odtp
xdata	ENDS
;	COMDAT _PyParallel_GetTLSHeapDepth
_TEXT	SEGMENT
tv73 = 32
_PyParallel_GetTLSHeapDepth PROC			; COMDAT

; 124  : {

$LN5:
  00000	48 83 ec 38	 sub	 rsp, 56			; 00000038H

; 125  :     return (!Py_PXCTX ? 0 : tls.heap_depth);

  00004	e8 00 00 00 00	 call	 _Py_PXCTX
  00009	85 c0		 test	 eax, eax
  0000b	75 0a		 jne	 SHORT $LN3@PyParallel@3
  0000d	c7 44 24 20 00
	00 00 00	 mov	 DWORD PTR tv73[rsp], 0
  00015	eb 25		 jmp	 SHORT $LN4@PyParallel@3
$LN3@PyParallel@3:
  00017	b8 00 00 00 00	 mov	 eax, OFFSET FLAT:tls
  0001c	8b c0		 mov	 eax, eax
  0001e	8b 0d 00 00 00
	00		 mov	 ecx, DWORD PTR _tls_index
  00024	65 48 8b 14 25
	58 00 00 00	 mov	 rdx, QWORD PTR gs:88
  0002d	48 8b 0c ca	 mov	 rcx, QWORD PTR [rdx+rcx*8]
  00031	8b 84 01 d0 00
	00 00		 mov	 eax, DWORD PTR [rcx+rax+208]
  00038	89 44 24 20	 mov	 DWORD PTR tv73[rsp], eax
$LN4@PyParallel@3:
  0003c	8b 44 24 20	 mov	 eax, DWORD PTR tv73[rsp]

; 126  : }

  00040	48 83 c4 38	 add	 rsp, 56			; 00000038H
  00044	c3		 ret	 0
_PyParallel_GetTLSHeapDepth ENDP
_TEXT	ENDS
PUBLIC	??_C@_1BK@MIIJJGCJ@?$AAc?$AA?9?$AA?$DO?$AAh?$AA?5?$AA?$CB?$AA?$DN?$AA?5?$AAt?$AA?9?$AA?$DO?$AAh?$AA?$AA@ ; `string'
PUBLIC	??_C@_1BK@MEEFFJG@?$AA?$CB?$AAt?$AA?9?$AA?$DO?$AAc?$AAt?$AAx?$AA_?$AAh?$AAe?$AAa?$AAp?$AA?$AA@ ; `string'
PUBLIC	??_C@_1CG@CGLGKPAD@?$AAt?$AA?9?$AA?$DO?$AAh?$AAe?$AAa?$AAp?$AA_?$AAd?$AAe?$AAp?$AAt?$AAh?$AA?5?$AA?$DN?$AA?$DN?$AA?5?$AA1?$AA?$AA@ ; `string'
PUBLIC	??_C@_1CO@DPMFPEGF@?$AA?4?$AA?4?$AA?2?$AAP?$AAy?$AAt?$AAh?$AAo?$AAn?$AA?2?$AAp?$AAy?$AAp?$AAa?$AAr?$AAa?$AAl?$AAl?$AAe?$AAl?$AA?4?$AAc?$AA?$AA@ ; `string'
PUBLIC	??_C@_0DA@BHNKKJOD@PyParallel_EnableTLSHeap?$CI?$CJ?3?5heap@ ; `string'
PUBLIC	_PyParallel_EnableTLSHeap
EXTRN	__imp__wassert:PROC
EXTRN	Py_FatalError:PROC
;	COMDAT pdata
pdata	SEGMENT
$pdata$_PyParallel_EnableTLSHeap DD imagerel $LN9
	DD	imagerel $LN9+332
	DD	imagerel $unwind$_PyParallel_EnableTLSHeap
pdata	ENDS
;	COMDAT xdata
xdata	SEGMENT
$unwind$_PyParallel_EnableTLSHeap DD 010401H
	DD	08204H
xdata	ENDS
;	COMDAT ??_C@_1BK@MIIJJGCJ@?$AAc?$AA?9?$AA?$DO?$AAh?$AA?5?$AA?$CB?$AA?$DN?$AA?5?$AAt?$AA?9?$AA?$DO?$AAh?$AA?$AA@
CONST	SEGMENT
??_C@_1BK@MIIJJGCJ@?$AAc?$AA?9?$AA?$DO?$AAh?$AA?5?$AA?$CB?$AA?$DN?$AA?5?$AAt?$AA?9?$AA?$DO?$AAh?$AA?$AA@ DB 'c'
	DB	00H, '-', 00H, '>', 00H, 'h', 00H, ' ', 00H, '!', 00H, '=', 00H
	DB	' ', 00H, 't', 00H, '-', 00H, '>', 00H, 'h', 00H, 00H, 00H ; `string'
CONST	ENDS
;	COMDAT ??_C@_1BK@MEEFFJG@?$AA?$CB?$AAt?$AA?9?$AA?$DO?$AAc?$AAt?$AAx?$AA_?$AAh?$AAe?$AAa?$AAp?$AA?$AA@
CONST	SEGMENT
??_C@_1BK@MEEFFJG@?$AA?$CB?$AAt?$AA?9?$AA?$DO?$AAc?$AAt?$AAx?$AA_?$AAh?$AAe?$AAa?$AAp?$AA?$AA@ DB '!'
	DB	00H, 't', 00H, '-', 00H, '>', 00H, 'c', 00H, 't', 00H, 'x', 00H
	DB	'_', 00H, 'h', 00H, 'e', 00H, 'a', 00H, 'p', 00H, 00H, 00H ; `string'
CONST	ENDS
;	COMDAT ??_C@_1CG@CGLGKPAD@?$AAt?$AA?9?$AA?$DO?$AAh?$AAe?$AAa?$AAp?$AA_?$AAd?$AAe?$AAp?$AAt?$AAh?$AA?5?$AA?$DN?$AA?$DN?$AA?5?$AA1?$AA?$AA@
CONST	SEGMENT
??_C@_1CG@CGLGKPAD@?$AAt?$AA?9?$AA?$DO?$AAh?$AAe?$AAa?$AAp?$AA_?$AAd?$AAe?$AAp?$AAt?$AAh?$AA?5?$AA?$DN?$AA?$DN?$AA?5?$AA1?$AA?$AA@ DB 't'
	DB	00H, '-', 00H, '>', 00H, 'h', 00H, 'e', 00H, 'a', 00H, 'p', 00H
	DB	'_', 00H, 'd', 00H, 'e', 00H, 'p', 00H, 't', 00H, 'h', 00H, ' '
	DB	00H, '=', 00H, '=', 00H, ' ', 00H, '1', 00H, 00H, 00H ; `string'
CONST	ENDS
;	COMDAT ??_C@_1CO@DPMFPEGF@?$AA?4?$AA?4?$AA?2?$AAP?$AAy?$AAt?$AAh?$AAo?$AAn?$AA?2?$AAp?$AAy?$AAp?$AAa?$AAr?$AAa?$AAl?$AAl?$AAe?$AAl?$AA?4?$AAc?$AA?$AA@
CONST	SEGMENT
??_C@_1CO@DPMFPEGF@?$AA?4?$AA?4?$AA?2?$AAP?$AAy?$AAt?$AAh?$AAo?$AAn?$AA?2?$AAp?$AAy?$AAp?$AAa?$AAr?$AAa?$AAl?$AAl?$AAe?$AAl?$AA?4?$AAc?$AA?$AA@ DB '.'
	DB	00H, '.', 00H, '\', 00H, 'P', 00H, 'y', 00H, 't', 00H, 'h', 00H
	DB	'o', 00H, 'n', 00H, '\', 00H, 'p', 00H, 'y', 00H, 'p', 00H, 'a'
	DB	00H, 'r', 00H, 'a', 00H, 'l', 00H, 'l', 00H, 'e', 00H, 'l', 00H
	DB	'.', 00H, 'c', 00H, 00H, 00H			; `string'
CONST	ENDS
;	COMDAT ??_C@_0DA@BHNKKJOD@PyParallel_EnableTLSHeap?$CI?$CJ?3?5heap@
CONST	SEGMENT
??_C@_0DA@BHNKKJOD@PyParallel_EnableTLSHeap?$CI?$CJ?3?5heap@ DB 'PyParall'
	DB	'el_EnableTLSHeap(): heap depth overflow', 00H ; `string'
; Function compile flags: /Odtp
CONST	ENDS
;	COMDAT _PyParallel_EnableTLSHeap
_TEXT	SEGMENT
c$ = 32
t$ = 40
tv80 = 48
_PyParallel_EnableTLSHeap PROC				; COMDAT

; 130  : {

$LN9:
  00000	48 83 ec 48	 sub	 rsp, 72			; 00000048H

; 131  :     TLS     *t = &tls;

  00004	b8 00 00 00 00	 mov	 eax, OFFSET FLAT:tls
  00009	8b c0		 mov	 eax, eax
  0000b	8b 0d 00 00 00
	00		 mov	 ecx, DWORD PTR _tls_index
  00011	65 48 8b 14 25
	58 00 00 00	 mov	 rdx, QWORD PTR gs:88
  0001a	48 03 04 ca	 add	 rax, QWORD PTR [rdx+rcx*8]
  0001e	48 89 44 24 28	 mov	 QWORD PTR t$[rsp], rax

; 132  :     Context *c = ctx;

  00023	b8 00 00 00 00	 mov	 eax, OFFSET FLAT:ctx
  00028	8b c0		 mov	 eax, eax
  0002a	8b 0d 00 00 00
	00		 mov	 ecx, DWORD PTR _tls_index
  00030	65 48 8b 14 25
	58 00 00 00	 mov	 rdx, QWORD PTR gs:88
  00039	48 8b 0c ca	 mov	 rcx, QWORD PTR [rdx+rcx*8]
  0003d	48 8b 04 08	 mov	 rax, QWORD PTR [rax+rcx]
  00041	48 89 44 24 20	 mov	 QWORD PTR c$[rsp], rax

; 133  : 
; 134  :     if (!Py_PXCTX)

  00046	e8 00 00 00 00	 call	 _Py_PXCTX
  0004b	85 c0		 test	 eax, eax
  0004d	75 05		 jne	 SHORT $LN3@PyParallel@4

; 135  :         return;

  0004f	e9 f3 00 00 00	 jmp	 $LN4@PyParallel@4
$LN3@PyParallel@4:

; 136  : 
; 137  :     if (++t->heap_depth > 1)

  00054	48 8b 44 24 28	 mov	 rax, QWORD PTR t$[rsp]
  00059	8b 80 d0 00 00
	00		 mov	 eax, DWORD PTR [rax+208]
  0005f	ff c0		 inc	 eax
  00061	89 44 24 30	 mov	 DWORD PTR tv80[rsp], eax
  00065	48 8b 44 24 28	 mov	 rax, QWORD PTR t$[rsp]
  0006a	8b 4c 24 30	 mov	 ecx, DWORD PTR tv80[rsp]
  0006e	89 88 d0 00 00
	00		 mov	 DWORD PTR [rax+208], ecx
  00074	83 7c 24 30 01	 cmp	 DWORD PTR tv80[rsp], 1
  00079	7e 05		 jle	 SHORT $LN2@PyParallel@4

; 138  :         /* Heap already active. */
; 139  :         return;

  0007b	e9 c7 00 00 00	 jmp	 $LN4@PyParallel@4
$LN2@PyParallel@4:

; 140  : 
; 141  :     if (t->heap_depth < 0)

  00080	48 8b 44 24 28	 mov	 rax, QWORD PTR t$[rsp]
  00085	83 b8 d0 00 00
	00 00		 cmp	 DWORD PTR [rax+208], 0
  0008c	7d 0c		 jge	 SHORT $LN1@PyParallel@4

; 142  :         Py_FatalError("PyParallel_EnableTLSHeap(): heap depth overflow");

  0008e	48 8d 0d 00 00
	00 00		 lea	 rcx, OFFSET FLAT:??_C@_0DA@BHNKKJOD@PyParallel_EnableTLSHeap?$CI?$CJ?3?5heap@
  00095	e8 00 00 00 00	 call	 Py_FatalError
$LN1@PyParallel@4:

; 143  : 
; 144  :     assert(t->heap_depth == 1);

  0009a	48 8b 44 24 28	 mov	 rax, QWORD PTR t$[rsp]
  0009f	83 b8 d0 00 00
	00 01		 cmp	 DWORD PTR [rax+208], 1
  000a6	74 1c		 je	 SHORT $LN6@PyParallel@4
  000a8	41 b8 90 00 00
	00		 mov	 r8d, 144		; 00000090H
  000ae	48 8d 15 00 00
	00 00		 lea	 rdx, OFFSET FLAT:??_C@_1CO@DPMFPEGF@?$AA?4?$AA?4?$AA?2?$AAP?$AAy?$AAt?$AAh?$AAo?$AAn?$AA?2?$AAp?$AAy?$AAp?$AAa?$AAr?$AAa?$AAl?$AAl?$AAe?$AAl?$AA?4?$AAc?$AA?$AA@
  000b5	48 8d 0d 00 00
	00 00		 lea	 rcx, OFFSET FLAT:??_C@_1CG@CGLGKPAD@?$AAt?$AA?9?$AA?$DO?$AAh?$AAe?$AAa?$AAp?$AA_?$AAd?$AAe?$AAp?$AAt?$AAh?$AA?5?$AA?$DN?$AA?$DN?$AA?5?$AA1?$AA?$AA@
  000bc	ff 15 00 00 00
	00		 call	 QWORD PTR __imp__wassert
  000c2	33 c0		 xor	 eax, eax
$LN6@PyParallel@4:

; 145  :     assert(!t->ctx_heap);

  000c4	48 8b 44 24 28	 mov	 rax, QWORD PTR t$[rsp]
  000c9	48 83 78 08 00	 cmp	 QWORD PTR [rax+8], 0
  000ce	74 1c		 je	 SHORT $LN7@PyParallel@4
  000d0	41 b8 91 00 00
	00		 mov	 r8d, 145		; 00000091H
  000d6	48 8d 15 00 00
	00 00		 lea	 rdx, OFFSET FLAT:??_C@_1CO@DPMFPEGF@?$AA?4?$AA?4?$AA?2?$AAP?$AAy?$AAt?$AAh?$AAo?$AAn?$AA?2?$AAp?$AAy?$AAp?$AAa?$AAr?$AAa?$AAl?$AAl?$AAe?$AAl?$AA?4?$AAc?$AA?$AA@
  000dd	48 8d 0d 00 00
	00 00		 lea	 rcx, OFFSET FLAT:??_C@_1BK@MEEFFJG@?$AA?$CB?$AAt?$AA?9?$AA?$DO?$AAc?$AAt?$AAx?$AA_?$AAh?$AAe?$AAa?$AAp?$AA?$AA@
  000e4	ff 15 00 00 00
	00		 call	 QWORD PTR __imp__wassert
  000ea	33 c0		 xor	 eax, eax
$LN7@PyParallel@4:

; 146  :     assert(c->h != t->h);

  000ec	48 8b 44 24 20	 mov	 rax, QWORD PTR c$[rsp]
  000f1	48 8b 4c 24 28	 mov	 rcx, QWORD PTR t$[rsp]
  000f6	48 8b 09	 mov	 rcx, QWORD PTR [rcx]
  000f9	48 39 88 d0 00
	00 00		 cmp	 QWORD PTR [rax+208], rcx
  00100	75 1c		 jne	 SHORT $LN8@PyParallel@4
  00102	41 b8 92 00 00
	00		 mov	 r8d, 146		; 00000092H
  00108	48 8d 15 00 00
	00 00		 lea	 rdx, OFFSET FLAT:??_C@_1CO@DPMFPEGF@?$AA?4?$AA?4?$AA?2?$AAP?$AAy?$AAt?$AAh?$AAo?$AAn?$AA?2?$AAp?$AAy?$AAp?$AAa?$AAr?$AAa?$AAl?$AAl?$AAe?$AAl?$AA?4?$AAc?$AA?$AA@
  0010f	48 8d 0d 00 00
	00 00		 lea	 rcx, OFFSET FLAT:??_C@_1BK@MIIJJGCJ@?$AAc?$AA?9?$AA?$DO?$AAh?$AA?5?$AA?$CB?$AA?$DN?$AA?5?$AAt?$AA?9?$AA?$DO?$AAh?$AA?$AA@
  00116	ff 15 00 00 00
	00		 call	 QWORD PTR __imp__wassert
  0011c	33 c0		 xor	 eax, eax
$LN8@PyParallel@4:

; 147  : 
; 148  :     t->ctx_heap = c->h;

  0011e	48 8b 44 24 28	 mov	 rax, QWORD PTR t$[rsp]
  00123	48 8b 4c 24 20	 mov	 rcx, QWORD PTR c$[rsp]
  00128	48 8b 89 d0 00
	00 00		 mov	 rcx, QWORD PTR [rcx+208]
  0012f	48 89 48 08	 mov	 QWORD PTR [rax+8], rcx

; 149  :     c->h = t->h;

  00133	48 8b 44 24 20	 mov	 rax, QWORD PTR c$[rsp]
  00138	48 8b 4c 24 28	 mov	 rcx, QWORD PTR t$[rsp]
  0013d	48 8b 09	 mov	 rcx, QWORD PTR [rcx]
  00140	48 89 88 d0 00
	00 00		 mov	 QWORD PTR [rax+208], rcx
$LN4@PyParallel@4:

; 150  : }

  00147	48 83 c4 48	 add	 rsp, 72			; 00000048H
  0014b	c3		 ret	 0
_PyParallel_EnableTLSHeap ENDP
_TEXT	ENDS
PUBLIC	??_C@_1CI@KCELDBAK@?$AAc?$AA?9?$AA?$DO?$AAh?$AA?5?$AA?$CB?$AA?$DN?$AA?5?$AAt?$AA?9?$AA?$DO?$AAc?$AAt?$AAx?$AA_?$AAh?$AAe?$AAa?$AAp?$AA?$AA@ ; `string'
PUBLIC	??_C@_1BK@IJIMHLHP@?$AAc?$AA?9?$AA?$DO?$AAh?$AA?5?$AA?$DN?$AA?$DN?$AA?5?$AAt?$AA?9?$AA?$DO?$AAh?$AA?$AA@ ; `string'
PUBLIC	??_C@_1BI@GIKBDHKC@?$AAt?$AA?9?$AA?$DO?$AAc?$AAt?$AAx?$AA_?$AAh?$AAe?$AAa?$AAp?$AA?$AA@ ; `string'
PUBLIC	??_C@_1CG@JOAKMIGG@?$AAt?$AA?9?$AA?$DO?$AAh?$AAe?$AAa?$AAp?$AA_?$AAd?$AAe?$AAp?$AAt?$AAh?$AA?5?$AA?$DN?$AA?$DN?$AA?5?$AA0?$AA?$AA@ ; `string'
PUBLIC	??_C@_0CP@OEHHIABM@PyParallel_DisableTLSHeap?3?5negat@ ; `string'
PUBLIC	_PyParallel_DisableTLSHeap
;	COMDAT pdata
pdata	SEGMENT
$pdata$_PyParallel_DisableTLSHeap DD imagerel $LN10
	DD	imagerel $LN10+376
	DD	imagerel $unwind$_PyParallel_DisableTLSHeap
pdata	ENDS
;	COMDAT xdata
xdata	SEGMENT
$unwind$_PyParallel_DisableTLSHeap DD 010401H
	DD	08204H
xdata	ENDS
;	COMDAT ??_C@_1CI@KCELDBAK@?$AAc?$AA?9?$AA?$DO?$AAh?$AA?5?$AA?$CB?$AA?$DN?$AA?5?$AAt?$AA?9?$AA?$DO?$AAc?$AAt?$AAx?$AA_?$AAh?$AAe?$AAa?$AAp?$AA?$AA@
CONST	SEGMENT
??_C@_1CI@KCELDBAK@?$AAc?$AA?9?$AA?$DO?$AAh?$AA?5?$AA?$CB?$AA?$DN?$AA?5?$AAt?$AA?9?$AA?$DO?$AAc?$AAt?$AAx?$AA_?$AAh?$AAe?$AAa?$AAp?$AA?$AA@ DB 'c'
	DB	00H, '-', 00H, '>', 00H, 'h', 00H, ' ', 00H, '!', 00H, '=', 00H
	DB	' ', 00H, 't', 00H, '-', 00H, '>', 00H, 'c', 00H, 't', 00H, 'x'
	DB	00H, '_', 00H, 'h', 00H, 'e', 00H, 'a', 00H, 'p', 00H, 00H, 00H ; `string'
CONST	ENDS
;	COMDAT ??_C@_1BK@IJIMHLHP@?$AAc?$AA?9?$AA?$DO?$AAh?$AA?5?$AA?$DN?$AA?$DN?$AA?5?$AAt?$AA?9?$AA?$DO?$AAh?$AA?$AA@
CONST	SEGMENT
??_C@_1BK@IJIMHLHP@?$AAc?$AA?9?$AA?$DO?$AAh?$AA?5?$AA?$DN?$AA?$DN?$AA?5?$AAt?$AA?9?$AA?$DO?$AAh?$AA?$AA@ DB 'c'
	DB	00H, '-', 00H, '>', 00H, 'h', 00H, ' ', 00H, '=', 00H, '=', 00H
	DB	' ', 00H, 't', 00H, '-', 00H, '>', 00H, 'h', 00H, 00H, 00H ; `string'
CONST	ENDS
;	COMDAT ??_C@_1BI@GIKBDHKC@?$AAt?$AA?9?$AA?$DO?$AAc?$AAt?$AAx?$AA_?$AAh?$AAe?$AAa?$AAp?$AA?$AA@
CONST	SEGMENT
??_C@_1BI@GIKBDHKC@?$AAt?$AA?9?$AA?$DO?$AAc?$AAt?$AAx?$AA_?$AAh?$AAe?$AAa?$AAp?$AA?$AA@ DB 't'
	DB	00H, '-', 00H, '>', 00H, 'c', 00H, 't', 00H, 'x', 00H, '_', 00H
	DB	'h', 00H, 'e', 00H, 'a', 00H, 'p', 00H, 00H, 00H ; `string'
CONST	ENDS
;	COMDAT ??_C@_1CG@JOAKMIGG@?$AAt?$AA?9?$AA?$DO?$AAh?$AAe?$AAa?$AAp?$AA_?$AAd?$AAe?$AAp?$AAt?$AAh?$AA?5?$AA?$DN?$AA?$DN?$AA?5?$AA0?$AA?$AA@
CONST	SEGMENT
??_C@_1CG@JOAKMIGG@?$AAt?$AA?9?$AA?$DO?$AAh?$AAe?$AAa?$AAp?$AA_?$AAd?$AAe?$AAp?$AAt?$AAh?$AA?5?$AA?$DN?$AA?$DN?$AA?5?$AA0?$AA?$AA@ DB 't'
	DB	00H, '-', 00H, '>', 00H, 'h', 00H, 'e', 00H, 'a', 00H, 'p', 00H
	DB	'_', 00H, 'd', 00H, 'e', 00H, 'p', 00H, 't', 00H, 'h', 00H, ' '
	DB	00H, '=', 00H, '=', 00H, ' ', 00H, '0', 00H, 00H, 00H ; `string'
CONST	ENDS
;	COMDAT ??_C@_0CP@OEHHIABM@PyParallel_DisableTLSHeap?3?5negat@
CONST	SEGMENT
??_C@_0CP@OEHHIABM@PyParallel_DisableTLSHeap?3?5negat@ DB 'PyParallel_Dis'
	DB	'ableTLSHeap: negative heap depth', 00H	; `string'
; Function compile flags: /Odtp
CONST	ENDS
;	COMDAT _PyParallel_DisableTLSHeap
_TEXT	SEGMENT
c$ = 32
t$ = 40
tv80 = 48
_PyParallel_DisableTLSHeap PROC				; COMDAT

; 154  : {

$LN10:
  00000	48 83 ec 48	 sub	 rsp, 72			; 00000048H

; 155  :     TLS     *t = &tls;

  00004	b8 00 00 00 00	 mov	 eax, OFFSET FLAT:tls
  00009	8b c0		 mov	 eax, eax
  0000b	8b 0d 00 00 00
	00		 mov	 ecx, DWORD PTR _tls_index
  00011	65 48 8b 14 25
	58 00 00 00	 mov	 rdx, QWORD PTR gs:88
  0001a	48 03 04 ca	 add	 rax, QWORD PTR [rdx+rcx*8]
  0001e	48 89 44 24 28	 mov	 QWORD PTR t$[rsp], rax

; 156  :     Context *c = ctx;

  00023	b8 00 00 00 00	 mov	 eax, OFFSET FLAT:ctx
  00028	8b c0		 mov	 eax, eax
  0002a	8b 0d 00 00 00
	00		 mov	 ecx, DWORD PTR _tls_index
  00030	65 48 8b 14 25
	58 00 00 00	 mov	 rdx, QWORD PTR gs:88
  00039	48 8b 0c ca	 mov	 rcx, QWORD PTR [rdx+rcx*8]
  0003d	48 8b 04 08	 mov	 rax, QWORD PTR [rax+rcx]
  00041	48 89 44 24 20	 mov	 QWORD PTR c$[rsp], rax

; 157  : 
; 158  :     if (!Py_PXCTX)

  00046	e8 00 00 00 00	 call	 _Py_PXCTX
  0004b	85 c0		 test	 eax, eax
  0004d	75 05		 jne	 SHORT $LN3@PyParallel@5

; 159  :         return;

  0004f	e9 1f 01 00 00	 jmp	 $LN4@PyParallel@5
$LN3@PyParallel@5:

; 160  : 
; 161  :     if (--t->heap_depth > 0)

  00054	48 8b 44 24 28	 mov	 rax, QWORD PTR t$[rsp]
  00059	8b 80 d0 00 00
	00		 mov	 eax, DWORD PTR [rax+208]
  0005f	ff c8		 dec	 eax
  00061	89 44 24 30	 mov	 DWORD PTR tv80[rsp], eax
  00065	48 8b 44 24 28	 mov	 rax, QWORD PTR t$[rsp]
  0006a	8b 4c 24 30	 mov	 ecx, DWORD PTR tv80[rsp]
  0006e	89 88 d0 00 00
	00		 mov	 DWORD PTR [rax+208], ecx
  00074	83 7c 24 30 00	 cmp	 DWORD PTR tv80[rsp], 0
  00079	7e 05		 jle	 SHORT $LN2@PyParallel@5

; 162  :         return;

  0007b	e9 f3 00 00 00	 jmp	 $LN4@PyParallel@5
$LN2@PyParallel@5:

; 163  : 
; 164  :     if (t->heap_depth < 0)

  00080	48 8b 44 24 28	 mov	 rax, QWORD PTR t$[rsp]
  00085	83 b8 d0 00 00
	00 00		 cmp	 DWORD PTR [rax+208], 0
  0008c	7d 0c		 jge	 SHORT $LN1@PyParallel@5

; 165  :         Py_FatalError("PyParallel_DisableTLSHeap: negative heap depth");

  0008e	48 8d 0d 00 00
	00 00		 lea	 rcx, OFFSET FLAT:??_C@_0CP@OEHHIABM@PyParallel_DisableTLSHeap?3?5negat@
  00095	e8 00 00 00 00	 call	 Py_FatalError
$LN1@PyParallel@5:

; 166  : 
; 167  :     assert(t->heap_depth == 0);

  0009a	48 8b 44 24 28	 mov	 rax, QWORD PTR t$[rsp]
  0009f	83 b8 d0 00 00
	00 00		 cmp	 DWORD PTR [rax+208], 0
  000a6	74 1c		 je	 SHORT $LN6@PyParallel@5
  000a8	41 b8 a7 00 00
	00		 mov	 r8d, 167		; 000000a7H
  000ae	48 8d 15 00 00
	00 00		 lea	 rdx, OFFSET FLAT:??_C@_1CO@DPMFPEGF@?$AA?4?$AA?4?$AA?2?$AAP?$AAy?$AAt?$AAh?$AAo?$AAn?$AA?2?$AAp?$AAy?$AAp?$AAa?$AAr?$AAa?$AAl?$AAl?$AAe?$AAl?$AA?4?$AAc?$AA?$AA@
  000b5	48 8d 0d 00 00
	00 00		 lea	 rcx, OFFSET FLAT:??_C@_1CG@JOAKMIGG@?$AAt?$AA?9?$AA?$DO?$AAh?$AAe?$AAa?$AAp?$AA_?$AAd?$AAe?$AAp?$AAt?$AAh?$AA?5?$AA?$DN?$AA?$DN?$AA?5?$AA0?$AA?$AA@
  000bc	ff 15 00 00 00
	00		 call	 QWORD PTR __imp__wassert
  000c2	33 c0		 xor	 eax, eax
$LN6@PyParallel@5:

; 168  :     assert(t->ctx_heap);

  000c4	48 8b 44 24 28	 mov	 rax, QWORD PTR t$[rsp]
  000c9	48 83 78 08 00	 cmp	 QWORD PTR [rax+8], 0
  000ce	75 1c		 jne	 SHORT $LN7@PyParallel@5
  000d0	41 b8 a8 00 00
	00		 mov	 r8d, 168		; 000000a8H
  000d6	48 8d 15 00 00
	00 00		 lea	 rdx, OFFSET FLAT:??_C@_1CO@DPMFPEGF@?$AA?4?$AA?4?$AA?2?$AAP?$AAy?$AAt?$AAh?$AAo?$AAn?$AA?2?$AAp?$AAy?$AAp?$AAa?$AAr?$AAa?$AAl?$AAl?$AAe?$AAl?$AA?4?$AAc?$AA?$AA@
  000dd	48 8d 0d 00 00
	00 00		 lea	 rcx, OFFSET FLAT:??_C@_1BI@GIKBDHKC@?$AAt?$AA?9?$AA?$DO?$AAc?$AAt?$AAx?$AA_?$AAh?$AAe?$AAa?$AAp?$AA?$AA@
  000e4	ff 15 00 00 00
	00		 call	 QWORD PTR __imp__wassert
  000ea	33 c0		 xor	 eax, eax
$LN7@PyParallel@5:

; 169  :     assert(c->h == t->h);

  000ec	48 8b 44 24 20	 mov	 rax, QWORD PTR c$[rsp]
  000f1	48 8b 4c 24 28	 mov	 rcx, QWORD PTR t$[rsp]
  000f6	48 8b 09	 mov	 rcx, QWORD PTR [rcx]
  000f9	48 39 88 d0 00
	00 00		 cmp	 QWORD PTR [rax+208], rcx
  00100	74 1c		 je	 SHORT $LN8@PyParallel@5
  00102	41 b8 a9 00 00
	00		 mov	 r8d, 169		; 000000a9H
  00108	48 8d 15 00 00
	00 00		 lea	 rdx, OFFSET FLAT:??_C@_1CO@DPMFPEGF@?$AA?4?$AA?4?$AA?2?$AAP?$AAy?$AAt?$AAh?$AAo?$AAn?$AA?2?$AAp?$AAy?$AAp?$AAa?$AAr?$AAa?$AAl?$AAl?$AAe?$AAl?$AA?4?$AAc?$AA?$AA@
  0010f	48 8d 0d 00 00
	00 00		 lea	 rcx, OFFSET FLAT:??_C@_1BK@IJIMHLHP@?$AAc?$AA?9?$AA?$DO?$AAh?$AA?5?$AA?$DN?$AA?$DN?$AA?5?$AAt?$AA?9?$AA?$DO?$AAh?$AA?$AA@
  00116	ff 15 00 00 00
	00		 call	 QWORD PTR __imp__wassert
  0011c	33 c0		 xor	 eax, eax
$LN8@PyParallel@5:

; 170  :     assert(c->h != t->ctx_heap);

  0011e	48 8b 44 24 20	 mov	 rax, QWORD PTR c$[rsp]
  00123	48 8b 4c 24 28	 mov	 rcx, QWORD PTR t$[rsp]
  00128	48 8b 49 08	 mov	 rcx, QWORD PTR [rcx+8]
  0012c	48 39 88 d0 00
	00 00		 cmp	 QWORD PTR [rax+208], rcx
  00133	75 1c		 jne	 SHORT $LN9@PyParallel@5
  00135	41 b8 aa 00 00
	00		 mov	 r8d, 170		; 000000aaH
  0013b	48 8d 15 00 00
	00 00		 lea	 rdx, OFFSET FLAT:??_C@_1CO@DPMFPEGF@?$AA?4?$AA?4?$AA?2?$AAP?$AAy?$AAt?$AAh?$AAo?$AAn?$AA?2?$AAp?$AAy?$AAp?$AAa?$AAr?$AAa?$AAl?$AAl?$AAe?$AAl?$AA?4?$AAc?$AA?$AA@
  00142	48 8d 0d 00 00
	00 00		 lea	 rcx, OFFSET FLAT:??_C@_1CI@KCELDBAK@?$AAc?$AA?9?$AA?$DO?$AAh?$AA?5?$AA?$CB?$AA?$DN?$AA?5?$AAt?$AA?9?$AA?$DO?$AAc?$AAt?$AAx?$AA_?$AAh?$AAe?$AAa?$AAp?$AA?$AA@
  00149	ff 15 00 00 00
	00		 call	 QWORD PTR __imp__wassert
  0014f	33 c0		 xor	 eax, eax
$LN9@PyParallel@5:

; 171  : 
; 172  :     c->h = t->ctx_heap;

  00151	48 8b 44 24 20	 mov	 rax, QWORD PTR c$[rsp]
  00156	48 8b 4c 24 28	 mov	 rcx, QWORD PTR t$[rsp]
  0015b	48 8b 49 08	 mov	 rcx, QWORD PTR [rcx+8]
  0015f	48 89 88 d0 00
	00 00		 mov	 QWORD PTR [rax+208], rcx

; 173  :     t->ctx_heap = NULL;

  00166	48 8b 44 24 28	 mov	 rax, QWORD PTR t$[rsp]
  0016b	48 c7 40 08 00
	00 00 00	 mov	 QWORD PTR [rax+8], 0
$LN4@PyParallel@5:

; 174  : }

  00173	48 83 c4 48	 add	 rsp, 72			; 00000048H
  00177	c3		 ret	 0
_PyParallel_DisableTLSHeap ENDP
_TEXT	ENDS
PUBLIC	_PyParallel_GetCurrentThreadState
;	COMDAT pdata
pdata	SEGMENT
$pdata$_PyParallel_GetCurrentThreadState DD imagerel $LN3
	DD	imagerel $LN3+14
	DD	imagerel $unwind$_PyParallel_GetCurrentThreadState
pdata	ENDS
;	COMDAT xdata
xdata	SEGMENT
$unwind$_PyParallel_GetCurrentThreadState DD 010401H
	DD	04204H
; Function compile flags: /Odtp
xdata	ENDS
;	COMDAT _PyParallel_GetCurrentThreadState
_TEXT	SEGMENT
_PyParallel_GetCurrentThreadState PROC			; COMDAT

; 207  : {

$LN3:
  00000	48 83 ec 28	 sub	 rsp, 40			; 00000028H

; 208  :     return get_main_thread_state();

  00004	e8 00 00 00 00	 call	 get_main_thread_state

; 209  : }

  00009	48 83 c4 28	 add	 rsp, 40			; 00000028H
  0000d	c3		 ret	 0
_PyParallel_GetCurrentThreadState ENDP
_TEXT	ENDS
EXTRN	_PyThreadState_Current:QWORD
;	COMDAT pdata
pdata	SEGMENT
$pdata$get_main_thread_state DD imagerel get_main_thread_state
	DD	imagerel get_main_thread_state+65
	DD	imagerel $unwind$get_main_thread_state
pdata	ENDS
;	COMDAT xdata
xdata	SEGMENT
$unwind$get_main_thread_state DD 010401H
	DD	02204H
; Function compile flags: /Odtp
xdata	ENDS
;	COMDAT get_main_thread_state
_TEXT	SEGMENT
tstate$ = 0
get_main_thread_state PROC				; COMDAT

; 195  : {

  00000	48 83 ec 18	 sub	 rsp, 24

; 196  :     PyThreadState *tstate;
; 197  : 
; 198  :     tstate = (PyThreadState *)_Py_atomic_load_relaxed(&_PyThreadState_Current);

  00004	48 8b 05 00 00
	00 00		 mov	 rax, QWORD PTR _PyThreadState_Current
  0000b	48 89 04 24	 mov	 QWORD PTR tstate$[rsp], rax

; 199  :     if (!tstate)

  0000f	48 83 3c 24 00	 cmp	 QWORD PTR tstate$[rsp], 0
  00014	75 22		 jne	 SHORT $LN1@get_main_t

; 200  :         tstate = TSTATE;

  00016	b8 00 00 00 00	 mov	 eax, OFFSET FLAT:TSTATE
  0001b	8b c0		 mov	 eax, eax
  0001d	8b 0d 00 00 00
	00		 mov	 ecx, DWORD PTR _tls_index
  00023	65 48 8b 14 25
	58 00 00 00	 mov	 rdx, QWORD PTR gs:88
  0002c	48 8b 0c ca	 mov	 rcx, QWORD PTR [rdx+rcx*8]
  00030	48 8b 04 08	 mov	 rax, QWORD PTR [rax+rcx]
  00034	48 89 04 24	 mov	 QWORD PTR tstate$[rsp], rax
$LN1@get_main_t:

; 201  :     //assert(tstate);
; 202  :     return tstate;

  00038	48 8b 04 24	 mov	 rax, QWORD PTR tstate$[rsp]

; 203  : }

  0003c	48 83 c4 18	 add	 rsp, 24
  00040	c3		 ret	 0
get_main_thread_state ENDP
_TEXT	ENDS
PUBLIC	??_C@_0CC@KKBNEAJH@Context?5heap?5snapshots?5exhausted@ ; `string'
PUBLIC	??_C@_1CK@ODAODKCA@?$AAh?$AA?9?$AA?$DO?$AAb?$AAi?$AAt?$AAm?$AAa?$AAp?$AA_?$AAi?$AAn?$AAd?$AAe?$AAx?$AA?5?$AA?$DN?$AA?$DN?$AA?5?$AAi?$AA?$AA@ ; `string'
PUBLIC	??_C@_1DE@FCGGLNFG@?$AA?$CB?$AAp?$AAr?$AAe?$AAv?$AA?5?$AA?$HM?$AA?$HM?$AA?5?$AA?$CI?$AAp?$AAr?$AAe?$AAv?$AA?9?$AA?$DO?$AAc?$AAt?$AAx?$AA?5?$AA?$DN?$AA?$DN?$AA?5?$AAc?$AA?$CJ?$AA?$AA@ ; `string'
PUBLIC	PxContext_HeapSnapshot
EXTRN	memcpy:PROC
EXTRN	__imp_LeaveCriticalSection:PROC
EXTRN	__imp_EnterCriticalSection:PROC
;	COMDAT pdata
pdata	SEGMENT
$pdata$PxContext_HeapSnapshot DD imagerel $LN9
	DD	imagerel $LN9+496
	DD	imagerel $unwind$PxContext_HeapSnapshot
pdata	ENDS
;	COMDAT xdata
xdata	SEGMENT
$unwind$PxContext_HeapSnapshot DD 010e01H
	DD	0a20eH
xdata	ENDS
;	COMDAT ??_C@_0CC@KKBNEAJH@Context?5heap?5snapshots?5exhausted@
CONST	SEGMENT
??_C@_0CC@KKBNEAJH@Context?5heap?5snapshots?5exhausted@ DB 'Context heap '
	DB	'snapshots exhausted!', 00H			; `string'
CONST	ENDS
;	COMDAT ??_C@_1CK@ODAODKCA@?$AAh?$AA?9?$AA?$DO?$AAb?$AAi?$AAt?$AAm?$AAa?$AAp?$AA_?$AAi?$AAn?$AAd?$AAe?$AAx?$AA?5?$AA?$DN?$AA?$DN?$AA?5?$AAi?$AA?$AA@
CONST	SEGMENT
??_C@_1CK@ODAODKCA@?$AAh?$AA?9?$AA?$DO?$AAb?$AAi?$AAt?$AAm?$AAa?$AAp?$AA_?$AAi?$AAn?$AAd?$AAe?$AAx?$AA?5?$AA?$DN?$AA?$DN?$AA?5?$AAi?$AA?$AA@ DB 'h'
	DB	00H, '-', 00H, '>', 00H, 'b', 00H, 'i', 00H, 't', 00H, 'm', 00H
	DB	'a', 00H, 'p', 00H, '_', 00H, 'i', 00H, 'n', 00H, 'd', 00H, 'e'
	DB	00H, 'x', 00H, ' ', 00H, '=', 00H, '=', 00H, ' ', 00H, 'i', 00H
	DB	00H, 00H					; `string'
CONST	ENDS
;	COMDAT ??_C@_1DE@FCGGLNFG@?$AA?$CB?$AAp?$AAr?$AAe?$AAv?$AA?5?$AA?$HM?$AA?$HM?$AA?5?$AA?$CI?$AAp?$AAr?$AAe?$AAv?$AA?9?$AA?$DO?$AAc?$AAt?$AAx?$AA?5?$AA?$DN?$AA?$DN?$AA?5?$AAc?$AA?$CJ?$AA?$AA@
CONST	SEGMENT
??_C@_1DE@FCGGLNFG@?$AA?$CB?$AAp?$AAr?$AAe?$AAv?$AA?5?$AA?$HM?$AA?$HM?$AA?5?$AA?$CI?$AAp?$AAr?$AAe?$AAv?$AA?9?$AA?$DO?$AAc?$AAt?$AAx?$AA?5?$AA?$DN?$AA?$DN?$AA?5?$AAc?$AA?$CJ?$AA?$AA@ DB '!'
	DB	00H, 'p', 00H, 'r', 00H, 'e', 00H, 'v', 00H, ' ', 00H, '|', 00H
	DB	'|', 00H, ' ', 00H, '(', 00H, 'p', 00H, 'r', 00H, 'e', 00H, 'v'
	DB	00H, '-', 00H, '>', 00H, 'c', 00H, 't', 00H, 'x', 00H, ' ', 00H
	DB	'=', 00H, '=', 00H, ' ', 00H, 'c', 00H, ')', 00H, 00H, 00H ; `string'
; Function compile flags: /Odtp
CONST	ENDS
;	COMDAT PxContext_HeapSnapshot
_TEXT	SEGMENT
h$ = 32
i$ = 40
bitmap$ = 48
tv167 = 56
tv142 = 64
c$ = 96
prev$ = 104
PxContext_HeapSnapshot PROC				; COMDAT

; 281  : {

$LN9:
  00000	48 89 54 24 10	 mov	 QWORD PTR [rsp+16], rdx
  00005	48 89 4c 24 08	 mov	 QWORD PTR [rsp+8], rcx
  0000a	48 83 ec 58	 sub	 rsp, 88			; 00000058H

; 282  :     Heap *h = NULL;

  0000e	48 c7 44 24 20
	00 00 00 00	 mov	 QWORD PTR h$[rsp], 0

; 283  :     Px_UINTPTR bitmap = Px_PTR(c->snapshots_bitmap);

  00017	48 8b 44 24 60	 mov	 rax, QWORD PTR c$[rsp]
  0001c	48 8b 80 20 02
	00 00		 mov	 rax, QWORD PTR [rax+544]
  00023	48 89 44 24 30	 mov	 QWORD PTR bitmap$[rsp], rax

; 284  :     unsigned long i = 0;

  00028	c7 44 24 28 00
	00 00 00	 mov	 DWORD PTR i$[rsp], 0

; 285  : 
; 286  :     assert(!prev || (prev->ctx == c));

  00030	48 83 7c 24 68
	00		 cmp	 QWORD PTR prev$[rsp], 0
  00036	74 2c		 je	 SHORT $LN7@PxContext_
  00038	48 8b 44 24 68	 mov	 rax, QWORD PTR prev$[rsp]
  0003d	48 8b 4c 24 60	 mov	 rcx, QWORD PTR c$[rsp]
  00042	48 39 48 58	 cmp	 QWORD PTR [rax+88], rcx
  00046	74 1c		 je	 SHORT $LN7@PxContext_
  00048	41 b8 1e 01 00
	00		 mov	 r8d, 286		; 0000011eH
  0004e	48 8d 15 00 00
	00 00		 lea	 rdx, OFFSET FLAT:??_C@_1CO@DPMFPEGF@?$AA?4?$AA?4?$AA?2?$AAP?$AAy?$AAt?$AAh?$AAo?$AAn?$AA?2?$AAp?$AAy?$AAp?$AAa?$AAr?$AAa?$AAl?$AAl?$AAe?$AAl?$AA?4?$AAc?$AA?$AA@
  00055	48 8d 0d 00 00
	00 00		 lea	 rcx, OFFSET FLAT:??_C@_1DE@FCGGLNFG@?$AA?$CB?$AAp?$AAr?$AAe?$AAv?$AA?5?$AA?$HM?$AA?$HM?$AA?5?$AA?$CI?$AAp?$AAr?$AAe?$AAv?$AA?9?$AA?$DO?$AAc?$AAt?$AAx?$AA?5?$AA?$DN?$AA?$DN?$AA?5?$AAc?$AA?$CJ?$AA?$AA@
  0005c	ff 15 00 00 00
	00		 call	 QWORD PTR __imp__wassert
  00062	33 c0		 xor	 eax, eax
$LN7@PxContext_:

; 287  : 
; 288  :     EnterCriticalSection(&c->heap_cs);

  00064	48 8b 44 24 60	 mov	 rax, QWORD PTR c$[rsp]
  00069	48 05 c8 01 00
	00		 add	 rax, 456		; 000001c8H
  0006f	48 8b c8	 mov	 rcx, rax
  00072	ff 15 00 00 00
	00		 call	 QWORD PTR __imp_EnterCriticalSection

; 289  :     EnterCriticalSection(&c->snapshots_cs);

  00078	48 8b 44 24 60	 mov	 rax, QWORD PTR c$[rsp]
  0007d	48 05 f8 01 00
	00		 add	 rax, 504		; 000001f8H
  00083	48 8b c8	 mov	 rcx, rax
  00086	ff 15 00 00 00
	00		 call	 QWORD PTR __imp_EnterCriticalSection

; 290  : 
; 291  :     if (_tls_bitscan_fwd(&i, bitmap))

  0008c	48 8b 44 24 30	 mov	 rax, QWORD PTR bitmap$[rsp]
  00091	48 0f bc c0	 bsf	 rax, rax
  00095	89 44 24 28	 mov	 DWORD PTR i$[rsp], eax
  00099	0f 95 c0	 setne	 al
  0009c	0f b6 c0	 movzx	 eax, al
  0009f	85 c0		 test	 eax, eax
  000a1	74 16		 je	 SHORT $LN4@PxContext_

; 292  :         h = c->snapshots[i];

  000a3	8b 44 24 28	 mov	 eax, DWORD PTR i$[rsp]
  000a7	48 8b 4c 24 60	 mov	 rcx, QWORD PTR c$[rsp]
  000ac	48 8b 84 c1 28
	02 00 00	 mov	 rax, QWORD PTR [rcx+rax*8+552]
  000b4	48 89 44 24 20	 mov	 QWORD PTR h$[rsp], rax
$LN4@PxContext_:

; 293  : 
; 294  :     if (h) {

  000b9	48 83 7c 24 20
	00		 cmp	 QWORD PTR h$[rsp], 0
  000bf	74 5a		 je	 SHORT $LN3@PxContext_

; 295  :         assert(h->bitmap_index == i);

  000c1	48 8b 44 24 20	 mov	 rax, QWORD PTR h$[rsp]
  000c6	0f be 80 b0 00
	00 00		 movsx	 eax, BYTE PTR [rax+176]
  000cd	3b 44 24 28	 cmp	 eax, DWORD PTR i$[rsp]
  000d1	74 1c		 je	 SHORT $LN8@PxContext_
  000d3	41 b8 27 01 00
	00		 mov	 r8d, 295		; 00000127H
  000d9	48 8d 15 00 00
	00 00		 lea	 rdx, OFFSET FLAT:??_C@_1CO@DPMFPEGF@?$AA?4?$AA?4?$AA?2?$AAP?$AAy?$AAt?$AAh?$AAo?$AAn?$AA?2?$AAp?$AAy?$AAp?$AAa?$AAr?$AAa?$AAl?$AAl?$AAe?$AAl?$AA?4?$AAc?$AA?$AA@
  000e0	48 8d 0d 00 00
	00 00		 lea	 rcx, OFFSET FLAT:??_C@_1CK@ODAODKCA@?$AAh?$AA?9?$AA?$DO?$AAb?$AAi?$AAt?$AAm?$AAa?$AAp?$AA_?$AAi?$AAn?$AAd?$AAe?$AAx?$AA?5?$AA?$DN?$AA?$DN?$AA?5?$AAi?$AA?$AA@
  000e7	ff 15 00 00 00
	00		 call	 QWORD PTR __imp__wassert
  000ed	33 c0		 xor	 eax, eax
$LN8@PxContext_:

; 296  :         _tls_interlocked_and(&c->snapshots_bitmap, ~(Px_UINTPTR_1 << i));

  000ef	8b 44 24 28	 mov	 eax, DWORD PTR i$[rsp]
  000f3	b9 01 00 00 00	 mov	 ecx, 1
  000f8	48 89 4c 24 38	 mov	 QWORD PTR tv167[rsp], rcx
  000fd	0f b6 c8	 movzx	 ecx, al
  00100	48 8b 44 24 38	 mov	 rax, QWORD PTR tv167[rsp]
  00105	48 d3 e0	 shl	 rax, cl
  00108	48 f7 d0	 not	 rax
  0010b	48 8b 4c 24 60	 mov	 rcx, QWORD PTR c$[rsp]
  00110	48 81 c1 20 02
	00 00		 add	 rcx, 544		; 00000220H
  00117	f0 48 21 01	 lock and QWORD PTR [rcx], rax
$LN3@PxContext_:

; 297  :     }
; 298  : 
; 299  :     LeaveCriticalSection(&c->snapshots_cs);

  0011b	48 8b 44 24 60	 mov	 rax, QWORD PTR c$[rsp]
  00120	48 05 f8 01 00
	00		 add	 rax, 504		; 000001f8H
  00126	48 8b c8	 mov	 rcx, rax
  00129	ff 15 00 00 00
	00		 call	 QWORD PTR __imp_LeaveCriticalSection

; 300  : 
; 301  :     if (!h)

  0012f	48 83 7c 24 20
	00		 cmp	 QWORD PTR h$[rsp], 0
  00135	75 0c		 jne	 SHORT $LN2@PxContext_

; 302  :         Py_FatalError("Context heap snapshots exhausted!");

  00137	48 8d 0d 00 00
	00 00		 lea	 rcx, OFFSET FLAT:??_C@_0CC@KKBNEAJH@Context?5heap?5snapshots?5exhausted@
  0013e	e8 00 00 00 00	 call	 Py_FatalError
$LN2@PxContext_:

; 303  : 
; 304  :     memcpy(h, c->h, PxHeap_SNAPSHOT_COPY_SIZE);

  00143	41 b8 a8 00 00
	00		 mov	 r8d, 168		; 000000a8H
  00149	48 8b 44 24 60	 mov	 rax, QWORD PTR c$[rsp]
  0014e	48 8b 90 d0 00
	00 00		 mov	 rdx, QWORD PTR [rax+208]
  00155	48 8b 4c 24 20	 mov	 rcx, QWORD PTR h$[rsp]
  0015a	e8 00 00 00 00	 call	 memcpy

; 305  :     h->snapshot_id = ++c->snapshot_id;

  0015f	48 8b 44 24 60	 mov	 rax, QWORD PTR c$[rsp]
  00164	48 8b 80 f0 01
	00 00		 mov	 rax, QWORD PTR [rax+496]
  0016b	48 ff c0	 inc	 rax
  0016e	48 89 44 24 40	 mov	 QWORD PTR tv142[rsp], rax
  00173	48 8b 44 24 60	 mov	 rax, QWORD PTR c$[rsp]
  00178	48 8b 4c 24 40	 mov	 rcx, QWORD PTR tv142[rsp]
  0017d	48 89 88 f0 01
	00 00		 mov	 QWORD PTR [rax+496], rcx
  00184	48 8b 44 24 20	 mov	 rax, QWORD PTR h$[rsp]
  00189	48 8b 4c 24 40	 mov	 rcx, QWORD PTR tv142[rsp]
  0018e	48 89 88 a8 00
	00 00		 mov	 QWORD PTR [rax+168], rcx

; 306  :     if (prev) {

  00195	48 83 7c 24 68
	00		 cmp	 QWORD PTR prev$[rsp], 0
  0019b	74 28		 je	 SHORT $LN1@PxContext_

; 307  :         h->sle_prev = prev;

  0019d	48 8b 44 24 20	 mov	 rax, QWORD PTR h$[rsp]
  001a2	48 8b 4c 24 68	 mov	 rcx, QWORD PTR prev$[rsp]
  001a7	48 89 08	 mov	 QWORD PTR [rax], rcx

; 308  :         h->sle_next = NULL;

  001aa	48 8b 44 24 20	 mov	 rax, QWORD PTR h$[rsp]
  001af	48 c7 40 08 00
	00 00 00	 mov	 QWORD PTR [rax+8], 0

; 309  :         prev->sle_next = h;

  001b7	48 8b 44 24 68	 mov	 rax, QWORD PTR prev$[rsp]
  001bc	48 8b 4c 24 20	 mov	 rcx, QWORD PTR h$[rsp]
  001c1	48 89 48 08	 mov	 QWORD PTR [rax+8], rcx
$LN1@PxContext_:

; 310  :     }
; 311  :     h->sle_next = NULL;

  001c5	48 8b 44 24 20	 mov	 rax, QWORD PTR h$[rsp]
  001ca	48 c7 40 08 00
	00 00 00	 mov	 QWORD PTR [rax+8], 0

; 312  : 
; 313  :     LeaveCriticalSection(&c->heap_cs);

  001d2	48 8b 44 24 60	 mov	 rax, QWORD PTR c$[rsp]
  001d7	48 05 c8 01 00
	00		 add	 rax, 456		; 000001c8H
  001dd	48 8b c8	 mov	 rcx, rax
  001e0	ff 15 00 00 00
	00		 call	 QWORD PTR __imp_LeaveCriticalSection

; 314  : 
; 315  :     return h;

  001e6	48 8b 44 24 20	 mov	 rax, QWORD PTR h$[rsp]

; 316  : }

  001eb	48 83 c4 58	 add	 rsp, 88			; 00000058H
  001ef	c3		 ret	 0
PxContext_HeapSnapshot ENDP
_TEXT	ENDS
PUBLIC	??_C@_1EM@CNLFGLPH@?$AAs?$AAi?$AAz?$AAe?$AA?5?$AA?$DO?$AA?5?$AA0?$AA?5?$AA?$CG?$AA?$CG?$AA?5?$AAs?$AAi?$AAz?$AAe?$AA?5?$AA?$DM?$AA?5?$AAP?$AAx?$AA_?$AAL?$AAA?$AAR?$AAG?$AAE?$AA_?$AAP?$AAA?$AAG?$AAE@ ; `string'
PUBLIC	??_C@_1CG@NKBCBHHD@?$AAh?$AA1?$AA?9?$AA?$DO?$AAc?$AAt?$AAx?$AA?5?$AA?$DN?$AA?$DN?$AA?5?$AAh?$AA2?$AA?9?$AA?$DO?$AAc?$AAt?$AAx?$AA?$AA@ ; `string'
PUBLIC	??_C@_1CG@FNIKEDBD@?$AAh?$AA1?$AA?9?$AA?$DO?$AAs?$AAl?$AAe?$AA_?$AAn?$AAe?$AAx?$AAt?$AA?5?$AA?$DN?$AA?$DN?$AA?5?$AAh?$AA2?$AA?$AA@ ; `string'
PUBLIC	??_C@_1CG@BCLABKOE@?$AAh?$AA2?$AA?9?$AA?$DO?$AAs?$AAl?$AAe?$AA_?$AAp?$AAr?$AAe?$AAv?$AA?5?$AA?$DN?$AA?$DN?$AA?5?$AAh?$AA1?$AA?$AA@ ; `string'
PUBLIC	??_C@_1BM@DIKHIDKA@?$AA?$CB?$AAh?$AA2?$AA?9?$AA?$DO?$AAs?$AAl?$AAe?$AA_?$AAn?$AAe?$AAx?$AAt?$AA?$AA@ ; `string'
PUBLIC	??_C@_15PALIODEB@?$AAh?$AA2?$AA?$AA@		; `string'
PUBLIC	??_C@_13COJANIEC@?$AA0?$AA?$AA@			; `string'
PUBLIC	??_C@_1BC@PCADLOGK@?$AAc?$AAt?$AAx?$AA?5?$AA?$DN?$AA?$DN?$AA?5?$AAc?$AA?$AA@ ; `string'
PUBLIC	??_C@_1BK@LNNNCCBB@?$AAh?$AA1?$AA?9?$AA?$DO?$AAc?$AAt?$AAx?$AA?5?$AA?$DN?$AA?$DN?$AA?5?$AAc?$AA?$AA@ ; `string'
PUBLIC	PxContext_RollbackHeap
EXTRN	memset:PROC
;	COMDAT pdata
pdata	SEGMENT
$pdata$PxContext_RollbackHeap DD imagerel $LN24
	DD	imagerel $LN24+1187
	DD	imagerel $unwind$PxContext_RollbackHeap
pdata	ENDS
;	COMDAT xdata
xdata	SEGMENT
$unwind$PxContext_RollbackHeap DD 021101H
	DD	0110111H
xdata	ENDS
;	COMDAT ??_C@_1EM@CNLFGLPH@?$AAs?$AAi?$AAz?$AAe?$AA?5?$AA?$DO?$AA?5?$AA0?$AA?5?$AA?$CG?$AA?$CG?$AA?5?$AAs?$AAi?$AAz?$AAe?$AA?5?$AA?$DM?$AA?5?$AAP?$AAx?$AA_?$AAL?$AAA?$AAR?$AAG?$AAE?$AA_?$AAP?$AAA?$AAG?$AAE@
CONST	SEGMENT
??_C@_1EM@CNLFGLPH@?$AAs?$AAi?$AAz?$AAe?$AA?5?$AA?$DO?$AA?5?$AA0?$AA?5?$AA?$CG?$AA?$CG?$AA?5?$AAs?$AAi?$AAz?$AAe?$AA?5?$AA?$DM?$AA?5?$AAP?$AAx?$AA_?$AAL?$AAA?$AAR?$AAG?$AAE?$AA_?$AAP?$AAA?$AAG?$AAE@ DB 's'
	DB	00H, 'i', 00H, 'z', 00H, 'e', 00H, ' ', 00H, '>', 00H, ' ', 00H
	DB	'0', 00H, ' ', 00H, '&', 00H, '&', 00H, ' ', 00H, 's', 00H, 'i'
	DB	00H, 'z', 00H, 'e', 00H, ' ', 00H, '<', 00H, ' ', 00H, 'P', 00H
	DB	'x', 00H, '_', 00H, 'L', 00H, 'A', 00H, 'R', 00H, 'G', 00H, 'E'
	DB	00H, '_', 00H, 'P', 00H, 'A', 00H, 'G', 00H, 'E', 00H, '_', 00H
	DB	'S', 00H, 'I', 00H, 'Z', 00H, 'E', 00H, 00H, 00H ; `string'
CONST	ENDS
;	COMDAT ??_C@_1CG@NKBCBHHD@?$AAh?$AA1?$AA?9?$AA?$DO?$AAc?$AAt?$AAx?$AA?5?$AA?$DN?$AA?$DN?$AA?5?$AAh?$AA2?$AA?9?$AA?$DO?$AAc?$AAt?$AAx?$AA?$AA@
CONST	SEGMENT
??_C@_1CG@NKBCBHHD@?$AAh?$AA1?$AA?9?$AA?$DO?$AAc?$AAt?$AAx?$AA?5?$AA?$DN?$AA?$DN?$AA?5?$AAh?$AA2?$AA?9?$AA?$DO?$AAc?$AAt?$AAx?$AA?$AA@ DB 'h'
	DB	00H, '1', 00H, '-', 00H, '>', 00H, 'c', 00H, 't', 00H, 'x', 00H
	DB	' ', 00H, '=', 00H, '=', 00H, ' ', 00H, 'h', 00H, '2', 00H, '-'
	DB	00H, '>', 00H, 'c', 00H, 't', 00H, 'x', 00H, 00H, 00H ; `string'
CONST	ENDS
;	COMDAT ??_C@_1CG@FNIKEDBD@?$AAh?$AA1?$AA?9?$AA?$DO?$AAs?$AAl?$AAe?$AA_?$AAn?$AAe?$AAx?$AAt?$AA?5?$AA?$DN?$AA?$DN?$AA?5?$AAh?$AA2?$AA?$AA@
CONST	SEGMENT
??_C@_1CG@FNIKEDBD@?$AAh?$AA1?$AA?9?$AA?$DO?$AAs?$AAl?$AAe?$AA_?$AAn?$AAe?$AAx?$AAt?$AA?5?$AA?$DN?$AA?$DN?$AA?5?$AAh?$AA2?$AA?$AA@ DB 'h'
	DB	00H, '1', 00H, '-', 00H, '>', 00H, 's', 00H, 'l', 00H, 'e', 00H
	DB	'_', 00H, 'n', 00H, 'e', 00H, 'x', 00H, 't', 00H, ' ', 00H, '='
	DB	00H, '=', 00H, ' ', 00H, 'h', 00H, '2', 00H, 00H, 00H ; `string'
CONST	ENDS
;	COMDAT ??_C@_1CG@BCLABKOE@?$AAh?$AA2?$AA?9?$AA?$DO?$AAs?$AAl?$AAe?$AA_?$AAp?$AAr?$AAe?$AAv?$AA?5?$AA?$DN?$AA?$DN?$AA?5?$AAh?$AA1?$AA?$AA@
CONST	SEGMENT
??_C@_1CG@BCLABKOE@?$AAh?$AA2?$AA?9?$AA?$DO?$AAs?$AAl?$AAe?$AA_?$AAp?$AAr?$AAe?$AAv?$AA?5?$AA?$DN?$AA?$DN?$AA?5?$AAh?$AA1?$AA?$AA@ DB 'h'
	DB	00H, '2', 00H, '-', 00H, '>', 00H, 's', 00H, 'l', 00H, 'e', 00H
	DB	'_', 00H, 'p', 00H, 'r', 00H, 'e', 00H, 'v', 00H, ' ', 00H, '='
	DB	00H, '=', 00H, ' ', 00H, 'h', 00H, '1', 00H, 00H, 00H ; `string'
CONST	ENDS
;	COMDAT ??_C@_1BM@DIKHIDKA@?$AA?$CB?$AAh?$AA2?$AA?9?$AA?$DO?$AAs?$AAl?$AAe?$AA_?$AAn?$AAe?$AAx?$AAt?$AA?$AA@
CONST	SEGMENT
??_C@_1BM@DIKHIDKA@?$AA?$CB?$AAh?$AA2?$AA?9?$AA?$DO?$AAs?$AAl?$AAe?$AA_?$AAn?$AAe?$AAx?$AAt?$AA?$AA@ DB '!'
	DB	00H, 'h', 00H, '2', 00H, '-', 00H, '>', 00H, 's', 00H, 'l', 00H
	DB	'e', 00H, '_', 00H, 'n', 00H, 'e', 00H, 'x', 00H, 't', 00H, 00H
	DB	00H						; `string'
CONST	ENDS
;	COMDAT ??_C@_15PALIODEB@?$AAh?$AA2?$AA?$AA@
CONST	SEGMENT
??_C@_15PALIODEB@?$AAh?$AA2?$AA?$AA@ DB 'h', 00H, '2', 00H, 00H, 00H ; `string'
CONST	ENDS
;	COMDAT ??_C@_13COJANIEC@?$AA0?$AA?$AA@
CONST	SEGMENT
??_C@_13COJANIEC@?$AA0?$AA?$AA@ DB '0', 00H, 00H, 00H	; `string'
CONST	ENDS
;	COMDAT ??_C@_1BC@PCADLOGK@?$AAc?$AAt?$AAx?$AA?5?$AA?$DN?$AA?$DN?$AA?5?$AAc?$AA?$AA@
CONST	SEGMENT
??_C@_1BC@PCADLOGK@?$AAc?$AAt?$AAx?$AA?5?$AA?$DN?$AA?$DN?$AA?5?$AAc?$AA?$AA@ DB 'c'
	DB	00H, 't', 00H, 'x', 00H, ' ', 00H, '=', 00H, '=', 00H, ' ', 00H
	DB	'c', 00H, 00H, 00H				; `string'
CONST	ENDS
;	COMDAT ??_C@_1BK@LNNNCCBB@?$AAh?$AA1?$AA?9?$AA?$DO?$AAc?$AAt?$AAx?$AA?5?$AA?$DN?$AA?$DN?$AA?5?$AAc?$AA?$AA@
CONST	SEGMENT
??_C@_1BK@LNNNCCBB@?$AAh?$AA1?$AA?9?$AA?$DO?$AAc?$AAt?$AAx?$AA?5?$AA?$DN?$AA?$DN?$AA?5?$AAc?$AA?$AA@ DB 'h'
	DB	00H, '1', 00H, '-', 00H, '>', 00H, 'c', 00H, 't', 00H, 'x', 00H
	DB	' ', 00H, '=', 00H, '=', 00H, ' ', 00H, 'c', 00H, 00H, 00H ; `string'
; Function compile flags: /Odtp
CONST	ENDS
;	COMDAT PxContext_RollbackHeap
_TEXT	SEGMENT
hstart$ = 32
h2$ = 40
h1$ = 48
tstart$ = 56
size$ = 64
next$ = 72
bitmap$ = 80
i$125748 = 88
tv196 = 96
tv314 = 104
tv318 = 112
c$ = 144
snapshot$ = 152
PxContext_RollbackHeap PROC				; COMDAT

; 320  : {

$LN24:
  00000	48 89 54 24 10	 mov	 QWORD PTR [rsp+16], rdx
  00005	48 89 4c 24 08	 mov	 QWORD PTR [rsp+8], rcx
  0000a	48 81 ec 88 00
	00 00		 sub	 rsp, 136		; 00000088H

; 321  :     Heap *h1, *h2;
; 322  :     void *tstart, *hstart, *next;
; 323  :     Px_UINTPTR bitmap = 0;

  00011	48 c7 44 24 50
	00 00 00 00	 mov	 QWORD PTR bitmap$[rsp], 0

; 324  :     size_t size;
; 325  : 
; 326  :     h1 = *snapshot;

  0001a	48 8b 84 24 98
	00 00 00	 mov	 rax, QWORD PTR snapshot$[rsp]
  00022	48 8b 00	 mov	 rax, QWORD PTR [rax]
  00025	48 89 44 24 30	 mov	 QWORD PTR h1$[rsp], rax

; 327  :     assert(h1->ctx == c);

  0002a	48 8b 44 24 30	 mov	 rax, QWORD PTR h1$[rsp]
  0002f	48 8b 8c 24 90
	00 00 00	 mov	 rcx, QWORD PTR c$[rsp]
  00037	48 39 48 58	 cmp	 QWORD PTR [rax+88], rcx
  0003b	74 1c		 je	 SHORT $LN11@PxContext_@2
  0003d	41 b8 47 01 00
	00		 mov	 r8d, 327		; 00000147H
  00043	48 8d 15 00 00
	00 00		 lea	 rdx, OFFSET FLAT:??_C@_1CO@DPMFPEGF@?$AA?4?$AA?4?$AA?2?$AAP?$AAy?$AAt?$AAh?$AAo?$AAn?$AA?2?$AAp?$AAy?$AAp?$AAa?$AAr?$AAa?$AAl?$AAl?$AAe?$AAl?$AA?4?$AAc?$AA?$AA@
  0004a	48 8d 0d 00 00
	00 00		 lea	 rcx, OFFSET FLAT:??_C@_1BK@LNNNCCBB@?$AAh?$AA1?$AA?9?$AA?$DO?$AAc?$AAt?$AAx?$AA?5?$AA?$DN?$AA?$DN?$AA?5?$AAc?$AA?$AA@
  00051	ff 15 00 00 00
	00		 call	 QWORD PTR __imp__wassert
  00057	33 c0		 xor	 eax, eax
$LN11@PxContext_@2:

; 328  :     assert(ctx == c);

  00059	b8 00 00 00 00	 mov	 eax, OFFSET FLAT:ctx
  0005e	8b c0		 mov	 eax, eax
  00060	8b 0d 00 00 00
	00		 mov	 ecx, DWORD PTR _tls_index
  00066	65 48 8b 14 25
	58 00 00 00	 mov	 rdx, QWORD PTR gs:88
  0006f	48 8b 0c ca	 mov	 rcx, QWORD PTR [rdx+rcx*8]
  00073	48 8b 94 24 90
	00 00 00	 mov	 rdx, QWORD PTR c$[rsp]
  0007b	48 39 14 08	 cmp	 QWORD PTR [rax+rcx], rdx
  0007f	74 1c		 je	 SHORT $LN12@PxContext_@2
  00081	41 b8 48 01 00
	00		 mov	 r8d, 328		; 00000148H
  00087	48 8d 15 00 00
	00 00		 lea	 rdx, OFFSET FLAT:??_C@_1CO@DPMFPEGF@?$AA?4?$AA?4?$AA?2?$AAP?$AAy?$AAt?$AAh?$AAo?$AAn?$AA?2?$AAp?$AAy?$AAp?$AAa?$AAr?$AAa?$AAl?$AAl?$AAe?$AAl?$AA?4?$AAc?$AA?$AA@
  0008e	48 8d 0d 00 00
	00 00		 lea	 rcx, OFFSET FLAT:??_C@_1BC@PCADLOGK@?$AAc?$AAt?$AAx?$AA?5?$AA?$DN?$AA?$DN?$AA?5?$AAc?$AA?$AA@
  00095	ff 15 00 00 00
	00		 call	 QWORD PTR __imp__wassert
  0009b	33 c0		 xor	 eax, eax
$LN12@PxContext_@2:

; 329  : 
; 330  :     EnterCriticalSection(&c->heap_cs);

  0009d	48 8b 84 24 90
	00 00 00	 mov	 rax, QWORD PTR c$[rsp]
  000a5	48 05 c8 01 00
	00		 add	 rax, 456		; 000001c8H
  000ab	48 8b c8	 mov	 rcx, rax
  000ae	ff 15 00 00 00
	00		 call	 QWORD PTR __imp_EnterCriticalSection

; 331  :     EnterCriticalSection(&c->snapshots_cs);

  000b4	48 8b 84 24 90
	00 00 00	 mov	 rax, QWORD PTR c$[rsp]
  000bc	48 05 f8 01 00
	00		 add	 rax, 504		; 000001f8H
  000c2	48 8b c8	 mov	 rcx, rax
  000c5	ff 15 00 00 00
	00		 call	 QWORD PTR __imp_EnterCriticalSection

; 332  : 
; 333  :     h2 = h1->sle_next;

  000cb	48 8b 44 24 30	 mov	 rax, QWORD PTR h1$[rsp]
  000d0	48 8b 40 08	 mov	 rax, QWORD PTR [rax+8]
  000d4	48 89 44 24 28	 mov	 QWORD PTR h2$[rsp], rax

; 334  : 
; 335  :     if (!h2) {

  000d9	48 83 7c 24 28
	00		 cmp	 QWORD PTR h2$[rsp], 0
  000df	0f 85 85 00 00
	00		 jne	 $LN8@PxContext_@2

; 336  :         unsigned long i = 0;

  000e5	c7 44 24 58 00
	00 00 00	 mov	 DWORD PTR i$125748[rsp], 0

; 337  :         bitmap = Px_PTR(c->snapshots_bitmap);

  000ed	48 8b 84 24 90
	00 00 00	 mov	 rax, QWORD PTR c$[rsp]
  000f5	48 8b 80 20 02
	00 00		 mov	 rax, QWORD PTR [rax+544]
  000fc	48 89 44 24 50	 mov	 QWORD PTR bitmap$[rsp], rax

; 338  :         if (_tls_bitscan_fwd(&i, bitmap))

  00101	48 8b 44 24 50	 mov	 rax, QWORD PTR bitmap$[rsp]
  00106	48 0f bc c0	 bsf	 rax, rax
  0010a	89 44 24 58	 mov	 DWORD PTR i$125748[rsp], eax
  0010e	0f 95 c0	 setne	 al
  00111	0f b6 c0	 movzx	 eax, al
  00114	85 c0		 test	 eax, eax
  00116	74 19		 je	 SHORT $LN7@PxContext_@2

; 339  :             if (i == h1->bitmap_index+1)

  00118	48 8b 44 24 30	 mov	 rax, QWORD PTR h1$[rsp]
  0011d	0f be 80 b0 00
	00 00		 movsx	 eax, BYTE PTR [rax+176]
  00124	ff c0		 inc	 eax
  00126	39 44 24 58	 cmp	 DWORD PTR i$125748[rsp], eax
  0012a	75 05		 jne	 SHORT $LN6@PxContext_@2

; 340  :                 goto rollback;

  0012c	e9 bc 01 00 00	 jmp	 $rollback$125752
$LN6@PxContext_@2:
$LN7@PxContext_@2:

; 341  : 
; 342  :         assert(0);

  00131	33 c0		 xor	 eax, eax
  00133	85 c0		 test	 eax, eax
  00135	75 1c		 jne	 SHORT $LN13@PxContext_@2
  00137	41 b8 56 01 00
	00		 mov	 r8d, 342		; 00000156H
  0013d	48 8d 15 00 00
	00 00		 lea	 rdx, OFFSET FLAT:??_C@_1CO@DPMFPEGF@?$AA?4?$AA?4?$AA?2?$AAP?$AAy?$AAt?$AAh?$AAo?$AAn?$AA?2?$AAp?$AAy?$AAp?$AAa?$AAr?$AAa?$AAl?$AAl?$AAe?$AAl?$AA?4?$AAc?$AA?$AA@
  00144	48 8d 0d 00 00
	00 00		 lea	 rcx, OFFSET FLAT:??_C@_13COJANIEC@?$AA0?$AA?$AA@
  0014b	ff 15 00 00 00
	00		 call	 QWORD PTR __imp__wassert
  00151	33 c0		 xor	 eax, eax
$LN13@PxContext_@2:

; 343  :         h2 = PxContext_HeapSnapshot(c, h1);

  00153	48 8b 54 24 30	 mov	 rdx, QWORD PTR h1$[rsp]
  00158	48 8b 8c 24 90
	00 00 00	 mov	 rcx, QWORD PTR c$[rsp]
  00160	e8 00 00 00 00	 call	 PxContext_HeapSnapshot
  00165	48 89 44 24 28	 mov	 QWORD PTR h2$[rsp], rax
$LN8@PxContext_@2:

; 344  :     }
; 345  : 
; 346  :     assert(h2);

  0016a	48 83 7c 24 28
	00		 cmp	 QWORD PTR h2$[rsp], 0
  00170	75 1c		 jne	 SHORT $LN14@PxContext_@2
  00172	41 b8 5a 01 00
	00		 mov	 r8d, 346		; 0000015aH
  00178	48 8d 15 00 00
	00 00		 lea	 rdx, OFFSET FLAT:??_C@_1CO@DPMFPEGF@?$AA?4?$AA?4?$AA?2?$AAP?$AAy?$AAt?$AAh?$AAo?$AAn?$AA?2?$AAp?$AAy?$AAp?$AAa?$AAr?$AAa?$AAl?$AAl?$AAe?$AAl?$AA?4?$AAc?$AA?$AA@
  0017f	48 8d 0d 00 00
	00 00		 lea	 rcx, OFFSET FLAT:??_C@_15PALIODEB@?$AAh?$AA2?$AA?$AA@
  00186	ff 15 00 00 00
	00		 call	 QWORD PTR __imp__wassert
  0018c	33 c0		 xor	 eax, eax
$LN14@PxContext_@2:

; 347  :     assert(!h2->sle_next);

  0018e	48 8b 44 24 28	 mov	 rax, QWORD PTR h2$[rsp]
  00193	48 83 78 08 00	 cmp	 QWORD PTR [rax+8], 0
  00198	74 1c		 je	 SHORT $LN15@PxContext_@2
  0019a	41 b8 5b 01 00
	00		 mov	 r8d, 347		; 0000015bH
  001a0	48 8d 15 00 00
	00 00		 lea	 rdx, OFFSET FLAT:??_C@_1CO@DPMFPEGF@?$AA?4?$AA?4?$AA?2?$AAP?$AAy?$AAt?$AAh?$AAo?$AAn?$AA?2?$AAp?$AAy?$AAp?$AAa?$AAr?$AAa?$AAl?$AAl?$AAe?$AAl?$AA?4?$AAc?$AA?$AA@
  001a7	48 8d 0d 00 00
	00 00		 lea	 rcx, OFFSET FLAT:??_C@_1BM@DIKHIDKA@?$AA?$CB?$AAh?$AA2?$AA?9?$AA?$DO?$AAs?$AAl?$AAe?$AA_?$AAn?$AAe?$AAx?$AAt?$AA?$AA@
  001ae	ff 15 00 00 00
	00		 call	 QWORD PTR __imp__wassert
  001b4	33 c0		 xor	 eax, eax
$LN15@PxContext_@2:

; 348  :     assert(h2->sle_prev == h1);

  001b6	48 8b 44 24 28	 mov	 rax, QWORD PTR h2$[rsp]
  001bb	48 8b 4c 24 30	 mov	 rcx, QWORD PTR h1$[rsp]
  001c0	48 39 08	 cmp	 QWORD PTR [rax], rcx
  001c3	74 1c		 je	 SHORT $LN16@PxContext_@2
  001c5	41 b8 5c 01 00
	00		 mov	 r8d, 348		; 0000015cH
  001cb	48 8d 15 00 00
	00 00		 lea	 rdx, OFFSET FLAT:??_C@_1CO@DPMFPEGF@?$AA?4?$AA?4?$AA?2?$AAP?$AAy?$AAt?$AAh?$AAo?$AAn?$AA?2?$AAp?$AAy?$AAp?$AAa?$AAr?$AAa?$AAl?$AAl?$AAe?$AAl?$AA?4?$AAc?$AA?$AA@
  001d2	48 8d 0d 00 00
	00 00		 lea	 rcx, OFFSET FLAT:??_C@_1CG@BCLABKOE@?$AAh?$AA2?$AA?9?$AA?$DO?$AAs?$AAl?$AAe?$AA_?$AAp?$AAr?$AAe?$AAv?$AA?5?$AA?$DN?$AA?$DN?$AA?5?$AAh?$AA1?$AA?$AA@
  001d9	ff 15 00 00 00
	00		 call	 QWORD PTR __imp__wassert
  001df	33 c0		 xor	 eax, eax
$LN16@PxContext_@2:

; 349  :     assert(h1->sle_next == h2);

  001e1	48 8b 44 24 30	 mov	 rax, QWORD PTR h1$[rsp]
  001e6	48 8b 4c 24 28	 mov	 rcx, QWORD PTR h2$[rsp]
  001eb	48 39 48 08	 cmp	 QWORD PTR [rax+8], rcx
  001ef	74 1c		 je	 SHORT $LN17@PxContext_@2
  001f1	41 b8 5d 01 00
	00		 mov	 r8d, 349		; 0000015dH
  001f7	48 8d 15 00 00
	00 00		 lea	 rdx, OFFSET FLAT:??_C@_1CO@DPMFPEGF@?$AA?4?$AA?4?$AA?2?$AAP?$AAy?$AAt?$AAh?$AAo?$AAn?$AA?2?$AAp?$AAy?$AAp?$AAa?$AAr?$AAa?$AAl?$AAl?$AAe?$AAl?$AA?4?$AAc?$AA?$AA@
  001fe	48 8d 0d 00 00
	00 00		 lea	 rcx, OFFSET FLAT:??_C@_1CG@FNIKEDBD@?$AAh?$AA1?$AA?9?$AA?$DO?$AAs?$AAl?$AAe?$AA_?$AAn?$AAe?$AAx?$AAt?$AA?5?$AA?$DN?$AA?$DN?$AA?5?$AAh?$AA2?$AA?$AA@
  00205	ff 15 00 00 00
	00		 call	 QWORD PTR __imp__wassert
  0020b	33 c0		 xor	 eax, eax
$LN17@PxContext_@2:

; 350  : 
; 351  :     assert(h1->ctx == h2->ctx);

  0020d	48 8b 44 24 30	 mov	 rax, QWORD PTR h1$[rsp]
  00212	48 8b 4c 24 28	 mov	 rcx, QWORD PTR h2$[rsp]
  00217	48 8b 49 58	 mov	 rcx, QWORD PTR [rcx+88]
  0021b	48 39 48 58	 cmp	 QWORD PTR [rax+88], rcx
  0021f	74 1c		 je	 SHORT $LN18@PxContext_@2
  00221	41 b8 5f 01 00
	00		 mov	 r8d, 351		; 0000015fH
  00227	48 8d 15 00 00
	00 00		 lea	 rdx, OFFSET FLAT:??_C@_1CO@DPMFPEGF@?$AA?4?$AA?4?$AA?2?$AAP?$AAy?$AAt?$AAh?$AAo?$AAn?$AA?2?$AAp?$AAy?$AAp?$AAa?$AAr?$AAa?$AAl?$AAl?$AAe?$AAl?$AA?4?$AAc?$AA?$AA@
  0022e	48 8d 0d 00 00
	00 00		 lea	 rcx, OFFSET FLAT:??_C@_1CG@NKBCBHHD@?$AAh?$AA1?$AA?9?$AA?$DO?$AAc?$AAt?$AAx?$AA?5?$AA?$DN?$AA?$DN?$AA?5?$AAh?$AA2?$AA?9?$AA?$DO?$AAc?$AAt?$AAx?$AA?$AA@
  00235	ff 15 00 00 00
	00		 call	 QWORD PTR __imp__wassert
  0023b	33 c0		 xor	 eax, eax
$LN18@PxContext_@2:

; 352  : 
; 353  :     if (h1->snapshot_id == h2->snapshot_id-1)

  0023d	48 8b 44 24 28	 mov	 rax, QWORD PTR h2$[rsp]
  00242	48 8b 80 a8 00
	00 00		 mov	 rax, QWORD PTR [rax+168]
  00249	48 ff c8	 dec	 rax
  0024c	48 8b 4c 24 30	 mov	 rcx, QWORD PTR h1$[rsp]
  00251	48 39 81 a8 00
	00 00		 cmp	 QWORD PTR [rcx+168], rax
  00258	75 05		 jne	 SHORT $LN5@PxContext_@2

; 354  :         goto rollback;

  0025a	e9 8e 00 00 00	 jmp	 $rollback$125752
$LN5@PxContext_@2:

; 355  : 
; 356  :     if (_tls_popcnt(c->snapshots_bitmap) == 2)

  0025f	48 8b 84 24 90
	00 00 00	 mov	 rax, QWORD PTR c$[rsp]
  00267	f3 48 0f b8 80
	20 02 00 00	 popcnt	 rax, QWORD PTR [rax+544]
  00270	48 83 f8 02	 cmp	 rax, 2
  00274	75 02		 jne	 SHORT $LN4@PxContext_@2

; 357  :         goto rollback;

  00276	eb 75		 jmp	 SHORT $rollback$125752
$LN4@PxContext_@2:

; 358  : 
; 359  :     if (h1->id == h2->id && h1->id == c->h->id) {

  00278	48 8b 44 24 30	 mov	 rax, QWORD PTR h1$[rsp]
  0027d	48 8b 4c 24 28	 mov	 rcx, QWORD PTR h2$[rsp]
  00282	8b 49 50	 mov	 ecx, DWORD PTR [rcx+80]
  00285	39 48 50	 cmp	 DWORD PTR [rax+80], ecx
  00288	75 3c		 jne	 SHORT $LN3@PxContext_@2
  0028a	48 8b 84 24 90
	00 00 00	 mov	 rax, QWORD PTR c$[rsp]
  00292	48 8b 80 d0 00
	00 00		 mov	 rax, QWORD PTR [rax+208]
  00299	48 8b 4c 24 30	 mov	 rcx, QWORD PTR h1$[rsp]
  0029e	8b 40 50	 mov	 eax, DWORD PTR [rax+80]
  002a1	39 41 50	 cmp	 DWORD PTR [rcx+80], eax
  002a4	75 20		 jne	 SHORT $LN3@PxContext_@2

; 360  :         if (h2->allocated == c->h->allocated)

  002a6	48 8b 84 24 90
	00 00 00	 mov	 rax, QWORD PTR c$[rsp]
  002ae	48 8b 80 d0 00
	00 00		 mov	 rax, QWORD PTR [rax+208]
  002b5	48 8b 4c 24 28	 mov	 rcx, QWORD PTR h2$[rsp]
  002ba	48 8b 40 40	 mov	 rax, QWORD PTR [rax+64]
  002be	48 39 41 40	 cmp	 QWORD PTR [rcx+64], rax
  002c2	75 02		 jne	 SHORT $LN2@PxContext_@2

; 361  :             goto rollback;

  002c4	eb 27		 jmp	 SHORT $rollback$125752
$LN2@PxContext_@2:
$LN3@PxContext_@2:

; 362  :     }
; 363  : 
; 364  :     /* xxx todo */
; 365  :     assert(0);

  002c6	33 c0		 xor	 eax, eax
  002c8	85 c0		 test	 eax, eax
  002ca	75 1c		 jne	 SHORT $LN19@PxContext_@2
  002cc	41 b8 6d 01 00
	00		 mov	 r8d, 365		; 0000016dH
  002d2	48 8d 15 00 00
	00 00		 lea	 rdx, OFFSET FLAT:??_C@_1CO@DPMFPEGF@?$AA?4?$AA?4?$AA?2?$AAP?$AAy?$AAt?$AAh?$AAo?$AAn?$AA?2?$AAp?$AAy?$AAp?$AAa?$AAr?$AAa?$AAl?$AAl?$AAe?$AAl?$AA?4?$AAc?$AA?$AA@
  002d9	48 8d 0d 00 00
	00 00		 lea	 rcx, OFFSET FLAT:??_C@_13COJANIEC@?$AA0?$AA?$AA@
  002e0	ff 15 00 00 00
	00		 call	 QWORD PTR __imp__wassert
  002e6	33 c0		 xor	 eax, eax
$LN19@PxContext_@2:

; 366  :     return;

  002e8	e9 ae 01 00 00	 jmp	 $LN9@PxContext_@2
$rollback$125752:

; 367  : 
; 368  : rollback:
; 369  :     /* xxx todo: HeapFree() extra heaps if h1 != h2. */
; 370  : 
; 371  :     next = (h2 ? h2->next : c->h->next);

  002ed	48 83 7c 24 28
	00		 cmp	 QWORD PTR h2$[rsp], 0
  002f3	74 10		 je	 SHORT $LN20@PxContext_@2
  002f5	48 8b 44 24 28	 mov	 rax, QWORD PTR h2$[rsp]
  002fa	48 8b 40 18	 mov	 rax, QWORD PTR [rax+24]
  002fe	48 89 44 24 60	 mov	 QWORD PTR tv196[rsp], rax
  00303	eb 18		 jmp	 SHORT $LN21@PxContext_@2
$LN20@PxContext_@2:
  00305	48 8b 84 24 90
	00 00 00	 mov	 rax, QWORD PTR c$[rsp]
  0030d	48 8b 80 d0 00
	00 00		 mov	 rax, QWORD PTR [rax+208]
  00314	48 8b 40 18	 mov	 rax, QWORD PTR [rax+24]
  00318	48 89 44 24 60	 mov	 QWORD PTR tv196[rsp], rax
$LN21@PxContext_@2:
  0031d	48 8b 44 24 60	 mov	 rax, QWORD PTR tv196[rsp]
  00322	48 89 44 24 48	 mov	 QWORD PTR next$[rsp], rax

; 372  :     size = _Py_PTR(next) - _Py_PTR(h1->next);

  00327	48 8b 44 24 30	 mov	 rax, QWORD PTR h1$[rsp]
  0032c	48 8b 40 18	 mov	 rax, QWORD PTR [rax+24]
  00330	48 8b 4c 24 48	 mov	 rcx, QWORD PTR next$[rsp]
  00335	48 2b c8	 sub	 rcx, rax
  00338	48 8b c1	 mov	 rax, rcx
  0033b	48 89 44 24 40	 mov	 QWORD PTR size$[rsp], rax

; 373  :     assert(size > 0 && size < Px_LARGE_PAGE_SIZE);

  00340	48 83 7c 24 40
	00		 cmp	 QWORD PTR size$[rsp], 0
  00346	76 0b		 jbe	 SHORT $LN22@PxContext_@2
  00348	48 81 7c 24 40
	00 00 20 00	 cmp	 QWORD PTR size$[rsp], 2097152 ; 00200000H
  00351	72 1c		 jb	 SHORT $LN23@PxContext_@2
$LN22@PxContext_@2:
  00353	41 b8 75 01 00
	00		 mov	 r8d, 373		; 00000175H
  00359	48 8d 15 00 00
	00 00		 lea	 rdx, OFFSET FLAT:??_C@_1CO@DPMFPEGF@?$AA?4?$AA?4?$AA?2?$AAP?$AAy?$AAt?$AAh?$AAo?$AAn?$AA?2?$AAp?$AAy?$AAp?$AAa?$AAr?$AAa?$AAl?$AAl?$AAe?$AAl?$AA?4?$AAc?$AA?$AA@
  00360	48 8d 0d 00 00
	00 00		 lea	 rcx, OFFSET FLAT:??_C@_1EM@CNLFGLPH@?$AAs?$AAi?$AAz?$AAe?$AA?5?$AA?$DO?$AA?5?$AA0?$AA?5?$AA?$CG?$AA?$CG?$AA?5?$AAs?$AAi?$AAz?$AAe?$AA?5?$AA?$DM?$AA?5?$AAP?$AAx?$AA_?$AAL?$AAA?$AAR?$AAG?$AAE?$AA_?$AAP?$AAA?$AAG?$AAE@
  00367	ff 15 00 00 00
	00		 call	 QWORD PTR __imp__wassert
  0036d	33 c0		 xor	 eax, eax
$LN23@PxContext_@2:

; 374  :     memset(h1->next, 0, size);

  0036f	4c 8b 44 24 40	 mov	 r8, QWORD PTR size$[rsp]
  00374	33 d2		 xor	 edx, edx
  00376	48 8b 44 24 30	 mov	 rax, QWORD PTR h1$[rsp]
  0037b	48 8b 48 18	 mov	 rcx, QWORD PTR [rax+24]
  0037f	e8 00 00 00 00	 call	 memset

; 375  : 
; 376  :     /* skip sle_prev and sle_next */
; 377  :     tstart = _Py_CAST_FWD(c->h, void *, Heap, base);

  00384	48 8b 84 24 90
	00 00 00	 mov	 rax, QWORD PTR c$[rsp]
  0038c	48 8b 80 d0 00
	00 00		 mov	 rax, QWORD PTR [rax+208]
  00393	48 83 c0 10	 add	 rax, 16
  00397	48 89 44 24 38	 mov	 QWORD PTR tstart$[rsp], rax

; 378  :     hstart = _Py_CAST_FWD(h1,   void *, Heap, base);

  0039c	48 8b 44 24 30	 mov	 rax, QWORD PTR h1$[rsp]
  003a1	48 83 c0 10	 add	 rax, 16
  003a5	48 89 44 24 20	 mov	 QWORD PTR hstart$[rsp], rax

; 379  :     size = PxHeap_SNAPSHOT_COPY_SIZE - _Py_PTR_SUB(tstart, c->h);

  003aa	48 8b 84 24 90
	00 00 00	 mov	 rax, QWORD PTR c$[rsp]
  003b2	48 8b 80 d0 00
	00 00		 mov	 rax, QWORD PTR [rax+208]
  003b9	48 8b 4c 24 38	 mov	 rcx, QWORD PTR tstart$[rsp]
  003be	48 2b c8	 sub	 rcx, rax
  003c1	48 8b c1	 mov	 rax, rcx
  003c4	b9 a8 00 00 00	 mov	 ecx, 168		; 000000a8H
  003c9	48 2b c8	 sub	 rcx, rax
  003cc	48 8b c1	 mov	 rax, rcx
  003cf	48 89 44 24 40	 mov	 QWORD PTR size$[rsp], rax

; 380  :     memcpy(tstart, hstart, size);

  003d4	4c 8b 44 24 40	 mov	 r8, QWORD PTR size$[rsp]
  003d9	48 8b 54 24 20	 mov	 rdx, QWORD PTR hstart$[rsp]
  003de	48 8b 4c 24 38	 mov	 rcx, QWORD PTR tstart$[rsp]
  003e3	e8 00 00 00 00	 call	 memcpy

; 381  : 
; 382  :     bitmap = (Px_UINTPTR_1 << h1->bitmap_index);

  003e8	48 8b 44 24 30	 mov	 rax, QWORD PTR h1$[rsp]
  003ed	0f be 80 b0 00
	00 00		 movsx	 eax, BYTE PTR [rax+176]
  003f4	b9 01 00 00 00	 mov	 ecx, 1
  003f9	48 89 4c 24 68	 mov	 QWORD PTR tv314[rsp], rcx
  003fe	0f b6 c8	 movzx	 ecx, al
  00401	48 8b 44 24 68	 mov	 rax, QWORD PTR tv314[rsp]
  00406	48 d3 e0	 shl	 rax, cl
  00409	48 89 44 24 50	 mov	 QWORD PTR bitmap$[rsp], rax

; 383  :     if (h2)

  0040e	48 83 7c 24 28
	00		 cmp	 QWORD PTR h2$[rsp], 0
  00414	74 31		 je	 SHORT $LN1@PxContext_@2

; 384  :         bitmap |= (Px_UINTPTR_1 << h2->bitmap_index);

  00416	48 8b 44 24 28	 mov	 rax, QWORD PTR h2$[rsp]
  0041b	0f be 80 b0 00
	00 00		 movsx	 eax, BYTE PTR [rax+176]
  00422	b9 01 00 00 00	 mov	 ecx, 1
  00427	48 89 4c 24 70	 mov	 QWORD PTR tv318[rsp], rcx
  0042c	0f b6 c8	 movzx	 ecx, al
  0042f	48 8b 44 24 70	 mov	 rax, QWORD PTR tv318[rsp]
  00434	48 d3 e0	 shl	 rax, cl
  00437	48 8b 4c 24 50	 mov	 rcx, QWORD PTR bitmap$[rsp]
  0043c	48 0b c8	 or	 rcx, rax
  0043f	48 8b c1	 mov	 rax, rcx
  00442	48 89 44 24 50	 mov	 QWORD PTR bitmap$[rsp], rax
$LN1@PxContext_@2:

; 385  : 
; 386  :     _tls_interlocked_or(&c->snapshots_bitmap, bitmap);

  00447	48 8b 84 24 90
	00 00 00	 mov	 rax, QWORD PTR c$[rsp]
  0044f	48 05 20 02 00
	00		 add	 rax, 544		; 00000220H
  00455	48 8b 4c 24 50	 mov	 rcx, QWORD PTR bitmap$[rsp]
  0045a	f0 48 09 08	 lock or QWORD PTR [rax], rcx

; 387  : 
; 388  :     *snapshot = NULL;

  0045e	48 8b 84 24 98
	00 00 00	 mov	 rax, QWORD PTR snapshot$[rsp]
  00466	48 c7 00 00 00
	00 00		 mov	 QWORD PTR [rax], 0

; 389  : 
; 390  :     LeaveCriticalSection(&c->snapshots_cs);

  0046d	48 8b 84 24 90
	00 00 00	 mov	 rax, QWORD PTR c$[rsp]
  00475	48 05 f8 01 00
	00		 add	 rax, 504		; 000001f8H
  0047b	48 8b c8	 mov	 rcx, rax
  0047e	ff 15 00 00 00
	00		 call	 QWORD PTR __imp_LeaveCriticalSection

; 391  :     LeaveCriticalSection(&c->heap_cs);

  00484	48 8b 84 24 90
	00 00 00	 mov	 rax, QWORD PTR c$[rsp]
  0048c	48 05 c8 01 00
	00		 add	 rax, 456		; 000001c8H
  00492	48 8b c8	 mov	 rcx, rax
  00495	ff 15 00 00 00
	00		 call	 QWORD PTR __imp_LeaveCriticalSection
$LN9@PxContext_@2:

; 392  : 
; 393  :     return;
; 394  : }

  0049b	48 81 c4 88 00
	00 00		 add	 rsp, 136		; 00000088H
  004a2	c3		 ret	 0
PxContext_RollbackHeap ENDP
_TEXT	ENDS
PUBLIC	_PyHeap_Malloc
PUBLIC	??_C@_1HC@LNIIIEBO@?$AA?$CI?$AA?$CB?$AAl?$AAe?$AAn?$AA?5?$AA?$CG?$AA?$CG?$AA?5?$AA?$CB?$AAb?$AAu?$AAf?$AA?5?$AA?$CG?$AA?$CG?$AA?5?$AAo?$AA?$CJ?$AA?5?$AA?$HM?$AA?$HM?$AA?5?$AA?$CI?$AA?5?$AAl?$AAe?$AAn?$AA?5?$AA?$CG?$AA?$CG?$AA?5@ ; `string'
PUBLIC	??_C@_1DG@FIOFPEII@?$AAc?$AA?9?$AA?$DO?$AAi?$AAo?$AA_?$AAo?$AAb?$AAj?$AA?5?$AA?$DN?$AA?$DN?$AA?5?$AA?$CI?$AAP?$AAy?$AAO?$AAb?$AAj?$AAe?$AAc?$AAt?$AA?5?$AA?$CK?$AA?$CJ?$AAs?$AA?$AA@ ; `string'
PUBLIC	??_C@_1BI@FADBJKJH@?$AAs?$AA?9?$AA?$DO?$AAc?$AAt?$AAx?$AA?5?$AA?$DN?$AA?$DN?$AA?5?$AAc?$AA?$AA@ ; `string'
PUBLIC	??_C@_1BC@DLDNDONE@?$AAc?$AA?5?$AA?$DN?$AA?$DN?$AA?5?$AAc?$AAt?$AAx?$AA?$AA@ ; `string'
PUBLIC	??_C@_1CI@OFAJJFHP@?$AA?$CB?$AAs?$AAn?$AAa?$AAp?$AAs?$AAh?$AAo?$AAt?$AA?9?$AA?$DO?$AAs?$AAl?$AAe?$AA_?$AAn?$AAe?$AAx?$AAt?$AA?$AA@ ; `string'
PUBLIC	??_C@_1CI@LPFBMFNI@?$AA?$CB?$AAs?$AAn?$AAa?$AAp?$AAs?$AAh?$AAo?$AAt?$AA?9?$AA?$DO?$AAs?$AAl?$AAe?$AA_?$AAp?$AAr?$AAe?$AAv?$AA?$AA@ ; `string'
PUBLIC	??_C@_1BC@JENOOCMO@?$AAs?$AAn?$AAa?$AAp?$AAs?$AAh?$AAo?$AAt?$AA?$AA@ ; `string'
PUBLIC	??_C@_1O@EGDLIBPP@?$AA?$CB?$AA?$CK?$AAs?$AAb?$AAu?$AAf?$AA?$AA@ ; `string'
PUBLIC	PxSocket_NEW_SBUF
;	COMDAT pdata
pdata	SEGMENT
$pdata$PxSocket_NEW_SBUF DD imagerel $LN20
	DD	imagerel $LN20+760
	DD	imagerel $unwind$PxSocket_NEW_SBUF
pdata	ENDS
;	COMDAT xdata
xdata	SEGMENT
$unwind$PxSocket_NEW_SBUF DD 011801H
	DD	08218H
xdata	ENDS
;	COMDAT ??_C@_1HC@LNIIIEBO@?$AA?$CI?$AA?$CB?$AAl?$AAe?$AAn?$AA?5?$AA?$CG?$AA?$CG?$AA?5?$AA?$CB?$AAb?$AAu?$AAf?$AA?5?$AA?$CG?$AA?$CG?$AA?5?$AAo?$AA?$CJ?$AA?5?$AA?$HM?$AA?$HM?$AA?5?$AA?$CI?$AA?5?$AAl?$AAe?$AAn?$AA?5?$AA?$CG?$AA?$CG?$AA?5@
CONST	SEGMENT
??_C@_1HC@LNIIIEBO@?$AA?$CI?$AA?$CB?$AAl?$AAe?$AAn?$AA?5?$AA?$CG?$AA?$CG?$AA?5?$AA?$CB?$AAb?$AAu?$AAf?$AA?5?$AA?$CG?$AA?$CG?$AA?5?$AAo?$AA?$CJ?$AA?5?$AA?$HM?$AA?$HM?$AA?5?$AA?$CI?$AA?5?$AAl?$AAe?$AAn?$AA?5?$AA?$CG?$AA?$CG?$AA?5@ DB '('
	DB	00H, '!', 00H, 'l', 00H, 'e', 00H, 'n', 00H, ' ', 00H, '&', 00H
	DB	'&', 00H, ' ', 00H, '!', 00H, 'b', 00H, 'u', 00H, 'f', 00H, ' '
	DB	00H, '&', 00H, '&', 00H, ' ', 00H, 'o', 00H, ')', 00H, ' ', 00H
	DB	'|', 00H, '|', 00H, ' ', 00H, '(', 00H, ' ', 00H, 'l', 00H, 'e'
	DB	00H, 'n', 00H, ' ', 00H, '&', 00H, '&', 00H, ' ', 00H, 'b', 00H
	DB	'u', 00H, 'f', 00H, ' ', 00H, '&', 00H, '&', 00H, ' ', 00H, '!'
	DB	00H, 'o', 00H, ' ', 00H, '&', 00H, '&', 00H, ' ', 00H, '(', 00H
	DB	'*', 00H, 'l', 00H, 'e', 00H, 'n', 00H, ' ', 00H, '>', 00H, ' '
	DB	00H, '0', 00H, ')', 00H, ')', 00H, 00H, 00H	; `string'
CONST	ENDS
;	COMDAT ??_C@_1DG@FIOFPEII@?$AAc?$AA?9?$AA?$DO?$AAi?$AAo?$AA_?$AAo?$AAb?$AAj?$AA?5?$AA?$DN?$AA?$DN?$AA?5?$AA?$CI?$AAP?$AAy?$AAO?$AAb?$AAj?$AAe?$AAc?$AAt?$AA?5?$AA?$CK?$AA?$CJ?$AAs?$AA?$AA@
CONST	SEGMENT
??_C@_1DG@FIOFPEII@?$AAc?$AA?9?$AA?$DO?$AAi?$AAo?$AA_?$AAo?$AAb?$AAj?$AA?5?$AA?$DN?$AA?$DN?$AA?5?$AA?$CI?$AAP?$AAy?$AAO?$AAb?$AAj?$AAe?$AAc?$AAt?$AA?5?$AA?$CK?$AA?$CJ?$AAs?$AA?$AA@ DB 'c'
	DB	00H, '-', 00H, '>', 00H, 'i', 00H, 'o', 00H, '_', 00H, 'o', 00H
	DB	'b', 00H, 'j', 00H, ' ', 00H, '=', 00H, '=', 00H, ' ', 00H, '('
	DB	00H, 'P', 00H, 'y', 00H, 'O', 00H, 'b', 00H, 'j', 00H, 'e', 00H
	DB	'c', 00H, 't', 00H, ' ', 00H, '*', 00H, ')', 00H, 's', 00H, 00H
	DB	00H						; `string'
CONST	ENDS
;	COMDAT ??_C@_1BI@FADBJKJH@?$AAs?$AA?9?$AA?$DO?$AAc?$AAt?$AAx?$AA?5?$AA?$DN?$AA?$DN?$AA?5?$AAc?$AA?$AA@
CONST	SEGMENT
??_C@_1BI@FADBJKJH@?$AAs?$AA?9?$AA?$DO?$AAc?$AAt?$AAx?$AA?5?$AA?$DN?$AA?$DN?$AA?5?$AAc?$AA?$AA@ DB 's'
	DB	00H, '-', 00H, '>', 00H, 'c', 00H, 't', 00H, 'x', 00H, ' ', 00H
	DB	'=', 00H, '=', 00H, ' ', 00H, 'c', 00H, 00H, 00H ; `string'
CONST	ENDS
;	COMDAT ??_C@_1BC@DLDNDONE@?$AAc?$AA?5?$AA?$DN?$AA?$DN?$AA?5?$AAc?$AAt?$AAx?$AA?$AA@
CONST	SEGMENT
??_C@_1BC@DLDNDONE@?$AAc?$AA?5?$AA?$DN?$AA?$DN?$AA?5?$AAc?$AAt?$AAx?$AA?$AA@ DB 'c'
	DB	00H, ' ', 00H, '=', 00H, '=', 00H, ' ', 00H, 'c', 00H, 't', 00H
	DB	'x', 00H, 00H, 00H				; `string'
CONST	ENDS
;	COMDAT ??_C@_1CI@OFAJJFHP@?$AA?$CB?$AAs?$AAn?$AAa?$AAp?$AAs?$AAh?$AAo?$AAt?$AA?9?$AA?$DO?$AAs?$AAl?$AAe?$AA_?$AAn?$AAe?$AAx?$AAt?$AA?$AA@
CONST	SEGMENT
??_C@_1CI@OFAJJFHP@?$AA?$CB?$AAs?$AAn?$AAa?$AAp?$AAs?$AAh?$AAo?$AAt?$AA?9?$AA?$DO?$AAs?$AAl?$AAe?$AA_?$AAn?$AAe?$AAx?$AAt?$AA?$AA@ DB '!'
	DB	00H, 's', 00H, 'n', 00H, 'a', 00H, 'p', 00H, 's', 00H, 'h', 00H
	DB	'o', 00H, 't', 00H, '-', 00H, '>', 00H, 's', 00H, 'l', 00H, 'e'
	DB	00H, '_', 00H, 'n', 00H, 'e', 00H, 'x', 00H, 't', 00H, 00H, 00H ; `string'
CONST	ENDS
;	COMDAT ??_C@_1CI@LPFBMFNI@?$AA?$CB?$AAs?$AAn?$AAa?$AAp?$AAs?$AAh?$AAo?$AAt?$AA?9?$AA?$DO?$AAs?$AAl?$AAe?$AA_?$AAp?$AAr?$AAe?$AAv?$AA?$AA@
CONST	SEGMENT
??_C@_1CI@LPFBMFNI@?$AA?$CB?$AAs?$AAn?$AAa?$AAp?$AAs?$AAh?$AAo?$AAt?$AA?9?$AA?$DO?$AAs?$AAl?$AAe?$AA_?$AAp?$AAr?$AAe?$AAv?$AA?$AA@ DB '!'
	DB	00H, 's', 00H, 'n', 00H, 'a', 00H, 'p', 00H, 's', 00H, 'h', 00H
	DB	'o', 00H, 't', 00H, '-', 00H, '>', 00H, 's', 00H, 'l', 00H, 'e'
	DB	00H, '_', 00H, 'p', 00H, 'r', 00H, 'e', 00H, 'v', 00H, 00H, 00H ; `string'
CONST	ENDS
;	COMDAT ??_C@_1BC@JENOOCMO@?$AAs?$AAn?$AAa?$AAp?$AAs?$AAh?$AAo?$AAt?$AA?$AA@
CONST	SEGMENT
??_C@_1BC@JENOOCMO@?$AAs?$AAn?$AAa?$AAp?$AAs?$AAh?$AAo?$AAt?$AA?$AA@ DB 's'
	DB	00H, 'n', 00H, 'a', 00H, 'p', 00H, 's', 00H, 'h', 00H, 'o', 00H
	DB	't', 00H, 00H, 00H				; `string'
CONST	ENDS
;	COMDAT ??_C@_1O@EGDLIBPP@?$AA?$CB?$AA?$CK?$AAs?$AAb?$AAu?$AAf?$AA?$AA@
CONST	SEGMENT
??_C@_1O@EGDLIBPP@?$AA?$CB?$AA?$CK?$AAs?$AAb?$AAu?$AAf?$AA?$AA@ DB '!', 00H
	DB	'*', 00H, 's', 00H, 'b', 00H, 'u', 00H, 'f', 00H, 00H, 00H ; `string'
; Function compile flags: /Odtp
CONST	ENDS
;	COMDAT PxSocket_NEW_SBUF
_TEXT	SEGMENT
w$ = 32
b$ = 48
nbytes$ = 56
c$ = 80
s$ = 88
snapshot$ = 96
len$ = 104
buf$ = 112
o$ = 120
sbuf$ = 128
copy_buf$ = 136
PxSocket_NEW_SBUF PROC					; COMDAT

; 443  : {

$LN20:
  00000	4c 89 4c 24 20	 mov	 QWORD PTR [rsp+32], r9
  00005	4c 89 44 24 18	 mov	 QWORD PTR [rsp+24], r8
  0000a	48 89 54 24 10	 mov	 QWORD PTR [rsp+16], rdx
  0000f	48 89 4c 24 08	 mov	 QWORD PTR [rsp+8], rcx
  00014	48 83 ec 48	 sub	 rsp, 72			; 00000048H

; 444  :     DWORD  nbytes;
; 445  :     WSABUF w;
; 446  :     SBUF *b;
; 447  :     assert(!*sbuf);

  00018	48 8b 84 24 80
	00 00 00	 mov	 rax, QWORD PTR sbuf$[rsp]
  00020	48 83 38 00	 cmp	 QWORD PTR [rax], 0
  00024	74 1c		 je	 SHORT $LN10@PxSocket_N
  00026	41 b8 bf 01 00
	00		 mov	 r8d, 447		; 000001bfH
  0002c	48 8d 15 00 00
	00 00		 lea	 rdx, OFFSET FLAT:??_C@_1CO@DPMFPEGF@?$AA?4?$AA?4?$AA?2?$AAP?$AAy?$AAt?$AAh?$AAo?$AAn?$AA?2?$AAp?$AAy?$AAp?$AAa?$AAr?$AAa?$AAl?$AAl?$AAe?$AAl?$AA?4?$AAc?$AA?$AA@
  00033	48 8d 0d 00 00
	00 00		 lea	 rcx, OFFSET FLAT:??_C@_1O@EGDLIBPP@?$AA?$CB?$AA?$CK?$AAs?$AAb?$AAu?$AAf?$AA?$AA@
  0003a	ff 15 00 00 00
	00		 call	 QWORD PTR __imp__wassert
  00040	33 c0		 xor	 eax, eax
$LN10@PxSocket_N:

; 448  :     assert(snapshot);

  00042	48 83 7c 24 60
	00		 cmp	 QWORD PTR snapshot$[rsp], 0
  00048	75 1c		 jne	 SHORT $LN11@PxSocket_N
  0004a	41 b8 c0 01 00
	00		 mov	 r8d, 448		; 000001c0H
  00050	48 8d 15 00 00
	00 00		 lea	 rdx, OFFSET FLAT:??_C@_1CO@DPMFPEGF@?$AA?4?$AA?4?$AA?2?$AAP?$AAy?$AAt?$AAh?$AAo?$AAn?$AA?2?$AAp?$AAy?$AAp?$AAa?$AAr?$AAa?$AAl?$AAl?$AAe?$AAl?$AA?4?$AAc?$AA?$AA@
  00057	48 8d 0d 00 00
	00 00		 lea	 rcx, OFFSET FLAT:??_C@_1BC@JENOOCMO@?$AAs?$AAn?$AAa?$AAp?$AAs?$AAh?$AAo?$AAt?$AA?$AA@
  0005e	ff 15 00 00 00
	00		 call	 QWORD PTR __imp__wassert
  00064	33 c0		 xor	 eax, eax
$LN11@PxSocket_N:

; 449  :     assert(!snapshot->sle_prev);

  00066	48 8b 44 24 60	 mov	 rax, QWORD PTR snapshot$[rsp]
  0006b	48 83 38 00	 cmp	 QWORD PTR [rax], 0
  0006f	74 1c		 je	 SHORT $LN12@PxSocket_N
  00071	41 b8 c1 01 00
	00		 mov	 r8d, 449		; 000001c1H
  00077	48 8d 15 00 00
	00 00		 lea	 rdx, OFFSET FLAT:??_C@_1CO@DPMFPEGF@?$AA?4?$AA?4?$AA?2?$AAP?$AAy?$AAt?$AAh?$AAo?$AAn?$AA?2?$AAp?$AAy?$AAp?$AAa?$AAr?$AAa?$AAl?$AAl?$AAe?$AAl?$AA?4?$AAc?$AA?$AA@
  0007e	48 8d 0d 00 00
	00 00		 lea	 rcx, OFFSET FLAT:??_C@_1CI@LPFBMFNI@?$AA?$CB?$AAs?$AAn?$AAa?$AAp?$AAs?$AAh?$AAo?$AAt?$AA?9?$AA?$DO?$AAs?$AAl?$AAe?$AA_?$AAp?$AAr?$AAe?$AAv?$AA?$AA@
  00085	ff 15 00 00 00
	00		 call	 QWORD PTR __imp__wassert
  0008b	33 c0		 xor	 eax, eax
$LN12@PxSocket_N:

; 450  :     assert(!snapshot->sle_next);

  0008d	48 8b 44 24 60	 mov	 rax, QWORD PTR snapshot$[rsp]
  00092	48 83 78 08 00	 cmp	 QWORD PTR [rax+8], 0
  00097	74 1c		 je	 SHORT $LN13@PxSocket_N
  00099	41 b8 c2 01 00
	00		 mov	 r8d, 450		; 000001c2H
  0009f	48 8d 15 00 00
	00 00		 lea	 rdx, OFFSET FLAT:??_C@_1CO@DPMFPEGF@?$AA?4?$AA?4?$AA?2?$AAP?$AAy?$AAt?$AAh?$AAo?$AAn?$AA?2?$AAp?$AAy?$AAp?$AAa?$AAr?$AAa?$AAl?$AAl?$AAe?$AAl?$AA?4?$AAc?$AA?$AA@
  000a6	48 8d 0d 00 00
	00 00		 lea	 rcx, OFFSET FLAT:??_C@_1CI@OFAJJFHP@?$AA?$CB?$AAs?$AAn?$AAa?$AAp?$AAs?$AAh?$AAo?$AAt?$AA?9?$AA?$DO?$AAs?$AAl?$AAe?$AA_?$AAn?$AAe?$AAx?$AAt?$AA?$AA@
  000ad	ff 15 00 00 00
	00		 call	 QWORD PTR __imp__wassert
  000b3	33 c0		 xor	 eax, eax
$LN13@PxSocket_N:

; 451  :     assert(c == ctx);

  000b5	b8 00 00 00 00	 mov	 eax, OFFSET FLAT:ctx
  000ba	8b c0		 mov	 eax, eax
  000bc	8b 0d 00 00 00
	00		 mov	 ecx, DWORD PTR _tls_index
  000c2	65 48 8b 14 25
	58 00 00 00	 mov	 rdx, QWORD PTR gs:88
  000cb	48 8b 0c ca	 mov	 rcx, QWORD PTR [rdx+rcx*8]
  000cf	48 8b 04 08	 mov	 rax, QWORD PTR [rax+rcx]
  000d3	48 39 44 24 50	 cmp	 QWORD PTR c$[rsp], rax
  000d8	74 1c		 je	 SHORT $LN14@PxSocket_N
  000da	41 b8 c3 01 00
	00		 mov	 r8d, 451		; 000001c3H
  000e0	48 8d 15 00 00
	00 00		 lea	 rdx, OFFSET FLAT:??_C@_1CO@DPMFPEGF@?$AA?4?$AA?4?$AA?2?$AAP?$AAy?$AAt?$AAh?$AAo?$AAn?$AA?2?$AAp?$AAy?$AAp?$AAa?$AAr?$AAa?$AAl?$AAl?$AAe?$AAl?$AA?4?$AAc?$AA?$AA@
  000e7	48 8d 0d 00 00
	00 00		 lea	 rcx, OFFSET FLAT:??_C@_1BC@DLDNDONE@?$AAc?$AA?5?$AA?$DN?$AA?$DN?$AA?5?$AAc?$AAt?$AAx?$AA?$AA@
  000ee	ff 15 00 00 00
	00		 call	 QWORD PTR __imp__wassert
  000f4	33 c0		 xor	 eax, eax
$LN14@PxSocket_N:

; 452  :     assert(s->ctx == c);

  000f6	48 8b 44 24 58	 mov	 rax, QWORD PTR s$[rsp]
  000fb	48 8b 4c 24 50	 mov	 rcx, QWORD PTR c$[rsp]
  00100	48 39 88 00 02
	00 00		 cmp	 QWORD PTR [rax+512], rcx
  00107	74 1c		 je	 SHORT $LN15@PxSocket_N
  00109	41 b8 c4 01 00
	00		 mov	 r8d, 452		; 000001c4H
  0010f	48 8d 15 00 00
	00 00		 lea	 rdx, OFFSET FLAT:??_C@_1CO@DPMFPEGF@?$AA?4?$AA?4?$AA?2?$AAP?$AAy?$AAt?$AAh?$AAo?$AAn?$AA?2?$AAp?$AAy?$AAp?$AAa?$AAr?$AAa?$AAl?$AAl?$AAe?$AAl?$AA?4?$AAc?$AA?$AA@
  00116	48 8d 0d 00 00
	00 00		 lea	 rcx, OFFSET FLAT:??_C@_1BI@FADBJKJH@?$AAs?$AA?9?$AA?$DO?$AAc?$AAt?$AAx?$AA?5?$AA?$DN?$AA?$DN?$AA?5?$AAc?$AA?$AA@
  0011d	ff 15 00 00 00
	00		 call	 QWORD PTR __imp__wassert
  00123	33 c0		 xor	 eax, eax
$LN15@PxSocket_N:

; 453  :     assert(c->io_obj == (PyObject *)s);

  00125	48 8b 44 24 50	 mov	 rax, QWORD PTR c$[rsp]
  0012a	48 8b 4c 24 58	 mov	 rcx, QWORD PTR s$[rsp]
  0012f	48 39 88 a8 32
	00 00		 cmp	 QWORD PTR [rax+12968], rcx
  00136	74 1c		 je	 SHORT $LN16@PxSocket_N
  00138	41 b8 c5 01 00
	00		 mov	 r8d, 453		; 000001c5H
  0013e	48 8d 15 00 00
	00 00		 lea	 rdx, OFFSET FLAT:??_C@_1CO@DPMFPEGF@?$AA?4?$AA?4?$AA?2?$AAP?$AAy?$AAt?$AAh?$AAo?$AAn?$AA?2?$AAp?$AAy?$AAp?$AAa?$AAr?$AAa?$AAl?$AAl?$AAe?$AAl?$AA?4?$AAc?$AA?$AA@
  00145	48 8d 0d 00 00
	00 00		 lea	 rcx, OFFSET FLAT:??_C@_1DG@FIOFPEII@?$AAc?$AA?9?$AA?$DO?$AAi?$AAo?$AA_?$AAo?$AAb?$AAj?$AA?5?$AA?$DN?$AA?$DN?$AA?5?$AA?$CI?$AAP?$AAy?$AAO?$AAb?$AAj?$AAe?$AAc?$AAt?$AA?5?$AA?$CK?$AA?$CJ?$AAs?$AA?$AA@
  0014c	ff 15 00 00 00
	00		 call	 QWORD PTR __imp__wassert
  00152	33 c0		 xor	 eax, eax
$LN16@PxSocket_N:

; 454  :     assert(
; 455  :         (!len && !buf &&  o) ||
; 456  :         ( len &&  buf && !o && (*len > 0))
; 457  :     );

  00154	48 83 7c 24 68
	00		 cmp	 QWORD PTR len$[rsp], 0
  0015a	75 10		 jne	 SHORT $LN17@PxSocket_N
  0015c	48 83 7c 24 70
	00		 cmp	 QWORD PTR buf$[rsp], 0
  00162	75 08		 jne	 SHORT $LN17@PxSocket_N
  00164	48 83 7c 24 78
	00		 cmp	 QWORD PTR o$[rsp], 0
  0016a	75 3e		 jne	 SHORT $LN19@PxSocket_N
$LN17@PxSocket_N:
  0016c	48 83 7c 24 68
	00		 cmp	 QWORD PTR len$[rsp], 0
  00172	74 1a		 je	 SHORT $LN18@PxSocket_N
  00174	48 83 7c 24 70
	00		 cmp	 QWORD PTR buf$[rsp], 0
  0017a	74 12		 je	 SHORT $LN18@PxSocket_N
  0017c	48 83 7c 24 78
	00		 cmp	 QWORD PTR o$[rsp], 0
  00182	75 0a		 jne	 SHORT $LN18@PxSocket_N
  00184	48 8b 44 24 68	 mov	 rax, QWORD PTR len$[rsp]
  00189	83 38 00	 cmp	 DWORD PTR [rax], 0
  0018c	77 1c		 ja	 SHORT $LN19@PxSocket_N
$LN18@PxSocket_N:
  0018e	41 b8 c9 01 00
	00		 mov	 r8d, 457		; 000001c9H
  00194	48 8d 15 00 00
	00 00		 lea	 rdx, OFFSET FLAT:??_C@_1CO@DPMFPEGF@?$AA?4?$AA?4?$AA?2?$AAP?$AAy?$AAt?$AAh?$AAo?$AAn?$AA?2?$AAp?$AAy?$AAp?$AAa?$AAr?$AAa?$AAl?$AAl?$AAe?$AAl?$AA?4?$AAc?$AA?$AA@
  0019b	48 8d 0d 00 00
	00 00		 lea	 rcx, OFFSET FLAT:??_C@_1HC@LNIIIEBO@?$AA?$CI?$AA?$CB?$AAl?$AAe?$AAn?$AA?5?$AA?$CG?$AA?$CG?$AA?5?$AA?$CB?$AAb?$AAu?$AAf?$AA?5?$AA?$CG?$AA?$CG?$AA?5?$AAo?$AA?$CJ?$AA?5?$AA?$HM?$AA?$HM?$AA?5?$AA?$CI?$AA?5?$AAl?$AAe?$AAn?$AA?5?$AA?$CG?$AA?$CG?$AA?5@
  001a2	ff 15 00 00 00
	00		 call	 QWORD PTR __imp__wassert
  001a8	33 c0		 xor	 eax, eax
$LN19@PxSocket_N:

; 458  : 
; 459  :     if (!o) {

  001aa	48 83 7c 24 78
	00		 cmp	 QWORD PTR o$[rsp], 0
  001b0	75 17		 jne	 SHORT $LN7@PxSocket_N

; 460  :         w.len = *len;

  001b2	48 8b 44 24 68	 mov	 rax, QWORD PTR len$[rsp]
  001b7	8b 00		 mov	 eax, DWORD PTR [rax]
  001b9	89 44 24 20	 mov	 DWORD PTR w$[rsp], eax

; 461  :         w.buf =  buf;

  001bd	48 8b 44 24 70	 mov	 rax, QWORD PTR buf$[rsp]
  001c2	48 89 44 24 28	 mov	 QWORD PTR w$[rsp+8], rax
  001c7	eb 1a		 jmp	 SHORT $LN6@PxSocket_N
$LN7@PxSocket_N:

; 462  :     } else if (!PyObject2WSABUF(o, &w))

  001c9	48 8d 54 24 20	 lea	 rdx, QWORD PTR w$[rsp]
  001ce	48 8b 4c 24 78	 mov	 rcx, QWORD PTR o$[rsp]
  001d3	e8 00 00 00 00	 call	 PyObject2WSABUF
  001d8	85 c0		 test	 eax, eax
  001da	75 07		 jne	 SHORT $LN5@PxSocket_N

; 463  :         return 0;

  001dc	33 c0		 xor	 eax, eax
  001de	e9 10 01 00 00	 jmp	 $LN8@PxSocket_N
$LN5@PxSocket_N:
$LN6@PxSocket_N:

; 464  : 
; 465  :     nbytes = Px_PTR_ALIGN(sizeof(SBUF));

  001e3	c7 44 24 38 50
	00 00 00	 mov	 DWORD PTR nbytes$[rsp], 80 ; 00000050H

; 466  :     if (copy_buf)

  001eb	83 bc 24 88 00
	00 00 00	 cmp	 DWORD PTR copy_buf$[rsp], 0
  001f3	74 10		 je	 SHORT $LN4@PxSocket_N

; 467  :         nbytes += w.len;

  001f5	8b 44 24 20	 mov	 eax, DWORD PTR w$[rsp]
  001f9	8b 4c 24 38	 mov	 ecx, DWORD PTR nbytes$[rsp]
  001fd	03 c8		 add	 ecx, eax
  001ff	8b c1		 mov	 eax, ecx
  00201	89 44 24 38	 mov	 DWORD PTR nbytes$[rsp], eax
$LN4@PxSocket_N:

; 468  : 
; 469  :     *sbuf = (SBUF *)_PyHeap_Malloc(c, nbytes, 0, 0);

  00205	8b 44 24 38	 mov	 eax, DWORD PTR nbytes$[rsp]
  00209	45 33 c9	 xor	 r9d, r9d
  0020c	45 33 c0	 xor	 r8d, r8d
  0020f	8b d0		 mov	 edx, eax
  00211	48 8b 4c 24 50	 mov	 rcx, QWORD PTR c$[rsp]
  00216	e8 00 00 00 00	 call	 _PyHeap_Malloc
  0021b	48 8b 8c 24 80
	00 00 00	 mov	 rcx, QWORD PTR sbuf$[rsp]
  00223	48 89 01	 mov	 QWORD PTR [rcx], rax

; 470  :     if (!*sbuf)

  00226	48 8b 84 24 80
	00 00 00	 mov	 rax, QWORD PTR sbuf$[rsp]
  0022e	48 83 38 00	 cmp	 QWORD PTR [rax], 0
  00232	75 07		 jne	 SHORT $LN3@PxSocket_N

; 471  :         return 0;

  00234	33 c0		 xor	 eax, eax
  00236	e9 b8 00 00 00	 jmp	 $LN8@PxSocket_N
$LN3@PxSocket_N:

; 472  : 
; 473  :     b = *sbuf;

  0023b	48 8b 84 24 80
	00 00 00	 mov	 rax, QWORD PTR sbuf$[rsp]
  00243	48 8b 00	 mov	 rax, QWORD PTR [rax]
  00246	48 89 44 24 30	 mov	 QWORD PTR b$[rsp], rax

; 474  : 
; 475  :     b->last_thread_id = _Py_get_current_thread_id();

  0024b	65 8b 04 25 48
	00 00 00	 mov	 eax, DWORD PTR gs:72
  00253	48 8b 4c 24 30	 mov	 rcx, QWORD PTR b$[rsp]
  00258	89 41 18	 mov	 DWORD PTR [rcx+24], eax

; 476  :     b->snapshot = snapshot;

  0025b	48 8b 44 24 30	 mov	 rax, QWORD PTR b$[rsp]
  00260	48 8b 4c 24 60	 mov	 rcx, QWORD PTR snapshot$[rsp]
  00265	48 89 48 10	 mov	 QWORD PTR [rax+16], rcx

; 477  :     b->s = s;

  00269	48 8b 44 24 30	 mov	 rax, QWORD PTR b$[rsp]
  0026e	48 8b 4c 24 58	 mov	 rcx, QWORD PTR s$[rsp]
  00273	48 89 08	 mov	 QWORD PTR [rax], rcx

; 478  :     s->ol = &b->ol;

  00276	48 8b 44 24 30	 mov	 rax, QWORD PTR b$[rsp]
  0027b	48 83 c0 20	 add	 rax, 32			; 00000020H
  0027f	48 8b 4c 24 58	 mov	 rcx, QWORD PTR s$[rsp]
  00284	48 89 81 80 03
	00 00		 mov	 QWORD PTR [rcx+896], rax

; 479  :     s->sbuf = b;

  0028b	48 8b 44 24 58	 mov	 rax, QWORD PTR s$[rsp]
  00290	48 8b 4c 24 30	 mov	 rcx, QWORD PTR b$[rsp]
  00295	48 89 88 68 03
	00 00		 mov	 QWORD PTR [rax+872], rcx

; 480  : 
; 481  :     b->w.len = w.len;

  0029c	48 8b 44 24 30	 mov	 rax, QWORD PTR b$[rsp]
  002a1	8b 4c 24 20	 mov	 ecx, DWORD PTR w$[rsp]
  002a5	89 48 40	 mov	 DWORD PTR [rax+64], ecx

; 482  : 
; 483  :     if (!copy_buf)

  002a8	83 bc 24 88 00
	00 00 00	 cmp	 DWORD PTR copy_buf$[rsp], 0
  002b0	75 10		 jne	 SHORT $LN2@PxSocket_N

; 484  :         b->w.buf = w.buf;

  002b2	48 8b 44 24 30	 mov	 rax, QWORD PTR b$[rsp]
  002b7	48 8b 4c 24 28	 mov	 rcx, QWORD PTR w$[rsp+8]
  002bc	48 89 48 48	 mov	 QWORD PTR [rax+72], rcx

; 485  :     else {

  002c0	eb 2c		 jmp	 SHORT $LN1@PxSocket_N
$LN2@PxSocket_N:

; 486  :         b->w.buf = (char *)(_Py_PTR_ADD(b, Px_PTR_ALIGN(sizeof(SBUF))));

  002c2	48 8b 44 24 30	 mov	 rax, QWORD PTR b$[rsp]
  002c7	48 83 c0 50	 add	 rax, 80			; 00000050H
  002cb	48 8b 4c 24 30	 mov	 rcx, QWORD PTR b$[rsp]
  002d0	48 89 41 48	 mov	 QWORD PTR [rcx+72], rax

; 487  :         memcpy(b->w.buf, w.buf, w.len);

  002d4	8b 44 24 20	 mov	 eax, DWORD PTR w$[rsp]
  002d8	44 8b c0	 mov	 r8d, eax
  002db	48 8b 54 24 28	 mov	 rdx, QWORD PTR w$[rsp+8]
  002e0	48 8b 44 24 30	 mov	 rax, QWORD PTR b$[rsp]
  002e5	48 8b 48 48	 mov	 rcx, QWORD PTR [rax+72]
  002e9	e8 00 00 00 00	 call	 memcpy
$LN1@PxSocket_N:

; 488  :     }
; 489  : 
; 490  :     return 1;

  002ee	b8 01 00 00 00	 mov	 eax, 1
$LN8@PxSocket_N:

; 491  : }

  002f3	48 83 c4 48	 add	 rsp, 72			; 00000048H
  002f7	c3		 ret	 0
PxSocket_NEW_SBUF ENDP
_TEXT	ENDS
EXTRN	PyUnicode_AsUTF8AndSize:PROC
EXTRN	PyType_IsSubtype:PROC
EXTRN	PyByteArray_Type:BYTE
;	COMDAT pdata
pdata	SEGMENT
$pdata$PyObject2WSABUF DD imagerel PyObject2WSABUF
	DD	imagerel PyObject2WSABUF+271
	DD	imagerel $unwind$PyObject2WSABUF
pdata	ENDS
;	COMDAT xdata
xdata	SEGMENT
$unwind$PyObject2WSABUF DD 010e01H
	DD	0820eH
; Function compile flags: /Odtp
xdata	ENDS
;	COMDAT PyObject2WSABUF
_TEXT	SEGMENT
result$ = 32
buf$125822 = 40
nbytes$125821 = 48
o$ = 80
w$ = 88
PyObject2WSABUF PROC					; COMDAT

; 402  : {

  00000	48 89 54 24 10	 mov	 QWORD PTR [rsp+16], rdx
  00005	48 89 4c 24 08	 mov	 QWORD PTR [rsp+8], rcx
  0000a	48 83 ec 48	 sub	 rsp, 72			; 00000048H

; 403  :     int result = 1;

  0000e	c7 44 24 20 01
	00 00 00	 mov	 DWORD PTR result$[rsp], 1

; 404  :     if (PyBytes_Check(o)) {

  00016	48 8b 44 24 50	 mov	 rax, QWORD PTR o$[rsp]
  0001b	48 8b 40 58	 mov	 rax, QWORD PTR [rax+88]
  0001f	8b 80 00 01 00
	00		 mov	 eax, DWORD PTR [rax+256]
  00025	25 00 00 00 08	 and	 eax, 134217728		; 08000000H
  0002a	85 c0		 test	 eax, eax
  0002c	74 26		 je	 SHORT $LN9@PyObject2W

; 405  :         w->len = (ULONG)((PyVarObject *)o)->ob_size;

  0002e	48 8b 44 24 58	 mov	 rax, QWORD PTR w$[rsp]
  00033	48 8b 4c 24 50	 mov	 rcx, QWORD PTR o$[rsp]
  00038	8b 49 60	 mov	 ecx, DWORD PTR [rcx+96]
  0003b	89 08		 mov	 DWORD PTR [rax], ecx

; 406  :         w->buf = (char *)((PyBytesObject *)o)->ob_sval;

  0003d	48 8b 44 24 50	 mov	 rax, QWORD PTR o$[rsp]
  00042	48 83 c0 78	 add	 rax, 120		; 00000078H
  00046	48 8b 4c 24 58	 mov	 rcx, QWORD PTR w$[rsp]
  0004b	48 89 41 08	 mov	 QWORD PTR [rcx+8], rax
  0004f	e9 b2 00 00 00	 jmp	 $LN8@PyObject2W
$LN9@PyObject2W:

; 407  :     } else if (PyByteArray_Check(o)) {

  00054	48 8d 05 00 00
	00 00		 lea	 rax, OFFSET FLAT:PyByteArray_Type
  0005b	48 8b 4c 24 50	 mov	 rcx, QWORD PTR o$[rsp]
  00060	48 39 41 58	 cmp	 QWORD PTR [rcx+88], rax
  00064	74 19		 je	 SHORT $LN6@PyObject2W
  00066	48 8d 15 00 00
	00 00		 lea	 rdx, OFFSET FLAT:PyByteArray_Type
  0006d	48 8b 44 24 50	 mov	 rax, QWORD PTR o$[rsp]
  00072	48 8b 48 58	 mov	 rcx, QWORD PTR [rax+88]
  00076	e8 00 00 00 00	 call	 PyType_IsSubtype
  0007b	85 c0		 test	 eax, eax
  0007d	74 26		 je	 SHORT $LN7@PyObject2W
$LN6@PyObject2W:

; 408  :         w->len = (ULONG)((PyByteArrayObject *)o)->ob_alloc;

  0007f	48 8b 44 24 58	 mov	 rax, QWORD PTR w$[rsp]
  00084	48 8b 4c 24 50	 mov	 rcx, QWORD PTR o$[rsp]
  00089	8b 49 78	 mov	 ecx, DWORD PTR [rcx+120]
  0008c	89 08		 mov	 DWORD PTR [rax], ecx

; 409  :         w->buf = ((PyByteArrayObject *)o)->ob_bytes;

  0008e	48 8b 44 24 58	 mov	 rax, QWORD PTR w$[rsp]
  00093	48 8b 4c 24 50	 mov	 rcx, QWORD PTR o$[rsp]
  00098	48 8b 89 80 00
	00 00		 mov	 rcx, QWORD PTR [rcx+128]
  0009f	48 89 48 08	 mov	 QWORD PTR [rax+8], rcx
  000a3	eb 61		 jmp	 SHORT $LN5@PyObject2W
$LN7@PyObject2W:

; 410  :     } else if (PyUnicode_Check(o)) {

  000a5	48 8b 44 24 50	 mov	 rax, QWORD PTR o$[rsp]
  000aa	48 8b 40 58	 mov	 rax, QWORD PTR [rax+88]
  000ae	8b 80 00 01 00
	00		 mov	 eax, DWORD PTR [rax+256]
  000b4	25 00 00 00 10	 and	 eax, 268435456		; 10000000H
  000b9	85 c0		 test	 eax, eax
  000bb	74 41		 je	 SHORT $LN4@PyObject2W

; 411  :         Py_ssize_t nbytes;
; 412  :         char *buf = PyUnicode_AsUTF8AndSize(o, &nbytes);

  000bd	48 8d 54 24 30	 lea	 rdx, QWORD PTR nbytes$125821[rsp]
  000c2	48 8b 4c 24 50	 mov	 rcx, QWORD PTR o$[rsp]
  000c7	e8 00 00 00 00	 call	 PyUnicode_AsUTF8AndSize
  000cc	48 89 44 24 28	 mov	 QWORD PTR buf$125822[rsp], rax

; 413  :         if (buf) {

  000d1	48 83 7c 24 28
	00		 cmp	 QWORD PTR buf$125822[rsp], 0
  000d7	74 1b		 je	 SHORT $LN3@PyObject2W

; 414  :             w->buf = buf;

  000d9	48 8b 44 24 58	 mov	 rax, QWORD PTR w$[rsp]
  000de	48 8b 4c 24 28	 mov	 rcx, QWORD PTR buf$125822[rsp]
  000e3	48 89 48 08	 mov	 QWORD PTR [rax+8], rcx

; 415  :             /* xxx todo: range check */
; 416  :             w->len = (DWORD)nbytes;

  000e7	48 8b 44 24 58	 mov	 rax, QWORD PTR w$[rsp]
  000ec	8b 4c 24 30	 mov	 ecx, DWORD PTR nbytes$125821[rsp]
  000f0	89 08		 mov	 DWORD PTR [rax], ecx

; 417  :         } else

  000f2	eb 08		 jmp	 SHORT $LN2@PyObject2W
$LN3@PyObject2W:

; 418  :             result = 0;

  000f4	c7 44 24 20 00
	00 00 00	 mov	 DWORD PTR result$[rsp], 0
$LN2@PyObject2W:

; 419  :     } else

  000fc	eb 08		 jmp	 SHORT $LN1@PyObject2W
$LN4@PyObject2W:

; 420  :         result = 0;

  000fe	c7 44 24 20 00
	00 00 00	 mov	 DWORD PTR result$[rsp], 0
$LN1@PyObject2W:
$LN5@PyObject2W:
$LN8@PyObject2W:

; 421  : 
; 422  :     return result;

  00106	8b 44 24 20	 mov	 eax, DWORD PTR result$[rsp]

; 423  : }

  0010a	48 83 c4 48	 add	 rsp, 72			; 00000048H
  0010e	c3		 ret	 0
PyObject2WSABUF ENDP
_TEXT	ENDS
PUBLIC	??_C@_0BJ@DJEDNLFK@WSACloseEvent?$CI?$CJ?5?9?$DO?5other?$AA@ ; `string'
PUBLIC	??_C@_0CC@HMPLBGBI@WSACloseEvent?$CI?$CJ?5?9?$DO?5INVALID_HANDL@ ; `string'
PUBLIC	_RESET_OVERLAPPED
EXTRN	__imp_WSAGetLastError:PROC
EXTRN	__imp_WSACloseEvent:PROC
EXTRN	memcmp:PROC
_BSS	SEGMENT
_NULL_OVERLAPPED DB 020H DUP (?)
_BSS	ENDS
;	COMDAT pdata
pdata	SEGMENT
$pdata$_RESET_OVERLAPPED DD imagerel $LN8
	DD	imagerel $LN8+133
	DD	imagerel $unwind$_RESET_OVERLAPPED
pdata	ENDS
;	COMDAT xdata
xdata	SEGMENT
$unwind$_RESET_OVERLAPPED DD 010901H
	DD	06209H
xdata	ENDS
;	COMDAT ??_C@_0BJ@DJEDNLFK@WSACloseEvent?$CI?$CJ?5?9?$DO?5other?$AA@
CONST	SEGMENT
??_C@_0BJ@DJEDNLFK@WSACloseEvent?$CI?$CJ?5?9?$DO?5other?$AA@ DB 'WSAClose'
	DB	'Event() -> other', 00H			; `string'
CONST	ENDS
;	COMDAT ??_C@_0CC@HMPLBGBI@WSACloseEvent?$CI?$CJ?5?9?$DO?5INVALID_HANDL@
CONST	SEGMENT
??_C@_0CC@HMPLBGBI@WSACloseEvent?$CI?$CJ?5?9?$DO?5INVALID_HANDL@ DB 'WSAC'
	DB	'loseEvent() -> INVALID_HANDLE', 00H		; `string'
; Function compile flags: /Odtp
CONST	ENDS
;	COMDAT _RESET_OVERLAPPED
_TEXT	SEGMENT
last_error$125896 = 32
ol$ = 64
_RESET_OVERLAPPED PROC					; COMDAT

; 515  : {

$LN8:
  00000	48 89 4c 24 08	 mov	 QWORD PTR [rsp+8], rcx
  00005	48 83 ec 38	 sub	 rsp, 56			; 00000038H

; 516  :     if (!IS_OVERLAPPED_NULL(ol)) {

  00009	41 b8 20 00 00
	00		 mov	 r8d, 32			; 00000020H
  0000f	48 8d 15 00 00
	00 00		 lea	 rdx, OFFSET FLAT:_NULL_OVERLAPPED
  00016	48 8b 4c 24 40	 mov	 rcx, QWORD PTR ol$[rsp]
  0001b	e8 00 00 00 00	 call	 memcmp
  00020	85 c0		 test	 eax, eax
  00022	74 5c		 je	 SHORT $LN5@RESET_OVER

; 517  :         if (ol->hEvent) {

  00024	48 8b 44 24 40	 mov	 rax, QWORD PTR ol$[rsp]
  00029	48 83 78 18 00	 cmp	 QWORD PTR [rax+24], 0
  0002e	74 3e		 je	 SHORT $LN4@RESET_OVER

; 518  :             if (!WSACloseEvent(ol->hEvent)) {

  00030	48 8b 44 24 40	 mov	 rax, QWORD PTR ol$[rsp]
  00035	48 8b 48 18	 mov	 rcx, QWORD PTR [rax+24]
  00039	ff 15 00 00 00
	00		 call	 QWORD PTR __imp_WSACloseEvent
  0003f	85 c0		 test	 eax, eax
  00041	75 2b		 jne	 SHORT $LN3@RESET_OVER

; 519  :                 int last_error = WSAGetLastError();

  00043	ff 15 00 00 00
	00		 call	 QWORD PTR __imp_WSAGetLastError
  00049	89 44 24 20	 mov	 DWORD PTR last_error$125896[rsp], eax

; 520  :                 if (last_error == WSA_INVALID_HANDLE)

  0004d	83 7c 24 20 06	 cmp	 DWORD PTR last_error$125896[rsp], 6
  00052	75 0e		 jne	 SHORT $LN2@RESET_OVER

; 521  :                     Py_FatalError("WSACloseEvent() -> INVALID_HANDLE");

  00054	48 8d 0d 00 00
	00 00		 lea	 rcx, OFFSET FLAT:??_C@_0CC@HMPLBGBI@WSACloseEvent?$CI?$CJ?5?9?$DO?5INVALID_HANDL@
  0005b	e8 00 00 00 00	 call	 Py_FatalError

; 522  :                 else

  00060	eb 0c		 jmp	 SHORT $LN1@RESET_OVER
$LN2@RESET_OVER:

; 523  :                     Py_FatalError("WSACloseEvent() -> other");

  00062	48 8d 0d 00 00
	00 00		 lea	 rcx, OFFSET FLAT:??_C@_0BJ@DJEDNLFK@WSACloseEvent?$CI?$CJ?5?9?$DO?5other?$AA@
  00069	e8 00 00 00 00	 call	 Py_FatalError
$LN1@RESET_OVER:
$LN3@RESET_OVER:
$LN4@RESET_OVER:

; 524  :             }
; 525  :         }
; 526  :         memset(ol, 0, sizeof(OVERLAPPED));

  0006e	41 b8 20 00 00
	00		 mov	 r8d, 32			; 00000020H
  00074	33 d2		 xor	 edx, edx
  00076	48 8b 4c 24 40	 mov	 rcx, QWORD PTR ol$[rsp]
  0007b	e8 00 00 00 00	 call	 memset
$LN5@RESET_OVER:

; 527  :     }
; 528  : }

  00080	48 83 c4 38	 add	 rsp, 56			; 00000038H
  00084	c3		 ret	 0
_RESET_OVERLAPPED ENDP
_TEXT	ENDS
PUBLIC	_PyParallel_DisassociateCurrentThreadFromCallback
EXTRN	__imp_DisassociateCurrentThreadFromCallback:PROC
;	COMDAT pdata
pdata	SEGMENT
$pdata$_PyParallel_DisassociateCurrentThreadFromCallback DD imagerel $LN4
	DD	imagerel $LN4+107
	DD	imagerel $unwind$_PyParallel_DisassociateCurrentThreadFromCallback
pdata	ENDS
;	COMDAT xdata
xdata	SEGMENT
$unwind$_PyParallel_DisassociateCurrentThreadFromCallback DD 010401H
	DD	06204H
; Function compile flags: /Odtp
xdata	ENDS
;	COMDAT _PyParallel_DisassociateCurrentThreadFromCallback
_TEXT	SEGMENT
c$ = 32
_PyParallel_DisassociateCurrentThreadFromCallback PROC	; COMDAT

; 541  : {

$LN4:
  00000	48 83 ec 38	 sub	 rsp, 56			; 00000038H

; 542  :     Context *c = ctx;

  00004	b8 00 00 00 00	 mov	 eax, OFFSET FLAT:ctx
  00009	8b c0		 mov	 eax, eax
  0000b	8b 0d 00 00 00
	00		 mov	 ecx, DWORD PTR _tls_index
  00011	65 48 8b 14 25
	58 00 00 00	 mov	 rdx, QWORD PTR gs:88
  0001a	48 8b 0c ca	 mov	 rcx, QWORD PTR [rdx+rcx*8]
  0001e	48 8b 04 08	 mov	 rax, QWORD PTR [rax+rcx]
  00022	48 89 44 24 20	 mov	 QWORD PTR c$[rsp], rax

; 543  :     if (Px_CTX_IS_DISASSOCIATED(c))

  00027	48 8b 44 24 20	 mov	 rax, QWORD PTR c$[rsp]
  0002c	8b 80 f8 00 00
	00		 mov	 eax, DWORD PTR [rax+248]
  00032	83 e0 10	 and	 eax, 16
  00035	85 c0		 test	 eax, eax
  00037	74 02		 je	 SHORT $LN1@PyParallel@6

; 544  :         return;

  00039	eb 2b		 jmp	 SHORT $LN2@PyParallel@6
$LN1@PyParallel@6:

; 545  :     DisassociateCurrentThreadFromCallback((PTP_CALLBACK_INSTANCE)c->instance);

  0003b	48 8b 44 24 20	 mov	 rax, QWORD PTR c$[rsp]
  00040	48 8b 88 f0 00
	00 00		 mov	 rcx, QWORD PTR [rax+240]
  00047	ff 15 00 00 00
	00		 call	 QWORD PTR __imp_DisassociateCurrentThreadFromCallback

; 546  :     Px_CTXFLAGS(c) |= Px_CTXFLAGS_DISASSOCIATED;

  0004d	48 8b 44 24 20	 mov	 rax, QWORD PTR c$[rsp]
  00052	8b 80 f8 00 00
	00		 mov	 eax, DWORD PTR [rax+248]
  00058	83 c8 10	 or	 eax, 16
  0005b	48 8b 4c 24 20	 mov	 rcx, QWORD PTR c$[rsp]
  00060	89 81 f8 00 00
	00		 mov	 DWORD PTR [rcx+248], eax
$LN2@PyParallel@6:

; 547  : }

  00066	48 83 c4 38	 add	 rsp, 56			; 00000038H
  0006a	c3		 ret	 0
_PyParallel_DisassociateCurrentThreadFromCallback ENDP
_TEXT	ENDS
PUBLIC	_PyParallel_ContextGuardFailure
PUBLIC	??_C@_0BJ@BPAJLFDI@_PyParallel_BlockingCall?$AA@ ; `string'
PUBLIC	??_C@_0BH@PGHBGAOD@?4?4?2Python?2pyparallel?4c?$AA@ ; `string'
PUBLIC	_PyParallel_BlockingCall
;	COMDAT pdata
pdata	SEGMENT
$pdata$_PyParallel_BlockingCall DD imagerel $LN8
	DD	imagerel $LN8+210
	DD	imagerel $unwind$_PyParallel_BlockingCall
pdata	ENDS
;	COMDAT xdata
xdata	SEGMENT
$unwind$_PyParallel_BlockingCall DD 010401H
	DD	08204H
xdata	ENDS
;	COMDAT ??_C@_0BJ@BPAJLFDI@_PyParallel_BlockingCall?$AA@
CONST	SEGMENT
??_C@_0BJ@BPAJLFDI@_PyParallel_BlockingCall?$AA@ DB '_PyParallel_Blocking'
	DB	'Call', 00H					; `string'
CONST	ENDS
;	COMDAT ??_C@_0BH@PGHBGAOD@?4?4?2Python?2pyparallel?4c?$AA@
CONST	SEGMENT
??_C@_0BH@PGHBGAOD@?4?4?2Python?2pyparallel?4c?$AA@ DB '..\Python\pyparal'
	DB	'lel.c', 00H					; `string'
; Function compile flags: /Odtp
CONST	ENDS
;	COMDAT _PyParallel_BlockingCall
_TEXT	SEGMENT
s$ = 32
c$ = 40
tv74 = 48
tv87 = 56
_PyParallel_BlockingCall PROC				; COMDAT

; 551  : {

$LN8:
  00000	48 83 ec 48	 sub	 rsp, 72			; 00000048H

; 552  :     Context *c = ctx;

  00004	b8 00 00 00 00	 mov	 eax, OFFSET FLAT:ctx
  00009	8b c0		 mov	 eax, eax
  0000b	8b 0d 00 00 00
	00		 mov	 ecx, DWORD PTR _tls_index
  00011	65 48 8b 14 25
	58 00 00 00	 mov	 rdx, QWORD PTR gs:88
  0001a	48 8b 0c ca	 mov	 rcx, QWORD PTR [rdx+rcx*8]
  0001e	48 8b 04 08	 mov	 rax, QWORD PTR [rax+rcx]
  00022	48 89 44 24 28	 mov	 QWORD PTR c$[rsp], rax

; 553  :     Stats   *s = STATS(c);

  00027	48 8b 44 24 28	 mov	 rax, QWORD PTR c$[rsp]
  0002c	8b 80 f8 00 00
	00		 mov	 eax, DWORD PTR [rax+248]
  00032	83 e0 20	 and	 eax, 32			; 00000020H
  00035	85 c0		 test	 eax, eax
  00037	74 12		 je	 SHORT $LN6@PyParallel@7
  00039	48 8b 44 24 28	 mov	 rax, QWORD PTR c$[rsp]
  0003e	48 05 00 01 00
	00		 add	 rax, 256		; 00000100H
  00044	48 89 44 24 30	 mov	 QWORD PTR tv74[rsp], rax
  00049	eb 09		 jmp	 SHORT $LN7@PyParallel@7
$LN6@PyParallel@7:
  0004b	48 c7 44 24 30
	00 00 00 00	 mov	 QWORD PTR tv74[rsp], 0
$LN7@PyParallel@7:
  00054	48 8b 44 24 30	 mov	 rax, QWORD PTR tv74[rsp]
  00059	48 89 44 24 20	 mov	 QWORD PTR s$[rsp], rax

; 554  :     Px_GUARD

  0005e	e8 00 00 00 00	 call	 _Py_PXCTX
  00063	85 c0		 test	 eax, eax
  00065	75 1f		 jne	 SHORT $LN3@PyParallel@7
  00067	41 b9 01 00 00
	00		 mov	 r9d, 1
  0006d	41 b8 2a 02 00
	00		 mov	 r8d, 554		; 0000022aH
  00073	48 8d 15 00 00
	00 00		 lea	 rdx, OFFSET FLAT:??_C@_0BH@PGHBGAOD@?4?4?2Python?2pyparallel?4c?$AA@
  0007a	48 8d 0d 00 00
	00 00		 lea	 rcx, OFFSET FLAT:??_C@_0BJ@BPAJLFDI@_PyParallel_BlockingCall?$AA@
  00081	e8 00 00 00 00	 call	 _PyParallel_ContextGuardFailure
$LN3@PyParallel@7:

; 555  : 
; 556  :     if (Px_CTX_IS_DISASSOCIATED(c))

  00086	48 8b 44 24 28	 mov	 rax, QWORD PTR c$[rsp]
  0008b	8b 80 f8 00 00
	00		 mov	 eax, DWORD PTR [rax+248]
  00091	83 e0 10	 and	 eax, 16
  00094	85 c0		 test	 eax, eax
  00096	74 02		 je	 SHORT $LN2@PyParallel@7

; 557  :         return;

  00098	eb 33		 jmp	 SHORT $LN4@PyParallel@7
$LN2@PyParallel@7:

; 558  : 
; 559  :     if (s && ++s->blocking_calls > _PxBlockingCallsThreshold)

  0009a	48 83 7c 24 20
	00		 cmp	 QWORD PTR s$[rsp], 0
  000a0	74 2b		 je	 SHORT $LN1@PyParallel@7
  000a2	48 8b 44 24 20	 mov	 rax, QWORD PTR s$[rsp]
  000a7	8b 40 38	 mov	 eax, DWORD PTR [rax+56]
  000aa	ff c0		 inc	 eax
  000ac	89 44 24 38	 mov	 DWORD PTR tv87[rsp], eax
  000b0	48 8b 44 24 20	 mov	 rax, QWORD PTR s$[rsp]
  000b5	8b 4c 24 38	 mov	 ecx, DWORD PTR tv87[rsp]
  000b9	89 48 38	 mov	 DWORD PTR [rax+56], ecx
  000bc	8b 05 00 00 00
	00		 mov	 eax, DWORD PTR _PxBlockingCallsThreshold
  000c2	39 44 24 38	 cmp	 DWORD PTR tv87[rsp], eax
  000c6	7e 05		 jle	 SHORT $LN1@PyParallel@7

; 560  :         _PyParallel_DisassociateCurrentThreadFromCallback();

  000c8	e8 00 00 00 00	 call	 _PyParallel_DisassociateCurrentThreadFromCallback
$LN1@PyParallel@7:
$LN4@PyParallel@7:

; 561  : }

  000cd	48 83 c4 48	 add	 rsp, 72			; 00000048H
  000d1	c3		 ret	 0
_PyParallel_BlockingCall ENDP
_TEXT	ENDS
PUBLIC	_PyHeap_MemAlignedMalloc
;	COMDAT pdata
pdata	SEGMENT
$pdata$_PyHeap_MemAlignedMalloc DD imagerel $LN3
	DD	imagerel $LN3+43
	DD	imagerel $unwind$_PyHeap_MemAlignedMalloc
pdata	ENDS
;	COMDAT xdata
xdata	SEGMENT
$unwind$_PyHeap_MemAlignedMalloc DD 010e01H
	DD	0420eH
; Function compile flags: /Odtp
xdata	ENDS
;	COMDAT _PyHeap_MemAlignedMalloc
_TEXT	SEGMENT
c$ = 48
n$ = 56
_PyHeap_MemAlignedMalloc PROC				; COMDAT

; 566  : {

$LN3:
  00000	48 89 54 24 10	 mov	 QWORD PTR [rsp+16], rdx
  00005	48 89 4c 24 08	 mov	 QWORD PTR [rsp+8], rcx
  0000a	48 83 ec 28	 sub	 rsp, 40			; 00000028H

; 567  :     return _PyHeap_Malloc(c, n, Px_MEM_ALIGN_SIZE, 0);

  0000e	45 33 c9	 xor	 r9d, r9d
  00011	41 b8 10 00 00
	00		 mov	 r8d, 16
  00017	48 8b 54 24 38	 mov	 rdx, QWORD PTR n$[rsp]
  0001c	48 8b 4c 24 30	 mov	 rcx, QWORD PTR c$[rsp]
  00021	e8 00 00 00 00	 call	 _PyHeap_Malloc

; 568  : }

  00026	48 83 c4 28	 add	 rsp, 40			; 00000028H
  0002a	c3		 ret	 0
_PyHeap_MemAlignedMalloc ENDP
_TEXT	ENDS
PUBLIC	_PyHeap_NewListItem
;	COMDAT pdata
pdata	SEGMENT
$pdata$_PyHeap_NewListItem DD imagerel $LN3
	DD	imagerel $LN3+29
	DD	imagerel $unwind$_PyHeap_NewListItem
pdata	ENDS
;	COMDAT xdata
xdata	SEGMENT
$unwind$_PyHeap_NewListItem DD 010901H
	DD	04209H
; Function compile flags: /Odtp
xdata	ENDS
;	COMDAT _PyHeap_NewListItem
_TEXT	SEGMENT
c$ = 48
_PyHeap_NewListItem PROC				; COMDAT

; 573  : {

$LN3:
  00000	48 89 4c 24 08	 mov	 QWORD PTR [rsp+8], rcx
  00005	48 83 ec 28	 sub	 rsp, 40			; 00000028H

; 574  :     return (PxListItem *)_PyHeap_MemAlignedMalloc(c, sizeof(PxListItem));

  00009	ba 40 00 00 00	 mov	 edx, 64			; 00000040H
  0000e	48 8b 4c 24 30	 mov	 rcx, QWORD PTR c$[rsp]
  00013	e8 00 00 00 00	 call	 _PyHeap_MemAlignedMalloc

; 575  : }

  00018	48 83 c4 28	 add	 rsp, 40			; 00000028H
  0001c	c3		 ret	 0
_PyHeap_NewListItem ENDP
_TEXT	ENDS
PUBLIC	_PyHeap_NewList
EXTRN	__imp_InitializeSListHead:PROC
;	COMDAT pdata
pdata	SEGMENT
$pdata$_PyHeap_NewList DD imagerel $LN4
	DD	imagerel $LN4+58
	DD	imagerel $unwind$_PyHeap_NewList
pdata	ENDS
;	COMDAT xdata
xdata	SEGMENT
$unwind$_PyHeap_NewList DD 010901H
	DD	06209H
; Function compile flags: /Odtp
xdata	ENDS
;	COMDAT _PyHeap_NewList
_TEXT	SEGMENT
l$ = 32
c$ = 64
_PyHeap_NewList PROC					; COMDAT

; 580  : {

$LN4:
  00000	48 89 4c 24 08	 mov	 QWORD PTR [rsp+8], rcx
  00005	48 83 ec 38	 sub	 rsp, 56			; 00000038H

; 581  :     PxListHead *l;
; 582  : 
; 583  :     l = (PxListHead *)_PyHeap_MemAlignedMalloc(c, sizeof(PxListHead));

  00009	ba 10 00 00 00	 mov	 edx, 16
  0000e	48 8b 4c 24 40	 mov	 rcx, QWORD PTR c$[rsp]
  00013	e8 00 00 00 00	 call	 _PyHeap_MemAlignedMalloc
  00018	48 89 44 24 20	 mov	 QWORD PTR l$[rsp], rax

; 584  :     if (l)

  0001d	48 83 7c 24 20
	00		 cmp	 QWORD PTR l$[rsp], 0
  00023	74 0b		 je	 SHORT $LN1@PyHeap_New

; 585  :         InitializeSListHead(l);

  00025	48 8b 4c 24 20	 mov	 rcx, QWORD PTR l$[rsp]
  0002a	ff 15 00 00 00
	00		 call	 QWORD PTR __imp_InitializeSListHead
$LN1@PyHeap_New:

; 586  : 
; 587  :     return l;

  00030	48 8b 44 24 20	 mov	 rax, QWORD PTR l$[rsp]

; 588  : }

  00035	48 83 c4 38	 add	 rsp, 56			; 00000038H
  00039	c3		 ret	 0
_PyHeap_NewList ENDP
_TEXT	ENDS
PUBLIC	??_C@_1CO@DEBCAOHM@?$AAP?$AAy?$AA_?$AAM?$AAa?$AAi?$AAn?$AAP?$AAr?$AAo?$AAc?$AAe?$AAs?$AAs?$AAI?$AAd?$AA?5?$AA?$CB?$AA?$DN?$AA?5?$AA?9?$AA1?$AA?$AA@ ; `string'
PUBLIC	??_C@_1CI@LEOGFFNH@?$AAP?$AAy?$AA_?$AAM?$AAa?$AAi?$AAn?$AAT?$AAh?$AAr?$AAe?$AAa?$AAd?$AAI?$AAd?$AA?5?$AA?$DO?$AA?5?$AA0?$AA?$AA@ ; `string'
;	COMDAT pdata
pdata	SEGMENT
$pdata$_Py_PXCTX DD imagerel $LN7
	DD	imagerel $LN7+129
	DD	imagerel $unwind$_Py_PXCTX
pdata	ENDS
;	COMDAT xdata
xdata	SEGMENT
$unwind$_Py_PXCTX DD 010401H
	DD	06204H
xdata	ENDS
;	COMDAT ??_C@_1CO@DEBCAOHM@?$AAP?$AAy?$AA_?$AAM?$AAa?$AAi?$AAn?$AAP?$AAr?$AAo?$AAc?$AAe?$AAs?$AAs?$AAI?$AAd?$AA?5?$AA?$CB?$AA?$DN?$AA?5?$AA?9?$AA1?$AA?$AA@
CONST	SEGMENT
??_C@_1CO@DEBCAOHM@?$AAP?$AAy?$AA_?$AAM?$AAa?$AAi?$AAn?$AAP?$AAr?$AAo?$AAc?$AAe?$AAs?$AAs?$AAI?$AAd?$AA?5?$AA?$CB?$AA?$DN?$AA?5?$AA?9?$AA1?$AA?$AA@ DB 'P'
	DB	00H, 'y', 00H, '_', 00H, 'M', 00H, 'a', 00H, 'i', 00H, 'n', 00H
	DB	'P', 00H, 'r', 00H, 'o', 00H, 'c', 00H, 'e', 00H, 's', 00H, 's'
	DB	00H, 'I', 00H, 'd', 00H, ' ', 00H, '!', 00H, '=', 00H, ' ', 00H
	DB	'-', 00H, '1', 00H, 00H, 00H			; `string'
CONST	ENDS
;	COMDAT ??_C@_1CI@LEOGFFNH@?$AAP?$AAy?$AA_?$AAM?$AAa?$AAi?$AAn?$AAT?$AAh?$AAr?$AAe?$AAa?$AAd?$AAI?$AAd?$AA?5?$AA?$DO?$AA?5?$AA0?$AA?$AA@
CONST	SEGMENT
??_C@_1CI@LEOGFFNH@?$AAP?$AAy?$AA_?$AAM?$AAa?$AAi?$AAn?$AAT?$AAh?$AAr?$AAe?$AAa?$AAd?$AAI?$AAd?$AA?5?$AA?$DO?$AA?5?$AA0?$AA?$AA@ DB 'P'
	DB	00H, 'y', 00H, '_', 00H, 'M', 00H, 'a', 00H, 'i', 00H, 'n', 00H
	DB	'T', 00H, 'h', 00H, 'r', 00H, 'e', 00H, 'a', 00H, 'd', 00H, 'I'
	DB	00H, 'd', 00H, ' ', 00H, '>', 00H, ' ', 00H, '0', 00H, 00H, 00H ; `string'
; Function compile flags: /Odtp
CONST	ENDS
;	COMDAT _Py_PXCTX
_TEXT	SEGMENT
active$ = 32
tv67 = 36
_Py_PXCTX PROC						; COMDAT

; 593  : {

$LN7:
  00000	48 83 ec 38	 sub	 rsp, 56			; 00000038H

; 594  :     int active = (int)(Py_MainThreadId != _Py_get_current_thread_id());

  00004	65 8b 04 25 48
	00 00 00	 mov	 eax, DWORD PTR gs:72
  0000c	39 05 00 00 00
	00		 cmp	 DWORD PTR Py_MainThreadId, eax
  00012	74 0a		 je	 SHORT $LN3@Py_PXCTX
  00014	c7 44 24 24 01
	00 00 00	 mov	 DWORD PTR tv67[rsp], 1
  0001c	eb 08		 jmp	 SHORT $LN4@Py_PXCTX
$LN3@Py_PXCTX:
  0001e	c7 44 24 24 00
	00 00 00	 mov	 DWORD PTR tv67[rsp], 0
$LN4@Py_PXCTX:
  00026	8b 44 24 24	 mov	 eax, DWORD PTR tv67[rsp]
  0002a	89 44 24 20	 mov	 DWORD PTR active$[rsp], eax

; 595  :     assert(Py_MainThreadId > 0);

  0002e	83 3d 00 00 00
	00 00		 cmp	 DWORD PTR Py_MainThreadId, 0
  00035	7f 1c		 jg	 SHORT $LN5@Py_PXCTX
  00037	41 b8 53 02 00
	00		 mov	 r8d, 595		; 00000253H
  0003d	48 8d 15 00 00
	00 00		 lea	 rdx, OFFSET FLAT:??_C@_1CO@DPMFPEGF@?$AA?4?$AA?4?$AA?2?$AAP?$AAy?$AAt?$AAh?$AAo?$AAn?$AA?2?$AAp?$AAy?$AAp?$AAa?$AAr?$AAa?$AAl?$AAl?$AAe?$AAl?$AA?4?$AAc?$AA?$AA@
  00044	48 8d 0d 00 00
	00 00		 lea	 rcx, OFFSET FLAT:??_C@_1CI@LEOGFFNH@?$AAP?$AAy?$AA_?$AAM?$AAa?$AAi?$AAn?$AAT?$AAh?$AAr?$AAe?$AAa?$AAd?$AAI?$AAd?$AA?5?$AA?$DO?$AA?5?$AA0?$AA?$AA@
  0004b	ff 15 00 00 00
	00		 call	 QWORD PTR __imp__wassert
  00051	33 c0		 xor	 eax, eax
$LN5@Py_PXCTX:

; 596  :     assert(Py_MainProcessId != -1);

  00053	83 3d 00 00 00
	00 ff		 cmp	 DWORD PTR Py_MainProcessId, -1
  0005a	75 1c		 jne	 SHORT $LN6@Py_PXCTX
  0005c	41 b8 54 02 00
	00		 mov	 r8d, 596		; 00000254H
  00062	48 8d 15 00 00
	00 00		 lea	 rdx, OFFSET FLAT:??_C@_1CO@DPMFPEGF@?$AA?4?$AA?4?$AA?2?$AAP?$AAy?$AAt?$AAh?$AAo?$AAn?$AA?2?$AAp?$AAy?$AAp?$AAa?$AAr?$AAa?$AAl?$AAl?$AAe?$AAl?$AA?4?$AAc?$AA?$AA@
  00069	48 8d 0d 00 00
	00 00		 lea	 rcx, OFFSET FLAT:??_C@_1CO@DEBCAOHM@?$AAP?$AAy?$AA_?$AAM?$AAa?$AAi?$AAn?$AAP?$AAr?$AAo?$AAc?$AAe?$AAs?$AAs?$AAI?$AAd?$AA?5?$AA?$CB?$AA?$DN?$AA?5?$AA?9?$AA1?$AA?$AA@
  00070	ff 15 00 00 00
	00		 call	 QWORD PTR __imp__wassert
  00076	33 c0		 xor	 eax, eax
$LN6@Py_PXCTX:

; 597  :     return active;

  00078	8b 44 24 20	 mov	 eax, DWORD PTR active$[rsp]

; 598  : }

  0007c	48 83 c4 38	 add	 rsp, 56			; 00000038H
  00080	c3		 ret	 0
_Py_PXCTX ENDP
_TEXT	ENDS
PUBLIC	_PxMem_Free
PUBLIC	??_C@_1CA@LIAOCINA@?$AAP?$AAy?$AA_?$AAO?$AAR?$AAI?$AAG?$AA_?$AAT?$AAY?$AAP?$AAE?$AA?$CI?$AAo?$AA?$CJ?$AA?$AA@ ; `string'
PUBLIC	_PyParallel_Guard
PUBLIC	??_C@_0BC@MJMFODLA@_PyObject_Dealloc?$AA@	; `string'
PUBLIC	_PyObject_Dealloc
EXTRN	_PyMem_DebugFree:PROC
EXTRN	__imp_CloseHandle:PROC
;	COMDAT pdata
pdata	SEGMENT
$pdata$_PyObject_Dealloc DD imagerel $LN10
	DD	imagerel $LN10+348
	DD	imagerel $unwind$_PyObject_Dealloc
pdata	ENDS
;	COMDAT xdata
xdata	SEGMENT
$unwind$_PyObject_Dealloc DD 010901H
	DD	0a209H
xdata	ENDS
;	COMDAT ??_C@_1CA@LIAOCINA@?$AAP?$AAy?$AA_?$AAO?$AAR?$AAI?$AAG?$AA_?$AAT?$AAY?$AAP?$AAE?$AA?$CI?$AAo?$AA?$CJ?$AA?$AA@
CONST	SEGMENT
??_C@_1CA@LIAOCINA@?$AAP?$AAy?$AA_?$AAO?$AAR?$AAI?$AAG?$AA_?$AAT?$AAY?$AAP?$AAE?$AA?$CI?$AAo?$AA?$CJ?$AA?$AA@ DB 'P'
	DB	00H, 'y', 00H, '_', 00H, 'O', 00H, 'R', 00H, 'I', 00H, 'G', 00H
	DB	'_', 00H, 'T', 00H, 'Y', 00H, 'P', 00H, 'E', 00H, '(', 00H, 'o'
	DB	00H, ')', 00H, 00H, 00H			; `string'
CONST	ENDS
;	COMDAT ??_C@_0BC@MJMFODLA@_PyObject_Dealloc?$AA@
CONST	SEGMENT
??_C@_0BC@MJMFODLA@_PyObject_Dealloc?$AA@ DB '_PyObject_Dealloc', 00H ; `string'
; Function compile flags: /Odtp
CONST	ENDS
;	COMDAT _PyObject_Dealloc
_TEXT	SEGMENT
mm$ = 48
d$ = 56
tp$ = 64
tv130 = 72
tv135 = 76
o$ = 96
_PyObject_Dealloc PROC					; COMDAT

; 602  : {

$LN10:
  00000	48 89 4c 24 08	 mov	 QWORD PTR [rsp+8], rcx
  00005	48 83 ec 58	 sub	 rsp, 88			; 00000058H

; 603  :     PyTypeObject *tp;
; 604  :     PyMappingMethods *mm;
; 605  :     //PySequenceMethods *sm;
; 606  :     destructor d;
; 607  : 
; 608  :     Py_GUARD_OBJ(o);

  00009	c7 44 24 20 20
	00 00 00	 mov	 DWORD PTR [rsp+32], 32	; 00000020H
  00011	4c 8b 4c 24 60	 mov	 r9, QWORD PTR o$[rsp]
  00016	41 b8 60 02 00
	00		 mov	 r8d, 608		; 00000260H
  0001c	48 8d 15 00 00
	00 00		 lea	 rdx, OFFSET FLAT:??_C@_0BH@PGHBGAOD@?4?4?2Python?2pyparallel?4c?$AA@
  00023	48 8d 0d 00 00
	00 00		 lea	 rcx, OFFSET FLAT:??_C@_0BC@MJMFODLA@_PyObject_Dealloc?$AA@
  0002a	e8 00 00 00 00	 call	 _PyParallel_Guard

; 609  :     Py_GUARD

  0002f	e8 00 00 00 00	 call	 _Py_PXCTX
  00034	85 c0		 test	 eax, eax
  00036	74 1c		 je	 SHORT $LN2@PyObject_D
  00038	45 33 c9	 xor	 r9d, r9d
  0003b	41 b8 61 02 00
	00		 mov	 r8d, 609		; 00000261H
  00041	48 8d 15 00 00
	00 00		 lea	 rdx, OFFSET FLAT:??_C@_0BH@PGHBGAOD@?4?4?2Python?2pyparallel?4c?$AA@
  00048	48 8d 0d 00 00
	00 00		 lea	 rcx, OFFSET FLAT:??_C@_0BC@MJMFODLA@_PyObject_Dealloc?$AA@
  0004f	e8 00 00 00 00	 call	 _PyParallel_ContextGuardFailure
$LN2@PyObject_D:

; 610  : 
; 611  :     assert(Py_ORIG_TYPE(o));

  00054	48 8b 44 24 60	 mov	 rax, QWORD PTR o$[rsp]
  00059	48 83 78 38 00	 cmp	 QWORD PTR [rax+56], 0
  0005e	75 1c		 jne	 SHORT $LN5@PyObject_D
  00060	41 b8 63 02 00
	00		 mov	 r8d, 611		; 00000263H
  00066	48 8d 15 00 00
	00 00		 lea	 rdx, OFFSET FLAT:??_C@_1CO@DPMFPEGF@?$AA?4?$AA?4?$AA?2?$AAP?$AAy?$AAt?$AAh?$AAo?$AAn?$AA?2?$AAp?$AAy?$AAp?$AAa?$AAr?$AAa?$AAl?$AAl?$AAe?$AAl?$AA?4?$AAc?$AA?$AA@
  0006d	48 8d 0d 00 00
	00 00		 lea	 rcx, OFFSET FLAT:??_C@_1CA@LIAOCINA@?$AAP?$AAy?$AA_?$AAO?$AAR?$AAI?$AAG?$AA_?$AAT?$AAY?$AAP?$AAE?$AA?$CI?$AAo?$AA?$CJ?$AA?$AA@
  00074	ff 15 00 00 00
	00		 call	 QWORD PTR __imp__wassert
  0007a	33 c0		 xor	 eax, eax
$LN5@PyObject_D:

; 612  : 
; 613  :     if (Py_HAS_EVENT(o))

  0007c	48 8b 44 24 60	 mov	 rax, QWORD PTR o$[rsp]
  00081	48 8b 40 20	 mov	 rax, QWORD PTR [rax+32]
  00085	48 83 e0 08	 and	 rax, 8
  00089	48 85 c0	 test	 rax, rax
  0008c	74 0f		 je	 SHORT $LN1@PyObject_D

; 614  :         PyEvent_DESTROY(o);

  0008e	48 8b 44 24 60	 mov	 rax, QWORD PTR o$[rsp]
  00093	48 8b 48 30	 mov	 rcx, QWORD PTR [rax+48]
  00097	ff 15 00 00 00
	00		 call	 QWORD PTR __imp_CloseHandle
$LN1@PyObject_D:

; 615  : 
; 616  :     tp = Py_TYPE(o);

  0009d	48 8b 44 24 60	 mov	 rax, QWORD PTR o$[rsp]
  000a2	48 8b 40 58	 mov	 rax, QWORD PTR [rax+88]
  000a6	48 89 44 24 40	 mov	 QWORD PTR tp$[rsp], rax

; 617  :     mm = tp->tp_as_mapping;

  000ab	48 8b 44 24 40	 mov	 rax, QWORD PTR tp$[rsp]
  000b0	48 8b 80 c8 00
	00 00		 mov	 rax, QWORD PTR [rax+200]
  000b7	48 89 44 24 30	 mov	 QWORD PTR mm$[rsp], rax

; 618  :     //sm = tp->tp_as_sequence;
; 619  :     d = Py_ORIG_TYPE_CAST(o)->tp_dealloc;

  000bc	48 8b 44 24 60	 mov	 rax, QWORD PTR o$[rsp]
  000c1	48 8b 40 38	 mov	 rax, QWORD PTR [rax+56]
  000c5	48 8b 80 88 00
	00 00		 mov	 rax, QWORD PTR [rax+136]
  000cc	48 89 44 24 38	 mov	 QWORD PTR d$[rsp], rax

; 620  :     Py_TYPE(o) = Py_ORIG_TYPE(o);

  000d1	48 8b 44 24 60	 mov	 rax, QWORD PTR o$[rsp]
  000d6	48 8b 4c 24 60	 mov	 rcx, QWORD PTR o$[rsp]
  000db	48 8b 49 38	 mov	 rcx, QWORD PTR [rcx+56]
  000df	48 89 48 58	 mov	 QWORD PTR [rax+88], rcx

; 621  :     Py_ORIG_TYPE(o) = NULL;

  000e3	48 8b 44 24 60	 mov	 rax, QWORD PTR o$[rsp]
  000e8	48 c7 40 38 00
	00 00 00	 mov	 QWORD PTR [rax+56], 0

; 622  :     (*d)(o);

  000f0	48 8b 4c 24 60	 mov	 rcx, QWORD PTR o$[rsp]
  000f5	ff 54 24 38	 call	 QWORD PTR d$[rsp]

; 623  :     PyMem_FREE(tp);

  000f9	e8 00 00 00 00	 call	 _Py_PXCTX
  000fe	85 c0		 test	 eax, eax
  00100	74 14		 je	 SHORT $LN6@PyObject_D
  00102	48 8b 4c 24 40	 mov	 rcx, QWORD PTR tp$[rsp]
  00107	e8 00 00 00 00	 call	 _PxMem_Free
  0010c	c7 44 24 48 00
	00 00 00	 mov	 DWORD PTR tv130[rsp], 0
  00114	eb 12		 jmp	 SHORT $LN7@PyObject_D
$LN6@PyObject_D:
  00116	48 8b 4c 24 40	 mov	 rcx, QWORD PTR tp$[rsp]
  0011b	e8 00 00 00 00	 call	 _PyMem_DebugFree
  00120	c7 44 24 48 00
	00 00 00	 mov	 DWORD PTR tv130[rsp], 0
$LN7@PyObject_D:

; 624  :     PyMem_FREE(mm);

  00128	e8 00 00 00 00	 call	 _Py_PXCTX
  0012d	85 c0		 test	 eax, eax
  0012f	74 14		 je	 SHORT $LN8@PyObject_D
  00131	48 8b 4c 24 30	 mov	 rcx, QWORD PTR mm$[rsp]
  00136	e8 00 00 00 00	 call	 _PxMem_Free
  0013b	c7 44 24 4c 00
	00 00 00	 mov	 DWORD PTR tv135[rsp], 0
  00143	eb 12		 jmp	 SHORT $LN9@PyObject_D
$LN8@PyObject_D:
  00145	48 8b 4c 24 30	 mov	 rcx, QWORD PTR mm$[rsp]
  0014a	e8 00 00 00 00	 call	 _PyMem_DebugFree
  0014f	c7 44 24 4c 00
	00 00 00	 mov	 DWORD PTR tv135[rsp], 0
$LN9@PyObject_D:

; 625  :     //PyMem_FREE(sm);
; 626  : }

  00157	48 83 c4 58	 add	 rsp, 88			; 00000058H
  0015b	c3		 ret	 0
_PyObject_Dealloc ENDP
_TEXT	ENDS
PUBLIC	_protected
EXTRN	_PyObject_GetDictPtr:PROC
;	COMDAT pdata
pdata	SEGMENT
$pdata$_protected DD imagerel $LN7
	DD	imagerel $LN7+131
	DD	imagerel $unwind$_protected
pdata	ENDS
;	COMDAT xdata
xdata	SEGMENT
$unwind$_protected DD 010901H
	DD	08209H
; Function compile flags: /Odtp
xdata	ENDS
;	COMDAT _protected
_TEXT	SEGMENT
dp$ = 32
tv76 = 40
tv75 = 48
obj$ = 80
_protected PROC						; COMDAT

; 631  : {

$LN7:
  00000	48 89 4c 24 08	 mov	 QWORD PTR [rsp+8], rcx
  00005	48 83 ec 48	 sub	 rsp, 72			; 00000048H

; 632  :     PyObject **dp;
; 633  :     dp = _PyObject_GetDictPtr(obj);

  00009	48 8b 4c 24 50	 mov	 rcx, QWORD PTR obj$[rsp]
  0000e	e8 00 00 00 00	 call	 _PyObject_GetDictPtr
  00013	48 89 44 24 20	 mov	 QWORD PTR dp$[rsp], rax

; 634  :     return (!dp ? Px_ISPROTECTED(obj) :
; 635  :                   Px_ISPROTECTED(obj) && Px_ISPROTECTED(*dp));

  00018	48 83 7c 24 20
	00		 cmp	 QWORD PTR dp$[rsp], 0
  0001e	75 14		 jne	 SHORT $LN5@protected
  00020	48 8b 44 24 50	 mov	 rax, QWORD PTR obj$[rsp]
  00025	48 8b 40 20	 mov	 rax, QWORD PTR [rax+32]
  00029	48 83 e0 04	 and	 rax, 4
  0002d	48 89 44 24 28	 mov	 QWORD PTR tv76[rsp], rax
  00032	eb 45		 jmp	 SHORT $LN6@protected
$LN5@protected:
  00034	48 8b 44 24 50	 mov	 rax, QWORD PTR obj$[rsp]
  00039	48 8b 40 20	 mov	 rax, QWORD PTR [rax+32]
  0003d	48 83 e0 04	 and	 rax, 4
  00041	48 85 c0	 test	 rax, rax
  00044	74 20		 je	 SHORT $LN3@protected
  00046	48 8b 44 24 20	 mov	 rax, QWORD PTR dp$[rsp]
  0004b	48 8b 00	 mov	 rax, QWORD PTR [rax]
  0004e	48 8b 40 20	 mov	 rax, QWORD PTR [rax+32]
  00052	48 83 e0 04	 and	 rax, 4
  00056	48 85 c0	 test	 rax, rax
  00059	74 0b		 je	 SHORT $LN3@protected
  0005b	48 c7 44 24 30
	01 00 00 00	 mov	 QWORD PTR tv75[rsp], 1
  00064	eb 09		 jmp	 SHORT $LN4@protected
$LN3@protected:
  00066	48 c7 44 24 30
	00 00 00 00	 mov	 QWORD PTR tv75[rsp], 0
$LN4@protected:
  0006f	48 8b 44 24 30	 mov	 rax, QWORD PTR tv75[rsp]
  00074	48 89 44 24 28	 mov	 QWORD PTR tv76[rsp], rax
$LN6@protected:
  00079	0f b6 44 24 28	 movzx	 eax, BYTE PTR tv76[rsp]

; 636  : }

  0007e	48 83 c4 48	 add	 rsp, 72			; 00000048H
  00082	c3		 ret	 0
_protected ENDP
_TEXT	ENDS
PUBLIC	_Py_IncRef
EXTRN	_Py_FalseStruct:BYTE
EXTRN	_Py_TrueStruct:BYTE
;	COMDAT pdata
pdata	SEGMENT
$pdata$_async_protected DD imagerel $LN5
	DD	imagerel $LN5+101
	DD	imagerel $unwind$_async_protected
pdata	ENDS
;	COMDAT xdata
xdata	SEGMENT
$unwind$_async_protected DD 010e01H
	DD	0620eH
; Function compile flags: /Odtp
xdata	ENDS
;	COMDAT _async_protected
_TEXT	SEGMENT
tv71 = 32
self$ = 64
obj$ = 72
_async_protected PROC					; COMDAT

; 640  : {

$LN5:
  00000	48 89 54 24 10	 mov	 QWORD PTR [rsp+16], rdx
  00005	48 89 4c 24 08	 mov	 QWORD PTR [rsp+8], rcx
  0000a	48 83 ec 38	 sub	 rsp, 56			; 00000038H

; 641  :     Py_INCREF(obj);

  0000e	48 8b 4c 24 48	 mov	 rcx, QWORD PTR obj$[rsp]
  00013	e8 00 00 00 00	 call	 _Py_IncRef

; 642  :     Py_RETURN_BOOL(_protected(obj));

  00018	48 8b 4c 24 48	 mov	 rcx, QWORD PTR obj$[rsp]
  0001d	e8 00 00 00 00	 call	 _protected
  00022	0f be c0	 movsx	 eax, al
  00025	85 c0		 test	 eax, eax
  00027	74 1a		 je	 SHORT $LN3@async_prot
  00029	48 8d 0d 00 00
	00 00		 lea	 rcx, OFFSET FLAT:_Py_TrueStruct
  00030	e8 00 00 00 00	 call	 _Py_IncRef
  00035	48 8d 05 00 00
	00 00		 lea	 rax, OFFSET FLAT:_Py_TrueStruct
  0003c	48 89 44 24 20	 mov	 QWORD PTR tv71[rsp], rax
  00041	eb 18		 jmp	 SHORT $LN4@async_prot
$LN3@async_prot:
  00043	48 8d 0d 00 00
	00 00		 lea	 rcx, OFFSET FLAT:_Py_FalseStruct
  0004a	e8 00 00 00 00	 call	 _Py_IncRef
  0004f	48 8d 05 00 00
	00 00		 lea	 rax, OFFSET FLAT:_Py_FalseStruct
  00056	48 89 44 24 20	 mov	 QWORD PTR tv71[rsp], rax
$LN4@async_prot:
  0005b	48 8b 44 24 20	 mov	 rax, QWORD PTR tv71[rsp]

; 643  : }

  00060	48 83 c4 38	 add	 rsp, 56			; 00000038H
  00064	c3		 ret	 0
_async_protected ENDP
_TEXT	ENDS
PUBLIC	??_C@_0L@DHGMCEID@_Py_IncRef?$AA@		; `string'
PUBLIC	??_C@_0CD@HDJFDCDP@c?3?2src?2pyparallel?2include?2object@ ; `string'
EXTRN	_Py_RefTotal:QWORD
;	COMDAT pdata
; File c:\src\pyparallel\include\object.h
pdata	SEGMENT
$pdata$_Py_IncRef DD imagerel $LN7
	DD	imagerel $LN7+132
	DD	imagerel $unwind$_Py_IncRef
pdata	ENDS
;	COMDAT xdata
xdata	SEGMENT
$unwind$_Py_IncRef DD 010901H
	DD	06209H
xdata	ENDS
;	COMDAT ??_C@_0L@DHGMCEID@_Py_IncRef?$AA@
CONST	SEGMENT
??_C@_0L@DHGMCEID@_Py_IncRef?$AA@ DB '_Py_IncRef', 00H	; `string'
CONST	ENDS
;	COMDAT ??_C@_0CD@HDJFDCDP@c?3?2src?2pyparallel?2include?2object@
CONST	SEGMENT
??_C@_0CD@HDJFDCDP@c?3?2src?2pyparallel?2include?2object@ DB 'c:\src\pypa'
	DB	'rallel\include\object.h', 00H		; `string'
; Function compile flags: /Odtp
CONST	ENDS
;	COMDAT _Py_IncRef
_TEXT	SEGMENT
op$ = 64
_Py_IncRef PROC						; COMDAT

; 904  : {

$LN7:
  00000	48 89 4c 24 08	 mov	 QWORD PTR [rsp+8], rcx
  00005	48 83 ec 38	 sub	 rsp, 56			; 00000038H

; 905  :     if ((!Py_PXCTX && (Py_ISPY(op) || Px_PERSISTED(op)))) {

  00009	e8 00 00 00 00	 call	 _Py_PXCTX
  0000e	85 c0		 test	 eax, eax
  00010	75 6d		 jne	 SHORT $LN2@Py_IncRef
  00012	c7 44 24 20 02
	00 00 00	 mov	 DWORD PTR [rsp+32], 2
  0001a	4c 8b 4c 24 40	 mov	 r9, QWORD PTR op$[rsp]
  0001f	41 b8 89 03 00
	00		 mov	 r8d, 905		; 00000389H
  00025	48 8d 15 00 00
	00 00		 lea	 rdx, OFFSET FLAT:??_C@_0CD@HDJFDCDP@c?3?2src?2pyparallel?2include?2object@
  0002c	48 8d 0d 00 00
	00 00		 lea	 rcx, OFFSET FLAT:??_C@_0L@DHGMCEID@_Py_IncRef?$AA@
  00033	e8 00 00 00 00	 call	 _PyParallel_Guard
  00038	85 c0		 test	 eax, eax
  0003a	75 12		 jne	 SHORT $LN1@Py_IncRef
  0003c	48 8b 44 24 40	 mov	 rax, QWORD PTR op$[rsp]
  00041	48 8b 40 20	 mov	 rax, QWORD PTR [rax+32]
  00045	48 83 e0 20	 and	 rax, 32			; 00000020H
  00049	48 85 c0	 test	 rax, rax
  0004c	74 31		 je	 SHORT $LN2@Py_IncRef
$LN1@Py_IncRef:

; 906  :         _Py_INC_REFTOTAL;

  0004e	e8 00 00 00 00	 call	 _Py_PXCTX
  00053	85 c0		 test	 eax, eax
  00055	74 02		 je	 SHORT $LN5@Py_IncRef
  00057	eb 11		 jmp	 SHORT $LN6@Py_IncRef
$LN5@Py_IncRef:
  00059	48 8b 05 00 00
	00 00		 mov	 rax, QWORD PTR _Py_RefTotal
  00060	48 ff c0	 inc	 rax
  00063	48 89 05 00 00
	00 00		 mov	 QWORD PTR _Py_RefTotal, rax
$LN6@Py_IncRef:

; 907  :         (((PyObject*)(op))->ob_refcnt++);

  0006a	48 8b 44 24 40	 mov	 rax, QWORD PTR op$[rsp]
  0006f	48 8b 40 50	 mov	 rax, QWORD PTR [rax+80]
  00073	48 ff c0	 inc	 rax
  00076	48 8b 4c 24 40	 mov	 rcx, QWORD PTR op$[rsp]
  0007b	48 89 41 50	 mov	 QWORD PTR [rcx+80], rax
$LN2@Py_IncRef:

; 908  :     }
; 909  : }

  0007f	48 83 c4 38	 add	 rsp, 56			; 00000038H
  00083	c3		 ret	 0
_Py_IncRef ENDP
_TEXT	ENDS
PUBLIC	_unprotect
;	COMDAT pdata
; File c:\src\pyparallel\python\pyparallel.c
pdata	SEGMENT
$pdata$_unprotect DD imagerel $LN5
	DD	imagerel $LN5+161
	DD	imagerel $unwind$_unprotect
pdata	ENDS
;	COMDAT xdata
xdata	SEGMENT
$unwind$_unprotect DD 010901H
	DD	06209H
; Function compile flags: /Odtp
xdata	ENDS
;	COMDAT _unprotect
_TEXT	SEGMENT
dp$ = 32
obj$ = 64
_unprotect PROC						; COMDAT

; 648  : {

$LN5:
  00000	48 89 4c 24 08	 mov	 QWORD PTR [rsp+8], rcx
  00005	48 83 ec 38	 sub	 rsp, 56			; 00000038H

; 649  :     PyObject **dp;
; 650  :     if (_protected(obj)) {

  00009	48 8b 4c 24 40	 mov	 rcx, QWORD PTR obj$[rsp]
  0000e	e8 00 00 00 00	 call	 _protected
  00013	0f be c0	 movsx	 eax, al
  00016	85 c0		 test	 eax, eax
  00018	74 27		 je	 SHORT $LN2@unprotect

; 651  :         Py_PXFLAGS(obj) &= ~Py_PXFLAGS_RWLOCK;

  0001a	48 8b 44 24 40	 mov	 rax, QWORD PTR obj$[rsp]
  0001f	b9 fb ff ff ff	 mov	 ecx, -5			; fffffffbH
  00024	48 8b 40 20	 mov	 rax, QWORD PTR [rax+32]
  00028	48 23 c1	 and	 rax, rcx
  0002b	48 8b 4c 24 40	 mov	 rcx, QWORD PTR obj$[rsp]
  00030	48 89 41 20	 mov	 QWORD PTR [rcx+32], rax

; 652  :         obj->srw_lock = NULL;

  00034	48 8b 44 24 40	 mov	 rax, QWORD PTR obj$[rsp]
  00039	48 c7 40 28 00
	00 00 00	 mov	 QWORD PTR [rax+40], 0
$LN2@unprotect:

; 653  :     }
; 654  :     dp = _PyObject_GetDictPtr(obj);

  00041	48 8b 4c 24 40	 mov	 rcx, QWORD PTR obj$[rsp]
  00046	e8 00 00 00 00	 call	 _PyObject_GetDictPtr
  0004b	48 89 44 24 20	 mov	 QWORD PTR dp$[rsp], rax

; 655  :     if (dp && _protected(*dp)) {

  00050	48 83 7c 24 20
	00		 cmp	 QWORD PTR dp$[rsp], 0
  00056	74 44		 je	 SHORT $LN1@unprotect
  00058	48 8b 44 24 20	 mov	 rax, QWORD PTR dp$[rsp]
  0005d	48 8b 08	 mov	 rcx, QWORD PTR [rax]
  00060	e8 00 00 00 00	 call	 _protected
  00065	0f be c0	 movsx	 eax, al
  00068	85 c0		 test	 eax, eax
  0006a	74 30		 je	 SHORT $LN1@unprotect

; 656  :         (*dp)->px_flags &= ~Py_PXFLAGS_RWLOCK;

  0006c	48 8b 44 24 20	 mov	 rax, QWORD PTR dp$[rsp]
  00071	48 8b 00	 mov	 rax, QWORD PTR [rax]
  00074	b9 fb ff ff ff	 mov	 ecx, -5			; fffffffbH
  00079	48 8b 40 20	 mov	 rax, QWORD PTR [rax+32]
  0007d	48 23 c1	 and	 rax, rcx
  00080	48 8b 4c 24 20	 mov	 rcx, QWORD PTR dp$[rsp]
  00085	48 8b 09	 mov	 rcx, QWORD PTR [rcx]
  00088	48 89 41 20	 mov	 QWORD PTR [rcx+32], rax

; 657  :         (*dp)->srw_lock = NULL;

  0008c	48 8b 44 24 20	 mov	 rax, QWORD PTR dp$[rsp]
  00091	48 8b 00	 mov	 rax, QWORD PTR [rax]
  00094	48 c7 40 28 00
	00 00 00	 mov	 QWORD PTR [rax+40], 0
$LN1@unprotect:

; 658  :     }
; 659  : }

  0009c	48 83 c4 38	 add	 rsp, 56			; 00000038H
  000a0	c3		 ret	 0
_unprotect ENDP
_TEXT	ENDS
PUBLIC	??_C@_0BB@JFIHBBGO@_async_unprotect?$AA@	; `string'
EXTRN	_Py_NoneStruct:BYTE
EXTRN	PyErr_SetNone:PROC
_BSS	SEGMENT
PyExc_ProtectionError DQ 01H DUP (?)
_BSS	ENDS
;	COMDAT pdata
pdata	SEGMENT
$pdata$_async_unprotect DD imagerel $LN4
	DD	imagerel $LN4+116
	DD	imagerel $unwind$_async_unprotect
pdata	ENDS
;	COMDAT xdata
xdata	SEGMENT
$unwind$_async_unprotect DD 010e01H
	DD	0620eH
xdata	ENDS
;	COMDAT ??_C@_0BB@JFIHBBGO@_async_unprotect?$AA@
CONST	SEGMENT
??_C@_0BB@JFIHBBGO@_async_unprotect?$AA@ DB '_async_unprotect', 00H ; `string'
; Function compile flags: /Odtp
CONST	ENDS
;	COMDAT _async_unprotect
_TEXT	SEGMENT
self$ = 64
obj$ = 72
_async_unprotect PROC					; COMDAT

; 663  : {

$LN4:
  00000	48 89 54 24 10	 mov	 QWORD PTR [rsp+16], rdx
  00005	48 89 4c 24 08	 mov	 QWORD PTR [rsp+8], rcx
  0000a	48 83 ec 38	 sub	 rsp, 56			; 00000038H

; 664  :     Py_INCREF(obj);

  0000e	48 8b 4c 24 48	 mov	 rcx, QWORD PTR obj$[rsp]
  00013	e8 00 00 00 00	 call	 _Py_IncRef

; 665  :     if (Py_ISPX(obj)) {

  00018	c7 44 24 20 10
	00 00 00	 mov	 DWORD PTR [rsp+32], 16
  00020	4c 8b 4c 24 48	 mov	 r9, QWORD PTR obj$[rsp]
  00025	41 b8 99 02 00
	00		 mov	 r8d, 665		; 00000299H
  0002b	48 8d 15 00 00
	00 00		 lea	 rdx, OFFSET FLAT:??_C@_0BH@PGHBGAOD@?4?4?2Python?2pyparallel?4c?$AA@
  00032	48 8d 0d 00 00
	00 00		 lea	 rcx, OFFSET FLAT:??_C@_0BB@JFIHBBGO@_async_unprotect?$AA@
  00039	e8 00 00 00 00	 call	 _PyParallel_Guard
  0003e	85 c0		 test	 eax, eax
  00040	74 10		 je	 SHORT $LN1@async_unpr

; 666  :         PyErr_SetNone(PyExc_ProtectionError);

  00042	48 8b 0d 00 00
	00 00		 mov	 rcx, QWORD PTR PyExc_ProtectionError
  00049	e8 00 00 00 00	 call	 PyErr_SetNone

; 667  :         return NULL;

  0004e	33 c0		 xor	 eax, eax
  00050	eb 1d		 jmp	 SHORT $LN2@async_unpr
$LN1@async_unpr:

; 668  :     }
; 669  :     _unprotect(obj);

  00052	48 8b 4c 24 48	 mov	 rcx, QWORD PTR obj$[rsp]
  00057	e8 00 00 00 00	 call	 _unprotect

; 670  :     Py_RETURN_NONE;

  0005c	48 8d 0d 00 00
	00 00		 lea	 rcx, OFFSET FLAT:_Py_NoneStruct
  00063	e8 00 00 00 00	 call	 _Py_IncRef
  00068	48 8d 05 00 00
	00 00		 lea	 rax, OFFSET FLAT:_Py_NoneStruct
$LN2@async_unpr:

; 671  : }

  0006f	48 83 c4 38	 add	 rsp, 56			; 00000038H
  00073	c3		 ret	 0
_async_unprotect ENDP
_TEXT	ENDS
PUBLIC	_read_lock
;	COMDAT pdata
pdata	SEGMENT
$pdata$_async_read_lock DD imagerel $LN7
	DD	imagerel $LN7+78
	DD	imagerel $unwind$_async_read_lock
pdata	ENDS
;	COMDAT xdata
xdata	SEGMENT
$unwind$_async_read_lock DD 010e01H
	DD	0420eH
; Function compile flags: /Odtp
xdata	ENDS
;	COMDAT _async_read_lock
_TEXT	SEGMENT
self$ = 48
obj$ = 56
_async_read_lock PROC					; COMDAT

; 675  : {

$LN7:
  00000	48 89 54 24 10	 mov	 QWORD PTR [rsp+16], rdx
  00005	48 89 4c 24 08	 mov	 QWORD PTR [rsp+8], rcx
  0000a	48 83 ec 28	 sub	 rsp, 40			; 00000028H
$LN4@async_read:

; 676  :     Px_PROTECTION_GUARD(obj);

  0000e	48 8b 4c 24 38	 mov	 rcx, QWORD PTR obj$[rsp]
  00013	e8 00 00 00 00	 call	 _protected
  00018	0f be c0	 movsx	 eax, al
  0001b	85 c0		 test	 eax, eax
  0001d	75 10		 jne	 SHORT $LN1@async_read
  0001f	48 8b 0d 00 00
	00 00		 mov	 rcx, QWORD PTR PyExc_ProtectionError
  00026	e8 00 00 00 00	 call	 PyErr_SetNone
  0002b	33 c0		 xor	 eax, eax
  0002d	eb 1a		 jmp	 SHORT $LN5@async_read
$LN1@async_read:
  0002f	33 c0		 xor	 eax, eax
  00031	85 c0		 test	 eax, eax
  00033	75 d9		 jne	 SHORT $LN4@async_read

; 677  :     Py_INCREF(obj);

  00035	48 8b 4c 24 38	 mov	 rcx, QWORD PTR obj$[rsp]
  0003a	e8 00 00 00 00	 call	 _Py_IncRef

; 678  :     return _read_lock(obj);

  0003f	48 8b 4c 24 38	 mov	 rcx, QWORD PTR obj$[rsp]
  00044	e8 00 00 00 00	 call	 _read_lock
$LN5@async_read:

; 679  : }

  00049	48 83 c4 28	 add	 rsp, 40			; 00000028H
  0004d	c3		 ret	 0
_async_read_lock ENDP
_TEXT	ENDS
EXTRN	__imp_AcquireSRWLockShared:PROC
;	COMDAT pdata
; File c:\src\pyparallel\python\pyparallel_private.h
pdata	SEGMENT
$pdata$_read_lock DD imagerel $LN3
	DD	imagerel $LN3+37
	DD	imagerel $unwind$_read_lock
pdata	ENDS
;	COMDAT xdata
xdata	SEGMENT
$unwind$_read_lock DD 010901H
	DD	04209H
; Function compile flags: /Odtp
xdata	ENDS
;	COMDAT _read_lock
_TEXT	SEGMENT
obj$ = 48
_read_lock PROC						; COMDAT

; 1182 : {

$LN3:
  00000	48 89 4c 24 08	 mov	 QWORD PTR [rsp+8], rcx
  00005	48 83 ec 28	 sub	 rsp, 40			; 00000028H

; 1183 :     AcquireSRWLockShared((PSRWLOCK)&(obj->srw_lock));

  00009	48 8b 44 24 30	 mov	 rax, QWORD PTR obj$[rsp]
  0000e	48 83 c0 28	 add	 rax, 40			; 00000028H
  00012	48 8b c8	 mov	 rcx, rax
  00015	ff 15 00 00 00
	00		 call	 QWORD PTR __imp_AcquireSRWLockShared

; 1184 :     return obj;

  0001b	48 8b 44 24 30	 mov	 rax, QWORD PTR obj$[rsp]

; 1185 : }

  00020	48 83 c4 28	 add	 rsp, 40			; 00000028H
  00024	c3		 ret	 0
_read_lock ENDP
_TEXT	ENDS
PUBLIC	_read_unlock
;	COMDAT pdata
; File c:\src\pyparallel\python\pyparallel.c
pdata	SEGMENT
$pdata$_async_read_unlock DD imagerel $LN7
	DD	imagerel $LN7+78
	DD	imagerel $unwind$_async_read_unlock
pdata	ENDS
;	COMDAT xdata
xdata	SEGMENT
$unwind$_async_read_unlock DD 010e01H
	DD	0420eH
; Function compile flags: /Odtp
xdata	ENDS
;	COMDAT _async_read_unlock
_TEXT	SEGMENT
self$ = 48
obj$ = 56
_async_read_unlock PROC					; COMDAT

; 683  : {

$LN7:
  00000	48 89 54 24 10	 mov	 QWORD PTR [rsp+16], rdx
  00005	48 89 4c 24 08	 mov	 QWORD PTR [rsp+8], rcx
  0000a	48 83 ec 28	 sub	 rsp, 40			; 00000028H
$LN4@async_read@2:

; 684  :     Px_PROTECTION_GUARD(obj);

  0000e	48 8b 4c 24 38	 mov	 rcx, QWORD PTR obj$[rsp]
  00013	e8 00 00 00 00	 call	 _protected
  00018	0f be c0	 movsx	 eax, al
  0001b	85 c0		 test	 eax, eax
  0001d	75 10		 jne	 SHORT $LN1@async_read@2
  0001f	48 8b 0d 00 00
	00 00		 mov	 rcx, QWORD PTR PyExc_ProtectionError
  00026	e8 00 00 00 00	 call	 PyErr_SetNone
  0002b	33 c0		 xor	 eax, eax
  0002d	eb 1a		 jmp	 SHORT $LN5@async_read@2
$LN1@async_read@2:
  0002f	33 c0		 xor	 eax, eax
  00031	85 c0		 test	 eax, eax
  00033	75 d9		 jne	 SHORT $LN4@async_read@2

; 685  :     Py_INCREF(obj);

  00035	48 8b 4c 24 38	 mov	 rcx, QWORD PTR obj$[rsp]
  0003a	e8 00 00 00 00	 call	 _Py_IncRef

; 686  :     return _read_unlock(obj);

  0003f	48 8b 4c 24 38	 mov	 rcx, QWORD PTR obj$[rsp]
  00044	e8 00 00 00 00	 call	 _read_unlock
$LN5@async_read@2:

; 687  : }

  00049	48 83 c4 28	 add	 rsp, 40			; 00000028H
  0004d	c3		 ret	 0
_async_read_unlock ENDP
_TEXT	ENDS
EXTRN	__imp_ReleaseSRWLockShared:PROC
;	COMDAT pdata
; File c:\src\pyparallel\python\pyparallel_private.h
pdata	SEGMENT
$pdata$_read_unlock DD imagerel $LN3
	DD	imagerel $LN3+37
	DD	imagerel $unwind$_read_unlock
pdata	ENDS
;	COMDAT xdata
xdata	SEGMENT
$unwind$_read_unlock DD 010901H
	DD	04209H
; Function compile flags: /Odtp
xdata	ENDS
;	COMDAT _read_unlock
_TEXT	SEGMENT
obj$ = 48
_read_unlock PROC					; COMDAT

; 1191 : {

$LN3:
  00000	48 89 4c 24 08	 mov	 QWORD PTR [rsp+8], rcx
  00005	48 83 ec 28	 sub	 rsp, 40			; 00000028H

; 1192 :     ReleaseSRWLockShared((PSRWLOCK)&(obj->srw_lock));

  00009	48 8b 44 24 30	 mov	 rax, QWORD PTR obj$[rsp]
  0000e	48 83 c0 28	 add	 rax, 40			; 00000028H
  00012	48 8b c8	 mov	 rcx, rax
  00015	ff 15 00 00 00
	00		 call	 QWORD PTR __imp_ReleaseSRWLockShared

; 1193 :     return obj;

  0001b	48 8b 44 24 30	 mov	 rax, QWORD PTR obj$[rsp]

; 1194 : }

  00020	48 83 c4 28	 add	 rsp, 40			; 00000028H
  00024	c3		 ret	 0
_read_unlock ENDP
_TEXT	ENDS
PUBLIC	_try_read_lock
;	COMDAT pdata
; File c:\src\pyparallel\python\pyparallel.c
pdata	SEGMENT
$pdata$_async_try_read_lock DD imagerel $LN9
	DD	imagerel $LN9+140
	DD	imagerel $unwind$_async_try_read_lock
pdata	ENDS
;	COMDAT xdata
xdata	SEGMENT
$unwind$_async_try_read_lock DD 010e01H
	DD	0620eH
; Function compile flags: /Odtp
xdata	ENDS
;	COMDAT _async_try_read_lock
_TEXT	SEGMENT
tv77 = 32
self$ = 64
obj$ = 72
_async_try_read_lock PROC				; COMDAT

; 691  : {

$LN9:
  00000	48 89 54 24 10	 mov	 QWORD PTR [rsp+16], rdx
  00005	48 89 4c 24 08	 mov	 QWORD PTR [rsp+8], rcx
  0000a	48 83 ec 38	 sub	 rsp, 56			; 00000038H
$LN4@async_try_:

; 692  :     Px_PROTECTION_GUARD(obj);

  0000e	48 8b 4c 24 48	 mov	 rcx, QWORD PTR obj$[rsp]
  00013	e8 00 00 00 00	 call	 _protected
  00018	0f be c0	 movsx	 eax, al
  0001b	85 c0		 test	 eax, eax
  0001d	75 10		 jne	 SHORT $LN1@async_try_
  0001f	48 8b 0d 00 00
	00 00		 mov	 rcx, QWORD PTR PyExc_ProtectionError
  00026	e8 00 00 00 00	 call	 PyErr_SetNone
  0002b	33 c0		 xor	 eax, eax
  0002d	eb 58		 jmp	 SHORT $LN5@async_try_
$LN1@async_try_:
  0002f	33 c0		 xor	 eax, eax
  00031	85 c0		 test	 eax, eax
  00033	75 d9		 jne	 SHORT $LN4@async_try_

; 693  :     Py_INCREF(obj);

  00035	48 8b 4c 24 48	 mov	 rcx, QWORD PTR obj$[rsp]
  0003a	e8 00 00 00 00	 call	 _Py_IncRef

; 694  :     Py_RETURN_BOOL(_try_read_lock(obj));

  0003f	48 8b 4c 24 48	 mov	 rcx, QWORD PTR obj$[rsp]
  00044	e8 00 00 00 00	 call	 _try_read_lock
  00049	0f be c0	 movsx	 eax, al
  0004c	85 c0		 test	 eax, eax
  0004e	74 1a		 je	 SHORT $LN7@async_try_
  00050	48 8d 0d 00 00
	00 00		 lea	 rcx, OFFSET FLAT:_Py_TrueStruct
  00057	e8 00 00 00 00	 call	 _Py_IncRef
  0005c	48 8d 05 00 00
	00 00		 lea	 rax, OFFSET FLAT:_Py_TrueStruct
  00063	48 89 44 24 20	 mov	 QWORD PTR tv77[rsp], rax
  00068	eb 18		 jmp	 SHORT $LN8@async_try_
$LN7@async_try_:
  0006a	48 8d 0d 00 00
	00 00		 lea	 rcx, OFFSET FLAT:_Py_FalseStruct
  00071	e8 00 00 00 00	 call	 _Py_IncRef
  00076	48 8d 05 00 00
	00 00		 lea	 rax, OFFSET FLAT:_Py_FalseStruct
  0007d	48 89 44 24 20	 mov	 QWORD PTR tv77[rsp], rax
$LN8@async_try_:
  00082	48 8b 44 24 20	 mov	 rax, QWORD PTR tv77[rsp]
$LN5@async_try_:

; 695  : }

  00087	48 83 c4 38	 add	 rsp, 56			; 00000038H
  0008b	c3		 ret	 0
_async_try_read_lock ENDP
_TEXT	ENDS
EXTRN	__imp_TryAcquireSRWLockShared:PROC
;	COMDAT pdata
; File c:\src\pyparallel\python\pyparallel_private.h
pdata	SEGMENT
$pdata$_try_read_lock DD imagerel $LN3
	DD	imagerel $LN3+32
	DD	imagerel $unwind$_try_read_lock
pdata	ENDS
;	COMDAT xdata
xdata	SEGMENT
$unwind$_try_read_lock DD 010901H
	DD	04209H
; Function compile flags: /Odtp
xdata	ENDS
;	COMDAT _try_read_lock
_TEXT	SEGMENT
obj$ = 48
_try_read_lock PROC					; COMDAT

; 1200 : {

$LN3:
  00000	48 89 4c 24 08	 mov	 QWORD PTR [rsp+8], rcx
  00005	48 83 ec 28	 sub	 rsp, 40			; 00000028H

; 1201 :     return TryAcquireSRWLockShared((PSRWLOCK)&(obj->srw_lock));

  00009	48 8b 44 24 30	 mov	 rax, QWORD PTR obj$[rsp]
  0000e	48 83 c0 28	 add	 rax, 40			; 00000028H
  00012	48 8b c8	 mov	 rcx, rax
  00015	ff 15 00 00 00
	00		 call	 QWORD PTR __imp_TryAcquireSRWLockShared

; 1202 : }

  0001b	48 83 c4 28	 add	 rsp, 40			; 00000028H
  0001f	c3		 ret	 0
_try_read_lock ENDP
_TEXT	ENDS
PUBLIC	_write_lock
;	COMDAT pdata
; File c:\src\pyparallel\python\pyparallel.c
pdata	SEGMENT
$pdata$_async_write_lock DD imagerel $LN7
	DD	imagerel $LN7+78
	DD	imagerel $unwind$_async_write_lock
pdata	ENDS
;	COMDAT xdata
xdata	SEGMENT
$unwind$_async_write_lock DD 010e01H
	DD	0420eH
; Function compile flags: /Odtp
xdata	ENDS
;	COMDAT _async_write_lock
_TEXT	SEGMENT
self$ = 48
obj$ = 56
_async_write_lock PROC					; COMDAT

; 699  : {

$LN7:
  00000	48 89 54 24 10	 mov	 QWORD PTR [rsp+16], rdx
  00005	48 89 4c 24 08	 mov	 QWORD PTR [rsp+8], rcx
  0000a	48 83 ec 28	 sub	 rsp, 40			; 00000028H
$LN4@async_writ:

; 700  :     Px_PROTECTION_GUARD(obj);

  0000e	48 8b 4c 24 38	 mov	 rcx, QWORD PTR obj$[rsp]
  00013	e8 00 00 00 00	 call	 _protected
  00018	0f be c0	 movsx	 eax, al
  0001b	85 c0		 test	 eax, eax
  0001d	75 10		 jne	 SHORT $LN1@async_writ
  0001f	48 8b 0d 00 00
	00 00		 mov	 rcx, QWORD PTR PyExc_ProtectionError
  00026	e8 00 00 00 00	 call	 PyErr_SetNone
  0002b	33 c0		 xor	 eax, eax
  0002d	eb 1a		 jmp	 SHORT $LN5@async_writ
$LN1@async_writ:
  0002f	33 c0		 xor	 eax, eax
  00031	85 c0		 test	 eax, eax
  00033	75 d9		 jne	 SHORT $LN4@async_writ

; 701  :     Py_INCREF(obj);

  00035	48 8b 4c 24 38	 mov	 rcx, QWORD PTR obj$[rsp]
  0003a	e8 00 00 00 00	 call	 _Py_IncRef

; 702  :     return _write_lock(obj);

  0003f	48 8b 4c 24 38	 mov	 rcx, QWORD PTR obj$[rsp]
  00044	e8 00 00 00 00	 call	 _write_lock
$LN5@async_writ:

; 703  : }

  00049	48 83 c4 28	 add	 rsp, 40			; 00000028H
  0004d	c3		 ret	 0
_async_write_lock ENDP
_TEXT	ENDS
EXTRN	__imp_AcquireSRWLockExclusive:PROC
;	COMDAT pdata
; File c:\src\pyparallel\python\pyparallel_private.h
pdata	SEGMENT
$pdata$_write_lock DD imagerel $LN3
	DD	imagerel $LN3+37
	DD	imagerel $unwind$_write_lock
pdata	ENDS
;	COMDAT xdata
xdata	SEGMENT
$unwind$_write_lock DD 010901H
	DD	04209H
; Function compile flags: /Odtp
xdata	ENDS
;	COMDAT _write_lock
_TEXT	SEGMENT
obj$ = 48
_write_lock PROC					; COMDAT

; 1208 : {

$LN3:
  00000	48 89 4c 24 08	 mov	 QWORD PTR [rsp+8], rcx
  00005	48 83 ec 28	 sub	 rsp, 40			; 00000028H

; 1209 :     AcquireSRWLockExclusive((PSRWLOCK)&(obj->srw_lock));

  00009	48 8b 44 24 30	 mov	 rax, QWORD PTR obj$[rsp]
  0000e	48 83 c0 28	 add	 rax, 40			; 00000028H
  00012	48 8b c8	 mov	 rcx, rax
  00015	ff 15 00 00 00
	00		 call	 QWORD PTR __imp_AcquireSRWLockExclusive

; 1210 :     return obj;

  0001b	48 8b 44 24 30	 mov	 rax, QWORD PTR obj$[rsp]

; 1211 : }

  00020	48 83 c4 28	 add	 rsp, 40			; 00000028H
  00024	c3		 ret	 0
_write_lock ENDP
_TEXT	ENDS
PUBLIC	_write_unlock
;	COMDAT pdata
; File c:\src\pyparallel\python\pyparallel.c
pdata	SEGMENT
$pdata$_async_write_unlock DD imagerel $LN7
	DD	imagerel $LN7+78
	DD	imagerel $unwind$_async_write_unlock
pdata	ENDS
;	COMDAT xdata
xdata	SEGMENT
$unwind$_async_write_unlock DD 010e01H
	DD	0420eH
; Function compile flags: /Odtp
xdata	ENDS
;	COMDAT _async_write_unlock
_TEXT	SEGMENT
self$ = 48
obj$ = 56
_async_write_unlock PROC				; COMDAT

; 707  : {

$LN7:
  00000	48 89 54 24 10	 mov	 QWORD PTR [rsp+16], rdx
  00005	48 89 4c 24 08	 mov	 QWORD PTR [rsp+8], rcx
  0000a	48 83 ec 28	 sub	 rsp, 40			; 00000028H
$LN4@async_writ@2:

; 708  :     Px_PROTECTION_GUARD(obj);

  0000e	48 8b 4c 24 38	 mov	 rcx, QWORD PTR obj$[rsp]
  00013	e8 00 00 00 00	 call	 _protected
  00018	0f be c0	 movsx	 eax, al
  0001b	85 c0		 test	 eax, eax
  0001d	75 10		 jne	 SHORT $LN1@async_writ@2
  0001f	48 8b 0d 00 00
	00 00		 mov	 rcx, QWORD PTR PyExc_ProtectionError
  00026	e8 00 00 00 00	 call	 PyErr_SetNone
  0002b	33 c0		 xor	 eax, eax
  0002d	eb 1a		 jmp	 SHORT $LN5@async_writ@2
$LN1@async_writ@2:
  0002f	33 c0		 xor	 eax, eax
  00031	85 c0		 test	 eax, eax
  00033	75 d9		 jne	 SHORT $LN4@async_writ@2

; 709  :     Py_INCREF(obj);

  00035	48 8b 4c 24 38	 mov	 rcx, QWORD PTR obj$[rsp]
  0003a	e8 00 00 00 00	 call	 _Py_IncRef

; 710  :     return _write_unlock(obj);

  0003f	48 8b 4c 24 38	 mov	 rcx, QWORD PTR obj$[rsp]
  00044	e8 00 00 00 00	 call	 _write_unlock
$LN5@async_writ@2:

; 711  : }

  00049	48 83 c4 28	 add	 rsp, 40			; 00000028H
  0004d	c3		 ret	 0
_async_write_unlock ENDP
_TEXT	ENDS
EXTRN	__imp_ReleaseSRWLockExclusive:PROC
;	COMDAT pdata
; File c:\src\pyparallel\python\pyparallel_private.h
pdata	SEGMENT
$pdata$_write_unlock DD imagerel $LN3
	DD	imagerel $LN3+37
	DD	imagerel $unwind$_write_unlock
pdata	ENDS
;	COMDAT xdata
xdata	SEGMENT
$unwind$_write_unlock DD 010901H
	DD	04209H
; Function compile flags: /Odtp
xdata	ENDS
;	COMDAT _write_unlock
_TEXT	SEGMENT
obj$ = 48
_write_unlock PROC					; COMDAT

; 1217 : {

$LN3:
  00000	48 89 4c 24 08	 mov	 QWORD PTR [rsp+8], rcx
  00005	48 83 ec 28	 sub	 rsp, 40			; 00000028H

; 1218 :     ReleaseSRWLockExclusive((PSRWLOCK)&(obj->srw_lock));

  00009	48 8b 44 24 30	 mov	 rax, QWORD PTR obj$[rsp]
  0000e	48 83 c0 28	 add	 rax, 40			; 00000028H
  00012	48 8b c8	 mov	 rcx, rax
  00015	ff 15 00 00 00
	00		 call	 QWORD PTR __imp_ReleaseSRWLockExclusive

; 1219 :     return obj;

  0001b	48 8b 44 24 30	 mov	 rax, QWORD PTR obj$[rsp]

; 1220 : }

  00020	48 83 c4 28	 add	 rsp, 40			; 00000028H
  00024	c3		 ret	 0
_write_unlock ENDP
_TEXT	ENDS
PUBLIC	_try_write_lock
;	COMDAT pdata
; File c:\src\pyparallel\python\pyparallel.c
pdata	SEGMENT
$pdata$_async_try_write_lock DD imagerel $LN9
	DD	imagerel $LN9+140
	DD	imagerel $unwind$_async_try_write_lock
pdata	ENDS
;	COMDAT xdata
xdata	SEGMENT
$unwind$_async_try_write_lock DD 010e01H
	DD	0620eH
; Function compile flags: /Odtp
xdata	ENDS
;	COMDAT _async_try_write_lock
_TEXT	SEGMENT
tv77 = 32
self$ = 64
obj$ = 72
_async_try_write_lock PROC				; COMDAT

; 715  : {

$LN9:
  00000	48 89 54 24 10	 mov	 QWORD PTR [rsp+16], rdx
  00005	48 89 4c 24 08	 mov	 QWORD PTR [rsp+8], rcx
  0000a	48 83 ec 38	 sub	 rsp, 56			; 00000038H
$LN4@async_try_@2:

; 716  :     Px_PROTECTION_GUARD(obj);

  0000e	48 8b 4c 24 48	 mov	 rcx, QWORD PTR obj$[rsp]
  00013	e8 00 00 00 00	 call	 _protected
  00018	0f be c0	 movsx	 eax, al
  0001b	85 c0		 test	 eax, eax
  0001d	75 10		 jne	 SHORT $LN1@async_try_@2
  0001f	48 8b 0d 00 00
	00 00		 mov	 rcx, QWORD PTR PyExc_ProtectionError
  00026	e8 00 00 00 00	 call	 PyErr_SetNone
  0002b	33 c0		 xor	 eax, eax
  0002d	eb 58		 jmp	 SHORT $LN5@async_try_@2
$LN1@async_try_@2:
  0002f	33 c0		 xor	 eax, eax
  00031	85 c0		 test	 eax, eax
  00033	75 d9		 jne	 SHORT $LN4@async_try_@2

; 717  :     Py_INCREF(obj);

  00035	48 8b 4c 24 48	 mov	 rcx, QWORD PTR obj$[rsp]
  0003a	e8 00 00 00 00	 call	 _Py_IncRef

; 718  :     Py_RETURN_BOOL(_try_write_lock(obj));

  0003f	48 8b 4c 24 48	 mov	 rcx, QWORD PTR obj$[rsp]
  00044	e8 00 00 00 00	 call	 _try_write_lock
  00049	0f be c0	 movsx	 eax, al
  0004c	85 c0		 test	 eax, eax
  0004e	74 1a		 je	 SHORT $LN7@async_try_@2
  00050	48 8d 0d 00 00
	00 00		 lea	 rcx, OFFSET FLAT:_Py_TrueStruct
  00057	e8 00 00 00 00	 call	 _Py_IncRef
  0005c	48 8d 05 00 00
	00 00		 lea	 rax, OFFSET FLAT:_Py_TrueStruct
  00063	48 89 44 24 20	 mov	 QWORD PTR tv77[rsp], rax
  00068	eb 18		 jmp	 SHORT $LN8@async_try_@2
$LN7@async_try_@2:
  0006a	48 8d 0d 00 00
	00 00		 lea	 rcx, OFFSET FLAT:_Py_FalseStruct
  00071	e8 00 00 00 00	 call	 _Py_IncRef
  00076	48 8d 05 00 00
	00 00		 lea	 rax, OFFSET FLAT:_Py_FalseStruct
  0007d	48 89 44 24 20	 mov	 QWORD PTR tv77[rsp], rax
$LN8@async_try_@2:
  00082	48 8b 44 24 20	 mov	 rax, QWORD PTR tv77[rsp]
$LN5@async_try_@2:

; 719  : }

  00087	48 83 c4 38	 add	 rsp, 56			; 00000038H
  0008b	c3		 ret	 0
_async_try_write_lock ENDP
_TEXT	ENDS
EXTRN	__imp_TryAcquireSRWLockExclusive:PROC
;	COMDAT pdata
; File c:\src\pyparallel\python\pyparallel_private.h
pdata	SEGMENT
$pdata$_try_write_lock DD imagerel $LN3
	DD	imagerel $LN3+32
	DD	imagerel $unwind$_try_write_lock
pdata	ENDS
;	COMDAT xdata
xdata	SEGMENT
$unwind$_try_write_lock DD 010901H
	DD	04209H
; Function compile flags: /Odtp
xdata	ENDS
;	COMDAT _try_write_lock
_TEXT	SEGMENT
obj$ = 48
_try_write_lock PROC					; COMDAT

; 1226 : {

$LN3:
  00000	48 89 4c 24 08	 mov	 QWORD PTR [rsp+8], rcx
  00005	48 83 ec 28	 sub	 rsp, 40			; 00000028H

; 1227 :     return TryAcquireSRWLockExclusive((PSRWLOCK)&(obj->srw_lock));

  00009	48 8b 44 24 30	 mov	 rax, QWORD PTR obj$[rsp]
  0000e	48 83 c0 28	 add	 rax, 40			; 00000028H
  00012	48 8b c8	 mov	 rcx, rax
  00015	ff 15 00 00 00
	00		 call	 QWORD PTR __imp_TryAcquireSRWLockExclusive

; 1228 : }

  0001b	48 83 c4 28	 add	 rsp, 40			; 00000028H
  0001f	c3		 ret	 0
_try_write_lock ENDP
_TEXT	ENDS
PUBLIC	_PyHeap_NewObject
;	COMDAT pdata
; File c:\src\pyparallel\python\pyparallel.c
pdata	SEGMENT
$pdata$_PyHeap_NewObject DD imagerel $LN3
	DD	imagerel $LN3+35
	DD	imagerel $unwind$_PyHeap_NewObject
pdata	ENDS
;	COMDAT xdata
xdata	SEGMENT
$unwind$_PyHeap_NewObject DD 010901H
	DD	04209H
; Function compile flags: /Odtp
xdata	ENDS
;	COMDAT _PyHeap_NewObject
_TEXT	SEGMENT
c$ = 48
_PyHeap_NewObject PROC					; COMDAT

; 724  : {

$LN3:
  00000	48 89 4c 24 08	 mov	 QWORD PTR [rsp+8], rcx
  00005	48 83 ec 28	 sub	 rsp, 40			; 00000028H

; 725  :     return (Object *)_PyHeap_Malloc(c, sizeof(Object), 0, 0);

  00009	45 33 c9	 xor	 r9d, r9d
  0000c	45 33 c0	 xor	 r8d, r8d
  0000f	ba 18 00 00 00	 mov	 edx, 24
  00014	48 8b 4c 24 30	 mov	 rcx, QWORD PTR c$[rsp]
  00019	e8 00 00 00 00	 call	 _PyHeap_Malloc

; 726  : }

  0001e	48 83 c4 28	 add	 rsp, 40			; 00000028H
  00022	c3		 ret	 0
_PyHeap_NewObject ENDP
_TEXT	ENDS
PUBLIC	??_C@_1CG@IAFJBALO@?$AA?$CB?$AA?$CI?$AAP?$AAx?$AA_?$AAP?$AAE?$AAR?$AAS?$AAI?$AAS?$AAT?$AAE?$AAD?$AA?$CI?$AAo?$AA?$CJ?$AA?$CJ?$AA?$AA@ ; `string'
PUBLIC	_Px_TryPersist
EXTRN	__imp_InitOnceComplete:PROC
EXTRN	PyErr_SetFromWindowsErr:PROC
EXTRN	__imp_InitOnceBeginInitialize:PROC
;	COMDAT pdata
pdata	SEGMENT
$pdata$_Px_TryPersist DD imagerel $LN10
	DD	imagerel $LN10+374
	DD	imagerel $unwind$_Px_TryPersist
pdata	ENDS
;	COMDAT xdata
xdata	SEGMENT
$unwind$_Px_TryPersist DD 010901H
	DD	08209H
xdata	ENDS
;	COMDAT ??_C@_1CG@IAFJBALO@?$AA?$CB?$AA?$CI?$AAP?$AAx?$AA_?$AAP?$AAE?$AAR?$AAS?$AAI?$AAS?$AAT?$AAE?$AAD?$AA?$CI?$AAo?$AA?$CJ?$AA?$CJ?$AA?$AA@
CONST	SEGMENT
??_C@_1CG@IAFJBALO@?$AA?$CB?$AA?$CI?$AAP?$AAx?$AA_?$AAP?$AAE?$AAR?$AAS?$AAI?$AAS?$AAT?$AAE?$AAD?$AA?$CI?$AAo?$AA?$CJ?$AA?$CJ?$AA?$AA@ DB '!'
	DB	00H, '(', 00H, 'P', 00H, 'x', 00H, '_', 00H, 'P', 00H, 'E', 00H
	DB	'R', 00H, 'S', 00H, 'I', 00H, 'S', 00H, 'T', 00H, 'E', 00H, 'D'
	DB	00H, '(', 00H, 'o', 00H, ')', 00H, ')', 00H, 00H, 00H ; `string'
; Function compile flags: /Odtp
CONST	ENDS
;	COMDAT _Px_TryPersist
_TEXT	SEGMENT
x$ = 32
pending$ = 40
c$ = 48
o$ = 80
_Px_TryPersist PROC					; COMDAT

; 739  : {

$LN10:
  00000	48 89 4c 24 08	 mov	 QWORD PTR [rsp+8], rcx
  00005	48 83 ec 48	 sub	 rsp, 72			; 00000048H

; 740  :     BOOL pending;
; 741  :     Context  *c;
; 742  :     PxObject *x;
; 743  :     if (!o || (!(Px_ISPX(o))) || Px_PERSISTED(o))

  00009	48 83 7c 24 50
	00		 cmp	 QWORD PTR o$[rsp], 0
  0000f	74 24		 je	 SHORT $LN5@Px_TryPers
  00011	48 8b 44 24 50	 mov	 rax, QWORD PTR o$[rsp]
  00016	48 8b 40 20	 mov	 rax, QWORD PTR [rax+32]
  0001a	48 83 e0 02	 and	 rax, 2
  0001e	48 85 c0	 test	 rax, rax
  00021	74 12		 je	 SHORT $LN5@Px_TryPers
  00023	48 8b 44 24 50	 mov	 rax, QWORD PTR o$[rsp]
  00028	48 8b 40 20	 mov	 rax, QWORD PTR [rax+32]
  0002c	48 83 e0 20	 and	 rax, 32			; 00000020H
  00030	48 85 c0	 test	 rax, rax
  00033	74 0a		 je	 SHORT $LN6@Px_TryPers
$LN5@Px_TryPers:

; 744  :         return 1;

  00035	b8 01 00 00 00	 mov	 eax, 1
  0003a	e9 32 01 00 00	 jmp	 $LN7@Px_TryPers
$LN6@Px_TryPers:

; 745  : 
; 746  :     x = Py_ASPX(o);

  0003f	48 8b 44 24 50	 mov	 rax, QWORD PTR o$[rsp]
  00044	48 8b 40 08	 mov	 rax, QWORD PTR [rax+8]
  00048	48 89 44 24 20	 mov	 QWORD PTR x$[rsp], rax

; 747  :     if (!InitOnceBeginInitialize(&(x->persist), 0, &pending, NULL)) {

  0004d	48 8b 44 24 20	 mov	 rax, QWORD PTR x$[rsp]
  00052	48 83 c0 20	 add	 rax, 32			; 00000020H
  00056	45 33 c9	 xor	 r9d, r9d
  00059	4c 8d 44 24 28	 lea	 r8, QWORD PTR pending$[rsp]
  0005e	33 d2		 xor	 edx, edx
  00060	48 8b c8	 mov	 rcx, rax
  00063	ff 15 00 00 00
	00		 call	 QWORD PTR __imp_InitOnceBeginInitialize
  00069	85 c0		 test	 eax, eax
  0006b	75 0e		 jne	 SHORT $LN4@Px_TryPers

; 748  :         PyErr_SetFromWindowsErr(0);

  0006d	33 c9		 xor	 ecx, ecx
  0006f	e8 00 00 00 00	 call	 PyErr_SetFromWindowsErr

; 749  :         return 0;

  00074	33 c0		 xor	 eax, eax
  00076	e9 f6 00 00 00	 jmp	 $LN7@Px_TryPers
$LN4@Px_TryPers:

; 750  :     }
; 751  :     if (!pending)

  0007b	83 7c 24 28 00	 cmp	 DWORD PTR pending$[rsp], 0
  00080	75 0a		 jne	 SHORT $LN3@Px_TryPers

; 752  :         return 1;

  00082	b8 01 00 00 00	 mov	 eax, 1
  00087	e9 e5 00 00 00	 jmp	 $LN7@Px_TryPers
$LN3@Px_TryPers:

; 753  : 
; 754  :     assert(!(Px_PERSISTED(o)));

  0008c	48 8b 44 24 50	 mov	 rax, QWORD PTR o$[rsp]
  00091	48 8b 40 20	 mov	 rax, QWORD PTR [rax+32]
  00095	48 83 e0 20	 and	 rax, 32			; 00000020H
  00099	48 85 c0	 test	 rax, rax
  0009c	74 1c		 je	 SHORT $LN9@Px_TryPers
  0009e	41 b8 f2 02 00
	00		 mov	 r8d, 754		; 000002f2H
  000a4	48 8d 15 00 00
	00 00		 lea	 rdx, OFFSET FLAT:??_C@_1CO@DPMFPEGF@?$AA?4?$AA?4?$AA?2?$AAP?$AAy?$AAt?$AAh?$AAo?$AAn?$AA?2?$AAp?$AAy?$AAp?$AAa?$AAr?$AAa?$AAl?$AAl?$AAe?$AAl?$AA?4?$AAc?$AA?$AA@
  000ab	48 8d 0d 00 00
	00 00		 lea	 rcx, OFFSET FLAT:??_C@_1CG@IAFJBALO@?$AA?$CB?$AA?$CI?$AAP?$AAx?$AA_?$AAP?$AAE?$AAR?$AAS?$AAI?$AAS?$AAT?$AAE?$AAD?$AA?$CI?$AAo?$AA?$CJ?$AA?$CJ?$AA?$AA@
  000b2	ff 15 00 00 00
	00		 call	 QWORD PTR __imp__wassert
  000b8	33 c0		 xor	 eax, eax
$LN9@Px_TryPers:

; 755  : 
; 756  :     c = x->ctx;

  000ba	48 8b 44 24 20	 mov	 rax, QWORD PTR x$[rsp]
  000bf	48 8b 00	 mov	 rax, QWORD PTR [rax]
  000c2	48 89 44 24 30	 mov	 QWORD PTR c$[rsp], rax

; 757  :     if (!Px_CTX_IS_PERSISTED(c))

  000c7	48 8b 44 24 30	 mov	 rax, QWORD PTR c$[rsp]
  000cc	8b 80 f8 00 00
	00		 mov	 eax, DWORD PTR [rax+248]
  000d2	83 e0 01	 and	 eax, 1
  000d5	85 c0		 test	 eax, eax
  000d7	75 19		 jne	 SHORT $LN2@Px_TryPers

; 758  :         Px_CTXFLAGS(c) |= Px_CTXFLAGS_IS_PERSISTED;

  000d9	48 8b 44 24 30	 mov	 rax, QWORD PTR c$[rsp]
  000de	8b 80 f8 00 00
	00		 mov	 eax, DWORD PTR [rax+248]
  000e4	83 c8 01	 or	 eax, 1
  000e7	48 8b 4c 24 30	 mov	 rcx, QWORD PTR c$[rsp]
  000ec	89 81 f8 00 00
	00		 mov	 DWORD PTR [rcx+248], eax
$LN2@Px_TryPers:

; 759  : 
; 760  :     c->persisted_count++;

  000f2	48 8b 44 24 30	 mov	 rax, QWORD PTR c$[rsp]
  000f7	8b 80 10 38 00
	00		 mov	 eax, DWORD PTR [rax+14352]
  000fd	ff c0		 inc	 eax
  000ff	48 8b 4c 24 30	 mov	 rcx, QWORD PTR c$[rsp]
  00104	89 81 10 38 00
	00		 mov	 DWORD PTR [rcx+14352], eax

; 761  : 
; 762  :     Py_PXFLAGS(o) |= Py_PXFLAGS_PERSISTED;

  0010a	48 8b 44 24 50	 mov	 rax, QWORD PTR o$[rsp]
  0010f	48 8b 40 20	 mov	 rax, QWORD PTR [rax+32]
  00113	48 83 c8 20	 or	 rax, 32			; 00000020H
  00117	48 8b 4c 24 50	 mov	 rcx, QWORD PTR o$[rsp]
  0011c	48 89 41 20	 mov	 QWORD PTR [rcx+32], rax

; 763  :     Py_REFCNT(o) = 1;

  00120	48 8b 44 24 50	 mov	 rax, QWORD PTR o$[rsp]
  00125	48 c7 40 50 01
	00 00 00	 mov	 QWORD PTR [rax+80], 1

; 764  : 
; 765  :     Px_CTXFLAGS(c) |= Px_CTXFLAGS_IS_PERSISTED;

  0012d	48 8b 44 24 30	 mov	 rax, QWORD PTR c$[rsp]
  00132	8b 80 f8 00 00
	00		 mov	 eax, DWORD PTR [rax+248]
  00138	83 c8 01	 or	 eax, 1
  0013b	48 8b 4c 24 30	 mov	 rcx, QWORD PTR c$[rsp]
  00140	89 81 f8 00 00
	00		 mov	 DWORD PTR [rcx+248], eax

; 766  : 
; 767  :     if (!InitOnceComplete(&(x->persist), 0, NULL)) {

  00146	48 8b 44 24 20	 mov	 rax, QWORD PTR x$[rsp]
  0014b	48 83 c0 20	 add	 rax, 32			; 00000020H
  0014f	45 33 c0	 xor	 r8d, r8d
  00152	33 d2		 xor	 edx, edx
  00154	48 8b c8	 mov	 rcx, rax
  00157	ff 15 00 00 00
	00		 call	 QWORD PTR __imp_InitOnceComplete
  0015d	85 c0		 test	 eax, eax
  0015f	75 0b		 jne	 SHORT $LN1@Px_TryPers

; 768  :         PyErr_SetFromWindowsErr(0);

  00161	33 c9		 xor	 ecx, ecx
  00163	e8 00 00 00 00	 call	 PyErr_SetFromWindowsErr

; 769  :         return 0;

  00168	33 c0		 xor	 eax, eax
  0016a	eb 05		 jmp	 SHORT $LN7@Px_TryPers
$LN1@Px_TryPers:

; 770  :     }
; 771  : 
; 772  :     return 1;

  0016c	b8 01 00 00 00	 mov	 eax, 1
$LN7@Px_TryPers:

; 773  : }

  00171	48 83 c4 48	 add	 rsp, 72			; 00000048H
  00175	c3		 ret	 0
_Px_TryPersist ENDP
_TEXT	ENDS
PUBLIC	??_C@_1BK@NNCALBJ@?$AA?$CB?$AAP?$AAx?$AA_?$AAX?$AAI?$AAS?$AAP?$AAX?$AA?$CI?$AAv?$AA?$CJ?$AA?$AA@ ; `string'
PUBLIC	??_C@_1BI@NLHBCOIC@?$AA?$CB?$AAP?$AAx?$AA_?$AAI?$AAS?$AAP?$AAX?$AA?$CI?$AAk?$AA?$CJ?$AA?$AA@ ; `string'
PUBLIC	??_C@_1BI@EAOAGMJE@?$AA?$CB?$AAP?$AAx?$AA_?$AAI?$AAS?$AAP?$AAX?$AA?$CI?$AAo?$AA?$CJ?$AA?$AA@ ; `string'
PUBLIC	_PyParallel_ExecutingCallbackFromMainThread
PUBLIC	_Px_objobjargproc_ass
;	COMDAT pdata
pdata	SEGMENT
$pdata$_Px_objobjargproc_ass DD imagerel $LN13
	DD	imagerel $LN13+308
	DD	imagerel $unwind$_Px_objobjargproc_ass
pdata	ENDS
;	COMDAT xdata
xdata	SEGMENT
$unwind$_Px_objobjargproc_ass DD 011301H
	DD	06213H
xdata	ENDS
;	COMDAT ??_C@_1BK@NNCALBJ@?$AA?$CB?$AAP?$AAx?$AA_?$AAX?$AAI?$AAS?$AAP?$AAX?$AA?$CI?$AAv?$AA?$CJ?$AA?$AA@
CONST	SEGMENT
??_C@_1BK@NNCALBJ@?$AA?$CB?$AAP?$AAx?$AA_?$AAX?$AAI?$AAS?$AAP?$AAX?$AA?$CI?$AAv?$AA?$CJ?$AA?$AA@ DB '!'
	DB	00H, 'P', 00H, 'x', 00H, '_', 00H, 'X', 00H, 'I', 00H, 'S', 00H
	DB	'P', 00H, 'X', 00H, '(', 00H, 'v', 00H, ')', 00H, 00H, 00H ; `string'
CONST	ENDS
;	COMDAT ??_C@_1BI@NLHBCOIC@?$AA?$CB?$AAP?$AAx?$AA_?$AAI?$AAS?$AAP?$AAX?$AA?$CI?$AAk?$AA?$CJ?$AA?$AA@
CONST	SEGMENT
??_C@_1BI@NLHBCOIC@?$AA?$CB?$AAP?$AAx?$AA_?$AAI?$AAS?$AAP?$AAX?$AA?$CI?$AAk?$AA?$CJ?$AA?$AA@ DB '!'
	DB	00H, 'P', 00H, 'x', 00H, '_', 00H, 'I', 00H, 'S', 00H, 'P', 00H
	DB	'X', 00H, '(', 00H, 'k', 00H, ')', 00H, 00H, 00H ; `string'
CONST	ENDS
;	COMDAT ??_C@_1BI@EAOAGMJE@?$AA?$CB?$AAP?$AAx?$AA_?$AAI?$AAS?$AAP?$AAX?$AA?$CI?$AAo?$AA?$CJ?$AA?$AA@
CONST	SEGMENT
??_C@_1BI@EAOAGMJE@?$AA?$CB?$AAP?$AAx?$AA_?$AAI?$AAS?$AAP?$AAX?$AA?$CI?$AAo?$AA?$CJ?$AA?$AA@ DB '!'
	DB	00H, 'P', 00H, 'x', 00H, '_', 00H, 'I', 00H, 'S', 00H, 'P', 00H
	DB	'X', 00H, '(', 00H, 'o', 00H, ')', 00H, 00H, 00H ; `string'
; Function compile flags: /Odtp
CONST	ENDS
;	COMDAT _Px_objobjargproc_ass
_TEXT	SEGMENT
tv85 = 32
tv136 = 40
o$ = 64
k$ = 72
v$ = 80
_Px_objobjargproc_ass PROC				; COMDAT

; 778  : {

$LN13:
  00000	4c 89 44 24 18	 mov	 QWORD PTR [rsp+24], r8
  00005	48 89 54 24 10	 mov	 QWORD PTR [rsp+16], rdx
  0000a	48 89 4c 24 08	 mov	 QWORD PTR [rsp+8], rcx
  0000f	48 83 ec 38	 sub	 rsp, 56			; 00000038H

; 779  :     if (!Py_PXCTX && !Py_PXCB) {

  00013	e8 00 00 00 00	 call	 _Py_PXCTX
  00018	85 c0		 test	 eax, eax
  0001a	0f 85 b2 00 00
	00		 jne	 $LN3@Px_objobja
  00020	e8 00 00 00 00	 call	 _PyParallel_ExecutingCallbackFromMainThread
  00025	85 c0		 test	 eax, eax
  00027	0f 85 a5 00 00
	00		 jne	 $LN3@Px_objobja

; 780  :         assert(!Px_ISPX(o));

  0002d	48 8b 44 24 40	 mov	 rax, QWORD PTR o$[rsp]
  00032	48 8b 40 20	 mov	 rax, QWORD PTR [rax+32]
  00036	48 83 e0 02	 and	 rax, 2
  0003a	48 85 c0	 test	 rax, rax
  0003d	74 1c		 je	 SHORT $LN6@Px_objobja
  0003f	41 b8 0c 03 00
	00		 mov	 r8d, 780		; 0000030cH
  00045	48 8d 15 00 00
	00 00		 lea	 rdx, OFFSET FLAT:??_C@_1CO@DPMFPEGF@?$AA?4?$AA?4?$AA?2?$AAP?$AAy?$AAt?$AAh?$AAo?$AAn?$AA?2?$AAp?$AAy?$AAp?$AAa?$AAr?$AAa?$AAl?$AAl?$AAe?$AAl?$AA?4?$AAc?$AA?$AA@
  0004c	48 8d 0d 00 00
	00 00		 lea	 rcx, OFFSET FLAT:??_C@_1BI@EAOAGMJE@?$AA?$CB?$AAP?$AAx?$AA_?$AAI?$AAS?$AAP?$AAX?$AA?$CI?$AAo?$AA?$CJ?$AA?$AA@
  00053	ff 15 00 00 00
	00		 call	 QWORD PTR __imp__wassert
  00059	33 c0		 xor	 eax, eax
$LN6@Px_objobja:

; 781  :         assert(!Px_ISPX(k));

  0005b	48 8b 44 24 48	 mov	 rax, QWORD PTR k$[rsp]
  00060	48 8b 40 20	 mov	 rax, QWORD PTR [rax+32]
  00064	48 83 e0 02	 and	 rax, 2
  00068	48 85 c0	 test	 rax, rax
  0006b	74 1c		 je	 SHORT $LN7@Px_objobja
  0006d	41 b8 0d 03 00
	00		 mov	 r8d, 781		; 0000030dH
  00073	48 8d 15 00 00
	00 00		 lea	 rdx, OFFSET FLAT:??_C@_1CO@DPMFPEGF@?$AA?4?$AA?4?$AA?2?$AAP?$AAy?$AAt?$AAh?$AAo?$AAn?$AA?2?$AAp?$AAy?$AAp?$AAa?$AAr?$AAa?$AAl?$AAl?$AAe?$AAl?$AA?4?$AAc?$AA?$AA@
  0007a	48 8d 0d 00 00
	00 00		 lea	 rcx, OFFSET FLAT:??_C@_1BI@NLHBCOIC@?$AA?$CB?$AAP?$AAx?$AA_?$AAI?$AAS?$AAP?$AAX?$AA?$CI?$AAk?$AA?$CJ?$AA?$AA@
  00081	ff 15 00 00 00
	00		 call	 QWORD PTR __imp__wassert
  00087	33 c0		 xor	 eax, eax
$LN7@Px_objobja:

; 782  :         assert(!Px_XISPX(v));

  00089	48 83 7c 24 50
	00		 cmp	 QWORD PTR v$[rsp], 0
  0008f	74 14		 je	 SHORT $LN8@Px_objobja
  00091	48 8b 44 24 50	 mov	 rax, QWORD PTR v$[rsp]
  00096	48 8b 40 20	 mov	 rax, QWORD PTR [rax+32]
  0009a	48 83 e0 02	 and	 rax, 2
  0009e	48 89 44 24 20	 mov	 QWORD PTR tv85[rsp], rax
  000a3	eb 09		 jmp	 SHORT $LN9@Px_objobja
$LN8@Px_objobja:
  000a5	48 c7 44 24 20
	00 00 00 00	 mov	 QWORD PTR tv85[rsp], 0
$LN9@Px_objobja:
  000ae	48 83 7c 24 20
	00		 cmp	 QWORD PTR tv85[rsp], 0
  000b4	74 1c		 je	 SHORT $LN10@Px_objobja
  000b6	41 b8 0e 03 00
	00		 mov	 r8d, 782		; 0000030eH
  000bc	48 8d 15 00 00
	00 00		 lea	 rdx, OFFSET FLAT:??_C@_1CO@DPMFPEGF@?$AA?4?$AA?4?$AA?2?$AAP?$AAy?$AAt?$AAh?$AAo?$AAn?$AA?2?$AAp?$AAy?$AAp?$AAa?$AAr?$AAa?$AAl?$AAl?$AAe?$AAl?$AA?4?$AAc?$AA?$AA@
  000c3	48 8d 0d 00 00
	00 00		 lea	 rcx, OFFSET FLAT:??_C@_1BK@NNCALBJ@?$AA?$CB?$AAP?$AAx?$AA_?$AAX?$AAI?$AAS?$AAP?$AAX?$AA?$CI?$AAv?$AA?$CJ?$AA?$AA@
  000ca	ff 15 00 00 00
	00		 call	 QWORD PTR __imp__wassert
  000d0	33 c0		 xor	 eax, eax
$LN10@Px_objobja:
$LN3@Px_objobja:

; 783  :     }
; 784  :     if (!Px_ISPY(o) || (!Py_PXCTX && !Py_PXCB))

  000d2	48 8b 44 24 40	 mov	 rax, QWORD PTR o$[rsp]
  000d7	48 8b 40 20	 mov	 rax, QWORD PTR [rax+32]
  000db	48 83 e0 01	 and	 rax, 1
  000df	48 85 c0	 test	 rax, rax
  000e2	74 12		 je	 SHORT $LN1@Px_objobja
  000e4	e8 00 00 00 00	 call	 _Py_PXCTX
  000e9	85 c0		 test	 eax, eax
  000eb	75 10		 jne	 SHORT $LN2@Px_objobja
  000ed	e8 00 00 00 00	 call	 _PyParallel_ExecutingCallbackFromMainThread
  000f2	85 c0		 test	 eax, eax
  000f4	75 07		 jne	 SHORT $LN2@Px_objobja
$LN1@Px_objobja:

; 785  :         return 1;

  000f6	b8 01 00 00 00	 mov	 eax, 1
  000fb	eb 32		 jmp	 SHORT $LN4@Px_objobja
$LN2@Px_objobja:

; 786  : 
; 787  :     return !(!_Px_TryPersist(k) || !_Px_TryPersist(v));

  000fd	48 8b 4c 24 48	 mov	 rcx, QWORD PTR k$[rsp]
  00102	e8 00 00 00 00	 call	 _Px_TryPersist
  00107	85 c0		 test	 eax, eax
  00109	74 18		 je	 SHORT $LN11@Px_objobja
  0010b	48 8b 4c 24 50	 mov	 rcx, QWORD PTR v$[rsp]
  00110	e8 00 00 00 00	 call	 _Px_TryPersist
  00115	85 c0		 test	 eax, eax
  00117	74 0a		 je	 SHORT $LN11@Px_objobja
  00119	c7 44 24 28 01
	00 00 00	 mov	 DWORD PTR tv136[rsp], 1
  00121	eb 08		 jmp	 SHORT $LN12@Px_objobja
$LN11@Px_objobja:
  00123	c7 44 24 28 00
	00 00 00	 mov	 DWORD PTR tv136[rsp], 0
$LN12@Px_objobja:
  0012b	8b 44 24 28	 mov	 eax, DWORD PTR tv136[rsp]
$LN4@Px_objobja:

; 788  : }

  0012f	48 83 c4 38	 add	 rsp, 56			; 00000038H
  00133	c3		 ret	 0
_Px_objobjargproc_ass ENDP
_TEXT	ENDS
PUBLIC	_PyObject_GenericSetAttr
;	COMDAT pdata
pdata	SEGMENT
$pdata$_PyObject_GenericSetAttr DD imagerel $LN10
	DD	imagerel $LN10+247
	DD	imagerel $unwind$_PyObject_GenericSetAttr
pdata	ENDS
;	COMDAT xdata
xdata	SEGMENT
$unwind$_PyObject_GenericSetAttr DD 011301H
	DD	06213H
; Function compile flags: /Odtp
xdata	ENDS
;	COMDAT _PyObject_GenericSetAttr
_TEXT	SEGMENT
result$ = 32
tp$ = 40
o$ = 64
n$ = 72
v$ = 80
_PyObject_GenericSetAttr PROC				; COMDAT

; 793  : {

$LN10:
  00000	4c 89 44 24 18	 mov	 QWORD PTR [rsp+24], r8
  00005	48 89 54 24 10	 mov	 QWORD PTR [rsp+16], rdx
  0000a	48 89 4c 24 08	 mov	 QWORD PTR [rsp+8], rcx
  0000f	48 83 ec 38	 sub	 rsp, 56			; 00000038H

; 794  :     PyTypeObject *tp;
; 795  :     int result;
; 796  :     assert(Py_ORIG_TYPE(o));

  00013	48 8b 44 24 40	 mov	 rax, QWORD PTR o$[rsp]
  00018	48 83 78 38 00	 cmp	 QWORD PTR [rax+56], 0
  0001d	75 1c		 jne	 SHORT $LN9@PyObject_G
  0001f	41 b8 1c 03 00
	00		 mov	 r8d, 796		; 0000031cH
  00025	48 8d 15 00 00
	00 00		 lea	 rdx, OFFSET FLAT:??_C@_1CO@DPMFPEGF@?$AA?4?$AA?4?$AA?2?$AAP?$AAy?$AAt?$AAh?$AAo?$AAn?$AA?2?$AAp?$AAy?$AAp?$AAa?$AAr?$AAa?$AAl?$AAl?$AAe?$AAl?$AA?4?$AAc?$AA?$AA@
  0002c	48 8d 0d 00 00
	00 00		 lea	 rcx, OFFSET FLAT:??_C@_1CA@LIAOCINA@?$AAP?$AAy?$AA_?$AAO?$AAR?$AAI?$AAG?$AA_?$AAT?$AAY?$AAP?$AAE?$AA?$CI?$AAo?$AA?$CJ?$AA?$AA@
  00033	ff 15 00 00 00
	00		 call	 QWORD PTR __imp__wassert
  00039	33 c0		 xor	 eax, eax
$LN9@PyObject_G:

; 797  : 
; 798  :     _Px_WRITE_LOCK(o);

  0003b	48 8b 44 24 40	 mov	 rax, QWORD PTR o$[rsp]
  00040	48 8b 40 20	 mov	 rax, QWORD PTR [rax+32]
  00044	48 83 e0 04	 and	 rax, 4
  00048	48 85 c0	 test	 rax, rax
  0004b	74 0a		 je	 SHORT $LN6@PyObject_G
  0004d	48 8b 4c 24 40	 mov	 rcx, QWORD PTR o$[rsp]
  00052	e8 00 00 00 00	 call	 _write_lock
$LN6@PyObject_G:

; 799  :     tp = Py_ORIG_TYPE_CAST(o);

  00057	48 8b 44 24 40	 mov	 rax, QWORD PTR o$[rsp]
  0005c	48 8b 40 38	 mov	 rax, QWORD PTR [rax+56]
  00060	48 89 44 24 28	 mov	 QWORD PTR tp$[rsp], rax

; 800  :     if (tp->tp_setattro)

  00065	48 8b 44 24 28	 mov	 rax, QWORD PTR tp$[rsp]
  0006a	48 83 b8 f0 00
	00 00 00	 cmp	 QWORD PTR [rax+240], 0
  00072	74 20		 je	 SHORT $LN5@PyObject_G

; 801  :         result = (*tp->tp_setattro)(o, n, v);

  00074	4c 8b 44 24 50	 mov	 r8, QWORD PTR v$[rsp]
  00079	48 8b 54 24 48	 mov	 rdx, QWORD PTR n$[rsp]
  0007e	48 8b 4c 24 40	 mov	 rcx, QWORD PTR o$[rsp]
  00083	48 8b 44 24 28	 mov	 rax, QWORD PTR tp$[rsp]
  00088	ff 90 f0 00 00
	00		 call	 QWORD PTR [rax+240]
  0008e	89 44 24 20	 mov	 DWORD PTR result$[rsp], eax

; 802  :     else

  00092	eb 18		 jmp	 SHORT $LN4@PyObject_G
$LN5@PyObject_G:

; 803  :         result = PyObject_GenericSetAttr(o, n, v);

  00094	4c 8b 44 24 50	 mov	 r8, QWORD PTR v$[rsp]
  00099	48 8b 54 24 48	 mov	 rdx, QWORD PTR n$[rsp]
  0009e	48 8b 4c 24 40	 mov	 rcx, QWORD PTR o$[rsp]
  000a3	e8 00 00 00 00	 call	 PyObject_GenericSetAttr
  000a8	89 44 24 20	 mov	 DWORD PTR result$[rsp], eax
$LN4@PyObject_G:

; 804  :     _Px_WRITE_UNLOCK(o);

  000ac	48 8b 44 24 40	 mov	 rax, QWORD PTR o$[rsp]
  000b1	48 8b 40 20	 mov	 rax, QWORD PTR [rax+32]
  000b5	48 83 e0 04	 and	 rax, 4
  000b9	48 85 c0	 test	 rax, rax
  000bc	74 0a		 je	 SHORT $LN3@PyObject_G
  000be	48 8b 4c 24 40	 mov	 rcx, QWORD PTR o$[rsp]
  000c3	e8 00 00 00 00	 call	 _write_unlock
$LN3@PyObject_G:

; 805  :     if (result == -1 || !_Px_objobjargproc_ass(o, n, v))

  000c8	83 7c 24 20 ff	 cmp	 DWORD PTR result$[rsp], -1
  000cd	74 18		 je	 SHORT $LN1@PyObject_G
  000cf	4c 8b 44 24 50	 mov	 r8, QWORD PTR v$[rsp]
  000d4	48 8b 54 24 48	 mov	 rdx, QWORD PTR n$[rsp]
  000d9	48 8b 4c 24 40	 mov	 rcx, QWORD PTR o$[rsp]
  000de	e8 00 00 00 00	 call	 _Px_objobjargproc_ass
  000e3	85 c0		 test	 eax, eax
  000e5	75 07		 jne	 SHORT $LN2@PyObject_G
$LN1@PyObject_G:

; 806  :         return -1;

  000e7	b8 ff ff ff ff	 mov	 eax, -1
  000ec	eb 04		 jmp	 SHORT $LN7@PyObject_G
$LN2@PyObject_G:

; 807  : 
; 808  :     return result;

  000ee	8b 44 24 20	 mov	 eax, DWORD PTR result$[rsp]
$LN7@PyObject_G:

; 809  : }

  000f2	48 83 c4 38	 add	 rsp, 56			; 00000038H
  000f6	c3		 ret	 0
_PyObject_GenericSetAttr ENDP
_TEXT	ENDS
PUBLIC	_PyObject_GenericGetAttr
;	COMDAT pdata
pdata	SEGMENT
$pdata$_PyObject_GenericGetAttr DD imagerel $LN8
	DD	imagerel $LN8+197
	DD	imagerel $unwind$_PyObject_GenericGetAttr
pdata	ENDS
;	COMDAT xdata
xdata	SEGMENT
$unwind$_PyObject_GenericGetAttr DD 010e01H
	DD	0620eH
; Function compile flags: /Odtp
xdata	ENDS
;	COMDAT _PyObject_GenericGetAttr
_TEXT	SEGMENT
result$ = 32
tp$ = 40
o$ = 64
n$ = 72
_PyObject_GenericGetAttr PROC				; COMDAT

; 813  : {

$LN8:
  00000	48 89 54 24 10	 mov	 QWORD PTR [rsp+16], rdx
  00005	48 89 4c 24 08	 mov	 QWORD PTR [rsp+8], rcx
  0000a	48 83 ec 38	 sub	 rsp, 56			; 00000038H

; 814  :     PyTypeObject *tp;
; 815  :     PyObject *result;
; 816  :     assert(Py_ORIG_TYPE(o));

  0000e	48 8b 44 24 40	 mov	 rax, QWORD PTR o$[rsp]
  00013	48 83 78 38 00	 cmp	 QWORD PTR [rax+56], 0
  00018	75 1c		 jne	 SHORT $LN7@PyObject_G@2
  0001a	41 b8 30 03 00
	00		 mov	 r8d, 816		; 00000330H
  00020	48 8d 15 00 00
	00 00		 lea	 rdx, OFFSET FLAT:??_C@_1CO@DPMFPEGF@?$AA?4?$AA?4?$AA?2?$AAP?$AAy?$AAt?$AAh?$AAo?$AAn?$AA?2?$AAp?$AAy?$AAp?$AAa?$AAr?$AAa?$AAl?$AAl?$AAe?$AAl?$AA?4?$AAc?$AA?$AA@
  00027	48 8d 0d 00 00
	00 00		 lea	 rcx, OFFSET FLAT:??_C@_1CA@LIAOCINA@?$AAP?$AAy?$AA_?$AAO?$AAR?$AAI?$AAG?$AA_?$AAT?$AAY?$AAP?$AAE?$AA?$CI?$AAo?$AA?$CJ?$AA?$AA@
  0002e	ff 15 00 00 00
	00		 call	 QWORD PTR __imp__wassert
  00034	33 c0		 xor	 eax, eax
$LN7@PyObject_G@2:

; 817  : 
; 818  :     _Px_READ_LOCK(o);

  00036	48 8b 44 24 40	 mov	 rax, QWORD PTR o$[rsp]
  0003b	48 8b 40 20	 mov	 rax, QWORD PTR [rax+32]
  0003f	48 83 e0 04	 and	 rax, 4
  00043	48 85 c0	 test	 rax, rax
  00046	74 0a		 je	 SHORT $LN4@PyObject_G@2
  00048	48 8b 4c 24 40	 mov	 rcx, QWORD PTR o$[rsp]
  0004d	e8 00 00 00 00	 call	 _read_lock
$LN4@PyObject_G@2:

; 819  :     tp = Py_ORIG_TYPE_CAST(o);

  00052	48 8b 44 24 40	 mov	 rax, QWORD PTR o$[rsp]
  00057	48 8b 40 38	 mov	 rax, QWORD PTR [rax+56]
  0005b	48 89 44 24 28	 mov	 QWORD PTR tp$[rsp], rax

; 820  :     if (tp->tp_getattro)

  00060	48 8b 44 24 28	 mov	 rax, QWORD PTR tp$[rsp]
  00065	48 83 b8 e8 00
	00 00 00	 cmp	 QWORD PTR [rax+232], 0
  0006d	74 1c		 je	 SHORT $LN3@PyObject_G@2

; 821  :         result = (*tp->tp_getattro)(o, n);

  0006f	48 8b 54 24 48	 mov	 rdx, QWORD PTR n$[rsp]
  00074	48 8b 4c 24 40	 mov	 rcx, QWORD PTR o$[rsp]
  00079	48 8b 44 24 28	 mov	 rax, QWORD PTR tp$[rsp]
  0007e	ff 90 e8 00 00
	00		 call	 QWORD PTR [rax+232]
  00084	48 89 44 24 20	 mov	 QWORD PTR result$[rsp], rax

; 822  :     else

  00089	eb 14		 jmp	 SHORT $LN2@PyObject_G@2
$LN3@PyObject_G@2:

; 823  :         result = PyObject_GenericGetAttr(o, n);

  0008b	48 8b 54 24 48	 mov	 rdx, QWORD PTR n$[rsp]
  00090	48 8b 4c 24 40	 mov	 rcx, QWORD PTR o$[rsp]
  00095	e8 00 00 00 00	 call	 PyObject_GenericGetAttr
  0009a	48 89 44 24 20	 mov	 QWORD PTR result$[rsp], rax
$LN2@PyObject_G@2:

; 824  :     _Px_READ_UNLOCK(o);

  0009f	48 8b 44 24 40	 mov	 rax, QWORD PTR o$[rsp]
  000a4	48 8b 40 20	 mov	 rax, QWORD PTR [rax+32]
  000a8	48 83 e0 04	 and	 rax, 4
  000ac	48 85 c0	 test	 rax, rax
  000af	74 0a		 je	 SHORT $LN1@PyObject_G@2
  000b1	48 8b 4c 24 40	 mov	 rcx, QWORD PTR o$[rsp]
  000b6	e8 00 00 00 00	 call	 _read_unlock
$LN1@PyObject_G@2:

; 825  : 
; 826  :     return result;

  000bb	48 8b 44 24 20	 mov	 rax, QWORD PTR result$[rsp]

; 827  : }

  000c0	48 83 c4 38	 add	 rsp, 56			; 00000038H
  000c4	c3		 ret	 0
_PyObject_GenericGetAttr ENDP
_TEXT	ENDS
PUBLIC	_Py_DecRef
PUBLIC	_PyObject_SetAttrString
EXTRN	PyUnicode_InternFromString:PROC
;	COMDAT pdata
pdata	SEGMENT
$pdata$_PyObject_SetAttrString DD imagerel $LN10
	DD	imagerel $LN10+285
	DD	imagerel $unwind$_PyObject_SetAttrString
pdata	ENDS
;	COMDAT xdata
xdata	SEGMENT
$unwind$_PyObject_SetAttrString DD 011301H
	DD	08213H
; Function compile flags: /Odtp
xdata	ENDS
;	COMDAT _PyObject_SetAttrString
_TEXT	SEGMENT
result$ = 32
tp$ = 40
s$126237 = 48
o$ = 80
n$ = 88
v$ = 96
_PyObject_SetAttrString PROC				; COMDAT

; 831  : {

$LN10:
  00000	4c 89 44 24 18	 mov	 QWORD PTR [rsp+24], r8
  00005	48 89 54 24 10	 mov	 QWORD PTR [rsp+16], rdx
  0000a	48 89 4c 24 08	 mov	 QWORD PTR [rsp+8], rcx
  0000f	48 83 ec 48	 sub	 rsp, 72			; 00000048H

; 832  :     PyTypeObject *tp;
; 833  :     int result;
; 834  :     assert(Py_ORIG_TYPE(o));

  00013	48 8b 44 24 50	 mov	 rax, QWORD PTR o$[rsp]
  00018	48 83 78 38 00	 cmp	 QWORD PTR [rax+56], 0
  0001d	75 1c		 jne	 SHORT $LN9@PyObject_S
  0001f	41 b8 42 03 00
	00		 mov	 r8d, 834		; 00000342H
  00025	48 8d 15 00 00
	00 00		 lea	 rdx, OFFSET FLAT:??_C@_1CO@DPMFPEGF@?$AA?4?$AA?4?$AA?2?$AAP?$AAy?$AAt?$AAh?$AAo?$AAn?$AA?2?$AAp?$AAy?$AAp?$AAa?$AAr?$AAa?$AAl?$AAl?$AAe?$AAl?$AA?4?$AAc?$AA?$AA@
  0002c	48 8d 0d 00 00
	00 00		 lea	 rcx, OFFSET FLAT:??_C@_1CA@LIAOCINA@?$AAP?$AAy?$AA_?$AAO?$AAR?$AAI?$AAG?$AA_?$AAT?$AAY?$AAP?$AAE?$AA?$CI?$AAo?$AA?$CJ?$AA?$AA@
  00033	ff 15 00 00 00
	00		 call	 QWORD PTR __imp__wassert
  00039	33 c0		 xor	 eax, eax
$LN9@PyObject_S:

; 835  : 
; 836  :     _Px_WRITE_LOCK(o);

  0003b	48 8b 44 24 50	 mov	 rax, QWORD PTR o$[rsp]
  00040	48 8b 40 20	 mov	 rax, QWORD PTR [rax+32]
  00044	48 83 e0 04	 and	 rax, 4
  00048	48 85 c0	 test	 rax, rax
  0004b	74 0a		 je	 SHORT $LN6@PyObject_S
  0004d	48 8b 4c 24 50	 mov	 rcx, QWORD PTR o$[rsp]
  00052	e8 00 00 00 00	 call	 _write_lock
$LN6@PyObject_S:

; 837  :     tp = Py_ORIG_TYPE_CAST(o);

  00057	48 8b 44 24 50	 mov	 rax, QWORD PTR o$[rsp]
  0005c	48 8b 40 38	 mov	 rax, QWORD PTR [rax+56]
  00060	48 89 44 24 28	 mov	 QWORD PTR tp$[rsp], rax

; 838  :     if (tp->tp_setattr)

  00065	48 8b 44 24 28	 mov	 rax, QWORD PTR tp$[rsp]
  0006a	48 83 b8 a0 00
	00 00 00	 cmp	 QWORD PTR [rax+160], 0
  00072	74 20		 je	 SHORT $LN5@PyObject_S

; 839  :         result = (*tp->tp_setattr)(o, n, v);

  00074	4c 8b 44 24 60	 mov	 r8, QWORD PTR v$[rsp]
  00079	48 8b 54 24 58	 mov	 rdx, QWORD PTR n$[rsp]
  0007e	48 8b 4c 24 50	 mov	 rcx, QWORD PTR o$[rsp]
  00083	48 8b 44 24 28	 mov	 rax, QWORD PTR tp$[rsp]
  00088	ff 90 a0 00 00
	00		 call	 QWORD PTR [rax+160]
  0008e	89 44 24 20	 mov	 DWORD PTR result$[rsp], eax

; 840  :     else {

  00092	eb 40		 jmp	 SHORT $LN4@PyObject_S
$LN5@PyObject_S:

; 841  :         PyObject *s;
; 842  :         s = PyUnicode_InternFromString(n);

  00094	48 8b 4c 24 58	 mov	 rcx, QWORD PTR n$[rsp]
  00099	e8 00 00 00 00	 call	 PyUnicode_InternFromString
  0009e	48 89 44 24 30	 mov	 QWORD PTR s$126237[rsp], rax

; 843  :         if (!s)

  000a3	48 83 7c 24 30
	00		 cmp	 QWORD PTR s$126237[rsp], 0
  000a9	75 07		 jne	 SHORT $LN3@PyObject_S

; 844  :             return -1;

  000ab	b8 ff ff ff ff	 mov	 eax, -1
  000b0	eb 66		 jmp	 SHORT $LN7@PyObject_S
$LN3@PyObject_S:

; 845  :         result = PyObject_GenericSetAttr(o, s, v);

  000b2	4c 8b 44 24 60	 mov	 r8, QWORD PTR v$[rsp]
  000b7	48 8b 54 24 30	 mov	 rdx, QWORD PTR s$126237[rsp]
  000bc	48 8b 4c 24 50	 mov	 rcx, QWORD PTR o$[rsp]
  000c1	e8 00 00 00 00	 call	 PyObject_GenericSetAttr
  000c6	89 44 24 20	 mov	 DWORD PTR result$[rsp], eax

; 846  :         Py_DECREF(s);

  000ca	48 8b 4c 24 30	 mov	 rcx, QWORD PTR s$126237[rsp]
  000cf	e8 00 00 00 00	 call	 _Py_DecRef
$LN4@PyObject_S:

; 847  :     }
; 848  :     _Px_WRITE_UNLOCK(o);

  000d4	48 8b 44 24 50	 mov	 rax, QWORD PTR o$[rsp]
  000d9	48 8b 40 20	 mov	 rax, QWORD PTR [rax+32]
  000dd	48 83 e0 04	 and	 rax, 4
  000e1	48 85 c0	 test	 rax, rax
  000e4	74 0a		 je	 SHORT $LN2@PyObject_S
  000e6	48 8b 4c 24 50	 mov	 rcx, QWORD PTR o$[rsp]
  000eb	e8 00 00 00 00	 call	 _write_unlock
$LN2@PyObject_S:

; 849  :     if (result != -1 && !_Px_objobjargproc_ass(o, NULL, v))

  000f0	83 7c 24 20 ff	 cmp	 DWORD PTR result$[rsp], -1
  000f5	74 1d		 je	 SHORT $LN1@PyObject_S
  000f7	4c 8b 44 24 60	 mov	 r8, QWORD PTR v$[rsp]
  000fc	33 d2		 xor	 edx, edx
  000fe	48 8b 4c 24 50	 mov	 rcx, QWORD PTR o$[rsp]
  00103	e8 00 00 00 00	 call	 _Px_objobjargproc_ass
  00108	85 c0		 test	 eax, eax
  0010a	75 08		 jne	 SHORT $LN1@PyObject_S

; 850  :         result = -1;

  0010c	c7 44 24 20 ff
	ff ff ff	 mov	 DWORD PTR result$[rsp], -1
$LN1@PyObject_S:

; 851  : 
; 852  :     return result;

  00114	8b 44 24 20	 mov	 eax, DWORD PTR result$[rsp]
$LN7@PyObject_S:

; 853  : }

  00118	48 83 c4 48	 add	 rsp, 72			; 00000048H
  0011c	c3		 ret	 0
_PyObject_SetAttrString ENDP
_TEXT	ENDS
PUBLIC	??_C@_0L@DMHMLFIA@_Py_DecRef?$AA@		; `string'
PUBLIC	Px_DecRef
EXTRN	_Py_Dealloc:PROC
EXTRN	_Py_NegativeRefcount:PROC
;	COMDAT pdata
; File c:\src\pyparallel\include\object.h
pdata	SEGMENT
$pdata$_Py_DecRef DD imagerel $LN13
	DD	imagerel $LN13+257
	DD	imagerel $unwind$_Py_DecRef
pdata	ENDS
;	COMDAT xdata
xdata	SEGMENT
$unwind$_Py_DecRef DD 010901H
	DD	08209H
xdata	ENDS
;	COMDAT ??_C@_0L@DMHMLFIA@_Py_DecRef?$AA@
CONST	SEGMENT
??_C@_0L@DMHMLFIA@_Py_DecRef?$AA@ DB '_Py_DecRef', 00H	; `string'
; Function compile flags: /Odtp
CONST	ENDS
;	COMDAT _Py_DecRef
_TEXT	SEGMENT
tv81 = 48
op$ = 80
_Py_DecRef PROC						; COMDAT

; 923  : {

$LN13:
  00000	48 89 4c 24 08	 mov	 QWORD PTR [rsp+8], rcx
  00005	48 83 ec 48	 sub	 rsp, 72			; 00000048H

; 924  :     if (!Py_PXCTX) {

  00009	e8 00 00 00 00	 call	 _Py_PXCTX
  0000e	85 c0		 test	 eax, eax
  00010	0f 85 e6 00 00
	00		 jne	 $LN8@Py_DecRef

; 925  :         if (Px_PERSISTED(op) || Px_CLONED(op))

  00016	48 8b 44 24 50	 mov	 rax, QWORD PTR op$[rsp]
  0001b	48 8b 40 20	 mov	 rax, QWORD PTR [rax+32]
  0001f	48 83 e0 20	 and	 rax, 32			; 00000020H
  00023	48 85 c0	 test	 rax, rax
  00026	75 14		 jne	 SHORT $LN6@Py_DecRef
  00028	48 8b 44 24 50	 mov	 rax, QWORD PTR op$[rsp]
  0002d	48 8b 40 20	 mov	 rax, QWORD PTR [rax+32]
  00031	48 25 80 00 00
	00		 and	 rax, 128		; 00000080H
  00037	48 85 c0	 test	 rax, rax
  0003a	74 0f		 je	 SHORT $LN7@Py_DecRef
$LN6@Py_DecRef:

; 926  :             Px_DECREF(op);

  0003c	48 8b 4c 24 50	 mov	 rcx, QWORD PTR op$[rsp]
  00041	e8 00 00 00 00	 call	 Px_DecRef
  00046	e9 b1 00 00 00	 jmp	 $LN5@Py_DecRef
$LN7@Py_DecRef:

; 927  :         else if (!Px_ISPX(op)) {

  0004b	48 8b 44 24 50	 mov	 rax, QWORD PTR op$[rsp]
  00050	48 8b 40 20	 mov	 rax, QWORD PTR [rax+32]
  00054	48 83 e0 02	 and	 rax, 2
  00058	48 85 c0	 test	 rax, rax
  0005b	0f 85 9b 00 00
	00		 jne	 $LN4@Py_DecRef

; 928  :             _Py_DEC_REFTOTAL;

  00061	e8 00 00 00 00	 call	 _Py_PXCTX
  00066	85 c0		 test	 eax, eax
  00068	74 02		 je	 SHORT $LN11@Py_DecRef
  0006a	eb 11		 jmp	 SHORT $LN12@Py_DecRef
$LN11@Py_DecRef:
  0006c	48 8b 05 00 00
	00 00		 mov	 rax, QWORD PTR _Py_RefTotal
  00073	48 ff c8	 dec	 rax
  00076	48 89 05 00 00
	00 00		 mov	 QWORD PTR _Py_RefTotal, rax
$LN12@Py_DecRef:

; 929  :             if ((--((PyObject *)(op))->ob_refcnt) != 0) {

  0007d	48 8b 44 24 50	 mov	 rax, QWORD PTR op$[rsp]
  00082	48 8b 40 50	 mov	 rax, QWORD PTR [rax+80]
  00086	48 ff c8	 dec	 rax
  00089	48 89 44 24 30	 mov	 QWORD PTR tv81[rsp], rax
  0008e	48 8b 44 24 50	 mov	 rax, QWORD PTR op$[rsp]
  00093	48 8b 4c 24 30	 mov	 rcx, QWORD PTR tv81[rsp]
  00098	48 89 48 50	 mov	 QWORD PTR [rax+80], rcx
  0009c	48 83 7c 24 30
	00		 cmp	 QWORD PTR tv81[rsp], 0
  000a2	74 4e		 je	 SHORT $LN3@Py_DecRef

; 930  :                 _Py_CHECK_REFCNT(op);

  000a4	c7 44 24 20 10
	00 00 00	 mov	 DWORD PTR [rsp+32], 16
  000ac	4c 8b 4c 24 50	 mov	 r9, QWORD PTR op$[rsp]
  000b1	41 b8 a2 03 00
	00		 mov	 r8d, 930		; 000003a2H
  000b7	48 8d 15 00 00
	00 00		 lea	 rdx, OFFSET FLAT:??_C@_0CD@HDJFDCDP@c?3?2src?2pyparallel?2include?2object@
  000be	48 8d 0d 00 00
	00 00		 lea	 rcx, OFFSET FLAT:??_C@_0L@DMHMLFIA@_Py_DecRef?$AA@
  000c5	e8 00 00 00 00	 call	 _PyParallel_Guard
  000ca	85 c0		 test	 eax, eax
  000cc	75 22		 jne	 SHORT $LN2@Py_DecRef
  000ce	48 8b 44 24 50	 mov	 rax, QWORD PTR op$[rsp]
  000d3	48 83 78 50 00	 cmp	 QWORD PTR [rax+80], 0
  000d8	7d 16		 jge	 SHORT $LN2@Py_DecRef
  000da	4c 8b 44 24 50	 mov	 r8, QWORD PTR op$[rsp]
  000df	ba a2 03 00 00	 mov	 edx, 930		; 000003a2H
  000e4	48 8d 0d 00 00
	00 00		 lea	 rcx, OFFSET FLAT:??_C@_0CD@HDJFDCDP@c?3?2src?2pyparallel?2include?2object@
  000eb	e8 00 00 00 00	 call	 _Py_NegativeRefcount
$LN2@Py_DecRef:

; 931  :             } else

  000f0	eb 0a		 jmp	 SHORT $LN1@Py_DecRef
$LN3@Py_DecRef:

; 932  :                 _Py_Dealloc((PyObject *)(op));

  000f2	48 8b 4c 24 50	 mov	 rcx, QWORD PTR op$[rsp]
  000f7	e8 00 00 00 00	 call	 _Py_Dealloc
$LN1@Py_DecRef:
$LN4@Py_DecRef:
$LN5@Py_DecRef:
$LN8@Py_DecRef:

; 933  :         }
; 934  :     }
; 935  : }

  000fc	48 83 c4 48	 add	 rsp, 72			; 00000048H
  00100	c3		 ret	 0
_Py_DecRef ENDP
_TEXT	ENDS
PUBLIC	_PyObject_GetAttrString
;	COMDAT pdata
; File c:\src\pyparallel\python\pyparallel.c
pdata	SEGMENT
$pdata$_PyObject_GetAttrString DD imagerel $LN9
	DD	imagerel $LN9+234
	DD	imagerel $unwind$_PyObject_GetAttrString
pdata	ENDS
;	COMDAT xdata
xdata	SEGMENT
$unwind$_PyObject_GetAttrString DD 010e01H
	DD	0820eH
; Function compile flags: /Odtp
xdata	ENDS
;	COMDAT _PyObject_GetAttrString
_TEXT	SEGMENT
result$ = 32
tp$ = 40
s$126259 = 48
o$ = 80
n$ = 88
_PyObject_GetAttrString PROC				; COMDAT

; 857  : {

$LN9:
  00000	48 89 54 24 10	 mov	 QWORD PTR [rsp+16], rdx
  00005	48 89 4c 24 08	 mov	 QWORD PTR [rsp+8], rcx
  0000a	48 83 ec 48	 sub	 rsp, 72			; 00000048H

; 858  :     PyTypeObject *tp;
; 859  :     PyObject *result;
; 860  :     assert(Py_ORIG_TYPE(o));

  0000e	48 8b 44 24 50	 mov	 rax, QWORD PTR o$[rsp]
  00013	48 83 78 38 00	 cmp	 QWORD PTR [rax+56], 0
  00018	75 1c		 jne	 SHORT $LN8@PyObject_G@3
  0001a	41 b8 5c 03 00
	00		 mov	 r8d, 860		; 0000035cH
  00020	48 8d 15 00 00
	00 00		 lea	 rdx, OFFSET FLAT:??_C@_1CO@DPMFPEGF@?$AA?4?$AA?4?$AA?2?$AAP?$AAy?$AAt?$AAh?$AAo?$AAn?$AA?2?$AAp?$AAy?$AAp?$AAa?$AAr?$AAa?$AAl?$AAl?$AAe?$AAl?$AA?4?$AAc?$AA?$AA@
  00027	48 8d 0d 00 00
	00 00		 lea	 rcx, OFFSET FLAT:??_C@_1CA@LIAOCINA@?$AAP?$AAy?$AA_?$AAO?$AAR?$AAI?$AAG?$AA_?$AAT?$AAY?$AAP?$AAE?$AA?$CI?$AAo?$AA?$CJ?$AA?$AA@
  0002e	ff 15 00 00 00
	00		 call	 QWORD PTR __imp__wassert
  00034	33 c0		 xor	 eax, eax
$LN8@PyObject_G@3:

; 861  : 
; 862  :     _Px_READ_LOCK(o);

  00036	48 8b 44 24 50	 mov	 rax, QWORD PTR o$[rsp]
  0003b	48 8b 40 20	 mov	 rax, QWORD PTR [rax+32]
  0003f	48 83 e0 04	 and	 rax, 4
  00043	48 85 c0	 test	 rax, rax
  00046	74 0a		 je	 SHORT $LN5@PyObject_G@3
  00048	48 8b 4c 24 50	 mov	 rcx, QWORD PTR o$[rsp]
  0004d	e8 00 00 00 00	 call	 _read_lock
$LN5@PyObject_G@3:

; 863  :     tp = Py_ORIG_TYPE_CAST(o);

  00052	48 8b 44 24 50	 mov	 rax, QWORD PTR o$[rsp]
  00057	48 8b 40 38	 mov	 rax, QWORD PTR [rax+56]
  0005b	48 89 44 24 28	 mov	 QWORD PTR tp$[rsp], rax

; 864  :     if (tp->tp_getattr)

  00060	48 8b 44 24 28	 mov	 rax, QWORD PTR tp$[rsp]
  00065	48 83 b8 98 00
	00 00 00	 cmp	 QWORD PTR [rax+152], 0
  0006d	74 1c		 je	 SHORT $LN4@PyObject_G@3

; 865  :         result = (*tp->tp_getattr)(o, n);

  0006f	48 8b 54 24 58	 mov	 rdx, QWORD PTR n$[rsp]
  00074	48 8b 4c 24 50	 mov	 rcx, QWORD PTR o$[rsp]
  00079	48 8b 44 24 28	 mov	 rax, QWORD PTR tp$[rsp]
  0007e	ff 90 98 00 00
	00		 call	 QWORD PTR [rax+152]
  00084	48 89 44 24 20	 mov	 QWORD PTR result$[rsp], rax

; 866  :     else {

  00089	eb 39		 jmp	 SHORT $LN3@PyObject_G@3
$LN4@PyObject_G@3:

; 867  :         PyObject *s;
; 868  :         s = PyUnicode_InternFromString(n);

  0008b	48 8b 4c 24 58	 mov	 rcx, QWORD PTR n$[rsp]
  00090	e8 00 00 00 00	 call	 PyUnicode_InternFromString
  00095	48 89 44 24 30	 mov	 QWORD PTR s$126259[rsp], rax

; 869  :         if (!s)

  0009a	48 83 7c 24 30
	00		 cmp	 QWORD PTR s$126259[rsp], 0
  000a0	75 04		 jne	 SHORT $LN2@PyObject_G@3

; 870  :             return NULL;

  000a2	33 c0		 xor	 eax, eax
  000a4	eb 3f		 jmp	 SHORT $LN6@PyObject_G@3
$LN2@PyObject_G@3:

; 871  :         result = PyObject_GenericGetAttr(o, s);

  000a6	48 8b 54 24 30	 mov	 rdx, QWORD PTR s$126259[rsp]
  000ab	48 8b 4c 24 50	 mov	 rcx, QWORD PTR o$[rsp]
  000b0	e8 00 00 00 00	 call	 PyObject_GenericGetAttr
  000b5	48 89 44 24 20	 mov	 QWORD PTR result$[rsp], rax

; 872  :         Py_DECREF(s);

  000ba	48 8b 4c 24 30	 mov	 rcx, QWORD PTR s$126259[rsp]
  000bf	e8 00 00 00 00	 call	 _Py_DecRef
$LN3@PyObject_G@3:

; 873  :     }
; 874  :     _Px_READ_UNLOCK(o);

  000c4	48 8b 44 24 50	 mov	 rax, QWORD PTR o$[rsp]
  000c9	48 8b 40 20	 mov	 rax, QWORD PTR [rax+32]
  000cd	48 83 e0 04	 and	 rax, 4
  000d1	48 85 c0	 test	 rax, rax
  000d4	74 0a		 je	 SHORT $LN1@PyObject_G@3
  000d6	48 8b 4c 24 50	 mov	 rcx, QWORD PTR o$[rsp]
  000db	e8 00 00 00 00	 call	 _read_unlock
$LN1@PyObject_G@3:

; 875  : 
; 876  :     return result;

  000e0	48 8b 44 24 20	 mov	 rax, QWORD PTR result$[rsp]
$LN6@PyObject_G@3:

; 877  : }

  000e5	48 83 c4 48	 add	 rsp, 72			; 00000048H
  000e9	c3		 ret	 0
_PyObject_GetAttrString ENDP
_TEXT	ENDS
PUBLIC	_Px_mp_length
;	COMDAT pdata
pdata	SEGMENT
$pdata$_Px_mp_length DD imagerel $LN6
	DD	imagerel $LN6+143
	DD	imagerel $unwind$_Px_mp_length
pdata	ENDS
;	COMDAT xdata
xdata	SEGMENT
$unwind$_Px_mp_length DD 010901H
	DD	06209H
; Function compile flags: /Odtp
xdata	ENDS
;	COMDAT _Px_mp_length
_TEXT	SEGMENT
result$ = 32
o$ = 64
_Px_mp_length PROC					; COMDAT

; 882  : {

$LN6:
  00000	48 89 4c 24 08	 mov	 QWORD PTR [rsp+8], rcx
  00005	48 83 ec 38	 sub	 rsp, 56			; 00000038H

; 883  :     Py_ssize_t result;
; 884  :     assert(Py_ORIG_TYPE(o));

  00009	48 8b 44 24 40	 mov	 rax, QWORD PTR o$[rsp]
  0000e	48 83 78 38 00	 cmp	 QWORD PTR [rax+56], 0
  00013	75 1c		 jne	 SHORT $LN5@Px_mp_leng
  00015	41 b8 74 03 00
	00		 mov	 r8d, 884		; 00000374H
  0001b	48 8d 15 00 00
	00 00		 lea	 rdx, OFFSET FLAT:??_C@_1CO@DPMFPEGF@?$AA?4?$AA?4?$AA?2?$AAP?$AAy?$AAt?$AAh?$AAo?$AAn?$AA?2?$AAp?$AAy?$AAp?$AAa?$AAr?$AAa?$AAl?$AAl?$AAe?$AAl?$AA?4?$AAc?$AA?$AA@
  00022	48 8d 0d 00 00
	00 00		 lea	 rcx, OFFSET FLAT:??_C@_1CA@LIAOCINA@?$AAP?$AAy?$AA_?$AAO?$AAR?$AAI?$AAG?$AA_?$AAT?$AAY?$AAP?$AAE?$AA?$CI?$AAo?$AA?$CJ?$AA?$AA@
  00029	ff 15 00 00 00
	00		 call	 QWORD PTR __imp__wassert
  0002f	33 c0		 xor	 eax, eax
$LN5@Px_mp_leng:

; 885  :     _Px_READ_LOCK(o);

  00031	48 8b 44 24 40	 mov	 rax, QWORD PTR o$[rsp]
  00036	48 8b 40 20	 mov	 rax, QWORD PTR [rax+32]
  0003a	48 83 e0 04	 and	 rax, 4
  0003e	48 85 c0	 test	 rax, rax
  00041	74 0a		 je	 SHORT $LN2@Px_mp_leng
  00043	48 8b 4c 24 40	 mov	 rcx, QWORD PTR o$[rsp]
  00048	e8 00 00 00 00	 call	 _read_lock
$LN2@Px_mp_leng:

; 886  :     result = Py_ORIG_TYPE_CAST(o)->tp_as_mapping->mp_length(o);

  0004d	48 8b 44 24 40	 mov	 rax, QWORD PTR o$[rsp]
  00052	48 8b 40 38	 mov	 rax, QWORD PTR [rax+56]
  00056	48 8b 80 c8 00
	00 00		 mov	 rax, QWORD PTR [rax+200]
  0005d	48 8b 4c 24 40	 mov	 rcx, QWORD PTR o$[rsp]
  00062	ff 10		 call	 QWORD PTR [rax]
  00064	48 89 44 24 20	 mov	 QWORD PTR result$[rsp], rax

; 887  :     _Px_READ_UNLOCK(o);

  00069	48 8b 44 24 40	 mov	 rax, QWORD PTR o$[rsp]
  0006e	48 8b 40 20	 mov	 rax, QWORD PTR [rax+32]
  00072	48 83 e0 04	 and	 rax, 4
  00076	48 85 c0	 test	 rax, rax
  00079	74 0a		 je	 SHORT $LN1@Px_mp_leng
  0007b	48 8b 4c 24 40	 mov	 rcx, QWORD PTR o$[rsp]
  00080	e8 00 00 00 00	 call	 _read_unlock
$LN1@Px_mp_leng:

; 888  :     return result;

  00085	48 8b 44 24 20	 mov	 rax, QWORD PTR result$[rsp]

; 889  : }

  0008a	48 83 c4 38	 add	 rsp, 56			; 00000038H
  0008e	c3		 ret	 0
_Px_mp_length ENDP
_TEXT	ENDS
PUBLIC	_Px_mp_subcript
;	COMDAT pdata
pdata	SEGMENT
$pdata$_Px_mp_subcript DD imagerel $LN6
	DD	imagerel $LN6+154
	DD	imagerel $unwind$_Px_mp_subcript
pdata	ENDS
;	COMDAT xdata
xdata	SEGMENT
$unwind$_Px_mp_subcript DD 010e01H
	DD	0620eH
; Function compile flags: /Odtp
xdata	ENDS
;	COMDAT _Px_mp_subcript
_TEXT	SEGMENT
result$ = 32
o$ = 64
k$ = 72
_Px_mp_subcript PROC					; COMDAT

; 893  : {

$LN6:
  00000	48 89 54 24 10	 mov	 QWORD PTR [rsp+16], rdx
  00005	48 89 4c 24 08	 mov	 QWORD PTR [rsp+8], rcx
  0000a	48 83 ec 38	 sub	 rsp, 56			; 00000038H

; 894  :     PyObject *result;
; 895  :     assert(Py_ORIG_TYPE(o));

  0000e	48 8b 44 24 40	 mov	 rax, QWORD PTR o$[rsp]
  00013	48 83 78 38 00	 cmp	 QWORD PTR [rax+56], 0
  00018	75 1c		 jne	 SHORT $LN5@Px_mp_subc
  0001a	41 b8 7f 03 00
	00		 mov	 r8d, 895		; 0000037fH
  00020	48 8d 15 00 00
	00 00		 lea	 rdx, OFFSET FLAT:??_C@_1CO@DPMFPEGF@?$AA?4?$AA?4?$AA?2?$AAP?$AAy?$AAt?$AAh?$AAo?$AAn?$AA?2?$AAp?$AAy?$AAp?$AAa?$AAr?$AAa?$AAl?$AAl?$AAe?$AAl?$AA?4?$AAc?$AA?$AA@
  00027	48 8d 0d 00 00
	00 00		 lea	 rcx, OFFSET FLAT:??_C@_1CA@LIAOCINA@?$AAP?$AAy?$AA_?$AAO?$AAR?$AAI?$AAG?$AA_?$AAT?$AAY?$AAP?$AAE?$AA?$CI?$AAo?$AA?$CJ?$AA?$AA@
  0002e	ff 15 00 00 00
	00		 call	 QWORD PTR __imp__wassert
  00034	33 c0		 xor	 eax, eax
$LN5@Px_mp_subc:

; 896  :     _Px_READ_LOCK(o);

  00036	48 8b 44 24 40	 mov	 rax, QWORD PTR o$[rsp]
  0003b	48 8b 40 20	 mov	 rax, QWORD PTR [rax+32]
  0003f	48 83 e0 04	 and	 rax, 4
  00043	48 85 c0	 test	 rax, rax
  00046	74 0a		 je	 SHORT $LN2@Px_mp_subc
  00048	48 8b 4c 24 40	 mov	 rcx, QWORD PTR o$[rsp]
  0004d	e8 00 00 00 00	 call	 _read_lock
$LN2@Px_mp_subc:

; 897  :     result = Py_ORIG_TYPE_CAST(o)->tp_as_mapping->mp_subscript(o, k);

  00052	48 8b 44 24 40	 mov	 rax, QWORD PTR o$[rsp]
  00057	48 8b 40 38	 mov	 rax, QWORD PTR [rax+56]
  0005b	48 8b 80 c8 00
	00 00		 mov	 rax, QWORD PTR [rax+200]
  00062	48 8b 54 24 48	 mov	 rdx, QWORD PTR k$[rsp]
  00067	48 8b 4c 24 40	 mov	 rcx, QWORD PTR o$[rsp]
  0006c	ff 50 08	 call	 QWORD PTR [rax+8]
  0006f	48 89 44 24 20	 mov	 QWORD PTR result$[rsp], rax

; 898  :     _Px_READ_UNLOCK(o);

  00074	48 8b 44 24 40	 mov	 rax, QWORD PTR o$[rsp]
  00079	48 8b 40 20	 mov	 rax, QWORD PTR [rax+32]
  0007d	48 83 e0 04	 and	 rax, 4
  00081	48 85 c0	 test	 rax, rax
  00084	74 0a		 je	 SHORT $LN1@Px_mp_subc
  00086	48 8b 4c 24 40	 mov	 rcx, QWORD PTR o$[rsp]
  0008b	e8 00 00 00 00	 call	 _read_unlock
$LN1@Px_mp_subc:

; 899  :     return result;

  00090	48 8b 44 24 20	 mov	 rax, QWORD PTR result$[rsp]

; 900  : }

  00095	48 83 c4 38	 add	 rsp, 56			; 00000038H
  00099	c3		 ret	 0
_Px_mp_subcript ENDP
_TEXT	ENDS
PUBLIC	_Px_mp_ass_subscript
;	COMDAT pdata
pdata	SEGMENT
$pdata$_Px_mp_ass_subscript DD imagerel $LN8
	DD	imagerel $LN8+200
	DD	imagerel $unwind$_Px_mp_ass_subscript
pdata	ENDS
;	COMDAT xdata
xdata	SEGMENT
$unwind$_Px_mp_ass_subscript DD 011301H
	DD	06213H
; Function compile flags: /Odtp
xdata	ENDS
;	COMDAT _Px_mp_ass_subscript
_TEXT	SEGMENT
result$ = 32
o$ = 64
k$ = 72
v$ = 80
_Px_mp_ass_subscript PROC				; COMDAT

; 904  : {

$LN8:
  00000	4c 89 44 24 18	 mov	 QWORD PTR [rsp+24], r8
  00005	48 89 54 24 10	 mov	 QWORD PTR [rsp+16], rdx
  0000a	48 89 4c 24 08	 mov	 QWORD PTR [rsp+8], rcx
  0000f	48 83 ec 38	 sub	 rsp, 56			; 00000038H

; 905  :     int result;
; 906  :     assert(Py_ORIG_TYPE(o));

  00013	48 8b 44 24 40	 mov	 rax, QWORD PTR o$[rsp]
  00018	48 83 78 38 00	 cmp	 QWORD PTR [rax+56], 0
  0001d	75 1c		 jne	 SHORT $LN7@Px_mp_ass_
  0001f	41 b8 8a 03 00
	00		 mov	 r8d, 906		; 0000038aH
  00025	48 8d 15 00 00
	00 00		 lea	 rdx, OFFSET FLAT:??_C@_1CO@DPMFPEGF@?$AA?4?$AA?4?$AA?2?$AAP?$AAy?$AAt?$AAh?$AAo?$AAn?$AA?2?$AAp?$AAy?$AAp?$AAa?$AAr?$AAa?$AAl?$AAl?$AAe?$AAl?$AA?4?$AAc?$AA?$AA@
  0002c	48 8d 0d 00 00
	00 00		 lea	 rcx, OFFSET FLAT:??_C@_1CA@LIAOCINA@?$AAP?$AAy?$AA_?$AAO?$AAR?$AAI?$AAG?$AA_?$AAT?$AAY?$AAP?$AAE?$AA?$CI?$AAo?$AA?$CJ?$AA?$AA@
  00033	ff 15 00 00 00
	00		 call	 QWORD PTR __imp__wassert
  00039	33 c0		 xor	 eax, eax
$LN7@Px_mp_ass_:

; 907  :     _Px_WRITE_LOCK(o);

  0003b	48 8b 44 24 40	 mov	 rax, QWORD PTR o$[rsp]
  00040	48 8b 40 20	 mov	 rax, QWORD PTR [rax+32]
  00044	48 83 e0 04	 and	 rax, 4
  00048	48 85 c0	 test	 rax, rax
  0004b	74 0a		 je	 SHORT $LN4@Px_mp_ass_
  0004d	48 8b 4c 24 40	 mov	 rcx, QWORD PTR o$[rsp]
  00052	e8 00 00 00 00	 call	 _write_lock
$LN4@Px_mp_ass_:

; 908  :     result = Py_ORIG_TYPE_CAST(o)->tp_as_mapping->mp_ass_subscript(o, k, v);

  00057	48 8b 44 24 40	 mov	 rax, QWORD PTR o$[rsp]
  0005c	48 8b 40 38	 mov	 rax, QWORD PTR [rax+56]
  00060	48 8b 80 c8 00
	00 00		 mov	 rax, QWORD PTR [rax+200]
  00067	4c 8b 44 24 50	 mov	 r8, QWORD PTR v$[rsp]
  0006c	48 8b 54 24 48	 mov	 rdx, QWORD PTR k$[rsp]
  00071	48 8b 4c 24 40	 mov	 rcx, QWORD PTR o$[rsp]
  00076	ff 50 10	 call	 QWORD PTR [rax+16]
  00079	89 44 24 20	 mov	 DWORD PTR result$[rsp], eax

; 909  :     _Px_WRITE_UNLOCK(o);

  0007d	48 8b 44 24 40	 mov	 rax, QWORD PTR o$[rsp]
  00082	48 8b 40 20	 mov	 rax, QWORD PTR [rax+32]
  00086	48 83 e0 04	 and	 rax, 4
  0008a	48 85 c0	 test	 rax, rax
  0008d	74 0a		 je	 SHORT $LN3@Px_mp_ass_
  0008f	48 8b 4c 24 40	 mov	 rcx, QWORD PTR o$[rsp]
  00094	e8 00 00 00 00	 call	 _write_unlock
$LN3@Px_mp_ass_:

; 910  :     if (result == -1 || !_Px_objobjargproc_ass(o, k, v))

  00099	83 7c 24 20 ff	 cmp	 DWORD PTR result$[rsp], -1
  0009e	74 18		 je	 SHORT $LN1@Px_mp_ass_
  000a0	4c 8b 44 24 50	 mov	 r8, QWORD PTR v$[rsp]
  000a5	48 8b 54 24 48	 mov	 rdx, QWORD PTR k$[rsp]
  000aa	48 8b 4c 24 40	 mov	 rcx, QWORD PTR o$[rsp]
  000af	e8 00 00 00 00	 call	 _Px_objobjargproc_ass
  000b4	85 c0		 test	 eax, eax
  000b6	75 07		 jne	 SHORT $LN2@Px_mp_ass_
$LN1@Px_mp_ass_:

; 911  :         return -1;

  000b8	b8 ff ff ff ff	 mov	 eax, -1
  000bd	eb 04		 jmp	 SHORT $LN5@Px_mp_ass_
$LN2@Px_mp_ass_:

; 912  :     return result;

  000bf	8b 44 24 20	 mov	 eax, DWORD PTR result$[rsp]
$LN5@Px_mp_ass_:

; 913  : }

  000c3	48 83 c4 38	 add	 rsp, 56			; 00000038H
  000c7	c3		 ret	 0
_Px_mp_ass_subscript ENDP
_TEXT	ENDS
PUBLIC	_Px_sq_length
;	COMDAT pdata
pdata	SEGMENT
$pdata$_Px_sq_length DD imagerel $LN6
	DD	imagerel $LN6+143
	DD	imagerel $unwind$_Px_sq_length
pdata	ENDS
;	COMDAT xdata
xdata	SEGMENT
$unwind$_Px_sq_length DD 010901H
	DD	06209H
; Function compile flags: /Odtp
xdata	ENDS
;	COMDAT _Px_sq_length
_TEXT	SEGMENT
result$ = 32
o$ = 64
_Px_sq_length PROC					; COMDAT

; 918  : {

$LN6:
  00000	48 89 4c 24 08	 mov	 QWORD PTR [rsp+8], rcx
  00005	48 83 ec 38	 sub	 rsp, 56			; 00000038H

; 919  :     Py_ssize_t result;
; 920  :     assert(Py_ORIG_TYPE(o));

  00009	48 8b 44 24 40	 mov	 rax, QWORD PTR o$[rsp]
  0000e	48 83 78 38 00	 cmp	 QWORD PTR [rax+56], 0
  00013	75 1c		 jne	 SHORT $LN5@Px_sq_leng
  00015	41 b8 98 03 00
	00		 mov	 r8d, 920		; 00000398H
  0001b	48 8d 15 00 00
	00 00		 lea	 rdx, OFFSET FLAT:??_C@_1CO@DPMFPEGF@?$AA?4?$AA?4?$AA?2?$AAP?$AAy?$AAt?$AAh?$AAo?$AAn?$AA?2?$AAp?$AAy?$AAp?$AAa?$AAr?$AAa?$AAl?$AAl?$AAe?$AAl?$AA?4?$AAc?$AA?$AA@
  00022	48 8d 0d 00 00
	00 00		 lea	 rcx, OFFSET FLAT:??_C@_1CA@LIAOCINA@?$AAP?$AAy?$AA_?$AAO?$AAR?$AAI?$AAG?$AA_?$AAT?$AAY?$AAP?$AAE?$AA?$CI?$AAo?$AA?$CJ?$AA?$AA@
  00029	ff 15 00 00 00
	00		 call	 QWORD PTR __imp__wassert
  0002f	33 c0		 xor	 eax, eax
$LN5@Px_sq_leng:

; 921  :     _Px_READ_LOCK(o);

  00031	48 8b 44 24 40	 mov	 rax, QWORD PTR o$[rsp]
  00036	48 8b 40 20	 mov	 rax, QWORD PTR [rax+32]
  0003a	48 83 e0 04	 and	 rax, 4
  0003e	48 85 c0	 test	 rax, rax
  00041	74 0a		 je	 SHORT $LN2@Px_sq_leng
  00043	48 8b 4c 24 40	 mov	 rcx, QWORD PTR o$[rsp]
  00048	e8 00 00 00 00	 call	 _read_lock
$LN2@Px_sq_leng:

; 922  :     result = Py_ORIG_TYPE_CAST(o)->tp_as_sequence->sq_length(o);

  0004d	48 8b 44 24 40	 mov	 rax, QWORD PTR o$[rsp]
  00052	48 8b 40 38	 mov	 rax, QWORD PTR [rax+56]
  00056	48 8b 80 c0 00
	00 00		 mov	 rax, QWORD PTR [rax+192]
  0005d	48 8b 4c 24 40	 mov	 rcx, QWORD PTR o$[rsp]
  00062	ff 10		 call	 QWORD PTR [rax]
  00064	48 89 44 24 20	 mov	 QWORD PTR result$[rsp], rax

; 923  :     _Px_READ_UNLOCK(o);

  00069	48 8b 44 24 40	 mov	 rax, QWORD PTR o$[rsp]
  0006e	48 8b 40 20	 mov	 rax, QWORD PTR [rax+32]
  00072	48 83 e0 04	 and	 rax, 4
  00076	48 85 c0	 test	 rax, rax
  00079	74 0a		 je	 SHORT $LN1@Px_sq_leng
  0007b	48 8b 4c 24 40	 mov	 rcx, QWORD PTR o$[rsp]
  00080	e8 00 00 00 00	 call	 _read_unlock
$LN1@Px_sq_leng:

; 924  :     return result;

  00085	48 8b 44 24 20	 mov	 rax, QWORD PTR result$[rsp]

; 925  : }

  0008a	48 83 c4 38	 add	 rsp, 56			; 00000038H
  0008e	c3		 ret	 0
_Px_sq_length ENDP
_TEXT	ENDS
PUBLIC	??_C@_1CC@DNBCFJEA@?$AAP?$AAy?$AAE?$AAr?$AAr?$AA_?$AAO?$AAc?$AAc?$AAu?$AAr?$AAr?$AAe?$AAd?$AA?$CI?$AA?$CJ?$AA?$AA@ ; `string'
PUBLIC	??_C@_1KK@HMDJKLL@?$AA?$CB?$AAo?$AAl?$AAd?$AA_?$AAm?$AAm?$AA?9?$AA?$DO?$AAm?$AAp?$AA_?$AAa?$AAs?$AAs?$AA_?$AAs?$AAu?$AAb?$AAs?$AAc?$AAr?$AAi?$AAp?$AAt?$AA?5?$AA?$DP?$AA?5?$AA1?$AA?5?$AA?3?$AA?5@ ; `string'
PUBLIC	??_C@_1HK@NEFIHBMA@?$AAo?$AAl?$AAd?$AA_?$AAm?$AAm?$AA?9?$AA?$DO?$AAm?$AAp?$AA_?$AAl?$AAe?$AAn?$AAg?$AAt?$AAh?$AA?5?$AA?$DP?$AA?5?$AA?$CI?$AAn?$AAe?$AAw?$AA_?$AAm?$AAm?$AA?9?$AA?$DO?$AAm?$AAp?$AA_@ ; `string'
PUBLIC	??_C@_1FA@OPBLMOG@?$AAn?$AAe?$AAw?$AA_?$AAm?$AAm?$AA?9?$AA?$DO?$AAm?$AAp?$AA_?$AAs?$AAu?$AAb?$AAs?$AAc?$AAr?$AAi?$AAp?$AAt?$AA?5?$AA?$DN?$AA?$DN?$AA?5?$AA_?$AAP?$AAx?$AA_?$AAm?$AAp?$AA_?$AAs@ ; `string'
PUBLIC	??_C@_1GE@PGHPFG@?$AAP?$AAy?$AA_?$AAT?$AAY?$AAP?$AAE?$AA?$CI?$AAo?$AA?$CJ?$AA?9?$AA?$DO?$AAt?$AAp?$AA_?$AAg?$AAe?$AAt?$AAa?$AAt?$AAt?$AAr?$AA?5?$AA?$DN?$AA?$DN?$AA?5?$AA_?$AAP?$AAy?$AAO?$AAb?$AAj@ ; `string'
PUBLIC	??_C@_1GE@DFKDCIGI@?$AAP?$AAy?$AA_?$AAT?$AAY?$AAP?$AAE?$AA?$CI?$AAo?$AA?$CJ?$AA?9?$AA?$DO?$AAt?$AAp?$AA_?$AAs?$AAe?$AAt?$AAa?$AAt?$AAt?$AAr?$AA?5?$AA?$DN?$AA?$DN?$AA?5?$AA_?$AAP?$AAy?$AAO?$AAb?$AAj@ ; `string'
PUBLIC	??_C@_1GI@OHPMNKMC@?$AAP?$AAy?$AA_?$AAT?$AAY?$AAP?$AAE?$AA?$CI?$AAo?$AA?$CJ?$AA?9?$AA?$DO?$AAt?$AAp?$AA_?$AAg?$AAe?$AAt?$AAa?$AAt?$AAt?$AAr?$AAo?$AA?5?$AA?$DN?$AA?$DN?$AA?5?$AA_?$AAP?$AAy?$AAO?$AAb@ ; `string'
PUBLIC	??_C@_1GI@FBEBAGIN@?$AAP?$AAy?$AA_?$AAT?$AAY?$AAP?$AAE?$AA?$CI?$AAo?$AA?$CJ?$AA?9?$AA?$DO?$AAt?$AAp?$AA_?$AAs?$AAe?$AAt?$AAa?$AAt?$AAt?$AAr?$AAo?$AA?5?$AA?$DN?$AA?$DN?$AA?5?$AA_?$AAP?$AAy?$AAO?$AAb@ ; `string'
PUBLIC	??_C@_1FI@MFFGIELI@?$AAP?$AAy?$AA_?$AAT?$AAY?$AAP?$AAE?$AA?$CI?$AAo?$AA?$CJ?$AA?9?$AA?$DO?$AAt?$AAp?$AA_?$AAd?$AAe?$AAa?$AAl?$AAl?$AAo?$AAc?$AA?5?$AA?$DN?$AA?$DN?$AA?5?$AA_?$AAP?$AAy?$AAO?$AAb?$AAj@ ; `string'
PUBLIC	??_C@_1GM@JAGGOPJC@?$AAP?$AAy?$AA_?$AAO?$AAR?$AAI?$AAG?$AA_?$AAT?$AAY?$AAP?$AAE?$AA_?$AAC?$AAA?$AAS?$AAT?$AA?$CI?$AAo?$AA?$CJ?$AA?9?$AA?$DO?$AAt?$AAp?$AA_?$AAd?$AAe?$AAa?$AAl?$AAl?$AAo?$AAc@ ; `string'
PUBLIC	??_C@_1EC@MDHCKPLC@?$AAP?$AAy?$AA_?$AAO?$AAR?$AAI?$AAG?$AA_?$AAT?$AAY?$AAP?$AAE?$AA_?$AAC?$AAA?$AAS?$AAT?$AA?$CI?$AAo?$AA?$CJ?$AA?9?$AA?$DO?$AAt?$AAp?$AA_?$AAd?$AAe?$AAa?$AAl?$AAl?$AAo?$AAc@ ; `string'
PUBLIC	??_C@_0BK@BNIPEKEF@GC?5object?5already?5tracked?$AA@ ; `string'
PUBLIC	??_C@_1EM@HFMJMDDM@?$AAg?$AA?9?$AA?$DO?$AAg?$AAc?$AA?4?$AAg?$AAc?$AA_?$AAr?$AAe?$AAf?$AAs?$AA?5?$AA?$CB?$AA?$DN?$AA?5?$AA_?$AAP?$AAy?$AAG?$AAC?$AA_?$AAR?$AAE?$AAF?$AAS?$AA_?$AAU?$AAN?$AAT?$AAR@ ; `string'
PUBLIC	_PxMem_Malloc
PUBLIC	??_C@_0BH@KCLIIPCK@_PyObject_PrepOrigType?$AA@	; `string'
PUBLIC	_PyObject_PrepOrigType
EXTRN	PyErr_Occurred:PROC
EXTRN	_PyGC_generation0:QWORD
EXTRN	PyErr_NoMemory:PROC
EXTRN	_PyMem_DebugMalloc:PROC
;	COMDAT pdata
pdata	SEGMENT
$pdata$_PyObject_PrepOrigType DD imagerel $LN75
	DD	imagerel $LN75+2638
	DD	imagerel $unwind$_PyObject_PrepOrigType
pdata	ENDS
;	COMDAT xdata
xdata	SEGMENT
$unwind$_PyObject_PrepOrigType DD 021101H
	DD	0230111H
xdata	ENDS
;	COMDAT ??_C@_1CC@DNBCFJEA@?$AAP?$AAy?$AAE?$AAr?$AAr?$AA_?$AAO?$AAc?$AAc?$AAu?$AAr?$AAr?$AAe?$AAd?$AA?$CI?$AA?$CJ?$AA?$AA@
CONST	SEGMENT
??_C@_1CC@DNBCFJEA@?$AAP?$AAy?$AAE?$AAr?$AAr?$AA_?$AAO?$AAc?$AAc?$AAu?$AAr?$AAr?$AAe?$AAd?$AA?$CI?$AA?$CJ?$AA?$AA@ DB 'P'
	DB	00H, 'y', 00H, 'E', 00H, 'r', 00H, 'r', 00H, '_', 00H, 'O', 00H
	DB	'c', 00H, 'c', 00H, 'u', 00H, 'r', 00H, 'r', 00H, 'e', 00H, 'd'
	DB	00H, '(', 00H, ')', 00H, 00H, 00H		; `string'
CONST	ENDS
;	COMDAT ??_C@_1KK@HMDJKLL@?$AA?$CB?$AAo?$AAl?$AAd?$AA_?$AAm?$AAm?$AA?9?$AA?$DO?$AAm?$AAp?$AA_?$AAa?$AAs?$AAs?$AA_?$AAs?$AAu?$AAb?$AAs?$AAc?$AAr?$AAi?$AAp?$AAt?$AA?5?$AA?$DP?$AA?5?$AA1?$AA?5?$AA?3?$AA?5@
CONST	SEGMENT
??_C@_1KK@HMDJKLL@?$AA?$CB?$AAo?$AAl?$AAd?$AA_?$AAm?$AAm?$AA?9?$AA?$DO?$AAm?$AAp?$AA_?$AAa?$AAs?$AAs?$AA_?$AAs?$AAu?$AAb?$AAs?$AAc?$AAr?$AAi?$AAp?$AAt?$AA?5?$AA?$DP?$AA?5?$AA1?$AA?5?$AA?3?$AA?5@ DB '!'
	DB	00H, 'o', 00H, 'l', 00H, 'd', 00H, '_', 00H, 'm', 00H, 'm', 00H
	DB	'-', 00H, '>', 00H, 'm', 00H, 'p', 00H, '_', 00H, 'a', 00H, 's'
	DB	00H, 's', 00H, '_', 00H, 's', 00H, 'u', 00H, 'b', 00H, 's', 00H
	DB	'c', 00H, 'r', 00H, 'i', 00H, 'p', 00H, 't', 00H, ' ', 00H, '?'
	DB	00H, ' ', 00H, '1', 00H, ' ', 00H, ':', 00H, ' ', 00H, '(', 00H
	DB	' ', 00H, 'n', 00H, 'e', 00H, 'w', 00H, '_', 00H, 'm', 00H, 'm'
	DB	00H, '-', 00H, '>', 00H, 'm', 00H, 'p', 00H, '_', 00H, 'a', 00H
	DB	's', 00H, 's', 00H, '_', 00H, 's', 00H, 'u', 00H, 'b', 00H, 's'
	DB	00H, 'c', 00H, 'r', 00H, 'i', 00H, 'p', 00H, 't', 00H, ' ', 00H
	DB	'=', 00H, '=', 00H, ' ', 00H, '_', 00H, 'P', 00H, 'x', 00H, '_'
	DB	00H, 'm', 00H, 'p', 00H, '_', 00H, 'a', 00H, 's', 00H, 's', 00H
	DB	'_', 00H, 's', 00H, 'u', 00H, 'b', 00H, 's', 00H, 'c', 00H, 'r'
	DB	00H, 'i', 00H, 'p', 00H, 't', 00H, ' ', 00H, ')', 00H, 00H, 00H ; `string'
CONST	ENDS
;	COMDAT ??_C@_1HK@NEFIHBMA@?$AAo?$AAl?$AAd?$AA_?$AAm?$AAm?$AA?9?$AA?$DO?$AAm?$AAp?$AA_?$AAl?$AAe?$AAn?$AAg?$AAt?$AAh?$AA?5?$AA?$DP?$AA?5?$AA?$CI?$AAn?$AAe?$AAw?$AA_?$AAm?$AAm?$AA?9?$AA?$DO?$AAm?$AAp?$AA_@
CONST	SEGMENT
??_C@_1HK@NEFIHBMA@?$AAo?$AAl?$AAd?$AA_?$AAm?$AAm?$AA?9?$AA?$DO?$AAm?$AAp?$AA_?$AAl?$AAe?$AAn?$AAg?$AAt?$AAh?$AA?5?$AA?$DP?$AA?5?$AA?$CI?$AAn?$AAe?$AAw?$AA_?$AAm?$AAm?$AA?9?$AA?$DO?$AAm?$AAp?$AA_@ DB 'o'
	DB	00H, 'l', 00H, 'd', 00H, '_', 00H, 'm', 00H, 'm', 00H, '-', 00H
	DB	'>', 00H, 'm', 00H, 'p', 00H, '_', 00H, 'l', 00H, 'e', 00H, 'n'
	DB	00H, 'g', 00H, 't', 00H, 'h', 00H, ' ', 00H, '?', 00H, ' ', 00H
	DB	'(', 00H, 'n', 00H, 'e', 00H, 'w', 00H, '_', 00H, 'm', 00H, 'm'
	DB	00H, '-', 00H, '>', 00H, 'm', 00H, 'p', 00H, '_', 00H, 'l', 00H
	DB	'e', 00H, 'n', 00H, 'g', 00H, 't', 00H, 'h', 00H, ' ', 00H, '='
	DB	00H, '=', 00H, ' ', 00H, '_', 00H, 'P', 00H, 'x', 00H, '_', 00H
	DB	'm', 00H, 'p', 00H, '_', 00H, 'l', 00H, 'e', 00H, 'n', 00H, 'g'
	DB	00H, 't', 00H, 'h', 00H, ')', 00H, ' ', 00H, ':', 00H, ' ', 00H
	DB	'1', 00H, 00H, 00H				; `string'
CONST	ENDS
;	COMDAT ??_C@_1FA@OPBLMOG@?$AAn?$AAe?$AAw?$AA_?$AAm?$AAm?$AA?9?$AA?$DO?$AAm?$AAp?$AA_?$AAs?$AAu?$AAb?$AAs?$AAc?$AAr?$AAi?$AAp?$AAt?$AA?5?$AA?$DN?$AA?$DN?$AA?5?$AA_?$AAP?$AAx?$AA_?$AAm?$AAp?$AA_?$AAs@
CONST	SEGMENT
??_C@_1FA@OPBLMOG@?$AAn?$AAe?$AAw?$AA_?$AAm?$AAm?$AA?9?$AA?$DO?$AAm?$AAp?$AA_?$AAs?$AAu?$AAb?$AAs?$AAc?$AAr?$AAi?$AAp?$AAt?$AA?5?$AA?$DN?$AA?$DN?$AA?5?$AA_?$AAP?$AAx?$AA_?$AAm?$AAp?$AA_?$AAs@ DB 'n'
	DB	00H, 'e', 00H, 'w', 00H, '_', 00H, 'm', 00H, 'm', 00H, '-', 00H
	DB	'>', 00H, 'm', 00H, 'p', 00H, '_', 00H, 's', 00H, 'u', 00H, 'b'
	DB	00H, 's', 00H, 'c', 00H, 'r', 00H, 'i', 00H, 'p', 00H, 't', 00H
	DB	' ', 00H, '=', 00H, '=', 00H, ' ', 00H, '_', 00H, 'P', 00H, 'x'
	DB	00H, '_', 00H, 'm', 00H, 'p', 00H, '_', 00H, 's', 00H, 'u', 00H
	DB	'b', 00H, 'c', 00H, 'r', 00H, 'i', 00H, 'p', 00H, 't', 00H, 00H
	DB	00H						; `string'
CONST	ENDS
;	COMDAT ??_C@_1GE@PGHPFG@?$AAP?$AAy?$AA_?$AAT?$AAY?$AAP?$AAE?$AA?$CI?$AAo?$AA?$CJ?$AA?9?$AA?$DO?$AAt?$AAp?$AA_?$AAg?$AAe?$AAt?$AAa?$AAt?$AAt?$AAr?$AA?5?$AA?$DN?$AA?$DN?$AA?5?$AA_?$AAP?$AAy?$AAO?$AAb?$AAj@
CONST	SEGMENT
??_C@_1GE@PGHPFG@?$AAP?$AAy?$AA_?$AAT?$AAY?$AAP?$AAE?$AA?$CI?$AAo?$AA?$CJ?$AA?9?$AA?$DO?$AAt?$AAp?$AA_?$AAg?$AAe?$AAt?$AAa?$AAt?$AAt?$AAr?$AA?5?$AA?$DN?$AA?$DN?$AA?5?$AA_?$AAP?$AAy?$AAO?$AAb?$AAj@ DB 'P'
	DB	00H, 'y', 00H, '_', 00H, 'T', 00H, 'Y', 00H, 'P', 00H, 'E', 00H
	DB	'(', 00H, 'o', 00H, ')', 00H, '-', 00H, '>', 00H, 't', 00H, 'p'
	DB	00H, '_', 00H, 'g', 00H, 'e', 00H, 't', 00H, 'a', 00H, 't', 00H
	DB	't', 00H, 'r', 00H, ' ', 00H, '=', 00H, '=', 00H, ' ', 00H, '_'
	DB	00H, 'P', 00H, 'y', 00H, 'O', 00H, 'b', 00H, 'j', 00H, 'e', 00H
	DB	'c', 00H, 't', 00H, '_', 00H, 'G', 00H, 'e', 00H, 't', 00H, 'A'
	DB	00H, 't', 00H, 't', 00H, 'r', 00H, 'S', 00H, 't', 00H, 'r', 00H
	DB	'i', 00H, 'n', 00H, 'g', 00H, 00H, 00H	; `string'
CONST	ENDS
;	COMDAT ??_C@_1GE@DFKDCIGI@?$AAP?$AAy?$AA_?$AAT?$AAY?$AAP?$AAE?$AA?$CI?$AAo?$AA?$CJ?$AA?9?$AA?$DO?$AAt?$AAp?$AA_?$AAs?$AAe?$AAt?$AAa?$AAt?$AAt?$AAr?$AA?5?$AA?$DN?$AA?$DN?$AA?5?$AA_?$AAP?$AAy?$AAO?$AAb?$AAj@
CONST	SEGMENT
??_C@_1GE@DFKDCIGI@?$AAP?$AAy?$AA_?$AAT?$AAY?$AAP?$AAE?$AA?$CI?$AAo?$AA?$CJ?$AA?9?$AA?$DO?$AAt?$AAp?$AA_?$AAs?$AAe?$AAt?$AAa?$AAt?$AAt?$AAr?$AA?5?$AA?$DN?$AA?$DN?$AA?5?$AA_?$AAP?$AAy?$AAO?$AAb?$AAj@ DB 'P'
	DB	00H, 'y', 00H, '_', 00H, 'T', 00H, 'Y', 00H, 'P', 00H, 'E', 00H
	DB	'(', 00H, 'o', 00H, ')', 00H, '-', 00H, '>', 00H, 't', 00H, 'p'
	DB	00H, '_', 00H, 's', 00H, 'e', 00H, 't', 00H, 'a', 00H, 't', 00H
	DB	't', 00H, 'r', 00H, ' ', 00H, '=', 00H, '=', 00H, ' ', 00H, '_'
	DB	00H, 'P', 00H, 'y', 00H, 'O', 00H, 'b', 00H, 'j', 00H, 'e', 00H
	DB	'c', 00H, 't', 00H, '_', 00H, 'S', 00H, 'e', 00H, 't', 00H, 'A'
	DB	00H, 't', 00H, 't', 00H, 'r', 00H, 'S', 00H, 't', 00H, 'r', 00H
	DB	'i', 00H, 'n', 00H, 'g', 00H, 00H, 00H	; `string'
CONST	ENDS
;	COMDAT ??_C@_1GI@OHPMNKMC@?$AAP?$AAy?$AA_?$AAT?$AAY?$AAP?$AAE?$AA?$CI?$AAo?$AA?$CJ?$AA?9?$AA?$DO?$AAt?$AAp?$AA_?$AAg?$AAe?$AAt?$AAa?$AAt?$AAt?$AAr?$AAo?$AA?5?$AA?$DN?$AA?$DN?$AA?5?$AA_?$AAP?$AAy?$AAO?$AAb@
CONST	SEGMENT
??_C@_1GI@OHPMNKMC@?$AAP?$AAy?$AA_?$AAT?$AAY?$AAP?$AAE?$AA?$CI?$AAo?$AA?$CJ?$AA?9?$AA?$DO?$AAt?$AAp?$AA_?$AAg?$AAe?$AAt?$AAa?$AAt?$AAt?$AAr?$AAo?$AA?5?$AA?$DN?$AA?$DN?$AA?5?$AA_?$AAP?$AAy?$AAO?$AAb@ DB 'P'
	DB	00H, 'y', 00H, '_', 00H, 'T', 00H, 'Y', 00H, 'P', 00H, 'E', 00H
	DB	'(', 00H, 'o', 00H, ')', 00H, '-', 00H, '>', 00H, 't', 00H, 'p'
	DB	00H, '_', 00H, 'g', 00H, 'e', 00H, 't', 00H, 'a', 00H, 't', 00H
	DB	't', 00H, 'r', 00H, 'o', 00H, ' ', 00H, '=', 00H, '=', 00H, ' '
	DB	00H, '_', 00H, 'P', 00H, 'y', 00H, 'O', 00H, 'b', 00H, 'j', 00H
	DB	'e', 00H, 'c', 00H, 't', 00H, '_', 00H, 'G', 00H, 'e', 00H, 'n'
	DB	00H, 'e', 00H, 'r', 00H, 'i', 00H, 'c', 00H, 'G', 00H, 'e', 00H
	DB	't', 00H, 'A', 00H, 't', 00H, 't', 00H, 'r', 00H, 00H, 00H ; `string'
CONST	ENDS
;	COMDAT ??_C@_1GI@FBEBAGIN@?$AAP?$AAy?$AA_?$AAT?$AAY?$AAP?$AAE?$AA?$CI?$AAo?$AA?$CJ?$AA?9?$AA?$DO?$AAt?$AAp?$AA_?$AAs?$AAe?$AAt?$AAa?$AAt?$AAt?$AAr?$AAo?$AA?5?$AA?$DN?$AA?$DN?$AA?5?$AA_?$AAP?$AAy?$AAO?$AAb@
CONST	SEGMENT
??_C@_1GI@FBEBAGIN@?$AAP?$AAy?$AA_?$AAT?$AAY?$AAP?$AAE?$AA?$CI?$AAo?$AA?$CJ?$AA?9?$AA?$DO?$AAt?$AAp?$AA_?$AAs?$AAe?$AAt?$AAa?$AAt?$AAt?$AAr?$AAo?$AA?5?$AA?$DN?$AA?$DN?$AA?5?$AA_?$AAP?$AAy?$AAO?$AAb@ DB 'P'
	DB	00H, 'y', 00H, '_', 00H, 'T', 00H, 'Y', 00H, 'P', 00H, 'E', 00H
	DB	'(', 00H, 'o', 00H, ')', 00H, '-', 00H, '>', 00H, 't', 00H, 'p'
	DB	00H, '_', 00H, 's', 00H, 'e', 00H, 't', 00H, 'a', 00H, 't', 00H
	DB	't', 00H, 'r', 00H, 'o', 00H, ' ', 00H, '=', 00H, '=', 00H, ' '
	DB	00H, '_', 00H, 'P', 00H, 'y', 00H, 'O', 00H, 'b', 00H, 'j', 00H
	DB	'e', 00H, 'c', 00H, 't', 00H, '_', 00H, 'G', 00H, 'e', 00H, 'n'
	DB	00H, 'e', 00H, 'r', 00H, 'i', 00H, 'c', 00H, 'S', 00H, 'e', 00H
	DB	't', 00H, 'A', 00H, 't', 00H, 't', 00H, 'r', 00H, 00H, 00H ; `string'
CONST	ENDS
;	COMDAT ??_C@_1FI@MFFGIELI@?$AAP?$AAy?$AA_?$AAT?$AAY?$AAP?$AAE?$AA?$CI?$AAo?$AA?$CJ?$AA?9?$AA?$DO?$AAt?$AAp?$AA_?$AAd?$AAe?$AAa?$AAl?$AAl?$AAo?$AAc?$AA?5?$AA?$DN?$AA?$DN?$AA?5?$AA_?$AAP?$AAy?$AAO?$AAb?$AAj@
CONST	SEGMENT
??_C@_1FI@MFFGIELI@?$AAP?$AAy?$AA_?$AAT?$AAY?$AAP?$AAE?$AA?$CI?$AAo?$AA?$CJ?$AA?9?$AA?$DO?$AAt?$AAp?$AA_?$AAd?$AAe?$AAa?$AAl?$AAl?$AAo?$AAc?$AA?5?$AA?$DN?$AA?$DN?$AA?5?$AA_?$AAP?$AAy?$AAO?$AAb?$AAj@ DB 'P'
	DB	00H, 'y', 00H, '_', 00H, 'T', 00H, 'Y', 00H, 'P', 00H, 'E', 00H
	DB	'(', 00H, 'o', 00H, ')', 00H, '-', 00H, '>', 00H, 't', 00H, 'p'
	DB	00H, '_', 00H, 'd', 00H, 'e', 00H, 'a', 00H, 'l', 00H, 'l', 00H
	DB	'o', 00H, 'c', 00H, ' ', 00H, '=', 00H, '=', 00H, ' ', 00H, '_'
	DB	00H, 'P', 00H, 'y', 00H, 'O', 00H, 'b', 00H, 'j', 00H, 'e', 00H
	DB	'c', 00H, 't', 00H, '_', 00H, 'D', 00H, 'e', 00H, 'a', 00H, 'l'
	DB	00H, 'l', 00H, 'o', 00H, 'c', 00H, 00H, 00H	; `string'
CONST	ENDS
;	COMDAT ??_C@_1GM@JAGGOPJC@?$AAP?$AAy?$AA_?$AAO?$AAR?$AAI?$AAG?$AA_?$AAT?$AAY?$AAP?$AAE?$AA_?$AAC?$AAA?$AAS?$AAT?$AA?$CI?$AAo?$AA?$CJ?$AA?9?$AA?$DO?$AAt?$AAp?$AA_?$AAd?$AAe?$AAa?$AAl?$AAl?$AAo?$AAc@
CONST	SEGMENT
??_C@_1GM@JAGGOPJC@?$AAP?$AAy?$AA_?$AAO?$AAR?$AAI?$AAG?$AA_?$AAT?$AAY?$AAP?$AAE?$AA_?$AAC?$AAA?$AAS?$AAT?$AA?$CI?$AAo?$AA?$CJ?$AA?9?$AA?$DO?$AAt?$AAp?$AA_?$AAd?$AAe?$AAa?$AAl?$AAl?$AAo?$AAc@ DB 'P'
	DB	00H, 'y', 00H, '_', 00H, 'O', 00H, 'R', 00H, 'I', 00H, 'G', 00H
	DB	'_', 00H, 'T', 00H, 'Y', 00H, 'P', 00H, 'E', 00H, '_', 00H, 'C'
	DB	00H, 'A', 00H, 'S', 00H, 'T', 00H, '(', 00H, 'o', 00H, ')', 00H
	DB	'-', 00H, '>', 00H, 't', 00H, 'p', 00H, '_', 00H, 'd', 00H, 'e'
	DB	00H, 'a', 00H, 'l', 00H, 'l', 00H, 'o', 00H, 'c', 00H, ' ', 00H
	DB	'!', 00H, '=', 00H, ' ', 00H, '_', 00H, 'P', 00H, 'y', 00H, 'O'
	DB	00H, 'b', 00H, 'j', 00H, 'e', 00H, 'c', 00H, 't', 00H, '_', 00H
	DB	'D', 00H, 'e', 00H, 'a', 00H, 'l', 00H, 'l', 00H, 'o', 00H, 'c'
	DB	00H, 00H, 00H				; `string'
CONST	ENDS
;	COMDAT ??_C@_1EC@MDHCKPLC@?$AAP?$AAy?$AA_?$AAO?$AAR?$AAI?$AAG?$AA_?$AAT?$AAY?$AAP?$AAE?$AA_?$AAC?$AAA?$AAS?$AAT?$AA?$CI?$AAo?$AA?$CJ?$AA?9?$AA?$DO?$AAt?$AAp?$AA_?$AAd?$AAe?$AAa?$AAl?$AAl?$AAo?$AAc@
CONST	SEGMENT
??_C@_1EC@MDHCKPLC@?$AAP?$AAy?$AA_?$AAO?$AAR?$AAI?$AAG?$AA_?$AAT?$AAY?$AAP?$AAE?$AA_?$AAC?$AAA?$AAS?$AAT?$AA?$CI?$AAo?$AA?$CJ?$AA?9?$AA?$DO?$AAt?$AAp?$AA_?$AAd?$AAe?$AAa?$AAl?$AAl?$AAo?$AAc@ DB 'P'
	DB	00H, 'y', 00H, '_', 00H, 'O', 00H, 'R', 00H, 'I', 00H, 'G', 00H
	DB	'_', 00H, 'T', 00H, 'Y', 00H, 'P', 00H, 'E', 00H, '_', 00H, 'C'
	DB	00H, 'A', 00H, 'S', 00H, 'T', 00H, '(', 00H, 'o', 00H, ')', 00H
	DB	'-', 00H, '>', 00H, 't', 00H, 'p', 00H, '_', 00H, 'd', 00H, 'e'
	DB	00H, 'a', 00H, 'l', 00H, 'l', 00H, 'o', 00H, 'c', 00H, 00H, 00H ; `string'
CONST	ENDS
;	COMDAT ??_C@_0BK@BNIPEKEF@GC?5object?5already?5tracked?$AA@
CONST	SEGMENT
??_C@_0BK@BNIPEKEF@GC?5object?5already?5tracked?$AA@ DB 'GC object alread'
	DB	'y tracked', 00H				; `string'
CONST	ENDS
;	COMDAT ??_C@_1EM@HFMJMDDM@?$AAg?$AA?9?$AA?$DO?$AAg?$AAc?$AA?4?$AAg?$AAc?$AA_?$AAr?$AAe?$AAf?$AAs?$AA?5?$AA?$CB?$AA?$DN?$AA?5?$AA_?$AAP?$AAy?$AAG?$AAC?$AA_?$AAR?$AAE?$AAF?$AAS?$AA_?$AAU?$AAN?$AAT?$AAR@
CONST	SEGMENT
??_C@_1EM@HFMJMDDM@?$AAg?$AA?9?$AA?$DO?$AAg?$AAc?$AA?4?$AAg?$AAc?$AA_?$AAr?$AAe?$AAf?$AAs?$AA?5?$AA?$CB?$AA?$DN?$AA?5?$AA_?$AAP?$AAy?$AAG?$AAC?$AA_?$AAR?$AAE?$AAF?$AAS?$AA_?$AAU?$AAN?$AAT?$AAR@ DB 'g'
	DB	00H, '-', 00H, '>', 00H, 'g', 00H, 'c', 00H, '.', 00H, 'g', 00H
	DB	'c', 00H, '_', 00H, 'r', 00H, 'e', 00H, 'f', 00H, 's', 00H, ' '
	DB	00H, '!', 00H, '=', 00H, ' ', 00H, '_', 00H, 'P', 00H, 'y', 00H
	DB	'G', 00H, 'C', 00H, '_', 00H, 'R', 00H, 'E', 00H, 'F', 00H, 'S'
	DB	00H, '_', 00H, 'U', 00H, 'N', 00H, 'T', 00H, 'R', 00H, 'A', 00H
	DB	'C', 00H, 'K', 00H, 'E', 00H, 'D', 00H, 00H, 00H ; `string'
CONST	ENDS
;	COMDAT ??_C@_0BH@KCLIIPCK@_PyObject_PrepOrigType?$AA@
CONST	SEGMENT
??_C@_0BH@KCLIIPCK@_PyObject_PrepOrigType?$AA@ DB '_PyObject_PrepOrigType'
	DB	00H						; `string'
; Function compile flags: /Odtp
CONST	ENDS
;	COMDAT _PyObject_PrepOrigType
_TEXT	SEGMENT
new_mm$ = 48
old_mm$ = 56
is_gc$126342 = 64
is_tracked$126343 = 68
type$126335 = 72
offset$126339 = 80
size$126338 = 88
is_heap$126341 = 96
m$126340 = 104
tp$126337 = 112
g$126363 = 120
g$126380 = 128
tv70 = 136
tv77 = 140
tv75 = 144
tv90 = 152
tv142 = 160
tv137 = 168
tv140 = 176
tv149 = 184
tv167 = 192
tv193 = 200
tv210 = 208
tv238 = 216
tv245 = 224
tv249 = 232
tv255 = 240
tv325 = 244
tv327 = 248
tv338 = 252
tv337 = 256
o$ = 288
kwds$ = 296
_PyObject_PrepOrigType PROC				; COMDAT

; 929  : {

$LN75:
  00000	48 89 54 24 10	 mov	 QWORD PTR [rsp+16], rdx
  00005	48 89 4c 24 08	 mov	 QWORD PTR [rsp+8], rcx
  0000a	48 81 ec 18 01
	00 00		 sub	 rsp, 280		; 00000118H

; 930  :     PyMappingMethods *old_mm, *new_mm;
; 931  :     /*PySequenceMethods *old_sm, *new_sm;*/
; 932  : 
; 933  :     if (!Py_ORIG_TYPE(o)) {

  00011	48 8b 84 24 20
	01 00 00	 mov	 rax, QWORD PTR o$[rsp]
  00019	48 83 78 38 00	 cmp	 QWORD PTR [rax+56], 0
  0001e	0f 85 e3 06 00
	00		 jne	 $LN21@PyObject_P

; 934  :         PyTypeObject *type = Py_TYPE(o), *tp;

  00024	48 8b 84 24 20
	01 00 00	 mov	 rax, QWORD PTR o$[rsp]
  0002c	48 8b 40 58	 mov	 rax, QWORD PTR [rax+88]
  00030	48 89 44 24 48	 mov	 QWORD PTR type$126335[rsp], rax

; 935  :         size_t size;
; 936  :         void *offset = type;

  00035	48 8b 44 24 48	 mov	 rax, QWORD PTR type$126335[rsp]
  0003a	48 89 44 24 50	 mov	 QWORD PTR offset$126339[rsp], rax

; 937  :         void *m;
; 938  :         int is_heap = PyType_HasFeature(type, Py_TPFLAGS_HEAPTYPE);

  0003f	48 8b 44 24 48	 mov	 rax, QWORD PTR type$126335[rsp]
  00044	8b 80 00 01 00
	00		 mov	 eax, DWORD PTR [rax+256]
  0004a	25 00 02 00 00	 and	 eax, 512		; 00000200H
  0004f	85 c0		 test	 eax, eax
  00051	74 0d		 je	 SHORT $LN24@PyObject_P
  00053	c7 84 24 88 00
	00 00 01 00 00
	00		 mov	 DWORD PTR tv70[rsp], 1
  0005e	eb 0b		 jmp	 SHORT $LN25@PyObject_P
$LN24@PyObject_P:
  00060	c7 84 24 88 00
	00 00 00 00 00
	00		 mov	 DWORD PTR tv70[rsp], 0
$LN25@PyObject_P:
  0006b	8b 84 24 88 00
	00 00		 mov	 eax, DWORD PTR tv70[rsp]
  00072	89 44 24 60	 mov	 DWORD PTR is_heap$126341[rsp], eax

; 939  :         int is_gc = PyType_IS_GC(type);

  00076	e8 00 00 00 00	 call	 _Py_PXCTX
  0007b	85 c0		 test	 eax, eax
  0007d	74 0d		 je	 SHORT $LN28@PyObject_P
  0007f	c7 84 24 8c 00
	00 00 00 00 00
	00		 mov	 DWORD PTR tv77[rsp], 0
  0008a	eb 3a		 jmp	 SHORT $LN29@PyObject_P
$LN28@PyObject_P:
  0008c	48 8b 44 24 48	 mov	 rax, QWORD PTR type$126335[rsp]
  00091	8b 80 00 01 00
	00		 mov	 eax, DWORD PTR [rax+256]
  00097	25 00 40 00 00	 and	 eax, 16384		; 00004000H
  0009c	85 c0		 test	 eax, eax
  0009e	74 0d		 je	 SHORT $LN26@PyObject_P
  000a0	c7 84 24 90 00
	00 00 01 00 00
	00		 mov	 DWORD PTR tv75[rsp], 1
  000ab	eb 0b		 jmp	 SHORT $LN27@PyObject_P
$LN26@PyObject_P:
  000ad	c7 84 24 90 00
	00 00 00 00 00
	00		 mov	 DWORD PTR tv75[rsp], 0
$LN27@PyObject_P:
  000b8	8b 84 24 90 00
	00 00		 mov	 eax, DWORD PTR tv75[rsp]
  000bf	89 84 24 8c 00
	00 00		 mov	 DWORD PTR tv77[rsp], eax
$LN29@PyObject_P:
  000c6	8b 84 24 8c 00
	00 00		 mov	 eax, DWORD PTR tv77[rsp]
  000cd	89 44 24 40	 mov	 DWORD PTR is_gc$126342[rsp], eax

; 940  :         int is_tracked = 0;

  000d1	c7 44 24 44 00
	00 00 00	 mov	 DWORD PTR is_tracked$126343[rsp], 0

; 941  : 
; 942  :         if (is_heap)

  000d9	83 7c 24 60 00	 cmp	 DWORD PTR is_heap$126341[rsp], 0
  000de	74 0b		 je	 SHORT $LN20@PyObject_P

; 943  :             size = sizeof(PyHeapTypeObject);

  000e0	48 c7 44 24 58
	90 03 00 00	 mov	 QWORD PTR size$126338[rsp], 912 ; 00000390H

; 944  :         else

  000e9	eb 09		 jmp	 SHORT $LN19@PyObject_P
$LN20@PyObject_P:

; 945  :             size = sizeof(PyTypeObject);

  000eb	48 c7 44 24 58
	e0 01 00 00	 mov	 QWORD PTR size$126338[rsp], 480 ; 000001e0H
$LN19@PyObject_P:

; 946  : 
; 947  :         if (is_gc && is_heap) {

