; Listing generated by Microsoft (R) Optimizing Compiler Version 16.00.40219.01 

include listing.inc

INCLUDELIB MSVCRTD
INCLUDELIB OLDNAMES

PUBLIC	??_C@_04BNOAKKGF@_ast?$AA@			; `string'
PUBLIC	??_C@_0M@CDHEEICO@_attributes?$AA@		; `string'
PUBLIC	??_C@_08IBLOGDG@_ast?4AST?$AA@			; `string'
PUBLIC	??_C@_0L@NNMACJIG@__reduce__?$AA@		; `string'
PUBLIC	??_C@_08IBFKALI@__dict__?$AA@			; `string'
PUBLIC	??_C@_07LKKIBPPO@_fields?$AA@			; `string'
PUBLIC	??_C@_0O@PNIBPJAK@optional_vars?$AA@		; `string'
PUBLIC	??_C@_0N@NOGLGHPG@context_expr?$AA@		; `string'
PUBLIC	??_C@_06DPPJIGGE@asname?$AA@			; `string'
PUBLIC	??_C@_0L@HOGAMHHM@annotation?$AA@		; `string'
PUBLIC	??_C@_03CAOIPBNL@arg?$AA@			; `string'
PUBLIC	??_C@_0M@OHIOHNMJ@kw_defaults?$AA@		; `string'
PUBLIC	??_C@_08LMJEPNLL@defaults?$AA@			; `string'
PUBLIC	??_C@_0BA@JACLGMFO@kwargannotation?$AA@		; `string'
PUBLIC	??_C@_05JJKPEMCC@kwarg?$AA@			; `string'
PUBLIC	??_C@_0L@PJHGIGJA@kwonlyargs?$AA@		; `string'
PUBLIC	??_C@_0BB@LBMLKLGK@varargannotation?$AA@	; `string'
PUBLIC	??_C@_06FDMCHLPI@vararg?$AA@			; `string'
PUBLIC	??_C@_04GPMDFGEJ@type?$AA@			; `string'
PUBLIC	??_C@_03NANNAFMN@ifs?$AA@			; `string'
PUBLIC	??_C@_04FHFMBDKA@dims?$AA@			; `string'
PUBLIC	??_C@_04CNBNFAL@step?$AA@			; `string'
PUBLIC	??_C@_05NECKJAMC@upper?$AA@			; `string'
PUBLIC	??_C@_05IPJEPLHL@lower?$AA@			; `string'
PUBLIC	??_C@_02EGCJHIOB@id?$AA@			; `string'
PUBLIC	??_C@_05ILHMOJGN@slice?$AA@			; `string'
PUBLIC	??_C@_03EDDGELHM@ctx?$AA@			; `string'
PUBLIC	??_C@_04DHCDLKCM@attr?$AA@			; `string'
PUBLIC	??_C@_01LKDEMHDF@s?$AA@				; `string'
PUBLIC	??_C@_01EFFIKLCJ@n?$AA@				; `string'
PUBLIC	??_C@_04HPNHAEOP@func?$AA@			; `string'
PUBLIC	??_C@_0M@FEBOCDAK@comparators?$AA@		; `string'
PUBLIC	??_C@_03ONBNIFND@ops?$AA@			; `string'
PUBLIC	??_C@_03ICHNJLJF@key?$AA@			; `string'
PUBLIC	??_C@_0L@FCNMNMNJ@generators?$AA@		; `string'
PUBLIC	??_C@_03NINNKJGE@elt?$AA@			; `string'
PUBLIC	??_C@_04EOBFFCNN@elts?$AA@			; `string'
PUBLIC	??_C@_04IEPFDAGF@keys?$AA@			; `string'
PUBLIC	??_C@_07GEBHLHAD@operand?$AA@			; `string'
PUBLIC	??_C@_05DHJDAOHK@right?$AA@			; `string'
PUBLIC	??_C@_04GOOOJOPP@left?$AA@			; `string'
PUBLIC	??_C@_06GEKOPAHD@values?$AA@			; `string'
PUBLIC	??_C@_05KJNJLLGA@level?$AA@			; `string'
PUBLIC	??_C@_06BIEEJMKO@module?$AA@			; `string'
PUBLIC	??_C@_05FLNDGCKL@names?$AA@			; `string'
PUBLIC	??_C@_03GLPMCEFE@msg?$AA@			; `string'
PUBLIC	??_C@_09JGEOIMID@finalbody?$AA@			; `string'
PUBLIC	??_C@_08KJLNBJEK@handlers?$AA@			; `string'
PUBLIC	??_C@_05HGNDGEBA@cause?$AA@			; `string'
PUBLIC	??_C@_03MGHBCGFO@exc?$AA@			; `string'
PUBLIC	??_C@_05CFHBDDLG@items?$AA@			; `string'
PUBLIC	??_C@_04CEJDCDCH@test?$AA@			; `string'
PUBLIC	??_C@_06DHJIEJCK@orelse?$AA@			; `string'
PUBLIC	??_C@_04BKLHDIKK@iter?$AA@			; `string'
PUBLIC	??_C@_02GMAKNDAG@op?$AA@			; `string'
PUBLIC	??_C@_06JJLAMBGK@target?$AA@			; `string'
PUBLIC	??_C@_07KJOMBCLC@targets?$AA@			; `string'
PUBLIC	??_C@_05MFEJDJP@value?$AA@			; `string'
PUBLIC	??_C@_06NBOLMEJN@kwargs?$AA@			; `string'
PUBLIC	??_C@_08LPAHKBMK@starargs?$AA@			; `string'
PUBLIC	??_C@_08KBIEDDDE@keywords?$AA@			; `string'
PUBLIC	??_C@_05JMNHICHM@bases?$AA@			; `string'
PUBLIC	??_C@_07ILMKFBFJ@returns?$AA@			; `string'
PUBLIC	??_C@_0P@LMCHOPJJ@decorator_list?$AA@		; `string'
PUBLIC	??_C@_04BFDDMJJI@args?$AA@			; `string'
PUBLIC	??_C@_04MEMAJGDJ@name?$AA@			; `string'
PUBLIC	??_C@_0L@ICBHJKOA@col_offset?$AA@		; `string'
PUBLIC	??_C@_06ILKIAHNN@lineno?$AA@			; `string'
PUBLIC	??_C@_04IEJGKNJ@body?$AA@			; `string'
EXTRN	PyObject_GC_Del:PROC
EXTRN	PyType_GenericNew:PROC
EXTRN	PyType_GenericAlloc:PROC
EXTRN	PyObject_GenericSetAttr:PROC
EXTRN	PyObject_GenericGetAttr:PROC
EXTRN	PyType_Type:BYTE
EXTRN	PyObject_GenericSetDict:PROC
EXTRN	PyObject_GenericGetDict:PROC
;	COMDAT ??_C@_04BNOAKKGF@_ast?$AA@
CONST	SEGMENT
??_C@_04BNOAKKGF@_ast?$AA@ DB '_ast', 00H		; `string'
CONST	ENDS
;	COMDAT ??_C@_0M@CDHEEICO@_attributes?$AA@
CONST	SEGMENT
??_C@_0M@CDHEEICO@_attributes?$AA@ DB '_attributes', 00H ; `string'
CONST	ENDS
;	COMDAT ??_C@_08IBLOGDG@_ast?4AST?$AA@
CONST	SEGMENT
??_C@_08IBLOGDG@_ast?4AST?$AA@ DB '_ast.AST', 00H	; `string'
CONST	ENDS
;	COMDAT ??_C@_0L@NNMACJIG@__reduce__?$AA@
CONST	SEGMENT
??_C@_0L@NNMACJIG@__reduce__?$AA@ DB '__reduce__', 00H	; `string'
CONST	ENDS
;	COMDAT ??_C@_08IBFKALI@__dict__?$AA@
CONST	SEGMENT
??_C@_08IBFKALI@__dict__?$AA@ DB '__dict__', 00H	; `string'
CONST	ENDS
;	COMDAT ??_C@_07LKKIBPPO@_fields?$AA@
CONST	SEGMENT
??_C@_07LKKIBPPO@_fields?$AA@ DB '_fields', 00H		; `string'
CONST	ENDS
;	COMDAT ??_C@_0O@PNIBPJAK@optional_vars?$AA@
CONST	SEGMENT
??_C@_0O@PNIBPJAK@optional_vars?$AA@ DB 'optional_vars', 00H ; `string'
CONST	ENDS
;	COMDAT ??_C@_0N@NOGLGHPG@context_expr?$AA@
CONST	SEGMENT
??_C@_0N@NOGLGHPG@context_expr?$AA@ DB 'context_expr', 00H ; `string'
CONST	ENDS
;	COMDAT ??_C@_06DPPJIGGE@asname?$AA@
CONST	SEGMENT
??_C@_06DPPJIGGE@asname?$AA@ DB 'asname', 00H		; `string'
CONST	ENDS
;	COMDAT ??_C@_0L@HOGAMHHM@annotation?$AA@
CONST	SEGMENT
??_C@_0L@HOGAMHHM@annotation?$AA@ DB 'annotation', 00H	; `string'
CONST	ENDS
;	COMDAT ??_C@_03CAOIPBNL@arg?$AA@
CONST	SEGMENT
??_C@_03CAOIPBNL@arg?$AA@ DB 'arg', 00H			; `string'
CONST	ENDS
;	COMDAT ??_C@_0M@OHIOHNMJ@kw_defaults?$AA@
CONST	SEGMENT
??_C@_0M@OHIOHNMJ@kw_defaults?$AA@ DB 'kw_defaults', 00H ; `string'
CONST	ENDS
;	COMDAT ??_C@_08LMJEPNLL@defaults?$AA@
CONST	SEGMENT
??_C@_08LMJEPNLL@defaults?$AA@ DB 'defaults', 00H	; `string'
CONST	ENDS
;	COMDAT ??_C@_0BA@JACLGMFO@kwargannotation?$AA@
CONST	SEGMENT
??_C@_0BA@JACLGMFO@kwargannotation?$AA@ DB 'kwargannotation', 00H ; `string'
CONST	ENDS
;	COMDAT ??_C@_05JJKPEMCC@kwarg?$AA@
CONST	SEGMENT
??_C@_05JJKPEMCC@kwarg?$AA@ DB 'kwarg', 00H		; `string'
CONST	ENDS
;	COMDAT ??_C@_0L@PJHGIGJA@kwonlyargs?$AA@
CONST	SEGMENT
??_C@_0L@PJHGIGJA@kwonlyargs?$AA@ DB 'kwonlyargs', 00H	; `string'
CONST	ENDS
;	COMDAT ??_C@_0BB@LBMLKLGK@varargannotation?$AA@
CONST	SEGMENT
??_C@_0BB@LBMLKLGK@varargannotation?$AA@ DB 'varargannotation', 00H ; `string'
CONST	ENDS
;	COMDAT ??_C@_06FDMCHLPI@vararg?$AA@
CONST	SEGMENT
??_C@_06FDMCHLPI@vararg?$AA@ DB 'vararg', 00H		; `string'
CONST	ENDS
;	COMDAT ??_C@_04GPMDFGEJ@type?$AA@
CONST	SEGMENT
??_C@_04GPMDFGEJ@type?$AA@ DB 'type', 00H		; `string'
CONST	ENDS
;	COMDAT ??_C@_03NANNAFMN@ifs?$AA@
CONST	SEGMENT
??_C@_03NANNAFMN@ifs?$AA@ DB 'ifs', 00H			; `string'
CONST	ENDS
;	COMDAT ??_C@_04FHFMBDKA@dims?$AA@
CONST	SEGMENT
??_C@_04FHFMBDKA@dims?$AA@ DB 'dims', 00H		; `string'
CONST	ENDS
;	COMDAT ??_C@_04CNBNFAL@step?$AA@
CONST	SEGMENT
??_C@_04CNBNFAL@step?$AA@ DB 'step', 00H		; `string'
CONST	ENDS
;	COMDAT ??_C@_05NECKJAMC@upper?$AA@
CONST	SEGMENT
??_C@_05NECKJAMC@upper?$AA@ DB 'upper', 00H		; `string'
CONST	ENDS
;	COMDAT ??_C@_05IPJEPLHL@lower?$AA@
CONST	SEGMENT
??_C@_05IPJEPLHL@lower?$AA@ DB 'lower', 00H		; `string'
CONST	ENDS
;	COMDAT ??_C@_02EGCJHIOB@id?$AA@
CONST	SEGMENT
??_C@_02EGCJHIOB@id?$AA@ DB 'id', 00H			; `string'
CONST	ENDS
;	COMDAT ??_C@_05ILHMOJGN@slice?$AA@
CONST	SEGMENT
??_C@_05ILHMOJGN@slice?$AA@ DB 'slice', 00H		; `string'
CONST	ENDS
;	COMDAT ??_C@_03EDDGELHM@ctx?$AA@
CONST	SEGMENT
??_C@_03EDDGELHM@ctx?$AA@ DB 'ctx', 00H			; `string'
CONST	ENDS
;	COMDAT ??_C@_04DHCDLKCM@attr?$AA@
CONST	SEGMENT
??_C@_04DHCDLKCM@attr?$AA@ DB 'attr', 00H		; `string'
CONST	ENDS
;	COMDAT ??_C@_01LKDEMHDF@s?$AA@
CONST	SEGMENT
??_C@_01LKDEMHDF@s?$AA@ DB 's', 00H			; `string'
CONST	ENDS
;	COMDAT ??_C@_01EFFIKLCJ@n?$AA@
CONST	SEGMENT
??_C@_01EFFIKLCJ@n?$AA@ DB 'n', 00H			; `string'
CONST	ENDS
;	COMDAT ??_C@_04HPNHAEOP@func?$AA@
CONST	SEGMENT
??_C@_04HPNHAEOP@func?$AA@ DB 'func', 00H		; `string'
CONST	ENDS
;	COMDAT ??_C@_0M@FEBOCDAK@comparators?$AA@
CONST	SEGMENT
??_C@_0M@FEBOCDAK@comparators?$AA@ DB 'comparators', 00H ; `string'
CONST	ENDS
;	COMDAT ??_C@_03ONBNIFND@ops?$AA@
CONST	SEGMENT
??_C@_03ONBNIFND@ops?$AA@ DB 'ops', 00H			; `string'
CONST	ENDS
;	COMDAT ??_C@_03ICHNJLJF@key?$AA@
CONST	SEGMENT
??_C@_03ICHNJLJF@key?$AA@ DB 'key', 00H			; `string'
CONST	ENDS
;	COMDAT ??_C@_0L@FCNMNMNJ@generators?$AA@
CONST	SEGMENT
??_C@_0L@FCNMNMNJ@generators?$AA@ DB 'generators', 00H	; `string'
CONST	ENDS
;	COMDAT ??_C@_03NINNKJGE@elt?$AA@
CONST	SEGMENT
??_C@_03NINNKJGE@elt?$AA@ DB 'elt', 00H			; `string'
CONST	ENDS
;	COMDAT ??_C@_04EOBFFCNN@elts?$AA@
CONST	SEGMENT
??_C@_04EOBFFCNN@elts?$AA@ DB 'elts', 00H		; `string'
CONST	ENDS
;	COMDAT ??_C@_04IEPFDAGF@keys?$AA@
CONST	SEGMENT
??_C@_04IEPFDAGF@keys?$AA@ DB 'keys', 00H		; `string'
CONST	ENDS
;	COMDAT ??_C@_07GEBHLHAD@operand?$AA@
CONST	SEGMENT
??_C@_07GEBHLHAD@operand?$AA@ DB 'operand', 00H		; `string'
CONST	ENDS
;	COMDAT ??_C@_05DHJDAOHK@right?$AA@
CONST	SEGMENT
??_C@_05DHJDAOHK@right?$AA@ DB 'right', 00H		; `string'
CONST	ENDS
;	COMDAT ??_C@_04GOOOJOPP@left?$AA@
CONST	SEGMENT
??_C@_04GOOOJOPP@left?$AA@ DB 'left', 00H		; `string'
CONST	ENDS
;	COMDAT ??_C@_06GEKOPAHD@values?$AA@
CONST	SEGMENT
??_C@_06GEKOPAHD@values?$AA@ DB 'values', 00H		; `string'
CONST	ENDS
;	COMDAT ??_C@_05KJNJLLGA@level?$AA@
CONST	SEGMENT
??_C@_05KJNJLLGA@level?$AA@ DB 'level', 00H		; `string'
CONST	ENDS
;	COMDAT ??_C@_06BIEEJMKO@module?$AA@
CONST	SEGMENT
??_C@_06BIEEJMKO@module?$AA@ DB 'module', 00H		; `string'
CONST	ENDS
;	COMDAT ??_C@_05FLNDGCKL@names?$AA@
CONST	SEGMENT
??_C@_05FLNDGCKL@names?$AA@ DB 'names', 00H		; `string'
CONST	ENDS
;	COMDAT ??_C@_03GLPMCEFE@msg?$AA@
CONST	SEGMENT
??_C@_03GLPMCEFE@msg?$AA@ DB 'msg', 00H			; `string'
CONST	ENDS
;	COMDAT ??_C@_09JGEOIMID@finalbody?$AA@
CONST	SEGMENT
??_C@_09JGEOIMID@finalbody?$AA@ DB 'finalbody', 00H	; `string'
CONST	ENDS
;	COMDAT ??_C@_08KJLNBJEK@handlers?$AA@
CONST	SEGMENT
??_C@_08KJLNBJEK@handlers?$AA@ DB 'handlers', 00H	; `string'
CONST	ENDS
;	COMDAT ??_C@_05HGNDGEBA@cause?$AA@
CONST	SEGMENT
??_C@_05HGNDGEBA@cause?$AA@ DB 'cause', 00H		; `string'
CONST	ENDS
;	COMDAT ??_C@_03MGHBCGFO@exc?$AA@
CONST	SEGMENT
??_C@_03MGHBCGFO@exc?$AA@ DB 'exc', 00H			; `string'
CONST	ENDS
;	COMDAT ??_C@_05CFHBDDLG@items?$AA@
CONST	SEGMENT
??_C@_05CFHBDDLG@items?$AA@ DB 'items', 00H		; `string'
CONST	ENDS
;	COMDAT ??_C@_04CEJDCDCH@test?$AA@
CONST	SEGMENT
??_C@_04CEJDCDCH@test?$AA@ DB 'test', 00H		; `string'
CONST	ENDS
;	COMDAT ??_C@_06DHJIEJCK@orelse?$AA@
CONST	SEGMENT
??_C@_06DHJIEJCK@orelse?$AA@ DB 'orelse', 00H		; `string'
CONST	ENDS
;	COMDAT ??_C@_04BKLHDIKK@iter?$AA@
CONST	SEGMENT
??_C@_04BKLHDIKK@iter?$AA@ DB 'iter', 00H		; `string'
CONST	ENDS
;	COMDAT ??_C@_02GMAKNDAG@op?$AA@
CONST	SEGMENT
??_C@_02GMAKNDAG@op?$AA@ DB 'op', 00H			; `string'
CONST	ENDS
;	COMDAT ??_C@_06JJLAMBGK@target?$AA@
CONST	SEGMENT
??_C@_06JJLAMBGK@target?$AA@ DB 'target', 00H		; `string'
CONST	ENDS
;	COMDAT ??_C@_07KJOMBCLC@targets?$AA@
CONST	SEGMENT
??_C@_07KJOMBCLC@targets?$AA@ DB 'targets', 00H		; `string'
CONST	ENDS
;	COMDAT ??_C@_05MFEJDJP@value?$AA@
CONST	SEGMENT
??_C@_05MFEJDJP@value?$AA@ DB 'value', 00H		; `string'
CONST	ENDS
;	COMDAT ??_C@_06NBOLMEJN@kwargs?$AA@
CONST	SEGMENT
??_C@_06NBOLMEJN@kwargs?$AA@ DB 'kwargs', 00H		; `string'
CONST	ENDS
;	COMDAT ??_C@_08LPAHKBMK@starargs?$AA@
CONST	SEGMENT
??_C@_08LPAHKBMK@starargs?$AA@ DB 'starargs', 00H	; `string'
CONST	ENDS
;	COMDAT ??_C@_08KBIEDDDE@keywords?$AA@
CONST	SEGMENT
??_C@_08KBIEDDDE@keywords?$AA@ DB 'keywords', 00H	; `string'
CONST	ENDS
;	COMDAT ??_C@_05JMNHICHM@bases?$AA@
CONST	SEGMENT
??_C@_05JMNHICHM@bases?$AA@ DB 'bases', 00H		; `string'
CONST	ENDS
;	COMDAT ??_C@_07ILMKFBFJ@returns?$AA@
CONST	SEGMENT
??_C@_07ILMKFBFJ@returns?$AA@ DB 'returns', 00H		; `string'
CONST	ENDS
;	COMDAT ??_C@_0P@LMCHOPJJ@decorator_list?$AA@
CONST	SEGMENT
??_C@_0P@LMCHOPJJ@decorator_list?$AA@ DB 'decorator_list', 00H ; `string'
CONST	ENDS
;	COMDAT ??_C@_04BFDDMJJI@args?$AA@
CONST	SEGMENT
??_C@_04BFDDMJJI@args?$AA@ DB 'args', 00H		; `string'
CONST	ENDS
;	COMDAT ??_C@_04MEMAJGDJ@name?$AA@
CONST	SEGMENT
??_C@_04MEMAJGDJ@name?$AA@ DB 'name', 00H		; `string'
CONST	ENDS
;	COMDAT ??_C@_0L@ICBHJKOA@col_offset?$AA@
CONST	SEGMENT
??_C@_0L@ICBHJKOA@col_offset?$AA@ DB 'col_offset', 00H	; `string'
CONST	ENDS
;	COMDAT ??_C@_06ILKIAHNN@lineno?$AA@
CONST	SEGMENT
??_C@_06ILKIAHNN@lineno?$AA@ DB 'lineno', 00H		; `string'
CONST	ENDS
_DATA	SEGMENT
Module_fields DQ FLAT:??_C@_04IEJGKNJ@body?$AA@
Interactive_fields DQ FLAT:??_C@_04IEJGKNJ@body?$AA@
Expression_fields DQ FLAT:??_C@_04IEJGKNJ@body?$AA@
Suite_fields DQ	FLAT:??_C@_04IEJGKNJ@body?$AA@
stmt_attributes DQ FLAT:??_C@_06ILKIAHNN@lineno?$AA@
	DQ	FLAT:??_C@_0L@ICBHJKOA@col_offset?$AA@
FunctionDef_fields DQ FLAT:??_C@_04MEMAJGDJ@name?$AA@
	DQ	FLAT:??_C@_04BFDDMJJI@args?$AA@
	DQ	FLAT:??_C@_04IEJGKNJ@body?$AA@
	DQ	FLAT:??_C@_0P@LMCHOPJJ@decorator_list?$AA@
	DQ	FLAT:??_C@_07ILMKFBFJ@returns?$AA@
ClassDef_fields DQ FLAT:??_C@_04MEMAJGDJ@name?$AA@
	DQ	FLAT:??_C@_05JMNHICHM@bases?$AA@
	DQ	FLAT:??_C@_08KBIEDDDE@keywords?$AA@
	DQ	FLAT:??_C@_08LPAHKBMK@starargs?$AA@
	DQ	FLAT:??_C@_06NBOLMEJN@kwargs?$AA@
	DQ	FLAT:??_C@_04IEJGKNJ@body?$AA@
	DQ	FLAT:??_C@_0P@LMCHOPJJ@decorator_list?$AA@
Return_fields DQ FLAT:??_C@_05MFEJDJP@value?$AA@
Delete_fields DQ FLAT:??_C@_07KJOMBCLC@targets?$AA@
Assign_fields DQ FLAT:??_C@_07KJOMBCLC@targets?$AA@
	DQ	FLAT:??_C@_05MFEJDJP@value?$AA@
AugAssign_fields DQ FLAT:??_C@_06JJLAMBGK@target?$AA@
	DQ	FLAT:??_C@_02GMAKNDAG@op?$AA@
	DQ	FLAT:??_C@_05MFEJDJP@value?$AA@
For_fields DQ	FLAT:??_C@_06JJLAMBGK@target?$AA@
	DQ	FLAT:??_C@_04BKLHDIKK@iter?$AA@
	DQ	FLAT:??_C@_04IEJGKNJ@body?$AA@
	DQ	FLAT:??_C@_06DHJIEJCK@orelse?$AA@
While_fields DQ	FLAT:??_C@_04CEJDCDCH@test?$AA@
	DQ	FLAT:??_C@_04IEJGKNJ@body?$AA@
	DQ	FLAT:??_C@_06DHJIEJCK@orelse?$AA@
If_fields DQ	FLAT:??_C@_04CEJDCDCH@test?$AA@
	DQ	FLAT:??_C@_04IEJGKNJ@body?$AA@
	DQ	FLAT:??_C@_06DHJIEJCK@orelse?$AA@
With_fields DQ	FLAT:??_C@_05CFHBDDLG@items?$AA@
	DQ	FLAT:??_C@_04IEJGKNJ@body?$AA@
Raise_fields DQ	FLAT:??_C@_03MGHBCGFO@exc?$AA@
	DQ	FLAT:??_C@_05HGNDGEBA@cause?$AA@
Try_fields DQ	FLAT:??_C@_04IEJGKNJ@body?$AA@
	DQ	FLAT:??_C@_08KJLNBJEK@handlers?$AA@
	DQ	FLAT:??_C@_06DHJIEJCK@orelse?$AA@
	DQ	FLAT:??_C@_09JGEOIMID@finalbody?$AA@
Assert_fields DQ FLAT:??_C@_04CEJDCDCH@test?$AA@
	DQ	FLAT:??_C@_03GLPMCEFE@msg?$AA@
Import_fields DQ FLAT:??_C@_05FLNDGCKL@names?$AA@
ImportFrom_fields DQ FLAT:??_C@_06BIEEJMKO@module?$AA@
	DQ	FLAT:??_C@_05FLNDGCKL@names?$AA@
	DQ	FLAT:??_C@_05KJNJLLGA@level?$AA@
Global_fields DQ FLAT:??_C@_05FLNDGCKL@names?$AA@
Nonlocal_fields DQ FLAT:??_C@_05FLNDGCKL@names?$AA@
Expr_fields DQ	FLAT:??_C@_05MFEJDJP@value?$AA@
expr_attributes DQ FLAT:??_C@_06ILKIAHNN@lineno?$AA@
	DQ	FLAT:??_C@_0L@ICBHJKOA@col_offset?$AA@
BoolOp_fields DQ FLAT:??_C@_02GMAKNDAG@op?$AA@
	DQ	FLAT:??_C@_06GEKOPAHD@values?$AA@
BinOp_fields DQ	FLAT:??_C@_04GOOOJOPP@left?$AA@
	DQ	FLAT:??_C@_02GMAKNDAG@op?$AA@
	DQ	FLAT:??_C@_05DHJDAOHK@right?$AA@
UnaryOp_fields DQ FLAT:??_C@_02GMAKNDAG@op?$AA@
	DQ	FLAT:??_C@_07GEBHLHAD@operand?$AA@
Lambda_fields DQ FLAT:??_C@_04BFDDMJJI@args?$AA@
	DQ	FLAT:??_C@_04IEJGKNJ@body?$AA@
IfExp_fields DQ	FLAT:??_C@_04CEJDCDCH@test?$AA@
	DQ	FLAT:??_C@_04IEJGKNJ@body?$AA@
	DQ	FLAT:??_C@_06DHJIEJCK@orelse?$AA@
Dict_fields DQ	FLAT:??_C@_04IEPFDAGF@keys?$AA@
	DQ	FLAT:??_C@_06GEKOPAHD@values?$AA@
Set_fields DQ	FLAT:??_C@_04EOBFFCNN@elts?$AA@
ListComp_fields DQ FLAT:??_C@_03NINNKJGE@elt?$AA@
	DQ	FLAT:??_C@_0L@FCNMNMNJ@generators?$AA@
SetComp_fields DQ FLAT:??_C@_03NINNKJGE@elt?$AA@
	DQ	FLAT:??_C@_0L@FCNMNMNJ@generators?$AA@
DictComp_fields DQ FLAT:??_C@_03ICHNJLJF@key?$AA@
	DQ	FLAT:??_C@_05MFEJDJP@value?$AA@
	DQ	FLAT:??_C@_0L@FCNMNMNJ@generators?$AA@
GeneratorExp_fields DQ FLAT:??_C@_03NINNKJGE@elt?$AA@
	DQ	FLAT:??_C@_0L@FCNMNMNJ@generators?$AA@
Yield_fields DQ	FLAT:??_C@_05MFEJDJP@value?$AA@
YieldFrom_fields DQ FLAT:??_C@_05MFEJDJP@value?$AA@
Compare_fields DQ FLAT:??_C@_04GOOOJOPP@left?$AA@
	DQ	FLAT:??_C@_03ONBNIFND@ops?$AA@
	DQ	FLAT:??_C@_0M@FEBOCDAK@comparators?$AA@
Call_fields DQ	FLAT:??_C@_04HPNHAEOP@func?$AA@
	DQ	FLAT:??_C@_04BFDDMJJI@args?$AA@
	DQ	FLAT:??_C@_08KBIEDDDE@keywords?$AA@
	DQ	FLAT:??_C@_08LPAHKBMK@starargs?$AA@
	DQ	FLAT:??_C@_06NBOLMEJN@kwargs?$AA@
Num_fields DQ	FLAT:??_C@_01EFFIKLCJ@n?$AA@
Str_fields DQ	FLAT:??_C@_01LKDEMHDF@s?$AA@
Bytes_fields DQ	FLAT:??_C@_01LKDEMHDF@s?$AA@
Attribute_fields DQ FLAT:??_C@_05MFEJDJP@value?$AA@
	DQ	FLAT:??_C@_04DHCDLKCM@attr?$AA@
	DQ	FLAT:??_C@_03EDDGELHM@ctx?$AA@
Subscript_fields DQ FLAT:??_C@_05MFEJDJP@value?$AA@
	DQ	FLAT:??_C@_05ILHMOJGN@slice?$AA@
	DQ	FLAT:??_C@_03EDDGELHM@ctx?$AA@
Starred_fields DQ FLAT:??_C@_05MFEJDJP@value?$AA@
	DQ	FLAT:??_C@_03EDDGELHM@ctx?$AA@
Name_fields DQ	FLAT:??_C@_02EGCJHIOB@id?$AA@
	DQ	FLAT:??_C@_03EDDGELHM@ctx?$AA@
List_fields DQ	FLAT:??_C@_04EOBFFCNN@elts?$AA@
	DQ	FLAT:??_C@_03EDDGELHM@ctx?$AA@
Tuple_fields DQ	FLAT:??_C@_04EOBFFCNN@elts?$AA@
	DQ	FLAT:??_C@_03EDDGELHM@ctx?$AA@
Slice_fields DQ	FLAT:??_C@_05IPJEPLHL@lower?$AA@
	DQ	FLAT:??_C@_05NECKJAMC@upper?$AA@
	DQ	FLAT:??_C@_04CNBNFAL@step?$AA@
ExtSlice_fields DQ FLAT:??_C@_04FHFMBDKA@dims?$AA@
Index_fields DQ	FLAT:??_C@_05MFEJDJP@value?$AA@
comprehension_fields DQ FLAT:??_C@_06JJLAMBGK@target?$AA@
	DQ	FLAT:??_C@_04BKLHDIKK@iter?$AA@
	DQ	FLAT:??_C@_03NANNAFMN@ifs?$AA@
excepthandler_attributes DQ FLAT:??_C@_06ILKIAHNN@lineno?$AA@
	DQ	FLAT:??_C@_0L@ICBHJKOA@col_offset?$AA@
ExceptHandler_fields DQ FLAT:??_C@_04GPMDFGEJ@type?$AA@
	DQ	FLAT:??_C@_04MEMAJGDJ@name?$AA@
	DQ	FLAT:??_C@_04IEJGKNJ@body?$AA@
arguments_fields DQ FLAT:??_C@_04BFDDMJJI@args?$AA@
	DQ	FLAT:??_C@_06FDMCHLPI@vararg?$AA@
	DQ	FLAT:??_C@_0BB@LBMLKLGK@varargannotation?$AA@
	DQ	FLAT:??_C@_0L@PJHGIGJA@kwonlyargs?$AA@
	DQ	FLAT:??_C@_05JJKPEMCC@kwarg?$AA@
	DQ	FLAT:??_C@_0BA@JACLGMFO@kwargannotation?$AA@
	DQ	FLAT:??_C@_08LMJEPNLL@defaults?$AA@
	DQ	FLAT:??_C@_0M@OHIOHNMJ@kw_defaults?$AA@
arg_fields DQ	FLAT:??_C@_03CAOIPBNL@arg?$AA@
	DQ	FLAT:??_C@_0L@HOGAMHHM@annotation?$AA@
keyword_fields DQ FLAT:??_C@_03CAOIPBNL@arg?$AA@
	DQ	FLAT:??_C@_05MFEJDJP@value?$AA@
alias_fields DQ	FLAT:??_C@_04MEMAJGDJ@name?$AA@
	DQ	FLAT:??_C@_06DPPJIGGE@asname?$AA@
withitem_fields DQ FLAT:??_C@_0N@NOGLGHPG@context_expr?$AA@
	DQ	FLAT:??_C@_0O@PNIBPJAK@optional_vars?$AA@
ast_type_methods DQ FLAT:??_C@_0L@NNMACJIG@__reduce__?$AA@
	DQ	FLAT:ast_type_reduce
	DD	04H
	ORG $+4
	DQ	0000000000000000H
	DQ	0000000000000000H
	ORG $+24
ast_type_getsets DQ FLAT:??_C@_08IBFKALI@__dict__?$AA@
	DQ	FLAT:PyObject_GenericGetDict
	DQ	FLAT:PyObject_GenericSetDict
	ORG $+16
	DQ	0000000000000000H
	ORG $+32
AST_type DQ	dead1234beef5678H
	DQ	dead1234beef5678H
	DQ	0000000000000000H
	ORG $+8
	DQ	0000000000000001H
	DQ	0000000000000000H
	DQ	0000000000000000H
	DQ	0000000000000000H
	DQ	dead1234beef5678H
	DQ	dead1234beef5678H
	DQ	0000000000000001H
	DQ	FLAT:PyType_Type
	DQ	0000000000000000H
	ORG $+8
	DQ	FLAT:??_C@_08IBLOGDG@_ast?4AST?$AA@
	DQ	0000000000000070H
	DQ	0000000000000000H
	DQ	FLAT:ast_dealloc
	DQ	0000000000000000H
	DQ	0000000000000000H
	DQ	0000000000000000H
	DQ	0000000000000000H
	DQ	0000000000000000H
	DQ	0000000000000000H
	DQ	0000000000000000H
	DQ	0000000000000000H
	DQ	0000000000000000H
	DQ	0000000000000000H
	DQ	0000000000000000H
	DQ	FLAT:PyObject_GenericGetAttr
	DQ	FLAT:PyObject_GenericSetAttr
	DQ	0000000000000000H
	DD	044400H
	ORG $+4
	DQ	0000000000000000H
	DQ	FLAT:ast_traverse
	DQ	FLAT:ast_clear
	DQ	0000000000000000H
	DQ	0000000000000000H
	DQ	0000000000000000H
	DQ	0000000000000000H
	DQ	FLAT:ast_type_methods
	DQ	0000000000000000H
	DQ	FLAT:ast_type_getsets
	DQ	0000000000000000H
	DQ	0000000000000000H
	DQ	0000000000000000H
	DQ	0000000000000000H
	DQ	0000000000000060H
	DQ	FLAT:ast_type_init
	DQ	FLAT:PyType_GenericAlloc
	DQ	FLAT:PyType_GenericNew
	DQ	FLAT:PyObject_GC_Del
	ORG $+64
_astmodule DQ	dead1234beef5678H
	DQ	dead1234beef5678H
	DQ	0000000000000000H
	ORG $+8
	DQ	0000000000000001H
	DQ	0000000000000000H
	DQ	0000000000000000H
	DQ	0000000000000000H
	DQ	dead1234beef5678H
	DQ	dead1234beef5678H
	DQ	0000000000000001H
	DQ	0000000000000000H
	DQ	0000000000000000H
	DQ	0000000000000000H
	DQ	0000000000000000H
	ORG $+8
	DQ	FLAT:??_C@_04BNOAKKGF@_ast?$AA@
	ORG $+56
_DATA	ENDS
_TLS	SEGMENT
?PyId__attributes@?1??add_attributes@@9@9 DQ 0000000000000000H ; `add_attributes'::`2'::PyId__attributes
	DQ	FLAT:??_C@_0M@CDHEEICO@_attributes?$AA@
	DQ	0000000000000000H
?PyId___dict__@?1??ast_type_reduce@@9@9 DQ 0000000000000000H ; `ast_type_reduce'::`2'::PyId___dict__
	DQ	FLAT:??_C@_08IBFKALI@__dict__?$AA@
	DQ	0000000000000000H
?PyId__fields@?1??ast_type_init@@9@9 DQ 0000000000000000H ; `ast_type_init'::`2'::PyId__fields
	DQ	FLAT:??_C@_07LKKIBPPO@_fields?$AA@
	DQ	0000000000000000H
PyId_optional_vars DQ 0000000000000000H
	DQ	FLAT:??_C@_0O@PNIBPJAK@optional_vars?$AA@
	DQ	0000000000000000H
PyId_context_expr DQ 0000000000000000H
	DQ	FLAT:??_C@_0N@NOGLGHPG@context_expr?$AA@
	DQ	0000000000000000H
PyId_asname DQ	0000000000000000H
	DQ	FLAT:??_C@_06DPPJIGGE@asname?$AA@
	DQ	0000000000000000H
PyId_annotation DQ 0000000000000000H
	DQ	FLAT:??_C@_0L@HOGAMHHM@annotation?$AA@
	DQ	0000000000000000H
PyId_arg DQ	0000000000000000H
	DQ	FLAT:??_C@_03CAOIPBNL@arg?$AA@
	DQ	0000000000000000H
PyId_kw_defaults DQ 0000000000000000H
	DQ	FLAT:??_C@_0M@OHIOHNMJ@kw_defaults?$AA@
	DQ	0000000000000000H
PyId_defaults DQ 0000000000000000H
	DQ	FLAT:??_C@_08LMJEPNLL@defaults?$AA@
	DQ	0000000000000000H
PyId_kwargannotation DQ 0000000000000000H
	DQ	FLAT:??_C@_0BA@JACLGMFO@kwargannotation?$AA@
	DQ	0000000000000000H
PyId_kwarg DQ	0000000000000000H
	DQ	FLAT:??_C@_05JJKPEMCC@kwarg?$AA@
	DQ	0000000000000000H
PyId_kwonlyargs DQ 0000000000000000H
	DQ	FLAT:??_C@_0L@PJHGIGJA@kwonlyargs?$AA@
	DQ	0000000000000000H
PyId_varargannotation DQ 0000000000000000H
	DQ	FLAT:??_C@_0BB@LBMLKLGK@varargannotation?$AA@
	DQ	0000000000000000H
PyId_vararg DQ	0000000000000000H
	DQ	FLAT:??_C@_06FDMCHLPI@vararg?$AA@
	DQ	0000000000000000H
PyId_type DQ	0000000000000000H
	DQ	FLAT:??_C@_04GPMDFGEJ@type?$AA@
	DQ	0000000000000000H
PyId_ifs DQ	0000000000000000H
	DQ	FLAT:??_C@_03NANNAFMN@ifs?$AA@
	DQ	0000000000000000H
PyId_dims DQ	0000000000000000H
	DQ	FLAT:??_C@_04FHFMBDKA@dims?$AA@
	DQ	0000000000000000H
PyId_step DQ	0000000000000000H
	DQ	FLAT:??_C@_04CNBNFAL@step?$AA@
	DQ	0000000000000000H
PyId_upper DQ	0000000000000000H
	DQ	FLAT:??_C@_05NECKJAMC@upper?$AA@
	DQ	0000000000000000H
PyId_lower DQ	0000000000000000H
	DQ	FLAT:??_C@_05IPJEPLHL@lower?$AA@
	DQ	0000000000000000H
PyId_id	DQ	0000000000000000H
	DQ	FLAT:??_C@_02EGCJHIOB@id?$AA@
	DQ	0000000000000000H
PyId_slice DQ	0000000000000000H
	DQ	FLAT:??_C@_05ILHMOJGN@slice?$AA@
	DQ	0000000000000000H
PyId_ctx DQ	0000000000000000H
	DQ	FLAT:??_C@_03EDDGELHM@ctx?$AA@
	DQ	0000000000000000H
PyId_attr DQ	0000000000000000H
	DQ	FLAT:??_C@_04DHCDLKCM@attr?$AA@
	DQ	0000000000000000H
PyId_s	DQ	0000000000000000H
	DQ	FLAT:??_C@_01LKDEMHDF@s?$AA@
	DQ	0000000000000000H
PyId_n	DQ	0000000000000000H
	DQ	FLAT:??_C@_01EFFIKLCJ@n?$AA@
	DQ	0000000000000000H
PyId_func DQ	0000000000000000H
	DQ	FLAT:??_C@_04HPNHAEOP@func?$AA@
	DQ	0000000000000000H
PyId_comparators DQ 0000000000000000H
	DQ	FLAT:??_C@_0M@FEBOCDAK@comparators?$AA@
	DQ	0000000000000000H
PyId_ops DQ	0000000000000000H
	DQ	FLAT:??_C@_03ONBNIFND@ops?$AA@
	DQ	0000000000000000H
PyId_key DQ	0000000000000000H
	DQ	FLAT:??_C@_03ICHNJLJF@key?$AA@
	DQ	0000000000000000H
PyId_generators DQ 0000000000000000H
	DQ	FLAT:??_C@_0L@FCNMNMNJ@generators?$AA@
	DQ	0000000000000000H
PyId_elt DQ	0000000000000000H
	DQ	FLAT:??_C@_03NINNKJGE@elt?$AA@
	DQ	0000000000000000H
PyId_elts DQ	0000000000000000H
	DQ	FLAT:??_C@_04EOBFFCNN@elts?$AA@
	DQ	0000000000000000H
PyId_keys DQ	0000000000000000H
	DQ	FLAT:??_C@_04IEPFDAGF@keys?$AA@
	DQ	0000000000000000H
PyId_operand DQ	0000000000000000H
	DQ	FLAT:??_C@_07GEBHLHAD@operand?$AA@
	DQ	0000000000000000H
PyId_right DQ	0000000000000000H
	DQ	FLAT:??_C@_05DHJDAOHK@right?$AA@
	DQ	0000000000000000H
PyId_left DQ	0000000000000000H
	DQ	FLAT:??_C@_04GOOOJOPP@left?$AA@
	DQ	0000000000000000H
PyId_values DQ	0000000000000000H
	DQ	FLAT:??_C@_06GEKOPAHD@values?$AA@
	DQ	0000000000000000H
PyId_level DQ	0000000000000000H
	DQ	FLAT:??_C@_05KJNJLLGA@level?$AA@
	DQ	0000000000000000H
PyId_module DQ	0000000000000000H
	DQ	FLAT:??_C@_06BIEEJMKO@module?$AA@
	DQ	0000000000000000H
PyId_names DQ	0000000000000000H
	DQ	FLAT:??_C@_05FLNDGCKL@names?$AA@
	DQ	0000000000000000H
PyId_msg DQ	0000000000000000H
	DQ	FLAT:??_C@_03GLPMCEFE@msg?$AA@
	DQ	0000000000000000H
PyId_finalbody DQ 0000000000000000H
	DQ	FLAT:??_C@_09JGEOIMID@finalbody?$AA@
	DQ	0000000000000000H
PyId_handlers DQ 0000000000000000H
	DQ	FLAT:??_C@_08KJLNBJEK@handlers?$AA@
	DQ	0000000000000000H
PyId_cause DQ	0000000000000000H
	DQ	FLAT:??_C@_05HGNDGEBA@cause?$AA@
	DQ	0000000000000000H
PyId_exc DQ	0000000000000000H
	DQ	FLAT:??_C@_03MGHBCGFO@exc?$AA@
	DQ	0000000000000000H
PyId_items DQ	0000000000000000H
	DQ	FLAT:??_C@_05CFHBDDLG@items?$AA@
	DQ	0000000000000000H
PyId_test DQ	0000000000000000H
	DQ	FLAT:??_C@_04CEJDCDCH@test?$AA@
	DQ	0000000000000000H
PyId_orelse DQ	0000000000000000H
	DQ	FLAT:??_C@_06DHJIEJCK@orelse?$AA@
	DQ	0000000000000000H
PyId_iter DQ	0000000000000000H
	DQ	FLAT:??_C@_04BKLHDIKK@iter?$AA@
	DQ	0000000000000000H
PyId_op	DQ	0000000000000000H
	DQ	FLAT:??_C@_02GMAKNDAG@op?$AA@
	DQ	0000000000000000H
PyId_target DQ	0000000000000000H
	DQ	FLAT:??_C@_06JJLAMBGK@target?$AA@
	DQ	0000000000000000H
PyId_targets DQ	0000000000000000H
	DQ	FLAT:??_C@_07KJOMBCLC@targets?$AA@
	DQ	0000000000000000H
PyId_value DQ	0000000000000000H
	DQ	FLAT:??_C@_05MFEJDJP@value?$AA@
	DQ	0000000000000000H
PyId_kwargs DQ	0000000000000000H
	DQ	FLAT:??_C@_06NBOLMEJN@kwargs?$AA@
	DQ	0000000000000000H
PyId_starargs DQ 0000000000000000H
	DQ	FLAT:??_C@_08LPAHKBMK@starargs?$AA@
	DQ	0000000000000000H
PyId_keywords DQ 0000000000000000H
	DQ	FLAT:??_C@_08KBIEDDDE@keywords?$AA@
	DQ	0000000000000000H
PyId_bases DQ	0000000000000000H
	DQ	FLAT:??_C@_05JMNHICHM@bases?$AA@
	DQ	0000000000000000H
PyId_returns DQ	0000000000000000H
	DQ	FLAT:??_C@_07ILMKFBFJ@returns?$AA@
	DQ	0000000000000000H
PyId_decorator_list DQ 0000000000000000H
	DQ	FLAT:??_C@_0P@LMCHOPJJ@decorator_list?$AA@
	DQ	0000000000000000H
PyId_args DQ	0000000000000000H
	DQ	FLAT:??_C@_04BFDDMJJI@args?$AA@
	DQ	0000000000000000H
PyId_name DQ	0000000000000000H
	DQ	FLAT:??_C@_04MEMAJGDJ@name?$AA@
	DQ	0000000000000000H
PyId_col_offset DQ 0000000000000000H
	DQ	FLAT:??_C@_0L@ICBHJKOA@col_offset?$AA@
	DQ	0000000000000000H
PyId_lineno DQ	0000000000000000H
	DQ	FLAT:??_C@_06ILKIAHNN@lineno?$AA@
	DQ	0000000000000000H
PyId_body DQ	0000000000000000H
	DQ	FLAT:??_C@_04IEJGKNJ@body?$AA@
	DQ	0000000000000000H
_TLS	ENDS
;	COMDAT ??_C@_04IEJGKNJ@body?$AA@
CONST	SEGMENT
??_C@_04IEJGKNJ@body?$AA@ DB 'body', 00H		; `string'
CONST	ENDS
PUBLIC	_Py_DecRef
PUBLIC	??_C@_0M@GMLKPBDC@ast_dealloc?$AA@		; `string'
PUBLIC	??_C@_0BH@KJIDLEJF@?4?4?2Python?2Python?9ast?4c?$AA@ ; `string'
EXTRN	_PyParallel_Guard:PROC
;	COMDAT pdata
; File c:\src\pyparallel\python\python-ast.c
pdata	SEGMENT
$pdata$ast_dealloc DD imagerel ast_dealloc
	DD	imagerel ast_dealloc+135
	DD	imagerel $unwind$ast_dealloc
pdata	ENDS
;	COMDAT xdata
xdata	SEGMENT
$unwind$ast_dealloc DD 010901H
	DD	08209H
xdata	ENDS
;	COMDAT ??_C@_0M@GMLKPBDC@ast_dealloc?$AA@
CONST	SEGMENT
??_C@_0M@GMLKPBDC@ast_dealloc?$AA@ DB 'ast_dealloc', 00H ; `string'
CONST	ENDS
;	COMDAT ??_C@_0BH@KJIDLEJF@?4?4?2Python?2Python?9ast?4c?$AA@
CONST	SEGMENT
??_C@_0BH@KJIDLEJF@?4?4?2Python?2Python?9ast?4c?$AA@ DB '..\Python\Python'
	DB	'-ast.c', 00H				; `string'
; Function compile flags: /Odtp
CONST	ENDS
;	COMDAT ast_dealloc
_TEXT	SEGMENT
_py_tmp$21753 = 48
self$ = 80
ast_dealloc PROC					; COMDAT

; 465  : {

  00000	48 89 4c 24 08	 mov	 QWORD PTR [rsp+8], rcx
  00005	48 83 ec 48	 sub	 rsp, 72			; 00000048H
$LN4@ast_deallo:

; 466  :     Py_CLEAR(self->dict);

  00009	48 8b 44 24 50	 mov	 rax, QWORD PTR self$[rsp]
  0000e	48 83 78 60 00	 cmp	 QWORD PTR [rax+96], 0
  00013	74 53		 je	 SHORT $LN1@ast_deallo
  00015	c7 44 24 20 10
	00 00 00	 mov	 DWORD PTR [rsp+32], 16
  0001d	48 8b 44 24 50	 mov	 rax, QWORD PTR self$[rsp]
  00022	4c 8b 48 60	 mov	 r9, QWORD PTR [rax+96]
  00026	41 b8 d2 01 00
	00		 mov	 r8d, 466		; 000001d2H
  0002c	48 8d 15 00 00
	00 00		 lea	 rdx, OFFSET FLAT:??_C@_0BH@KJIDLEJF@?4?4?2Python?2Python?9ast?4c?$AA@
  00033	48 8d 0d 00 00
	00 00		 lea	 rcx, OFFSET FLAT:??_C@_0M@GMLKPBDC@ast_dealloc?$AA@
  0003a	e8 00 00 00 00	 call	 _PyParallel_Guard
  0003f	85 c0		 test	 eax, eax
  00041	75 25		 jne	 SHORT $LN1@ast_deallo
  00043	48 8b 44 24 50	 mov	 rax, QWORD PTR self$[rsp]
  00048	48 8b 40 60	 mov	 rax, QWORD PTR [rax+96]
  0004c	48 89 44 24 30	 mov	 QWORD PTR _py_tmp$21753[rsp], rax
  00051	48 8b 44 24 50	 mov	 rax, QWORD PTR self$[rsp]
  00056	48 c7 40 60 00
	00 00 00	 mov	 QWORD PTR [rax+96], 0
  0005e	48 8b 4c 24 30	 mov	 rcx, QWORD PTR _py_tmp$21753[rsp]
  00063	e8 00 00 00 00	 call	 _Py_DecRef
$LN1@ast_deallo:
  00068	33 c0		 xor	 eax, eax
  0006a	85 c0		 test	 eax, eax
  0006c	75 9b		 jne	 SHORT $LN4@ast_deallo

; 467  :     Py_TYPE(self)->tp_free(self);

  0006e	48 8b 44 24 50	 mov	 rax, QWORD PTR self$[rsp]
  00073	48 8b 40 58	 mov	 rax, QWORD PTR [rax+88]
  00077	48 8b 4c 24 50	 mov	 rcx, QWORD PTR self$[rsp]
  0007c	ff 90 98 01 00
	00		 call	 QWORD PTR [rax+408]

; 468  : }

  00082	48 83 c4 48	 add	 rsp, 72			; 00000048H
  00086	c3		 ret	 0
ast_dealloc ENDP
_TEXT	ENDS
PUBLIC	??_C@_0L@DMHMLFIA@_Py_DecRef?$AA@		; `string'
PUBLIC	??_C@_0CD@HDJFDCDP@c?3?2src?2pyparallel?2include?2object@ ; `string'
EXTRN	_Py_Dealloc:PROC
EXTRN	_Py_NegativeRefcount:PROC
EXTRN	_Py_RefTotal:QWORD
EXTRN	Px_DecRef:PROC
EXTRN	_Py_PXCTX:PROC
;	COMDAT pdata
; File c:\src\pyparallel\include\object.h
pdata	SEGMENT
$pdata$_Py_DecRef DD imagerel $LN13
	DD	imagerel $LN13+257
	DD	imagerel $unwind$_Py_DecRef
pdata	ENDS
;	COMDAT xdata
xdata	SEGMENT
$unwind$_Py_DecRef DD 010901H
	DD	08209H
xdata	ENDS
;	COMDAT ??_C@_0L@DMHMLFIA@_Py_DecRef?$AA@
CONST	SEGMENT
??_C@_0L@DMHMLFIA@_Py_DecRef?$AA@ DB '_Py_DecRef', 00H	; `string'
CONST	ENDS
;	COMDAT ??_C@_0CD@HDJFDCDP@c?3?2src?2pyparallel?2include?2object@
CONST	SEGMENT
??_C@_0CD@HDJFDCDP@c?3?2src?2pyparallel?2include?2object@ DB 'c:\src\pypa'
	DB	'rallel\include\object.h', 00H		; `string'
; Function compile flags: /Odtp
CONST	ENDS
;	COMDAT _Py_DecRef
_TEXT	SEGMENT
tv81 = 48
op$ = 80
_Py_DecRef PROC						; COMDAT

; 923  : {

$LN13:
  00000	48 89 4c 24 08	 mov	 QWORD PTR [rsp+8], rcx
  00005	48 83 ec 48	 sub	 rsp, 72			; 00000048H

; 924  :     if (!Py_PXCTX) {

  00009	e8 00 00 00 00	 call	 _Py_PXCTX
  0000e	85 c0		 test	 eax, eax
  00010	0f 85 e6 00 00
	00		 jne	 $LN8@Py_DecRef

; 925  :         if (Px_PERSISTED(op) || Px_CLONED(op))

  00016	48 8b 44 24 50	 mov	 rax, QWORD PTR op$[rsp]
  0001b	48 8b 40 20	 mov	 rax, QWORD PTR [rax+32]
  0001f	48 83 e0 20	 and	 rax, 32			; 00000020H
  00023	48 85 c0	 test	 rax, rax
  00026	75 14		 jne	 SHORT $LN6@Py_DecRef
  00028	48 8b 44 24 50	 mov	 rax, QWORD PTR op$[rsp]
  0002d	48 8b 40 20	 mov	 rax, QWORD PTR [rax+32]
  00031	48 25 80 00 00
	00		 and	 rax, 128		; 00000080H
  00037	48 85 c0	 test	 rax, rax
  0003a	74 0f		 je	 SHORT $LN7@Py_DecRef
$LN6@Py_DecRef:

; 926  :             Px_DECREF(op);

  0003c	48 8b 4c 24 50	 mov	 rcx, QWORD PTR op$[rsp]
  00041	e8 00 00 00 00	 call	 Px_DecRef
  00046	e9 b1 00 00 00	 jmp	 $LN5@Py_DecRef
$LN7@Py_DecRef:

; 927  :         else if (!Px_ISPX(op)) {

  0004b	48 8b 44 24 50	 mov	 rax, QWORD PTR op$[rsp]
  00050	48 8b 40 20	 mov	 rax, QWORD PTR [rax+32]
  00054	48 83 e0 02	 and	 rax, 2
  00058	48 85 c0	 test	 rax, rax
  0005b	0f 85 9b 00 00
	00		 jne	 $LN4@Py_DecRef

; 928  :             _Py_DEC_REFTOTAL;

  00061	e8 00 00 00 00	 call	 _Py_PXCTX
  00066	85 c0		 test	 eax, eax
  00068	74 02		 je	 SHORT $LN11@Py_DecRef
  0006a	eb 11		 jmp	 SHORT $LN12@Py_DecRef
$LN11@Py_DecRef:
  0006c	48 8b 05 00 00
	00 00		 mov	 rax, QWORD PTR _Py_RefTotal
  00073	48 ff c8	 dec	 rax
  00076	48 89 05 00 00
	00 00		 mov	 QWORD PTR _Py_RefTotal, rax
$LN12@Py_DecRef:

; 929  :             if ((--((PyObject *)(op))->ob_refcnt) != 0) {

  0007d	48 8b 44 24 50	 mov	 rax, QWORD PTR op$[rsp]
  00082	48 8b 40 50	 mov	 rax, QWORD PTR [rax+80]
  00086	48 ff c8	 dec	 rax
  00089	48 89 44 24 30	 mov	 QWORD PTR tv81[rsp], rax
  0008e	48 8b 44 24 50	 mov	 rax, QWORD PTR op$[rsp]
  00093	48 8b 4c 24 30	 mov	 rcx, QWORD PTR tv81[rsp]
  00098	48 89 48 50	 mov	 QWORD PTR [rax+80], rcx
  0009c	48 83 7c 24 30
	00		 cmp	 QWORD PTR tv81[rsp], 0
  000a2	74 4e		 je	 SHORT $LN3@Py_DecRef

; 930  :                 _Py_CHECK_REFCNT(op);

  000a4	c7 44 24 20 10
	00 00 00	 mov	 DWORD PTR [rsp+32], 16
  000ac	4c 8b 4c 24 50	 mov	 r9, QWORD PTR op$[rsp]
  000b1	41 b8 a2 03 00
	00		 mov	 r8d, 930		; 000003a2H
  000b7	48 8d 15 00 00
	00 00		 lea	 rdx, OFFSET FLAT:??_C@_0CD@HDJFDCDP@c?3?2src?2pyparallel?2include?2object@
  000be	48 8d 0d 00 00
	00 00		 lea	 rcx, OFFSET FLAT:??_C@_0L@DMHMLFIA@_Py_DecRef?$AA@
  000c5	e8 00 00 00 00	 call	 _PyParallel_Guard
  000ca	85 c0		 test	 eax, eax
  000cc	75 22		 jne	 SHORT $LN2@Py_DecRef
  000ce	48 8b 44 24 50	 mov	 rax, QWORD PTR op$[rsp]
  000d3	48 83 78 50 00	 cmp	 QWORD PTR [rax+80], 0
  000d8	7d 16		 jge	 SHORT $LN2@Py_DecRef
  000da	4c 8b 44 24 50	 mov	 r8, QWORD PTR op$[rsp]
  000df	ba a2 03 00 00	 mov	 edx, 930		; 000003a2H
  000e4	48 8d 0d 00 00
	00 00		 lea	 rcx, OFFSET FLAT:??_C@_0CD@HDJFDCDP@c?3?2src?2pyparallel?2include?2object@
  000eb	e8 00 00 00 00	 call	 _Py_NegativeRefcount
$LN2@Py_DecRef:

; 931  :             } else

  000f0	eb 0a		 jmp	 SHORT $LN1@Py_DecRef
$LN3@Py_DecRef:

; 932  :                 _Py_Dealloc((PyObject *)(op));

  000f2	48 8b 4c 24 50	 mov	 rcx, QWORD PTR op$[rsp]
  000f7	e8 00 00 00 00	 call	 _Py_Dealloc
$LN1@Py_DecRef:
$LN4@Py_DecRef:
$LN5@Py_DecRef:
$LN8@Py_DecRef:

; 933  :         }
; 934  :     }
; 935  : }

  000fc	48 83 c4 48	 add	 rsp, 72			; 00000048H
  00100	c3		 ret	 0
_Py_DecRef ENDP
_TEXT	ENDS
PUBLIC	??_C@_0N@BLIHGBGO@ast_traverse?$AA@		; `string'
EXTRN	_PyParallel_ContextGuardFailure:PROC
;	COMDAT pdata
; File c:\src\pyparallel\python\python-ast.c
pdata	SEGMENT
$pdata$ast_traverse DD imagerel ast_traverse
	DD	imagerel ast_traverse+116
	DD	imagerel $unwind$ast_traverse
pdata	ENDS
;	COMDAT xdata
xdata	SEGMENT
$unwind$ast_traverse DD 011301H
	DD	06213H
xdata	ENDS
;	COMDAT ??_C@_0N@BLIHGBGO@ast_traverse?$AA@
CONST	SEGMENT
??_C@_0N@BLIHGBGO@ast_traverse?$AA@ DB 'ast_traverse', 00H ; `string'
; Function compile flags: /Odtp
CONST	ENDS
;	COMDAT ast_traverse
_TEXT	SEGMENT
vret$21772 = 32
self$ = 64
visit$ = 72
arg$ = 80
ast_traverse PROC					; COMDAT

; 472  : {

  00000	4c 89 44 24 18	 mov	 QWORD PTR [rsp+24], r8
  00005	48 89 54 24 10	 mov	 QWORD PTR [rsp+16], rdx
  0000a	48 89 4c 24 08	 mov	 QWORD PTR [rsp+8], rcx
  0000f	48 83 ec 38	 sub	 rsp, 56			; 00000038H
$LN6@ast_traver:

; 473  :     Py_VISIT(self->dict);

  00013	e8 00 00 00 00	 call	 _Py_PXCTX
  00018	85 c0		 test	 eax, eax
  0001a	74 1c		 je	 SHORT $LN3@ast_traver
  0001c	45 33 c9	 xor	 r9d, r9d
  0001f	41 b8 d9 01 00
	00		 mov	 r8d, 473		; 000001d9H
  00025	48 8d 15 00 00
	00 00		 lea	 rdx, OFFSET FLAT:??_C@_0BH@KJIDLEJF@?4?4?2Python?2Python?9ast?4c?$AA@
  0002c	48 8d 0d 00 00
	00 00		 lea	 rcx, OFFSET FLAT:??_C@_0N@BLIHGBGO@ast_traverse?$AA@
  00033	e8 00 00 00 00	 call	 _PyParallel_ContextGuardFailure
$LN3@ast_traver:
  00038	48 8b 44 24 40	 mov	 rax, QWORD PTR self$[rsp]
  0003d	48 83 78 60 00	 cmp	 QWORD PTR [rax+96], 0
  00042	74 23		 je	 SHORT $LN2@ast_traver
  00044	48 8b 54 24 50	 mov	 rdx, QWORD PTR arg$[rsp]
  00049	48 8b 44 24 40	 mov	 rax, QWORD PTR self$[rsp]
  0004e	48 8b 48 60	 mov	 rcx, QWORD PTR [rax+96]
  00052	ff 54 24 48	 call	 QWORD PTR visit$[rsp]
  00056	89 44 24 20	 mov	 DWORD PTR vret$21772[rsp], eax
  0005a	83 7c 24 20 00	 cmp	 DWORD PTR vret$21772[rsp], 0
  0005f	74 06		 je	 SHORT $LN1@ast_traver
  00061	8b 44 24 20	 mov	 eax, DWORD PTR vret$21772[rsp]
  00065	eb 08		 jmp	 SHORT $LN7@ast_traver
$LN1@ast_traver:
$LN2@ast_traver:
  00067	33 c0		 xor	 eax, eax
  00069	85 c0		 test	 eax, eax
  0006b	75 a6		 jne	 SHORT $LN6@ast_traver

; 474  :     return 0;

  0006d	33 c0		 xor	 eax, eax
$LN7@ast_traver:

; 475  : }

  0006f	48 83 c4 38	 add	 rsp, 56			; 00000038H
  00073	c3		 ret	 0
ast_traverse ENDP
_TEXT	ENDS
PUBLIC	??_C@_09JMLPFLAJ@ast_clear?$AA@			; `string'
;	COMDAT pdata
pdata	SEGMENT
$pdata$ast_clear DD imagerel ast_clear
	DD	imagerel ast_clear+115
	DD	imagerel $unwind$ast_clear
pdata	ENDS
;	COMDAT xdata
xdata	SEGMENT
$unwind$ast_clear DD 010901H
	DD	08209H
xdata	ENDS
;	COMDAT ??_C@_09JMLPFLAJ@ast_clear?$AA@
CONST	SEGMENT
??_C@_09JMLPFLAJ@ast_clear?$AA@ DB 'ast_clear', 00H	; `string'
; Function compile flags: /Odtp
CONST	ENDS
;	COMDAT ast_clear
_TEXT	SEGMENT
_py_tmp$21784 = 48
self$ = 80
ast_clear PROC						; COMDAT

; 479  : {

  00000	48 89 4c 24 08	 mov	 QWORD PTR [rsp+8], rcx
  00005	48 83 ec 48	 sub	 rsp, 72			; 00000048H
$LN4@ast_clear:

; 480  :     Py_CLEAR(self->dict);

  00009	48 8b 44 24 50	 mov	 rax, QWORD PTR self$[rsp]
  0000e	48 83 78 60 00	 cmp	 QWORD PTR [rax+96], 0
  00013	74 53		 je	 SHORT $LN1@ast_clear
  00015	c7 44 24 20 10
	00 00 00	 mov	 DWORD PTR [rsp+32], 16
  0001d	48 8b 44 24 50	 mov	 rax, QWORD PTR self$[rsp]
  00022	4c 8b 48 60	 mov	 r9, QWORD PTR [rax+96]
  00026	41 b8 e0 01 00
	00		 mov	 r8d, 480		; 000001e0H
  0002c	48 8d 15 00 00
	00 00		 lea	 rdx, OFFSET FLAT:??_C@_0BH@KJIDLEJF@?4?4?2Python?2Python?9ast?4c?$AA@
  00033	48 8d 0d 00 00
	00 00		 lea	 rcx, OFFSET FLAT:??_C@_09JMLPFLAJ@ast_clear?$AA@
  0003a	e8 00 00 00 00	 call	 _PyParallel_Guard
  0003f	85 c0		 test	 eax, eax
  00041	75 25		 jne	 SHORT $LN1@ast_clear
  00043	48 8b 44 24 50	 mov	 rax, QWORD PTR self$[rsp]
  00048	48 8b 40 60	 mov	 rax, QWORD PTR [rax+96]
  0004c	48 89 44 24 30	 mov	 QWORD PTR _py_tmp$21784[rsp], rax
  00051	48 8b 44 24 50	 mov	 rax, QWORD PTR self$[rsp]
  00056	48 c7 40 60 00
	00 00 00	 mov	 QWORD PTR [rax+96], 0
  0005e	48 8b 4c 24 30	 mov	 rcx, QWORD PTR _py_tmp$21784[rsp]
  00063	e8 00 00 00 00	 call	 _Py_DecRef
$LN1@ast_clear:
  00068	33 c0		 xor	 eax, eax
  0006a	85 c0		 test	 eax, eax
  0006c	75 9b		 jne	 SHORT $LN4@ast_clear

; 481  : }

  0006e	48 83 c4 48	 add	 rsp, 72			; 00000048H
  00072	c3		 ret	 0
ast_clear ENDP
_TEXT	ENDS
PUBLIC	??_C@_0DF@BNALLACH@?$CF?4400s?5constructor?5takes?5?$CFs?$CFzd?5p@ ; `string'
PUBLIC	??_C@_0N@IJFENPKG@either?50?5or?5?$AA@		; `string'
PUBLIC	??_C@_00CNPNBAHC@?$AA@				; `string'
EXTRN	PyDict_Next:PROC
EXTRN	PyObject_SetAttr:PROC
EXTRN	PySequence_GetItem:PROC
EXTRN	PyErr_Format:PROC
EXTRN	PyExc_TypeError:QWORD
EXTRN	PySequence_Size:PROC
EXTRN	PyErr_Clear:PROC
EXTRN	_PyObject_GetAttrId:PROC
EXTRN	_tls_index:DWORD
;	COMDAT pdata
pdata	SEGMENT
$pdata$ast_type_init DD imagerel ast_type_init
	DD	imagerel ast_type_init+604
	DD	imagerel $unwind$ast_type_init
pdata	ENDS
;	COMDAT xdata
xdata	SEGMENT
$unwind$ast_type_init DD 021601H
	DD	0110116H
xdata	ENDS
;	COMDAT ??_C@_0DF@BNALLACH@?$CF?4400s?5constructor?5takes?5?$CFs?$CFzd?5p@
CONST	SEGMENT
??_C@_0DF@BNALLACH@?$CF?4400s?5constructor?5takes?5?$CFs?$CFzd?5p@ DB '%.'
	DB	'400s constructor takes %s%zd positional argument%s', 00H ; `string'
CONST	ENDS
;	COMDAT ??_C@_0N@IJFENPKG@either?50?5or?5?$AA@
CONST	SEGMENT
??_C@_0N@IJFENPKG@either?50?5or?5?$AA@ DB 'either 0 or ', 00H ; `string'
CONST	ENDS
;	COMDAT ??_C@_00CNPNBAHC@?$AA@
CONST	SEGMENT
??_C@_00CNPNBAHC@?$AA@ DB 00H				; `string'
; Function compile flags: /Odtp
CONST	ENDS
;	COMDAT ast_type_init
_TEXT	SEGMENT
value$ = 48
res$ = 56
i$ = 64
key$ = 72
fields$ = 80
numfields$ = 88
name$21823 = 96
tv85 = 104
tv89 = 112
self$ = 144
args$ = 152
kw$ = 160
ast_type_init PROC					; COMDAT

; 485  : {

  00000	4c 89 44 24 18	 mov	 QWORD PTR [rsp+24], r8
  00005	48 89 54 24 10	 mov	 QWORD PTR [rsp+16], rdx
  0000a	48 89 4c 24 08	 mov	 QWORD PTR [rsp+8], rcx
  0000f	48 81 ec 88 00
	00 00		 sub	 rsp, 136		; 00000088H

; 486  :     _Py_IDENTIFIER(_fields);
; 487  :     Py_ssize_t i, numfields = 0;

  00016	48 c7 44 24 58
	00 00 00 00	 mov	 QWORD PTR numfields$[rsp], 0

; 488  :     int res = -1;

  0001f	c7 44 24 38 ff
	ff ff ff	 mov	 DWORD PTR res$[rsp], -1

; 489  :     PyObject *key, *value, *fields;
; 490  :     fields = _PyObject_GetAttrId((PyObject*)Py_TYPE(self), &PyId__fields);

  00027	b8 00 00 00 00	 mov	 eax, OFFSET FLAT:?PyId__fields@?1??ast_type_init@@9@9
  0002c	8b c0		 mov	 eax, eax
  0002e	8b 0d 00 00 00
	00		 mov	 ecx, DWORD PTR _tls_index
  00034	65 48 8b 14 25
	58 00 00 00	 mov	 rdx, QWORD PTR gs:88
  0003d	48 03 04 ca	 add	 rax, QWORD PTR [rdx+rcx*8]
  00041	48 8b d0	 mov	 rdx, rax
  00044	48 8b 84 24 90
	00 00 00	 mov	 rax, QWORD PTR self$[rsp]
  0004c	48 8b 48 58	 mov	 rcx, QWORD PTR [rax+88]
  00050	e8 00 00 00 00	 call	 _PyObject_GetAttrId
  00055	48 89 44 24 50	 mov	 QWORD PTR fields$[rsp], rax

; 491  :     if (!fields)

  0005a	48 83 7c 24 50
	00		 cmp	 QWORD PTR fields$[rsp], 0
  00060	75 05		 jne	 SHORT $LN18@ast_type_i

; 492  :         PyErr_Clear();

  00062	e8 00 00 00 00	 call	 PyErr_Clear
$LN18@ast_type_i:

; 493  :     if (fields) {

  00067	48 83 7c 24 50
	00		 cmp	 QWORD PTR fields$[rsp], 0
  0006d	74 1c		 je	 SHORT $LN17@ast_type_i

; 494  :         numfields = PySequence_Size(fields);

  0006f	48 8b 4c 24 50	 mov	 rcx, QWORD PTR fields$[rsp]
  00074	e8 00 00 00 00	 call	 PySequence_Size
  00079	48 89 44 24 58	 mov	 QWORD PTR numfields$[rsp], rax

; 495  :         if (numfields == -1)

  0007e	48 83 7c 24 58
	ff		 cmp	 QWORD PTR numfields$[rsp], -1
  00084	75 05		 jne	 SHORT $LN16@ast_type_i

; 496  :             goto cleanup;

  00086	e9 ad 01 00 00	 jmp	 $cleanup$21810
$LN16@ast_type_i:
$LN17@ast_type_i:

; 497  :     }
; 498  :     res = 0; /* if no error occurs, this stays 0 to the end */

  0008b	c7 44 24 38 00
	00 00 00	 mov	 DWORD PTR res$[rsp], 0

; 499  :     if (PyTuple_GET_SIZE(args) > 0) {

  00093	48 8b 84 24 98
	00 00 00	 mov	 rax, QWORD PTR args$[rsp]
  0009b	48 83 78 60 00	 cmp	 QWORD PTR [rax+96], 0
  000a0	0f 8e 38 01 00
	00		 jle	 $LN15@ast_type_i

; 500  :         if (numfields != PyTuple_GET_SIZE(args)) {

  000a6	48 8b 84 24 98
	00 00 00	 mov	 rax, QWORD PTR args$[rsp]
  000ae	48 8b 40 60	 mov	 rax, QWORD PTR [rax+96]
  000b2	48 39 44 24 58	 cmp	 QWORD PTR numfields$[rsp], rax
  000b7	0f 84 8d 00 00
	00		 je	 $LN14@ast_type_i

; 501  :             PyErr_Format(PyExc_TypeError, "%.400s constructor takes %s"
; 502  :                          "%zd positional argument%s",
; 503  :                          Py_TYPE(self)->tp_name,
; 504  :                          numfields == 0 ? "" : "either 0 or ",
; 505  :                          numfields, numfields == 1 ? "" : "s");

  000bd	48 83 7c 24 58
	01		 cmp	 QWORD PTR numfields$[rsp], 1
  000c3	75 0e		 jne	 SHORT $LN21@ast_type_i
  000c5	48 8d 05 00 00
	00 00		 lea	 rax, OFFSET FLAT:??_C@_00CNPNBAHC@?$AA@
  000cc	48 89 44 24 68	 mov	 QWORD PTR tv85[rsp], rax
  000d1	eb 0c		 jmp	 SHORT $LN22@ast_type_i
$LN21@ast_type_i:
  000d3	48 8d 05 00 00
	00 00		 lea	 rax, OFFSET FLAT:??_C@_01LKDEMHDF@s?$AA@
  000da	48 89 44 24 68	 mov	 QWORD PTR tv85[rsp], rax
$LN22@ast_type_i:
  000df	48 83 7c 24 58
	00		 cmp	 QWORD PTR numfields$[rsp], 0
  000e5	75 0e		 jne	 SHORT $LN23@ast_type_i
  000e7	48 8d 05 00 00
	00 00		 lea	 rax, OFFSET FLAT:??_C@_00CNPNBAHC@?$AA@
  000ee	48 89 44 24 70	 mov	 QWORD PTR tv89[rsp], rax
  000f3	eb 0c		 jmp	 SHORT $LN24@ast_type_i
$LN23@ast_type_i:
  000f5	48 8d 05 00 00
	00 00		 lea	 rax, OFFSET FLAT:??_C@_0N@IJFENPKG@either?50?5or?5?$AA@
  000fc	48 89 44 24 70	 mov	 QWORD PTR tv89[rsp], rax
$LN24@ast_type_i:
  00101	48 8b 84 24 90
	00 00 00	 mov	 rax, QWORD PTR self$[rsp]
  00109	48 8b 40 58	 mov	 rax, QWORD PTR [rax+88]
  0010d	48 8b 4c 24 68	 mov	 rcx, QWORD PTR tv85[rsp]
  00112	48 89 4c 24 28	 mov	 QWORD PTR [rsp+40], rcx
  00117	48 8b 4c 24 58	 mov	 rcx, QWORD PTR numfields$[rsp]
  0011c	48 89 4c 24 20	 mov	 QWORD PTR [rsp+32], rcx
  00121	4c 8b 4c 24 70	 mov	 r9, QWORD PTR tv89[rsp]
  00126	4c 8b 40 70	 mov	 r8, QWORD PTR [rax+112]
  0012a	48 8d 15 00 00
	00 00		 lea	 rdx, OFFSET FLAT:??_C@_0DF@BNALLACH@?$CF?4400s?5constructor?5takes?5?$CFs?$CFzd?5p@
  00131	48 8b 0d 00 00
	00 00		 mov	 rcx, QWORD PTR PyExc_TypeError
  00138	e8 00 00 00 00	 call	 PyErr_Format

; 506  :             res = -1;

  0013d	c7 44 24 38 ff
	ff ff ff	 mov	 DWORD PTR res$[rsp], -1

; 507  :             goto cleanup;

  00145	e9 ee 00 00 00	 jmp	 $cleanup$21810
$LN14@ast_type_i:

; 508  :         }
; 509  :         for (i = 0; i < PyTuple_GET_SIZE(args); i++) {

  0014a	48 c7 44 24 40
	00 00 00 00	 mov	 QWORD PTR i$[rsp], 0
  00153	eb 0d		 jmp	 SHORT $LN13@ast_type_i
$LN12@ast_type_i:
  00155	48 8b 44 24 40	 mov	 rax, QWORD PTR i$[rsp]
  0015a	48 ff c0	 inc	 rax
  0015d	48 89 44 24 40	 mov	 QWORD PTR i$[rsp], rax
$LN13@ast_type_i:
  00162	48 8b 84 24 98
	00 00 00	 mov	 rax, QWORD PTR args$[rsp]
  0016a	48 8b 40 60	 mov	 rax, QWORD PTR [rax+96]
  0016e	48 39 44 24 40	 cmp	 QWORD PTR i$[rsp], rax
  00173	7d 69		 jge	 SHORT $LN11@ast_type_i

; 510  :             /* cannot be reached when fields is NULL */
; 511  :             PyObject *name = PySequence_GetItem(fields, i);

  00175	48 8b 54 24 40	 mov	 rdx, QWORD PTR i$[rsp]
  0017a	48 8b 4c 24 50	 mov	 rcx, QWORD PTR fields$[rsp]
  0017f	e8 00 00 00 00	 call	 PySequence_GetItem
  00184	48 89 44 24 60	 mov	 QWORD PTR name$21823[rsp], rax

; 512  :             if (!name) {

  00189	48 83 7c 24 60
	00		 cmp	 QWORD PTR name$21823[rsp], 0
  0018f	75 0d		 jne	 SHORT $LN10@ast_type_i

; 513  :                 res = -1;

  00191	c7 44 24 38 ff
	ff ff ff	 mov	 DWORD PTR res$[rsp], -1

; 514  :                 goto cleanup;

  00199	e9 9a 00 00 00	 jmp	 $cleanup$21810
$LN10@ast_type_i:

; 515  :             }
; 516  :             res = PyObject_SetAttr(self, name, PyTuple_GET_ITEM(args, i));

  0019e	48 8b 84 24 98
	00 00 00	 mov	 rax, QWORD PTR args$[rsp]
  001a6	48 8b 4c 24 40	 mov	 rcx, QWORD PTR i$[rsp]
  001ab	4c 8b 44 c8 70	 mov	 r8, QWORD PTR [rax+rcx*8+112]
  001b0	48 8b 54 24 60	 mov	 rdx, QWORD PTR name$21823[rsp]
  001b5	48 8b 8c 24 90
	00 00 00	 mov	 rcx, QWORD PTR self$[rsp]
  001bd	e8 00 00 00 00	 call	 PyObject_SetAttr
  001c2	89 44 24 38	 mov	 DWORD PTR res$[rsp], eax

; 517  :             Py_DECREF(name);

  001c6	48 8b 4c 24 60	 mov	 rcx, QWORD PTR name$21823[rsp]
  001cb	e8 00 00 00 00	 call	 _Py_DecRef

; 518  :             if (res < 0)

  001d0	83 7c 24 38 00	 cmp	 DWORD PTR res$[rsp], 0
  001d5	7d 02		 jge	 SHORT $LN9@ast_type_i

; 519  :                 goto cleanup;

  001d7	eb 5f		 jmp	 SHORT $cleanup$21810
$LN9@ast_type_i:

; 520  :         }

  001d9	e9 77 ff ff ff	 jmp	 $LN12@ast_type_i
$LN11@ast_type_i:
$LN15@ast_type_i:

; 521  :     }
; 522  :     if (kw) {

  001de	48 83 bc 24 a0
	00 00 00 00	 cmp	 QWORD PTR kw$[rsp], 0
  001e7	74 4f		 je	 SHORT $LN8@ast_type_i

; 523  :         i = 0;  /* needed by PyDict_Next */

  001e9	48 c7 44 24 40
	00 00 00 00	 mov	 QWORD PTR i$[rsp], 0
$LN7@ast_type_i:

; 524  :         while (PyDict_Next(kw, &i, &key, &value)) {

  001f2	4c 8d 4c 24 30	 lea	 r9, QWORD PTR value$[rsp]
  001f7	4c 8d 44 24 48	 lea	 r8, QWORD PTR key$[rsp]
  001fc	48 8d 54 24 40	 lea	 rdx, QWORD PTR i$[rsp]
  00201	48 8b 8c 24 a0
	00 00 00	 mov	 rcx, QWORD PTR kw$[rsp]
  00209	e8 00 00 00 00	 call	 PyDict_Next
  0020e	85 c0		 test	 eax, eax
  00210	74 26		 je	 SHORT $LN6@ast_type_i

; 525  :             res = PyObject_SetAttr(self, key, value);

  00212	4c 8b 44 24 30	 mov	 r8, QWORD PTR value$[rsp]
  00217	48 8b 54 24 48	 mov	 rdx, QWORD PTR key$[rsp]
  0021c	48 8b 8c 24 90
	00 00 00	 mov	 rcx, QWORD PTR self$[rsp]
  00224	e8 00 00 00 00	 call	 PyObject_SetAttr
  00229	89 44 24 38	 mov	 DWORD PTR res$[rsp], eax

; 526  :             if (res < 0)

  0022d	83 7c 24 38 00	 cmp	 DWORD PTR res$[rsp], 0
  00232	7d 02		 jge	 SHORT $LN5@ast_type_i

; 527  :                 goto cleanup;

  00234	eb 02		 jmp	 SHORT $cleanup$21810
$LN5@ast_type_i:

; 528  :         }

  00236	eb ba		 jmp	 SHORT $LN7@ast_type_i
$LN6@ast_type_i:
$LN8@ast_type_i:
$cleanup$21810:
$LN4@ast_type_i:

; 529  :     }
; 530  :   cleanup:
; 531  :     Py_XDECREF(fields);

  00238	48 83 7c 24 50
	00		 cmp	 QWORD PTR fields$[rsp], 0
  0023e	74 0a		 je	 SHORT $LN1@ast_type_i
  00240	48 8b 4c 24 50	 mov	 rcx, QWORD PTR fields$[rsp]
  00245	e8 00 00 00 00	 call	 _Py_DecRef
$LN1@ast_type_i:
  0024a	33 c0		 xor	 eax, eax
  0024c	85 c0		 test	 eax, eax
  0024e	75 e8		 jne	 SHORT $LN4@ast_type_i

; 532  :     return res;

  00250	8b 44 24 38	 mov	 eax, DWORD PTR res$[rsp]

; 533  : }

  00254	48 81 c4 88 00
	00 00		 add	 rsp, 136		; 00000088H
  0025b	c3		 ret	 0
ast_type_init ENDP
_TEXT	ENDS
PUBLIC	??_C@_03GPNEOADL@O?$CI?$CJ?$AA@			; `string'
PUBLIC	??_C@_04MGIFGOAO@O?$CI?$CJO?$AA@		; `string'
EXTRN	Py_BuildValue:PROC
EXTRN	PyErr_ExceptionMatches:PROC
EXTRN	PyExc_AttributeError:QWORD
;	COMDAT pdata
pdata	SEGMENT
$pdata$ast_type_reduce DD imagerel ast_type_reduce
	DD	imagerel ast_type_reduce+175
	DD	imagerel $unwind$ast_type_reduce
pdata	ENDS
;	COMDAT xdata
xdata	SEGMENT
$unwind$ast_type_reduce DD 010e01H
	DD	0620eH
xdata	ENDS
;	COMDAT ??_C@_03GPNEOADL@O?$CI?$CJ?$AA@
CONST	SEGMENT
??_C@_03GPNEOADL@O?$CI?$CJ?$AA@ DB 'O()', 00H		; `string'
CONST	ENDS
;	COMDAT ??_C@_04MGIFGOAO@O?$CI?$CJO?$AA@
CONST	SEGMENT
??_C@_04MGIFGOAO@O?$CI?$CJO?$AA@ DB 'O()O', 00H		; `string'
; Function compile flags: /Odtp
CONST	ENDS
;	COMDAT ast_type_reduce
_TEXT	SEGMENT
res$ = 32
dict$ = 40
self$ = 64
unused$ = 72
ast_type_reduce PROC					; COMDAT

; 538  : {

  00000	48 89 54 24 10	 mov	 QWORD PTR [rsp+16], rdx
  00005	48 89 4c 24 08	 mov	 QWORD PTR [rsp+8], rcx
  0000a	48 83 ec 38	 sub	 rsp, 56			; 00000038H

; 539  :     PyObject *res;
; 540  :     _Py_IDENTIFIER(__dict__);
; 541  :     PyObject *dict = _PyObject_GetAttrId(self, &PyId___dict__);

  0000e	b8 00 00 00 00	 mov	 eax, OFFSET FLAT:?PyId___dict__@?1??ast_type_reduce@@9@9
  00013	8b c0		 mov	 eax, eax
  00015	8b 0d 00 00 00
	00		 mov	 ecx, DWORD PTR _tls_index
  0001b	65 48 8b 14 25
	58 00 00 00	 mov	 rdx, QWORD PTR gs:88
  00024	48 03 04 ca	 add	 rax, QWORD PTR [rdx+rcx*8]
  00028	48 8b d0	 mov	 rdx, rax
  0002b	48 8b 4c 24 40	 mov	 rcx, QWORD PTR self$[rsp]
  00030	e8 00 00 00 00	 call	 _PyObject_GetAttrId
  00035	48 89 44 24 28	 mov	 QWORD PTR dict$[rsp], rax

; 542  :     if (dict == NULL) {

  0003a	48 83 7c 24 28
	00		 cmp	 QWORD PTR dict$[rsp], 0
  00040	75 1b		 jne	 SHORT $LN4@ast_type_r

; 543  :         if (PyErr_ExceptionMatches(PyExc_AttributeError))

  00042	48 8b 0d 00 00
	00 00		 mov	 rcx, QWORD PTR PyExc_AttributeError
  00049	e8 00 00 00 00	 call	 PyErr_ExceptionMatches
  0004e	85 c0		 test	 eax, eax
  00050	74 07		 je	 SHORT $LN3@ast_type_r

; 544  :             PyErr_Clear();

  00052	e8 00 00 00 00	 call	 PyErr_Clear

; 545  :         else

  00057	eb 04		 jmp	 SHORT $LN2@ast_type_r
$LN3@ast_type_r:

; 546  :             return NULL;

  00059	33 c0		 xor	 eax, eax
  0005b	eb 4d		 jmp	 SHORT $LN5@ast_type_r
$LN2@ast_type_r:
$LN4@ast_type_r:

; 547  :     }
; 548  :     if (dict) {

  0005d	48 83 7c 24 28
	00		 cmp	 QWORD PTR dict$[rsp], 0
  00063	74 30		 je	 SHORT $LN1@ast_type_r

; 549  :         res = Py_BuildValue("O()O", Py_TYPE(self), dict);

  00065	4c 8b 44 24 28	 mov	 r8, QWORD PTR dict$[rsp]
  0006a	48 8b 44 24 40	 mov	 rax, QWORD PTR self$[rsp]
  0006f	48 8b 50 58	 mov	 rdx, QWORD PTR [rax+88]
  00073	48 8d 0d 00 00
	00 00		 lea	 rcx, OFFSET FLAT:??_C@_04MGIFGOAO@O?$CI?$CJO?$AA@
  0007a	e8 00 00 00 00	 call	 Py_BuildValue
  0007f	48 89 44 24 20	 mov	 QWORD PTR res$[rsp], rax

; 550  :         Py_DECREF(dict);

  00084	48 8b 4c 24 28	 mov	 rcx, QWORD PTR dict$[rsp]
  00089	e8 00 00 00 00	 call	 _Py_DecRef

; 551  :         return res;

  0008e	48 8b 44 24 20	 mov	 rax, QWORD PTR res$[rsp]
  00093	eb 15		 jmp	 SHORT $LN5@ast_type_r
$LN1@ast_type_r:

; 552  :     }
; 553  :     return Py_BuildValue("O()", Py_TYPE(self));

  00095	48 8b 44 24 40	 mov	 rax, QWORD PTR self$[rsp]
  0009a	48 8b 50 58	 mov	 rdx, QWORD PTR [rax+88]
  0009e	48 8d 0d 00 00
	00 00		 lea	 rcx, OFFSET FLAT:??_C@_03GPNEOADL@O?$CI?$CJ?$AA@
  000a5	e8 00 00 00 00	 call	 Py_BuildValue
$LN5@ast_type_r:

; 554  : }

  000aa	48 83 c4 38	 add	 rsp, 56			; 00000038H
  000ae	c3		 ret	 0
ast_type_reduce ENDP
_TEXT	ENDS
PUBLIC	_Py_Module
EXTRN	PyArena_Malloc:PROC
;	COMDAT pdata
pdata	SEGMENT
$pdata$_Py_Module DD imagerel $LN4
	DD	imagerel $LN4+81
	DD	imagerel $unwind$_Py_Module
pdata	ENDS
;	COMDAT xdata
xdata	SEGMENT
$unwind$_Py_Module DD 010e01H
	DD	0620eH
; Function compile flags: /Odtp
xdata	ENDS
;	COMDAT _Py_Module
_TEXT	SEGMENT
p$ = 32
body$ = 64
arena$ = 72
_Py_Module PROC						; COMDAT

; 1085 : {

$LN4:
  00000	48 89 54 24 10	 mov	 QWORD PTR [rsp+16], rdx
  00005	48 89 4c 24 08	 mov	 QWORD PTR [rsp+8], rcx
  0000a	48 83 ec 38	 sub	 rsp, 56			; 00000038H

; 1086 :     mod_ty p;
; 1087 :     p = (mod_ty)PyArena_Malloc(arena, sizeof(*p));

  0000e	ba 10 00 00 00	 mov	 edx, 16
  00013	48 8b 4c 24 48	 mov	 rcx, QWORD PTR arena$[rsp]
  00018	e8 00 00 00 00	 call	 PyArena_Malloc
  0001d	48 89 44 24 20	 mov	 QWORD PTR p$[rsp], rax

; 1088 :     if (!p)

  00022	48 83 7c 24 20
	00		 cmp	 QWORD PTR p$[rsp], 0
  00028	75 04		 jne	 SHORT $LN1@Py_Module

; 1089 :         return NULL;

  0002a	33 c0		 xor	 eax, eax
  0002c	eb 1e		 jmp	 SHORT $LN2@Py_Module
$LN1@Py_Module:

; 1090 :     p->kind = Module_kind;

  0002e	48 8b 44 24 20	 mov	 rax, QWORD PTR p$[rsp]
  00033	c7 00 01 00 00
	00		 mov	 DWORD PTR [rax], 1

; 1091 :     p->v.Module.body = body;

  00039	48 8b 44 24 20	 mov	 rax, QWORD PTR p$[rsp]
  0003e	48 8b 4c 24 40	 mov	 rcx, QWORD PTR body$[rsp]
  00043	48 89 48 08	 mov	 QWORD PTR [rax+8], rcx

; 1092 :     return p;

  00047	48 8b 44 24 20	 mov	 rax, QWORD PTR p$[rsp]
$LN2@Py_Module:

; 1093 : }

  0004c	48 83 c4 38	 add	 rsp, 56			; 00000038H
  00050	c3		 ret	 0
_Py_Module ENDP
_TEXT	ENDS
PUBLIC	_Py_Interactive
;	COMDAT pdata
pdata	SEGMENT
$pdata$_Py_Interactive DD imagerel $LN4
	DD	imagerel $LN4+81
	DD	imagerel $unwind$_Py_Interactive
pdata	ENDS
;	COMDAT xdata
xdata	SEGMENT
$unwind$_Py_Interactive DD 010e01H
	DD	0620eH
; Function compile flags: /Odtp
xdata	ENDS
;	COMDAT _Py_Interactive
_TEXT	SEGMENT
p$ = 32
body$ = 64
arena$ = 72
_Py_Interactive PROC					; COMDAT

; 1097 : {

$LN4:
  00000	48 89 54 24 10	 mov	 QWORD PTR [rsp+16], rdx
  00005	48 89 4c 24 08	 mov	 QWORD PTR [rsp+8], rcx
  0000a	48 83 ec 38	 sub	 rsp, 56			; 00000038H

; 1098 :     mod_ty p;
; 1099 :     p = (mod_ty)PyArena_Malloc(arena, sizeof(*p));

  0000e	ba 10 00 00 00	 mov	 edx, 16
  00013	48 8b 4c 24 48	 mov	 rcx, QWORD PTR arena$[rsp]
  00018	e8 00 00 00 00	 call	 PyArena_Malloc
  0001d	48 89 44 24 20	 mov	 QWORD PTR p$[rsp], rax

; 1100 :     if (!p)

  00022	48 83 7c 24 20
	00		 cmp	 QWORD PTR p$[rsp], 0
  00028	75 04		 jne	 SHORT $LN1@Py_Interac

; 1101 :         return NULL;

  0002a	33 c0		 xor	 eax, eax
  0002c	eb 1e		 jmp	 SHORT $LN2@Py_Interac
$LN1@Py_Interac:

; 1102 :     p->kind = Interactive_kind;

  0002e	48 8b 44 24 20	 mov	 rax, QWORD PTR p$[rsp]
  00033	c7 00 02 00 00
	00		 mov	 DWORD PTR [rax], 2

; 1103 :     p->v.Interactive.body = body;

  00039	48 8b 44 24 20	 mov	 rax, QWORD PTR p$[rsp]
  0003e	48 8b 4c 24 40	 mov	 rcx, QWORD PTR body$[rsp]
  00043	48 89 48 08	 mov	 QWORD PTR [rax+8], rcx

; 1104 :     return p;

  00047	48 8b 44 24 20	 mov	 rax, QWORD PTR p$[rsp]
$LN2@Py_Interac:

; 1105 : }

  0004c	48 83 c4 38	 add	 rsp, 56			; 00000038H
  00050	c3		 ret	 0
_Py_Interactive ENDP
_TEXT	ENDS
PUBLIC	??_C@_0CG@FKJOGGI@field?5body?5is?5required?5for?5Expre@ ; `string'
PUBLIC	_Py_Expression
EXTRN	PyErr_SetString:PROC
EXTRN	PyExc_ValueError:QWORD
;	COMDAT pdata
pdata	SEGMENT
$pdata$_Py_Expression DD imagerel $LN5
	DD	imagerel $LN5+112
	DD	imagerel $unwind$_Py_Expression
pdata	ENDS
;	COMDAT xdata
xdata	SEGMENT
$unwind$_Py_Expression DD 010e01H
	DD	0620eH
xdata	ENDS
;	COMDAT ??_C@_0CG@FKJOGGI@field?5body?5is?5required?5for?5Expre@
CONST	SEGMENT
??_C@_0CG@FKJOGGI@field?5body?5is?5required?5for?5Expre@ DB 'field body i'
	DB	's required for Expression', 00H		; `string'
; Function compile flags: /Odtp
CONST	ENDS
;	COMDAT _Py_Expression
_TEXT	SEGMENT
p$ = 32
body$ = 64
arena$ = 72
_Py_Expression PROC					; COMDAT

; 1109 : {

$LN5:
  00000	48 89 54 24 10	 mov	 QWORD PTR [rsp+16], rdx
  00005	48 89 4c 24 08	 mov	 QWORD PTR [rsp+8], rcx
  0000a	48 83 ec 38	 sub	 rsp, 56			; 00000038H

; 1110 :     mod_ty p;
; 1111 :     if (!body) {

  0000e	48 83 7c 24 40
	00		 cmp	 QWORD PTR body$[rsp], 0
  00014	75 17		 jne	 SHORT $LN2@Py_Express

; 1112 :         PyErr_SetString(PyExc_ValueError,
; 1113 :                         "field body is required for Expression");

  00016	48 8d 15 00 00
	00 00		 lea	 rdx, OFFSET FLAT:??_C@_0CG@FKJOGGI@field?5body?5is?5required?5for?5Expre@
  0001d	48 8b 0d 00 00
	00 00		 mov	 rcx, QWORD PTR PyExc_ValueError
  00024	e8 00 00 00 00	 call	 PyErr_SetString

; 1114 :         return NULL;

  00029	33 c0		 xor	 eax, eax
  0002b	eb 3e		 jmp	 SHORT $LN3@Py_Express
$LN2@Py_Express:

; 1115 :     }
; 1116 :     p = (mod_ty)PyArena_Malloc(arena, sizeof(*p));

  0002d	ba 10 00 00 00	 mov	 edx, 16
  00032	48 8b 4c 24 48	 mov	 rcx, QWORD PTR arena$[rsp]
  00037	e8 00 00 00 00	 call	 PyArena_Malloc
  0003c	48 89 44 24 20	 mov	 QWORD PTR p$[rsp], rax

; 1117 :     if (!p)

  00041	48 83 7c 24 20
	00		 cmp	 QWORD PTR p$[rsp], 0
  00047	75 04		 jne	 SHORT $LN1@Py_Express

; 1118 :         return NULL;

  00049	33 c0		 xor	 eax, eax
  0004b	eb 1e		 jmp	 SHORT $LN3@Py_Express
$LN1@Py_Express:

; 1119 :     p->kind = Expression_kind;

  0004d	48 8b 44 24 20	 mov	 rax, QWORD PTR p$[rsp]
  00052	c7 00 03 00 00
	00		 mov	 DWORD PTR [rax], 3

; 1120 :     p->v.Expression.body = body;

  00058	48 8b 44 24 20	 mov	 rax, QWORD PTR p$[rsp]
  0005d	48 8b 4c 24 40	 mov	 rcx, QWORD PTR body$[rsp]
  00062	48 89 48 08	 mov	 QWORD PTR [rax+8], rcx

; 1121 :     return p;

  00066	48 8b 44 24 20	 mov	 rax, QWORD PTR p$[rsp]
$LN3@Py_Express:

; 1122 : }

  0006b	48 83 c4 38	 add	 rsp, 56			; 00000038H
  0006f	c3		 ret	 0
_Py_Expression ENDP
_TEXT	ENDS
PUBLIC	_Py_Suite
;	COMDAT pdata
pdata	SEGMENT
$pdata$_Py_Suite DD imagerel $LN4
	DD	imagerel $LN4+81
	DD	imagerel $unwind$_Py_Suite
pdata	ENDS
;	COMDAT xdata
xdata	SEGMENT
$unwind$_Py_Suite DD 010e01H
	DD	0620eH
; Function compile flags: /Odtp
xdata	ENDS
;	COMDAT _Py_Suite
_TEXT	SEGMENT
p$ = 32
body$ = 64
arena$ = 72
_Py_Suite PROC						; COMDAT

; 1126 : {

$LN4:
  00000	48 89 54 24 10	 mov	 QWORD PTR [rsp+16], rdx
  00005	48 89 4c 24 08	 mov	 QWORD PTR [rsp+8], rcx
  0000a	48 83 ec 38	 sub	 rsp, 56			; 00000038H

; 1127 :     mod_ty p;
; 1128 :     p = (mod_ty)PyArena_Malloc(arena, sizeof(*p));

  0000e	ba 10 00 00 00	 mov	 edx, 16
  00013	48 8b 4c 24 48	 mov	 rcx, QWORD PTR arena$[rsp]
  00018	e8 00 00 00 00	 call	 PyArena_Malloc
  0001d	48 89 44 24 20	 mov	 QWORD PTR p$[rsp], rax

; 1129 :     if (!p)

  00022	48 83 7c 24 20
	00		 cmp	 QWORD PTR p$[rsp], 0
  00028	75 04		 jne	 SHORT $LN1@Py_Suite

; 1130 :         return NULL;

  0002a	33 c0		 xor	 eax, eax
  0002c	eb 1e		 jmp	 SHORT $LN2@Py_Suite
$LN1@Py_Suite:

; 1131 :     p->kind = Suite_kind;

  0002e	48 8b 44 24 20	 mov	 rax, QWORD PTR p$[rsp]
  00033	c7 00 04 00 00
	00		 mov	 DWORD PTR [rax], 4

; 1132 :     p->v.Suite.body = body;

  00039	48 8b 44 24 20	 mov	 rax, QWORD PTR p$[rsp]
  0003e	48 8b 4c 24 40	 mov	 rcx, QWORD PTR body$[rsp]
  00043	48 89 48 08	 mov	 QWORD PTR [rax+8], rcx

; 1133 :     return p;

  00047	48 8b 44 24 20	 mov	 rax, QWORD PTR p$[rsp]
$LN2@Py_Suite:

; 1134 : }

  0004c	48 83 c4 38	 add	 rsp, 56			; 00000038H
  00050	c3		 ret	 0
_Py_Suite ENDP
_TEXT	ENDS
PUBLIC	??_C@_0CH@PGGFMKGC@field?5args?5is?5required?5for?5Funct@ ; `string'
PUBLIC	??_C@_0CH@FNEFDOCM@field?5name?5is?5required?5for?5Funct@ ; `string'
PUBLIC	_Py_FunctionDef
;	COMDAT pdata
pdata	SEGMENT
$pdata$_Py_FunctionDef DD imagerel $LN6
	DD	imagerel $LN6+239
	DD	imagerel $unwind$_Py_FunctionDef
pdata	ENDS
;	COMDAT xdata
xdata	SEGMENT
$unwind$_Py_FunctionDef DD 011801H
	DD	06218H
xdata	ENDS
;	COMDAT ??_C@_0CH@PGGFMKGC@field?5args?5is?5required?5for?5Funct@
CONST	SEGMENT
??_C@_0CH@PGGFMKGC@field?5args?5is?5required?5for?5Funct@ DB 'field args '
	DB	'is required for FunctionDef', 00H		; `string'
CONST	ENDS
;	COMDAT ??_C@_0CH@FNEFDOCM@field?5name?5is?5required?5for?5Funct@
CONST	SEGMENT
??_C@_0CH@FNEFDOCM@field?5name?5is?5required?5for?5Funct@ DB 'field name '
	DB	'is required for FunctionDef', 00H		; `string'
; Function compile flags: /Odtp
CONST	ENDS
;	COMDAT _Py_FunctionDef
_TEXT	SEGMENT
p$ = 32
name$ = 64
args$ = 72
body$ = 80
decorator_list$ = 88
returns$ = 96
lineno$ = 104
col_offset$ = 112
arena$ = 120
_Py_FunctionDef PROC					; COMDAT

; 1140 : {

$LN6:
  00000	4c 89 4c 24 20	 mov	 QWORD PTR [rsp+32], r9
  00005	4c 89 44 24 18	 mov	 QWORD PTR [rsp+24], r8
  0000a	48 89 54 24 10	 mov	 QWORD PTR [rsp+16], rdx
  0000f	48 89 4c 24 08	 mov	 QWORD PTR [rsp+8], rcx
  00014	48 83 ec 38	 sub	 rsp, 56			; 00000038H

; 1141 :     stmt_ty p;
; 1142 :     if (!name) {

  00018	48 83 7c 24 40
	00		 cmp	 QWORD PTR name$[rsp], 0
  0001e	75 1a		 jne	 SHORT $LN3@Py_Functio

; 1143 :         PyErr_SetString(PyExc_ValueError,
; 1144 :                         "field name is required for FunctionDef");

  00020	48 8d 15 00 00
	00 00		 lea	 rdx, OFFSET FLAT:??_C@_0CH@FNEFDOCM@field?5name?5is?5required?5for?5Funct@
  00027	48 8b 0d 00 00
	00 00		 mov	 rcx, QWORD PTR PyExc_ValueError
  0002e	e8 00 00 00 00	 call	 PyErr_SetString

; 1145 :         return NULL;

  00033	33 c0		 xor	 eax, eax
  00035	e9 b0 00 00 00	 jmp	 $LN4@Py_Functio
$LN3@Py_Functio:

; 1146 :     }
; 1147 :     if (!args) {

  0003a	48 83 7c 24 48
	00		 cmp	 QWORD PTR args$[rsp], 0
  00040	75 1a		 jne	 SHORT $LN2@Py_Functio

; 1148 :         PyErr_SetString(PyExc_ValueError,
; 1149 :                         "field args is required for FunctionDef");

  00042	48 8d 15 00 00
	00 00		 lea	 rdx, OFFSET FLAT:??_C@_0CH@PGGFMKGC@field?5args?5is?5required?5for?5Funct@
  00049	48 8b 0d 00 00
	00 00		 mov	 rcx, QWORD PTR PyExc_ValueError
  00050	e8 00 00 00 00	 call	 PyErr_SetString

; 1150 :         return NULL;

  00055	33 c0		 xor	 eax, eax
  00057	e9 8e 00 00 00	 jmp	 $LN4@Py_Functio
$LN2@Py_Functio:

; 1151 :     }
; 1152 :     p = (stmt_ty)PyArena_Malloc(arena, sizeof(*p));

  0005c	ba 48 00 00 00	 mov	 edx, 72			; 00000048H
  00061	48 8b 4c 24 78	 mov	 rcx, QWORD PTR arena$[rsp]
  00066	e8 00 00 00 00	 call	 PyArena_Malloc
  0006b	48 89 44 24 20	 mov	 QWORD PTR p$[rsp], rax

; 1153 :     if (!p)

  00070	48 83 7c 24 20
	00		 cmp	 QWORD PTR p$[rsp], 0
  00076	75 04		 jne	 SHORT $LN1@Py_Functio

; 1154 :         return NULL;

  00078	33 c0		 xor	 eax, eax
  0007a	eb 6e		 jmp	 SHORT $LN4@Py_Functio
$LN1@Py_Functio:

; 1155 :     p->kind = FunctionDef_kind;

  0007c	48 8b 44 24 20	 mov	 rax, QWORD PTR p$[rsp]
  00081	c7 00 01 00 00
	00		 mov	 DWORD PTR [rax], 1

; 1156 :     p->v.FunctionDef.name = name;

  00087	48 8b 44 24 20	 mov	 rax, QWORD PTR p$[rsp]
  0008c	48 8b 4c 24 40	 mov	 rcx, QWORD PTR name$[rsp]
  00091	48 89 48 08	 mov	 QWORD PTR [rax+8], rcx

; 1157 :     p->v.FunctionDef.args = args;

  00095	48 8b 44 24 20	 mov	 rax, QWORD PTR p$[rsp]
  0009a	48 8b 4c 24 48	 mov	 rcx, QWORD PTR args$[rsp]
  0009f	48 89 48 10	 mov	 QWORD PTR [rax+16], rcx

; 1158 :     p->v.FunctionDef.body = body;

  000a3	48 8b 44 24 20	 mov	 rax, QWORD PTR p$[rsp]
  000a8	48 8b 4c 24 50	 mov	 rcx, QWORD PTR body$[rsp]
  000ad	48 89 48 18	 mov	 QWORD PTR [rax+24], rcx

; 1159 :     p->v.FunctionDef.decorator_list = decorator_list;

  000b1	48 8b 44 24 20	 mov	 rax, QWORD PTR p$[rsp]
  000b6	48 8b 4c 24 58	 mov	 rcx, QWORD PTR decorator_list$[rsp]
  000bb	48 89 48 20	 mov	 QWORD PTR [rax+32], rcx

; 1160 :     p->v.FunctionDef.returns = returns;

  000bf	48 8b 44 24 20	 mov	 rax, QWORD PTR p$[rsp]
  000c4	48 8b 4c 24 60	 mov	 rcx, QWORD PTR returns$[rsp]
  000c9	48 89 48 28	 mov	 QWORD PTR [rax+40], rcx

; 1161 :     p->lineno = lineno;

  000cd	48 8b 44 24 20	 mov	 rax, QWORD PTR p$[rsp]
  000d2	8b 4c 24 68	 mov	 ecx, DWORD PTR lineno$[rsp]
  000d6	89 48 40	 mov	 DWORD PTR [rax+64], ecx

; 1162 :     p->col_offset = col_offset;

  000d9	48 8b 44 24 20	 mov	 rax, QWORD PTR p$[rsp]
  000de	8b 4c 24 70	 mov	 ecx, DWORD PTR col_offset$[rsp]
  000e2	89 48 44	 mov	 DWORD PTR [rax+68], ecx

; 1163 :     return p;

  000e5	48 8b 44 24 20	 mov	 rax, QWORD PTR p$[rsp]
$LN4@Py_Functio:

; 1164 : }

  000ea	48 83 c4 38	 add	 rsp, 56			; 00000038H
  000ee	c3		 ret	 0
_Py_FunctionDef ENDP
_TEXT	ENDS
PUBLIC	??_C@_0CE@ELEMAPIN@field?5name?5is?5required?5for?5Class@ ; `string'
PUBLIC	_Py_ClassDef
;	COMDAT pdata
pdata	SEGMENT
$pdata$_Py_ClassDef DD imagerel $LN5
	DD	imagerel $LN5+242
	DD	imagerel $unwind$_Py_ClassDef
pdata	ENDS
;	COMDAT xdata
xdata	SEGMENT
$unwind$_Py_ClassDef DD 011801H
	DD	06218H
xdata	ENDS
;	COMDAT ??_C@_0CE@ELEMAPIN@field?5name?5is?5required?5for?5Class@
CONST	SEGMENT
??_C@_0CE@ELEMAPIN@field?5name?5is?5required?5for?5Class@ DB 'field name '
	DB	'is required for ClassDef', 00H		; `string'
; Function compile flags: /Odtp
CONST	ENDS
;	COMDAT _Py_ClassDef
_TEXT	SEGMENT
p$ = 32
name$ = 64
bases$ = 72
keywords$ = 80
starargs$ = 88
kwargs$ = 96
body$ = 104
decorator_list$ = 112
lineno$ = 120
col_offset$ = 128
arena$ = 136
_Py_ClassDef PROC					; COMDAT

; 1170 : {

$LN5:
  00000	4c 89 4c 24 20	 mov	 QWORD PTR [rsp+32], r9
  00005	4c 89 44 24 18	 mov	 QWORD PTR [rsp+24], r8
  0000a	48 89 54 24 10	 mov	 QWORD PTR [rsp+16], rdx
  0000f	48 89 4c 24 08	 mov	 QWORD PTR [rsp+8], rcx
  00014	48 83 ec 38	 sub	 rsp, 56			; 00000038H

; 1171 :     stmt_ty p;
; 1172 :     if (!name) {

  00018	48 83 7c 24 40
	00		 cmp	 QWORD PTR name$[rsp], 0
  0001e	75 1a		 jne	 SHORT $LN2@Py_ClassDe

; 1173 :         PyErr_SetString(PyExc_ValueError,
; 1174 :                         "field name is required for ClassDef");

  00020	48 8d 15 00 00
	00 00		 lea	 rdx, OFFSET FLAT:??_C@_0CE@ELEMAPIN@field?5name?5is?5required?5for?5Class@
  00027	48 8b 0d 00 00
	00 00		 mov	 rcx, QWORD PTR PyExc_ValueError
  0002e	e8 00 00 00 00	 call	 PyErr_SetString

; 1175 :         return NULL;

  00033	33 c0		 xor	 eax, eax
  00035	e9 b3 00 00 00	 jmp	 $LN3@Py_ClassDe
$LN2@Py_ClassDe:

; 1176 :     }
; 1177 :     p = (stmt_ty)PyArena_Malloc(arena, sizeof(*p));

  0003a	ba 48 00 00 00	 mov	 edx, 72			; 00000048H
  0003f	48 8b 8c 24 88
	00 00 00	 mov	 rcx, QWORD PTR arena$[rsp]
  00047	e8 00 00 00 00	 call	 PyArena_Malloc
  0004c	48 89 44 24 20	 mov	 QWORD PTR p$[rsp], rax

; 1178 :     if (!p)

  00051	48 83 7c 24 20
	00		 cmp	 QWORD PTR p$[rsp], 0
  00057	75 07		 jne	 SHORT $LN1@Py_ClassDe

; 1179 :         return NULL;

  00059	33 c0		 xor	 eax, eax
  0005b	e9 8d 00 00 00	 jmp	 $LN3@Py_ClassDe
$LN1@Py_ClassDe:

; 1180 :     p->kind = ClassDef_kind;

  00060	48 8b 44 24 20	 mov	 rax, QWORD PTR p$[rsp]
  00065	c7 00 02 00 00
	00		 mov	 DWORD PTR [rax], 2

; 1181 :     p->v.ClassDef.name = name;

  0006b	48 8b 44 24 20	 mov	 rax, QWORD PTR p$[rsp]
  00070	48 8b 4c 24 40	 mov	 rcx, QWORD PTR name$[rsp]
  00075	48 89 48 08	 mov	 QWORD PTR [rax+8], rcx

; 1182 :     p->v.ClassDef.bases = bases;

  00079	48 8b 44 24 20	 mov	 rax, QWORD PTR p$[rsp]
  0007e	48 8b 4c 24 48	 mov	 rcx, QWORD PTR bases$[rsp]
  00083	48 89 48 10	 mov	 QWORD PTR [rax+16], rcx

; 1183 :     p->v.ClassDef.keywords = keywords;

  00087	48 8b 44 24 20	 mov	 rax, QWORD PTR p$[rsp]
  0008c	48 8b 4c 24 50	 mov	 rcx, QWORD PTR keywords$[rsp]
  00091	48 89 48 18	 mov	 QWORD PTR [rax+24], rcx

; 1184 :     p->v.ClassDef.starargs = starargs;

  00095	48 8b 44 24 20	 mov	 rax, QWORD PTR p$[rsp]
  0009a	48 8b 4c 24 58	 mov	 rcx, QWORD PTR starargs$[rsp]
  0009f	48 89 48 20	 mov	 QWORD PTR [rax+32], rcx

; 1185 :     p->v.ClassDef.kwargs = kwargs;

  000a3	48 8b 44 24 20	 mov	 rax, QWORD PTR p$[rsp]
  000a8	48 8b 4c 24 60	 mov	 rcx, QWORD PTR kwargs$[rsp]
  000ad	48 89 48 28	 mov	 QWORD PTR [rax+40], rcx

; 1186 :     p->v.ClassDef.body = body;

  000b1	48 8b 44 24 20	 mov	 rax, QWORD PTR p$[rsp]
  000b6	48 8b 4c 24 68	 mov	 rcx, QWORD PTR body$[rsp]
  000bb	48 89 48 30	 mov	 QWORD PTR [rax+48], rcx

; 1187 :     p->v.ClassDef.decorator_list = decorator_list;

  000bf	48 8b 44 24 20	 mov	 rax, QWORD PTR p$[rsp]
  000c4	48 8b 4c 24 70	 mov	 rcx, QWORD PTR decorator_list$[rsp]
  000c9	48 89 48 38	 mov	 QWORD PTR [rax+56], rcx

; 1188 :     p->lineno = lineno;

  000cd	48 8b 44 24 20	 mov	 rax, QWORD PTR p$[rsp]
  000d2	8b 4c 24 78	 mov	 ecx, DWORD PTR lineno$[rsp]
  000d6	89 48 40	 mov	 DWORD PTR [rax+64], ecx

; 1189 :     p->col_offset = col_offset;

  000d9	48 8b 44 24 20	 mov	 rax, QWORD PTR p$[rsp]
  000de	8b 8c 24 80 00
	00 00		 mov	 ecx, DWORD PTR col_offset$[rsp]
  000e5	89 48 44	 mov	 DWORD PTR [rax+68], ecx

; 1190 :     return p;

  000e8	48 8b 44 24 20	 mov	 rax, QWORD PTR p$[rsp]
$LN3@Py_ClassDe:

; 1191 : }

  000ed	48 83 c4 38	 add	 rsp, 56			; 00000038H
  000f1	c3		 ret	 0
_Py_ClassDef ENDP
_TEXT	ENDS
PUBLIC	_Py_Return
;	COMDAT pdata
pdata	SEGMENT
$pdata$_Py_Return DD imagerel $LN4
	DD	imagerel $LN4+114
	DD	imagerel $unwind$_Py_Return
pdata	ENDS
;	COMDAT xdata
xdata	SEGMENT
$unwind$_Py_Return DD 011701H
	DD	06217H
; Function compile flags: /Odtp
xdata	ENDS
;	COMDAT _Py_Return
_TEXT	SEGMENT
p$ = 32
value$ = 64
lineno$ = 72
col_offset$ = 80
arena$ = 88
_Py_Return PROC						; COMDAT

; 1195 : {

$LN4:
  00000	4c 89 4c 24 20	 mov	 QWORD PTR [rsp+32], r9
  00005	44 89 44 24 18	 mov	 DWORD PTR [rsp+24], r8d
  0000a	89 54 24 10	 mov	 DWORD PTR [rsp+16], edx
  0000e	48 89 4c 24 08	 mov	 QWORD PTR [rsp+8], rcx
  00013	48 83 ec 38	 sub	 rsp, 56			; 00000038H

; 1196 :     stmt_ty p;
; 1197 :     p = (stmt_ty)PyArena_Malloc(arena, sizeof(*p));

  00017	ba 48 00 00 00	 mov	 edx, 72			; 00000048H
  0001c	48 8b 4c 24 58	 mov	 rcx, QWORD PTR arena$[rsp]
  00021	e8 00 00 00 00	 call	 PyArena_Malloc
  00026	48 89 44 24 20	 mov	 QWORD PTR p$[rsp], rax

; 1198 :     if (!p)

  0002b	48 83 7c 24 20
	00		 cmp	 QWORD PTR p$[rsp], 0
  00031	75 04		 jne	 SHORT $LN1@Py_Return

; 1199 :         return NULL;

  00033	33 c0		 xor	 eax, eax
  00035	eb 36		 jmp	 SHORT $LN2@Py_Return
$LN1@Py_Return:

; 1200 :     p->kind = Return_kind;

  00037	48 8b 44 24 20	 mov	 rax, QWORD PTR p$[rsp]
  0003c	c7 00 03 00 00
	00		 mov	 DWORD PTR [rax], 3

; 1201 :     p->v.Return.value = value;

  00042	48 8b 44 24 20	 mov	 rax, QWORD PTR p$[rsp]
  00047	48 8b 4c 24 40	 mov	 rcx, QWORD PTR value$[rsp]
  0004c	48 89 48 08	 mov	 QWORD PTR [rax+8], rcx

; 1202 :     p->lineno = lineno;

  00050	48 8b 44 24 20	 mov	 rax, QWORD PTR p$[rsp]
  00055	8b 4c 24 48	 mov	 ecx, DWORD PTR lineno$[rsp]
  00059	89 48 40	 mov	 DWORD PTR [rax+64], ecx

; 1203 :     p->col_offset = col_offset;

  0005c	48 8b 44 24 20	 mov	 rax, QWORD PTR p$[rsp]
  00061	8b 4c 24 50	 mov	 ecx, DWORD PTR col_offset$[rsp]
  00065	89 48 44	 mov	 DWORD PTR [rax+68], ecx

; 1204 :     return p;

  00068	48 8b 44 24 20	 mov	 rax, QWORD PTR p$[rsp]
$LN2@Py_Return:

; 1205 : }

  0006d	48 83 c4 38	 add	 rsp, 56			; 00000038H
  00071	c3		 ret	 0
_Py_Return ENDP
_TEXT	ENDS
PUBLIC	_Py_Delete
;	COMDAT pdata
pdata	SEGMENT
$pdata$_Py_Delete DD imagerel $LN4
	DD	imagerel $LN4+114
	DD	imagerel $unwind$_Py_Delete
pdata	ENDS
;	COMDAT xdata
xdata	SEGMENT
$unwind$_Py_Delete DD 011701H
	DD	06217H
; Function compile flags: /Odtp
xdata	ENDS
;	COMDAT _Py_Delete
_TEXT	SEGMENT
p$ = 32
targets$ = 64
lineno$ = 72
col_offset$ = 80
arena$ = 88
_Py_Delete PROC						; COMDAT

; 1209 : {

$LN4:
  00000	4c 89 4c 24 20	 mov	 QWORD PTR [rsp+32], r9
  00005	44 89 44 24 18	 mov	 DWORD PTR [rsp+24], r8d
  0000a	89 54 24 10	 mov	 DWORD PTR [rsp+16], edx
  0000e	48 89 4c 24 08	 mov	 QWORD PTR [rsp+8], rcx
  00013	48 83 ec 38	 sub	 rsp, 56			; 00000038H

; 1210 :     stmt_ty p;
; 1211 :     p = (stmt_ty)PyArena_Malloc(arena, sizeof(*p));

  00017	ba 48 00 00 00	 mov	 edx, 72			; 00000048H
  0001c	48 8b 4c 24 58	 mov	 rcx, QWORD PTR arena$[rsp]
  00021	e8 00 00 00 00	 call	 PyArena_Malloc
  00026	48 89 44 24 20	 mov	 QWORD PTR p$[rsp], rax

; 1212 :     if (!p)

  0002b	48 83 7c 24 20
	00		 cmp	 QWORD PTR p$[rsp], 0
  00031	75 04		 jne	 SHORT $LN1@Py_Delete

; 1213 :         return NULL;

  00033	33 c0		 xor	 eax, eax
  00035	eb 36		 jmp	 SHORT $LN2@Py_Delete
$LN1@Py_Delete:

; 1214 :     p->kind = Delete_kind;

  00037	48 8b 44 24 20	 mov	 rax, QWORD PTR p$[rsp]
  0003c	c7 00 04 00 00
	00		 mov	 DWORD PTR [rax], 4

; 1215 :     p->v.Delete.targets = targets;

  00042	48 8b 44 24 20	 mov	 rax, QWORD PTR p$[rsp]
  00047	48 8b 4c 24 40	 mov	 rcx, QWORD PTR targets$[rsp]
  0004c	48 89 48 08	 mov	 QWORD PTR [rax+8], rcx

; 1216 :     p->lineno = lineno;

  00050	48 8b 44 24 20	 mov	 rax, QWORD PTR p$[rsp]
  00055	8b 4c 24 48	 mov	 ecx, DWORD PTR lineno$[rsp]
  00059	89 48 40	 mov	 DWORD PTR [rax+64], ecx

; 1217 :     p->col_offset = col_offset;

  0005c	48 8b 44 24 20	 mov	 rax, QWORD PTR p$[rsp]
  00061	8b 4c 24 50	 mov	 ecx, DWORD PTR col_offset$[rsp]
  00065	89 48 44	 mov	 DWORD PTR [rax+68], ecx

; 1218 :     return p;

  00068	48 8b 44 24 20	 mov	 rax, QWORD PTR p$[rsp]
$LN2@Py_Delete:

; 1219 : }

  0006d	48 83 c4 38	 add	 rsp, 56			; 00000038H
  00071	c3		 ret	 0
_Py_Delete ENDP
_TEXT	ENDS
PUBLIC	??_C@_0CD@PODDGPLK@field?5value?5is?5required?5for?5Assi@ ; `string'
PUBLIC	_Py_Assign
;	COMDAT pdata
pdata	SEGMENT
$pdata$_Py_Assign DD imagerel $LN5
	DD	imagerel $LN5+160
	DD	imagerel $unwind$_Py_Assign
pdata	ENDS
;	COMDAT xdata
xdata	SEGMENT
$unwind$_Py_Assign DD 011801H
	DD	06218H
xdata	ENDS
;	COMDAT ??_C@_0CD@PODDGPLK@field?5value?5is?5required?5for?5Assi@
CONST	SEGMENT
??_C@_0CD@PODDGPLK@field?5value?5is?5required?5for?5Assi@ DB 'field value'
	DB	' is required for Assign', 00H		; `string'
; Function compile flags: /Odtp
CONST	ENDS
;	COMDAT _Py_Assign
_TEXT	SEGMENT
p$ = 32
targets$ = 64
value$ = 72
lineno$ = 80
col_offset$ = 88
arena$ = 96
_Py_Assign PROC						; COMDAT

; 1224 : {

$LN5:
  00000	44 89 4c 24 20	 mov	 DWORD PTR [rsp+32], r9d
  00005	44 89 44 24 18	 mov	 DWORD PTR [rsp+24], r8d
  0000a	48 89 54 24 10	 mov	 QWORD PTR [rsp+16], rdx
  0000f	48 89 4c 24 08	 mov	 QWORD PTR [rsp+8], rcx
  00014	48 83 ec 38	 sub	 rsp, 56			; 00000038H

; 1225 :     stmt_ty p;
; 1226 :     if (!value) {

  00018	48 83 7c 24 48
	00		 cmp	 QWORD PTR value$[rsp], 0
  0001e	75 17		 jne	 SHORT $LN2@Py_Assign

; 1227 :         PyErr_SetString(PyExc_ValueError,
; 1228 :                         "field value is required for Assign");

  00020	48 8d 15 00 00
	00 00		 lea	 rdx, OFFSET FLAT:??_C@_0CD@PODDGPLK@field?5value?5is?5required?5for?5Assi@
  00027	48 8b 0d 00 00
	00 00		 mov	 rcx, QWORD PTR PyExc_ValueError
  0002e	e8 00 00 00 00	 call	 PyErr_SetString

; 1229 :         return NULL;

  00033	33 c0		 xor	 eax, eax
  00035	eb 64		 jmp	 SHORT $LN3@Py_Assign
$LN2@Py_Assign:

; 1230 :     }
; 1231 :     p = (stmt_ty)PyArena_Malloc(arena, sizeof(*p));

  00037	ba 48 00 00 00	 mov	 edx, 72			; 00000048H
  0003c	48 8b 4c 24 60	 mov	 rcx, QWORD PTR arena$[rsp]
  00041	e8 00 00 00 00	 call	 PyArena_Malloc
  00046	48 89 44 24 20	 mov	 QWORD PTR p$[rsp], rax

; 1232 :     if (!p)

  0004b	48 83 7c 24 20
	00		 cmp	 QWORD PTR p$[rsp], 0
  00051	75 04		 jne	 SHORT $LN1@Py_Assign

; 1233 :         return NULL;

  00053	33 c0		 xor	 eax, eax
  00055	eb 44		 jmp	 SHORT $LN3@Py_Assign
$LN1@Py_Assign:

; 1234 :     p->kind = Assign_kind;

  00057	48 8b 44 24 20	 mov	 rax, QWORD PTR p$[rsp]
  0005c	c7 00 05 00 00
	00		 mov	 DWORD PTR [rax], 5

; 1235 :     p->v.Assign.targets = targets;

  00062	48 8b 44 24 20	 mov	 rax, QWORD PTR p$[rsp]
  00067	48 8b 4c 24 40	 mov	 rcx, QWORD PTR targets$[rsp]
  0006c	48 89 48 08	 mov	 QWORD PTR [rax+8], rcx

; 1236 :     p->v.Assign.value = value;

  00070	48 8b 44 24 20	 mov	 rax, QWORD PTR p$[rsp]
  00075	48 8b 4c 24 48	 mov	 rcx, QWORD PTR value$[rsp]
  0007a	48 89 48 10	 mov	 QWORD PTR [rax+16], rcx

; 1237 :     p->lineno = lineno;

  0007e	48 8b 44 24 20	 mov	 rax, QWORD PTR p$[rsp]
  00083	8b 4c 24 50	 mov	 ecx, DWORD PTR lineno$[rsp]
  00087	89 48 40	 mov	 DWORD PTR [rax+64], ecx

; 1238 :     p->col_offset = col_offset;

  0008a	48 8b 44 24 20	 mov	 rax, QWORD PTR p$[rsp]
  0008f	8b 4c 24 58	 mov	 ecx, DWORD PTR col_offset$[rsp]
  00093	89 48 44	 mov	 DWORD PTR [rax+68], ecx

; 1239 :     return p;

  00096	48 8b 44 24 20	 mov	 rax, QWORD PTR p$[rsp]
$LN3@Py_Assign:

; 1240 : }

  0009b	48 83 c4 38	 add	 rsp, 56			; 00000038H
  0009f	c3		 ret	 0
_Py_Assign ENDP
_TEXT	ENDS
PUBLIC	??_C@_0CG@BCDKGMFN@field?5value?5is?5required?5for?5AugA@ ; `string'
PUBLIC	??_C@_0CD@HEMJKCOB@field?5op?5is?5required?5for?5AugAssi@ ; `string'
PUBLIC	??_C@_0CH@IMOJNEGG@field?5target?5is?5required?5for?5Aug@ ; `string'
PUBLIC	_Py_AugAssign
;	COMDAT pdata
pdata	SEGMENT
$pdata$_Py_AugAssign DD imagerel $LN7
	DD	imagerel $LN7+238
	DD	imagerel $unwind$_Py_AugAssign
pdata	ENDS
;	COMDAT xdata
xdata	SEGMENT
$unwind$_Py_AugAssign DD 011701H
	DD	06217H
xdata	ENDS
;	COMDAT ??_C@_0CG@BCDKGMFN@field?5value?5is?5required?5for?5AugA@
CONST	SEGMENT
??_C@_0CG@BCDKGMFN@field?5value?5is?5required?5for?5AugA@ DB 'field value'
	DB	' is required for AugAssign', 00H		; `string'
CONST	ENDS
;	COMDAT ??_C@_0CD@HEMJKCOB@field?5op?5is?5required?5for?5AugAssi@
CONST	SEGMENT
??_C@_0CD@HEMJKCOB@field?5op?5is?5required?5for?5AugAssi@ DB 'field op is'
	DB	' required for AugAssign', 00H		; `string'
CONST	ENDS
;	COMDAT ??_C@_0CH@IMOJNEGG@field?5target?5is?5required?5for?5Aug@
CONST	SEGMENT
??_C@_0CH@IMOJNEGG@field?5target?5is?5required?5for?5Aug@ DB 'field targe'
	DB	't is required for AugAssign', 00H		; `string'
; Function compile flags: /Odtp
CONST	ENDS
;	COMDAT _Py_AugAssign
_TEXT	SEGMENT
p$ = 32
target$ = 64
op$ = 72
value$ = 80
lineno$ = 88
col_offset$ = 96
arena$ = 104
_Py_AugAssign PROC					; COMDAT

; 1245 : {

$LN7:
  00000	44 89 4c 24 20	 mov	 DWORD PTR [rsp+32], r9d
  00005	4c 89 44 24 18	 mov	 QWORD PTR [rsp+24], r8
  0000a	89 54 24 10	 mov	 DWORD PTR [rsp+16], edx
  0000e	48 89 4c 24 08	 mov	 QWORD PTR [rsp+8], rcx
  00013	48 83 ec 38	 sub	 rsp, 56			; 00000038H

; 1246 :     stmt_ty p;
; 1247 :     if (!target) {

  00017	48 83 7c 24 40
	00		 cmp	 QWORD PTR target$[rsp], 0
  0001d	75 1a		 jne	 SHORT $LN4@Py_AugAssi

; 1248 :         PyErr_SetString(PyExc_ValueError,
; 1249 :                         "field target is required for AugAssign");

  0001f	48 8d 15 00 00
	00 00		 lea	 rdx, OFFSET FLAT:??_C@_0CH@IMOJNEGG@field?5target?5is?5required?5for?5Aug@
  00026	48 8b 0d 00 00
	00 00		 mov	 rcx, QWORD PTR PyExc_ValueError
  0002d	e8 00 00 00 00	 call	 PyErr_SetString

; 1250 :         return NULL;

  00032	33 c0		 xor	 eax, eax
  00034	e9 b0 00 00 00	 jmp	 $LN5@Py_AugAssi
$LN4@Py_AugAssi:

; 1251 :     }
; 1252 :     if (!op) {

  00039	83 7c 24 48 00	 cmp	 DWORD PTR op$[rsp], 0
  0003e	75 1a		 jne	 SHORT $LN3@Py_AugAssi

; 1253 :         PyErr_SetString(PyExc_ValueError,
; 1254 :                         "field op is required for AugAssign");

  00040	48 8d 15 00 00
	00 00		 lea	 rdx, OFFSET FLAT:??_C@_0CD@HEMJKCOB@field?5op?5is?5required?5for?5AugAssi@
  00047	48 8b 0d 00 00
	00 00		 mov	 rcx, QWORD PTR PyExc_ValueError
  0004e	e8 00 00 00 00	 call	 PyErr_SetString

; 1255 :         return NULL;

  00053	33 c0		 xor	 eax, eax
  00055	e9 8f 00 00 00	 jmp	 $LN5@Py_AugAssi
$LN3@Py_AugAssi:

; 1256 :     }
; 1257 :     if (!value) {

  0005a	48 83 7c 24 50
	00		 cmp	 QWORD PTR value$[rsp], 0
  00060	75 17		 jne	 SHORT $LN2@Py_AugAssi

; 1258 :         PyErr_SetString(PyExc_ValueError,
; 1259 :                         "field value is required for AugAssign");

  00062	48 8d 15 00 00
	00 00		 lea	 rdx, OFFSET FLAT:??_C@_0CG@BCDKGMFN@field?5value?5is?5required?5for?5AugA@
  00069	48 8b 0d 00 00
	00 00		 mov	 rcx, QWORD PTR PyExc_ValueError
  00070	e8 00 00 00 00	 call	 PyErr_SetString

; 1260 :         return NULL;

  00075	33 c0		 xor	 eax, eax
  00077	eb 70		 jmp	 SHORT $LN5@Py_AugAssi
$LN2@Py_AugAssi:

; 1261 :     }
; 1262 :     p = (stmt_ty)PyArena_Malloc(arena, sizeof(*p));

  00079	ba 48 00 00 00	 mov	 edx, 72			; 00000048H
  0007e	48 8b 4c 24 68	 mov	 rcx, QWORD PTR arena$[rsp]
  00083	e8 00 00 00 00	 call	 PyArena_Malloc
  00088	48 89 44 24 20	 mov	 QWORD PTR p$[rsp], rax

; 1263 :     if (!p)

  0008d	48 83 7c 24 20
	00		 cmp	 QWORD PTR p$[rsp], 0
  00093	75 04		 jne	 SHORT $LN1@Py_AugAssi

; 1264 :         return NULL;

  00095	33 c0		 xor	 eax, eax
  00097	eb 50		 jmp	 SHORT $LN5@Py_AugAssi
$LN1@Py_AugAssi:

; 1265 :     p->kind = AugAssign_kind;

  00099	48 8b 44 24 20	 mov	 rax, QWORD PTR p$[rsp]
  0009e	c7 00 06 00 00
	00		 mov	 DWORD PTR [rax], 6

; 1266 :     p->v.AugAssign.target = target;

  000a4	48 8b 44 24 20	 mov	 rax, QWORD PTR p$[rsp]
  000a9	48 8b 4c 24 40	 mov	 rcx, QWORD PTR target$[rsp]
  000ae	48 89 48 08	 mov	 QWORD PTR [rax+8], rcx

; 1267 :     p->v.AugAssign.op = op;

  000b2	48 8b 44 24 20	 mov	 rax, QWORD PTR p$[rsp]
  000b7	8b 4c 24 48	 mov	 ecx, DWORD PTR op$[rsp]
  000bb	89 48 10	 mov	 DWORD PTR [rax+16], ecx

; 1268 :     p->v.AugAssign.value = value;

  000be	48 8b 44 24 20	 mov	 rax, QWORD PTR p$[rsp]
  000c3	48 8b 4c 24 50	 mov	 rcx, QWORD PTR value$[rsp]
  000c8	48 89 48 18	 mov	 QWORD PTR [rax+24], rcx

; 1269 :     p->lineno = lineno;

  000cc	48 8b 44 24 20	 mov	 rax, QWORD PTR p$[rsp]
  000d1	8b 4c 24 58	 mov	 ecx, DWORD PTR lineno$[rsp]
  000d5	89 48 40	 mov	 DWORD PTR [rax+64], ecx

; 1270 :     p->col_offset = col_offset;

  000d8	48 8b 44 24 20	 mov	 rax, QWORD PTR p$[rsp]
  000dd	8b 4c 24 60	 mov	 ecx, DWORD PTR col_offset$[rsp]
  000e1	89 48 44	 mov	 DWORD PTR [rax+68], ecx

; 1271 :     return p;

  000e4	48 8b 44 24 20	 mov	 rax, QWORD PTR p$[rsp]
$LN5@Py_AugAssi:

; 1272 : }

  000e9	48 83 c4 38	 add	 rsp, 56			; 00000038H
  000ed	c3		 ret	 0
_Py_AugAssign ENDP
_TEXT	ENDS
PUBLIC	??_C@_0BP@LGGBEOKE@field?5iter?5is?5required?5for?5For?$AA@ ; `string'
PUBLIC	??_C@_0CB@EFAGNOAJ@field?5target?5is?5required?5for?5For@ ; `string'
PUBLIC	_Py_For
;	COMDAT pdata
pdata	SEGMENT
$pdata$_Py_For DD imagerel $LN6
	DD	imagerel $LN6+225
	DD	imagerel $unwind$_Py_For
pdata	ENDS
;	COMDAT xdata
xdata	SEGMENT
$unwind$_Py_For DD 011801H
	DD	06218H
xdata	ENDS
;	COMDAT ??_C@_0BP@LGGBEOKE@field?5iter?5is?5required?5for?5For?$AA@
CONST	SEGMENT
??_C@_0BP@LGGBEOKE@field?5iter?5is?5required?5for?5For?$AA@ DB 'field ite'
	DB	'r is required for For', 00H			; `string'
CONST	ENDS
;	COMDAT ??_C@_0CB@EFAGNOAJ@field?5target?5is?5required?5for?5For@
CONST	SEGMENT
??_C@_0CB@EFAGNOAJ@field?5target?5is?5required?5for?5For@ DB 'field targe'
	DB	't is required for For', 00H			; `string'
; Function compile flags: /Odtp
CONST	ENDS
;	COMDAT _Py_For
_TEXT	SEGMENT
p$ = 32
target$ = 64
iter$ = 72
body$ = 80
orelse$ = 88
lineno$ = 96
col_offset$ = 104
arena$ = 112
_Py_For	PROC						; COMDAT

; 1277 : {

$LN6:
  00000	4c 89 4c 24 20	 mov	 QWORD PTR [rsp+32], r9
  00005	4c 89 44 24 18	 mov	 QWORD PTR [rsp+24], r8
  0000a	48 89 54 24 10	 mov	 QWORD PTR [rsp+16], rdx
  0000f	48 89 4c 24 08	 mov	 QWORD PTR [rsp+8], rcx
  00014	48 83 ec 38	 sub	 rsp, 56			; 00000038H

; 1278 :     stmt_ty p;
; 1279 :     if (!target) {

  00018	48 83 7c 24 40
	00		 cmp	 QWORD PTR target$[rsp], 0
  0001e	75 1a		 jne	 SHORT $LN3@Py_For

; 1280 :         PyErr_SetString(PyExc_ValueError,
; 1281 :                         "field target is required for For");

  00020	48 8d 15 00 00
	00 00		 lea	 rdx, OFFSET FLAT:??_C@_0CB@EFAGNOAJ@field?5target?5is?5required?5for?5For@
  00027	48 8b 0d 00 00
	00 00		 mov	 rcx, QWORD PTR PyExc_ValueError
  0002e	e8 00 00 00 00	 call	 PyErr_SetString

; 1282 :         return NULL;

  00033	33 c0		 xor	 eax, eax
  00035	e9 a2 00 00 00	 jmp	 $LN4@Py_For
$LN3@Py_For:

; 1283 :     }
; 1284 :     if (!iter) {

  0003a	48 83 7c 24 48
	00		 cmp	 QWORD PTR iter$[rsp], 0
  00040	75 1a		 jne	 SHORT $LN2@Py_For

; 1285 :         PyErr_SetString(PyExc_ValueError,
; 1286 :                         "field iter is required for For");

  00042	48 8d 15 00 00
	00 00		 lea	 rdx, OFFSET FLAT:??_C@_0BP@LGGBEOKE@field?5iter?5is?5required?5for?5For?$AA@
  00049	48 8b 0d 00 00
	00 00		 mov	 rcx, QWORD PTR PyExc_ValueError
  00050	e8 00 00 00 00	 call	 PyErr_SetString

; 1287 :         return NULL;

  00055	33 c0		 xor	 eax, eax
  00057	e9 80 00 00 00	 jmp	 $LN4@Py_For
$LN2@Py_For:

; 1288 :     }
; 1289 :     p = (stmt_ty)PyArena_Malloc(arena, sizeof(*p));

  0005c	ba 48 00 00 00	 mov	 edx, 72			; 00000048H
  00061	48 8b 4c 24 70	 mov	 rcx, QWORD PTR arena$[rsp]
  00066	e8 00 00 00 00	 call	 PyArena_Malloc
  0006b	48 89 44 24 20	 mov	 QWORD PTR p$[rsp], rax

; 1290 :     if (!p)

  00070	48 83 7c 24 20
	00		 cmp	 QWORD PTR p$[rsp], 0
  00076	75 04		 jne	 SHORT $LN1@Py_For

; 1291 :         return NULL;

  00078	33 c0		 xor	 eax, eax
  0007a	eb 60		 jmp	 SHORT $LN4@Py_For
$LN1@Py_For:

; 1292 :     p->kind = For_kind;

  0007c	48 8b 44 24 20	 mov	 rax, QWORD PTR p$[rsp]
  00081	c7 00 07 00 00
	00		 mov	 DWORD PTR [rax], 7

; 1293 :     p->v.For.target = target;

  00087	48 8b 44 24 20	 mov	 rax, QWORD PTR p$[rsp]
  0008c	48 8b 4c 24 40	 mov	 rcx, QWORD PTR target$[rsp]
  00091	48 89 48 08	 mov	 QWORD PTR [rax+8], rcx

; 1294 :     p->v.For.iter = iter;

  00095	48 8b 44 24 20	 mov	 rax, QWORD PTR p$[rsp]
  0009a	48 8b 4c 24 48	 mov	 rcx, QWORD PTR iter$[rsp]
  0009f	48 89 48 10	 mov	 QWORD PTR [rax+16], rcx

; 1295 :     p->v.For.body = body;

  000a3	48 8b 44 24 20	 mov	 rax, QWORD PTR p$[rsp]
  000a8	48 8b 4c 24 50	 mov	 rcx, QWORD PTR body$[rsp]
  000ad	48 89 48 18	 mov	 QWORD PTR [rax+24], rcx

; 1296 :     p->v.For.orelse = orelse;

  000b1	48 8b 44 24 20	 mov	 rax, QWORD PTR p$[rsp]
  000b6	48 8b 4c 24 58	 mov	 rcx, QWORD PTR orelse$[rsp]
  000bb	48 89 48 20	 mov	 QWORD PTR [rax+32], rcx

; 1297 :     p->lineno = lineno;

  000bf	48 8b 44 24 20	 mov	 rax, QWORD PTR p$[rsp]
  000c4	8b 4c 24 60	 mov	 ecx, DWORD PTR lineno$[rsp]
  000c8	89 48 40	 mov	 DWORD PTR [rax+64], ecx

; 1298 :     p->col_offset = col_offset;

  000cb	48 8b 44 24 20	 mov	 rax, QWORD PTR p$[rsp]
  000d0	8b 4c 24 68	 mov	 ecx, DWORD PTR col_offset$[rsp]
  000d4	89 48 44	 mov	 DWORD PTR [rax+68], ecx

; 1299 :     return p;

  000d7	48 8b 44 24 20	 mov	 rax, QWORD PTR p$[rsp]
$LN4@Py_For:

; 1300 : }

  000dc	48 83 c4 38	 add	 rsp, 56			; 00000038H
  000e0	c3		 ret	 0
_Py_For	ENDP
_TEXT	ENDS
PUBLIC	??_C@_0CB@KCHPDKKB@field?5test?5is?5required?5for?5While@ ; `string'
PUBLIC	_Py_While
;	COMDAT pdata
pdata	SEGMENT
$pdata$_Py_While DD imagerel $LN5
	DD	imagerel $LN5+174
	DD	imagerel $unwind$_Py_While
pdata	ENDS
;	COMDAT xdata
xdata	SEGMENT
$unwind$_Py_While DD 011801H
	DD	06218H
xdata	ENDS
;	COMDAT ??_C@_0CB@KCHPDKKB@field?5test?5is?5required?5for?5While@
CONST	SEGMENT
??_C@_0CB@KCHPDKKB@field?5test?5is?5required?5for?5While@ DB 'field test '
	DB	'is required for While', 00H			; `string'
; Function compile flags: /Odtp
CONST	ENDS
;	COMDAT _Py_While
_TEXT	SEGMENT
p$ = 32
test$ = 64
body$ = 72
orelse$ = 80
lineno$ = 88
col_offset$ = 96
arena$ = 104
_Py_While PROC						; COMDAT

; 1305 : {

$LN5:
  00000	44 89 4c 24 20	 mov	 DWORD PTR [rsp+32], r9d
  00005	4c 89 44 24 18	 mov	 QWORD PTR [rsp+24], r8
  0000a	48 89 54 24 10	 mov	 QWORD PTR [rsp+16], rdx
  0000f	48 89 4c 24 08	 mov	 QWORD PTR [rsp+8], rcx
  00014	48 83 ec 38	 sub	 rsp, 56			; 00000038H

; 1306 :     stmt_ty p;
; 1307 :     if (!test) {

  00018	48 83 7c 24 40
	00		 cmp	 QWORD PTR test$[rsp], 0
  0001e	75 17		 jne	 SHORT $LN2@Py_While

; 1308 :         PyErr_SetString(PyExc_ValueError,
; 1309 :                         "field test is required for While");

  00020	48 8d 15 00 00
	00 00		 lea	 rdx, OFFSET FLAT:??_C@_0CB@KCHPDKKB@field?5test?5is?5required?5for?5While@
  00027	48 8b 0d 00 00
	00 00		 mov	 rcx, QWORD PTR PyExc_ValueError
  0002e	e8 00 00 00 00	 call	 PyErr_SetString

; 1310 :         return NULL;

  00033	33 c0		 xor	 eax, eax
  00035	eb 72		 jmp	 SHORT $LN3@Py_While
$LN2@Py_While:

; 1311 :     }
; 1312 :     p = (stmt_ty)PyArena_Malloc(arena, sizeof(*p));

  00037	ba 48 00 00 00	 mov	 edx, 72			; 00000048H
  0003c	48 8b 4c 24 68	 mov	 rcx, QWORD PTR arena$[rsp]
  00041	e8 00 00 00 00	 call	 PyArena_Malloc
  00046	48 89 44 24 20	 mov	 QWORD PTR p$[rsp], rax

; 1313 :     if (!p)

  0004b	48 83 7c 24 20
	00		 cmp	 QWORD PTR p$[rsp], 0
  00051	75 04		 jne	 SHORT $LN1@Py_While

; 1314 :         return NULL;

  00053	33 c0		 xor	 eax, eax
  00055	eb 52		 jmp	 SHORT $LN3@Py_While
$LN1@Py_While:

; 1315 :     p->kind = While_kind;

  00057	48 8b 44 24 20	 mov	 rax, QWORD PTR p$[rsp]
  0005c	c7 00 08 00 00
	00		 mov	 DWORD PTR [rax], 8

; 1316 :     p->v.While.test = test;

  00062	48 8b 44 24 20	 mov	 rax, QWORD PTR p$[rsp]
  00067	48 8b 4c 24 40	 mov	 rcx, QWORD PTR test$[rsp]
  0006c	48 89 48 08	 mov	 QWORD PTR [rax+8], rcx

; 1317 :     p->v.While.body = body;

  00070	48 8b 44 24 20	 mov	 rax, QWORD PTR p$[rsp]
  00075	48 8b 4c 24 48	 mov	 rcx, QWORD PTR body$[rsp]
  0007a	48 89 48 10	 mov	 QWORD PTR [rax+16], rcx

; 1318 :     p->v.While.orelse = orelse;

  0007e	48 8b 44 24 20	 mov	 rax, QWORD PTR p$[rsp]
  00083	48 8b 4c 24 50	 mov	 rcx, QWORD PTR orelse$[rsp]
  00088	48 89 48 18	 mov	 QWORD PTR [rax+24], rcx

; 1319 :     p->lineno = lineno;

  0008c	48 8b 44 24 20	 mov	 rax, QWORD PTR p$[rsp]
  00091	8b 4c 24 58	 mov	 ecx, DWORD PTR lineno$[rsp]
  00095	89 48 40	 mov	 DWORD PTR [rax+64], ecx

; 1320 :     p->col_offset = col_offset;

  00098	48 8b 44 24 20	 mov	 rax, QWORD PTR p$[rsp]
  0009d	8b 4c 24 60	 mov	 ecx, DWORD PTR col_offset$[rsp]
  000a1	89 48 44	 mov	 DWORD PTR [rax+68], ecx

; 1321 :     return p;

  000a4	48 8b 44 24 20	 mov	 rax, QWORD PTR p$[rsp]
$LN3@Py_While:

; 1322 : }

  000a9	48 83 c4 38	 add	 rsp, 56			; 00000038H
  000ad	c3		 ret	 0
_Py_While ENDP
_TEXT	ENDS
PUBLIC	??_C@_0BO@JBIJLEDP@field?5test?5is?5required?5for?5If?$AA@ ; `string'
PUBLIC	_Py_If
;	COMDAT pdata
pdata	SEGMENT
$pdata$_Py_If DD imagerel $LN5
	DD	imagerel $LN5+174
	DD	imagerel $unwind$_Py_If
pdata	ENDS
;	COMDAT xdata
xdata	SEGMENT
$unwind$_Py_If DD 011801H
	DD	06218H
xdata	ENDS
;	COMDAT ??_C@_0BO@JBIJLEDP@field?5test?5is?5required?5for?5If?$AA@
CONST	SEGMENT
??_C@_0BO@JBIJLEDP@field?5test?5is?5required?5for?5If?$AA@ DB 'field test'
	DB	' is required for If', 00H			; `string'
; Function compile flags: /Odtp
CONST	ENDS
;	COMDAT _Py_If
_TEXT	SEGMENT
p$ = 32
test$ = 64
body$ = 72
orelse$ = 80
lineno$ = 88
col_offset$ = 96
arena$ = 104
_Py_If	PROC						; COMDAT

; 1327 : {

$LN5:
  00000	44 89 4c 24 20	 mov	 DWORD PTR [rsp+32], r9d
  00005	4c 89 44 24 18	 mov	 QWORD PTR [rsp+24], r8
  0000a	48 89 54 24 10	 mov	 QWORD PTR [rsp+16], rdx
  0000f	48 89 4c 24 08	 mov	 QWORD PTR [rsp+8], rcx
  00014	48 83 ec 38	 sub	 rsp, 56			; 00000038H

; 1328 :     stmt_ty p;
; 1329 :     if (!test) {

  00018	48 83 7c 24 40
	00		 cmp	 QWORD PTR test$[rsp], 0
  0001e	75 17		 jne	 SHORT $LN2@Py_If

; 1330 :         PyErr_SetString(PyExc_ValueError,
; 1331 :                         "field test is required for If");

  00020	48 8d 15 00 00
	00 00		 lea	 rdx, OFFSET FLAT:??_C@_0BO@JBIJLEDP@field?5test?5is?5required?5for?5If?$AA@
  00027	48 8b 0d 00 00
	00 00		 mov	 rcx, QWORD PTR PyExc_ValueError
  0002e	e8 00 00 00 00	 call	 PyErr_SetString

; 1332 :         return NULL;

  00033	33 c0		 xor	 eax, eax
  00035	eb 72		 jmp	 SHORT $LN3@Py_If
$LN2@Py_If:

; 1333 :     }
; 1334 :     p = (stmt_ty)PyArena_Malloc(arena, sizeof(*p));

  00037	ba 48 00 00 00	 mov	 edx, 72			; 00000048H
  0003c	48 8b 4c 24 68	 mov	 rcx, QWORD PTR arena$[rsp]
  00041	e8 00 00 00 00	 call	 PyArena_Malloc
  00046	48 89 44 24 20	 mov	 QWORD PTR p$[rsp], rax

; 1335 :     if (!p)

  0004b	48 83 7c 24 20
	00		 cmp	 QWORD PTR p$[rsp], 0
  00051	75 04		 jne	 SHORT $LN1@Py_If

; 1336 :         return NULL;

  00053	33 c0		 xor	 eax, eax
  00055	eb 52		 jmp	 SHORT $LN3@Py_If
$LN1@Py_If:

; 1337 :     p->kind = If_kind;

  00057	48 8b 44 24 20	 mov	 rax, QWORD PTR p$[rsp]
  0005c	c7 00 09 00 00
	00		 mov	 DWORD PTR [rax], 9

; 1338 :     p->v.If.test = test;

  00062	48 8b 44 24 20	 mov	 rax, QWORD PTR p$[rsp]
  00067	48 8b 4c 24 40	 mov	 rcx, QWORD PTR test$[rsp]
  0006c	48 89 48 08	 mov	 QWORD PTR [rax+8], rcx

; 1339 :     p->v.If.body = body;

  00070	48 8b 44 24 20	 mov	 rax, QWORD PTR p$[rsp]
  00075	48 8b 4c 24 48	 mov	 rcx, QWORD PTR body$[rsp]
  0007a	48 89 48 10	 mov	 QWORD PTR [rax+16], rcx

; 1340 :     p->v.If.orelse = orelse;

  0007e	48 8b 44 24 20	 mov	 rax, QWORD PTR p$[rsp]
  00083	48 8b 4c 24 50	 mov	 rcx, QWORD PTR orelse$[rsp]
  00088	48 89 48 18	 mov	 QWORD PTR [rax+24], rcx

; 1341 :     p->lineno = lineno;

  0008c	48 8b 44 24 20	 mov	 rax, QWORD PTR p$[rsp]
  00091	8b 4c 24 58	 mov	 ecx, DWORD PTR lineno$[rsp]
  00095	89 48 40	 mov	 DWORD PTR [rax+64], ecx

; 1342 :     p->col_offset = col_offset;

  00098	48 8b 44 24 20	 mov	 rax, QWORD PTR p$[rsp]
  0009d	8b 4c 24 60	 mov	 ecx, DWORD PTR col_offset$[rsp]
  000a1	89 48 44	 mov	 DWORD PTR [rax+68], ecx

; 1343 :     return p;

  000a4	48 8b 44 24 20	 mov	 rax, QWORD PTR p$[rsp]
$LN3@Py_If:

; 1344 : }

  000a9	48 83 c4 38	 add	 rsp, 56			; 00000038H
  000ad	c3		 ret	 0
_Py_If	ENDP
_TEXT	ENDS
PUBLIC	_Py_With
;	COMDAT pdata
pdata	SEGMENT
$pdata$_Py_With DD imagerel $LN4
	DD	imagerel $LN4+129
	DD	imagerel $unwind$_Py_With
pdata	ENDS
;	COMDAT xdata
xdata	SEGMENT
$unwind$_Py_With DD 011801H
	DD	06218H
; Function compile flags: /Odtp
xdata	ENDS
;	COMDAT _Py_With
_TEXT	SEGMENT
p$ = 32
items$ = 64
body$ = 72
lineno$ = 80
col_offset$ = 88
arena$ = 96
_Py_With PROC						; COMDAT

; 1349 : {

$LN4:
  00000	44 89 4c 24 20	 mov	 DWORD PTR [rsp+32], r9d
  00005	44 89 44 24 18	 mov	 DWORD PTR [rsp+24], r8d
  0000a	48 89 54 24 10	 mov	 QWORD PTR [rsp+16], rdx
  0000f	48 89 4c 24 08	 mov	 QWORD PTR [rsp+8], rcx
  00014	48 83 ec 38	 sub	 rsp, 56			; 00000038H

; 1350 :     stmt_ty p;
; 1351 :     p = (stmt_ty)PyArena_Malloc(arena, sizeof(*p));

  00018	ba 48 00 00 00	 mov	 edx, 72			; 00000048H
  0001d	48 8b 4c 24 60	 mov	 rcx, QWORD PTR arena$[rsp]
  00022	e8 00 00 00 00	 call	 PyArena_Malloc
  00027	48 89 44 24 20	 mov	 QWORD PTR p$[rsp], rax

; 1352 :     if (!p)

  0002c	48 83 7c 24 20
	00		 cmp	 QWORD PTR p$[rsp], 0
  00032	75 04		 jne	 SHORT $LN1@Py_With

; 1353 :         return NULL;

  00034	33 c0		 xor	 eax, eax
  00036	eb 44		 jmp	 SHORT $LN2@Py_With
$LN1@Py_With:

; 1354 :     p->kind = With_kind;

  00038	48 8b 44 24 20	 mov	 rax, QWORD PTR p$[rsp]
  0003d	c7 00 0a 00 00
	00		 mov	 DWORD PTR [rax], 10

; 1355 :     p->v.With.items = items;

  00043	48 8b 44 24 20	 mov	 rax, QWORD PTR p$[rsp]
  00048	48 8b 4c 24 40	 mov	 rcx, QWORD PTR items$[rsp]
  0004d	48 89 48 08	 mov	 QWORD PTR [rax+8], rcx

; 1356 :     p->v.With.body = body;

  00051	48 8b 44 24 20	 mov	 rax, QWORD PTR p$[rsp]
  00056	48 8b 4c 24 48	 mov	 rcx, QWORD PTR body$[rsp]
  0005b	48 89 48 10	 mov	 QWORD PTR [rax+16], rcx

; 1357 :     p->lineno = lineno;

  0005f	48 8b 44 24 20	 mov	 rax, QWORD PTR p$[rsp]
  00064	8b 4c 24 50	 mov	 ecx, DWORD PTR lineno$[rsp]
  00068	89 48 40	 mov	 DWORD PTR [rax+64], ecx

; 1358 :     p->col_offset = col_offset;

  0006b	48 8b 44 24 20	 mov	 rax, QWORD PTR p$[rsp]
  00070	8b 4c 24 58	 mov	 ecx, DWORD PTR col_offset$[rsp]
  00074	89 48 44	 mov	 DWORD PTR [rax+68], ecx

; 1359 :     return p;

  00077	48 8b 44 24 20	 mov	 rax, QWORD PTR p$[rsp]
$LN2@Py_With:

; 1360 : }

  0007c	48 83 c4 38	 add	 rsp, 56			; 00000038H
  00080	c3		 ret	 0
_Py_With ENDP
_TEXT	ENDS
PUBLIC	_Py_Raise
;	COMDAT pdata
pdata	SEGMENT
$pdata$_Py_Raise DD imagerel $LN4
	DD	imagerel $LN4+129
	DD	imagerel $unwind$_Py_Raise
pdata	ENDS
;	COMDAT xdata
xdata	SEGMENT
$unwind$_Py_Raise DD 011801H
	DD	06218H
; Function compile flags: /Odtp
xdata	ENDS
;	COMDAT _Py_Raise
_TEXT	SEGMENT
p$ = 32
exc$ = 64
cause$ = 72
lineno$ = 80
col_offset$ = 88
arena$ = 96
_Py_Raise PROC						; COMDAT

; 1364 : {

$LN4:
  00000	44 89 4c 24 20	 mov	 DWORD PTR [rsp+32], r9d
  00005	44 89 44 24 18	 mov	 DWORD PTR [rsp+24], r8d
  0000a	48 89 54 24 10	 mov	 QWORD PTR [rsp+16], rdx
  0000f	48 89 4c 24 08	 mov	 QWORD PTR [rsp+8], rcx
  00014	48 83 ec 38	 sub	 rsp, 56			; 00000038H

; 1365 :     stmt_ty p;
; 1366 :     p = (stmt_ty)PyArena_Malloc(arena, sizeof(*p));

  00018	ba 48 00 00 00	 mov	 edx, 72			; 00000048H
  0001d	48 8b 4c 24 60	 mov	 rcx, QWORD PTR arena$[rsp]
  00022	e8 00 00 00 00	 call	 PyArena_Malloc
  00027	48 89 44 24 20	 mov	 QWORD PTR p$[rsp], rax

; 1367 :     if (!p)

  0002c	48 83 7c 24 20
	00		 cmp	 QWORD PTR p$[rsp], 0
  00032	75 04		 jne	 SHORT $LN1@Py_Raise

; 1368 :         return NULL;

  00034	33 c0		 xor	 eax, eax
  00036	eb 44		 jmp	 SHORT $LN2@Py_Raise
$LN1@Py_Raise:

; 1369 :     p->kind = Raise_kind;

  00038	48 8b 44 24 20	 mov	 rax, QWORD PTR p$[rsp]
  0003d	c7 00 0b 00 00
	00		 mov	 DWORD PTR [rax], 11

; 1370 :     p->v.Raise.exc = exc;

  00043	48 8b 44 24 20	 mov	 rax, QWORD PTR p$[rsp]
  00048	48 8b 4c 24 40	 mov	 rcx, QWORD PTR exc$[rsp]
  0004d	48 89 48 08	 mov	 QWORD PTR [rax+8], rcx

; 1371 :     p->v.Raise.cause = cause;

  00051	48 8b 44 24 20	 mov	 rax, QWORD PTR p$[rsp]
  00056	48 8b 4c 24 48	 mov	 rcx, QWORD PTR cause$[rsp]
  0005b	48 89 48 10	 mov	 QWORD PTR [rax+16], rcx

; 1372 :     p->lineno = lineno;

  0005f	48 8b 44 24 20	 mov	 rax, QWORD PTR p$[rsp]
  00064	8b 4c 24 50	 mov	 ecx, DWORD PTR lineno$[rsp]
  00068	89 48 40	 mov	 DWORD PTR [rax+64], ecx

; 1373 :     p->col_offset = col_offset;

  0006b	48 8b 44 24 20	 mov	 rax, QWORD PTR p$[rsp]
  00070	8b 4c 24 58	 mov	 ecx, DWORD PTR col_offset$[rsp]
  00074	89 48 44	 mov	 DWORD PTR [rax+68], ecx

; 1374 :     return p;

  00077	48 8b 44 24 20	 mov	 rax, QWORD PTR p$[rsp]
$LN2@Py_Raise:

; 1375 : }

  0007c	48 83 c4 38	 add	 rsp, 56			; 00000038H
  00080	c3		 ret	 0
_Py_Raise ENDP
_TEXT	ENDS
PUBLIC	_Py_Try
;	COMDAT pdata
pdata	SEGMENT
$pdata$_Py_Try DD imagerel $LN4
	DD	imagerel $LN4+157
	DD	imagerel $unwind$_Py_Try
pdata	ENDS
;	COMDAT xdata
xdata	SEGMENT
$unwind$_Py_Try DD 011801H
	DD	06218H
; Function compile flags: /Odtp
xdata	ENDS
;	COMDAT _Py_Try
_TEXT	SEGMENT
p$ = 32
body$ = 64
handlers$ = 72
orelse$ = 80
finalbody$ = 88
lineno$ = 96
col_offset$ = 104
arena$ = 112
_Py_Try	PROC						; COMDAT

; 1380 : {

$LN4:
  00000	4c 89 4c 24 20	 mov	 QWORD PTR [rsp+32], r9
  00005	4c 89 44 24 18	 mov	 QWORD PTR [rsp+24], r8
  0000a	48 89 54 24 10	 mov	 QWORD PTR [rsp+16], rdx
  0000f	48 89 4c 24 08	 mov	 QWORD PTR [rsp+8], rcx
  00014	48 83 ec 38	 sub	 rsp, 56			; 00000038H

; 1381 :     stmt_ty p;
; 1382 :     p = (stmt_ty)PyArena_Malloc(arena, sizeof(*p));

  00018	ba 48 00 00 00	 mov	 edx, 72			; 00000048H
  0001d	48 8b 4c 24 70	 mov	 rcx, QWORD PTR arena$[rsp]
  00022	e8 00 00 00 00	 call	 PyArena_Malloc
  00027	48 89 44 24 20	 mov	 QWORD PTR p$[rsp], rax

; 1383 :     if (!p)

  0002c	48 83 7c 24 20
	00		 cmp	 QWORD PTR p$[rsp], 0
  00032	75 04		 jne	 SHORT $LN1@Py_Try

; 1384 :         return NULL;

  00034	33 c0		 xor	 eax, eax
  00036	eb 60		 jmp	 SHORT $LN2@Py_Try
$LN1@Py_Try:

; 1385 :     p->kind = Try_kind;

  00038	48 8b 44 24 20	 mov	 rax, QWORD PTR p$[rsp]
  0003d	c7 00 0c 00 00
	00		 mov	 DWORD PTR [rax], 12

; 1386 :     p->v.Try.body = body;

  00043	48 8b 44 24 20	 mov	 rax, QWORD PTR p$[rsp]
  00048	48 8b 4c 24 40	 mov	 rcx, QWORD PTR body$[rsp]
  0004d	48 89 48 08	 mov	 QWORD PTR [rax+8], rcx

; 1387 :     p->v.Try.handlers = handlers;

  00051	48 8b 44 24 20	 mov	 rax, QWORD PTR p$[rsp]
  00056	48 8b 4c 24 48	 mov	 rcx, QWORD PTR handlers$[rsp]
  0005b	48 89 48 10	 mov	 QWORD PTR [rax+16], rcx

; 1388 :     p->v.Try.orelse = orelse;

  0005f	48 8b 44 24 20	 mov	 rax, QWORD PTR p$[rsp]
  00064	48 8b 4c 24 50	 mov	 rcx, QWORD PTR orelse$[rsp]
  00069	48 89 48 18	 mov	 QWORD PTR [rax+24], rcx

; 1389 :     p->v.Try.finalbody = finalbody;

  0006d	48 8b 44 24 20	 mov	 rax, QWORD PTR p$[rsp]
  00072	48 8b 4c 24 58	 mov	 rcx, QWORD PTR finalbody$[rsp]
  00077	48 89 48 20	 mov	 QWORD PTR [rax+32], rcx

; 1390 :     p->lineno = lineno;

  0007b	48 8b 44 24 20	 mov	 rax, QWORD PTR p$[rsp]
  00080	8b 4c 24 60	 mov	 ecx, DWORD PTR lineno$[rsp]
  00084	89 48 40	 mov	 DWORD PTR [rax+64], ecx

; 1391 :     p->col_offset = col_offset;

  00087	48 8b 44 24 20	 mov	 rax, QWORD PTR p$[rsp]
  0008c	8b 4c 24 68	 mov	 ecx, DWORD PTR col_offset$[rsp]
  00090	89 48 44	 mov	 DWORD PTR [rax+68], ecx

; 1392 :     return p;

  00093	48 8b 44 24 20	 mov	 rax, QWORD PTR p$[rsp]
$LN2@Py_Try:

; 1393 : }

  00098	48 83 c4 38	 add	 rsp, 56			; 00000038H
  0009c	c3		 ret	 0
_Py_Try	ENDP
_TEXT	ENDS
PUBLIC	??_C@_0CC@MJAOHOEG@field?5test?5is?5required?5for?5Asser@ ; `string'
PUBLIC	_Py_Assert
;	COMDAT pdata
pdata	SEGMENT
$pdata$_Py_Assert DD imagerel $LN5
	DD	imagerel $LN5+160
	DD	imagerel $unwind$_Py_Assert
pdata	ENDS
;	COMDAT xdata
xdata	SEGMENT
$unwind$_Py_Assert DD 011801H
	DD	06218H
xdata	ENDS
;	COMDAT ??_C@_0CC@MJAOHOEG@field?5test?5is?5required?5for?5Asser@
CONST	SEGMENT
??_C@_0CC@MJAOHOEG@field?5test?5is?5required?5for?5Asser@ DB 'field test '
	DB	'is required for Assert', 00H		; `string'
; Function compile flags: /Odtp
CONST	ENDS
;	COMDAT _Py_Assert
_TEXT	SEGMENT
p$ = 32
test$ = 64
msg$ = 72
lineno$ = 80
col_offset$ = 88
arena$ = 96
_Py_Assert PROC						; COMDAT

; 1397 : {

$LN5:
  00000	44 89 4c 24 20	 mov	 DWORD PTR [rsp+32], r9d
  00005	44 89 44 24 18	 mov	 DWORD PTR [rsp+24], r8d
  0000a	48 89 54 24 10	 mov	 QWORD PTR [rsp+16], rdx
  0000f	48 89 4c 24 08	 mov	 QWORD PTR [rsp+8], rcx
  00014	48 83 ec 38	 sub	 rsp, 56			; 00000038H

; 1398 :     stmt_ty p;
; 1399 :     if (!test) {

  00018	48 83 7c 24 40
	00		 cmp	 QWORD PTR test$[rsp], 0
  0001e	75 17		 jne	 SHORT $LN2@Py_Assert

; 1400 :         PyErr_SetString(PyExc_ValueError,
; 1401 :                         "field test is required for Assert");

  00020	48 8d 15 00 00
	00 00		 lea	 rdx, OFFSET FLAT:??_C@_0CC@MJAOHOEG@field?5test?5is?5required?5for?5Asser@
  00027	48 8b 0d 00 00
	00 00		 mov	 rcx, QWORD PTR PyExc_ValueError
  0002e	e8 00 00 00 00	 call	 PyErr_SetString

; 1402 :         return NULL;

  00033	33 c0		 xor	 eax, eax
  00035	eb 64		 jmp	 SHORT $LN3@Py_Assert
$LN2@Py_Assert:

; 1403 :     }
; 1404 :     p = (stmt_ty)PyArena_Malloc(arena, sizeof(*p));

  00037	ba 48 00 00 00	 mov	 edx, 72			; 00000048H
  0003c	48 8b 4c 24 60	 mov	 rcx, QWORD PTR arena$[rsp]
  00041	e8 00 00 00 00	 call	 PyArena_Malloc
  00046	48 89 44 24 20	 mov	 QWORD PTR p$[rsp], rax

; 1405 :     if (!p)

  0004b	48 83 7c 24 20
	00		 cmp	 QWORD PTR p$[rsp], 0
  00051	75 04		 jne	 SHORT $LN1@Py_Assert

; 1406 :         return NULL;

  00053	33 c0		 xor	 eax, eax
  00055	eb 44		 jmp	 SHORT $LN3@Py_Assert
$LN1@Py_Assert:

; 1407 :     p->kind = Assert_kind;

  00057	48 8b 44 24 20	 mov	 rax, QWORD PTR p$[rsp]
  0005c	c7 00 0d 00 00
	00		 mov	 DWORD PTR [rax], 13

; 1408 :     p->v.Assert.test = test;

  00062	48 8b 44 24 20	 mov	 rax, QWORD PTR p$[rsp]
  00067	48 8b 4c 24 40	 mov	 rcx, QWORD PTR test$[rsp]
  0006c	48 89 48 08	 mov	 QWORD PTR [rax+8], rcx

; 1409 :     p->v.Assert.msg = msg;

  00070	48 8b 44 24 20	 mov	 rax, QWORD PTR p$[rsp]
  00075	48 8b 4c 24 48	 mov	 rcx, QWORD PTR msg$[rsp]
  0007a	48 89 48 10	 mov	 QWORD PTR [rax+16], rcx

; 1410 :     p->lineno = lineno;

  0007e	48 8b 44 24 20	 mov	 rax, QWORD PTR p$[rsp]
  00083	8b 4c 24 50	 mov	 ecx, DWORD PTR lineno$[rsp]
  00087	89 48 40	 mov	 DWORD PTR [rax+64], ecx

; 1411 :     p->col_offset = col_offset;

  0008a	48 8b 44 24 20	 mov	 rax, QWORD PTR p$[rsp]
  0008f	8b 4c 24 58	 mov	 ecx, DWORD PTR col_offset$[rsp]
  00093	89 48 44	 mov	 DWORD PTR [rax+68], ecx

; 1412 :     return p;

  00096	48 8b 44 24 20	 mov	 rax, QWORD PTR p$[rsp]
$LN3@Py_Assert:

; 1413 : }

  0009b	48 83 c4 38	 add	 rsp, 56			; 00000038H
  0009f	c3		 ret	 0
_Py_Assert ENDP
_TEXT	ENDS
PUBLIC	_Py_Import
;	COMDAT pdata
pdata	SEGMENT
$pdata$_Py_Import DD imagerel $LN4
	DD	imagerel $LN4+114
	DD	imagerel $unwind$_Py_Import
pdata	ENDS
;	COMDAT xdata
xdata	SEGMENT
$unwind$_Py_Import DD 011701H
	DD	06217H
; Function compile flags: /Odtp
xdata	ENDS
;	COMDAT _Py_Import
_TEXT	SEGMENT
p$ = 32
names$ = 64
lineno$ = 72
col_offset$ = 80
arena$ = 88
_Py_Import PROC						; COMDAT

; 1417 : {

$LN4:
  00000	4c 89 4c 24 20	 mov	 QWORD PTR [rsp+32], r9
  00005	44 89 44 24 18	 mov	 DWORD PTR [rsp+24], r8d
  0000a	89 54 24 10	 mov	 DWORD PTR [rsp+16], edx
  0000e	48 89 4c 24 08	 mov	 QWORD PTR [rsp+8], rcx
  00013	48 83 ec 38	 sub	 rsp, 56			; 00000038H

; 1418 :     stmt_ty p;
; 1419 :     p = (stmt_ty)PyArena_Malloc(arena, sizeof(*p));

  00017	ba 48 00 00 00	 mov	 edx, 72			; 00000048H
  0001c	48 8b 4c 24 58	 mov	 rcx, QWORD PTR arena$[rsp]
  00021	e8 00 00 00 00	 call	 PyArena_Malloc
  00026	48 89 44 24 20	 mov	 QWORD PTR p$[rsp], rax

; 1420 :     if (!p)

  0002b	48 83 7c 24 20
	00		 cmp	 QWORD PTR p$[rsp], 0
  00031	75 04		 jne	 SHORT $LN1@Py_Import

; 1421 :         return NULL;

  00033	33 c0		 xor	 eax, eax
  00035	eb 36		 jmp	 SHORT $LN2@Py_Import
$LN1@Py_Import:

; 1422 :     p->kind = Import_kind;

  00037	48 8b 44 24 20	 mov	 rax, QWORD PTR p$[rsp]
  0003c	c7 00 0e 00 00
	00		 mov	 DWORD PTR [rax], 14

; 1423 :     p->v.Import.names = names;

  00042	48 8b 44 24 20	 mov	 rax, QWORD PTR p$[rsp]
  00047	48 8b 4c 24 40	 mov	 rcx, QWORD PTR names$[rsp]
  0004c	48 89 48 08	 mov	 QWORD PTR [rax+8], rcx

; 1424 :     p->lineno = lineno;

  00050	48 8b 44 24 20	 mov	 rax, QWORD PTR p$[rsp]
  00055	8b 4c 24 48	 mov	 ecx, DWORD PTR lineno$[rsp]
  00059	89 48 40	 mov	 DWORD PTR [rax+64], ecx

; 1425 :     p->col_offset = col_offset;

  0005c	48 8b 44 24 20	 mov	 rax, QWORD PTR p$[rsp]
  00061	8b 4c 24 50	 mov	 ecx, DWORD PTR col_offset$[rsp]
  00065	89 48 44	 mov	 DWORD PTR [rax+68], ecx

; 1426 :     return p;

  00068	48 8b 44 24 20	 mov	 rax, QWORD PTR p$[rsp]
$LN2@Py_Import:

; 1427 : }

  0006d	48 83 c4 38	 add	 rsp, 56			; 00000038H
  00071	c3		 ret	 0
_Py_Import ENDP
_TEXT	ENDS
PUBLIC	_Py_ImportFrom
;	COMDAT pdata
pdata	SEGMENT
$pdata$_Py_ImportFrom DD imagerel $LN4
	DD	imagerel $LN4+141
	DD	imagerel $unwind$_Py_ImportFrom
pdata	ENDS
;	COMDAT xdata
xdata	SEGMENT
$unwind$_Py_ImportFrom DD 011801H
	DD	06218H
; Function compile flags: /Odtp
xdata	ENDS
;	COMDAT _Py_ImportFrom
_TEXT	SEGMENT
p$ = 32
module$ = 64
names$ = 72
level$ = 80
lineno$ = 88
col_offset$ = 96
arena$ = 104
_Py_ImportFrom PROC					; COMDAT

; 1432 : {

$LN4:
  00000	44 89 4c 24 20	 mov	 DWORD PTR [rsp+32], r9d
  00005	44 89 44 24 18	 mov	 DWORD PTR [rsp+24], r8d
  0000a	48 89 54 24 10	 mov	 QWORD PTR [rsp+16], rdx
  0000f	48 89 4c 24 08	 mov	 QWORD PTR [rsp+8], rcx
  00014	48 83 ec 38	 sub	 rsp, 56			; 00000038H

; 1433 :     stmt_ty p;
; 1434 :     p = (stmt_ty)PyArena_Malloc(arena, sizeof(*p));

  00018	ba 48 00 00 00	 mov	 edx, 72			; 00000048H
  0001d	48 8b 4c 24 68	 mov	 rcx, QWORD PTR arena$[rsp]
  00022	e8 00 00 00 00	 call	 PyArena_Malloc
  00027	48 89 44 24 20	 mov	 QWORD PTR p$[rsp], rax

; 1435 :     if (!p)

  0002c	48 83 7c 24 20
	00		 cmp	 QWORD PTR p$[rsp], 0
  00032	75 04		 jne	 SHORT $LN1@Py_ImportF

; 1436 :         return NULL;

  00034	33 c0		 xor	 eax, eax
  00036	eb 50		 jmp	 SHORT $LN2@Py_ImportF
$LN1@Py_ImportF:

; 1437 :     p->kind = ImportFrom_kind;

  00038	48 8b 44 24 20	 mov	 rax, QWORD PTR p$[rsp]
  0003d	c7 00 0f 00 00
	00		 mov	 DWORD PTR [rax], 15

; 1438 :     p->v.ImportFrom.module = module;

  00043	48 8b 44 24 20	 mov	 rax, QWORD PTR p$[rsp]
  00048	48 8b 4c 24 40	 mov	 rcx, QWORD PTR module$[rsp]
  0004d	48 89 48 08	 mov	 QWORD PTR [rax+8], rcx

; 1439 :     p->v.ImportFrom.names = names;

  00051	48 8b 44 24 20	 mov	 rax, QWORD PTR p$[rsp]
  00056	48 8b 4c 24 48	 mov	 rcx, QWORD PTR names$[rsp]
  0005b	48 89 48 10	 mov	 QWORD PTR [rax+16], rcx

; 1440 :     p->v.ImportFrom.level = level;

  0005f	48 8b 44 24 20	 mov	 rax, QWORD PTR p$[rsp]
  00064	8b 4c 24 50	 mov	 ecx, DWORD PTR level$[rsp]
  00068	89 48 18	 mov	 DWORD PTR [rax+24], ecx

; 1441 :     p->lineno = lineno;

  0006b	48 8b 44 24 20	 mov	 rax, QWORD PTR p$[rsp]
  00070	8b 4c 24 58	 mov	 ecx, DWORD PTR lineno$[rsp]
  00074	89 48 40	 mov	 DWORD PTR [rax+64], ecx

; 1442 :     p->col_offset = col_offset;

  00077	48 8b 44 24 20	 mov	 rax, QWORD PTR p$[rsp]
  0007c	8b 4c 24 60	 mov	 ecx, DWORD PTR col_offset$[rsp]
  00080	89 48 44	 mov	 DWORD PTR [rax+68], ecx

; 1443 :     return p;

  00083	48 8b 44 24 20	 mov	 rax, QWORD PTR p$[rsp]
$LN2@Py_ImportF:

; 1444 : }

  00088	48 83 c4 38	 add	 rsp, 56			; 00000038H
  0008c	c3		 ret	 0
_Py_ImportFrom ENDP
_TEXT	ENDS
PUBLIC	_Py_Global
;	COMDAT pdata
pdata	SEGMENT
$pdata$_Py_Global DD imagerel $LN4
	DD	imagerel $LN4+114
	DD	imagerel $unwind$_Py_Global
pdata	ENDS
;	COMDAT xdata
xdata	SEGMENT
$unwind$_Py_Global DD 011701H
	DD	06217H
; Function compile flags: /Odtp
xdata	ENDS
;	COMDAT _Py_Global
_TEXT	SEGMENT
p$ = 32
names$ = 64
lineno$ = 72
col_offset$ = 80
arena$ = 88
_Py_Global PROC						; COMDAT

; 1448 : {

$LN4:
  00000	4c 89 4c 24 20	 mov	 QWORD PTR [rsp+32], r9
  00005	44 89 44 24 18	 mov	 DWORD PTR [rsp+24], r8d
  0000a	89 54 24 10	 mov	 DWORD PTR [rsp+16], edx
  0000e	48 89 4c 24 08	 mov	 QWORD PTR [rsp+8], rcx
  00013	48 83 ec 38	 sub	 rsp, 56			; 00000038H

; 1449 :     stmt_ty p;
; 1450 :     p = (stmt_ty)PyArena_Malloc(arena, sizeof(*p));

  00017	ba 48 00 00 00	 mov	 edx, 72			; 00000048H
  0001c	48 8b 4c 24 58	 mov	 rcx, QWORD PTR arena$[rsp]
  00021	e8 00 00 00 00	 call	 PyArena_Malloc
  00026	48 89 44 24 20	 mov	 QWORD PTR p$[rsp], rax

; 1451 :     if (!p)

  0002b	48 83 7c 24 20
	00		 cmp	 QWORD PTR p$[rsp], 0
  00031	75 04		 jne	 SHORT $LN1@Py_Global

; 1452 :         return NULL;

  00033	33 c0		 xor	 eax, eax
  00035	eb 36		 jmp	 SHORT $LN2@Py_Global
$LN1@Py_Global:

; 1453 :     p->kind = Global_kind;

  00037	48 8b 44 24 20	 mov	 rax, QWORD PTR p$[rsp]
  0003c	c7 00 10 00 00
	00		 mov	 DWORD PTR [rax], 16

; 1454 :     p->v.Global.names = names;

  00042	48 8b 44 24 20	 mov	 rax, QWORD PTR p$[rsp]
  00047	48 8b 4c 24 40	 mov	 rcx, QWORD PTR names$[rsp]
  0004c	48 89 48 08	 mov	 QWORD PTR [rax+8], rcx

; 1455 :     p->lineno = lineno;

  00050	48 8b 44 24 20	 mov	 rax, QWORD PTR p$[rsp]
  00055	8b 4c 24 48	 mov	 ecx, DWORD PTR lineno$[rsp]
  00059	89 48 40	 mov	 DWORD PTR [rax+64], ecx

; 1456 :     p->col_offset = col_offset;

  0005c	48 8b 44 24 20	 mov	 rax, QWORD PTR p$[rsp]
  00061	8b 4c 24 50	 mov	 ecx, DWORD PTR col_offset$[rsp]
  00065	89 48 44	 mov	 DWORD PTR [rax+68], ecx

; 1457 :     return p;

  00068	48 8b 44 24 20	 mov	 rax, QWORD PTR p$[rsp]
$LN2@Py_Global:

; 1458 : }

  0006d	48 83 c4 38	 add	 rsp, 56			; 00000038H
  00071	c3		 ret	 0
_Py_Global ENDP
_TEXT	ENDS
PUBLIC	_Py_Nonlocal
;	COMDAT pdata
pdata	SEGMENT
$pdata$_Py_Nonlocal DD imagerel $LN4
	DD	imagerel $LN4+114
	DD	imagerel $unwind$_Py_Nonlocal
pdata	ENDS
;	COMDAT xdata
xdata	SEGMENT
$unwind$_Py_Nonlocal DD 011701H
	DD	06217H
; Function compile flags: /Odtp
xdata	ENDS
;	COMDAT _Py_Nonlocal
_TEXT	SEGMENT
p$ = 32
names$ = 64
lineno$ = 72
col_offset$ = 80
arena$ = 88
_Py_Nonlocal PROC					; COMDAT

; 1462 : {

$LN4:
  00000	4c 89 4c 24 20	 mov	 QWORD PTR [rsp+32], r9
  00005	44 89 44 24 18	 mov	 DWORD PTR [rsp+24], r8d
  0000a	89 54 24 10	 mov	 DWORD PTR [rsp+16], edx
  0000e	48 89 4c 24 08	 mov	 QWORD PTR [rsp+8], rcx
  00013	48 83 ec 38	 sub	 rsp, 56			; 00000038H

; 1463 :     stmt_ty p;
; 1464 :     p = (stmt_ty)PyArena_Malloc(arena, sizeof(*p));

  00017	ba 48 00 00 00	 mov	 edx, 72			; 00000048H
  0001c	48 8b 4c 24 58	 mov	 rcx, QWORD PTR arena$[rsp]
  00021	e8 00 00 00 00	 call	 PyArena_Malloc
  00026	48 89 44 24 20	 mov	 QWORD PTR p$[rsp], rax

; 1465 :     if (!p)

  0002b	48 83 7c 24 20
	00		 cmp	 QWORD PTR p$[rsp], 0
  00031	75 04		 jne	 SHORT $LN1@Py_Nonloca

; 1466 :         return NULL;

  00033	33 c0		 xor	 eax, eax
  00035	eb 36		 jmp	 SHORT $LN2@Py_Nonloca
$LN1@Py_Nonloca:

; 1467 :     p->kind = Nonlocal_kind;

  00037	48 8b 44 24 20	 mov	 rax, QWORD PTR p$[rsp]
  0003c	c7 00 11 00 00
	00		 mov	 DWORD PTR [rax], 17

; 1468 :     p->v.Nonlocal.names = names;

  00042	48 8b 44 24 20	 mov	 rax, QWORD PTR p$[rsp]
  00047	48 8b 4c 24 40	 mov	 rcx, QWORD PTR names$[rsp]
  0004c	48 89 48 08	 mov	 QWORD PTR [rax+8], rcx

; 1469 :     p->lineno = lineno;

  00050	48 8b 44 24 20	 mov	 rax, QWORD PTR p$[rsp]
  00055	8b 4c 24 48	 mov	 ecx, DWORD PTR lineno$[rsp]
  00059	89 48 40	 mov	 DWORD PTR [rax+64], ecx

; 1470 :     p->col_offset = col_offset;

  0005c	48 8b 44 24 20	 mov	 rax, QWORD PTR p$[rsp]
  00061	8b 4c 24 50	 mov	 ecx, DWORD PTR col_offset$[rsp]
  00065	89 48 44	 mov	 DWORD PTR [rax+68], ecx

; 1471 :     return p;

  00068	48 8b 44 24 20	 mov	 rax, QWORD PTR p$[rsp]
$LN2@Py_Nonloca:

; 1472 : }

  0006d	48 83 c4 38	 add	 rsp, 56			; 00000038H
  00071	c3		 ret	 0
_Py_Nonlocal ENDP
_TEXT	ENDS
PUBLIC	??_C@_0CB@JGMGDPJJ@field?5value?5is?5required?5for?5Expr@ ; `string'
PUBLIC	_Py_Expr
;	COMDAT pdata
pdata	SEGMENT
$pdata$_Py_Expr DD imagerel $LN5
	DD	imagerel $LN5+145
	DD	imagerel $unwind$_Py_Expr
pdata	ENDS
;	COMDAT xdata
xdata	SEGMENT
$unwind$_Py_Expr DD 011701H
	DD	06217H
xdata	ENDS
;	COMDAT ??_C@_0CB@JGMGDPJJ@field?5value?5is?5required?5for?5Expr@
CONST	SEGMENT
??_C@_0CB@JGMGDPJJ@field?5value?5is?5required?5for?5Expr@ DB 'field value'
	DB	' is required for Expr', 00H			; `string'
; Function compile flags: /Odtp
CONST	ENDS
;	COMDAT _Py_Expr
_TEXT	SEGMENT
p$ = 32
value$ = 64
lineno$ = 72
col_offset$ = 80
arena$ = 88
_Py_Expr PROC						; COMDAT

; 1476 : {

$LN5:
  00000	4c 89 4c 24 20	 mov	 QWORD PTR [rsp+32], r9
  00005	44 89 44 24 18	 mov	 DWORD PTR [rsp+24], r8d
  0000a	89 54 24 10	 mov	 DWORD PTR [rsp+16], edx
  0000e	48 89 4c 24 08	 mov	 QWORD PTR [rsp+8], rcx
  00013	48 83 ec 38	 sub	 rsp, 56			; 00000038H

; 1477 :     stmt_ty p;
; 1478 :     if (!value) {

  00017	48 83 7c 24 40
	00		 cmp	 QWORD PTR value$[rsp], 0
  0001d	75 17		 jne	 SHORT $LN2@Py_Expr

; 1479 :         PyErr_SetString(PyExc_ValueError,
; 1480 :                         "field value is required for Expr");

  0001f	48 8d 15 00 00
	00 00		 lea	 rdx, OFFSET FLAT:??_C@_0CB@JGMGDPJJ@field?5value?5is?5required?5for?5Expr@
  00026	48 8b 0d 00 00
	00 00		 mov	 rcx, QWORD PTR PyExc_ValueError
  0002d	e8 00 00 00 00	 call	 PyErr_SetString

; 1481 :         return NULL;

  00032	33 c0		 xor	 eax, eax
  00034	eb 56		 jmp	 SHORT $LN3@Py_Expr
$LN2@Py_Expr:

; 1482 :     }
; 1483 :     p = (stmt_ty)PyArena_Malloc(arena, sizeof(*p));

  00036	ba 48 00 00 00	 mov	 edx, 72			; 00000048H
  0003b	48 8b 4c 24 58	 mov	 rcx, QWORD PTR arena$[rsp]
  00040	e8 00 00 00 00	 call	 PyArena_Malloc
  00045	48 89 44 24 20	 mov	 QWORD PTR p$[rsp], rax

; 1484 :     if (!p)

  0004a	48 83 7c 24 20
	00		 cmp	 QWORD PTR p$[rsp], 0
  00050	75 04		 jne	 SHORT $LN1@Py_Expr

; 1485 :         return NULL;

  00052	33 c0		 xor	 eax, eax
  00054	eb 36		 jmp	 SHORT $LN3@Py_Expr
$LN1@Py_Expr:

; 1486 :     p->kind = Expr_kind;

  00056	48 8b 44 24 20	 mov	 rax, QWORD PTR p$[rsp]
  0005b	c7 00 12 00 00
	00		 mov	 DWORD PTR [rax], 18

; 1487 :     p->v.Expr.value = value;

  00061	48 8b 44 24 20	 mov	 rax, QWORD PTR p$[rsp]
  00066	48 8b 4c 24 40	 mov	 rcx, QWORD PTR value$[rsp]
  0006b	48 89 48 08	 mov	 QWORD PTR [rax+8], rcx

; 1488 :     p->lineno = lineno;

  0006f	48 8b 44 24 20	 mov	 rax, QWORD PTR p$[rsp]
  00074	8b 4c 24 48	 mov	 ecx, DWORD PTR lineno$[rsp]
  00078	89 48 40	 mov	 DWORD PTR [rax+64], ecx

; 1489 :     p->col_offset = col_offset;

  0007b	48 8b 44 24 20	 mov	 rax, QWORD PTR p$[rsp]
  00080	8b 4c 24 50	 mov	 ecx, DWORD PTR col_offset$[rsp]
  00084	89 48 44	 mov	 DWORD PTR [rax+68], ecx

; 1490 :     return p;

  00087	48 8b 44 24 20	 mov	 rax, QWORD PTR p$[rsp]
$LN3@Py_Expr:

; 1491 : }

  0008c	48 83 c4 38	 add	 rsp, 56			; 00000038H
  00090	c3		 ret	 0
_Py_Expr ENDP
_TEXT	ENDS
PUBLIC	_Py_Pass
;	COMDAT pdata
pdata	SEGMENT
$pdata$_Py_Pass DD imagerel $LN4
	DD	imagerel $LN4+94
	DD	imagerel $unwind$_Py_Pass
pdata	ENDS
;	COMDAT xdata
xdata	SEGMENT
$unwind$_Py_Pass DD 011101H
	DD	06211H
; Function compile flags: /Odtp
xdata	ENDS
;	COMDAT _Py_Pass
_TEXT	SEGMENT
p$ = 32
lineno$ = 64
col_offset$ = 72
arena$ = 80
_Py_Pass PROC						; COMDAT

; 1495 : {

$LN4:
  00000	4c 89 44 24 18	 mov	 QWORD PTR [rsp+24], r8
  00005	89 54 24 10	 mov	 DWORD PTR [rsp+16], edx
  00009	89 4c 24 08	 mov	 DWORD PTR [rsp+8], ecx
  0000d	48 83 ec 38	 sub	 rsp, 56			; 00000038H

; 1496 :     stmt_ty p;
; 1497 :     p = (stmt_ty)PyArena_Malloc(arena, sizeof(*p));

  00011	ba 48 00 00 00	 mov	 edx, 72			; 00000048H
  00016	48 8b 4c 24 50	 mov	 rcx, QWORD PTR arena$[rsp]
  0001b	e8 00 00 00 00	 call	 PyArena_Malloc
  00020	48 89 44 24 20	 mov	 QWORD PTR p$[rsp], rax

; 1498 :     if (!p)

  00025	48 83 7c 24 20
	00		 cmp	 QWORD PTR p$[rsp], 0
  0002b	75 04		 jne	 SHORT $LN1@Py_Pass

; 1499 :         return NULL;

  0002d	33 c0		 xor	 eax, eax
  0002f	eb 28		 jmp	 SHORT $LN2@Py_Pass
$LN1@Py_Pass:

; 1500 :     p->kind = Pass_kind;

  00031	48 8b 44 24 20	 mov	 rax, QWORD PTR p$[rsp]
  00036	c7 00 13 00 00
	00		 mov	 DWORD PTR [rax], 19

; 1501 :     p->lineno = lineno;

  0003c	48 8b 44 24 20	 mov	 rax, QWORD PTR p$[rsp]
  00041	8b 4c 24 40	 mov	 ecx, DWORD PTR lineno$[rsp]
  00045	89 48 40	 mov	 DWORD PTR [rax+64], ecx

; 1502 :     p->col_offset = col_offset;

  00048	48 8b 44 24 20	 mov	 rax, QWORD PTR p$[rsp]
  0004d	8b 4c 24 48	 mov	 ecx, DWORD PTR col_offset$[rsp]
  00051	89 48 44	 mov	 DWORD PTR [rax+68], ecx

; 1503 :     return p;

  00054	48 8b 44 24 20	 mov	 rax, QWORD PTR p$[rsp]
$LN2@Py_Pass:

; 1504 : }

  00059	48 83 c4 38	 add	 rsp, 56			; 00000038H
  0005d	c3		 ret	 0
_Py_Pass ENDP
_TEXT	ENDS
PUBLIC	_Py_Break
;	COMDAT pdata
pdata	SEGMENT
$pdata$_Py_Break DD imagerel $LN4
	DD	imagerel $LN4+94
	DD	imagerel $unwind$_Py_Break
pdata	ENDS
;	COMDAT xdata
xdata	SEGMENT
$unwind$_Py_Break DD 011101H
	DD	06211H
; Function compile flags: /Odtp
xdata	ENDS
;	COMDAT _Py_Break
_TEXT	SEGMENT
p$ = 32
lineno$ = 64
col_offset$ = 72
arena$ = 80
_Py_Break PROC						; COMDAT

; 1508 : {

$LN4:
  00000	4c 89 44 24 18	 mov	 QWORD PTR [rsp+24], r8
  00005	89 54 24 10	 mov	 DWORD PTR [rsp+16], edx
  00009	89 4c 24 08	 mov	 DWORD PTR [rsp+8], ecx
  0000d	48 83 ec 38	 sub	 rsp, 56			; 00000038H

; 1509 :     stmt_ty p;
; 1510 :     p = (stmt_ty)PyArena_Malloc(arena, sizeof(*p));

  00011	ba 48 00 00 00	 mov	 edx, 72			; 00000048H
  00016	48 8b 4c 24 50	 mov	 rcx, QWORD PTR arena$[rsp]
  0001b	e8 00 00 00 00	 call	 PyArena_Malloc
  00020	48 89 44 24 20	 mov	 QWORD PTR p$[rsp], rax

; 1511 :     if (!p)

  00025	48 83 7c 24 20
	00		 cmp	 QWORD PTR p$[rsp], 0
  0002b	75 04		 jne	 SHORT $LN1@Py_Break

; 1512 :         return NULL;

  0002d	33 c0		 xor	 eax, eax
  0002f	eb 28		 jmp	 SHORT $LN2@Py_Break
$LN1@Py_Break:

; 1513 :     p->kind = Break_kind;

  00031	48 8b 44 24 20	 mov	 rax, QWORD PTR p$[rsp]
  00036	c7 00 14 00 00
	00		 mov	 DWORD PTR [rax], 20

; 1514 :     p->lineno = lineno;

  0003c	48 8b 44 24 20	 mov	 rax, QWORD PTR p$[rsp]
  00041	8b 4c 24 40	 mov	 ecx, DWORD PTR lineno$[rsp]
  00045	89 48 40	 mov	 DWORD PTR [rax+64], ecx

; 1515 :     p->col_offset = col_offset;

  00048	48 8b 44 24 20	 mov	 rax, QWORD PTR p$[rsp]
  0004d	8b 4c 24 48	 mov	 ecx, DWORD PTR col_offset$[rsp]
  00051	89 48 44	 mov	 DWORD PTR [rax+68], ecx

; 1516 :     return p;

  00054	48 8b 44 24 20	 mov	 rax, QWORD PTR p$[rsp]
$LN2@Py_Break:

; 1517 : }

  00059	48 83 c4 38	 add	 rsp, 56			; 00000038H
  0005d	c3		 ret	 0
_Py_Break ENDP
_TEXT	ENDS
PUBLIC	_Py_Continue
;	COMDAT pdata
pdata	SEGMENT
$pdata$_Py_Continue DD imagerel $LN4
	DD	imagerel $LN4+94
	DD	imagerel $unwind$_Py_Continue
pdata	ENDS
;	COMDAT xdata
xdata	SEGMENT
$unwind$_Py_Continue DD 011101H
	DD	06211H
; Function compile flags: /Odtp
xdata	ENDS
;	COMDAT _Py_Continue
_TEXT	SEGMENT
p$ = 32
lineno$ = 64
col_offset$ = 72
arena$ = 80
_Py_Continue PROC					; COMDAT

; 1521 : {

$LN4:
  00000	4c 89 44 24 18	 mov	 QWORD PTR [rsp+24], r8
  00005	89 54 24 10	 mov	 DWORD PTR [rsp+16], edx
  00009	89 4c 24 08	 mov	 DWORD PTR [rsp+8], ecx
  0000d	48 83 ec 38	 sub	 rsp, 56			; 00000038H

; 1522 :     stmt_ty p;
; 1523 :     p = (stmt_ty)PyArena_Malloc(arena, sizeof(*p));

  00011	ba 48 00 00 00	 mov	 edx, 72			; 00000048H
  00016	48 8b 4c 24 50	 mov	 rcx, QWORD PTR arena$[rsp]
  0001b	e8 00 00 00 00	 call	 PyArena_Malloc
  00020	48 89 44 24 20	 mov	 QWORD PTR p$[rsp], rax

; 1524 :     if (!p)

  00025	48 83 7c 24 20
	00		 cmp	 QWORD PTR p$[rsp], 0
  0002b	75 04		 jne	 SHORT $LN1@Py_Continu

; 1525 :         return NULL;

  0002d	33 c0		 xor	 eax, eax
  0002f	eb 28		 jmp	 SHORT $LN2@Py_Continu
$LN1@Py_Continu:

; 1526 :     p->kind = Continue_kind;

  00031	48 8b 44 24 20	 mov	 rax, QWORD PTR p$[rsp]
  00036	c7 00 15 00 00
	00		 mov	 DWORD PTR [rax], 21

; 1527 :     p->lineno = lineno;

  0003c	48 8b 44 24 20	 mov	 rax, QWORD PTR p$[rsp]
  00041	8b 4c 24 40	 mov	 ecx, DWORD PTR lineno$[rsp]
  00045	89 48 40	 mov	 DWORD PTR [rax+64], ecx

; 1528 :     p->col_offset = col_offset;

  00048	48 8b 44 24 20	 mov	 rax, QWORD PTR p$[rsp]
  0004d	8b 4c 24 48	 mov	 ecx, DWORD PTR col_offset$[rsp]
  00051	89 48 44	 mov	 DWORD PTR [rax+68], ecx

; 1529 :     return p;

  00054	48 8b 44 24 20	 mov	 rax, QWORD PTR p$[rsp]
$LN2@Py_Continu:

; 1530 : }

  00059	48 83 c4 38	 add	 rsp, 56			; 00000038H
  0005d	c3		 ret	 0
_Py_Continue ENDP
_TEXT	ENDS
PUBLIC	??_C@_0CA@HGKOCBOP@field?5op?5is?5required?5for?5BoolOp?$AA@ ; `string'
PUBLIC	_Py_BoolOp
;	COMDAT pdata
pdata	SEGMENT
$pdata$_Py_BoolOp DD imagerel $LN5
	DD	imagerel $LN5+156
	DD	imagerel $unwind$_Py_BoolOp
pdata	ENDS
;	COMDAT xdata
xdata	SEGMENT
$unwind$_Py_BoolOp DD 011701H
	DD	06217H
xdata	ENDS
;	COMDAT ??_C@_0CA@HGKOCBOP@field?5op?5is?5required?5for?5BoolOp?$AA@
CONST	SEGMENT
??_C@_0CA@HGKOCBOP@field?5op?5is?5required?5for?5BoolOp?$AA@ DB 'field op'
	DB	' is required for BoolOp', 00H		; `string'
; Function compile flags: /Odtp
CONST	ENDS
;	COMDAT _Py_BoolOp
_TEXT	SEGMENT
p$ = 32
op$ = 64
values$ = 72
lineno$ = 80
col_offset$ = 88
arena$ = 96
_Py_BoolOp PROC						; COMDAT

; 1535 : {

$LN5:
  00000	44 89 4c 24 20	 mov	 DWORD PTR [rsp+32], r9d
  00005	44 89 44 24 18	 mov	 DWORD PTR [rsp+24], r8d
  0000a	48 89 54 24 10	 mov	 QWORD PTR [rsp+16], rdx
  0000f	89 4c 24 08	 mov	 DWORD PTR [rsp+8], ecx
  00013	48 83 ec 38	 sub	 rsp, 56			; 00000038H

; 1536 :     expr_ty p;
; 1537 :     if (!op) {

  00017	83 7c 24 40 00	 cmp	 DWORD PTR op$[rsp], 0
  0001c	75 17		 jne	 SHORT $LN2@Py_BoolOp

; 1538 :         PyErr_SetString(PyExc_ValueError,
; 1539 :                         "field op is required for BoolOp");

  0001e	48 8d 15 00 00
	00 00		 lea	 rdx, OFFSET FLAT:??_C@_0CA@HGKOCBOP@field?5op?5is?5required?5for?5BoolOp?$AA@
  00025	48 8b 0d 00 00
	00 00		 mov	 rcx, QWORD PTR PyExc_ValueError
  0002c	e8 00 00 00 00	 call	 PyErr_SetString

; 1540 :         return NULL;

  00031	33 c0		 xor	 eax, eax
  00033	eb 62		 jmp	 SHORT $LN3@Py_BoolOp
$LN2@Py_BoolOp:

; 1541 :     }
; 1542 :     p = (expr_ty)PyArena_Malloc(arena, sizeof(*p));

  00035	ba 38 00 00 00	 mov	 edx, 56			; 00000038H
  0003a	48 8b 4c 24 60	 mov	 rcx, QWORD PTR arena$[rsp]
  0003f	e8 00 00 00 00	 call	 PyArena_Malloc
  00044	48 89 44 24 20	 mov	 QWORD PTR p$[rsp], rax

; 1543 :     if (!p)

  00049	48 83 7c 24 20
	00		 cmp	 QWORD PTR p$[rsp], 0
  0004f	75 04		 jne	 SHORT $LN1@Py_BoolOp

; 1544 :         return NULL;

  00051	33 c0		 xor	 eax, eax
  00053	eb 42		 jmp	 SHORT $LN3@Py_BoolOp
$LN1@Py_BoolOp:

; 1545 :     p->kind = BoolOp_kind;

  00055	48 8b 44 24 20	 mov	 rax, QWORD PTR p$[rsp]
  0005a	c7 00 01 00 00
	00		 mov	 DWORD PTR [rax], 1

; 1546 :     p->v.BoolOp.op = op;

  00060	48 8b 44 24 20	 mov	 rax, QWORD PTR p$[rsp]
  00065	8b 4c 24 40	 mov	 ecx, DWORD PTR op$[rsp]
  00069	89 48 08	 mov	 DWORD PTR [rax+8], ecx

; 1547 :     p->v.BoolOp.values = values;

  0006c	48 8b 44 24 20	 mov	 rax, QWORD PTR p$[rsp]
  00071	48 8b 4c 24 48	 mov	 rcx, QWORD PTR values$[rsp]
  00076	48 89 48 10	 mov	 QWORD PTR [rax+16], rcx

; 1548 :     p->lineno = lineno;

  0007a	48 8b 44 24 20	 mov	 rax, QWORD PTR p$[rsp]
  0007f	8b 4c 24 50	 mov	 ecx, DWORD PTR lineno$[rsp]
  00083	89 48 30	 mov	 DWORD PTR [rax+48], ecx

; 1549 :     p->col_offset = col_offset;

  00086	48 8b 44 24 20	 mov	 rax, QWORD PTR p$[rsp]
  0008b	8b 4c 24 58	 mov	 ecx, DWORD PTR col_offset$[rsp]
  0008f	89 48 34	 mov	 DWORD PTR [rax+52], ecx

; 1550 :     return p;

  00092	48 8b 44 24 20	 mov	 rax, QWORD PTR p$[rsp]
$LN3@Py_BoolOp:

; 1551 : }

  00097	48 83 c4 38	 add	 rsp, 56			; 00000038H
  0009b	c3		 ret	 0
_Py_BoolOp ENDP
_TEXT	ENDS
PUBLIC	??_C@_0CC@MNMFNKEA@field?5right?5is?5required?5for?5BinO@ ; `string'
PUBLIC	??_C@_0BP@HHEMEODM@field?5op?5is?5required?5for?5BinOp?$AA@ ; `string'
PUBLIC	??_C@_0CB@MGLKCGGJ@field?5left?5is?5required?5for?5BinOp@ ; `string'
PUBLIC	_Py_BinOp
;	COMDAT pdata
pdata	SEGMENT
$pdata$_Py_BinOp DD imagerel $LN7
	DD	imagerel $LN7+238
	DD	imagerel $unwind$_Py_BinOp
pdata	ENDS
;	COMDAT xdata
xdata	SEGMENT
$unwind$_Py_BinOp DD 011701H
	DD	06217H
xdata	ENDS
;	COMDAT ??_C@_0CC@MNMFNKEA@field?5right?5is?5required?5for?5BinO@
CONST	SEGMENT
??_C@_0CC@MNMFNKEA@field?5right?5is?5required?5for?5BinO@ DB 'field right'
	DB	' is required for BinOp', 00H		; `string'
CONST	ENDS
;	COMDAT ??_C@_0BP@HHEMEODM@field?5op?5is?5required?5for?5BinOp?$AA@
CONST	SEGMENT
??_C@_0BP@HHEMEODM@field?5op?5is?5required?5for?5BinOp?$AA@ DB 'field op '
	DB	'is required for BinOp', 00H			; `string'
CONST	ENDS
;	COMDAT ??_C@_0CB@MGLKCGGJ@field?5left?5is?5required?5for?5BinOp@
CONST	SEGMENT
??_C@_0CB@MGLKCGGJ@field?5left?5is?5required?5for?5BinOp@ DB 'field left '
	DB	'is required for BinOp', 00H			; `string'
; Function compile flags: /Odtp
CONST	ENDS
;	COMDAT _Py_BinOp
_TEXT	SEGMENT
p$ = 32
left$ = 64
op$ = 72
right$ = 80
lineno$ = 88
col_offset$ = 96
arena$ = 104
_Py_BinOp PROC						; COMDAT

; 1556 : {

$LN7:
  00000	44 89 4c 24 20	 mov	 DWORD PTR [rsp+32], r9d
  00005	4c 89 44 24 18	 mov	 QWORD PTR [rsp+24], r8
  0000a	89 54 24 10	 mov	 DWORD PTR [rsp+16], edx
  0000e	48 89 4c 24 08	 mov	 QWORD PTR [rsp+8], rcx
  00013	48 83 ec 38	 sub	 rsp, 56			; 00000038H

; 1557 :     expr_ty p;
; 1558 :     if (!left) {

  00017	48 83 7c 24 40
	00		 cmp	 QWORD PTR left$[rsp], 0
  0001d	75 1a		 jne	 SHORT $LN4@Py_BinOp

; 1559 :         PyErr_SetString(PyExc_ValueError,
; 1560 :                         "field left is required for BinOp");

  0001f	48 8d 15 00 00
	00 00		 lea	 rdx, OFFSET FLAT:??_C@_0CB@MGLKCGGJ@field?5left?5is?5required?5for?5BinOp@
  00026	48 8b 0d 00 00
	00 00		 mov	 rcx, QWORD PTR PyExc_ValueError
  0002d	e8 00 00 00 00	 call	 PyErr_SetString

; 1561 :         return NULL;

  00032	33 c0		 xor	 eax, eax
  00034	e9 b0 00 00 00	 jmp	 $LN5@Py_BinOp
$LN4@Py_BinOp:

; 1562 :     }
; 1563 :     if (!op) {

  00039	83 7c 24 48 00	 cmp	 DWORD PTR op$[rsp], 0
  0003e	75 1a		 jne	 SHORT $LN3@Py_BinOp

; 1564 :         PyErr_SetString(PyExc_ValueError,
; 1565 :                         "field op is required for BinOp");

  00040	48 8d 15 00 00
	00 00		 lea	 rdx, OFFSET FLAT:??_C@_0BP@HHEMEODM@field?5op?5is?5required?5for?5BinOp?$AA@
  00047	48 8b 0d 00 00
	00 00		 mov	 rcx, QWORD PTR PyExc_ValueError
  0004e	e8 00 00 00 00	 call	 PyErr_SetString

; 1566 :         return NULL;

  00053	33 c0		 xor	 eax, eax
  00055	e9 8f 00 00 00	 jmp	 $LN5@Py_BinOp
$LN3@Py_BinOp:

; 1567 :     }
; 1568 :     if (!right) {

  0005a	48 83 7c 24 50
	00		 cmp	 QWORD PTR right$[rsp], 0
  00060	75 17		 jne	 SHORT $LN2@Py_BinOp

; 1569 :         PyErr_SetString(PyExc_ValueError,
; 1570 :                         "field right is required for BinOp");

  00062	48 8d 15 00 00
	00 00		 lea	 rdx, OFFSET FLAT:??_C@_0CC@MNMFNKEA@field?5right?5is?5required?5for?5BinO@
  00069	48 8b 0d 00 00
	00 00		 mov	 rcx, QWORD PTR PyExc_ValueError
  00070	e8 00 00 00 00	 call	 PyErr_SetString

; 1571 :         return NULL;

  00075	33 c0		 xor	 eax, eax
  00077	eb 70		 jmp	 SHORT $LN5@Py_BinOp
$LN2@Py_BinOp:

; 1572 :     }
; 1573 :     p = (expr_ty)PyArena_Malloc(arena, sizeof(*p));

  00079	ba 38 00 00 00	 mov	 edx, 56			; 00000038H
  0007e	48 8b 4c 24 68	 mov	 rcx, QWORD PTR arena$[rsp]
  00083	e8 00 00 00 00	 call	 PyArena_Malloc
  00088	48 89 44 24 20	 mov	 QWORD PTR p$[rsp], rax

; 1574 :     if (!p)

  0008d	48 83 7c 24 20
	00		 cmp	 QWORD PTR p$[rsp], 0
  00093	75 04		 jne	 SHORT $LN1@Py_BinOp

; 1575 :         return NULL;

  00095	33 c0		 xor	 eax, eax
  00097	eb 50		 jmp	 SHORT $LN5@Py_BinOp
$LN1@Py_BinOp:

; 1576 :     p->kind = BinOp_kind;

  00099	48 8b 44 24 20	 mov	 rax, QWORD PTR p$[rsp]
  0009e	c7 00 02 00 00
	00		 mov	 DWORD PTR [rax], 2

; 1577 :     p->v.BinOp.left = left;

  000a4	48 8b 44 24 20	 mov	 rax, QWORD PTR p$[rsp]
  000a9	48 8b 4c 24 40	 mov	 rcx, QWORD PTR left$[rsp]
  000ae	48 89 48 08	 mov	 QWORD PTR [rax+8], rcx

; 1578 :     p->v.BinOp.op = op;

  000b2	48 8b 44 24 20	 mov	 rax, QWORD PTR p$[rsp]
  000b7	8b 4c 24 48	 mov	 ecx, DWORD PTR op$[rsp]
  000bb	89 48 10	 mov	 DWORD PTR [rax+16], ecx

; 1579 :     p->v.BinOp.right = right;

  000be	48 8b 44 24 20	 mov	 rax, QWORD PTR p$[rsp]
  000c3	48 8b 4c 24 50	 mov	 rcx, QWORD PTR right$[rsp]
  000c8	48 89 48 18	 mov	 QWORD PTR [rax+24], rcx

; 1580 :     p->lineno = lineno;

  000cc	48 8b 44 24 20	 mov	 rax, QWORD PTR p$[rsp]
  000d1	8b 4c 24 58	 mov	 ecx, DWORD PTR lineno$[rsp]
  000d5	89 48 30	 mov	 DWORD PTR [rax+48], ecx

; 1581 :     p->col_offset = col_offset;

  000d8	48 8b 44 24 20	 mov	 rax, QWORD PTR p$[rsp]
  000dd	8b 4c 24 60	 mov	 ecx, DWORD PTR col_offset$[rsp]
  000e1	89 48 34	 mov	 DWORD PTR [rax+52], ecx

; 1582 :     return p;

  000e4	48 8b 44 24 20	 mov	 rax, QWORD PTR p$[rsp]
$LN5@Py_BinOp:

; 1583 : }

  000e9	48 83 c4 38	 add	 rsp, 56			; 00000038H
  000ed	c3		 ret	 0
_Py_BinOp ENDP
_TEXT	ENDS
PUBLIC	??_C@_0CG@PMECGNPL@field?5operand?5is?5required?5for?5Un@ ; `string'
PUBLIC	??_C@_0CB@NAFIFGPL@field?5op?5is?5required?5for?5UnaryOp@ ; `string'
PUBLIC	_Py_UnaryOp
;	COMDAT pdata
pdata	SEGMENT
$pdata$_Py_UnaryOp DD imagerel $LN6
	DD	imagerel $LN6+190
	DD	imagerel $unwind$_Py_UnaryOp
pdata	ENDS
;	COMDAT xdata
xdata	SEGMENT
$unwind$_Py_UnaryOp DD 011701H
	DD	06217H
xdata	ENDS
;	COMDAT ??_C@_0CG@PMECGNPL@field?5operand?5is?5required?5for?5Un@
CONST	SEGMENT
??_C@_0CG@PMECGNPL@field?5operand?5is?5required?5for?5Un@ DB 'field opera'
	DB	'nd is required for UnaryOp', 00H		; `string'
CONST	ENDS
;	COMDAT ??_C@_0CB@NAFIFGPL@field?5op?5is?5required?5for?5UnaryOp@
CONST	SEGMENT
??_C@_0CB@NAFIFGPL@field?5op?5is?5required?5for?5UnaryOp@ DB 'field op is'
	DB	' required for UnaryOp', 00H			; `string'
; Function compile flags: /Odtp
CONST	ENDS
;	COMDAT _Py_UnaryOp
_TEXT	SEGMENT
p$ = 32
op$ = 64
operand$ = 72
lineno$ = 80
col_offset$ = 88
arena$ = 96
_Py_UnaryOp PROC					; COMDAT

; 1588 : {

$LN6:
  00000	44 89 4c 24 20	 mov	 DWORD PTR [rsp+32], r9d
  00005	44 89 44 24 18	 mov	 DWORD PTR [rsp+24], r8d
  0000a	48 89 54 24 10	 mov	 QWORD PTR [rsp+16], rdx
  0000f	89 4c 24 08	 mov	 DWORD PTR [rsp+8], ecx
  00013	48 83 ec 38	 sub	 rsp, 56			; 00000038H

; 1589 :     expr_ty p;
; 1590 :     if (!op) {

  00017	83 7c 24 40 00	 cmp	 DWORD PTR op$[rsp], 0
  0001c	75 1a		 jne	 SHORT $LN3@Py_UnaryOp

; 1591 :         PyErr_SetString(PyExc_ValueError,
; 1592 :                         "field op is required for UnaryOp");

  0001e	48 8d 15 00 00
	00 00		 lea	 rdx, OFFSET FLAT:??_C@_0CB@NAFIFGPL@field?5op?5is?5required?5for?5UnaryOp@
  00025	48 8b 0d 00 00
	00 00		 mov	 rcx, QWORD PTR PyExc_ValueError
  0002c	e8 00 00 00 00	 call	 PyErr_SetString

; 1593 :         return NULL;

  00031	33 c0		 xor	 eax, eax
  00033	e9 81 00 00 00	 jmp	 $LN4@Py_UnaryOp
$LN3@Py_UnaryOp:

; 1594 :     }
; 1595 :     if (!operand) {

  00038	48 83 7c 24 48
	00		 cmp	 QWORD PTR operand$[rsp], 0
  0003e	75 17		 jne	 SHORT $LN2@Py_UnaryOp

; 1596 :         PyErr_SetString(PyExc_ValueError,
; 1597 :                         "field operand is required for UnaryOp");

  00040	48 8d 15 00 00
	00 00		 lea	 rdx, OFFSET FLAT:??_C@_0CG@PMECGNPL@field?5operand?5is?5required?5for?5Un@
  00047	48 8b 0d 00 00
	00 00		 mov	 rcx, QWORD PTR PyExc_ValueError
  0004e	e8 00 00 00 00	 call	 PyErr_SetString

; 1598 :         return NULL;

  00053	33 c0		 xor	 eax, eax
  00055	eb 62		 jmp	 SHORT $LN4@Py_UnaryOp
$LN2@Py_UnaryOp:

; 1599 :     }
; 1600 :     p = (expr_ty)PyArena_Malloc(arena, sizeof(*p));

  00057	ba 38 00 00 00	 mov	 edx, 56			; 00000038H
  0005c	48 8b 4c 24 60	 mov	 rcx, QWORD PTR arena$[rsp]
  00061	e8 00 00 00 00	 call	 PyArena_Malloc
  00066	48 89 44 24 20	 mov	 QWORD PTR p$[rsp], rax

; 1601 :     if (!p)

  0006b	48 83 7c 24 20
	00		 cmp	 QWORD PTR p$[rsp], 0
  00071	75 04		 jne	 SHORT $LN1@Py_UnaryOp

; 1602 :         return NULL;

  00073	33 c0		 xor	 eax, eax
  00075	eb 42		 jmp	 SHORT $LN4@Py_UnaryOp
$LN1@Py_UnaryOp:

; 1603 :     p->kind = UnaryOp_kind;

  00077	48 8b 44 24 20	 mov	 rax, QWORD PTR p$[rsp]
  0007c	c7 00 03 00 00
	00		 mov	 DWORD PTR [rax], 3

; 1604 :     p->v.UnaryOp.op = op;

  00082	48 8b 44 24 20	 mov	 rax, QWORD PTR p$[rsp]
  00087	8b 4c 24 40	 mov	 ecx, DWORD PTR op$[rsp]
  0008b	89 48 08	 mov	 DWORD PTR [rax+8], ecx

; 1605 :     p->v.UnaryOp.operand = operand;

  0008e	48 8b 44 24 20	 mov	 rax, QWORD PTR p$[rsp]
  00093	48 8b 4c 24 48	 mov	 rcx, QWORD PTR operand$[rsp]
  00098	48 89 48 10	 mov	 QWORD PTR [rax+16], rcx

; 1606 :     p->lineno = lineno;

  0009c	48 8b 44 24 20	 mov	 rax, QWORD PTR p$[rsp]
  000a1	8b 4c 24 50	 mov	 ecx, DWORD PTR lineno$[rsp]
  000a5	89 48 30	 mov	 DWORD PTR [rax+48], ecx

; 1607 :     p->col_offset = col_offset;

  000a8	48 8b 44 24 20	 mov	 rax, QWORD PTR p$[rsp]
  000ad	8b 4c 24 58	 mov	 ecx, DWORD PTR col_offset$[rsp]
  000b1	89 48 34	 mov	 DWORD PTR [rax+52], ecx

; 1608 :     return p;

  000b4	48 8b 44 24 20	 mov	 rax, QWORD PTR p$[rsp]
$LN4@Py_UnaryOp:

; 1609 : }

  000b9	48 83 c4 38	 add	 rsp, 56			; 00000038H
  000bd	c3		 ret	 0
_Py_UnaryOp ENDP
_TEXT	ENDS
PUBLIC	??_C@_0CC@IKALMCBA@field?5body?5is?5required?5for?5Lambd@ ; `string'
PUBLIC	??_C@_0CC@FFNEJAPO@field?5args?5is?5required?5for?5Lambd@ ; `string'
PUBLIC	_Py_Lambda
;	COMDAT pdata
pdata	SEGMENT
$pdata$_Py_Lambda DD imagerel $LN6
	DD	imagerel $LN6+194
	DD	imagerel $unwind$_Py_Lambda
pdata	ENDS
;	COMDAT xdata
xdata	SEGMENT
$unwind$_Py_Lambda DD 011801H
	DD	06218H
xdata	ENDS
;	COMDAT ??_C@_0CC@IKALMCBA@field?5body?5is?5required?5for?5Lambd@
CONST	SEGMENT
??_C@_0CC@IKALMCBA@field?5body?5is?5required?5for?5Lambd@ DB 'field body '
	DB	'is required for Lambda', 00H		; `string'
CONST	ENDS
;	COMDAT ??_C@_0CC@FFNEJAPO@field?5args?5is?5required?5for?5Lambd@
CONST	SEGMENT
??_C@_0CC@FFNEJAPO@field?5args?5is?5required?5for?5Lambd@ DB 'field args '
	DB	'is required for Lambda', 00H		; `string'
; Function compile flags: /Odtp
CONST	ENDS
;	COMDAT _Py_Lambda
_TEXT	SEGMENT
p$ = 32
args$ = 64
body$ = 72
lineno$ = 80
col_offset$ = 88
arena$ = 96
_Py_Lambda PROC						; COMDAT

; 1614 : {

$LN6:
  00000	44 89 4c 24 20	 mov	 DWORD PTR [rsp+32], r9d
  00005	44 89 44 24 18	 mov	 DWORD PTR [rsp+24], r8d
  0000a	48 89 54 24 10	 mov	 QWORD PTR [rsp+16], rdx
  0000f	48 89 4c 24 08	 mov	 QWORD PTR [rsp+8], rcx
  00014	48 83 ec 38	 sub	 rsp, 56			; 00000038H

; 1615 :     expr_ty p;
; 1616 :     if (!args) {

  00018	48 83 7c 24 40
	00		 cmp	 QWORD PTR args$[rsp], 0
  0001e	75 1a		 jne	 SHORT $LN3@Py_Lambda

; 1617 :         PyErr_SetString(PyExc_ValueError,
; 1618 :                         "field args is required for Lambda");

  00020	48 8d 15 00 00
	00 00		 lea	 rdx, OFFSET FLAT:??_C@_0CC@FFNEJAPO@field?5args?5is?5required?5for?5Lambd@
  00027	48 8b 0d 00 00
	00 00		 mov	 rcx, QWORD PTR PyExc_ValueError
  0002e	e8 00 00 00 00	 call	 PyErr_SetString

; 1619 :         return NULL;

  00033	33 c0		 xor	 eax, eax
  00035	e9 83 00 00 00	 jmp	 $LN4@Py_Lambda
$LN3@Py_Lambda:

; 1620 :     }
; 1621 :     if (!body) {

  0003a	48 83 7c 24 48
	00		 cmp	 QWORD PTR body$[rsp], 0
  00040	75 17		 jne	 SHORT $LN2@Py_Lambda

; 1622 :         PyErr_SetString(PyExc_ValueError,
; 1623 :                         "field body is required for Lambda");

  00042	48 8d 15 00 00
	00 00		 lea	 rdx, OFFSET FLAT:??_C@_0CC@IKALMCBA@field?5body?5is?5required?5for?5Lambd@
  00049	48 8b 0d 00 00
	00 00		 mov	 rcx, QWORD PTR PyExc_ValueError
  00050	e8 00 00 00 00	 call	 PyErr_SetString

; 1624 :         return NULL;

  00055	33 c0		 xor	 eax, eax
  00057	eb 64		 jmp	 SHORT $LN4@Py_Lambda
$LN2@Py_Lambda:

; 1625 :     }
; 1626 :     p = (expr_ty)PyArena_Malloc(arena, sizeof(*p));

  00059	ba 38 00 00 00	 mov	 edx, 56			; 00000038H
  0005e	48 8b 4c 24 60	 mov	 rcx, QWORD PTR arena$[rsp]
  00063	e8 00 00 00 00	 call	 PyArena_Malloc
  00068	48 89 44 24 20	 mov	 QWORD PTR p$[rsp], rax

; 1627 :     if (!p)

  0006d	48 83 7c 24 20
	00		 cmp	 QWORD PTR p$[rsp], 0
  00073	75 04		 jne	 SHORT $LN1@Py_Lambda

; 1628 :         return NULL;

  00075	33 c0		 xor	 eax, eax
  00077	eb 44		 jmp	 SHORT $LN4@Py_Lambda
$LN1@Py_Lambda:

; 1629 :     p->kind = Lambda_kind;

  00079	48 8b 44 24 20	 mov	 rax, QWORD PTR p$[rsp]
  0007e	c7 00 04 00 00
	00		 mov	 DWORD PTR [rax], 4

; 1630 :     p->v.Lambda.args = args;

  00084	48 8b 44 24 20	 mov	 rax, QWORD PTR p$[rsp]
  00089	48 8b 4c 24 40	 mov	 rcx, QWORD PTR args$[rsp]
  0008e	48 89 48 08	 mov	 QWORD PTR [rax+8], rcx

; 1631 :     p->v.Lambda.body = body;

  00092	48 8b 44 24 20	 mov	 rax, QWORD PTR p$[rsp]
  00097	48 8b 4c 24 48	 mov	 rcx, QWORD PTR body$[rsp]
  0009c	48 89 48 10	 mov	 QWORD PTR [rax+16], rcx

; 1632 :     p->lineno = lineno;

  000a0	48 8b 44 24 20	 mov	 rax, QWORD PTR p$[rsp]
  000a5	8b 4c 24 50	 mov	 ecx, DWORD PTR lineno$[rsp]
  000a9	89 48 30	 mov	 DWORD PTR [rax+48], ecx

; 1633 :     p->col_offset = col_offset;

  000ac	48 8b 44 24 20	 mov	 rax, QWORD PTR p$[rsp]
  000b1	8b 4c 24 58	 mov	 ecx, DWORD PTR col_offset$[rsp]
  000b5	89 48 34	 mov	 DWORD PTR [rax+52], ecx

; 1634 :     return p;

  000b8	48 8b 44 24 20	 mov	 rax, QWORD PTR p$[rsp]
$LN4@Py_Lambda:

; 1635 : }

  000bd	48 83 c4 38	 add	 rsp, 56			; 00000038H
  000c1	c3		 ret	 0
_Py_Lambda ENDP
_TEXT	ENDS
PUBLIC	??_C@_0CD@CGAONIEH@field?5orelse?5is?5required?5for?5IfE@ ; `string'
PUBLIC	??_C@_0CB@OMMKJGFE@field?5body?5is?5required?5for?5IfExp@ ; `string'
PUBLIC	??_C@_0CB@OCONBKBF@field?5test?5is?5required?5for?5IfExp@ ; `string'
PUBLIC	_Py_IfExp
;	COMDAT pdata
pdata	SEGMENT
$pdata$_Py_IfExp DD imagerel $LN7
	DD	imagerel $LN7+242
	DD	imagerel $unwind$_Py_IfExp
pdata	ENDS
;	COMDAT xdata
xdata	SEGMENT
$unwind$_Py_IfExp DD 011801H
	DD	06218H
xdata	ENDS
;	COMDAT ??_C@_0CD@CGAONIEH@field?5orelse?5is?5required?5for?5IfE@
CONST	SEGMENT
??_C@_0CD@CGAONIEH@field?5orelse?5is?5required?5for?5IfE@ DB 'field orels'
	DB	'e is required for IfExp', 00H		; `string'
CONST	ENDS
;	COMDAT ??_C@_0CB@OMMKJGFE@field?5body?5is?5required?5for?5IfExp@
CONST	SEGMENT
??_C@_0CB@OMMKJGFE@field?5body?5is?5required?5for?5IfExp@ DB 'field body '
	DB	'is required for IfExp', 00H			; `string'
CONST	ENDS
;	COMDAT ??_C@_0CB@OCONBKBF@field?5test?5is?5required?5for?5IfExp@
CONST	SEGMENT
??_C@_0CB@OCONBKBF@field?5test?5is?5required?5for?5IfExp@ DB 'field test '
	DB	'is required for IfExp', 00H			; `string'
; Function compile flags: /Odtp
CONST	ENDS
;	COMDAT _Py_IfExp
_TEXT	SEGMENT
p$ = 32
test$ = 64
body$ = 72
orelse$ = 80
lineno$ = 88
col_offset$ = 96
arena$ = 104
_Py_IfExp PROC						; COMDAT

; 1640 : {

$LN7:
  00000	44 89 4c 24 20	 mov	 DWORD PTR [rsp+32], r9d
  00005	4c 89 44 24 18	 mov	 QWORD PTR [rsp+24], r8
  0000a	48 89 54 24 10	 mov	 QWORD PTR [rsp+16], rdx
  0000f	48 89 4c 24 08	 mov	 QWORD PTR [rsp+8], rcx
  00014	48 83 ec 38	 sub	 rsp, 56			; 00000038H

; 1641 :     expr_ty p;
; 1642 :     if (!test) {

  00018	48 83 7c 24 40
	00		 cmp	 QWORD PTR test$[rsp], 0
  0001e	75 1a		 jne	 SHORT $LN4@Py_IfExp

; 1643 :         PyErr_SetString(PyExc_ValueError,
; 1644 :                         "field test is required for IfExp");

  00020	48 8d 15 00 00
	00 00		 lea	 rdx, OFFSET FLAT:??_C@_0CB@OCONBKBF@field?5test?5is?5required?5for?5IfExp@
  00027	48 8b 0d 00 00
	00 00		 mov	 rcx, QWORD PTR PyExc_ValueError
  0002e	e8 00 00 00 00	 call	 PyErr_SetString

; 1645 :         return NULL;

  00033	33 c0		 xor	 eax, eax
  00035	e9 b3 00 00 00	 jmp	 $LN5@Py_IfExp
$LN4@Py_IfExp:

; 1646 :     }
; 1647 :     if (!body) {

  0003a	48 83 7c 24 48
	00		 cmp	 QWORD PTR body$[rsp], 0
  00040	75 1a		 jne	 SHORT $LN3@Py_IfExp

; 1648 :         PyErr_SetString(PyExc_ValueError,
; 1649 :                         "field body is required for IfExp");

  00042	48 8d 15 00 00
	00 00		 lea	 rdx, OFFSET FLAT:??_C@_0CB@OMMKJGFE@field?5body?5is?5required?5for?5IfExp@
  00049	48 8b 0d 00 00
	00 00		 mov	 rcx, QWORD PTR PyExc_ValueError
  00050	e8 00 00 00 00	 call	 PyErr_SetString

; 1650 :         return NULL;

  00055	33 c0		 xor	 eax, eax
  00057	e9 91 00 00 00	 jmp	 $LN5@Py_IfExp
$LN3@Py_IfExp:

; 1651 :     }
; 1652 :     if (!orelse) {

  0005c	48 83 7c 24 50
	00		 cmp	 QWORD PTR orelse$[rsp], 0
  00062	75 17		 jne	 SHORT $LN2@Py_IfExp

; 1653 :         PyErr_SetString(PyExc_ValueError,
; 1654 :                         "field orelse is required for IfExp");

  00064	48 8d 15 00 00
	00 00		 lea	 rdx, OFFSET FLAT:??_C@_0CD@CGAONIEH@field?5orelse?5is?5required?5for?5IfE@
  0006b	48 8b 0d 00 00
	00 00		 mov	 rcx, QWORD PTR PyExc_ValueError
  00072	e8 00 00 00 00	 call	 PyErr_SetString

; 1655 :         return NULL;

  00077	33 c0		 xor	 eax, eax
  00079	eb 72		 jmp	 SHORT $LN5@Py_IfExp
$LN2@Py_IfExp:

; 1656 :     }
; 1657 :     p = (expr_ty)PyArena_Malloc(arena, sizeof(*p));

  0007b	ba 38 00 00 00	 mov	 edx, 56			; 00000038H
  00080	48 8b 4c 24 68	 mov	 rcx, QWORD PTR arena$[rsp]
  00085	e8 00 00 00 00	 call	 PyArena_Malloc
  0008a	48 89 44 24 20	 mov	 QWORD PTR p$[rsp], rax

; 1658 :     if (!p)

  0008f	48 83 7c 24 20
	00		 cmp	 QWORD PTR p$[rsp], 0
  00095	75 04		 jne	 SHORT $LN1@Py_IfExp

; 1659 :         return NULL;

  00097	33 c0		 xor	 eax, eax
  00099	eb 52		 jmp	 SHORT $LN5@Py_IfExp
$LN1@Py_IfExp:

; 1660 :     p->kind = IfExp_kind;

  0009b	48 8b 44 24 20	 mov	 rax, QWORD PTR p$[rsp]
  000a0	c7 00 05 00 00
	00		 mov	 DWORD PTR [rax], 5

; 1661 :     p->v.IfExp.test = test;

  000a6	48 8b 44 24 20	 mov	 rax, QWORD PTR p$[rsp]
  000ab	48 8b 4c 24 40	 mov	 rcx, QWORD PTR test$[rsp]
  000b0	48 89 48 08	 mov	 QWORD PTR [rax+8], rcx

; 1662 :     p->v.IfExp.body = body;

  000b4	48 8b 44 24 20	 mov	 rax, QWORD PTR p$[rsp]
  000b9	48 8b 4c 24 48	 mov	 rcx, QWORD PTR body$[rsp]
  000be	48 89 48 10	 mov	 QWORD PTR [rax+16], rcx

; 1663 :     p->v.IfExp.orelse = orelse;

  000c2	48 8b 44 24 20	 mov	 rax, QWORD PTR p$[rsp]
  000c7	48 8b 4c 24 50	 mov	 rcx, QWORD PTR orelse$[rsp]
  000cc	48 89 48 18	 mov	 QWORD PTR [rax+24], rcx

; 1664 :     p->lineno = lineno;

  000d0	48 8b 44 24 20	 mov	 rax, QWORD PTR p$[rsp]
  000d5	8b 4c 24 58	 mov	 ecx, DWORD PTR lineno$[rsp]
  000d9	89 48 30	 mov	 DWORD PTR [rax+48], ecx

; 1665 :     p->col_offset = col_offset;

  000dc	48 8b 44 24 20	 mov	 rax, QWORD PTR p$[rsp]
  000e1	8b 4c 24 60	 mov	 ecx, DWORD PTR col_offset$[rsp]
  000e5	89 48 34	 mov	 DWORD PTR [rax+52], ecx

; 1666 :     return p;

  000e8	48 8b 44 24 20	 mov	 rax, QWORD PTR p$[rsp]
$LN5@Py_IfExp:

; 1667 : }

  000ed	48 83 c4 38	 add	 rsp, 56			; 00000038H
  000f1	c3		 ret	 0
_Py_IfExp ENDP
_TEXT	ENDS
PUBLIC	_Py_Dict
;	COMDAT pdata
pdata	SEGMENT
$pdata$_Py_Dict DD imagerel $LN4
	DD	imagerel $LN4+129
	DD	imagerel $unwind$_Py_Dict
pdata	ENDS
;	COMDAT xdata
xdata	SEGMENT
$unwind$_Py_Dict DD 011801H
	DD	06218H
; Function compile flags: /Odtp
xdata	ENDS
;	COMDAT _Py_Dict
_TEXT	SEGMENT
p$ = 32
keys$ = 64
values$ = 72
lineno$ = 80
col_offset$ = 88
arena$ = 96
_Py_Dict PROC						; COMDAT

; 1672 : {

$LN4:
  00000	44 89 4c 24 20	 mov	 DWORD PTR [rsp+32], r9d
  00005	44 89 44 24 18	 mov	 DWORD PTR [rsp+24], r8d
  0000a	48 89 54 24 10	 mov	 QWORD PTR [rsp+16], rdx
  0000f	48 89 4c 24 08	 mov	 QWORD PTR [rsp+8], rcx
  00014	48 83 ec 38	 sub	 rsp, 56			; 00000038H

; 1673 :     expr_ty p;
; 1674 :     p = (expr_ty)PyArena_Malloc(arena, sizeof(*p));

  00018	ba 38 00 00 00	 mov	 edx, 56			; 00000038H
  0001d	48 8b 4c 24 60	 mov	 rcx, QWORD PTR arena$[rsp]
  00022	e8 00 00 00 00	 call	 PyArena_Malloc
  00027	48 89 44 24 20	 mov	 QWORD PTR p$[rsp], rax

; 1675 :     if (!p)

  0002c	48 83 7c 24 20
	00		 cmp	 QWORD PTR p$[rsp], 0
  00032	75 04		 jne	 SHORT $LN1@Py_Dict

; 1676 :         return NULL;

  00034	33 c0		 xor	 eax, eax
  00036	eb 44		 jmp	 SHORT $LN2@Py_Dict
$LN1@Py_Dict:

; 1677 :     p->kind = Dict_kind;

  00038	48 8b 44 24 20	 mov	 rax, QWORD PTR p$[rsp]
  0003d	c7 00 06 00 00
	00		 mov	 DWORD PTR [rax], 6

; 1678 :     p->v.Dict.keys = keys;

  00043	48 8b 44 24 20	 mov	 rax, QWORD PTR p$[rsp]
  00048	48 8b 4c 24 40	 mov	 rcx, QWORD PTR keys$[rsp]
  0004d	48 89 48 08	 mov	 QWORD PTR [rax+8], rcx

; 1679 :     p->v.Dict.values = values;

  00051	48 8b 44 24 20	 mov	 rax, QWORD PTR p$[rsp]
  00056	48 8b 4c 24 48	 mov	 rcx, QWORD PTR values$[rsp]
  0005b	48 89 48 10	 mov	 QWORD PTR [rax+16], rcx

; 1680 :     p->lineno = lineno;

  0005f	48 8b 44 24 20	 mov	 rax, QWORD PTR p$[rsp]
  00064	8b 4c 24 50	 mov	 ecx, DWORD PTR lineno$[rsp]
  00068	89 48 30	 mov	 DWORD PTR [rax+48], ecx

; 1681 :     p->col_offset = col_offset;

  0006b	48 8b 44 24 20	 mov	 rax, QWORD PTR p$[rsp]
  00070	8b 4c 24 58	 mov	 ecx, DWORD PTR col_offset$[rsp]
  00074	89 48 34	 mov	 DWORD PTR [rax+52], ecx

; 1682 :     return p;

  00077	48 8b 44 24 20	 mov	 rax, QWORD PTR p$[rsp]
$LN2@Py_Dict:

; 1683 : }

  0007c	48 83 c4 38	 add	 rsp, 56			; 00000038H
  00080	c3		 ret	 0
_Py_Dict ENDP
_TEXT	ENDS
PUBLIC	_Py_Set
;	COMDAT pdata
pdata	SEGMENT
$pdata$_Py_Set DD imagerel $LN4
	DD	imagerel $LN4+114
	DD	imagerel $unwind$_Py_Set
pdata	ENDS
;	COMDAT xdata
xdata	SEGMENT
$unwind$_Py_Set DD 011701H
	DD	06217H
; Function compile flags: /Odtp
xdata	ENDS
;	COMDAT _Py_Set
_TEXT	SEGMENT
p$ = 32
elts$ = 64
lineno$ = 72
col_offset$ = 80
arena$ = 88
_Py_Set	PROC						; COMDAT

; 1687 : {

$LN4:
  00000	4c 89 4c 24 20	 mov	 QWORD PTR [rsp+32], r9
  00005	44 89 44 24 18	 mov	 DWORD PTR [rsp+24], r8d
  0000a	89 54 24 10	 mov	 DWORD PTR [rsp+16], edx
  0000e	48 89 4c 24 08	 mov	 QWORD PTR [rsp+8], rcx
  00013	48 83 ec 38	 sub	 rsp, 56			; 00000038H

; 1688 :     expr_ty p;
; 1689 :     p = (expr_ty)PyArena_Malloc(arena, sizeof(*p));

  00017	ba 38 00 00 00	 mov	 edx, 56			; 00000038H
  0001c	48 8b 4c 24 58	 mov	 rcx, QWORD PTR arena$[rsp]
  00021	e8 00 00 00 00	 call	 PyArena_Malloc
  00026	48 89 44 24 20	 mov	 QWORD PTR p$[rsp], rax

; 1690 :     if (!p)

  0002b	48 83 7c 24 20
	00		 cmp	 QWORD PTR p$[rsp], 0
  00031	75 04		 jne	 SHORT $LN1@Py_Set

; 1691 :         return NULL;

  00033	33 c0		 xor	 eax, eax
  00035	eb 36		 jmp	 SHORT $LN2@Py_Set
$LN1@Py_Set:

; 1692 :     p->kind = Set_kind;

  00037	48 8b 44 24 20	 mov	 rax, QWORD PTR p$[rsp]
  0003c	c7 00 07 00 00
	00		 mov	 DWORD PTR [rax], 7

; 1693 :     p->v.Set.elts = elts;

  00042	48 8b 44 24 20	 mov	 rax, QWORD PTR p$[rsp]
  00047	48 8b 4c 24 40	 mov	 rcx, QWORD PTR elts$[rsp]
  0004c	48 89 48 08	 mov	 QWORD PTR [rax+8], rcx

; 1694 :     p->lineno = lineno;

  00050	48 8b 44 24 20	 mov	 rax, QWORD PTR p$[rsp]
  00055	8b 4c 24 48	 mov	 ecx, DWORD PTR lineno$[rsp]
  00059	89 48 30	 mov	 DWORD PTR [rax+48], ecx

; 1695 :     p->col_offset = col_offset;

  0005c	48 8b 44 24 20	 mov	 rax, QWORD PTR p$[rsp]
  00061	8b 4c 24 50	 mov	 ecx, DWORD PTR col_offset$[rsp]
  00065	89 48 34	 mov	 DWORD PTR [rax+52], ecx

; 1696 :     return p;

  00068	48 8b 44 24 20	 mov	 rax, QWORD PTR p$[rsp]
$LN2@Py_Set:

; 1697 : }

  0006d	48 83 c4 38	 add	 rsp, 56			; 00000038H
  00071	c3		 ret	 0
_Py_Set	ENDP
_TEXT	ENDS
PUBLIC	??_C@_0CD@JDGGGGGL@field?5elt?5is?5required?5for?5ListCo@ ; `string'
PUBLIC	_Py_ListComp
;	COMDAT pdata
pdata	SEGMENT
$pdata$_Py_ListComp DD imagerel $LN5
	DD	imagerel $LN5+160
	DD	imagerel $unwind$_Py_ListComp
pdata	ENDS
;	COMDAT xdata
xdata	SEGMENT
$unwind$_Py_ListComp DD 011801H
	DD	06218H
xdata	ENDS
;	COMDAT ??_C@_0CD@JDGGGGGL@field?5elt?5is?5required?5for?5ListCo@
CONST	SEGMENT
??_C@_0CD@JDGGGGGL@field?5elt?5is?5required?5for?5ListCo@ DB 'field elt i'
	DB	's required for ListComp', 00H		; `string'
; Function compile flags: /Odtp
CONST	ENDS
;	COMDAT _Py_ListComp
_TEXT	SEGMENT
p$ = 32
elt$ = 64
generators$ = 72
lineno$ = 80
col_offset$ = 88
arena$ = 96
_Py_ListComp PROC					; COMDAT

; 1702 : {

$LN5:
  00000	44 89 4c 24 20	 mov	 DWORD PTR [rsp+32], r9d
  00005	44 89 44 24 18	 mov	 DWORD PTR [rsp+24], r8d
  0000a	48 89 54 24 10	 mov	 QWORD PTR [rsp+16], rdx
  0000f	48 89 4c 24 08	 mov	 QWORD PTR [rsp+8], rcx
  00014	48 83 ec 38	 sub	 rsp, 56			; 00000038H

; 1703 :     expr_ty p;
; 1704 :     if (!elt) {

  00018	48 83 7c 24 40
	00		 cmp	 QWORD PTR elt$[rsp], 0
  0001e	75 17		 jne	 SHORT $LN2@Py_ListCom

; 1705 :         PyErr_SetString(PyExc_ValueError,
; 1706 :                         "field elt is required for ListComp");

  00020	48 8d 15 00 00
	00 00		 lea	 rdx, OFFSET FLAT:??_C@_0CD@JDGGGGGL@field?5elt?5is?5required?5for?5ListCo@
  00027	48 8b 0d 00 00
	00 00		 mov	 rcx, QWORD PTR PyExc_ValueError
  0002e	e8 00 00 00 00	 call	 PyErr_SetString

; 1707 :         return NULL;

  00033	33 c0		 xor	 eax, eax
  00035	eb 64		 jmp	 SHORT $LN3@Py_ListCom
$LN2@Py_ListCom:

; 1708 :     }
; 1709 :     p = (expr_ty)PyArena_Malloc(arena, sizeof(*p));

  00037	ba 38 00 00 00	 mov	 edx, 56			; 00000038H
  0003c	48 8b 4c 24 60	 mov	 rcx, QWORD PTR arena$[rsp]
  00041	e8 00 00 00 00	 call	 PyArena_Malloc
  00046	48 89 44 24 20	 mov	 QWORD PTR p$[rsp], rax

; 1710 :     if (!p)

  0004b	48 83 7c 24 20
	00		 cmp	 QWORD PTR p$[rsp], 0
  00051	75 04		 jne	 SHORT $LN1@Py_ListCom

; 1711 :         return NULL;

  00053	33 c0		 xor	 eax, eax
  00055	eb 44		 jmp	 SHORT $LN3@Py_ListCom
$LN1@Py_ListCom:

; 1712 :     p->kind = ListComp_kind;

  00057	48 8b 44 24 20	 mov	 rax, QWORD PTR p$[rsp]
  0005c	c7 00 08 00 00
	00		 mov	 DWORD PTR [rax], 8

; 1713 :     p->v.ListComp.elt = elt;

  00062	48 8b 44 24 20	 mov	 rax, QWORD PTR p$[rsp]
  00067	48 8b 4c 24 40	 mov	 rcx, QWORD PTR elt$[rsp]
  0006c	48 89 48 08	 mov	 QWORD PTR [rax+8], rcx

; 1714 :     p->v.ListComp.generators = generators;

  00070	48 8b 44 24 20	 mov	 rax, QWORD PTR p$[rsp]
  00075	48 8b 4c 24 48	 mov	 rcx, QWORD PTR generators$[rsp]
  0007a	48 89 48 10	 mov	 QWORD PTR [rax+16], rcx

; 1715 :     p->lineno = lineno;

  0007e	48 8b 44 24 20	 mov	 rax, QWORD PTR p$[rsp]
  00083	8b 4c 24 50	 mov	 ecx, DWORD PTR lineno$[rsp]
  00087	89 48 30	 mov	 DWORD PTR [rax+48], ecx

; 1716 :     p->col_offset = col_offset;

  0008a	48 8b 44 24 20	 mov	 rax, QWORD PTR p$[rsp]
  0008f	8b 4c 24 58	 mov	 ecx, DWORD PTR col_offset$[rsp]
  00093	89 48 34	 mov	 DWORD PTR [rax+52], ecx

; 1717 :     return p;

  00096	48 8b 44 24 20	 mov	 rax, QWORD PTR p$[rsp]
$LN3@Py_ListCom:

; 1718 : }

  0009b	48 83 c4 38	 add	 rsp, 56			; 00000038H
  0009f	c3		 ret	 0
_Py_ListComp ENDP
_TEXT	ENDS
PUBLIC	??_C@_0CC@EFKPDCJI@field?5elt?5is?5required?5for?5SetCom@ ; `string'
PUBLIC	_Py_SetComp
;	COMDAT pdata
pdata	SEGMENT
$pdata$_Py_SetComp DD imagerel $LN5
	DD	imagerel $LN5+160
	DD	imagerel $unwind$_Py_SetComp
pdata	ENDS
;	COMDAT xdata
xdata	SEGMENT
$unwind$_Py_SetComp DD 011801H
	DD	06218H
xdata	ENDS
;	COMDAT ??_C@_0CC@EFKPDCJI@field?5elt?5is?5required?5for?5SetCom@
CONST	SEGMENT
??_C@_0CC@EFKPDCJI@field?5elt?5is?5required?5for?5SetCom@ DB 'field elt i'
	DB	's required for SetComp', 00H		; `string'
; Function compile flags: /Odtp
CONST	ENDS
;	COMDAT _Py_SetComp
_TEXT	SEGMENT
p$ = 32
elt$ = 64
generators$ = 72
lineno$ = 80
col_offset$ = 88
arena$ = 96
_Py_SetComp PROC					; COMDAT

; 1723 : {

$LN5:
  00000	44 89 4c 24 20	 mov	 DWORD PTR [rsp+32], r9d
  00005	44 89 44 24 18	 mov	 DWORD PTR [rsp+24], r8d
  0000a	48 89 54 24 10	 mov	 QWORD PTR [rsp+16], rdx
  0000f	48 89 4c 24 08	 mov	 QWORD PTR [rsp+8], rcx
  00014	48 83 ec 38	 sub	 rsp, 56			; 00000038H

; 1724 :     expr_ty p;
; 1725 :     if (!elt) {

  00018	48 83 7c 24 40
	00		 cmp	 QWORD PTR elt$[rsp], 0
  0001e	75 17		 jne	 SHORT $LN2@Py_SetComp

; 1726 :         PyErr_SetString(PyExc_ValueError,
; 1727 :                         "field elt is required for SetComp");

  00020	48 8d 15 00 00
	00 00		 lea	 rdx, OFFSET FLAT:??_C@_0CC@EFKPDCJI@field?5elt?5is?5required?5for?5SetCom@
  00027	48 8b 0d 00 00
	00 00		 mov	 rcx, QWORD PTR PyExc_ValueError
  0002e	e8 00 00 00 00	 call	 PyErr_SetString

; 1728 :         return NULL;

  00033	33 c0		 xor	 eax, eax
  00035	eb 64		 jmp	 SHORT $LN3@Py_SetComp
$LN2@Py_SetComp:

; 1729 :     }
; 1730 :     p = (expr_ty)PyArena_Malloc(arena, sizeof(*p));

  00037	ba 38 00 00 00	 mov	 edx, 56			; 00000038H
  0003c	48 8b 4c 24 60	 mov	 rcx, QWORD PTR arena$[rsp]
  00041	e8 00 00 00 00	 call	 PyArena_Malloc
  00046	48 89 44 24 20	 mov	 QWORD PTR p$[rsp], rax

; 1731 :     if (!p)

  0004b	48 83 7c 24 20
	00		 cmp	 QWORD PTR p$[rsp], 0
  00051	75 04		 jne	 SHORT $LN1@Py_SetComp

; 1732 :         return NULL;

  00053	33 c0		 xor	 eax, eax
  00055	eb 44		 jmp	 SHORT $LN3@Py_SetComp
$LN1@Py_SetComp:

; 1733 :     p->kind = SetComp_kind;

  00057	48 8b 44 24 20	 mov	 rax, QWORD PTR p$[rsp]
  0005c	c7 00 09 00 00
	00		 mov	 DWORD PTR [rax], 9

; 1734 :     p->v.SetComp.elt = elt;

  00062	48 8b 44 24 20	 mov	 rax, QWORD PTR p$[rsp]
  00067	48 8b 4c 24 40	 mov	 rcx, QWORD PTR elt$[rsp]
  0006c	48 89 48 08	 mov	 QWORD PTR [rax+8], rcx

; 1735 :     p->v.SetComp.generators = generators;

  00070	48 8b 44 24 20	 mov	 rax, QWORD PTR p$[rsp]
  00075	48 8b 4c 24 48	 mov	 rcx, QWORD PTR generators$[rsp]
  0007a	48 89 48 10	 mov	 QWORD PTR [rax+16], rcx

; 1736 :     p->lineno = lineno;

  0007e	48 8b 44 24 20	 mov	 rax, QWORD PTR p$[rsp]
  00083	8b 4c 24 50	 mov	 ecx, DWORD PTR lineno$[rsp]
  00087	89 48 30	 mov	 DWORD PTR [rax+48], ecx

; 1737 :     p->col_offset = col_offset;

  0008a	48 8b 44 24 20	 mov	 rax, QWORD PTR p$[rsp]
  0008f	8b 4c 24 58	 mov	 ecx, DWORD PTR col_offset$[rsp]
  00093	89 48 34	 mov	 DWORD PTR [rax+52], ecx

; 1738 :     return p;

  00096	48 8b 44 24 20	 mov	 rax, QWORD PTR p$[rsp]
$LN3@Py_SetComp:

; 1739 : }

  0009b	48 83 c4 38	 add	 rsp, 56			; 00000038H
  0009f	c3		 ret	 0
_Py_SetComp ENDP
_TEXT	ENDS
PUBLIC	??_C@_0CF@FPJAOOML@field?5value?5is?5required?5for?5Dict@ ; `string'
PUBLIC	??_C@_0CD@LBIIPOPN@field?5key?5is?5required?5for?5DictCo@ ; `string'
PUBLIC	_Py_DictComp
;	COMDAT pdata
pdata	SEGMENT
$pdata$_Py_DictComp DD imagerel $LN6
	DD	imagerel $LN6+208
	DD	imagerel $unwind$_Py_DictComp
pdata	ENDS
;	COMDAT xdata
xdata	SEGMENT
$unwind$_Py_DictComp DD 011801H
	DD	06218H
xdata	ENDS
;	COMDAT ??_C@_0CF@FPJAOOML@field?5value?5is?5required?5for?5Dict@
CONST	SEGMENT
??_C@_0CF@FPJAOOML@field?5value?5is?5required?5for?5Dict@ DB 'field value'
	DB	' is required for DictComp', 00H		; `string'
CONST	ENDS
;	COMDAT ??_C@_0CD@LBIIPOPN@field?5key?5is?5required?5for?5DictCo@
CONST	SEGMENT
??_C@_0CD@LBIIPOPN@field?5key?5is?5required?5for?5DictCo@ DB 'field key i'
	DB	's required for DictComp', 00H		; `string'
; Function compile flags: /Odtp
CONST	ENDS
;	COMDAT _Py_DictComp
_TEXT	SEGMENT
p$ = 32
key$ = 64
value$ = 72
generators$ = 80
lineno$ = 88
col_offset$ = 96
arena$ = 104
_Py_DictComp PROC					; COMDAT

; 1744 : {

$LN6:
  00000	44 89 4c 24 20	 mov	 DWORD PTR [rsp+32], r9d
  00005	4c 89 44 24 18	 mov	 QWORD PTR [rsp+24], r8
  0000a	48 89 54 24 10	 mov	 QWORD PTR [rsp+16], rdx
  0000f	48 89 4c 24 08	 mov	 QWORD PTR [rsp+8], rcx
  00014	48 83 ec 38	 sub	 rsp, 56			; 00000038H

; 1745 :     expr_ty p;
; 1746 :     if (!key) {

  00018	48 83 7c 24 40
	00		 cmp	 QWORD PTR key$[rsp], 0
  0001e	75 1a		 jne	 SHORT $LN3@Py_DictCom

; 1747 :         PyErr_SetString(PyExc_ValueError,
; 1748 :                         "field key is required for DictComp");

  00020	48 8d 15 00 00
	00 00		 lea	 rdx, OFFSET FLAT:??_C@_0CD@LBIIPOPN@field?5key?5is?5required?5for?5DictCo@
  00027	48 8b 0d 00 00
	00 00		 mov	 rcx, QWORD PTR PyExc_ValueError
  0002e	e8 00 00 00 00	 call	 PyErr_SetString

; 1749 :         return NULL;

  00033	33 c0		 xor	 eax, eax
  00035	e9 91 00 00 00	 jmp	 $LN4@Py_DictCom
$LN3@Py_DictCom:

; 1750 :     }
; 1751 :     if (!value) {

  0003a	48 83 7c 24 48
	00		 cmp	 QWORD PTR value$[rsp], 0
  00040	75 17		 jne	 SHORT $LN2@Py_DictCom

; 1752 :         PyErr_SetString(PyExc_ValueError,
; 1753 :                         "field value is required for DictComp");

  00042	48 8d 15 00 00
	00 00		 lea	 rdx, OFFSET FLAT:??_C@_0CF@FPJAOOML@field?5value?5is?5required?5for?5Dict@
  00049	48 8b 0d 00 00
	00 00		 mov	 rcx, QWORD PTR PyExc_ValueError
  00050	e8 00 00 00 00	 call	 PyErr_SetString

; 1754 :         return NULL;

  00055	33 c0		 xor	 eax, eax
  00057	eb 72		 jmp	 SHORT $LN4@Py_DictCom
$LN2@Py_DictCom:

; 1755 :     }
; 1756 :     p = (expr_ty)PyArena_Malloc(arena, sizeof(*p));

  00059	ba 38 00 00 00	 mov	 edx, 56			; 00000038H
  0005e	48 8b 4c 24 68	 mov	 rcx, QWORD PTR arena$[rsp]
  00063	e8 00 00 00 00	 call	 PyArena_Malloc
  00068	48 89 44 24 20	 mov	 QWORD PTR p$[rsp], rax

; 1757 :     if (!p)

  0006d	48 83 7c 24 20
	00		 cmp	 QWORD PTR p$[rsp], 0
  00073	75 04		 jne	 SHORT $LN1@Py_DictCom

; 1758 :         return NULL;

  00075	33 c0		 xor	 eax, eax
  00077	eb 52		 jmp	 SHORT $LN4@Py_DictCom
$LN1@Py_DictCom:

; 1759 :     p->kind = DictComp_kind;

  00079	48 8b 44 24 20	 mov	 rax, QWORD PTR p$[rsp]
  0007e	c7 00 0a 00 00
	00		 mov	 DWORD PTR [rax], 10

; 1760 :     p->v.DictComp.key = key;

  00084	48 8b 44 24 20	 mov	 rax, QWORD PTR p$[rsp]
  00089	48 8b 4c 24 40	 mov	 rcx, QWORD PTR key$[rsp]
  0008e	48 89 48 08	 mov	 QWORD PTR [rax+8], rcx

; 1761 :     p->v.DictComp.value = value;

  00092	48 8b 44 24 20	 mov	 rax, QWORD PTR p$[rsp]
  00097	48 8b 4c 24 48	 mov	 rcx, QWORD PTR value$[rsp]
  0009c	48 89 48 10	 mov	 QWORD PTR [rax+16], rcx

; 1762 :     p->v.DictComp.generators = generators;

  000a0	48 8b 44 24 20	 mov	 rax, QWORD PTR p$[rsp]
  000a5	48 8b 4c 24 50	 mov	 rcx, QWORD PTR generators$[rsp]
  000aa	48 89 48 18	 mov	 QWORD PTR [rax+24], rcx

; 1763 :     p->lineno = lineno;

  000ae	48 8b 44 24 20	 mov	 rax, QWORD PTR p$[rsp]
  000b3	8b 4c 24 58	 mov	 ecx, DWORD PTR lineno$[rsp]
  000b7	89 48 30	 mov	 DWORD PTR [rax+48], ecx

; 1764 :     p->col_offset = col_offset;

  000ba	48 8b 44 24 20	 mov	 rax, QWORD PTR p$[rsp]
  000bf	8b 4c 24 60	 mov	 ecx, DWORD PTR col_offset$[rsp]
  000c3	89 48 34	 mov	 DWORD PTR [rax+52], ecx

; 1765 :     return p;

  000c6	48 8b 44 24 20	 mov	 rax, QWORD PTR p$[rsp]
$LN4@Py_DictCom:

; 1766 : }

  000cb	48 83 c4 38	 add	 rsp, 56			; 00000038H
  000cf	c3		 ret	 0
_Py_DictComp ENDP
_TEXT	ENDS
PUBLIC	??_C@_0CH@MDBCKMDJ@field?5elt?5is?5required?5for?5Genera@ ; `string'
PUBLIC	_Py_GeneratorExp
;	COMDAT pdata
pdata	SEGMENT
$pdata$_Py_GeneratorExp DD imagerel $LN5
	DD	imagerel $LN5+160
	DD	imagerel $unwind$_Py_GeneratorExp
pdata	ENDS
;	COMDAT xdata
xdata	SEGMENT
$unwind$_Py_GeneratorExp DD 011801H
	DD	06218H
xdata	ENDS
;	COMDAT ??_C@_0CH@MDBCKMDJ@field?5elt?5is?5required?5for?5Genera@
CONST	SEGMENT
??_C@_0CH@MDBCKMDJ@field?5elt?5is?5required?5for?5Genera@ DB 'field elt i'
	DB	's required for GeneratorExp', 00H		; `string'
; Function compile flags: /Odtp
CONST	ENDS
;	COMDAT _Py_GeneratorExp
_TEXT	SEGMENT
p$ = 32
elt$ = 64
generators$ = 72
lineno$ = 80
col_offset$ = 88
arena$ = 96
_Py_GeneratorExp PROC					; COMDAT

; 1771 : {

$LN5:
  00000	44 89 4c 24 20	 mov	 DWORD PTR [rsp+32], r9d
  00005	44 89 44 24 18	 mov	 DWORD PTR [rsp+24], r8d
  0000a	48 89 54 24 10	 mov	 QWORD PTR [rsp+16], rdx
  0000f	48 89 4c 24 08	 mov	 QWORD PTR [rsp+8], rcx
  00014	48 83 ec 38	 sub	 rsp, 56			; 00000038H

; 1772 :     expr_ty p;
; 1773 :     if (!elt) {

  00018	48 83 7c 24 40
	00		 cmp	 QWORD PTR elt$[rsp], 0
  0001e	75 17		 jne	 SHORT $LN2@Py_Generat

; 1774 :         PyErr_SetString(PyExc_ValueError,
; 1775 :                         "field elt is required for GeneratorExp");

  00020	48 8d 15 00 00
	00 00		 lea	 rdx, OFFSET FLAT:??_C@_0CH@MDBCKMDJ@field?5elt?5is?5required?5for?5Genera@
  00027	48 8b 0d 00 00
	00 00		 mov	 rcx, QWORD PTR PyExc_ValueError
  0002e	e8 00 00 00 00	 call	 PyErr_SetString

; 1776 :         return NULL;

  00033	33 c0		 xor	 eax, eax
  00035	eb 64		 jmp	 SHORT $LN3@Py_Generat
$LN2@Py_Generat:

; 1777 :     }
; 1778 :     p = (expr_ty)PyArena_Malloc(arena, sizeof(*p));

  00037	ba 38 00 00 00	 mov	 edx, 56			; 00000038H
  0003c	48 8b 4c 24 60	 mov	 rcx, QWORD PTR arena$[rsp]
  00041	e8 00 00 00 00	 call	 PyArena_Malloc
  00046	48 89 44 24 20	 mov	 QWORD PTR p$[rsp], rax

; 1779 :     if (!p)

  0004b	48 83 7c 24 20
	00		 cmp	 QWORD PTR p$[rsp], 0
  00051	75 04		 jne	 SHORT $LN1@Py_Generat

; 1780 :         return NULL;

  00053	33 c0		 xor	 eax, eax
  00055	eb 44		 jmp	 SHORT $LN3@Py_Generat
$LN1@Py_Generat:

; 1781 :     p->kind = GeneratorExp_kind;

  00057	48 8b 44 24 20	 mov	 rax, QWORD PTR p$[rsp]
  0005c	c7 00 0b 00 00
	00		 mov	 DWORD PTR [rax], 11

; 1782 :     p->v.GeneratorExp.elt = elt;

  00062	48 8b 44 24 20	 mov	 rax, QWORD PTR p$[rsp]
  00067	48 8b 4c 24 40	 mov	 rcx, QWORD PTR elt$[rsp]
  0006c	48 89 48 08	 mov	 QWORD PTR [rax+8], rcx

; 1783 :     p->v.GeneratorExp.generators = generators;

  00070	48 8b 44 24 20	 mov	 rax, QWORD PTR p$[rsp]
  00075	48 8b 4c 24 48	 mov	 rcx, QWORD PTR generators$[rsp]
  0007a	48 89 48 10	 mov	 QWORD PTR [rax+16], rcx

; 1784 :     p->lineno = lineno;

  0007e	48 8b 44 24 20	 mov	 rax, QWORD PTR p$[rsp]
  00083	8b 4c 24 50	 mov	 ecx, DWORD PTR lineno$[rsp]
  00087	89 48 30	 mov	 DWORD PTR [rax+48], ecx

; 1785 :     p->col_offset = col_offset;

  0008a	48 8b 44 24 20	 mov	 rax, QWORD PTR p$[rsp]
  0008f	8b 4c 24 58	 mov	 ecx, DWORD PTR col_offset$[rsp]
  00093	89 48 34	 mov	 DWORD PTR [rax+52], ecx

; 1786 :     return p;

  00096	48 8b 44 24 20	 mov	 rax, QWORD PTR p$[rsp]
$LN3@Py_Generat:

; 1787 : }

  0009b	48 83 c4 38	 add	 rsp, 56			; 00000038H
  0009f	c3		 ret	 0
_Py_GeneratorExp ENDP
_TEXT	ENDS
PUBLIC	_Py_Yield
;	COMDAT pdata
pdata	SEGMENT
$pdata$_Py_Yield DD imagerel $LN4
	DD	imagerel $LN4+114
	DD	imagerel $unwind$_Py_Yield
pdata	ENDS
;	COMDAT xdata
xdata	SEGMENT
$unwind$_Py_Yield DD 011701H
	DD	06217H
; Function compile flags: /Odtp
xdata	ENDS
;	COMDAT _Py_Yield
_TEXT	SEGMENT
p$ = 32
value$ = 64
lineno$ = 72
col_offset$ = 80
arena$ = 88
_Py_Yield PROC						; COMDAT

; 1791 : {

$LN4:
  00000	4c 89 4c 24 20	 mov	 QWORD PTR [rsp+32], r9
  00005	44 89 44 24 18	 mov	 DWORD PTR [rsp+24], r8d
  0000a	89 54 24 10	 mov	 DWORD PTR [rsp+16], edx
  0000e	48 89 4c 24 08	 mov	 QWORD PTR [rsp+8], rcx
  00013	48 83 ec 38	 sub	 rsp, 56			; 00000038H

; 1792 :     expr_ty p;
; 1793 :     p = (expr_ty)PyArena_Malloc(arena, sizeof(*p));

  00017	ba 38 00 00 00	 mov	 edx, 56			; 00000038H
  0001c	48 8b 4c 24 58	 mov	 rcx, QWORD PTR arena$[rsp]
  00021	e8 00 00 00 00	 call	 PyArena_Malloc
  00026	48 89 44 24 20	 mov	 QWORD PTR p$[rsp], rax

; 1794 :     if (!p)

  0002b	48 83 7c 24 20
	00		 cmp	 QWORD PTR p$[rsp], 0
  00031	75 04		 jne	 SHORT $LN1@Py_Yield

; 1795 :         return NULL;

  00033	33 c0		 xor	 eax, eax
  00035	eb 36		 jmp	 SHORT $LN2@Py_Yield
$LN1@Py_Yield:

; 1796 :     p->kind = Yield_kind;

  00037	48 8b 44 24 20	 mov	 rax, QWORD PTR p$[rsp]
  0003c	c7 00 0c 00 00
	00		 mov	 DWORD PTR [rax], 12

; 1797 :     p->v.Yield.value = value;

  00042	48 8b 44 24 20	 mov	 rax, QWORD PTR p$[rsp]
  00047	48 8b 4c 24 40	 mov	 rcx, QWORD PTR value$[rsp]
  0004c	48 89 48 08	 mov	 QWORD PTR [rax+8], rcx

; 1798 :     p->lineno = lineno;

  00050	48 8b 44 24 20	 mov	 rax, QWORD PTR p$[rsp]
  00055	8b 4c 24 48	 mov	 ecx, DWORD PTR lineno$[rsp]
  00059	89 48 30	 mov	 DWORD PTR [rax+48], ecx

; 1799 :     p->col_offset = col_offset;

  0005c	48 8b 44 24 20	 mov	 rax, QWORD PTR p$[rsp]
  00061	8b 4c 24 50	 mov	 ecx, DWORD PTR col_offset$[rsp]
  00065	89 48 34	 mov	 DWORD PTR [rax+52], ecx

; 1800 :     return p;

  00068	48 8b 44 24 20	 mov	 rax, QWORD PTR p$[rsp]
$LN2@Py_Yield:

; 1801 : }

  0006d	48 83 c4 38	 add	 rsp, 56			; 00000038H
  00071	c3		 ret	 0
_Py_Yield ENDP
_TEXT	ENDS
PUBLIC	??_C@_0CG@FFMMJEDF@field?5value?5is?5required?5for?5Yiel@ ; `string'
PUBLIC	_Py_YieldFrom
;	COMDAT pdata
pdata	SEGMENT
$pdata$_Py_YieldFrom DD imagerel $LN5
	DD	imagerel $LN5+145
	DD	imagerel $unwind$_Py_YieldFrom
pdata	ENDS
;	COMDAT xdata
xdata	SEGMENT
$unwind$_Py_YieldFrom DD 011701H
	DD	06217H
xdata	ENDS
;	COMDAT ??_C@_0CG@FFMMJEDF@field?5value?5is?5required?5for?5Yiel@
CONST	SEGMENT
??_C@_0CG@FFMMJEDF@field?5value?5is?5required?5for?5Yiel@ DB 'field value'
	DB	' is required for YieldFrom', 00H		; `string'
; Function compile flags: /Odtp
CONST	ENDS
;	COMDAT _Py_YieldFrom
_TEXT	SEGMENT
p$ = 32
value$ = 64
lineno$ = 72
col_offset$ = 80
arena$ = 88
_Py_YieldFrom PROC					; COMDAT

; 1805 : {

$LN5:
  00000	4c 89 4c 24 20	 mov	 QWORD PTR [rsp+32], r9
  00005	44 89 44 24 18	 mov	 DWORD PTR [rsp+24], r8d
  0000a	89 54 24 10	 mov	 DWORD PTR [rsp+16], edx
  0000e	48 89 4c 24 08	 mov	 QWORD PTR [rsp+8], rcx
  00013	48 83 ec 38	 sub	 rsp, 56			; 00000038H

; 1806 :     expr_ty p;
; 1807 :     if (!value) {

  00017	48 83 7c 24 40
	00		 cmp	 QWORD PTR value$[rsp], 0
  0001d	75 17		 jne	 SHORT $LN2@Py_YieldFr

; 1808 :         PyErr_SetString(PyExc_ValueError,
; 1809 :                         "field value is required for YieldFrom");

  0001f	48 8d 15 00 00
	00 00		 lea	 rdx, OFFSET FLAT:??_C@_0CG@FFMMJEDF@field?5value?5is?5required?5for?5Yiel@
  00026	48 8b 0d 00 00
	00 00		 mov	 rcx, QWORD PTR PyExc_ValueError
  0002d	e8 00 00 00 00	 call	 PyErr_SetString

; 1810 :         return NULL;

  00032	33 c0		 xor	 eax, eax
  00034	eb 56		 jmp	 SHORT $LN3@Py_YieldFr
$LN2@Py_YieldFr:

; 1811 :     }
; 1812 :     p = (expr_ty)PyArena_Malloc(arena, sizeof(*p));

  00036	ba 38 00 00 00	 mov	 edx, 56			; 00000038H
  0003b	48 8b 4c 24 58	 mov	 rcx, QWORD PTR arena$[rsp]
  00040	e8 00 00 00 00	 call	 PyArena_Malloc
  00045	48 89 44 24 20	 mov	 QWORD PTR p$[rsp], rax

; 1813 :     if (!p)

  0004a	48 83 7c 24 20
	00		 cmp	 QWORD PTR p$[rsp], 0
  00050	75 04		 jne	 SHORT $LN1@Py_YieldFr

; 1814 :         return NULL;

  00052	33 c0		 xor	 eax, eax
  00054	eb 36		 jmp	 SHORT $LN3@Py_YieldFr
$LN1@Py_YieldFr:

; 1815 :     p->kind = YieldFrom_kind;

  00056	48 8b 44 24 20	 mov	 rax, QWORD PTR p$[rsp]
  0005b	c7 00 0d 00 00
	00		 mov	 DWORD PTR [rax], 13

; 1816 :     p->v.YieldFrom.value = value;

  00061	48 8b 44 24 20	 mov	 rax, QWORD PTR p$[rsp]
  00066	48 8b 4c 24 40	 mov	 rcx, QWORD PTR value$[rsp]
  0006b	48 89 48 08	 mov	 QWORD PTR [rax+8], rcx

; 1817 :     p->lineno = lineno;

  0006f	48 8b 44 24 20	 mov	 rax, QWORD PTR p$[rsp]
  00074	8b 4c 24 48	 mov	 ecx, DWORD PTR lineno$[rsp]
  00078	89 48 30	 mov	 DWORD PTR [rax+48], ecx

; 1818 :     p->col_offset = col_offset;

  0007b	48 8b 44 24 20	 mov	 rax, QWORD PTR p$[rsp]
  00080	8b 4c 24 50	 mov	 ecx, DWORD PTR col_offset$[rsp]
  00084	89 48 34	 mov	 DWORD PTR [rax+52], ecx

; 1819 :     return p;

  00087	48 8b 44 24 20	 mov	 rax, QWORD PTR p$[rsp]
$LN3@Py_YieldFr:

; 1820 : }

  0008c	48 83 c4 38	 add	 rsp, 56			; 00000038H
  00090	c3		 ret	 0
_Py_YieldFrom ENDP
_TEXT	ENDS
PUBLIC	??_C@_0CD@MLPHOINC@field?5left?5is?5required?5for?5Compa@ ; `string'
PUBLIC	_Py_Compare
;	COMDAT pdata
pdata	SEGMENT
$pdata$_Py_Compare DD imagerel $LN5
	DD	imagerel $LN5+174
	DD	imagerel $unwind$_Py_Compare
pdata	ENDS
;	COMDAT xdata
xdata	SEGMENT
$unwind$_Py_Compare DD 011801H
	DD	06218H
xdata	ENDS
;	COMDAT ??_C@_0CD@MLPHOINC@field?5left?5is?5required?5for?5Compa@
CONST	SEGMENT
??_C@_0CD@MLPHOINC@field?5left?5is?5required?5for?5Compa@ DB 'field left '
	DB	'is required for Compare', 00H		; `string'
; Function compile flags: /Odtp
CONST	ENDS
;	COMDAT _Py_Compare
_TEXT	SEGMENT
p$ = 32
left$ = 64
ops$ = 72
comparators$ = 80
lineno$ = 88
col_offset$ = 96
arena$ = 104
_Py_Compare PROC					; COMDAT

; 1825 : {

$LN5:
  00000	44 89 4c 24 20	 mov	 DWORD PTR [rsp+32], r9d
  00005	4c 89 44 24 18	 mov	 QWORD PTR [rsp+24], r8
  0000a	48 89 54 24 10	 mov	 QWORD PTR [rsp+16], rdx
  0000f	48 89 4c 24 08	 mov	 QWORD PTR [rsp+8], rcx
  00014	48 83 ec 38	 sub	 rsp, 56			; 00000038H

; 1826 :     expr_ty p;
; 1827 :     if (!left) {

  00018	48 83 7c 24 40
	00		 cmp	 QWORD PTR left$[rsp], 0
  0001e	75 17		 jne	 SHORT $LN2@Py_Compare

; 1828 :         PyErr_SetString(PyExc_ValueError,
; 1829 :                         "field left is required for Compare");

  00020	48 8d 15 00 00
	00 00		 lea	 rdx, OFFSET FLAT:??_C@_0CD@MLPHOINC@field?5left?5is?5required?5for?5Compa@
  00027	48 8b 0d 00 00
	00 00		 mov	 rcx, QWORD PTR PyExc_ValueError
  0002e	e8 00 00 00 00	 call	 PyErr_SetString

; 1830 :         return NULL;

  00033	33 c0		 xor	 eax, eax
  00035	eb 72		 jmp	 SHORT $LN3@Py_Compare
$LN2@Py_Compare:

; 1831 :     }
; 1832 :     p = (expr_ty)PyArena_Malloc(arena, sizeof(*p));

  00037	ba 38 00 00 00	 mov	 edx, 56			; 00000038H
  0003c	48 8b 4c 24 68	 mov	 rcx, QWORD PTR arena$[rsp]
  00041	e8 00 00 00 00	 call	 PyArena_Malloc
  00046	48 89 44 24 20	 mov	 QWORD PTR p$[rsp], rax

; 1833 :     if (!p)

  0004b	48 83 7c 24 20
	00		 cmp	 QWORD PTR p$[rsp], 0
  00051	75 04		 jne	 SHORT $LN1@Py_Compare

; 1834 :         return NULL;

  00053	33 c0		 xor	 eax, eax
  00055	eb 52		 jmp	 SHORT $LN3@Py_Compare
$LN1@Py_Compare:

; 1835 :     p->kind = Compare_kind;

  00057	48 8b 44 24 20	 mov	 rax, QWORD PTR p$[rsp]
  0005c	c7 00 0e 00 00
	00		 mov	 DWORD PTR [rax], 14

; 1836 :     p->v.Compare.left = left;

  00062	48 8b 44 24 20	 mov	 rax, QWORD PTR p$[rsp]
  00067	48 8b 4c 24 40	 mov	 rcx, QWORD PTR left$[rsp]
  0006c	48 89 48 08	 mov	 QWORD PTR [rax+8], rcx

; 1837 :     p->v.Compare.ops = ops;

  00070	48 8b 44 24 20	 mov	 rax, QWORD PTR p$[rsp]
  00075	48 8b 4c 24 48	 mov	 rcx, QWORD PTR ops$[rsp]
  0007a	48 89 48 10	 mov	 QWORD PTR [rax+16], rcx

; 1838 :     p->v.Compare.comparators = comparators;

  0007e	48 8b 44 24 20	 mov	 rax, QWORD PTR p$[rsp]
  00083	48 8b 4c 24 50	 mov	 rcx, QWORD PTR comparators$[rsp]
  00088	48 89 48 18	 mov	 QWORD PTR [rax+24], rcx

; 1839 :     p->lineno = lineno;

  0008c	48 8b 44 24 20	 mov	 rax, QWORD PTR p$[rsp]
  00091	8b 4c 24 58	 mov	 ecx, DWORD PTR lineno$[rsp]
  00095	89 48 30	 mov	 DWORD PTR [rax+48], ecx

; 1840 :     p->col_offset = col_offset;

  00098	48 8b 44 24 20	 mov	 rax, QWORD PTR p$[rsp]
  0009d	8b 4c 24 60	 mov	 ecx, DWORD PTR col_offset$[rsp]
  000a1	89 48 34	 mov	 DWORD PTR [rax+52], ecx

; 1841 :     return p;

  000a4	48 8b 44 24 20	 mov	 rax, QWORD PTR p$[rsp]
$LN3@Py_Compare:

; 1842 : }

  000a9	48 83 c4 38	 add	 rsp, 56			; 00000038H
  000ad	c3		 ret	 0
_Py_Compare ENDP
_TEXT	ENDS
PUBLIC	??_C@_0CA@BOLBGLLH@field?5func?5is?5required?5for?5Call?$AA@ ; `string'
PUBLIC	_Py_Call
;	COMDAT pdata
pdata	SEGMENT
$pdata$_Py_Call DD imagerel $LN5
	DD	imagerel $LN5+205
	DD	imagerel $unwind$_Py_Call
pdata	ENDS
;	COMDAT xdata
xdata	SEGMENT
$unwind$_Py_Call DD 011801H
	DD	06218H
xdata	ENDS
;	COMDAT ??_C@_0CA@BOLBGLLH@field?5func?5is?5required?5for?5Call?$AA@
CONST	SEGMENT
??_C@_0CA@BOLBGLLH@field?5func?5is?5required?5for?5Call?$AA@ DB 'field fu'
	DB	'nc is required for Call', 00H		; `string'
; Function compile flags: /Odtp
CONST	ENDS
;	COMDAT _Py_Call
_TEXT	SEGMENT
p$ = 32
func$ = 64
args$ = 72
keywords$ = 80
starargs$ = 88
kwargs$ = 96
lineno$ = 104
col_offset$ = 112
arena$ = 120
_Py_Call PROC						; COMDAT

; 1847 : {

$LN5:
  00000	4c 89 4c 24 20	 mov	 QWORD PTR [rsp+32], r9
  00005	4c 89 44 24 18	 mov	 QWORD PTR [rsp+24], r8
  0000a	48 89 54 24 10	 mov	 QWORD PTR [rsp+16], rdx
  0000f	48 89 4c 24 08	 mov	 QWORD PTR [rsp+8], rcx
  00014	48 83 ec 38	 sub	 rsp, 56			; 00000038H

; 1848 :     expr_ty p;
; 1849 :     if (!func) {

  00018	48 83 7c 24 40
	00		 cmp	 QWORD PTR func$[rsp], 0
  0001e	75 1a		 jne	 SHORT $LN2@Py_Call

; 1850 :         PyErr_SetString(PyExc_ValueError,
; 1851 :                         "field func is required for Call");

  00020	48 8d 15 00 00
	00 00		 lea	 rdx, OFFSET FLAT:??_C@_0CA@BOLBGLLH@field?5func?5is?5required?5for?5Call?$AA@
  00027	48 8b 0d 00 00
	00 00		 mov	 rcx, QWORD PTR PyExc_ValueError
  0002e	e8 00 00 00 00	 call	 PyErr_SetString

; 1852 :         return NULL;

  00033	33 c0		 xor	 eax, eax
  00035	e9 8e 00 00 00	 jmp	 $LN3@Py_Call
$LN2@Py_Call:

; 1853 :     }
; 1854 :     p = (expr_ty)PyArena_Malloc(arena, sizeof(*p));

  0003a	ba 38 00 00 00	 mov	 edx, 56			; 00000038H
  0003f	48 8b 4c 24 78	 mov	 rcx, QWORD PTR arena$[rsp]
  00044	e8 00 00 00 00	 call	 PyArena_Malloc
  00049	48 89 44 24 20	 mov	 QWORD PTR p$[rsp], rax

; 1855 :     if (!p)

  0004e	48 83 7c 24 20
	00		 cmp	 QWORD PTR p$[rsp], 0
  00054	75 04		 jne	 SHORT $LN1@Py_Call

; 1856 :         return NULL;

  00056	33 c0		 xor	 eax, eax
  00058	eb 6e		 jmp	 SHORT $LN3@Py_Call
$LN1@Py_Call:

; 1857 :     p->kind = Call_kind;

  0005a	48 8b 44 24 20	 mov	 rax, QWORD PTR p$[rsp]
  0005f	c7 00 0f 00 00
	00		 mov	 DWORD PTR [rax], 15

; 1858 :     p->v.Call.func = func;

  00065	48 8b 44 24 20	 mov	 rax, QWORD PTR p$[rsp]
  0006a	48 8b 4c 24 40	 mov	 rcx, QWORD PTR func$[rsp]
  0006f	48 89 48 08	 mov	 QWORD PTR [rax+8], rcx

; 1859 :     p->v.Call.args = args;

  00073	48 8b 44 24 20	 mov	 rax, QWORD PTR p$[rsp]
  00078	48 8b 4c 24 48	 mov	 rcx, QWORD PTR args$[rsp]
  0007d	48 89 48 10	 mov	 QWORD PTR [rax+16], rcx

; 1860 :     p->v.Call.keywords = keywords;

  00081	48 8b 44 24 20	 mov	 rax, QWORD PTR p$[rsp]
  00086	48 8b 4c 24 50	 mov	 rcx, QWORD PTR keywords$[rsp]
  0008b	48 89 48 18	 mov	 QWORD PTR [rax+24], rcx

; 1861 :     p->v.Call.starargs = starargs;

  0008f	48 8b 44 24 20	 mov	 rax, QWORD PTR p$[rsp]
  00094	48 8b 4c 24 58	 mov	 rcx, QWORD PTR starargs$[rsp]
  00099	48 89 48 20	 mov	 QWORD PTR [rax+32], rcx

; 1862 :     p->v.Call.kwargs = kwargs;

  0009d	48 8b 44 24 20	 mov	 rax, QWORD PTR p$[rsp]
  000a2	48 8b 4c 24 60	 mov	 rcx, QWORD PTR kwargs$[rsp]
  000a7	48 89 48 28	 mov	 QWORD PTR [rax+40], rcx

; 1863 :     p->lineno = lineno;

  000ab	48 8b 44 24 20	 mov	 rax, QWORD PTR p$[rsp]
  000b0	8b 4c 24 68	 mov	 ecx, DWORD PTR lineno$[rsp]
  000b4	89 48 30	 mov	 DWORD PTR [rax+48], ecx

; 1864 :     p->col_offset = col_offset;

  000b7	48 8b 44 24 20	 mov	 rax, QWORD PTR p$[rsp]
  000bc	8b 4c 24 70	 mov	 ecx, DWORD PTR col_offset$[rsp]
  000c0	89 48 34	 mov	 DWORD PTR [rax+52], ecx

; 1865 :     return p;

  000c3	48 8b 44 24 20	 mov	 rax, QWORD PTR p$[rsp]
$LN3@Py_Call:

; 1866 : }

  000c8	48 83 c4 38	 add	 rsp, 56			; 00000038H
  000cc	c3		 ret	 0
_Py_Call ENDP
_TEXT	ENDS
PUBLIC	??_C@_0BM@DIMBMCIK@field?5n?5is?5required?5for?5Num?$AA@ ; `string'
PUBLIC	_Py_Num
;	COMDAT pdata
pdata	SEGMENT
$pdata$_Py_Num DD imagerel $LN5
	DD	imagerel $LN5+145
	DD	imagerel $unwind$_Py_Num
pdata	ENDS
;	COMDAT xdata
xdata	SEGMENT
$unwind$_Py_Num DD 011701H
	DD	06217H
xdata	ENDS
;	COMDAT ??_C@_0BM@DIMBMCIK@field?5n?5is?5required?5for?5Num?$AA@
CONST	SEGMENT
??_C@_0BM@DIMBMCIK@field?5n?5is?5required?5for?5Num?$AA@ DB 'field n is r'
	DB	'equired for Num', 00H			; `string'
; Function compile flags: /Odtp
CONST	ENDS
;	COMDAT _Py_Num
_TEXT	SEGMENT
p$ = 32
n$ = 64
lineno$ = 72
col_offset$ = 80
arena$ = 88
_Py_Num	PROC						; COMDAT

; 1870 : {

$LN5:
  00000	4c 89 4c 24 20	 mov	 QWORD PTR [rsp+32], r9
  00005	44 89 44 24 18	 mov	 DWORD PTR [rsp+24], r8d
  0000a	89 54 24 10	 mov	 DWORD PTR [rsp+16], edx
  0000e	48 89 4c 24 08	 mov	 QWORD PTR [rsp+8], rcx
  00013	48 83 ec 38	 sub	 rsp, 56			; 00000038H

; 1871 :     expr_ty p;
; 1872 :     if (!n) {

  00017	48 83 7c 24 40
	00		 cmp	 QWORD PTR n$[rsp], 0
  0001d	75 17		 jne	 SHORT $LN2@Py_Num

; 1873 :         PyErr_SetString(PyExc_ValueError,
; 1874 :                         "field n is required for Num");

  0001f	48 8d 15 00 00
	00 00		 lea	 rdx, OFFSET FLAT:??_C@_0BM@DIMBMCIK@field?5n?5is?5required?5for?5Num?$AA@
  00026	48 8b 0d 00 00
	00 00		 mov	 rcx, QWORD PTR PyExc_ValueError
  0002d	e8 00 00 00 00	 call	 PyErr_SetString

; 1875 :         return NULL;

  00032	33 c0		 xor	 eax, eax
  00034	eb 56		 jmp	 SHORT $LN3@Py_Num
$LN2@Py_Num:

; 1876 :     }
; 1877 :     p = (expr_ty)PyArena_Malloc(arena, sizeof(*p));

  00036	ba 38 00 00 00	 mov	 edx, 56			; 00000038H
  0003b	48 8b 4c 24 58	 mov	 rcx, QWORD PTR arena$[rsp]
  00040	e8 00 00 00 00	 call	 PyArena_Malloc
  00045	48 89 44 24 20	 mov	 QWORD PTR p$[rsp], rax

; 1878 :     if (!p)

  0004a	48 83 7c 24 20
	00		 cmp	 QWORD PTR p$[rsp], 0
  00050	75 04		 jne	 SHORT $LN1@Py_Num

; 1879 :         return NULL;

  00052	33 c0		 xor	 eax, eax
  00054	eb 36		 jmp	 SHORT $LN3@Py_Num
$LN1@Py_Num:

; 1880 :     p->kind = Num_kind;

  00056	48 8b 44 24 20	 mov	 rax, QWORD PTR p$[rsp]
  0005b	c7 00 10 00 00
	00		 mov	 DWORD PTR [rax], 16

; 1881 :     p->v.Num.n = n;

  00061	48 8b 44 24 20	 mov	 rax, QWORD PTR p$[rsp]
  00066	48 8b 4c 24 40	 mov	 rcx, QWORD PTR n$[rsp]
  0006b	48 89 48 08	 mov	 QWORD PTR [rax+8], rcx

; 1882 :     p->lineno = lineno;

  0006f	48 8b 44 24 20	 mov	 rax, QWORD PTR p$[rsp]
  00074	8b 4c 24 48	 mov	 ecx, DWORD PTR lineno$[rsp]
  00078	89 48 30	 mov	 DWORD PTR [rax+48], ecx

; 1883 :     p->col_offset = col_offset;

  0007b	48 8b 44 24 20	 mov	 rax, QWORD PTR p$[rsp]
  00080	8b 4c 24 50	 mov	 ecx, DWORD PTR col_offset$[rsp]
  00084	89 48 34	 mov	 DWORD PTR [rax+52], ecx

; 1884 :     return p;

  00087	48 8b 44 24 20	 mov	 rax, QWORD PTR p$[rsp]
$LN3@Py_Num:

; 1885 : }

  0008c	48 83 c4 38	 add	 rsp, 56			; 00000038H
  00090	c3		 ret	 0
_Py_Num	ENDP
_TEXT	ENDS
PUBLIC	??_C@_0BM@NBHLCOA@field?5s?5is?5required?5for?5Str?$AA@ ; `string'
PUBLIC	_Py_Str
;	COMDAT pdata
pdata	SEGMENT
$pdata$_Py_Str DD imagerel $LN5
	DD	imagerel $LN5+145
	DD	imagerel $unwind$_Py_Str
pdata	ENDS
;	COMDAT xdata
xdata	SEGMENT
$unwind$_Py_Str DD 011701H
	DD	06217H
xdata	ENDS
;	COMDAT ??_C@_0BM@NBHLCOA@field?5s?5is?5required?5for?5Str?$AA@
CONST	SEGMENT
??_C@_0BM@NBHLCOA@field?5s?5is?5required?5for?5Str?$AA@ DB 'field s is re'
	DB	'quired for Str', 00H			; `string'
; Function compile flags: /Odtp
CONST	ENDS
;	COMDAT _Py_Str
_TEXT	SEGMENT
p$ = 32
s$ = 64
lineno$ = 72
col_offset$ = 80
arena$ = 88
_Py_Str	PROC						; COMDAT

; 1889 : {

$LN5:
  00000	4c 89 4c 24 20	 mov	 QWORD PTR [rsp+32], r9
  00005	44 89 44 24 18	 mov	 DWORD PTR [rsp+24], r8d
  0000a	89 54 24 10	 mov	 DWORD PTR [rsp+16], edx
  0000e	48 89 4c 24 08	 mov	 QWORD PTR [rsp+8], rcx
  00013	48 83 ec 38	 sub	 rsp, 56			; 00000038H

; 1890 :     expr_ty p;
; 1891 :     if (!s) {

  00017	48 83 7c 24 40
	00		 cmp	 QWORD PTR s$[rsp], 0
  0001d	75 17		 jne	 SHORT $LN2@Py_Str

; 1892 :         PyErr_SetString(PyExc_ValueError,
; 1893 :                         "field s is required for Str");

  0001f	48 8d 15 00 00
	00 00		 lea	 rdx, OFFSET FLAT:??_C@_0BM@NBHLCOA@field?5s?5is?5required?5for?5Str?$AA@
  00026	48 8b 0d 00 00
	00 00		 mov	 rcx, QWORD PTR PyExc_ValueError
  0002d	e8 00 00 00 00	 call	 PyErr_SetString

; 1894 :         return NULL;

  00032	33 c0		 xor	 eax, eax
  00034	eb 56		 jmp	 SHORT $LN3@Py_Str
$LN2@Py_Str:

; 1895 :     }
; 1896 :     p = (expr_ty)PyArena_Malloc(arena, sizeof(*p));

  00036	ba 38 00 00 00	 mov	 edx, 56			; 00000038H
  0003b	48 8b 4c 24 58	 mov	 rcx, QWORD PTR arena$[rsp]
  00040	e8 00 00 00 00	 call	 PyArena_Malloc
  00045	48 89 44 24 20	 mov	 QWORD PTR p$[rsp], rax

; 1897 :     if (!p)

  0004a	48 83 7c 24 20
	00		 cmp	 QWORD PTR p$[rsp], 0
  00050	75 04		 jne	 SHORT $LN1@Py_Str

; 1898 :         return NULL;

  00052	33 c0		 xor	 eax, eax
  00054	eb 36		 jmp	 SHORT $LN3@Py_Str
$LN1@Py_Str:

; 1899 :     p->kind = Str_kind;

  00056	48 8b 44 24 20	 mov	 rax, QWORD PTR p$[rsp]
  0005b	c7 00 11 00 00
	00		 mov	 DWORD PTR [rax], 17

; 1900 :     p->v.Str.s = s;

  00061	48 8b 44 24 20	 mov	 rax, QWORD PTR p$[rsp]
  00066	48 8b 4c 24 40	 mov	 rcx, QWORD PTR s$[rsp]
  0006b	48 89 48 08	 mov	 QWORD PTR [rax+8], rcx

; 1901 :     p->lineno = lineno;

  0006f	48 8b 44 24 20	 mov	 rax, QWORD PTR p$[rsp]
  00074	8b 4c 24 48	 mov	 ecx, DWORD PTR lineno$[rsp]
  00078	89 48 30	 mov	 DWORD PTR [rax+48], ecx

; 1902 :     p->col_offset = col_offset;

  0007b	48 8b 44 24 20	 mov	 rax, QWORD PTR p$[rsp]
  00080	8b 4c 24 50	 mov	 ecx, DWORD PTR col_offset$[rsp]
  00084	89 48 34	 mov	 DWORD PTR [rax+52], ecx

; 1903 :     return p;

  00087	48 8b 44 24 20	 mov	 rax, QWORD PTR p$[rsp]
$LN3@Py_Str:

; 1904 : }

  0008c	48 83 c4 38	 add	 rsp, 56			; 00000038H
  00090	c3		 ret	 0
_Py_Str	ENDP
_TEXT	ENDS
PUBLIC	??_C@_0BO@CEGOEFPG@field?5s?5is?5required?5for?5Bytes?$AA@ ; `string'
PUBLIC	_Py_Bytes
;	COMDAT pdata
pdata	SEGMENT
$pdata$_Py_Bytes DD imagerel $LN5
	DD	imagerel $LN5+145
	DD	imagerel $unwind$_Py_Bytes
pdata	ENDS
;	COMDAT xdata
xdata	SEGMENT
$unwind$_Py_Bytes DD 011701H
	DD	06217H
xdata	ENDS
;	COMDAT ??_C@_0BO@CEGOEFPG@field?5s?5is?5required?5for?5Bytes?$AA@
CONST	SEGMENT
??_C@_0BO@CEGOEFPG@field?5s?5is?5required?5for?5Bytes?$AA@ DB 'field s is'
	DB	' required for Bytes', 00H			; `string'
; Function compile flags: /Odtp
CONST	ENDS
;	COMDAT _Py_Bytes
_TEXT	SEGMENT
p$ = 32
s$ = 64
lineno$ = 72
col_offset$ = 80
arena$ = 88
_Py_Bytes PROC						; COMDAT

; 1908 : {

$LN5:
  00000	4c 89 4c 24 20	 mov	 QWORD PTR [rsp+32], r9
  00005	44 89 44 24 18	 mov	 DWORD PTR [rsp+24], r8d
  0000a	89 54 24 10	 mov	 DWORD PTR [rsp+16], edx
  0000e	48 89 4c 24 08	 mov	 QWORD PTR [rsp+8], rcx
  00013	48 83 ec 38	 sub	 rsp, 56			; 00000038H

; 1909 :     expr_ty p;
; 1910 :     if (!s) {

  00017	48 83 7c 24 40
	00		 cmp	 QWORD PTR s$[rsp], 0
  0001d	75 17		 jne	 SHORT $LN2@Py_Bytes

; 1911 :         PyErr_SetString(PyExc_ValueError,
; 1912 :                         "field s is required for Bytes");

  0001f	48 8d 15 00 00
	00 00		 lea	 rdx, OFFSET FLAT:??_C@_0BO@CEGOEFPG@field?5s?5is?5required?5for?5Bytes?$AA@
  00026	48 8b 0d 00 00
	00 00		 mov	 rcx, QWORD PTR PyExc_ValueError
  0002d	e8 00 00 00 00	 call	 PyErr_SetString

; 1913 :         return NULL;

  00032	33 c0		 xor	 eax, eax
  00034	eb 56		 jmp	 SHORT $LN3@Py_Bytes
$LN2@Py_Bytes:

; 1914 :     }
; 1915 :     p = (expr_ty)PyArena_Malloc(arena, sizeof(*p));

  00036	ba 38 00 00 00	 mov	 edx, 56			; 00000038H
  0003b	48 8b 4c 24 58	 mov	 rcx, QWORD PTR arena$[rsp]
  00040	e8 00 00 00 00	 call	 PyArena_Malloc
  00045	48 89 44 24 20	 mov	 QWORD PTR p$[rsp], rax

; 1916 :     if (!p)

  0004a	48 83 7c 24 20
	00		 cmp	 QWORD PTR p$[rsp], 0
  00050	75 04		 jne	 SHORT $LN1@Py_Bytes

; 1917 :         return NULL;

  00052	33 c0		 xor	 eax, eax
  00054	eb 36		 jmp	 SHORT $LN3@Py_Bytes
$LN1@Py_Bytes:

; 1918 :     p->kind = Bytes_kind;

  00056	48 8b 44 24 20	 mov	 rax, QWORD PTR p$[rsp]
  0005b	c7 00 12 00 00
	00		 mov	 DWORD PTR [rax], 18

; 1919 :     p->v.Bytes.s = s;

  00061	48 8b 44 24 20	 mov	 rax, QWORD PTR p$[rsp]
  00066	48 8b 4c 24 40	 mov	 rcx, QWORD PTR s$[rsp]
  0006b	48 89 48 08	 mov	 QWORD PTR [rax+8], rcx

; 1920 :     p->lineno = lineno;

  0006f	48 8b 44 24 20	 mov	 rax, QWORD PTR p$[rsp]
  00074	8b 4c 24 48	 mov	 ecx, DWORD PTR lineno$[rsp]
  00078	89 48 30	 mov	 DWORD PTR [rax+48], ecx

; 1921 :     p->col_offset = col_offset;

  0007b	48 8b 44 24 20	 mov	 rax, QWORD PTR p$[rsp]
  00080	8b 4c 24 50	 mov	 ecx, DWORD PTR col_offset$[rsp]
  00084	89 48 34	 mov	 DWORD PTR [rax+52], ecx

; 1922 :     return p;

  00087	48 8b 44 24 20	 mov	 rax, QWORD PTR p$[rsp]
$LN3@Py_Bytes:

; 1923 : }

  0008c	48 83 c4 38	 add	 rsp, 56			; 00000038H
  00090	c3		 ret	 0
_Py_Bytes ENDP
_TEXT	ENDS
PUBLIC	_Py_Ellipsis
;	COMDAT pdata
pdata	SEGMENT
$pdata$_Py_Ellipsis DD imagerel $LN4
	DD	imagerel $LN4+94
	DD	imagerel $unwind$_Py_Ellipsis
pdata	ENDS
;	COMDAT xdata
xdata	SEGMENT
$unwind$_Py_Ellipsis DD 011101H
	DD	06211H
; Function compile flags: /Odtp
xdata	ENDS
;	COMDAT _Py_Ellipsis
_TEXT	SEGMENT
p$ = 32
lineno$ = 64
col_offset$ = 72
arena$ = 80
_Py_Ellipsis PROC					; COMDAT

; 1927 : {

$LN4:
  00000	4c 89 44 24 18	 mov	 QWORD PTR [rsp+24], r8
  00005	89 54 24 10	 mov	 DWORD PTR [rsp+16], edx
  00009	89 4c 24 08	 mov	 DWORD PTR [rsp+8], ecx
  0000d	48 83 ec 38	 sub	 rsp, 56			; 00000038H

; 1928 :     expr_ty p;
; 1929 :     p = (expr_ty)PyArena_Malloc(arena, sizeof(*p));

  00011	ba 38 00 00 00	 mov	 edx, 56			; 00000038H
  00016	48 8b 4c 24 50	 mov	 rcx, QWORD PTR arena$[rsp]
  0001b	e8 00 00 00 00	 call	 PyArena_Malloc
  00020	48 89 44 24 20	 mov	 QWORD PTR p$[rsp], rax

; 1930 :     if (!p)

  00025	48 83 7c 24 20
	00		 cmp	 QWORD PTR p$[rsp], 0
  0002b	75 04		 jne	 SHORT $LN1@Py_Ellipsi

; 1931 :         return NULL;

  0002d	33 c0		 xor	 eax, eax
  0002f	eb 28		 jmp	 SHORT $LN2@Py_Ellipsi
$LN1@Py_Ellipsi:

; 1932 :     p->kind = Ellipsis_kind;

  00031	48 8b 44 24 20	 mov	 rax, QWORD PTR p$[rsp]
  00036	c7 00 13 00 00
	00		 mov	 DWORD PTR [rax], 19

; 1933 :     p->lineno = lineno;

  0003c	48 8b 44 24 20	 mov	 rax, QWORD PTR p$[rsp]
  00041	8b 4c 24 40	 mov	 ecx, DWORD PTR lineno$[rsp]
  00045	89 48 30	 mov	 DWORD PTR [rax+48], ecx

; 1934 :     p->col_offset = col_offset;

  00048	48 8b 44 24 20	 mov	 rax, QWORD PTR p$[rsp]
  0004d	8b 4c 24 48	 mov	 ecx, DWORD PTR col_offset$[rsp]
  00051	89 48 34	 mov	 DWORD PTR [rax+52], ecx

; 1935 :     return p;

  00054	48 8b 44 24 20	 mov	 rax, QWORD PTR p$[rsp]
$LN2@Py_Ellipsi:

; 1936 : }

  00059	48 83 c4 38	 add	 rsp, 56			; 00000038H
  0005d	c3		 ret	 0
_Py_Ellipsis ENDP
_TEXT	ENDS
PUBLIC	??_C@_0CE@GFDAHIKH@field?5ctx?5is?5required?5for?5Attrib@ ; `string'
PUBLIC	??_C@_0CF@BPLMMPJC@field?5attr?5is?5required?5for?5Attri@ ; `string'
PUBLIC	??_C@_0CG@HGGIECBD@field?5value?5is?5required?5for?5Attr@ ; `string'
PUBLIC	_Py_Attribute
;	COMDAT pdata
pdata	SEGMENT
$pdata$_Py_Attribute DD imagerel $LN7
	DD	imagerel $LN7+239
	DD	imagerel $unwind$_Py_Attribute
pdata	ENDS
;	COMDAT xdata
xdata	SEGMENT
$unwind$_Py_Attribute DD 011801H
	DD	06218H
xdata	ENDS
;	COMDAT ??_C@_0CE@GFDAHIKH@field?5ctx?5is?5required?5for?5Attrib@
CONST	SEGMENT
??_C@_0CE@GFDAHIKH@field?5ctx?5is?5required?5for?5Attrib@ DB 'field ctx i'
	DB	's required for Attribute', 00H		; `string'
CONST	ENDS
;	COMDAT ??_C@_0CF@BPLMMPJC@field?5attr?5is?5required?5for?5Attri@
CONST	SEGMENT
??_C@_0CF@BPLMMPJC@field?5attr?5is?5required?5for?5Attri@ DB 'field attr '
	DB	'is required for Attribute', 00H		; `string'
CONST	ENDS
;	COMDAT ??_C@_0CG@HGGIECBD@field?5value?5is?5required?5for?5Attr@
CONST	SEGMENT
??_C@_0CG@HGGIECBD@field?5value?5is?5required?5for?5Attr@ DB 'field value'
	DB	' is required for Attribute', 00H		; `string'
; Function compile flags: /Odtp
CONST	ENDS
;	COMDAT _Py_Attribute
_TEXT	SEGMENT
p$ = 32
value$ = 64
attr$ = 72
ctx$ = 80
lineno$ = 88
col_offset$ = 96
arena$ = 104
_Py_Attribute PROC					; COMDAT

; 1941 : {

$LN7:
  00000	44 89 4c 24 20	 mov	 DWORD PTR [rsp+32], r9d
  00005	44 89 44 24 18	 mov	 DWORD PTR [rsp+24], r8d
  0000a	48 89 54 24 10	 mov	 QWORD PTR [rsp+16], rdx
  0000f	48 89 4c 24 08	 mov	 QWORD PTR [rsp+8], rcx
  00014	48 83 ec 38	 sub	 rsp, 56			; 00000038H

; 1942 :     expr_ty p;
; 1943 :     if (!value) {

  00018	48 83 7c 24 40
	00		 cmp	 QWORD PTR value$[rsp], 0
  0001e	75 1a		 jne	 SHORT $LN4@Py_Attribu

; 1944 :         PyErr_SetString(PyExc_ValueError,
; 1945 :                         "field value is required for Attribute");

  00020	48 8d 15 00 00
	00 00		 lea	 rdx, OFFSET FLAT:??_C@_0CG@HGGIECBD@field?5value?5is?5required?5for?5Attr@
  00027	48 8b 0d 00 00
	00 00		 mov	 rcx, QWORD PTR PyExc_ValueError
  0002e	e8 00 00 00 00	 call	 PyErr_SetString

; 1946 :         return NULL;

  00033	33 c0		 xor	 eax, eax
  00035	e9 b0 00 00 00	 jmp	 $LN5@Py_Attribu
$LN4@Py_Attribu:

; 1947 :     }
; 1948 :     if (!attr) {

  0003a	48 83 7c 24 48
	00		 cmp	 QWORD PTR attr$[rsp], 0
  00040	75 1a		 jne	 SHORT $LN3@Py_Attribu

; 1949 :         PyErr_SetString(PyExc_ValueError,
; 1950 :                         "field attr is required for Attribute");

  00042	48 8d 15 00 00
	00 00		 lea	 rdx, OFFSET FLAT:??_C@_0CF@BPLMMPJC@field?5attr?5is?5required?5for?5Attri@
  00049	48 8b 0d 00 00
	00 00		 mov	 rcx, QWORD PTR PyExc_ValueError
  00050	e8 00 00 00 00	 call	 PyErr_SetString

; 1951 :         return NULL;

  00055	33 c0		 xor	 eax, eax
  00057	e9 8e 00 00 00	 jmp	 $LN5@Py_Attribu
$LN3@Py_Attribu:

; 1952 :     }
; 1953 :     if (!ctx) {

  0005c	83 7c 24 50 00	 cmp	 DWORD PTR ctx$[rsp], 0
  00061	75 17		 jne	 SHORT $LN2@Py_Attribu

; 1954 :         PyErr_SetString(PyExc_ValueError,
; 1955 :                         "field ctx is required for Attribute");

  00063	48 8d 15 00 00
	00 00		 lea	 rdx, OFFSET FLAT:??_C@_0CE@GFDAHIKH@field?5ctx?5is?5required?5for?5Attrib@
  0006a	48 8b 0d 00 00
	00 00		 mov	 rcx, QWORD PTR PyExc_ValueError
  00071	e8 00 00 00 00	 call	 PyErr_SetString

; 1956 :         return NULL;

  00076	33 c0		 xor	 eax, eax
  00078	eb 70		 jmp	 SHORT $LN5@Py_Attribu
$LN2@Py_Attribu:

; 1957 :     }
; 1958 :     p = (expr_ty)PyArena_Malloc(arena, sizeof(*p));

  0007a	ba 38 00 00 00	 mov	 edx, 56			; 00000038H
  0007f	48 8b 4c 24 68	 mov	 rcx, QWORD PTR arena$[rsp]
  00084	e8 00 00 00 00	 call	 PyArena_Malloc
  00089	48 89 44 24 20	 mov	 QWORD PTR p$[rsp], rax

; 1959 :     if (!p)

  0008e	48 83 7c 24 20
	00		 cmp	 QWORD PTR p$[rsp], 0
  00094	75 04		 jne	 SHORT $LN1@Py_Attribu

; 1960 :         return NULL;

  00096	33 c0		 xor	 eax, eax
  00098	eb 50		 jmp	 SHORT $LN5@Py_Attribu
$LN1@Py_Attribu:

; 1961 :     p->kind = Attribute_kind;

  0009a	48 8b 44 24 20	 mov	 rax, QWORD PTR p$[rsp]
  0009f	c7 00 14 00 00
	00		 mov	 DWORD PTR [rax], 20

; 1962 :     p->v.Attribute.value = value;

  000a5	48 8b 44 24 20	 mov	 rax, QWORD PTR p$[rsp]
  000aa	48 8b 4c 24 40	 mov	 rcx, QWORD PTR value$[rsp]
  000af	48 89 48 08	 mov	 QWORD PTR [rax+8], rcx

; 1963 :     p->v.Attribute.attr = attr;

  000b3	48 8b 44 24 20	 mov	 rax, QWORD PTR p$[rsp]
  000b8	48 8b 4c 24 48	 mov	 rcx, QWORD PTR attr$[rsp]
  000bd	48 89 48 10	 mov	 QWORD PTR [rax+16], rcx

; 1964 :     p->v.Attribute.ctx = ctx;

  000c1	48 8b 44 24 20	 mov	 rax, QWORD PTR p$[rsp]
  000c6	8b 4c 24 50	 mov	 ecx, DWORD PTR ctx$[rsp]
  000ca	89 48 18	 mov	 DWORD PTR [rax+24], ecx

; 1965 :     p->lineno = lineno;

  000cd	48 8b 44 24 20	 mov	 rax, QWORD PTR p$[rsp]
  000d2	8b 4c 24 58	 mov	 ecx, DWORD PTR lineno$[rsp]
  000d6	89 48 30	 mov	 DWORD PTR [rax+48], ecx

; 1966 :     p->col_offset = col_offset;

  000d9	48 8b 44 24 20	 mov	 rax, QWORD PTR p$[rsp]
  000de	8b 4c 24 60	 mov	 ecx, DWORD PTR col_offset$[rsp]
  000e2	89 48 34	 mov	 DWORD PTR [rax+52], ecx

; 1967 :     return p;

  000e5	48 8b 44 24 20	 mov	 rax, QWORD PTR p$[rsp]
$LN5@Py_Attribu:

; 1968 : }

  000ea	48 83 c4 38	 add	 rsp, 56			; 00000038H
  000ee	c3		 ret	 0
_Py_Attribute ENDP
_TEXT	ENDS
PUBLIC	??_C@_0CE@MCNHNJCG@field?5ctx?5is?5required?5for?5Subscr@ ; `string'
PUBLIC	??_C@_0CG@MJNCMDLL@field?5slice?5is?5required?5for?5Subs@ ; `string'
PUBLIC	??_C@_0CG@NBIPODJC@field?5value?5is?5required?5for?5Subs@ ; `string'
PUBLIC	_Py_Subscript
;	COMDAT pdata
pdata	SEGMENT
$pdata$_Py_Subscript DD imagerel $LN7
	DD	imagerel $LN7+239
	DD	imagerel $unwind$_Py_Subscript
pdata	ENDS
;	COMDAT xdata
xdata	SEGMENT
$unwind$_Py_Subscript DD 011801H
	DD	06218H
xdata	ENDS
;	COMDAT ??_C@_0CE@MCNHNJCG@field?5ctx?5is?5required?5for?5Subscr@
CONST	SEGMENT
??_C@_0CE@MCNHNJCG@field?5ctx?5is?5required?5for?5Subscr@ DB 'field ctx i'
	DB	's required for Subscript', 00H		; `string'
CONST	ENDS
;	COMDAT ??_C@_0CG@MJNCMDLL@field?5slice?5is?5required?5for?5Subs@
CONST	SEGMENT
??_C@_0CG@MJNCMDLL@field?5slice?5is?5required?5for?5Subs@ DB 'field slice'
	DB	' is required for Subscript', 00H		; `string'
CONST	ENDS
;	COMDAT ??_C@_0CG@NBIPODJC@field?5value?5is?5required?5for?5Subs@
CONST	SEGMENT
??_C@_0CG@NBIPODJC@field?5value?5is?5required?5for?5Subs@ DB 'field value'
	DB	' is required for Subscript', 00H		; `string'
; Function compile flags: /Odtp
CONST	ENDS
;	COMDAT _Py_Subscript
_TEXT	SEGMENT
p$ = 32
value$ = 64
slice$ = 72
ctx$ = 80
lineno$ = 88
col_offset$ = 96
arena$ = 104
_Py_Subscript PROC					; COMDAT

; 1973 : {

$LN7:
  00000	44 89 4c 24 20	 mov	 DWORD PTR [rsp+32], r9d
  00005	44 89 44 24 18	 mov	 DWORD PTR [rsp+24], r8d
  0000a	48 89 54 24 10	 mov	 QWORD PTR [rsp+16], rdx
  0000f	48 89 4c 24 08	 mov	 QWORD PTR [rsp+8], rcx
  00014	48 83 ec 38	 sub	 rsp, 56			; 00000038H

; 1974 :     expr_ty p;
; 1975 :     if (!value) {

  00018	48 83 7c 24 40
	00		 cmp	 QWORD PTR value$[rsp], 0
  0001e	75 1a		 jne	 SHORT $LN4@Py_Subscri

; 1976 :         PyErr_SetString(PyExc_ValueError,
; 1977 :                         "field value is required for Subscript");

  00020	48 8d 15 00 00
	00 00		 lea	 rdx, OFFSET FLAT:??_C@_0CG@NBIPODJC@field?5value?5is?5required?5for?5Subs@
  00027	48 8b 0d 00 00
	00 00		 mov	 rcx, QWORD PTR PyExc_ValueError
  0002e	e8 00 00 00 00	 call	 PyErr_SetString

; 1978 :         return NULL;

  00033	33 c0		 xor	 eax, eax
  00035	e9 b0 00 00 00	 jmp	 $LN5@Py_Subscri
$LN4@Py_Subscri:

; 1979 :     }
; 1980 :     if (!slice) {

  0003a	48 83 7c 24 48
	00		 cmp	 QWORD PTR slice$[rsp], 0
  00040	75 1a		 jne	 SHORT $LN3@Py_Subscri

; 1981 :         PyErr_SetString(PyExc_ValueError,
; 1982 :                         "field slice is required for Subscript");

  00042	48 8d 15 00 00
	00 00		 lea	 rdx, OFFSET FLAT:??_C@_0CG@MJNCMDLL@field?5slice?5is?5required?5for?5Subs@
  00049	48 8b 0d 00 00
	00 00		 mov	 rcx, QWORD PTR PyExc_ValueError
  00050	e8 00 00 00 00	 call	 PyErr_SetString

; 1983 :         return NULL;

  00055	33 c0		 xor	 eax, eax
  00057	e9 8e 00 00 00	 jmp	 $LN5@Py_Subscri
$LN3@Py_Subscri:

; 1984 :     }
; 1985 :     if (!ctx) {

  0005c	83 7c 24 50 00	 cmp	 DWORD PTR ctx$[rsp], 0
  00061	75 17		 jne	 SHORT $LN2@Py_Subscri

; 1986 :         PyErr_SetString(PyExc_ValueError,
; 1987 :                         "field ctx is required for Subscript");

  00063	48 8d 15 00 00
	00 00		 lea	 rdx, OFFSET FLAT:??_C@_0CE@MCNHNJCG@field?5ctx?5is?5required?5for?5Subscr@
  0006a	48 8b 0d 00 00
	00 00		 mov	 rcx, QWORD PTR PyExc_ValueError
  00071	e8 00 00 00 00	 call	 PyErr_SetString

; 1988 :         return NULL;

  00076	33 c0		 xor	 eax, eax
  00078	eb 70		 jmp	 SHORT $LN5@Py_Subscri
$LN2@Py_Subscri:

; 1989 :     }
; 1990 :     p = (expr_ty)PyArena_Malloc(arena, sizeof(*p));

  0007a	ba 38 00 00 00	 mov	 edx, 56			; 00000038H
  0007f	48 8b 4c 24 68	 mov	 rcx, QWORD PTR arena$[rsp]
  00084	e8 00 00 00 00	 call	 PyArena_Malloc
  00089	48 89 44 24 20	 mov	 QWORD PTR p$[rsp], rax

; 1991 :     if (!p)

  0008e	48 83 7c 24 20
	00		 cmp	 QWORD PTR p$[rsp], 0
  00094	75 04		 jne	 SHORT $LN1@Py_Subscri

; 1992 :         return NULL;

  00096	33 c0		 xor	 eax, eax
  00098	eb 50		 jmp	 SHORT $LN5@Py_Subscri
$LN1@Py_Subscri:

; 1993 :     p->kind = Subscript_kind;

  0009a	48 8b 44 24 20	 mov	 rax, QWORD PTR p$[rsp]
  0009f	c7 00 15 00 00
	00		 mov	 DWORD PTR [rax], 21

; 1994 :     p->v.Subscript.value = value;

  000a5	48 8b 44 24 20	 mov	 rax, QWORD PTR p$[rsp]
  000aa	48 8b 4c 24 40	 mov	 rcx, QWORD PTR value$[rsp]
  000af	48 89 48 08	 mov	 QWORD PTR [rax+8], rcx

; 1995 :     p->v.Subscript.slice = slice;

  000b3	48 8b 44 24 20	 mov	 rax, QWORD PTR p$[rsp]
  000b8	48 8b 4c 24 48	 mov	 rcx, QWORD PTR slice$[rsp]
  000bd	48 89 48 10	 mov	 QWORD PTR [rax+16], rcx

; 1996 :     p->v.Subscript.ctx = ctx;

  000c1	48 8b 44 24 20	 mov	 rax, QWORD PTR p$[rsp]
  000c6	8b 4c 24 50	 mov	 ecx, DWORD PTR ctx$[rsp]
  000ca	89 48 18	 mov	 DWORD PTR [rax+24], ecx

; 1997 :     p->lineno = lineno;

  000cd	48 8b 44 24 20	 mov	 rax, QWORD PTR p$[rsp]
  000d2	8b 4c 24 58	 mov	 ecx, DWORD PTR lineno$[rsp]
  000d6	89 48 30	 mov	 DWORD PTR [rax+48], ecx

; 1998 :     p->col_offset = col_offset;

  000d9	48 8b 44 24 20	 mov	 rax, QWORD PTR p$[rsp]
  000de	8b 4c 24 60	 mov	 ecx, DWORD PTR col_offset$[rsp]
  000e2	89 48 34	 mov	 DWORD PTR [rax+52], ecx

; 1999 :     return p;

  000e5	48 8b 44 24 20	 mov	 rax, QWORD PTR p$[rsp]
$LN5@Py_Subscri:

; 2000 : }

  000ea	48 83 c4 38	 add	 rsp, 56			; 00000038H
  000ee	c3		 ret	 0
_Py_Subscript ENDP
_TEXT	ENDS
PUBLIC	??_C@_0CC@CPGFGGKA@field?5ctx?5is?5required?5for?5Starre@ ; `string'
PUBLIC	??_C@_0CE@ODFOICMJ@field?5value?5is?5required?5for?5Star@ ; `string'
PUBLIC	_Py_Starred
;	COMDAT pdata
pdata	SEGMENT
$pdata$_Py_Starred DD imagerel $LN6
	DD	imagerel $LN6+190
	DD	imagerel $unwind$_Py_Starred
pdata	ENDS
;	COMDAT xdata
xdata	SEGMENT
$unwind$_Py_Starred DD 011701H
	DD	06217H
xdata	ENDS
;	COMDAT ??_C@_0CC@CPGFGGKA@field?5ctx?5is?5required?5for?5Starre@
CONST	SEGMENT
??_C@_0CC@CPGFGGKA@field?5ctx?5is?5required?5for?5Starre@ DB 'field ctx i'
	DB	's required for Starred', 00H		; `string'
CONST	ENDS
;	COMDAT ??_C@_0CE@ODFOICMJ@field?5value?5is?5required?5for?5Star@
CONST	SEGMENT
??_C@_0CE@ODFOICMJ@field?5value?5is?5required?5for?5Star@ DB 'field value'
	DB	' is required for Starred', 00H		; `string'
; Function compile flags: /Odtp
CONST	ENDS
;	COMDAT _Py_Starred
_TEXT	SEGMENT
p$ = 32
value$ = 64
ctx$ = 72
lineno$ = 80
col_offset$ = 88
arena$ = 96
_Py_Starred PROC					; COMDAT

; 2005 : {

$LN6:
  00000	44 89 4c 24 20	 mov	 DWORD PTR [rsp+32], r9d
  00005	44 89 44 24 18	 mov	 DWORD PTR [rsp+24], r8d
  0000a	89 54 24 10	 mov	 DWORD PTR [rsp+16], edx
  0000e	48 89 4c 24 08	 mov	 QWORD PTR [rsp+8], rcx
  00013	48 83 ec 38	 sub	 rsp, 56			; 00000038H

; 2006 :     expr_ty p;
; 2007 :     if (!value) {

  00017	48 83 7c 24 40
	00		 cmp	 QWORD PTR value$[rsp], 0
  0001d	75 1a		 jne	 SHORT $LN3@Py_Starred

; 2008 :         PyErr_SetString(PyExc_ValueError,
; 2009 :                         "field value is required for Starred");

  0001f	48 8d 15 00 00
	00 00		 lea	 rdx, OFFSET FLAT:??_C@_0CE@ODFOICMJ@field?5value?5is?5required?5for?5Star@
  00026	48 8b 0d 00 00
	00 00		 mov	 rcx, QWORD PTR PyExc_ValueError
  0002d	e8 00 00 00 00	 call	 PyErr_SetString

; 2010 :         return NULL;

  00032	33 c0		 xor	 eax, eax
  00034	e9 80 00 00 00	 jmp	 $LN4@Py_Starred
$LN3@Py_Starred:

; 2011 :     }
; 2012 :     if (!ctx) {

  00039	83 7c 24 48 00	 cmp	 DWORD PTR ctx$[rsp], 0
  0003e	75 17		 jne	 SHORT $LN2@Py_Starred

; 2013 :         PyErr_SetString(PyExc_ValueError,
; 2014 :                         "field ctx is required for Starred");

  00040	48 8d 15 00 00
	00 00		 lea	 rdx, OFFSET FLAT:??_C@_0CC@CPGFGGKA@field?5ctx?5is?5required?5for?5Starre@
  00047	48 8b 0d 00 00
	00 00		 mov	 rcx, QWORD PTR PyExc_ValueError
  0004e	e8 00 00 00 00	 call	 PyErr_SetString

; 2015 :         return NULL;

  00053	33 c0		 xor	 eax, eax
  00055	eb 62		 jmp	 SHORT $LN4@Py_Starred
$LN2@Py_Starred:

; 2016 :     }
; 2017 :     p = (expr_ty)PyArena_Malloc(arena, sizeof(*p));

  00057	ba 38 00 00 00	 mov	 edx, 56			; 00000038H
  0005c	48 8b 4c 24 60	 mov	 rcx, QWORD PTR arena$[rsp]
  00061	e8 00 00 00 00	 call	 PyArena_Malloc
  00066	48 89 44 24 20	 mov	 QWORD PTR p$[rsp], rax

; 2018 :     if (!p)

  0006b	48 83 7c 24 20
	00		 cmp	 QWORD PTR p$[rsp], 0
  00071	75 04		 jne	 SHORT $LN1@Py_Starred

; 2019 :         return NULL;

  00073	33 c0		 xor	 eax, eax
  00075	eb 42		 jmp	 SHORT $LN4@Py_Starred
$LN1@Py_Starred:

; 2020 :     p->kind = Starred_kind;

  00077	48 8b 44 24 20	 mov	 rax, QWORD PTR p$[rsp]
  0007c	c7 00 16 00 00
	00		 mov	 DWORD PTR [rax], 22

; 2021 :     p->v.Starred.value = value;

  00082	48 8b 44 24 20	 mov	 rax, QWORD PTR p$[rsp]
  00087	48 8b 4c 24 40	 mov	 rcx, QWORD PTR value$[rsp]
  0008c	48 89 48 08	 mov	 QWORD PTR [rax+8], rcx

; 2022 :     p->v.Starred.ctx = ctx;

  00090	48 8b 44 24 20	 mov	 rax, QWORD PTR p$[rsp]
  00095	8b 4c 24 48	 mov	 ecx, DWORD PTR ctx$[rsp]
  00099	89 48 10	 mov	 DWORD PTR [rax+16], ecx

; 2023 :     p->lineno = lineno;

  0009c	48 8b 44 24 20	 mov	 rax, QWORD PTR p$[rsp]
  000a1	8b 4c 24 50	 mov	 ecx, DWORD PTR lineno$[rsp]
  000a5	89 48 30	 mov	 DWORD PTR [rax+48], ecx

; 2024 :     p->col_offset = col_offset;

  000a8	48 8b 44 24 20	 mov	 rax, QWORD PTR p$[rsp]
  000ad	8b 4c 24 58	 mov	 ecx, DWORD PTR col_offset$[rsp]
  000b1	89 48 34	 mov	 DWORD PTR [rax+52], ecx

; 2025 :     return p;

  000b4	48 8b 44 24 20	 mov	 rax, QWORD PTR p$[rsp]
$LN4@Py_Starred:

; 2026 : }

  000b9	48 83 c4 38	 add	 rsp, 56			; 00000038H
  000bd	c3		 ret	 0
_Py_Starred ENDP
_TEXT	ENDS
PUBLIC	??_C@_0BP@BOOKAOAN@field?5ctx?5is?5required?5for?5Name?$AA@ ; `string'
PUBLIC	??_C@_0BO@MHABBJCN@field?5id?5is?5required?5for?5Name?$AA@ ; `string'
PUBLIC	_Py_Name
;	COMDAT pdata
pdata	SEGMENT
$pdata$_Py_Name DD imagerel $LN6
	DD	imagerel $LN6+190
	DD	imagerel $unwind$_Py_Name
pdata	ENDS
;	COMDAT xdata
xdata	SEGMENT
$unwind$_Py_Name DD 011701H
	DD	06217H
xdata	ENDS
;	COMDAT ??_C@_0BP@BOOKAOAN@field?5ctx?5is?5required?5for?5Name?$AA@
CONST	SEGMENT
??_C@_0BP@BOOKAOAN@field?5ctx?5is?5required?5for?5Name?$AA@ DB 'field ctx'
	DB	' is required for Name', 00H			; `string'
CONST	ENDS
;	COMDAT ??_C@_0BO@MHABBJCN@field?5id?5is?5required?5for?5Name?$AA@
CONST	SEGMENT
??_C@_0BO@MHABBJCN@field?5id?5is?5required?5for?5Name?$AA@ DB 'field id i'
	DB	's required for Name', 00H			; `string'
; Function compile flags: /Odtp
CONST	ENDS
;	COMDAT _Py_Name
_TEXT	SEGMENT
p$ = 32
id$ = 64
ctx$ = 72
lineno$ = 80
col_offset$ = 88
arena$ = 96
_Py_Name PROC						; COMDAT

; 2031 : {

$LN6:
  00000	44 89 4c 24 20	 mov	 DWORD PTR [rsp+32], r9d
  00005	44 89 44 24 18	 mov	 DWORD PTR [rsp+24], r8d
  0000a	89 54 24 10	 mov	 DWORD PTR [rsp+16], edx
  0000e	48 89 4c 24 08	 mov	 QWORD PTR [rsp+8], rcx
  00013	48 83 ec 38	 sub	 rsp, 56			; 00000038H

; 2032 :     expr_ty p;
; 2033 :     if (!id) {

  00017	48 83 7c 24 40
	00		 cmp	 QWORD PTR id$[rsp], 0
  0001d	75 1a		 jne	 SHORT $LN3@Py_Name

; 2034 :         PyErr_SetString(PyExc_ValueError,
; 2035 :                         "field id is required for Name");

  0001f	48 8d 15 00 00
	00 00		 lea	 rdx, OFFSET FLAT:??_C@_0BO@MHABBJCN@field?5id?5is?5required?5for?5Name?$AA@
  00026	48 8b 0d 00 00
	00 00		 mov	 rcx, QWORD PTR PyExc_ValueError
  0002d	e8 00 00 00 00	 call	 PyErr_SetString

; 2036 :         return NULL;

  00032	33 c0		 xor	 eax, eax
  00034	e9 80 00 00 00	 jmp	 $LN4@Py_Name
$LN3@Py_Name:

; 2037 :     }
; 2038 :     if (!ctx) {

  00039	83 7c 24 48 00	 cmp	 DWORD PTR ctx$[rsp], 0
  0003e	75 17		 jne	 SHORT $LN2@Py_Name

; 2039 :         PyErr_SetString(PyExc_ValueError,
; 2040 :                         "field ctx is required for Name");

  00040	48 8d 15 00 00
	00 00		 lea	 rdx, OFFSET FLAT:??_C@_0BP@BOOKAOAN@field?5ctx?5is?5required?5for?5Name?$AA@
  00047	48 8b 0d 00 00
	00 00		 mov	 rcx, QWORD PTR PyExc_ValueError
  0004e	e8 00 00 00 00	 call	 PyErr_SetString

; 2041 :         return NULL;

  00053	33 c0		 xor	 eax, eax
  00055	eb 62		 jmp	 SHORT $LN4@Py_Name
$LN2@Py_Name:

; 2042 :     }
; 2043 :     p = (expr_ty)PyArena_Malloc(arena, sizeof(*p));

  00057	ba 38 00 00 00	 mov	 edx, 56			; 00000038H
  0005c	48 8b 4c 24 60	 mov	 rcx, QWORD PTR arena$[rsp]
  00061	e8 00 00 00 00	 call	 PyArena_Malloc
  00066	48 89 44 24 20	 mov	 QWORD PTR p$[rsp], rax

; 2044 :     if (!p)

  0006b	48 83 7c 24 20
	00		 cmp	 QWORD PTR p$[rsp], 0
  00071	75 04		 jne	 SHORT $LN1@Py_Name

; 2045 :         return NULL;

  00073	33 c0		 xor	 eax, eax
  00075	eb 42		 jmp	 SHORT $LN4@Py_Name
$LN1@Py_Name:

; 2046 :     p->kind = Name_kind;

  00077	48 8b 44 24 20	 mov	 rax, QWORD PTR p$[rsp]
  0007c	c7 00 17 00 00
	00		 mov	 DWORD PTR [rax], 23

; 2047 :     p->v.Name.id = id;

  00082	48 8b 44 24 20	 mov	 rax, QWORD PTR p$[rsp]
  00087	48 8b 4c 24 40	 mov	 rcx, QWORD PTR id$[rsp]
  0008c	48 89 48 08	 mov	 QWORD PTR [rax+8], rcx

; 2048 :     p->v.Name.ctx = ctx;

  00090	48 8b 44 24 20	 mov	 rax, QWORD PTR p$[rsp]
  00095	8b 4c 24 48	 mov	 ecx, DWORD PTR ctx$[rsp]
  00099	89 48 10	 mov	 DWORD PTR [rax+16], ecx

; 2049 :     p->lineno = lineno;

  0009c	48 8b 44 24 20	 mov	 rax, QWORD PTR p$[rsp]
  000a1	8b 4c 24 50	 mov	 ecx, DWORD PTR lineno$[rsp]
  000a5	89 48 30	 mov	 DWORD PTR [rax+48], ecx

; 2050 :     p->col_offset = col_offset;

  000a8	48 8b 44 24 20	 mov	 rax, QWORD PTR p$[rsp]
  000ad	8b 4c 24 58	 mov	 ecx, DWORD PTR col_offset$[rsp]
  000b1	89 48 34	 mov	 DWORD PTR [rax+52], ecx

; 2051 :     return p;

  000b4	48 8b 44 24 20	 mov	 rax, QWORD PTR p$[rsp]
$LN4@Py_Name:

; 2052 : }

  000b9	48 83 c4 38	 add	 rsp, 56			; 00000038H
  000bd	c3		 ret	 0
_Py_Name ENDP
_TEXT	ENDS
PUBLIC	??_C@_0BP@OEPPNIOI@field?5ctx?5is?5required?5for?5List?$AA@ ; `string'
PUBLIC	_Py_List
;	COMDAT pdata
pdata	SEGMENT
$pdata$_Py_List DD imagerel $LN5
	DD	imagerel $LN5+156
	DD	imagerel $unwind$_Py_List
pdata	ENDS
;	COMDAT xdata
xdata	SEGMENT
$unwind$_Py_List DD 011701H
	DD	06217H
xdata	ENDS
;	COMDAT ??_C@_0BP@OEPPNIOI@field?5ctx?5is?5required?5for?5List?$AA@
CONST	SEGMENT
??_C@_0BP@OEPPNIOI@field?5ctx?5is?5required?5for?5List?$AA@ DB 'field ctx'
	DB	' is required for List', 00H			; `string'
; Function compile flags: /Odtp
CONST	ENDS
;	COMDAT _Py_List
_TEXT	SEGMENT
p$ = 32
elts$ = 64
ctx$ = 72
lineno$ = 80
col_offset$ = 88
arena$ = 96
_Py_List PROC						; COMDAT

; 2057 : {

$LN5:
  00000	44 89 4c 24 20	 mov	 DWORD PTR [rsp+32], r9d
  00005	44 89 44 24 18	 mov	 DWORD PTR [rsp+24], r8d
  0000a	89 54 24 10	 mov	 DWORD PTR [rsp+16], edx
  0000e	48 89 4c 24 08	 mov	 QWORD PTR [rsp+8], rcx
  00013	48 83 ec 38	 sub	 rsp, 56			; 00000038H

; 2058 :     expr_ty p;
; 2059 :     if (!ctx) {

  00017	83 7c 24 48 00	 cmp	 DWORD PTR ctx$[rsp], 0
  0001c	75 17		 jne	 SHORT $LN2@Py_List

; 2060 :         PyErr_SetString(PyExc_ValueError,
; 2061 :                         "field ctx is required for List");

  0001e	48 8d 15 00 00
	00 00		 lea	 rdx, OFFSET FLAT:??_C@_0BP@OEPPNIOI@field?5ctx?5is?5required?5for?5List?$AA@
  00025	48 8b 0d 00 00
	00 00		 mov	 rcx, QWORD PTR PyExc_ValueError
  0002c	e8 00 00 00 00	 call	 PyErr_SetString

; 2062 :         return NULL;

  00031	33 c0		 xor	 eax, eax
  00033	eb 62		 jmp	 SHORT $LN3@Py_List
$LN2@Py_List:

; 2063 :     }
; 2064 :     p = (expr_ty)PyArena_Malloc(arena, sizeof(*p));

  00035	ba 38 00 00 00	 mov	 edx, 56			; 00000038H
  0003a	48 8b 4c 24 60	 mov	 rcx, QWORD PTR arena$[rsp]
  0003f	e8 00 00 00 00	 call	 PyArena_Malloc
  00044	48 89 44 24 20	 mov	 QWORD PTR p$[rsp], rax

; 2065 :     if (!p)

  00049	48 83 7c 24 20
	00		 cmp	 QWORD PTR p$[rsp], 0
  0004f	75 04		 jne	 SHORT $LN1@Py_List

; 2066 :         return NULL;

  00051	33 c0		 xor	 eax, eax
  00053	eb 42		 jmp	 SHORT $LN3@Py_List
$LN1@Py_List:

; 2067 :     p->kind = List_kind;

  00055	48 8b 44 24 20	 mov	 rax, QWORD PTR p$[rsp]
  0005a	c7 00 18 00 00
	00		 mov	 DWORD PTR [rax], 24

; 2068 :     p->v.List.elts = elts;

  00060	48 8b 44 24 20	 mov	 rax, QWORD PTR p$[rsp]
  00065	48 8b 4c 24 40	 mov	 rcx, QWORD PTR elts$[rsp]
  0006a	48 89 48 08	 mov	 QWORD PTR [rax+8], rcx

; 2069 :     p->v.List.ctx = ctx;

  0006e	48 8b 44 24 20	 mov	 rax, QWORD PTR p$[rsp]
  00073	8b 4c 24 48	 mov	 ecx, DWORD PTR ctx$[rsp]
  00077	89 48 10	 mov	 DWORD PTR [rax+16], ecx

; 2070 :     p->lineno = lineno;

  0007a	48 8b 44 24 20	 mov	 rax, QWORD PTR p$[rsp]
  0007f	8b 4c 24 50	 mov	 ecx, DWORD PTR lineno$[rsp]
  00083	89 48 30	 mov	 DWORD PTR [rax+48], ecx

; 2071 :     p->col_offset = col_offset;

  00086	48 8b 44 24 20	 mov	 rax, QWORD PTR p$[rsp]
  0008b	8b 4c 24 58	 mov	 ecx, DWORD PTR col_offset$[rsp]
  0008f	89 48 34	 mov	 DWORD PTR [rax+52], ecx

; 2072 :     return p;

  00092	48 8b 44 24 20	 mov	 rax, QWORD PTR p$[rsp]
$LN3@Py_List:

; 2073 : }

  00097	48 83 c4 38	 add	 rsp, 56			; 00000038H
  0009b	c3		 ret	 0
_Py_List ENDP
_TEXT	ENDS
PUBLIC	??_C@_0CA@PMKKKNCD@field?5ctx?5is?5required?5for?5Tuple?$AA@ ; `string'
PUBLIC	_Py_Tuple
;	COMDAT pdata
pdata	SEGMENT
$pdata$_Py_Tuple DD imagerel $LN5
	DD	imagerel $LN5+156
	DD	imagerel $unwind$_Py_Tuple
pdata	ENDS
;	COMDAT xdata
xdata	SEGMENT
$unwind$_Py_Tuple DD 011701H
	DD	06217H
xdata	ENDS
;	COMDAT ??_C@_0CA@PMKKKNCD@field?5ctx?5is?5required?5for?5Tuple?$AA@
CONST	SEGMENT
??_C@_0CA@PMKKKNCD@field?5ctx?5is?5required?5for?5Tuple?$AA@ DB 'field ct'
	DB	'x is required for Tuple', 00H		; `string'
; Function compile flags: /Odtp
CONST	ENDS
;	COMDAT _Py_Tuple
_TEXT	SEGMENT
p$ = 32
elts$ = 64
ctx$ = 72
lineno$ = 80
col_offset$ = 88
arena$ = 96
_Py_Tuple PROC						; COMDAT

; 2078 : {

$LN5:
  00000	44 89 4c 24 20	 mov	 DWORD PTR [rsp+32], r9d
  00005	44 89 44 24 18	 mov	 DWORD PTR [rsp+24], r8d
  0000a	89 54 24 10	 mov	 DWORD PTR [rsp+16], edx
  0000e	48 89 4c 24 08	 mov	 QWORD PTR [rsp+8], rcx
  00013	48 83 ec 38	 sub	 rsp, 56			; 00000038H

; 2079 :     expr_ty p;
; 2080 :     if (!ctx) {

  00017	83 7c 24 48 00	 cmp	 DWORD PTR ctx$[rsp], 0
  0001c	75 17		 jne	 SHORT $LN2@Py_Tuple

; 2081 :         PyErr_SetString(PyExc_ValueError,
; 2082 :                         "field ctx is required for Tuple");

  0001e	48 8d 15 00 00
	00 00		 lea	 rdx, OFFSET FLAT:??_C@_0CA@PMKKKNCD@field?5ctx?5is?5required?5for?5Tuple?$AA@
  00025	48 8b 0d 00 00
	00 00		 mov	 rcx, QWORD PTR PyExc_ValueError
  0002c	e8 00 00 00 00	 call	 PyErr_SetString

; 2083 :         return NULL;

  00031	33 c0		 xor	 eax, eax
  00033	eb 62		 jmp	 SHORT $LN3@Py_Tuple
$LN2@Py_Tuple:

; 2084 :     }
; 2085 :     p = (expr_ty)PyArena_Malloc(arena, sizeof(*p));

  00035	ba 38 00 00 00	 mov	 edx, 56			; 00000038H
  0003a	48 8b 4c 24 60	 mov	 rcx, QWORD PTR arena$[rsp]
  0003f	e8 00 00 00 00	 call	 PyArena_Malloc
  00044	48 89 44 24 20	 mov	 QWORD PTR p$[rsp], rax

; 2086 :     if (!p)

  00049	48 83 7c 24 20
	00		 cmp	 QWORD PTR p$[rsp], 0
  0004f	75 04		 jne	 SHORT $LN1@Py_Tuple

; 2087 :         return NULL;

  00051	33 c0		 xor	 eax, eax
  00053	eb 42		 jmp	 SHORT $LN3@Py_Tuple
$LN1@Py_Tuple:

; 2088 :     p->kind = Tuple_kind;

  00055	48 8b 44 24 20	 mov	 rax, QWORD PTR p$[rsp]
  0005a	c7 00 19 00 00
	00		 mov	 DWORD PTR [rax], 25

; 2089 :     p->v.Tuple.elts = elts;

  00060	48 8b 44 24 20	 mov	 rax, QWORD PTR p$[rsp]
  00065	48 8b 4c 24 40	 mov	 rcx, QWORD PTR elts$[rsp]
  0006a	48 89 48 08	 mov	 QWORD PTR [rax+8], rcx

; 2090 :     p->v.Tuple.ctx = ctx;

  0006e	48 8b 44 24 20	 mov	 rax, QWORD PTR p$[rsp]
  00073	8b 4c 24 48	 mov	 ecx, DWORD PTR ctx$[rsp]
  00077	89 48 10	 mov	 DWORD PTR [rax+16], ecx

; 2091 :     p->lineno = lineno;

  0007a	48 8b 44 24 20	 mov	 rax, QWORD PTR p$[rsp]
  0007f	8b 4c 24 50	 mov	 ecx, DWORD PTR lineno$[rsp]
  00083	89 48 30	 mov	 DWORD PTR [rax+48], ecx

; 2092 :     p->col_offset = col_offset;

  00086	48 8b 44 24 20	 mov	 rax, QWORD PTR p$[rsp]
  0008b	8b 4c 24 58	 mov	 ecx, DWORD PTR col_offset$[rsp]
  0008f	89 48 34	 mov	 DWORD PTR [rax+52], ecx

; 2093 :     return p;

  00092	48 8b 44 24 20	 mov	 rax, QWORD PTR p$[rsp]
$LN3@Py_Tuple:

; 2094 : }

  00097	48 83 c4 38	 add	 rsp, 56			; 00000038H
  0009b	c3		 ret	 0
_Py_Tuple ENDP
_TEXT	ENDS
PUBLIC	_Py_Slice
;	COMDAT pdata
pdata	SEGMENT
$pdata$_Py_Slice DD imagerel $LN4
	DD	imagerel $LN4+119
	DD	imagerel $unwind$_Py_Slice
pdata	ENDS
;	COMDAT xdata
xdata	SEGMENT
$unwind$_Py_Slice DD 011801H
	DD	06218H
; Function compile flags: /Odtp
xdata	ENDS
;	COMDAT _Py_Slice
_TEXT	SEGMENT
p$ = 32
lower$ = 64
upper$ = 72
step$ = 80
arena$ = 88
_Py_Slice PROC						; COMDAT

; 2098 : {

$LN4:
  00000	4c 89 4c 24 20	 mov	 QWORD PTR [rsp+32], r9
  00005	4c 89 44 24 18	 mov	 QWORD PTR [rsp+24], r8
  0000a	48 89 54 24 10	 mov	 QWORD PTR [rsp+16], rdx
  0000f	48 89 4c 24 08	 mov	 QWORD PTR [rsp+8], rcx
  00014	48 83 ec 38	 sub	 rsp, 56			; 00000038H

; 2099 :     slice_ty p;
; 2100 :     p = (slice_ty)PyArena_Malloc(arena, sizeof(*p));

  00018	ba 20 00 00 00	 mov	 edx, 32			; 00000020H
  0001d	48 8b 4c 24 58	 mov	 rcx, QWORD PTR arena$[rsp]
  00022	e8 00 00 00 00	 call	 PyArena_Malloc
  00027	48 89 44 24 20	 mov	 QWORD PTR p$[rsp], rax

; 2101 :     if (!p)

  0002c	48 83 7c 24 20
	00		 cmp	 QWORD PTR p$[rsp], 0
  00032	75 04		 jne	 SHORT $LN1@Py_Slice

; 2102 :         return NULL;

  00034	33 c0		 xor	 eax, eax
  00036	eb 3a		 jmp	 SHORT $LN2@Py_Slice
$LN1@Py_Slice:

; 2103 :     p->kind = Slice_kind;

  00038	48 8b 44 24 20	 mov	 rax, QWORD PTR p$[rsp]
  0003d	c7 00 01 00 00
	00		 mov	 DWORD PTR [rax], 1

; 2104 :     p->v.Slice.lower = lower;

  00043	48 8b 44 24 20	 mov	 rax, QWORD PTR p$[rsp]
  00048	48 8b 4c 24 40	 mov	 rcx, QWORD PTR lower$[rsp]
  0004d	48 89 48 08	 mov	 QWORD PTR [rax+8], rcx

; 2105 :     p->v.Slice.upper = upper;

  00051	48 8b 44 24 20	 mov	 rax, QWORD PTR p$[rsp]
  00056	48 8b 4c 24 48	 mov	 rcx, QWORD PTR upper$[rsp]
  0005b	48 89 48 10	 mov	 QWORD PTR [rax+16], rcx

; 2106 :     p->v.Slice.step = step;

  0005f	48 8b 44 24 20	 mov	 rax, QWORD PTR p$[rsp]
  00064	48 8b 4c 24 50	 mov	 rcx, QWORD PTR step$[rsp]
  00069	48 89 48 18	 mov	 QWORD PTR [rax+24], rcx

; 2107 :     return p;

  0006d	48 8b 44 24 20	 mov	 rax, QWORD PTR p$[rsp]
$LN2@Py_Slice:

; 2108 : }

  00072	48 83 c4 38	 add	 rsp, 56			; 00000038H
  00076	c3		 ret	 0
_Py_Slice ENDP
_TEXT	ENDS
PUBLIC	_Py_ExtSlice
;	COMDAT pdata
pdata	SEGMENT
$pdata$_Py_ExtSlice DD imagerel $LN4
	DD	imagerel $LN4+81
	DD	imagerel $unwind$_Py_ExtSlice
pdata	ENDS
;	COMDAT xdata
xdata	SEGMENT
$unwind$_Py_ExtSlice DD 010e01H
	DD	0620eH
; Function compile flags: /Odtp
xdata	ENDS
;	COMDAT _Py_ExtSlice
_TEXT	SEGMENT
p$ = 32
dims$ = 64
arena$ = 72
_Py_ExtSlice PROC					; COMDAT

; 2112 : {

$LN4:
  00000	48 89 54 24 10	 mov	 QWORD PTR [rsp+16], rdx
  00005	48 89 4c 24 08	 mov	 QWORD PTR [rsp+8], rcx
  0000a	48 83 ec 38	 sub	 rsp, 56			; 00000038H

; 2113 :     slice_ty p;
; 2114 :     p = (slice_ty)PyArena_Malloc(arena, sizeof(*p));

  0000e	ba 20 00 00 00	 mov	 edx, 32			; 00000020H
  00013	48 8b 4c 24 48	 mov	 rcx, QWORD PTR arena$[rsp]
  00018	e8 00 00 00 00	 call	 PyArena_Malloc
  0001d	48 89 44 24 20	 mov	 QWORD PTR p$[rsp], rax

; 2115 :     if (!p)

  00022	48 83 7c 24 20
	00		 cmp	 QWORD PTR p$[rsp], 0
  00028	75 04		 jne	 SHORT $LN1@Py_ExtSlic

; 2116 :         return NULL;

  0002a	33 c0		 xor	 eax, eax
  0002c	eb 1e		 jmp	 SHORT $LN2@Py_ExtSlic
$LN1@Py_ExtSlic:

; 2117 :     p->kind = ExtSlice_kind;

  0002e	48 8b 44 24 20	 mov	 rax, QWORD PTR p$[rsp]
  00033	c7 00 02 00 00
	00		 mov	 DWORD PTR [rax], 2

; 2118 :     p->v.ExtSlice.dims = dims;

  00039	48 8b 44 24 20	 mov	 rax, QWORD PTR p$[rsp]
  0003e	48 8b 4c 24 40	 mov	 rcx, QWORD PTR dims$[rsp]
  00043	48 89 48 08	 mov	 QWORD PTR [rax+8], rcx

; 2119 :     return p;

  00047	48 8b 44 24 20	 mov	 rax, QWORD PTR p$[rsp]
$LN2@Py_ExtSlic:

; 2120 : }

  0004c	48 83 c4 38	 add	 rsp, 56			; 00000038H
  00050	c3		 ret	 0
_Py_ExtSlice ENDP
_TEXT	ENDS
PUBLIC	??_C@_0CC@DANDMJEF@field?5value?5is?5required?5for?5Inde@ ; `string'
PUBLIC	_Py_Index
;	COMDAT pdata
pdata	SEGMENT
$pdata$_Py_Index DD imagerel $LN5
	DD	imagerel $LN5+112
	DD	imagerel $unwind$_Py_Index
pdata	ENDS
;	COMDAT xdata
xdata	SEGMENT
$unwind$_Py_Index DD 010e01H
	DD	0620eH
xdata	ENDS
;	COMDAT ??_C@_0CC@DANDMJEF@field?5value?5is?5required?5for?5Inde@
CONST	SEGMENT
??_C@_0CC@DANDMJEF@field?5value?5is?5required?5for?5Inde@ DB 'field value'
	DB	' is required for Index', 00H		; `string'
; Function compile flags: /Odtp
CONST	ENDS
;	COMDAT _Py_Index
_TEXT	SEGMENT
p$ = 32
value$ = 64
arena$ = 72
_Py_Index PROC						; COMDAT

; 2124 : {

$LN5:
  00000	48 89 54 24 10	 mov	 QWORD PTR [rsp+16], rdx
  00005	48 89 4c 24 08	 mov	 QWORD PTR [rsp+8], rcx
  0000a	48 83 ec 38	 sub	 rsp, 56			; 00000038H

; 2125 :     slice_ty p;
; 2126 :     if (!value) {

  0000e	48 83 7c 24 40
	00		 cmp	 QWORD PTR value$[rsp], 0
  00014	75 17		 jne	 SHORT $LN2@Py_Index

; 2127 :         PyErr_SetString(PyExc_ValueError,
; 2128 :                         "field value is required for Index");

  00016	48 8d 15 00 00
	00 00		 lea	 rdx, OFFSET FLAT:??_C@_0CC@DANDMJEF@field?5value?5is?5required?5for?5Inde@
  0001d	48 8b 0d 00 00
	00 00		 mov	 rcx, QWORD PTR PyExc_ValueError
  00024	e8 00 00 00 00	 call	 PyErr_SetString

; 2129 :         return NULL;

  00029	33 c0		 xor	 eax, eax
  0002b	eb 3e		 jmp	 SHORT $LN3@Py_Index
$LN2@Py_Index:

; 2130 :     }
; 2131 :     p = (slice_ty)PyArena_Malloc(arena, sizeof(*p));

  0002d	ba 20 00 00 00	 mov	 edx, 32			; 00000020H
  00032	48 8b 4c 24 48	 mov	 rcx, QWORD PTR arena$[rsp]
  00037	e8 00 00 00 00	 call	 PyArena_Malloc
  0003c	48 89 44 24 20	 mov	 QWORD PTR p$[rsp], rax

; 2132 :     if (!p)

  00041	48 83 7c 24 20
	00		 cmp	 QWORD PTR p$[rsp], 0
  00047	75 04		 jne	 SHORT $LN1@Py_Index

; 2133 :         return NULL;

  00049	33 c0		 xor	 eax, eax
  0004b	eb 1e		 jmp	 SHORT $LN3@Py_Index
$LN1@Py_Index:

; 2134 :     p->kind = Index_kind;

  0004d	48 8b 44 24 20	 mov	 rax, QWORD PTR p$[rsp]
  00052	c7 00 03 00 00
	00		 mov	 DWORD PTR [rax], 3

; 2135 :     p->v.Index.value = value;

  00058	48 8b 44 24 20	 mov	 rax, QWORD PTR p$[rsp]
  0005d	48 8b 4c 24 40	 mov	 rcx, QWORD PTR value$[rsp]
  00062	48 89 48 08	 mov	 QWORD PTR [rax+8], rcx

; 2136 :     return p;

  00066	48 8b 44 24 20	 mov	 rax, QWORD PTR p$[rsp]
$LN3@Py_Index:

; 2137 : }

  0006b	48 83 c4 38	 add	 rsp, 56			; 00000038H
  0006f	c3		 ret	 0
_Py_Index ENDP
_TEXT	ENDS
PUBLIC	??_C@_0CJ@GMPBFBMA@field?5iter?5is?5required?5for?5compr@ ; `string'
PUBLIC	??_C@_0CL@HFHKBLHJ@field?5target?5is?5required?5for?5com@ ; `string'
PUBLIC	_Py_comprehension
;	COMDAT pdata
pdata	SEGMENT
$pdata$_Py_comprehension DD imagerel $LN6
	DD	imagerel $LN6+169
	DD	imagerel $unwind$_Py_comprehension
pdata	ENDS
;	COMDAT xdata
xdata	SEGMENT
$unwind$_Py_comprehension DD 011801H
	DD	06218H
xdata	ENDS
;	COMDAT ??_C@_0CJ@GMPBFBMA@field?5iter?5is?5required?5for?5compr@
CONST	SEGMENT
??_C@_0CJ@GMPBFBMA@field?5iter?5is?5required?5for?5compr@ DB 'field iter '
	DB	'is required for comprehension', 00H		; `string'
CONST	ENDS
;	COMDAT ??_C@_0CL@HFHKBLHJ@field?5target?5is?5required?5for?5com@
CONST	SEGMENT
??_C@_0CL@HFHKBLHJ@field?5target?5is?5required?5for?5com@ DB 'field targe'
	DB	't is required for comprehension', 00H	; `string'
; Function compile flags: /Odtp
CONST	ENDS
;	COMDAT _Py_comprehension
_TEXT	SEGMENT
p$ = 32
target$ = 64
iter$ = 72
ifs$ = 80
arena$ = 88
_Py_comprehension PROC					; COMDAT

; 2141 : {

$LN6:
  00000	4c 89 4c 24 20	 mov	 QWORD PTR [rsp+32], r9
  00005	4c 89 44 24 18	 mov	 QWORD PTR [rsp+24], r8
  0000a	48 89 54 24 10	 mov	 QWORD PTR [rsp+16], rdx
  0000f	48 89 4c 24 08	 mov	 QWORD PTR [rsp+8], rcx
  00014	48 83 ec 38	 sub	 rsp, 56			; 00000038H

; 2142 :     comprehension_ty p;
; 2143 :     if (!target) {

  00018	48 83 7c 24 40
	00		 cmp	 QWORD PTR target$[rsp], 0
  0001e	75 17		 jne	 SHORT $LN3@Py_compreh

; 2144 :         PyErr_SetString(PyExc_ValueError,
; 2145 :                         "field target is required for comprehension");

  00020	48 8d 15 00 00
	00 00		 lea	 rdx, OFFSET FLAT:??_C@_0CL@HFHKBLHJ@field?5target?5is?5required?5for?5com@
  00027	48 8b 0d 00 00
	00 00		 mov	 rcx, QWORD PTR PyExc_ValueError
  0002e	e8 00 00 00 00	 call	 PyErr_SetString

; 2146 :         return NULL;

  00033	33 c0		 xor	 eax, eax
  00035	eb 6d		 jmp	 SHORT $LN4@Py_compreh
$LN3@Py_compreh:

; 2147 :     }
; 2148 :     if (!iter) {

  00037	48 83 7c 24 48
	00		 cmp	 QWORD PTR iter$[rsp], 0
  0003d	75 17		 jne	 SHORT $LN2@Py_compreh

; 2149 :         PyErr_SetString(PyExc_ValueError,
; 2150 :                         "field iter is required for comprehension");

  0003f	48 8d 15 00 00
	00 00		 lea	 rdx, OFFSET FLAT:??_C@_0CJ@GMPBFBMA@field?5iter?5is?5required?5for?5compr@
  00046	48 8b 0d 00 00
	00 00		 mov	 rcx, QWORD PTR PyExc_ValueError
  0004d	e8 00 00 00 00	 call	 PyErr_SetString

; 2151 :         return NULL;

  00052	33 c0		 xor	 eax, eax
  00054	eb 4e		 jmp	 SHORT $LN4@Py_compreh
$LN2@Py_compreh:

; 2152 :     }
; 2153 :     p = (comprehension_ty)PyArena_Malloc(arena, sizeof(*p));

  00056	ba 18 00 00 00	 mov	 edx, 24
  0005b	48 8b 4c 24 58	 mov	 rcx, QWORD PTR arena$[rsp]
  00060	e8 00 00 00 00	 call	 PyArena_Malloc
  00065	48 89 44 24 20	 mov	 QWORD PTR p$[rsp], rax

; 2154 :     if (!p)

  0006a	48 83 7c 24 20
	00		 cmp	 QWORD PTR p$[rsp], 0
  00070	75 04		 jne	 SHORT $LN1@Py_compreh

; 2155 :         return NULL;

  00072	33 c0		 xor	 eax, eax
  00074	eb 2e		 jmp	 SHORT $LN4@Py_compreh
$LN1@Py_compreh:

; 2156 :     p->target = target;

  00076	48 8b 44 24 20	 mov	 rax, QWORD PTR p$[rsp]
  0007b	48 8b 4c 24 40	 mov	 rcx, QWORD PTR target$[rsp]
  00080	48 89 08	 mov	 QWORD PTR [rax], rcx

; 2157 :     p->iter = iter;

  00083	48 8b 44 24 20	 mov	 rax, QWORD PTR p$[rsp]
  00088	48 8b 4c 24 48	 mov	 rcx, QWORD PTR iter$[rsp]
  0008d	48 89 48 08	 mov	 QWORD PTR [rax+8], rcx

; 2158 :     p->ifs = ifs;

  00091	48 8b 44 24 20	 mov	 rax, QWORD PTR p$[rsp]
  00096	48 8b 4c 24 50	 mov	 rcx, QWORD PTR ifs$[rsp]
  0009b	48 89 48 10	 mov	 QWORD PTR [rax+16], rcx

; 2159 :     return p;

  0009f	48 8b 44 24 20	 mov	 rax, QWORD PTR p$[rsp]
$LN4@Py_compreh:

; 2160 : }

  000a4	48 83 c4 38	 add	 rsp, 56			; 00000038H
  000a8	c3		 ret	 0
_Py_comprehension ENDP
_TEXT	ENDS
PUBLIC	_Py_ExceptHandler
;	COMDAT pdata
pdata	SEGMENT
$pdata$_Py_ExceptHandler DD imagerel $LN4
	DD	imagerel $LN4+143
	DD	imagerel $unwind$_Py_ExceptHandler
pdata	ENDS
;	COMDAT xdata
xdata	SEGMENT
$unwind$_Py_ExceptHandler DD 011801H
	DD	06218H
; Function compile flags: /Odtp
xdata	ENDS
;	COMDAT _Py_ExceptHandler
_TEXT	SEGMENT
p$ = 32
type$ = 64
name$ = 72
body$ = 80
lineno$ = 88
col_offset$ = 96
arena$ = 104
_Py_ExceptHandler PROC					; COMDAT

; 2165 : {

$LN4:
  00000	44 89 4c 24 20	 mov	 DWORD PTR [rsp+32], r9d
  00005	4c 89 44 24 18	 mov	 QWORD PTR [rsp+24], r8
  0000a	48 89 54 24 10	 mov	 QWORD PTR [rsp+16], rdx
  0000f	48 89 4c 24 08	 mov	 QWORD PTR [rsp+8], rcx
  00014	48 83 ec 38	 sub	 rsp, 56			; 00000038H

; 2166 :     excepthandler_ty p;
; 2167 :     p = (excepthandler_ty)PyArena_Malloc(arena, sizeof(*p));

  00018	ba 28 00 00 00	 mov	 edx, 40			; 00000028H
  0001d	48 8b 4c 24 68	 mov	 rcx, QWORD PTR arena$[rsp]
  00022	e8 00 00 00 00	 call	 PyArena_Malloc
  00027	48 89 44 24 20	 mov	 QWORD PTR p$[rsp], rax

; 2168 :     if (!p)

  0002c	48 83 7c 24 20
	00		 cmp	 QWORD PTR p$[rsp], 0
  00032	75 04		 jne	 SHORT $LN1@Py_ExceptH

; 2169 :         return NULL;

  00034	33 c0		 xor	 eax, eax
  00036	eb 52		 jmp	 SHORT $LN2@Py_ExceptH
$LN1@Py_ExceptH:

; 2170 :     p->kind = ExceptHandler_kind;

  00038	48 8b 44 24 20	 mov	 rax, QWORD PTR p$[rsp]
  0003d	c7 00 01 00 00
	00		 mov	 DWORD PTR [rax], 1

; 2171 :     p->v.ExceptHandler.type = type;

  00043	48 8b 44 24 20	 mov	 rax, QWORD PTR p$[rsp]
  00048	48 8b 4c 24 40	 mov	 rcx, QWORD PTR type$[rsp]
  0004d	48 89 48 08	 mov	 QWORD PTR [rax+8], rcx

; 2172 :     p->v.ExceptHandler.name = name;

  00051	48 8b 44 24 20	 mov	 rax, QWORD PTR p$[rsp]
  00056	48 8b 4c 24 48	 mov	 rcx, QWORD PTR name$[rsp]
  0005b	48 89 48 10	 mov	 QWORD PTR [rax+16], rcx

; 2173 :     p->v.ExceptHandler.body = body;

  0005f	48 8b 44 24 20	 mov	 rax, QWORD PTR p$[rsp]
  00064	48 8b 4c 24 50	 mov	 rcx, QWORD PTR body$[rsp]
  00069	48 89 48 18	 mov	 QWORD PTR [rax+24], rcx

; 2174 :     p->lineno = lineno;

  0006d	48 8b 44 24 20	 mov	 rax, QWORD PTR p$[rsp]
  00072	8b 4c 24 58	 mov	 ecx, DWORD PTR lineno$[rsp]
  00076	89 48 20	 mov	 DWORD PTR [rax+32], ecx

; 2175 :     p->col_offset = col_offset;

  00079	48 8b 44 24 20	 mov	 rax, QWORD PTR p$[rsp]
  0007e	8b 4c 24 60	 mov	 ecx, DWORD PTR col_offset$[rsp]
  00082	89 48 24	 mov	 DWORD PTR [rax+36], ecx

; 2176 :     return p;

  00085	48 8b 44 24 20	 mov	 rax, QWORD PTR p$[rsp]
$LN2@Py_ExceptH:

; 2177 : }

  0008a	48 83 c4 38	 add	 rsp, 56			; 00000038H
  0008e	c3		 ret	 0
_Py_ExceptHandler ENDP
_TEXT	ENDS
PUBLIC	_Py_arguments
;	COMDAT pdata
pdata	SEGMENT
$pdata$_Py_arguments DD imagerel $LN4
	DD	imagerel $LN4+180
	DD	imagerel $unwind$_Py_arguments
pdata	ENDS
;	COMDAT xdata
xdata	SEGMENT
$unwind$_Py_arguments DD 011801H
	DD	06218H
; Function compile flags: /Odtp
xdata	ENDS
;	COMDAT _Py_arguments
_TEXT	SEGMENT
p$ = 32
args$ = 64
vararg$ = 72
varargannotation$ = 80
kwonlyargs$ = 88
kwarg$ = 96
kwargannotation$ = 104
defaults$ = 112
kw_defaults$ = 120
arena$ = 128
_Py_arguments PROC					; COMDAT

; 2183 : {

$LN4:
  00000	4c 89 4c 24 20	 mov	 QWORD PTR [rsp+32], r9
  00005	4c 89 44 24 18	 mov	 QWORD PTR [rsp+24], r8
  0000a	48 89 54 24 10	 mov	 QWORD PTR [rsp+16], rdx
  0000f	48 89 4c 24 08	 mov	 QWORD PTR [rsp+8], rcx
  00014	48 83 ec 38	 sub	 rsp, 56			; 00000038H

; 2184 :     arguments_ty p;
; 2185 :     p = (arguments_ty)PyArena_Malloc(arena, sizeof(*p));

  00018	ba 40 00 00 00	 mov	 edx, 64			; 00000040H
  0001d	48 8b 8c 24 80
	00 00 00	 mov	 rcx, QWORD PTR arena$[rsp]
  00025	e8 00 00 00 00	 call	 PyArena_Malloc
  0002a	48 89 44 24 20	 mov	 QWORD PTR p$[rsp], rax

; 2186 :     if (!p)

  0002f	48 83 7c 24 20
	00		 cmp	 QWORD PTR p$[rsp], 0
  00035	75 04		 jne	 SHORT $LN1@Py_argumen

; 2187 :         return NULL;

  00037	33 c0		 xor	 eax, eax
  00039	eb 74		 jmp	 SHORT $LN2@Py_argumen
$LN1@Py_argumen:

; 2188 :     p->args = args;

  0003b	48 8b 44 24 20	 mov	 rax, QWORD PTR p$[rsp]
  00040	48 8b 4c 24 40	 mov	 rcx, QWORD PTR args$[rsp]
  00045	48 89 08	 mov	 QWORD PTR [rax], rcx

; 2189 :     p->vararg = vararg;

  00048	48 8b 44 24 20	 mov	 rax, QWORD PTR p$[rsp]
  0004d	48 8b 4c 24 48	 mov	 rcx, QWORD PTR vararg$[rsp]
  00052	48 89 48 08	 mov	 QWORD PTR [rax+8], rcx

; 2190 :     p->varargannotation = varargannotation;

  00056	48 8b 44 24 20	 mov	 rax, QWORD PTR p$[rsp]
  0005b	48 8b 4c 24 50	 mov	 rcx, QWORD PTR varargannotation$[rsp]
  00060	48 89 48 10	 mov	 QWORD PTR [rax+16], rcx

; 2191 :     p->kwonlyargs = kwonlyargs;

  00064	48 8b 44 24 20	 mov	 rax, QWORD PTR p$[rsp]
  00069	48 8b 4c 24 58	 mov	 rcx, QWORD PTR kwonlyargs$[rsp]
  0006e	48 89 48 18	 mov	 QWORD PTR [rax+24], rcx

; 2192 :     p->kwarg = kwarg;

  00072	48 8b 44 24 20	 mov	 rax, QWORD PTR p$[rsp]
  00077	48 8b 4c 24 60	 mov	 rcx, QWORD PTR kwarg$[rsp]
  0007c	48 89 48 20	 mov	 QWORD PTR [rax+32], rcx

; 2193 :     p->kwargannotation = kwargannotation;

  00080	48 8b 44 24 20	 mov	 rax, QWORD PTR p$[rsp]
  00085	48 8b 4c 24 68	 mov	 rcx, QWORD PTR kwargannotation$[rsp]
  0008a	48 89 48 28	 mov	 QWORD PTR [rax+40], rcx

; 2194 :     p->defaults = defaults;

  0008e	48 8b 44 24 20	 mov	 rax, QWORD PTR p$[rsp]
  00093	48 8b 4c 24 70	 mov	 rcx, QWORD PTR defaults$[rsp]
  00098	48 89 48 30	 mov	 QWORD PTR [rax+48], rcx

; 2195 :     p->kw_defaults = kw_defaults;

  0009c	48 8b 44 24 20	 mov	 rax, QWORD PTR p$[rsp]
  000a1	48 8b 4c 24 78	 mov	 rcx, QWORD PTR kw_defaults$[rsp]
  000a6	48 89 48 38	 mov	 QWORD PTR [rax+56], rcx

; 2196 :     return p;

  000aa	48 8b 44 24 20	 mov	 rax, QWORD PTR p$[rsp]
$LN2@Py_argumen:

; 2197 : }

  000af	48 83 c4 38	 add	 rsp, 56			; 00000038H
  000b3	c3		 ret	 0
_Py_arguments ENDP
_TEXT	ENDS
PUBLIC	??_C@_0BO@ILGGFGPK@field?5arg?5is?5required?5for?5arg?$AA@ ; `string'
PUBLIC	_Py_arg
;	COMDAT pdata
pdata	SEGMENT
$pdata$_Py_arg DD imagerel $LN5
	DD	imagerel $LN5+119
	DD	imagerel $unwind$_Py_arg
pdata	ENDS
;	COMDAT xdata
xdata	SEGMENT
$unwind$_Py_arg DD 011301H
	DD	06213H
xdata	ENDS
;	COMDAT ??_C@_0BO@ILGGFGPK@field?5arg?5is?5required?5for?5arg?$AA@
CONST	SEGMENT
??_C@_0BO@ILGGFGPK@field?5arg?5is?5required?5for?5arg?$AA@ DB 'field arg '
	DB	'is required for arg', 00H			; `string'
; Function compile flags: /Odtp
CONST	ENDS
;	COMDAT _Py_arg
_TEXT	SEGMENT
p$ = 32
arg$ = 64
annotation$ = 72
arena$ = 80
_Py_arg	PROC						; COMDAT

; 2201 : {

$LN5:
  00000	4c 89 44 24 18	 mov	 QWORD PTR [rsp+24], r8
  00005	48 89 54 24 10	 mov	 QWORD PTR [rsp+16], rdx
  0000a	48 89 4c 24 08	 mov	 QWORD PTR [rsp+8], rcx
  0000f	48 83 ec 38	 sub	 rsp, 56			; 00000038H

; 2202 :     arg_ty p;
; 2203 :     if (!arg) {

  00013	48 83 7c 24 40
	00		 cmp	 QWORD PTR arg$[rsp], 0
  00019	75 17		 jne	 SHORT $LN2@Py_arg

; 2204 :         PyErr_SetString(PyExc_ValueError,
; 2205 :                         "field arg is required for arg");

  0001b	48 8d 15 00 00
	00 00		 lea	 rdx, OFFSET FLAT:??_C@_0BO@ILGGFGPK@field?5arg?5is?5required?5for?5arg?$AA@
  00022	48 8b 0d 00 00
	00 00		 mov	 rcx, QWORD PTR PyExc_ValueError
  00029	e8 00 00 00 00	 call	 PyErr_SetString

; 2206 :         return NULL;

  0002e	33 c0		 xor	 eax, eax
  00030	eb 40		 jmp	 SHORT $LN3@Py_arg
$LN2@Py_arg:

; 2207 :     }
; 2208 :     p = (arg_ty)PyArena_Malloc(arena, sizeof(*p));

  00032	ba 10 00 00 00	 mov	 edx, 16
  00037	48 8b 4c 24 50	 mov	 rcx, QWORD PTR arena$[rsp]
  0003c	e8 00 00 00 00	 call	 PyArena_Malloc
  00041	48 89 44 24 20	 mov	 QWORD PTR p$[rsp], rax

; 2209 :     if (!p)

  00046	48 83 7c 24 20
	00		 cmp	 QWORD PTR p$[rsp], 0
  0004c	75 04		 jne	 SHORT $LN1@Py_arg

; 2210 :         return NULL;

  0004e	33 c0		 xor	 eax, eax
  00050	eb 20		 jmp	 SHORT $LN3@Py_arg
$LN1@Py_arg:

; 2211 :     p->arg = arg;

  00052	48 8b 44 24 20	 mov	 rax, QWORD PTR p$[rsp]
  00057	48 8b 4c 24 40	 mov	 rcx, QWORD PTR arg$[rsp]
  0005c	48 89 08	 mov	 QWORD PTR [rax], rcx

; 2212 :     p->annotation = annotation;

  0005f	48 8b 44 24 20	 mov	 rax, QWORD PTR p$[rsp]
  00064	48 8b 4c 24 48	 mov	 rcx, QWORD PTR annotation$[rsp]
  00069	48 89 48 08	 mov	 QWORD PTR [rax+8], rcx

; 2213 :     return p;

  0006d	48 8b 44 24 20	 mov	 rax, QWORD PTR p$[rsp]
$LN3@Py_arg:

; 2214 : }

  00072	48 83 c4 38	 add	 rsp, 56			; 00000038H
  00076	c3		 ret	 0
_Py_arg	ENDP
_TEXT	ENDS
PUBLIC	??_C@_0CE@OIKAGIEK@field?5value?5is?5required?5for?5keyw@ ; `string'
PUBLIC	??_C@_0CC@LMBBCGDM@field?5arg?5is?5required?5for?5keywor@ ; `string'
PUBLIC	_Py_keyword
;	COMDAT pdata
pdata	SEGMENT
$pdata$_Py_keyword DD imagerel $LN6
	DD	imagerel $LN6+150
	DD	imagerel $unwind$_Py_keyword
pdata	ENDS
;	COMDAT xdata
xdata	SEGMENT
$unwind$_Py_keyword DD 011301H
	DD	06213H
xdata	ENDS
;	COMDAT ??_C@_0CE@OIKAGIEK@field?5value?5is?5required?5for?5keyw@
CONST	SEGMENT
??_C@_0CE@OIKAGIEK@field?5value?5is?5required?5for?5keyw@ DB 'field value'
	DB	' is required for keyword', 00H		; `string'
CONST	ENDS
;	COMDAT ??_C@_0CC@LMBBCGDM@field?5arg?5is?5required?5for?5keywor@
CONST	SEGMENT
??_C@_0CC@LMBBCGDM@field?5arg?5is?5required?5for?5keywor@ DB 'field arg i'
	DB	's required for keyword', 00H		; `string'
; Function compile flags: /Odtp
CONST	ENDS
;	COMDAT _Py_keyword
_TEXT	SEGMENT
p$ = 32
arg$ = 64
value$ = 72
arena$ = 80
_Py_keyword PROC					; COMDAT

; 2218 : {

$LN6:
  00000	4c 89 44 24 18	 mov	 QWORD PTR [rsp+24], r8
  00005	48 89 54 24 10	 mov	 QWORD PTR [rsp+16], rdx
  0000a	48 89 4c 24 08	 mov	 QWORD PTR [rsp+8], rcx
  0000f	48 83 ec 38	 sub	 rsp, 56			; 00000038H

; 2219 :     keyword_ty p;
; 2220 :     if (!arg) {

  00013	48 83 7c 24 40
	00		 cmp	 QWORD PTR arg$[rsp], 0
  00019	75 17		 jne	 SHORT $LN3@Py_keyword

; 2221 :         PyErr_SetString(PyExc_ValueError,
; 2222 :                         "field arg is required for keyword");

  0001b	48 8d 15 00 00
	00 00		 lea	 rdx, OFFSET FLAT:??_C@_0CC@LMBBCGDM@field?5arg?5is?5required?5for?5keywor@
  00022	48 8b 0d 00 00
	00 00		 mov	 rcx, QWORD PTR PyExc_ValueError
  00029	e8 00 00 00 00	 call	 PyErr_SetString

; 2223 :         return NULL;

  0002e	33 c0		 xor	 eax, eax
  00030	eb 5f		 jmp	 SHORT $LN4@Py_keyword
$LN3@Py_keyword:

; 2224 :     }
; 2225 :     if (!value) {

  00032	48 83 7c 24 48
	00		 cmp	 QWORD PTR value$[rsp], 0
  00038	75 17		 jne	 SHORT $LN2@Py_keyword

; 2226 :         PyErr_SetString(PyExc_ValueError,
; 2227 :                         "field value is required for keyword");

  0003a	48 8d 15 00 00
	00 00		 lea	 rdx, OFFSET FLAT:??_C@_0CE@OIKAGIEK@field?5value?5is?5required?5for?5keyw@
  00041	48 8b 0d 00 00
	00 00		 mov	 rcx, QWORD PTR PyExc_ValueError
  00048	e8 00 00 00 00	 call	 PyErr_SetString

; 2228 :         return NULL;

  0004d	33 c0		 xor	 eax, eax
  0004f	eb 40		 jmp	 SHORT $LN4@Py_keyword
$LN2@Py_keyword:

; 2229 :     }
; 2230 :     p = (keyword_ty)PyArena_Malloc(arena, sizeof(*p));

  00051	ba 10 00 00 00	 mov	 edx, 16
  00056	48 8b 4c 24 50	 mov	 rcx, QWORD PTR arena$[rsp]
  0005b	e8 00 00 00 00	 call	 PyArena_Malloc
  00060	48 89 44 24 20	 mov	 QWORD PTR p$[rsp], rax

; 2231 :     if (!p)

  00065	48 83 7c 24 20
	00		 cmp	 QWORD PTR p$[rsp], 0
  0006b	75 04		 jne	 SHORT $LN1@Py_keyword

; 2232 :         return NULL;

  0006d	33 c0		 xor	 eax, eax
  0006f	eb 20		 jmp	 SHORT $LN4@Py_keyword
$LN1@Py_keyword:

; 2233 :     p->arg = arg;

  00071	48 8b 44 24 20	 mov	 rax, QWORD PTR p$[rsp]
  00076	48 8b 4c 24 40	 mov	 rcx, QWORD PTR arg$[rsp]
  0007b	48 89 08	 mov	 QWORD PTR [rax], rcx

; 2234 :     p->value = value;

  0007e	48 8b 44 24 20	 mov	 rax, QWORD PTR p$[rsp]
  00083	48 8b 4c 24 48	 mov	 rcx, QWORD PTR value$[rsp]
  00088	48 89 48 08	 mov	 QWORD PTR [rax+8], rcx

; 2235 :     return p;

  0008c	48 8b 44 24 20	 mov	 rax, QWORD PTR p$[rsp]
$LN4@Py_keyword:

; 2236 : }

  00091	48 83 c4 38	 add	 rsp, 56			; 00000038H
  00095	c3		 ret	 0
_Py_keyword ENDP
_TEXT	ENDS
PUBLIC	??_C@_0CB@BLGPEBLD@field?5name?5is?5required?5for?5alias@ ; `string'
PUBLIC	_Py_alias
;	COMDAT pdata
pdata	SEGMENT
$pdata$_Py_alias DD imagerel $LN5
	DD	imagerel $LN5+119
	DD	imagerel $unwind$_Py_alias
pdata	ENDS
;	COMDAT xdata
xdata	SEGMENT
$unwind$_Py_alias DD 011301H
	DD	06213H
xdata	ENDS
;	COMDAT ??_C@_0CB@BLGPEBLD@field?5name?5is?5required?5for?5alias@
CONST	SEGMENT
??_C@_0CB@BLGPEBLD@field?5name?5is?5required?5for?5alias@ DB 'field name '
	DB	'is required for alias', 00H			; `string'
; Function compile flags: /Odtp
CONST	ENDS
;	COMDAT _Py_alias
_TEXT	SEGMENT
p$ = 32
name$ = 64
asname$ = 72
arena$ = 80
_Py_alias PROC						; COMDAT

; 2240 : {

$LN5:
  00000	4c 89 44 24 18	 mov	 QWORD PTR [rsp+24], r8
  00005	48 89 54 24 10	 mov	 QWORD PTR [rsp+16], rdx
  0000a	48 89 4c 24 08	 mov	 QWORD PTR [rsp+8], rcx
  0000f	48 83 ec 38	 sub	 rsp, 56			; 00000038H

; 2241 :     alias_ty p;
; 2242 :     if (!name) {

  00013	48 83 7c 24 40
	00		 cmp	 QWORD PTR name$[rsp], 0
  00019	75 17		 jne	 SHORT $LN2@Py_alias

; 2243 :         PyErr_SetString(PyExc_ValueError,
; 2244 :                         "field name is required for alias");

  0001b	48 8d 15 00 00
	00 00		 lea	 rdx, OFFSET FLAT:??_C@_0CB@BLGPEBLD@field?5name?5is?5required?5for?5alias@
  00022	48 8b 0d 00 00
	00 00		 mov	 rcx, QWORD PTR PyExc_ValueError
  00029	e8 00 00 00 00	 call	 PyErr_SetString

; 2245 :         return NULL;

  0002e	33 c0		 xor	 eax, eax
  00030	eb 40		 jmp	 SHORT $LN3@Py_alias
$LN2@Py_alias:

; 2246 :     }
; 2247 :     p = (alias_ty)PyArena_Malloc(arena, sizeof(*p));

  00032	ba 10 00 00 00	 mov	 edx, 16
  00037	48 8b 4c 24 50	 mov	 rcx, QWORD PTR arena$[rsp]
  0003c	e8 00 00 00 00	 call	 PyArena_Malloc
  00041	48 89 44 24 20	 mov	 QWORD PTR p$[rsp], rax

; 2248 :     if (!p)

  00046	48 83 7c 24 20
	00		 cmp	 QWORD PTR p$[rsp], 0
  0004c	75 04		 jne	 SHORT $LN1@Py_alias

; 2249 :         return NULL;

  0004e	33 c0		 xor	 eax, eax
  00050	eb 20		 jmp	 SHORT $LN3@Py_alias
$LN1@Py_alias:

; 2250 :     p->name = name;

  00052	48 8b 44 24 20	 mov	 rax, QWORD PTR p$[rsp]
  00057	48 8b 4c 24 40	 mov	 rcx, QWORD PTR name$[rsp]
  0005c	48 89 08	 mov	 QWORD PTR [rax], rcx

; 2251 :     p->asname = asname;

  0005f	48 8b 44 24 20	 mov	 rax, QWORD PTR p$[rsp]
  00064	48 8b 4c 24 48	 mov	 rcx, QWORD PTR asname$[rsp]
  00069	48 89 48 08	 mov	 QWORD PTR [rax+8], rcx

; 2252 :     return p;

  0006d	48 8b 44 24 20	 mov	 rax, QWORD PTR p$[rsp]
$LN3@Py_alias:

; 2253 : }

  00072	48 83 c4 38	 add	 rsp, 56			; 00000038H
  00076	c3		 ret	 0
_Py_alias ENDP
_TEXT	ENDS
PUBLIC	??_C@_0CM@OMGIOCCH@field?5context_expr?5is?5required?5f@ ; `string'
PUBLIC	_Py_withitem
;	COMDAT pdata
pdata	SEGMENT
$pdata$_Py_withitem DD imagerel $LN5
	DD	imagerel $LN5+119
	DD	imagerel $unwind$_Py_withitem
pdata	ENDS
;	COMDAT xdata
xdata	SEGMENT
$unwind$_Py_withitem DD 011301H
	DD	06213H
xdata	ENDS
;	COMDAT ??_C@_0CM@OMGIOCCH@field?5context_expr?5is?5required?5f@
CONST	SEGMENT
??_C@_0CM@OMGIOCCH@field?5context_expr?5is?5required?5f@ DB 'field contex'
	DB	't_expr is required for withitem', 00H	; `string'
; Function compile flags: /Odtp
CONST	ENDS
;	COMDAT _Py_withitem
_TEXT	SEGMENT
p$ = 32
context_expr$ = 64
optional_vars$ = 72
arena$ = 80
_Py_withitem PROC					; COMDAT

; 2257 : {

$LN5:
  00000	4c 89 44 24 18	 mov	 QWORD PTR [rsp+24], r8
  00005	48 89 54 24 10	 mov	 QWORD PTR [rsp+16], rdx
  0000a	48 89 4c 24 08	 mov	 QWORD PTR [rsp+8], rcx
  0000f	48 83 ec 38	 sub	 rsp, 56			; 00000038H

; 2258 :     withitem_ty p;
; 2259 :     if (!context_expr) {

  00013	48 83 7c 24 40
	00		 cmp	 QWORD PTR context_expr$[rsp], 0
  00019	75 17		 jne	 SHORT $LN2@Py_withite

; 2260 :         PyErr_SetString(PyExc_ValueError,
; 2261 :                         "field context_expr is required for withitem");

  0001b	48 8d 15 00 00
	00 00		 lea	 rdx, OFFSET FLAT:??_C@_0CM@OMGIOCCH@field?5context_expr?5is?5required?5f@
  00022	48 8b 0d 00 00
	00 00		 mov	 rcx, QWORD PTR PyExc_ValueError
  00029	e8 00 00 00 00	 call	 PyErr_SetString

; 2262 :         return NULL;

  0002e	33 c0		 xor	 eax, eax
  00030	eb 40		 jmp	 SHORT $LN3@Py_withite
$LN2@Py_withite:

; 2263 :     }
; 2264 :     p = (withitem_ty)PyArena_Malloc(arena, sizeof(*p));

  00032	ba 10 00 00 00	 mov	 edx, 16
  00037	48 8b 4c 24 50	 mov	 rcx, QWORD PTR arena$[rsp]
  0003c	e8 00 00 00 00	 call	 PyArena_Malloc
  00041	48 89 44 24 20	 mov	 QWORD PTR p$[rsp], rax

; 2265 :     if (!p)

  00046	48 83 7c 24 20
	00		 cmp	 QWORD PTR p$[rsp], 0
  0004c	75 04		 jne	 SHORT $LN1@Py_withite

; 2266 :         return NULL;

  0004e	33 c0		 xor	 eax, eax
  00050	eb 20		 jmp	 SHORT $LN3@Py_withite
$LN1@Py_withite:

; 2267 :     p->context_expr = context_expr;

  00052	48 8b 44 24 20	 mov	 rax, QWORD PTR p$[rsp]
  00057	48 8b 4c 24 40	 mov	 rcx, QWORD PTR context_expr$[rsp]
  0005c	48 89 08	 mov	 QWORD PTR [rax], rcx

; 2268 :     p->optional_vars = optional_vars;

  0005f	48 8b 44 24 20	 mov	 rax, QWORD PTR p$[rsp]
  00064	48 8b 4c 24 48	 mov	 rcx, QWORD PTR optional_vars$[rsp]
  00069	48 89 48 08	 mov	 QWORD PTR [rax+8], rcx

; 2269 :     return p;

  0006d	48 8b 44 24 20	 mov	 rax, QWORD PTR p$[rsp]
$LN3@Py_withite:

; 2270 : }

  00072	48 83 c4 38	 add	 rsp, 56			; 00000038H
  00076	c3		 ret	 0
_Py_withitem ENDP
_TEXT	ENDS
PUBLIC	??_C@_08FACALJAE@withitem?$AA@			; `string'
PUBLIC	??_C@_05NKHOCLEE@alias?$AA@			; `string'
PUBLIC	??_C@_07JMKMGKCH@keyword?$AA@			; `string'
PUBLIC	??_C@_09PBNAMLIK@arguments?$AA@			; `string'
PUBLIC	??_C@_0O@IFPAFICE@ExceptHandler?$AA@		; `string'
PUBLIC	??_C@_0O@LBOCECKK@excepthandler?$AA@		; `string'
PUBLIC	??_C@_0O@PDDLNDDO@comprehension?$AA@		; `string'
PUBLIC	??_C@_05GFBCHB@NotIn?$AA@			; `string'
PUBLIC	??_C@_02IEILNGIL@In?$AA@			; `string'
PUBLIC	??_C@_05KLALIAAG@IsNot?$AA@			; `string'
PUBLIC	??_C@_02HLOHLKJH@Is?$AA@			; `string'
PUBLIC	??_C@_03GIODLKL@GtE?$AA@			; `string'
PUBLIC	??_C@_02DODIABFK@Gt?$AA@			; `string'
PUBLIC	??_C@_03NBIPLMKK@LtE?$AA@			; `string'
PUBLIC	??_C@_02DCGNOOLL@Lt?$AA@			; `string'
PUBLIC	??_C@_05MECFOFIL@NotEq?$AA@			; `string'
PUBLIC	??_C@_02EAMLCBHB@Eq?$AA@			; `string'
PUBLIC	??_C@_05KGHEMFCD@cmpop?$AA@			; `string'
PUBLIC	??_C@_04BFGHELIL@USub?$AA@			; `string'
PUBLIC	??_C@_04KEMJLKFO@UAdd?$AA@			; `string'
PUBLIC	??_C@_03KNKIDPAC@Not?$AA@			; `string'
PUBLIC	??_C@_06OHLCGMJD@Invert?$AA@			; `string'
PUBLIC	??_C@_07JPNNPNHH@unaryop?$AA@			; `string'
PUBLIC	??_C@_08BOGBPHLB@FloorDiv?$AA@			; `string'
PUBLIC	??_C@_06PCNOCLJN@BitAnd?$AA@			; `string'
PUBLIC	??_C@_06MCJFOMGI@BitXor?$AA@			; `string'
PUBLIC	??_C@_05BKBNAGEF@BitOr?$AA@			; `string'
PUBLIC	??_C@_06LEKGCNCD@RShift?$AA@			; `string'
PUBLIC	??_C@_06IDEHMKLA@LShift?$AA@			; `string'
PUBLIC	??_C@_03DGEDEMGN@Pow?$AA@			; `string'
PUBLIC	??_C@_03PFNPICLN@Mod?$AA@			; `string'
PUBLIC	??_C@_03PEKOMBFG@Div?$AA@			; `string'
PUBLIC	??_C@_04MPMBEKAC@Mult?$AA@			; `string'
PUBLIC	??_C@_03CPCCDDB@Sub?$AA@			; `string'
PUBLIC	??_C@_03LDFMNCOE@Add?$AA@			; `string'
PUBLIC	??_C@_08LHJFAFGD@operator?$AA@			; `string'
PUBLIC	??_C@_02GGHBPHGE@Or?$AA@			; `string'
PUBLIC	??_C@_03LOMLFHDC@And?$AA@			; `string'
PUBLIC	??_C@_06IBDOJNAO@boolop?$AA@			; `string'
PUBLIC	??_C@_05FNNGFGLF@Index?$AA@			; `string'
PUBLIC	??_C@_08CIIMGBAD@ExtSlice?$AA@			; `string'
PUBLIC	??_C@_05IMNAOMFL@Slice?$AA@			; `string'
PUBLIC	??_C@_05LOJBNELM@Param?$AA@			; `string'
PUBLIC	??_C@_08NAEMOJFF@AugStore?$AA@			; `string'
PUBLIC	??_C@_07GCIJHPCC@AugLoad?$AA@			; `string'
PUBLIC	??_C@_03ENJJMCOJ@Del?$AA@			; `string'
PUBLIC	??_C@_05OEMPKGID@Store?$AA@			; `string'
PUBLIC	??_C@_04IPBPFFEL@Load?$AA@			; `string'
PUBLIC	??_C@_0N@GABLJPJB@expr_context?$AA@		; `string'
PUBLIC	??_C@_05NKGIHGDI@Tuple?$AA@			; `string'
PUBLIC	??_C@_04PPBEGPNI@List?$AA@			; `string'
PUBLIC	??_C@_04FABLJDN@Name?$AA@			; `string'
PUBLIC	??_C@_07JHFCIAKE@Starred?$AA@			; `string'
PUBLIC	??_C@_09OPNCODFI@Subscript?$AA@			; `string'
PUBLIC	??_C@_09EIDFECNJ@Attribute?$AA@			; `string'
PUBLIC	??_C@_08KKBGFFMJ@Ellipsis?$AA@			; `string'
PUBLIC	??_C@_05FGDMGDLA@Bytes?$AA@			; `string'
PUBLIC	??_C@_03EJPCFLFH@Str?$AA@			; `string'
PUBLIC	??_C@_03CHBJLALM@Num?$AA@			; `string'
PUBLIC	??_C@_04CNJBKMPC@Call?$AA@			; `string'
PUBLIC	??_C@_07MBOMJGGF@Compare?$AA@			; `string'
PUBLIC	??_C@_09GLJBJEPP@YieldFrom?$AA@			; `string'
PUBLIC	??_C@_05LNDKIJIJ@Yield?$AA@			; `string'
PUBLIC	??_C@_0N@MMHMBOOD@GeneratorExp?$AA@		; `string'
PUBLIC	??_C@_08GMOHPPCM@DictComp?$AA@			; `string'
PUBLIC	??_C@_07BLGPBMGP@SetComp?$AA@			; `string'
PUBLIC	??_C@_08LAOBMBPK@ListComp?$AA@			; `string'
PUBLIC	??_C@_03CEMDFJG@Set?$AA@			; `string'
PUBLIC	??_C@_04NDECIHGJ@Dict?$AA@			; `string'
PUBLIC	??_C@_05KJAPGPAE@IfExp?$AA@			; `string'
PUBLIC	??_C@_06OBCFFGBN@Lambda?$AA@			; `string'
PUBLIC	??_C@_07FOOGNJMB@UnaryOp?$AA@			; `string'
PUBLIC	??_C@_05BHIPNDDM@BinOp?$AA@			; `string'
PUBLIC	??_C@_06HGMOOCHC@BoolOp?$AA@			; `string'
PUBLIC	??_C@_04IPHMALII@expr?$AA@			; `string'
PUBLIC	??_C@_08LJHDLOLO@Continue?$AA@			; `string'
PUBLIC	??_C@_05EMFLFCNO@Break?$AA@			; `string'
PUBLIC	??_C@_04NAPBKLHD@Pass?$AA@			; `string'
PUBLIC	??_C@_04EOLNCEIM@Expr?$AA@			; `string'
PUBLIC	??_C@_08BAHOEEIH@Nonlocal?$AA@			; `string'
PUBLIC	??_C@_06JGBJPOPP@Global?$AA@			; `string'
PUBLIC	??_C@_0L@IKBFEFKH@ImportFrom?$AA@		; `string'
PUBLIC	??_C@_06IBNLALPJ@Import?$AA@			; `string'
PUBLIC	??_C@_06KDPFLMMB@Assert?$AA@			; `string'
PUBLIC	??_C@_03DDFMMGJH@Try?$AA@			; `string'
