; Listing generated by Microsoft (R) Optimizing Compiler Version 16.00.40219.01 

include listing.inc

INCLUDELIB MSVCRTD
INCLUDELIB OLDNAMES

PUBLIC	PyType_GenericNew
PUBLIC	??_C@_05MKJDPMKP@super?$AA@			; `string'
PUBLIC	??_C@_0DH@MEJKBCJN@the?5type?5of?5the?5instance?5invokin@ ; `string'
PUBLIC	??_C@_0P@FDFALBKM@__self_class__?$AA@		; `string'
PUBLIC	??_C@_0CL@OAHEPBOJ@the?5instance?5invoking?5super?$CI?$CJ?$DL?5m@ ; `string'
PUBLIC	??_C@_08KFOOMKEG@__self__?$AA@			; `string'
PUBLIC	??_C@_0BL@NCAHCDDF@the?5class?5invoking?5super?$CI?$CJ?$AA@ ; `string'
PUBLIC	??_C@_0O@BEEHOGAG@__thisclass__?$AA@		; `string'
PUBLIC	??_C@_0BO@NHHBFPJ@x?4__contains__?$CIy?$CJ?5?$DM?$DN?$DN?$DO?5y?5in?5x?$AA@ ; `string'
PUBLIC	??_C@_0BH@FMFFBHMG@x?4__rmul__?$CIn?$CJ?5?$DM?$DN?$DN?$DO?5n?$CKx?$AA@ ; `string'
PUBLIC	??_C@_0BG@FOCCMDEC@x?4__mul__?$CIn?$CJ?5?$DM?$DN?$DN?$DO?5x?$CKn?$AA@ ; `string'
PUBLIC	??_C@_0BP@HKMFPPHC@x?4__delitem__?$CIy?$CJ?5?$DM?$DN?$DN?$DO?5del?5x?$FLy?$FN?$AA@ ; `string'
PUBLIC	??_C@_0CA@GAOMDJJJ@x?4__setitem__?$CIi?0?5y?$CJ?5?$DM?$DN?$DN?$DO?5x?$FLi?$FN?$DNy?$AA@ ; `string'
PUBLIC	??_C@_0BL@MOLOBEHD@x?4__getitem__?$CIy?$CJ?5?$DM?$DN?$DN?$DO?5x?$FLy?$FN?$AA@ ; `string'
PUBLIC	??_C@_0BI@LJFJONPL@x?4__len__?$CI?$CJ?5?$DM?$DN?$DN?$DO?5len?$CIx?$CJ?$AA@ ; `string'
PUBLIC	??_C@_0CL@DOCBMFDB@x?$FLy?3z?$FN?5?$DM?$DN?$DN?$DO?5x?$FLy?4__index__?$CI?$CJ?3z?4__@ ; `string'
PUBLIC	??_C@_0BL@NHAJGPKM@x?4__itruediv__?$CIy?$CJ?5?$DM?$DN?$DN?$DO?5x?1y?$AA@ ; `string'
PUBLIC	??_C@_0BN@KGGFDMPH@x?4__ifloordiv__?$CIy?$CJ?5?$DM?$DN?$DN?$DO?5x?1?1y?$AA@ ; `string'
PUBLIC	??_C@_0BL@BIAMFNP@x?4__rtruediv__?$CIy?$CJ?5?$DM?$DN?$DN?$DO?5y?1x?$AA@ ; `string'
PUBLIC	??_C@_0BK@KJLHHIEM@x?4__truediv__?$CIy?$CJ?5?$DM?$DN?$DN?$DO?5x?1y?$AA@ ; `string'
PUBLIC	??_C@_0BN@MDOPCGIM@x?4__rfloordiv__?$CIy?$CJ?5?$DM?$DN?$DN?$DO?5y?1?1x?$AA@ ; `string'
PUBLIC	??_C@_0BM@HLMIDEGC@x?4__floordiv__?$CIy?$CJ?5?$DM?$DN?$DN?$DO?5x?1?1y?$AA@ ; `string'
PUBLIC	??_C@_0BH@KMKCFFEL@x?4__ior__?$CIy?$CJ?5?$DM?$DN?$DN?$DO?5x?$HM?$DNy?$AA@ ; `string'
PUBLIC	??_C@_0BI@KNFBDEPM@x?4__ixor__?$CIy?$CJ?5?$DM?$DN?$DN?$DO?5x?$FO?$DNy?$AA@ ; `string'
PUBLIC	??_C@_0BI@JBOMICMM@x?4__iand__?$CIy?$CJ?5?$DM?$DN?$DN?$DO?5x?$CG?$DNy?$AA@ ; `string'
PUBLIC	??_C@_0BM@OEGAKNLC@x?4__irshift__?$CIy?$CJ?5?$DM?$DN?$DN?$DO?5x?$DO?$DO?$DNy?$AA@ ; `string'
PUBLIC	??_C@_0BM@NIKIIBEJ@x?4__ilshift__?$CIy?$CJ?5?$DM?$DN?$DN?$DO?5x?$DM?$DM?$DNy?$AA@ ; `string'
PUBLIC	??_C@_0BJ@IFHFJGNM@x?4__ipow__?$CIy?$CJ?5?$DM?$DN?$DN?$DO?5x?$CK?$CK?$DNy?$AA@ ; `string'
PUBLIC	??_C@_0BI@IMMCILKE@x?4__imod__?$CIy?$CJ?5?$DM?$DN?$DN?$DO?5x?$CF?$DNy?$AA@ ; `string'
PUBLIC	??_C@_0BI@OJHENPL@x?4__imul__?$CIy?$CJ?5?$DM?$DN?$DN?$DO?5x?$CK?$DNy?$AA@ ; `string'
PUBLIC	??_C@_0BI@FFFLKAEI@x?4__isub__?$CIy?$CJ?5?$DM?$DN?$DN?$DO?5x?9?$DNy?$AA@ ; `string'
PUBLIC	??_C@_0BI@HBADJPJO@x?4__iadd__?$CIy?$CJ?5?$DM?$DN?$DN?$DO?5x?$CL?$DNy?$AA@ ; `string'
PUBLIC	??_C@_0BM@HEPIFLMJ@x?4__float__?$CI?$CJ?5?$DM?$DN?$DN?$DO?5float?$CIx?$CJ?$AA@ ; `string'
PUBLIC	??_C@_0BI@BGKNGPBI@x?4__int__?$CI?$CJ?5?$DM?$DN?$DN?$DO?5int?$CIx?$CJ?$AA@ ; `string'
PUBLIC	??_C@_0BG@NBLDDBOA@x?4__ror__?$CIy?$CJ?5?$DM?$DN?$DN?$DO?5y?$HMx?$AA@ ; `string'
PUBLIC	??_C@_0BF@IGCMIDJE@x?4__or__?$CIy?$CJ?5?$DM?$DN?$DN?$DO?5x?$HMy?$AA@ ; `string'
PUBLIC	??_C@_0BH@JDGCAPPB@x?4__rxor__?$CIy?$CJ?5?$DM?$DN?$DN?$DO?5y?$FOx?$AA@ ; `string'
PUBLIC	??_C@_0BG@FJFIDAMF@x?4__xor__?$CIy?$CJ?5?$DM?$DN?$DN?$DO?5x?$FOy?$AA@ ; `string'
PUBLIC	??_C@_0BH@CNDAOONF@x?4__rand__?$CIy?$CJ?5?$DM?$DN?$DN?$DO?5y?$CGx?$AA@ ; `string'
PUBLIC	??_C@_0BG@OHAKNBOB@x?4__and__?$CIy?$CJ?5?$DM?$DN?$DN?$DO?5x?$CGy?$AA@ ; `string'
PUBLIC	??_C@_0BL@IAPLBOLD@x?4__rrshift__?$CIy?$CJ?5?$DM?$DN?$DN?$DO?5y?$DO?$DOx?$AA@ ; `string'
PUBLIC	??_C@_0BK@KNBAONPF@x?4__rshift__?$CIy?$CJ?5?$DM?$DN?$DN?$DO?5x?$DO?$DOy?$AA@ ; `string'
PUBLIC	??_C@_0BL@ELDDDEJH@x?4__rlshift__?$CIy?$CJ?5?$DM?$DN?$DN?$DO?5y?$DM?$DMx?$AA@ ; `string'
PUBLIC	??_C@_0BK@GGNIMHNB@x?4__lshift__?$CIy?$CJ?5?$DM?$DN?$DN?$DO?5x?$DM?$DMy?$AA@ ; `string'
PUBLIC	??_C@_0BH@MNOEIHBG@x?4__invert__?$CI?$CJ?5?$DM?$DN?$DN?$DO?5?$HOx?$AA@ ; `string'
PUBLIC	??_C@_0BJ@NDLGPPDN@x?4__bool__?$CI?$CJ?5?$DM?$DN?$DN?$DO?5x?5?$CB?$DN?50?$AA@ ; `string'
PUBLIC	??_C@_0BI@HMJMPBKF@x?4__abs__?$CI?$CJ?5?$DM?$DN?$DN?$DO?5abs?$CIx?$CJ?$AA@ ; `string'
PUBLIC	??_C@_0BE@CMMOLCI@x?4__pos__?$CI?$CJ?5?$DM?$DN?$DN?$DO?5?$CLx?$AA@ ; `string'
PUBLIC	??_C@_0BE@NIPFJBMO@x?4__neg__?$CI?$CJ?5?$DM?$DN?$DN?$DO?5?9x?$AA@ ; `string'
PUBLIC	??_C@_0CH@EKLFEJDK@y?4__rpow__?$CIx?$FL?0?5z?$FN?$CJ?5?$DM?$DN?$DN?$DO?5pow?$CIx?0?5y@ ; `string'
PUBLIC	??_C@_0CG@GMODBFLE@x?4__pow__?$CIy?$FL?0?5z?$FN?$CJ?5?$DM?$DN?$DN?$DO?5pow?$CIx?0?5y?$FL@ ; `string'
PUBLIC	??_C@_0CD@IFNHNEOL@x?4__rdivmod__?$CIy?$CJ?5?$DM?$DN?$DN?$DO?5divmod?$CIy?0?5@ ; `string'
PUBLIC	??_C@_0CC@ICKLDEBI@x?4__divmod__?$CIy?$CJ?5?$DM?$DN?$DN?$DO?5divmod?$CIx?0?5y@ ; `string'
PUBLIC	??_C@_0BH@LECJOCMF@x?4__rmod__?$CIy?$CJ?5?$DM?$DN?$DN?$DO?5y?$CFx?$AA@ ; `string'
PUBLIC	??_C@_0BG@HOBDNNPB@x?4__mod__?$CIy?$CJ?5?$DM?$DN?$DN?$DO?5x?$CFy?$AA@ ; `string'
PUBLIC	??_C@_0BH@OJBLHMJD@x?4__rmul__?$CIy?$CJ?5?$DM?$DN?$DN?$DO?5y?$CKx?$AA@ ; `string'
PUBLIC	??_C@_0BG@CDCBEDKH@x?4__mul__?$CIy?$CJ?5?$DM?$DN?$DN?$DO?5x?$CKy?$AA@ ; `string'
PUBLIC	??_C@_0BH@PLFINCCM@x?4__rsub__?$CIy?$CJ?5?$DM?$DN?$DN?$DO?5y?9x?$AA@ ; `string'
PUBLIC	??_C@_0BG@DBGCONBI@x?4__sub__?$CIy?$CJ?5?$DM?$DN?$DN?$DO?5x?9y?$AA@ ; `string'
PUBLIC	??_C@_0BH@BHMEKCNP@x?4__radd__?$CIy?$CJ?5?$DM?$DN?$DN?$DO?5y?$CLx?$AA@ ; `string'
PUBLIC	??_C@_0BG@NNPOJNOL@x?4__add__?$CIy?$CJ?5?$DM?$DN?$DN?$DO?5x?$CLy?$AA@ ; `string'
PUBLIC	??_C@_0DP@PEBGGFGF@x?4__init__?$CI?4?4?4?$CJ?5initializes?5x?$DL?5s@ ; `string'
PUBLIC	??_C@_0BG@GKILFGMF@descr?4__delete__?$CIobj?$CJ?$AA@ ; `string'
PUBLIC	??_C@_0BK@HNGNCDND@descr?4__set__?$CIobj?0?5value?$CJ?$AA@ ; `string'
PUBLIC	??_C@_0CE@IDHMMHDD@descr?4__get__?$CIobj?$FL?0?5type?$FN?$CJ?5?9?$DO?5va@ ; `string'
PUBLIC	??_C@_0BK@EKPAAGNF@x?4__next__?$CI?$CJ?5?$DM?$DN?$DN?$DO?5next?$CIx?$CJ?$AA@ ; `string'
PUBLIC	??_C@_0BK@MLDIHFPK@x?4__iter__?$CI?$CJ?5?$DM?$DN?$DN?$DO?5iter?$CIx?$CJ?$AA@ ; `string'
PUBLIC	??_C@_0BG@GPAFEHPB@x?4__ge__?$CIy?$CJ?5?$DM?$DN?$DN?$DO?5x?$DO?$DNy?$AA@ ; `string'
PUBLIC	??_C@_0BF@EALDPMEA@x?4__gt__?$CIy?$CJ?5?$DM?$DN?$DN?$DO?5x?$DOy?$AA@ ; `string'
PUBLIC	??_C@_0BG@JPHMBINF@x?4__ne__?$CIy?$CJ?5?$DM?$DN?$DN?$DO?5x?$CB?$DNy?$AA@ ; `string'
PUBLIC	??_C@_0BG@BMDNDNCO@x?4__eq__?$CIy?$CJ?5?$DM?$DN?$DN?$DO?5x?$DN?$DNy?$AA@ ; `string'
PUBLIC	??_C@_0BG@DINLPMBE@x?4__le__?$CIy?$CJ?5?$DM?$DN?$DN?$DO?5x?$DM?$DNy?$AA@ ; `string'
PUBLIC	??_C@_0BF@PGLNDMDE@x?4__lt__?$CIy?$CJ?5?$DM?$DN?$DN?$DO?5x?$DMy?$AA@ ; `string'
PUBLIC	??_C@_0CG@LPHBAOH@x?4__delattr__?$CI?8name?8?$CJ?5?$DM?$DN?$DN?$DO?5del?5x@ ; `string'
PUBLIC	??_C@_0DB@GBCEKDDL@x?4__setattr__?$CI?8name?8?0?5value?$CJ?5?$DM?$DN?$DN@ ; `string'
PUBLIC	??_C@_0CH@MJEJMFHD@x?4__getattribute__?$CI?8name?8?$CJ?5?$DM?$DN?$DN?$DO?5@ ; `string'
PUBLIC	??_C@_0BI@CPPGOPCF@x?4__str__?$CI?$CJ?5?$DM?$DN?$DN?$DO?5str?$CIx?$CJ?$AA@ ; `string'
PUBLIC	??_C@_0BM@OCNACKJL@x?4__call__?$CI?4?4?4?$CJ?5?$DM?$DN?$DN?$DO?5x?$CI?4?4?4?$CJ?$AA@ ; `string'
PUBLIC	??_C@_0BK@BGPGEPCP@x?4__hash__?$CI?$CJ?5?$DM?$DN?$DN?$DO?5hash?$CIx?$CJ?$AA@ ; `string'
PUBLIC	??_C@_0BK@EOOFHHJM@x?4__repr__?$CI?$CJ?5?$DM?$DN?$DN?$DO?5repr?$CIx?$CJ?$AA@ ; `string'
PUBLIC	??_C@_00CNPNBAHC@?$AA@				; `string'
PUBLIC	??_C@_07CKMCINHO@__del__?$AA@			; `string'
PUBLIC	??_C@_08DOHHOJGB@__init__?$AA@			; `string'
PUBLIC	??_C@_07KBLMMACN@__set__?$AA@			; `string'
PUBLIC	??_C@_0L@OAODBFBD@__delete__?$AA@		; `string'
PUBLIC	??_C@_07DJPLIAKA@__get__?$AA@			; `string'
PUBLIC	??_C@_08MMJHJJBO@__next__?$AA@			; `string'
PUBLIC	??_C@_08HMKBHKEB@__iter__?$AA@			; `string'
PUBLIC	??_C@_06DHPPIHIH@__ge__?$AA@			; `string'
PUBLIC	??_C@_06NPFKLHHN@__gt__?$AA@			; `string'
PUBLIC	??_C@_06DKOPOFPG@__ne__?$AA@			; `string'
PUBLIC	??_C@_06EACPLGJG@__le__?$AA@			; `string'
PUBLIC	??_C@_06KIIKIGGM@__lt__?$AA@			; `string'
PUBLIC	??_C@_0M@CIMGLOJN@__setattr__?$AA@		; `string'
PUBLIC	??_C@_0M@ECOKAOJC@__delattr__?$AA@		; `string'
PUBLIC	??_C@_0M@GIDJPAP@__getattr__?$AA@		; `string'
PUBLIC	??_C@_08DGBMPEPK@__call__?$AA@			; `string'
PUBLIC	??_C@_07NJFHCBMD@__str__?$AA@			; `string'
PUBLIC	??_C@_08HJPCHLLJ@__repr__?$AA@			; `string'
PUBLIC	??_C@_0N@LEBOILNI@__itruediv__?$AA@		; `string'
PUBLIC	??_C@_0O@FFFGEHEN@__ifloordiv__?$AA@		; `string'
PUBLIC	??_C@_0N@DJMJMIFH@__rtruediv__?$AA@		; `string'
PUBLIC	??_C@_0M@COJKGICO@__truediv__?$AA@		; `string'
PUBLIC	??_C@_0O@CINMAOLP@__rfloordiv__?$AA@		; `string'
PUBLIC	??_C@_0N@BBCJEIH@__floordiv__?$AA@		; `string'
PUBLIC	??_C@_07GMCKKGKN@__ior__?$AA@			; `string'
PUBLIC	??_C@_08EBNDKCJL@__ixor__?$AA@			; `string'
PUBLIC	??_C@_08CNBINADL@__iand__?$AA@			; `string'
PUBLIC	??_C@_0M@MPLFEGLF@__irshift__?$AA@		; `string'
PUBLIC	??_C@_0M@KLLHNPFG@__ilshift__?$AA@		; `string'
PUBLIC	??_C@_08JKFONAME@__ipow__?$AA@			; `string'
PUBLIC	??_C@_08GHLKDJPA@__imod__?$AA@			; `string'
PUBLIC	??_C@_08IIFOJODM@__imul__?$AA@			; `string'
PUBLIC	??_C@_08FBFNIKOE@__isub__?$AA@			; `string'
PUBLIC	??_C@_08GHKIMIJK@__iadd__?$AA@			; `string'
PUBLIC	??_C@_09EAHNLHOJ@__float__?$AA@			; `string'
PUBLIC	??_C@_07HECBNAMB@__int__?$AA@			; `string'
PUBLIC	??_C@_07FDLFEPF@__ror__?$AA@			; `string'
PUBLIC	??_C@_06MKEBKDGA@__or__?$AA@			; `string'
PUBLIC	??_C@_08CEAKGKKP@__rxor__?$AA@			; `string'
PUBLIC	??_C@_07KEKAHHJD@__xor__?$AA@			; `string'
PUBLIC	??_C@_08EIMBBIAP@__rand__?$AA@			; `string'
PUBLIC	??_C@_07MIGLAFDD@__and__?$AA@			; `string'
PUBLIC	??_C@_0M@BAPLDMKK@__rrshift__?$AA@		; `string'
PUBLIC	??_C@_0L@PEOFAGDE@__rshift__?$AA@		; `string'
PUBLIC	??_C@_0M@HEPJKFEJ@__rlshift__?$AA@		; `string'
PUBLIC	??_C@_0L@JAOHJPNH@__lshift__?$AA@		; `string'
PUBLIC	??_C@_0L@OIINOIMI@__invert__?$AA@		; `string'
PUBLIC	??_C@_09NLFDFNNH@__index__?$AA@			; `string'
PUBLIC	??_C@_08ONMBOEOO@__bool__?$AA@			; `string'
PUBLIC	??_C@_07MAFFIHBE@__abs__?$AA@			; `string'
PUBLIC	??_C@_07PAEPJCJL@__pos__?$AA@			; `string'
PUBLIC	??_C@_07FMFICJBJ@__neg__?$AA@			; `string'
PUBLIC	??_C@_08PPIHBIPA@__rpow__?$AA@			; `string'
PUBLIC	??_C@_07HPCNAFMM@__pow__?$AA@			; `string'
PUBLIC	??_C@_0M@NDCDLKNJ@__rdivmod__?$AA@		; `string'
PUBLIC	??_C@_0L@DHDNIAEH@__divmod__?$AA@		; `string'
PUBLIC	??_C@_08CGDPBME@__rmod__?$AA@			; `string'
PUBLIC	??_C@_07ICMJOMPI@__mod__?$AA@			; `string'
PUBLIC	??_C@_08ONIHFGAI@__rmul__?$AA@			; `string'
PUBLIC	??_C@_07GNCNELDE@__mul__?$AA@			; `string'
PUBLIC	??_C@_08DEIEECNA@__rsub__?$AA@			; `string'
PUBLIC	??_C@_07LECOFPOM@__sub__?$AA@			; `string'
PUBLIC	??_C@_08CHBAAKO@__radd__?$AA@			; `string'
PUBLIC	??_C@_07ICNLBNJC@__add__?$AA@			; `string'
PUBLIC	??_C@_0N@MCIOADFH@__contains__?$AA@		; `string'
PUBLIC	??_C@_0M@EONDAJAB@__setitem__?$AA@		; `string'
PUBLIC	??_C@_0M@CEPPLJAO@__delitem__?$AA@		; `string'
PUBLIC	??_C@_07GMJIMHJI@__len__?$AA@			; `string'
PUBLIC	??_C@_0DO@MFNFNJKD@T?4__new__?$CIS?0?5?4?4?4?$CJ?5?9?$DO?5a?5new?5objec@ ; `string'
PUBLIC	??_C@_06JCEEBECP@__eq__?$AA@			; `string'
PUBLIC	PyType_GenericAlloc
PUBLIC	??_C@_0BD@EEFIMND@The?5most?5base?5type?$AA@	; `string'
PUBLIC	??_C@_06IEOJBDIK@object?$AA@			; `string'
PUBLIC	??_C@_0CP@DOIFJKJG@__dir__?$CI?$CJ?5?9?$DO?5list?6default?5dir?$CI?$CJ?5@ ; `string'
PUBLIC	??_C@_0DH@GGNPGAHM@__sizeof__?$CI?$CJ?5?9?$DO?5int?6size?5of?5obje@ ; `string'
PUBLIC	??_C@_0BJ@OLCCKPLB@default?5object?5formatter?$AA@ ; `string'
PUBLIC	??_C@_0L@MEMCGMKL@__format__?$AA@		; `string'
PUBLIC	??_C@_0BB@NHNPNHAH@__subclasshook__?$AA@	; `string'
PUBLIC	??_C@_0BC@KKCCEOPP@helper?5for?5pickle?$AA@	; `string'
PUBLIC	??_C@_0O@CFEDDKPG@__reduce_ex__?$AA@		; `string'
PUBLIC	??_C@_0L@NNMACJIG@__reduce__?$AA@		; `string'
PUBLIC	??_C@_05CFHBDDLG@items?$AA@			; `string'
PUBLIC	??_C@_0L@GEMAGKL@__newobj__?$AA@		; `string'
PUBLIC	??_C@_0N@NAMJJHIO@__getstate__?$AA@		; `string'
PUBLIC	??_C@_0P@BCBHENLA@__getnewargs__?$AA@		; `string'
PUBLIC	??_C@_0L@NMBFFBAC@_slotnames?$AA@		; `string'
PUBLIC	??_C@_0O@NLMJLHMN@__slotnames__?$AA@		; `string'
PUBLIC	??_C@_07ODDBKIAB@copyreg?$AA@			; `string'
PUBLIC	??_C@_0BD@BFBMEIMB@the?5object?8s?5class?$AA@	; `string'
PUBLIC	??_C@_06GOHDHELE@sorted?$AA@			; `string'
PUBLIC	??_C@_02KEGNLNML@?0?5?$AA@			; `string'
PUBLIC	??_C@_04GPMDFGEJ@type?$AA@			; `string'
PUBLIC	??_C@_0EB@IFDKCHCE@__sizeof__?$CI?$CJ?5?9?$DO?5int?6return?5memor@ ; `string'
PUBLIC	??_C@_0L@HOGGIPGN@__sizeof__?$AA@		; `string'
PUBLIC	??_C@_0DP@LCGOHIAJ@__dir__?$CI?$CJ?5?9?$DO?5list?6specialized?5__@ ; `string'
PUBLIC	??_C@_07FPPEEAND@__dir__?$AA@			; `string'
PUBLIC	??_C@_0DL@PBOIKCPL@__subclasscheck__?$CI?$CJ?5?9?$DO?5bool?6chec@ ; `string'
PUBLIC	??_C@_0BC@NFPPCOGG@__subclasscheck__?$AA@	; `string'
PUBLIC	??_C@_0DO@KLHIJGEM@__instancecheck__?$CI?$CJ?5?9?$DO?5bool?6chec@ ; `string'
PUBLIC	??_C@_0BC@JKBHKBMG@__instancecheck__?$AA@	; `string'
PUBLIC	??_C@_0EL@GOMGOOLM@__prepare__?$CI?$CJ?5?9?$DO?5dict?6used?5to?5cr@ ; `string'
PUBLIC	??_C@_0M@GLHNIFEH@__prepare__?$AA@		; `string'
PUBLIC	??_C@_0DB@NPEDHMIB@__subclasses__?$CI?$CJ?5?9?$DO?5list?5of?5imme@ ; `string'
PUBLIC	??_C@_0P@IOKGGKON@__subclasses__?$AA@		; `string'
PUBLIC	??_C@_0DG@EJDLFMM@mro?$CI?$CJ?5?9?$DO?5list?6return?5a?5type?8s?5me@ ; `string'
PUBLIC	??_C@_09EBPBKION@__slots__?$AA@			; `string'
PUBLIC	??_C@_04BCIDKIGN@dict?$AA@			; `string'
PUBLIC	??_C@_05JMNHICHM@bases?$AA@			; `string'
PUBLIC	??_C@_04MEMAJGDJ@name?$AA@			; `string'
PUBLIC	??_C@_0DD@DKNNDAFM@list?5of?5weak?5references?5to?5the?5o@ ; `string'
PUBLIC	??_C@_0M@OFKEODAB@__weakref__?$AA@		; `string'
PUBLIC	??_C@_0CP@GPHMLMIJ@dictionary?5for?5instance?5variable@ ; `string'
PUBLIC	??_C@_03KCOHMEGL@mro?$AA@			; `string'
PUBLIC	??_C@_0BE@EMDECJMP@__abstractmethods__?$AA@	; `string'
PUBLIC	??_C@_09LJKDIEEK@__bases__?$AA@			; `string'
PUBLIC	??_C@_0N@FMLGAKCE@__qualname__?$AA@		; `string'
PUBLIC	??_C@_07MNLIDIMK@__mro__?$AA@			; `string'
PUBLIC	??_C@_0P@NBEFJBEP@__dictoffset__?$AA@		; `string'
PUBLIC	??_C@_08PNDLAJH@__base__?$AA@			; `string'
PUBLIC	??_C@_0BC@PHCHJLGH@__weakrefoffset__?$AA@	; `string'
PUBLIC	??_C@_09GIOABLIA@__flags__?$AA@			; `string'
PUBLIC	??_C@_0N@OJNCBPH@__itemsize__?$AA@		; `string'
PUBLIC	??_C@_0O@IAOKENCJ@__basicsize__?$AA@		; `string'
PUBLIC	??_C@_07MEBHOIG@__new__?$AA@			; `string'
PUBLIC	??_C@_08BHKDPDAA@__name__?$AA@			; `string'
PUBLIC	??_C@_0L@LNCJCPDP@__module__?$AA@		; `string'
PUBLIC	??_C@_08FJMJDHAE@__hash__?$AA@			; `string'
PUBLIC	??_C@_0BB@FJMKAPEO@__getattribute__?$AA@	; `string'
PUBLIC	??_C@_0M@GAJGCIJD@__getitem__?$AA@		; `string'
PUBLIC	??_C@_07DIBBIFIJ@__doc__?$AA@			; `string'
PUBLIC	??_C@_08IBFKALI@__dict__?$AA@			; `string'
PUBLIC	??_C@_09LFGACEKG@__class__?$AA@			; `string'
PUBLIC	PyType_Type
PUBLIC	PyBaseObject_Type
PUBLIC	PySuper_Type
EXTRN	_PyObject_DebugFree:PROC
EXTRN	PyObject_GenericSetAttr:PROC
EXTRN	PyObject_GenericGetAttr:PROC
EXTRN	_Py_HashPointer:PROC
EXTRN	PyObject_GC_Del:PROC
_BSS	SEGMENT
next_version_tag DD 01H DUP (?)
?initialized@?1??init_slotdefs@@9@9 DD 01H DUP (?)	; `init_slotdefs'::`2'::initialized
_BSS	ENDS
;	COMDAT ??_C@_05MKJDPMKP@super?$AA@
CONST	SEGMENT
??_C@_05MKJDPMKP@super?$AA@ DB 'super', 00H		; `string'
CONST	ENDS
;	COMDAT ??_C@_0DH@MEJKBCJN@the?5type?5of?5the?5instance?5invokin@
CONST	SEGMENT
??_C@_0DH@MEJKBCJN@the?5type?5of?5the?5instance?5invokin@ DB 'the type of'
	DB	' the instance invoking super(); may be None', 00H ; `string'
CONST	ENDS
;	COMDAT ??_C@_0P@FDFALBKM@__self_class__?$AA@
CONST	SEGMENT
??_C@_0P@FDFALBKM@__self_class__?$AA@ DB '__self_class__', 00H ; `string'
CONST	ENDS
;	COMDAT ??_C@_0CL@OAHEPBOJ@the?5instance?5invoking?5super?$CI?$CJ?$DL?5m@
CONST	SEGMENT
??_C@_0CL@OAHEPBOJ@the?5instance?5invoking?5super?$CI?$CJ?$DL?5m@ DB 'the'
	DB	' instance invoking super(); may be None', 00H ; `string'
CONST	ENDS
;	COMDAT ??_C@_08KFOOMKEG@__self__?$AA@
CONST	SEGMENT
??_C@_08KFOOMKEG@__self__?$AA@ DB '__self__', 00H	; `string'
CONST	ENDS
;	COMDAT ??_C@_0BL@NCAHCDDF@the?5class?5invoking?5super?$CI?$CJ?$AA@
CONST	SEGMENT
??_C@_0BL@NCAHCDDF@the?5class?5invoking?5super?$CI?$CJ?$AA@ DB 'the class'
	DB	' invoking super()', 00H			; `string'
CONST	ENDS
;	COMDAT ??_C@_0O@BEEHOGAG@__thisclass__?$AA@
CONST	SEGMENT
??_C@_0O@BEEHOGAG@__thisclass__?$AA@ DB '__thisclass__', 00H ; `string'
CONST	ENDS
;	COMDAT ??_C@_0BO@NHHBFPJ@x?4__contains__?$CIy?$CJ?5?$DM?$DN?$DN?$DO?5y?5in?5x?$AA@
CONST	SEGMENT
??_C@_0BO@NHHBFPJ@x?4__contains__?$CIy?$CJ?5?$DM?$DN?$DN?$DO?5y?5in?5x?$AA@ DB 'x'
	DB	'.__contains__(y) <==> y in x', 00H		; `string'
CONST	ENDS
;	COMDAT ??_C@_0BH@FMFFBHMG@x?4__rmul__?$CIn?$CJ?5?$DM?$DN?$DN?$DO?5n?$CKx?$AA@
CONST	SEGMENT
??_C@_0BH@FMFFBHMG@x?4__rmul__?$CIn?$CJ?5?$DM?$DN?$DN?$DO?5n?$CKx?$AA@ DB 'x'
	DB	'.__rmul__(n) <==> n*x', 00H			; `string'
CONST	ENDS
;	COMDAT ??_C@_0BG@FOCCMDEC@x?4__mul__?$CIn?$CJ?5?$DM?$DN?$DN?$DO?5x?$CKn?$AA@
CONST	SEGMENT
??_C@_0BG@FOCCMDEC@x?4__mul__?$CIn?$CJ?5?$DM?$DN?$DN?$DO?5x?$CKn?$AA@ DB 'x'
	DB	'.__mul__(n) <==> x*n', 00H			; `string'
CONST	ENDS
;	COMDAT ??_C@_0BP@HKMFPPHC@x?4__delitem__?$CIy?$CJ?5?$DM?$DN?$DN?$DO?5del?5x?$FLy?$FN?$AA@
CONST	SEGMENT
??_C@_0BP@HKMFPPHC@x?4__delitem__?$CIy?$CJ?5?$DM?$DN?$DN?$DO?5del?5x?$FLy?$FN?$AA@ DB 'x'
	DB	'.__delitem__(y) <==> del x[y]', 00H		; `string'
CONST	ENDS
;	COMDAT ??_C@_0CA@GAOMDJJJ@x?4__setitem__?$CIi?0?5y?$CJ?5?$DM?$DN?$DN?$DO?5x?$FLi?$FN?$DNy?$AA@
CONST	SEGMENT
??_C@_0CA@GAOMDJJJ@x?4__setitem__?$CIi?0?5y?$CJ?5?$DM?$DN?$DN?$DO?5x?$FLi?$FN?$DNy?$AA@ DB 'x'
	DB	'.__setitem__(i, y) <==> x[i]=y', 00H	; `string'
CONST	ENDS
;	COMDAT ??_C@_0BL@MOLOBEHD@x?4__getitem__?$CIy?$CJ?5?$DM?$DN?$DN?$DO?5x?$FLy?$FN?$AA@
CONST	SEGMENT
??_C@_0BL@MOLOBEHD@x?4__getitem__?$CIy?$CJ?5?$DM?$DN?$DN?$DO?5x?$FLy?$FN?$AA@ DB 'x'
	DB	'.__getitem__(y) <==> x[y]', 00H		; `string'
CONST	ENDS
;	COMDAT ??_C@_0BI@LJFJONPL@x?4__len__?$CI?$CJ?5?$DM?$DN?$DN?$DO?5len?$CIx?$CJ?$AA@
CONST	SEGMENT
??_C@_0BI@LJFJONPL@x?4__len__?$CI?$CJ?5?$DM?$DN?$DN?$DO?5len?$CIx?$CJ?$AA@ DB 'x'
	DB	'.__len__() <==> len(x)', 00H		; `string'
CONST	ENDS
;	COMDAT ??_C@_0CL@DOCBMFDB@x?$FLy?3z?$FN?5?$DM?$DN?$DN?$DO?5x?$FLy?4__index__?$CI?$CJ?3z?4__@
CONST	SEGMENT
??_C@_0CL@DOCBMFDB@x?$FLy?3z?$FN?5?$DM?$DN?$DN?$DO?5x?$FLy?4__index__?$CI?$CJ?3z?4__@ DB 'x'
	DB	'[y:z] <==> x[y.__index__():z.__index__()]', 00H ; `string'
CONST	ENDS
;	COMDAT ??_C@_0BL@NHAJGPKM@x?4__itruediv__?$CIy?$CJ?5?$DM?$DN?$DN?$DO?5x?1y?$AA@
CONST	SEGMENT
??_C@_0BL@NHAJGPKM@x?4__itruediv__?$CIy?$CJ?5?$DM?$DN?$DN?$DO?5x?1y?$AA@ DB 'x'
	DB	'.__itruediv__(y) <==> x/y', 00H		; `string'
CONST	ENDS
;	COMDAT ??_C@_0BN@KGGFDMPH@x?4__ifloordiv__?$CIy?$CJ?5?$DM?$DN?$DN?$DO?5x?1?1y?$AA@
CONST	SEGMENT
??_C@_0BN@KGGFDMPH@x?4__ifloordiv__?$CIy?$CJ?5?$DM?$DN?$DN?$DO?5x?1?1y?$AA@ DB 'x'
	DB	'.__ifloordiv__(y) <==> x//y', 00H		; `string'
CONST	ENDS
;	COMDAT ??_C@_0BL@BIAMFNP@x?4__rtruediv__?$CIy?$CJ?5?$DM?$DN?$DN?$DO?5y?1x?$AA@
CONST	SEGMENT
??_C@_0BL@BIAMFNP@x?4__rtruediv__?$CIy?$CJ?5?$DM?$DN?$DN?$DO?5y?1x?$AA@ DB 'x'
	DB	'.__rtruediv__(y) <==> y/x', 00H		; `string'
CONST	ENDS
;	COMDAT ??_C@_0BK@KJLHHIEM@x?4__truediv__?$CIy?$CJ?5?$DM?$DN?$DN?$DO?5x?1y?$AA@
CONST	SEGMENT
??_C@_0BK@KJLHHIEM@x?4__truediv__?$CIy?$CJ?5?$DM?$DN?$DN?$DO?5x?1y?$AA@ DB 'x'
	DB	'.__truediv__(y) <==> x/y', 00H		; `string'
CONST	ENDS
;	COMDAT ??_C@_0BN@MDOPCGIM@x?4__rfloordiv__?$CIy?$CJ?5?$DM?$DN?$DN?$DO?5y?1?1x?$AA@
CONST	SEGMENT
??_C@_0BN@MDOPCGIM@x?4__rfloordiv__?$CIy?$CJ?5?$DM?$DN?$DN?$DO?5y?1?1x?$AA@ DB 'x'
	DB	'.__rfloordiv__(y) <==> y//x', 00H		; `string'
CONST	ENDS
;	COMDAT ??_C@_0BM@HLMIDEGC@x?4__floordiv__?$CIy?$CJ?5?$DM?$DN?$DN?$DO?5x?1?1y?$AA@
CONST	SEGMENT
??_C@_0BM@HLMIDEGC@x?4__floordiv__?$CIy?$CJ?5?$DM?$DN?$DN?$DO?5x?1?1y?$AA@ DB 'x'
	DB	'.__floordiv__(y) <==> x//y', 00H		; `string'
CONST	ENDS
;	COMDAT ??_C@_0BH@KMKCFFEL@x?4__ior__?$CIy?$CJ?5?$DM?$DN?$DN?$DO?5x?$HM?$DNy?$AA@
CONST	SEGMENT
??_C@_0BH@KMKCFFEL@x?4__ior__?$CIy?$CJ?5?$DM?$DN?$DN?$DO?5x?$HM?$DNy?$AA@ DB 'x'
	DB	'.__ior__(y) <==> x|=y', 00H			; `string'
CONST	ENDS
;	COMDAT ??_C@_0BI@KNFBDEPM@x?4__ixor__?$CIy?$CJ?5?$DM?$DN?$DN?$DO?5x?$FO?$DNy?$AA@
CONST	SEGMENT
??_C@_0BI@KNFBDEPM@x?4__ixor__?$CIy?$CJ?5?$DM?$DN?$DN?$DO?5x?$FO?$DNy?$AA@ DB 'x'
	DB	'.__ixor__(y) <==> x^=y', 00H		; `string'
CONST	ENDS
;	COMDAT ??_C@_0BI@JBOMICMM@x?4__iand__?$CIy?$CJ?5?$DM?$DN?$DN?$DO?5x?$CG?$DNy?$AA@
CONST	SEGMENT
??_C@_0BI@JBOMICMM@x?4__iand__?$CIy?$CJ?5?$DM?$DN?$DN?$DO?5x?$CG?$DNy?$AA@ DB 'x'
	DB	'.__iand__(y) <==> x&=y', 00H		; `string'
CONST	ENDS
;	COMDAT ??_C@_0BM@OEGAKNLC@x?4__irshift__?$CIy?$CJ?5?$DM?$DN?$DN?$DO?5x?$DO?$DO?$DNy?$AA@
CONST	SEGMENT
??_C@_0BM@OEGAKNLC@x?4__irshift__?$CIy?$CJ?5?$DM?$DN?$DN?$DO?5x?$DO?$DO?$DNy?$AA@ DB 'x'
	DB	'.__irshift__(y) <==> x>>=y', 00H		; `string'
CONST	ENDS
;	COMDAT ??_C@_0BM@NIKIIBEJ@x?4__ilshift__?$CIy?$CJ?5?$DM?$DN?$DN?$DO?5x?$DM?$DM?$DNy?$AA@
CONST	SEGMENT
??_C@_0BM@NIKIIBEJ@x?4__ilshift__?$CIy?$CJ?5?$DM?$DN?$DN?$DO?5x?$DM?$DM?$DNy?$AA@ DB 'x'
	DB	'.__ilshift__(y) <==> x<<=y', 00H		; `string'
CONST	ENDS
;	COMDAT ??_C@_0BJ@IFHFJGNM@x?4__ipow__?$CIy?$CJ?5?$DM?$DN?$DN?$DO?5x?$CK?$CK?$DNy?$AA@
CONST	SEGMENT
??_C@_0BJ@IFHFJGNM@x?4__ipow__?$CIy?$CJ?5?$DM?$DN?$DN?$DO?5x?$CK?$CK?$DNy?$AA@ DB 'x'
	DB	'.__ipow__(y) <==> x**=y', 00H		; `string'
CONST	ENDS
;	COMDAT ??_C@_0BI@IMMCILKE@x?4__imod__?$CIy?$CJ?5?$DM?$DN?$DN?$DO?5x?$CF?$DNy?$AA@
CONST	SEGMENT
??_C@_0BI@IMMCILKE@x?4__imod__?$CIy?$CJ?5?$DM?$DN?$DN?$DO?5x?$CF?$DNy?$AA@ DB 'x'
	DB	'.__imod__(y) <==> x%=y', 00H		; `string'
CONST	ENDS
;	COMDAT ??_C@_0BI@OJHENPL@x?4__imul__?$CIy?$CJ?5?$DM?$DN?$DN?$DO?5x?$CK?$DNy?$AA@
CONST	SEGMENT
??_C@_0BI@OJHENPL@x?4__imul__?$CIy?$CJ?5?$DM?$DN?$DN?$DO?5x?$CK?$DNy?$AA@ DB 'x'
	DB	'.__imul__(y) <==> x*=y', 00H		; `string'
CONST	ENDS
;	COMDAT ??_C@_0BI@FFFLKAEI@x?4__isub__?$CIy?$CJ?5?$DM?$DN?$DN?$DO?5x?9?$DNy?$AA@
CONST	SEGMENT
??_C@_0BI@FFFLKAEI@x?4__isub__?$CIy?$CJ?5?$DM?$DN?$DN?$DO?5x?9?$DNy?$AA@ DB 'x'
	DB	'.__isub__(y) <==> x-=y', 00H		; `string'
CONST	ENDS
;	COMDAT ??_C@_0BI@HBADJPJO@x?4__iadd__?$CIy?$CJ?5?$DM?$DN?$DN?$DO?5x?$CL?$DNy?$AA@
CONST	SEGMENT
??_C@_0BI@HBADJPJO@x?4__iadd__?$CIy?$CJ?5?$DM?$DN?$DN?$DO?5x?$CL?$DNy?$AA@ DB 'x'
	DB	'.__iadd__(y) <==> x+=y', 00H		; `string'
CONST	ENDS
;	COMDAT ??_C@_0BM@HEPIFLMJ@x?4__float__?$CI?$CJ?5?$DM?$DN?$DN?$DO?5float?$CIx?$CJ?$AA@
CONST	SEGMENT
??_C@_0BM@HEPIFLMJ@x?4__float__?$CI?$CJ?5?$DM?$DN?$DN?$DO?5float?$CIx?$CJ?$AA@ DB 'x'
	DB	'.__float__() <==> float(x)', 00H		; `string'
CONST	ENDS
;	COMDAT ??_C@_0BI@BGKNGPBI@x?4__int__?$CI?$CJ?5?$DM?$DN?$DN?$DO?5int?$CIx?$CJ?$AA@
CONST	SEGMENT
??_C@_0BI@BGKNGPBI@x?4__int__?$CI?$CJ?5?$DM?$DN?$DN?$DO?5int?$CIx?$CJ?$AA@ DB 'x'
	DB	'.__int__() <==> int(x)', 00H		; `string'
CONST	ENDS
;	COMDAT ??_C@_0BG@NBLDDBOA@x?4__ror__?$CIy?$CJ?5?$DM?$DN?$DN?$DO?5y?$HMx?$AA@
CONST	SEGMENT
??_C@_0BG@NBLDDBOA@x?4__ror__?$CIy?$CJ?5?$DM?$DN?$DN?$DO?5y?$HMx?$AA@ DB 'x'
	DB	'.__ror__(y) <==> y|x', 00H			; `string'
CONST	ENDS
;	COMDAT ??_C@_0BF@IGCMIDJE@x?4__or__?$CIy?$CJ?5?$DM?$DN?$DN?$DO?5x?$HMy?$AA@
CONST	SEGMENT
??_C@_0BF@IGCMIDJE@x?4__or__?$CIy?$CJ?5?$DM?$DN?$DN?$DO?5x?$HMy?$AA@ DB 'x'
	DB	'.__or__(y) <==> x|y', 00H			; `string'
CONST	ENDS
;	COMDAT ??_C@_0BH@JDGCAPPB@x?4__rxor__?$CIy?$CJ?5?$DM?$DN?$DN?$DO?5y?$FOx?$AA@
CONST	SEGMENT
??_C@_0BH@JDGCAPPB@x?4__rxor__?$CIy?$CJ?5?$DM?$DN?$DN?$DO?5y?$FOx?$AA@ DB 'x'
	DB	'.__rxor__(y) <==> y^x', 00H			; `string'
CONST	ENDS
;	COMDAT ??_C@_0BG@FJFIDAMF@x?4__xor__?$CIy?$CJ?5?$DM?$DN?$DN?$DO?5x?$FOy?$AA@
CONST	SEGMENT
??_C@_0BG@FJFIDAMF@x?4__xor__?$CIy?$CJ?5?$DM?$DN?$DN?$DO?5x?$FOy?$AA@ DB 'x'
	DB	'.__xor__(y) <==> x^y', 00H			; `string'
CONST	ENDS
;	COMDAT ??_C@_0BH@CNDAOONF@x?4__rand__?$CIy?$CJ?5?$DM?$DN?$DN?$DO?5y?$CGx?$AA@
CONST	SEGMENT
??_C@_0BH@CNDAOONF@x?4__rand__?$CIy?$CJ?5?$DM?$DN?$DN?$DO?5y?$CGx?$AA@ DB 'x'
	DB	'.__rand__(y) <==> y&x', 00H			; `string'
CONST	ENDS
;	COMDAT ??_C@_0BG@OHAKNBOB@x?4__and__?$CIy?$CJ?5?$DM?$DN?$DN?$DO?5x?$CGy?$AA@
CONST	SEGMENT
??_C@_0BG@OHAKNBOB@x?4__and__?$CIy?$CJ?5?$DM?$DN?$DN?$DO?5x?$CGy?$AA@ DB 'x'
	DB	'.__and__(y) <==> x&y', 00H			; `string'
CONST	ENDS
;	COMDAT ??_C@_0BL@IAPLBOLD@x?4__rrshift__?$CIy?$CJ?5?$DM?$DN?$DN?$DO?5y?$DO?$DOx?$AA@
CONST	SEGMENT
??_C@_0BL@IAPLBOLD@x?4__rrshift__?$CIy?$CJ?5?$DM?$DN?$DN?$DO?5y?$DO?$DOx?$AA@ DB 'x'
	DB	'.__rrshift__(y) <==> y>>x', 00H		; `string'
CONST	ENDS
;	COMDAT ??_C@_0BK@KNBAONPF@x?4__rshift__?$CIy?$CJ?5?$DM?$DN?$DN?$DO?5x?$DO?$DOy?$AA@
CONST	SEGMENT
??_C@_0BK@KNBAONPF@x?4__rshift__?$CIy?$CJ?5?$DM?$DN?$DN?$DO?5x?$DO?$DOy?$AA@ DB 'x'
	DB	'.__rshift__(y) <==> x>>y', 00H		; `string'
CONST	ENDS
;	COMDAT ??_C@_0BL@ELDDDEJH@x?4__rlshift__?$CIy?$CJ?5?$DM?$DN?$DN?$DO?5y?$DM?$DMx?$AA@
CONST	SEGMENT
??_C@_0BL@ELDDDEJH@x?4__rlshift__?$CIy?$CJ?5?$DM?$DN?$DN?$DO?5y?$DM?$DMx?$AA@ DB 'x'
	DB	'.__rlshift__(y) <==> y<<x', 00H		; `string'
CONST	ENDS
;	COMDAT ??_C@_0BK@GGNIMHNB@x?4__lshift__?$CIy?$CJ?5?$DM?$DN?$DN?$DO?5x?$DM?$DMy?$AA@
CONST	SEGMENT
??_C@_0BK@GGNIMHNB@x?4__lshift__?$CIy?$CJ?5?$DM?$DN?$DN?$DO?5x?$DM?$DMy?$AA@ DB 'x'
	DB	'.__lshift__(y) <==> x<<y', 00H		; `string'
CONST	ENDS
;	COMDAT ??_C@_0BH@MNOEIHBG@x?4__invert__?$CI?$CJ?5?$DM?$DN?$DN?$DO?5?$HOx?$AA@
CONST	SEGMENT
??_C@_0BH@MNOEIHBG@x?4__invert__?$CI?$CJ?5?$DM?$DN?$DN?$DO?5?$HOx?$AA@ DB 'x'
	DB	'.__invert__() <==> ~x', 00H			; `string'
CONST	ENDS
;	COMDAT ??_C@_0BJ@NDLGPPDN@x?4__bool__?$CI?$CJ?5?$DM?$DN?$DN?$DO?5x?5?$CB?$DN?50?$AA@
CONST	SEGMENT
??_C@_0BJ@NDLGPPDN@x?4__bool__?$CI?$CJ?5?$DM?$DN?$DN?$DO?5x?5?$CB?$DN?50?$AA@ DB 'x'
	DB	'.__bool__() <==> x != 0', 00H		; `string'
CONST	ENDS
;	COMDAT ??_C@_0BI@HMJMPBKF@x?4__abs__?$CI?$CJ?5?$DM?$DN?$DN?$DO?5abs?$CIx?$CJ?$AA@
CONST	SEGMENT
??_C@_0BI@HMJMPBKF@x?4__abs__?$CI?$CJ?5?$DM?$DN?$DN?$DO?5abs?$CIx?$CJ?$AA@ DB 'x'
	DB	'.__abs__() <==> abs(x)', 00H		; `string'
CONST	ENDS
;	COMDAT ??_C@_0BE@CMMOLCI@x?4__pos__?$CI?$CJ?5?$DM?$DN?$DN?$DO?5?$CLx?$AA@
CONST	SEGMENT
??_C@_0BE@CMMOLCI@x?4__pos__?$CI?$CJ?5?$DM?$DN?$DN?$DO?5?$CLx?$AA@ DB 'x.'
	DB	'__pos__() <==> +x', 00H			; `string'
CONST	ENDS
;	COMDAT ??_C@_0BE@NIPFJBMO@x?4__neg__?$CI?$CJ?5?$DM?$DN?$DN?$DO?5?9x?$AA@
CONST	SEGMENT
??_C@_0BE@NIPFJBMO@x?4__neg__?$CI?$CJ?5?$DM?$DN?$DN?$DO?5?9x?$AA@ DB 'x._'
	DB	'_neg__() <==> -x', 00H			; `string'
CONST	ENDS
;	COMDAT ??_C@_0CH@EKLFEJDK@y?4__rpow__?$CIx?$FL?0?5z?$FN?$CJ?5?$DM?$DN?$DN?$DO?5pow?$CIx?0?5y@
CONST	SEGMENT
??_C@_0CH@EKLFEJDK@y?4__rpow__?$CIx?$FL?0?5z?$FN?$CJ?5?$DM?$DN?$DN?$DO?5pow?$CIx?0?5y@ DB 'y'
	DB	'.__rpow__(x[, z]) <==> pow(x, y[, z])', 00H	; `string'
CONST	ENDS
;	COMDAT ??_C@_0CG@GMODBFLE@x?4__pow__?$CIy?$FL?0?5z?$FN?$CJ?5?$DM?$DN?$DN?$DO?5pow?$CIx?0?5y?$FL@
CONST	SEGMENT
??_C@_0CG@GMODBFLE@x?4__pow__?$CIy?$FL?0?5z?$FN?$CJ?5?$DM?$DN?$DN?$DO?5pow?$CIx?0?5y?$FL@ DB 'x'
	DB	'.__pow__(y[, z]) <==> pow(x, y[, z])', 00H	; `string'
CONST	ENDS
;	COMDAT ??_C@_0CD@IFNHNEOL@x?4__rdivmod__?$CIy?$CJ?5?$DM?$DN?$DN?$DO?5divmod?$CIy?0?5@
CONST	SEGMENT
??_C@_0CD@IFNHNEOL@x?4__rdivmod__?$CIy?$CJ?5?$DM?$DN?$DN?$DO?5divmod?$CIy?0?5@ DB 'x'
	DB	'.__rdivmod__(y) <==> divmod(y, x)', 00H	; `string'
CONST	ENDS
;	COMDAT ??_C@_0CC@ICKLDEBI@x?4__divmod__?$CIy?$CJ?5?$DM?$DN?$DN?$DO?5divmod?$CIx?0?5y@
CONST	SEGMENT
??_C@_0CC@ICKLDEBI@x?4__divmod__?$CIy?$CJ?5?$DM?$DN?$DN?$DO?5divmod?$CIx?0?5y@ DB 'x'
	DB	'.__divmod__(y) <==> divmod(x, y)', 00H	; `string'
CONST	ENDS
;	COMDAT ??_C@_0BH@LECJOCMF@x?4__rmod__?$CIy?$CJ?5?$DM?$DN?$DN?$DO?5y?$CFx?$AA@
CONST	SEGMENT
??_C@_0BH@LECJOCMF@x?4__rmod__?$CIy?$CJ?5?$DM?$DN?$DN?$DO?5y?$CFx?$AA@ DB 'x'
	DB	'.__rmod__(y) <==> y%x', 00H			; `string'
CONST	ENDS
;	COMDAT ??_C@_0BG@HOBDNNPB@x?4__mod__?$CIy?$CJ?5?$DM?$DN?$DN?$DO?5x?$CFy?$AA@
CONST	SEGMENT
??_C@_0BG@HOBDNNPB@x?4__mod__?$CIy?$CJ?5?$DM?$DN?$DN?$DO?5x?$CFy?$AA@ DB 'x'
	DB	'.__mod__(y) <==> x%y', 00H			; `string'
CONST	ENDS
;	COMDAT ??_C@_0BH@OJBLHMJD@x?4__rmul__?$CIy?$CJ?5?$DM?$DN?$DN?$DO?5y?$CKx?$AA@
CONST	SEGMENT
??_C@_0BH@OJBLHMJD@x?4__rmul__?$CIy?$CJ?5?$DM?$DN?$DN?$DO?5y?$CKx?$AA@ DB 'x'
	DB	'.__rmul__(y) <==> y*x', 00H			; `string'
CONST	ENDS
;	COMDAT ??_C@_0BG@CDCBEDKH@x?4__mul__?$CIy?$CJ?5?$DM?$DN?$DN?$DO?5x?$CKy?$AA@
CONST	SEGMENT
??_C@_0BG@CDCBEDKH@x?4__mul__?$CIy?$CJ?5?$DM?$DN?$DN?$DO?5x?$CKy?$AA@ DB 'x'
	DB	'.__mul__(y) <==> x*y', 00H			; `string'
CONST	ENDS
;	COMDAT ??_C@_0BH@PLFINCCM@x?4__rsub__?$CIy?$CJ?5?$DM?$DN?$DN?$DO?5y?9x?$AA@
CONST	SEGMENT
??_C@_0BH@PLFINCCM@x?4__rsub__?$CIy?$CJ?5?$DM?$DN?$DN?$DO?5y?9x?$AA@ DB 'x'
	DB	'.__rsub__(y) <==> y-x', 00H			; `string'
CONST	ENDS
;	COMDAT ??_C@_0BG@DBGCONBI@x?4__sub__?$CIy?$CJ?5?$DM?$DN?$DN?$DO?5x?9y?$AA@
CONST	SEGMENT
??_C@_0BG@DBGCONBI@x?4__sub__?$CIy?$CJ?5?$DM?$DN?$DN?$DO?5x?9y?$AA@ DB 'x'
	DB	'.__sub__(y) <==> x-y', 00H			; `string'
CONST	ENDS
;	COMDAT ??_C@_0BH@BHMEKCNP@x?4__radd__?$CIy?$CJ?5?$DM?$DN?$DN?$DO?5y?$CLx?$AA@
CONST	SEGMENT
??_C@_0BH@BHMEKCNP@x?4__radd__?$CIy?$CJ?5?$DM?$DN?$DN?$DO?5y?$CLx?$AA@ DB 'x'
	DB	'.__radd__(y) <==> y+x', 00H			; `string'
CONST	ENDS
;	COMDAT ??_C@_0BG@NNPOJNOL@x?4__add__?$CIy?$CJ?5?$DM?$DN?$DN?$DO?5x?$CLy?$AA@
CONST	SEGMENT
??_C@_0BG@NNPOJNOL@x?4__add__?$CIy?$CJ?5?$DM?$DN?$DN?$DO?5x?$CLy?$AA@ DB 'x'
	DB	'.__add__(y) <==> x+y', 00H			; `string'
CONST	ENDS
;	COMDAT ??_C@_0DP@PEBGGFGF@x?4__init__?$CI?4?4?4?$CJ?5initializes?5x?$DL?5s@
CONST	SEGMENT
??_C@_0DP@PEBGGFGF@x?4__init__?$CI?4?4?4?$CJ?5initializes?5x?$DL?5s@ DB 'x'
	DB	'.__init__(...) initializes x; see help(type(x)) for signature'
	DB	00H						; `string'
CONST	ENDS
;	COMDAT ??_C@_0BG@GKILFGMF@descr?4__delete__?$CIobj?$CJ?$AA@
CONST	SEGMENT
??_C@_0BG@GKILFGMF@descr?4__delete__?$CIobj?$CJ?$AA@ DB 'descr.__delete__'
	DB	'(obj)', 00H					; `string'
CONST	ENDS
;	COMDAT ??_C@_0BK@HNGNCDND@descr?4__set__?$CIobj?0?5value?$CJ?$AA@
CONST	SEGMENT
??_C@_0BK@HNGNCDND@descr?4__set__?$CIobj?0?5value?$CJ?$AA@ DB 'descr.__se'
	DB	't__(obj, value)', 00H			; `string'
CONST	ENDS
;	COMDAT ??_C@_0CE@IDHMMHDD@descr?4__get__?$CIobj?$FL?0?5type?$FN?$CJ?5?9?$DO?5va@
CONST	SEGMENT
??_C@_0CE@IDHMMHDD@descr?4__get__?$CIobj?$FL?0?5type?$FN?$CJ?5?9?$DO?5va@ DB 'd'
	DB	'escr.__get__(obj[, type]) -> value', 00H	; `string'
CONST	ENDS
;	COMDAT ??_C@_0BK@EKPAAGNF@x?4__next__?$CI?$CJ?5?$DM?$DN?$DN?$DO?5next?$CIx?$CJ?$AA@
CONST	SEGMENT
??_C@_0BK@EKPAAGNF@x?4__next__?$CI?$CJ?5?$DM?$DN?$DN?$DO?5next?$CIx?$CJ?$AA@ DB 'x'
	DB	'.__next__() <==> next(x)', 00H		; `string'
CONST	ENDS
;	COMDAT ??_C@_0BK@MLDIHFPK@x?4__iter__?$CI?$CJ?5?$DM?$DN?$DN?$DO?5iter?$CIx?$CJ?$AA@
CONST	SEGMENT
??_C@_0BK@MLDIHFPK@x?4__iter__?$CI?$CJ?5?$DM?$DN?$DN?$DO?5iter?$CIx?$CJ?$AA@ DB 'x'
	DB	'.__iter__() <==> iter(x)', 00H		; `string'
CONST	ENDS
;	COMDAT ??_C@_0BG@GPAFEHPB@x?4__ge__?$CIy?$CJ?5?$DM?$DN?$DN?$DO?5x?$DO?$DNy?$AA@
CONST	SEGMENT
??_C@_0BG@GPAFEHPB@x?4__ge__?$CIy?$CJ?5?$DM?$DN?$DN?$DO?5x?$DO?$DNy?$AA@ DB 'x'
	DB	'.__ge__(y) <==> x>=y', 00H			; `string'
CONST	ENDS
;	COMDAT ??_C@_0BF@EALDPMEA@x?4__gt__?$CIy?$CJ?5?$DM?$DN?$DN?$DO?5x?$DOy?$AA@
CONST	SEGMENT
??_C@_0BF@EALDPMEA@x?4__gt__?$CIy?$CJ?5?$DM?$DN?$DN?$DO?5x?$DOy?$AA@ DB 'x'
	DB	'.__gt__(y) <==> x>y', 00H			; `string'
CONST	ENDS
;	COMDAT ??_C@_0BG@JPHMBINF@x?4__ne__?$CIy?$CJ?5?$DM?$DN?$DN?$DO?5x?$CB?$DNy?$AA@
CONST	SEGMENT
??_C@_0BG@JPHMBINF@x?4__ne__?$CIy?$CJ?5?$DM?$DN?$DN?$DO?5x?$CB?$DNy?$AA@ DB 'x'
	DB	'.__ne__(y) <==> x!=y', 00H			; `string'
CONST	ENDS
;	COMDAT ??_C@_0BG@BMDNDNCO@x?4__eq__?$CIy?$CJ?5?$DM?$DN?$DN?$DO?5x?$DN?$DNy?$AA@
CONST	SEGMENT
??_C@_0BG@BMDNDNCO@x?4__eq__?$CIy?$CJ?5?$DM?$DN?$DN?$DO?5x?$DN?$DNy?$AA@ DB 'x'
	DB	'.__eq__(y) <==> x==y', 00H			; `string'
CONST	ENDS
;	COMDAT ??_C@_0BG@DINLPMBE@x?4__le__?$CIy?$CJ?5?$DM?$DN?$DN?$DO?5x?$DM?$DNy?$AA@
CONST	SEGMENT
??_C@_0BG@DINLPMBE@x?4__le__?$CIy?$CJ?5?$DM?$DN?$DN?$DO?5x?$DM?$DNy?$AA@ DB 'x'
	DB	'.__le__(y) <==> x<=y', 00H			; `string'
CONST	ENDS
;	COMDAT ??_C@_0BF@PGLNDMDE@x?4__lt__?$CIy?$CJ?5?$DM?$DN?$DN?$DO?5x?$DMy?$AA@
CONST	SEGMENT
??_C@_0BF@PGLNDMDE@x?4__lt__?$CIy?$CJ?5?$DM?$DN?$DN?$DO?5x?$DMy?$AA@ DB 'x'
	DB	'.__lt__(y) <==> x<y', 00H			; `string'
CONST	ENDS
;	COMDAT ??_C@_0CG@LPHBAOH@x?4__delattr__?$CI?8name?8?$CJ?5?$DM?$DN?$DN?$DO?5del?5x@
CONST	SEGMENT
??_C@_0CG@LPHBAOH@x?4__delattr__?$CI?8name?8?$CJ?5?$DM?$DN?$DN?$DO?5del?5x@ DB 'x'
	DB	'.__delattr__(''name'') <==> del x.name', 00H ; `string'
CONST	ENDS
;	COMDAT ??_C@_0DB@GBCEKDDL@x?4__setattr__?$CI?8name?8?0?5value?$CJ?5?$DM?$DN?$DN@
CONST	SEGMENT
??_C@_0DB@GBCEKDDL@x?4__setattr__?$CI?8name?8?0?5value?$CJ?5?$DM?$DN?$DN@ DB 'x'
	DB	'.__setattr__(''name'', value) <==> x.name = value', 00H ; `string'
CONST	ENDS
;	COMDAT ??_C@_0CH@MJEJMFHD@x?4__getattribute__?$CI?8name?8?$CJ?5?$DM?$DN?$DN?$DO?5@
CONST	SEGMENT
??_C@_0CH@MJEJMFHD@x?4__getattribute__?$CI?8name?8?$CJ?5?$DM?$DN?$DN?$DO?5@ DB 'x'
	DB	'.__getattribute__(''name'') <==> x.name', 00H ; `string'
CONST	ENDS
;	COMDAT ??_C@_0BI@CPPGOPCF@x?4__str__?$CI?$CJ?5?$DM?$DN?$DN?$DO?5str?$CIx?$CJ?$AA@
CONST	SEGMENT
??_C@_0BI@CPPGOPCF@x?4__str__?$CI?$CJ?5?$DM?$DN?$DN?$DO?5str?$CIx?$CJ?$AA@ DB 'x'
	DB	'.__str__() <==> str(x)', 00H		; `string'
CONST	ENDS
;	COMDAT ??_C@_0BM@OCNACKJL@x?4__call__?$CI?4?4?4?$CJ?5?$DM?$DN?$DN?$DO?5x?$CI?4?4?4?$CJ?$AA@
CONST	SEGMENT
??_C@_0BM@OCNACKJL@x?4__call__?$CI?4?4?4?$CJ?5?$DM?$DN?$DN?$DO?5x?$CI?4?4?4?$CJ?$AA@ DB 'x'
	DB	'.__call__(...) <==> x(...)', 00H		; `string'
CONST	ENDS
;	COMDAT ??_C@_0BK@BGPGEPCP@x?4__hash__?$CI?$CJ?5?$DM?$DN?$DN?$DO?5hash?$CIx?$CJ?$AA@
CONST	SEGMENT
??_C@_0BK@BGPGEPCP@x?4__hash__?$CI?$CJ?5?$DM?$DN?$DN?$DO?5hash?$CIx?$CJ?$AA@ DB 'x'
	DB	'.__hash__() <==> hash(x)', 00H		; `string'
CONST	ENDS
;	COMDAT ??_C@_0BK@EOOFHHJM@x?4__repr__?$CI?$CJ?5?$DM?$DN?$DN?$DO?5repr?$CIx?$CJ?$AA@
CONST	SEGMENT
??_C@_0BK@EOOFHHJM@x?4__repr__?$CI?$CJ?5?$DM?$DN?$DN?$DO?5repr?$CIx?$CJ?$AA@ DB 'x'
	DB	'.__repr__() <==> repr(x)', 00H		; `string'
CONST	ENDS
;	COMDAT ??_C@_00CNPNBAHC@?$AA@
CONST	SEGMENT
??_C@_00CNPNBAHC@?$AA@ DB 00H				; `string'
CONST	ENDS
;	COMDAT ??_C@_07CKMCINHO@__del__?$AA@
CONST	SEGMENT
??_C@_07CKMCINHO@__del__?$AA@ DB '__del__', 00H		; `string'
CONST	ENDS
;	COMDAT ??_C@_08DOHHOJGB@__init__?$AA@
CONST	SEGMENT
??_C@_08DOHHOJGB@__init__?$AA@ DB '__init__', 00H	; `string'
CONST	ENDS
;	COMDAT ??_C@_07KBLMMACN@__set__?$AA@
CONST	SEGMENT
??_C@_07KBLMMACN@__set__?$AA@ DB '__set__', 00H		; `string'
CONST	ENDS
;	COMDAT ??_C@_0L@OAODBFBD@__delete__?$AA@
CONST	SEGMENT
??_C@_0L@OAODBFBD@__delete__?$AA@ DB '__delete__', 00H	; `string'
CONST	ENDS
;	COMDAT ??_C@_07DJPLIAKA@__get__?$AA@
CONST	SEGMENT
??_C@_07DJPLIAKA@__get__?$AA@ DB '__get__', 00H		; `string'
CONST	ENDS
;	COMDAT ??_C@_08MMJHJJBO@__next__?$AA@
CONST	SEGMENT
??_C@_08MMJHJJBO@__next__?$AA@ DB '__next__', 00H	; `string'
CONST	ENDS
;	COMDAT ??_C@_08HMKBHKEB@__iter__?$AA@
CONST	SEGMENT
??_C@_08HMKBHKEB@__iter__?$AA@ DB '__iter__', 00H	; `string'
CONST	ENDS
;	COMDAT ??_C@_06DHPPIHIH@__ge__?$AA@
CONST	SEGMENT
??_C@_06DHPPIHIH@__ge__?$AA@ DB '__ge__', 00H		; `string'
CONST	ENDS
;	COMDAT ??_C@_06NPFKLHHN@__gt__?$AA@
CONST	SEGMENT
??_C@_06NPFKLHHN@__gt__?$AA@ DB '__gt__', 00H		; `string'
CONST	ENDS
;	COMDAT ??_C@_06DKOPOFPG@__ne__?$AA@
CONST	SEGMENT
??_C@_06DKOPOFPG@__ne__?$AA@ DB '__ne__', 00H		; `string'
CONST	ENDS
;	COMDAT ??_C@_06EACPLGJG@__le__?$AA@
CONST	SEGMENT
??_C@_06EACPLGJG@__le__?$AA@ DB '__le__', 00H		; `string'
CONST	ENDS
;	COMDAT ??_C@_06KIIKIGGM@__lt__?$AA@
CONST	SEGMENT
??_C@_06KIIKIGGM@__lt__?$AA@ DB '__lt__', 00H		; `string'
CONST	ENDS
;	COMDAT ??_C@_0M@CIMGLOJN@__setattr__?$AA@
CONST	SEGMENT
??_C@_0M@CIMGLOJN@__setattr__?$AA@ DB '__setattr__', 00H ; `string'
CONST	ENDS
;	COMDAT ??_C@_0M@ECOKAOJC@__delattr__?$AA@
CONST	SEGMENT
??_C@_0M@ECOKAOJC@__delattr__?$AA@ DB '__delattr__', 00H ; `string'
CONST	ENDS
;	COMDAT ??_C@_0M@GIDJPAP@__getattr__?$AA@
CONST	SEGMENT
??_C@_0M@GIDJPAP@__getattr__?$AA@ DB '__getattr__', 00H	; `string'
CONST	ENDS
;	COMDAT ??_C@_08DGBMPEPK@__call__?$AA@
CONST	SEGMENT
??_C@_08DGBMPEPK@__call__?$AA@ DB '__call__', 00H	; `string'
CONST	ENDS
;	COMDAT ??_C@_07NJFHCBMD@__str__?$AA@
CONST	SEGMENT
??_C@_07NJFHCBMD@__str__?$AA@ DB '__str__', 00H		; `string'
CONST	ENDS
;	COMDAT ??_C@_08HJPCHLLJ@__repr__?$AA@
CONST	SEGMENT
??_C@_08HJPCHLLJ@__repr__?$AA@ DB '__repr__', 00H	; `string'
CONST	ENDS
;	COMDAT ??_C@_0N@LEBOILNI@__itruediv__?$AA@
CONST	SEGMENT
??_C@_0N@LEBOILNI@__itruediv__?$AA@ DB '__itruediv__', 00H ; `string'
CONST	ENDS
;	COMDAT ??_C@_0O@FFFGEHEN@__ifloordiv__?$AA@
CONST	SEGMENT
??_C@_0O@FFFGEHEN@__ifloordiv__?$AA@ DB '__ifloordiv__', 00H ; `string'
CONST	ENDS
;	COMDAT ??_C@_0N@DJMJMIFH@__rtruediv__?$AA@
CONST	SEGMENT
??_C@_0N@DJMJMIFH@__rtruediv__?$AA@ DB '__rtruediv__', 00H ; `string'
CONST	ENDS
;	COMDAT ??_C@_0M@COJKGICO@__truediv__?$AA@
CONST	SEGMENT
??_C@_0M@COJKGICO@__truediv__?$AA@ DB '__truediv__', 00H ; `string'
CONST	ENDS
;	COMDAT ??_C@_0O@CINMAOLP@__rfloordiv__?$AA@
CONST	SEGMENT
??_C@_0O@CINMAOLP@__rfloordiv__?$AA@ DB '__rfloordiv__', 00H ; `string'
CONST	ENDS
;	COMDAT ??_C@_0N@BBCJEIH@__floordiv__?$AA@
CONST	SEGMENT
??_C@_0N@BBCJEIH@__floordiv__?$AA@ DB '__floordiv__', 00H ; `string'
CONST	ENDS
;	COMDAT ??_C@_07GMCKKGKN@__ior__?$AA@
CONST	SEGMENT
??_C@_07GMCKKGKN@__ior__?$AA@ DB '__ior__', 00H		; `string'
CONST	ENDS
;	COMDAT ??_C@_08EBNDKCJL@__ixor__?$AA@
CONST	SEGMENT
??_C@_08EBNDKCJL@__ixor__?$AA@ DB '__ixor__', 00H	; `string'
CONST	ENDS
;	COMDAT ??_C@_08CNBINADL@__iand__?$AA@
CONST	SEGMENT
??_C@_08CNBINADL@__iand__?$AA@ DB '__iand__', 00H	; `string'
CONST	ENDS
;	COMDAT ??_C@_0M@MPLFEGLF@__irshift__?$AA@
CONST	SEGMENT
??_C@_0M@MPLFEGLF@__irshift__?$AA@ DB '__irshift__', 00H ; `string'
CONST	ENDS
;	COMDAT ??_C@_0M@KLLHNPFG@__ilshift__?$AA@
CONST	SEGMENT
??_C@_0M@KLLHNPFG@__ilshift__?$AA@ DB '__ilshift__', 00H ; `string'
CONST	ENDS
;	COMDAT ??_C@_08JKFONAME@__ipow__?$AA@
CONST	SEGMENT
??_C@_08JKFONAME@__ipow__?$AA@ DB '__ipow__', 00H	; `string'
CONST	ENDS
;	COMDAT ??_C@_08GHLKDJPA@__imod__?$AA@
CONST	SEGMENT
??_C@_08GHLKDJPA@__imod__?$AA@ DB '__imod__', 00H	; `string'
CONST	ENDS
;	COMDAT ??_C@_08IIFOJODM@__imul__?$AA@
CONST	SEGMENT
??_C@_08IIFOJODM@__imul__?$AA@ DB '__imul__', 00H	; `string'
CONST	ENDS
;	COMDAT ??_C@_08FBFNIKOE@__isub__?$AA@
CONST	SEGMENT
??_C@_08FBFNIKOE@__isub__?$AA@ DB '__isub__', 00H	; `string'
CONST	ENDS
;	COMDAT ??_C@_08GHKIMIJK@__iadd__?$AA@
CONST	SEGMENT
??_C@_08GHKIMIJK@__iadd__?$AA@ DB '__iadd__', 00H	; `string'
CONST	ENDS
;	COMDAT ??_C@_09EAHNLHOJ@__float__?$AA@
CONST	SEGMENT
??_C@_09EAHNLHOJ@__float__?$AA@ DB '__float__', 00H	; `string'
CONST	ENDS
;	COMDAT ??_C@_07HECBNAMB@__int__?$AA@
CONST	SEGMENT
??_C@_07HECBNAMB@__int__?$AA@ DB '__int__', 00H		; `string'
CONST	ENDS
;	COMDAT ??_C@_07FDLFEPF@__ror__?$AA@
CONST	SEGMENT
??_C@_07FDLFEPF@__ror__?$AA@ DB '__ror__', 00H		; `string'
CONST	ENDS
;	COMDAT ??_C@_06MKEBKDGA@__or__?$AA@
CONST	SEGMENT
??_C@_06MKEBKDGA@__or__?$AA@ DB '__or__', 00H		; `string'
CONST	ENDS
;	COMDAT ??_C@_08CEAKGKKP@__rxor__?$AA@
CONST	SEGMENT
??_C@_08CEAKGKKP@__rxor__?$AA@ DB '__rxor__', 00H	; `string'
CONST	ENDS
;	COMDAT ??_C@_07KEKAHHJD@__xor__?$AA@
CONST	SEGMENT
??_C@_07KEKAHHJD@__xor__?$AA@ DB '__xor__', 00H		; `string'
CONST	ENDS
;	COMDAT ??_C@_08EIMBBIAP@__rand__?$AA@
CONST	SEGMENT
??_C@_08EIMBBIAP@__rand__?$AA@ DB '__rand__', 00H	; `string'
CONST	ENDS
;	COMDAT ??_C@_07MIGLAFDD@__and__?$AA@
CONST	SEGMENT
??_C@_07MIGLAFDD@__and__?$AA@ DB '__and__', 00H		; `string'
CONST	ENDS
;	COMDAT ??_C@_0M@BAPLDMKK@__rrshift__?$AA@
CONST	SEGMENT
??_C@_0M@BAPLDMKK@__rrshift__?$AA@ DB '__rrshift__', 00H ; `string'
CONST	ENDS
;	COMDAT ??_C@_0L@PEOFAGDE@__rshift__?$AA@
CONST	SEGMENT
??_C@_0L@PEOFAGDE@__rshift__?$AA@ DB '__rshift__', 00H	; `string'
CONST	ENDS
;	COMDAT ??_C@_0M@HEPJKFEJ@__rlshift__?$AA@
CONST	SEGMENT
??_C@_0M@HEPJKFEJ@__rlshift__?$AA@ DB '__rlshift__', 00H ; `string'
CONST	ENDS
;	COMDAT ??_C@_0L@JAOHJPNH@__lshift__?$AA@
CONST	SEGMENT
??_C@_0L@JAOHJPNH@__lshift__?$AA@ DB '__lshift__', 00H	; `string'
CONST	ENDS
;	COMDAT ??_C@_0L@OIINOIMI@__invert__?$AA@
CONST	SEGMENT
??_C@_0L@OIINOIMI@__invert__?$AA@ DB '__invert__', 00H	; `string'
CONST	ENDS
;	COMDAT ??_C@_09NLFDFNNH@__index__?$AA@
CONST	SEGMENT
??_C@_09NLFDFNNH@__index__?$AA@ DB '__index__', 00H	; `string'
CONST	ENDS
;	COMDAT ??_C@_08ONMBOEOO@__bool__?$AA@
CONST	SEGMENT
??_C@_08ONMBOEOO@__bool__?$AA@ DB '__bool__', 00H	; `string'
CONST	ENDS
;	COMDAT ??_C@_07MAFFIHBE@__abs__?$AA@
CONST	SEGMENT
??_C@_07MAFFIHBE@__abs__?$AA@ DB '__abs__', 00H		; `string'
CONST	ENDS
;	COMDAT ??_C@_07PAEPJCJL@__pos__?$AA@
CONST	SEGMENT
??_C@_07PAEPJCJL@__pos__?$AA@ DB '__pos__', 00H		; `string'
CONST	ENDS
;	COMDAT ??_C@_07FMFICJBJ@__neg__?$AA@
CONST	SEGMENT
??_C@_07FMFICJBJ@__neg__?$AA@ DB '__neg__', 00H		; `string'
CONST	ENDS
;	COMDAT ??_C@_08PPIHBIPA@__rpow__?$AA@
CONST	SEGMENT
??_C@_08PPIHBIPA@__rpow__?$AA@ DB '__rpow__', 00H	; `string'
CONST	ENDS
;	COMDAT ??_C@_07HPCNAFMM@__pow__?$AA@
CONST	SEGMENT
??_C@_07HPCNAFMM@__pow__?$AA@ DB '__pow__', 00H		; `string'
CONST	ENDS
;	COMDAT ??_C@_0M@NDCDLKNJ@__rdivmod__?$AA@
CONST	SEGMENT
??_C@_0M@NDCDLKNJ@__rdivmod__?$AA@ DB '__rdivmod__', 00H ; `string'
CONST	ENDS
;	COMDAT ??_C@_0L@DHDNIAEH@__divmod__?$AA@
CONST	SEGMENT
??_C@_0L@DHDNIAEH@__divmod__?$AA@ DB '__divmod__', 00H	; `string'
CONST	ENDS
;	COMDAT ??_C@_08CGDPBME@__rmod__?$AA@
CONST	SEGMENT
??_C@_08CGDPBME@__rmod__?$AA@ DB '__rmod__', 00H	; `string'
CONST	ENDS
;	COMDAT ??_C@_07ICMJOMPI@__mod__?$AA@
CONST	SEGMENT
??_C@_07ICMJOMPI@__mod__?$AA@ DB '__mod__', 00H		; `string'
CONST	ENDS
;	COMDAT ??_C@_08ONIHFGAI@__rmul__?$AA@
CONST	SEGMENT
??_C@_08ONIHFGAI@__rmul__?$AA@ DB '__rmul__', 00H	; `string'
CONST	ENDS
;	COMDAT ??_C@_07GNCNELDE@__mul__?$AA@
CONST	SEGMENT
??_C@_07GNCNELDE@__mul__?$AA@ DB '__mul__', 00H		; `string'
CONST	ENDS
;	COMDAT ??_C@_08DEIEECNA@__rsub__?$AA@
CONST	SEGMENT
??_C@_08DEIEECNA@__rsub__?$AA@ DB '__rsub__', 00H	; `string'
CONST	ENDS
;	COMDAT ??_C@_07LECOFPOM@__sub__?$AA@
CONST	SEGMENT
??_C@_07LECOFPOM@__sub__?$AA@ DB '__sub__', 00H		; `string'
CONST	ENDS
;	COMDAT ??_C@_08CHBAAKO@__radd__?$AA@
CONST	SEGMENT
??_C@_08CHBAAKO@__radd__?$AA@ DB '__radd__', 00H	; `string'
CONST	ENDS
;	COMDAT ??_C@_07ICNLBNJC@__add__?$AA@
CONST	SEGMENT
??_C@_07ICNLBNJC@__add__?$AA@ DB '__add__', 00H		; `string'
CONST	ENDS
;	COMDAT ??_C@_0N@MCIOADFH@__contains__?$AA@
CONST	SEGMENT
??_C@_0N@MCIOADFH@__contains__?$AA@ DB '__contains__', 00H ; `string'
CONST	ENDS
;	COMDAT ??_C@_0M@EONDAJAB@__setitem__?$AA@
CONST	SEGMENT
??_C@_0M@EONDAJAB@__setitem__?$AA@ DB '__setitem__', 00H ; `string'
CONST	ENDS
;	COMDAT ??_C@_0M@CEPPLJAO@__delitem__?$AA@
CONST	SEGMENT
??_C@_0M@CEPPLJAO@__delitem__?$AA@ DB '__delitem__', 00H ; `string'
CONST	ENDS
;	COMDAT ??_C@_07GMJIMHJI@__len__?$AA@
CONST	SEGMENT
??_C@_07GMJIMHJI@__len__?$AA@ DB '__len__', 00H		; `string'
CONST	ENDS
;	COMDAT ??_C@_0DO@MFNFNJKD@T?4__new__?$CIS?0?5?4?4?4?$CJ?5?9?$DO?5a?5new?5objec@
CONST	SEGMENT
??_C@_0DO@MFNFNJKD@T?4__new__?$CIS?0?5?4?4?4?$CJ?5?9?$DO?5a?5new?5objec@ DB 'T'
	DB	'.__new__(S, ...) -> a new object with type S, a subtype of T', 00H ; `string'
CONST	ENDS
;	COMDAT ??_C@_06JCEEBECP@__eq__?$AA@
CONST	SEGMENT
??_C@_06JCEEBECP@__eq__?$AA@ DB '__eq__', 00H		; `string'
CONST	ENDS
;	COMDAT ??_C@_0BD@EEFIMND@The?5most?5base?5type?$AA@
CONST	SEGMENT
??_C@_0BD@EEFIMND@The?5most?5base?5type?$AA@ DB 'The most base type', 00H ; `string'
CONST	ENDS
;	COMDAT ??_C@_06IEOJBDIK@object?$AA@
CONST	SEGMENT
??_C@_06IEOJBDIK@object?$AA@ DB 'object', 00H		; `string'
CONST	ENDS
;	COMDAT ??_C@_0CP@DOIFJKJG@__dir__?$CI?$CJ?5?9?$DO?5list?6default?5dir?$CI?$CJ?5@
CONST	SEGMENT
??_C@_0CP@DOIFJKJG@__dir__?$CI?$CJ?5?9?$DO?5list?6default?5dir?$CI?$CJ?5@ DB '_'
	DB	'_dir__() -> list', 0aH, 'default dir() implementation', 00H ; `string'
CONST	ENDS
;	COMDAT ??_C@_0DH@GGNPGAHM@__sizeof__?$CI?$CJ?5?9?$DO?5int?6size?5of?5obje@
CONST	SEGMENT
??_C@_0DH@GGNPGAHM@__sizeof__?$CI?$CJ?5?9?$DO?5int?6size?5of?5obje@ DB '_'
	DB	'_sizeof__() -> int', 0aH, 'size of object in memory, in bytes'
	DB	00H						; `string'
CONST	ENDS
;	COMDAT ??_C@_0BJ@OLCCKPLB@default?5object?5formatter?$AA@
CONST	SEGMENT
??_C@_0BJ@OLCCKPLB@default?5object?5formatter?$AA@ DB 'default object for'
	DB	'matter', 00H				; `string'
CONST	ENDS
;	COMDAT ??_C@_0L@MEMCGMKL@__format__?$AA@
CONST	SEGMENT
??_C@_0L@MEMCGMKL@__format__?$AA@ DB '__format__', 00H	; `string'
CONST	ENDS
;	COMDAT ??_C@_0BB@NHNPNHAH@__subclasshook__?$AA@
CONST	SEGMENT
??_C@_0BB@NHNPNHAH@__subclasshook__?$AA@ DB '__subclasshook__', 00H ; `string'
CONST	ENDS
;	COMDAT ??_C@_0BC@KKCCEOPP@helper?5for?5pickle?$AA@
CONST	SEGMENT
??_C@_0BC@KKCCEOPP@helper?5for?5pickle?$AA@ DB 'helper for pickle', 00H ; `string'
CONST	ENDS
;	COMDAT ??_C@_0O@CFEDDKPG@__reduce_ex__?$AA@
CONST	SEGMENT
??_C@_0O@CFEDDKPG@__reduce_ex__?$AA@ DB '__reduce_ex__', 00H ; `string'
CONST	ENDS
;	COMDAT ??_C@_0L@NNMACJIG@__reduce__?$AA@
CONST	SEGMENT
??_C@_0L@NNMACJIG@__reduce__?$AA@ DB '__reduce__', 00H	; `string'
CONST	ENDS
;	COMDAT ??_C@_05CFHBDDLG@items?$AA@
CONST	SEGMENT
??_C@_05CFHBDDLG@items?$AA@ DB 'items', 00H		; `string'
CONST	ENDS
;	COMDAT ??_C@_0L@GEMAGKL@__newobj__?$AA@
CONST	SEGMENT
??_C@_0L@GEMAGKL@__newobj__?$AA@ DB '__newobj__', 00H	; `string'
CONST	ENDS
;	COMDAT ??_C@_0N@NAMJJHIO@__getstate__?$AA@
CONST	SEGMENT
??_C@_0N@NAMJJHIO@__getstate__?$AA@ DB '__getstate__', 00H ; `string'
CONST	ENDS
;	COMDAT ??_C@_0P@BCBHENLA@__getnewargs__?$AA@
CONST	SEGMENT
??_C@_0P@BCBHENLA@__getnewargs__?$AA@ DB '__getnewargs__', 00H ; `string'
CONST	ENDS
;	COMDAT ??_C@_0L@NMBFFBAC@_slotnames?$AA@
CONST	SEGMENT
??_C@_0L@NMBFFBAC@_slotnames?$AA@ DB '_slotnames', 00H	; `string'
CONST	ENDS
;	COMDAT ??_C@_0O@NLMJLHMN@__slotnames__?$AA@
CONST	SEGMENT
??_C@_0O@NLMJLHMN@__slotnames__?$AA@ DB '__slotnames__', 00H ; `string'
CONST	ENDS
;	COMDAT ??_C@_07ODDBKIAB@copyreg?$AA@
CONST	SEGMENT
??_C@_07ODDBKIAB@copyreg?$AA@ DB 'copyreg', 00H		; `string'
CONST	ENDS
;	COMDAT ??_C@_0BD@BFBMEIMB@the?5object?8s?5class?$AA@
CONST	SEGMENT
??_C@_0BD@BFBMEIMB@the?5object?8s?5class?$AA@ DB 'the object''s class', 00H ; `string'
CONST	ENDS
;	COMDAT ??_C@_06GOHDHELE@sorted?$AA@
CONST	SEGMENT
??_C@_06GOHDHELE@sorted?$AA@ DB 'sorted', 00H		; `string'
CONST	ENDS
;	COMDAT ??_C@_02KEGNLNML@?0?5?$AA@
CONST	SEGMENT
??_C@_02KEGNLNML@?0?5?$AA@ DB ', ', 00H			; `string'
CONST	ENDS
;	COMDAT ??_C@_04GPMDFGEJ@type?$AA@
CONST	SEGMENT
??_C@_04GPMDFGEJ@type?$AA@ DB 'type', 00H		; `string'
CONST	ENDS
;	COMDAT ??_C@_0EB@IFDKCHCE@__sizeof__?$CI?$CJ?5?9?$DO?5int?6return?5memor@
CONST	SEGMENT
??_C@_0EB@IFDKCHCE@__sizeof__?$CI?$CJ?5?9?$DO?5int?6return?5memor@ DB '__'
	DB	'sizeof__() -> int', 0aH, 'return memory consumption of the ty'
	DB	'pe object', 00H				; `string'
CONST	ENDS
;	COMDAT ??_C@_0L@HOGGIPGN@__sizeof__?$AA@
CONST	SEGMENT
??_C@_0L@HOGGIPGN@__sizeof__?$AA@ DB '__sizeof__', 00H	; `string'
CONST	ENDS
;	COMDAT ??_C@_0DP@LCGOHIAJ@__dir__?$CI?$CJ?5?9?$DO?5list?6specialized?5__@
CONST	SEGMENT
??_C@_0DP@LCGOHIAJ@__dir__?$CI?$CJ?5?9?$DO?5list?6specialized?5__@ DB '__'
	DB	'dir__() -> list', 0aH, 'specialized __dir__ implementation fo'
	DB	'r types', 00H				; `string'
CONST	ENDS
;	COMDAT ??_C@_07FPPEEAND@__dir__?$AA@
CONST	SEGMENT
??_C@_07FPPEEAND@__dir__?$AA@ DB '__dir__', 00H		; `string'
CONST	ENDS
;	COMDAT ??_C@_0DL@PBOIKCPL@__subclasscheck__?$CI?$CJ?5?9?$DO?5bool?6chec@
CONST	SEGMENT
??_C@_0DL@PBOIKCPL@__subclasscheck__?$CI?$CJ?5?9?$DO?5bool?6chec@ DB '__s'
	DB	'ubclasscheck__() -> bool', 0aH, 'check if a class is a subcla'
	DB	'ss', 00H					; `string'
CONST	ENDS
;	COMDAT ??_C@_0BC@NFPPCOGG@__subclasscheck__?$AA@
CONST	SEGMENT
??_C@_0BC@NFPPCOGG@__subclasscheck__?$AA@ DB '__subclasscheck__', 00H ; `string'
CONST	ENDS
;	COMDAT ??_C@_0DO@KLHIJGEM@__instancecheck__?$CI?$CJ?5?9?$DO?5bool?6chec@
CONST	SEGMENT
??_C@_0DO@KLHIJGEM@__instancecheck__?$CI?$CJ?5?9?$DO?5bool?6chec@ DB '__i'
	DB	'nstancecheck__() -> bool', 0aH, 'check if an object is an ins'
	DB	'tance', 00H					; `string'
CONST	ENDS
;	COMDAT ??_C@_0BC@JKBHKBMG@__instancecheck__?$AA@
CONST	SEGMENT
??_C@_0BC@JKBHKBMG@__instancecheck__?$AA@ DB '__instancecheck__', 00H ; `string'
CONST	ENDS
;	COMDAT ??_C@_0EL@GOMGOOLM@__prepare__?$CI?$CJ?5?9?$DO?5dict?6used?5to?5cr@
CONST	SEGMENT
??_C@_0EL@GOMGOOLM@__prepare__?$CI?$CJ?5?9?$DO?5dict?6used?5to?5cr@ DB '_'
	DB	'_prepare__() -> dict', 0aH, 'used to create the namespace for'
	DB	' the class statement', 00H			; `string'
CONST	ENDS
;	COMDAT ??_C@_0M@GLHNIFEH@__prepare__?$AA@
CONST	SEGMENT
??_C@_0M@GLHNIFEH@__prepare__?$AA@ DB '__prepare__', 00H ; `string'
CONST	ENDS
;	COMDAT ??_C@_0DB@NPEDHMIB@__subclasses__?$CI?$CJ?5?9?$DO?5list?5of?5imme@
CONST	SEGMENT
??_C@_0DB@NPEDHMIB@__subclasses__?$CI?$CJ?5?9?$DO?5list?5of?5imme@ DB '__'
	DB	'subclasses__() -> list of immediate subclasses', 00H ; `string'
CONST	ENDS
;	COMDAT ??_C@_0P@IOKGGKON@__subclasses__?$AA@
CONST	SEGMENT
??_C@_0P@IOKGGKON@__subclasses__?$AA@ DB '__subclasses__', 00H ; `string'
CONST	ENDS
;	COMDAT ??_C@_0DG@EJDLFMM@mro?$CI?$CJ?5?9?$DO?5list?6return?5a?5type?8s?5me@
CONST	SEGMENT
??_C@_0DG@EJDLFMM@mro?$CI?$CJ?5?9?$DO?5list?6return?5a?5type?8s?5me@ DB 'm'
	DB	'ro() -> list', 0aH, 'return a type''s method resolution order'
	DB	00H						; `string'
CONST	ENDS
;	COMDAT ??_C@_09EBPBKION@__slots__?$AA@
CONST	SEGMENT
??_C@_09EBPBKION@__slots__?$AA@ DB '__slots__', 00H	; `string'
CONST	ENDS
;	COMDAT ??_C@_04BCIDKIGN@dict?$AA@
CONST	SEGMENT
??_C@_04BCIDKIGN@dict?$AA@ DB 'dict', 00H		; `string'
CONST	ENDS
;	COMDAT ??_C@_05JMNHICHM@bases?$AA@
CONST	SEGMENT
??_C@_05JMNHICHM@bases?$AA@ DB 'bases', 00H		; `string'
CONST	ENDS
;	COMDAT ??_C@_04MEMAJGDJ@name?$AA@
CONST	SEGMENT
??_C@_04MEMAJGDJ@name?$AA@ DB 'name', 00H		; `string'
CONST	ENDS
;	COMDAT ??_C@_0DD@DKNNDAFM@list?5of?5weak?5references?5to?5the?5o@
CONST	SEGMENT
??_C@_0DD@DKNNDAFM@list?5of?5weak?5references?5to?5the?5o@ DB 'list of we'
	DB	'ak references to the object (if defined)', 00H ; `string'
CONST	ENDS
;	COMDAT ??_C@_0M@OFKEODAB@__weakref__?$AA@
CONST	SEGMENT
??_C@_0M@OFKEODAB@__weakref__?$AA@ DB '__weakref__', 00H ; `string'
CONST	ENDS
;	COMDAT ??_C@_0CP@GPHMLMIJ@dictionary?5for?5instance?5variable@
CONST	SEGMENT
??_C@_0CP@GPHMLMIJ@dictionary?5for?5instance?5variable@ DB 'dictionary fo'
	DB	'r instance variables (if defined)', 00H	; `string'
CONST	ENDS
;	COMDAT ??_C@_03KCOHMEGL@mro?$AA@
CONST	SEGMENT
??_C@_03KCOHMEGL@mro?$AA@ DB 'mro', 00H			; `string'
CONST	ENDS
;	COMDAT ??_C@_0BE@EMDECJMP@__abstractmethods__?$AA@
CONST	SEGMENT
??_C@_0BE@EMDECJMP@__abstractmethods__?$AA@ DB '__abstractmethods__', 00H ; `string'
CONST	ENDS
;	COMDAT ??_C@_09LJKDIEEK@__bases__?$AA@
CONST	SEGMENT
??_C@_09LJKDIEEK@__bases__?$AA@ DB '__bases__', 00H	; `string'
CONST	ENDS
;	COMDAT ??_C@_0N@FMLGAKCE@__qualname__?$AA@
CONST	SEGMENT
??_C@_0N@FMLGAKCE@__qualname__?$AA@ DB '__qualname__', 00H ; `string'
CONST	ENDS
_DATA	SEGMENT
type_members DQ	FLAT:??_C@_0O@IAOKENCJ@__basicsize__?$AA@
	DD	013H
	ORG $+4
	DQ	0000000000000078H
	DD	01H
	ORG $+4
	ORG $+8
	DQ	FLAT:??_C@_0N@OJNCBPH@__itemsize__?$AA@
	DD	013H
	ORG $+4
	DQ	0000000000000080H
	DD	01H
	ORG $+4
	ORG $+8
	DQ	FLAT:??_C@_09GIOABLIA@__flags__?$AA@
	DD	02H
	ORG $+4
	DQ	0000000000000100H
	DD	01H
	ORG $+4
	ORG $+8
	DQ	FLAT:??_C@_0BC@PHCHJLGH@__weakrefoffset__?$AA@
	DD	02H
	ORG $+4
	DQ	0000000000000128H
	DD	01H
	ORG $+4
	ORG $+8
	DQ	FLAT:??_C@_08PNDLAJH@__base__?$AA@
	DD	06H
	ORG $+4
	DQ	0000000000000158H
	DD	01H
	ORG $+4
	ORG $+8
	DQ	FLAT:??_C@_0P@NBEFJBEP@__dictoffset__?$AA@
	DD	02H
	ORG $+4
	DQ	0000000000000178H
	DD	01H
	ORG $+4
	ORG $+8
	DQ	FLAT:??_C@_07MNLIDIMK@__mro__?$AA@
	DD	06H
	ORG $+4
	DQ	00000000000001b0H
	DD	01H
	ORG $+4
	ORG $+8
	DQ	0000000000000000H
	ORG $+32
type_getsets DQ	FLAT:??_C@_08BHKDPDAA@__name__?$AA@
	DQ	FLAT:type_name
	DQ	FLAT:type_set_name
	DQ	0000000000000000H
	ORG $+8
	DQ	FLAT:??_C@_0N@FMLGAKCE@__qualname__?$AA@
	DQ	FLAT:type_qualname
	DQ	FLAT:type_set_qualname
	DQ	0000000000000000H
	ORG $+8
	DQ	FLAT:??_C@_09LJKDIEEK@__bases__?$AA@
	DQ	FLAT:type_get_bases
	DQ	FLAT:type_set_bases
	DQ	0000000000000000H
	ORG $+8
	DQ	FLAT:??_C@_0L@LNCJCPDP@__module__?$AA@
	DQ	FLAT:type_module
	DQ	FLAT:type_set_module
	DQ	0000000000000000H
	ORG $+8
	DQ	FLAT:??_C@_0BE@EMDECJMP@__abstractmethods__?$AA@
	DQ	FLAT:type_abstractmethods
	DQ	FLAT:type_set_abstractmethods
	DQ	0000000000000000H
	ORG $+8
	DQ	FLAT:??_C@_08IBFKALI@__dict__?$AA@
	DQ	FLAT:type_dict
	DQ	0000000000000000H
	DQ	0000000000000000H
	ORG $+8
	DQ	FLAT:??_C@_07DIBBIFIJ@__doc__?$AA@
	DQ	FLAT:type_get_doc
	DQ	FLAT:type_set_doc
	DQ	0000000000000000H
	ORG $+8
	DQ	0000000000000000H
	ORG $+32
subtype_getsets_full DQ FLAT:??_C@_08IBFKALI@__dict__?$AA@
	DQ	FLAT:subtype_dict
	DQ	FLAT:subtype_setdict
	DQ	FLAT:??_C@_0CP@GPHMLMIJ@dictionary?5for?5instance?5variable@
	ORG $+8
	DQ	FLAT:??_C@_0M@OFKEODAB@__weakref__?$AA@
	DQ	FLAT:subtype_getweakref
	DQ	0000000000000000H
	DQ	FLAT:??_C@_0DD@DKNNDAFM@list?5of?5weak?5references?5to?5the?5o@
	ORG $+8
	DQ	0000000000000000H
	ORG $+32
	ORG $+8
subtype_getsets_dict_only DQ FLAT:??_C@_08IBFKALI@__dict__?$AA@
	DQ	FLAT:subtype_dict
	DQ	FLAT:subtype_setdict
	DQ	FLAT:??_C@_0CP@GPHMLMIJ@dictionary?5for?5instance?5variable@
	ORG $+8
	DQ	0000000000000000H
	ORG $+32
subtype_getsets_weakref_only DQ FLAT:??_C@_0M@OFKEODAB@__weakref__?$AA@
	DQ	FLAT:subtype_getweakref
	DQ	0000000000000000H
	DQ	FLAT:??_C@_0DD@DKNNDAFM@list?5of?5weak?5references?5to?5the?5o@
	ORG $+8
	DQ	0000000000000000H
	ORG $+32
?kwlist@?1??type_new@@9@9 DQ FLAT:??_C@_04MEMAJGDJ@name?$AA@ ; `type_new'::`2'::kwlist
	DQ	FLAT:??_C@_05JMNHICHM@bases?$AA@
	DQ	FLAT:??_C@_04BCIDKIGN@dict?$AA@
	DQ	0000000000000000H
slotoffsets DW	0ffffH
	DW	00H
	DW	00H
	DW	0300H
	DW	02f0H
	DW	02f8H
	DW	0220H
	DW	01e0H
	DW	0248H
	DW	0228H
	DW	0200H
	DW	0270H
	DW	02c8H
	DW	02e8H
	DW	0278H
	DW	02b0H
	DW	02d8H
	DW	02a0H
	DW	0288H
	DW	02c0H
	DW	0298H
	DW	0290H
	DW	02a8H
	DW	0280H
	DW	02e0H
	DW	02b8H
	DW	0260H
	DW	0230H
	DW	0238H
	DW	01f0H
	DW	0210H
	DW	0258H
	DW	0218H
	DW	0208H
	DW	01f8H
	DW	0240H
	DW	01e8H
	DW	02d0H
	DW	0250H
	DW	0330H
	DW	0310H
	DW	0340H
	DW	0348H
	DW	0350H
	DW	0320H
	DW	0308H
	DW	0318H
	DW	0188H
	DW	0158H
	DW	01a8H
	DW	0d8H
	DW	0118H
	DW	088H
	DW	01d0H
	DW	0168H
	DW	0170H
	DW	0108H
	DW	098H
	DW	0e8H
	DW	0d0H
	DW	0180H
	DW	01a0H
	DW	0130H
	DW	0138H
	DW	0140H
	DW	0190H
	DW	0b0H
	DW	0120H
	DW	0a0H
	DW	0f0H
	DW	0e0H
	DW	0110H
	DW	0148H
	DW	0150H
	DW	0198H
	ORG $+10
type_methods DQ	FLAT:??_C@_03KCOHMEGL@mro?$AA@
	DQ	FLAT:mro_external
	DD	04H
	ORG $+4
	DQ	FLAT:??_C@_0DG@EJDLFMM@mro?$CI?$CJ?5?9?$DO?5list?6return?5a?5type?8s?5me@
	DQ	FLAT:??_C@_0P@IOKGGKON@__subclasses__?$AA@
	DQ	FLAT:type_subclasses
	DD	04H
	ORG $+4
	DQ	FLAT:??_C@_0DB@NPEDHMIB@__subclasses__?$CI?$CJ?5?9?$DO?5list?5of?5imme@
	DQ	FLAT:??_C@_0M@GLHNIFEH@__prepare__?$AA@
	DQ	FLAT:type_prepare
	DD	013H
	ORG $+4
	DQ	FLAT:??_C@_0EL@GOMGOOLM@__prepare__?$CI?$CJ?5?9?$DO?5dict?6used?5to?5cr@
	DQ	FLAT:??_C@_0BC@JKBHKBMG@__instancecheck__?$AA@
	DQ	FLAT:type___instancecheck__
	DD	08H
	ORG $+4
	DQ	FLAT:??_C@_0DO@KLHIJGEM@__instancecheck__?$CI?$CJ?5?9?$DO?5bool?6chec@
	DQ	FLAT:??_C@_0BC@NFPPCOGG@__subclasscheck__?$AA@
	DQ	FLAT:type___subclasscheck__
	DD	08H
	ORG $+4
	DQ	FLAT:??_C@_0DL@PBOIKCPL@__subclasscheck__?$CI?$CJ?5?9?$DO?5bool?6chec@
	DQ	FLAT:??_C@_07FPPEEAND@__dir__?$AA@
	DQ	FLAT:type_dir
	DD	04H
	ORG $+4
	DQ	FLAT:??_C@_0DP@LCGOHIAJ@__dir__?$CI?$CJ?5?9?$DO?5list?6specialized?5__@
	DQ	FLAT:??_C@_0L@HOGGIPGN@__sizeof__?$AA@
	DQ	FLAT:type_sizeof
	DD	04H
	ORG $+4
	DQ	FLAT:??_C@_0EB@IFDKCHCE@__sizeof__?$CI?$CJ?5?9?$DO?5int?6return?5memor@
	DQ	0000000000000000H
	ORG $+24
type_doc DB	'type(object) -> the object''s type', 0aH, 'type(name, ba'
	DB	'ses, dict) -> a new type', 00H
	ORG $+8
PyType_Type DQ	dead1234beef5678H
	DQ	dead1234beef5678H
	DQ	0000000000000000H
	ORG $+8
	DQ	0000000000000001H
	DQ	0000000000000000H
	DQ	0000000000000000H
	DQ	0000000000000000H
	DQ	dead1234beef5678H
	DQ	dead1234beef5678H
	DQ	0000000000000001H
	DQ	FLAT:PyType_Type
	DQ	0000000000000000H
	ORG $+8
	DQ	FLAT:??_C@_04GPMDFGEJ@type?$AA@
	DQ	0000000000000390H
	DQ	0000000000000028H
	DQ	FLAT:type_dealloc
	DQ	0000000000000000H
	DQ	0000000000000000H
	DQ	0000000000000000H
	DQ	0000000000000000H
	DQ	FLAT:type_repr
	DQ	0000000000000000H
	DQ	0000000000000000H
	DQ	0000000000000000H
	DQ	0000000000000000H
	DQ	FLAT:type_call
	DQ	0000000000000000H
	DQ	FLAT:type_getattro
	DQ	FLAT:type_setattro
	DQ	0000000000000000H
	DD	080044400H
	ORG $+4
	DQ	FLAT:type_doc
	DQ	FLAT:type_traverse
	DQ	FLAT:type_clear
	DQ	0000000000000000H
	DQ	00000000000001c8H
	DQ	0000000000000000H
	DQ	0000000000000000H
	DQ	FLAT:type_methods
	DQ	FLAT:type_members
	DQ	FLAT:type_getsets
	DQ	0000000000000000H
	DQ	0000000000000000H
	DQ	0000000000000000H
	DQ	0000000000000000H
	DQ	0000000000000160H
	DQ	FLAT:type_init
	DQ	0000000000000000H
	DQ	FLAT:type_new
	DQ	FLAT:PyObject_GC_Del
	DQ	FLAT:type_is_gc
	ORG $+56
object_getsets DQ FLAT:??_C@_09LFGACEKG@__class__?$AA@
	DQ	FLAT:object_get_class
	DQ	FLAT:object_set_class
	DQ	FLAT:??_C@_0BD@BFBMEIMB@the?5object?8s?5class?$AA@
	ORG $+8
	DQ	0000000000000000H
	ORG $+32
object_subclasshook_doc DB 'Abstract classes can override this to customi'
	DB	'ze issubclass().', 0aH, 0aH, 'This is invoked early on by abc'
	DB	'.ABCMeta.__subclasscheck__().', 0aH, 'It should return True, '
	DB	'False or NotImplemented.  If it returns', 0aH, 'NotImplemente'
	DB	'd, the normal algorithm is used.  Otherwise, it', 0aH, 'overr'
	DB	'ides the normal algorithm (and the outcome is cached).', 0aH, 00H
	ORG $+11
object_methods DQ FLAT:??_C@_0O@CFEDDKPG@__reduce_ex__?$AA@
	DQ	FLAT:object_reduce_ex
	DD	01H
	ORG $+4
	DQ	FLAT:??_C@_0BC@KKCCEOPP@helper?5for?5pickle?$AA@
	DQ	FLAT:??_C@_0L@NNMACJIG@__reduce__?$AA@
	DQ	FLAT:object_reduce
	DD	01H
	ORG $+4
	DQ	FLAT:??_C@_0BC@KKCCEOPP@helper?5for?5pickle?$AA@
	DQ	FLAT:??_C@_0BB@NHNPNHAH@__subclasshook__?$AA@
	DQ	FLAT:object_subclasshook
	DD	011H
	ORG $+4
	DQ	FLAT:object_subclasshook_doc
	DQ	FLAT:??_C@_0L@MEMCGMKL@__format__?$AA@
	DQ	FLAT:object_format
	DD	01H
	ORG $+4
	DQ	FLAT:??_C@_0BJ@OLCCKPLB@default?5object?5formatter?$AA@
	DQ	FLAT:??_C@_0L@HOGGIPGN@__sizeof__?$AA@
	DQ	FLAT:object_sizeof
	DD	04H
	ORG $+4
	DQ	FLAT:??_C@_0DH@GGNPGAHM@__sizeof__?$CI?$CJ?5?9?$DO?5int?6size?5of?5obje@
	DQ	FLAT:??_C@_07FPPEEAND@__dir__?$AA@
	DQ	FLAT:object_dir
	DD	04H
	ORG $+4
	DQ	FLAT:??_C@_0CP@DOIFJKJG@__dir__?$CI?$CJ?5?9?$DO?5list?6default?5dir?$CI?$CJ?5@
	DQ	0000000000000000H
	ORG $+24
PyBaseObject_Type DQ dead1234beef5678H
	DQ	dead1234beef5678H
	DQ	0000000000000000H
	ORG $+8
	DQ	0000000000000001H
	DQ	0000000000000000H
	DQ	0000000000000000H
	DQ	0000000000000000H
	DQ	dead1234beef5678H
	DQ	dead1234beef5678H
	DQ	0000000000000001H
	DQ	FLAT:PyType_Type
	DQ	0000000000000000H
	ORG $+8
	DQ	FLAT:??_C@_06IEOJBDIK@object?$AA@
	DQ	0000000000000060H
	DQ	0000000000000000H
	DQ	FLAT:object_dealloc
	DQ	0000000000000000H
	DQ	0000000000000000H
	DQ	0000000000000000H
	DQ	0000000000000000H
	DQ	FLAT:object_repr
	DQ	0000000000000000H
	DQ	0000000000000000H
	DQ	0000000000000000H
	DQ	FLAT:_Py_HashPointer
	DQ	0000000000000000H
	DQ	FLAT:object_str
	DQ	FLAT:PyObject_GenericGetAttr
	DQ	FLAT:PyObject_GenericSetAttr
	DQ	0000000000000000H
	DD	040400H
	ORG $+4
	DQ	FLAT:??_C@_0BD@EEFIMND@The?5most?5base?5type?$AA@
	DQ	0000000000000000H
	DQ	0000000000000000H
	DQ	FLAT:object_richcompare
	DQ	0000000000000000H
	DQ	0000000000000000H
	DQ	0000000000000000H
	DQ	FLAT:object_methods
	DQ	0000000000000000H
	DQ	FLAT:object_getsets
	DQ	0000000000000000H
	DQ	0000000000000000H
	DQ	0000000000000000H
	DQ	0000000000000000H
	DQ	0000000000000000H
	DQ	FLAT:object_init
	DQ	FLAT:PyType_GenericAlloc
	DQ	FLAT:object_new
	DQ	FLAT:_PyObject_DebugFree
	ORG $+64
tp_new_methoddef DQ FLAT:??_C@_07MEBHOIG@__new__?$AA@
	DQ	FLAT:tp_new_wrapper
	DD	03H
	ORG $+4
	DQ	FLAT:??_C@_0DO@MFNFNJKD@T?4__new__?$CIS?0?5?4?4?4?$CJ?5?9?$DO?5a?5new?5objec@
	DQ	0000000000000000H
	ORG $+24
name_op	DQ	0000000000000000H
	DQ	FLAT:??_C@_06KIIKIGGM@__lt__?$AA@
	DQ	0000000000000000H
	DQ	0000000000000000H
	DQ	FLAT:??_C@_06EACPLGJG@__le__?$AA@
	DQ	0000000000000000H
	DQ	0000000000000000H
	DQ	FLAT:??_C@_06JCEEBECP@__eq__?$AA@
	DQ	0000000000000000H
	DQ	0000000000000000H
	DQ	FLAT:??_C@_06DKOPOFPG@__ne__?$AA@
	DQ	0000000000000000H
	DQ	0000000000000000H
	DQ	FLAT:??_C@_06NPFKLHHN@__gt__?$AA@
	DQ	0000000000000000H
	DQ	0000000000000000H
	DQ	FLAT:??_C@_06DHPPIHIH@__ge__?$AA@
	DQ	0000000000000000H
slotdefs DQ	FLAT:??_C@_0BB@FJMKAPEO@__getattribute__?$AA@
	DD	098H
	ORG $+4
	DQ	0000000000000000H
	DQ	0000000000000000H
	DQ	FLAT:??_C@_00CNPNBAHC@?$AA@
	ORG $+16
	DQ	FLAT:??_C@_0M@GIDJPAP@__getattr__?$AA@
	DD	098H
	ORG $+4
	DQ	0000000000000000H
	DQ	0000000000000000H
	DQ	FLAT:??_C@_00CNPNBAHC@?$AA@
	ORG $+16
	DQ	FLAT:??_C@_0M@CIMGLOJN@__setattr__?$AA@
	DD	0a0H
	ORG $+4
	DQ	0000000000000000H
	DQ	0000000000000000H
	DQ	FLAT:??_C@_00CNPNBAHC@?$AA@
	ORG $+16
	DQ	FLAT:??_C@_0M@ECOKAOJC@__delattr__?$AA@
	DD	0a0H
	ORG $+4
	DQ	0000000000000000H
	DQ	0000000000000000H
	DQ	FLAT:??_C@_00CNPNBAHC@?$AA@
	ORG $+16
	DQ	FLAT:??_C@_08HJPCHLLJ@__repr__?$AA@
	DD	0b0H
	ORG $+4
	DQ	FLAT:slot_tp_repr
	DQ	FLAT:wrap_unaryfunc
	DQ	FLAT:??_C@_0BK@EOOFHHJM@x?4__repr__?$CI?$CJ?5?$DM?$DN?$DN?$DO?5repr?$CIx?$CJ?$AA@
	ORG $+16
	DQ	FLAT:??_C@_08FJMJDHAE@__hash__?$AA@
	DD	0d0H
	ORG $+4
	DQ	FLAT:slot_tp_hash
	DQ	FLAT:wrap_hashfunc
	DQ	FLAT:??_C@_0BK@BGPGEPCP@x?4__hash__?$CI?$CJ?5?$DM?$DN?$DN?$DO?5hash?$CIx?$CJ?$AA@
	ORG $+16
	DQ	FLAT:??_C@_08DGBMPEPK@__call__?$AA@
	DD	0d8H
	ORG $+4
	DQ	FLAT:slot_tp_call
	DQ	FLAT:wrap_call
	DQ	FLAT:??_C@_0BM@OCNACKJL@x?4__call__?$CI?4?4?4?$CJ?5?$DM?$DN?$DN?$DO?5x?$CI?4?4?4?$CJ?$AA@
	DD	01H
	ORG $+4
	ORG $+8
	DQ	FLAT:??_C@_07NJFHCBMD@__str__?$AA@
	DD	0e0H
	ORG $+4
	DQ	FLAT:slot_tp_str
	DQ	FLAT:wrap_unaryfunc
	DQ	FLAT:??_C@_0BI@CPPGOPCF@x?4__str__?$CI?$CJ?5?$DM?$DN?$DN?$DO?5str?$CIx?$CJ?$AA@
	ORG $+16
	DQ	FLAT:??_C@_0BB@FJMKAPEO@__getattribute__?$AA@
	DD	0e8H
	ORG $+4
	DQ	FLAT:slot_tp_getattr_hook
	DQ	FLAT:wrap_binaryfunc
	DQ	FLAT:??_C@_0CH@MJEJMFHD@x?4__getattribute__?$CI?8name?8?$CJ?5?$DM?$DN?$DN?$DO?5@
	ORG $+16
	DQ	FLAT:??_C@_0M@GIDJPAP@__getattr__?$AA@
	DD	0e8H
	ORG $+4
	DQ	FLAT:slot_tp_getattr_hook
	DQ	0000000000000000H
	DQ	FLAT:??_C@_00CNPNBAHC@?$AA@
	ORG $+16
	DQ	FLAT:??_C@_0M@CIMGLOJN@__setattr__?$AA@
	DD	0f0H
	ORG $+4
	DQ	FLAT:slot_tp_setattro
	DQ	FLAT:wrap_setattr
	DQ	FLAT:??_C@_0DB@GBCEKDDL@x?4__setattr__?$CI?8name?8?0?5value?$CJ?5?$DM?$DN?$DN@
	ORG $+16
	DQ	FLAT:??_C@_0M@ECOKAOJC@__delattr__?$AA@
	DD	0f0H
	ORG $+4
	DQ	FLAT:slot_tp_setattro
	DQ	FLAT:wrap_delattr
	DQ	FLAT:??_C@_0CG@LPHBAOH@x?4__delattr__?$CI?8name?8?$CJ?5?$DM?$DN?$DN?$DO?5del?5x@
	ORG $+16
	DQ	FLAT:??_C@_06KIIKIGGM@__lt__?$AA@
	DD	0120H
	ORG $+4
	DQ	FLAT:slot_tp_richcompare
	DQ	FLAT:richcmp_lt
	DQ	FLAT:??_C@_0BF@PGLNDMDE@x?4__lt__?$CIy?$CJ?5?$DM?$DN?$DN?$DO?5x?$DMy?$AA@
	ORG $+16
	DQ	FLAT:??_C@_06EACPLGJG@__le__?$AA@
	DD	0120H
	ORG $+4
	DQ	FLAT:slot_tp_richcompare
	DQ	FLAT:richcmp_le
	DQ	FLAT:??_C@_0BG@DINLPMBE@x?4__le__?$CIy?$CJ?5?$DM?$DN?$DN?$DO?5x?$DM?$DNy?$AA@
	ORG $+16
	DQ	FLAT:??_C@_06JCEEBECP@__eq__?$AA@
	DD	0120H
	ORG $+4
	DQ	FLAT:slot_tp_richcompare
	DQ	FLAT:richcmp_eq
	DQ	FLAT:??_C@_0BG@BMDNDNCO@x?4__eq__?$CIy?$CJ?5?$DM?$DN?$DN?$DO?5x?$DN?$DNy?$AA@
	ORG $+16
	DQ	FLAT:??_C@_06DKOPOFPG@__ne__?$AA@
	DD	0120H
	ORG $+4
	DQ	FLAT:slot_tp_richcompare
	DQ	FLAT:richcmp_ne
	DQ	FLAT:??_C@_0BG@JPHMBINF@x?4__ne__?$CIy?$CJ?5?$DM?$DN?$DN?$DO?5x?$CB?$DNy?$AA@
	ORG $+16
	DQ	FLAT:??_C@_06NPFKLHHN@__gt__?$AA@
	DD	0120H
	ORG $+4
	DQ	FLAT:slot_tp_richcompare
	DQ	FLAT:richcmp_gt
	DQ	FLAT:??_C@_0BF@EALDPMEA@x?4__gt__?$CIy?$CJ?5?$DM?$DN?$DN?$DO?5x?$DOy?$AA@
	ORG $+16
	DQ	FLAT:??_C@_06DHPPIHIH@__ge__?$AA@
	DD	0120H
	ORG $+4
	DQ	FLAT:slot_tp_richcompare
	DQ	FLAT:richcmp_ge
	DQ	FLAT:??_C@_0BG@GPAFEHPB@x?4__ge__?$CIy?$CJ?5?$DM?$DN?$DN?$DO?5x?$DO?$DNy?$AA@
	ORG $+16
	DQ	FLAT:??_C@_08HMKBHKEB@__iter__?$AA@
	DD	0130H
	ORG $+4
	DQ	FLAT:slot_tp_iter
	DQ	FLAT:wrap_unaryfunc
	DQ	FLAT:??_C@_0BK@MLDIHFPK@x?4__iter__?$CI?$CJ?5?$DM?$DN?$DN?$DO?5iter?$CIx?$CJ?$AA@
	ORG $+16
	DQ	FLAT:??_C@_08MMJHJJBO@__next__?$AA@
	DD	0138H
	ORG $+4
	DQ	FLAT:slot_tp_iternext
	DQ	FLAT:wrap_next
	DQ	FLAT:??_C@_0BK@EKPAAGNF@x?4__next__?$CI?$CJ?5?$DM?$DN?$DN?$DO?5next?$CIx?$CJ?$AA@
	ORG $+16
	DQ	FLAT:??_C@_07DJPLIAKA@__get__?$AA@
	DD	0168H
	ORG $+4
	DQ	FLAT:slot_tp_descr_get
	DQ	FLAT:wrap_descr_get
	DQ	FLAT:??_C@_0CE@IDHMMHDD@descr?4__get__?$CIobj?$FL?0?5type?$FN?$CJ?5?9?$DO?5va@
	ORG $+16
	DQ	FLAT:??_C@_07KBLMMACN@__set__?$AA@
	DD	0170H
	ORG $+4
	DQ	FLAT:slot_tp_descr_set
	DQ	FLAT:wrap_descr_set
	DQ	FLAT:??_C@_0BK@HNGNCDND@descr?4__set__?$CIobj?0?5value?$CJ?$AA@
	ORG $+16
	DQ	FLAT:??_C@_0L@OAODBFBD@__delete__?$AA@
	DD	0170H
	ORG $+4
	DQ	FLAT:slot_tp_descr_set
	DQ	FLAT:wrap_descr_delete
	DQ	FLAT:??_C@_0BG@GKILFGMF@descr?4__delete__?$CIobj?$CJ?$AA@
	ORG $+16
	DQ	FLAT:??_C@_08DOHHOJGB@__init__?$AA@
	DD	0180H
	ORG $+4
	DQ	FLAT:slot_tp_init
	DQ	FLAT:wrap_init
	DQ	FLAT:??_C@_0DP@PEBGGFGF@x?4__init__?$CI?4?4?4?$CJ?5initializes?5x?$DL?5s@
	DD	01H
	ORG $+4
	ORG $+8
	DQ	FLAT:??_C@_07MEBHOIG@__new__?$AA@
	DD	0190H
	ORG $+4
	DQ	FLAT:slot_tp_new
	DQ	0000000000000000H
	DQ	FLAT:??_C@_00CNPNBAHC@?$AA@
	ORG $+16
	DQ	FLAT:??_C@_07CKMCINHO@__del__?$AA@
	DD	01d0H
	ORG $+4
	DQ	FLAT:slot_tp_del
	DQ	0000000000000000H
	DQ	FLAT:??_C@_00CNPNBAHC@?$AA@
	ORG $+16
	DQ	FLAT:??_C@_07ICNLBNJC@__add__?$AA@
	DD	01e0H
	ORG $+4
	DQ	FLAT:slot_nb_add
	DQ	FLAT:wrap_binaryfunc_l
	DQ	FLAT:??_C@_0BG@NNPOJNOL@x?4__add__?$CIy?$CJ?5?$DM?$DN?$DN?$DO?5x?$CLy?$AA@
	ORG $+16
	DQ	FLAT:??_C@_08CHBAAKO@__radd__?$AA@
	DD	01e0H
	ORG $+4
	DQ	FLAT:slot_nb_add
	DQ	FLAT:wrap_binaryfunc_r
	DQ	FLAT:??_C@_0BH@BHMEKCNP@x?4__radd__?$CIy?$CJ?5?$DM?$DN?$DN?$DO?5y?$CLx?$AA@
	ORG $+16
	DQ	FLAT:??_C@_07LECOFPOM@__sub__?$AA@
	DD	01e8H
	ORG $+4
	DQ	FLAT:slot_nb_subtract
	DQ	FLAT:wrap_binaryfunc_l
	DQ	FLAT:??_C@_0BG@DBGCONBI@x?4__sub__?$CIy?$CJ?5?$DM?$DN?$DN?$DO?5x?9y?$AA@
	ORG $+16
	DQ	FLAT:??_C@_08DEIEECNA@__rsub__?$AA@
	DD	01e8H
	ORG $+4
	DQ	FLAT:slot_nb_subtract
	DQ	FLAT:wrap_binaryfunc_r
	DQ	FLAT:??_C@_0BH@PLFINCCM@x?4__rsub__?$CIy?$CJ?5?$DM?$DN?$DN?$DO?5y?9x?$AA@
	ORG $+16
	DQ	FLAT:??_C@_07GNCNELDE@__mul__?$AA@
	DD	01f0H
	ORG $+4
	DQ	FLAT:slot_nb_multiply
	DQ	FLAT:wrap_binaryfunc_l
	DQ	FLAT:??_C@_0BG@CDCBEDKH@x?4__mul__?$CIy?$CJ?5?$DM?$DN?$DN?$DO?5x?$CKy?$AA@
	ORG $+16
	DQ	FLAT:??_C@_08ONIHFGAI@__rmul__?$AA@
	DD	01f0H
	ORG $+4
	DQ	FLAT:slot_nb_multiply
	DQ	FLAT:wrap_binaryfunc_r
	DQ	FLAT:??_C@_0BH@OJBLHMJD@x?4__rmul__?$CIy?$CJ?5?$DM?$DN?$DN?$DO?5y?$CKx?$AA@
	ORG $+16
	DQ	FLAT:??_C@_07ICMJOMPI@__mod__?$AA@
	DD	01f8H
	ORG $+4
	DQ	FLAT:slot_nb_remainder
	DQ	FLAT:wrap_binaryfunc_l
	DQ	FLAT:??_C@_0BG@HOBDNNPB@x?4__mod__?$CIy?$CJ?5?$DM?$DN?$DN?$DO?5x?$CFy?$AA@
	ORG $+16
	DQ	FLAT:??_C@_08CGDPBME@__rmod__?$AA@
	DD	01f8H
	ORG $+4
	DQ	FLAT:slot_nb_remainder
	DQ	FLAT:wrap_binaryfunc_r
	DQ	FLAT:??_C@_0BH@LECJOCMF@x?4__rmod__?$CIy?$CJ?5?$DM?$DN?$DN?$DO?5y?$CFx?$AA@
	ORG $+16
	DQ	FLAT:??_C@_0L@DHDNIAEH@__divmod__?$AA@
	DD	0200H
	ORG $+4
	DQ	FLAT:slot_nb_divmod
	DQ	FLAT:wrap_binaryfunc_l
	DQ	FLAT:??_C@_0CC@ICKLDEBI@x?4__divmod__?$CIy?$CJ?5?$DM?$DN?$DN?$DO?5divmod?$CIx?0?5y@
	ORG $+16
	DQ	FLAT:??_C@_0M@NDCDLKNJ@__rdivmod__?$AA@
	DD	0200H
	ORG $+4
	DQ	FLAT:slot_nb_divmod
	DQ	FLAT:wrap_binaryfunc_r
	DQ	FLAT:??_C@_0CD@IFNHNEOL@x?4__rdivmod__?$CIy?$CJ?5?$DM?$DN?$DN?$DO?5divmod?$CIy?0?5@
	ORG $+16
	DQ	FLAT:??_C@_07HPCNAFMM@__pow__?$AA@
	DD	0208H
	ORG $+4
	DQ	FLAT:slot_nb_power
	DQ	FLAT:wrap_ternaryfunc
	DQ	FLAT:??_C@_0CG@GMODBFLE@x?4__pow__?$CIy?$FL?0?5z?$FN?$CJ?5?$DM?$DN?$DN?$DO?5pow?$CIx?0?5y?$FL@
	ORG $+16
	DQ	FLAT:??_C@_08PPIHBIPA@__rpow__?$AA@
	DD	0208H
	ORG $+4
	DQ	FLAT:slot_nb_power
	DQ	FLAT:wrap_ternaryfunc_r
	DQ	FLAT:??_C@_0CH@EKLFEJDK@y?4__rpow__?$CIx?$FL?0?5z?$FN?$CJ?5?$DM?$DN?$DN?$DO?5pow?$CIx?0?5y@
	ORG $+16
	DQ	FLAT:??_C@_07FMFICJBJ@__neg__?$AA@
	DD	0210H
	ORG $+4
	DQ	FLAT:slot_nb_negative
	DQ	FLAT:wrap_unaryfunc
	DQ	FLAT:??_C@_0BE@NIPFJBMO@x?4__neg__?$CI?$CJ?5?$DM?$DN?$DN?$DO?5?9x?$AA@
	ORG $+16
	DQ	FLAT:??_C@_07PAEPJCJL@__pos__?$AA@
	DD	0218H
	ORG $+4
	DQ	FLAT:slot_nb_positive
	DQ	FLAT:wrap_unaryfunc
	DQ	FLAT:??_C@_0BE@CMMOLCI@x?4__pos__?$CI?$CJ?5?$DM?$DN?$DN?$DO?5?$CLx?$AA@
	ORG $+16
	DQ	FLAT:??_C@_07MAFFIHBE@__abs__?$AA@
	DD	0220H
	ORG $+4
	DQ	FLAT:slot_nb_absolute
	DQ	FLAT:wrap_unaryfunc
	DQ	FLAT:??_C@_0BI@HMJMPBKF@x?4__abs__?$CI?$CJ?5?$DM?$DN?$DN?$DO?5abs?$CIx?$CJ?$AA@
	ORG $+16
	DQ	FLAT:??_C@_08ONMBOEOO@__bool__?$AA@
	DD	0228H
	ORG $+4
	DQ	FLAT:slot_nb_bool
	DQ	FLAT:wrap_inquirypred
	DQ	FLAT:??_C@_0BJ@NDLGPPDN@x?4__bool__?$CI?$CJ?5?$DM?$DN?$DN?$DO?5x?5?$CB?$DN?50?$AA@
	ORG $+16
	DQ	FLAT:??_C@_0L@OIINOIMI@__invert__?$AA@
	DD	0230H
	ORG $+4
	DQ	FLAT:slot_nb_invert
	DQ	FLAT:wrap_unaryfunc
	DQ	FLAT:??_C@_0BH@MNOEIHBG@x?4__invert__?$CI?$CJ?5?$DM?$DN?$DN?$DO?5?$HOx?$AA@
	ORG $+16
	DQ	FLAT:??_C@_0L@JAOHJPNH@__lshift__?$AA@
	DD	0238H
	ORG $+4
	DQ	FLAT:slot_nb_lshift
	DQ	FLAT:wrap_binaryfunc_l
	DQ	FLAT:??_C@_0BK@GGNIMHNB@x?4__lshift__?$CIy?$CJ?5?$DM?$DN?$DN?$DO?5x?$DM?$DMy?$AA@
	ORG $+16
	DQ	FLAT:??_C@_0M@HEPJKFEJ@__rlshift__?$AA@
	DD	0238H
	ORG $+4
	DQ	FLAT:slot_nb_lshift
	DQ	FLAT:wrap_binaryfunc_r
	DQ	FLAT:??_C@_0BL@ELDDDEJH@x?4__rlshift__?$CIy?$CJ?5?$DM?$DN?$DN?$DO?5y?$DM?$DMx?$AA@
	ORG $+16
	DQ	FLAT:??_C@_0L@PEOFAGDE@__rshift__?$AA@
	DD	0240H
	ORG $+4
	DQ	FLAT:slot_nb_rshift
	DQ	FLAT:wrap_binaryfunc_l
	DQ	FLAT:??_C@_0BK@KNBAONPF@x?4__rshift__?$CIy?$CJ?5?$DM?$DN?$DN?$DO?5x?$DO?$DOy?$AA@
	ORG $+16
	DQ	FLAT:??_C@_0M@BAPLDMKK@__rrshift__?$AA@
	DD	0240H
	ORG $+4
	DQ	FLAT:slot_nb_rshift
	DQ	FLAT:wrap_binaryfunc_r
	DQ	FLAT:??_C@_0BL@IAPLBOLD@x?4__rrshift__?$CIy?$CJ?5?$DM?$DN?$DN?$DO?5y?$DO?$DOx?$AA@
	ORG $+16
	DQ	FLAT:??_C@_07MIGLAFDD@__and__?$AA@
	DD	0248H
	ORG $+4
	DQ	FLAT:slot_nb_and
	DQ	FLAT:wrap_binaryfunc_l
	DQ	FLAT:??_C@_0BG@OHAKNBOB@x?4__and__?$CIy?$CJ?5?$DM?$DN?$DN?$DO?5x?$CGy?$AA@
	ORG $+16
	DQ	FLAT:??_C@_08EIMBBIAP@__rand__?$AA@
	DD	0248H
	ORG $+4
	DQ	FLAT:slot_nb_and
	DQ	FLAT:wrap_binaryfunc_r
	DQ	FLAT:??_C@_0BH@CNDAOONF@x?4__rand__?$CIy?$CJ?5?$DM?$DN?$DN?$DO?5y?$CGx?$AA@
	ORG $+16
	DQ	FLAT:??_C@_07KEKAHHJD@__xor__?$AA@
	DD	0250H
	ORG $+4
	DQ	FLAT:slot_nb_xor
	DQ	FLAT:wrap_binaryfunc_l
	DQ	FLAT:??_C@_0BG@FJFIDAMF@x?4__xor__?$CIy?$CJ?5?$DM?$DN?$DN?$DO?5x?$FOy?$AA@
	ORG $+16
	DQ	FLAT:??_C@_08CEAKGKKP@__rxor__?$AA@
	DD	0250H
	ORG $+4
	DQ	FLAT:slot_nb_xor
	DQ	FLAT:wrap_binaryfunc_r
	DQ	FLAT:??_C@_0BH@JDGCAPPB@x?4__rxor__?$CIy?$CJ?5?$DM?$DN?$DN?$DO?5y?$FOx?$AA@
	ORG $+16
	DQ	FLAT:??_C@_06MKEBKDGA@__or__?$AA@
	DD	0258H
	ORG $+4
	DQ	FLAT:slot_nb_or
	DQ	FLAT:wrap_binaryfunc_l
	DQ	FLAT:??_C@_0BF@IGCMIDJE@x?4__or__?$CIy?$CJ?5?$DM?$DN?$DN?$DO?5x?$HMy?$AA@
	ORG $+16
	DQ	FLAT:??_C@_07FDLFEPF@__ror__?$AA@
	DD	0258H
	ORG $+4
	DQ	FLAT:slot_nb_or
	DQ	FLAT:wrap_binaryfunc_r
	DQ	FLAT:??_C@_0BG@NBLDDBOA@x?4__ror__?$CIy?$CJ?5?$DM?$DN?$DN?$DO?5y?$HMx?$AA@
	ORG $+16
	DQ	FLAT:??_C@_07HECBNAMB@__int__?$AA@
	DD	0260H
	ORG $+4
	DQ	FLAT:slot_nb_int
	DQ	FLAT:wrap_unaryfunc
	DQ	FLAT:??_C@_0BI@BGKNGPBI@x?4__int__?$CI?$CJ?5?$DM?$DN?$DN?$DO?5int?$CIx?$CJ?$AA@
	ORG $+16
	DQ	FLAT:??_C@_09EAHNLHOJ@__float__?$AA@
	DD	0270H
	ORG $+4
	DQ	FLAT:slot_nb_float
	DQ	FLAT:wrap_unaryfunc
	DQ	FLAT:??_C@_0BM@HEPIFLMJ@x?4__float__?$CI?$CJ?5?$DM?$DN?$DN?$DO?5float?$CIx?$CJ?$AA@
	ORG $+16
	DQ	FLAT:??_C@_08GHKIMIJK@__iadd__?$AA@
	DD	0278H
	ORG $+4
	DQ	FLAT:slot_nb_inplace_add
	DQ	FLAT:wrap_binaryfunc
	DQ	FLAT:??_C@_0BI@HBADJPJO@x?4__iadd__?$CIy?$CJ?5?$DM?$DN?$DN?$DO?5x?$CL?$DNy?$AA@
	ORG $+16
	DQ	FLAT:??_C@_08FBFNIKOE@__isub__?$AA@
	DD	0280H
	ORG $+4
	DQ	FLAT:slot_nb_inplace_subtract
	DQ	FLAT:wrap_binaryfunc
	DQ	FLAT:??_C@_0BI@FFFLKAEI@x?4__isub__?$CIy?$CJ?5?$DM?$DN?$DN?$DO?5x?9?$DNy?$AA@
	ORG $+16
	DQ	FLAT:??_C@_08IIFOJODM@__imul__?$AA@
	DD	0288H
	ORG $+4
	DQ	FLAT:slot_nb_inplace_multiply
	DQ	FLAT:wrap_binaryfunc
	DQ	FLAT:??_C@_0BI@OJHENPL@x?4__imul__?$CIy?$CJ?5?$DM?$DN?$DN?$DO?5x?$CK?$DNy?$AA@
	ORG $+16
	DQ	FLAT:??_C@_08GHLKDJPA@__imod__?$AA@
	DD	0290H
	ORG $+4
	DQ	FLAT:slot_nb_inplace_remainder
	DQ	FLAT:wrap_binaryfunc
	DQ	FLAT:??_C@_0BI@IMMCILKE@x?4__imod__?$CIy?$CJ?5?$DM?$DN?$DN?$DO?5x?$CF?$DNy?$AA@
	ORG $+16
	DQ	FLAT:??_C@_08JKFONAME@__ipow__?$AA@
	DD	0298H
	ORG $+4
	DQ	FLAT:slot_nb_inplace_power
	DQ	FLAT:wrap_binaryfunc
	DQ	FLAT:??_C@_0BJ@IFHFJGNM@x?4__ipow__?$CIy?$CJ?5?$DM?$DN?$DN?$DO?5x?$CK?$CK?$DNy?$AA@
	ORG $+16
	DQ	FLAT:??_C@_0M@KLLHNPFG@__ilshift__?$AA@
	DD	02a0H
	ORG $+4
	DQ	FLAT:slot_nb_inplace_lshift
	DQ	FLAT:wrap_binaryfunc
	DQ	FLAT:??_C@_0BM@NIKIIBEJ@x?4__ilshift__?$CIy?$CJ?5?$DM?$DN?$DN?$DO?5x?$DM?$DM?$DNy?$AA@
	ORG $+16
	DQ	FLAT:??_C@_0M@MPLFEGLF@__irshift__?$AA@
	DD	02a8H
	ORG $+4
	DQ	FLAT:slot_nb_inplace_rshift
	DQ	FLAT:wrap_binaryfunc
	DQ	FLAT:??_C@_0BM@OEGAKNLC@x?4__irshift__?$CIy?$CJ?5?$DM?$DN?$DN?$DO?5x?$DO?$DO?$DNy?$AA@
	ORG $+16
	DQ	FLAT:??_C@_08CNBINADL@__iand__?$AA@
	DD	02b0H
	ORG $+4
	DQ	FLAT:slot_nb_inplace_and
	DQ	FLAT:wrap_binaryfunc
	DQ	FLAT:??_C@_0BI@JBOMICMM@x?4__iand__?$CIy?$CJ?5?$DM?$DN?$DN?$DO?5x?$CG?$DNy?$AA@
	ORG $+16
	DQ	FLAT:??_C@_08EBNDKCJL@__ixor__?$AA@
	DD	02b8H
	ORG $+4
	DQ	FLAT:slot_nb_inplace_xor
	DQ	FLAT:wrap_binaryfunc
	DQ	FLAT:??_C@_0BI@KNFBDEPM@x?4__ixor__?$CIy?$CJ?5?$DM?$DN?$DN?$DO?5x?$FO?$DNy?$AA@
	ORG $+16
	DQ	FLAT:??_C@_07GMCKKGKN@__ior__?$AA@
	DD	02c0H
	ORG $+4
	DQ	FLAT:slot_nb_inplace_or
	DQ	FLAT:wrap_binaryfunc
	DQ	FLAT:??_C@_0BH@KMKCFFEL@x?4__ior__?$CIy?$CJ?5?$DM?$DN?$DN?$DO?5x?$HM?$DNy?$AA@
	ORG $+16
	DQ	FLAT:??_C@_0N@BBCJEIH@__floordiv__?$AA@
	DD	02c8H
	ORG $+4
	DQ	FLAT:slot_nb_floor_divide
	DQ	FLAT:wrap_binaryfunc_l
	DQ	FLAT:??_C@_0BM@HLMIDEGC@x?4__floordiv__?$CIy?$CJ?5?$DM?$DN?$DN?$DO?5x?1?1y?$AA@
	ORG $+16
	DQ	FLAT:??_C@_0O@CINMAOLP@__rfloordiv__?$AA@
	DD	02c8H
	ORG $+4
	DQ	FLAT:slot_nb_floor_divide
	DQ	FLAT:wrap_binaryfunc_r
	DQ	FLAT:??_C@_0BN@MDOPCGIM@x?4__rfloordiv__?$CIy?$CJ?5?$DM?$DN?$DN?$DO?5y?1?1x?$AA@
	ORG $+16
	DQ	FLAT:??_C@_0M@COJKGICO@__truediv__?$AA@
	DD	02d0H
	ORG $+4
	DQ	FLAT:slot_nb_true_divide
	DQ	FLAT:wrap_binaryfunc_l
	DQ	FLAT:??_C@_0BK@KJLHHIEM@x?4__truediv__?$CIy?$CJ?5?$DM?$DN?$DN?$DO?5x?1y?$AA@
	ORG $+16
	DQ	FLAT:??_C@_0N@DJMJMIFH@__rtruediv__?$AA@
	DD	02d0H
	ORG $+4
	DQ	FLAT:slot_nb_true_divide
	DQ	FLAT:wrap_binaryfunc_r
	DQ	FLAT:??_C@_0BL@BIAMFNP@x?4__rtruediv__?$CIy?$CJ?5?$DM?$DN?$DN?$DO?5y?1x?$AA@
	ORG $+16
	DQ	FLAT:??_C@_0O@FFFGEHEN@__ifloordiv__?$AA@
	DD	02d8H
	ORG $+4
	DQ	FLAT:slot_nb_inplace_floor_divide
	DQ	FLAT:wrap_binaryfunc
	DQ	FLAT:??_C@_0BN@KGGFDMPH@x?4__ifloordiv__?$CIy?$CJ?5?$DM?$DN?$DN?$DO?5x?1?1y?$AA@
	ORG $+16
	DQ	FLAT:??_C@_0N@LEBOILNI@__itruediv__?$AA@
	DD	02e0H
	ORG $+4
	DQ	FLAT:slot_nb_inplace_true_divide
	DQ	FLAT:wrap_binaryfunc
	DQ	FLAT:??_C@_0BL@NHAJGPKM@x?4__itruediv__?$CIy?$CJ?5?$DM?$DN?$DN?$DO?5x?1y?$AA@
	ORG $+16
	DQ	FLAT:??_C@_09NLFDFNNH@__index__?$AA@
	DD	02e8H
	ORG $+4
	DQ	FLAT:slot_nb_index
	DQ	FLAT:wrap_unaryfunc
	DQ	FLAT:??_C@_0CL@DOCBMFDB@x?$FLy?3z?$FN?5?$DM?$DN?$DN?$DO?5x?$FLy?4__index__?$CI?$CJ?3z?4__@
	ORG $+16
	DQ	FLAT:??_C@_07GMJIMHJI@__len__?$AA@
	DD	02f0H
	ORG $+4
	DQ	FLAT:slot_sq_length
	DQ	FLAT:wrap_lenfunc
	DQ	FLAT:??_C@_0BI@LJFJONPL@x?4__len__?$CI?$CJ?5?$DM?$DN?$DN?$DO?5len?$CIx?$CJ?$AA@
	ORG $+16
	DQ	FLAT:??_C@_0M@GAJGCIJD@__getitem__?$AA@
	DD	02f8H
	ORG $+4
	DQ	FLAT:slot_mp_subscript
	DQ	FLAT:wrap_binaryfunc
	DQ	FLAT:??_C@_0BL@MOLOBEHD@x?4__getitem__?$CIy?$CJ?5?$DM?$DN?$DN?$DO?5x?$FLy?$FN?$AA@
	ORG $+16
	DQ	FLAT:??_C@_0M@EONDAJAB@__setitem__?$AA@
	DD	0300H
	ORG $+4
	DQ	FLAT:slot_mp_ass_subscript
	DQ	FLAT:wrap_objobjargproc
	DQ	FLAT:??_C@_0CA@GAOMDJJJ@x?4__setitem__?$CIi?0?5y?$CJ?5?$DM?$DN?$DN?$DO?5x?$FLi?$FN?$DNy?$AA@
	ORG $+16
	DQ	FLAT:??_C@_0M@CEPPLJAO@__delitem__?$AA@
	DD	0300H
	ORG $+4
	DQ	FLAT:slot_mp_ass_subscript
	DQ	FLAT:wrap_delitem
	DQ	FLAT:??_C@_0BP@HKMFPPHC@x?4__delitem__?$CIy?$CJ?5?$DM?$DN?$DN?$DO?5del?5x?$FLy?$FN?$AA@
	ORG $+16
	DQ	FLAT:??_C@_07GMJIMHJI@__len__?$AA@
	DD	0308H
	ORG $+4
	DQ	FLAT:slot_sq_length
	DQ	FLAT:wrap_lenfunc
	DQ	FLAT:??_C@_0BI@LJFJONPL@x?4__len__?$CI?$CJ?5?$DM?$DN?$DN?$DO?5len?$CIx?$CJ?$AA@
	ORG $+16
	DQ	FLAT:??_C@_07ICNLBNJC@__add__?$AA@
	DD	0310H
	ORG $+4
	DQ	0000000000000000H
	DQ	FLAT:wrap_binaryfunc
	DQ	FLAT:??_C@_0BG@NNPOJNOL@x?4__add__?$CIy?$CJ?5?$DM?$DN?$DN?$DO?5x?$CLy?$AA@
	ORG $+16
	DQ	FLAT:??_C@_07GNCNELDE@__mul__?$AA@
	DD	0318H
	ORG $+4
	DQ	0000000000000000H
	DQ	FLAT:wrap_indexargfunc
	DQ	FLAT:??_C@_0BG@FOCCMDEC@x?4__mul__?$CIn?$CJ?5?$DM?$DN?$DN?$DO?5x?$CKn?$AA@
	ORG $+16
	DQ	FLAT:??_C@_08ONIHFGAI@__rmul__?$AA@
	DD	0318H
	ORG $+4
	DQ	0000000000000000H
	DQ	FLAT:wrap_indexargfunc
	DQ	FLAT:??_C@_0BH@FMFFBHMG@x?4__rmul__?$CIn?$CJ?5?$DM?$DN?$DN?$DO?5n?$CKx?$AA@
	ORG $+16
	DQ	FLAT:??_C@_0M@GAJGCIJD@__getitem__?$AA@
	DD	0320H
	ORG $+4
	DQ	FLAT:slot_sq_item
	DQ	FLAT:wrap_sq_item
	DQ	FLAT:??_C@_0BL@MOLOBEHD@x?4__getitem__?$CIy?$CJ?5?$DM?$DN?$DN?$DO?5x?$FLy?$FN?$AA@
	ORG $+16
	DQ	FLAT:??_C@_0M@EONDAJAB@__setitem__?$AA@
	DD	0330H
	ORG $+4
	DQ	FLAT:slot_sq_ass_item
	DQ	FLAT:wrap_sq_setitem
	DQ	FLAT:??_C@_0CA@GAOMDJJJ@x?4__setitem__?$CIi?0?5y?$CJ?5?$DM?$DN?$DN?$DO?5x?$FLi?$FN?$DNy?$AA@
	ORG $+16
	DQ	FLAT:??_C@_0M@CEPPLJAO@__delitem__?$AA@
	DD	0330H
	ORG $+4
	DQ	FLAT:slot_sq_ass_item
	DQ	FLAT:wrap_sq_delitem
	DQ	FLAT:??_C@_0BP@HKMFPPHC@x?4__delitem__?$CIy?$CJ?5?$DM?$DN?$DN?$DO?5del?5x?$FLy?$FN?$AA@
	ORG $+16
	DQ	FLAT:??_C@_0N@MCIOADFH@__contains__?$AA@
	DD	0340H
	ORG $+4
	DQ	FLAT:slot_sq_contains
	DQ	FLAT:wrap_objobjproc
	DQ	FLAT:??_C@_0BO@NHHBFPJ@x?4__contains__?$CIy?$CJ?5?$DM?$DN?$DN?$DO?5y?5in?5x?$AA@
	ORG $+16
	DQ	FLAT:??_C@_08GHKIMIJK@__iadd__?$AA@
	DD	0348H
	ORG $+4
	DQ	0000000000000000H
	DQ	FLAT:wrap_binaryfunc
	DQ	FLAT:??_C@_0BI@HBADJPJO@x?4__iadd__?$CIy?$CJ?5?$DM?$DN?$DN?$DO?5x?$CL?$DNy?$AA@
	ORG $+16
	DQ	FLAT:??_C@_08IIFOJODM@__imul__?$AA@
	DD	0350H
	ORG $+4
	DQ	0000000000000000H
	DQ	FLAT:wrap_indexargfunc
	DQ	FLAT:??_C@_0BI@OJHENPL@x?4__imul__?$CIy?$CJ?5?$DM?$DN?$DN?$DO?5x?$CK?$DNy?$AA@
	ORG $+16
	DQ	0000000000000000H
	ORG $+48
	ORG $+8
super_members DQ FLAT:??_C@_0O@BEEHOGAG@__thisclass__?$AA@
	DD	06H
	ORG $+4
	DQ	0000000000000060H
	DD	01H
	ORG $+4
	DQ	FLAT:??_C@_0BL@NCAHCDDF@the?5class?5invoking?5super?$CI?$CJ?$AA@
	DQ	FLAT:??_C@_08KFOOMKEG@__self__?$AA@
	DD	06H
	ORG $+4
	DQ	0000000000000068H
	DD	01H
	ORG $+4
	DQ	FLAT:??_C@_0CL@OAHEPBOJ@the?5instance?5invoking?5super?$CI?$CJ?$DL?5m@
	DQ	FLAT:??_C@_0P@FDFALBKM@__self_class__?$AA@
	DD	06H
	ORG $+4
	DQ	0000000000000070H
	DD	01H
	ORG $+4
	DQ	FLAT:??_C@_0DH@MEJKBCJN@the?5type?5of?5the?5instance?5invokin@
	DQ	0000000000000000H
	ORG $+32
super_doc DB	'super() -> same as super(__class__, <first argument>)', 0aH
	DB	'super(type) -> unbound super object', 0aH, 'super(type, obj) '
	DB	'-> bound super object; requires isinstance(obj, type)', 0aH, 's'
	DB	'uper(type, type2) -> bound super object; requires issubclass('
	DB	'type2, type)', 0aH, 'Typical use to call a cooperative superc'
	DB	'lass method:', 0aH, 'class C(B):', 0aH, '    def meth(self, a'
	DB	'rg):', 0aH, '        super().meth(arg)', 0aH, 'This works for'
	DB	' class methods too:', 0aH, 'class C(B):', 0aH, '    @classmet'
	DB	'hod', 0aH, '    def cmeth(cls, arg):', 0aH, '        super().'
	DB	'cmeth(arg)', 0aH, 00H
	ORG $+12
PySuper_Type DQ	dead1234beef5678H
	DQ	dead1234beef5678H
	DQ	0000000000000000H
	ORG $+8
	DQ	0000000000000001H
	DQ	0000000000000000H
	DQ	0000000000000000H
	DQ	0000000000000000H
	DQ	dead1234beef5678H
	DQ	dead1234beef5678H
	DQ	0000000000000001H
	DQ	FLAT:PyType_Type
	DQ	0000000000000000H
	ORG $+8
	DQ	FLAT:??_C@_05MKJDPMKP@super?$AA@
	DQ	0000000000000080H
	DQ	0000000000000000H
	DQ	FLAT:super_dealloc
	DQ	0000000000000000H
	DQ	0000000000000000H
	DQ	0000000000000000H
	DQ	0000000000000000H
	DQ	FLAT:super_repr
	DQ	0000000000000000H
	DQ	0000000000000000H
	DQ	0000000000000000H
	DQ	0000000000000000H
	DQ	0000000000000000H
	DQ	0000000000000000H
	DQ	FLAT:super_getattro
	DQ	0000000000000000H
	DQ	0000000000000000H
	DD	044400H
	ORG $+4
	DQ	FLAT:super_doc
	DQ	FLAT:super_traverse
	DQ	0000000000000000H
	DQ	0000000000000000H
	DQ	0000000000000000H
	DQ	0000000000000000H
	DQ	0000000000000000H
	DQ	0000000000000000H
	DQ	FLAT:super_members
	DQ	0000000000000000H
	DQ	0000000000000000H
	DQ	0000000000000000H
	DQ	FLAT:super_descr_get
	DQ	0000000000000000H
	DQ	0000000000000000H
	DQ	FLAT:super_init
	DQ	FLAT:PyType_GenericAlloc
	DQ	FLAT:PyType_GenericNew
	DQ	FLAT:PyObject_GC_Del
	ORG $+64
_DATA	ENDS
;	COMDAT ??_C@_07MNLIDIMK@__mro__?$AA@
CONST	SEGMENT
??_C@_07MNLIDIMK@__mro__?$AA@ DB '__mro__', 00H		; `string'
CONST	ENDS
;	COMDAT ??_C@_0P@NBEFJBEP@__dictoffset__?$AA@
CONST	SEGMENT
??_C@_0P@NBEFJBEP@__dictoffset__?$AA@ DB '__dictoffset__', 00H ; `string'
CONST	ENDS
;	COMDAT ??_C@_08PNDLAJH@__base__?$AA@
CONST	SEGMENT
??_C@_08PNDLAJH@__base__?$AA@ DB '__base__', 00H	; `string'
CONST	ENDS
;	COMDAT ??_C@_0BC@PHCHJLGH@__weakrefoffset__?$AA@
CONST	SEGMENT
??_C@_0BC@PHCHJLGH@__weakrefoffset__?$AA@ DB '__weakrefoffset__', 00H ; `string'
CONST	ENDS
;	COMDAT ??_C@_09GIOABLIA@__flags__?$AA@
CONST	SEGMENT
??_C@_09GIOABLIA@__flags__?$AA@ DB '__flags__', 00H	; `string'
CONST	ENDS
;	COMDAT ??_C@_0N@OJNCBPH@__itemsize__?$AA@
CONST	SEGMENT
??_C@_0N@OJNCBPH@__itemsize__?$AA@ DB '__itemsize__', 00H ; `string'
CONST	ENDS
;	COMDAT ??_C@_0O@IAOKENCJ@__basicsize__?$AA@
CONST	SEGMENT
??_C@_0O@IAOKENCJ@__basicsize__?$AA@ DB '__basicsize__', 00H ; `string'
CONST	ENDS
;	COMDAT ??_C@_07MEBHOIG@__new__?$AA@
CONST	SEGMENT
??_C@_07MEBHOIG@__new__?$AA@ DB '__new__', 00H		; `string'
CONST	ENDS
;	COMDAT ??_C@_08BHKDPDAA@__name__?$AA@
CONST	SEGMENT
??_C@_08BHKDPDAA@__name__?$AA@ DB '__name__', 00H	; `string'
CONST	ENDS
;	COMDAT ??_C@_0L@LNCJCPDP@__module__?$AA@
CONST	SEGMENT
??_C@_0L@LNCJCPDP@__module__?$AA@ DB '__module__', 00H	; `string'
CONST	ENDS
;	COMDAT ??_C@_08FJMJDHAE@__hash__?$AA@
CONST	SEGMENT
??_C@_08FJMJDHAE@__hash__?$AA@ DB '__hash__', 00H	; `string'
CONST	ENDS
;	COMDAT ??_C@_0BB@FJMKAPEO@__getattribute__?$AA@
CONST	SEGMENT
??_C@_0BB@FJMKAPEO@__getattribute__?$AA@ DB '__getattribute__', 00H ; `string'
CONST	ENDS
;	COMDAT ??_C@_0M@GAJGCIJD@__getitem__?$AA@
CONST	SEGMENT
??_C@_0M@GAJGCIJD@__getitem__?$AA@ DB '__getitem__', 00H ; `string'
CONST	ENDS
;	COMDAT ??_C@_07DIBBIFIJ@__doc__?$AA@
CONST	SEGMENT
??_C@_07DIBBIFIJ@__doc__?$AA@ DB '__doc__', 00H		; `string'
CONST	ENDS
;	COMDAT ??_C@_08IBFKALI@__dict__?$AA@
CONST	SEGMENT
??_C@_08IBFKALI@__dict__?$AA@ DB '__dict__', 00H	; `string'
CONST	ENDS
_TLS	SEGMENT
?PyId___del__@?1??slot_tp_del@@9@9 DQ 0000000000000000H	; `slot_tp_del'::`2'::PyId___del__
	DQ	FLAT:??_C@_07CKMCINHO@__del__?$AA@
	DQ	0000000000000000H
?PyId___new__@?1??slot_tp_new@@9@9 DQ 0000000000000000H	; `slot_tp_new'::`2'::PyId___new__
	DQ	FLAT:??_C@_07MEBHOIG@__new__?$AA@
	DQ	0000000000000000H
?PyId___init__@?1??slot_tp_init@@9@9 DQ 0000000000000000H ; `slot_tp_init'::`2'::PyId___init__
	DQ	FLAT:??_C@_08DOHHOJGB@__init__?$AA@
	DQ	0000000000000000H
?PyId___set__@?1??slot_tp_descr_set@@9@9 DQ 0000000000000000H ; `slot_tp_descr_set'::`2'::PyId___set__
	DQ	FLAT:??_C@_07KBLMMACN@__set__?$AA@
	DQ	0000000000000000H
?PyId___delete__@?1??slot_tp_descr_set@@9@9 DQ 0000000000000000H ; `slot_tp_descr_set'::`2'::PyId___delete__
	DQ	FLAT:??_C@_0L@OAODBFBD@__delete__?$AA@
	DQ	0000000000000000H
?PyId___get__@?1??slot_tp_descr_get@@9@9 DQ 0000000000000000H ; `slot_tp_descr_get'::`2'::PyId___get__
	DQ	FLAT:??_C@_07DJPLIAKA@__get__?$AA@
	DQ	0000000000000000H
?PyId___next__@?1??slot_tp_iternext@@9@9 DQ 0000000000000000H ; `slot_tp_iternext'::`2'::PyId___next__
	DQ	FLAT:??_C@_08MMJHJJBO@__next__?$AA@
	DQ	0000000000000000H
?PyId___iter__@?1??slot_tp_iter@@9@9 DQ 0000000000000000H ; `slot_tp_iter'::`2'::PyId___iter__
	DQ	FLAT:??_C@_08HMKBHKEB@__iter__?$AA@
	DQ	0000000000000000H
?PyId___setattr__@?1??slot_tp_setattro@@9@9 DQ 0000000000000000H ; `slot_tp_setattro'::`2'::PyId___setattr__
	DQ	FLAT:??_C@_0M@CIMGLOJN@__setattr__?$AA@
	DQ	0000000000000000H
?PyId___delattr__@?1??slot_tp_setattro@@9@9 DQ 0000000000000000H ; `slot_tp_setattro'::`2'::PyId___delattr__
	DQ	FLAT:??_C@_0M@ECOKAOJC@__delattr__?$AA@
	DQ	0000000000000000H
?PyId___getattr__@?1??slot_tp_getattr_hook@@9@9 DQ 0000000000000000H ; `slot_tp_getattr_hook'::`2'::PyId___getattr__
	DQ	FLAT:??_C@_0M@GIDJPAP@__getattr__?$AA@
	DQ	0000000000000000H
?PyId___call__@?1??slot_tp_call@@9@9 DQ 0000000000000000H ; `slot_tp_call'::`2'::PyId___call__
	DQ	FLAT:??_C@_08DGBMPEPK@__call__?$AA@
	DQ	0000000000000000H
?PyId___str__@?1??slot_tp_str@@9@9 DQ 0000000000000000H	; `slot_tp_str'::`2'::PyId___str__
	DQ	FLAT:??_C@_07NJFHCBMD@__str__?$AA@
	DQ	0000000000000000H
?PyId___repr__@?1??slot_tp_repr@@9@9 DQ 0000000000000000H ; `slot_tp_repr'::`2'::PyId___repr__
	DQ	FLAT:??_C@_08HJPCHLLJ@__repr__?$AA@
	DQ	0000000000000000H
?id@?1??slot_nb_inplace_true_divide@@9@9 DQ 0000000000000000H ; `slot_nb_inplace_true_divide'::`2'::id
	DQ	FLAT:??_C@_0N@LEBOILNI@__itruediv__?$AA@
	DQ	0000000000000000H
?id@?1??slot_nb_inplace_floor_divide@@9@9 DQ 0000000000000000H ; `slot_nb_inplace_floor_divide'::`2'::id
	DQ	FLAT:??_C@_0O@FFFGEHEN@__ifloordiv__?$AA@
	DQ	0000000000000000H
?rop_id@?1??slot_nb_true_divide@@9@9 DQ 0000000000000000H ; `slot_nb_true_divide'::`2'::rop_id
	DQ	FLAT:??_C@_0N@DJMJMIFH@__rtruediv__?$AA@
	DQ	0000000000000000H
?op_id@?1??slot_nb_true_divide@@9@9 DQ 0000000000000000H ; `slot_nb_true_divide'::`2'::op_id
	DQ	FLAT:??_C@_0M@COJKGICO@__truediv__?$AA@
	DQ	0000000000000000H
?rop_id@?1??slot_nb_floor_divide@@9@9 DQ 0000000000000000H ; `slot_nb_floor_divide'::`2'::rop_id
	DQ	FLAT:??_C@_0O@CINMAOLP@__rfloordiv__?$AA@
	DQ	0000000000000000H
?op_id@?1??slot_nb_floor_divide@@9@9 DQ 0000000000000000H ; `slot_nb_floor_divide'::`2'::op_id
	DQ	FLAT:??_C@_0N@BBCJEIH@__floordiv__?$AA@
	DQ	0000000000000000H
?id@?1??slot_nb_inplace_or@@9@9 DQ 0000000000000000H	; `slot_nb_inplace_or'::`2'::id
	DQ	FLAT:??_C@_07GMCKKGKN@__ior__?$AA@
	DQ	0000000000000000H
?id@?1??slot_nb_inplace_xor@@9@9 DQ 0000000000000000H	; `slot_nb_inplace_xor'::`2'::id
	DQ	FLAT:??_C@_08EBNDKCJL@__ixor__?$AA@
	DQ	0000000000000000H
?id@?1??slot_nb_inplace_and@@9@9 DQ 0000000000000000H	; `slot_nb_inplace_and'::`2'::id
	DQ	FLAT:??_C@_08CNBINADL@__iand__?$AA@
	DQ	0000000000000000H
?id@?1??slot_nb_inplace_rshift@@9@9 DQ 0000000000000000H ; `slot_nb_inplace_rshift'::`2'::id
	DQ	FLAT:??_C@_0M@MPLFEGLF@__irshift__?$AA@
	DQ	0000000000000000H
?id@?1??slot_nb_inplace_lshift@@9@9 DQ 0000000000000000H ; `slot_nb_inplace_lshift'::`2'::id
	DQ	FLAT:??_C@_0M@KLLHNPFG@__ilshift__?$AA@
	DQ	0000000000000000H
?PyId___ipow__@?1??slot_nb_inplace_power@@9@9 DQ 0000000000000000H ; `slot_nb_inplace_power'::`2'::PyId___ipow__
	DQ	FLAT:??_C@_08JKFONAME@__ipow__?$AA@
	DQ	0000000000000000H
?id@?1??slot_nb_inplace_remainder@@9@9 DQ 0000000000000000H ; `slot_nb_inplace_remainder'::`2'::id
	DQ	FLAT:??_C@_08GHLKDJPA@__imod__?$AA@
	DQ	0000000000000000H
?id@?1??slot_nb_inplace_multiply@@9@9 DQ 0000000000000000H ; `slot_nb_inplace_multiply'::`2'::id
	DQ	FLAT:??_C@_08IIFOJODM@__imul__?$AA@
	DQ	0000000000000000H
?id@?1??slot_nb_inplace_subtract@@9@9 DQ 0000000000000000H ; `slot_nb_inplace_subtract'::`2'::id
	DQ	FLAT:??_C@_08FBFNIKOE@__isub__?$AA@
	DQ	0000000000000000H
?id@?1??slot_nb_inplace_add@@9@9 DQ 0000000000000000H	; `slot_nb_inplace_add'::`2'::id
	DQ	FLAT:??_C@_08GHKIMIJK@__iadd__?$AA@
	DQ	0000000000000000H
?id@?1??slot_nb_float@@9@9 DQ 0000000000000000H		; `slot_nb_float'::`2'::id
	DQ	FLAT:??_C@_09EAHNLHOJ@__float__?$AA@
	DQ	0000000000000000H
?id@?1??slot_nb_int@@9@9 DQ 0000000000000000H		; `slot_nb_int'::`2'::id
	DQ	FLAT:??_C@_07HECBNAMB@__int__?$AA@
	DQ	0000000000000000H
?rop_id@?1??slot_nb_or@@9@9 DQ 0000000000000000H	; `slot_nb_or'::`2'::rop_id
	DQ	FLAT:??_C@_07FDLFEPF@__ror__?$AA@
	DQ	0000000000000000H
?op_id@?1??slot_nb_or@@9@9 DQ 0000000000000000H		; `slot_nb_or'::`2'::op_id
	DQ	FLAT:??_C@_06MKEBKDGA@__or__?$AA@
	DQ	0000000000000000H
?rop_id@?1??slot_nb_xor@@9@9 DQ 0000000000000000H	; `slot_nb_xor'::`2'::rop_id
	DQ	FLAT:??_C@_08CEAKGKKP@__rxor__?$AA@
	DQ	0000000000000000H
?op_id@?1??slot_nb_xor@@9@9 DQ 0000000000000000H	; `slot_nb_xor'::`2'::op_id
	DQ	FLAT:??_C@_07KEKAHHJD@__xor__?$AA@
	DQ	0000000000000000H
?rop_id@?1??slot_nb_and@@9@9 DQ 0000000000000000H	; `slot_nb_and'::`2'::rop_id
	DQ	FLAT:??_C@_08EIMBBIAP@__rand__?$AA@
	DQ	0000000000000000H
?op_id@?1??slot_nb_and@@9@9 DQ 0000000000000000H	; `slot_nb_and'::`2'::op_id
	DQ	FLAT:??_C@_07MIGLAFDD@__and__?$AA@
	DQ	0000000000000000H
?rop_id@?1??slot_nb_rshift@@9@9 DQ 0000000000000000H	; `slot_nb_rshift'::`2'::rop_id
	DQ	FLAT:??_C@_0M@BAPLDMKK@__rrshift__?$AA@
	DQ	0000000000000000H
?op_id@?1??slot_nb_rshift@@9@9 DQ 0000000000000000H	; `slot_nb_rshift'::`2'::op_id
	DQ	FLAT:??_C@_0L@PEOFAGDE@__rshift__?$AA@
	DQ	0000000000000000H
?rop_id@?1??slot_nb_lshift@@9@9 DQ 0000000000000000H	; `slot_nb_lshift'::`2'::rop_id
	DQ	FLAT:??_C@_0M@HEPJKFEJ@__rlshift__?$AA@
	DQ	0000000000000000H
?op_id@?1??slot_nb_lshift@@9@9 DQ 0000000000000000H	; `slot_nb_lshift'::`2'::op_id
	DQ	FLAT:??_C@_0L@JAOHJPNH@__lshift__?$AA@
	DQ	0000000000000000H
?id@?1??slot_nb_invert@@9@9 DQ 0000000000000000H	; `slot_nb_invert'::`2'::id
	DQ	FLAT:??_C@_0L@OIINOIMI@__invert__?$AA@
	DQ	0000000000000000H
?PyId___index__@?1??slot_nb_index@@9@9 DQ 0000000000000000H ; `slot_nb_index'::`2'::PyId___index__
	DQ	FLAT:??_C@_09NLFDFNNH@__index__?$AA@
	DQ	0000000000000000H
?PyId___bool__@?1??slot_nb_bool@@9@9 DQ 0000000000000000H ; `slot_nb_bool'::`2'::PyId___bool__
	DQ	FLAT:??_C@_08ONMBOEOO@__bool__?$AA@
	DQ	0000000000000000H
?PyId___len__@?1??slot_nb_bool@@9@9 DQ 0000000000000000H ; `slot_nb_bool'::`2'::PyId___len__
	DQ	FLAT:??_C@_07GMJIMHJI@__len__?$AA@
	DQ	0000000000000000H
?id@?1??slot_nb_absolute@@9@9 DQ 0000000000000000H	; `slot_nb_absolute'::`2'::id
	DQ	FLAT:??_C@_07MAFFIHBE@__abs__?$AA@
	DQ	0000000000000000H
?id@?1??slot_nb_positive@@9@9 DQ 0000000000000000H	; `slot_nb_positive'::`2'::id
	DQ	FLAT:??_C@_07PAEPJCJL@__pos__?$AA@
	DQ	0000000000000000H
?id@?1??slot_nb_negative@@9@9 DQ 0000000000000000H	; `slot_nb_negative'::`2'::id
	DQ	FLAT:??_C@_07FMFICJBJ@__neg__?$AA@
	DQ	0000000000000000H
?PyId___pow__@?1??slot_nb_power@@9@9 DQ 0000000000000000H ; `slot_nb_power'::`2'::PyId___pow__
	DQ	FLAT:??_C@_07HPCNAFMM@__pow__?$AA@
	DQ	0000000000000000H
?rop_id@?1??slot_nb_power_binary@@9@9 DQ 0000000000000000H ; `slot_nb_power_binary'::`2'::rop_id
	DQ	FLAT:??_C@_08PPIHBIPA@__rpow__?$AA@
	DQ	0000000000000000H
?op_id@?1??slot_nb_power_binary@@9@9 DQ 0000000000000000H ; `slot_nb_power_binary'::`2'::op_id
	DQ	FLAT:??_C@_07HPCNAFMM@__pow__?$AA@
	DQ	0000000000000000H
?rop_id@?1??slot_nb_divmod@@9@9 DQ 0000000000000000H	; `slot_nb_divmod'::`2'::rop_id
	DQ	FLAT:??_C@_0M@NDCDLKNJ@__rdivmod__?$AA@
	DQ	0000000000000000H
?op_id@?1??slot_nb_divmod@@9@9 DQ 0000000000000000H	; `slot_nb_divmod'::`2'::op_id
	DQ	FLAT:??_C@_0L@DHDNIAEH@__divmod__?$AA@
	DQ	0000000000000000H
?rop_id@?1??slot_nb_remainder@@9@9 DQ 0000000000000000H	; `slot_nb_remainder'::`2'::rop_id
	DQ	FLAT:??_C@_08CGDPBME@__rmod__?$AA@
	DQ	0000000000000000H
?op_id@?1??slot_nb_remainder@@9@9 DQ 0000000000000000H	; `slot_nb_remainder'::`2'::op_id
	DQ	FLAT:??_C@_07ICMJOMPI@__mod__?$AA@
	DQ	0000000000000000H
?rop_id@?1??slot_nb_multiply@@9@9 DQ 0000000000000000H	; `slot_nb_multiply'::`2'::rop_id
	DQ	FLAT:??_C@_08ONIHFGAI@__rmul__?$AA@
	DQ	0000000000000000H
?op_id@?1??slot_nb_multiply@@9@9 DQ 0000000000000000H	; `slot_nb_multiply'::`2'::op_id
	DQ	FLAT:??_C@_07GNCNELDE@__mul__?$AA@
	DQ	0000000000000000H
?rop_id@?1??slot_nb_subtract@@9@9 DQ 0000000000000000H	; `slot_nb_subtract'::`2'::rop_id
	DQ	FLAT:??_C@_08DEIEECNA@__rsub__?$AA@
	DQ	0000000000000000H
?op_id@?1??slot_nb_subtract@@9@9 DQ 0000000000000000H	; `slot_nb_subtract'::`2'::op_id
	DQ	FLAT:??_C@_07LECOFPOM@__sub__?$AA@
	DQ	0000000000000000H
?rop_id@?1??slot_nb_add@@9@9 DQ 0000000000000000H	; `slot_nb_add'::`2'::rop_id
	DQ	FLAT:??_C@_08CHBAAKO@__radd__?$AA@
	DQ	0000000000000000H
?op_id@?1??slot_nb_add@@9@9 DQ 0000000000000000H	; `slot_nb_add'::`2'::op_id
	DQ	FLAT:??_C@_07ICNLBNJC@__add__?$AA@
	DQ	0000000000000000H
?PyId___setitem__@?1??slot_mp_ass_subscript@@9@9 DQ 0000000000000000H ; `slot_mp_ass_subscript'::`2'::PyId___setitem__
	DQ	FLAT:??_C@_0M@EONDAJAB@__setitem__?$AA@
	DQ	0000000000000000H
?PyId___delitem__@?1??slot_mp_ass_subscript@@9@9 DQ 0000000000000000H ; `slot_mp_ass_subscript'::`2'::PyId___delitem__
	DQ	FLAT:??_C@_0M@CEPPLJAO@__delitem__?$AA@
	DQ	0000000000000000H
?id@?1??slot_mp_subscript@@9@9 DQ 0000000000000000H	; `slot_mp_subscript'::`2'::id
	DQ	FLAT:??_C@_0M@GAJGCIJD@__getitem__?$AA@
	DQ	0000000000000000H
?PyId___contains__@?1??slot_sq_contains@@9@9 DQ 0000000000000000H ; `slot_sq_contains'::`2'::PyId___contains__
	DQ	FLAT:??_C@_0N@MCIOADFH@__contains__?$AA@
	DQ	0000000000000000H
?PyId___setitem__@?1??slot_sq_ass_item@@9@9 DQ 0000000000000000H ; `slot_sq_ass_item'::`2'::PyId___setitem__
	DQ	FLAT:??_C@_0M@EONDAJAB@__setitem__?$AA@
	DQ	0000000000000000H
?PyId___delitem__@?1??slot_sq_ass_item@@9@9 DQ 0000000000000000H ; `slot_sq_ass_item'::`2'::PyId___delitem__
	DQ	FLAT:??_C@_0M@CEPPLJAO@__delitem__?$AA@
	DQ	0000000000000000H
?PyId___len__@?1??slot_sq_length@@9@9 DQ 0000000000000000H ; `slot_sq_length'::`2'::PyId___len__
	DQ	FLAT:??_C@_07GMJIMHJI@__len__?$AA@
	DQ	0000000000000000H
?PyId___eq__@?1??overrides_hash@@9@9 DQ 0000000000000000H ; `overrides_hash'::`2'::PyId___eq__
	DQ	FLAT:??_C@_06JCEEBECP@__eq__?$AA@
	DQ	0000000000000000H
?PyId___reduce__@?1??object_reduce_ex@@9@9 DQ 0000000000000000H ; `object_reduce_ex'::`2'::PyId___reduce__
	DQ	FLAT:??_C@_0L@NNMACJIG@__reduce__?$AA@
	DQ	0000000000000000H
?PyId_items@?P@??reduce_2@@9@9 DQ 0000000000000000H	; `reduce_2'::`15'::PyId_items
	DQ	FLAT:??_C@_05CFHBDDLG@items?$AA@
	DQ	0000000000000000H
?PyId___newobj__@?1??reduce_2@@9@9 DQ 0000000000000000H	; `reduce_2'::`2'::PyId___newobj__
	DQ	FLAT:??_C@_0L@GEMAGKL@__newobj__?$AA@
	DQ	0000000000000000H
?PyId___getstate__@?1??reduce_2@@9@9 DQ 0000000000000000H ; `reduce_2'::`2'::PyId___getstate__
	DQ	FLAT:??_C@_0N@NAMJJHIO@__getstate__?$AA@
	DQ	0000000000000000H
?PyId___getnewargs__@?1??reduce_2@@9@9 DQ 0000000000000000H ; `reduce_2'::`2'::PyId___getnewargs__
	DQ	FLAT:??_C@_0P@BCBHENLA@__getnewargs__?$AA@
	DQ	0000000000000000H
?PyId__slotnames@?1??slotnames@@9@9 DQ 0000000000000000H ; `slotnames'::`2'::PyId__slotnames
	DQ	FLAT:??_C@_0L@NMBFFBAC@_slotnames?$AA@
	DQ	0000000000000000H
?PyId___slotnames__@?1??slotnames@@9@9 DQ 0000000000000000H ; `slotnames'::`2'::PyId___slotnames__
	DQ	FLAT:??_C@_0O@NLMJLHMN@__slotnames__?$AA@
	DQ	0000000000000000H
?PyId_copyreg@?1??import_copyreg@@9@9 DQ 0000000000000000H ; `import_copyreg'::`2'::PyId_copyreg
	DQ	FLAT:??_C@_07ODDBKIAB@copyreg?$AA@
	DQ	0000000000000000H
?PyId_sorted@?3??object_new@@9@9 DQ 0000000000000000H	; `object_new'::`4'::PyId_sorted
	DQ	FLAT:??_C@_06GOHDHELE@sorted?$AA@
	DQ	0000000000000000H
?comma_id@?3??object_new@@9@9 DQ 0000000000000000H	; `object_new'::`4'::comma_id
	DQ	FLAT:??_C@_02KEGNLNML@?0?5?$AA@
	DQ	0000000000000000H
?PyId___bases__@?1??merge_class_dict@@9@9 DQ 0000000000000000H ; `merge_class_dict'::`2'::PyId___bases__
	DQ	FLAT:??_C@_09LJKDIEEK@__bases__?$AA@
	DQ	0000000000000000H
?PyId___slots__@?1??type_new@@9@9 DQ 0000000000000000H	; `type_new'::`2'::PyId___slots__
	DQ	FLAT:??_C@_09EBPBKION@__slots__?$AA@
	DQ	0000000000000000H
?PyId___qualname__@?1??type_new@@9@9 DQ 0000000000000000H ; `type_new'::`2'::PyId___qualname__
	DQ	FLAT:??_C@_0N@FMLGAKCE@__qualname__?$AA@
	DQ	0000000000000000H
?PyId_mro@?3??mro_internal@@9@9 DQ 0000000000000000H	; `mro_internal'::`4'::PyId_mro
	DQ	FLAT:??_C@_03KCOHMEGL@mro?$AA@
	DQ	0000000000000000H
PyId___new__ DQ	0000000000000000H
	DQ	FLAT:??_C@_07MEBHOIG@__new__?$AA@
	DQ	0000000000000000H
PyId___name__ DQ 0000000000000000H
	DQ	FLAT:??_C@_08BHKDPDAA@__name__?$AA@
	DQ	0000000000000000H
PyId___module__ DQ 0000000000000000H
	DQ	FLAT:??_C@_0L@LNCJCPDP@__module__?$AA@
	DQ	0000000000000000H
PyId___hash__ DQ 0000000000000000H
	DQ	FLAT:??_C@_08FJMJDHAE@__hash__?$AA@
	DQ	0000000000000000H
PyId___getattribute__ DQ 0000000000000000H
	DQ	FLAT:??_C@_0BB@FJMKAPEO@__getattribute__?$AA@
	DQ	0000000000000000H
PyId___getitem__ DQ 0000000000000000H
	DQ	FLAT:??_C@_0M@GAJGCIJD@__getitem__?$AA@
	DQ	0000000000000000H
PyId___doc__ DQ	0000000000000000H
	DQ	FLAT:??_C@_07DIBBIFIJ@__doc__?$AA@
	DQ	0000000000000000H
PyId___dict__ DQ 0000000000000000H
	DQ	FLAT:??_C@_08IBFKALI@__dict__?$AA@
	DQ	0000000000000000H
PyId___class__ DQ 0000000000000000H
	DQ	FLAT:??_C@_09LFGACEKG@__class__?$AA@
	DQ	0000000000000000H
_TLS	ENDS
;	COMDAT ??_C@_09LFGACEKG@__class__?$AA@
CONST	SEGMENT
??_C@_09LFGACEKG@__class__?$AA@ DB '__class__', 00H	; `string'
CONST	ENDS
PUBLIC	PyType_Modified
PUBLIC	_Py_DecRef
PUBLIC	??_C@_0BC@HNKCEFEF@PyType_ClearCache?$AA@	; `string'
PUBLIC	??_C@_0BI@PKBBAMFA@?4?4?2Objects?2typeobject?4c?$AA@ ; `string'
PUBLIC	PyType_ClearCache
EXTRN	_PyParallel_Guard:PROC
EXTRN	_PyParallel_ContextGuardFailure:PROC
EXTRN	_Py_PXCTX:PROC
_BSS	SEGMENT
method_cache DB	03000H DUP (?)
_BSS	ENDS
;	COMDAT pdata
; File c:\src\pyparallel\objects\typeobject.c
pdata	SEGMENT
$pdata$PyType_ClearCache DD imagerel $LN11
	DD	imagerel $LN11+329
	DD	imagerel $unwind$PyType_ClearCache
pdata	ENDS
;	COMDAT xdata
xdata	SEGMENT
$unwind$PyType_ClearCache DD 010401H
	DD	0a204H
xdata	ENDS
;	COMDAT ??_C@_0BC@HNKCEFEF@PyType_ClearCache?$AA@
CONST	SEGMENT
??_C@_0BC@HNKCEFEF@PyType_ClearCache?$AA@ DB 'PyType_ClearCache', 00H ; `string'
CONST	ENDS
;	COMDAT ??_C@_0BI@PKBBAMFA@?4?4?2Objects?2typeobject?4c?$AA@
CONST	SEGMENT
??_C@_0BI@PKBBAMFA@?4?4?2Objects?2typeobject?4c?$AA@ DB '..\Objects\typeo'
	DB	'bject.c', 00H				; `string'
; Function compile flags: /Odtp
CONST	ENDS
;	COMDAT PyType_ClearCache
_TEXT	SEGMENT
i$ = 48
cur_version_tag$ = 56
_py_tmp$20432 = 64
PyType_ClearCache PROC					; COMDAT

; 53   : {

$LN11:
  00000	48 83 ec 58	 sub	 rsp, 88			; 00000058H

; 54   :     Py_ssize_t i;
; 55   :     unsigned int cur_version_tag = next_version_tag - 1;

  00004	8b 05 00 00 00
	00		 mov	 eax, DWORD PTR next_version_tag
  0000a	ff c8		 dec	 eax
  0000c	89 44 24 38	 mov	 DWORD PTR cur_version_tag$[rsp], eax

; 56   :     Py_GUARD

  00010	e8 00 00 00 00	 call	 _Py_PXCTX
  00015	85 c0		 test	 eax, eax
  00017	74 1c		 je	 SHORT $LN8@PyType_Cle
  00019	45 33 c9	 xor	 r9d, r9d
  0001c	41 b8 38 00 00
	00		 mov	 r8d, 56			; 00000038H
  00022	48 8d 15 00 00
	00 00		 lea	 rdx, OFFSET FLAT:??_C@_0BI@PKBBAMFA@?4?4?2Objects?2typeobject?4c?$AA@
  00029	48 8d 0d 00 00
	00 00		 lea	 rcx, OFFSET FLAT:??_C@_0BC@HNKCEFEF@PyType_ClearCache?$AA@
  00030	e8 00 00 00 00	 call	 _PyParallel_ContextGuardFailure
$LN8@PyType_Cle:

; 57   : 
; 58   :     for (i = 0; i < (1 << MCACHE_SIZE_EXP); i++) {

  00035	48 c7 44 24 30
	00 00 00 00	 mov	 QWORD PTR i$[rsp], 0
  0003e	eb 0d		 jmp	 SHORT $LN7@PyType_Cle
$LN6@PyType_Cle:
  00040	48 8b 44 24 30	 mov	 rax, QWORD PTR i$[rsp]
  00045	48 ff c0	 inc	 rax
  00048	48 89 44 24 30	 mov	 QWORD PTR i$[rsp], rax
$LN7@PyType_Cle:
  0004d	48 81 7c 24 30
	00 02 00 00	 cmp	 QWORD PTR i$[rsp], 512	; 00000200H
  00056	0f 8d ce 00 00
	00		 jge	 $LN5@PyType_Cle

; 59   :         method_cache[i].version = 0;

  0005c	48 8b 44 24 30	 mov	 rax, QWORD PTR i$[rsp]
  00061	48 6b c0 18	 imul	 rax, 24
  00065	48 8d 0d 00 00
	00 00		 lea	 rcx, OFFSET FLAT:method_cache
  0006c	c7 04 01 00 00
	00 00		 mov	 DWORD PTR [rcx+rax], 0
$LN4@PyType_Cle:

; 60   :         Py_CLEAR(method_cache[i].name);

  00073	48 8b 44 24 30	 mov	 rax, QWORD PTR i$[rsp]
  00078	48 6b c0 18	 imul	 rax, 24
  0007c	48 8d 0d 00 00
	00 00		 lea	 rcx, OFFSET FLAT:method_cache
  00083	48 83 7c 01 08
	00		 cmp	 QWORD PTR [rcx+rax+8], 0
  00089	74 77		 je	 SHORT $LN1@PyType_Cle
  0008b	48 8b 44 24 30	 mov	 rax, QWORD PTR i$[rsp]
  00090	48 6b c0 18	 imul	 rax, 24
  00094	48 8d 0d 00 00
	00 00		 lea	 rcx, OFFSET FLAT:method_cache
  0009b	c7 44 24 20 10
	00 00 00	 mov	 DWORD PTR [rsp+32], 16
  000a3	4c 8b 4c 01 08	 mov	 r9, QWORD PTR [rcx+rax+8]
  000a8	41 b8 3c 00 00
	00		 mov	 r8d, 60			; 0000003cH
  000ae	48 8d 15 00 00
	00 00		 lea	 rdx, OFFSET FLAT:??_C@_0BI@PKBBAMFA@?4?4?2Objects?2typeobject?4c?$AA@
  000b5	48 8d 0d 00 00
	00 00		 lea	 rcx, OFFSET FLAT:??_C@_0BC@HNKCEFEF@PyType_ClearCache?$AA@
  000bc	e8 00 00 00 00	 call	 _PyParallel_Guard
  000c1	85 c0		 test	 eax, eax
  000c3	75 3d		 jne	 SHORT $LN1@PyType_Cle
  000c5	48 8b 44 24 30	 mov	 rax, QWORD PTR i$[rsp]
  000ca	48 6b c0 18	 imul	 rax, 24
  000ce	48 8d 0d 00 00
	00 00		 lea	 rcx, OFFSET FLAT:method_cache
  000d5	48 8b 44 01 08	 mov	 rax, QWORD PTR [rcx+rax+8]
  000da	48 89 44 24 40	 mov	 QWORD PTR _py_tmp$20432[rsp], rax
  000df	48 8b 44 24 30	 mov	 rax, QWORD PTR i$[rsp]
  000e4	48 6b c0 18	 imul	 rax, 24
  000e8	48 8d 0d 00 00
	00 00		 lea	 rcx, OFFSET FLAT:method_cache
  000ef	48 c7 44 01 08
	00 00 00 00	 mov	 QWORD PTR [rcx+rax+8], 0
  000f8	48 8b 4c 24 40	 mov	 rcx, QWORD PTR _py_tmp$20432[rsp]
  000fd	e8 00 00 00 00	 call	 _Py_DecRef
$LN1@PyType_Cle:
  00102	33 c0		 xor	 eax, eax
  00104	85 c0		 test	 eax, eax
  00106	0f 85 67 ff ff
	ff		 jne	 $LN4@PyType_Cle

; 61   :         method_cache[i].value = NULL;

  0010c	48 8b 44 24 30	 mov	 rax, QWORD PTR i$[rsp]
  00111	48 6b c0 18	 imul	 rax, 24
  00115	48 8d 0d 00 00
	00 00		 lea	 rcx, OFFSET FLAT:method_cache
  0011c	48 c7 44 01 10
	00 00 00 00	 mov	 QWORD PTR [rcx+rax+16], 0

; 62   :     }

  00125	e9 16 ff ff ff	 jmp	 $LN6@PyType_Cle
$LN5@PyType_Cle:

; 63   :     next_version_tag = 0;

  0012a	c7 05 00 00 00
	00 00 00 00 00	 mov	 DWORD PTR next_version_tag, 0

; 64   :     /* mark all version tags as invalid */
; 65   :     PyType_Modified(&PyBaseObject_Type);

  00134	48 8d 0d 00 00
	00 00		 lea	 rcx, OFFSET FLAT:PyBaseObject_Type
  0013b	e8 00 00 00 00	 call	 PyType_Modified

; 66   :     return cur_version_tag;

  00140	8b 44 24 38	 mov	 eax, DWORD PTR cur_version_tag$[rsp]

; 67   : }

  00144	48 83 c4 58	 add	 rsp, 88			; 00000058H
  00148	c3		 ret	 0
PyType_ClearCache ENDP
_TEXT	ENDS
PUBLIC	??_C@_0L@DMHMLFIA@_Py_DecRef?$AA@		; `string'
PUBLIC	??_C@_0CD@HDJFDCDP@c?3?2src?2pyparallel?2include?2object@ ; `string'
EXTRN	_Py_Dealloc:PROC
EXTRN	_Py_NegativeRefcount:PROC
EXTRN	_Py_RefTotal:QWORD
EXTRN	Px_DecRef:PROC
;	COMDAT pdata
; File c:\src\pyparallel\include\object.h
pdata	SEGMENT
$pdata$_Py_DecRef DD imagerel $LN13
	DD	imagerel $LN13+257
	DD	imagerel $unwind$_Py_DecRef
pdata	ENDS
;	COMDAT xdata
xdata	SEGMENT
$unwind$_Py_DecRef DD 010901H
	DD	08209H
xdata	ENDS
;	COMDAT ??_C@_0L@DMHMLFIA@_Py_DecRef?$AA@
CONST	SEGMENT
??_C@_0L@DMHMLFIA@_Py_DecRef?$AA@ DB '_Py_DecRef', 00H	; `string'
CONST	ENDS
;	COMDAT ??_C@_0CD@HDJFDCDP@c?3?2src?2pyparallel?2include?2object@
CONST	SEGMENT
??_C@_0CD@HDJFDCDP@c?3?2src?2pyparallel?2include?2object@ DB 'c:\src\pypa'
	DB	'rallel\include\object.h', 00H		; `string'
; Function compile flags: /Odtp
CONST	ENDS
;	COMDAT _Py_DecRef
_TEXT	SEGMENT
tv81 = 48
op$ = 80
_Py_DecRef PROC						; COMDAT

; 923  : {

$LN13:
  00000	48 89 4c 24 08	 mov	 QWORD PTR [rsp+8], rcx
  00005	48 83 ec 48	 sub	 rsp, 72			; 00000048H

; 924  :     if (!Py_PXCTX) {

  00009	e8 00 00 00 00	 call	 _Py_PXCTX
  0000e	85 c0		 test	 eax, eax
  00010	0f 85 e6 00 00
	00		 jne	 $LN8@Py_DecRef

; 925  :         if (Px_PERSISTED(op) || Px_CLONED(op))

  00016	48 8b 44 24 50	 mov	 rax, QWORD PTR op$[rsp]
  0001b	48 8b 40 20	 mov	 rax, QWORD PTR [rax+32]
  0001f	48 83 e0 20	 and	 rax, 32			; 00000020H
  00023	48 85 c0	 test	 rax, rax
  00026	75 14		 jne	 SHORT $LN6@Py_DecRef
  00028	48 8b 44 24 50	 mov	 rax, QWORD PTR op$[rsp]
  0002d	48 8b 40 20	 mov	 rax, QWORD PTR [rax+32]
  00031	48 25 80 00 00
	00		 and	 rax, 128		; 00000080H
  00037	48 85 c0	 test	 rax, rax
  0003a	74 0f		 je	 SHORT $LN7@Py_DecRef
$LN6@Py_DecRef:

; 926  :             Px_DECREF(op);

  0003c	48 8b 4c 24 50	 mov	 rcx, QWORD PTR op$[rsp]
  00041	e8 00 00 00 00	 call	 Px_DecRef
  00046	e9 b1 00 00 00	 jmp	 $LN5@Py_DecRef
$LN7@Py_DecRef:

; 927  :         else if (!Px_ISPX(op)) {

  0004b	48 8b 44 24 50	 mov	 rax, QWORD PTR op$[rsp]
  00050	48 8b 40 20	 mov	 rax, QWORD PTR [rax+32]
  00054	48 83 e0 02	 and	 rax, 2
  00058	48 85 c0	 test	 rax, rax
  0005b	0f 85 9b 00 00
	00		 jne	 $LN4@Py_DecRef

; 928  :             _Py_DEC_REFTOTAL;

  00061	e8 00 00 00 00	 call	 _Py_PXCTX
  00066	85 c0		 test	 eax, eax
  00068	74 02		 je	 SHORT $LN11@Py_DecRef
  0006a	eb 11		 jmp	 SHORT $LN12@Py_DecRef
$LN11@Py_DecRef:
  0006c	48 8b 05 00 00
	00 00		 mov	 rax, QWORD PTR _Py_RefTotal
  00073	48 ff c8	 dec	 rax
  00076	48 89 05 00 00
	00 00		 mov	 QWORD PTR _Py_RefTotal, rax
$LN12@Py_DecRef:

; 929  :             if ((--((PyObject *)(op))->ob_refcnt) != 0) {

  0007d	48 8b 44 24 50	 mov	 rax, QWORD PTR op$[rsp]
  00082	48 8b 40 50	 mov	 rax, QWORD PTR [rax+80]
  00086	48 ff c8	 dec	 rax
  00089	48 89 44 24 30	 mov	 QWORD PTR tv81[rsp], rax
  0008e	48 8b 44 24 50	 mov	 rax, QWORD PTR op$[rsp]
  00093	48 8b 4c 24 30	 mov	 rcx, QWORD PTR tv81[rsp]
  00098	48 89 48 50	 mov	 QWORD PTR [rax+80], rcx
  0009c	48 83 7c 24 30
	00		 cmp	 QWORD PTR tv81[rsp], 0
  000a2	74 4e		 je	 SHORT $LN3@Py_DecRef

; 930  :                 _Py_CHECK_REFCNT(op);

  000a4	c7 44 24 20 10
	00 00 00	 mov	 DWORD PTR [rsp+32], 16
  000ac	4c 8b 4c 24 50	 mov	 r9, QWORD PTR op$[rsp]
  000b1	41 b8 a2 03 00
	00		 mov	 r8d, 930		; 000003a2H
  000b7	48 8d 15 00 00
	00 00		 lea	 rdx, OFFSET FLAT:??_C@_0CD@HDJFDCDP@c?3?2src?2pyparallel?2include?2object@
  000be	48 8d 0d 00 00
	00 00		 lea	 rcx, OFFSET FLAT:??_C@_0L@DMHMLFIA@_Py_DecRef?$AA@
  000c5	e8 00 00 00 00	 call	 _PyParallel_Guard
  000ca	85 c0		 test	 eax, eax
  000cc	75 22		 jne	 SHORT $LN2@Py_DecRef
  000ce	48 8b 44 24 50	 mov	 rax, QWORD PTR op$[rsp]
  000d3	48 83 78 50 00	 cmp	 QWORD PTR [rax+80], 0
  000d8	7d 16		 jge	 SHORT $LN2@Py_DecRef
  000da	4c 8b 44 24 50	 mov	 r8, QWORD PTR op$[rsp]
  000df	ba a2 03 00 00	 mov	 edx, 930		; 000003a2H
  000e4	48 8d 0d 00 00
	00 00		 lea	 rcx, OFFSET FLAT:??_C@_0CD@HDJFDCDP@c?3?2src?2pyparallel?2include?2object@
  000eb	e8 00 00 00 00	 call	 _Py_NegativeRefcount
$LN2@Py_DecRef:

; 931  :             } else

  000f0	eb 0a		 jmp	 SHORT $LN1@Py_DecRef
$LN3@Py_DecRef:

; 932  :                 _Py_Dealloc((PyObject *)(op));

  000f2	48 8b 4c 24 50	 mov	 rcx, QWORD PTR op$[rsp]
  000f7	e8 00 00 00 00	 call	 _Py_Dealloc
$LN1@Py_DecRef:
$LN4@Py_DecRef:
$LN5@Py_DecRef:
$LN8@Py_DecRef:

; 933  :         }
; 934  :     }
; 935  : }

  000fc	48 83 c4 48	 add	 rsp, 72			; 00000048H
  00100	c3		 ret	 0
_Py_DecRef ENDP
_TEXT	ENDS
PUBLIC	_PyType_Fini
;	COMDAT pdata
; File c:\src\pyparallel\objects\typeobject.c
pdata	SEGMENT
$pdata$_PyType_Fini DD imagerel $LN3
	DD	imagerel $LN3+14
	DD	imagerel $unwind$_PyType_Fini
pdata	ENDS
;	COMDAT xdata
xdata	SEGMENT
$unwind$_PyType_Fini DD 010401H
	DD	04204H
; Function compile flags: /Odtp
xdata	ENDS
;	COMDAT _PyType_Fini
_TEXT	SEGMENT
_PyType_Fini PROC					; COMDAT

; 71   : {

$LN3:
  00000	48 83 ec 28	 sub	 rsp, 40			; 00000028H

; 72   :     PyType_ClearCache();

  00004	e8 00 00 00 00	 call	 PyType_ClearCache

; 73   : }

  00009	48 83 c4 28	 add	 rsp, 40			; 00000028H
  0000d	c3		 ret	 0
_PyType_Fini ENDP
_TEXT	ENDS
EXTRN	_Py_NoneStruct:BYTE
;	COMDAT pdata
pdata	SEGMENT
$pdata$PyType_Modified DD imagerel $LN11
	DD	imagerel $LN11+247
	DD	imagerel $unwind$PyType_Modified
pdata	ENDS
;	COMDAT xdata
xdata	SEGMENT
$unwind$PyType_Modified DD 010901H
	DD	0a209H
; Function compile flags: /Odtp
xdata	ENDS
;	COMDAT PyType_Modified
_TEXT	SEGMENT
n$ = 32
i$ = 40
raw$ = 48
ref$ = 56
tv79 = 64
type$ = 96
PyType_Modified PROC					; COMDAT

; 77   : {

$LN11:
  00000	48 89 4c 24 08	 mov	 QWORD PTR [rsp+8], rcx
  00005	48 83 ec 58	 sub	 rsp, 88			; 00000058H

; 78   :     /* Invalidate any cached data for the specified type and all
; 79   :        subclasses.  This function is called after the base
; 80   :        classes, mro, or attributes of the type are altered.
; 81   : 
; 82   :        Invariants:
; 83   : 
; 84   :        - Py_TPFLAGS_VALID_VERSION_TAG is never set if
; 85   :          Py_TPFLAGS_HAVE_VERSION_TAG is not set (e.g. on type
; 86   :          objects coming from non-recompiled extension modules)
; 87   : 
; 88   :        - before Py_TPFLAGS_VALID_VERSION_TAG can be set on a type,
; 89   :          it must first be set on all super types.
; 90   : 
; 91   :        This function clears the Py_TPFLAGS_VALID_VERSION_TAG of a
; 92   :        type (so it must first clear it on all subclasses).  The
; 93   :        tp_version_tag value is meaningless unless this flag is set.
; 94   :        We don't assign new version tags eagerly, but only as
; 95   :        needed.
; 96   :      */
; 97   :     PyObject *raw, *ref;
; 98   :     Py_ssize_t i, n;
; 99   : 
; 100  :     if (!PyType_HasFeature(type, Py_TPFLAGS_VALID_VERSION_TAG))

  00009	48 8b 44 24 60	 mov	 rax, QWORD PTR type$[rsp]
  0000e	8b 80 00 01 00
	00		 mov	 eax, DWORD PTR [rax+256]
  00014	25 00 00 08 00	 and	 eax, 524288		; 00080000H
  00019	85 c0		 test	 eax, eax
  0001b	75 05		 jne	 SHORT $LN6@PyType_Mod

; 101  :         return;

  0001d	e9 d0 00 00 00	 jmp	 $LN7@PyType_Mod
$LN6@PyType_Mod:

; 102  : 
; 103  :     raw = type->tp_subclasses;

  00022	48 8b 44 24 60	 mov	 rax, QWORD PTR type$[rsp]
  00027	48 8b 80 c0 01
	00 00		 mov	 rax, QWORD PTR [rax+448]
  0002e	48 89 44 24 30	 mov	 QWORD PTR raw$[rsp], rax

; 104  :     if (raw != NULL) {

  00033	48 83 7c 24 30
	00		 cmp	 QWORD PTR raw$[rsp], 0
  00039	0f 84 99 00 00
	00		 je	 $LN5@PyType_Mod

; 105  :         n = PyList_GET_SIZE(raw);

  0003f	48 8b 44 24 30	 mov	 rax, QWORD PTR raw$[rsp]
  00044	48 8b 40 60	 mov	 rax, QWORD PTR [rax+96]
  00048	48 89 44 24 20	 mov	 QWORD PTR n$[rsp], rax

; 106  :         for (i = 0; i < n; i++) {

  0004d	48 c7 44 24 28
	00 00 00 00	 mov	 QWORD PTR i$[rsp], 0
  00056	eb 0d		 jmp	 SHORT $LN4@PyType_Mod
$LN3@PyType_Mod:
  00058	48 8b 44 24 28	 mov	 rax, QWORD PTR i$[rsp]
  0005d	48 ff c0	 inc	 rax
  00060	48 89 44 24 28	 mov	 QWORD PTR i$[rsp], rax
$LN4@PyType_Mod:
  00065	48 8b 44 24 20	 mov	 rax, QWORD PTR n$[rsp]
  0006a	48 39 44 24 28	 cmp	 QWORD PTR i$[rsp], rax
  0006f	7d 67		 jge	 SHORT $LN2@PyType_Mod

; 107  :             ref = PyList_GET_ITEM(raw, i);

  00071	48 8b 44 24 30	 mov	 rax, QWORD PTR raw$[rsp]
  00076	48 8b 40 70	 mov	 rax, QWORD PTR [rax+112]
  0007a	48 8b 4c 24 28	 mov	 rcx, QWORD PTR i$[rsp]
  0007f	48 8b 04 c8	 mov	 rax, QWORD PTR [rax+rcx*8]
  00083	48 89 44 24 38	 mov	 QWORD PTR ref$[rsp], rax

; 108  :             ref = PyWeakref_GET_OBJECT(ref);

  00088	48 8b 44 24 38	 mov	 rax, QWORD PTR ref$[rsp]
  0008d	48 8b 40 60	 mov	 rax, QWORD PTR [rax+96]
  00091	48 83 78 50 00	 cmp	 QWORD PTR [rax+80], 0
  00096	7e 10		 jle	 SHORT $LN9@PyType_Mod
  00098	48 8b 44 24 38	 mov	 rax, QWORD PTR ref$[rsp]
  0009d	48 8b 40 60	 mov	 rax, QWORD PTR [rax+96]
  000a1	48 89 44 24 40	 mov	 QWORD PTR tv79[rsp], rax
  000a6	eb 0c		 jmp	 SHORT $LN10@PyType_Mod
$LN9@PyType_Mod:
  000a8	48 8d 05 00 00
	00 00		 lea	 rax, OFFSET FLAT:_Py_NoneStruct
  000af	48 89 44 24 40	 mov	 QWORD PTR tv79[rsp], rax
$LN10@PyType_Mod:
  000b4	48 8b 44 24 40	 mov	 rax, QWORD PTR tv79[rsp]
  000b9	48 89 44 24 38	 mov	 QWORD PTR ref$[rsp], rax

; 109  :             if (ref != Py_None) {

  000be	48 8d 05 00 00
	00 00		 lea	 rax, OFFSET FLAT:_Py_NoneStruct
  000c5	48 39 44 24 38	 cmp	 QWORD PTR ref$[rsp], rax
  000ca	74 0a		 je	 SHORT $LN1@PyType_Mod

; 110  :                 PyType_Modified((PyTypeObject *)ref);

  000cc	48 8b 4c 24 38	 mov	 rcx, QWORD PTR ref$[rsp]
  000d1	e8 00 00 00 00	 call	 PyType_Modified
$LN1@PyType_Mod:

; 111  :             }
; 112  :         }

  000d6	eb 80		 jmp	 SHORT $LN3@PyType_Mod
$LN2@PyType_Mod:
$LN5@PyType_Mod:

; 113  :     }
; 114  :     type->tp_flags &= ~Py_TPFLAGS_VALID_VERSION_TAG;

  000d8	48 8b 44 24 60	 mov	 rax, QWORD PTR type$[rsp]
  000dd	8b 80 00 01 00
	00		 mov	 eax, DWORD PTR [rax+256]
  000e3	0f ba f0 13	 btr	 eax, 19
  000e7	48 8b 4c 24 60	 mov	 rcx, QWORD PTR type$[rsp]
  000ec	89 81 00 01 00
	00		 mov	 DWORD PTR [rcx+256], eax
$LN7@PyType_Mod:

; 115  : }

  000f2	48 83 c4 58	 add	 rsp, 88			; 00000058H
  000f6	c3		 ret	 0
PyType_Modified ENDP
_TEXT	ENDS
PUBLIC	_Py_IncRef
EXTRN	PyUnicode_FromString:PROC
EXTRN	__imp_strrchr:PROC
;	COMDAT pdata
pdata	SEGMENT
$pdata$type_name DD imagerel type_name
	DD	imagerel type_name+154
	DD	imagerel $unwind$type_name
pdata	ENDS
;	COMDAT xdata
xdata	SEGMENT
$unwind$type_name DD 010e01H
	DD	0620eH
; Function compile flags: /Odtp
xdata	ENDS
;	COMDAT type_name
_TEXT	SEGMENT
s$ = 32
et$20566 = 40
type$ = 64
context$ = 72
type_name PROC						; COMDAT

; 238  : {

  00000	48 89 54 24 10	 mov	 QWORD PTR [rsp+16], rdx
  00005	48 89 4c 24 08	 mov	 QWORD PTR [rsp+8], rcx
  0000a	48 83 ec 38	 sub	 rsp, 56			; 00000038H

; 239  :     const char *s;
; 240  : 
; 241  :     if (type->tp_flags & Py_TPFLAGS_HEAPTYPE) {

  0000e	48 8b 44 24 40	 mov	 rax, QWORD PTR type$[rsp]
  00013	8b 80 00 01 00
	00		 mov	 eax, DWORD PTR [rax+256]
  00019	25 00 02 00 00	 and	 eax, 512		; 00000200H
  0001e	85 c0		 test	 eax, eax
  00020	74 2b		 je	 SHORT $LN4@type_name

; 242  :         PyHeapTypeObject* et = (PyHeapTypeObject*)type;

  00022	48 8b 44 24 40	 mov	 rax, QWORD PTR type$[rsp]
  00027	48 89 44 24 28	 mov	 QWORD PTR et$20566[rsp], rax

; 243  : 
; 244  :         Py_INCREF(et->ht_name);

  0002c	48 8b 44 24 28	 mov	 rax, QWORD PTR et$20566[rsp]
  00031	48 8b 88 68 03
	00 00		 mov	 rcx, QWORD PTR [rax+872]
  00038	e8 00 00 00 00	 call	 _Py_IncRef

; 245  :         return et->ht_name;

  0003d	48 8b 44 24 28	 mov	 rax, QWORD PTR et$20566[rsp]
  00042	48 8b 80 68 03
	00 00		 mov	 rax, QWORD PTR [rax+872]
  00049	eb 4a		 jmp	 SHORT $LN5@type_name

; 246  :     }
; 247  :     else {

  0004b	eb 48		 jmp	 SHORT $LN3@type_name
$LN4@type_name:

; 248  :         s = strrchr(type->tp_name, '.');

  0004d	ba 2e 00 00 00	 mov	 edx, 46			; 0000002eH
  00052	48 8b 44 24 40	 mov	 rax, QWORD PTR type$[rsp]
  00057	48 8b 48 70	 mov	 rcx, QWORD PTR [rax+112]
  0005b	ff 15 00 00 00
	00		 call	 QWORD PTR __imp_strrchr
  00061	48 89 44 24 20	 mov	 QWORD PTR s$[rsp], rax

; 249  :         if (s == NULL)

  00066	48 83 7c 24 20
	00		 cmp	 QWORD PTR s$[rsp], 0
  0006c	75 10		 jne	 SHORT $LN2@type_name

; 250  :             s = type->tp_name;

  0006e	48 8b 44 24 40	 mov	 rax, QWORD PTR type$[rsp]
  00073	48 8b 40 70	 mov	 rax, QWORD PTR [rax+112]
  00077	48 89 44 24 20	 mov	 QWORD PTR s$[rsp], rax

; 251  :         else

  0007c	eb 0d		 jmp	 SHORT $LN1@type_name
$LN2@type_name:

; 252  :             s++;

  0007e	48 8b 44 24 20	 mov	 rax, QWORD PTR s$[rsp]
  00083	48 ff c0	 inc	 rax
  00086	48 89 44 24 20	 mov	 QWORD PTR s$[rsp], rax
$LN1@type_name:

; 253  :         return PyUnicode_FromString(s);

  0008b	48 8b 4c 24 20	 mov	 rcx, QWORD PTR s$[rsp]
  00090	e8 00 00 00 00	 call	 PyUnicode_FromString
$LN3@type_name:
$LN5@type_name:

; 254  :     }
; 255  : }

  00095	48 83 c4 38	 add	 rsp, 56			; 00000038H
  00099	c3		 ret	 0
type_name ENDP
_TEXT	ENDS
PUBLIC	??_C@_0L@DHGMCEID@_Py_IncRef?$AA@		; `string'
;	COMDAT pdata
; File c:\src\pyparallel\include\object.h
pdata	SEGMENT
$pdata$_Py_IncRef DD imagerel $LN7
	DD	imagerel $LN7+132
	DD	imagerel $unwind$_Py_IncRef
pdata	ENDS
;	COMDAT xdata
xdata	SEGMENT
$unwind$_Py_IncRef DD 010901H
	DD	06209H
xdata	ENDS
;	COMDAT ??_C@_0L@DHGMCEID@_Py_IncRef?$AA@
CONST	SEGMENT
??_C@_0L@DHGMCEID@_Py_IncRef?$AA@ DB '_Py_IncRef', 00H	; `string'
; Function compile flags: /Odtp
CONST	ENDS
;	COMDAT _Py_IncRef
_TEXT	SEGMENT
op$ = 64
_Py_IncRef PROC						; COMDAT

; 904  : {

$LN7:
  00000	48 89 4c 24 08	 mov	 QWORD PTR [rsp+8], rcx
  00005	48 83 ec 38	 sub	 rsp, 56			; 00000038H

; 905  :     if ((!Py_PXCTX && (Py_ISPY(op) || Px_PERSISTED(op)))) {

  00009	e8 00 00 00 00	 call	 _Py_PXCTX
  0000e	85 c0		 test	 eax, eax
  00010	75 6d		 jne	 SHORT $LN2@Py_IncRef
  00012	c7 44 24 20 02
	00 00 00	 mov	 DWORD PTR [rsp+32], 2
  0001a	4c 8b 4c 24 40	 mov	 r9, QWORD PTR op$[rsp]
  0001f	41 b8 89 03 00
	00		 mov	 r8d, 905		; 00000389H
  00025	48 8d 15 00 00
	00 00		 lea	 rdx, OFFSET FLAT:??_C@_0CD@HDJFDCDP@c?3?2src?2pyparallel?2include?2object@
  0002c	48 8d 0d 00 00
	00 00		 lea	 rcx, OFFSET FLAT:??_C@_0L@DHGMCEID@_Py_IncRef?$AA@
  00033	e8 00 00 00 00	 call	 _PyParallel_Guard
  00038	85 c0		 test	 eax, eax
  0003a	75 12		 jne	 SHORT $LN1@Py_IncRef
  0003c	48 8b 44 24 40	 mov	 rax, QWORD PTR op$[rsp]
  00041	48 8b 40 20	 mov	 rax, QWORD PTR [rax+32]
  00045	48 83 e0 20	 and	 rax, 32			; 00000020H
  00049	48 85 c0	 test	 rax, rax
  0004c	74 31		 je	 SHORT $LN2@Py_IncRef
$LN1@Py_IncRef:

; 906  :         _Py_INC_REFTOTAL;

  0004e	e8 00 00 00 00	 call	 _Py_PXCTX
  00053	85 c0		 test	 eax, eax
  00055	74 02		 je	 SHORT $LN5@Py_IncRef
  00057	eb 11		 jmp	 SHORT $LN6@Py_IncRef
$LN5@Py_IncRef:
  00059	48 8b 05 00 00
	00 00		 mov	 rax, QWORD PTR _Py_RefTotal
  00060	48 ff c0	 inc	 rax
  00063	48 89 05 00 00
	00 00		 mov	 QWORD PTR _Py_RefTotal, rax
$LN6@Py_IncRef:

; 907  :         (((PyObject*)(op))->ob_refcnt++);

  0006a	48 8b 44 24 40	 mov	 rax, QWORD PTR op$[rsp]
  0006f	48 8b 40 50	 mov	 rax, QWORD PTR [rax+80]
  00073	48 ff c0	 inc	 rax
  00076	48 8b 4c 24 40	 mov	 rcx, QWORD PTR op$[rsp]
  0007b	48 89 41 50	 mov	 QWORD PTR [rcx+80], rax
$LN2@Py_IncRef:

; 908  :     }
; 909  : }

  0007f	48 83 c4 38	 add	 rsp, 56			; 00000038H
  00083	c3		 ret	 0
_Py_IncRef ENDP
_TEXT	ENDS
;	COMDAT pdata
; File c:\src\pyparallel\objects\typeobject.c
pdata	SEGMENT
$pdata$type_qualname DD imagerel type_qualname
	DD	imagerel type_qualname+97
	DD	imagerel $unwind$type_qualname
pdata	ENDS
;	COMDAT xdata
xdata	SEGMENT
$unwind$type_qualname DD 010e01H
	DD	0620eH
; Function compile flags: /Odtp
xdata	ENDS
;	COMDAT type_qualname
_TEXT	SEGMENT
et$20580 = 32
type$ = 64
context$ = 72
type_qualname PROC					; COMDAT

; 259  : {

  00000	48 89 54 24 10	 mov	 QWORD PTR [rsp+16], rdx
  00005	48 89 4c 24 08	 mov	 QWORD PTR [rsp+8], rcx
  0000a	48 83 ec 38	 sub	 rsp, 56			; 00000038H

; 260  :     if (type->tp_flags & Py_TPFLAGS_HEAPTYPE) {

  0000e	48 8b 44 24 40	 mov	 rax, QWORD PTR type$[rsp]
  00013	8b 80 00 01 00
	00		 mov	 eax, DWORD PTR [rax+256]
  00019	25 00 02 00 00	 and	 eax, 512		; 00000200H
  0001e	85 c0		 test	 eax, eax
  00020	74 2b		 je	 SHORT $LN2@type_qualn

; 261  :         PyHeapTypeObject* et = (PyHeapTypeObject*)type;

  00022	48 8b 44 24 40	 mov	 rax, QWORD PTR type$[rsp]
  00027	48 89 44 24 20	 mov	 QWORD PTR et$20580[rsp], rax

; 262  :         Py_INCREF(et->ht_qualname);

  0002c	48 8b 44 24 20	 mov	 rax, QWORD PTR et$20580[rsp]
  00031	48 8b 88 78 03
	00 00		 mov	 rcx, QWORD PTR [rax+888]
  00038	e8 00 00 00 00	 call	 _Py_IncRef

; 263  :         return et->ht_qualname;

  0003d	48 8b 44 24 20	 mov	 rax, QWORD PTR et$20580[rsp]
  00042	48 8b 80 78 03
	00 00		 mov	 rax, QWORD PTR [rax+888]
  00049	eb 11		 jmp	 SHORT $LN3@type_qualn

; 264  :     }
; 265  :     else {

  0004b	eb 0f		 jmp	 SHORT $LN1@type_qualn
$LN2@type_qualn:

; 266  :         return type_name(type, context);

  0004d	48 8b 54 24 48	 mov	 rdx, QWORD PTR context$[rsp]
  00052	48 8b 4c 24 40	 mov	 rcx, QWORD PTR type$[rsp]
  00057	e8 00 00 00 00	 call	 type_name
$LN1@type_qualn:
$LN3@type_qualn:

; 267  :     }
; 268  : }

  0005c	48 83 c4 38	 add	 rsp, 56			; 00000038H
  00060	c3		 ret	 0
type_qualname ENDP
_TEXT	ENDS
PUBLIC	??_C@_0CF@CHHLCICM@__name__?5must?5not?5contain?5null?5b@ ; `string'
PUBLIC	??_C@_01LOCGONAA@?$AA?$AA@			; `string'
PUBLIC	??_C@_0DA@PFEBGGEN@can?5only?5assign?5string?5to?5?$CFs?4__n@ ; `string'
EXTRN	PyUnicode_AsUTF8:PROC
EXTRN	PyExc_ValueError:QWORD
EXTRN	PyUnicode_Contains:PROC
EXTRN	PyUnicode_FromStringAndSize:PROC
EXTRN	PyErr_Format:PROC
EXTRN	PyExc_TypeError:QWORD
;	COMDAT pdata
pdata	SEGMENT
$pdata$type_set_name DD imagerel type_set_name
	DD	imagerel type_set_name+350
	DD	imagerel $unwind$type_set_name
pdata	ENDS
;	COMDAT xdata
xdata	SEGMENT
$unwind$type_set_name DD 011301H
	DD	08213H
xdata	ENDS
;	COMDAT ??_C@_0CF@CHHLCICM@__name__?5must?5not?5contain?5null?5b@
CONST	SEGMENT
??_C@_0CF@CHHLCICM@__name__?5must?5not?5contain?5null?5b@ DB '__name__ mu'
	DB	'st not contain null bytes', 00H		; `string'
CONST	ENDS
;	COMDAT ??_C@_01LOCGONAA@?$AA?$AA@
CONST	SEGMENT
??_C@_01LOCGONAA@?$AA?$AA@ DB 00H, 00H			; `string'
CONST	ENDS
;	COMDAT ??_C@_0DA@PFEBGGEN@can?5only?5assign?5string?5to?5?$CFs?4__n@
CONST	SEGMENT
??_C@_0DA@PFEBGGEN@can?5only?5assign?5string?5to?5?$CFs?4__n@ DB 'can onl'
	DB	'y assign string to %s.__name__, not ''%s''', 00H ; `string'
; Function compile flags: /Odtp
CONST	ENDS
;	COMDAT type_set_name
_TEXT	SEGMENT
et$ = 32
tmp$ = 40
tp_name$ = 48
type$ = 80
value$ = 88
context$ = 96
type_set_name PROC					; COMDAT

; 272  : {

  00000	4c 89 44 24 18	 mov	 QWORD PTR [rsp+24], r8
  00005	48 89 54 24 10	 mov	 QWORD PTR [rsp+16], rdx
  0000a	48 89 4c 24 08	 mov	 QWORD PTR [rsp+8], rcx
  0000f	48 83 ec 48	 sub	 rsp, 72			; 00000048H

; 273  :     PyHeapTypeObject* et;
; 274  :     char *tp_name;
; 275  :     PyObject *tmp;
; 276  : 
; 277  :     if (!check_set_special_type_attr(type, value, "__name__"))

  00013	4c 8d 05 00 00
	00 00		 lea	 r8, OFFSET FLAT:??_C@_08BHKDPDAA@__name__?$AA@
  0001a	48 8b 54 24 58	 mov	 rdx, QWORD PTR value$[rsp]
  0001f	48 8b 4c 24 50	 mov	 rcx, QWORD PTR type$[rsp]
  00024	e8 00 00 00 00	 call	 check_set_special_type_attr
  00029	85 c0		 test	 eax, eax
  0002b	75 0a		 jne	 SHORT $LN5@type_set_n

; 278  :         return -1;

  0002d	b8 ff ff ff ff	 mov	 eax, -1
  00032	e9 22 01 00 00	 jmp	 $LN6@type_set_n
$LN5@type_set_n:

; 279  :     if (!PyUnicode_Check(value)) {

  00037	48 8b 44 24 58	 mov	 rax, QWORD PTR value$[rsp]
  0003c	48 8b 40 58	 mov	 rax, QWORD PTR [rax+88]
  00040	8b 80 00 01 00
	00		 mov	 eax, DWORD PTR [rax+256]
  00046	25 00 00 00 10	 and	 eax, 268435456		; 10000000H
  0004b	85 c0		 test	 eax, eax
  0004d	75 33		 jne	 SHORT $LN4@type_set_n

; 280  :         PyErr_Format(PyExc_TypeError,
; 281  :                      "can only assign string to %s.__name__, not '%s'",
; 282  :                      type->tp_name, Py_TYPE(value)->tp_name);

  0004f	48 8b 44 24 58	 mov	 rax, QWORD PTR value$[rsp]
  00054	48 8b 40 58	 mov	 rax, QWORD PTR [rax+88]
  00058	4c 8b 48 70	 mov	 r9, QWORD PTR [rax+112]
  0005c	48 8b 44 24 50	 mov	 rax, QWORD PTR type$[rsp]
  00061	4c 8b 40 70	 mov	 r8, QWORD PTR [rax+112]
  00065	48 8d 15 00 00
	00 00		 lea	 rdx, OFFSET FLAT:??_C@_0DA@PFEBGGEN@can?5only?5assign?5string?5to?5?$CFs?4__n@
  0006c	48 8b 0d 00 00
	00 00		 mov	 rcx, QWORD PTR PyExc_TypeError
  00073	e8 00 00 00 00	 call	 PyErr_Format

; 283  :         return -1;

  00078	b8 ff ff ff ff	 mov	 eax, -1
  0007d	e9 d7 00 00 00	 jmp	 $LN6@type_set_n
$LN4@type_set_n:

; 284  :     }
; 285  : 
; 286  :     /* Check absence of null characters */
; 287  :     tmp = PyUnicode_FromStringAndSize("\0", 1);

  00082	ba 01 00 00 00	 mov	 edx, 1
  00087	48 8d 0d 00 00
	00 00		 lea	 rcx, OFFSET FLAT:??_C@_01LOCGONAA@?$AA?$AA@
  0008e	e8 00 00 00 00	 call	 PyUnicode_FromStringAndSize
  00093	48 89 44 24 28	 mov	 QWORD PTR tmp$[rsp], rax

; 288  :     if (tmp == NULL)

  00098	48 83 7c 24 28
	00		 cmp	 QWORD PTR tmp$[rsp], 0
  0009e	75 0a		 jne	 SHORT $LN3@type_set_n

; 289  :         return -1;

  000a0	b8 ff ff ff ff	 mov	 eax, -1
  000a5	e9 af 00 00 00	 jmp	 $LN6@type_set_n
$LN3@type_set_n:

; 290  :     if (PyUnicode_Contains(value, tmp) != 0) {

  000aa	48 8b 54 24 28	 mov	 rdx, QWORD PTR tmp$[rsp]
  000af	48 8b 4c 24 58	 mov	 rcx, QWORD PTR value$[rsp]
  000b4	e8 00 00 00 00	 call	 PyUnicode_Contains
  000b9	85 c0		 test	 eax, eax
  000bb	74 24		 je	 SHORT $LN2@type_set_n

; 291  :         Py_DECREF(tmp);

  000bd	48 8b 4c 24 28	 mov	 rcx, QWORD PTR tmp$[rsp]
  000c2	e8 00 00 00 00	 call	 _Py_DecRef

; 292  :         PyErr_Format(PyExc_ValueError,
; 293  :                      "__name__ must not contain null bytes");

  000c7	48 8d 15 00 00
	00 00		 lea	 rdx, OFFSET FLAT:??_C@_0CF@CHHLCICM@__name__?5must?5not?5contain?5null?5b@
  000ce	48 8b 0d 00 00
	00 00		 mov	 rcx, QWORD PTR PyExc_ValueError
  000d5	e8 00 00 00 00	 call	 PyErr_Format

; 294  :         return -1;

  000da	b8 ff ff ff ff	 mov	 eax, -1
  000df	eb 78		 jmp	 SHORT $LN6@type_set_n
$LN2@type_set_n:

; 295  :     }
; 296  :     Py_DECREF(tmp);

  000e1	48 8b 4c 24 28	 mov	 rcx, QWORD PTR tmp$[rsp]
  000e6	e8 00 00 00 00	 call	 _Py_DecRef

; 297  : 
; 298  :     tp_name = _PyUnicode_AsString(value);

  000eb	48 8b 4c 24 58	 mov	 rcx, QWORD PTR value$[rsp]
  000f0	e8 00 00 00 00	 call	 PyUnicode_AsUTF8
  000f5	48 89 44 24 30	 mov	 QWORD PTR tp_name$[rsp], rax

; 299  :     if (tp_name == NULL)

  000fa	48 83 7c 24 30
	00		 cmp	 QWORD PTR tp_name$[rsp], 0
  00100	75 07		 jne	 SHORT $LN1@type_set_n

; 300  :         return -1;

  00102	b8 ff ff ff ff	 mov	 eax, -1
  00107	eb 50		 jmp	 SHORT $LN6@type_set_n
$LN1@type_set_n:

; 301  : 
; 302  :     et = (PyHeapTypeObject*)type;

  00109	48 8b 44 24 50	 mov	 rax, QWORD PTR type$[rsp]
  0010e	48 89 44 24 20	 mov	 QWORD PTR et$[rsp], rax

; 303  : 
; 304  :     Py_INCREF(value);

  00113	48 8b 4c 24 58	 mov	 rcx, QWORD PTR value$[rsp]
  00118	e8 00 00 00 00	 call	 _Py_IncRef

; 305  : 
; 306  :     /* Wait until et is a sane state before Py_DECREF'ing the old et->ht_name
; 307  :        value.  (Bug #16447.)  */
; 308  :     tmp = et->ht_name;

  0011d	48 8b 44 24 20	 mov	 rax, QWORD PTR et$[rsp]
  00122	48 8b 80 68 03
	00 00		 mov	 rax, QWORD PTR [rax+872]
  00129	48 89 44 24 28	 mov	 QWORD PTR tmp$[rsp], rax

; 309  :     et->ht_name = value;

  0012e	48 8b 44 24 20	 mov	 rax, QWORD PTR et$[rsp]
  00133	48 8b 4c 24 58	 mov	 rcx, QWORD PTR value$[rsp]
  00138	48 89 88 68 03
	00 00		 mov	 QWORD PTR [rax+872], rcx

; 310  : 
; 311  :     type->tp_name = tp_name;

  0013f	48 8b 44 24 50	 mov	 rax, QWORD PTR type$[rsp]
  00144	48 8b 4c 24 30	 mov	 rcx, QWORD PTR tp_name$[rsp]
  00149	48 89 48 70	 mov	 QWORD PTR [rax+112], rcx

; 312  :     Py_DECREF(tmp);

  0014d	48 8b 4c 24 28	 mov	 rcx, QWORD PTR tmp$[rsp]
  00152	e8 00 00 00 00	 call	 _Py_DecRef

; 313  : 
; 314  :     return 0;

  00157	33 c0		 xor	 eax, eax
$LN6@type_set_n:

; 315  : }

  00159	48 83 c4 48	 add	 rsp, 72			; 00000048H
  0015d	c3		 ret	 0
type_set_name ENDP
_TEXT	ENDS
PUBLIC	??_C@_0BD@GNPKCBL@can?8t?5delete?5?$CFs?4?$CFs?$AA@ ; `string'
PUBLIC	??_C@_0BA@KPNEJFKD@can?8t?5set?5?$CFs?4?$CFs?$AA@ ; `string'
;	COMDAT pdata
pdata	SEGMENT
$pdata$check_set_special_type_attr DD imagerel check_set_special_type_attr
	DD	imagerel check_set_special_type_attr+131
	DD	imagerel $unwind$check_set_special_type_attr
pdata	ENDS
;	COMDAT xdata
xdata	SEGMENT
$unwind$check_set_special_type_attr DD 011301H
	DD	04213H
xdata	ENDS
;	COMDAT ??_C@_0BD@GNPKCBL@can?8t?5delete?5?$CFs?4?$CFs?$AA@
CONST	SEGMENT
??_C@_0BD@GNPKCBL@can?8t?5delete?5?$CFs?4?$CFs?$AA@ DB 'can''t delete %s.'
	DB	'%s', 00H					; `string'
CONST	ENDS
;	COMDAT ??_C@_0BA@KPNEJFKD@can?8t?5set?5?$CFs?4?$CFs?$AA@
CONST	SEGMENT
??_C@_0BA@KPNEJFKD@can?8t?5set?5?$CFs?4?$CFs?$AA@ DB 'can''t set %s.%s', 00H ; `string'
; Function compile flags: /Odtp
CONST	ENDS
;	COMDAT check_set_special_type_attr
_TEXT	SEGMENT
type$ = 48
value$ = 56
name$ = 64
check_set_special_type_attr PROC			; COMDAT

; 222  : {

  00000	4c 89 44 24 18	 mov	 QWORD PTR [rsp+24], r8
  00005	48 89 54 24 10	 mov	 QWORD PTR [rsp+16], rdx
  0000a	48 89 4c 24 08	 mov	 QWORD PTR [rsp+8], rcx
  0000f	48 83 ec 28	 sub	 rsp, 40			; 00000028H

; 223  :     if (!(type->tp_flags & Py_TPFLAGS_HEAPTYPE)) {

  00013	48 8b 44 24 30	 mov	 rax, QWORD PTR type$[rsp]
  00018	8b 80 00 01 00
	00		 mov	 eax, DWORD PTR [rax+256]
  0001e	25 00 02 00 00	 and	 eax, 512		; 00000200H
  00023	85 c0		 test	 eax, eax
  00025	75 25		 jne	 SHORT $LN2@check_set_

; 224  :         PyErr_Format(PyExc_TypeError,
; 225  :                      "can't set %s.%s", type->tp_name, name);

  00027	4c 8b 4c 24 40	 mov	 r9, QWORD PTR name$[rsp]
  0002c	48 8b 44 24 30	 mov	 rax, QWORD PTR type$[rsp]
  00031	4c 8b 40 70	 mov	 r8, QWORD PTR [rax+112]
  00035	48 8d 15 00 00
	00 00		 lea	 rdx, OFFSET FLAT:??_C@_0BA@KPNEJFKD@can?8t?5set?5?$CFs?4?$CFs?$AA@
  0003c	48 8b 0d 00 00
	00 00		 mov	 rcx, QWORD PTR PyExc_TypeError
  00043	e8 00 00 00 00	 call	 PyErr_Format

; 226  :         return 0;

  00048	33 c0		 xor	 eax, eax
  0004a	eb 32		 jmp	 SHORT $LN3@check_set_
$LN2@check_set_:

; 227  :     }
; 228  :     if (!value) {

  0004c	48 83 7c 24 38
	00		 cmp	 QWORD PTR value$[rsp], 0
  00052	75 25		 jne	 SHORT $LN1@check_set_

; 229  :         PyErr_Format(PyExc_TypeError,
; 230  :                      "can't delete %s.%s", type->tp_name, name);

  00054	4c 8b 4c 24 40	 mov	 r9, QWORD PTR name$[rsp]
  00059	48 8b 44 24 30	 mov	 rax, QWORD PTR type$[rsp]
  0005e	4c 8b 40 70	 mov	 r8, QWORD PTR [rax+112]
  00062	48 8d 15 00 00
	00 00		 lea	 rdx, OFFSET FLAT:??_C@_0BD@GNPKCBL@can?8t?5delete?5?$CFs?4?$CFs?$AA@
  00069	48 8b 0d 00 00
	00 00		 mov	 rcx, QWORD PTR PyExc_TypeError
  00070	e8 00 00 00 00	 call	 PyErr_Format

; 231  :         return 0;

  00075	33 c0		 xor	 eax, eax
  00077	eb 05		 jmp	 SHORT $LN3@check_set_
$LN1@check_set_:

; 232  :     }
; 233  :     return 1;

  00079	b8 01 00 00 00	 mov	 eax, 1
$LN3@check_set_:

; 234  : }

  0007e	48 83 c4 28	 add	 rsp, 40			; 00000028H
  00082	c3		 ret	 0
check_set_special_type_attr ENDP
_TEXT	ENDS
PUBLIC	??_C@_0DE@BPFPODOA@can?5only?5assign?5string?5to?5?$CFs?4__q@ ; `string'
;	COMDAT pdata
pdata	SEGMENT
$pdata$type_set_qualname DD imagerel type_set_qualname
	DD	imagerel type_set_qualname+188
	DD	imagerel $unwind$type_set_qualname
pdata	ENDS
;	COMDAT xdata
xdata	SEGMENT
$unwind$type_set_qualname DD 011301H
	DD	06213H
xdata	ENDS
;	COMDAT ??_C@_0DE@BPFPODOA@can?5only?5assign?5string?5to?5?$CFs?4__q@
CONST	SEGMENT
??_C@_0DE@BPFPODOA@can?5only?5assign?5string?5to?5?$CFs?4__q@ DB 'can onl'
	DB	'y assign string to %s.__qualname__, not ''%s''', 00H ; `string'
; Function compile flags: /Odtp
CONST	ENDS
;	COMDAT type_set_qualname
_TEXT	SEGMENT
et$ = 32
type$ = 64
value$ = 72
context$ = 80
type_set_qualname PROC					; COMDAT

; 319  : {

  00000	4c 89 44 24 18	 mov	 QWORD PTR [rsp+24], r8
  00005	48 89 54 24 10	 mov	 QWORD PTR [rsp+16], rdx
  0000a	48 89 4c 24 08	 mov	 QWORD PTR [rsp+8], rcx
  0000f	48 83 ec 38	 sub	 rsp, 56			; 00000038H

; 320  :     PyHeapTypeObject* et;
; 321  : 
; 322  :     if (!check_set_special_type_attr(type, value, "__qualname__"))

  00013	4c 8d 05 00 00
	00 00		 lea	 r8, OFFSET FLAT:??_C@_0N@FMLGAKCE@__qualname__?$AA@
  0001a	48 8b 54 24 48	 mov	 rdx, QWORD PTR value$[rsp]
  0001f	48 8b 4c 24 40	 mov	 rcx, QWORD PTR type$[rsp]
  00024	e8 00 00 00 00	 call	 check_set_special_type_attr
  00029	85 c0		 test	 eax, eax
  0002b	75 0a		 jne	 SHORT $LN2@type_set_q

; 323  :         return -1;

  0002d	b8 ff ff ff ff	 mov	 eax, -1
  00032	e9 80 00 00 00	 jmp	 $LN3@type_set_q
$LN2@type_set_q:

; 324  :     if (!PyUnicode_Check(value)) {

  00037	48 8b 44 24 48	 mov	 rax, QWORD PTR value$[rsp]
  0003c	48 8b 40 58	 mov	 rax, QWORD PTR [rax+88]
  00040	8b 80 00 01 00
	00		 mov	 eax, DWORD PTR [rax+256]
  00046	25 00 00 00 10	 and	 eax, 268435456		; 10000000H
  0004b	85 c0		 test	 eax, eax
  0004d	75 30		 jne	 SHORT $LN1@type_set_q

; 325  :         PyErr_Format(PyExc_TypeError,
; 326  :                      "can only assign string to %s.__qualname__, not '%s'",
; 327  :                      type->tp_name, Py_TYPE(value)->tp_name);

  0004f	48 8b 44 24 48	 mov	 rax, QWORD PTR value$[rsp]
  00054	48 8b 40 58	 mov	 rax, QWORD PTR [rax+88]
  00058	4c 8b 48 70	 mov	 r9, QWORD PTR [rax+112]
  0005c	48 8b 44 24 40	 mov	 rax, QWORD PTR type$[rsp]
  00061	4c 8b 40 70	 mov	 r8, QWORD PTR [rax+112]
  00065	48 8d 15 00 00
	00 00		 lea	 rdx, OFFSET FLAT:??_C@_0DE@BPFPODOA@can?5only?5assign?5string?5to?5?$CFs?4__q@
  0006c	48 8b 0d 00 00
	00 00		 mov	 rcx, QWORD PTR PyExc_TypeError
  00073	e8 00 00 00 00	 call	 PyErr_Format

; 328  :         return -1;

  00078	b8 ff ff ff ff	 mov	 eax, -1
  0007d	eb 38		 jmp	 SHORT $LN3@type_set_q
$LN1@type_set_q:

; 329  :     }
; 330  : 
; 331  :     et = (PyHeapTypeObject*)type;

  0007f	48 8b 44 24 40	 mov	 rax, QWORD PTR type$[rsp]
  00084	48 89 44 24 20	 mov	 QWORD PTR et$[rsp], rax

; 332  :     Py_INCREF(value);

  00089	48 8b 4c 24 48	 mov	 rcx, QWORD PTR value$[rsp]
  0008e	e8 00 00 00 00	 call	 _Py_IncRef

; 333  :     Py_DECREF(et->ht_qualname);

  00093	48 8b 44 24 20	 mov	 rax, QWORD PTR et$[rsp]
  00098	48 8b 88 78 03
	00 00		 mov	 rcx, QWORD PTR [rax+888]
  0009f	e8 00 00 00 00	 call	 _Py_DecRef

; 334  :     et->ht_qualname = value;

  000a4	48 8b 44 24 20	 mov	 rax, QWORD PTR et$[rsp]
  000a9	48 8b 4c 24 48	 mov	 rcx, QWORD PTR value$[rsp]
  000ae	48 89 88 78 03
	00 00		 mov	 QWORD PTR [rax+888], rcx

; 335  :     return 0;

  000b5	33 c0		 xor	 eax, eax
$LN3@type_set_q:

; 336  : }

  000b7	48 83 c4 38	 add	 rsp, 56			; 00000038H
  000bb	c3		 ret	 0
type_set_qualname ENDP
_TEXT	ENDS
PUBLIC	??_C@_08OCOMCJAJ@builtins?$AA@			; `string'
EXTRN	PyExc_AttributeError:QWORD
EXTRN	_PyDict_GetItemId:PROC
EXTRN	_tls_index:DWORD
;	COMDAT pdata
pdata	SEGMENT
$pdata$type_module DD imagerel type_module
	DD	imagerel type_module+238
	DD	imagerel $unwind$type_module
pdata	ENDS
;	COMDAT xdata
xdata	SEGMENT
$unwind$type_module DD 010e01H
	DD	0620eH
xdata	ENDS
;	COMDAT ??_C@_08OCOMCJAJ@builtins?$AA@
CONST	SEGMENT
??_C@_08OCOMCJAJ@builtins?$AA@ DB 'builtins', 00H	; `string'
; Function compile flags: /Odtp
CONST	ENDS
;	COMDAT type_module
_TEXT	SEGMENT
s$ = 32
mod$ = 40
type$ = 64
context$ = 72
type_module PROC					; COMDAT

; 340  : {

  00000	48 89 54 24 10	 mov	 QWORD PTR [rsp+16], rdx
  00005	48 89 4c 24 08	 mov	 QWORD PTR [rsp+8], rcx
  0000a	48 83 ec 38	 sub	 rsp, 56			; 00000038H

; 341  :     PyObject *mod;
; 342  :     char *s;
; 343  : 
; 344  :     if (type->tp_flags & Py_TPFLAGS_HEAPTYPE) {

  0000e	48 8b 44 24 40	 mov	 rax, QWORD PTR type$[rsp]
  00013	8b 80 00 01 00
	00		 mov	 eax, DWORD PTR [rax+256]
  00019	25 00 02 00 00	 and	 eax, 512		; 00000200H
  0001e	85 c0		 test	 eax, eax
  00020	74 73		 je	 SHORT $LN8@type_modul

; 345  :         mod = _PyDict_GetItemId(type->tp_dict, &PyId___module__);

  00022	b8 00 00 00 00	 mov	 eax, OFFSET FLAT:PyId___module__
  00027	8b c0		 mov	 eax, eax
  00029	8b 0d 00 00 00
	00		 mov	 ecx, DWORD PTR _tls_index
  0002f	65 48 8b 14 25
	58 00 00 00	 mov	 rdx, QWORD PTR gs:88
  00038	48 03 04 ca	 add	 rax, QWORD PTR [rdx+rcx*8]
  0003c	48 8b d0	 mov	 rdx, rax
  0003f	48 8b 44 24 40	 mov	 rax, QWORD PTR type$[rsp]
  00044	48 8b 88 60 01
	00 00		 mov	 rcx, QWORD PTR [rax+352]
  0004b	e8 00 00 00 00	 call	 _PyDict_GetItemId
  00050	48 89 44 24 28	 mov	 QWORD PTR mod$[rsp], rax

; 346  :         if (!mod) {

  00055	48 83 7c 24 28
	00		 cmp	 QWORD PTR mod$[rsp], 0
  0005b	75 17		 jne	 SHORT $LN7@type_modul

; 347  :             PyErr_Format(PyExc_AttributeError, "__module__");

  0005d	48 8d 15 00 00
	00 00		 lea	 rdx, OFFSET FLAT:??_C@_0L@LNCJCPDP@__module__?$AA@
  00064	48 8b 0d 00 00
	00 00		 mov	 rcx, QWORD PTR PyExc_AttributeError
  0006b	e8 00 00 00 00	 call	 PyErr_Format

; 348  :             return 0;

  00070	33 c0		 xor	 eax, eax
  00072	eb 75		 jmp	 SHORT $LN9@type_modul
$LN7@type_modul:
$LN6@type_modul:

; 349  :         }
; 350  :         Py_XINCREF(mod);

  00074	48 83 7c 24 28
	00		 cmp	 QWORD PTR mod$[rsp], 0
  0007a	74 0a		 je	 SHORT $LN3@type_modul
  0007c	48 8b 4c 24 28	 mov	 rcx, QWORD PTR mod$[rsp]
  00081	e8 00 00 00 00	 call	 _Py_IncRef
$LN3@type_modul:
  00086	33 c0		 xor	 eax, eax
  00088	85 c0		 test	 eax, eax
  0008a	75 e8		 jne	 SHORT $LN6@type_modul

; 351  :         return mod;

  0008c	48 8b 44 24 28	 mov	 rax, QWORD PTR mod$[rsp]
  00091	eb 56		 jmp	 SHORT $LN9@type_modul

; 352  :     }
; 353  :     else {

  00093	eb 54		 jmp	 SHORT $LN2@type_modul
$LN8@type_modul:

; 354  :         s = strrchr(type->tp_name, '.');

  00095	ba 2e 00 00 00	 mov	 edx, 46			; 0000002eH
  0009a	48 8b 44 24 40	 mov	 rax, QWORD PTR type$[rsp]
  0009f	48 8b 48 70	 mov	 rcx, QWORD PTR [rax+112]
  000a3	ff 15 00 00 00
	00		 call	 QWORD PTR __imp_strrchr
  000a9	48 89 44 24 20	 mov	 QWORD PTR s$[rsp], rax

; 355  :         if (s != NULL)

  000ae	48 83 7c 24 20
	00		 cmp	 QWORD PTR s$[rsp], 0
  000b4	74 27		 je	 SHORT $LN1@type_modul

; 356  :             return PyUnicode_FromStringAndSize(
; 357  :                 type->tp_name, (Py_ssize_t)(s - type->tp_name));

  000b6	48 8b 44 24 40	 mov	 rax, QWORD PTR type$[rsp]
  000bb	48 8b 40 70	 mov	 rax, QWORD PTR [rax+112]
  000bf	48 8b 4c 24 20	 mov	 rcx, QWORD PTR s$[rsp]
  000c4	48 2b c8	 sub	 rcx, rax
  000c7	48 8b c1	 mov	 rax, rcx
  000ca	48 8b d0	 mov	 rdx, rax
  000cd	48 8b 44 24 40	 mov	 rax, QWORD PTR type$[rsp]
  000d2	48 8b 48 70	 mov	 rcx, QWORD PTR [rax+112]
  000d6	e8 00 00 00 00	 call	 PyUnicode_FromStringAndSize
  000db	eb 0c		 jmp	 SHORT $LN9@type_modul
$LN1@type_modul:

; 358  :         return PyUnicode_FromString("builtins");

  000dd	48 8d 0d 00 00
	00 00		 lea	 rcx, OFFSET FLAT:??_C@_08OCOMCJAJ@builtins?$AA@
  000e4	e8 00 00 00 00	 call	 PyUnicode_FromString
$LN2@type_modul:
$LN9@type_modul:

; 359  :     }
; 360  : }

  000e9	48 83 c4 38	 add	 rsp, 56			; 00000038H
  000ed	c3		 ret	 0
type_module ENDP
_TEXT	ENDS
EXTRN	_PyDict_SetItemId:PROC
;	COMDAT pdata
pdata	SEGMENT
$pdata$type_set_module DD imagerel type_set_module
	DD	imagerel type_set_module+118
	DD	imagerel $unwind$type_set_module
pdata	ENDS
;	COMDAT xdata
xdata	SEGMENT
$unwind$type_set_module DD 011301H
	DD	04213H
; Function compile flags: /Odtp
xdata	ENDS
;	COMDAT type_set_module
_TEXT	SEGMENT
type$ = 48
value$ = 56
context$ = 64
type_set_module PROC					; COMDAT

; 364  : {

  00000	4c 89 44 24 18	 mov	 QWORD PTR [rsp+24], r8
  00005	48 89 54 24 10	 mov	 QWORD PTR [rsp+16], rdx
  0000a	48 89 4c 24 08	 mov	 QWORD PTR [rsp+8], rcx
  0000f	48 83 ec 28	 sub	 rsp, 40			; 00000028H

; 365  :     if (!check_set_special_type_attr(type, value, "__module__"))

  00013	4c 8d 05 00 00
	00 00		 lea	 r8, OFFSET FLAT:??_C@_0L@LNCJCPDP@__module__?$AA@
  0001a	48 8b 54 24 38	 mov	 rdx, QWORD PTR value$[rsp]
  0001f	48 8b 4c 24 30	 mov	 rcx, QWORD PTR type$[rsp]
  00024	e8 00 00 00 00	 call	 check_set_special_type_attr
  00029	85 c0		 test	 eax, eax
  0002b	75 07		 jne	 SHORT $LN1@type_set_m

; 366  :         return -1;

  0002d	b8 ff ff ff ff	 mov	 eax, -1
  00032	eb 3d		 jmp	 SHORT $LN2@type_set_m
$LN1@type_set_m:

; 367  : 
; 368  :     PyType_Modified(type);

  00034	48 8b 4c 24 30	 mov	 rcx, QWORD PTR type$[rsp]
  00039	e8 00 00 00 00	 call	 PyType_Modified

; 369  : 
; 370  :     return _PyDict_SetItemId(type->tp_dict, &PyId___module__, value);

  0003e	b8 00 00 00 00	 mov	 eax, OFFSET FLAT:PyId___module__
  00043	8b c0		 mov	 eax, eax
  00045	8b 0d 00 00 00
	00		 mov	 ecx, DWORD PTR _tls_index
  0004b	65 48 8b 14 25
	58 00 00 00	 mov	 rdx, QWORD PTR gs:88
  00054	48 03 04 ca	 add	 rax, QWORD PTR [rdx+rcx*8]
  00058	4c 8b 44 24 38	 mov	 r8, QWORD PTR value$[rsp]
  0005d	48 8b d0	 mov	 rdx, rax
  00060	48 8b 44 24 30	 mov	 rax, QWORD PTR type$[rsp]
  00065	48 8b 88 60 01
	00 00		 mov	 rcx, QWORD PTR [rax+352]
  0006c	e8 00 00 00 00	 call	 _PyDict_SetItemId
$LN2@type_set_m:

; 371  : }

  00071	48 83 c4 28	 add	 rsp, 40			; 00000028H
  00075	c3		 ret	 0
type_set_module ENDP
_TEXT	ENDS
EXTRN	PyErr_SetString:PROC
EXTRN	PyDict_GetItemString:PROC
;	COMDAT pdata
pdata	SEGMENT
$pdata$type_abstractmethods DD imagerel type_abstractmethods
	DD	imagerel type_abstractmethods+131
	DD	imagerel $unwind$type_abstractmethods
pdata	ENDS
;	COMDAT xdata
xdata	SEGMENT
$unwind$type_abstractmethods DD 010e01H
	DD	0620eH
; Function compile flags: /Odtp
xdata	ENDS
;	COMDAT type_abstractmethods
_TEXT	SEGMENT
mod$ = 32
type$ = 64
context$ = 72
type_abstractmethods PROC				; COMDAT

; 375  : {

  00000	48 89 54 24 10	 mov	 QWORD PTR [rsp+16], rdx
  00005	48 89 4c 24 08	 mov	 QWORD PTR [rsp+8], rcx
  0000a	48 83 ec 38	 sub	 rsp, 56			; 00000038H

; 376  :     PyObject *mod = NULL;

  0000e	48 c7 44 24 20
	00 00 00 00	 mov	 QWORD PTR mod$[rsp], 0

; 377  :     /* type itself has an __abstractmethods__ descriptor (this). Don't return
; 378  :        that. */
; 379  :     if (type != &PyType_Type)

  00017	48 8d 05 00 00
	00 00		 lea	 rax, OFFSET FLAT:PyType_Type
  0001e	48 39 44 24 40	 cmp	 QWORD PTR type$[rsp], rax
  00023	74 1d		 je	 SHORT $LN6@type_abstr

; 380  :         mod = PyDict_GetItemString(type->tp_dict, "__abstractmethods__");

  00025	48 8d 15 00 00
	00 00		 lea	 rdx, OFFSET FLAT:??_C@_0BE@EMDECJMP@__abstractmethods__?$AA@
  0002c	48 8b 44 24 40	 mov	 rax, QWORD PTR type$[rsp]
  00031	48 8b 88 60 01
	00 00		 mov	 rcx, QWORD PTR [rax+352]
  00038	e8 00 00 00 00	 call	 PyDict_GetItemString
  0003d	48 89 44 24 20	 mov	 QWORD PTR mod$[rsp], rax
$LN6@type_abstr:

; 381  :     if (!mod) {

  00042	48 83 7c 24 20
	00		 cmp	 QWORD PTR mod$[rsp], 0
  00048	75 17		 jne	 SHORT $LN5@type_abstr

; 382  :         PyErr_SetString(PyExc_AttributeError, "__abstractmethods__");

  0004a	48 8d 15 00 00
	00 00		 lea	 rdx, OFFSET FLAT:??_C@_0BE@EMDECJMP@__abstractmethods__?$AA@
  00051	48 8b 0d 00 00
	00 00		 mov	 rcx, QWORD PTR PyExc_AttributeError
  00058	e8 00 00 00 00	 call	 PyErr_SetString

; 383  :         return NULL;

  0005d	33 c0		 xor	 eax, eax
  0005f	eb 1d		 jmp	 SHORT $LN7@type_abstr
$LN5@type_abstr:
$LN4@type_abstr:

; 384  :     }
; 385  :     Py_XINCREF(mod);

  00061	48 83 7c 24 20
	00		 cmp	 QWORD PTR mod$[rsp], 0
  00067	74 0a		 je	 SHORT $LN1@type_abstr
  00069	48 8b 4c 24 20	 mov	 rcx, QWORD PTR mod$[rsp]
  0006e	e8 00 00 00 00	 call	 _Py_IncRef
$LN1@type_abstr:
  00073	33 c0		 xor	 eax, eax
  00075	85 c0		 test	 eax, eax
  00077	75 e8		 jne	 SHORT $LN4@type_abstr

; 386  :     return mod;

  00079	48 8b 44 24 20	 mov	 rax, QWORD PTR mod$[rsp]
$LN7@type_abstr:

; 387  : }

  0007e	48 83 c4 38	 add	 rsp, 56			; 00000038H
  00082	c3		 ret	 0
type_abstractmethods ENDP
_TEXT	ENDS
EXTRN	PyErr_ExceptionMatches:PROC
EXTRN	PyExc_KeyError:QWORD
EXTRN	PyDict_DelItemString:PROC
EXTRN	PyDict_SetItemString:PROC
EXTRN	PyObject_IsTrue:PROC
;	COMDAT pdata
pdata	SEGMENT
$pdata$type_set_abstractmethods DD imagerel type_set_abstractmethods
	DD	imagerel type_set_abstractmethods+265
	DD	imagerel $unwind$type_set_abstractmethods
pdata	ENDS
;	COMDAT xdata
xdata	SEGMENT
$unwind$type_set_abstractmethods DD 011301H
	DD	06213H
; Function compile flags: /Odtp
xdata	ENDS
;	COMDAT type_set_abstractmethods
_TEXT	SEGMENT
res$ = 32
abstract$ = 36
type$ = 64
value$ = 72
context$ = 80
type_set_abstractmethods PROC				; COMDAT

; 391  : {

  00000	4c 89 44 24 18	 mov	 QWORD PTR [rsp+24], r8
  00005	48 89 54 24 10	 mov	 QWORD PTR [rsp+16], rdx
  0000a	48 89 4c 24 08	 mov	 QWORD PTR [rsp+8], rcx
  0000f	48 83 ec 38	 sub	 rsp, 56			; 00000038H

; 392  :     /* __abstractmethods__ should only be set once on a type, in
; 393  :        abc.ABCMeta.__new__, so this function doesn't do anything
; 394  :        special to update subclasses.
; 395  :     */
; 396  :     int abstract, res;
; 397  :     if (value != NULL) {

  00013	48 83 7c 24 48
	00		 cmp	 QWORD PTR value$[rsp], 0
  00019	74 42		 je	 SHORT $LN7@type_set_a

; 398  :         abstract = PyObject_IsTrue(value);

  0001b	48 8b 4c 24 48	 mov	 rcx, QWORD PTR value$[rsp]
  00020	e8 00 00 00 00	 call	 PyObject_IsTrue
  00025	89 44 24 24	 mov	 DWORD PTR abstract$[rsp], eax

; 399  :         if (abstract < 0)

  00029	83 7c 24 24 00	 cmp	 DWORD PTR abstract$[rsp], 0
  0002e	7d 0a		 jge	 SHORT $LN6@type_set_a

; 400  :             return -1;

  00030	b8 ff ff ff ff	 mov	 eax, -1
  00035	e9 ca 00 00 00	 jmp	 $LN8@type_set_a
$LN6@type_set_a:

; 401  :         res = PyDict_SetItemString(type->tp_dict, "__abstractmethods__", value);

  0003a	4c 8b 44 24 48	 mov	 r8, QWORD PTR value$[rsp]
  0003f	48 8d 15 00 00
	00 00		 lea	 rdx, OFFSET FLAT:??_C@_0BE@EMDECJMP@__abstractmethods__?$AA@
  00046	48 8b 44 24 40	 mov	 rax, QWORD PTR type$[rsp]
  0004b	48 8b 88 60 01
	00 00		 mov	 rcx, QWORD PTR [rax+352]
  00052	e8 00 00 00 00	 call	 PyDict_SetItemString
  00057	89 44 24 20	 mov	 DWORD PTR res$[rsp], eax

; 402  :     }
; 403  :     else {

  0005b	eb 55		 jmp	 SHORT $LN5@type_set_a
$LN7@type_set_a:

; 404  :         abstract = 0;

  0005d	c7 44 24 24 00
	00 00 00	 mov	 DWORD PTR abstract$[rsp], 0

; 405  :         res = PyDict_DelItemString(type->tp_dict, "__abstractmethods__");

  00065	48 8d 15 00 00
	00 00		 lea	 rdx, OFFSET FLAT:??_C@_0BE@EMDECJMP@__abstractmethods__?$AA@
  0006c	48 8b 44 24 40	 mov	 rax, QWORD PTR type$[rsp]
  00071	48 8b 88 60 01
	00 00		 mov	 rcx, QWORD PTR [rax+352]
  00078	e8 00 00 00 00	 call	 PyDict_DelItemString
  0007d	89 44 24 20	 mov	 DWORD PTR res$[rsp], eax

; 406  :         if (res && PyErr_ExceptionMatches(PyExc_KeyError)) {

  00081	83 7c 24 20 00	 cmp	 DWORD PTR res$[rsp], 0
  00086	74 2a		 je	 SHORT $LN4@type_set_a
  00088	48 8b 0d 00 00
	00 00		 mov	 rcx, QWORD PTR PyExc_KeyError
  0008f	e8 00 00 00 00	 call	 PyErr_ExceptionMatches
  00094	85 c0		 test	 eax, eax
  00096	74 1a		 je	 SHORT $LN4@type_set_a

; 407  :             PyErr_SetString(PyExc_AttributeError, "__abstractmethods__");

  00098	48 8d 15 00 00
	00 00		 lea	 rdx, OFFSET FLAT:??_C@_0BE@EMDECJMP@__abstractmethods__?$AA@
  0009f	48 8b 0d 00 00
	00 00		 mov	 rcx, QWORD PTR PyExc_AttributeError
  000a6	e8 00 00 00 00	 call	 PyErr_SetString

; 408  :             return -1;

  000ab	b8 ff ff ff ff	 mov	 eax, -1
  000b0	eb 52		 jmp	 SHORT $LN8@type_set_a
$LN4@type_set_a:
$LN5@type_set_a:

; 409  :         }
; 410  :     }
; 411  :     if (res == 0) {

  000b2	83 7c 24 20 00	 cmp	 DWORD PTR res$[rsp], 0
  000b7	75 47		 jne	 SHORT $LN3@type_set_a

; 412  :         PyType_Modified(type);

  000b9	48 8b 4c 24 40	 mov	 rcx, QWORD PTR type$[rsp]
  000be	e8 00 00 00 00	 call	 PyType_Modified

; 413  :         if (abstract)

  000c3	83 7c 24 24 00	 cmp	 DWORD PTR abstract$[rsp], 0
  000c8	74 1c		 je	 SHORT $LN2@type_set_a

; 414  :             type->tp_flags |= Py_TPFLAGS_IS_ABSTRACT;

  000ca	48 8b 44 24 40	 mov	 rax, QWORD PTR type$[rsp]
  000cf	8b 80 00 01 00
	00		 mov	 eax, DWORD PTR [rax+256]
  000d5	0f ba e8 14	 bts	 eax, 20
  000d9	48 8b 4c 24 40	 mov	 rcx, QWORD PTR type$[rsp]
  000de	89 81 00 01 00
	00		 mov	 DWORD PTR [rcx+256], eax

; 415  :         else

  000e4	eb 1a		 jmp	 SHORT $LN1@type_set_a
$LN2@type_set_a:

; 416  :             type->tp_flags &= ~Py_TPFLAGS_IS_ABSTRACT;

  000e6	48 8b 44 24 40	 mov	 rax, QWORD PTR type$[rsp]
  000eb	8b 80 00 01 00
	00		 mov	 eax, DWORD PTR [rax+256]
  000f1	0f ba f0 14	 btr	 eax, 20
  000f5	48 8b 4c 24 40	 mov	 rcx, QWORD PTR type$[rsp]
  000fa	89 81 00 01 00
	00		 mov	 DWORD PTR [rcx+256], eax
$LN1@type_set_a:
$LN3@type_set_a:

; 417  :     }
; 418  :     return res;

  00100	8b 44 24 20	 mov	 eax, DWORD PTR res$[rsp]
$LN8@type_set_a:

; 419  : }

  00104	48 83 c4 38	 add	 rsp, 56			; 00000038H
  00108	c3		 ret	 0
type_set_abstractmethods ENDP
_TEXT	ENDS
;	COMDAT pdata
pdata	SEGMENT
$pdata$type_get_bases DD imagerel type_get_bases
	DD	imagerel type_get_bases+48
	DD	imagerel $unwind$type_get_bases
pdata	ENDS
;	COMDAT xdata
xdata	SEGMENT
$unwind$type_get_bases DD 010e01H
	DD	0420eH
; Function compile flags: /Odtp
xdata	ENDS
;	COMDAT type_get_bases
_TEXT	SEGMENT
type$ = 48
context$ = 56
type_get_bases PROC					; COMDAT

; 423  : {

  00000	48 89 54 24 10	 mov	 QWORD PTR [rsp+16], rdx
  00005	48 89 4c 24 08	 mov	 QWORD PTR [rsp+8], rcx
  0000a	48 83 ec 28	 sub	 rsp, 40			; 00000028H

; 424  :     Py_INCREF(type->tp_bases);

  0000e	48 8b 44 24 30	 mov	 rax, QWORD PTR type$[rsp]
  00013	48 8b 88 a8 01
	00 00		 mov	 rcx, QWORD PTR [rax+424]
  0001a	e8 00 00 00 00	 call	 _Py_IncRef

; 425  :     return type->tp_bases;

  0001f	48 8b 44 24 30	 mov	 rax, QWORD PTR type$[rsp]
  00024	48 8b 80 a8 01
	00 00		 mov	 rax, QWORD PTR [rax+424]

; 426  : }

  0002b	48 83 c4 28	 add	 rsp, 40			; 00000028H
  0002f	c3		 ret	 0
type_get_bases ENDP
_TEXT	ENDS
PUBLIC	??_C@_0CN@FHOLHLPH@a?5__bases__?5item?5causes?5an?5inher@ ; `string'
PUBLIC	PyType_IsSubtype
PUBLIC	??_C@_0DA@KMPAJIL@?$CFs?4__bases__?5must?5be?5tuple?5of?5cl@ ; `string'
PUBLIC	??_C@_0DI@HBHDIBPC@can?5only?5assign?5non?9empty?5tuple?5@ ; `string'
PUBLIC	??_C@_0CO@NIHOFPCP@can?5only?5assign?5tuple?5to?5?$CFs?4__ba@ ; `string'
EXTRN	PyArg_UnpackTuple:PROC
EXTRN	PyList_Size:PROC
EXTRN	PyList_New:PROC
;	COMDAT pdata
pdata	SEGMENT
$pdata$type_set_bases DD imagerel type_set_bases
	DD	imagerel type_set_bases+1324
	DD	imagerel $unwind$type_set_bases
pdata	ENDS
;	COMDAT xdata
xdata	SEGMENT
$unwind$type_set_bases DD 021601H
	DD	0110116H
xdata	ENDS
;	COMDAT ??_C@_0CN@FHOLHLPH@a?5__bases__?5item?5causes?5an?5inher@
CONST	SEGMENT
??_C@_0CN@FHOLHLPH@a?5__bases__?5item?5causes?5an?5inher@ DB 'a __bases__'
	DB	' item causes an inheritance cycle', 00H	; `string'
CONST	ENDS
;	COMDAT ??_C@_0DA@KMPAJIL@?$CFs?4__bases__?5must?5be?5tuple?5of?5cl@
CONST	SEGMENT
??_C@_0DA@KMPAJIL@?$CFs?4__bases__?5must?5be?5tuple?5of?5cl@ DB '%s.__bas'
	DB	'es__ must be tuple of classes, not ''%s''', 00H ; `string'
CONST	ENDS
;	COMDAT ??_C@_0DI@HBHDIBPC@can?5only?5assign?5non?9empty?5tuple?5@
CONST	SEGMENT
??_C@_0DI@HBHDIBPC@can?5only?5assign?5non?9empty?5tuple?5@ DB 'can only a'
	DB	'ssign non-empty tuple to %s.__bases__, not ()', 00H ; `string'
CONST	ENDS
;	COMDAT ??_C@_0CO@NIHOFPCP@can?5only?5assign?5tuple?5to?5?$CFs?4__ba@
CONST	SEGMENT
??_C@_0CO@NIHOFPCP@can?5only?5assign?5tuple?5to?5?$CFs?4__ba@ DB 'can onl'
	DB	'y assign tuple to %s.__bases__, not %s', 00H ; `string'
; Function compile flags: /Odtp
CONST	ENDS
;	COMDAT type_set_bases
_TEXT	SEGMENT
old_bases$ = 48
i$ = 56
old_mro$ = 64
temp$ = 72
ob$ = 80
new_base$ = 88
r$ = 96
old_base$ = 104
mro$20833 = 112
cls$20832 = 120
type$ = 144
value$ = 152
context$ = 160
type_set_bases PROC					; COMDAT

; 484  : {

  00000	4c 89 44 24 18	 mov	 QWORD PTR [rsp+24], r8
  00005	48 89 54 24 10	 mov	 QWORD PTR [rsp+16], rdx
  0000a	48 89 4c 24 08	 mov	 QWORD PTR [rsp+8], rcx
  0000f	48 81 ec 88 00
	00 00		 sub	 rsp, 136		; 00000088H

; 485  :     Py_ssize_t i;
; 486  :     int r = 0;

  00016	c7 44 24 60 00
	00 00 00	 mov	 DWORD PTR r$[rsp], 0

; 487  :     PyObject *ob, *temp;
; 488  :     PyTypeObject *new_base, *old_base;
; 489  :     PyObject *old_bases, *old_mro;
; 490  : 
; 491  :     if (!check_set_special_type_attr(type, value, "__bases__"))

  0001e	4c 8d 05 00 00
	00 00		 lea	 r8, OFFSET FLAT:??_C@_09LJKDIEEK@__bases__?$AA@
  00025	48 8b 94 24 98
	00 00 00	 mov	 rdx, QWORD PTR value$[rsp]
  0002d	48 8b 8c 24 90
	00 00 00	 mov	 rcx, QWORD PTR type$[rsp]
  00035	e8 00 00 00 00	 call	 check_set_special_type_attr
  0003a	85 c0		 test	 eax, eax
  0003c	75 0a		 jne	 SHORT $LN26@type_set_b

; 492  :         return -1;

  0003e	b8 ff ff ff ff	 mov	 eax, -1
  00043	e9 dc 04 00 00	 jmp	 $LN27@type_set_b
$LN26@type_set_b:

; 493  :     if (!PyTuple_Check(value)) {

  00048	48 8b 84 24 98
	00 00 00	 mov	 rax, QWORD PTR value$[rsp]
  00050	48 8b 40 58	 mov	 rax, QWORD PTR [rax+88]
  00054	8b 80 00 01 00
	00		 mov	 eax, DWORD PTR [rax+256]
  0005a	25 00 00 00 04	 and	 eax, 67108864		; 04000000H
  0005f	85 c0		 test	 eax, eax
  00061	75 39		 jne	 SHORT $LN25@type_set_b

; 494  :         PyErr_Format(PyExc_TypeError,
; 495  :              "can only assign tuple to %s.__bases__, not %s",
; 496  :                  type->tp_name, Py_TYPE(value)->tp_name);

  00063	48 8b 84 24 98
	00 00 00	 mov	 rax, QWORD PTR value$[rsp]
  0006b	48 8b 40 58	 mov	 rax, QWORD PTR [rax+88]
  0006f	4c 8b 48 70	 mov	 r9, QWORD PTR [rax+112]
  00073	48 8b 84 24 90
	00 00 00	 mov	 rax, QWORD PTR type$[rsp]
  0007b	4c 8b 40 70	 mov	 r8, QWORD PTR [rax+112]
  0007f	48 8d 15 00 00
	00 00		 lea	 rdx, OFFSET FLAT:??_C@_0CO@NIHOFPCP@can?5only?5assign?5tuple?5to?5?$CFs?4__ba@
  00086	48 8b 0d 00 00
	00 00		 mov	 rcx, QWORD PTR PyExc_TypeError
  0008d	e8 00 00 00 00	 call	 PyErr_Format

; 497  :         return -1;

  00092	b8 ff ff ff ff	 mov	 eax, -1
  00097	e9 88 04 00 00	 jmp	 $LN27@type_set_b
$LN25@type_set_b:

; 498  :     }
; 499  :     if (PyTuple_GET_SIZE(value) == 0) {

  0009c	48 8b 84 24 98
	00 00 00	 mov	 rax, QWORD PTR value$[rsp]
  000a4	48 83 78 60 00	 cmp	 QWORD PTR [rax+96], 0
  000a9	75 29		 jne	 SHORT $LN24@type_set_b

; 500  :         PyErr_Format(PyExc_TypeError,
; 501  :              "can only assign non-empty tuple to %s.__bases__, not ()",
; 502  :                  type->tp_name);

  000ab	48 8b 84 24 90
	00 00 00	 mov	 rax, QWORD PTR type$[rsp]
  000b3	4c 8b 40 70	 mov	 r8, QWORD PTR [rax+112]
  000b7	48 8d 15 00 00
	00 00		 lea	 rdx, OFFSET FLAT:??_C@_0DI@HBHDIBPC@can?5only?5assign?5non?9empty?5tuple?5@
  000be	48 8b 0d 00 00
	00 00		 mov	 rcx, QWORD PTR PyExc_TypeError
  000c5	e8 00 00 00 00	 call	 PyErr_Format

; 503  :         return -1;

  000ca	b8 ff ff ff ff	 mov	 eax, -1
  000cf	e9 50 04 00 00	 jmp	 $LN27@type_set_b
$LN24@type_set_b:

; 504  :     }
; 505  :     for (i = 0; i < PyTuple_GET_SIZE(value); i++) {

  000d4	48 c7 44 24 38
	00 00 00 00	 mov	 QWORD PTR i$[rsp], 0
  000dd	eb 0d		 jmp	 SHORT $LN23@type_set_b
$LN22@type_set_b:
  000df	48 8b 44 24 38	 mov	 rax, QWORD PTR i$[rsp]
  000e4	48 ff c0	 inc	 rax
  000e7	48 89 44 24 38	 mov	 QWORD PTR i$[rsp], rax
$LN23@type_set_b:
  000ec	48 8b 84 24 98
	00 00 00	 mov	 rax, QWORD PTR value$[rsp]
  000f4	48 8b 40 60	 mov	 rax, QWORD PTR [rax+96]
  000f8	48 39 44 24 38	 cmp	 QWORD PTR i$[rsp], rax
  000fd	0f 8d 9d 00 00
	00		 jge	 $LN21@type_set_b

; 506  :         ob = PyTuple_GET_ITEM(value, i);

  00103	48 8b 84 24 98
	00 00 00	 mov	 rax, QWORD PTR value$[rsp]
  0010b	48 8b 4c 24 38	 mov	 rcx, QWORD PTR i$[rsp]
  00110	48 8b 44 c8 70	 mov	 rax, QWORD PTR [rax+rcx*8+112]
  00115	48 89 44 24 50	 mov	 QWORD PTR ob$[rsp], rax

; 507  :         if (!PyType_Check(ob)) {

  0011a	48 8b 44 24 50	 mov	 rax, QWORD PTR ob$[rsp]
  0011f	48 8b 40 58	 mov	 rax, QWORD PTR [rax+88]
  00123	8b 80 00 01 00
	00		 mov	 eax, DWORD PTR [rax+256]
  00129	25 00 00 00 80	 and	 eax, -2147483648	; ffffffff80000000H
  0012e	85 c0		 test	 eax, eax
  00130	75 36		 jne	 SHORT $LN20@type_set_b

; 508  :             PyErr_Format(PyExc_TypeError,
; 509  :                          "%s.__bases__ must be tuple of classes, not '%s'",
; 510  :                          type->tp_name, Py_TYPE(ob)->tp_name);

  00132	48 8b 44 24 50	 mov	 rax, QWORD PTR ob$[rsp]
  00137	48 8b 40 58	 mov	 rax, QWORD PTR [rax+88]
  0013b	4c 8b 48 70	 mov	 r9, QWORD PTR [rax+112]
  0013f	48 8b 84 24 90
	00 00 00	 mov	 rax, QWORD PTR type$[rsp]
  00147	4c 8b 40 70	 mov	 r8, QWORD PTR [rax+112]
  0014b	48 8d 15 00 00
	00 00		 lea	 rdx, OFFSET FLAT:??_C@_0DA@KMPAJIL@?$CFs?4__bases__?5must?5be?5tuple?5of?5cl@
  00152	48 8b 0d 00 00
	00 00		 mov	 rcx, QWORD PTR PyExc_TypeError
  00159	e8 00 00 00 00	 call	 PyErr_Format

; 511  :             return -1;

  0015e	b8 ff ff ff ff	 mov	 eax, -1
  00163	e9 bc 03 00 00	 jmp	 $LN27@type_set_b
$LN20@type_set_b:

; 512  :         }
; 513  :         if (PyType_IsSubtype((PyTypeObject*)ob, type)) {

  00168	48 8b 94 24 90
	00 00 00	 mov	 rdx, QWORD PTR type$[rsp]
  00170	48 8b 4c 24 50	 mov	 rcx, QWORD PTR ob$[rsp]
  00175	e8 00 00 00 00	 call	 PyType_IsSubtype
  0017a	85 c0		 test	 eax, eax
  0017c	74 1d		 je	 SHORT $LN19@type_set_b

; 514  :             PyErr_SetString(PyExc_TypeError,
; 515  :                             "a __bases__ item causes an inheritance cycle");

  0017e	48 8d 15 00 00
	00 00		 lea	 rdx, OFFSET FLAT:??_C@_0CN@FHOLHLPH@a?5__bases__?5item?5causes?5an?5inher@
  00185	48 8b 0d 00 00
	00 00		 mov	 rcx, QWORD PTR PyExc_TypeError
  0018c	e8 00 00 00 00	 call	 PyErr_SetString

; 516  :             return -1;

  00191	b8 ff ff ff ff	 mov	 eax, -1
  00196	e9 89 03 00 00	 jmp	 $LN27@type_set_b
$LN19@type_set_b:

; 517  :         }
; 518  :     }

  0019b	e9 3f ff ff ff	 jmp	 $LN22@type_set_b
$LN21@type_set_b:

; 519  : 
; 520  :     new_base = best_base(value);

  001a0	48 8b 8c 24 98
	00 00 00	 mov	 rcx, QWORD PTR value$[rsp]
  001a8	e8 00 00 00 00	 call	 best_base
  001ad	48 89 44 24 58	 mov	 QWORD PTR new_base$[rsp], rax

; 521  : 
; 522  :     if (!new_base)

  001b2	48 83 7c 24 58
	00		 cmp	 QWORD PTR new_base$[rsp], 0
  001b8	75 0a		 jne	 SHORT $LN18@type_set_b

; 523  :         return -1;

  001ba	b8 ff ff ff ff	 mov	 eax, -1
  001bf	e9 60 03 00 00	 jmp	 $LN27@type_set_b
$LN18@type_set_b:

; 524  : 
; 525  :     if (!compatible_for_assignment(type->tp_base, new_base, "__bases__"))

  001c4	4c 8d 05 00 00
	00 00		 lea	 r8, OFFSET FLAT:??_C@_09LJKDIEEK@__bases__?$AA@
  001cb	48 8b 54 24 58	 mov	 rdx, QWORD PTR new_base$[rsp]
  001d0	48 8b 84 24 90
	00 00 00	 mov	 rax, QWORD PTR type$[rsp]
  001d8	48 8b 88 58 01
	00 00		 mov	 rcx, QWORD PTR [rax+344]
  001df	e8 00 00 00 00	 call	 compatible_for_assignment
  001e4	85 c0		 test	 eax, eax
  001e6	75 0a		 jne	 SHORT $LN17@type_set_b

; 526  :         return -1;

  001e8	b8 ff ff ff ff	 mov	 eax, -1
  001ed	e9 32 03 00 00	 jmp	 $LN27@type_set_b
$LN17@type_set_b:

; 527  : 
; 528  :     Py_INCREF(new_base);

  001f2	48 8b 4c 24 58	 mov	 rcx, QWORD PTR new_base$[rsp]
  001f7	e8 00 00 00 00	 call	 _Py_IncRef

; 529  :     Py_INCREF(value);

  001fc	48 8b 8c 24 98
	00 00 00	 mov	 rcx, QWORD PTR value$[rsp]
  00204	e8 00 00 00 00	 call	 _Py_IncRef

; 530  : 
; 531  :     old_bases = type->tp_bases;

  00209	48 8b 84 24 90
	00 00 00	 mov	 rax, QWORD PTR type$[rsp]
  00211	48 8b 80 a8 01
	00 00		 mov	 rax, QWORD PTR [rax+424]
  00218	48 89 44 24 30	 mov	 QWORD PTR old_bases$[rsp], rax

; 532  :     old_base = type->tp_base;

  0021d	48 8b 84 24 90
	00 00 00	 mov	 rax, QWORD PTR type$[rsp]
  00225	48 8b 80 58 01
	00 00		 mov	 rax, QWORD PTR [rax+344]
  0022c	48 89 44 24 68	 mov	 QWORD PTR old_base$[rsp], rax

; 533  :     old_mro = type->tp_mro;

  00231	48 8b 84 24 90
	00 00 00	 mov	 rax, QWORD PTR type$[rsp]
  00239	48 8b 80 b0 01
	00 00		 mov	 rax, QWORD PTR [rax+432]
  00240	48 89 44 24 40	 mov	 QWORD PTR old_mro$[rsp], rax

; 534  : 
; 535  :     type->tp_bases = value;

  00245	48 8b 84 24 90
	00 00 00	 mov	 rax, QWORD PTR type$[rsp]
  0024d	48 8b 8c 24 98
	00 00 00	 mov	 rcx, QWORD PTR value$[rsp]
  00255	48 89 88 a8 01
	00 00		 mov	 QWORD PTR [rax+424], rcx

; 536  :     type->tp_base = new_base;

  0025c	48 8b 84 24 90
	00 00 00	 mov	 rax, QWORD PTR type$[rsp]
  00264	48 8b 4c 24 58	 mov	 rcx, QWORD PTR new_base$[rsp]
  00269	48 89 88 58 01
	00 00		 mov	 QWORD PTR [rax+344], rcx

; 537  : 
; 538  :     if (mro_internal(type) < 0) {

  00270	48 8b 8c 24 90
	00 00 00	 mov	 rcx, QWORD PTR type$[rsp]
  00278	e8 00 00 00 00	 call	 mro_internal
  0027d	85 c0		 test	 eax, eax
  0027f	7d 05		 jge	 SHORT $LN16@type_set_b

; 539  :         goto bail;

  00281	e9 0b 02 00 00	 jmp	 $bail$20826
$LN16@type_set_b:

; 540  :     }
; 541  : 
; 542  :     temp = PyList_New(0);

  00286	33 c9		 xor	 ecx, ecx
  00288	e8 00 00 00 00	 call	 PyList_New
  0028d	48 89 44 24 48	 mov	 QWORD PTR temp$[rsp], rax

; 543  :     if (!temp)

  00292	48 83 7c 24 48
	00		 cmp	 QWORD PTR temp$[rsp], 0
  00298	75 05		 jne	 SHORT $LN15@type_set_b

; 544  :         goto bail;

  0029a	e9 f2 01 00 00	 jmp	 $bail$20826
$LN15@type_set_b:

; 545  : 
; 546  :     r = mro_subclasses(type, temp);

  0029f	48 8b 54 24 48	 mov	 rdx, QWORD PTR temp$[rsp]
  002a4	48 8b 8c 24 90
	00 00 00	 mov	 rcx, QWORD PTR type$[rsp]
  002ac	e8 00 00 00 00	 call	 mro_subclasses
  002b1	89 44 24 60	 mov	 DWORD PTR r$[rsp], eax

; 547  : 
; 548  :     if (r < 0) {

  002b5	83 7c 24 60 00	 cmp	 DWORD PTR r$[rsp], 0
  002ba	0f 8d b1 00 00
	00		 jge	 $LN14@type_set_b

; 549  :         for (i = 0; i < PyList_Size(temp); i++) {

  002c0	48 c7 44 24 38
	00 00 00 00	 mov	 QWORD PTR i$[rsp], 0
  002c9	eb 0d		 jmp	 SHORT $LN13@type_set_b
$LN12@type_set_b:
  002cb	48 8b 44 24 38	 mov	 rax, QWORD PTR i$[rsp]
  002d0	48 ff c0	 inc	 rax
  002d3	48 89 44 24 38	 mov	 QWORD PTR i$[rsp], rax
$LN13@type_set_b:
  002d8	48 8b 4c 24 48	 mov	 rcx, QWORD PTR temp$[rsp]
  002dd	e8 00 00 00 00	 call	 PyList_Size
  002e2	48 39 44 24 38	 cmp	 QWORD PTR i$[rsp], rax
  002e7	7d 79		 jge	 SHORT $LN11@type_set_b

; 550  :             PyTypeObject* cls;
; 551  :             PyObject* mro;
; 552  :             PyArg_UnpackTuple(PyList_GET_ITEM(temp, i),
; 553  :                              "", 2, 2, &cls, &mro);

  002e9	48 8b 44 24 48	 mov	 rax, QWORD PTR temp$[rsp]
  002ee	48 8b 40 70	 mov	 rax, QWORD PTR [rax+112]
  002f2	48 8d 4c 24 70	 lea	 rcx, QWORD PTR mro$20833[rsp]
  002f7	48 89 4c 24 28	 mov	 QWORD PTR [rsp+40], rcx
  002fc	48 8d 4c 24 78	 lea	 rcx, QWORD PTR cls$20832[rsp]
  00301	48 89 4c 24 20	 mov	 QWORD PTR [rsp+32], rcx
  00306	41 b9 02 00 00
	00		 mov	 r9d, 2
  0030c	41 b8 02 00 00
	00		 mov	 r8d, 2
  00312	48 8d 15 00 00
	00 00		 lea	 rdx, OFFSET FLAT:??_C@_00CNPNBAHC@?$AA@
  00319	48 8b 4c 24 38	 mov	 rcx, QWORD PTR i$[rsp]
  0031e	48 8b 0c c8	 mov	 rcx, QWORD PTR [rax+rcx*8]
  00322	e8 00 00 00 00	 call	 PyArg_UnpackTuple

; 554  :             Py_INCREF(mro);

  00327	48 8b 4c 24 70	 mov	 rcx, QWORD PTR mro$20833[rsp]
  0032c	e8 00 00 00 00	 call	 _Py_IncRef

; 555  :             ob = cls->tp_mro;

  00331	48 8b 44 24 78	 mov	 rax, QWORD PTR cls$20832[rsp]
  00336	48 8b 80 b0 01
	00 00		 mov	 rax, QWORD PTR [rax+432]
  0033d	48 89 44 24 50	 mov	 QWORD PTR ob$[rsp], rax

; 556  :             cls->tp_mro = mro;

  00342	48 8b 44 24 78	 mov	 rax, QWORD PTR cls$20832[rsp]
  00347	48 8b 4c 24 70	 mov	 rcx, QWORD PTR mro$20833[rsp]
  0034c	48 89 88 b0 01
	00 00		 mov	 QWORD PTR [rax+432], rcx

; 557  :             Py_DECREF(ob);

  00353	48 8b 4c 24 50	 mov	 rcx, QWORD PTR ob$[rsp]
  00358	e8 00 00 00 00	 call	 _Py_DecRef

; 558  :         }

  0035d	e9 69 ff ff ff	 jmp	 $LN12@type_set_b
$LN11@type_set_b:

; 559  :         Py_DECREF(temp);

  00362	48 8b 4c 24 48	 mov	 rcx, QWORD PTR temp$[rsp]
  00367	e8 00 00 00 00	 call	 _Py_DecRef

; 560  :         goto bail;

  0036c	e9 20 01 00 00	 jmp	 $bail$20826
$LN14@type_set_b:

; 561  :     }
; 562  : 
; 563  :     Py_DECREF(temp);

  00371	48 8b 4c 24 48	 mov	 rcx, QWORD PTR temp$[rsp]
  00376	e8 00 00 00 00	 call	 _Py_DecRef

; 564  : 
; 565  :     /* any base that was in __bases__ but now isn't, we
; 566  :        need to remove |type| from its tp_subclasses.
; 567  :        conversely, any class now in __bases__ that wasn't
; 568  :        needs to have |type| added to its subclasses. */
; 569  : 
; 570  :     /* for now, sod that: just remove from all old_bases,
; 571  :        add to all new_bases */
; 572  : 
; 573  :     for (i = PyTuple_GET_SIZE(old_bases) - 1; i >= 0; i--) {

  0037b	48 8b 44 24 30	 mov	 rax, QWORD PTR old_bases$[rsp]
  00380	48 8b 40 60	 mov	 rax, QWORD PTR [rax+96]
  00384	48 ff c8	 dec	 rax
  00387	48 89 44 24 38	 mov	 QWORD PTR i$[rsp], rax
  0038c	eb 0d		 jmp	 SHORT $LN10@type_set_b
$LN9@type_set_b:
  0038e	48 8b 44 24 38	 mov	 rax, QWORD PTR i$[rsp]
  00393	48 ff c8	 dec	 rax
  00396	48 89 44 24 38	 mov	 QWORD PTR i$[rsp], rax
$LN10@type_set_b:
  0039b	48 83 7c 24 38
	00		 cmp	 QWORD PTR i$[rsp], 0
  003a1	7c 40		 jl	 SHORT $LN8@type_set_b

; 574  :         ob = PyTuple_GET_ITEM(old_bases, i);

  003a3	48 8b 44 24 30	 mov	 rax, QWORD PTR old_bases$[rsp]
  003a8	48 8b 4c 24 38	 mov	 rcx, QWORD PTR i$[rsp]
  003ad	48 8b 44 c8 70	 mov	 rax, QWORD PTR [rax+rcx*8+112]
  003b2	48 89 44 24 50	 mov	 QWORD PTR ob$[rsp], rax

; 575  :         if (PyType_Check(ob)) {

  003b7	48 8b 44 24 50	 mov	 rax, QWORD PTR ob$[rsp]
  003bc	48 8b 40 58	 mov	 rax, QWORD PTR [rax+88]
  003c0	8b 80 00 01 00
	00		 mov	 eax, DWORD PTR [rax+256]
  003c6	25 00 00 00 80	 and	 eax, -2147483648	; ffffffff80000000H
  003cb	85 c0		 test	 eax, eax
  003cd	74 12		 je	 SHORT $LN7@type_set_b

; 576  :             remove_subclass(
; 577  :                 (PyTypeObject*)ob, type);

  003cf	48 8b 94 24 90
	00 00 00	 mov	 rdx, QWORD PTR type$[rsp]
  003d7	48 8b 4c 24 50	 mov	 rcx, QWORD PTR ob$[rsp]
  003dc	e8 00 00 00 00	 call	 remove_subclass
$LN7@type_set_b:

; 578  :         }
; 579  :     }

  003e1	eb ab		 jmp	 SHORT $LN9@type_set_b
$LN8@type_set_b:

; 580  : 
; 581  :     for (i = PyTuple_GET_SIZE(value) - 1; i >= 0; i--) {

  003e3	48 8b 84 24 98
	00 00 00	 mov	 rax, QWORD PTR value$[rsp]
  003eb	48 8b 40 60	 mov	 rax, QWORD PTR [rax+96]
  003ef	48 ff c8	 dec	 rax
  003f2	48 89 44 24 38	 mov	 QWORD PTR i$[rsp], rax
  003f7	eb 0d		 jmp	 SHORT $LN6@type_set_b
$LN5@type_set_b:
  003f9	48 8b 44 24 38	 mov	 rax, QWORD PTR i$[rsp]
  003fe	48 ff c8	 dec	 rax
  00401	48 89 44 24 38	 mov	 QWORD PTR i$[rsp], rax
$LN6@type_set_b:
  00406	48 83 7c 24 38
	00		 cmp	 QWORD PTR i$[rsp], 0
  0040c	7c 4f		 jl	 SHORT $LN4@type_set_b

; 582  :         ob = PyTuple_GET_ITEM(value, i);

  0040e	48 8b 84 24 98
	00 00 00	 mov	 rax, QWORD PTR value$[rsp]
  00416	48 8b 4c 24 38	 mov	 rcx, QWORD PTR i$[rsp]
  0041b	48 8b 44 c8 70	 mov	 rax, QWORD PTR [rax+rcx*8+112]
  00420	48 89 44 24 50	 mov	 QWORD PTR ob$[rsp], rax

; 583  :         if (PyType_Check(ob)) {

  00425	48 8b 44 24 50	 mov	 rax, QWORD PTR ob$[rsp]
  0042a	48 8b 40 58	 mov	 rax, QWORD PTR [rax+88]
  0042e	8b 80 00 01 00
	00		 mov	 eax, DWORD PTR [rax+256]
  00434	25 00 00 00 80	 and	 eax, -2147483648	; ffffffff80000000H
  00439	85 c0		 test	 eax, eax
  0043b	74 1e		 je	 SHORT $LN3@type_set_b

; 584  :             if (add_subclass((PyTypeObject*)ob, type) < 0)

  0043d	48 8b 94 24 90
	00 00 00	 mov	 rdx, QWORD PTR type$[rsp]
  00445	48 8b 4c 24 50	 mov	 rcx, QWORD PTR ob$[rsp]
  0044a	e8 00 00 00 00	 call	 add_subclass
  0044f	85 c0		 test	 eax, eax
  00451	7d 08		 jge	 SHORT $LN2@type_set_b

; 585  :                 r = -1;

  00453	c7 44 24 60 ff
	ff ff ff	 mov	 DWORD PTR r$[rsp], -1
$LN2@type_set_b:
$LN3@type_set_b:

; 586  :         }
; 587  :     }

  0045b	eb 9c		 jmp	 SHORT $LN5@type_set_b
$LN4@type_set_b:

; 588  : 
; 589  :     update_all_slots(type);

  0045d	48 8b 8c 24 90
	00 00 00	 mov	 rcx, QWORD PTR type$[rsp]
  00465	e8 00 00 00 00	 call	 update_all_slots

; 590  : 
; 591  :     Py_DECREF(old_bases);

  0046a	48 8b 4c 24 30	 mov	 rcx, QWORD PTR old_bases$[rsp]
  0046f	e8 00 00 00 00	 call	 _Py_DecRef

; 592  :     Py_DECREF(old_base);

  00474	48 8b 4c 24 68	 mov	 rcx, QWORD PTR old_base$[rsp]
  00479	e8 00 00 00 00	 call	 _Py_DecRef

; 593  :     Py_DECREF(old_mro);

  0047e	48 8b 4c 24 40	 mov	 rcx, QWORD PTR old_mro$[rsp]
  00483	e8 00 00 00 00	 call	 _Py_DecRef

; 594  : 
; 595  :     return r;

  00488	8b 44 24 60	 mov	 eax, DWORD PTR r$[rsp]
  0048c	e9 93 00 00 00	 jmp	 $LN27@type_set_b
$bail$20826:

; 596  : 
; 597  :   bail:
; 598  :     Py_DECREF(type->tp_bases);

  00491	48 8b 84 24 90
	00 00 00	 mov	 rax, QWORD PTR type$[rsp]
  00499	48 8b 88 a8 01
	00 00		 mov	 rcx, QWORD PTR [rax+424]
  004a0	e8 00 00 00 00	 call	 _Py_DecRef

; 599  :     Py_DECREF(type->tp_base);

  004a5	48 8b 84 24 90
	00 00 00	 mov	 rax, QWORD PTR type$[rsp]
  004ad	48 8b 88 58 01
	00 00		 mov	 rcx, QWORD PTR [rax+344]
  004b4	e8 00 00 00 00	 call	 _Py_DecRef

; 600  :     if (type->tp_mro != old_mro) {

  004b9	48 8b 84 24 90
	00 00 00	 mov	 rax, QWORD PTR type$[rsp]
  004c1	48 8b 4c 24 40	 mov	 rcx, QWORD PTR old_mro$[rsp]
  004c6	48 39 88 b0 01
	00 00		 cmp	 QWORD PTR [rax+432], rcx
  004cd	74 14		 je	 SHORT $LN1@type_set_b

; 601  :         Py_DECREF(type->tp_mro);

  004cf	48 8b 84 24 90
	00 00 00	 mov	 rax, QWORD PTR type$[rsp]
  004d7	48 8b 88 b0 01
	00 00		 mov	 rcx, QWORD PTR [rax+432]
  004de	e8 00 00 00 00	 call	 _Py_DecRef
$LN1@type_set_b:

; 602  :     }
; 603  : 
; 604  :     type->tp_bases = old_bases;

  004e3	48 8b 84 24 90
	00 00 00	 mov	 rax, QWORD PTR type$[rsp]
  004eb	48 8b 4c 24 30	 mov	 rcx, QWORD PTR old_bases$[rsp]
  004f0	48 89 88 a8 01
	00 00		 mov	 QWORD PTR [rax+424], rcx

; 605  :     type->tp_base = old_base;

  004f7	48 8b 84 24 90
	00 00 00	 mov	 rax, QWORD PTR type$[rsp]
  004ff	48 8b 4c 24 68	 mov	 rcx, QWORD PTR old_base$[rsp]
  00504	48 89 88 58 01
	00 00		 mov	 QWORD PTR [rax+344], rcx

; 606  :     type->tp_mro = old_mro;

  0050b	48 8b 84 24 90
	00 00 00	 mov	 rax, QWORD PTR type$[rsp]
  00513	48 8b 4c 24 40	 mov	 rcx, QWORD PTR old_mro$[rsp]
  00518	48 89 88 b0 01
	00 00		 mov	 QWORD PTR [rax+432], rcx

; 607  : 
; 608  :     return -1;

  0051f	b8 ff ff ff ff	 mov	 eax, -1
$LN27@type_set_b:

; 609  : }

  00524	48 81 c4 88 00
	00 00		 add	 rsp, 136		; 00000088H
  0052b	c3		 ret	 0
type_set_bases ENDP
_TEXT	ENDS
PUBLIC	??_C@_1CO@DGKDGEJI@?$AAP?$AAy?$AAT?$AAy?$AAp?$AAe?$AA_?$AAC?$AAh?$AAe?$AAc?$AAk?$AA?$CI?$AAs?$AAu?$AAb?$AAc?$AAl?$AAa?$AAs?$AAs?$AA?$CJ?$AA?$AA@ ; `string'
PUBLIC	??_C@_1CC@CKFLIHGE@?$AAs?$AAu?$AAb?$AAc?$AAl?$AAa?$AAs?$AAs?$AA?5?$AA?$CB?$AA?$DN?$AA?5?$AAN?$AAU?$AAL?$AAL?$AA?$AA@ ; `string'
PUBLIC	??_C@_1DA@IHEHGJMP@?$AAP?$AAy?$AAW?$AAe?$AAa?$AAk?$AAr?$AAe?$AAf?$AA_?$AAC?$AAh?$AAe?$AAc?$AAk?$AAR?$AAe?$AAf?$AA?$CI?$AAr?$AAe?$AAf?$AA?$CJ?$AA?$AA@ ; `string'
PUBLIC	??_C@_1DC@CGHPHOHK@?$AAP?$AAy?$AAL?$AAi?$AAs?$AAt?$AA_?$AAC?$AAh?$AAe?$AAc?$AAk?$AA?$CI?$AAs?$AAu?$AAb?$AAc?$AAl?$AAa?$AAs?$AAs?$AAe?$AAs?$AA?$CJ?$AA?$AA@ ; `string'
PUBLIC	??_C@_1DA@GJLLIOPA@?$AA?4?$AA?4?$AA?2?$AAO?$AAb?$AAj?$AAe?$AAc?$AAt?$AAs?$AA?2?$AAt?$AAy?$AAp?$AAe?$AAo?$AAb?$AAj?$AAe?$AAc?$AAt?$AA?4?$AAc?$AA?$AA@ ; `string'
EXTRN	PyList_Append:PROC
EXTRN	PyTuple_Pack:PROC
EXTRN	_PyWeakref_RefType:BYTE
EXTRN	__imp__wassert:PROC
;	COMDAT pdata
pdata	SEGMENT
$pdata$mro_subclasses DD imagerel mro_subclasses
	DD	imagerel mro_subclasses+588
	DD	imagerel $unwind$mro_subclasses
pdata	ENDS
;	COMDAT xdata
xdata	SEGMENT
$unwind$mro_subclasses DD 010e01H
	DD	0c20eH
xdata	ENDS
;	COMDAT ??_C@_1CO@DGKDGEJI@?$AAP?$AAy?$AAT?$AAy?$AAp?$AAe?$AA_?$AAC?$AAh?$AAe?$AAc?$AAk?$AA?$CI?$AAs?$AAu?$AAb?$AAc?$AAl?$AAa?$AAs?$AAs?$AA?$CJ?$AA?$AA@
CONST	SEGMENT
??_C@_1CO@DGKDGEJI@?$AAP?$AAy?$AAT?$AAy?$AAp?$AAe?$AA_?$AAC?$AAh?$AAe?$AAc?$AAk?$AA?$CI?$AAs?$AAu?$AAb?$AAc?$AAl?$AAa?$AAs?$AAs?$AA?$CJ?$AA?$AA@ DB 'P'
	DB	00H, 'y', 00H, 'T', 00H, 'y', 00H, 'p', 00H, 'e', 00H, '_', 00H
	DB	'C', 00H, 'h', 00H, 'e', 00H, 'c', 00H, 'k', 00H, '(', 00H, 's'
	DB	00H, 'u', 00H, 'b', 00H, 'c', 00H, 'l', 00H, 'a', 00H, 's', 00H
	DB	's', 00H, ')', 00H, 00H, 00H			; `string'
CONST	ENDS
;	COMDAT ??_C@_1CC@CKFLIHGE@?$AAs?$AAu?$AAb?$AAc?$AAl?$AAa?$AAs?$AAs?$AA?5?$AA?$CB?$AA?$DN?$AA?5?$AAN?$AAU?$AAL?$AAL?$AA?$AA@
CONST	SEGMENT
??_C@_1CC@CKFLIHGE@?$AAs?$AAu?$AAb?$AAc?$AAl?$AAa?$AAs?$AAs?$AA?5?$AA?$CB?$AA?$DN?$AA?5?$AAN?$AAU?$AAL?$AAL?$AA?$AA@ DB 's'
	DB	00H, 'u', 00H, 'b', 00H, 'c', 00H, 'l', 00H, 'a', 00H, 's', 00H
	DB	's', 00H, ' ', 00H, '!', 00H, '=', 00H, ' ', 00H, 'N', 00H, 'U'
	DB	00H, 'L', 00H, 'L', 00H, 00H, 00H		; `string'
CONST	ENDS
;	COMDAT ??_C@_1DA@IHEHGJMP@?$AAP?$AAy?$AAW?$AAe?$AAa?$AAk?$AAr?$AAe?$AAf?$AA_?$AAC?$AAh?$AAe?$AAc?$AAk?$AAR?$AAe?$AAf?$AA?$CI?$AAr?$AAe?$AAf?$AA?$CJ?$AA?$AA@
CONST	SEGMENT
??_C@_1DA@IHEHGJMP@?$AAP?$AAy?$AAW?$AAe?$AAa?$AAk?$AAr?$AAe?$AAf?$AA_?$AAC?$AAh?$AAe?$AAc?$AAk?$AAR?$AAe?$AAf?$AA?$CI?$AAr?$AAe?$AAf?$AA?$CJ?$AA?$AA@ DB 'P'
	DB	00H, 'y', 00H, 'W', 00H, 'e', 00H, 'a', 00H, 'k', 00H, 'r', 00H
	DB	'e', 00H, 'f', 00H, '_', 00H, 'C', 00H, 'h', 00H, 'e', 00H, 'c'
	DB	00H, 'k', 00H, 'R', 00H, 'e', 00H, 'f', 00H, '(', 00H, 'r', 00H
	DB	'e', 00H, 'f', 00H, ')', 00H, 00H, 00H	; `string'
CONST	ENDS
;	COMDAT ??_C@_1DC@CGHPHOHK@?$AAP?$AAy?$AAL?$AAi?$AAs?$AAt?$AA_?$AAC?$AAh?$AAe?$AAc?$AAk?$AA?$CI?$AAs?$AAu?$AAb?$AAc?$AAl?$AAa?$AAs?$AAs?$AAe?$AAs?$AA?$CJ?$AA?$AA@
CONST	SEGMENT
??_C@_1DC@CGHPHOHK@?$AAP?$AAy?$AAL?$AAi?$AAs?$AAt?$AA_?$AAC?$AAh?$AAe?$AAc?$AAk?$AA?$CI?$AAs?$AAu?$AAb?$AAc?$AAl?$AAa?$AAs?$AAs?$AAe?$AAs?$AA?$CJ?$AA?$AA@ DB 'P'
	DB	00H, 'y', 00H, 'L', 00H, 'i', 00H, 's', 00H, 't', 00H, '_', 00H
	DB	'C', 00H, 'h', 00H, 'e', 00H, 'c', 00H, 'k', 00H, '(', 00H, 's'
	DB	00H, 'u', 00H, 'b', 00H, 'c', 00H, 'l', 00H, 'a', 00H, 's', 00H
	DB	's', 00H, 'e', 00H, 's', 00H, ')', 00H, 00H, 00H ; `string'
CONST	ENDS
;	COMDAT ??_C@_1DA@GJLLIOPA@?$AA?4?$AA?4?$AA?2?$AAO?$AAb?$AAj?$AAe?$AAc?$AAt?$AAs?$AA?2?$AAt?$AAy?$AAp?$AAe?$AAo?$AAb?$AAj?$AAe?$AAc?$AAt?$AA?4?$AAc?$AA?$AA@
CONST	SEGMENT
??_C@_1DA@GJLLIOPA@?$AA?4?$AA?4?$AA?2?$AAO?$AAb?$AAj?$AAe?$AAc?$AAt?$AAs?$AA?2?$AAt?$AAy?$AAp?$AAe?$AAo?$AAb?$AAj?$AAe?$AAc?$AAt?$AA?4?$AAc?$AA?$AA@ DB '.'
	DB	00H, '.', 00H, '\', 00H, 'O', 00H, 'b', 00H, 'j', 00H, 'e', 00H
	DB	'c', 00H, 't', 00H, 's', 00H, '\', 00H, 't', 00H, 'y', 00H, 'p'
	DB	00H, 'e', 00H, 'o', 00H, 'b', 00H, 'j', 00H, 'e', 00H, 'c', 00H
	DB	't', 00H, '.', 00H, 'c', 00H, 00H, 00H	; `string'
; Function compile flags: /Odtp
CONST	ENDS
;	COMDAT mro_subclasses
_TEXT	SEGMENT
n$ = 32
i$ = 40
subclass$ = 48
old_mro$ = 56
ref$ = 64
subclasses$ = 72
tuple$20778 = 80
tv95 = 88
type$ = 112
temp$ = 120
mro_subclasses PROC					; COMDAT

; 443  : {

  00000	48 89 54 24 10	 mov	 QWORD PTR [rsp+16], rdx
  00005	48 89 4c 24 08	 mov	 QWORD PTR [rsp+8], rcx
  0000a	48 83 ec 68	 sub	 rsp, 104		; 00000068H

; 444  :     PyTypeObject *subclass;
; 445  :     PyObject *ref, *subclasses, *old_mro;
; 446  :     Py_ssize_t i, n;
; 447  : 
; 448  :     subclasses = type->tp_subclasses;

  0000e	48 8b 44 24 70	 mov	 rax, QWORD PTR type$[rsp]
  00013	48 8b 80 c0 01
	00 00		 mov	 rax, QWORD PTR [rax+448]
  0001a	48 89 44 24 48	 mov	 QWORD PTR subclasses$[rsp], rax

; 449  :     if (subclasses == NULL)

  0001f	48 83 7c 24 48
	00		 cmp	 QWORD PTR subclasses$[rsp], 0
  00025	75 07		 jne	 SHORT $LN10@mro_subcla

; 450  :         return 0;

  00027	33 c0		 xor	 eax, eax
  00029	e9 19 02 00 00	 jmp	 $LN11@mro_subcla
$LN10@mro_subcla:

; 451  :     assert(PyList_Check(subclasses));

  0002e	48 8b 44 24 48	 mov	 rax, QWORD PTR subclasses$[rsp]
  00033	48 8b 40 58	 mov	 rax, QWORD PTR [rax+88]
  00037	8b 80 00 01 00
	00		 mov	 eax, DWORD PTR [rax+256]
  0003d	25 00 00 00 02	 and	 eax, 33554432		; 02000000H
  00042	85 c0		 test	 eax, eax
  00044	75 1c		 jne	 SHORT $LN13@mro_subcla
  00046	41 b8 c3 01 00
	00		 mov	 r8d, 451		; 000001c3H
  0004c	48 8d 15 00 00
	00 00		 lea	 rdx, OFFSET FLAT:??_C@_1DA@GJLLIOPA@?$AA?4?$AA?4?$AA?2?$AAO?$AAb?$AAj?$AAe?$AAc?$AAt?$AAs?$AA?2?$AAt?$AAy?$AAp?$AAe?$AAo?$AAb?$AAj?$AAe?$AAc?$AAt?$AA?4?$AAc?$AA?$AA@
  00053	48 8d 0d 00 00
	00 00		 lea	 rcx, OFFSET FLAT:??_C@_1DC@CGHPHOHK@?$AAP?$AAy?$AAL?$AAi?$AAs?$AAt?$AA_?$AAC?$AAh?$AAe?$AAc?$AAk?$AA?$CI?$AAs?$AAu?$AAb?$AAc?$AAl?$AAa?$AAs?$AAs?$AAe?$AAs?$AA?$CJ?$AA?$AA@
  0005a	ff 15 00 00 00
	00		 call	 QWORD PTR __imp__wassert
  00060	33 c0		 xor	 eax, eax
$LN13@mro_subcla:

; 452  :     n = PyList_GET_SIZE(subclasses);

  00062	48 8b 44 24 48	 mov	 rax, QWORD PTR subclasses$[rsp]
  00067	48 8b 40 60	 mov	 rax, QWORD PTR [rax+96]
  0006b	48 89 44 24 20	 mov	 QWORD PTR n$[rsp], rax

; 453  :     for (i = 0; i < n; i++) {

  00070	48 c7 44 24 28
	00 00 00 00	 mov	 QWORD PTR i$[rsp], 0
  00079	eb 0d		 jmp	 SHORT $LN9@mro_subcla
$LN8@mro_subcla:
  0007b	48 8b 44 24 28	 mov	 rax, QWORD PTR i$[rsp]
  00080	48 ff c0	 inc	 rax
  00083	48 89 44 24 28	 mov	 QWORD PTR i$[rsp], rax
$LN9@mro_subcla:
  00088	48 8b 44 24 20	 mov	 rax, QWORD PTR n$[rsp]
  0008d	48 39 44 24 28	 cmp	 QWORD PTR i$[rsp], rax
  00092	0f 8d ad 01 00
	00		 jge	 $LN7@mro_subcla

; 454  :         ref = PyList_GET_ITEM(subclasses, i);

  00098	48 8b 44 24 48	 mov	 rax, QWORD PTR subclasses$[rsp]
  0009d	48 8b 40 70	 mov	 rax, QWORD PTR [rax+112]
  000a1	48 8b 4c 24 28	 mov	 rcx, QWORD PTR i$[rsp]
  000a6	48 8b 04 c8	 mov	 rax, QWORD PTR [rax+rcx*8]
  000aa	48 89 44 24 40	 mov	 QWORD PTR ref$[rsp], rax

; 455  :         assert(PyWeakref_CheckRef(ref));

  000af	48 8d 05 00 00
	00 00		 lea	 rax, OFFSET FLAT:_PyWeakref_RefType
  000b6	48 8b 4c 24 40	 mov	 rcx, QWORD PTR ref$[rsp]
  000bb	48 39 41 58	 cmp	 QWORD PTR [rcx+88], rax
  000bf	74 35		 je	 SHORT $LN14@mro_subcla
  000c1	48 8d 15 00 00
	00 00		 lea	 rdx, OFFSET FLAT:_PyWeakref_RefType
  000c8	48 8b 44 24 40	 mov	 rax, QWORD PTR ref$[rsp]
  000cd	48 8b 48 58	 mov	 rcx, QWORD PTR [rax+88]
  000d1	e8 00 00 00 00	 call	 PyType_IsSubtype
  000d6	85 c0		 test	 eax, eax
  000d8	75 1c		 jne	 SHORT $LN14@mro_subcla
  000da	41 b8 c7 01 00
	00		 mov	 r8d, 455		; 000001c7H
  000e0	48 8d 15 00 00
	00 00		 lea	 rdx, OFFSET FLAT:??_C@_1DA@GJLLIOPA@?$AA?4?$AA?4?$AA?2?$AAO?$AAb?$AAj?$AAe?$AAc?$AAt?$AAs?$AA?2?$AAt?$AAy?$AAp?$AAe?$AAo?$AAb?$AAj?$AAe?$AAc?$AAt?$AA?4?$AAc?$AA?$AA@
  000e7	48 8d 0d 00 00
	00 00		 lea	 rcx, OFFSET FLAT:??_C@_1DA@IHEHGJMP@?$AAP?$AAy?$AAW?$AAe?$AAa?$AAk?$AAr?$AAe?$AAf?$AA_?$AAC?$AAh?$AAe?$AAc?$AAk?$AAR?$AAe?$AAf?$AA?$CI?$AAr?$AAe?$AAf?$AA?$CJ?$AA?$AA@
  000ee	ff 15 00 00 00
	00		 call	 QWORD PTR __imp__wassert
  000f4	33 c0		 xor	 eax, eax
$LN14@mro_subcla:

; 456  :         subclass = (PyTypeObject *)PyWeakref_GET_OBJECT(ref);

  000f6	48 8b 44 24 40	 mov	 rax, QWORD PTR ref$[rsp]
  000fb	48 8b 40 60	 mov	 rax, QWORD PTR [rax+96]
  000ff	48 83 78 50 00	 cmp	 QWORD PTR [rax+80], 0
  00104	7e 10		 jle	 SHORT $LN15@mro_subcla
  00106	48 8b 44 24 40	 mov	 rax, QWORD PTR ref$[rsp]
  0010b	48 8b 40 60	 mov	 rax, QWORD PTR [rax+96]
  0010f	48 89 44 24 58	 mov	 QWORD PTR tv95[rsp], rax
  00114	eb 0c		 jmp	 SHORT $LN16@mro_subcla
$LN15@mro_subcla:
  00116	48 8d 05 00 00
	00 00		 lea	 rax, OFFSET FLAT:_Py_NoneStruct
  0011d	48 89 44 24 58	 mov	 QWORD PTR tv95[rsp], rax
$LN16@mro_subcla:
  00122	48 8b 44 24 58	 mov	 rax, QWORD PTR tv95[rsp]
  00127	48 89 44 24 30	 mov	 QWORD PTR subclass$[rsp], rax

; 457  :         assert(subclass != NULL);

  0012c	48 83 7c 24 30
	00		 cmp	 QWORD PTR subclass$[rsp], 0
  00132	75 1c		 jne	 SHORT $LN17@mro_subcla
  00134	41 b8 c9 01 00
	00		 mov	 r8d, 457		; 000001c9H
  0013a	48 8d 15 00 00
	00 00		 lea	 rdx, OFFSET FLAT:??_C@_1DA@GJLLIOPA@?$AA?4?$AA?4?$AA?2?$AAO?$AAb?$AAj?$AAe?$AAc?$AAt?$AAs?$AA?2?$AAt?$AAy?$AAp?$AAe?$AAo?$AAb?$AAj?$AAe?$AAc?$AAt?$AA?4?$AAc?$AA?$AA@
  00141	48 8d 0d 00 00
	00 00		 lea	 rcx, OFFSET FLAT:??_C@_1CC@CKFLIHGE@?$AAs?$AAu?$AAb?$AAc?$AAl?$AAa?$AAs?$AAs?$AA?5?$AA?$CB?$AA?$DN?$AA?5?$AAN?$AAU?$AAL?$AAL?$AA?$AA@
  00148	ff 15 00 00 00
	00		 call	 QWORD PTR __imp__wassert
  0014e	33 c0		 xor	 eax, eax
$LN17@mro_subcla:

; 458  :         if ((PyObject *)subclass == Py_None)

  00150	48 8d 05 00 00
	00 00		 lea	 rax, OFFSET FLAT:_Py_NoneStruct
  00157	48 39 44 24 30	 cmp	 QWORD PTR subclass$[rsp], rax
  0015c	75 05		 jne	 SHORT $LN6@mro_subcla

; 459  :             continue;

  0015e	e9 18 ff ff ff	 jmp	 $LN8@mro_subcla
$LN6@mro_subcla:

; 460  :         assert(PyType_Check(subclass));

  00163	48 8b 44 24 30	 mov	 rax, QWORD PTR subclass$[rsp]
  00168	48 8b 40 58	 mov	 rax, QWORD PTR [rax+88]
  0016c	8b 80 00 01 00
	00		 mov	 eax, DWORD PTR [rax+256]
  00172	25 00 00 00 80	 and	 eax, -2147483648	; ffffffff80000000H
  00177	85 c0		 test	 eax, eax
  00179	75 1c		 jne	 SHORT $LN18@mro_subcla
  0017b	41 b8 cc 01 00
	00		 mov	 r8d, 460		; 000001ccH
  00181	48 8d 15 00 00
	00 00		 lea	 rdx, OFFSET FLAT:??_C@_1DA@GJLLIOPA@?$AA?4?$AA?4?$AA?2?$AAO?$AAb?$AAj?$AAe?$AAc?$AAt?$AAs?$AA?2?$AAt?$AAy?$AAp?$AAe?$AAo?$AAb?$AAj?$AAe?$AAc?$AAt?$AA?4?$AAc?$AA?$AA@
  00188	48 8d 0d 00 00
	00 00		 lea	 rcx, OFFSET FLAT:??_C@_1CO@DGKDGEJI@?$AAP?$AAy?$AAT?$AAy?$AAp?$AAe?$AA_?$AAC?$AAh?$AAe?$AAc?$AAk?$AA?$CI?$AAs?$AAu?$AAb?$AAc?$AAl?$AAa?$AAs?$AAs?$AA?$CJ?$AA?$AA@
  0018f	ff 15 00 00 00
	00		 call	 QWORD PTR __imp__wassert
  00195	33 c0		 xor	 eax, eax
$LN18@mro_subcla:

; 461  :         old_mro = subclass->tp_mro;

  00197	48 8b 44 24 30	 mov	 rax, QWORD PTR subclass$[rsp]
  0019c	48 8b 80 b0 01
	00 00		 mov	 rax, QWORD PTR [rax+432]
  001a3	48 89 44 24 38	 mov	 QWORD PTR old_mro$[rsp], rax

; 462  :         if (mro_internal(subclass) < 0) {

  001a8	48 8b 4c 24 30	 mov	 rcx, QWORD PTR subclass$[rsp]
  001ad	e8 00 00 00 00	 call	 mro_internal
  001b2	85 c0		 test	 eax, eax
  001b4	7d 1a		 jge	 SHORT $LN5@mro_subcla

; 463  :             subclass->tp_mro = old_mro;

  001b6	48 8b 44 24 30	 mov	 rax, QWORD PTR subclass$[rsp]
  001bb	48 8b 4c 24 38	 mov	 rcx, QWORD PTR old_mro$[rsp]
  001c0	48 89 88 b0 01
	00 00		 mov	 QWORD PTR [rax+432], rcx

; 464  :             return -1;

  001c7	b8 ff ff ff ff	 mov	 eax, -1
  001cc	eb 79		 jmp	 SHORT $LN11@mro_subcla

; 465  :         }
; 466  :         else {

  001ce	eb 56		 jmp	 SHORT $LN4@mro_subcla
$LN5@mro_subcla:

; 467  :             PyObject* tuple;
; 468  :             tuple = PyTuple_Pack(2, subclass, old_mro);

  001d0	4c 8b 44 24 38	 mov	 r8, QWORD PTR old_mro$[rsp]
  001d5	48 8b 54 24 30	 mov	 rdx, QWORD PTR subclass$[rsp]
  001da	b9 02 00 00 00	 mov	 ecx, 2
  001df	e8 00 00 00 00	 call	 PyTuple_Pack
  001e4	48 89 44 24 50	 mov	 QWORD PTR tuple$20778[rsp], rax

; 469  :             Py_DECREF(old_mro);

  001e9	48 8b 4c 24 38	 mov	 rcx, QWORD PTR old_mro$[rsp]
  001ee	e8 00 00 00 00	 call	 _Py_DecRef

; 470  :             if (!tuple)

  001f3	48 83 7c 24 50
	00		 cmp	 QWORD PTR tuple$20778[rsp], 0
  001f9	75 07		 jne	 SHORT $LN3@mro_subcla

; 471  :                 return -1;

  001fb	b8 ff ff ff ff	 mov	 eax, -1
  00200	eb 45		 jmp	 SHORT $LN11@mro_subcla
$LN3@mro_subcla:

; 472  :             if (PyList_Append(temp, tuple) < 0)

  00202	48 8b 54 24 50	 mov	 rdx, QWORD PTR tuple$20778[rsp]
  00207	48 8b 4c 24 78	 mov	 rcx, QWORD PTR temp$[rsp]
  0020c	e8 00 00 00 00	 call	 PyList_Append
  00211	85 c0		 test	 eax, eax
  00213	7d 07		 jge	 SHORT $LN2@mro_subcla

; 473  :                 return -1;

  00215	b8 ff ff ff ff	 mov	 eax, -1
  0021a	eb 2b		 jmp	 SHORT $LN11@mro_subcla
$LN2@mro_subcla:

; 474  :             Py_DECREF(tuple);

  0021c	48 8b 4c 24 50	 mov	 rcx, QWORD PTR tuple$20778[rsp]
  00221	e8 00 00 00 00	 call	 _Py_DecRef
$LN4@mro_subcla:

; 475  :         }
; 476  :         if (mro_subclasses(subclass, temp) < 0)

  00226	48 8b 54 24 78	 mov	 rdx, QWORD PTR temp$[rsp]
  0022b	48 8b 4c 24 30	 mov	 rcx, QWORD PTR subclass$[rsp]
  00230	e8 00 00 00 00	 call	 mro_subclasses
  00235	85 c0		 test	 eax, eax
  00237	7d 07		 jge	 SHORT $LN1@mro_subcla

; 477  :             return -1;

  00239	b8 ff ff ff ff	 mov	 eax, -1
  0023e	eb 07		 jmp	 SHORT $LN11@mro_subcla
$LN1@mro_subcla:

; 478  :     }

  00240	e9 36 fe ff ff	 jmp	 $LN8@mro_subcla
$LN7@mro_subcla:

; 479  :     return 0;

  00245	33 c0		 xor	 eax, eax
$LN11@mro_subcla:

; 480  : }

  00247	48 83 c4 68	 add	 rsp, 104		; 00000068H
  0024b	c3		 ret	 0
mro_subclasses ENDP
_TEXT	ENDS
EXTRN	PyDictProxy_New:PROC
;	COMDAT pdata
pdata	SEGMENT
$pdata$type_dict DD imagerel type_dict
	DD	imagerel type_dict+72
	DD	imagerel $unwind$type_dict
pdata	ENDS
;	COMDAT xdata
xdata	SEGMENT
$unwind$type_dict DD 010e01H
	DD	0420eH
; Function compile flags: /Odtp
xdata	ENDS
;	COMDAT type_dict
_TEXT	SEGMENT
type$ = 48
context$ = 56
type_dict PROC						; COMDAT

; 613  : {

  00000	48 89 54 24 10	 mov	 QWORD PTR [rsp+16], rdx
  00005	48 89 4c 24 08	 mov	 QWORD PTR [rsp+8], rcx
  0000a	48 83 ec 28	 sub	 rsp, 40			; 00000028H

; 614  :     if (type->tp_dict == NULL) {

  0000e	48 8b 44 24 30	 mov	 rax, QWORD PTR type$[rsp]
  00013	48 83 b8 60 01
	00 00 00	 cmp	 QWORD PTR [rax+352], 0
  0001b	75 15		 jne	 SHORT $LN1@type_dict

; 615  :         Py_INCREF(Py_None);

  0001d	48 8d 0d 00 00
	00 00		 lea	 rcx, OFFSET FLAT:_Py_NoneStruct
  00024	e8 00 00 00 00	 call	 _Py_IncRef

; 616  :         return Py_None;

  00029	48 8d 05 00 00
	00 00		 lea	 rax, OFFSET FLAT:_Py_NoneStruct
  00030	eb 11		 jmp	 SHORT $LN2@type_dict
$LN1@type_dict:

; 617  :     }
; 618  :     return PyDictProxy_New(type->tp_dict);

  00032	48 8b 44 24 30	 mov	 rax, QWORD PTR type$[rsp]
  00037	48 8b 88 60 01
	00 00		 mov	 rcx, QWORD PTR [rax+352]
  0003e	e8 00 00 00 00	 call	 PyDictProxy_New
$LN2@type_dict:

; 619  : }

  00043	48 83 c4 28	 add	 rsp, 40			; 00000028H
  00047	c3		 ret	 0
type_dict ENDP
_TEXT	ENDS
;	COMDAT pdata
pdata	SEGMENT
$pdata$type_get_doc DD imagerel type_get_doc
	DD	imagerel type_get_doc+227
	DD	imagerel $unwind$type_get_doc
pdata	ENDS
;	COMDAT xdata
xdata	SEGMENT
$unwind$type_get_doc DD 010e01H
	DD	0620eH
; Function compile flags: /Odtp
xdata	ENDS
;	COMDAT type_get_doc
_TEXT	SEGMENT
result$ = 32
type$ = 64
context$ = 72
type_get_doc PROC					; COMDAT

; 623  : {

  00000	48 89 54 24 10	 mov	 QWORD PTR [rsp+16], rdx
  00005	48 89 4c 24 08	 mov	 QWORD PTR [rsp+8], rcx
  0000a	48 83 ec 38	 sub	 rsp, 56			; 00000038H

; 624  :     PyObject *result;
; 625  :     if (!(type->tp_flags & Py_TPFLAGS_HEAPTYPE) && type->tp_doc != NULL)

  0000e	48 8b 44 24 40	 mov	 rax, QWORD PTR type$[rsp]
  00013	8b 80 00 01 00
	00		 mov	 eax, DWORD PTR [rax+256]
  00019	25 00 02 00 00	 and	 eax, 512		; 00000200H
  0001e	85 c0		 test	 eax, eax
  00020	75 25		 jne	 SHORT $LN5@type_get_d
  00022	48 8b 44 24 40	 mov	 rax, QWORD PTR type$[rsp]
  00027	48 83 b8 08 01
	00 00 00	 cmp	 QWORD PTR [rax+264], 0
  0002f	74 16		 je	 SHORT $LN5@type_get_d

; 626  :         return PyUnicode_FromString(type->tp_doc);

  00031	48 8b 44 24 40	 mov	 rax, QWORD PTR type$[rsp]
  00036	48 8b 88 08 01
	00 00		 mov	 rcx, QWORD PTR [rax+264]
  0003d	e8 00 00 00 00	 call	 PyUnicode_FromString
  00042	e9 97 00 00 00	 jmp	 $LN6@type_get_d
$LN5@type_get_d:

; 627  :     result = _PyDict_GetItemId(type->tp_dict, &PyId___doc__);

  00047	b8 00 00 00 00	 mov	 eax, OFFSET FLAT:PyId___doc__
  0004c	8b c0		 mov	 eax, eax
  0004e	8b 0d 00 00 00
	00		 mov	 ecx, DWORD PTR _tls_index
  00054	65 48 8b 14 25
	58 00 00 00	 mov	 rdx, QWORD PTR gs:88
  0005d	48 03 04 ca	 add	 rax, QWORD PTR [rdx+rcx*8]
  00061	48 8b d0	 mov	 rdx, rax
  00064	48 8b 44 24 40	 mov	 rax, QWORD PTR type$[rsp]
  00069	48 8b 88 60 01
	00 00		 mov	 rcx, QWORD PTR [rax+352]
  00070	e8 00 00 00 00	 call	 _PyDict_GetItemId
  00075	48 89 44 24 20	 mov	 QWORD PTR result$[rsp], rax

; 628  :     if (result == NULL) {

  0007a	48 83 7c 24 20
	00		 cmp	 QWORD PTR result$[rsp], 0
  00080	75 18		 jne	 SHORT $LN4@type_get_d

; 629  :         result = Py_None;

  00082	48 8d 05 00 00
	00 00		 lea	 rax, OFFSET FLAT:_Py_NoneStruct
  00089	48 89 44 24 20	 mov	 QWORD PTR result$[rsp], rax

; 630  :         Py_INCREF(result);

  0008e	48 8b 4c 24 20	 mov	 rcx, QWORD PTR result$[rsp]
  00093	e8 00 00 00 00	 call	 _Py_IncRef
  00098	eb 3f		 jmp	 SHORT $LN3@type_get_d
$LN4@type_get_d:

; 631  :     }
; 632  :     else if (Py_TYPE(result)->tp_descr_get) {

  0009a	48 8b 44 24 20	 mov	 rax, QWORD PTR result$[rsp]
  0009f	48 8b 40 58	 mov	 rax, QWORD PTR [rax+88]
  000a3	48 83 b8 68 01
	00 00 00	 cmp	 QWORD PTR [rax+360], 0
  000ab	74 22		 je	 SHORT $LN2@type_get_d

; 633  :         result = Py_TYPE(result)->tp_descr_get(result, NULL,
; 634  :                                                (PyObject *)type);

  000ad	48 8b 44 24 20	 mov	 rax, QWORD PTR result$[rsp]
  000b2	48 8b 40 58	 mov	 rax, QWORD PTR [rax+88]
  000b6	4c 8b 44 24 40	 mov	 r8, QWORD PTR type$[rsp]
  000bb	33 d2		 xor	 edx, edx
  000bd	48 8b 4c 24 20	 mov	 rcx, QWORD PTR result$[rsp]
  000c2	ff 90 68 01 00
	00		 call	 QWORD PTR [rax+360]
  000c8	48 89 44 24 20	 mov	 QWORD PTR result$[rsp], rax

; 635  :     }
; 636  :     else {

  000cd	eb 0a		 jmp	 SHORT $LN1@type_get_d
$LN2@type_get_d:

; 637  :         Py_INCREF(result);

  000cf	48 8b 4c 24 20	 mov	 rcx, QWORD PTR result$[rsp]
  000d4	e8 00 00 00 00	 call	 _Py_IncRef
$LN1@type_get_d:
$LN3@type_get_d:

; 638  :     }
; 639  :     return result;

  000d9	48 8b 44 24 20	 mov	 rax, QWORD PTR result$[rsp]
$LN6@type_get_d:

; 640  : }

  000de	48 83 c4 38	 add	 rsp, 56			; 00000038H
  000e2	c3		 ret	 0
type_get_doc ENDP
_TEXT	ENDS
PUBLIC	??_C@_0N@DPJMDBLL@type_set_doc?$AA@		; `string'
;	COMDAT pdata
pdata	SEGMENT
$pdata$type_set_doc DD imagerel type_set_doc
	DD	imagerel type_set_doc+155
	DD	imagerel $unwind$type_set_doc
pdata	ENDS
;	COMDAT xdata
xdata	SEGMENT
$unwind$type_set_doc DD 011301H
	DD	04213H
xdata	ENDS
;	COMDAT ??_C@_0N@DPJMDBLL@type_set_doc?$AA@
CONST	SEGMENT
??_C@_0N@DPJMDBLL@type_set_doc?$AA@ DB 'type_set_doc', 00H ; `string'
; Function compile flags: /Odtp
CONST	ENDS
;	COMDAT type_set_doc
_TEXT	SEGMENT
type$ = 48
value$ = 56
context$ = 64
type_set_doc PROC					; COMDAT

; 644  : {

  00000	4c 89 44 24 18	 mov	 QWORD PTR [rsp+24], r8
  00005	48 89 54 24 10	 mov	 QWORD PTR [rsp+16], rdx
  0000a	48 89 4c 24 08	 mov	 QWORD PTR [rsp+8], rcx
  0000f	48 83 ec 28	 sub	 rsp, 40			; 00000028H

; 645  :     Py_GUARD

  00013	e8 00 00 00 00	 call	 _Py_PXCTX
  00018	85 c0		 test	 eax, eax
  0001a	74 1c		 je	 SHORT $LN2@type_set_d
  0001c	45 33 c9	 xor	 r9d, r9d
  0001f	41 b8 85 02 00
	00		 mov	 r8d, 645		; 00000285H
  00025	48 8d 15 00 00
	00 00		 lea	 rdx, OFFSET FLAT:??_C@_0BI@PKBBAMFA@?4?4?2Objects?2typeobject?4c?$AA@
  0002c	48 8d 0d 00 00
	00 00		 lea	 rcx, OFFSET FLAT:??_C@_0N@DPJMDBLL@type_set_doc?$AA@
  00033	e8 00 00 00 00	 call	 _PyParallel_ContextGuardFailure
$LN2@type_set_d:

; 646  :     if (!check_set_special_type_attr(type, value, "__doc__"))

  00038	4c 8d 05 00 00
	00 00		 lea	 r8, OFFSET FLAT:??_C@_07DIBBIFIJ@__doc__?$AA@
  0003f	48 8b 54 24 38	 mov	 rdx, QWORD PTR value$[rsp]
  00044	48 8b 4c 24 30	 mov	 rcx, QWORD PTR type$[rsp]
  00049	e8 00 00 00 00	 call	 check_set_special_type_attr
  0004e	85 c0		 test	 eax, eax
  00050	75 07		 jne	 SHORT $LN1@type_set_d

; 647  :         return -1;

  00052	b8 ff ff ff ff	 mov	 eax, -1
  00057	eb 3d		 jmp	 SHORT $LN3@type_set_d
$LN1@type_set_d:

; 648  :     PyType_Modified(type);

  00059	48 8b 4c 24 30	 mov	 rcx, QWORD PTR type$[rsp]
  0005e	e8 00 00 00 00	 call	 PyType_Modified

; 649  :     return _PyDict_SetItemId(type->tp_dict, &PyId___doc__, value);

  00063	b8 00 00 00 00	 mov	 eax, OFFSET FLAT:PyId___doc__
  00068	8b c0		 mov	 eax, eax
  0006a	8b 0d 00 00 00
	00		 mov	 ecx, DWORD PTR _tls_index
  00070	65 48 8b 14 25
	58 00 00 00	 mov	 rdx, QWORD PTR gs:88
  00079	48 03 04 ca	 add	 rax, QWORD PTR [rdx+rcx*8]
  0007d	4c 8b 44 24 38	 mov	 r8, QWORD PTR value$[rsp]
  00082	48 8b d0	 mov	 rdx, rax
  00085	48 8b 44 24 30	 mov	 rax, QWORD PTR type$[rsp]
  0008a	48 8b 88 60 01
	00 00		 mov	 rcx, QWORD PTR [rax+352]
  00091	e8 00 00 00 00	 call	 _PyDict_SetItemId
$LN3@type_set_d:

; 650  : }

  00096	48 83 c4 28	 add	 rsp, 40			; 00000028H
  0009a	c3		 ret	 0
type_set_doc ENDP
_TEXT	ENDS
EXTRN	_Py_TrueStruct:BYTE
EXTRN	_Py_FalseStruct:BYTE
EXTRN	_PyObject_RealIsInstance:PROC
;	COMDAT pdata
pdata	SEGMENT
$pdata$type___instancecheck__ DD imagerel type___instancecheck__
	DD	imagerel type___instancecheck__+98
	DD	imagerel $unwind$type___instancecheck__
pdata	ENDS
;	COMDAT xdata
xdata	SEGMENT
$unwind$type___instancecheck__ DD 010e01H
	DD	0620eH
; Function compile flags: /Odtp
xdata	ENDS
;	COMDAT type___instancecheck__
_TEXT	SEGMENT
tv67 = 32
type$ = 64
inst$ = 72
type___instancecheck__ PROC				; COMDAT

; 654  : {

  00000	48 89 54 24 10	 mov	 QWORD PTR [rsp+16], rdx
  00005	48 89 4c 24 08	 mov	 QWORD PTR [rsp+8], rcx
  0000a	48 83 ec 38	 sub	 rsp, 56			; 00000038H

; 655  :     switch (_PyObject_RealIsInstance(inst, type)) {

  0000e	48 8b 54 24 40	 mov	 rdx, QWORD PTR type$[rsp]
  00013	48 8b 4c 24 48	 mov	 rcx, QWORD PTR inst$[rsp]
  00018	e8 00 00 00 00	 call	 _PyObject_RealIsInstance
  0001d	89 44 24 20	 mov	 DWORD PTR tv67[rsp], eax
  00021	83 7c 24 20 ff	 cmp	 DWORD PTR tv67[rsp], -1
  00026	74 09		 je	 SHORT $LN3@type___ins
  00028	83 7c 24 20 00	 cmp	 DWORD PTR tv67[rsp], 0
  0002d	74 06		 je	 SHORT $LN2@type___ins
  0002f	eb 19		 jmp	 SHORT $LN1@type___ins
$LN3@type___ins:

; 656  :     case -1:
; 657  :         return NULL;

  00031	33 c0		 xor	 eax, eax
  00033	eb 28		 jmp	 SHORT $LN6@type___ins
$LN2@type___ins:

; 658  :     case 0:
; 659  :         Py_RETURN_FALSE;

  00035	48 8d 0d 00 00
	00 00		 lea	 rcx, OFFSET FLAT:_Py_FalseStruct
  0003c	e8 00 00 00 00	 call	 _Py_IncRef
  00041	48 8d 05 00 00
	00 00		 lea	 rax, OFFSET FLAT:_Py_FalseStruct
  00048	eb 13		 jmp	 SHORT $LN6@type___ins
$LN1@type___ins:

; 660  :     default:
; 661  :         Py_RETURN_TRUE;

  0004a	48 8d 0d 00 00
	00 00		 lea	 rcx, OFFSET FLAT:_Py_TrueStruct
  00051	e8 00 00 00 00	 call	 _Py_IncRef
  00056	48 8d 05 00 00
	00 00		 lea	 rax, OFFSET FLAT:_Py_TrueStruct
$LN6@type___ins:

; 662  :     }
; 663  : }

  0005d	48 83 c4 38	 add	 rsp, 56			; 00000038H
  00061	c3		 ret	 0
type___instancecheck__ ENDP
_TEXT	ENDS
EXTRN	_PyObject_RealIsSubclass:PROC
;	COMDAT pdata
pdata	SEGMENT
$pdata$type___subclasscheck__ DD imagerel type___subclasscheck__
	DD	imagerel type___subclasscheck__+98
	DD	imagerel $unwind$type___subclasscheck__
pdata	ENDS
;	COMDAT xdata
xdata	SEGMENT
$unwind$type___subclasscheck__ DD 010e01H
	DD	0620eH
; Function compile flags: /Odtp
xdata	ENDS
;	COMDAT type___subclasscheck__
_TEXT	SEGMENT
tv67 = 32
type$ = 64
inst$ = 72
type___subclasscheck__ PROC				; COMDAT

; 668  : {

  00000	48 89 54 24 10	 mov	 QWORD PTR [rsp+16], rdx
  00005	48 89 4c 24 08	 mov	 QWORD PTR [rsp+8], rcx
  0000a	48 83 ec 38	 sub	 rsp, 56			; 00000038H

; 669  :     switch (_PyObject_RealIsSubclass(inst, type)) {

  0000e	48 8b 54 24 40	 mov	 rdx, QWORD PTR type$[rsp]
  00013	48 8b 4c 24 48	 mov	 rcx, QWORD PTR inst$[rsp]
  00018	e8 00 00 00 00	 call	 _PyObject_RealIsSubclass
  0001d	89 44 24 20	 mov	 DWORD PTR tv67[rsp], eax
  00021	83 7c 24 20 ff	 cmp	 DWORD PTR tv67[rsp], -1
  00026	74 09		 je	 SHORT $LN3@type___sub
  00028	83 7c 24 20 00	 cmp	 DWORD PTR tv67[rsp], 0
  0002d	74 06		 je	 SHORT $LN2@type___sub
  0002f	eb 19		 jmp	 SHORT $LN1@type___sub
$LN3@type___sub:

; 670  :     case -1:
; 671  :         return NULL;

  00031	33 c0		 xor	 eax, eax
  00033	eb 28		 jmp	 SHORT $LN6@type___sub
$LN2@type___sub:

; 672  :     case 0:
; 673  :         Py_RETURN_FALSE;

  00035	48 8d 0d 00 00
	00 00		 lea	 rcx, OFFSET FLAT:_Py_FalseStruct
  0003c	e8 00 00 00 00	 call	 _Py_IncRef
  00041	48 8d 05 00 00
	00 00		 lea	 rax, OFFSET FLAT:_Py_FalseStruct
  00048	eb 13		 jmp	 SHORT $LN6@type___sub
$LN1@type___sub:

; 674  :     default:
; 675  :         Py_RETURN_TRUE;

  0004a	48 8d 0d 00 00
	00 00		 lea	 rcx, OFFSET FLAT:_Py_TrueStruct
  00051	e8 00 00 00 00	 call	 _Py_IncRef
  00056	48 8d 05 00 00
	00 00		 lea	 rax, OFFSET FLAT:_Py_TrueStruct
$LN6@type___sub:

; 676  :     }
; 677  : }

  0005d	48 83 c4 38	 add	 rsp, 56			; 00000038H
  00061	c3		 ret	 0
type___subclasscheck__ ENDP
_TEXT	ENDS
PUBLIC	??_C@_0N@GEOGLJIP@?$DMclass?5?8?$CFs?8?$DO?$AA@	; `string'
PUBLIC	??_C@_0BA@IKEBEBBA@?$DMclass?5?8?$CFU?4?$CFU?8?$DO?$AA@ ; `string'
EXTRN	PyUnicode_FromFormat:PROC
EXTRN	PyUnicode_CompareWithASCIIString:PROC
EXTRN	PyErr_Clear:PROC
;	COMDAT pdata
pdata	SEGMENT
$pdata$type_repr DD imagerel type_repr
	DD	imagerel type_repr+265
	DD	imagerel $unwind$type_repr
pdata	ENDS
;	COMDAT xdata
xdata	SEGMENT
$unwind$type_repr DD 010901H
	DD	08209H
xdata	ENDS
;	COMDAT ??_C@_0N@GEOGLJIP@?$DMclass?5?8?$CFs?8?$DO?$AA@
CONST	SEGMENT
??_C@_0N@GEOGLJIP@?$DMclass?5?8?$CFs?8?$DO?$AA@ DB '<class ''%s''>', 00H ; `string'
CONST	ENDS
;	COMDAT ??_C@_0BA@IKEBEBBA@?$DMclass?5?8?$CFU?4?$CFU?8?$DO?$AA@
CONST	SEGMENT
??_C@_0BA@IKEBEBBA@?$DMclass?5?8?$CFU?4?$CFU?8?$DO?$AA@ DB '<class ''%U.%'
	DB	'U''>', 00H					; `string'
; Function compile flags: /Odtp
CONST	ENDS
;	COMDAT type_repr
_TEXT	SEGMENT
name$ = 32
rtn$ = 40
mod$ = 48
type$ = 80
type_repr PROC						; COMDAT

; 694  : {

  00000	48 89 4c 24 08	 mov	 QWORD PTR [rsp+8], rcx
  00005	48 83 ec 48	 sub	 rsp, 72			; 00000048H

; 695  :     PyObject *mod, *name, *rtn;
; 696  : 
; 697  :     mod = type_module(type, NULL);

  00009	33 d2		 xor	 edx, edx
  0000b	48 8b 4c 24 50	 mov	 rcx, QWORD PTR type$[rsp]
  00010	e8 00 00 00 00	 call	 type_module
  00015	48 89 44 24 30	 mov	 QWORD PTR mod$[rsp], rax

; 698  :     if (mod == NULL)

  0001a	48 83 7c 24 30
	00		 cmp	 QWORD PTR mod$[rsp], 0
  00020	75 07		 jne	 SHORT $LN14@type_repr

; 699  :         PyErr_Clear();

  00022	e8 00 00 00 00	 call	 PyErr_Clear
  00027	eb 2b		 jmp	 SHORT $LN13@type_repr
$LN14@type_repr:

; 700  :     else if (!PyUnicode_Check(mod)) {

  00029	48 8b 44 24 30	 mov	 rax, QWORD PTR mod$[rsp]
  0002e	48 8b 40 58	 mov	 rax, QWORD PTR [rax+88]
  00032	8b 80 00 01 00
	00		 mov	 eax, DWORD PTR [rax+256]
  00038	25 00 00 00 10	 and	 eax, 268435456		; 10000000H
  0003d	85 c0		 test	 eax, eax
  0003f	75 13		 jne	 SHORT $LN12@type_repr

; 701  :         Py_DECREF(mod);

  00041	48 8b 4c 24 30	 mov	 rcx, QWORD PTR mod$[rsp]
  00046	e8 00 00 00 00	 call	 _Py_DecRef

; 702  :         mod = NULL;

  0004b	48 c7 44 24 30
	00 00 00 00	 mov	 QWORD PTR mod$[rsp], 0
$LN12@type_repr:
$LN13@type_repr:

; 703  :     }
; 704  :     name = type_qualname(type, NULL);

  00054	33 d2		 xor	 edx, edx
  00056	48 8b 4c 24 50	 mov	 rcx, QWORD PTR type$[rsp]
  0005b	e8 00 00 00 00	 call	 type_qualname
  00060	48 89 44 24 20	 mov	 QWORD PTR name$[rsp], rax

; 705  :     if (name == NULL) {

  00065	48 83 7c 24 20
	00		 cmp	 QWORD PTR name$[rsp], 0
  0006b	75 1c		 jne	 SHORT $LN11@type_repr
$LN10@type_repr:

; 706  :         Py_XDECREF(mod);

  0006d	48 83 7c 24 30
	00		 cmp	 QWORD PTR mod$[rsp], 0
  00073	74 0a		 je	 SHORT $LN7@type_repr
  00075	48 8b 4c 24 30	 mov	 rcx, QWORD PTR mod$[rsp]
  0007a	e8 00 00 00 00	 call	 _Py_DecRef
$LN7@type_repr:
  0007f	33 c0		 xor	 eax, eax
  00081	85 c0		 test	 eax, eax
  00083	75 e8		 jne	 SHORT $LN10@type_repr

; 707  :         return NULL;

  00085	33 c0		 xor	 eax, eax
  00087	eb 7b		 jmp	 SHORT $LN15@type_repr
$LN11@type_repr:

; 708  :     }
; 709  : 
; 710  :     if (mod != NULL && PyUnicode_CompareWithASCIIString(mod, "builtins"))

  00089	48 83 7c 24 30
	00		 cmp	 QWORD PTR mod$[rsp], 0
  0008f	74 32		 je	 SHORT $LN6@type_repr
  00091	48 8d 15 00 00
	00 00		 lea	 rdx, OFFSET FLAT:??_C@_08OCOMCJAJ@builtins?$AA@
  00098	48 8b 4c 24 30	 mov	 rcx, QWORD PTR mod$[rsp]
  0009d	e8 00 00 00 00	 call	 PyUnicode_CompareWithASCIIString
  000a2	85 c0		 test	 eax, eax
  000a4	74 1d		 je	 SHORT $LN6@type_repr

; 711  :         rtn = PyUnicode_FromFormat("<class '%U.%U'>", mod, name);

  000a6	4c 8b 44 24 20	 mov	 r8, QWORD PTR name$[rsp]
  000ab	48 8b 54 24 30	 mov	 rdx, QWORD PTR mod$[rsp]
  000b0	48 8d 0d 00 00
	00 00		 lea	 rcx, OFFSET FLAT:??_C@_0BA@IKEBEBBA@?$DMclass?5?8?$CFU?4?$CFU?8?$DO?$AA@
  000b7	e8 00 00 00 00	 call	 PyUnicode_FromFormat
  000bc	48 89 44 24 28	 mov	 QWORD PTR rtn$[rsp], rax

; 712  :     else

  000c1	eb 1a		 jmp	 SHORT $LN5@type_repr
$LN6@type_repr:

; 713  :         rtn = PyUnicode_FromFormat("<class '%s'>", type->tp_name);

  000c3	48 8b 44 24 50	 mov	 rax, QWORD PTR type$[rsp]
  000c8	48 8b 50 70	 mov	 rdx, QWORD PTR [rax+112]
  000cc	48 8d 0d 00 00
	00 00		 lea	 rcx, OFFSET FLAT:??_C@_0N@GEOGLJIP@?$DMclass?5?8?$CFs?8?$DO?$AA@
  000d3	e8 00 00 00 00	 call	 PyUnicode_FromFormat
  000d8	48 89 44 24 28	 mov	 QWORD PTR rtn$[rsp], rax
$LN5@type_repr:
$LN4@type_repr:

; 714  : 
; 715  :     Py_XDECREF(mod);

  000dd	48 83 7c 24 30
	00		 cmp	 QWORD PTR mod$[rsp], 0
  000e3	74 0a		 je	 SHORT $LN1@type_repr
  000e5	48 8b 4c 24 30	 mov	 rcx, QWORD PTR mod$[rsp]
  000ea	e8 00 00 00 00	 call	 _Py_DecRef
$LN1@type_repr:
  000ef	33 c0		 xor	 eax, eax
  000f1	85 c0		 test	 eax, eax
  000f3	75 e8		 jne	 SHORT $LN4@type_repr

; 716  :     Py_DECREF(name);

  000f5	48 8b 4c 24 20	 mov	 rcx, QWORD PTR name$[rsp]
  000fa	e8 00 00 00 00	 call	 _Py_DecRef

; 717  :     return rtn;

  000ff	48 8b 44 24 28	 mov	 rax, QWORD PTR rtn$[rsp]
$LN15@type_repr:

; 718  : }

  00104	48 83 c4 48	 add	 rsp, 72			; 00000048H
  00108	c3		 ret	 0
type_repr ENDP
_TEXT	ENDS
PUBLIC	??_C@_0CB@DBBFJFOD@cannot?5create?5?8?$CF?4100s?8?5instances@ ; `string'
EXTRN	PyDict_Size:PROC
;	COMDAT pdata
pdata	SEGMENT
$pdata$type_call DD imagerel type_call
	DD	imagerel type_call+334
	DD	imagerel $unwind$type_call
pdata	ENDS
;	COMDAT xdata
xdata	SEGMENT
$unwind$type_call DD 011301H
	DD	06213H
xdata	ENDS
;	COMDAT ??_C@_0CB@DBBFJFOD@cannot?5create?5?8?$CF?4100s?8?5instances@
CONST	SEGMENT
??_C@_0CB@DBBFJFOD@cannot?5create?5?8?$CF?4100s?8?5instances@ DB 'cannot '
	DB	'create ''%.100s'' instances', 00H		; `string'
; Function compile flags: /Odtp
CONST	ENDS
;	COMDAT type_call
_TEXT	SEGMENT
obj$ = 32
type$ = 64
args$ = 72
kwds$ = 80
type_call PROC						; COMDAT

; 722  : {

  00000	4c 89 44 24 18	 mov	 QWORD PTR [rsp+24], r8
  00005	48 89 54 24 10	 mov	 QWORD PTR [rsp+16], rdx
  0000a	48 89 4c 24 08	 mov	 QWORD PTR [rsp+8], rcx
  0000f	48 83 ec 38	 sub	 rsp, 56			; 00000038H

; 723  :     PyObject *obj;
; 724  : 
; 725  :     if (type->tp_new == NULL) {

  00013	48 8b 44 24 40	 mov	 rax, QWORD PTR type$[rsp]
  00018	48 83 b8 90 01
	00 00 00	 cmp	 QWORD PTR [rax+400], 0
  00020	75 23		 jne	 SHORT $LN6@type_call

; 726  :         PyErr_Format(PyExc_TypeError,
; 727  :                      "cannot create '%.100s' instances",
; 728  :                      type->tp_name);

  00022	48 8b 44 24 40	 mov	 rax, QWORD PTR type$[rsp]
  00027	4c 8b 40 70	 mov	 r8, QWORD PTR [rax+112]
  0002b	48 8d 15 00 00
	00 00		 lea	 rdx, OFFSET FLAT:??_C@_0CB@DBBFJFOD@cannot?5create?5?8?$CF?4100s?8?5instances@
  00032	48 8b 0d 00 00
	00 00		 mov	 rcx, QWORD PTR PyExc_TypeError
  00039	e8 00 00 00 00	 call	 PyErr_Format

; 729  :         return NULL;

  0003e	33 c0		 xor	 eax, eax
  00040	e9 04 01 00 00	 jmp	 $LN7@type_call
$LN6@type_call:

; 730  :     }
; 731  : 
; 732  :     obj = type->tp_new(type, args, kwds);

  00045	4c 8b 44 24 50	 mov	 r8, QWORD PTR kwds$[rsp]
  0004a	48 8b 54 24 48	 mov	 rdx, QWORD PTR args$[rsp]
  0004f	48 8b 4c 24 40	 mov	 rcx, QWORD PTR type$[rsp]
  00054	48 8b 44 24 40	 mov	 rax, QWORD PTR type$[rsp]
  00059	ff 90 90 01 00
	00		 call	 QWORD PTR [rax+400]
  0005f	48 89 44 24 20	 mov	 QWORD PTR obj$[rsp], rax

; 733  :     if (obj != NULL) {

  00064	48 83 7c 24 20
	00		 cmp	 QWORD PTR obj$[rsp], 0
  0006a	0f 84 d4 00 00
	00		 je	 $LN5@type_call

; 734  :         /* Ugly exception: when the call was type(something),
; 735  :            don't call tp_init on the result. */
; 736  :         if (type == &PyType_Type &&
; 737  :             PyTuple_Check(args) && PyTuple_GET_SIZE(args) == 1 &&
; 738  :             (kwds == NULL ||
; 739  :              (PyDict_Check(kwds) && PyDict_Size(kwds) == 0)))

  00070	48 8d 05 00 00
	00 00		 lea	 rax, OFFSET FLAT:PyType_Type
  00077	48 39 44 24 40	 cmp	 QWORD PTR type$[rsp], rax
  0007c	75 5a		 jne	 SHORT $LN4@type_call
  0007e	48 8b 44 24 48	 mov	 rax, QWORD PTR args$[rsp]
  00083	48 8b 40 58	 mov	 rax, QWORD PTR [rax+88]
  00087	8b 80 00 01 00
	00		 mov	 eax, DWORD PTR [rax+256]
  0008d	25 00 00 00 04	 and	 eax, 67108864		; 04000000H
  00092	85 c0		 test	 eax, eax
  00094	74 42		 je	 SHORT $LN4@type_call
  00096	48 8b 44 24 48	 mov	 rax, QWORD PTR args$[rsp]
  0009b	48 83 78 60 01	 cmp	 QWORD PTR [rax+96], 1
  000a0	75 36		 jne	 SHORT $LN4@type_call
  000a2	48 83 7c 24 50
	00		 cmp	 QWORD PTR kwds$[rsp], 0
  000a8	74 27		 je	 SHORT $LN3@type_call
  000aa	48 8b 44 24 50	 mov	 rax, QWORD PTR kwds$[rsp]
  000af	48 8b 40 58	 mov	 rax, QWORD PTR [rax+88]
  000b3	8b 80 00 01 00
	00		 mov	 eax, DWORD PTR [rax+256]
  000b9	25 00 00 00 20	 and	 eax, 536870912		; 20000000H
  000be	85 c0		 test	 eax, eax
  000c0	74 16		 je	 SHORT $LN4@type_call
  000c2	48 8b 4c 24 50	 mov	 rcx, QWORD PTR kwds$[rsp]
  000c7	e8 00 00 00 00	 call	 PyDict_Size
  000cc	48 85 c0	 test	 rax, rax
  000cf	75 07		 jne	 SHORT $LN4@type_call
$LN3@type_call:

; 740  :             return obj;

  000d1	48 8b 44 24 20	 mov	 rax, QWORD PTR obj$[rsp]
  000d6	eb 71		 jmp	 SHORT $LN7@type_call
$LN4@type_call:

; 741  :         /* If the returned object is not an instance of type,
; 742  :            it won't be initialized. */
; 743  :         if (!PyType_IsSubtype(Py_TYPE(obj), type))

  000d8	48 8b 54 24 40	 mov	 rdx, QWORD PTR type$[rsp]
  000dd	48 8b 44 24 20	 mov	 rax, QWORD PTR obj$[rsp]
  000e2	48 8b 48 58	 mov	 rcx, QWORD PTR [rax+88]
  000e6	e8 00 00 00 00	 call	 PyType_IsSubtype
  000eb	85 c0		 test	 eax, eax
  000ed	75 07		 jne	 SHORT $LN2@type_call

; 744  :             return obj;

  000ef	48 8b 44 24 20	 mov	 rax, QWORD PTR obj$[rsp]
  000f4	eb 53		 jmp	 SHORT $LN7@type_call
$LN2@type_call:

; 745  :         type = Py_TYPE(obj);

  000f6	48 8b 44 24 20	 mov	 rax, QWORD PTR obj$[rsp]
  000fb	48 8b 40 58	 mov	 rax, QWORD PTR [rax+88]
  000ff	48 89 44 24 40	 mov	 QWORD PTR type$[rsp], rax

; 746  :         if (type->tp_init != NULL &&
; 747  :             type->tp_init(obj, args, kwds) < 0) {

  00104	48 8b 44 24 40	 mov	 rax, QWORD PTR type$[rsp]
  00109	48 83 b8 80 01
	00 00 00	 cmp	 QWORD PTR [rax+384], 0
  00111	74 31		 je	 SHORT $LN1@type_call
  00113	4c 8b 44 24 50	 mov	 r8, QWORD PTR kwds$[rsp]
  00118	48 8b 54 24 48	 mov	 rdx, QWORD PTR args$[rsp]
  0011d	48 8b 4c 24 20	 mov	 rcx, QWORD PTR obj$[rsp]
  00122	48 8b 44 24 40	 mov	 rax, QWORD PTR type$[rsp]
  00127	ff 90 80 01 00
	00		 call	 QWORD PTR [rax+384]
  0012d	85 c0		 test	 eax, eax
  0012f	7d 13		 jge	 SHORT $LN1@type_call

; 748  :             Py_DECREF(obj);

  00131	48 8b 4c 24 20	 mov	 rcx, QWORD PTR obj$[rsp]
  00136	e8 00 00 00 00	 call	 _Py_DecRef

; 749  :             obj = NULL;

  0013b	48 c7 44 24 20
	00 00 00 00	 mov	 QWORD PTR obj$[rsp], 0
$LN1@type_call:
$LN5@type_call:

; 750  :         }
; 751  :     }
; 752  :     return obj;

  00144	48 8b 44 24 20	 mov	 rax, QWORD PTR obj$[rsp]
$LN7@type_call:

; 753  : }

  00149	48 83 c4 38	 add	 rsp, 56			; 00000038H
  0014d	c3		 ret	 0
type_call ENDP
_TEXT	ENDS
PUBLIC	??_C@_0BK@BNIPEKEF@GC?5object?5already?5tracked?$AA@ ; `string'
PUBLIC	??_C@_0BE@MMPMJCHN@PyType_GenericAlloc?$AA@	; `string'
EXTRN	_PyGC_generation0:QWORD
EXTRN	Py_FatalError:PROC
EXTRN	memset:PROC
EXTRN	PyErr_NoMemory:PROC
EXTRN	_PyObject_DebugMalloc:PROC
EXTRN	_PyObject_GC_Malloc:PROC
;	COMDAT pdata
pdata	SEGMENT
$pdata$PyType_GenericAlloc DD imagerel $LN25
	DD	imagerel $LN25+603
	DD	imagerel $unwind$PyType_GenericAlloc
pdata	ENDS
;	COMDAT xdata
xdata	SEGMENT
$unwind$PyType_GenericAlloc DD 010e01H
	DD	0c20eH
xdata	ENDS
;	COMDAT ??_C@_0BK@BNIPEKEF@GC?5object?5already?5tracked?$AA@
CONST	SEGMENT
??_C@_0BK@BNIPEKEF@GC?5object?5already?5tracked?$AA@ DB 'GC object alread'
	DB	'y tracked', 00H				; `string'
CONST	ENDS
;	COMDAT ??_C@_0BE@MMPMJCHN@PyType_GenericAlloc?$AA@
CONST	SEGMENT
??_C@_0BE@MMPMJCHN@PyType_GenericAlloc?$AA@ DB 'PyType_GenericAlloc', 00H ; `string'
; Function compile flags: /Odtp
CONST	ENDS
;	COMDAT PyType_GenericAlloc
_TEXT	SEGMENT
size$ = 48
obj$ = 56
g$21056 = 64
tv77 = 72
tv75 = 76
tv137 = 80
tv135 = 84
tv154 = 88
type$ = 112
nitems$ = 120
PyType_GenericAlloc PROC				; COMDAT

; 757  : {

$LN25:
  00000	48 89 54 24 10	 mov	 QWORD PTR [rsp+16], rdx
  00005	48 89 4c 24 08	 mov	 QWORD PTR [rsp+8], rcx
  0000a	48 83 ec 68	 sub	 rsp, 104		; 00000068H

; 758  :     PyObject *obj;
; 759  :     const size_t size = _PyObject_VAR_SIZE(type, nitems+1);

  0000e	48 8b 44 24 78	 mov	 rax, QWORD PTR nitems$[rsp]
  00013	48 ff c0	 inc	 rax
  00016	48 8b 4c 24 70	 mov	 rcx, QWORD PTR type$[rsp]
  0001b	48 0f af 81 80
	00 00 00	 imul	 rax, QWORD PTR [rcx+128]
  00023	48 8b 4c 24 70	 mov	 rcx, QWORD PTR type$[rsp]
  00028	48 8b 49 78	 mov	 rcx, QWORD PTR [rcx+120]
  0002c	48 8d 44 01 07	 lea	 rax, QWORD PTR [rcx+rax+7]
  00031	48 83 e0 f8	 and	 rax, -8
  00035	48 89 44 24 30	 mov	 QWORD PTR size$[rsp], rax

; 760  :     /* note that we need to add one, for the sentinel */
; 761  : 
; 762  :     if (PyType_IS_GC(type))

  0003a	e8 00 00 00 00	 call	 _Py_PXCTX
  0003f	85 c0		 test	 eax, eax
  00041	74 0a		 je	 SHORT $LN17@PyType_Gen
  00043	c7 44 24 48 00
	00 00 00	 mov	 DWORD PTR tv77[rsp], 0
  0004b	eb 2e		 jmp	 SHORT $LN18@PyType_Gen
$LN17@PyType_Gen:
  0004d	48 8b 44 24 70	 mov	 rax, QWORD PTR type$[rsp]
  00052	8b 80 00 01 00
	00		 mov	 eax, DWORD PTR [rax+256]
  00058	25 00 40 00 00	 and	 eax, 16384		; 00004000H
  0005d	85 c0		 test	 eax, eax
  0005f	74 0a		 je	 SHORT $LN15@PyType_Gen
  00061	c7 44 24 4c 01
	00 00 00	 mov	 DWORD PTR tv75[rsp], 1
  00069	eb 08		 jmp	 SHORT $LN16@PyType_Gen
$LN15@PyType_Gen:
  0006b	c7 44 24 4c 00
	00 00 00	 mov	 DWORD PTR tv75[rsp], 0
$LN16@PyType_Gen:
  00073	8b 44 24 4c	 mov	 eax, DWORD PTR tv75[rsp]
  00077	89 44 24 48	 mov	 DWORD PTR tv77[rsp], eax
$LN18@PyType_Gen:
  0007b	83 7c 24 48 00	 cmp	 DWORD PTR tv77[rsp], 0
  00080	74 11		 je	 SHORT $LN12@PyType_Gen

; 763  :         obj = _PyObject_GC_Malloc(size);

  00082	48 8b 4c 24 30	 mov	 rcx, QWORD PTR size$[rsp]
  00087	e8 00 00 00 00	 call	 _PyObject_GC_Malloc
  0008c	48 89 44 24 38	 mov	 QWORD PTR obj$[rsp], rax

; 764  :     else

  00091	eb 0f		 jmp	 SHORT $LN11@PyType_Gen
$LN12@PyType_Gen:

; 765  :         obj = (PyObject *)PyObject_MALLOC(size);

  00093	48 8b 4c 24 30	 mov	 rcx, QWORD PTR size$[rsp]
  00098	e8 00 00 00 00	 call	 _PyObject_DebugMalloc
  0009d	48 89 44 24 38	 mov	 QWORD PTR obj$[rsp], rax
$LN11@PyType_Gen:

; 766  : 
; 767  :     if (obj == NULL)

  000a2	48 83 7c 24 38
	00		 cmp	 QWORD PTR obj$[rsp], 0
  000a8	75 0a		 jne	 SHORT $LN10@PyType_Gen

; 768  :         return PyErr_NoMemory();

  000aa	e8 00 00 00 00	 call	 PyErr_NoMemory
  000af	e9 a2 01 00 00	 jmp	 $LN13@PyType_Gen
$LN10@PyType_Gen:

; 769  : 
; 770  :     memset(obj, '\0', size);

  000b4	4c 8b 44 24 30	 mov	 r8, QWORD PTR size$[rsp]
  000b9	33 d2		 xor	 edx, edx
  000bb	48 8b 4c 24 38	 mov	 rcx, QWORD PTR obj$[rsp]
  000c0	e8 00 00 00 00	 call	 memset

; 771  : 
; 772  :     if (type->tp_flags & Py_TPFLAGS_HEAPTYPE)

  000c5	48 8b 44 24 70	 mov	 rax, QWORD PTR type$[rsp]
  000ca	8b 80 00 01 00
	00		 mov	 eax, DWORD PTR [rax+256]
  000d0	25 00 02 00 00	 and	 eax, 512		; 00000200H
  000d5	85 c0		 test	 eax, eax
  000d7	74 0a		 je	 SHORT $LN9@PyType_Gen

; 773  :         Py_INCREF(type);

  000d9	48 8b 4c 24 70	 mov	 rcx, QWORD PTR type$[rsp]
  000de	e8 00 00 00 00	 call	 _Py_IncRef
$LN9@PyType_Gen:

; 774  : 
; 775  :     if (type->tp_itemsize == 0)

  000e3	48 8b 44 24 70	 mov	 rax, QWORD PTR type$[rsp]
  000e8	48 83 b8 80 00
	00 00 00	 cmp	 QWORD PTR [rax+128], 0
  000f0	75 11		 jne	 SHORT $LN8@PyType_Gen

; 776  :         PyObject_INIT(obj, type);

  000f2	48 8b 54 24 70	 mov	 rdx, QWORD PTR type$[rsp]
  000f7	48 8b 4c 24 38	 mov	 rcx, QWORD PTR obj$[rsp]
  000fc	e8 00 00 00 00	 call	 PyObject_INIT

; 777  :     else

  00101	eb 14		 jmp	 SHORT $LN7@PyType_Gen
$LN8@PyType_Gen:

; 778  :         (void) PyObject_INIT_VAR((PyVarObject *)obj, type, nitems);

  00103	4c 8b 44 24 78	 mov	 r8, QWORD PTR nitems$[rsp]
  00108	48 8b 54 24 70	 mov	 rdx, QWORD PTR type$[rsp]
  0010d	48 8b 4c 24 38	 mov	 rcx, QWORD PTR obj$[rsp]
  00112	e8 00 00 00 00	 call	 PyObject_INIT_VAR
$LN7@PyType_Gen:

; 779  : 
; 780  :     if (PyType_IS_GC(type))

  00117	e8 00 00 00 00	 call	 _Py_PXCTX
  0011c	85 c0		 test	 eax, eax
  0011e	74 0a		 je	 SHORT $LN21@PyType_Gen
  00120	c7 44 24 50 00
	00 00 00	 mov	 DWORD PTR tv137[rsp], 0
  00128	eb 2e		 jmp	 SHORT $LN22@PyType_Gen
$LN21@PyType_Gen:
  0012a	48 8b 44 24 70	 mov	 rax, QWORD PTR type$[rsp]
  0012f	8b 80 00 01 00
	00		 mov	 eax, DWORD PTR [rax+256]
  00135	25 00 40 00 00	 and	 eax, 16384		; 00004000H
  0013a	85 c0		 test	 eax, eax
  0013c	74 0a		 je	 SHORT $LN19@PyType_Gen
  0013e	c7 44 24 54 01
	00 00 00	 mov	 DWORD PTR tv135[rsp], 1
  00146	eb 08		 jmp	 SHORT $LN20@PyType_Gen
$LN19@PyType_Gen:
  00148	c7 44 24 54 00
	00 00 00	 mov	 DWORD PTR tv135[rsp], 0
$LN20@PyType_Gen:
  00150	8b 44 24 54	 mov	 eax, DWORD PTR tv135[rsp]
  00154	89 44 24 50	 mov	 DWORD PTR tv137[rsp], eax
$LN22@PyType_Gen:
  00158	83 7c 24 50 00	 cmp	 DWORD PTR tv137[rsp], 0
  0015d	0f 84 ee 00 00
	00		 je	 $LN6@PyType_Gen

; 781  :         _PyObject_GC_TRACK(obj);

  00163	c7 44 24 20 10
	00 00 00	 mov	 DWORD PTR [rsp+32], 16
  0016b	4c 8b 4c 24 38	 mov	 r9, QWORD PTR obj$[rsp]
  00170	41 b8 0d 03 00
	00		 mov	 r8d, 781		; 0000030dH
  00176	48 8d 15 00 00
	00 00		 lea	 rdx, OFFSET FLAT:??_C@_0BI@PKBBAMFA@?4?4?2Objects?2typeobject?4c?$AA@
  0017d	48 8d 0d 00 00
	00 00		 lea	 rcx, OFFSET FLAT:??_C@_0BE@MMPMJCHN@PyType_GenericAlloc?$AA@
  00184	e8 00 00 00 00	 call	 _PyParallel_Guard
  00189	85 c0		 test	 eax, eax
  0018b	0f 85 c0 00 00
	00		 jne	 $LN5@PyType_Gen
$LN4@PyType_Gen:
  00191	c7 44 24 20 10
	00 00 00	 mov	 DWORD PTR [rsp+32], 16
  00199	4c 8b 4c 24 38	 mov	 r9, QWORD PTR obj$[rsp]
  0019e	41 b8 0d 03 00
	00		 mov	 r8d, 781		; 0000030dH
  001a4	48 8d 15 00 00
	00 00		 lea	 rdx, OFFSET FLAT:??_C@_0BI@PKBBAMFA@?4?4?2Objects?2typeobject?4c?$AA@
  001ab	48 8d 0d 00 00
	00 00		 lea	 rcx, OFFSET FLAT:??_C@_0BE@MMPMJCHN@PyType_GenericAlloc?$AA@
  001b2	e8 00 00 00 00	 call	 _PyParallel_Guard
  001b7	85 c0		 test	 eax, eax
  001b9	74 0b		 je	 SHORT $LN23@PyType_Gen
  001bb	48 c7 44 24 58
	00 00 00 00	 mov	 QWORD PTR tv154[rsp], 0
  001c4	eb 0e		 jmp	 SHORT $LN24@PyType_Gen
$LN23@PyType_Gen:
  001c6	48 8b 44 24 38	 mov	 rax, QWORD PTR obj$[rsp]
  001cb	48 83 e8 18	 sub	 rax, 24
  001cf	48 89 44 24 58	 mov	 QWORD PTR tv154[rsp], rax
$LN24@PyType_Gen:
  001d4	48 8b 44 24 58	 mov	 rax, QWORD PTR tv154[rsp]
  001d9	48 89 44 24 40	 mov	 QWORD PTR g$21056[rsp], rax
  001de	48 8b 44 24 40	 mov	 rax, QWORD PTR g$21056[rsp]
  001e3	48 83 78 10 fe	 cmp	 QWORD PTR [rax+16], -2
  001e8	74 0c		 je	 SHORT $LN1@PyType_Gen
  001ea	48 8d 0d 00 00
	00 00		 lea	 rcx, OFFSET FLAT:??_C@_0BK@BNIPEKEF@GC?5object?5already?5tracked?$AA@
  001f1	e8 00 00 00 00	 call	 Py_FatalError
$LN1@PyType_Gen:
  001f6	48 8b 44 24 40	 mov	 rax, QWORD PTR g$21056[rsp]
  001fb	48 c7 40 10 fd
	ff ff ff	 mov	 QWORD PTR [rax+16], -3
  00203	48 8b 44 24 40	 mov	 rax, QWORD PTR g$21056[rsp]
  00208	48 8b 0d 00 00
	00 00		 mov	 rcx, QWORD PTR _PyGC_generation0
  0020f	48 89 08	 mov	 QWORD PTR [rax], rcx
  00212	48 8b 44 24 40	 mov	 rax, QWORD PTR g$21056[rsp]
  00217	48 8b 0d 00 00
	00 00		 mov	 rcx, QWORD PTR _PyGC_generation0
  0021e	48 8b 49 08	 mov	 rcx, QWORD PTR [rcx+8]
  00222	48 89 48 08	 mov	 QWORD PTR [rax+8], rcx
  00226	48 8b 44 24 40	 mov	 rax, QWORD PTR g$21056[rsp]
  0022b	48 8b 40 08	 mov	 rax, QWORD PTR [rax+8]
  0022f	48 8b 4c 24 40	 mov	 rcx, QWORD PTR g$21056[rsp]
  00234	48 89 08	 mov	 QWORD PTR [rax], rcx
  00237	48 8b 05 00 00
	00 00		 mov	 rax, QWORD PTR _PyGC_generation0
  0023e	48 8b 4c 24 40	 mov	 rcx, QWORD PTR g$21056[rsp]
  00243	48 89 48 08	 mov	 QWORD PTR [rax+8], rcx
  00247	33 c0		 xor	 eax, eax
  00249	85 c0		 test	 eax, eax
  0024b	0f 85 40 ff ff
	ff		 jne	 $LN4@PyType_Gen
$LN5@PyType_Gen:
$LN6@PyType_Gen:

; 782  :     return obj;

  00251	48 8b 44 24 38	 mov	 rax, QWORD PTR obj$[rsp]
$LN13@PyType_Gen:

; 783  : }

  00256	48 83 c4 68	 add	 rsp, 104		; 00000068H
  0025a	c3		 ret	 0
PyType_GenericAlloc ENDP
_TEXT	ENDS
EXTRN	_Py_NewReference:PROC
EXTRN	_PxObject_Init:PROC
;	COMDAT pdata
; File c:\src\pyparallel\include\objimpl.h
pdata	SEGMENT
$pdata$PyObject_INIT DD imagerel PyObject_INIT
	DD	imagerel PyObject_INIT+84
	DD	imagerel $unwind$PyObject_INIT
pdata	ENDS
;	COMDAT xdata
xdata	SEGMENT
$unwind$PyObject_INIT DD 010e01H
	DD	0420eH
; Function compile flags: /Odtp
xdata	ENDS
;	COMDAT PyObject_INIT
_TEXT	SEGMENT
op$ = 48
tp$ = 56
PyObject_INIT PROC					; COMDAT

; 236  : {

  00000	48 89 54 24 10	 mov	 QWORD PTR [rsp+16], rdx
  00005	48 89 4c 24 08	 mov	 QWORD PTR [rsp+8], rcx
  0000a	48 83 ec 28	 sub	 rsp, 40			; 00000028H

; 237  :     Px_RETURN(_PxObject_Init(op, tp))

  0000e	e8 00 00 00 00	 call	 _Py_PXCTX
  00013	85 c0		 test	 eax, eax
  00015	74 11		 je	 SHORT $LN1@PyObject_I
  00017	48 8b 54 24 38	 mov	 rdx, QWORD PTR tp$[rsp]
  0001c	48 8b 4c 24 30	 mov	 rcx, QWORD PTR op$[rsp]
  00021	e8 00 00 00 00	 call	 _PxObject_Init
  00026	eb 27		 jmp	 SHORT $LN2@PyObject_I
$LN1@PyObject_I:

; 238  :     Py_TYPE(op) = tp;

  00028	48 8b 44 24 30	 mov	 rax, QWORD PTR op$[rsp]
  0002d	48 8b 4c 24 38	 mov	 rcx, QWORD PTR tp$[rsp]
  00032	48 89 48 58	 mov	 QWORD PTR [rax+88], rcx

; 239  :     _PyObject_InitHead(op);

  00036	48 8b 4c 24 30	 mov	 rcx, QWORD PTR op$[rsp]
  0003b	e8 00 00 00 00	 call	 _PyObject_InitHead

; 240  :     _Py_NewReference(op);

  00040	48 8b 4c 24 30	 mov	 rcx, QWORD PTR op$[rsp]
  00045	e8 00 00 00 00	 call	 _Py_NewReference

; 241  :     return op;

  0004a	48 8b 44 24 30	 mov	 rax, QWORD PTR op$[rsp]
$LN2@PyObject_I:

; 242  : }

  0004f	48 83 c4 28	 add	 rsp, 40			; 00000028H
  00053	c3		 ret	 0
PyObject_INIT ENDP
_TEXT	ENDS
PUBLIC	??_C@_1BI@GPFDFIDP@?$AAP?$AAy?$AA_?$AAT?$AAY?$AAP?$AAE?$AA?$CI?$AAo?$AAp?$AA?$CJ?$AA?$AA@ ; `string'
PUBLIC	??_C@_1EI@MBCBHLGB@?$AAc?$AA?3?$AA?2?$AAs?$AAr?$AAc?$AA?2?$AAp?$AAy?$AAp?$AAa?$AAr?$AAa?$AAl?$AAl?$AAe?$AAl?$AA?2?$AAi?$AAn?$AAc?$AAl?$AAu?$AAd?$AAe?$AA?2?$AAo?$AAb?$AAj?$AAi?$AAm?$AAp@ ; `string'
;	COMDAT pdata
pdata	SEGMENT
$pdata$_PyObject_InitHead DD imagerel _PyObject_InitHead
	DD	imagerel _PyObject_InitHead+182
	DD	imagerel $unwind$_PyObject_InitHead
pdata	ENDS
;	COMDAT xdata
xdata	SEGMENT
$unwind$_PyObject_InitHead DD 010901H
	DD	04209H
xdata	ENDS
;	COMDAT ??_C@_1BI@GPFDFIDP@?$AAP?$AAy?$AA_?$AAT?$AAY?$AAP?$AAE?$AA?$CI?$AAo?$AAp?$AA?$CJ?$AA?$AA@
CONST	SEGMENT
??_C@_1BI@GPFDFIDP@?$AAP?$AAy?$AA_?$AAT?$AAY?$AAP?$AAE?$AA?$CI?$AAo?$AAp?$AA?$CJ?$AA?$AA@ DB 'P'
	DB	00H, 'y', 00H, '_', 00H, 'T', 00H, 'Y', 00H, 'P', 00H, 'E', 00H
	DB	'(', 00H, 'o', 00H, 'p', 00H, ')', 00H, 00H, 00H ; `string'
CONST	ENDS
;	COMDAT ??_C@_1EI@MBCBHLGB@?$AAc?$AA?3?$AA?2?$AAs?$AAr?$AAc?$AA?2?$AAp?$AAy?$AAp?$AAa?$AAr?$AAa?$AAl?$AAl?$AAe?$AAl?$AA?2?$AAi?$AAn?$AAc?$AAl?$AAu?$AAd?$AAe?$AA?2?$AAo?$AAb?$AAj?$AAi?$AAm?$AAp@
CONST	SEGMENT
??_C@_1EI@MBCBHLGB@?$AAc?$AA?3?$AA?2?$AAs?$AAr?$AAc?$AA?2?$AAp?$AAy?$AAp?$AAa?$AAr?$AAa?$AAl?$AAl?$AAe?$AAl?$AA?2?$AAi?$AAn?$AAc?$AAl?$AAu?$AAd?$AAe?$AA?2?$AAo?$AAb?$AAj?$AAi?$AAm?$AAp@ DB 'c'
	DB	00H, ':', 00H, '\', 00H, 's', 00H, 'r', 00H, 'c', 00H, '\', 00H
	DB	'p', 00H, 'y', 00H, 'p', 00H, 'a', 00H, 'r', 00H, 'a', 00H, 'l'
	DB	00H, 'l', 00H, 'e', 00H, 'l', 00H, '\', 00H, 'i', 00H, 'n', 00H
	DB	'c', 00H, 'l', 00H, 'u', 00H, 'd', 00H, 'e', 00H, '\', 00H, 'o'
	DB	00H, 'b', 00H, 'j', 00H, 'i', 00H, 'm', 00H, 'p', 00H, 'l', 00H
	DB	'.', 00H, 'h', 00H, 00H, 00H			; `string'
; Function compile flags: /Odtp
CONST	ENDS
;	COMDAT _PyObject_InitHead
_TEXT	SEGMENT
op$ = 48
_PyObject_InitHead PROC					; COMDAT

; 215  : {

  00000	48 89 4c 24 08	 mov	 QWORD PTR [rsp+8], rcx
  00005	48 83 ec 28	 sub	 rsp, 40			; 00000028H

; 216  :     assert(Py_TYPE(op));

  00009	48 8b 44 24 30	 mov	 rax, QWORD PTR op$[rsp]
  0000e	48 83 78 58 00	 cmp	 QWORD PTR [rax+88], 0
  00013	75 1c		 jne	 SHORT $LN3@PyObject_I@2
  00015	41 b8 d8 00 00
	00		 mov	 r8d, 216		; 000000d8H
  0001b	48 8d 15 00 00
	00 00		 lea	 rdx, OFFSET FLAT:??_C@_1EI@MBCBHLGB@?$AAc?$AA?3?$AA?2?$AAs?$AAr?$AAc?$AA?2?$AAp?$AAy?$AAp?$AAa?$AAr?$AAa?$AAl?$AAl?$AAe?$AAl?$AA?2?$AAi?$AAn?$AAc?$AAl?$AAu?$AAd?$AAe?$AA?2?$AAo?$AAb?$AAj?$AAi?$AAm?$AAp@
  00022	48 8d 0d 00 00
	00 00		 lea	 rcx, OFFSET FLAT:??_C@_1BI@GPFDFIDP@?$AAP?$AAy?$AA_?$AAT?$AAY?$AAP?$AAE?$AA?$CI?$AAo?$AAp?$AA?$CJ?$AA?$AA@
  00029	ff 15 00 00 00
	00		 call	 QWORD PTR __imp__wassert
  0002f	33 c0		 xor	 eax, eax
$LN3@PyObject_I@2:

; 217  :     op->is_px = _Py_NOT_PARALLEL;

  00031	48 8b 44 24 30	 mov	 rax, QWORD PTR op$[rsp]
  00036	48 b9 78 56 ef
	be 34 12 ad de	 mov	 rcx, -2401243008567650696 ; dead1234beef5678H
  00040	48 89 08	 mov	 QWORD PTR [rax], rcx

; 218  :     op->px    = _Py_NOT_PARALLEL;

  00043	48 8b 44 24 30	 mov	 rax, QWORD PTR op$[rsp]
  00048	48 b9 78 56 ef
	be 34 12 ad de	 mov	 rcx, -2401243008567650696 ; dead1234beef5678H
  00052	48 89 48 08	 mov	 QWORD PTR [rax+8], rcx

; 219  :     op->slist_entry.Next = NULL;

  00056	48 8b 44 24 30	 mov	 rax, QWORD PTR op$[rsp]
  0005b	48 c7 40 10 00
	00 00 00	 mov	 QWORD PTR [rax+16], 0

; 220  :     op->px_flags  = Py_PXFLAGS_ISPY;

  00063	48 8b 44 24 30	 mov	 rax, QWORD PTR op$[rsp]
  00068	48 c7 40 20 01
	00 00 00	 mov	 QWORD PTR [rax+32], 1

; 221  :     op->srw_lock  = NULL;

  00070	48 8b 44 24 30	 mov	 rax, QWORD PTR op$[rsp]
  00075	48 c7 40 28 00
	00 00 00	 mov	 QWORD PTR [rax+40], 0

; 222  :     op->event     = NULL;

  0007d	48 8b 44 24 30	 mov	 rax, QWORD PTR op$[rsp]
  00082	48 c7 40 30 00
	00 00 00	 mov	 QWORD PTR [rax+48], 0

; 223  :     op->orig_type = NULL;

  0008a	48 8b 44 24 30	 mov	 rax, QWORD PTR op$[rsp]
  0008f	48 c7 40 38 00
	00 00 00	 mov	 QWORD PTR [rax+56], 0

; 224  : #ifdef Py_TRACE_REFS
; 225  :     op->_ob_next = NULL;

  00097	48 8b 44 24 30	 mov	 rax, QWORD PTR op$[rsp]
  0009c	48 c7 40 40 00
	00 00 00	 mov	 QWORD PTR [rax+64], 0

; 226  :     op->_ob_prev = NULL;

  000a4	48 8b 44 24 30	 mov	 rax, QWORD PTR op$[rsp]
  000a9	48 c7 40 48 00
	00 00 00	 mov	 QWORD PTR [rax+72], 0

; 227  : #else
; 228  :     op->_ob_next = _Py_NOT_PARALLEL;
; 229  :     op->_ob_prev = _Py_NOT_PARALLEL;
; 230  : #endif
; 231  : }

  000b1	48 83 c4 28	 add	 rsp, 40			; 00000028H
  000b5	c3		 ret	 0
_PyObject_InitHead ENDP
_TEXT	ENDS
EXTRN	_PxObject_InitVar:PROC
;	COMDAT pdata
pdata	SEGMENT
$pdata$PyObject_INIT_VAR DD imagerel PyObject_INIT_VAR
	DD	imagerel PyObject_INIT_VAR+108
	DD	imagerel $unwind$PyObject_INIT_VAR
pdata	ENDS
;	COMDAT xdata
xdata	SEGMENT
$unwind$PyObject_INIT_VAR DD 011301H
	DD	04213H
; Function compile flags: /Odtp
xdata	ENDS
;	COMDAT PyObject_INIT_VAR
_TEXT	SEGMENT
op$ = 48
tp$ = 56
n$ = 64
PyObject_INIT_VAR PROC					; COMDAT

; 247  : {

  00000	4c 89 44 24 18	 mov	 QWORD PTR [rsp+24], r8
  00005	48 89 54 24 10	 mov	 QWORD PTR [rsp+16], rdx
  0000a	48 89 4c 24 08	 mov	 QWORD PTR [rsp+8], rcx
  0000f	48 83 ec 28	 sub	 rsp, 40			; 00000028H

; 248  :     Px_RETURN(_PxObject_InitVar(op, tp, n))

  00013	e8 00 00 00 00	 call	 _Py_PXCTX
  00018	85 c0		 test	 eax, eax
  0001a	74 16		 je	 SHORT $LN1@PyObject_I@3
  0001c	4c 8b 44 24 40	 mov	 r8, QWORD PTR n$[rsp]
  00021	48 8b 54 24 38	 mov	 rdx, QWORD PTR tp$[rsp]
  00026	48 8b 4c 24 30	 mov	 rcx, QWORD PTR op$[rsp]
  0002b	e8 00 00 00 00	 call	 _PxObject_InitVar
  00030	eb 35		 jmp	 SHORT $LN2@PyObject_I@3
$LN1@PyObject_I@3:

; 249  :     Py_SIZE(op) = n;

  00032	48 8b 44 24 30	 mov	 rax, QWORD PTR op$[rsp]
  00037	48 8b 4c 24 40	 mov	 rcx, QWORD PTR n$[rsp]
  0003c	48 89 48 60	 mov	 QWORD PTR [rax+96], rcx

; 250  :     Py_TYPE(op) = tp;

  00040	48 8b 44 24 30	 mov	 rax, QWORD PTR op$[rsp]
  00045	48 8b 4c 24 38	 mov	 rcx, QWORD PTR tp$[rsp]
  0004a	48 89 48 58	 mov	 QWORD PTR [rax+88], rcx

; 251  :     _PyObject_InitHead((PyObject *)op);

  0004e	48 8b 4c 24 30	 mov	 rcx, QWORD PTR op$[rsp]
  00053	e8 00 00 00 00	 call	 _PyObject_InitHead

; 252  :     _Py_NewReference((PyObject *)op);

  00058	48 8b 4c 24 30	 mov	 rcx, QWORD PTR op$[rsp]
  0005d	e8 00 00 00 00	 call	 _Py_NewReference

; 253  :     return op;

  00062	48 8b 44 24 30	 mov	 rax, QWORD PTR op$[rsp]
$LN2@PyObject_I@3:

; 254  : }

  00067	48 83 c4 28	 add	 rsp, 40			; 00000028H
  0006b	c3		 ret	 0
PyObject_INIT_VAR ENDP
_TEXT	ENDS
;	COMDAT pdata
; File c:\src\pyparallel\objects\typeobject.c
pdata	SEGMENT
$pdata$PyType_GenericNew DD imagerel $LN3
	DD	imagerel $LN3+42
	DD	imagerel $unwind$PyType_GenericNew
pdata	ENDS
;	COMDAT xdata
xdata	SEGMENT
$unwind$PyType_GenericNew DD 011301H
	DD	04213H
; Function compile flags: /Odtp
xdata	ENDS
;	COMDAT PyType_GenericNew
_TEXT	SEGMENT
type$ = 48
args$ = 56
kwds$ = 64
PyType_GenericNew PROC					; COMDAT

; 787  : {

$LN3:
  00000	4c 89 44 24 18	 mov	 QWORD PTR [rsp+24], r8
  00005	48 89 54 24 10	 mov	 QWORD PTR [rsp+16], rdx
  0000a	48 89 4c 24 08	 mov	 QWORD PTR [rsp+8], rcx
  0000f	48 83 ec 28	 sub	 rsp, 40			; 00000028H

; 788  :     return type->tp_alloc(type, 0);

  00013	33 d2		 xor	 edx, edx
  00015	48 8b 4c 24 30	 mov	 rcx, QWORD PTR type$[rsp]
  0001a	48 8b 44 24 30	 mov	 rax, QWORD PTR type$[rsp]
  0001f	ff 90 88 01 00
	00		 call	 QWORD PTR [rax+392]

; 789  : }

  00025	48 83 c4 28	 add	 rsp, 40			; 00000028H
  00029	c3		 ret	 0
PyType_GenericNew ENDP
_TEXT	ENDS
PUBLIC	??_C@_1CG@DAMEHKMF@?$AAP?$AAy?$AAT?$AAu?$AAp?$AAl?$AAe?$AA_?$AAC?$AAh?$AAe?$AAc?$AAk?$AA?$CI?$AAm?$AAr?$AAo?$AA?$CJ?$AA?$AA@ ; `string'
;	COMDAT pdata
pdata	SEGMENT
$pdata$PyType_IsSubtype DD imagerel $LN16
	DD	imagerel $LN16+267
	DD	imagerel $unwind$PyType_IsSubtype
pdata	ENDS
;	COMDAT xdata
xdata	SEGMENT
$unwind$PyType_IsSubtype DD 010e01H
	DD	0820eH
xdata	ENDS
;	COMDAT ??_C@_1CG@DAMEHKMF@?$AAP?$AAy?$AAT?$AAu?$AAp?$AAl?$AAe?$AA_?$AAC?$AAh?$AAe?$AAc?$AAk?$AA?$CI?$AAm?$AAr?$AAo?$AA?$CJ?$AA?$AA@
CONST	SEGMENT
??_C@_1CG@DAMEHKMF@?$AAP?$AAy?$AAT?$AAu?$AAp?$AAl?$AAe?$AA_?$AAC?$AAh?$AAe?$AAc?$AAk?$AA?$CI?$AAm?$AAr?$AAo?$AA?$CJ?$AA?$AA@ DB 'P'
	DB	00H, 'y', 00H, 'T', 00H, 'u', 00H, 'p', 00H, 'l', 00H, 'e', 00H
	DB	'_', 00H, 'C', 00H, 'h', 00H, 'e', 00H, 'c', 00H, 'k', 00H, '('
	DB	00H, 'm', 00H, 'r', 00H, 'o', 00H, ')', 00H, 00H, 00H ; `string'
; Function compile flags: /Odtp
CONST	ENDS
;	COMDAT PyType_IsSubtype
_TEXT	SEGMENT
mro$ = 32
n$21306 = 40
i$21305 = 48
tv85 = 56
a$ = 80
b$ = 88
PyType_IsSubtype PROC					; COMDAT

; 1149 : {

$LN16:
  00000	48 89 54 24 10	 mov	 QWORD PTR [rsp+16], rdx
  00005	48 89 4c 24 08	 mov	 QWORD PTR [rsp+8], rcx
  0000a	48 83 ec 48	 sub	 rsp, 72			; 00000048H

; 1150 :     PyObject *mro;
; 1151 : 
; 1152 :     mro = a->tp_mro;

  0000e	48 8b 44 24 50	 mov	 rax, QWORD PTR a$[rsp]
  00013	48 8b 80 b0 01
	00 00		 mov	 rax, QWORD PTR [rax+432]
  0001a	48 89 44 24 20	 mov	 QWORD PTR mro$[rsp], rax

; 1153 :     if (mro != NULL) {

  0001f	48 83 7c 24 20
	00		 cmp	 QWORD PTR mro$[rsp], 0
  00025	0f 84 8b 00 00
	00		 je	 $LN10@PyType_IsS

; 1154 :         /* Deal with multiple inheritance without recursion
; 1155 :            by walking the MRO tuple */
; 1156 :         Py_ssize_t i, n;
; 1157 :         assert(PyTuple_Check(mro));

  0002b	48 8b 44 24 20	 mov	 rax, QWORD PTR mro$[rsp]
  00030	48 8b 40 58	 mov	 rax, QWORD PTR [rax+88]
  00034	8b 80 00 01 00
	00		 mov	 eax, DWORD PTR [rax+256]
  0003a	25 00 00 00 04	 and	 eax, 67108864		; 04000000H
  0003f	85 c0		 test	 eax, eax
  00041	75 1c		 jne	 SHORT $LN13@PyType_IsS
  00043	41 b8 85 04 00
	00		 mov	 r8d, 1157		; 00000485H
  00049	48 8d 15 00 00
	00 00		 lea	 rdx, OFFSET FLAT:??_C@_1DA@GJLLIOPA@?$AA?4?$AA?4?$AA?2?$AAO?$AAb?$AAj?$AAe?$AAc?$AAt?$AAs?$AA?2?$AAt?$AAy?$AAp?$AAe?$AAo?$AAb?$AAj?$AAe?$AAc?$AAt?$AA?4?$AAc?$AA?$AA@
  00050	48 8d 0d 00 00
	00 00		 lea	 rcx, OFFSET FLAT:??_C@_1CG@DAMEHKMF@?$AAP?$AAy?$AAT?$AAu?$AAp?$AAl?$AAe?$AA_?$AAC?$AAh?$AAe?$AAc?$AAk?$AA?$CI?$AAm?$AAr?$AAo?$AA?$CJ?$AA?$AA@
  00057	ff 15 00 00 00
	00		 call	 QWORD PTR __imp__wassert
  0005d	33 c0		 xor	 eax, eax
$LN13@PyType_IsS:

; 1158 :         n = PyTuple_GET_SIZE(mro);

  0005f	48 8b 44 24 20	 mov	 rax, QWORD PTR mro$[rsp]
  00064	48 8b 40 60	 mov	 rax, QWORD PTR [rax+96]
  00068	48 89 44 24 28	 mov	 QWORD PTR n$21306[rsp], rax

; 1159 :         for (i = 0; i < n; i++) {

  0006d	48 c7 44 24 30
	00 00 00 00	 mov	 QWORD PTR i$21305[rsp], 0
  00076	eb 0d		 jmp	 SHORT $LN9@PyType_IsS
$LN8@PyType_IsS:
  00078	48 8b 44 24 30	 mov	 rax, QWORD PTR i$21305[rsp]
  0007d	48 ff c0	 inc	 rax
  00080	48 89 44 24 30	 mov	 QWORD PTR i$21305[rsp], rax
$LN9@PyType_IsS:
  00085	48 8b 44 24 28	 mov	 rax, QWORD PTR n$21306[rsp]
  0008a	48 39 44 24 30	 cmp	 QWORD PTR i$21305[rsp], rax
  0008f	7d 1f		 jge	 SHORT $LN7@PyType_IsS

; 1160 :             if (PyTuple_GET_ITEM(mro, i) == (PyObject *)b)

  00091	48 8b 44 24 20	 mov	 rax, QWORD PTR mro$[rsp]
  00096	48 8b 4c 24 30	 mov	 rcx, QWORD PTR i$21305[rsp]
  0009b	48 8b 54 24 58	 mov	 rdx, QWORD PTR b$[rsp]
  000a0	48 39 54 c8 70	 cmp	 QWORD PTR [rax+rcx*8+112], rdx
  000a5	75 07		 jne	 SHORT $LN6@PyType_IsS

; 1161 :                 return 1;

  000a7	b8 01 00 00 00	 mov	 eax, 1
  000ac	eb 58		 jmp	 SHORT $LN11@PyType_IsS
$LN6@PyType_IsS:

; 1162 :         }

  000ae	eb c8		 jmp	 SHORT $LN8@PyType_IsS
$LN7@PyType_IsS:

; 1163 :         return 0;

  000b0	33 c0		 xor	 eax, eax
  000b2	eb 52		 jmp	 SHORT $LN11@PyType_IsS

; 1164 :     }
; 1165 :     else {

  000b4	eb 50		 jmp	 SHORT $LN5@PyType_IsS
$LN10@PyType_IsS:
$LN4@PyType_IsS:

; 1166 :         /* a is not completely initilized yet; follow tp_base */
; 1167 :         do {
; 1168 :             if (a == b)

  000b6	48 8b 44 24 58	 mov	 rax, QWORD PTR b$[rsp]
  000bb	48 39 44 24 50	 cmp	 QWORD PTR a$[rsp], rax
  000c0	75 07		 jne	 SHORT $LN1@PyType_IsS

; 1169 :                 return 1;

  000c2	b8 01 00 00 00	 mov	 eax, 1
  000c7	eb 3d		 jmp	 SHORT $LN11@PyType_IsS
$LN1@PyType_IsS:

; 1170 :             a = a->tp_base;

  000c9	48 8b 44 24 50	 mov	 rax, QWORD PTR a$[rsp]
  000ce	48 8b 80 58 01
	00 00		 mov	 rax, QWORD PTR [rax+344]
  000d5	48 89 44 24 50	 mov	 QWORD PTR a$[rsp], rax

; 1171 :         } while (a != NULL);

  000da	48 83 7c 24 50
	00		 cmp	 QWORD PTR a$[rsp], 0
  000e0	75 d4		 jne	 SHORT $LN4@PyType_IsS

; 1172 :         return b == &PyBaseObject_Type;

  000e2	48 8d 05 00 00
	00 00		 lea	 rax, OFFSET FLAT:PyBaseObject_Type
  000e9	48 39 44 24 58	 cmp	 QWORD PTR b$[rsp], rax
  000ee	75 0a		 jne	 SHORT $LN14@PyType_IsS
  000f0	c7 44 24 38 01
	00 00 00	 mov	 DWORD PTR tv85[rsp], 1
  000f8	eb 08		 jmp	 SHORT $LN15@PyType_IsS
$LN14@PyType_IsS:
  000fa	c7 44 24 38 00
	00 00 00	 mov	 DWORD PTR tv85[rsp], 0
$LN15@PyType_IsS:
  00102	8b 44 24 38	 mov	 eax, DWORD PTR tv85[rsp]
$LN5@PyType_IsS:
$LN11@PyType_IsS:

; 1173 :     }
; 1174 : }

  00106	48 83 c4 48	 add	 rsp, 72			; 00000048H
  0010a	c3		 ret	 0
PyType_IsSubtype ENDP
_TEXT	ENDS
PUBLIC	_PyObject_LookupSpecial
;	COMDAT pdata
pdata	SEGMENT
$pdata$_PyObject_LookupSpecial DD imagerel $LN3
	DD	imagerel $LN3+34
	DD	imagerel $unwind$_PyObject_LookupSpecial
pdata	ENDS
;	COMDAT xdata
xdata	SEGMENT
$unwind$_PyObject_LookupSpecial DD 010e01H
	DD	0420eH
; Function compile flags: /Odtp
xdata	ENDS
;	COMDAT _PyObject_LookupSpecial
_TEXT	SEGMENT
self$ = 48
attrid$ = 56
_PyObject_LookupSpecial PROC				; COMDAT

; 1220 : {

$LN3:
  00000	48 89 54 24 10	 mov	 QWORD PTR [rsp+16], rdx
  00005	48 89 4c 24 08	 mov	 QWORD PTR [rsp+8], rcx
  0000a	48 83 ec 28	 sub	 rsp, 40			; 00000028H

; 1221 :     return lookup_maybe(self, attrid);

  0000e	48 8b 54 24 38	 mov	 rdx, QWORD PTR attrid$[rsp]
  00013	48 8b 4c 24 30	 mov	 rcx, QWORD PTR self$[rsp]
  00018	e8 00 00 00 00	 call	 lookup_maybe

; 1222 : }

  0001d	48 83 c4 28	 add	 rsp, 40			; 00000028H
  00021	c3		 ret	 0
_PyObject_LookupSpecial ENDP
_TEXT	ENDS
PUBLIC	_PyType_LookupId
;	COMDAT pdata
pdata	SEGMENT
$pdata$lookup_maybe DD imagerel lookup_maybe
	DD	imagerel lookup_maybe+125
	DD	imagerel $unwind$lookup_maybe
pdata	ENDS
;	COMDAT xdata
xdata	SEGMENT
$unwind$lookup_maybe DD 010e01H
	DD	0620eH
; Function compile flags: /Odtp
xdata	ENDS
;	COMDAT lookup_maybe
_TEXT	SEGMENT
res$ = 32
f$21333 = 40
self$ = 64
attrid$ = 72
lookup_maybe PROC					; COMDAT

; 1195 : {

  00000	48 89 54 24 10	 mov	 QWORD PTR [rsp+16], rdx
  00005	48 89 4c 24 08	 mov	 QWORD PTR [rsp+8], rcx
  0000a	48 83 ec 38	 sub	 rsp, 56			; 00000038H

; 1196 :     PyObject *res;
; 1197 : 
; 1198 :     res = _PyType_LookupId(Py_TYPE(self), attrid);

  0000e	48 8b 54 24 48	 mov	 rdx, QWORD PTR attrid$[rsp]
  00013	48 8b 44 24 40	 mov	 rax, QWORD PTR self$[rsp]
  00018	48 8b 48 58	 mov	 rcx, QWORD PTR [rax+88]
  0001c	e8 00 00 00 00	 call	 _PyType_LookupId
  00021	48 89 44 24 20	 mov	 QWORD PTR res$[rsp], rax

; 1199 :     if (res != NULL) {

  00026	48 83 7c 24 20
	00		 cmp	 QWORD PTR res$[rsp], 0
  0002c	74 45		 je	 SHORT $LN3@lookup_may

; 1200 :         descrgetfunc f;
; 1201 :         if ((f = Py_TYPE(res)->tp_descr_get) == NULL)

  0002e	48 8b 44 24 20	 mov	 rax, QWORD PTR res$[rsp]
  00033	48 8b 40 58	 mov	 rax, QWORD PTR [rax+88]
  00037	48 8b 80 68 01
	00 00		 mov	 rax, QWORD PTR [rax+360]
  0003e	48 89 44 24 28	 mov	 QWORD PTR f$21333[rsp], rax
  00043	48 83 7c 24 28
	00		 cmp	 QWORD PTR f$21333[rsp], 0
  00049	75 0c		 jne	 SHORT $LN2@lookup_may

; 1202 :             Py_INCREF(res);

  0004b	48 8b 4c 24 20	 mov	 rcx, QWORD PTR res$[rsp]
  00050	e8 00 00 00 00	 call	 _Py_IncRef

; 1203 :         else

  00055	eb 1c		 jmp	 SHORT $LN1@lookup_may
$LN2@lookup_may:

; 1204 :             res = f(res, self, (PyObject *)(Py_TYPE(self)));

  00057	48 8b 44 24 40	 mov	 rax, QWORD PTR self$[rsp]
  0005c	4c 8b 40 58	 mov	 r8, QWORD PTR [rax+88]
  00060	48 8b 54 24 40	 mov	 rdx, QWORD PTR self$[rsp]
  00065	48 8b 4c 24 20	 mov	 rcx, QWORD PTR res$[rsp]
  0006a	ff 54 24 28	 call	 QWORD PTR f$21333[rsp]
  0006e	48 89 44 24 20	 mov	 QWORD PTR res$[rsp], rax
$LN1@lookup_may:
$LN3@lookup_may:

; 1205 :     }
; 1206 :     return res;

  00073	48 8b 44 24 20	 mov	 rax, QWORD PTR res$[rsp]

; 1207 : }

  00078	48 83 c4 38	 add	 rsp, 56			; 00000038H
  0007c	c3		 ret	 0
lookup_maybe ENDP
_TEXT	ENDS
;	COMDAT pdata
pdata	SEGMENT
$pdata$mro_external DD imagerel mro_external
	DD	imagerel mro_external+34
	DD	imagerel $unwind$mro_external
pdata	ENDS
;	COMDAT xdata
xdata	SEGMENT
$unwind$mro_external DD 010901H
	DD	06209H
; Function compile flags: /Odtp
xdata	ENDS
;	COMDAT mro_external
_TEXT	SEGMENT
type$ = 32
self$ = 64
mro_external PROC					; COMDAT

; 1580 : {

  00000	48 89 4c 24 08	 mov	 QWORD PTR [rsp+8], rcx
  00005	48 83 ec 38	 sub	 rsp, 56			; 00000038H

; 1581 :     PyTypeObject *type = (PyTypeObject *)self;

  00009	48 8b 44 24 40	 mov	 rax, QWORD PTR self$[rsp]
  0000e	48 89 44 24 20	 mov	 QWORD PTR type$[rsp], rax

; 1582 : 
; 1583 :     return mro_implementation(type);

  00013	48 8b 4c 24 20	 mov	 rcx, QWORD PTR type$[rsp]
  00018	e8 00 00 00 00	 call	 mro_implementation

; 1584 : }

  0001d	48 83 c4 38	 add	 rsp, 56			; 00000038H
  00021	c3		 ret	 0
mro_external ENDP
_TEXT	ENDS
PUBLIC	??_C@_03LGGEEBKE@?$FLO?$FN?$AA@			; `string'
PUBLIC	PyType_Ready
EXTRN	Py_BuildValue:PROC
EXTRN	PySequence_List:PROC
;	COMDAT pdata
pdata	SEGMENT
$pdata$mro_implementation DD imagerel mro_implementation
	DD	imagerel mro_implementation+457
	DD	imagerel $unwind$mro_implementation
pdata	ENDS
;	COMDAT xdata
xdata	SEGMENT
$unwind$mro_implementation DD 010901H
	DD	0e209H
xdata	ENDS
;	COMDAT ??_C@_03LGGEEBKE@?$FLO?$FN?$AA@
CONST	SEGMENT
??_C@_03LGGEEBKE@?$FLO?$FN?$AA@ DB '[O]', 00H		; `string'
; Function compile flags: /Odtp
CONST	ENDS
;	COMDAT mro_implementation
_TEXT	SEGMENT
ok$ = 32
n$ = 40
i$ = 48
bases$ = 56
result$ = 64
bases_aslist$ = 72
to_merge$ = 80
parentMRO$21595 = 88
base$21593 = 96
type$ = 128
mro_implementation PROC					; COMDAT

; 1510 : {

  00000	48 89 4c 24 08	 mov	 QWORD PTR [rsp+8], rcx
  00005	48 83 ec 78	 sub	 rsp, 120		; 00000078H

; 1511 :     Py_ssize_t i, n;
; 1512 :     int ok;
; 1513 :     PyObject *bases, *result;
; 1514 :     PyObject *to_merge, *bases_aslist;
; 1515 : 
; 1516 :     if (type->tp_dict == NULL) {

  00009	48 8b 84 24 80
	00 00 00	 mov	 rax, QWORD PTR type$[rsp]
  00011	48 83 b8 60 01
	00 00 00	 cmp	 QWORD PTR [rax+352], 0
  00019	75 18		 jne	 SHORT $LN11@mro_implem

; 1517 :         if (PyType_Ready(type) < 0)

  0001b	48 8b 8c 24 80
	00 00 00	 mov	 rcx, QWORD PTR type$[rsp]
  00023	e8 00 00 00 00	 call	 PyType_Ready
  00028	85 c0		 test	 eax, eax
  0002a	7d 07		 jge	 SHORT $LN10@mro_implem

; 1518 :             return NULL;

  0002c	33 c0		 xor	 eax, eax
  0002e	e9 91 01 00 00	 jmp	 $LN12@mro_implem
$LN10@mro_implem:
$LN11@mro_implem:

; 1519 :     }
; 1520 : 
; 1521 :     /* Find a superclass linearization that honors the constraints
; 1522 :        of the explicit lists of bases and the constraints implied by
; 1523 :        each base class.
; 1524 : 
; 1525 :        to_merge is a list of lists, where each list is a superclass
; 1526 :        linearization implied by a base class.  The last element of
; 1527 :        to_merge is the declared list of bases.
; 1528 :     */
; 1529 : 
; 1530 :     bases = type->tp_bases;

  00033	48 8b 84 24 80
	00 00 00	 mov	 rax, QWORD PTR type$[rsp]
  0003b	48 8b 80 a8 01
	00 00		 mov	 rax, QWORD PTR [rax+424]
  00042	48 89 44 24 38	 mov	 QWORD PTR bases$[rsp], rax

; 1531 :     n = PyTuple_GET_SIZE(bases);

  00047	48 8b 44 24 38	 mov	 rax, QWORD PTR bases$[rsp]
  0004c	48 8b 40 60	 mov	 rax, QWORD PTR [rax+96]
  00050	48 89 44 24 28	 mov	 QWORD PTR n$[rsp], rax

; 1532 : 
; 1533 :     to_merge = PyList_New(n+1);

  00055	48 8b 44 24 28	 mov	 rax, QWORD PTR n$[rsp]
  0005a	48 ff c0	 inc	 rax
  0005d	48 8b c8	 mov	 rcx, rax
  00060	e8 00 00 00 00	 call	 PyList_New
  00065	48 89 44 24 50	 mov	 QWORD PTR to_merge$[rsp], rax

; 1534 :     if (to_merge == NULL)

  0006a	48 83 7c 24 50
	00		 cmp	 QWORD PTR to_merge$[rsp], 0
  00070	75 07		 jne	 SHORT $LN9@mro_implem

; 1535 :         return NULL;

  00072	33 c0		 xor	 eax, eax
  00074	e9 4b 01 00 00	 jmp	 $LN12@mro_implem
$LN9@mro_implem:

; 1536 : 
; 1537 :     for (i = 0; i < n; i++) {

  00079	48 c7 44 24 30
	00 00 00 00	 mov	 QWORD PTR i$[rsp], 0
  00082	eb 0d		 jmp	 SHORT $LN8@mro_implem
$LN7@mro_implem:
  00084	48 8b 44 24 30	 mov	 rax, QWORD PTR i$[rsp]
  00089	48 ff c0	 inc	 rax
  0008c	48 89 44 24 30	 mov	 QWORD PTR i$[rsp], rax
$LN8@mro_implem:
  00091	48 8b 44 24 28	 mov	 rax, QWORD PTR n$[rsp]
  00096	48 39 44 24 30	 cmp	 QWORD PTR i$[rsp], rax
  0009b	7d 5c		 jge	 SHORT $LN6@mro_implem

; 1538 :         PyObject *base = PyTuple_GET_ITEM(bases, i);

  0009d	48 8b 44 24 38	 mov	 rax, QWORD PTR bases$[rsp]
  000a2	48 8b 4c 24 30	 mov	 rcx, QWORD PTR i$[rsp]
  000a7	48 8b 44 c8 70	 mov	 rax, QWORD PTR [rax+rcx*8+112]
  000ac	48 89 44 24 60	 mov	 QWORD PTR base$21593[rsp], rax

; 1539 :         PyObject *parentMRO;
; 1540 :         parentMRO = PySequence_List(((PyTypeObject*)base)->tp_mro);

  000b1	48 8b 44 24 60	 mov	 rax, QWORD PTR base$21593[rsp]
  000b6	48 8b 88 b0 01
	00 00		 mov	 rcx, QWORD PTR [rax+432]
  000bd	e8 00 00 00 00	 call	 PySequence_List
  000c2	48 89 44 24 58	 mov	 QWORD PTR parentMRO$21595[rsp], rax

; 1541 :         if (parentMRO == NULL) {

  000c7	48 83 7c 24 58
	00		 cmp	 QWORD PTR parentMRO$21595[rsp], 0
  000cd	75 11		 jne	 SHORT $LN5@mro_implem

; 1542 :             Py_DECREF(to_merge);

  000cf	48 8b 4c 24 50	 mov	 rcx, QWORD PTR to_merge$[rsp]
  000d4	e8 00 00 00 00	 call	 _Py_DecRef

; 1543 :             return NULL;

  000d9	33 c0		 xor	 eax, eax
  000db	e9 e4 00 00 00	 jmp	 $LN12@mro_implem
$LN5@mro_implem:

; 1544 :         }
; 1545 : 
; 1546 :         PyList_SET_ITEM(to_merge, i, parentMRO);

  000e0	48 8b 44 24 50	 mov	 rax, QWORD PTR to_merge$[rsp]
  000e5	48 8b 40 70	 mov	 rax, QWORD PTR [rax+112]
  000e9	48 8b 4c 24 30	 mov	 rcx, QWORD PTR i$[rsp]
  000ee	48 8b 54 24 58	 mov	 rdx, QWORD PTR parentMRO$21595[rsp]
  000f3	48 89 14 c8	 mov	 QWORD PTR [rax+rcx*8], rdx

; 1547 :     }

  000f7	eb 8b		 jmp	 SHORT $LN7@mro_implem
$LN6@mro_implem:

; 1548 : 
; 1549 :     bases_aslist = PySequence_List(bases);

  000f9	48 8b 4c 24 38	 mov	 rcx, QWORD PTR bases$[rsp]
  000fe	e8 00 00 00 00	 call	 PySequence_List
  00103	48 89 44 24 48	 mov	 QWORD PTR bases_aslist$[rsp], rax

; 1550 :     if (bases_aslist == NULL) {

  00108	48 83 7c 24 48
	00		 cmp	 QWORD PTR bases_aslist$[rsp], 0
  0010e	75 11		 jne	 SHORT $LN4@mro_implem

; 1551 :         Py_DECREF(to_merge);

  00110	48 8b 4c 24 50	 mov	 rcx, QWORD PTR to_merge$[rsp]
  00115	e8 00 00 00 00	 call	 _Py_DecRef

; 1552 :         return NULL;

  0011a	33 c0		 xor	 eax, eax
  0011c	e9 a3 00 00 00	 jmp	 $LN12@mro_implem
$LN4@mro_implem:

; 1553 :     }
; 1554 :     /* This is just a basic sanity check. */
; 1555 :     if (check_duplicates(bases_aslist) < 0) {

  00121	48 8b 4c 24 48	 mov	 rcx, QWORD PTR bases_aslist$[rsp]
  00126	e8 00 00 00 00	 call	 check_duplicates
  0012b	85 c0		 test	 eax, eax
  0012d	7d 18		 jge	 SHORT $LN3@mro_implem

; 1556 :         Py_DECREF(to_merge);

  0012f	48 8b 4c 24 50	 mov	 rcx, QWORD PTR to_merge$[rsp]
  00134	e8 00 00 00 00	 call	 _Py_DecRef

; 1557 :         Py_DECREF(bases_aslist);

  00139	48 8b 4c 24 48	 mov	 rcx, QWORD PTR bases_aslist$[rsp]
  0013e	e8 00 00 00 00	 call	 _Py_DecRef

; 1558 :         return NULL;

  00143	33 c0		 xor	 eax, eax
  00145	eb 7d		 jmp	 SHORT $LN12@mro_implem
$LN3@mro_implem:

; 1559 :     }
; 1560 :     PyList_SET_ITEM(to_merge, n, bases_aslist);

  00147	48 8b 44 24 50	 mov	 rax, QWORD PTR to_merge$[rsp]
  0014c	48 8b 40 70	 mov	 rax, QWORD PTR [rax+112]
  00150	48 8b 4c 24 28	 mov	 rcx, QWORD PTR n$[rsp]
  00155	48 8b 54 24 48	 mov	 rdx, QWORD PTR bases_aslist$[rsp]
  0015a	48 89 14 c8	 mov	 QWORD PTR [rax+rcx*8], rdx

; 1561 : 
; 1562 :     result = Py_BuildValue("[O]", (PyObject *)type);

  0015e	48 8b 94 24 80
	00 00 00	 mov	 rdx, QWORD PTR type$[rsp]
  00166	48 8d 0d 00 00
	00 00		 lea	 rcx, OFFSET FLAT:??_C@_03LGGEEBKE@?$FLO?$FN?$AA@
  0016d	e8 00 00 00 00	 call	 Py_BuildValue
  00172	48 89 44 24 40	 mov	 QWORD PTR result$[rsp], rax

; 1563 :     if (result == NULL) {

  00177	48 83 7c 24 40
	00		 cmp	 QWORD PTR result$[rsp], 0
  0017d	75 0e		 jne	 SHORT $LN2@mro_implem

; 1564 :         Py_DECREF(to_merge);

  0017f	48 8b 4c 24 50	 mov	 rcx, QWORD PTR to_merge$[rsp]
  00184	e8 00 00 00 00	 call	 _Py_DecRef

; 1565 :         return NULL;

  00189	33 c0		 xor	 eax, eax
  0018b	eb 37		 jmp	 SHORT $LN12@mro_implem
$LN2@mro_implem:

; 1566 :     }
; 1567 : 
; 1568 :     ok = pmerge(result, to_merge);

  0018d	48 8b 54 24 50	 mov	 rdx, QWORD PTR to_merge$[rsp]
  00192	48 8b 4c 24 40	 mov	 rcx, QWORD PTR result$[rsp]
  00197	e8 00 00 00 00	 call	 pmerge
  0019c	89 44 24 20	 mov	 DWORD PTR ok$[rsp], eax

; 1569 :     Py_DECREF(to_merge);

  001a0	48 8b 4c 24 50	 mov	 rcx, QWORD PTR to_merge$[rsp]
  001a5	e8 00 00 00 00	 call	 _Py_DecRef

; 1570 :     if (ok < 0) {

  001aa	83 7c 24 20 00	 cmp	 DWORD PTR ok$[rsp], 0
  001af	7d 0e		 jge	 SHORT $LN1@mro_implem

; 1571 :         Py_DECREF(result);

  001b1	48 8b 4c 24 40	 mov	 rcx, QWORD PTR result$[rsp]
  001b6	e8 00 00 00 00	 call	 _Py_DecRef

; 1572 :         return NULL;

  001bb	33 c0		 xor	 eax, eax
  001bd	eb 05		 jmp	 SHORT $LN12@mro_implem
$LN1@mro_implem:

; 1573 :     }
; 1574 : 
; 1575 :     return result;

  001bf	48 8b 44 24 40	 mov	 rax, QWORD PTR result$[rsp]
$LN12@mro_implem:

; 1576 : }

  001c4	48 83 c4 78	 add	 rsp, 120		; 00000078H
  001c8	c3		 ret	 0
mro_implementation ENDP
_TEXT	ENDS
PUBLIC	??_C@_0BF@CDGJEON@duplicate?5base?5class?$AA@	; `string'
PUBLIC	??_C@_0BI@CCNFBLFC@duplicate?5base?5class?5?$CFU?$AA@ ; `string'
;	COMDAT pdata
pdata	SEGMENT
$pdata$check_duplicates DD imagerel check_duplicates
	DD	imagerel check_duplicates+253
	DD	imagerel $unwind$check_duplicates
pdata	ENDS
;	COMDAT xdata
xdata	SEGMENT
$unwind$check_duplicates DD 010901H
	DD	08209H
xdata	ENDS
;	COMDAT ??_C@_0BF@CDGJEON@duplicate?5base?5class?$AA@
CONST	SEGMENT
??_C@_0BF@CDGJEON@duplicate?5base?5class?$AA@ DB 'duplicate base class', 00H ; `string'
CONST	ENDS
;	COMDAT ??_C@_0BI@CCNFBLFC@duplicate?5base?5class?5?$CFU?$AA@
CONST	SEGMENT
??_C@_0BI@CCNFBLFC@duplicate?5base?5class?5?$CFU?$AA@ DB 'duplicate base '
	DB	'class %U', 00H				; `string'
; Function compile flags: /Odtp
CONST	ENDS
;	COMDAT check_duplicates
_TEXT	SEGMENT
n$ = 32
i$ = 40
j$ = 48
o$21461 = 56
list$ = 80
check_duplicates PROC					; COMDAT

; 1358 : {

  00000	48 89 4c 24 08	 mov	 QWORD PTR [rsp+8], rcx
  00005	48 83 ec 48	 sub	 rsp, 72			; 00000048H

; 1359 :     Py_ssize_t i, j, n;
; 1360 :     /* Let's use a quadratic time algorithm,
; 1361 :        assuming that the bases lists is short.
; 1362 :     */
; 1363 :     n = PyList_GET_SIZE(list);

  00009	48 8b 44 24 50	 mov	 rax, QWORD PTR list$[rsp]
  0000e	48 8b 40 60	 mov	 rax, QWORD PTR [rax+96]
  00012	48 89 44 24 20	 mov	 QWORD PTR n$[rsp], rax

; 1364 :     for (i = 0; i < n; i++) {

  00017	48 c7 44 24 28
	00 00 00 00	 mov	 QWORD PTR i$[rsp], 0
  00020	eb 0d		 jmp	 SHORT $LN9@check_dupl
$LN8@check_dupl:
  00022	48 8b 44 24 28	 mov	 rax, QWORD PTR i$[rsp]
  00027	48 ff c0	 inc	 rax
  0002a	48 89 44 24 28	 mov	 QWORD PTR i$[rsp], rax
$LN9@check_dupl:
  0002f	48 8b 44 24 20	 mov	 rax, QWORD PTR n$[rsp]
  00034	48 39 44 24 28	 cmp	 QWORD PTR i$[rsp], rax
  00039	0f 8d b7 00 00
	00		 jge	 $LN7@check_dupl

; 1365 :         PyObject *o = PyList_GET_ITEM(list, i);

  0003f	48 8b 44 24 50	 mov	 rax, QWORD PTR list$[rsp]
  00044	48 8b 40 70	 mov	 rax, QWORD PTR [rax+112]
  00048	48 8b 4c 24 28	 mov	 rcx, QWORD PTR i$[rsp]
  0004d	48 8b 04 c8	 mov	 rax, QWORD PTR [rax+rcx*8]
  00051	48 89 44 24 38	 mov	 QWORD PTR o$21461[rsp], rax

; 1366 :         for (j = i + 1; j < n; j++) {

  00056	48 8b 44 24 28	 mov	 rax, QWORD PTR i$[rsp]
  0005b	48 ff c0	 inc	 rax
