; Listing generated by Microsoft (R) Optimizing Compiler Version 16.00.40219.01 

include listing.inc

INCLUDELIB MSVCRT
INCLUDELIB OLDNAMES

PUBLIC	??_C@_0L@FJIIJALL@_codecs_cn?$AA@		; `string'
PUBLIC	??_C@_02JDKKCNAJ@hz?$AA@			; `string'
PUBLIC	??_C@_07LONGGCM@gb18030?$AA@			; `string'
PUBLIC	??_C@_03LFBAECHL@gbk?$AA@			; `string'
PUBLIC	??_C@_0L@MBACGPEA@gb18030ext?$AA@		; `string'
PUBLIC	??_C@_08OANNBNBL@gbcommon?$AA@			; `string'
PUBLIC	??_C@_06JKBFDIMM@gbkext?$AA@			; `string'
PUBLIC	??_C@_06JIBIJLME@gb2312?$AA@			; `string'
PUBLIC	??_C@_00CNPNBAHC@?$AA@				; `string'
PUBLIC	??_C@_08IAFCJBEI@getcodec?$AA@			; `string'
_BSS	SEGMENT
?cofunc@?1??getmultibytecodec@@9@9 DQ 01H DUP (?)	; `getmultibytecodec'::`2'::cofunc
_BSS	ENDS
;	COMDAT ??_C@_0L@FJIIJALL@_codecs_cn?$AA@
CONST	SEGMENT
??_C@_0L@FJIIJALL@_codecs_cn?$AA@ DB '_codecs_cn', 00H	; `string'
CONST	ENDS
;	COMDAT ??_C@_02JDKKCNAJ@hz?$AA@
CONST	SEGMENT
??_C@_02JDKKCNAJ@hz?$AA@ DB 'hz', 00H			; `string'
CONST	ENDS
;	COMDAT ??_C@_07LONGGCM@gb18030?$AA@
CONST	SEGMENT
??_C@_07LONGGCM@gb18030?$AA@ DB 'gb18030', 00H		; `string'
CONST	ENDS
;	COMDAT ??_C@_03LFBAECHL@gbk?$AA@
CONST	SEGMENT
??_C@_03LFBAECHL@gbk?$AA@ DB 'gbk', 00H			; `string'
CONST	ENDS
;	COMDAT ??_C@_0L@MBACGPEA@gb18030ext?$AA@
CONST	SEGMENT
??_C@_0L@MBACGPEA@gb18030ext?$AA@ DB 'gb18030ext', 00H	; `string'
CONST	ENDS
;	COMDAT ??_C@_08OANNBNBL@gbcommon?$AA@
CONST	SEGMENT
??_C@_08OANNBNBL@gbcommon?$AA@ DB 'gbcommon', 00H	; `string'
CONST	ENDS
;	COMDAT ??_C@_06JKBFDIMM@gbkext?$AA@
CONST	SEGMENT
??_C@_06JKBFDIMM@gbkext?$AA@ DB 'gbkext', 00H		; `string'
CONST	ENDS
;	COMDAT ??_C@_06JIBIJLME@gb2312?$AA@
CONST	SEGMENT
??_C@_06JIBIJLME@gb2312?$AA@ DB 'gb2312', 00H		; `string'
CONST	ENDS
CONST	SEGMENT
__gb2312_decmap DW 03000H
	DW	03001H
	DW	03002H
	DW	030fbH
	DW	02c9H
	DW	02c7H
	DW	0a8H
	DW	03003H
	DW	03005H
	DW	02015H
	DW	0ff5eH
	DW	02016H
	DW	02026H
	DW	02018H
	DW	02019H
	DW	0201cH
	DW	0201dH
	DW	03014H
	DW	03015H
	DW	03008H
	DW	03009H
	DW	0300aH
	DW	0300bH
	DW	0300cH
	DW	0300dH
	DW	0300eH
	DW	0300fH
	DW	03016H
	DW	03017H
	DW	03010H
	DW	03011H
	DW	0b1H
	DW	0d7H
	DW	0f7H
	DW	02236H
	DW	02227H
	DW	02228H
	DW	02211H
	DW	0220fH
	DW	0222aH
	DW	02229H
	DW	02208H
	DW	02237H
	DW	0221aH
	DW	022a5H
	DW	02225H
	DW	02220H
	DW	02312H
	DW	02299H
	DW	0222bH
	DW	0222eH
	DW	02261H
	DW	0224cH
	DW	02248H
	DW	0223dH
	DW	0221dH
	DW	02260H
	DW	0226eH
	DW	0226fH
	DW	02264H
	DW	02265H
	DW	0221eH
	DW	02235H
	DW	02234H
	DW	02642H
	DW	02640H
	DW	0b0H
	DW	02032H
	DW	02033H
	DW	02103H
	DW	0ff04H
	DW	0a4H
	DW	0ffe0H
	DW	0ffe1H
	DW	02030H
	DW	0a7H
	DW	02116H
	DW	02606H
	DW	02605H
	DW	025cbH
	DW	025cfH
	DW	025ceH
	DW	025c7H
	DW	025c6H
	DW	025a1H
	DW	025a0H
	DW	025b3H
	DW	025b2H
	DW	0203bH
	DW	02192H
	DW	02190H
	DW	02191H
	DW	02193H
	DW	03013H
	DW	02488H
	DW	02489H
	DW	0248aH
	DW	0248bH
	DW	0248cH
	DW	0248dH
	DW	0248eH
	DW	0248fH
	DW	02490H
	DW	02491H
	DW	02492H
	DW	02493H
	DW	02494H
	DW	02495H
	DW	02496H
	DW	02497H
	DW	02498H
	DW	02499H
	DW	0249aH
	DW	0249bH
	DW	02474H
	DW	02475H
	DW	02476H
	DW	02477H
	DW	02478H
	DW	02479H
	DW	0247aH
	DW	0247bH
	DW	0247cH
	DW	0247dH
	DW	0247eH
	DW	0247fH
	DW	02480H
	DW	02481H
	DW	02482H
	DW	02483H
	DW	02484H
	DW	02485H
	DW	02486H
	DW	02487H
	DW	02460H
	DW	02461H
	DW	02462H
	DW	02463H
	DW	02464H
	DW	02465H
	DW	02466H
	DW	02467H
	DW	02468H
	DW	02469H
	DW	0fffeH
	DW	0fffeH
	DW	03220H
	DW	03221H
	DW	03222H
	DW	03223H
	DW	03224H
	DW	03225H
	DW	03226H
	DW	03227H
	DW	03228H
	DW	03229H
	DW	0fffeH
	DW	0fffeH
	DW	02160H
	DW	02161H
	DW	02162H
	DW	02163H
	DW	02164H
	DW	02165H
	DW	02166H
	DW	02167H
	DW	02168H
	DW	02169H
	DW	0216aH
	DW	0216bH
	DW	0ff01H
	DW	0ff02H
	DW	0ff03H
	DW	0ffe5H
	DW	0ff05H
	DW	0ff06H
	DW	0ff07H
	DW	0ff08H
	DW	0ff09H
	DW	0ff0aH
	DW	0ff0bH
	DW	0ff0cH
	DW	0ff0dH
	DW	0ff0eH
	DW	0ff0fH
	DW	0ff10H
	DW	0ff11H
	DW	0ff12H
	DW	0ff13H
	DW	0ff14H
	DW	0ff15H
	DW	0ff16H
	DW	0ff17H
	DW	0ff18H
	DW	0ff19H
	DW	0ff1aH
	DW	0ff1bH
	DW	0ff1cH
	DW	0ff1dH
	DW	0ff1eH
	DW	0ff1fH
	DW	0ff20H
	DW	0ff21H
	DW	0ff22H
	DW	0ff23H
	DW	0ff24H
	DW	0ff25H
	DW	0ff26H
	DW	0ff27H
	DW	0ff28H
	DW	0ff29H
	DW	0ff2aH
	DW	0ff2bH
	DW	0ff2cH
	DW	0ff2dH
	DW	0ff2eH
	DW	0ff2fH
	DW	0ff30H
	DW	0ff31H
	DW	0ff32H
	DW	0ff33H
	DW	0ff34H
	DW	0ff35H
	DW	0ff36H
	DW	0ff37H
	DW	0ff38H
	DW	0ff39H
	DW	0ff3aH
	DW	0ff3bH
	DW	0ff3cH
	DW	0ff3dH
	DW	0ff3eH
	DW	0ff3fH
	DW	0ff40H
	DW	0ff41H
	DW	0ff42H
	DW	0ff43H
	DW	0ff44H
	DW	0ff45H
	DW	0ff46H
	DW	0ff47H
	DW	0ff48H
	DW	0ff49H
	DW	0ff4aH
	DW	0ff4bH
	DW	0ff4cH
	DW	0ff4dH
	DW	0ff4eH
	DW	0ff4fH
	DW	0ff50H
	DW	0ff51H
	DW	0ff52H
	DW	0ff53H
	DW	0ff54H
	DW	0ff55H
	DW	0ff56H
	DW	0ff57H
	DW	0ff58H
	DW	0ff59H
	DW	0ff5aH
	DW	0ff5bH
	DW	0ff5cH
	DW	0ff5dH
	DW	0ffe3H
	DW	03041H
	DW	03042H
	DW	03043H
	DW	03044H
	DW	03045H
	DW	03046H
	DW	03047H
	DW	03048H
	DW	03049H
	DW	0304aH
	DW	0304bH
	DW	0304cH
	DW	0304dH
	DW	0304eH
	DW	0304fH
	DW	03050H
	DW	03051H
	DW	03052H
	DW	03053H
	DW	03054H
	DW	03055H
	DW	03056H
	DW	03057H
	DW	03058H
	DW	03059H
	DW	0305aH
	DW	0305bH
	DW	0305cH
	DW	0305dH
	DW	0305eH
	DW	0305fH
	DW	03060H
	DW	03061H
	DW	03062H
	DW	03063H
	DW	03064H
	DW	03065H
	DW	03066H
	DW	03067H
	DW	03068H
	DW	03069H
	DW	0306aH
	DW	0306bH
	DW	0306cH
	DW	0306dH
	DW	0306eH
	DW	0306fH
	DW	03070H
	DW	03071H
	DW	03072H
	DW	03073H
	DW	03074H
	DW	03075H
	DW	03076H
	DW	03077H
	DW	03078H
	DW	03079H
	DW	0307aH
	DW	0307bH
	DW	0307cH
	DW	0307dH
	DW	0307eH
	DW	0307fH
	DW	03080H
	DW	03081H
	DW	03082H
	DW	03083H
	DW	03084H
	DW	03085H
	DW	03086H
	DW	03087H
	DW	03088H
	DW	03089H
	DW	0308aH
	DW	0308bH
	DW	0308cH
	DW	0308dH
	DW	0308eH
	DW	0308fH
	DW	03090H
	DW	03091H
	DW	03092H
	DW	03093H
	DW	030a1H
	DW	030a2H
	DW	030a3H
	DW	030a4H
	DW	030a5H
	DW	030a6H
	DW	030a7H
	DW	030a8H
	DW	030a9H
	DW	030aaH
	DW	030abH
	DW	030acH
	DW	030adH
	DW	030aeH
	DW	030afH
	DW	030b0H
	DW	030b1H
	DW	030b2H
	DW	030b3H
	DW	030b4H
	DW	030b5H
	DW	030b6H
	DW	030b7H
	DW	030b8H
	DW	030b9H
	DW	030baH
	DW	030bbH
	DW	030bcH
	DW	030bdH
	DW	030beH
	DW	030bfH
	DW	030c0H
	DW	030c1H
	DW	030c2H
	DW	030c3H
	DW	030c4H
	DW	030c5H
	DW	030c6H
	DW	030c7H
	DW	030c8H
	DW	030c9H
	DW	030caH
	DW	030cbH
	DW	030ccH
	DW	030cdH
	DW	030ceH
	DW	030cfH
	DW	030d0H
	DW	030d1H
	DW	030d2H
	DW	030d3H
	DW	030d4H
	DW	030d5H
	DW	030d6H
	DW	030d7H
	DW	030d8H
	DW	030d9H
	DW	030daH
	DW	030dbH
	DW	030dcH
	DW	030ddH
	DW	030deH
	DW	030dfH
	DW	030e0H
	DW	030e1H
	DW	030e2H
	DW	030e3H
	DW	030e4H
	DW	030e5H
	DW	030e6H
	DW	030e7H
	DW	030e8H
	DW	030e9H
	DW	030eaH
	DW	030ebH
	DW	030ecH
	DW	030edH
	DW	030eeH
	DW	030efH
	DW	030f0H
	DW	030f1H
	DW	030f2H
	DW	030f3H
	DW	030f4H
	DW	030f5H
	DW	030f6H
	DW	0391H
	DW	0392H
	DW	0393H
	DW	0394H
	DW	0395H
	DW	0396H
	DW	0397H
	DW	0398H
	DW	0399H
	DW	039aH
	DW	039bH
	DW	039cH
	DW	039dH
	DW	039eH
	DW	039fH
	DW	03a0H
	DW	03a1H
	DW	03a3H
	DW	03a4H
	DW	03a5H
	DW	03a6H
	DW	03a7H
	DW	03a8H
	DW	03a9H
	DW	0fffeH
	DW	0fffeH
	DW	0fffeH
	DW	0fffeH
	DW	0fffeH
	DW	0fffeH
	DW	0fffeH
	DW	0fffeH
	DW	03b1H
	DW	03b2H
	DW	03b3H
	DW	03b4H
	DW	03b5H
	DW	03b6H
	DW	03b7H
	DW	03b8H
	DW	03b9H
	DW	03baH
	DW	03bbH
	DW	03bcH
	DW	03bdH
	DW	03beH
	DW	03bfH
	DW	03c0H
	DW	03c1H
	DW	03c3H
	DW	03c4H
	DW	03c5H
	DW	03c6H
	DW	03c7H
	DW	03c8H
	DW	03c9H
	DW	0410H
	DW	0411H
	DW	0412H
	DW	0413H
	DW	0414H
	DW	0415H
	DW	0401H
	DW	0416H
	DW	0417H
	DW	0418H
	DW	0419H
	DW	041aH
	DW	041bH
	DW	041cH
	DW	041dH
	DW	041eH
	DW	041fH
	DW	0420H
	DW	0421H
	DW	0422H
	DW	0423H
	DW	0424H
	DW	0425H
	DW	0426H
	DW	0427H
	DW	0428H
	DW	0429H
	DW	042aH
	DW	042bH
	DW	042cH
	DW	042dH
	DW	042eH
	DW	042fH
	DW	0fffeH
	DW	0fffeH
	DW	0fffeH
	DW	0fffeH
	DW	0fffeH
	DW	0fffeH
	DW	0fffeH
	DW	0fffeH
	DW	0fffeH
	DW	0fffeH
	DW	0fffeH
	DW	0fffeH
	DW	0fffeH
	DW	0fffeH
	DW	0fffeH
	DW	0430H
	DW	0431H
	DW	0432H
	DW	0433H
	DW	0434H
	DW	0435H
	DW	0451H
	DW	0436H
	DW	0437H
	DW	0438H
	DW	0439H
	DW	043aH
	DW	043bH
	DW	043cH
	DW	043dH
	DW	043eH
	DW	043fH
	DW	0440H
	DW	0441H
	DW	0442H
	DW	0443H
	DW	0444H
	DW	0445H
	DW	0446H
	DW	0447H
	DW	0448H
	DW	0449H
	DW	044aH
	DW	044bH
	DW	044cH
	DW	044dH
	DW	044eH
	DW	044fH
	DW	0101H
	DW	0e1H
	DW	01ceH
	DW	0e0H
	DW	0113H
	DW	0e9H
	DW	011bH
	DW	0e8H
	DW	012bH
	DW	0edH
	DW	01d0H
	DW	0ecH
	DW	014dH
	DW	0f3H
	DW	01d2H
	DW	0f2H
	DW	016bH
	DW	0faH
	DW	01d4H
	DW	0f9H
	DW	01d6H
	DW	01d8H
	DW	01daH
	DW	01dcH
	DW	0fcH
	DW	0eaH
	DW	0fffeH
	DW	0fffeH
	DW	0fffeH
	DW	0fffeH
	DW	0fffeH
	DW	0fffeH
	DW	0fffeH
	DW	0fffeH
	DW	0fffeH
	DW	0fffeH
	DW	03105H
	DW	03106H
	DW	03107H
	DW	03108H
	DW	03109H
	DW	0310aH
	DW	0310bH
	DW	0310cH
	DW	0310dH
	DW	0310eH
	DW	0310fH
	DW	03110H
	DW	03111H
	DW	03112H
	DW	03113H
	DW	03114H
	DW	03115H
	DW	03116H
	DW	03117H
	DW	03118H
	DW	03119H
	DW	0311aH
	DW	0311bH
	DW	0311cH
	DW	0311dH
	DW	0311eH
	DW	0311fH
	DW	03120H
	DW	03121H
	DW	03122H
	DW	03123H
	DW	03124H
	DW	03125H
	DW	03126H
	DW	03127H
	DW	03128H
	DW	03129H
	DW	02500H
	DW	02501H
	DW	02502H
	DW	02503H
	DW	02504H
	DW	02505H
	DW	02506H
	DW	02507H
	DW	02508H
	DW	02509H
	DW	0250aH
	DW	0250bH
	DW	0250cH
	DW	0250dH
	DW	0250eH
	DW	0250fH
	DW	02510H
	DW	02511H
	DW	02512H
	DW	02513H
	DW	02514H
	DW	02515H
	DW	02516H
	DW	02517H
	DW	02518H
	DW	02519H
	DW	0251aH
	DW	0251bH
	DW	0251cH
	DW	0251dH
	DW	0251eH
	DW	0251fH
	DW	02520H
	DW	02521H
	DW	02522H
	DW	02523H
	DW	02524H
	DW	02525H
	DW	02526H
	DW	02527H
	DW	02528H
	DW	02529H
	DW	0252aH
	DW	0252bH
	DW	0252cH
	DW	0252dH
	DW	0252eH
	DW	0252fH
	DW	02530H
	DW	02531H
	DW	02532H
	DW	02533H
	DW	02534H
	DW	02535H
	DW	02536H
	DW	02537H
	DW	02538H
	DW	02539H
	DW	0253aH
	DW	0253bH
	DW	0253cH
	DW	0253dH
	DW	0253eH
	DW	0253fH
	DW	02540H
	DW	02541H
	DW	02542H
	DW	02543H
	DW	02544H
	DW	02545H
	DW	02546H
	DW	02547H
	DW	02548H
	DW	02549H
	DW	0254aH
	DW	0254bH
	DW	0554aH
	DW	0963fH
	DW	057c3H
	DW	06328H
	DW	054ceH
	DW	05509H
	DW	054c0H
	DW	07691H
	DW	0764cH
	DW	0853cH
	DW	077eeH
	DW	0827eH
	DW	0788dH
	DW	07231H
	DW	09698H
	DW	0978dH
	DW	06c28H
	DW	05b89H
	DW	04ffaH
	DW	06309H
	DW	06697H
	DW	05cb8H
	DW	080faH
	DW	06848H
	DW	080aeH
	DW	06602H
	DW	076ceH
	DW	051f9H
	DW	06556H
	DW	071acH
	DW	07ff1H
	DW	08884H
	DW	050b2H
	DW	05965H
	DW	061caH
	DW	06fb3H
	DW	082adH
	DW	0634cH
	DW	06252H
	DW	053edH
	DW	05427H
	DW	07b06H
	DW	0516bH
	DW	075a4H
	DW	05df4H
	DW	062d4H
	DW	08dcbH
	DW	09776H
	DW	0628aH
	DW	08019H
	DW	0575dH
	DW	09738H
	DW	07f62H
	DW	07238H
	DW	0767dH
	DW	067cfH
	DW	0767eH
	DW	06446H
	DW	04f70H
	DW	08d25H
	DW	062dcH
	DW	07a17H
	DW	06591H
	DW	073edH
	DW	0642cH
	DW	06273H
	DW	0822cH
	DW	09881H
	DW	0677fH
	DW	07248H
	DW	0626eH
	DW	062ccH
	DW	04f34H
	DW	074e3H
	DW	0534aH
	DW	0529eH
	DW	07ecaH
	DW	090a6H
	DW	05e2eH
	DW	06886H
	DW	0699cH
	DW	08180H
	DW	07ed1H
	DW	068d2H
	DW	078c5H
	DW	0868cH
	DW	09551H
	DW	0508dH
	DW	08c24H
	DW	082deH
	DW	080deH
	DW	05305H
	DW	08912H
	DW	05265H
	DW	08584H
	DW	096f9H
	DW	04fddH
	DW	05821H
	DW	09971H
	DW	05b9dH
	DW	062b1H
	DW	062a5H
	DW	066b4H
	DW	08c79H
	DW	09c8dH
	DW	07206H
	DW	0676fH
	DW	07891H
	DW	060b2H
	DW	05351H
	DW	05317H
	DW	08f88H
	DW	080ccH
	DW	08d1dH
	DW	094a1H
	DW	0500dH
	DW	072c8H
	DW	05907H
	DW	060ebH
	DW	07119H
	DW	088abH
	DW	05954H
	DW	082efH
	DW	0672cH
	DW	07b28H
	DW	05d29H
	DW	07ef7H
	DW	0752dH
	DW	06cf5H
	DW	08e66H
	DW	08ff8H
	DW	0903cH
	DW	09f3bH
	DW	06bd4H
	DW	09119H
	DW	07b14H
	DW	05f7cH
	DW	078a7H
	DW	084d6H
	DW	0853dH
	DW	06bd5H
	DW	06bd9H
	DW	06bd6H
	DW	05e01H
	DW	05e87H
	DW	075f9H
	DW	095edH
	DW	0655dH
	DW	05f0aH
	DW	05fc5H
	DW	08f9fH
	DW	058c1H
	DW	081c2H
	DW	0907fH
	DW	0965bH
	DW	097adH
	DW	08fb9H
	DW	07f16H
	DW	08d2cH
	DW	06241H
	DW	04fbfH
	DW	053d8H
	DW	0535eH
	DW	08fa8H
	DW	08fa9H
	DW	08fabH
	DW	0904dH
	DW	06807H
	DW	05f6aH
	DW	08198H
	DW	08868H
	DW	09cd6H
	DW	0618bH
	DW	0522bH
	DW	0762aH
	DW	05f6cH
	DW	0658cH
	DW	06fd2H
	DW	06ee8H
	DW	05bbeH
	DW	06448H
	DW	05175H
	DW	051b0H
	DW	067c4H
	DW	04e19H
	DW	079c9H
	DW	0997cH
	DW	070b3H
	DW	075c5H
	DW	05e76H
	DW	073bbH
	DW	083e0H
	DW	064adH
	DW	062e8H
	DW	094b5H
	DW	06ce2H
	DW	0535aH
	DW	052c3H
	DW	0640fH
	DW	094c2H
	DW	07b94H
	DW	04f2fH
	DW	05e1bH
	DW	08236H
	DW	08116H
	DW	0818aH
	DW	06e24H
	DW	06ccaH
	DW	09a73H
	DW	06355H
	DW	0535cH
	DW	054faH
	DW	08865H
	DW	057e0H
	DW	04e0dH
	DW	05e03H
	DW	06b65H
	DW	07c3fH
	DW	090e8H
	DW	06016H
	DW	064e6H
	DW	0731cH
	DW	088c1H
	DW	06750H
	DW	0624dH
	DW	08d22H
	DW	0776cH
	DW	08e29H
	DW	091c7H
	DW	05f69H
	DW	083dcH
	DW	08521H
	DW	09910H
	DW	053c2H
	DW	08695H
	DW	06b8bH
	DW	060edH
	DW	060e8H
	DW	0707fH
	DW	082cdH
	DW	08231H
	DW	04ed3H
	DW	06ca7H
	DW	085cfH
	DW	064cdH
	DW	07cd9H
	DW	069fdH
	DW	066f9H
	DW	08349H
	DW	05395H
	DW	07b56H
	DW	04fa7H
	DW	0518cH
	DW	06d4bH
	DW	05c42H
	DW	08e6dH
	DW	063d2H
	DW	053c9H
	DW	0832cH
	DW	08336H
	DW	067e5H
	DW	078b4H
	DW	0643dH
	DW	05bdfH
	DW	05c94H
	DW	05deeH
	DW	08be7H
	DW	062c6H
	DW	067f4H
	DW	08c7aH
	DW	06400H
	DW	063baH
	DW	08749H
	DW	0998bH
	DW	08c17H
	DW	07f20H
	DW	094f2H
	DW	04ea7H
	DW	09610H
	DW	098a4H
	DW	0660cH
	DW	07316H
	DW	0573aH
	DW	05c1dH
	DW	05e38H
	DW	0957fH
	DW	0507fH
	DW	080a0H
	DW	05382H
	DW	0655eH
	DW	07545H
	DW	05531H
	DW	05021H
	DW	08d85H
	DW	06284H
	DW	0949eH
	DW	0671dH
	DW	05632H
	DW	06f6eH
	DW	05de2H
	DW	05435H
	DW	07092H
	DW	08f66H
	DW	0626fH
	DW	064a4H
	DW	063a3H
	DW	05f7bH
	DW	06f88H
	DW	090f4H
	DW	081e3H
	DW	08fb0H
	DW	05c18H
	DW	06668H
	DW	05ff1H
	DW	06c89H
	DW	09648H
	DW	08d81H
	DW	0886cH
	DW	06491H
	DW	079f0H
	DW	057ceH
	DW	06a59H
	DW	06210H
	DW	05448H
	DW	04e58H
	DW	07a0bH
	DW	060e9H
	DW	06f84H
	DW	08bdaH
	DW	0627fH
	DW	0901eH
	DW	09a8bH
	DW	079e4H
	DW	05403H
	DW	075f4H
	DW	06301H
	DW	05319H
	DW	06c60H
	DW	08fdfH
	DW	05f1bH
	DW	09a70H
	DW	0803bH
	DW	09f7fH
	DW	04f88H
	DW	05c3aH
	DW	08d64H
	DW	07fc5H
	DW	065a5H
	DW	070bdH
	DW	05145H
	DW	051b2H
	DW	0866bH
	DW	05d07H
	DW	05ba0H
	DW	062bdH
	DW	0916cH
	DW	07574H
	DW	08e0cH
	DW	07a20H
	DW	06101H
	DW	07b79H
	DW	04ec7H
	DW	07ef8H
	DW	07785H
	DW	04e11H
	DW	081edH
	DW	0521dH
	DW	051faH
	DW	06a71H
	DW	053a8H
	DW	08e87H
	DW	09504H
	DW	096cfH
	DW	06ec1H
	DW	09664H
	DW	0695aH
	DW	07840H
	DW	050a8H
	DW	077d7H
	DW	06410H
	DW	089e6H
	DW	05904H
	DW	063e3H
	DW	05dddH
	DW	07a7fH
	DW	0693dH
	DW	04f20H
	DW	08239H
	DW	05598H
	DW	04e32H
	DW	075aeH
	DW	07a97H
	DW	05e62H
	DW	05e8aH
	DW	095efH
	DW	0521bH
	DW	05439H
	DW	0708aH
	DW	06376H
	DW	09524H
	DW	05782H
	DW	06625H
	DW	0693fH
	DW	09187H
	DW	05507H
	DW	06df3H
	DW	07eafH
	DW	08822H
	DW	06233H
	DW	07ef0H
	DW	075b5H
	DW	08328H
	DW	078c1H
	DW	096ccH
	DW	08f9eH
	DW	06148H
	DW	074f7H
	DW	08bcdH
	DW	06b64H
	DW	0523aH
	DW	08d50H
	DW	06b21H
	DW	0806aH
	DW	08471H
	DW	056f1H
	DW	05306H
	DW	04eceH
	DW	04e1bH
	DW	051d1H
	DW	07c97H
	DW	0918bH
	DW	07c07H
	DW	04fc3H
	DW	08e7fH
	DW	07be1H
	DW	07a9cH
	DW	06467H
	DW	05d14H
	DW	050acH
	DW	08106H
	DW	07601H
	DW	07cb9H
	DW	06decH
	DW	07fe0H
	DW	06751H
	DW	05b58H
	DW	05bf8H
	DW	078cbH
	DW	064aeH
	DW	06413H
	DW	063aaH
	DW	0632bH
	DW	09519H
	DW	0642dH
	DW	08fbeH
	DW	07b54H
	DW	07629H
	DW	06253H
	DW	05927H
	DW	05446H
	DW	06b79H
	DW	050a3H
	DW	06234H
	DW	05e26H
	DW	06b86H
	DW	04ee3H
	DW	08d37H
	DW	0888bH
	DW	05f85H
	DW	0902eH
	DW	06020H
	DW	0803dH
	DW	062c5H
	DW	04e39H
	DW	05355H
	DW	090f8H
	DW	063b8H
	DW	080c6H
	DW	065e6H
	DW	06c2eH
	DW	04f46H
	DW	060eeH
	DW	06de1H
	DW	08bdeH
	DW	05f39H
	DW	086cbH
	DW	05f53H
	DW	06321H
	DW	0515aH
	DW	08361H
	DW	06863H
	DW	05200H
	DW	06363H
	DW	08e48H
	DW	05012H
	DW	05c9bH
	DW	07977H
	DW	05bfcH
	DW	05230H
	DW	07a3bH
	DW	060bcH
	DW	09053H
	DW	076d7H
	DW	05fb7H
	DW	05f97H
	DW	07684H
	DW	08e6cH
	DW	0706fH
	DW	0767bH
	DW	07b49H
	DW	077aaH
	DW	051f3H
	DW	09093H
	DW	05824H
	DW	04f4eH
	DW	06ef4H
	DW	08feaH
	DW	0654cH
	DW	07b1bH
	DW	072c4H
	DW	06da4H
	DW	07fdfH
	DW	05ae1H
	DW	062b5H
	DW	05e95H
	DW	05730H
	DW	08482H
	DW	07b2cH
	DW	05e1dH
	DW	05f1fH
	DW	09012H
	DW	07f14H
	DW	098a0H
	DW	06382H
	DW	06ec7H
	DW	07898H
	DW	070b9H
	DW	05178H
	DW	0975bH
	DW	057abH
	DW	07535H
	DW	04f43H
	DW	07538H
	DW	05e97H
	DW	060e6H
	DW	05960H
	DW	06dc0H
	DW	06bbfH
	DW	07889H
	DW	053fcH
	DW	096d5H
	DW	051cbH
	DW	05201H
	DW	06389H
	DW	0540aH
	DW	09493H
	DW	08c03H
	DW	08dccH
	DW	07239H
	DW	0789fH
	DW	08776H
	DW	08fedH
	DW	08c0dH
	DW	053e0H
	DW	04e01H
	DW	076efH
	DW	053eeH
	DW	09489H
	DW	09876H
	DW	09f0eH
	DW	0952dH
	DW	05b9aH
	DW	08ba2H
	DW	04e22H
	DW	04e1cH
	DW	051acH
	DW	08463H
	DW	061c2H
	DW	052a8H
	DW	0680bH
	DW	04f97H
	DW	0606bH
	DW	051bbH
	DW	06d1eH
	DW	0515cH
	DW	06296H
	DW	06597H
	DW	09661H
	DW	08c46H
	DW	09017H
	DW	075d8H
	DW	090fdH
	DW	07763H
	DW	06bd2H
	DW	0728aH
	DW	072ecH
	DW	08bfbH
	DW	05835H
	DW	07779H
	DW	08d4cH
	DW	0675cH
	DW	09540H
	DW	0809aH
	DW	05ea6H
	DW	06e21H
	DW	05992H
	DW	07aefH
	DW	077edH
	DW	0953bH
	DW	06bb5H
	DW	065adH
	DW	07f0eH
	DW	05806H
	DW	05151H
	DW	0961fH
	DW	05bf9H
	DW	058a9H
	DW	05428H
	DW	08e72H
	DW	06566H
	DW	0987fH
	DW	056e4H
	DW	0949dH
	DW	076feH
	DW	09041H
	DW	06387H
	DW	054c6H
	DW	0591aH
	DW	0593aH
	DW	0579bH
	DW	08eb2H
	DW	06735H
	DW	08dfaH
	DW	08235H
	DW	05241H
	DW	060f0H
	DW	05815H
	DW	086feH
	DW	05ce8H
	DW	09e45H
	DW	04fc4H
	DW	0989dH
	DW	08bb9H
	DW	05a25H
	DW	06076H
	DW	05384H
	DW	0627cH
	DW	0904fH
	DW	09102H
	DW	0997fH
	DW	06069H
	DW	0800cH
	DW	0513fH
	DW	08033H
	DW	05c14H
	DW	09975H
	DW	06d31H
	DW	04e8cH
	DW	08d30H
	DW	053d1H
	DW	07f5aH
	DW	07b4fH
	DW	04f10H
	DW	04e4fH
	DW	09600H
	DW	06cd5H
	DW	073d0H
	DW	085e9H
	DW	05e06H
	DW	0756aH
	DW	07ffbH
	DW	06a0aH
	DW	077feH
	DW	09492H
	DW	07e41H
	DW	051e1H
	DW	070e6H
	DW	053cdH
	DW	08fd4H
	DW	08303H
	DW	08d29H
	DW	072afH
	DW	0996dH
	DW	06cdbH
	DW	0574aH
	DW	082b3H
	DW	065b9H
	DW	080aaH
	DW	0623fH
	DW	09632H
	DW	059a8H
	DW	04effH
	DW	08bbfH
	DW	07ebaH
	DW	0653eH
	DW	083f2H
	DW	0975eH
	DW	05561H
	DW	098deH
	DW	080a5H
	DW	0532aH
	DW	08bfdH
	DW	05420H
	DW	080baH
	DW	05e9fH
	DW	06cb8H
	DW	08d39H
	DW	082acH
	DW	0915aH
	DW	05429H
	DW	06c1bH
	DW	05206H
	DW	07eb7H
	DW	0575fH
	DW	0711aH
	DW	06c7eH
	DW	07c89H
	DW	0594bH
	DW	04efdH
	DW	05fffH
	DW	06124H
	DW	07caaH
	DW	04e30H
	DW	05c01H
	DW	067abH
	DW	08702H
	DW	05cf0H
	DW	0950bH
	DW	098ceH
	DW	075afH
	DW	070fdH
	DW	09022H
	DW	051afH
	DW	07f1dH
	DW	08bbdH
	DW	05949H
	DW	051e4H
	DW	04f5bH
	DW	05426H
	DW	0592bH
	DW	06577H
	DW	080a4H
	DW	05b75H
	DW	06276H
	DW	062c2H
	DW	08f90H
	DW	05e45H
	DW	06c1fH
	DW	07b26H
	DW	04f0fH
	DW	04fd8H
	DW	0670dH
	DW	06d6eH
	DW	06daaH
	DW	0798fH
	DW	088b1H
	DW	05f17H
	DW	0752bH
	DW	0629aH
	DW	08f85H
	DW	04fefH
	DW	091dcH
	DW	065a7H
	DW	0812fH
	DW	08151H
	DW	05e9cH
	DW	08150H
	DW	08d74H
	DW	0526fH
	DW	08986H
	DW	08d4bH
	DW	0590dH
	DW	05085H
	DW	04ed8H
	DW	0961cH
	DW	07236H
	DW	08179H
	DW	08d1fH
	DW	05bccH
	DW	08ba3H
	DW	09644H
	DW	05987H
	DW	07f1aH
	DW	05490H
	DW	05676H
	DW	0560eH
	DW	08be5H
	DW	06539H
	DW	06982H
	DW	09499H
	DW	076d6H
	DW	06e89H
	DW	05e72H
	DW	07518H
	DW	06746H
	DW	067d1H
	DW	07affH
	DW	0809dH
	DW	08d76H
	DW	0611fH
	DW	079c6H
	DW	06562H
	DW	08d63H
	DW	05188H
	DW	0521aH
	DW	094a2H
	DW	07f38H
	DW	0809bH
	DW	07eb2H
	DW	05c97H
	DW	06e2fH
	DW	06760H
	DW	07bd9H
	DW	0768bH
	DW	09ad8H
	DW	0818fH
	DW	07f94H
	DW	07cd5H
	DW	0641eH
	DW	09550H
	DW	07a3fH
	DW	0544aH
	DW	054e5H
	DW	06b4cH
	DW	06401H
	DW	06208H
	DW	09e3dH
	DW	080f3H
	DW	07599H
	DW	05272H
	DW	09769H
	DW	0845bH
	DW	0683cH
	DW	086e4H
	DW	09601H
	DW	09694H
	DW	094ecH
	DW	04e2aH
	DW	05404H
	DW	07ed9H
	DW	06839H
	DW	08ddfH
	DW	08015H
	DW	066f4H
	DW	05e9aH
	DW	07fb9H
	DW	057c2H
	DW	0803fH
	DW	06897H
	DW	05de5H
	DW	0653bH
	DW	0529fH
	DW	0606dH
	DW	09f9aH
	DW	04f9bH
	DW	08eacH
	DW	0516cH
	DW	05babH
	DW	05f13H
	DW	05de9H
	DW	06c5eH
	DW	062f1H
	DW	08d21H
	DW	05171H
	DW	094a9H
	DW	052feH
	DW	06c9fH
	DW	082dfH
	DW	072d7H
	DW	057a2H
	DW	06784H
	DW	08d2dH
	DW	0591fH
	DW	08f9cH
	DW	083c7H
	DW	05495H
	DW	07b8dH
	DW	04f30H
	DW	06cbdH
	DW	05b64H
	DW	059d1H
	DW	09f13H
	DW	053e4H
	DW	086caH
	DW	09aa8H
	DW	08c37H
	DW	080a1H
	DW	06545H
	DW	0987eH
	DW	056faH
	DW	096c7H
	DW	0522eH
	DW	074dcH
	DW	05250H
	DW	05be1H
	DW	06302H
	DW	08902H
	DW	04e56H
	DW	062d0H
	DW	0602aH
	DW	068faH
	DW	05173H
	DW	05b98H
	DW	051a0H
	DW	089c2H
	DW	07ba1H
	DW	09986H
	DW	07f50H
	DW	060efH
	DW	0704cH
	DW	08d2fH
	DW	05149H
	DW	05e7fH
	DW	0901bH
	DW	07470H
	DW	089c4H
	DW	0572dH
	DW	07845H
	DW	05f52H
	DW	09f9fH
	DW	095faH
	DW	08f68H
	DW	09b3cH
	DW	08be1H
	DW	07678H
	DW	06842H
	DW	067dcH
	DW	08deaH
	DW	08d35H
	DW	0523dH
	DW	08f8aH
	DW	06edaH
	DW	068cdH
	DW	09505H
	DW	090edH
	DW	056fdH
	DW	0679cH
	DW	088f9H
	DW	08fc7H
	DW	054c8H
	DW	09ab8H
	DW	05b69H
	DW	06d77H
	DW	06c26H
	DW	04ea5H
	DW	05bb3H
	DW	09a87H
	DW	09163H
	DW	061a8H
	DW	090afH
	DW	097e9H
	DW	0542bH
	DW	06db5H
	DW	05bd2H
	DW	051fdH
	DW	0558aH
	DW	07f55H
	DW	07ff0H
	DW	064bcH
	DW	0634dH
	DW	065f1H
	DW	061beH
	DW	0608dH
	DW	0710aH
	DW	06c57H
	DW	06c49H
	DW	0592fH
	DW	0676dH
	DW	0822aH
	DW	058d5H
	DW	0568eH
	DW	08c6aH
	DW	06bebH
	DW	090ddH
	DW	0597dH
	DW	08017H
	DW	053f7H
	DW	06d69H
	DW	05475H
	DW	0559dH
	DW	08377H
	DW	083cfH
	DW	06838H
	DW	079beH
	DW	0548cH
	DW	04f55H
	DW	05408H
	DW	076d2H
	DW	08c89H
	DW	09602H
	DW	06cb3H
	DW	06db8H
	DW	08d6bH
	DW	08910H
	DW	09e64H
	DW	08d3aH
	DW	0563fH
	DW	09ed1H
	DW	075d5H
	DW	05f88H
	DW	072e0H
	DW	06068H
	DW	054fcH
	DW	04ea8H
	DW	06a2aH
	DW	08861H
	DW	06052H
	DW	08f70H
	DW	054c4H
	DW	070d8H
	DW	08679H
	DW	09e3fH
	DW	06d2aH
	DW	05b8fH
	DW	05f18H
	DW	07ea2H
	DW	05589H
	DW	04fafH
	DW	07334H
	DW	0543cH
	DW	0539aH
	DW	05019H
	DW	0540eH
	DW	0547cH
	DW	04e4eH
	DW	05ffdH
	DW	0745aH
	DW	058f6H
	DW	0846bH
	DW	080e1H
	DW	08774H
	DW	072d0H
	DW	07ccaH
	DW	06e56H
	DW	05f27H
	DW	0864eH
	DW	0552cH
	DW	062a4H
	DW	04e92H
	DW	06caaH
	DW	06237H
	DW	082b1H
	DW	054d7H
	DW	0534eH
	DW	0733eH
	DW	06ed1H
	DW	0753bH
	DW	05212H
	DW	05316H
	DW	08bddH
	DW	069d0H
	DW	05f8aH
	DW	06000H
	DW	06deeH
	DW	0574fH
	DW	06b22H
	DW	073afH
	DW	06853H
	DW	08fd8H
	DW	07f13H
	DW	06362H
	DW	060a3H
	DW	05524H
	DW	075eaH
	DW	08c62H
	DW	07115H
	DW	06da3H
	DW	05ba6H
	DW	05e7bH
	DW	08352H
	DW	0614cH
	DW	09ec4H
	DW	078faH
	DW	08757H
	DW	07c27H
	DW	07687H
	DW	051f0H
	DW	060f6H
	DW	0714cH
	DW	06643H
	DW	05e4cH
	DW	0604dH
	DW	08c0eH
	DW	07070H
	DW	06325H
	DW	08f89H
	DW	05fbdH
	DW	06062H
	DW	086d4H
	DW	056deH
	DW	06bc1H
	DW	06094H
	DW	06167H
	DW	05349H
	DW	060e0H
	DW	06666H
	DW	08d3fH
	DW	079fdH
	DW	04f1aH
	DW	070e9H
	DW	06c47H
	DW	08bb3H
	DW	08bf2H
	DW	07ed8H
	DW	08364H
	DW	0660fH
	DW	05a5aH
	DW	09b42H
	DW	06d51H
	DW	06df7H
	DW	08c41H
	DW	06d3bH
	DW	04f19H
	DW	0706bH
	DW	083b7H
	DW	06216H
	DW	060d1H
	DW	0970dH
	DW	08d27H
	DW	07978H
	DW	051fbH
	DW	0573eH
	DW	057faH
	DW	0673aH
	DW	07578H
	DW	07a3dH
	DW	079efH
	DW	07b95H
	DW	0808cH
	DW	09965H
	DW	08ff9H
	DW	06fc0H
	DW	08ba5H
	DW	09e21H
	DW	059ecH
	DW	07ee9H
	DW	07f09H
	DW	05409H
	DW	06781H
	DW	068d8H
	DW	08f91H
	DW	07c4dH
	DW	096c6H
	DW	053caH
	DW	06025H
	DW	075beH
	DW	06c72H
	DW	05373H
	DW	05ac9H
	DW	07ea7H
	DW	06324H
	DW	051e0H
	DW	0810aH
	DW	05df1H
	DW	084dfH
	DW	06280H
	DW	05180H
	DW	05b63H
	DW	04f0eH
	DW	0796dH
	DW	05242H
	DW	060b8H
	DW	06d4eH
	DW	05bc4H
	DW	05bc2H
	DW	08ba1H
	DW	08bb0H
	DW	065e2H
	DW	05fccH
	DW	09645H
	DW	05993H
	DW	07ee7H
	DW	07eaaH
	DW	05609H
	DW	067b7H
	DW	05939H
	DW	04f73H
	DW	05bb6H
	DW	052a0H
	DW	0835aH
	DW	0988aH
	DW	08d3eH
	DW	07532H
	DW	094beH
	DW	05047H
	DW	07a3cH
	DW	04ef7H
	DW	067b6H
	DW	09a7eH
	DW	05ac1H
	DW	06b7cH
	DW	076d1H
	DW	0575aH
	DW	05c16H
	DW	07b3aH
	DW	095f4H
	DW	0714eH
	DW	0517cH
	DW	080a9H
	DW	08270H
	DW	05978H
	DW	07f04H
	DW	08327H
	DW	068c0H
	DW	067ecH
	DW	078b1H
	DW	07877H
	DW	062e3H
	DW	06361H
	DW	07b80H
	DW	04fedH
	DW	0526aH
	DW	051cfH
	DW	08350H
	DW	069dbH
	DW	09274H
	DW	08df5H
	DW	08d31H
	DW	089c1H
	DW	0952eH
	DW	07badH
	DW	04ef6H
	DW	05065H
	DW	08230H
	DW	05251H
	DW	0996fH
	DW	06e10H
	DW	06e85H
	DW	06da7H
	DW	05efaH
	DW	050f5H
	DW	059dcH
	DW	05c06H
	DW	06d46H
	DW	06c5fH
	DW	07586H
	DW	0848bH
	DW	06868H
	DW	05956H
	DW	08bb2H
	DW	05320H
	DW	09171H
	DW	0964dH
	DW	08549H
	DW	06912H
	DW	07901H
	DW	07126H
	DW	080f6H
	DW	04ea4H
	DW	090caH
	DW	06d47H
	DW	09a84H
	DW	05a07H
	DW	056bcH
	DW	06405H
	DW	094f0H
	DW	077ebH
	DW	04fa5H
	DW	0811aH
	DW	072e1H
	DW	089d2H
	DW	0997aH
	DW	07f34H
	DW	07edeH
	DW	0527fH
	DW	06559H
	DW	09175H
	DW	08f7fH
	DW	08f83H
	DW	053ebH
	DW	07a96H
	DW	063edH
	DW	063a5H
	DW	07686H
	DW	079f8H
	DW	08857H
	DW	09636H
	DW	0622aH
	DW	052abH
	DW	08282H
	DW	06854H
	DW	06770H
	DW	06377H
	DW	0776bH
	DW	07aedH
	DW	06d01H
	DW	07ed3H
	DW	089e3H
	DW	059d0H
	DW	06212H
	DW	085c9H
	DW	082a5H
	DW	0754cH
	DW	0501fH
	DW	04ecbH
	DW	075a5H
	DW	08bebH
	DW	05c4aH
	DW	05dfeH
	DW	07b4bH
	DW	065a4H
	DW	091d1H
	DW	04ecaH
	DW	06d25H
	DW	0895fH
	DW	07d27H
	DW	09526H
	DW	04ec5H
	DW	08c28H
	DW	08fdbH
	DW	09773H
	DW	0664bH
	DW	07981H
	DW	08fd1H
	DW	070ecH
	DW	06d78H
	DW	05c3dH
	DW	052b2H
	DW	08346H
	DW	05162H
	DW	0830eH
	DW	0775bH
	DW	06676H
	DW	09cb8H
	DW	04eacH
	DW	060caH
	DW	07cbeH
	DW	07cb3H
	DW	07ecfH
	DW	04e95H
	DW	08b66H
	DW	0666fH
	DW	09888H
	DW	09759H
	DW	05883H
	DW	0656cH
	DW	0955cH
	DW	05f84H
	DW	075c9H
	DW	09756H
	DW	07adfH
	DW	07adeH
	DW	051c0H
	DW	070afH
	DW	07a98H
	DW	063eaH
	DW	07a76H
	DW	07ea0H
	DW	07396H
	DW	097edH
	DW	04e45H
	DW	07078H
	DW	04e5dH
	DW	09152H
	DW	053a9H
	DW	06551H
	DW	065e7H
	DW	081fcH
	DW	08205H
	DW	0548eH
	DW	05c31H
	DW	0759aH
	DW	097a0H
	DW	062d8H
	DW	072d9H
	DW	075bdH
	DW	05c45H
	DW	09a79H
	DW	083caH
	DW	05c40H
	DW	05480H
	DW	077e9H
	DW	04e3eH
	DW	06caeH
	DW	0805aH
	DW	062d2H
	DW	0636eH
	DW	05de8H
	DW	05177H
	DW	08dddH
	DW	08e1eH
	DW	0952fH
	DW	04ff1H
	DW	053e5H
	DW	060e7H
	DW	070acH
	DW	05267H
	DW	06350H
	DW	09e43H
	DW	05a1fH
	DW	05026H
	DW	07737H
	DW	05377H
	DW	07ee2H
	DW	06485H
	DW	0652bH
	DW	06289H
	DW	06398H
	DW	05014H
	DW	07235H
	DW	089c9H
	DW	051b3H
	DW	08bc0H
	DW	07eddH
	DW	05747H
	DW	083ccH
	DW	094a7H
	DW	0519bH
	DW	0541bH
	DW	05cfbH
	DW	04fcaH
	DW	07ae3H
	DW	06d5aH
	DW	090e1H
	DW	09a8fH
	DW	05580H
	DW	05496H
	DW	05361H
	DW	054afH
	DW	05f00H
	DW	063e9H
	DW	06977H
	DW	051efH
	DW	06168H
	DW	0520aH
	DW	0582aH
	DW	052d8H
	DW	0574eH
	DW	0780dH
	DW	0770bH
	DW	05eb7H
	DW	06177H
	DW	07ce0H
	DW	0625bH
	DW	06297H
	DW	04ea2H
	DW	07095H
	DW	08003H
	DW	062f7H
	DW	070e4H
	DW	09760H
	DW	05777H
	DW	082dbH
	DW	067efH
	DW	068f5H
	DW	078d5H
	DW	09897H
	DW	079d1H
	DW	058f3H
	DW	054b3H
	DW	053efH
	DW	06e34H
	DW	0514bH
	DW	0523bH
	DW	05ba2H
	DW	08bfeH
	DW	080afH
	DW	05543H
	DW	057a6H
	DW	06073H
	DW	05751H
	DW	0542dH
	DW	07a7aH
	DW	06050H
	DW	05b54H
	DW	063a7H
	DW	062a0H
	DW	053e3H
	DW	06263H
	DW	05bc7H
	DW	067afH
	DW	054edH
	DW	07a9fH
	DW	082e6H
	DW	09177H
	DW	05e93H
	DW	088e4H
	DW	05938H
	DW	057aeH
	DW	0630eH
	DW	08de8H
	DW	080efH
	DW	05757H
	DW	07b77H
	DW	04fa9H
	DW	05febH
	DW	05bbdH
	DW	06b3eH
	DW	05321H
	DW	07b50H
	DW	072c2H
	DW	06846H
	DW	077ffH
	DW	07736H
	DW	065f7H
	DW	051b5H
	DW	04e8fH
	DW	076d4H
	DW	05cbfH
	DW	07aa5H
	DW	08475H
	DW	0594eH
	DW	09b41H
	DW	05080H
	DW	09988H
	DW	06127H
	DW	06e83H
	DW	05764H
	DW	06606H
	DW	06346H
	DW	056f0H
	DW	062ecH
	DW	06269H
	DW	05ed3H
	DW	09614H
	DW	05783H
	DW	062c9H
	DW	05587H
	DW	08721H
	DW	0814aH
	DW	08fa3H
	DW	05566H
	DW	083b1H
	DW	06765H
	DW	08d56H
	DW	084ddH
	DW	05a6aH
	DW	0680fH
	DW	062e6H
	DW	07beeH
	DW	09611H
	DW	05170H
	DW	06f9cH
	DW	08c30H
	DW	063fdH
	DW	089c8H
	DW	061d2H
	DW	07f06H
	DW	070c2H
	DW	06ee5H
	DW	07405H
	DW	06994H
	DW	072fcH
	DW	05ecaH
	DW	090ceH
	DW	06717H
	DW	06d6aH
	DW	0635eH
	DW	052b3H
	DW	07262H
	DW	08001H
	DW	04f6cH
	DW	059e5H
	DW	0916aH
	DW	070d9H
	DW	06d9dH
	DW	052d2H
	DW	04e50H
	DW	096f7H
	DW	0956dH
	DW	0857eH
	DW	078caH
	DW	07d2fH
	DW	05121H
	DW	05792H
	DW	064c2H
	DW	0808bH
	DW	07c7bH
	DW	06ceaH
	DW	068f1H
	DW	0695eH
	DW	051b7H
	DW	05398H
	DW	068a8H
	DW	07281H
	DW	09eceH
	DW	07bf1H
	DW	072f8H
	DW	079bbH
	DW	06f13H
	DW	07406H
	DW	0674eH
	DW	091ccH
	DW	09ca4H
	DW	0793cH
	DW	08389H
	DW	08354H
	DW	0540fH
	DW	06817H
	DW	04e3dH
	DW	05389H
	DW	052b1H
	DW	0783eH
	DW	05386H
	DW	05229H
	DW	05088H
	DW	04f8bH
	DW	04fd0H
	DW	075e2H
	DW	07acbH
	DW	07c92H
	DW	06ca5H
	DW	096b6H
	DW	0529bH
	DW	07483H
	DW	054e9H
	DW	04fe9H
	DW	08054H
	DW	083b2H
	DW	08fdeH
	DW	09570H
	DW	05ec9H
	DW	0601cH
	DW	06d9fH
	DW	05e18H
	DW	0655bH
	DW	08138H
	DW	094feH
	DW	0604bH
	DW	070bcH
	DW	07ec3H
	DW	07caeH
	DW	051c9H
	DW	06881H
	DW	07cb1H
	DW	0826fH
	DW	04e24H
	DW	08f86H
	DW	091cfH
	DW	0667eH
	DW	04eaeH
	DW	08c05H
	DW	064a9H
	DW	0804aH
	DW	050daH
	DW	07597H
	DW	071ceH
	DW	05be5H
	DW	08fbdH
	DW	06f66H
	DW	04e86H
	DW	06482H
	DW	09563H
	DW	05ed6H
	DW	06599H
	DW	05217H
	DW	088c2H
	DW	070c8H
	DW	052a3H
	DW	0730eH
	DW	07433H
	DW	06797H
	DW	078f7H
	DW	09716H
	DW	04e34H
	DW	090bbH
	DW	09cdeH
	DW	06dcbH
	DW	051dbH
	DW	08d41H
	DW	0541dH
	DW	062ceH
	DW	073b2H
	DW	083f1H
	DW	096f6H
	DW	09f84H
	DW	094c3H
	DW	04f36H
	DW	07f9aH
	DW	051ccH
	DW	07075H
	DW	09675H
	DW	05cadH
	DW	09886H
	DW	053e6H
	DW	04ee4H
	DW	06e9cH
	DW	07409H
	DW	069b4H
	DW	0786bH
	DW	0998fH
	DW	07559H
	DW	05218H
	DW	07624H
	DW	06d41H
	DW	067f3H
	DW	0516dH
	DW	09f99H
	DW	0804bH
	DW	05499H
	DW	07b3cH
	DW	07abfH
	DW	09686H
	DW	05784H
	DW	062e2H
	DW	09647H
	DW	0697cH
	DW	05a04H
	DW	06402H
	DW	07bd3H
	DW	06f0fH
	DW	0964bH
	DW	082a6H
	DW	05362H
	DW	09885H
	DW	05e90H
	DW	07089H
	DW	063b3H
	DW	05364H
	DW	0864fH
	DW	09c81H
	DW	09e93H
	DW	0788cH
	DW	09732H
	DW	08defH
	DW	08d42H
	DW	09e7fH
	DW	06f5eH
	DW	07984H
	DW	05f55H
	DW	09646H
	DW	0622eH
	DW	09a74H
	DW	05415H
	DW	094ddH
	DW	04fa3H
	DW	065c5H
	DW	05c65H
	DW	05c61H
	DW	07f15H
	DW	08651H
	DW	06c2fH
	DW	05f8bH
	DW	07387H
	DW	06ee4H
	DW	07effH
	DW	05ce6H
	DW	0631bH
	DW	05b6aH
	DW	06ee6H
	DW	05375H
	DW	04e71H
	DW	063a0H
	DW	07565H
	DW	062a1H
	DW	08f6eH
	DW	04f26H
	DW	04ed1H
	DW	06ca6H
	DW	07eb6H
	DW	08bbaH
	DW	0841dH
	DW	087baH
	DW	07f57H
	DW	0903bH
	DW	09523H
	DW	07ba9H
	DW	09aa1H
	DW	088f8H
	DW	0843dH
	DW	06d1bH
	DW	09a86H
	DW	07edcH
	DW	05988H
	DW	09ebbH
	DW	0739bH
	DW	07801H
	DW	08682H
	DW	09a6cH
	DW	09a82H
	DW	0561bH
	DW	05417H
	DW	057cbH
	DW	04e70H
	DW	09ea6H
	DW	05356H
	DW	08fc8H
	DW	08109H
	DW	07792H
	DW	09992H
	DW	086eeH
	DW	06ee1H
	DW	08513H
	DW	066fcH
	DW	06162H
	DW	06f2bH
	DW	08c29H
	DW	08292H
	DW	0832bH
	DW	076f2H
	DW	06c13H
	DW	05fd9H
	DW	083bdH
	DW	0732bH
	DW	08305H
	DW	0951aH
	DW	06bdbH
	DW	077dbH
	DW	094c6H
	DW	0536fH
	DW	08302H
	DW	05192H
	DW	05e3dH
	DW	08c8cH
	DW	08d38H
	DW	04e48H
	DW	073abH
	DW	0679aH
	DW	06885H
	DW	09176H
	DW	09709H
	DW	07164H
	DW	06ca1H
	DW	07709H
	DW	05a92H
	DW	09541H
	DW	06bcfH
	DW	07f8eH
	DW	06627H
	DW	05bd0H
	DW	059b9H
	DW	05a9aH
	DW	095e8H
	DW	095f7H
	DW	04eecH
	DW	0840cH
	DW	08499H
	DW	06aacH
	DW	076dfH
	DW	09530H
	DW	0731bH
	DW	068a6H
	DW	05b5fH
	DW	0772fH
	DW	0919aH
	DW	09761H
	DW	07cdcH
	DW	08ff7H
	DW	08c1cH
	DW	05f25H
	DW	07c73H
	DW	079d8H
	DW	089c5H
	DW	06cccH
	DW	0871cH
	DW	05bc6H
	DW	05e42H
	DW	068c9H
	DW	07720H
	DW	07ef5H
	DW	05195H
	DW	0514dH
	DW	052c9H
	DW	05a29H
	DW	07f05H
	DW	09762H
	DW	082d7H
	DW	063cfH
	DW	07784H
	DW	085d0H
	DW	079d2H
	DW	06e3aH
	DW	05e99H
	DW	05999H
	DW	08511H
	DW	0706dH
	DW	06c11H
	DW	062bfH
	DW	076bfH
	DW	0654fH
	DW	060afH
	DW	095fdH
	DW	0660eH
	DW	0879fH
	DW	09e23H
	DW	094edH
	DW	0540dH
	DW	0547dH
	DW	08c2cH
	DW	06478H
	DW	06479H
	DW	08611H
	DW	06a21H
	DW	0819cH
	DW	078e8H
	DW	06469H
	DW	09b54H
	DW	062b9H
	DW	0672bH
	DW	083abH
	DW	058a8H
	DW	09ed8H
	DW	06cabH
	DW	06f20H
	DW	05bdeH
	DW	0964cH
	DW	08c0bH
	DW	0725fH
	DW	067d0H
	DW	062c7H
	DW	07261H
	DW	04ea9H
	DW	059c6H
	DW	06bcdH
	DW	05893H
	DW	066aeH
	DW	05e55H
	DW	052dfH
	DW	06155H
	DW	06728H
	DW	076eeH
	DW	07766H
	DW	07267H
	DW	07a46H
	DW	062ffH
	DW	054eaH
	DW	05450H
	DW	094a0H
	DW	090a3H
	DW	05a1cH
	DW	07eb3H
	DW	06c16H
	DW	04e43H
	DW	05976H
	DW	08010H
	DW	05948H
	DW	05357H
	DW	07537H
	DW	096beH
	DW	056caH
	DW	06320H
	DW	08111H
	DW	0607cH
	DW	095f9H
	DW	06dd6H
	DW	05462H
	DW	09981H
	DW	05185H
	DW	05ae9H
	DW	080fdH
	DW	059aeH
	DW	09713H
	DW	0502aH
	DW	06ce5H
	DW	05c3cH
	DW	062dfH
	DW	04f60H
	DW	0533fH
	DW	0817bH
	DW	09006H
	DW	06ebaH
	DW	0852bH
	DW	062c8H
	DW	05e74H
	DW	078beH
	DW	064b5H
	DW	0637bH
	DW	05ff5H
	DW	05a18H
	DW	0917fH
	DW	09e1fH
	DW	05c3fH
	DW	0634fH
	DW	08042H
	DW	05b7dH
	DW	0556eH
	DW	0954aH
	DW	0954dH
	DW	06d85H
	DW	060a8H
	DW	067e0H
	DW	072deH
	DW	051ddH
	DW	05b81H
	DW	062e7H
	DW	06cdeH
	DW	0725bH
	DW	0626dH
	DW	094aeH
	DW	07ebdH
	DW	08113H
	DW	06d53H
	DW	0519cH
	DW	05f04H
	DW	05974H
	DW	052aaH
	DW	06012H
	DW	05973H
	DW	06696H
	DW	08650H
	DW	0759fH
	DW	0632aH
	DW	061e6H
	DW	07cefH
	DW	08bfaH
	DW	054e6H
	DW	06b27H
	DW	09e25H
	DW	06bb4H
	DW	085d5H
	DW	05455H
	DW	05076H
	DW	06ca4H
	DW	0556aH
	DW	08db4H
	DW	0722cH
	DW	05e15H
	DW	06015H
	DW	07436H
	DW	062cdH
	DW	06392H
	DW	0724cH
	DW	05f98H
	DW	06e43H
	DW	06d3eH
	DW	06500H
	DW	06f58H
	DW	076d8H
	DW	078d0H
	DW	076fcH
	DW	07554H
	DW	05224H
	DW	053dbH
	DW	04e53H
	DW	05e9eH
	DW	065c1H
	DW	0802aH
	DW	080d6H
	DW	0629bH
	DW	05486H
	DW	05228H
	DW	070aeH
	DW	0888dH
	DW	08dd1H
	DW	06ce1H
	DW	05478H
	DW	080daH
	DW	057f9H
	DW	088f4H
	DW	08d54H
	DW	0966aH
	DW	0914dH
	DW	04f69H
	DW	06c9bH
	DW	055b7H
	DW	076c6H
	DW	07830H
	DW	062a8H
	DW	070f9H
	DW	06f8eH
	DW	05f6dH
	DW	084ecH
	DW	068daH
	DW	0787cH
	DW	07bf7H
	DW	081a8H
	DW	0670bH
	DW	09e4fH
	DW	06367H
	DW	078b0H
	DW	0576fH
	DW	07812H
	DW	09739H
	DW	06279H
	DW	062abH
	DW	05288H
	DW	07435H
	DW	06bd7H
	DW	05564H
	DW	0813eH
	DW	075b2H
	DW	076aeH
	DW	05339H
	DW	075deH
	DW	050fbH
	DW	05c41H
	DW	08b6cH
	DW	07bc7H
	DW	0504fH
	DW	07247H
	DW	09a97H
	DW	098d8H
	DW	06f02H
	DW	074e2H
	DW	07968H
	DW	06487H
	DW	077a5H
	DW	062fcH
	DW	09891H
	DW	08d2bH
	DW	054c1H
	DW	08058H
	DW	04e52H
	DW	0576aH
	DW	082f9H
	DW	0840dH
	DW	05e73H
	DW	051edH
	DW	074f6H
	DW	08bc4H
	DW	05c4fH
	DW	05761H
	DW	06cfcH
	DW	09887H
	DW	05a46H
	DW	07834H
	DW	09b44H
	DW	08febH
	DW	07c95H
	DW	05256H
	DW	06251H
	DW	094faH
	DW	04ec6H
	DW	08386H
	DW	08461H
	DW	083e9H
	DW	084b2H
	DW	057d4H
	DW	06734H
	DW	05703H
	DW	0666eH
	DW	06d66H
	DW	08c31H
	DW	066ddH
	DW	07011H
	DW	0671fH
	DW	06b3aH
	DW	06816H
	DW	0621aH
	DW	059bbH
	DW	04e03H
	DW	051c4H
	DW	06f06H
	DW	067d2H
	DW	06c8fH
	DW	05176H
	DW	068cbH
	DW	05947H
	DW	06b67H
	DW	07566H
	DW	05d0eH
	DW	08110H
	DW	09f50H
	DW	065d7H
	DW	07948H
	DW	07941H
	DW	09a91H
	DW	08d77H
	DW	05c82H
	DW	04e5eH
	DW	04f01H
	DW	0542fH
	DW	05951H
	DW	0780cH
	DW	05668H
	DW	06c14H
	DW	08fc4H
	DW	05f03H
	DW	06c7dH
	DW	06ce3H
	DW	08babH
	DW	06390H
	DW	06070H
	DW	06d3dH
	DW	07275H
	DW	06266H
	DW	0948eH
	DW	094c5H
	DW	05343H
	DW	08fc1H
	DW	07b7eH
	DW	04edfH
	DW	08c26H
	DW	04e7eH
	DW	09ed4H
	DW	094b1H
	DW	094b3H
	DW	0524dH
	DW	06f5cH
	DW	09063H
	DW	06d45H
	DW	08c34H
	DW	05811H
	DW	05d4cH
	DW	06b20H
	DW	06b49H
	DW	067aaH
	DW	0545bH
	DW	08154H
	DW	07f8cH
	DW	05899H
	DW	08537H
	DW	05f3aH
	DW	062a2H
	DW	06a47H
	DW	09539H
	DW	06572H
	DW	06084H
	DW	06865H
	DW	077a7H
	DW	04e54H
	DW	04fa8H
	DW	05de7H
	DW	09798H
	DW	064acH
	DW	07fd8H
	DW	05cedH
	DW	04fcfH
	DW	07a8dH
	DW	05207H
	DW	08304H
	DW	04e14H
	DW	0602fH
	DW	07a83H
	DW	094a6H
	DW	04fb5H
	DW	04eb2H
	DW	079e6H
	DW	07434H
	DW	052e4H
	DW	082b9H
	DW	064d2H
	DW	079bdH
	DW	05bddH
	DW	06c81H
	DW	09752H
	DW	08f7bH
	DW	06c22H
	DW	0503eH
	DW	0537fH
	DW	06e05H
	DW	064ceH
	DW	06674H
	DW	06c30H
	DW	060c5H
	DW	09877H
	DW	08bf7H
	DW	05e86H
	DW	0743cH
	DW	07a77H
	DW	079cbH
	DW	04e18H
	DW	090b1H
	DW	07403H
	DW	06c42H
	DW	056daH
	DW	0914bH
	DW	06cc5H
	DW	08d8bH
	DW	0533aH
	DW	086c6H
	DW	066f2H
	DW	08eafH
	DW	05c48H
	DW	09a71H
	DW	06e20H
	DW	053d6H
	DW	05a36H
	DW	09f8bH
	DW	08da3H
	DW	053bbH
	DW	05708H
	DW	098a7H
	DW	06743H
	DW	0919bH
	DW	06cc9H
	DW	05168H
	DW	075caH
	DW	062f3H
	DW	072acH
	DW	05238H
	DW	0529dH
	DW	07f3aH
	DW	07094H
	DW	07638H
	DW	05374H
	DW	09e4aH
	DW	069b7H
	DW	0786eH
	DW	096c0H
	DW	088d9H
	DW	07fa4H
	DW	07136H
	DW	071c3H
	DW	05189H
	DW	067d3H
	DW	074e4H
	DW	058e4H
	DW	06518H
	DW	056b7H
	DW	08ba9H
	DW	09976H
	DW	06270H
	DW	07ed5H
	DW	060f9H
	DW	070edH
	DW	058ecH
	DW	04ec1H
	DW	04ebaH
	DW	05fcdH
	DW	097e7H
	DW	04efbH
	DW	08ba4H
	DW	05203H
	DW	0598aH
	DW	07eabH
	DW	06254H
	DW	04ecdH
	DW	065e5H
	DW	0620eH
	DW	08338H
	DW	084c9H
	DW	08363H
	DW	0878dH
	DW	07194H
	DW	06eb6H
	DW	05bb9H
	DW	07ed2H
	DW	05197H
	DW	063c9H
	DW	067d4H
	DW	08089H
	DW	08339H
	DW	08815H
	DW	05112H
	DW	05b7aH
	DW	05982H
	DW	08fb1H
	DW	04e73H
	DW	06c5dH
	DW	05165H
	DW	08925H
	DW	08f6fH
	DW	0962eH
	DW	0854aH
	DW	0745eH
	DW	09510H
	DW	095f0H
	DW	06da6H
	DW	082e5H
	DW	05f31H
	DW	06492H
	DW	06d12H
	DW	08428H
	DW	0816eH
	DW	09cc3H
	DW	0585eH
	DW	08d5bH
	DW	04e09H
	DW	053c1H
	DW	04f1eH
	DW	06563H
	DW	06851H
	DW	055d3H
	DW	04e27H
	DW	06414H
	DW	09a9aH
	DW	0626bH
	DW	05ac2H
	DW	0745fH
	DW	08272H
	DW	06da9H
	DW	068eeH
	DW	050e7H
	DW	0838eH
	DW	07802H
	DW	06740H
	DW	05239H
	DW	06c99H
	DW	07eb1H
	DW	050bbH
	DW	05565H
	DW	0715eH
	DW	07b5bH
	DW	06652H
	DW	073caH
	DW	082ebH
	DW	06749H
	DW	05c71H
	DW	05220H
	DW	0717dH
	DW	0886bH
	DW	095eaH
	DW	09655H
	DW	064c5H
	DW	08d61H
	DW	081b3H
	DW	05584H
	DW	06c55H
	DW	06247H
	DW	07f2eH
	DW	05892H
	DW	04f24H
	DW	05546H
	DW	08d4fH
	DW	0664cH
	DW	04e0aH
	DW	05c1aH
	DW	088f3H
	DW	068a2H
	DW	0634eH
	DW	07a0dH
	DW	070e7H
	DW	0828dH
	DW	052faH
	DW	097f6H
	DW	05c11H
	DW	054e8H
	DW	090b5H
	DW	07ecdH
	DW	05962H
	DW	08d4aH
	DW	086c7H
	DW	0820cH
	DW	0820dH
	DW	08d66H
	DW	06444H
	DW	05c04H
	DW	06151H
	DW	06d89H
	DW	0793eH
	DW	08bbeH
	DW	07837H
	DW	07533H
	DW	0547bH
	DW	04f38H
	DW	08eabH
	DW	06df1H
	DW	05a20H
	DW	07ec5H
	DW	0795eH
	DW	06c88H
	DW	05ba1H
	DW	05a76H
	DW	0751aH
	DW	080beH
	DW	0614eH
	DW	06e17H
	DW	058f0H
	DW	0751fH
	DW	07525H
	DW	07272H
	DW	05347H
	DW	07ef3H
	DW	07701H
	DW	076dbH
	DW	05269H
	DW	080dcH
	DW	05723H
	DW	05e08H
	DW	05931H
	DW	072eeH
	DW	065bdH
	DW	06e7fH
	DW	08bd7H
	DW	05c38H
	DW	08671H
	DW	05341H
	DW	077f3H
	DW	062feH
	DW	065f6H
	DW	04ec0H
	DW	098dfH
	DW	08680H
	DW	05b9eH
	DW	08bc6H
	DW	053f2H
	DW	077e2H
	DW	04f7fH
	DW	05c4eH
	DW	09a76H
	DW	059cbH
	DW	05f0fH
	DW	0793aH
	DW	058ebH
	DW	04e16H
	DW	067ffH
	DW	04e8bH
	DW	062edH
	DW	08a93H
	DW	0901dH
	DW	052bfH
	DW	0662fH
	DW	055dcH
	DW	0566cH
	DW	09002H
	DW	04ed5H
	DW	04f8dH
	DW	091caH
	DW	09970H
	DW	06c0fH
	DW	05e02H
	DW	06043H
	DW	05ba4H
	DW	089c6H
	DW	08bd5H
	DW	06536H
	DW	0624bH
	DW	09996H
	DW	05b88H
	DW	05bffH
	DW	06388H
	DW	0552eH
	DW	053d7H
	DW	07626H
	DW	0517dH
	DW	0852cH
	DW	067a2H
	DW	068b3H
	DW	06b8aH
	DW	06292H
	DW	08f93H
	DW	053d4H
	DW	08212H
	DW	06dd1H
	DW	0758fH
	DW	04e66H
	DW	08d4eH
	DW	05b70H
	DW	0719fH
	DW	085afH
	DW	06691H
	DW	066d9H
	DW	07f72H
	DW	08700H
	DW	09ecdH
	DW	09f20H
	DW	05c5eH
	DW	0672fH
	DW	08ff0H
	DW	06811H
	DW	0675fH
	DW	0620dH
	DW	07ad6H
	DW	05885H
	DW	05eb6H
	DW	06570H
	DW	06f31H
	DW	06055H
	DW	05237H
	DW	0800dH
	DW	06454H
	DW	08870H
	DW	07529H
	DW	05e05H
	DW	06813H
	DW	062f4H
	DW	0971cH
	DW	053ccH
	DW	0723dH
	DW	08c01H
	DW	06c34H
	DW	07761H
	DW	07a0eH
	DW	0542eH
	DW	077acH
	DW	0987aH
	DW	0821cH
	DW	08bf4H
	DW	07855H
	DW	06714H
	DW	070c1H
	DW	065afH
	DW	06495H
	DW	05636H
	DW	0601dH
	DW	079c1H
	DW	053f8H
	DW	04e1dH
	DW	06b7bH
	DW	08086H
	DW	05bfaH
	DW	055e3H
	DW	056dbH
	DW	04f3aH
	DW	04f3cH
	DW	09972H
	DW	05df3H
	DW	0677eH
	DW	08038H
	DW	06002H
	DW	09882H
	DW	09001H
	DW	05b8bH
	DW	08bbcH
	DW	08bf5H
	DW	0641cH
	DW	08258H
	DW	064deH
	DW	055fdH
	DW	082cfH
	DW	09165H
	DW	04fd7H
	DW	07d20H
	DW	0901fH
	DW	07c9fH
	DW	050f3H
	DW	05851H
	DW	06eafH
	DW	05bbfH
	DW	08bc9H
	DW	08083H
	DW	09178H
	DW	0849cH
	DW	07b97H
	DW	0867dH
	DW	0968bH
	DW	0968fH
	DW	07ee5H
	DW	09ad3H
	DW	0788eH
	DW	05c81H
	DW	07a57H
	DW	09042H
	DW	096a7H
	DW	0795fH
	DW	05b59H
	DW	0635fH
	DW	07b0bH
	DW	084d1H
	DW	068adH
	DW	05506H
	DW	07f29H
	DW	07410H
	DW	07d22H
	DW	09501H
	DW	06240H
	DW	0584cH
	DW	04ed6H
	DW	05b83H
	DW	05979H
	DW	05854H
	DW	0736dH
	DW	0631eH
	DW	08e4bH
	DW	08e0fH
	DW	080ceH
	DW	082d4H
	DW	062acH
	DW	053f0H
	DW	06cf0H
	DW	0915eH
	DW	0592aH
	DW	06001H
	DW	06c70H
	DW	0574dH
	DW	0644aH
	DW	08d2aH
	DW	0762bH
	DW	06ee9H
	DW	0575bH
	DW	06a80H
	DW	075f0H
	DW	06f6dH
	DW	08c2dH
	DW	08c08H
	DW	05766H
	DW	06befH
	DW	08892H
	DW	078b3H
	DW	063a2H
	DW	053f9H
	DW	070adH
	DW	06c64H
	DW	05858H
	DW	0642aH
	DW	05802H
	DW	068e0H
	DW	0819bH
	DW	05510H
	DW	07cd6H
	DW	05018H
	DW	08ebaH
	DW	06dccH
	DW	08d9fH
	DW	070ebH
	DW	0638fH
	DW	06d9bH
	DW	06ed4H
	DW	07ee6H
	DW	08404H
	DW	06843H
	DW	09003H
	DW	06dd8H
	DW	09676H
	DW	08ba8H
	DW	05957H
	DW	07279H
	DW	085e4H
	DW	0817eH
	DW	075bcH
	DW	08a8aH
	DW	068afH
	DW	05254H
	DW	08e22H
	DW	09511H
	DW	063d0H
	DW	09898H
	DW	08e44H
	DW	0557cH
	DW	04f53H
	DW	066ffH
	DW	0568fH
	DW	060d5H
	DW	06d95H
	DW	05243H
	DW	05c49H
	DW	05929H
	DW	06dfbH
	DW	0586bH
	DW	07530H
	DW	0751cH
	DW	0606cH
	DW	08214H
	DW	08146H
	DW	06311H
	DW	06761H
	DW	08fe2H
	DW	0773aH
	DW	08df3H
	DW	08d34H
	DW	094c1H
	DW	05e16H
	DW	05385H
	DW	0542cH
	DW	070c3H
	DW	06c40H
	DW	05ef7H
	DW	0505cH
	DW	04eadH
	DW	05eadH
	DW	0633aH
	DW	08247H
	DW	0901aH
	DW	06850H
	DW	0916eH
	DW	077b3H
	DW	0540cH
	DW	094dcH
	DW	05f64H
	DW	07ae5H
	DW	06876H
	DW	06345H
	DW	07b52H
	DW	07edfH
	DW	075dbH
	DW	05077H
	DW	06295H
	DW	05934H
	DW	0900fH
	DW	051f8H
	DW	079c3H
	DW	07a81H
	DW	056feH
	DW	05f92H
	DW	09014H
	DW	06d82H
	DW	05c60H
	DW	0571fH
	DW	05410H
	DW	05154H
	DW	06e4dH
	DW	056e2H
	DW	063a8H
	DW	09893H
	DW	0817fH
	DW	08715H
	DW	0892aH
	DW	09000H
	DW	0541eH
	DW	05c6fH
	DW	081c0H
	DW	062d6H
	DW	06258H
	DW	08131H
	DW	09e35H
	DW	09640H
	DW	09a6eH
	DW	09a7cH
	DW	0692dH
	DW	059a5H
	DW	062d3H
	DW	0553eH
	DW	06316H
	DW	054c7H
	DW	086d9H
	DW	06d3cH
	DW	05a03H
	DW	074e6H
	DW	0889cH
	DW	06b6aH
	DW	05916H
	DW	08c4cH
	DW	05f2fH
	DW	06e7eH
	DW	073a9H
	DW	0987dH
	DW	04e38H
	DW	070f7H
	DW	05b8cH
	DW	07897H
	DW	0633dH
	DW	0665aH
	DW	07696H
	DW	060cbH
	DW	05b9bH
	DW	05a49H
	DW	04e07H
	DW	08155H
	DW	06c6aH
	DW	0738bH
	DW	04ea1H
	DW	06789H
	DW	07f51H
	DW	05f80H
	DW	065faH
	DW	0671bH
	DW	05fd8H
	DW	05984H
	DW	05a01H
	DW	05dcdH
	DW	05faeH
	DW	05371H
	DW	097e6H
	DW	08fddH
	DW	06845H
	DW	056f4H
	DW	0552fH
	DW	060dfH
	DW	04e3aH
	DW	06f4dH
	DW	07ef4H
	DW	082c7H
	DW	0840eH
	DW	059d4H
	DW	04f1fH
	DW	04f2aH
	DW	05c3eH
	DW	07eacH
	DW	0672aH
	DW	0851aH
	DW	05473H
	DW	0754fH
	DW	080c3H
	DW	05582H
	DW	09b4fH
	DW	04f4dH
	DW	06e2dH
	DW	08c13H
	DW	05c09H
	DW	06170H
	DW	0536bH
	DW	0761fH
	DW	06e29H
	DW	0868aH
	DW	06587H
	DW	095fbH
	DW	07eb9H
	DW	0543bH
	DW	07a33H
	DW	07d0aH
	DW	095eeH
	DW	055e1H
	DW	07fc1H
	DW	074eeH
	DW	0631dH
	DW	08717H
	DW	06da1H
	DW	07a9dH
	DW	06211H
	DW	065a1H
	DW	05367H
	DW	063e1H
	DW	06c83H
	DW	05debH
	DW	0545cH
	DW	094a8H
	DW	04e4cH
	DW	06c61H
	DW	08becH
	DW	05c4bH
	DW	065e0H
	DW	0829cH
	DW	068a7H
	DW	0543eH
	DW	05434H
	DW	06bcbH
	DW	06b66H
	DW	04e94H
	DW	06342H
	DW	05348H
	DW	0821eH
	DW	04f0dH
	DW	04faeH
	DW	0575eH
	DW	0620aH
	DW	096feH
	DW	06664H
	DW	07269H
	DW	052ffH
	DW	052a1H
	DW	0609fH
	DW	08befH
	DW	06614H
	DW	07199H
	DW	06790H
	DW	0897fH
	DW	07852H
	DW	077fdH
	DW	06670H
	DW	0563bH
	DW	05438H
	DW	09521H
	DW	0727aH
	DW	07a00H
	DW	0606fH
	DW	05e0cH
	DW	06089H
	DW	0819dH
	DW	05915H
	DW	060dcH
	DW	07184H
	DW	070efH
	DW	06eaaH
	DW	06c50H
	DW	07280H
	DW	06a84H
	DW	088adH
	DW	05e2dH
	DW	04e60H
	DW	05ab3H
	DW	0559cH
	DW	094e3H
	DW	06d17H
	DW	07cfbH
	DW	09699H
	DW	0620fH
	DW	07ec6H
	DW	0778eH
	DW	0867eH
	DW	05323H
	DW	0971eH
	DW	08f96H
	DW	06687H
	DW	05ce1H
	DW	04fa0H
	DW	072edH
	DW	04e0bH
	DW	053a6H
	DW	0590fH
	DW	05413H
	DW	06380H
	DW	09528H
	DW	05148H
	DW	04ed9H
	DW	09c9cH
	DW	07ea4H
	DW	054b8H
	DW	08d24H
	DW	08854H
	DW	08237H
	DW	095f2H
	DW	06d8eH
	DW	05f26H
	DW	05accH
	DW	0663eH
	DW	09669H
	DW	073b0H
	DW	0732eH
	DW	053bfH
	DW	0817aH
	DW	09985H
	DW	07fa1H
	DW	05baaH
	DW	09677H
	DW	09650H
	DW	07ebfH
	DW	076f8H
	DW	053a2H
	DW	09576H
	DW	09999H
	DW	07bb1H
	DW	08944H
	DW	06e58H
	DW	04e61H
	DW	07fd4H
	DW	07965H
	DW	08be6H
	DW	060f3H
	DW	054cdH
	DW	04eabH
	DW	09879H
	DW	05df7H
	DW	06a61H
	DW	050cfH
	DW	05411H
	DW	08c61H
	DW	08427H
	DW	0785dH
	DW	09704H
	DW	0524aH
	DW	054eeH
	DW	056a3H
	DW	09500H
	DW	06d88H
	DW	05bb5H
	DW	06dc6H
	DW	06653H
	DW	05c0fH
	DW	05b5dH
	DW	06821H
	DW	08096H
	DW	05578H
	DW	07b11H
	DW	06548H
	DW	06954H
	DW	04e9bH
	DW	06b47H
	DW	0874eH
	DW	0978bH
	DW	0534fH
	DW	0631fH
	DW	0643aH
	DW	090aaH
	DW	0659cH
	DW	080c1H
	DW	08c10H
	DW	05199H
	DW	068b0H
	DW	05378H
	DW	087f9H
	DW	061c8H
	DW	06cc4H
	DW	06cfbH
	DW	08c22H
	DW	05c51H
	DW	085aaH
	DW	082afH
	DW	0950cH
	DW	06b23H
	DW	08f9bH
	DW	065b0H
	DW	05ffbH
	DW	05fc3H
	DW	04fe1H
	DW	08845H
	DW	0661fH
	DW	08165H
	DW	07329H
	DW	060faH
	DW	05174H
	DW	05211H
	DW	0578bH
	DW	05f62H
	DW	090a2H
	DW	0884cH
	DW	09192H
	DW	05e78H
	DW	0674fH
	DW	06027H
	DW	059d3H
	DW	05144H
	DW	051f6H
	DW	080f8H
	DW	05308H
	DW	06c79H
	DW	096c4H
	DW	0718aH
	DW	04f11H
	DW	04feeH
	DW	07f9eH
	DW	0673dH
	DW	055c5H
	DW	09508H
	DW	079c0H
	DW	08896H
	DW	07ee3H
	DW	0589fH
	DW	0620cH
	DW	09700H
	DW	0865aH
	DW	05618H
	DW	0987bH
	DW	05f90H
	DW	08bb8H
	DW	084c4H
	DW	09157H
	DW	053d9H
	DW	065edH
	DW	05e8fH
	DW	0755cH
	DW	06064H
	DW	07d6eH
	DW	05a7fH
	DW	07eeaH
	DW	07eedH
	DW	08f69H
	DW	055a7H
	DW	05ba3H
	DW	060acH
	DW	065cbH
	DW	07384H
	DW	09009H
	DW	07663H
	DW	07729H
	DW	07edaH
	DW	09774H
	DW	0859bH
	DW	05b66H
	DW	07a74H
	DW	096eaH
	DW	08840H
	DW	052cbH
	DW	0718fH
	DW	05faaH
	DW	065ecH
	DW	08be2H
	DW	05bfbH
	DW	09a6fH
	DW	05de1H
	DW	06b89H
	DW	06c5bH
	DW	08badH
	DW	08bafH
	DW	0900aH
	DW	08fc5H
	DW	0538bH
	DW	062bcH
	DW	09e26H
	DW	09e2dH
	DW	05440H
	DW	04e2bH
	DW	082bdH
	DW	07259H
	DW	0869cH
	DW	05d16H
	DW	08859H
	DW	06dafH
	DW	096c5H
	DW	054d1H
	DW	04e9aH
	DW	08bb6H
	DW	07109H
	DW	054bdH
	DW	09609H
	DW	070dfH
	DW	06df9H
	DW	076d0H
	DW	04e25H
	DW	07814H
	DW	08712H
	DW	05ca9H
	DW	05ef6H
	DW	08a00H
	DW	0989cH
	DW	0960eH
	DW	0708eH
	DW	06cbfH
	DW	05944H
	DW	063a9H
	DW	0773cH
	DW	0884dH
	DW	06f14H
	DW	08273H
	DW	05830H
	DW	071d5H
	DW	0538cH
	DW	0781aH
	DW	096c1H
	DW	05501H
	DW	05f66H
	DW	07130H
	DW	05bb4H
	DW	08c1aH
	DW	09a8cH
	DW	06b83H
	DW	0592eH
	DW	09e2fH
	DW	079e7H
	DW	06768H
	DW	0626cH
	DW	04f6fH
	DW	075a1H
	DW	07f8aH
	DW	06d0bH
	DW	09633H
	DW	06c27H
	DW	04ef0H
	DW	075d2H
	DW	0517bH
	DW	06837H
	DW	06f3eH
	DW	09080H
	DW	08170H
	DW	05996H
	DW	07476H
	DW	06447H
	DW	05c27H
	DW	09065H
	DW	07a91H
	DW	08c23H
	DW	059daH
	DW	054acH
	DW	08200H
	DW	0836fH
	DW	08981H
	DW	08000H
	DW	06930H
	DW	0564eH
	DW	08036H
	DW	07237H
	DW	091ceH
	DW	051b6H
	DW	04e5fH
	DW	09875H
	DW	06396H
	DW	04e1aH
	DW	053f6H
	DW	066f3H
	DW	0814bH
	DW	0591cH
	DW	06db2H
	DW	04e00H
	DW	058f9H
	DW	0533bH
	DW	063d6H
	DW	094f1H
	DW	04f9dH
	DW	04f0aH
	DW	08863H
	DW	09890H
	DW	05937H
	DW	09057H
	DW	079fbH
	DW	04eeaH
	DW	080f0H
	DW	07591H
	DW	06c82H
	DW	05b9cH
	DW	059e8H
	DW	05f5dH
	DW	06905H
	DW	08681H
	DW	0501aH
	DW	05df2H
	DW	04e59H
	DW	077e3H
	DW	04ee5H
	DW	0827aH
	DW	06291H
	DW	06613H
	DW	09091H
	DW	05c79H
	DW	04ebfH
	DW	05f79H
	DW	081c6H
	DW	09038H
	DW	08084H
	DW	075abH
	DW	04ea6H
	DW	088d4H
	DW	0610fH
	DW	06bc5H
	DW	05fc6H
	DW	04e49H
	DW	076caH
	DW	06ea2H
	DW	08be3H
	DW	08baeH
	DW	08c0aH
	DW	08bd1H
	DW	05f02H
	DW	07ffcH
	DW	07fccH
	DW	07eceH
	DW	08335H
	DW	0836bH
	DW	056e0H
	DW	06bb7H
	DW	097f3H
	DW	09634H
	DW	059fbH
	DW	0541fH
	DW	094f6H
	DW	06debH
	DW	05bc5H
	DW	0996eH
	DW	05c39H
	DW	05f15H
	DW	09690H
	DW	05370H
	DW	082f1H
	DW	06a31H
	DW	05a74H
	DW	09e70H
	DW	05e94H
	DW	07f28H
	DW	083b9H
	DW	08424H
	DW	08425H
	DW	08367H
	DW	08747H
	DW	08fceH
	DW	08d62H
	DW	076c8H
	DW	05f71H
	DW	09896H
	DW	0786cH
	DW	06620H
	DW	054dfH
	DW	062e5H
	DW	04f63H
	DW	081c3H
	DW	075c8H
	DW	05eb8H
	DW	096cdH
	DW	08e0aH
	DW	086f9H
	DW	0548fH
	DW	06cf3H
	DW	06d8cH
	DW	06c38H
	DW	0607fH
	DW	052c7H
	DW	07528H
	DW	05e7dH
	DW	04f18H
	DW	060a0H
	DW	05fe7H
	DW	05c24H
	DW	07531H
	DW	090aeH
	DW	094c0H
	DW	072b9H
	DW	06cb9H
	DW	06e38H
	DW	09149H
	DW	06709H
	DW	053cbH
	DW	053f3H
	DW	04f51H
	DW	091c9H
	DW	08bf1H
	DW	053c8H
	DW	05e7cH
	DW	08fc2H
	DW	06de4H
	DW	04e8eH
	DW	076c2H
	DW	06986H
	DW	0865eH
	DW	0611aH
	DW	08206H
	DW	04f59H
	DW	04fdeH
	DW	0903eH
	DW	09c7cH
	DW	06109H
	DW	06e1dH
	DW	06e14H
	DW	09685H
	DW	04e88H
	DW	05a31H
	DW	096e8H
	DW	04e0eH
	DW	05c7fH
	DW	079b9H
	DW	05b87H
	DW	08bedH
	DW	07fbdH
	DW	07389H
	DW	057dfH
	DW	0828bH
	DW	090c1H
	DW	05401H
	DW	09047H
	DW	055bbH
	DW	05ceaH
	DW	05fa1H
	DW	06108H
	DW	06b32H
	DW	072f1H
	DW	080b2H
	DW	08a89H
	DW	06d74H
	DW	05bd3H
	DW	088d5H
	DW	09884H
	DW	08c6bH
	DW	09a6dH
	DW	09e33H
	DW	06e0aH
	DW	051a4H
	DW	05143H
	DW	057a3H
	DW	08881H
	DW	0539fH
	DW	063f4H
	DW	08f95H
	DW	056edH
	DW	05458H
	DW	05706H
	DW	0733fH
	DW	06e90H
	DW	07f18H
	DW	08fdcH
	DW	082d1H
	DW	0613fH
	DW	06028H
	DW	09662H
	DW	066f0H
	DW	07ea6H
	DW	08d8aH
	DW	08dc3H
	DW	094a5H
	DW	05cb3H
	DW	07ca4H
	DW	06708H
	DW	060a6H
	DW	09605H
	DW	08018H
	DW	04e91H
	DW	090e7H
	DW	05300H
	DW	09668H
	DW	05141H
	DW	08fd0H
	DW	08574H
	DW	0915dH
	DW	06655H
	DW	097f5H
	DW	05b55H
	DW	0531dH
	DW	07838H
	DW	06742H
	DW	0683dH
	DW	054c9H
	DW	0707eH
	DW	05bb0H
	DW	08f7dH
	DW	0518dH
	DW	05728H
	DW	054b1H
	DW	06512H
	DW	06682H
	DW	08d5eH
	DW	08d43H
	DW	0810fH
	DW	0846cH
	DW	0906dH
	DW	07cdfH
	DW	051ffH
	DW	085fbH
	DW	067a3H
	DW	065e9H
	DW	06fa1H
	DW	086a4H
	DW	08e81H
	DW	0566aH
	DW	09020H
	DW	07682H
	DW	07076H
	DW	071e5H
	DW	08d23H
	DW	062e9H
	DW	05219H
	DW	06cfdH
	DW	08d3cH
	DW	0600eH
	DW	0589eH
	DW	0618eH
	DW	066feH
	DW	08d60H
	DW	0624eH
	DW	055b3H
	DW	06e23H
	DW	0672dH
	DW	08f67H
	DW	094e1H
	DW	095f8H
	DW	07728H
	DW	06805H
	DW	069a8H
	DW	0548bH
	DW	04e4dH
	DW	070b8H
	DW	08bc8H
	DW	06458H
	DW	0658bH
	DW	05b85H
	DW	07a84H
	DW	0503aH
	DW	05be8H
	DW	077bbH
	DW	06be1H
	DW	08a79H
	DW	07c98H
	DW	06cbeH
	DW	076cfH
	DW	065a9H
	DW	08f97H
	DW	05d2dH
	DW	05c55H
	DW	08638H
	DW	06808H
	DW	05360H
	DW	06218H
	DW	07ad9H
	DW	06e5bH
	DW	07efdH
	DW	06a1fH
	DW	07ae0H
	DW	05f70H
	DW	06f33H
	DW	05f20H
	DW	0638cH
	DW	06da8H
	DW	06756H
	DW	04e08H
	DW	05e10H
	DW	08d26H
	DW	04ed7H
	DW	080c0H
	DW	07634H
	DW	0969cH
	DW	062dbH
	DW	0662dH
	DW	0627eH
	DW	06cbcH
	DW	08d75H
	DW	07167H
	DW	07f69H
	DW	05146H
	DW	08087H
	DW	053ecH
	DW	0906eH
	DW	06298H
	DW	054f2H
	DW	086f0H
	DW	08f99H
	DW	08005H
	DW	09517H
	DW	08517H
	DW	08fd9H
	DW	06d59H
	DW	073cdH
	DW	0659fH
	DW	0771fH
	DW	07504H
	DW	07827H
	DW	081fbH
	DW	08d1eH
	DW	09488H
	DW	04fa6H
	DW	06795H
	DW	075b9H
	DW	08bcaH
	DW	09707H
	DW	0632fH
	DW	09547H
	DW	09635H
	DW	084b8H
	DW	06323H
	DW	07741H
	DW	05f81H
	DW	072f0H
	DW	04e89H
	DW	06014H
	DW	06574H
	DW	062efH
	DW	06b63H
	DW	0653fH
	DW	05e27H
	DW	075c7H
	DW	090d1H
	DW	08bc1H
	DW	0829dH
	DW	0679dH
	DW	0652fH
	DW	05431H
	DW	08718H
	DW	077e5H
	DW	080a2H
	DW	08102H
	DW	06c41H
	DW	04e4bH
	DW	07ec7H
	DW	0804cH
	DW	076f4H
	DW	0690dH
	DW	06b96H
	DW	06267H
	DW	0503cH
	DW	04f84H
	DW	05740H
	DW	06307H
	DW	06b62H
	DW	08dbeH
	DW	053eaH
	DW	065e8H
	DW	07eb8H
	DW	05fd7H
	DW	0631aH
	DW	063b7H
	DW	081f3H
	DW	081f4H
	DW	07f6eH
	DW	05e1cH
	DW	05cd9H
	DW	05236H
	DW	0667aH
	DW	079e9H
	DW	07a1aH
	DW	08d28H
	DW	07099H
	DW	075d4H
	DW	06edeH
	DW	06cbbH
	DW	07a92H
	DW	04e2dH
	DW	076c5H
	DW	05fe0H
	DW	0949fH
	DW	08877H
	DW	07ec8H
	DW	079cdH
	DW	080bfH
	DW	091cdH
	DW	04ef2H
	DW	04f17H
	DW	0821fH
	DW	05468H
	DW	05ddeH
	DW	06d32H
	DW	08bccH
	DW	07ca5H
	DW	08f74H
	DW	08098H
	DW	05e1aH
	DW	05492H
	DW	076b1H
	DW	05b99H
	DW	0663cH
	DW	09aa4H
	DW	073e0H
	DW	0682aH
	DW	086dbH
	DW	06731H
	DW	0732aH
	DW	08bf8H
	DW	08bdbH
	DW	09010H
	DW	07af9H
	DW	070dbH
	DW	0716eH
	DW	062c4H
	DW	077a9H
	DW	05631H
	DW	04e3bH
	DW	08457H
	DW	067f1H
	DW	052a9H
	DW	086c0H
	DW	08d2eH
	DW	094f8H
	DW	07b51H
	DW	04f4fH
	DW	06ce8H
	DW	0795dH
	DW	09a7bH
	DW	06293H
	DW	0722aH
	DW	062fdH
	DW	04e13H
	DW	07816H
	DW	08f6cH
	DW	064b0H
	DW	08d5aH
	DW	07bc6H
	DW	06869H
	DW	05e84H
	DW	088c5H
	DW	05986H
	DW	0649eH
	DW	058eeH
	DW	072b6H
	DW	0690eH
	DW	09525H
	DW	08ffdH
	DW	08d58H
	DW	05760H
	DW	07f00H
	DW	08c06H
	DW	051c6H
	DW	06349H
	DW	062d9H
	DW	05353H
	DW	0684cH
	DW	07422H
	DW	08301H
	DW	0914cH
	DW	05544H
	DW	07740H
	DW	0707cH
	DW	06d4aH
	DW	05179H
	DW	054a8H
	DW	08d44H
	DW	059ffH
	DW	06ecbH
	DW	06dc4H
	DW	05b5cH
	DW	07d2bH
	DW	04ed4H
	DW	07c7dH
	DW	06ed3H
	DW	05b50H
	DW	081eaH
	DW	06e0dH
	DW	05b57H
	DW	09b03H
	DW	068d5H
	DW	08e2aH
	DW	05b97H
	DW	07efcH
	DW	0603bH
	DW	07eb5H
	DW	090b9H
	DW	08d70H
	DW	0594fH
	DW	063cdH
	DW	079dfH
	DW	08db3H
	DW	05352H
	DW	065cfH
	DW	07956H
	DW	08bc5H
	DW	0963bH
	DW	07ec4H
	DW	094bbH
	DW	07e82H
	DW	05634H
	DW	09189H
	DW	06700H
	DW	07f6aH
	DW	05c0aH
	DW	09075H
	DW	06628H
	DW	05de6H
	DW	04f50H
	DW	067deH
	DW	0505aH
	DW	04f5cH
	DW	05750H
	DW	05ea7H
	DW	04e8dH
	DW	04e0cH
	DW	05140H
	DW	04e10H
	DW	05effH
	DW	05345H
	DW	04e15H
	DW	04e98H
	DW	04e1eH
	DW	09b32H
	DW	05b6cH
	DW	05669H
	DW	04e28H
	DW	079baH
	DW	04e3fH
	DW	05315H
	DW	04e47H
	DW	0592dH
	DW	0723bH
	DW	0536eH
	DW	06c10H
	DW	056dfH
	DW	080e4H
	DW	09997H
	DW	06bd3H
	DW	0777eH
	DW	09f17H
	DW	04e36H
	DW	04e9fH
	DW	09f10H
	DW	04e5cH
	DW	04e69H
	DW	04e93H
	DW	08288H
	DW	05b5bH
	DW	0556cH
	DW	0560fH
	DW	04ec4H
	DW	0538dH
	DW	0539dH
	DW	053a3H
	DW	053a5H
	DW	053aeH
	DW	09765H
	DW	08d5dH
	DW	0531aH
	DW	053f5H
	DW	05326H
	DW	0532eH
	DW	0533eH
	DW	08d5cH
	DW	05366H
	DW	05363H
	DW	05202H
	DW	05208H
	DW	0520eH
	DW	0522dH
	DW	05233H
	DW	0523fH
	DW	05240H
	DW	0524cH
	DW	0525eH
	DW	05261H
	DW	0525cH
	DW	084afH
	DW	0527dH
	DW	05282H
	DW	05281H
	DW	05290H
	DW	05293H
	DW	05182H
	DW	07f54H
	DW	04ebbH
	DW	04ec3H
	DW	04ec9H
	DW	04ec2H
	DW	04ee8H
	DW	04ee1H
	DW	04eebH
	DW	04edeH
	DW	04f1bH
	DW	04ef3H
	DW	04f22H
	DW	04f64H
	DW	04ef5H
	DW	04f25H
	DW	04f27H
	DW	04f09H
	DW	04f2bH
	DW	04f5eH
	DW	04f67H
	DW	06538H
	DW	04f5aH
	DW	04f5dH
	DW	04f5fH
	DW	04f57H
	DW	04f32H
	DW	04f3dH
	DW	04f76H
	DW	04f74H
	DW	04f91H
	DW	04f89H
	DW	04f83H
	DW	04f8fH
	DW	04f7eH
	DW	04f7bH
	DW	04faaH
	DW	04f7cH
	DW	04facH
	DW	04f94H
	DW	04fe6H
	DW	04fe8H
	DW	04feaH
	DW	04fc5H
	DW	04fdaH
	DW	04fe3H
	DW	04fdcH
	DW	04fd1H
	DW	04fdfH
	DW	04ff8H
	DW	05029H
	DW	0504cH
	DW	04ff3H
	DW	0502cH
	DW	0500fH
	DW	0502eH
	DW	0502dH
	DW	04ffeH
	DW	0501cH
	DW	0500cH
	DW	05025H
	DW	05028H
	DW	0507eH
	DW	05043H
	DW	05055H
	DW	05048H
	DW	0504eH
	DW	0506cH
	DW	0507bH
	DW	050a5H
	DW	050a7H
	DW	050a9H
	DW	050baH
	DW	050d6H
	DW	05106H
	DW	050edH
	DW	050ecH
	DW	050e6H
	DW	050eeH
	DW	05107H
	DW	0510bH
	DW	04eddH
	DW	06c3dH
	DW	04f58H
	DW	04f65H
	DW	04fceH
	DW	09fa0H
	DW	06c46H
	DW	07c74H
	DW	0516eH
	DW	05dfdH
	DW	09ec9H
	DW	09998H
	DW	05181H
	DW	05914H
	DW	052f9H
	DW	0530dH
	DW	08a07H
	DW	05310H
	DW	051ebH
	DW	05919H
	DW	05155H
	DW	04ea0H
	DW	05156H
	DW	04eb3H
	DW	0886eH
	DW	088a4H
	DW	04eb5H
	DW	08114H
	DW	088d2H
	DW	07980H
	DW	05b34H
	DW	08803H
	DW	07fb8H
	DW	051abH
	DW	051b1H
	DW	051bdH
	DW	051bcH
	DW	051c7H
	DW	05196H
	DW	051a2H
	DW	051a5H
	DW	08ba0H
	DW	08ba6H
	DW	08ba7H
	DW	08baaH
	DW	08bb4H
	DW	08bb5H
	DW	08bb7H
	DW	08bc2H
	DW	08bc3H
	DW	08bcbH
	DW	08bcfH
	DW	08bceH
	DW	08bd2H
	DW	08bd3H
	DW	08bd4H
	DW	08bd6H
	DW	08bd8H
	DW	08bd9H
	DW	08bdcH
	DW	08bdfH
	DW	08be0H
	DW	08be4H
	DW	08be8H
	DW	08be9H
	DW	08beeH
	DW	08bf0H
	DW	08bf3H
	DW	08bf6H
	DW	08bf9H
	DW	08bfcH
	DW	08bffH
	DW	08c00H
	DW	08c02H
	DW	08c04H
	DW	08c07H
	DW	08c0cH
	DW	08c0fH
	DW	08c11H
	DW	08c12H
	DW	08c14H
	DW	08c15H
	DW	08c16H
	DW	08c19H
	DW	08c1bH
	DW	08c18H
	DW	08c1dH
	DW	08c1fH
	DW	08c20H
	DW	08c21H
	DW	08c25H
	DW	08c27H
	DW	08c2aH
	DW	08c2bH
	DW	08c2eH
	DW	08c2fH
	DW	08c32H
	DW	08c33H
	DW	08c35H
	DW	08c36H
	DW	05369H
	DW	0537aH
	DW	0961dH
	DW	09622H
	DW	09621H
	DW	09631H
	DW	0962aH
	DW	0963dH
	DW	0963cH
	DW	09642H
	DW	09649H
	DW	09654H
	DW	0965fH
	DW	09667H
	DW	0966cH
	DW	09672H
	DW	09674H
	DW	09688H
	DW	0968dH
	DW	09697H
	DW	096b0H
	DW	09097H
	DW	0909bH
	DW	0909dH
	DW	09099H
	DW	090acH
	DW	090a1H
	DW	090b4H
	DW	090b3H
	DW	090b6H
	DW	090baH
	DW	090b8H
	DW	090b0H
	DW	090cfH
	DW	090c5H
	DW	090beH
	DW	090d0H
	DW	090c4H
	DW	090c7H
	DW	090d3H
	DW	090e6H
	DW	090e2H
	DW	090dcH
	DW	090d7H
	DW	090dbH
	DW	090ebH
	DW	090efH
	DW	090feH
	DW	09104H
	DW	09122H
	DW	0911eH
	DW	09123H
	DW	09131H
	DW	0912fH
	DW	09139H
	DW	09143H
	DW	09146H
	DW	0520dH
	DW	05942H
	DW	052a2H
	DW	052acH
	DW	052adH
	DW	052beH
	DW	054ffH
	DW	052d0H
	DW	052d6H
	DW	052f0H
	DW	053dfH
	DW	071eeH
	DW	077cdH
	DW	05ef4H
	DW	051f5H
	DW	051fcH
	DW	09b2fH
	DW	053b6H
	DW	05f01H
	DW	0755aH
	DW	05defH
	DW	0574cH
	DW	057a9H
	DW	057a1H
	DW	0587eH
	DW	058bcH
	DW	058c5H
	DW	058d1H
	DW	05729H
	DW	0572cH
	DW	0572aH
	DW	05733H
	DW	05739H
	DW	0572eH
	DW	0572fH
	DW	0575cH
	DW	0573bH
	DW	05742H
	DW	05769H
	DW	05785H
	DW	0576bH
	DW	05786H
	DW	0577cH
	DW	0577bH
	DW	05768H
	DW	0576dH
	DW	05776H
	DW	05773H
	DW	057adH
	DW	057a4H
	DW	0578cH
	DW	057b2H
	DW	057cfH
	DW	057a7H
	DW	057b4H
	DW	05793H
	DW	057a0H
	DW	057d5H
	DW	057d8H
	DW	057daH
	DW	057d9H
	DW	057d2H
	DW	057b8H
	DW	057f4H
	DW	057efH
	DW	057f8H
	DW	057e4H
	DW	057ddH
	DW	0580bH
	DW	0580dH
	DW	057fdH
	DW	057edH
	DW	05800H
	DW	0581eH
	DW	05819H
	DW	05844H
	DW	05820H
	DW	05865H
	DW	0586cH
	DW	05881H
	DW	05889H
	DW	0589aH
	DW	05880H
	DW	099a8H
	DW	09f19H
	DW	061ffH
	DW	08279H
	DW	0827dH
	DW	0827fH
	DW	0828fH
	DW	0828aH
	DW	082a8H
	DW	08284H
	DW	0828eH
	DW	08291H
	DW	08297H
	DW	08299H
	DW	082abH
	DW	082b8H
	DW	082beH
	DW	082b0H
	DW	082c8H
	DW	082caH
	DW	082e3H
	DW	08298H
	DW	082b7H
	DW	082aeH
	DW	082cbH
	DW	082ccH
	DW	082c1H
	DW	082a9H
	DW	082b4H
	DW	082a1H
	DW	082aaH
	DW	0829fH
	DW	082c4H
	DW	082ceH
	DW	082a4H
	DW	082e1H
	DW	08309H
	DW	082f7H
	DW	082e4H
	DW	0830fH
	DW	08307H
	DW	082dcH
	DW	082f4H
	DW	082d2H
	DW	082d8H
	DW	0830cH
	DW	082fbH
	DW	082d3H
	DW	08311H
	DW	0831aH
	DW	08306H
	DW	08314H
	DW	08315H
	DW	082e0H
	DW	082d5H
	DW	0831cH
	DW	08351H
	DW	0835bH
	DW	0835cH
	DW	08308H
	DW	08392H
	DW	0833cH
	DW	08334H
	DW	08331H
	DW	0839bH
	DW	0835eH
	DW	0832fH
	DW	0834fH
	DW	08347H
	DW	08343H
	DW	0835fH
	DW	08340H
	DW	08317H
	DW	08360H
	DW	0832dH
	DW	0833aH
	DW	08333H
	DW	08366H
	DW	08365H
	DW	08368H
	DW	0831bH
	DW	08369H
	DW	0836cH
	DW	0836aH
	DW	0836dH
	DW	0836eH
	DW	083b0H
	DW	08378H
	DW	083b3H
	DW	083b4H
	DW	083a0H
	DW	083aaH
	DW	08393H
	DW	0839cH
	DW	08385H
	DW	0837cH
	DW	083b6H
	DW	083a9H
	DW	0837dH
	DW	083b8H
	DW	0837bH
	DW	08398H
	DW	0839eH
	DW	083a8H
	DW	083baH
	DW	083bcH
	DW	083c1H
	DW	08401H
	DW	083e5H
	DW	083d8H
	DW	05807H
	DW	08418H
	DW	0840bH
	DW	083ddH
	DW	083fdH
	DW	083d6H
	DW	0841cH
	DW	08438H
	DW	08411H
	DW	08406H
	DW	083d4H
	DW	083dfH
	DW	0840fH
	DW	08403H
	DW	083f8H
	DW	083f9H
	DW	083eaH
	DW	083c5H
	DW	083c0H
	DW	08426H
	DW	083f0H
	DW	083e1H
	DW	0845cH
	DW	08451H
	DW	0845aH
	DW	08459H
	DW	08473H
	DW	08487H
	DW	08488H
	DW	0847aH
	DW	08489H
	DW	08478H
	DW	0843cH
	DW	08446H
	DW	08469H
	DW	08476H
	DW	0848cH
	DW	0848eH
	DW	08431H
	DW	0846dH
	DW	084c1H
	DW	084cdH
	DW	084d0H
	DW	084e6H
	DW	084bdH
	DW	084d3H
	DW	084caH
	DW	084bfH
	DW	084baH
	DW	084e0H
	DW	084a1H
	DW	084b9H
	DW	084b4H
	DW	08497H
	DW	084e5H
	DW	084e3H
	DW	0850cH
	DW	0750dH
	DW	08538H
	DW	084f0H
	DW	08539H
	DW	0851fH
	DW	0853aH
	DW	08556H
	DW	0853bH
	DW	084ffH
	DW	084fcH
	DW	08559H
	DW	08548H
	DW	08568H
	DW	08564H
	DW	0855eH
	DW	0857aH
	DW	077a2H
	DW	08543H
	DW	08572H
	DW	0857bH
	DW	085a4H
	DW	085a8H
	DW	08587H
	DW	0858fH
	DW	08579H
	DW	085aeH
	DW	0859cH
	DW	08585H
	DW	085b9H
	DW	085b7H
	DW	085b0H
	DW	085d3H
	DW	085c1H
	DW	085dcH
	DW	085ffH
	DW	08627H
	DW	08605H
	DW	08629H
	DW	08616H
	DW	0863cH
	DW	05efeH
	DW	05f08H
	DW	0593cH
	DW	05941H
	DW	08037H
	DW	05955H
	DW	0595aH
	DW	05958H
	DW	0530fH
	DW	05c22H
	DW	05c25H
	DW	05c2cH
	DW	05c34H
	DW	0624cH
	DW	0626aH
	DW	0629fH
	DW	062bbH
	DW	062caH
	DW	062daH
	DW	062d7H
	DW	062eeH
	DW	06322H
	DW	062f6H
	DW	06339H
	DW	0634bH
	DW	06343H
	DW	063adH
	DW	063f6H
	DW	06371H
	DW	0637aH
	DW	0638eH
	DW	063b4H
	DW	0636dH
	DW	063acH
	DW	0638aH
	DW	06369H
	DW	063aeH
	DW	063bcH
	DW	063f2H
	DW	063f8H
	DW	063e0H
	DW	063ffH
	DW	063c4H
	DW	063deH
	DW	063ceH
	DW	06452H
	DW	063c6H
	DW	063beH
	DW	06445H
	DW	06441H
	DW	0640bH
	DW	0641bH
	DW	06420H
	DW	0640cH
	DW	06426H
	DW	06421H
	DW	0645eH
	DW	06484H
	DW	0646dH
	DW	06496H
	DW	0647aH
	DW	064b7H
	DW	064b8H
	DW	06499H
	DW	064baH
	DW	064c0H
	DW	064d0H
	DW	064d7H
	DW	064e4H
	DW	064e2H
	DW	06509H
	DW	06525H
	DW	0652eH
	DW	05f0bH
	DW	05fd2H
	DW	07519H
	DW	05f11H
	DW	0535fH
	DW	053f1H
	DW	053fdH
	DW	053e9H
	DW	053e8H
	DW	053fbH
	DW	05412H
	DW	05416H
	DW	05406H
	DW	0544bH
	DW	05452H
	DW	05453H
	DW	05454H
	DW	05456H
	DW	05443H
	DW	05421H
	DW	05457H
	DW	05459H
	DW	05423H
	DW	05432H
	DW	05482H
	DW	05494H
	DW	05477H
	DW	05471H
	DW	05464H
	DW	0549aH
	DW	0549bH
	DW	05484H
	DW	05476H
	DW	05466H
	DW	0549dH
	DW	054d0H
	DW	054adH
	DW	054c2H
	DW	054b4H
	DW	054d2H
	DW	054a7H
	DW	054a6H
	DW	054d3H
	DW	054d4H
	DW	05472H
	DW	054a3H
	DW	054d5H
	DW	054bbH
	DW	054bfH
	DW	054ccH
	DW	054d9H
	DW	054daH
	DW	054dcH
	DW	054a9H
	DW	054aaH
	DW	054a4H
	DW	054ddH
	DW	054cfH
	DW	054deH
	DW	0551bH
	DW	054e7H
	DW	05520H
	DW	054fdH
	DW	05514H
	DW	054f3H
	DW	05522H
	DW	05523H
	DW	0550fH
	DW	05511H
	DW	05527H
	DW	0552aH
	DW	05567H
	DW	0558fH
	DW	055b5H
	DW	05549H
	DW	0556dH
	DW	05541H
	DW	05555H
	DW	0553fH
	DW	05550H
	DW	0553cH
	DW	05537H
	DW	05556H
	DW	05575H
	DW	05576H
	DW	05577H
	DW	05533H
	DW	05530H
	DW	0555cH
	DW	0558bH
	DW	055d2H
	DW	05583H
	DW	055b1H
	DW	055b9H
	DW	05588H
	DW	05581H
	DW	0559fH
	DW	0557eH
	DW	055d6H
	DW	05591H
	DW	0557bH
	DW	055dfH
	DW	055bdH
	DW	055beH
	DW	05594H
	DW	05599H
	DW	055eaH
	DW	055f7H
	DW	055c9H
	DW	0561fH
	DW	055d1H
	DW	055ebH
	DW	055ecH
	DW	055d4H
	DW	055e6H
	DW	055ddH
	DW	055c4H
	DW	055efH
	DW	055e5H
	DW	055f2H
	DW	055f3H
	DW	055ccH
	DW	055cdH
	DW	055e8H
	DW	055f5H
	DW	055e4H
	DW	08f94H
	DW	0561eH
	DW	05608H
	DW	0560cH
	DW	05601H
	DW	05624H
	DW	05623H
	DW	055feH
	DW	05600H
	DW	05627H
	DW	0562dH
	DW	05658H
	DW	05639H
	DW	05657H
	DW	0562cH
	DW	0564dH
	DW	05662H
	DW	05659H
	DW	0565cH
	DW	0564cH
	DW	05654H
	DW	05686H
	DW	05664H
	DW	05671H
	DW	0566bH
	DW	0567bH
	DW	0567cH
	DW	05685H
	DW	05693H
	DW	056afH
	DW	056d4H
	DW	056d7H
	DW	056ddH
	DW	056e1H
	DW	056f5H
	DW	056ebH
	DW	056f9H
	DW	056ffH
	DW	05704H
	DW	0570aH
	DW	05709H
	DW	0571cH
	DW	05e0fH
	DW	05e19H
	DW	05e14H
	DW	05e11H
	DW	05e31H
	DW	05e3bH
	DW	05e3cH
	DW	05e37H
	DW	05e44H
	DW	05e54H
	DW	05e5bH
	DW	05e5eH
	DW	05e61H
	DW	05c8cH
	DW	05c7aH
	DW	05c8dH
	DW	05c90H
	DW	05c96H
	DW	05c88H
	DW	05c98H
	DW	05c99H
	DW	05c91H
	DW	05c9aH
	DW	05c9cH
	DW	05cb5H
	DW	05ca2H
	DW	05cbdH
	DW	05cacH
	DW	05cabH
	DW	05cb1H
	DW	05ca3H
	DW	05cc1H
	DW	05cb7H
	DW	05cc4H
	DW	05cd2H
	DW	05ce4H
	DW	05ccbH
	DW	05ce5H
	DW	05d02H
	DW	05d03H
	DW	05d27H
	DW	05d26H
	DW	05d2eH
	DW	05d24H
	DW	05d1eH
	DW	05d06H
	DW	05d1bH
	DW	05d58H
	DW	05d3eH
	DW	05d34H
	DW	05d3dH
	DW	05d6cH
	DW	05d5bH
	DW	05d6fH
	DW	05d5dH
	DW	05d6bH
	DW	05d4bH
	DW	05d4aH
	DW	05d69H
	DW	05d74H
	DW	05d82H
	DW	05d99H
	DW	05d9dH
	DW	08c73H
	DW	05db7H
	DW	05dc5H
	DW	05f73H
	DW	05f77H
	DW	05f82H
	DW	05f87H
	DW	05f89H
	DW	05f8cH
	DW	05f95H
	DW	05f99H
	DW	05f9cH
	DW	05fa8H
	DW	05fadH
	DW	05fb5H
	DW	05fbcH
	DW	08862H
	DW	05f61H
	DW	072adH
	DW	072b0H
	DW	072b4H
	DW	072b7H
	DW	072b8H
	DW	072c3H
	DW	072c1H
	DW	072ceH
	DW	072cdH
	DW	072d2H
	DW	072e8H
	DW	072efH
	DW	072e9H
	DW	072f2H
	DW	072f4H
	DW	072f7H
	DW	07301H
	DW	072f3H
	DW	07303H
	DW	072faH
	DW	072fbH
	DW	07317H
	DW	07313H
	DW	07321H
	DW	0730aH
	DW	0731eH
	DW	0731dH
	DW	07315H
	DW	07322H
	DW	07339H
	DW	07325H
	DW	0732cH
	DW	07338H
	DW	07331H
	DW	07350H
	DW	0734dH
	DW	07357H
	DW	07360H
	DW	0736cH
	DW	0736fH
	DW	0737eH
	DW	0821bH
	DW	05925H
	DW	098e7H
	DW	05924H
	DW	05902H
	DW	09963H
	DW	09967H
	DW	09968H
	DW	09969H
	DW	0996aH
	DW	0996bH
	DW	0996cH
	DW	09974H
	DW	09977H
	DW	0997dH
	DW	09980H
	DW	09984H
	DW	09987H
	DW	0998aH
	DW	0998dH
	DW	09990H
	DW	09991H
	DW	09993H
	DW	09994H
	DW	09995H
	DW	05e80H
	DW	05e91H
	DW	05e8bH
	DW	05e96H
	DW	05ea5H
	DW	05ea0H
	DW	05eb9H
	DW	05eb5H
	DW	05ebeH
	DW	05eb3H
	DW	08d53H
	DW	05ed2H
	DW	05ed1H
	DW	05edbH
	DW	05ee8H
	DW	05eeaH
	DW	081baH
	DW	05fc4H
	DW	05fc9H
	DW	05fd6H
	DW	05fcfH
	DW	06003H
	DW	05feeH
	DW	06004H
	DW	05fe1H
	DW	05fe4H
	DW	05ffeH
	DW	06005H
	DW	06006H
	DW	05feaH
	DW	05fedH
	DW	05ff8H
	DW	06019H
	DW	06035H
	DW	06026H
	DW	0601bH
	DW	0600fH
	DW	0600dH
	DW	06029H
	DW	0602bH
	DW	0600aH
	DW	0603fH
	DW	06021H
	DW	06078H
	DW	06079H
	DW	0607bH
	DW	0607aH
	DW	06042H
	DW	0606aH
	DW	0607dH
	DW	06096H
	DW	0609aH
	DW	060adH
	DW	0609dH
	DW	06083H
	DW	06092H
	DW	0608cH
	DW	0609bH
	DW	060ecH
	DW	060bbH
	DW	060b1H
	DW	060ddH
	DW	060d8H
	DW	060c6H
	DW	060daH
	DW	060b4H
	DW	06120H
	DW	06126H
	DW	06115H
	DW	06123H
	DW	060f4H
	DW	06100H
	DW	0610eH
	DW	0612bH
	DW	0614aH
	DW	06175H
	DW	061acH
	DW	06194H
	DW	061a7H
	DW	061b7H
	DW	061d4H
	DW	061f5H
	DW	05fddH
	DW	096b3H
	DW	095e9H
	DW	095ebH
	DW	095f1H
	DW	095f3H
	DW	095f5H
	DW	095f6H
	DW	095fcH
	DW	095feH
	DW	09603H
	DW	09604H
	DW	09606H
	DW	09608H
	DW	0960aH
	DW	0960bH
	DW	0960cH
	DW	0960dH
	DW	0960fH
	DW	09612H
	DW	09615H
	DW	09616H
	DW	09617H
	DW	09619H
	DW	0961aH
	DW	04e2cH
	DW	0723fH
	DW	06215H
	DW	06c35H
	DW	06c54H
	DW	06c5cH
	DW	06c4aH
	DW	06ca3H
	DW	06c85H
	DW	06c90H
	DW	06c94H
	DW	06c8cH
	DW	06c68H
	DW	06c69H
	DW	06c74H
	DW	06c76H
	DW	06c86H
	DW	06ca9H
	DW	06cd0H
	DW	06cd4H
	DW	06cadH
	DW	06cf7H
	DW	06cf8H
	DW	06cf1H
	DW	06cd7H
	DW	06cb2H
	DW	06ce0H
	DW	06cd6H
	DW	06cfaH
	DW	06cebH
	DW	06ceeH
	DW	06cb1H
	DW	06cd3H
	DW	06cefH
	DW	06cfeH
	DW	06d39H
	DW	06d27H
	DW	06d0cH
	DW	06d43H
	DW	06d48H
	DW	06d07H
	DW	06d04H
	DW	06d19H
	DW	06d0eH
	DW	06d2bH
	DW	06d4dH
	DW	06d2eH
	DW	06d35H
	DW	06d1aH
	DW	06d4fH
	DW	06d52H
	DW	06d54H
	DW	06d33H
	DW	06d91H
	DW	06d6fH
	DW	06d9eH
	DW	06da0H
	DW	06d5eH
	DW	06d93H
	DW	06d94H
	DW	06d5cH
	DW	06d60H
	DW	06d7cH
	DW	06d63H
	DW	06e1aH
	DW	06dc7H
	DW	06dc5H
	DW	06ddeH
	DW	06e0eH
	DW	06dbfH
	DW	06de0H
	DW	06e11H
	DW	06de6H
	DW	06dddH
	DW	06dd9H
	DW	06e16H
	DW	06dabH
	DW	06e0cH
	DW	06daeH
	DW	06e2bH
	DW	06e6eH
	DW	06e4eH
	DW	06e6bH
	DW	06eb2H
	DW	06e5fH
	DW	06e86H
	DW	06e53H
	DW	06e54H
	DW	06e32H
	DW	06e25H
	DW	06e44H
	DW	06edfH
	DW	06eb1H
	DW	06e98H
	DW	06ee0H
	DW	06f2dH
	DW	06ee2H
	DW	06ea5H
	DW	06ea7H
	DW	06ebdH
	DW	06ebbH
	DW	06eb7H
	DW	06ed7H
	DW	06eb4H
	DW	06ecfH
	DW	06e8fH
	DW	06ec2H
	DW	06e9fH
	DW	06f62H
	DW	06f46H
	DW	06f47H
	DW	06f24H
	DW	06f15H
	DW	06ef9H
	DW	06f2fH
	DW	06f36H
	DW	06f4bH
	DW	06f74H
	DW	06f2aH
	DW	06f09H
	DW	06f29H
	DW	06f89H
	DW	06f8dH
	DW	06f8cH
	DW	06f78H
	DW	06f72H
	DW	06f7cH
	DW	06f7aH
	DW	06fd1H
	DW	06fc9H
	DW	06fa7H
	DW	06fb9H
	DW	06fb6H
	DW	06fc2H
	DW	06fe1H
	DW	06feeH
	DW	06fdeH
	DW	06fe0H
	DW	06fefH
	DW	0701aH
	DW	07023H
	DW	0701bH
	DW	07039H
	DW	07035H
	DW	0704fH
	DW	0705eH
	DW	05b80H
	DW	05b84H
	DW	05b95H
	DW	05b93H
	DW	05ba5H
	DW	05bb8H
	DW	0752fH
	DW	09a9eH
	DW	06434H
	DW	05be4H
	DW	05beeH
	DW	08930H
	DW	05bf0H
	DW	08e47H
	DW	08b07H
	DW	08fb6H
	DW	08fd3H
	DW	08fd5H
	DW	08fe5H
	DW	08feeH
	DW	08fe4H
	DW	08fe9H
	DW	08fe6H
	DW	08ff3H
	DW	08fe8H
	DW	09005H
	DW	09004H
	DW	0900bH
	DW	09026H
	DW	09011H
	DW	0900dH
	DW	09016H
	DW	09021H
	DW	09035H
	DW	09036H
	DW	0902dH
	DW	0902fH
	DW	09044H
	DW	09051H
	DW	09052H
	DW	09050H
	DW	09068H
	DW	09058H
	DW	09062H
	DW	0905bH
	DW	066b9H
	DW	09074H
	DW	0907dH
	DW	09082H
	DW	09088H
	DW	09083H
	DW	0908bH
	DW	05f50H
	DW	05f57H
	DW	05f56H
	DW	05f58H
	DW	05c3bH
	DW	054abH
	DW	05c50H
	DW	05c59H
	DW	05b71H
	DW	05c63H
	DW	05c66H
	DW	07fbcH
	DW	05f2aH
	DW	05f29H
	DW	05f2dH
	DW	08274H
	DW	05f3cH
	DW	09b3bH
	DW	05c6eH
	DW	05981H
	DW	05983H
	DW	0598dH
	DW	059a9H
	DW	059aaH
	DW	059a3H
	DW	05997H
	DW	059caH
	DW	059abH
	DW	0599eH
	DW	059a4H
	DW	059d2H
	DW	059b2H
	DW	059afH
	DW	059d7H
	DW	059beH
	DW	05a05H
	DW	05a06H
	DW	059ddH
	DW	05a08H
	DW	059e3H
	DW	059d8H
	DW	059f9H
	DW	05a0cH
	DW	05a09H
	DW	05a32H
	DW	05a34H
	DW	05a11H
	DW	05a23H
	DW	05a13H
	DW	05a40H
	DW	05a67H
	DW	05a4aH
	DW	05a55H
	DW	05a3cH
	DW	05a62H
	DW	05a75H
	DW	080ecH
	DW	05aaaH
	DW	05a9bH
	DW	05a77H
	DW	05a7aH
	DW	05abeH
	DW	05aebH
	DW	05ab2H
	DW	05ad2H
	DW	05ad4H
	DW	05ab8H
	DW	05ae0H
	DW	05ae3H
	DW	05af1H
	DW	05ad6H
	DW	05ae6H
	DW	05ad8H
	DW	05adcH
	DW	05b09H
	DW	05b17H
	DW	05b16H
	DW	05b32H
	DW	05b37H
	DW	05b40H
	DW	05c15H
	DW	05c1cH
	DW	05b5aH
	DW	05b65H
	DW	05b73H
	DW	05b51H
	DW	05b53H
	DW	05b62H
	DW	09a75H
	DW	09a77H
	DW	09a78H
	DW	09a7aH
	DW	09a7fH
	DW	09a7dH
	DW	09a80H
	DW	09a81H
	DW	09a85H
	DW	09a88H
	DW	09a8aH
	DW	09a90H
	DW	09a92H
	DW	09a93H
	DW	09a96H
	DW	09a98H
	DW	09a9bH
	DW	09a9cH
	DW	09a9dH
	DW	09a9fH
	DW	09aa0H
	DW	09aa2H
	DW	09aa3H
	DW	09aa5H
	DW	09aa7H
	DW	07e9fH
	DW	07ea1H
	DW	07ea3H
	DW	07ea5H
	DW	07ea8H
	DW	07ea9H
	DW	07eadH
	DW	07eb0H
	DW	07ebeH
	DW	07ec0H
	DW	07ec1H
	DW	07ec2H
	DW	07ec9H
	DW	07ecbH
	DW	07eccH
	DW	07ed0H
	DW	07ed4H
	DW	07ed7H
	DW	07edbH
	DW	07ee0H
	DW	07ee1H
	DW	07ee8H
	DW	07eebH
	DW	07eeeH
	DW	07eefH
	DW	07ef1H
	DW	07ef2H
	DW	07f0dH
	DW	07ef6H
	DW	07efaH
	DW	07efbH
	DW	07efeH
	DW	07f01H
	DW	07f02H
	DW	07f03H
	DW	07f07H
	DW	07f08H
	DW	07f0bH
	DW	07f0cH
	DW	07f0fH
	DW	07f11H
	DW	07f12H
	DW	07f17H
	DW	07f19H
	DW	07f1cH
	DW	07f1bH
	DW	07f1fH
	DW	07f21H
	DW	07f22H
	DW	07f23H
	DW	07f24H
	DW	07f25H
	DW	07f26H
	DW	07f27H
	DW	07f2aH
	DW	07f2bH
	DW	07f2cH
	DW	07f2dH
	DW	07f2fH
	DW	07f30H
	DW	07f31H
	DW	07f32H
	DW	07f33H
	DW	07f35H
	DW	05e7aH
	DW	0757fH
	DW	05ddbH
	DW	0753eH
	DW	09095H
	DW	0738eH
	DW	07391H
	DW	073aeH
	DW	073a2H
	DW	0739fH
	DW	073cfH
	DW	073c2H
	DW	073d1H
	DW	073b7H
	DW	073b3H
	DW	073c0H
	DW	073c9H
	DW	073c8H
	DW	073e5H
	DW	073d9H
	DW	0987cH
	DW	0740aH
	DW	073e9H
	DW	073e7H
	DW	073deH
	DW	073baH
	DW	073f2H
	DW	0740fH
	DW	0742aH
	DW	0745bH
	DW	07426H
	DW	07425H
	DW	07428H
	DW	07430H
	DW	0742eH
	DW	0742cH
	DW	0741bH
	DW	0741aH
	DW	07441H
	DW	0745cH
	DW	07457H
	DW	07455H
	DW	07459H
	DW	07477H
	DW	0746dH
	DW	0747eH
	DW	0749cH
	DW	0748eH
	DW	07480H
	DW	07481H
	DW	07487H
	DW	0748bH
	DW	0749eH
	DW	074a8H
	DW	074a9H
	DW	07490H
	DW	074a7H
	DW	074d2H
	DW	074baH
	DW	097eaH
	DW	097ebH
	DW	097ecH
	DW	0674cH
	DW	06753H
	DW	0675eH
	DW	06748H
	DW	06769H
	DW	067a5H
	DW	06787H
	DW	0676aH
	DW	06773H
	DW	06798H
	DW	067a7H
	DW	06775H
	DW	067a8H
	DW	0679eH
	DW	067adH
	DW	0678bH
	DW	06777H
	DW	0677cH
	DW	067f0H
	DW	06809H
	DW	067d8H
	DW	0680aH
	DW	067e9H
	DW	067b0H
	DW	0680cH
	DW	067d9H
	DW	067b5H
	DW	067daH
	DW	067b3H
	DW	067ddH
	DW	06800H
	DW	067c3H
	DW	067b8H
	DW	067e2H
	DW	0680eH
	DW	067c1H
	DW	067fdH
	DW	06832H
	DW	06833H
	DW	06860H
	DW	06861H
	DW	0684eH
	DW	06862H
	DW	06844H
	DW	06864H
	DW	06883H
	DW	0681dH
	DW	06855H
	DW	06866H
	DW	06841H
	DW	06867H
	DW	06840H
	DW	0683eH
	DW	0684aH
	DW	06849H
	DW	06829H
	DW	068b5H
	DW	0688fH
	DW	06874H
	DW	06877H
	DW	06893H
	DW	0686bH
	DW	068c2H
	DW	0696eH
	DW	068fcH
	DW	0691fH
	DW	06920H
	DW	068f9H
	DW	06924H
	DW	068f0H
	DW	0690bH
	DW	06901H
	DW	06957H
	DW	068e3H
	DW	06910H
	DW	06971H
	DW	06939H
	DW	06960H
	DW	06942H
	DW	0695dH
	DW	06984H
	DW	0696bH
	DW	06980H
	DW	06998H
	DW	06978H
	DW	06934H
	DW	069ccH
	DW	06987H
	DW	06988H
	DW	069ceH
	DW	06989H
	DW	06966H
	DW	06963H
	DW	06979H
	DW	0699bH
	DW	069a7H
	DW	069bbH
	DW	069abH
	DW	069adH
	DW	069d4H
	DW	069b1H
	DW	069c1H
	DW	069caH
	DW	069dfH
	DW	06995H
	DW	069e0H
	DW	0698dH
	DW	069ffH
	DW	06a2fH
	DW	069edH
	DW	06a17H
	DW	06a18H
	DW	06a65H
	DW	069f2H
	DW	06a44H
	DW	06a3eH
	DW	06aa0H
	DW	06a50H
	DW	06a5bH
	DW	06a35H
	DW	06a8eH
	DW	06a79H
	DW	06a3dH
	DW	06a28H
	DW	06a58H
	DW	06a7cH
	DW	06a91H
	DW	06a90H
	DW	06aa9H
	DW	06a97H
	DW	06aabH
	DW	07337H
	DW	07352H
	DW	06b81H
	DW	06b82H
	DW	06b87H
	DW	06b84H
	DW	06b92H
	DW	06b93H
	DW	06b8dH
	DW	06b9aH
	DW	06b9bH
	DW	06ba1H
	DW	06baaH
	DW	08f6bH
	DW	08f6dH
	DW	08f71H
	DW	08f72H
	DW	08f73H
	DW	08f75H
	DW	08f76H
	DW	08f78H
	DW	08f77H
	DW	08f79H
	DW	08f7aH
	DW	08f7cH
	DW	08f7eH
	DW	08f81H
	DW	08f82H
	DW	08f84H
	DW	08f87H
	DW	08f8bH
	DW	08f8dH
	DW	08f8eH
	DW	08f8fH
	DW	08f98H
	DW	08f9aH
	DW	08eceH
	DW	0620bH
	DW	06217H
	DW	0621bH
	DW	0621fH
	DW	06222H
	DW	06221H
	DW	06225H
	DW	06224H
	DW	0622cH
	DW	081e7H
	DW	074efH
	DW	074f4H
	DW	074ffH
	DW	0750fH
	DW	07511H
	DW	07513H
	DW	06534H
	DW	065eeH
	DW	065efH
	DW	065f0H
	DW	0660aH
	DW	06619H
	DW	06772H
	DW	06603H
	DW	06615H
	DW	06600H
	DW	07085H
	DW	066f7H
	DW	0661dH
	DW	06634H
	DW	06631H
	DW	06636H
	DW	06635H
	DW	08006H
	DW	0665fH
	DW	06654H
	DW	06641H
	DW	0664fH
	DW	06656H
	DW	06661H
	DW	06657H
	DW	06677H
	DW	06684H
	DW	0668cH
	DW	066a7H
	DW	0669dH
	DW	066beH
	DW	066dbH
	DW	066dcH
	DW	066e6H
	DW	066e9H
	DW	08d32H
	DW	08d33H
	DW	08d36H
	DW	08d3bH
	DW	08d3dH
	DW	08d40H
	DW	08d45H
	DW	08d46H
	DW	08d48H
	DW	08d49H
	DW	08d47H
	DW	08d4dH
	DW	08d55H
	DW	08d59H
	DW	089c7H
	DW	089caH
	DW	089cbH
	DW	089ccH
	DW	089ceH
	DW	089cfH
	DW	089d0H
	DW	089d1H
	DW	0726eH
	DW	0729fH
	DW	0725dH
	DW	07266H
	DW	0726fH
	DW	0727eH
	DW	0727fH
	DW	07284H
	DW	0728bH
	DW	0728dH
	DW	0728fH
	DW	07292H
	DW	06308H
	DW	06332H
	DW	063b0H
	DW	0643fH
	DW	064d8H
	DW	08004H
	DW	06beaH
	DW	06bf3H
	DW	06bfdH
	DW	06bf5H
	DW	06bf9H
	DW	06c05H
	DW	06c07H
	DW	06c06H
	DW	06c0dH
	DW	06c15H
	DW	06c18H
	DW	06c19H
	DW	06c1aH
	DW	06c21H
	DW	06c29H
	DW	06c24H
	DW	06c2aH
	DW	06c32H
	DW	06535H
	DW	06555H
	DW	0656bH
	DW	0724dH
	DW	07252H
	DW	07256H
	DW	07230H
	DW	08662H
	DW	05216H
	DW	0809fH
	DW	0809cH
	DW	08093H
	DW	080bcH
	DW	0670aH
	DW	080bdH
	DW	080b1H
	DW	080abH
	DW	080adH
	DW	080b4H
	DW	080b7H
	DW	080e7H
	DW	080e8H
	DW	080e9H
	DW	080eaH
	DW	080dbH
	DW	080c2H
	DW	080c4H
	DW	080d9H
	DW	080cdH
	DW	080d7H
	DW	06710H
	DW	080ddH
	DW	080ebH
	DW	080f1H
	DW	080f4H
	DW	080edH
	DW	0810dH
	DW	0810eH
	DW	080f2H
	DW	080fcH
	DW	06715H
	DW	08112H
	DW	08c5aH
	DW	08136H
	DW	0811eH
	DW	0812cH
	DW	08118H
	DW	08132H
	DW	08148H
	DW	0814cH
	DW	08153H
	DW	08174H
	DW	08159H
	DW	0815aH
	DW	08171H
	DW	08160H
	DW	08169H
	DW	0817cH
	DW	0817dH
	DW	0816dH
	DW	08167H
	DW	0584dH
	DW	05ab5H
	DW	08188H
	DW	08182H
	DW	08191H
	DW	06ed5H
	DW	081a3H
	DW	081aaH
	DW	081ccH
	DW	06726H
	DW	081caH
	DW	081bbH
	DW	081c1H
	DW	081a6H
	DW	06b24H
	DW	06b37H
	DW	06b39H
	DW	06b43H
	DW	06b46H
	DW	06b59H
	DW	098d1H
	DW	098d2H
	DW	098d3H
	DW	098d5H
	DW	098d9H
	DW	098daH
	DW	06bb3H
	DW	05f40H
	DW	06bc2H
	DW	089f3H
	DW	06590H
	DW	09f51H
	DW	06593H
	DW	065bcH
	DW	065c6H
	DW	065c4H
	DW	065c3H
	DW	065ccH
	DW	065ceH
	DW	065d2H
	DW	065d6H
	DW	07080H
	DW	0709cH
	DW	07096H
	DW	0709dH
	DW	070bbH
	DW	070c0H
	DW	070b7H
	DW	070abH
	DW	070b1H
	DW	070e8H
	DW	070caH
	DW	07110H
	DW	07113H
	DW	07116H
	DW	0712fH
	DW	07131H
	DW	07173H
	DW	0715cH
	DW	07168H
	DW	07145H
	DW	07172H
	DW	0714aH
	DW	07178H
	DW	0717aH
	DW	07198H
	DW	071b3H
	DW	071b5H
	DW	071a8H
	DW	071a0H
	DW	071e0H
	DW	071d4H
	DW	071e7H
	DW	071f9H
	DW	0721dH
	DW	07228H
	DW	0706cH
	DW	07118H
	DW	07166H
	DW	071b9H
	DW	0623eH
	DW	0623dH
	DW	06243H
	DW	06248H
	DW	06249H
	DW	0793bH
	DW	07940H
	DW	07946H
	DW	07949H
	DW	0795bH
	DW	0795cH
	DW	07953H
	DW	0795aH
	DW	07962H
	DW	07957H
	DW	07960H
	DW	0796fH
	DW	07967H
	DW	0797aH
	DW	07985H
	DW	0798aH
	DW	0799aH
	DW	079a7H
	DW	079b3H
	DW	05fd1H
	DW	05fd0H
	DW	0603cH
	DW	0605dH
	DW	0605aH
	DW	06067H
	DW	06041H
	DW	06059H
	DW	06063H
	DW	060abH
	DW	06106H
	DW	0610dH
	DW	0615dH
	DW	061a9H
	DW	0619dH
	DW	061cbH
	DW	061d1H
	DW	06206H
	DW	08080H
	DW	0807fH
	DW	06c93H
	DW	06cf6H
	DW	06dfcH
	DW	077f6H
	DW	077f8H
	DW	07800H
	DW	07809H
	DW	07817H
	DW	07818H
	DW	07811H
	DW	065abH
	DW	0782dH
	DW	0781cH
	DW	0781dH
	DW	07839H
	DW	0783aH
	DW	0783bH
	DW	0781fH
	DW	0783cH
	DW	07825H
	DW	0782cH
	DW	07823H
	DW	07829H
	DW	0784eH
	DW	0786dH
	DW	07856H
	DW	07857H
	DW	07826H
	DW	07850H
	DW	07847H
	DW	0784cH
	DW	0786aH
	DW	0789bH
	DW	07893H
	DW	0789aH
	DW	07887H
	DW	0789cH
	DW	078a1H
	DW	078a3H
	DW	078b2H
	DW	078b9H
	DW	078a5H
	DW	078d4H
	DW	078d9H
	DW	078c9H
	DW	078ecH
	DW	078f2H
	DW	07905H
	DW	078f4H
	DW	07913H
	DW	07924H
	DW	0791eH
	DW	07934H
	DW	09f9bH
	DW	09ef9H
	DW	09efbH
	DW	09efcH
	DW	076f1H
	DW	07704H
	DW	0770dH
	DW	076f9H
	DW	07707H
	DW	07708H
	DW	0771aH
	DW	07722H
	DW	07719H
	DW	0772dH
	DW	07726H
	DW	07735H
	DW	07738H
	DW	07750H
	DW	07751H
	DW	07747H
	DW	07743H
	DW	0775aH
	DW	07768H
	DW	07762H
	DW	07765H
	DW	0777fH
	DW	0778dH
	DW	0777dH
	DW	07780H
	DW	0778cH
	DW	07791H
	DW	0779fH
	DW	077a0H
	DW	077b0H
	DW	077b5H
	DW	077bdH
	DW	0753aH
	DW	07540H
	DW	0754eH
	DW	0754bH
	DW	07548H
	DW	0755bH
	DW	07572H
	DW	07579H
	DW	07583H
	DW	07f58H
	DW	07f61H
	DW	07f5fH
	DW	08a48H
	DW	07f68H
	DW	07f74H
	DW	07f71H
	DW	07f79H
	DW	07f81H
	DW	07f7eH
	DW	076cdH
	DW	076e5H
	DW	08832H
	DW	09485H
	DW	09486H
	DW	09487H
	DW	0948bH
	DW	0948aH
	DW	0948cH
	DW	0948dH
	DW	0948fH
	DW	09490H
	DW	09494H
	DW	09497H
	DW	09495H
	DW	0949aH
	DW	0949bH
	DW	0949cH
	DW	094a3H
	DW	094a4H
	DW	094abH
	DW	094aaH
	DW	094adH
	DW	094acH
	DW	094afH
	DW	094b0H
	DW	094b2H
	DW	094b4H
	DW	094b6H
	DW	094b7H
	DW	094b8H
	DW	094b9H
	DW	094baH
	DW	094bcH
	DW	094bdH
	DW	094bfH
	DW	094c4H
	DW	094c8H
	DW	094c9H
	DW	094caH
	DW	094cbH
	DW	094ccH
	DW	094cdH
	DW	094ceH
	DW	094d0H
	DW	094d1H
	DW	094d2H
	DW	094d5H
	DW	094d6H
	DW	094d7H
	DW	094d9H
	DW	094d8H
	DW	094dbH
	DW	094deH
	DW	094dfH
	DW	094e0H
	DW	094e2H
	DW	094e4H
	DW	094e5H
	DW	094e7H
	DW	094e8H
	DW	094eaH
	DW	094e9H
	DW	094ebH
	DW	094eeH
	DW	094efH
	DW	094f3H
	DW	094f4H
	DW	094f5H
	DW	094f7H
	DW	094f9H
	DW	094fcH
	DW	094fdH
	DW	094ffH
	DW	09503H
	DW	09502H
	DW	09506H
	DW	09507H
	DW	09509H
	DW	0950aH
	DW	0950dH
	DW	0950eH
	DW	0950fH
	DW	09512H
	DW	09513H
	DW	09514H
	DW	09515H
	DW	09516H
	DW	09518H
	DW	0951bH
	DW	0951dH
	DW	0951eH
	DW	0951fH
	DW	09522H
	DW	0952aH
	DW	0952bH
	DW	09529H
	DW	0952cH
	DW	09531H
	DW	09532H
	DW	09534H
	DW	09536H
	DW	09537H
	DW	09538H
	DW	0953cH
	DW	0953eH
	DW	0953fH
	DW	09542H
	DW	09535H
	DW	09544H
	DW	09545H
	DW	09546H
	DW	09549H
	DW	0954cH
	DW	0954eH
	DW	0954fH
	DW	09552H
	DW	09553H
	DW	09554H
	DW	09556H
	DW	09557H
	DW	09558H
	DW	09559H
	DW	0955bH
	DW	0955eH
	DW	0955fH
	DW	0955dH
	DW	09561H
	DW	09562H
	DW	09564H
	DW	09565H
	DW	09566H
	DW	09567H
	DW	09568H
	DW	09569H
	DW	0956aH
	DW	0956bH
	DW	0956cH
	DW	0956fH
	DW	09571H
	DW	09572H
	DW	09573H
	DW	0953aH
	DW	077e7H
	DW	077ecH
	DW	096c9H
	DW	079d5H
	DW	079edH
	DW	079e3H
	DW	079ebH
	DW	07a06H
	DW	05d47H
	DW	07a03H
	DW	07a02H
	DW	07a1eH
	DW	07a14H
	DW	07a39H
	DW	07a37H
	DW	07a51H
	DW	09ecfH
	DW	099a5H
	DW	07a70H
	DW	07688H
	DW	0768eH
	DW	07693H
	DW	07699H
	DW	076a4H
	DW	074deH
	DW	074e0H
	DW	0752cH
	DW	09e20H
	DW	09e22H
	DW	09e28H
	DW	09e29H
	DW	09e2aH
	DW	09e2bH
	DW	09e2cH
	DW	09e32H
	DW	09e31H
	DW	09e36H
	DW	09e38H
	DW	09e37H
	DW	09e39H
	DW	09e3aH
	DW	09e3eH
	DW	09e41H
	DW	09e42H
	DW	09e44H
	DW	09e46H
	DW	09e47H
	DW	09e48H
	DW	09e49H
	DW	09e4bH
	DW	09e4cH
	DW	09e4eH
	DW	09e51H
	DW	09e55H
	DW	09e57H
	DW	09e5aH
	DW	09e5bH
	DW	09e5cH
	DW	09e5eH
	DW	09e63H
	DW	09e66H
	DW	09e67H
	DW	09e68H
	DW	09e69H
	DW	09e6aH
	DW	09e6bH
	DW	09e6cH
	DW	09e71H
	DW	09e6dH
	DW	09e73H
	DW	07592H
	DW	07594H
	DW	07596H
	DW	075a0H
	DW	0759dH
	DW	075acH
	DW	075a3H
	DW	075b3H
	DW	075b4H
	DW	075b8H
	DW	075c4H
	DW	075b1H
	DW	075b0H
	DW	075c3H
	DW	075c2H
	DW	075d6H
	DW	075cdH
	DW	075e3H
	DW	075e8H
	DW	075e6H
	DW	075e4H
	DW	075ebH
	DW	075e7H
	DW	07603H
	DW	075f1H
	DW	075fcH
	DW	075ffH
	DW	07610H
	DW	07600H
	DW	07605H
	DW	0760cH
	DW	07617H
	DW	0760aH
	DW	07625H
	DW	07618H
	DW	07615H
	DW	07619H
	DW	0761bH
	DW	0763cH
	DW	07622H
	DW	07620H
	DW	07640H
	DW	0762dH
	DW	07630H
	DW	0763fH
	DW	07635H
	DW	07643H
	DW	0763eH
	DW	07633H
	DW	0764dH
	DW	0765eH
	DW	07654H
	DW	0765cH
	DW	07656H
	DW	0766bH
	DW	0766fH
	DW	07fcaH
	DW	07ae6H
	DW	07a78H
	DW	07a79H
	DW	07a80H
	DW	07a86H
	DW	07a88H
	DW	07a95H
	DW	07aa6H
	DW	07aa0H
	DW	07aacH
	DW	07aa8H
	DW	07aadH
	DW	07ab3H
	DW	08864H
	DW	08869H
	DW	08872H
	DW	0887dH
	DW	0887fH
	DW	08882H
	DW	088a2H
	DW	088c6H
	DW	088b7H
	DW	088bcH
	DW	088c9H
	DW	088e2H
	DW	088ceH
	DW	088e3H
	DW	088e5H
	DW	088f1H
	DW	0891aH
	DW	088fcH
	DW	088e8H
	DW	088feH
	DW	088f0H
	DW	08921H
	DW	08919H
	DW	08913H
	DW	0891bH
	DW	0890aH
	DW	08934H
	DW	0892bH
	DW	08936H
	DW	08941H
	DW	08966H
	DW	0897bH
	DW	0758bH
	DW	080e5H
	DW	076b2H
	DW	076b4H
	DW	077dcH
	DW	08012H
	DW	08014H
	DW	08016H
	DW	0801cH
	DW	08020H
	DW	08022H
	DW	08025H
	DW	08026H
	DW	08027H
	DW	08029H
	DW	08028H
	DW	08031H
	DW	0800bH
	DW	08035H
	DW	08043H
	DW	08046H
	DW	0804dH
	DW	08052H
	DW	08069H
	DW	08071H
	DW	08983H
	DW	09878H
	DW	09880H
	DW	09883H
	DW	09889H
	DW	0988cH
	DW	0988dH
	DW	0988fH
	DW	09894H
	DW	0989aH
	DW	0989bH
	DW	0989eH
	DW	0989fH
	DW	098a1H
	DW	098a2H
	DW	098a5H
	DW	098a6H
	DW	0864dH
	DW	08654H
	DW	0866cH
	DW	0866eH
	DW	0867fH
	DW	0867aH
	DW	0867cH
	DW	0867bH
	DW	086a8H
	DW	0868dH
	DW	0868bH
	DW	086acH
	DW	0869dH
	DW	086a7H
	DW	086a3H
	DW	086aaH
	DW	08693H
	DW	086a9H
	DW	086b6H
	DW	086c4H
	DW	086b5H
	DW	086ceH
	DW	086b0H
	DW	086baH
	DW	086b1H
	DW	086afH
	DW	086c9H
	DW	086cfH
	DW	086b4H
	DW	086e9H
	DW	086f1H
	DW	086f2H
	DW	086edH
	DW	086f3H
	DW	086d0H
	DW	08713H
	DW	086deH
	DW	086f4H
	DW	086dfH
	DW	086d8H
	DW	086d1H
	DW	08703H
	DW	08707H
	DW	086f8H
	DW	08708H
	DW	0870aH
	DW	0870dH
	DW	08709H
	DW	08723H
	DW	0873bH
	DW	0871eH
	DW	08725H
	DW	0872eH
	DW	0871aH
	DW	0873eH
	DW	08748H
	DW	08734H
	DW	08731H
	DW	08729H
	DW	08737H
	DW	0873fH
	DW	08782H
	DW	08722H
	DW	0877dH
	DW	0877eH
	DW	0877bH
	DW	08760H
	DW	08770H
	DW	0874cH
	DW	0876eH
	DW	0878bH
	DW	08753H
	DW	08763H
	DW	0877cH
	DW	08764H
	DW	08759H
	DW	08765H
	DW	08793H
	DW	087afH
	DW	087a8H
	DW	087d2H
	DW	087c6H
	DW	08788H
	DW	08785H
	DW	087adH
	DW	08797H
	DW	08783H
	DW	087abH
	DW	087e5H
	DW	087acH
	DW	087b5H
	DW	087b3H
	DW	087cbH
	DW	087d3H
	DW	087bdH
	DW	087d1H
	DW	087c0H
	DW	087caH
	DW	087dbH
	DW	087eaH
	DW	087e0H
	DW	087eeH
	DW	08816H
	DW	08813H
	DW	087feH
	DW	0880aH
	DW	0881bH
	DW	08821H
	DW	08839H
	DW	0883cH
	DW	07f36H
	DW	07f42H
	DW	07f44H
	DW	07f45H
	DW	08210H
	DW	07afaH
	DW	07afdH
	DW	07b08H
	DW	07b03H
	DW	07b04H
	DW	07b15H
	DW	07b0aH
	DW	07b2bH
	DW	07b0fH
	DW	07b47H
	DW	07b38H
	DW	07b2aH
	DW	07b19H
	DW	07b2eH
	DW	07b31H
	DW	07b20H
	DW	07b25H
	DW	07b24H
	DW	07b33H
	DW	07b3eH
	DW	07b1eH
	DW	07b58H
	DW	07b5aH
	DW	07b45H
	DW	07b75H
	DW	07b4cH
	DW	07b5dH
	DW	07b60H
	DW	07b6eH
	DW	07b7bH
	DW	07b62H
	DW	07b72H
	DW	07b71H
	DW	07b90H
	DW	07ba6H
	DW	07ba7H
	DW	07bb8H
	DW	07bacH
	DW	07b9dH
	DW	07ba8H
	DW	07b85H
	DW	07baaH
	DW	07b9cH
	DW	07ba2H
	DW	07babH
	DW	07bb4H
	DW	07bd1H
	DW	07bc1H
	DW	07bccH
	DW	07bddH
	DW	07bdaH
	DW	07be5H
	DW	07be6H
	DW	07beaH
	DW	07c0cH
	DW	07bfeH
	DW	07bfcH
	DW	07c0fH
	DW	07c16H
	DW	07c0bH
	DW	07c1fH
	DW	07c2aH
	DW	07c26H
	DW	07c38H
	DW	07c41H
	DW	07c40H
	DW	081feH
	DW	08201H
	DW	08202H
	DW	08204H
	DW	081ecH
	DW	08844H
	DW	08221H
	DW	08222H
	DW	08223H
	DW	0822dH
	DW	0822fH
	DW	08228H
	DW	0822bH
	DW	08238H
	DW	0823bH
	DW	08233H
	DW	08234H
	DW	0823eH
	DW	08244H
	DW	08249H
	DW	0824bH
	DW	0824fH
	DW	0825aH
	DW	0825fH
	DW	08268H
	DW	0887eH
	DW	08885H
	DW	08888H
	DW	088d8H
	DW	088dfH
	DW	0895eH
	DW	07f9dH
	DW	07f9fH
	DW	07fa7H
	DW	07fafH
	DW	07fb0H
	DW	07fb2H
	DW	07c7cH
	DW	06549H
	DW	07c91H
	DW	07c9dH
	DW	07c9cH
	DW	07c9eH
	DW	07ca2H
	DW	07cb2H
	DW	07cbcH
	DW	07cbdH
	DW	07cc1H
	DW	07cc7H
	DW	07cccH
	DW	07ccdH
	DW	07cc8H
	DW	07cc5H
	DW	07cd7H
	DW	07ce8H
	DW	0826eH
	DW	066a8H
	DW	07fbfH
	DW	07fceH
	DW	07fd5H
	DW	07fe5H
	DW	07fe1H
	DW	07fe6H
	DW	07fe9H
	DW	07feeH
	DW	07ff3H
	DW	07cf8H
	DW	07d77H
	DW	07da6H
	DW	07daeH
	DW	07e47H
	DW	07e9bH
	DW	09eb8H
	DW	09eb4H
	DW	08d73H
	DW	08d84H
	DW	08d94H
	DW	08d91H
	DW	08db1H
	DW	08d67H
	DW	08d6dH
	DW	08c47H
	DW	08c49H
	DW	0914aH
	DW	09150H
	DW	0914eH
	DW	0914fH
	DW	09164H
	DW	09162H
	DW	09161H
	DW	09170H
	DW	09169H
	DW	0916fH
	DW	0917dH
	DW	0917eH
	DW	09172H
	DW	09174H
	DW	09179H
	DW	0918cH
	DW	09185H
	DW	09190H
	DW	0918dH
	DW	09191H
	DW	091a2H
	DW	091a3H
	DW	091aaH
	DW	091adH
	DW	091aeH
	DW	091afH
	DW	091b5H
	DW	091b4H
	DW	091baH
	DW	08c55H
	DW	09e7eH
	DW	08db8H
	DW	08debH
	DW	08e05H
	DW	08e59H
	DW	08e69H
	DW	08db5H
	DW	08dbfH
	DW	08dbcH
	DW	08dbaH
	DW	08dc4H
	DW	08dd6H
	DW	08dd7H
	DW	08ddaH
	DW	08ddeH
	DW	08dceH
	DW	08dcfH
	DW	08ddbH
	DW	08dc6H
	DW	08decH
	DW	08df7H
	DW	08df8H
	DW	08de3H
	DW	08df9H
	DW	08dfbH
	DW	08de4H
	DW	08e09H
	DW	08dfdH
	DW	08e14H
	DW	08e1dH
	DW	08e1fH
	DW	08e2cH
	DW	08e2eH
	DW	08e23H
	DW	08e2fH
	DW	08e3aH
	DW	08e40H
	DW	08e39H
	DW	08e35H
	DW	08e3dH
	DW	08e31H
	DW	08e49H
	DW	08e41H
	DW	08e42H
	DW	08e51H
	DW	08e52H
	DW	08e4aH
	DW	08e70H
	DW	08e76H
	DW	08e7cH
	DW	08e6fH
	DW	08e74H
	DW	08e85H
	DW	08e8fH
	DW	08e94H
	DW	08e90H
	DW	08e9cH
	DW	08e9eH
	DW	08c78H
	DW	08c82H
	DW	08c8aH
	DW	08c85H
	DW	08c98H
	DW	08c94H
	DW	0659bH
	DW	089d6H
	DW	089deH
	DW	089daH
	DW	089dcH
	DW	089e5H
	DW	089ebH
	DW	089efH
	DW	08a3eH
	DW	08b26H
	DW	09753H
	DW	096e9H
	DW	096f3H
	DW	096efH
	DW	09706H
	DW	09701H
	DW	09708H
	DW	0970fH
	DW	0970eH
	DW	0972aH
	DW	0972dH
	DW	09730H
	DW	0973eH
	DW	09f80H
	DW	09f83H
	DW	09f85H
	DW	09f86H
	DW	09f87H
	DW	09f88H
	DW	09f89H
	DW	09f8aH
	DW	09f8cH
	DW	09efeH
	DW	09f0bH
	DW	09f0dH
	DW	096b9H
	DW	096bcH
	DW	096bdH
	DW	096ceH
	DW	096d2H
	DW	077bfH
	DW	096e0H
	DW	0928eH
	DW	092aeH
	DW	092c8H
	DW	0933eH
	DW	0936aH
	DW	093caH
	DW	0938fH
	DW	0943eH
	DW	0946bH
	DW	09c7fH
	DW	09c82H
	DW	09c85H
	DW	09c86H
	DW	09c87H
	DW	09c88H
	DW	07a23H
	DW	09c8bH
	DW	09c8eH
	DW	09c90H
	DW	09c91H
	DW	09c92H
	DW	09c94H
	DW	09c95H
	DW	09c9aH
	DW	09c9bH
	DW	09c9eH
	DW	09c9fH
	DW	09ca0H
	DW	09ca1H
	DW	09ca2H
	DW	09ca3H
	DW	09ca5H
	DW	09ca6H
	DW	09ca7H
	DW	09ca8H
	DW	09ca9H
	DW	09cabH
	DW	09cadH
	DW	09caeH
	DW	09cb0H
	DW	09cb1H
	DW	09cb2H
	DW	09cb3H
	DW	09cb4H
	DW	09cb5H
	DW	09cb6H
	DW	09cb7H
	DW	09cbaH
	DW	09cbbH
	DW	09cbcH
	DW	09cbdH
	DW	09cc4H
	DW	09cc5H
	DW	09cc6H
	DW	09cc7H
	DW	09ccaH
	DW	09ccbH
	DW	09cccH
	DW	09ccdH
	DW	09cceH
	DW	09ccfH
	DW	09cd0H
	DW	09cd3H
	DW	09cd4H
	DW	09cd5H
	DW	09cd7H
	DW	09cd8H
	DW	09cd9H
	DW	09cdcH
	DW	09cddH
	DW	09cdfH
	DW	09ce2H
	DW	0977cH
	DW	09785H
	DW	09791H
	DW	09792H
	DW	09794H
	DW	097afH
	DW	097abH
	DW	097a3H
	DW	097b2H
	DW	097b4H
	DW	09ab1H
	DW	09ab0H
	DW	09ab7H
	DW	09e58H
	DW	09ab6H
	DW	09abaH
	DW	09abcH
	DW	09ac1H
	DW	09ac0H
	DW	09ac5H
	DW	09ac2H
	DW	09acbH
	DW	09accH
	DW	09ad1H
	DW	09b45H
	DW	09b43H
	DW	09b47H
	DW	09b49H
	DW	09b48H
	DW	09b4dH
	DW	09b51H
	DW	098e8H
	DW	0990dH
	DW	0992eH
	DW	09955H
	DW	09954H
	DW	09adfH
	DW	09ae1H
	DW	09ae6H
	DW	09aefH
	DW	09aebH
	DW	09afbH
	DW	09aedH
	DW	09af9H
	DW	09b08H
	DW	09b0fH
	DW	09b13H
	DW	09b1fH
	DW	09b23H
	DW	09ebdH
	DW	09ebeH
	DW	07e3bH
	DW	09e82H
	DW	09e87H
	DW	09e88H
	DW	09e8bH
	DW	09e92H
	DW	093d6H
	DW	09e9dH
	DW	09e9fH
	DW	09edbH
	DW	09edcH
	DW	09eddH
	DW	09ee0H
	DW	09edfH
	DW	09ee2H
	DW	09ee9H
	DW	09ee7H
	DW	09ee5H
	DW	09eeaH
	DW	09eefH
	DW	09f22H
	DW	09f2cH
	DW	09f2fH
	DW	09f39H
	DW	09f37H
	DW	09f3dH
	DW	09f3eH
	DW	09f44H
	ORG $+12
gb2312_decmap DQ 0000000000000000H
	DB	00H
	DB	00H
	ORG $+6
	DQ	0000000000000000H
	DB	00H
	DB	00H
	ORG $+6
	DQ	0000000000000000H
	DB	00H
	DB	00H
	ORG $+6
	DQ	0000000000000000H
	DB	00H
	DB	00H
	ORG $+6
	DQ	0000000000000000H
	DB	00H
	DB	00H
	ORG $+6
	DQ	0000000000000000H
	DB	00H
	DB	00H
	ORG $+6
	DQ	0000000000000000H
	DB	00H
	DB	00H
	ORG $+6
	DQ	0000000000000000H
	DB	00H
	DB	00H
	ORG $+6
	DQ	0000000000000000H
	DB	00H
	DB	00H
	ORG $+6
	DQ	0000000000000000H
	DB	00H
	DB	00H
	ORG $+6
	DQ	0000000000000000H
	DB	00H
	DB	00H
	ORG $+6
	DQ	0000000000000000H
	DB	00H
	DB	00H
	ORG $+6
	DQ	0000000000000000H
	DB	00H
	DB	00H
	ORG $+6
	DQ	0000000000000000H
	DB	00H
	DB	00H
	ORG $+6
	DQ	0000000000000000H
	DB	00H
	DB	00H
	ORG $+6
	DQ	0000000000000000H
	DB	00H
	DB	00H
	ORG $+6
	DQ	0000000000000000H
	DB	00H
	DB	00H
	ORG $+6
	DQ	0000000000000000H
	DB	00H
	DB	00H
	ORG $+6
	DQ	0000000000000000H
	DB	00H
	DB	00H
	ORG $+6
	DQ	0000000000000000H
	DB	00H
	DB	00H
	ORG $+6
	DQ	0000000000000000H
	DB	00H
	DB	00H
	ORG $+6
	DQ	0000000000000000H
	DB	00H
	DB	00H
	ORG $+6
	DQ	0000000000000000H
	DB	00H
	DB	00H
	ORG $+6
	DQ	0000000000000000H
	DB	00H
	DB	00H
	ORG $+6
	DQ	0000000000000000H
	DB	00H
	DB	00H
	ORG $+6
	DQ	0000000000000000H
	DB	00H
	DB	00H
	ORG $+6
	DQ	0000000000000000H
	DB	00H
	DB	00H
	ORG $+6
	DQ	0000000000000000H
	DB	00H
	DB	00H
	ORG $+6
	DQ	0000000000000000H
	DB	00H
	DB	00H
	ORG $+6
	DQ	0000000000000000H
	DB	00H
	DB	00H
	ORG $+6
	DQ	0000000000000000H
	DB	00H
	DB	00H
	ORG $+6
	DQ	0000000000000000H
	DB	00H
	DB	00H
	ORG $+6
	DQ	0000000000000000H
	DB	00H
	DB	00H
	ORG $+6
	DQ	FLAT:__gb2312_decmap
	DB	021H
	DB	07eH
	ORG $+6
	DQ	FLAT:__gb2312_decmap+188
	DB	031H
	DB	07cH
	ORG $+6
	DQ	FLAT:__gb2312_decmap+340
	DB	021H
	DB	07eH
	ORG $+6
	DQ	FLAT:__gb2312_decmap+528
	DB	021H
	DB	073H
	ORG $+6
	DQ	FLAT:__gb2312_decmap+694
	DB	021H
	DB	076H
	ORG $+6
	DQ	FLAT:__gb2312_decmap+866
	DB	021H
	DB	058H
	ORG $+6
	DQ	FLAT:__gb2312_decmap+978
	DB	021H
	DB	071H
	ORG $+6
	DQ	FLAT:__gb2312_decmap+1140
	DB	021H
	DB	069H
	ORG $+6
	DQ	FLAT:__gb2312_decmap+1286
	DB	024H
	DB	06fH
	ORG $+6
	DQ	0000000000000000H
	DB	00H
	DB	00H
	ORG $+6
	DQ	0000000000000000H
	DB	00H
	DB	00H
	ORG $+6
	DQ	0000000000000000H
	DB	00H
	DB	00H
	ORG $+6
	DQ	0000000000000000H
	DB	00H
	DB	00H
	ORG $+6
	DQ	0000000000000000H
	DB	00H
	DB	00H
	ORG $+6
	DQ	0000000000000000H
	DB	00H
	DB	00H
	ORG $+6
	DQ	FLAT:__gb2312_decmap+1438
	DB	021H
	DB	07eH
	ORG $+6
	DQ	FLAT:__gb2312_decmap+1626
	DB	021H
	DB	07eH
	ORG $+6
	DQ	FLAT:__gb2312_decmap+1814
	DB	021H
	DB	07eH
	ORG $+6
	DQ	FLAT:__gb2312_decmap+2002
	DB	021H
	DB	07eH
	ORG $+6
	DQ	FLAT:__gb2312_decmap+2190
	DB	021H
	DB	07eH
	ORG $+6
	DQ	FLAT:__gb2312_decmap+2378
	DB	021H
	DB	07eH
	ORG $+6
	DQ	FLAT:__gb2312_decmap+2566
	DB	021H
	DB	07eH
	ORG $+6
	DQ	FLAT:__gb2312_decmap+2754
	DB	021H
	DB	07eH
	ORG $+6
	DQ	FLAT:__gb2312_decmap+2942
	DB	021H
	DB	07eH
	ORG $+6
	DQ	FLAT:__gb2312_decmap+3130
	DB	021H
	DB	07eH
	ORG $+6
	DQ	FLAT:__gb2312_decmap+3318
	DB	021H
	DB	07eH
	ORG $+6
	DQ	FLAT:__gb2312_decmap+3506
	DB	021H
	DB	07eH
	ORG $+6
	DQ	FLAT:__gb2312_decmap+3694
	DB	021H
	DB	07eH
	ORG $+6
	DQ	FLAT:__gb2312_decmap+3882
	DB	021H
	DB	07eH
	ORG $+6
	DQ	FLAT:__gb2312_decmap+4070
	DB	021H
	DB	07eH
	ORG $+6
	DQ	FLAT:__gb2312_decmap+4258
	DB	021H
	DB	07eH
	ORG $+6
	DQ	FLAT:__gb2312_decmap+4446
	DB	021H
	DB	07eH
	ORG $+6
	DQ	FLAT:__gb2312_decmap+4634
	DB	021H
	DB	07eH
	ORG $+6
	DQ	FLAT:__gb2312_decmap+4822
	DB	021H
	DB	07eH
	ORG $+6
	DQ	FLAT:__gb2312_decmap+5010
	DB	021H
	DB	07eH
	ORG $+6
	DQ	FLAT:__gb2312_decmap+5198
	DB	021H
	DB	07eH
	ORG $+6
	DQ	FLAT:__gb2312_decmap+5386
	DB	021H
	DB	07eH
	ORG $+6
	DQ	FLAT:__gb2312_decmap+5574
	DB	021H
	DB	07eH
	ORG $+6
	DQ	FLAT:__gb2312_decmap+5762
	DB	021H
	DB	07eH
	ORG $+6
	DQ	FLAT:__gb2312_decmap+5950
	DB	021H
	DB	07eH
	ORG $+6
	DQ	FLAT:__gb2312_decmap+6138
	DB	021H
	DB	07eH
	ORG $+6
	DQ	FLAT:__gb2312_decmap+6326
	DB	021H
	DB	07eH
	ORG $+6
	DQ	FLAT:__gb2312_decmap+6514
	DB	021H
	DB	07eH
	ORG $+6
	DQ	FLAT:__gb2312_decmap+6702
	DB	021H
	DB	07eH
	ORG $+6
	DQ	FLAT:__gb2312_decmap+6890
	DB	021H
	DB	07eH
	ORG $+6
	DQ	FLAT:__gb2312_decmap+7078
	DB	021H
	DB	07eH
	ORG $+6
	DQ	FLAT:__gb2312_decmap+7266
	DB	021H
	DB	07eH
	ORG $+6
	DQ	FLAT:__gb2312_decmap+7454
	DB	021H
	DB	07eH
	ORG $+6
	DQ	FLAT:__gb2312_decmap+7642
	DB	021H
	DB	07eH
	ORG $+6
	DQ	FLAT:__gb2312_decmap+7830
	DB	021H
	DB	07eH
	ORG $+6
	DQ	FLAT:__gb2312_decmap+8018
	DB	021H
	DB	07eH
	ORG $+6
	DQ	FLAT:__gb2312_decmap+8206
	DB	021H
	DB	07eH
	ORG $+6
	DQ	FLAT:__gb2312_decmap+8394
	DB	021H
	DB	07eH
	ORG $+6
	DQ	FLAT:__gb2312_decmap+8582
	DB	021H
	DB	07eH
	ORG $+6
	DQ	FLAT:__gb2312_decmap+8770
	DB	021H
	DB	079H
	ORG $+6
	DQ	FLAT:__gb2312_decmap+8948
	DB	021H
	DB	07eH
	ORG $+6
	DQ	FLAT:__gb2312_decmap+9136
	DB	021H
	DB	07eH
	ORG $+6
	DQ	FLAT:__gb2312_decmap+9324
	DB	021H
	DB	07eH
	ORG $+6
	DQ	FLAT:__gb2312_decmap+9512
	DB	021H
	DB	07eH
	ORG $+6
	DQ	FLAT:__gb2312_decmap+9700
	DB	021H
	DB	07eH
	ORG $+6
	DQ	FLAT:__gb2312_decmap+9888
	DB	021H
	DB	07eH
	ORG $+6
	DQ	FLAT:__gb2312_decmap+10076
	DB	021H
	DB	07eH
	ORG $+6
	DQ	FLAT:__gb2312_decmap+10264
	DB	021H
	DB	07eH
	ORG $+6
	DQ	FLAT:__gb2312_decmap+10452
	DB	021H
	DB	07eH
	ORG $+6
	DQ	FLAT:__gb2312_decmap+10640
	DB	021H
	DB	07eH
	ORG $+6
	DQ	FLAT:__gb2312_decmap+10828
	DB	021H
	DB	07eH
	ORG $+6
	DQ	FLAT:__gb2312_decmap+11016
	DB	021H
	DB	07eH
	ORG $+6
	DQ	FLAT:__gb2312_decmap+11204
	DB	021H
	DB	07eH
	ORG $+6
	DQ	FLAT:__gb2312_decmap+11392
	DB	021H
	DB	07eH
	ORG $+6
	DQ	FLAT:__gb2312_decmap+11580
	DB	021H
	DB	07eH
	ORG $+6
	DQ	FLAT:__gb2312_decmap+11768
	DB	021H
	DB	07eH
	ORG $+6
	DQ	FLAT:__gb2312_decmap+11956
	DB	021H
	DB	07eH
	ORG $+6
	DQ	FLAT:__gb2312_decmap+12144
	DB	021H
	DB	07eH
	ORG $+6
	DQ	FLAT:__gb2312_decmap+12332
	DB	021H
	DB	07eH
	ORG $+6
	DQ	FLAT:__gb2312_decmap+12520
	DB	021H
	DB	07eH
	ORG $+6
	DQ	FLAT:__gb2312_decmap+12708
	DB	021H
	DB	07eH
	ORG $+6
	DQ	FLAT:__gb2312_decmap+12896
	DB	021H
	DB	07eH
	ORG $+6
	DQ	FLAT:__gb2312_decmap+13084
	DB	021H
	DB	07eH
	ORG $+6
	DQ	FLAT:__gb2312_decmap+13272
	DB	021H
	DB	07eH
	ORG $+6
	DQ	FLAT:__gb2312_decmap+13460
	DB	021H
	DB	07eH
	ORG $+6
	DQ	FLAT:__gb2312_decmap+13648
	DB	021H
	DB	07eH
	ORG $+6
	DQ	FLAT:__gb2312_decmap+13836
	DB	021H
	DB	07eH
	ORG $+6
	DQ	FLAT:__gb2312_decmap+14024
	DB	021H
	DB	07eH
	ORG $+6
	DQ	FLAT:__gb2312_decmap+14212
	DB	021H
	DB	07eH
	ORG $+6
	DQ	FLAT:__gb2312_decmap+14400
	DB	021H
	DB	07eH
	ORG $+6
	DQ	FLAT:__gb2312_decmap+14588
	DB	021H
	DB	07eH
	ORG $+6
	DQ	FLAT:__gb2312_decmap+14776
	DB	021H
	DB	07eH
	ORG $+6
	DQ	0000000000000000H
	DB	00H
	DB	00H
	ORG $+6
	DQ	0000000000000000H
	DB	00H
	DB	00H
	ORG $+6
	DQ	0000000000000000H
	DB	00H
	DB	00H
	ORG $+6
	DQ	0000000000000000H
	DB	00H
	DB	00H
	ORG $+6
	DQ	0000000000000000H
	DB	00H
	DB	00H
	ORG $+6
	DQ	0000000000000000H
	DB	00H
	DB	00H
	ORG $+6
	DQ	0000000000000000H
	DB	00H
	DB	00H
	ORG $+6
	DQ	0000000000000000H
	DB	00H
	DB	00H
	ORG $+6
	DQ	0000000000000000H
	DB	00H
	DB	00H
	ORG $+6
	DQ	0000000000000000H
	DB	00H
	DB	00H
	ORG $+6
	DQ	0000000000000000H
	DB	00H
	DB	00H
	ORG $+6
	DQ	0000000000000000H
	DB	00H
	DB	00H
	ORG $+6
	DQ	0000000000000000H
	DB	00H
	DB	00H
	ORG $+6
	DQ	0000000000000000H
	DB	00H
	DB	00H
	ORG $+6
	DQ	0000000000000000H
	DB	00H
	DB	00H
	ORG $+6
	DQ	0000000000000000H
	DB	00H
	DB	00H
	ORG $+6
	DQ	0000000000000000H
	DB	00H
	DB	00H
	ORG $+6
	DQ	0000000000000000H
	DB	00H
	DB	00H
	ORG $+6
	DQ	0000000000000000H
	DB	00H
	DB	00H
	ORG $+6
	DQ	0000000000000000H
	DB	00H
	DB	00H
	ORG $+6
	DQ	0000000000000000H
	DB	00H
	DB	00H
	ORG $+6
	DQ	0000000000000000H
	DB	00H
	DB	00H
	ORG $+6
	DQ	0000000000000000H
	DB	00H
	DB	00H
	ORG $+6
	DQ	0000000000000000H
	DB	00H
	DB	00H
	ORG $+6
	DQ	0000000000000000H
	DB	00H
	DB	00H
	ORG $+6
	DQ	0000000000000000H
	DB	00H
	DB	00H
	ORG $+6
	DQ	0000000000000000H
	DB	00H
	DB	00H
	ORG $+6
	DQ	0000000000000000H
	DB	00H
	DB	00H
	ORG $+6
	DQ	0000000000000000H
	DB	00H
	DB	00H
	ORG $+6
	DQ	0000000000000000H
	DB	00H
	DB	00H
	ORG $+6
	DQ	0000000000000000H
	DB	00H
	DB	00H
	ORG $+6
	DQ	0000000000000000H
	DB	00H
	DB	00H
	ORG $+6
	DQ	0000000000000000H
	DB	00H
	DB	00H
	ORG $+6
	DQ	0000000000000000H
	DB	00H
	DB	00H
	ORG $+6
	DQ	0000000000000000H
	DB	00H
	DB	00H
	ORG $+6
	DQ	0000000000000000H
	DB	00H
	DB	00H
	ORG $+6
	DQ	0000000000000000H
	DB	00H
	DB	00H
	ORG $+6
	DQ	0000000000000000H
	DB	00H
	DB	00H
	ORG $+6
	DQ	0000000000000000H
	DB	00H
	DB	00H
	ORG $+6
	DQ	0000000000000000H
	DB	00H
	DB	00H
	ORG $+6
	DQ	0000000000000000H
	DB	00H
	DB	00H
	ORG $+6
	DQ	0000000000000000H
	DB	00H
	DB	00H
	ORG $+6
	DQ	0000000000000000H
	DB	00H
	DB	00H
	ORG $+6
	DQ	0000000000000000H
	DB	00H
	DB	00H
	ORG $+6
	DQ	0000000000000000H
	DB	00H
	DB	00H
	ORG $+6
	DQ	0000000000000000H
	DB	00H
	DB	00H
	ORG $+6
	DQ	0000000000000000H
	DB	00H
	DB	00H
	ORG $+6
	DQ	0000000000000000H
	DB	00H
	DB	00H
	ORG $+6
	DQ	0000000000000000H
	DB	00H
	DB	00H
	ORG $+6
	DQ	0000000000000000H
	DB	00H
	DB	00H
	ORG $+6
	DQ	0000000000000000H
	DB	00H
	DB	00H
	ORG $+6
	DQ	0000000000000000H
	DB	00H
	DB	00H
	ORG $+6
	DQ	0000000000000000H
	DB	00H
	DB	00H
	ORG $+6
	DQ	0000000000000000H
	DB	00H
	DB	00H
	ORG $+6
	DQ	0000000000000000H
	DB	00H
	DB	00H
	ORG $+6
	DQ	0000000000000000H
	DB	00H
	DB	00H
	ORG $+6
	DQ	0000000000000000H
	DB	00H
	DB	00H
	ORG $+6
	DQ	0000000000000000H
	DB	00H
	DB	00H
	ORG $+6
	DQ	0000000000000000H
	DB	00H
	DB	00H
	ORG $+6
	DQ	0000000000000000H
	DB	00H
	DB	00H
	ORG $+6
	DQ	0000000000000000H
	DB	00H
	DB	00H
	ORG $+6
	DQ	0000000000000000H
	DB	00H
	DB	00H
	ORG $+6
	DQ	0000000000000000H
	DB	00H
	DB	00H
	ORG $+6
	DQ	0000000000000000H
	DB	00H
	DB	00H
	ORG $+6
	DQ	0000000000000000H
	DB	00H
	DB	00H
	ORG $+6
	DQ	0000000000000000H
	DB	00H
	DB	00H
	ORG $+6
	DQ	0000000000000000H
	DB	00H
	DB	00H
	ORG $+6
	DQ	0000000000000000H
	DB	00H
	DB	00H
	ORG $+6
	DQ	0000000000000000H
	DB	00H
	DB	00H
	ORG $+6
	DQ	0000000000000000H
	DB	00H
	DB	00H
	ORG $+6
	DQ	0000000000000000H
	DB	00H
	DB	00H
	ORG $+6
	DQ	0000000000000000H
	DB	00H
	DB	00H
	ORG $+6
	DQ	0000000000000000H
	DB	00H
	DB	00H
	ORG $+6
	DQ	0000000000000000H
	DB	00H
	DB	00H
	ORG $+6
	DQ	0000000000000000H
	DB	00H
	DB	00H
	ORG $+6
	DQ	0000000000000000H
	DB	00H
	DB	00H
	ORG $+6
	DQ	0000000000000000H
	DB	00H
	DB	00H
	ORG $+6
	DQ	0000000000000000H
	DB	00H
	DB	00H
	ORG $+6
	DQ	0000000000000000H
	DB	00H
	DB	00H
	ORG $+6
	DQ	0000000000000000H
	DB	00H
	DB	00H
	ORG $+6
	DQ	0000000000000000H
	DB	00H
	DB	00H
	ORG $+6
	DQ	0000000000000000H
	DB	00H
	DB	00H
	ORG $+6
	DQ	0000000000000000H
	DB	00H
	DB	00H
	ORG $+6
	DQ	0000000000000000H
	DB	00H
	DB	00H
	ORG $+6
	DQ	0000000000000000H
	DB	00H
	DB	00H
	ORG $+6
	DQ	0000000000000000H
	DB	00H
	DB	00H
	ORG $+6
	DQ	0000000000000000H
	DB	00H
	DB	00H
	ORG $+6
	DQ	0000000000000000H
	DB	00H
	DB	00H
	ORG $+6
	DQ	0000000000000000H
	DB	00H
	DB	00H
	ORG $+6
	DQ	0000000000000000H
	DB	00H
	DB	00H
	ORG $+6
	DQ	0000000000000000H
	DB	00H
	DB	00H
	ORG $+6
	DQ	0000000000000000H
	DB	00H
	DB	00H
	ORG $+6
	DQ	0000000000000000H
	DB	00H
	DB	00H
	ORG $+6
	DQ	0000000000000000H
	DB	00H
	DB	00H
	ORG $+6
	DQ	0000000000000000H
	DB	00H
	DB	00H
	ORG $+6
	DQ	0000000000000000H
	DB	00H
	DB	00H
	ORG $+6
	DQ	0000000000000000H
	DB	00H
	DB	00H
	ORG $+6
	DQ	0000000000000000H
	DB	00H
	DB	00H
	ORG $+6
	DQ	0000000000000000H
	DB	00H
	DB	00H
	ORG $+6
	DQ	0000000000000000H
	DB	00H
	DB	00H
	ORG $+6
	DQ	0000000000000000H
	DB	00H
	DB	00H
	ORG $+6
	DQ	0000000000000000H
	DB	00H
	DB	00H
	ORG $+6
	DQ	0000000000000000H
	DB	00H
	DB	00H
	ORG $+6
	DQ	0000000000000000H
	DB	00H
	DB	00H
	ORG $+6
	DQ	0000000000000000H
	DB	00H
	DB	00H
	ORG $+6
	DQ	0000000000000000H
	DB	00H
	DB	00H
	ORG $+6
	DQ	0000000000000000H
	DB	00H
	DB	00H
	ORG $+6
	DQ	0000000000000000H
	DB	00H
	DB	00H
	ORG $+6
	DQ	0000000000000000H
	DB	00H
	DB	00H
	ORG $+6
	DQ	0000000000000000H
	DB	00H
	DB	00H
	ORG $+6
	DQ	0000000000000000H
	DB	00H
	DB	00H
	ORG $+6
	DQ	0000000000000000H
	DB	00H
	DB	00H
	ORG $+6
	DQ	0000000000000000H
	DB	00H
	DB	00H
	ORG $+6
	DQ	0000000000000000H
	DB	00H
	DB	00H
	ORG $+6
	DQ	0000000000000000H
	DB	00H
	DB	00H
	ORG $+6
	DQ	0000000000000000H
	DB	00H
	DB	00H
	ORG $+6
	DQ	0000000000000000H
	DB	00H
	DB	00H
	ORG $+6
	DQ	0000000000000000H
	DB	00H
	DB	00H
	ORG $+6
	DQ	0000000000000000H
	DB	00H
	DB	00H
	ORG $+6
	DQ	0000000000000000H
	DB	00H
	DB	00H
	ORG $+6
	DQ	0000000000000000H
	DB	00H
	DB	00H
	ORG $+6
	DQ	0000000000000000H
	DB	00H
	DB	00H
	ORG $+6
	DQ	0000000000000000H
	DB	00H
	DB	00H
	ORG $+6
	DQ	0000000000000000H
	DB	00H
	DB	00H
	ORG $+6
	DQ	0000000000000000H
	DB	00H
	DB	00H
	ORG $+6
	DQ	0000000000000000H
	DB	00H
	DB	00H
	ORG $+6
	DQ	0000000000000000H
	DB	00H
	DB	00H
	ORG $+6
	DQ	0000000000000000H
	DB	00H
	DB	00H
	ORG $+6
	DQ	0000000000000000H
	DB	00H
	DB	00H
	ORG $+6
	DQ	0000000000000000H
	DB	00H
	DB	00H
	ORG $+6
	DQ	0000000000000000H
	DB	00H
	DB	00H
	ORG $+6
	DQ	0000000000000000H
	DB	00H
	DB	00H
	ORG $+6
	DQ	0000000000000000H
	DB	00H
	DB	00H
	ORG $+6
	DQ	0000000000000000H
	DB	00H
	DB	00H
	ORG $+6
	DQ	0000000000000000H
	DB	00H
	DB	00H
	ORG $+6
	DQ	0000000000000000H
	DB	00H
	DB	00H
	ORG $+6
__gbkext_decmap DW 04e02H
	DW	04e04H
	DW	04e05H
	DW	04e06H
	DW	04e0fH
	DW	04e12H
	DW	04e17H
	DW	04e1fH
	DW	04e20H
	DW	04e21H
	DW	04e23H
	DW	04e26H
	DW	04e29H
	DW	04e2eH
	DW	04e2fH
	DW	04e31H
	DW	04e33H
	DW	04e35H
	DW	04e37H
	DW	04e3cH
	DW	04e40H
	DW	04e41H
	DW	04e42H
	DW	04e44H
	DW	04e46H
	DW	04e4aH
	DW	04e51H
	DW	04e55H
	DW	04e57H
	DW	04e5aH
	DW	04e5bH
	DW	04e62H
	DW	04e63H
	DW	04e64H
	DW	04e65H
	DW	04e67H
	DW	04e68H
	DW	04e6aH
	DW	04e6bH
	DW	04e6cH
	DW	04e6dH
	DW	04e6eH
	DW	04e6fH
	DW	04e72H
	DW	04e74H
	DW	04e75H
	DW	04e76H
	DW	04e77H
	DW	04e78H
	DW	04e79H
	DW	04e7aH
	DW	04e7bH
	DW	04e7cH
	DW	04e7dH
	DW	04e7fH
	DW	04e80H
	DW	04e81H
	DW	04e82H
	DW	04e83H
	DW	04e84H
	DW	04e85H
	DW	04e87H
	DW	04e8aH
	DW	0fffeH
	DW	04e90H
	DW	04e96H
	DW	04e97H
	DW	04e99H
	DW	04e9cH
	DW	04e9dH
	DW	04e9eH
	DW	04ea3H
	DW	04eaaH
	DW	04eafH
	DW	04eb0H
	DW	04eb1H
	DW	04eb4H
	DW	04eb6H
	DW	04eb7H
	DW	04eb8H
	DW	04eb9H
	DW	04ebcH
	DW	04ebdH
	DW	04ebeH
	DW	04ec8H
	DW	04eccH
	DW	04ecfH
	DW	04ed0H
	DW	04ed2H
	DW	04edaH
	DW	04edbH
	DW	04edcH
	DW	04ee0H
	DW	04ee2H
	DW	04ee6H
	DW	04ee7H
	DW	04ee9H
	DW	04eedH
	DW	04eeeH
	DW	04eefH
	DW	04ef1H
	DW	04ef4H
	DW	04ef8H
	DW	04ef9H
	DW	04efaH
	DW	04efcH
	DW	04efeH
	DW	04f00H
	DW	04f02H
	DW	04f03H
	DW	04f04H
	DW	04f05H
	DW	04f06H
	DW	04f07H
	DW	04f08H
	DW	04f0bH
	DW	04f0cH
	DW	04f12H
	DW	04f13H
	DW	04f14H
	DW	04f15H
	DW	04f16H
	DW	04f1cH
	DW	04f1dH
	DW	04f21H
	DW	04f23H
	DW	04f28H
	DW	04f29H
	DW	04f2cH
	DW	04f2dH
	DW	04f2eH
	DW	04f31H
	DW	04f33H
	DW	04f35H
	DW	04f37H
	DW	04f39H
	DW	04f3bH
	DW	04f3eH
	DW	04f3fH
	DW	04f40H
	DW	04f41H
	DW	04f42H
	DW	04f44H
	DW	04f45H
	DW	04f47H
	DW	04f48H
	DW	04f49H
	DW	04f4aH
	DW	04f4bH
	DW	04f4cH
	DW	04f52H
	DW	04f54H
	DW	04f56H
	DW	04f61H
	DW	04f62H
	DW	04f66H
	DW	04f68H
	DW	04f6aH
	DW	04f6bH
	DW	04f6dH
	DW	04f6eH
	DW	04f71H
	DW	04f72H
	DW	04f75H
	DW	04f77H
	DW	04f78H
	DW	04f79H
	DW	04f7aH
	DW	04f7dH
	DW	04f80H
	DW	04f81H
	DW	04f82H
	DW	04f85H
	DW	04f86H
	DW	04f87H
	DW	04f8aH
	DW	04f8cH
	DW	04f8eH
	DW	04f90H
	DW	04f92H
	DW	04f93H
	DW	04f95H
	DW	04f96H
	DW	04f98H
	DW	04f99H
	DW	04f9aH
	DW	04f9cH
	DW	04f9eH
	DW	04f9fH
	DW	04fa1H
	DW	04fa2H
	DW	04fa4H
	DW	04fabH
	DW	04fadH
	DW	04fb0H
	DW	04fb1H
	DW	04fb2H
	DW	04fb3H
	DW	04fb4H
	DW	04fb6H
	DW	04fb7H
	DW	04fb8H
	DW	04fb9H
	DW	04fbaH
	DW	04fbbH
	DW	04fbcH
	DW	04fbdH
	DW	04fbeH
	DW	04fc0H
	DW	04fc1H
	DW	04fc2H
	DW	04fc6H
	DW	04fc7H
	DW	04fc8H
	DW	04fc9H
	DW	04fcbH
	DW	04fccH
	DW	04fcdH
	DW	04fd2H
	DW	04fd3H
	DW	04fd4H
	DW	04fd5H
	DW	04fd6H
	DW	04fd9H
	DW	04fdbH
	DW	04fe0H
	DW	04fe2H
	DW	04fe4H
	DW	04fe5H
	DW	04fe7H
	DW	04febH
	DW	04fecH
	DW	04ff0H
	DW	04ff2H
	DW	04ff4H
	DW	04ff5H
	DW	04ff6H
	DW	04ff7H
	DW	04ff9H
	DW	04ffbH
	DW	04ffcH
	DW	04ffdH
	DW	04fffH
	DW	05000H
	DW	05001H
	DW	05002H
	DW	05003H
	DW	05004H
	DW	05005H
	DW	05006H
	DW	05007H
	DW	05008H
	DW	05009H
	DW	0500aH
	DW	0fffeH
	DW	0500bH
	DW	0500eH
	DW	05010H
	DW	05011H
	DW	05013H
	DW	05015H
	DW	05016H
	DW	05017H
	DW	0501bH
	DW	0501dH
	DW	0501eH
	DW	05020H
	DW	05022H
	DW	05023H
	DW	05024H
	DW	05027H
	DW	0502bH
	DW	0502fH
	DW	05030H
	DW	05031H
	DW	05032H
	DW	05033H
	DW	05034H
	DW	05035H
	DW	05036H
	DW	05037H
	DW	05038H
	DW	05039H
	DW	0503bH
	DW	0503dH
	DW	0503fH
	DW	05040H
	DW	05041H
	DW	05042H
	DW	05044H
	DW	05045H
	DW	05046H
	DW	05049H
	DW	0504aH
	DW	0504bH
	DW	0504dH
	DW	05050H
	DW	05051H
	DW	05052H
	DW	05053H
	DW	05054H
	DW	05056H
	DW	05057H
	DW	05058H
	DW	05059H
	DW	0505bH
	DW	0505dH
	DW	0505eH
	DW	0505fH
	DW	05060H
	DW	05061H
	DW	05062H
	DW	05063H
	DW	05064H
	DW	05066H
	DW	05067H
	DW	05068H
	DW	05069H
	DW	0506aH
	DW	0506bH
	DW	0506dH
	DW	0506eH
	DW	0506fH
	DW	05070H
	DW	05071H
	DW	05072H
	DW	05073H
	DW	05074H
	DW	05075H
	DW	05078H
	DW	05079H
	DW	0507aH
	DW	0507cH
	DW	0507dH
	DW	05081H
	DW	05082H
	DW	05083H
	DW	05084H
	DW	05086H
	DW	05087H
	DW	05089H
	DW	0508aH
	DW	0508bH
	DW	0508cH
	DW	0508eH
	DW	0508fH
	DW	05090H
	DW	05091H
	DW	05092H
	DW	05093H
	DW	05094H
	DW	05095H
	DW	05096H
	DW	05097H
	DW	05098H
	DW	05099H
	DW	0509aH
	DW	0509bH
	DW	0509cH
	DW	0509dH
	DW	0509eH
	DW	0509fH
	DW	050a0H
	DW	050a1H
	DW	050a2H
	DW	050a4H
	DW	050a6H
	DW	050aaH
	DW	050abH
	DW	050adH
	DW	050aeH
	DW	050afH
	DW	050b0H
	DW	050b1H
	DW	050b3H
	DW	050b4H
	DW	050b5H
	DW	050b6H
	DW	050b7H
	DW	050b8H
	DW	050b9H
	DW	050bcH
	DW	050bdH
	DW	050beH
	DW	050bfH
	DW	050c0H
	DW	050c1H
	DW	050c2H
	DW	050c3H
	DW	050c4H
	DW	050c5H
	DW	050c6H
	DW	050c7H
	DW	050c8H
	DW	050c9H
	DW	050caH
	DW	050cbH
	DW	050ccH
	DW	050cdH
	DW	050ceH
	DW	050d0H
	DW	050d1H
	DW	050d2H
	DW	050d3H
	DW	050d4H
	DW	050d5H
	DW	050d7H
	DW	050d8H
	DW	050d9H
	DW	050dbH
	DW	050dcH
	DW	050ddH
	DW	050deH
	DW	050dfH
	DW	050e0H
	DW	050e1H
	DW	050e2H
	DW	050e3H
	DW	050e4H
	DW	050e5H
	DW	050e8H
	DW	050e9H
	DW	050eaH
	DW	050ebH
	DW	050efH
	DW	050f0H
	DW	050f1H
	DW	050f2H
	DW	050f4H
	DW	050f6H
	DW	050f7H
	DW	050f8H
	DW	050f9H
	DW	050faH
	DW	050fcH
	DW	050fdH
	DW	050feH
	DW	050ffH
	DW	05100H
	DW	05101H
	DW	05102H
	DW	05103H
	DW	05104H
	DW	05105H
	DW	05108H
	DW	0fffeH
	DW	05109H
	DW	0510aH
	DW	0510cH
	DW	0510dH
	DW	0510eH
	DW	0510fH
	DW	05110H
	DW	05111H
	DW	05113H
	DW	05114H
	DW	05115H
	DW	05116H
	DW	05117H
	DW	05118H
	DW	05119H
	DW	0511aH
	DW	0511bH
	DW	0511cH
	DW	0511dH
	DW	0511eH
	DW	0511fH
	DW	05120H
	DW	05122H
	DW	05123H
	DW	05124H
	DW	05125H
	DW	05126H
	DW	05127H
	DW	05128H
	DW	05129H
	DW	0512aH
	DW	0512bH
	DW	0512cH
	DW	0512dH
	DW	0512eH
	DW	0512fH
	DW	05130H
	DW	05131H
	DW	05132H
	DW	05133H
	DW	05134H
	DW	05135H
	DW	05136H
	DW	05137H
	DW	05138H
	DW	05139H
	DW	0513aH
	DW	0513bH
	DW	0513cH
	DW	0513dH
	DW	0513eH
	DW	05142H
	DW	05147H
	DW	0514aH
	DW	0514cH
	DW	0514eH
	DW	0514fH
	DW	05150H
	DW	05152H
	DW	05153H
	DW	05157H
	DW	05158H
	DW	05159H
	DW	0515bH
	DW	0515dH
	DW	0515eH
	DW	0515fH
	DW	05160H
	DW	05161H
	DW	05163H
	DW	05164H
	DW	05166H
	DW	05167H
	DW	05169H
	DW	0516aH
	DW	0516fH
	DW	05172H
	DW	0517aH
	DW	0517eH
	DW	0517fH
	DW	05183H
	DW	05184H
	DW	05186H
	DW	05187H
	DW	0518aH
	DW	0518bH
	DW	0518eH
	DW	0518fH
	DW	05190H
	DW	05191H
	DW	05193H
	DW	05194H
	DW	05198H
	DW	0519aH
	DW	0519dH
	DW	0519eH
	DW	0519fH
	DW	051a1H
	DW	051a3H
	DW	051a6H
	DW	051a7H
	DW	051a8H
	DW	051a9H
	DW	051aaH
	DW	051adH
	DW	051aeH
	DW	051b4H
	DW	051b8H
	DW	051b9H
	DW	051baH
	DW	051beH
	DW	051bfH
	DW	051c1H
	DW	051c2H
	DW	051c3H
	DW	051c5H
	DW	051c8H
	DW	051caH
	DW	051cdH
	DW	051ceH
	DW	051d0H
	DW	051d2H
	DW	051d3H
	DW	051d4H
	DW	051d5H
	DW	051d6H
	DW	051d7H
	DW	051d8H
	DW	051d9H
	DW	051daH
	DW	051dcH
	DW	051deH
	DW	051dfH
	DW	051e2H
	DW	051e3H
	DW	051e5H
	DW	051e6H
	DW	051e7H
	DW	051e8H
	DW	051e9H
	DW	051eaH
	DW	051ecH
	DW	051eeH
	DW	051f1H
	DW	051f2H
	DW	051f4H
	DW	051f7H
	DW	051feH
	DW	05204H
	DW	05205H
	DW	05209H
	DW	0520bH
	DW	0520cH
	DW	0520fH
	DW	05210H
	DW	05213H
	DW	05214H
	DW	05215H
	DW	0521cH
	DW	0521eH
	DW	0521fH
	DW	05221H
	DW	05222H
	DW	05223H
	DW	05225H
	DW	05226H
	DW	05227H
	DW	0522aH
	DW	0522cH
	DW	0522fH
	DW	05231H
	DW	05232H
	DW	05234H
	DW	05235H
	DW	0523cH
	DW	0523eH
	DW	05244H
	DW	05245H
	DW	05246H
	DW	05247H
	DW	05248H
	DW	05249H
	DW	0524bH
	DW	0524eH
	DW	0524fH
	DW	05252H
	DW	05253H
	DW	05255H
	DW	05257H
	DW	05258H
	DW	0fffeH
	DW	05259H
	DW	0525aH
	DW	0525bH
	DW	0525dH
	DW	0525fH
	DW	05260H
	DW	05262H
	DW	05263H
	DW	05264H
	DW	05266H
	DW	05268H
	DW	0526bH
	DW	0526cH
	DW	0526dH
	DW	0526eH
	DW	05270H
	DW	05271H
	DW	05273H
	DW	05274H
	DW	05275H
	DW	05276H
	DW	05277H
	DW	05278H
	DW	05279H
	DW	0527aH
	DW	0527bH
	DW	0527cH
	DW	0527eH
	DW	05280H
	DW	05283H
	DW	05284H
	DW	05285H
	DW	05286H
	DW	05287H
	DW	05289H
	DW	0528aH
	DW	0528bH
	DW	0528cH
	DW	0528dH
	DW	0528eH
	DW	0528fH
	DW	05291H
	DW	05292H
	DW	05294H
	DW	05295H
	DW	05296H
	DW	05297H
	DW	05298H
	DW	05299H
	DW	0529aH
	DW	0529cH
	DW	052a4H
	DW	052a5H
	DW	052a6H
	DW	052a7H
	DW	052aeH
	DW	052afH
	DW	052b0H
	DW	052b4H
	DW	052b5H
	DW	052b6H
	DW	052b7H
	DW	052b8H
	DW	052b9H
	DW	052baH
	DW	052bbH
	DW	052bcH
	DW	052bdH
	DW	052c0H
	DW	052c1H
	DW	052c2H
	DW	052c4H
	DW	052c5H
	DW	052c6H
	DW	052c8H
	DW	052caH
	DW	052ccH
	DW	052cdH
	DW	052ceH
	DW	052cfH
	DW	052d1H
	DW	052d3H
	DW	052d4H
	DW	052d5H
	DW	052d7H
	DW	052d9H
	DW	052daH
	DW	052dbH
	DW	052dcH
	DW	052ddH
	DW	052deH
	DW	052e0H
	DW	052e1H
	DW	052e2H
	DW	052e3H
	DW	052e5H
	DW	052e6H
	DW	052e7H
	DW	052e8H
	DW	052e9H
	DW	052eaH
	DW	052ebH
	DW	052ecH
	DW	052edH
	DW	052eeH
	DW	052efH
	DW	052f1H
	DW	052f2H
	DW	052f3H
	DW	052f4H
	DW	052f5H
	DW	052f6H
	DW	052f7H
	DW	052f8H
	DW	052fbH
	DW	052fcH
	DW	052fdH
	DW	05301H
	DW	05302H
	DW	05303H
	DW	05304H
	DW	05307H
	DW	05309H
	DW	0530aH
	DW	0530bH
	DW	0530cH
	DW	0530eH
	DW	05311H
	DW	05312H
	DW	05313H
	DW	05314H
	DW	05318H
	DW	0531bH
	DW	0531cH
	DW	0531eH
	DW	0531fH
	DW	05322H
	DW	05324H
	DW	05325H
	DW	05327H
	DW	05328H
	DW	05329H
	DW	0532bH
	DW	0532cH
	DW	0532dH
	DW	0532fH
	DW	05330H
	DW	05331H
	DW	05332H
	DW	05333H
	DW	05334H
	DW	05335H
	DW	05336H
	DW	05337H
	DW	05338H
	DW	0533cH
	DW	0533dH
	DW	05340H
	DW	05342H
	DW	05344H
	DW	05346H
	DW	0534bH
	DW	0534cH
	DW	0534dH
	DW	05350H
	DW	05354H
	DW	05358H
	DW	05359H
	DW	0535bH
	DW	0535dH
	DW	05365H
	DW	05368H
	DW	0536aH
	DW	0536cH
	DW	0536dH
	DW	05372H
	DW	05376H
	DW	05379H
	DW	0537bH
	DW	0537cH
	DW	0537dH
	DW	0537eH
	DW	05380H
	DW	05381H
	DW	05383H
	DW	05387H
	DW	05388H
	DW	0538aH
	DW	0538eH
	DW	0538fH
	DW	0fffeH
	DW	05390H
	DW	05391H
	DW	05392H
	DW	05393H
	DW	05394H
	DW	05396H
	DW	05397H
	DW	05399H
	DW	0539bH
	DW	0539cH
	DW	0539eH
	DW	053a0H
	DW	053a1H
	DW	053a4H
	DW	053a7H
	DW	053aaH
	DW	053abH
	DW	053acH
	DW	053adH
	DW	053afH
	DW	053b0H
	DW	053b1H
	DW	053b2H
	DW	053b3H
	DW	053b4H
	DW	053b5H
	DW	053b7H
	DW	053b8H
	DW	053b9H
	DW	053baH
	DW	053bcH
	DW	053bdH
	DW	053beH
	DW	053c0H
	DW	053c3H
	DW	053c4H
	DW	053c5H
	DW	053c6H
	DW	053c7H
	DW	053ceH
	DW	053cfH
	DW	053d0H
	DW	053d2H
	DW	053d3H
	DW	053d5H
	DW	053daH
	DW	053dcH
	DW	053ddH
	DW	053deH
	DW	053e1H
	DW	053e2H
	DW	053e7H
	DW	053f4H
	DW	053faH
	DW	053feH
	DW	053ffH
	DW	05400H
	DW	05402H
	DW	05405H
	DW	05407H
	DW	0540bH
	DW	05414H
	DW	05418H
	DW	05419H
	DW	0541aH
	DW	0541cH
	DW	05422H
	DW	05424H
	DW	05425H
	DW	0542aH
	DW	05430H
	DW	05433H
	DW	05436H
	DW	05437H
	DW	0543aH
	DW	0543dH
	DW	0543fH
	DW	05441H
	DW	05442H
	DW	05444H
	DW	05445H
	DW	05447H
	DW	05449H
	DW	0544cH
	DW	0544dH
	DW	0544eH
	DW	0544fH
	DW	05451H
	DW	0545aH
	DW	0545dH
	DW	0545eH
	DW	0545fH
	DW	05460H
	DW	05461H
	DW	05463H
	DW	05465H
	DW	05467H
	DW	05469H
	DW	0546aH
	DW	0546bH
	DW	0546cH
	DW	0546dH
	DW	0546eH
	DW	0546fH
	DW	05470H
	DW	05474H
	DW	05479H
	DW	0547aH
	DW	0547eH
	DW	0547fH
	DW	05481H
	DW	05483H
	DW	05485H
	DW	05487H
	DW	05488H
	DW	05489H
	DW	0548aH
	DW	0548dH
	DW	05491H
	DW	05493H
	DW	05497H
	DW	05498H
	DW	0549cH
	DW	0549eH
	DW	0549fH
	DW	054a0H
	DW	054a1H
	DW	054a2H
	DW	054a5H
	DW	054aeH
	DW	054b0H
	DW	054b2H
	DW	054b5H
	DW	054b6H
	DW	054b7H
	DW	054b9H
	DW	054baH
	DW	054bcH
	DW	054beH
	DW	054c3H
	DW	054c5H
	DW	054caH
	DW	054cbH
	DW	054d6H
	DW	054d8H
	DW	054dbH
	DW	054e0H
	DW	054e1H
	DW	054e2H
	DW	054e3H
	DW	054e4H
	DW	054ebH
	DW	054ecH
	DW	054efH
	DW	054f0H
	DW	054f1H
	DW	054f4H
	DW	054f5H
	DW	054f6H
	DW	054f7H
	DW	054f8H
	DW	054f9H
	DW	054fbH
	DW	054feH
	DW	05500H
	DW	05502H
	DW	05503H
	DW	05504H
	DW	05505H
	DW	05508H
	DW	0550aH
	DW	0550bH
	DW	0550cH
	DW	0550dH
	DW	0550eH
	DW	05512H
	DW	05513H
	DW	05515H
	DW	05516H
	DW	05517H
	DW	05518H
	DW	05519H
	DW	0551aH
	DW	0551cH
	DW	0551dH
	DW	0551eH
	DW	0551fH
	DW	05521H
	DW	05525H
	DW	05526H
	DW	0fffeH
	DW	05528H
	DW	05529H
	DW	0552bH
	DW	0552dH
	DW	05532H
	DW	05534H
	DW	05535H
	DW	05536H
	DW	05538H
	DW	05539H
	DW	0553aH
	DW	0553bH
	DW	0553dH
	DW	05540H
	DW	05542H
	DW	05545H
	DW	05547H
	DW	05548H
	DW	0554bH
	DW	0554cH
	DW	0554dH
	DW	0554eH
	DW	0554fH
	DW	05551H
	DW	05552H
	DW	05553H
	DW	05554H
	DW	05557H
	DW	05558H
	DW	05559H
	DW	0555aH
	DW	0555bH
	DW	0555dH
	DW	0555eH
	DW	0555fH
	DW	05560H
	DW	05562H
	DW	05563H
	DW	05568H
	DW	05569H
	DW	0556bH
	DW	0556fH
	DW	05570H
	DW	05571H
	DW	05572H
	DW	05573H
	DW	05574H
	DW	05579H
	DW	0557aH
	DW	0557dH
	DW	0557fH
	DW	05585H
	DW	05586H
	DW	0558cH
	DW	0558dH
	DW	0558eH
	DW	05590H
	DW	05592H
	DW	05593H
	DW	05595H
	DW	05596H
	DW	05597H
	DW	0559aH
	DW	0559bH
	DW	0559eH
	DW	055a0H
	DW	055a1H
	DW	055a2H
	DW	055a3H
	DW	055a4H
	DW	055a5H
	DW	055a6H
	DW	055a8H
	DW	055a9H
	DW	055aaH
	DW	055abH
	DW	055acH
	DW	055adH
	DW	055aeH
	DW	055afH
	DW	055b0H
	DW	055b2H
	DW	055b4H
	DW	055b6H
	DW	055b8H
	DW	055baH
	DW	055bcH
	DW	055bfH
	DW	055c0H
	DW	055c1H
	DW	055c2H
	DW	055c3H
	DW	055c6H
	DW	055c7H
	DW	055c8H
	DW	055caH
	DW	055cbH
	DW	055ceH
	DW	055cfH
	DW	055d0H
	DW	055d5H
	DW	055d7H
	DW	055d8H
	DW	055d9H
	DW	055daH
	DW	055dbH
	DW	055deH
	DW	055e0H
	DW	055e2H
	DW	055e7H
	DW	055e9H
	DW	055edH
	DW	055eeH
	DW	055f0H
	DW	055f1H
	DW	055f4H
	DW	055f6H
	DW	055f8H
	DW	055f9H
	DW	055faH
	DW	055fbH
	DW	055fcH
	DW	055ffH
	DW	05602H
	DW	05603H
	DW	05604H
	DW	05605H
	DW	05606H
	DW	05607H
	DW	0560aH
	DW	0560bH
	DW	0560dH
	DW	05610H
	DW	05611H
	DW	05612H
	DW	05613H
	DW	05614H
	DW	05615H
	DW	05616H
	DW	05617H
	DW	05619H
	DW	0561aH
	DW	0561cH
	DW	0561dH
	DW	05620H
	DW	05621H
	DW	05622H
	DW	05625H
	DW	05626H
	DW	05628H
	DW	05629H
	DW	0562aH
	DW	0562bH
	DW	0562eH
	DW	0562fH
	DW	05630H
	DW	05633H
	DW	05635H
	DW	05637H
	DW	05638H
	DW	0563aH
	DW	0563cH
	DW	0563dH
	DW	0563eH
	DW	05640H
	DW	05641H
	DW	05642H
	DW	05643H
	DW	05644H
	DW	05645H
	DW	05646H
	DW	05647H
	DW	05648H
	DW	05649H
	DW	0564aH
	DW	0564bH
	DW	0564fH
	DW	05650H
	DW	05651H
	DW	05652H
	DW	05653H
	DW	05655H
	DW	05656H
	DW	0565aH
	DW	0565bH
	DW	0565dH
	DW	0565eH
	DW	0565fH
	DW	05660H
	DW	05661H
	DW	0fffeH
	DW	05663H
	DW	05665H
	DW	05666H
	DW	05667H
	DW	0566dH
	DW	0566eH
	DW	0566fH
	DW	05670H
	DW	05672H
	DW	05673H
	DW	05674H
	DW	05675H
	DW	05677H
	DW	05678H
	DW	05679H
	DW	0567aH
	DW	0567dH
	DW	0567eH
	DW	0567fH
	DW	05680H
	DW	05681H
	DW	05682H
	DW	05683H
	DW	05684H
	DW	05687H
	DW	05688H
	DW	05689H
	DW	0568aH
	DW	0568bH
	DW	0568cH
	DW	0568dH
	DW	05690H
	DW	05691H
	DW	05692H
	DW	05694H
	DW	05695H
	DW	05696H
	DW	05697H
	DW	05698H
	DW	05699H
	DW	0569aH
	DW	0569bH
	DW	0569cH
	DW	0569dH
	DW	0569eH
	DW	0569fH
	DW	056a0H
	DW	056a1H
	DW	056a2H
	DW	056a4H
	DW	056a5H
	DW	056a6H
	DW	056a7H
	DW	056a8H
	DW	056a9H
	DW	056aaH
	DW	056abH
	DW	056acH
	DW	056adH
	DW	056aeH
	DW	056b0H
	DW	056b1H
	DW	056b2H
	DW	056b3H
	DW	056b4H
	DW	056b5H
	DW	056b6H
	DW	056b8H
	DW	056b9H
	DW	056baH
	DW	056bbH
	DW	056bdH
	DW	056beH
	DW	056bfH
	DW	056c0H
	DW	056c1H
	DW	056c2H
	DW	056c3H
	DW	056c4H
	DW	056c5H
	DW	056c6H
	DW	056c7H
	DW	056c8H
	DW	056c9H
	DW	056cbH
	DW	056ccH
	DW	056cdH
	DW	056ceH
	DW	056cfH
	DW	056d0H
	DW	056d1H
	DW	056d2H
	DW	056d3H
	DW	056d5H
	DW	056d6H
	DW	056d8H
	DW	056d9H
	DW	056dcH
	DW	056e3H
	DW	056e5H
	DW	056e6H
	DW	056e7H
	DW	056e8H
	DW	056e9H
	DW	056eaH
	DW	056ecH
	DW	056eeH
	DW	056efH
	DW	056f2H
	DW	056f3H
	DW	056f6H
	DW	056f7H
	DW	056f8H
	DW	056fbH
	DW	056fcH
	DW	05700H
	DW	05701H
	DW	05702H
	DW	05705H
	DW	05707H
	DW	0570bH
	DW	0570cH
	DW	0570dH
	DW	0570eH
	DW	0570fH
	DW	05710H
	DW	05711H
	DW	05712H
	DW	05713H
	DW	05714H
	DW	05715H
	DW	05716H
	DW	05717H
	DW	05718H
	DW	05719H
	DW	0571aH
	DW	0571bH
	DW	0571dH
	DW	0571eH
	DW	05720H
	DW	05721H
	DW	05722H
	DW	05724H
	DW	05725H
	DW	05726H
	DW	05727H
	DW	0572bH
	DW	05731H
	DW	05732H
	DW	05734H
	DW	05735H
	DW	05736H
	DW	05737H
	DW	05738H
	DW	0573cH
	DW	0573dH
	DW	0573fH
	DW	05741H
	DW	05743H
	DW	05744H
	DW	05745H
	DW	05746H
	DW	05748H
	DW	05749H
	DW	0574bH
	DW	05752H
	DW	05753H
	DW	05754H
	DW	05755H
	DW	05756H
	DW	05758H
	DW	05759H
	DW	05762H
	DW	05763H
	DW	05765H
	DW	05767H
	DW	0576cH
	DW	0576eH
	DW	05770H
	DW	05771H
	DW	05772H
	DW	05774H
	DW	05775H
	DW	05778H
	DW	05779H
	DW	0577aH
	DW	0577dH
	DW	0577eH
	DW	0577fH
	DW	05780H
	DW	0fffeH
	DW	05781H
	DW	05787H
	DW	05788H
	DW	05789H
	DW	0578aH
	DW	0578dH
	DW	0578eH
	DW	0578fH
	DW	05790H
	DW	05791H
	DW	05794H
	DW	05795H
	DW	05796H
	DW	05797H
	DW	05798H
	DW	05799H
	DW	0579aH
	DW	0579cH
	DW	0579dH
	DW	0579eH
	DW	0579fH
	DW	057a5H
	DW	057a8H
	DW	057aaH
	DW	057acH
	DW	057afH
	DW	057b0H
	DW	057b1H
	DW	057b3H
	DW	057b5H
	DW	057b6H
	DW	057b7H
	DW	057b9H
	DW	057baH
	DW	057bbH
	DW	057bcH
	DW	057bdH
	DW	057beH
	DW	057bfH
	DW	057c0H
	DW	057c1H
	DW	057c4H
	DW	057c5H
	DW	057c6H
	DW	057c7H
	DW	057c8H
	DW	057c9H
	DW	057caH
	DW	057ccH
	DW	057cdH
	DW	057d0H
	DW	057d1H
	DW	057d3H
	DW	057d6H
	DW	057d7H
	DW	057dbH
	DW	057dcH
	DW	057deH
	DW	057e1H
	DW	057e2H
	DW	057e3H
	DW	057e5H
	DW	057e6H
	DW	057e7H
	DW	057e8H
	DW	057e9H
	DW	057eaH
	DW	057ebH
	DW	057ecH
	DW	057eeH
	DW	057f0H
	DW	057f1H
	DW	057f2H
	DW	057f3H
	DW	057f5H
	DW	057f6H
	DW	057f7H
	DW	057fbH
	DW	057fcH
	DW	057feH
	DW	057ffH
	DW	05801H
	DW	05803H
	DW	05804H
	DW	05805H
	DW	05808H
	DW	05809H
	DW	0580aH
	DW	0580cH
	DW	0580eH
	DW	0580fH
	DW	05810H
	DW	05812H
	DW	05813H
	DW	05814H
	DW	05816H
	DW	05817H
	DW	05818H
	DW	0581aH
	DW	0581bH
	DW	0581cH
	DW	0581dH
	DW	0581fH
	DW	05822H
	DW	05823H
	DW	05825H
	DW	05826H
	DW	05827H
	DW	05828H
	DW	05829H
	DW	0582bH
	DW	0582cH
	DW	0582dH
	DW	0582eH
	DW	0582fH
	DW	05831H
	DW	05832H
	DW	05833H
	DW	05834H
	DW	05836H
	DW	05837H
	DW	05838H
	DW	05839H
	DW	0583aH
	DW	0583bH
	DW	0583cH
	DW	0583dH
	DW	0583eH
	DW	0583fH
	DW	05840H
	DW	05841H
	DW	05842H
	DW	05843H
	DW	05845H
	DW	05846H
	DW	05847H
	DW	05848H
	DW	05849H
	DW	0584aH
	DW	0584bH
	DW	0584eH
	DW	0584fH
	DW	05850H
	DW	05852H
	DW	05853H
	DW	05855H
	DW	05856H
	DW	05857H
	DW	05859H
	DW	0585aH
	DW	0585bH
	DW	0585cH
	DW	0585dH
	DW	0585fH
	DW	05860H
	DW	05861H
	DW	05862H
	DW	05863H
	DW	05864H
	DW	05866H
	DW	05867H
	DW	05868H
	DW	05869H
	DW	0586aH
	DW	0586dH
	DW	0586eH
	DW	0586fH
	DW	05870H
	DW	05871H
	DW	05872H
	DW	05873H
	DW	05874H
	DW	05875H
	DW	05876H
	DW	05877H
	DW	05878H
	DW	05879H
	DW	0587aH
	DW	0587bH
	DW	0587cH
	DW	0587dH
	DW	0587fH
	DW	05882H
	DW	05884H
	DW	05886H
	DW	05887H
	DW	05888H
	DW	0588aH
	DW	0588bH
	DW	0588cH
	DW	0fffeH
	DW	0588dH
	DW	0588eH
	DW	0588fH
	DW	05890H
	DW	05891H
	DW	05894H
	DW	05895H
	DW	05896H
	DW	05897H
	DW	05898H
	DW	0589bH
	DW	0589cH
	DW	0589dH
	DW	058a0H
	DW	058a1H
	DW	058a2H
	DW	058a3H
	DW	058a4H
	DW	058a5H
	DW	058a6H
	DW	058a7H
	DW	058aaH
	DW	058abH
	DW	058acH
	DW	058adH
	DW	058aeH
	DW	058afH
	DW	058b0H
	DW	058b1H
	DW	058b2H
	DW	058b3H
	DW	058b4H
	DW	058b5H
	DW	058b6H
	DW	058b7H
	DW	058b8H
	DW	058b9H
	DW	058baH
	DW	058bbH
	DW	058bdH
	DW	058beH
	DW	058bfH
	DW	058c0H
	DW	058c2H
	DW	058c3H
	DW	058c4H
	DW	058c6H
	DW	058c7H
	DW	058c8H
	DW	058c9H
	DW	058caH
	DW	058cbH
	DW	058ccH
	DW	058cdH
	DW	058ceH
	DW	058cfH
	DW	058d0H
	DW	058d2H
	DW	058d3H
	DW	058d4H
	DW	058d6H
	DW	058d7H
	DW	058d8H
	DW	058d9H
	DW	058daH
	DW	058dbH
	DW	058dcH
	DW	058ddH
	DW	058deH
	DW	058dfH
	DW	058e0H
	DW	058e1H
	DW	058e2H
	DW	058e3H
	DW	058e5H
	DW	058e6H
	DW	058e7H
	DW	058e8H
	DW	058e9H
	DW	058eaH
	DW	058edH
	DW	058efH
	DW	058f1H
	DW	058f2H
	DW	058f4H
	DW	058f5H
	DW	058f7H
	DW	058f8H
	DW	058faH
	DW	058fbH
	DW	058fcH
	DW	058fdH
	DW	058feH
	DW	058ffH
	DW	05900H
	DW	05901H
	DW	05903H
	DW	05905H
	DW	05906H
	DW	05908H
	DW	05909H
	DW	0590aH
	DW	0590bH
	DW	0590cH
	DW	0590eH
	DW	05910H
	DW	05911H
	DW	05912H
	DW	05913H
	DW	05917H
	DW	05918H
	DW	0591bH
	DW	0591dH
	DW	0591eH
	DW	05920H
	DW	05921H
	DW	05922H
	DW	05923H
	DW	05926H
	DW	05928H
	DW	0592cH
	DW	05930H
	DW	05932H
	DW	05933H
	DW	05935H
	DW	05936H
	DW	0593bH
	DW	0593dH
	DW	0593eH
	DW	0593fH
	DW	05940H
	DW	05943H
	DW	05945H
	DW	05946H
	DW	0594aH
	DW	0594cH
	DW	0594dH
	DW	05950H
	DW	05952H
	DW	05953H
	DW	05959H
	DW	0595bH
	DW	0595cH
	DW	0595dH
	DW	0595eH
	DW	0595fH
	DW	05961H
	DW	05963H
	DW	05964H
	DW	05966H
	DW	05967H
	DW	05968H
	DW	05969H
	DW	0596aH
	DW	0596bH
	DW	0596cH
	DW	0596dH
	DW	0596eH
	DW	0596fH
	DW	05970H
	DW	05971H
	DW	05972H
	DW	05975H
	DW	05977H
	DW	0597aH
	DW	0597bH
	DW	0597cH
	DW	0597eH
	DW	0597fH
	DW	05980H
	DW	05985H
	DW	05989H
	DW	0598bH
	DW	0598cH
	DW	0598eH
	DW	0598fH
	DW	05990H
	DW	05991H
	DW	05994H
	DW	05995H
	DW	05998H
	DW	0599aH
	DW	0599bH
	DW	0599cH
	DW	0599dH
	DW	0599fH
	DW	059a0H
	DW	059a1H
	DW	059a2H
	DW	059a6H
	DW	0fffeH
	DW	059a7H
	DW	059acH
	DW	059adH
	DW	059b0H
	DW	059b1H
	DW	059b3H
	DW	059b4H
	DW	059b5H
	DW	059b6H
	DW	059b7H
	DW	059b8H
	DW	059baH
	DW	059bcH
	DW	059bdH
	DW	059bfH
	DW	059c0H
	DW	059c1H
	DW	059c2H
	DW	059c3H
	DW	059c4H
	DW	059c5H
	DW	059c7H
	DW	059c8H
	DW	059c9H
	DW	059ccH
	DW	059cdH
	DW	059ceH
	DW	059cfH
	DW	059d5H
	DW	059d6H
	DW	059d9H
	DW	059dbH
	DW	059deH
	DW	059dfH
	DW	059e0H
	DW	059e1H
	DW	059e2H
	DW	059e4H
	DW	059e6H
	DW	059e7H
	DW	059e9H
	DW	059eaH
	DW	059ebH
	DW	059edH
	DW	059eeH
	DW	059efH
	DW	059f0H
	DW	059f1H
	DW	059f2H
	DW	059f3H
	DW	059f4H
	DW	059f5H
	DW	059f6H
	DW	059f7H
	DW	059f8H
	DW	059faH
	DW	059fcH
	DW	059fdH
	DW	059feH
	DW	05a00H
	DW	05a02H
	DW	05a0aH
	DW	05a0bH
	DW	05a0dH
	DW	05a0eH
	DW	05a0fH
	DW	05a10H
	DW	05a12H
	DW	05a14H
	DW	05a15H
	DW	05a16H
	DW	05a17H
	DW	05a19H
	DW	05a1aH
	DW	05a1bH
	DW	05a1dH
	DW	05a1eH
	DW	05a21H
	DW	05a22H
	DW	05a24H
	DW	05a26H
	DW	05a27H
	DW	05a28H
	DW	05a2aH
	DW	05a2bH
	DW	05a2cH
	DW	05a2dH
	DW	05a2eH
	DW	05a2fH
	DW	05a30H
	DW	05a33H
	DW	05a35H
	DW	05a37H
	DW	05a38H
	DW	05a39H
	DW	05a3aH
	DW	05a3bH
	DW	05a3dH
	DW	05a3eH
	DW	05a3fH
	DW	05a41H
	DW	05a42H
	DW	05a43H
	DW	05a44H
	DW	05a45H
	DW	05a47H
	DW	05a48H
	DW	05a4bH
	DW	05a4cH
	DW	05a4dH
	DW	05a4eH
	DW	05a4fH
	DW	05a50H
	DW	05a51H
	DW	05a52H
	DW	05a53H
	DW	05a54H
	DW	05a56H
	DW	05a57H
	DW	05a58H
	DW	05a59H
	DW	05a5bH
	DW	05a5cH
	DW	05a5dH
	DW	05a5eH
	DW	05a5fH
	DW	05a60H
	DW	05a61H
	DW	05a63H
	DW	05a64H
	DW	05a65H
	DW	05a66H
	DW	05a68H
	DW	05a69H
	DW	05a6bH
	DW	05a6cH
	DW	05a6dH
	DW	05a6eH
	DW	05a6fH
	DW	05a70H
	DW	05a71H
	DW	05a72H
	DW	05a73H
	DW	05a78H
	DW	05a79H
	DW	05a7bH
	DW	05a7cH
	DW	05a7dH
	DW	05a7eH
	DW	05a80H
	DW	05a81H
	DW	05a82H
	DW	05a83H
	DW	05a84H
	DW	05a85H
	DW	05a86H
	DW	05a87H
	DW	05a88H
	DW	05a89H
	DW	05a8aH
	DW	05a8bH
	DW	05a8cH
	DW	05a8dH
	DW	05a8eH
	DW	05a8fH
	DW	05a90H
	DW	05a91H
	DW	05a93H
	DW	05a94H
	DW	05a95H
	DW	05a96H
	DW	05a97H
	DW	05a98H
	DW	05a99H
	DW	05a9cH
	DW	05a9dH
	DW	05a9eH
	DW	05a9fH
	DW	05aa0H
	DW	05aa1H
	DW	05aa2H
	DW	05aa3H
	DW	05aa4H
	DW	05aa5H
	DW	05aa6H
	DW	05aa7H
	DW	05aa8H
	DW	05aa9H
	DW	05aabH
	DW	05aacH
	DW	0fffeH
	DW	05aadH
	DW	05aaeH
	DW	05aafH
	DW	05ab0H
	DW	05ab1H
	DW	05ab4H
	DW	05ab6H
	DW	05ab7H
	DW	05ab9H
	DW	05abaH
	DW	05abbH
	DW	05abcH
	DW	05abdH
	DW	05abfH
	DW	05ac0H
	DW	05ac3H
	DW	05ac4H
	DW	05ac5H
	DW	05ac6H
	DW	05ac7H
	DW	05ac8H
	DW	05acaH
	DW	05acbH
	DW	05acdH
	DW	05aceH
	DW	05acfH
	DW	05ad0H
	DW	05ad1H
	DW	05ad3H
	DW	05ad5H
	DW	05ad7H
	DW	05ad9H
	DW	05adaH
	DW	05adbH
	DW	05addH
	DW	05adeH
	DW	05adfH
	DW	05ae2H
	DW	05ae4H
	DW	05ae5H
	DW	05ae7H
	DW	05ae8H
	DW	05aeaH
	DW	05aecH
	DW	05aedH
	DW	05aeeH
	DW	05aefH
	DW	05af0H
	DW	05af2H
	DW	05af3H
	DW	05af4H
	DW	05af5H
	DW	05af6H
	DW	05af7H
	DW	05af8H
	DW	05af9H
	DW	05afaH
	DW	05afbH
	DW	05afcH
	DW	05afdH
	DW	05afeH
	DW	05affH
	DW	05b00H
	DW	05b01H
	DW	05b02H
	DW	05b03H
	DW	05b04H
	DW	05b05H
	DW	05b06H
	DW	05b07H
	DW	05b08H
	DW	05b0aH
	DW	05b0bH
	DW	05b0cH
	DW	05b0dH
	DW	05b0eH
	DW	05b0fH
	DW	05b10H
	DW	05b11H
	DW	05b12H
	DW	05b13H
	DW	05b14H
	DW	05b15H
	DW	05b18H
	DW	05b19H
	DW	05b1aH
	DW	05b1bH
	DW	05b1cH
	DW	05b1dH
	DW	05b1eH
	DW	05b1fH
	DW	05b20H
	DW	05b21H
	DW	05b22H
	DW	05b23H
	DW	05b24H
	DW	05b25H
	DW	05b26H
	DW	05b27H
	DW	05b28H
	DW	05b29H
	DW	05b2aH
	DW	05b2bH
	DW	05b2cH
	DW	05b2dH
	DW	05b2eH
	DW	05b2fH
	DW	05b30H
	DW	05b31H
	DW	05b33H
	DW	05b35H
	DW	05b36H
	DW	05b38H
	DW	05b39H
	DW	05b3aH
	DW	05b3bH
	DW	05b3cH
	DW	05b3dH
	DW	05b3eH
	DW	05b3fH
	DW	05b41H
	DW	05b42H
	DW	05b43H
	DW	05b44H
	DW	05b45H
	DW	05b46H
	DW	05b47H
	DW	05b48H
	DW	05b49H
	DW	05b4aH
	DW	05b4bH
	DW	05b4cH
	DW	05b4dH
	DW	05b4eH
	DW	05b4fH
	DW	05b52H
	DW	05b56H
	DW	05b5eH
	DW	05b60H
	DW	05b61H
	DW	05b67H
	DW	05b68H
	DW	05b6bH
	DW	05b6dH
	DW	05b6eH
	DW	05b6fH
	DW	05b72H
	DW	05b74H
	DW	05b76H
	DW	05b77H
	DW	05b78H
	DW	05b79H
	DW	05b7bH
	DW	05b7cH
	DW	05b7eH
	DW	05b7fH
	DW	05b82H
	DW	05b86H
	DW	05b8aH
	DW	05b8dH
	DW	05b8eH
	DW	05b90H
	DW	05b91H
	DW	05b92H
	DW	05b94H
	DW	05b96H
	DW	05b9fH
	DW	05ba7H
	DW	05ba8H
	DW	05ba9H
	DW	05bacH
	DW	05badH
	DW	05baeH
	DW	05bafH
	DW	05bb1H
	DW	05bb2H
	DW	05bb7H
	DW	05bbaH
	DW	05bbbH
	DW	05bbcH
	DW	05bc0H
	DW	05bc1H
	DW	05bc3H
	DW	05bc8H
	DW	05bc9H
	DW	05bcaH
	DW	05bcbH
	DW	05bcdH
	DW	05bceH
	DW	05bcfH
	DW	0fffeH
	DW	05bd1H
	DW	05bd4H
	DW	05bd5H
	DW	05bd6H
	DW	05bd7H
	DW	05bd8H
	DW	05bd9H
	DW	05bdaH
	DW	05bdbH
	DW	05bdcH
	DW	05be0H
	DW	05be2H
	DW	05be3H
	DW	05be6H
	DW	05be7H
	DW	05be9H
	DW	05beaH
	DW	05bebH
	DW	05becH
	DW	05bedH
	DW	05befH
	DW	05bf1H
	DW	05bf2H
	DW	05bf3H
	DW	05bf4H
	DW	05bf5H
	DW	05bf6H
	DW	05bf7H
	DW	05bfdH
	DW	05bfeH
	DW	05c00H
	DW	05c02H
	DW	05c03H
	DW	05c05H
	DW	05c07H
	DW	05c08H
	DW	05c0bH
	DW	05c0cH
	DW	05c0dH
	DW	05c0eH
	DW	05c10H
	DW	05c12H
	DW	05c13H
	DW	05c17H
	DW	05c19H
	DW	05c1bH
	DW	05c1eH
	DW	05c1fH
	DW	05c20H
	DW	05c21H
	DW	05c23H
	DW	05c26H
	DW	05c28H
	DW	05c29H
	DW	05c2aH
	DW	05c2bH
	DW	05c2dH
	DW	05c2eH
	DW	05c2fH
	DW	05c30H
	DW	05c32H
	DW	05c33H
	DW	05c35H
	DW	05c36H
	DW	05c37H
	DW	05c43H
	DW	05c44H
	DW	05c46H
	DW	05c47H
	DW	05c4cH
	DW	05c4dH
	DW	05c52H
	DW	05c53H
	DW	05c54H
	DW	05c56H
	DW	05c57H
	DW	05c58H
	DW	05c5aH
	DW	05c5bH
	DW	05c5cH
	DW	05c5dH
	DW	05c5fH
	DW	05c62H
	DW	05c64H
	DW	05c67H
	DW	05c68H
	DW	05c69H
	DW	05c6aH
	DW	05c6bH
	DW	05c6cH
	DW	05c6dH
	DW	05c70H
	DW	05c72H
	DW	05c73H
	DW	05c74H
	DW	05c75H
	DW	05c76H
	DW	05c77H
	DW	05c78H
	DW	05c7bH
	DW	05c7cH
	DW	05c7dH
	DW	05c7eH
	DW	05c80H
	DW	05c83H
	DW	05c84H
	DW	05c85H
	DW	05c86H
	DW	05c87H
	DW	05c89H
	DW	05c8aH
	DW	05c8bH
	DW	05c8eH
	DW	05c8fH
	DW	05c92H
	DW	05c93H
	DW	05c95H
	DW	05c9dH
	DW	05c9eH
	DW	05c9fH
	DW	05ca0H
	DW	05ca1H
	DW	05ca4H
	DW	05ca5H
	DW	05ca6H
	DW	05ca7H
	DW	05ca8H
	DW	05caaH
	DW	05caeH
	DW	05cafH
	DW	05cb0H
	DW	05cb2H
	DW	05cb4H
	DW	05cb6H
	DW	05cb9H
	DW	05cbaH
	DW	05cbbH
	DW	05cbcH
	DW	05cbeH
	DW	05cc0H
	DW	05cc2H
	DW	05cc3H
	DW	05cc5H
	DW	05cc6H
	DW	05cc7H
	DW	05cc8H
	DW	05cc9H
	DW	05ccaH
	DW	05cccH
	DW	05ccdH
	DW	05cceH
	DW	05ccfH
	DW	05cd0H
	DW	05cd1H
	DW	05cd3H
	DW	05cd4H
	DW	05cd5H
	DW	05cd6H
	DW	05cd7H
	DW	05cd8H
	DW	05cdaH
	DW	05cdbH
	DW	05cdcH
	DW	05cddH
	DW	05cdeH
	DW	05cdfH
	DW	05ce0H
	DW	05ce2H
	DW	05ce3H
	DW	05ce7H
	DW	05ce9H
	DW	05cebH
	DW	05cecH
	DW	05ceeH
	DW	05cefH
	DW	05cf1H
	DW	05cf2H
	DW	05cf3H
	DW	05cf4H
	DW	05cf5H
	DW	05cf6H
	DW	05cf7H
	DW	05cf8H
	DW	05cf9H
	DW	05cfaH
	DW	05cfcH
	DW	05cfdH
	DW	05cfeH
	DW	05cffH
	DW	05d00H
	DW	0fffeH
	DW	05d01H
	DW	05d04H
	DW	05d05H
	DW	05d08H
	DW	05d09H
	DW	05d0aH
	DW	05d0bH
	DW	05d0cH
	DW	05d0dH
	DW	05d0fH
	DW	05d10H
	DW	05d11H
	DW	05d12H
	DW	05d13H
	DW	05d15H
	DW	05d17H
	DW	05d18H
	DW	05d19H
	DW	05d1aH
	DW	05d1cH
	DW	05d1dH
	DW	05d1fH
	DW	05d20H
	DW	05d21H
	DW	05d22H
	DW	05d23H
	DW	05d25H
	DW	05d28H
	DW	05d2aH
	DW	05d2bH
	DW	05d2cH
	DW	05d2fH
	DW	05d30H
	DW	05d31H
	DW	05d32H
	DW	05d33H
	DW	05d35H
	DW	05d36H
	DW	05d37H
	DW	05d38H
	DW	05d39H
	DW	05d3aH
	DW	05d3bH
	DW	05d3cH
	DW	05d3fH
	DW	05d40H
	DW	05d41H
	DW	05d42H
	DW	05d43H
	DW	05d44H
	DW	05d45H
	DW	05d46H
	DW	05d48H
	DW	05d49H
	DW	05d4dH
	DW	05d4eH
	DW	05d4fH
	DW	05d50H
	DW	05d51H
	DW	05d52H
	DW	05d53H
	DW	05d54H
	DW	05d55H
	DW	05d56H
	DW	05d57H
	DW	05d59H
	DW	05d5aH
	DW	05d5cH
	DW	05d5eH
	DW	05d5fH
	DW	05d60H
	DW	05d61H
	DW	05d62H
	DW	05d63H
	DW	05d64H
	DW	05d65H
	DW	05d66H
	DW	05d67H
	DW	05d68H
	DW	05d6aH
	DW	05d6dH
	DW	05d6eH
	DW	05d70H
	DW	05d71H
	DW	05d72H
	DW	05d73H
	DW	05d75H
	DW	05d76H
	DW	05d77H
	DW	05d78H
	DW	05d79H
	DW	05d7aH
	DW	05d7bH
	DW	05d7cH
	DW	05d7dH
	DW	05d7eH
	DW	05d7fH
	DW	05d80H
	DW	05d81H
	DW	05d83H
	DW	05d84H
	DW	05d85H
	DW	05d86H
	DW	05d87H
	DW	05d88H
	DW	05d89H
	DW	05d8aH
	DW	05d8bH
	DW	05d8cH
	DW	05d8dH
	DW	05d8eH
	DW	05d8fH
	DW	05d90H
	DW	05d91H
	DW	05d92H
	DW	05d93H
	DW	05d94H
	DW	05d95H
	DW	05d96H
	DW	05d97H
	DW	05d98H
	DW	05d9aH
	DW	05d9bH
	DW	05d9cH
	DW	05d9eH
	DW	05d9fH
	DW	05da0H
	DW	05da1H
	DW	05da2H
	DW	05da3H
	DW	05da4H
	DW	05da5H
	DW	05da6H
	DW	05da7H
	DW	05da8H
	DW	05da9H
	DW	05daaH
	DW	05dabH
	DW	05dacH
	DW	05dadH
	DW	05daeH
	DW	05dafH
	DW	05db0H
	DW	05db1H
	DW	05db2H
	DW	05db3H
	DW	05db4H
	DW	05db5H
	DW	05db6H
	DW	05db8H
	DW	05db9H
	DW	05dbaH
	DW	05dbbH
	DW	05dbcH
	DW	05dbdH
	DW	05dbeH
	DW	05dbfH
	DW	05dc0H
	DW	05dc1H
	DW	05dc2H
	DW	05dc3H
	DW	05dc4H
	DW	05dc6H
	DW	05dc7H
	DW	05dc8H
	DW	05dc9H
	DW	05dcaH
	DW	05dcbH
	DW	05dccH
	DW	05dceH
	DW	05dcfH
	DW	05dd0H
	DW	05dd1H
	DW	05dd2H
	DW	05dd3H
	DW	05dd4H
	DW	05dd5H
	DW	05dd6H
	DW	05dd7H
	DW	05dd8H
	DW	05dd9H
	DW	05ddaH
	DW	05ddcH
	DW	05ddfH
	DW	05de0H
	DW	05de3H
	DW	05de4H
	DW	05deaH
	DW	05decH
	DW	05dedH
	DW	0fffeH
	DW	05df0H
	DW	05df5H
	DW	05df6H
	DW	05df8H
	DW	05df9H
	DW	05dfaH
	DW	05dfbH
	DW	05dfcH
	DW	05dffH
	DW	05e00H
	DW	05e04H
	DW	05e07H
	DW	05e09H
	DW	05e0aH
	DW	05e0bH
	DW	05e0dH
	DW	05e0eH
	DW	05e12H
	DW	05e13H
	DW	05e17H
	DW	05e1eH
	DW	05e1fH
	DW	05e20H
	DW	05e21H
	DW	05e22H
	DW	05e23H
	DW	05e24H
	DW	05e25H
	DW	05e28H
	DW	05e29H
	DW	05e2aH
	DW	05e2bH
	DW	05e2cH
	DW	05e2fH
	DW	05e30H
	DW	05e32H
	DW	05e33H
	DW	05e34H
	DW	05e35H
	DW	05e36H
	DW	05e39H
	DW	05e3aH
	DW	05e3eH
	DW	05e3fH
	DW	05e40H
	DW	05e41H
	DW	05e43H
	DW	05e46H
	DW	05e47H
	DW	05e48H
	DW	05e49H
	DW	05e4aH
	DW	05e4bH
	DW	05e4dH
	DW	05e4eH
	DW	05e4fH
	DW	05e50H
	DW	05e51H
	DW	05e52H
	DW	05e53H
	DW	05e56H
	DW	05e57H
	DW	05e58H
	DW	05e59H
	DW	05e5aH
	DW	05e5cH
	DW	05e5dH
	DW	05e5fH
	DW	05e60H
	DW	05e63H
	DW	05e64H
	DW	05e65H
	DW	05e66H
	DW	05e67H
	DW	05e68H
	DW	05e69H
	DW	05e6aH
	DW	05e6bH
	DW	05e6cH
	DW	05e6dH
	DW	05e6eH
	DW	05e6fH
	DW	05e70H
	DW	05e71H
	DW	05e75H
	DW	05e77H
	DW	05e79H
	DW	05e7eH
	DW	05e81H
	DW	05e82H
	DW	05e83H
	DW	05e85H
	DW	05e88H
	DW	05e89H
	DW	05e8cH
	DW	05e8dH
	DW	05e8eH
	DW	05e92H
	DW	05e98H
	DW	05e9bH
	DW	05e9dH
	DW	05ea1H
	DW	05ea2H
	DW	05ea3H
	DW	05ea4H
	DW	05ea8H
	DW	05ea9H
	DW	05eaaH
	DW	05eabH
	DW	05eacH
	DW	05eaeH
	DW	05eafH
	DW	05eb0H
	DW	05eb1H
	DW	05eb2H
	DW	05eb4H
	DW	05ebaH
	DW	05ebbH
	DW	05ebcH
	DW	05ebdH
	DW	05ebfH
	DW	05ec0H
	DW	05ec1H
	DW	05ec2H
	DW	05ec3H
	DW	05ec4H
	DW	05ec5H
	DW	05ec6H
	DW	05ec7H
	DW	05ec8H
	DW	05ecbH
	DW	05eccH
	DW	05ecdH
	DW	05eceH
	DW	05ecfH
	DW	05ed0H
	DW	05ed4H
	DW	05ed5H
	DW	05ed7H
	DW	05ed8H
	DW	05ed9H
	DW	05edaH
	DW	05edcH
	DW	05eddH
	DW	05edeH
	DW	05edfH
	DW	05ee0H
	DW	05ee1H
	DW	05ee2H
	DW	05ee3H
	DW	05ee4H
	DW	05ee5H
	DW	05ee6H
	DW	05ee7H
	DW	05ee9H
	DW	05eebH
	DW	05eecH
	DW	05eedH
	DW	05eeeH
	DW	05eefH
	DW	05ef0H
	DW	05ef1H
	DW	05ef2H
	DW	05ef3H
	DW	05ef5H
	DW	05ef8H
	DW	05ef9H
	DW	05efbH
	DW	05efcH
	DW	05efdH
	DW	05f05H
	DW	05f06H
	DW	05f07H
	DW	05f09H
	DW	05f0cH
	DW	05f0dH
	DW	05f0eH
	DW	05f10H
	DW	05f12H
	DW	05f14H
	DW	05f16H
	DW	05f19H
	DW	05f1aH
	DW	05f1cH
	DW	05f1dH
	DW	05f1eH
	DW	05f21H
	DW	05f22H
	DW	05f23H
	DW	05f24H
	DW	0fffeH
	DW	05f28H
	DW	05f2bH
	DW	05f2cH
	DW	05f2eH
	DW	05f30H
	DW	05f32H
	DW	05f33H
	DW	05f34H
	DW	05f35H
	DW	05f36H
	DW	05f37H
	DW	05f38H
	DW	05f3bH
	DW	05f3dH
	DW	05f3eH
	DW	05f3fH
	DW	05f41H
	DW	05f42H
	DW	05f43H
	DW	05f44H
	DW	05f45H
	DW	05f46H
	DW	05f47H
	DW	05f48H
	DW	05f49H
	DW	05f4aH
	DW	05f4bH
	DW	05f4cH
	DW	05f4dH
	DW	05f4eH
	DW	05f4fH
	DW	05f51H
	DW	05f54H
	DW	05f59H
	DW	05f5aH
	DW	05f5bH
	DW	05f5cH
	DW	05f5eH
	DW	05f5fH
	DW	05f60H
	DW	05f63H
	DW	05f65H
	DW	05f67H
	DW	05f68H
	DW	05f6bH
	DW	05f6eH
	DW	05f6fH
	DW	05f72H
	DW	05f74H
	DW	05f75H
	DW	05f76H
	DW	05f78H
	DW	05f7aH
	DW	05f7dH
	DW	05f7eH
	DW	05f7fH
	DW	05f83H
	DW	05f86H
	DW	05f8dH
	DW	05f8eH
	DW	05f8fH
	DW	05f91H
	DW	05f93H
	DW	05f94H
	DW	05f96H
	DW	05f9aH
	DW	05f9bH
	DW	05f9dH
	DW	05f9eH
	DW	05f9fH
	DW	05fa0H
	DW	05fa2H
	DW	05fa3H
	DW	05fa4H
	DW	05fa5H
	DW	05fa6H
	DW	05fa7H
	DW	05fa9H
	DW	05fabH
	DW	05facH
	DW	05fafH
	DW	05fb0H
	DW	05fb1H
	DW	05fb2H
	DW	05fb3H
	DW	05fb4H
	DW	05fb6H
	DW	05fb8H
	DW	05fb9H
	DW	05fbaH
	DW	05fbbH
	DW	05fbeH
	DW	05fbfH
	DW	05fc0H
	DW	05fc1H
	DW	05fc2H
	DW	05fc7H
	DW	05fc8H
	DW	05fcaH
	DW	05fcbH
	DW	05fceH
	DW	05fd3H
	DW	05fd4H
	DW	05fd5H
	DW	05fdaH
	DW	05fdbH
	DW	05fdcH
	DW	05fdeH
	DW	05fdfH
	DW	05fe2H
	DW	05fe3H
	DW	05fe5H
	DW	05fe6H
	DW	05fe8H
	DW	05fe9H
	DW	05fecH
	DW	05fefH
	DW	05ff0H
	DW	05ff2H
	DW	05ff3H
	DW	05ff4H
	DW	05ff6H
	DW	05ff7H
	DW	05ff9H
	DW	05ffaH
	DW	05ffcH
	DW	06007H
	DW	06008H
	DW	06009H
	DW	0600bH
	DW	0600cH
	DW	06010H
	DW	06011H
	DW	06013H
	DW	06017H
	DW	06018H
	DW	0601aH
	DW	0601eH
	DW	0601fH
	DW	06022H
	DW	06023H
	DW	06024H
	DW	0602cH
	DW	0602dH
	DW	0602eH
	DW	06030H
	DW	06031H
	DW	06032H
	DW	06033H
	DW	06034H
	DW	06036H
	DW	06037H
	DW	06038H
	DW	06039H
	DW	0603aH
	DW	0603dH
	DW	0603eH
	DW	06040H
	DW	06044H
	DW	06045H
	DW	06046H
	DW	06047H
	DW	06048H
	DW	06049H
	DW	0604aH
	DW	0604cH
	DW	0604eH
	DW	0604fH
	DW	06051H
	DW	06053H
	DW	06054H
	DW	06056H
	DW	06057H
	DW	06058H
	DW	0605bH
	DW	0605cH
	DW	0605eH
	DW	0605fH
	DW	06060H
	DW	06061H
	DW	06065H
	DW	06066H
	DW	0606eH
	DW	06071H
	DW	06072H
	DW	06074H
	DW	06075H
	DW	06077H
	DW	0607eH
	DW	06080H
	DW	0fffeH
	DW	06081H
	DW	06082H
	DW	06085H
	DW	06086H
	DW	06087H
	DW	06088H
	DW	0608aH
	DW	0608bH
	DW	0608eH
	DW	0608fH
	DW	06090H
	DW	06091H
	DW	06093H
	DW	06095H
	DW	06097H
	DW	06098H
	DW	06099H
	DW	0609cH
	DW	0609eH
	DW	060a1H
	DW	060a2H
	DW	060a4H
	DW	060a5H
	DW	060a7H
	DW	060a9H
	DW	060aaH
	DW	060aeH
	DW	060b0H
	DW	060b3H
	DW	060b5H
	DW	060b6H
	DW	060b7H
	DW	060b9H
	DW	060baH
	DW	060bdH
	DW	060beH
	DW	060bfH
	DW	060c0H
	DW	060c1H
	DW	060c2H
	DW	060c3H
	DW	060c4H
	DW	060c7H
	DW	060c8H
	DW	060c9H
	DW	060ccH
	DW	060cdH
	DW	060ceH
	DW	060cfH
	DW	060d0H
	DW	060d2H
	DW	060d3H
	DW	060d4H
	DW	060d6H
	DW	060d7H
	DW	060d9H
	DW	060dbH
	DW	060deH
	DW	060e1H
	DW	060e2H
	DW	060e3H
	DW	060e4H
	DW	060e5H
	DW	060eaH
	DW	060f1H
	DW	060f2H
	DW	060f5H
	DW	060f7H
	DW	060f8H
	DW	060fbH
	DW	060fcH
	DW	060fdH
	DW	060feH
	DW	060ffH
	DW	06102H
	DW	06103H
	DW	06104H
	DW	06105H
	DW	06107H
	DW	0610aH
	DW	0610bH
	DW	0610cH
	DW	06110H
	DW	06111H
	DW	06112H
	DW	06113H
	DW	06114H
	DW	06116H
	DW	06117H
	DW	06118H
	DW	06119H
	DW	0611bH
	DW	0611cH
	DW	0611dH
	DW	0611eH
	DW	06121H
	DW	06122H
	DW	06125H
	DW	06128H
	DW	06129H
	DW	0612aH
	DW	0612cH
	DW	0612dH
	DW	0612eH
	DW	0612fH
	DW	06130H
	DW	06131H
	DW	06132H
	DW	06133H
	DW	06134H
	DW	06135H
	DW	06136H
	DW	06137H
	DW	06138H
	DW	06139H
	DW	0613aH
	DW	0613bH
	DW	0613cH
	DW	0613dH
	DW	0613eH
	DW	06140H
	DW	06141H
	DW	06142H
	DW	06143H
	DW	06144H
	DW	06145H
	DW	06146H
	DW	06147H
	DW	06149H
	DW	0614bH
	DW	0614dH
	DW	0614fH
	DW	06150H
	DW	06152H
	DW	06153H
	DW	06154H
	DW	06156H
	DW	06157H
	DW	06158H
	DW	06159H
	DW	0615aH
	DW	0615bH
	DW	0615cH
	DW	0615eH
	DW	0615fH
	DW	06160H
	DW	06161H
	DW	06163H
	DW	06164H
	DW	06165H
	DW	06166H
	DW	06169H
	DW	0616aH
	DW	0616bH
	DW	0616cH
	DW	0616dH
	DW	0616eH
	DW	0616fH
	DW	06171H
	DW	06172H
	DW	06173H
	DW	06174H
	DW	06176H
	DW	06178H
	DW	06179H
	DW	0617aH
	DW	0617bH
	DW	0617cH
	DW	0617dH
	DW	0617eH
	DW	0617fH
	DW	06180H
	DW	06181H
	DW	06182H
	DW	06183H
	DW	06184H
	DW	06185H
	DW	06186H
	DW	06187H
	DW	06188H
	DW	06189H
	DW	0618aH
	DW	0618cH
	DW	0618dH
	DW	0618fH
	DW	06190H
	DW	06191H
	DW	06192H
	DW	06193H
	DW	06195H
	DW	0fffeH
	DW	06196H
	DW	06197H
	DW	06198H
	DW	06199H
	DW	0619aH
	DW	0619bH
	DW	0619cH
	DW	0619eH
	DW	0619fH
	DW	061a0H
	DW	061a1H
	DW	061a2H
	DW	061a3H
	DW	061a4H
	DW	061a5H
	DW	061a6H
	DW	061aaH
	DW	061abH
	DW	061adH
	DW	061aeH
	DW	061afH
	DW	061b0H
	DW	061b1H
	DW	061b2H
	DW	061b3H
	DW	061b4H
	DW	061b5H
	DW	061b6H
	DW	061b8H
	DW	061b9H
	DW	061baH
	DW	061bbH
	DW	061bcH
	DW	061bdH
	DW	061bfH
	DW	061c0H
	DW	061c1H
	DW	061c3H
	DW	061c4H
	DW	061c5H
	DW	061c6H
	DW	061c7H
	DW	061c9H
	DW	061ccH
	DW	061cdH
	DW	061ceH
	DW	061cfH
	DW	061d0H
	DW	061d3H
	DW	061d5H
	DW	061d6H
	DW	061d7H
	DW	061d8H
	DW	061d9H
	DW	061daH
	DW	061dbH
	DW	061dcH
	DW	061ddH
	DW	061deH
	DW	061dfH
	DW	061e0H
	DW	061e1H
	DW	061e2H
	DW	061e3H
	DW	061e4H
	DW	061e5H
	DW	061e7H
	DW	061e8H
	DW	061e9H
	DW	061eaH
	DW	061ebH
	DW	061ecH
	DW	061edH
	DW	061eeH
	DW	061efH
	DW	061f0H
	DW	061f1H
	DW	061f2H
	DW	061f3H
	DW	061f4H
	DW	061f6H
	DW	061f7H
	DW	061f8H
	DW	061f9H
	DW	061faH
	DW	061fbH
	DW	061fcH
	DW	061fdH
	DW	061feH
	DW	06200H
	DW	06201H
	DW	06202H
	DW	06203H
	DW	06204H
	DW	06205H
	DW	06207H
	DW	06209H
	DW	06213H
	DW	06214H
	DW	06219H
	DW	0621cH
	DW	0621dH
	DW	0621eH
	DW	06220H
	DW	06223H
	DW	06226H
	DW	06227H
	DW	06228H
	DW	06229H
	DW	0622bH
	DW	0622dH
	DW	0622fH
	DW	06230H
	DW	06231H
	DW	06232H
	DW	06235H
	DW	06236H
	DW	06238H
	DW	06239H
	DW	0623aH
	DW	0623bH
	DW	0623cH
	DW	06242H
	DW	06244H
	DW	06245H
	DW	06246H
	DW	0624aH
	DW	0624fH
	DW	06250H
	DW	06255H
	DW	06256H
	DW	06257H
	DW	06259H
	DW	0625aH
	DW	0625cH
	DW	0625dH
	DW	0625eH
	DW	0625fH
	DW	06260H
	DW	06261H
	DW	06262H
	DW	06264H
	DW	06265H
	DW	06268H
	DW	06271H
	DW	06272H
	DW	06274H
	DW	06275H
	DW	06277H
	DW	06278H
	DW	0627aH
	DW	0627bH
	DW	0627dH
	DW	06281H
	DW	06282H
	DW	06283H
	DW	06285H
	DW	06286H
	DW	06287H
	DW	06288H
	DW	0628bH
	DW	0628cH
	DW	0628dH
	DW	0628eH
	DW	0628fH
	DW	06290H
	DW	06294H
	DW	06299H
	DW	0629cH
	DW	0629dH
	DW	0629eH
	DW	062a3H
	DW	062a6H
	DW	062a7H
	DW	062a9H
	DW	062aaH
	DW	062adH
	DW	062aeH
	DW	062afH
	DW	062b0H
	DW	062b2H
	DW	062b3H
	DW	062b4H
	DW	062b6H
	DW	062b7H
	DW	062b8H
	DW	062baH
	DW	062beH
	DW	062c0H
	DW	062c1H
	DW	0fffeH
	DW	062c3H
	DW	062cbH
	DW	062cfH
	DW	062d1H
	DW	062d5H
	DW	062ddH
	DW	062deH
	DW	062e0H
	DW	062e1H
	DW	062e4H
	DW	062eaH
	DW	062ebH
	DW	062f0H
	DW	062f2H
	DW	062f5H
	DW	062f8H
	DW	062f9H
	DW	062faH
	DW	062fbH
	DW	06300H
	DW	06303H
	DW	06304H
	DW	06305H
	DW	06306H
	DW	0630aH
	DW	0630bH
	DW	0630cH
	DW	0630dH
	DW	0630fH
	DW	06310H
	DW	06312H
	DW	06313H
	DW	06314H
	DW	06315H
	DW	06317H
	DW	06318H
	DW	06319H
	DW	0631cH
	DW	06326H
	DW	06327H
	DW	06329H
	DW	0632cH
	DW	0632dH
	DW	0632eH
	DW	06330H
	DW	06331H
	DW	06333H
	DW	06334H
	DW	06335H
	DW	06336H
	DW	06337H
	DW	06338H
	DW	0633bH
	DW	0633cH
	DW	0633eH
	DW	0633fH
	DW	06340H
	DW	06341H
	DW	06344H
	DW	06347H
	DW	06348H
	DW	0634aH
	DW	06351H
	DW	06352H
	DW	06353H
	DW	06354H
	DW	06356H
	DW	06357H
	DW	06358H
	DW	06359H
	DW	0635aH
	DW	0635bH
	DW	0635cH
	DW	0635dH
	DW	06360H
	DW	06364H
	DW	06365H
	DW	06366H
	DW	06368H
	DW	0636aH
	DW	0636bH
	DW	0636cH
	DW	0636fH
	DW	06370H
	DW	06372H
	DW	06373H
	DW	06374H
	DW	06375H
	DW	06378H
	DW	06379H
	DW	0637cH
	DW	0637dH
	DW	0637eH
	DW	0637fH
	DW	06381H
	DW	06383H
	DW	06384H
	DW	06385H
	DW	06386H
	DW	0638bH
	DW	0638dH
	DW	06391H
	DW	06393H
	DW	06394H
	DW	06395H
	DW	06397H
	DW	06399H
	DW	0639aH
	DW	0639bH
	DW	0639cH
	DW	0639dH
	DW	0639eH
	DW	0639fH
	DW	063a1H
	DW	063a4H
	DW	063a6H
	DW	063abH
	DW	063afH
	DW	063b1H
	DW	063b2H
	DW	063b5H
	DW	063b6H
	DW	063b9H
	DW	063bbH
	DW	063bdH
	DW	063bfH
	DW	063c0H
	DW	063c1H
	DW	063c2H
	DW	063c3H
	DW	063c5H
	DW	063c7H
	DW	063c8H
	DW	063caH
	DW	063cbH
	DW	063ccH
	DW	063d1H
	DW	063d3H
	DW	063d4H
	DW	063d5H
	DW	063d7H
	DW	063d8H
	DW	063d9H
	DW	063daH
	DW	063dbH
	DW	063dcH
	DW	063ddH
	DW	063dfH
	DW	063e2H
	DW	063e4H
	DW	063e5H
	DW	063e6H
	DW	063e7H
	DW	063e8H
	DW	063ebH
	DW	063ecH
	DW	063eeH
	DW	063efH
	DW	063f0H
	DW	063f1H
	DW	063f3H
	DW	063f5H
	DW	063f7H
	DW	063f9H
	DW	063faH
	DW	063fbH
	DW	063fcH
	DW	063feH
	DW	06403H
	DW	06404H
	DW	06406H
	DW	06407H
	DW	06408H
	DW	06409H
	DW	0640aH
	DW	0640dH
	DW	0640eH
	DW	06411H
	DW	06412H
	DW	06415H
	DW	06416H
	DW	06417H
	DW	06418H
	DW	06419H
	DW	0641aH
	DW	0641dH
	DW	0641fH
	DW	06422H
	DW	06423H
	DW	06424H
	DW	0fffeH
	DW	06425H
	DW	06427H
	DW	06428H
	DW	06429H
	DW	0642bH
	DW	0642eH
	DW	0642fH
	DW	06430H
	DW	06431H
	DW	06432H
	DW	06433H
	DW	06435H
	DW	06436H
	DW	06437H
	DW	06438H
	DW	06439H
	DW	0643bH
	DW	0643cH
	DW	0643eH
	DW	06440H
	DW	06442H
	DW	06443H
	DW	06449H
	DW	0644bH
	DW	0644cH
	DW	0644dH
	DW	0644eH
	DW	0644fH
	DW	06450H
	DW	06451H
	DW	06453H
	DW	06455H
	DW	06456H
	DW	06457H
	DW	06459H
	DW	0645aH
	DW	0645bH
	DW	0645cH
	DW	0645dH
	DW	0645fH
	DW	06460H
	DW	06461H
	DW	06462H
	DW	06463H
	DW	06464H
	DW	06465H
	DW	06466H
	DW	06468H
	DW	0646aH
	DW	0646bH
	DW	0646cH
	DW	0646eH
	DW	0646fH
	DW	06470H
	DW	06471H
	DW	06472H
	DW	06473H
	DW	06474H
	DW	06475H
	DW	06476H
	DW	06477H
	DW	0647bH
	DW	0647cH
	DW	0647dH
	DW	0647eH
	DW	0647fH
	DW	06480H
	DW	06481H
	DW	06483H
	DW	06486H
	DW	06488H
	DW	06489H
	DW	0648aH
	DW	0648bH
	DW	0648cH
	DW	0648dH
	DW	0648eH
	DW	0648fH
	DW	06490H
	DW	06493H
	DW	06494H
	DW	06497H
	DW	06498H
	DW	0649aH
	DW	0649bH
	DW	0649cH
	DW	0649dH
	DW	0649fH
	DW	064a0H
	DW	064a1H
	DW	064a2H
	DW	064a3H
	DW	064a5H
	DW	064a6H
	DW	064a7H
	DW	064a8H
	DW	064aaH
	DW	064abH
	DW	064afH
	DW	064b1H
	DW	064b2H
	DW	064b3H
	DW	064b4H
	DW	064b6H
	DW	064b9H
	DW	064bbH
	DW	064bdH
	DW	064beH
	DW	064bfH
	DW	064c1H
	DW	064c3H
	DW	064c4H
	DW	064c6H
	DW	064c7H
	DW	064c8H
	DW	064c9H
	DW	064caH
	DW	064cbH
	DW	064ccH
	DW	064cfH
	DW	064d1H
	DW	064d3H
	DW	064d4H
	DW	064d5H
	DW	064d6H
	DW	064d9H
	DW	064daH
	DW	064dbH
	DW	064dcH
	DW	064ddH
	DW	064dfH
	DW	064e0H
	DW	064e1H
	DW	064e3H
	DW	064e5H
	DW	064e7H
	DW	064e8H
	DW	064e9H
	DW	064eaH
	DW	064ebH
	DW	064ecH
	DW	064edH
	DW	064eeH
	DW	064efH
	DW	064f0H
	DW	064f1H
	DW	064f2H
	DW	064f3H
	DW	064f4H
	DW	064f5H
	DW	064f6H
	DW	064f7H
	DW	064f8H
	DW	064f9H
	DW	064faH
	DW	064fbH
	DW	064fcH
	DW	064fdH
	DW	064feH
	DW	064ffH
	DW	06501H
	DW	06502H
	DW	06503H
	DW	06504H
	DW	06505H
	DW	06506H
	DW	06507H
	DW	06508H
	DW	0650aH
	DW	0650bH
	DW	0650cH
	DW	0650dH
	DW	0650eH
	DW	0650fH
	DW	06510H
	DW	06511H
	DW	06513H
	DW	06514H
	DW	06515H
	DW	06516H
	DW	06517H
	DW	06519H
	DW	0651aH
	DW	0651bH
	DW	0651cH
	DW	0651dH
	DW	0651eH
	DW	0651fH
	DW	06520H
	DW	06521H
	DW	0fffeH
	DW	06522H
	DW	06523H
	DW	06524H
	DW	06526H
	DW	06527H
	DW	06528H
	DW	06529H
	DW	0652aH
	DW	0652cH
	DW	0652dH
	DW	06530H
	DW	06531H
	DW	06532H
	DW	06533H
	DW	06537H
	DW	0653aH
	DW	0653cH
	DW	0653dH
	DW	06540H
	DW	06541H
	DW	06542H
	DW	06543H
	DW	06544H
	DW	06546H
	DW	06547H
	DW	0654aH
	DW	0654bH
	DW	0654dH
	DW	0654eH
	DW	06550H
	DW	06552H
	DW	06553H
	DW	06554H
	DW	06557H
	DW	06558H
	DW	0655aH
	DW	0655cH
	DW	0655fH
	DW	06560H
	DW	06561H
	DW	06564H
	DW	06565H
	DW	06567H
	DW	06568H
	DW	06569H
	DW	0656aH
	DW	0656dH
	DW	0656eH
	DW	0656fH
	DW	06571H
	DW	06573H
	DW	06575H
	DW	06576H
	DW	06578H
	DW	06579H
	DW	0657aH
	DW	0657bH
	DW	0657cH
	DW	0657dH
	DW	0657eH
	DW	0657fH
	DW	06580H
	DW	06581H
	DW	06582H
	DW	06583H
	DW	06584H
	DW	06585H
	DW	06586H
	DW	06588H
	DW	06589H
	DW	0658aH
	DW	0658dH
	DW	0658eH
	DW	0658fH
	DW	06592H
	DW	06594H
	DW	06595H
	DW	06596H
	DW	06598H
	DW	0659aH
	DW	0659dH
	DW	0659eH
	DW	065a0H
	DW	065a2H
	DW	065a3H
	DW	065a6H
	DW	065a8H
	DW	065aaH
	DW	065acH
	DW	065aeH
	DW	065b1H
	DW	065b2H
	DW	065b3H
	DW	065b4H
	DW	065b5H
	DW	065b6H
	DW	065b7H
	DW	065b8H
	DW	065baH
	DW	065bbH
	DW	065beH
	DW	065bfH
	DW	065c0H
	DW	065c2H
	DW	065c7H
	DW	065c8H
	DW	065c9H
	DW	065caH
	DW	065cdH
	DW	065d0H
	DW	065d1H
	DW	065d3H
	DW	065d4H
	DW	065d5H
	DW	065d8H
	DW	065d9H
	DW	065daH
	DW	065dbH
	DW	065dcH
	DW	065ddH
	DW	065deH
	DW	065dfH
	DW	065e1H
	DW	065e3H
	DW	065e4H
	DW	065eaH
	DW	065ebH
	DW	065f2H
	DW	065f3H
	DW	065f4H
	DW	065f5H
	DW	065f8H
	DW	065f9H
	DW	065fbH
	DW	065fcH
	DW	065fdH
	DW	065feH
	DW	065ffH
	DW	06601H
	DW	06604H
	DW	06605H
	DW	06607H
	DW	06608H
	DW	06609H
	DW	0660bH
	DW	0660dH
	DW	06610H
	DW	06611H
	DW	06612H
	DW	06616H
	DW	06617H
	DW	06618H
	DW	0661aH
	DW	0661bH
	DW	0661cH
	DW	0661eH
	DW	06621H
	DW	06622H
	DW	06623H
	DW	06624H
	DW	06626H
	DW	06629H
	DW	0662aH
	DW	0662bH
	DW	0662cH
	DW	0662eH
	DW	06630H
	DW	06632H
	DW	06633H
	DW	06637H
	DW	06638H
	DW	06639H
	DW	0663aH
	DW	0663bH
	DW	0663dH
	DW	0663fH
	DW	06640H
	DW	06642H
	DW	06644H
	DW	06645H
	DW	06646H
	DW	06647H
	DW	06648H
	DW	06649H
	DW	0664aH
	DW	0664dH
	DW	0664eH
	DW	06650H
	DW	06651H
	DW	06658H
	DW	0fffeH
	DW	06659H
	DW	0665bH
	DW	0665cH
	DW	0665dH
	DW	0665eH
	DW	06660H
	DW	06662H
	DW	06663H
	DW	06665H
	DW	06667H
	DW	06669H
	DW	0666aH
	DW	0666bH
	DW	0666cH
	DW	0666dH
	DW	06671H
	DW	06672H
	DW	06673H
	DW	06675H
	DW	06678H
	DW	06679H
	DW	0667bH
	DW	0667cH
	DW	0667dH
	DW	0667fH
	DW	06680H
	DW	06681H
	DW	06683H
	DW	06685H
	DW	06686H
	DW	06688H
	DW	06689H
	DW	0668aH
	DW	0668bH
	DW	0668dH
	DW	0668eH
	DW	0668fH
	DW	06690H
	DW	06692H
	DW	06693H
	DW	06694H
	DW	06695H
	DW	06698H
	DW	06699H
	DW	0669aH
	DW	0669bH
	DW	0669cH
	DW	0669eH
	DW	0669fH
	DW	066a0H
	DW	066a1H
	DW	066a2H
	DW	066a3H
	DW	066a4H
	DW	066a5H
	DW	066a6H
	DW	066a9H
	DW	066aaH
	DW	066abH
	DW	066acH
	DW	066adH
	DW	066afH
	DW	066b0H
	DW	066b1H
	DW	066b2H
	DW	066b3H
	DW	066b5H
	DW	066b6H
	DW	066b7H
	DW	066b8H
	DW	066baH
	DW	066bbH
	DW	066bcH
	DW	066bdH
	DW	066bfH
	DW	066c0H
	DW	066c1H
	DW	066c2H
	DW	066c3H
	DW	066c4H
	DW	066c5H
	DW	066c6H
	DW	066c7H
	DW	066c8H
	DW	066c9H
	DW	066caH
	DW	066cbH
	DW	066ccH
	DW	066cdH
	DW	066ceH
	DW	066cfH
	DW	066d0H
	DW	066d1H
	DW	066d2H
	DW	066d3H
	DW	066d4H
	DW	066d5H
	DW	066d6H
	DW	066d7H
	DW	066d8H
	DW	066daH
	DW	066deH
	DW	066dfH
	DW	066e0H
	DW	066e1H
	DW	066e2H
	DW	066e3H
	DW	066e4H
	DW	066e5H
	DW	066e7H
	DW	066e8H
	DW	066eaH
	DW	066ebH
	DW	066ecH
	DW	066edH
	DW	066eeH
	DW	066efH
	DW	066f1H
	DW	066f5H
	DW	066f6H
	DW	066f8H
	DW	066faH
	DW	066fbH
	DW	066fdH
	DW	06701H
	DW	06702H
	DW	06703H
	DW	06704H
	DW	06705H
	DW	06706H
	DW	06707H
	DW	0670cH
	DW	0670eH
	DW	0670fH
	DW	06711H
	DW	06712H
	DW	06713H
	DW	06716H
	DW	06718H
	DW	06719H
	DW	0671aH
	DW	0671cH
	DW	0671eH
	DW	06720H
	DW	06721H
	DW	06722H
	DW	06723H
	DW	06724H
	DW	06725H
	DW	06727H
	DW	06729H
	DW	0672eH
	DW	06730H
	DW	06732H
	DW	06733H
	DW	06736H
	DW	06737H
	DW	06738H
	DW	06739H
	DW	0673bH
	DW	0673cH
	DW	0673eH
	DW	0673fH
	DW	06741H
	DW	06744H
	DW	06745H
	DW	06747H
	DW	0674aH
	DW	0674bH
	DW	0674dH
	DW	06752H
	DW	06754H
	DW	06755H
	DW	06757H
	DW	06758H
	DW	06759H
	DW	0675aH
	DW	0675bH
	DW	0675dH
	DW	06762H
	DW	06763H
	DW	06764H
	DW	06766H
	DW	06767H
	DW	0676bH
	DW	0676cH
	DW	0676eH
	DW	06771H
	DW	06774H
	DW	06776H
	DW	0fffeH
	DW	06778H
	DW	06779H
	DW	0677aH
	DW	0677bH
	DW	0677dH
	DW	06780H
	DW	06782H
	DW	06783H
	DW	06785H
	DW	06786H
	DW	06788H
	DW	0678aH
	DW	0678cH
	DW	0678dH
	DW	0678eH
	DW	0678fH
	DW	06791H
	DW	06792H
	DW	06793H
	DW	06794H
	DW	06796H
	DW	06799H
	DW	0679bH
	DW	0679fH
	DW	067a0H
	DW	067a1H
	DW	067a4H
	DW	067a6H
	DW	067a9H
	DW	067acH
	DW	067aeH
	DW	067b1H
	DW	067b2H
	DW	067b4H
	DW	067b9H
	DW	067baH
	DW	067bbH
	DW	067bcH
	DW	067bdH
	DW	067beH
	DW	067bfH
	DW	067c0H
	DW	067c2H
	DW	067c5H
	DW	067c6H
	DW	067c7H
	DW	067c8H
	DW	067c9H
	DW	067caH
	DW	067cbH
	DW	067ccH
	DW	067cdH
	DW	067ceH
	DW	067d5H
	DW	067d6H
	DW	067d7H
	DW	067dbH
	DW	067dfH
	DW	067e1H
	DW	067e3H
	DW	067e4H
	DW	067e6H
	DW	067e7H
	DW	067e8H
	DW	067eaH
	DW	067ebH
	DW	067edH
	DW	067eeH
	DW	067f2H
	DW	067f5H
	DW	067f6H
	DW	067f7H
	DW	067f8H
	DW	067f9H
	DW	067faH
	DW	067fbH
	DW	067fcH
	DW	067feH
	DW	06801H
	DW	06802H
	DW	06803H
	DW	06804H
	DW	06806H
	DW	0680dH
	DW	06810H
	DW	06812H
	DW	06814H
	DW	06815H
	DW	06818H
	DW	06819H
	DW	0681aH
	DW	0681bH
	DW	0681cH
	DW	0681eH
	DW	0681fH
	DW	06820H
	DW	06822H
	DW	06823H
	DW	06824H
	DW	06825H
	DW	06826H
	DW	06827H
	DW	06828H
	DW	0682bH
	DW	0682cH
	DW	0682dH
	DW	0682eH
	DW	0682fH
	DW	06830H
	DW	06831H
	DW	06834H
	DW	06835H
	DW	06836H
	DW	0683aH
	DW	0683bH
	DW	0683fH
	DW	06847H
	DW	0684bH
	DW	0684dH
	DW	0684fH
	DW	06852H
	DW	06856H
	DW	06857H
	DW	06858H
	DW	06859H
	DW	0685aH
	DW	0685bH
	DW	0685cH
	DW	0685dH
	DW	0685eH
	DW	0685fH
	DW	0686aH
	DW	0686cH
	DW	0686dH
	DW	0686eH
	DW	0686fH
	DW	06870H
	DW	06871H
	DW	06872H
	DW	06873H
	DW	06875H
	DW	06878H
	DW	06879H
	DW	0687aH
	DW	0687bH
	DW	0687cH
	DW	0687dH
	DW	0687eH
	DW	0687fH
	DW	06880H
	DW	06882H
	DW	06884H
	DW	06887H
	DW	06888H
	DW	06889H
	DW	0688aH
	DW	0688bH
	DW	0688cH
	DW	0688dH
	DW	0688eH
	DW	06890H
	DW	06891H
	DW	06892H
	DW	06894H
	DW	06895H
	DW	06896H
	DW	06898H
	DW	06899H
	DW	0689aH
	DW	0689bH
	DW	0689cH
	DW	0689dH
	DW	0689eH
	DW	0689fH
	DW	068a0H
	DW	068a1H
	DW	068a3H
	DW	068a4H
	DW	068a5H
	DW	068a9H
	DW	068aaH
	DW	068abH
	DW	068acH
	DW	068aeH
	DW	068b1H
	DW	068b2H
	DW	068b4H
	DW	068b6H
	DW	068b7H
	DW	068b8H
	DW	0fffeH
	DW	068b9H
	DW	068baH
	DW	068bbH
	DW	068bcH
	DW	068bdH
	DW	068beH
	DW	068bfH
	DW	068c1H
	DW	068c3H
	DW	068c4H
	DW	068c5H
	DW	068c6H
	DW	068c7H
	DW	068c8H
	DW	068caH
	DW	068ccH
	DW	068ceH
	DW	068cfH
	DW	068d0H
	DW	068d1H
	DW	068d3H
	DW	068d4H
	DW	068d6H
	DW	068d7H
	DW	068d9H
	DW	068dbH
	DW	068dcH
	DW	068ddH
	DW	068deH
	DW	068dfH
	DW	068e1H
	DW	068e2H
	DW	068e4H
	DW	068e5H
	DW	068e6H
	DW	068e7H
	DW	068e8H
	DW	068e9H
	DW	068eaH
	DW	068ebH
	DW	068ecH
	DW	068edH
	DW	068efH
	DW	068f2H
	DW	068f3H
	DW	068f4H
	DW	068f6H
	DW	068f7H
	DW	068f8H
	DW	068fbH
	DW	068fdH
	DW	068feH
	DW	068ffH
	DW	06900H
	DW	06902H
	DW	06903H
	DW	06904H
	DW	06906H
	DW	06907H
	DW	06908H
	DW	06909H
	DW	0690aH
	DW	0690cH
	DW	0690fH
	DW	06911H
	DW	06913H
	DW	06914H
	DW	06915H
	DW	06916H
	DW	06917H
	DW	06918H
	DW	06919H
	DW	0691aH
	DW	0691bH
	DW	0691cH
	DW	0691dH
	DW	0691eH
	DW	06921H
	DW	06922H
	DW	06923H
	DW	06925H
	DW	06926H
	DW	06927H
	DW	06928H
	DW	06929H
	DW	0692aH
	DW	0692bH
	DW	0692cH
	DW	0692eH
	DW	0692fH
	DW	06931H
	DW	06932H
	DW	06933H
	DW	06935H
	DW	06936H
	DW	06937H
	DW	06938H
	DW	0693aH
	DW	0693bH
	DW	0693cH
	DW	0693eH
	DW	06940H
	DW	06941H
	DW	06943H
	DW	06944H
	DW	06945H
	DW	06946H
	DW	06947H
	DW	06948H
	DW	06949H
	DW	0694aH
	DW	0694bH
	DW	0694cH
	DW	0694dH
	DW	0694eH
	DW	0694fH
	DW	06950H
	DW	06951H
	DW	06952H
	DW	06953H
	DW	06955H
	DW	06956H
	DW	06958H
	DW	06959H
	DW	0695bH
	DW	0695cH
	DW	0695fH
	DW	06961H
	DW	06962H
	DW	06964H
	DW	06965H
	DW	06967H
	DW	06968H
	DW	06969H
	DW	0696aH
	DW	0696cH
	DW	0696dH
	DW	0696fH
	DW	06970H
	DW	06972H
	DW	06973H
	DW	06974H
	DW	06975H
	DW	06976H
	DW	0697aH
	DW	0697bH
	DW	0697dH
	DW	0697eH
	DW	0697fH
	DW	06981H
	DW	06983H
	DW	06985H
	DW	0698aH
	DW	0698bH
	DW	0698cH
	DW	0698eH
	DW	0698fH
	DW	06990H
	DW	06991H
	DW	06992H
	DW	06993H
	DW	06996H
	DW	06997H
	DW	06999H
	DW	0699aH
	DW	0699dH
	DW	0699eH
	DW	0699fH
	DW	069a0H
	DW	069a1H
	DW	069a2H
	DW	069a3H
	DW	069a4H
	DW	069a5H
	DW	069a6H
	DW	069a9H
	DW	069aaH
	DW	069acH
	DW	069aeH
	DW	069afH
	DW	069b0H
	DW	069b2H
	DW	069b3H
	DW	069b5H
	DW	069b6H
	DW	069b8H
	DW	069b9H
	DW	069baH
	DW	069bcH
	DW	069bdH
	DW	0fffeH
	DW	069beH
	DW	069bfH
	DW	069c0H
	DW	069c2H
	DW	069c3H
	DW	069c4H
	DW	069c5H
	DW	069c6H
	DW	069c7H
	DW	069c8H
	DW	069c9H
	DW	069cbH
	DW	069cdH
	DW	069cfH
	DW	069d1H
	DW	069d2H
	DW	069d3H
	DW	069d5H
	DW	069d6H
	DW	069d7H
	DW	069d8H
	DW	069d9H
	DW	069daH
	DW	069dcH
	DW	069ddH
	DW	069deH
	DW	069e1H
	DW	069e2H
	DW	069e3H
	DW	069e4H
	DW	069e5H
	DW	069e6H
	DW	069e7H
	DW	069e8H
	DW	069e9H
	DW	069eaH
	DW	069ebH
	DW	069ecH
	DW	069eeH
	DW	069efH
	DW	069f0H
	DW	069f1H
	DW	069f3H
	DW	069f4H
	DW	069f5H
	DW	069f6H
	DW	069f7H
	DW	069f8H
	DW	069f9H
	DW	069faH
	DW	069fbH
	DW	069fcH
	DW	069feH
	DW	06a00H
	DW	06a01H
	DW	06a02H
	DW	06a03H
	DW	06a04H
	DW	06a05H
	DW	06a06H
	DW	06a07H
	DW	06a08H
	DW	06a09H
	DW	06a0bH
	DW	06a0cH
	DW	06a0dH
	DW	06a0eH
	DW	06a0fH
	DW	06a10H
	DW	06a11H
	DW	06a12H
	DW	06a13H
	DW	06a14H
	DW	06a15H
	DW	06a16H
	DW	06a19H
	DW	06a1aH
	DW	06a1bH
	DW	06a1cH
	DW	06a1dH
	DW	06a1eH
	DW	06a20H
	DW	06a22H
	DW	06a23H
	DW	06a24H
	DW	06a25H
	DW	06a26H
	DW	06a27H
	DW	06a29H
	DW	06a2bH
	DW	06a2cH
	DW	06a2dH
	DW	06a2eH
	DW	06a30H
	DW	06a32H
	DW	06a33H
	DW	06a34H
	DW	06a36H
	DW	06a37H
	DW	06a38H
	DW	06a39H
	DW	06a3aH
	DW	06a3bH
	DW	06a3cH
	DW	06a3fH
	DW	06a40H
	DW	06a41H
	DW	06a42H
	DW	06a43H
	DW	06a45H
	DW	06a46H
	DW	06a48H
	DW	06a49H
	DW	06a4aH
	DW	06a4bH
	DW	06a4cH
	DW	06a4dH
	DW	06a4eH
	DW	06a4fH
	DW	06a51H
	DW	06a52H
	DW	06a53H
	DW	06a54H
	DW	06a55H
	DW	06a56H
	DW	06a57H
	DW	06a5aH
	DW	06a5cH
	DW	06a5dH
	DW	06a5eH
	DW	06a5fH
	DW	06a60H
	DW	06a62H
	DW	06a63H
	DW	06a64H
	DW	06a66H
	DW	06a67H
	DW	06a68H
	DW	06a69H
	DW	06a6aH
	DW	06a6bH
	DW	06a6cH
	DW	06a6dH
	DW	06a6eH
	DW	06a6fH
	DW	06a70H
	DW	06a72H
	DW	06a73H
	DW	06a74H
	DW	06a75H
	DW	06a76H
	DW	06a77H
	DW	06a78H
	DW	06a7aH
	DW	06a7bH
	DW	06a7dH
	DW	06a7eH
	DW	06a7fH
	DW	06a81H
	DW	06a82H
	DW	06a83H
	DW	06a85H
	DW	06a86H
	DW	06a87H
	DW	06a88H
	DW	06a89H
	DW	06a8aH
	DW	06a8bH
	DW	06a8cH
	DW	06a8dH
	DW	06a8fH
	DW	06a92H
	DW	06a93H
	DW	06a94H
	DW	06a95H
	DW	06a96H
	DW	06a98H
	DW	06a99H
	DW	06a9aH
	DW	06a9bH
	DW	06a9cH
	DW	06a9dH
	DW	06a9eH
	DW	06a9fH
	DW	06aa1H
	DW	06aa2H
	DW	06aa3H
	DW	06aa4H
	DW	06aa5H
	DW	06aa6H
	DW	0fffeH
	DW	06aa7H
	DW	06aa8H
	DW	06aaaH
	DW	06aadH
	DW	06aaeH
	DW	06aafH
	DW	06ab0H
	DW	06ab1H
	DW	06ab2H
	DW	06ab3H
	DW	06ab4H
	DW	06ab5H
	DW	06ab6H
	DW	06ab7H
	DW	06ab8H
	DW	06ab9H
	DW	06abaH
	DW	06abbH
	DW	06abcH
	DW	06abdH
	DW	06abeH
	DW	06abfH
	DW	06ac0H
	DW	06ac1H
	DW	06ac2H
	DW	06ac3H
	DW	06ac4H
	DW	06ac5H
	DW	06ac6H
	DW	06ac7H
	DW	06ac8H
	DW	06ac9H
	DW	06acaH
	DW	06acbH
	DW	06accH
	DW	06acdH
	DW	06aceH
	DW	06acfH
	DW	06ad0H
	DW	06ad1H
	DW	06ad2H
	DW	06ad3H
	DW	06ad4H
	DW	06ad5H
	DW	06ad6H
	DW	06ad7H
	DW	06ad8H
	DW	06ad9H
	DW	06adaH
	DW	06adbH
	DW	06adcH
	DW	06addH
	DW	06adeH
	DW	06adfH
	DW	06ae0H
	DW	06ae1H
	DW	06ae2H
	DW	06ae3H
	DW	06ae4H
	DW	06ae5H
	DW	06ae6H
	DW	06ae7H
	DW	06ae8H
	DW	06ae9H
	DW	06aeaH
	DW	06aebH
	DW	06aecH
	DW	06aedH
	DW	06aeeH
	DW	06aefH
	DW	06af0H
	DW	06af1H
	DW	06af2H
	DW	06af3H
	DW	06af4H
	DW	06af5H
	DW	06af6H
	DW	06af7H
	DW	06af8H
	DW	06af9H
	DW	06afaH
	DW	06afbH
	DW	06afcH
	DW	06afdH
	DW	06afeH
	DW	06affH
	DW	06b00H
	DW	06b01H
	DW	06b02H
	DW	06b03H
	DW	06b04H
	DW	06b05H
	DW	06b06H
	DW	06b07H
	DW	06b08H
	DW	06b09H
	DW	06b0aH
	DW	06b0bH
	DW	06b0cH
	DW	06b0dH
	DW	06b0eH
	DW	06b0fH
	DW	06b10H
	DW	06b11H
	DW	06b12H
	DW	06b13H
	DW	06b14H
	DW	06b15H
	DW	06b16H
	DW	06b17H
	DW	06b18H
	DW	06b19H
	DW	06b1aH
	DW	06b1bH
	DW	06b1cH
	DW	06b1dH
	DW	06b1eH
	DW	06b1fH
	DW	06b25H
	DW	06b26H
	DW	06b28H
	DW	06b29H
	DW	06b2aH
	DW	06b2bH
	DW	06b2cH
	DW	06b2dH
	DW	06b2eH
	DW	06b2fH
	DW	06b30H
	DW	06b31H
	DW	06b33H
	DW	06b34H
	DW	06b35H
	DW	06b36H
	DW	06b38H
	DW	06b3bH
	DW	06b3cH
	DW	06b3dH
	DW	06b3fH
	DW	06b40H
	DW	06b41H
	DW	06b42H
	DW	06b44H
	DW	06b45H
	DW	06b48H
	DW	06b4aH
	DW	06b4bH
	DW	06b4dH
	DW	06b4eH
	DW	06b4fH
	DW	06b50H
	DW	06b51H
	DW	06b52H
	DW	06b53H
	DW	06b54H
	DW	06b55H
	DW	06b56H
	DW	06b57H
	DW	06b58H
	DW	06b5aH
	DW	06b5bH
	DW	06b5cH
	DW	06b5dH
	DW	06b5eH
	DW	06b5fH
	DW	06b60H
	DW	06b61H
	DW	06b68H
	DW	06b69H
	DW	06b6bH
	DW	06b6cH
	DW	06b6dH
	DW	06b6eH
	DW	06b6fH
	DW	06b70H
	DW	06b71H
	DW	06b72H
	DW	06b73H
	DW	06b74H
	DW	06b75H
	DW	06b76H
	DW	06b77H
	DW	06b78H
	DW	06b7aH
	DW	06b7dH
	DW	06b7eH
	DW	06b7fH
	DW	06b80H
	DW	06b85H
	DW	06b88H
	DW	0fffeH
	DW	06b8cH
	DW	06b8eH
	DW	06b8fH
	DW	06b90H
	DW	06b91H
	DW	06b94H
	DW	06b95H
	DW	06b97H
	DW	06b98H
	DW	06b99H
	DW	06b9cH
	DW	06b9dH
	DW	06b9eH
	DW	06b9fH
	DW	06ba0H
	DW	06ba2H
	DW	06ba3H
	DW	06ba4H
	DW	06ba5H
	DW	06ba6H
	DW	06ba7H
	DW	06ba8H
	DW	06ba9H
	DW	06babH
	DW	06bacH
	DW	06badH
	DW	06baeH
	DW	06bafH
	DW	06bb0H
	DW	06bb1H
	DW	06bb2H
	DW	06bb6H
	DW	06bb8H
	DW	06bb9H
	DW	06bbaH
	DW	06bbbH
	DW	06bbcH
	DW	06bbdH
	DW	06bbeH
	DW	06bc0H
	DW	06bc3H
	DW	06bc4H
	DW	06bc6H
	DW	06bc7H
	DW	06bc8H
	DW	06bc9H
	DW	06bcaH
	DW	06bccH
	DW	06bceH
	DW	06bd0H
	DW	06bd1H
	DW	06bd8H
	DW	06bdaH
	DW	06bdcH
	DW	06bddH
	DW	06bdeH
	DW	06bdfH
	DW	06be0H
	DW	06be2H
	DW	06be3H
	DW	06be4H
	DW	06be5H
	DW	06be6H
	DW	06be7H
	DW	06be8H
	DW	06be9H
	DW	06becH
	DW	06bedH
	DW	06beeH
	DW	06bf0H
	DW	06bf1H
	DW	06bf2H
	DW	06bf4H
	DW	06bf6H
	DW	06bf7H
	DW	06bf8H
	DW	06bfaH
	DW	06bfbH
	DW	06bfcH
	DW	06bfeH
	DW	06bffH
	DW	06c00H
	DW	06c01H
	DW	06c02H
	DW	06c03H
	DW	06c04H
	DW	06c08H
	DW	06c09H
	DW	06c0aH
	DW	06c0bH
	DW	06c0cH
	DW	06c0eH
	DW	06c12H
	DW	06c17H
	DW	06c1cH
	DW	06c1dH
	DW	06c1eH
	DW	06c20H
	DW	06c23H
	DW	06c25H
	DW	06c2bH
	DW	06c2cH
	DW	06c2dH
	DW	06c31H
	DW	06c33H
	DW	06c36H
	DW	06c37H
	DW	06c39H
	DW	06c3aH
	DW	06c3bH
	DW	06c3cH
	DW	06c3eH
	DW	06c3fH
	DW	06c43H
	DW	06c44H
	DW	06c45H
	DW	06c48H
	DW	06c4bH
	DW	06c4cH
	DW	06c4dH
	DW	06c4eH
	DW	06c4fH
	DW	06c51H
	DW	06c52H
	DW	06c53H
	DW	06c56H
	DW	06c58H
	DW	06c59H
	DW	06c5aH
	DW	06c62H
	DW	06c63H
	DW	06c65H
	DW	06c66H
	DW	06c67H
	DW	06c6bH
	DW	06c6cH
	DW	06c6dH
	DW	06c6eH
	DW	06c6fH
	DW	06c71H
	DW	06c73H
	DW	06c75H
	DW	06c77H
	DW	06c78H
	DW	06c7aH
	DW	06c7bH
	DW	06c7cH
	DW	06c7fH
	DW	06c80H
	DW	06c84H
	DW	06c87H
	DW	06c8aH
	DW	06c8bH
	DW	06c8dH
	DW	06c8eH
	DW	06c91H
	DW	06c92H
	DW	06c95H
	DW	06c96H
	DW	06c97H
	DW	06c98H
	DW	06c9aH
	DW	06c9cH
	DW	06c9dH
	DW	06c9eH
	DW	06ca0H
	DW	06ca2H
	DW	06ca8H
	DW	06cacH
	DW	06cafH
	DW	06cb0H
	DW	06cb4H
	DW	06cb5H
	DW	06cb6H
	DW	06cb7H
	DW	06cbaH
	DW	06cc0H
	DW	06cc1H
	DW	06cc2H
	DW	06cc3H
	DW	06cc6H
	DW	06cc7H
	DW	06cc8H
	DW	06ccbH
	DW	06ccdH
	DW	06cceH
	DW	06ccfH
	DW	06cd1H
	DW	06cd2H
	DW	06cd8H
	DW	0fffeH
	DW	06cd9H
	DW	06cdaH
	DW	06cdcH
	DW	06cddH
	DW	06cdfH
	DW	06ce4H
	DW	06ce6H
	DW	06ce7H
	DW	06ce9H
	DW	06cecH
	DW	06cedH
	DW	06cf2H
	DW	06cf4H
	DW	06cf9H
	DW	06cffH
	DW	06d00H
	DW	06d02H
	DW	06d03H
	DW	06d05H
	DW	06d06H
	DW	06d08H
	DW	06d09H
	DW	06d0aH
	DW	06d0dH
	DW	06d0fH
	DW	06d10H
	DW	06d11H
	DW	06d13H
	DW	06d14H
	DW	06d15H
	DW	06d16H
	DW	06d18H
	DW	06d1cH
	DW	06d1dH
	DW	06d1fH
	DW	06d20H
	DW	06d21H
	DW	06d22H
	DW	06d23H
	DW	06d24H
	DW	06d26H
	DW	06d28H
	DW	06d29H
	DW	06d2cH
	DW	06d2dH
	DW	06d2fH
	DW	06d30H
	DW	06d34H
	DW	06d36H
	DW	06d37H
	DW	06d38H
	DW	06d3aH
	DW	06d3fH
	DW	06d40H
	DW	06d42H
	DW	06d44H
	DW	06d49H
	DW	06d4cH
	DW	06d50H
	DW	06d55H
	DW	06d56H
	DW	06d57H
	DW	06d58H
	DW	06d5bH
	DW	06d5dH
	DW	06d5fH
	DW	06d61H
	DW	06d62H
	DW	06d64H
	DW	06d65H
	DW	06d67H
	DW	06d68H
	DW	06d6bH
	DW	06d6cH
	DW	06d6dH
	DW	06d70H
	DW	06d71H
	DW	06d72H
	DW	06d73H
	DW	06d75H
	DW	06d76H
	DW	06d79H
	DW	06d7aH
	DW	06d7bH
	DW	06d7dH
	DW	06d7eH
	DW	06d7fH
	DW	06d80H
	DW	06d81H
	DW	06d83H
	DW	06d84H
	DW	06d86H
	DW	06d87H
	DW	06d8aH
	DW	06d8bH
	DW	06d8dH
	DW	06d8fH
	DW	06d90H
	DW	06d92H
	DW	06d96H
	DW	06d97H
	DW	06d98H
	DW	06d99H
	DW	06d9aH
	DW	06d9cH
	DW	06da2H
	DW	06da5H
	DW	06dacH
	DW	06dadH
	DW	06db0H
	DW	06db1H
	DW	06db3H
	DW	06db4H
	DW	06db6H
	DW	06db7H
	DW	06db9H
	DW	06dbaH
	DW	06dbbH
	DW	06dbcH
	DW	06dbdH
	DW	06dbeH
	DW	06dc1H
	DW	06dc2H
	DW	06dc3H
	DW	06dc8H
	DW	06dc9H
	DW	06dcaH
	DW	06dcdH
	DW	06dceH
	DW	06dcfH
	DW	06dd0H
	DW	06dd2H
	DW	06dd3H
	DW	06dd4H
	DW	06dd5H
	DW	06dd7H
	DW	06ddaH
	DW	06ddbH
	DW	06ddcH
	DW	06ddfH
	DW	06de2H
	DW	06de3H
	DW	06de5H
	DW	06de7H
	DW	06de8H
	DW	06de9H
	DW	06deaH
	DW	06dedH
	DW	06defH
	DW	06df0H
	DW	06df2H
	DW	06df4H
	DW	06df5H
	DW	06df6H
	DW	06df8H
	DW	06dfaH
	DW	06dfdH
	DW	06dfeH
	DW	06dffH
	DW	06e00H
	DW	06e01H
	DW	06e02H
	DW	06e03H
	DW	06e04H
	DW	06e06H
	DW	06e07H
	DW	06e08H
	DW	06e09H
	DW	06e0bH
	DW	06e0fH
	DW	06e12H
	DW	06e13H
	DW	06e15H
	DW	06e18H
	DW	06e19H
	DW	06e1bH
	DW	06e1cH
	DW	06e1eH
	DW	06e1fH
	DW	06e22H
	DW	06e26H
	DW	06e27H
	DW	06e28H
	DW	06e2aH
	DW	06e2cH
	DW	06e2eH
	DW	06e30H
	DW	06e31H
	DW	06e33H
	DW	06e35H
	DW	0fffeH
	DW	06e36H
	DW	06e37H
	DW	06e39H
	DW	06e3bH
	DW	06e3cH
	DW	06e3dH
	DW	06e3eH
	DW	06e3fH
	DW	06e40H
	DW	06e41H
	DW	06e42H
	DW	06e45H
	DW	06e46H
	DW	06e47H
	DW	06e48H
	DW	06e49H
	DW	06e4aH
	DW	06e4bH
	DW	06e4cH
	DW	06e4fH
	DW	06e50H
	DW	06e51H
	DW	06e52H
	DW	06e55H
	DW	06e57H
	DW	06e59H
	DW	06e5aH
	DW	06e5cH
	DW	06e5dH
	DW	06e5eH
	DW	06e60H
	DW	06e61H
	DW	06e62H
	DW	06e63H
	DW	06e64H
	DW	06e65H
	DW	06e66H
	DW	06e67H
	DW	06e68H
	DW	06e69H
	DW	06e6aH
	DW	06e6cH
	DW	06e6dH
	DW	06e6fH
	DW	06e70H
	DW	06e71H
	DW	06e72H
	DW	06e73H
	DW	06e74H
	DW	06e75H
	DW	06e76H
	DW	06e77H
	DW	06e78H
	DW	06e79H
	DW	06e7aH
	DW	06e7bH
	DW	06e7cH
	DW	06e7dH
	DW	06e80H
	DW	06e81H
	DW	06e82H
	DW	06e84H
	DW	06e87H
	DW	06e88H
	DW	06e8aH
	DW	06e8bH
	DW	06e8cH
	DW	06e8dH
	DW	06e8eH
	DW	06e91H
	DW	06e92H
	DW	06e93H
	DW	06e94H
	DW	06e95H
	DW	06e96H
	DW	06e97H
	DW	06e99H
	DW	06e9aH
	DW	06e9bH
	DW	06e9dH
	DW	06e9eH
	DW	06ea0H
	DW	06ea1H
	DW	06ea3H
	DW	06ea4H
	DW	06ea6H
	DW	06ea8H
	DW	06ea9H
	DW	06eabH
	DW	06eacH
	DW	06eadH
	DW	06eaeH
	DW	06eb0H
	DW	06eb3H
	DW	06eb5H
	DW	06eb8H
	DW	06eb9H
	DW	06ebcH
	DW	06ebeH
	DW	06ebfH
	DW	06ec0H
	DW	06ec3H
	DW	06ec4H
	DW	06ec5H
	DW	06ec6H
	DW	06ec8H
	DW	06ec9H
	DW	06ecaH
	DW	06eccH
	DW	06ecdH
	DW	06eceH
	DW	06ed0H
	DW	06ed2H
	DW	06ed6H
	DW	06ed8H
	DW	06ed9H
	DW	06edbH
	DW	06edcH
	DW	06eddH
	DW	06ee3H
	DW	06ee7H
	DW	06eeaH
	DW	06eebH
	DW	06eecH
	DW	06eedH
	DW	06eeeH
	DW	06eefH
	DW	06ef0H
	DW	06ef1H
	DW	06ef2H
	DW	06ef3H
	DW	06ef5H
	DW	06ef6H
	DW	06ef7H
	DW	06ef8H
	DW	06efaH
	DW	06efbH
	DW	06efcH
	DW	06efdH
	DW	06efeH
	DW	06effH
	DW	06f00H
	DW	06f01H
	DW	06f03H
	DW	06f04H
	DW	06f05H
	DW	06f07H
	DW	06f08H
	DW	06f0aH
	DW	06f0bH
	DW	06f0cH
	DW	06f0dH
	DW	06f0eH
	DW	06f10H
	DW	06f11H
	DW	06f12H
	DW	06f16H
	DW	06f17H
	DW	06f18H
	DW	06f19H
	DW	06f1aH
	DW	06f1bH
	DW	06f1cH
	DW	06f1dH
	DW	06f1eH
	DW	06f1fH
	DW	06f21H
	DW	06f22H
	DW	06f23H
	DW	06f25H
	DW	06f26H
	DW	06f27H
	DW	06f28H
	DW	06f2cH
	DW	06f2eH
	DW	06f30H
	DW	06f32H
	DW	06f34H
	DW	06f35H
	DW	06f37H
	DW	06f38H
	DW	06f39H
	DW	06f3aH
	DW	06f3bH
	DW	06f3cH
	DW	06f3dH
	DW	06f3fH
	DW	06f40H
	DW	06f41H
	DW	06f42H
	DW	0fffeH
	DW	06f43H
	DW	06f44H
	DW	06f45H
	DW	06f48H
	DW	06f49H
	DW	06f4aH
	DW	06f4cH
	DW	06f4eH
	DW	06f4fH
	DW	06f50H
	DW	06f51H
	DW	06f52H
	DW	06f53H
	DW	06f54H
	DW	06f55H
	DW	06f56H
	DW	06f57H
	DW	06f59H
	DW	06f5aH
	DW	06f5bH
	DW	06f5dH
	DW	06f5fH
	DW	06f60H
	DW	06f61H
	DW	06f63H
	DW	06f64H
	DW	06f65H
	DW	06f67H
	DW	06f68H
	DW	06f69H
	DW	06f6aH
	DW	06f6bH
	DW	06f6cH
	DW	06f6fH
	DW	06f70H
	DW	06f71H
	DW	06f73H
	DW	06f75H
	DW	06f76H
	DW	06f77H
	DW	06f79H
	DW	06f7bH
	DW	06f7dH
	DW	06f7eH
	DW	06f7fH
	DW	06f80H
	DW	06f81H
	DW	06f82H
	DW	06f83H
	DW	06f85H
	DW	06f86H
	DW	06f87H
	DW	06f8aH
	DW	06f8bH
	DW	06f8fH
	DW	06f90H
	DW	06f91H
	DW	06f92H
	DW	06f93H
	DW	06f94H
	DW	06f95H
	DW	06f96H
	DW	06f97H
	DW	06f98H
	DW	06f99H
	DW	06f9aH
	DW	06f9bH
	DW	06f9dH
	DW	06f9eH
	DW	06f9fH
	DW	06fa0H
	DW	06fa2H
	DW	06fa3H
	DW	06fa4H
	DW	06fa5H
	DW	06fa6H
	DW	06fa8H
	DW	06fa9H
	DW	06faaH
	DW	06fabH
	DW	06facH
	DW	06fadH
	DW	06faeH
	DW	06fafH
	DW	06fb0H
	DW	06fb1H
	DW	06fb2H
	DW	06fb4H
	DW	06fb5H
	DW	06fb7H
	DW	06fb8H
	DW	06fbaH
	DW	06fbbH
	DW	06fbcH
	DW	06fbdH
	DW	06fbeH
	DW	06fbfH
	DW	06fc1H
	DW	06fc3H
	DW	06fc4H
	DW	06fc5H
	DW	06fc6H
	DW	06fc7H
	DW	06fc8H
	DW	06fcaH
	DW	06fcbH
	DW	06fccH
	DW	06fcdH
	DW	06fceH
	DW	06fcfH
	DW	06fd0H
	DW	06fd3H
	DW	06fd4H
	DW	06fd5H
	DW	06fd6H
	DW	06fd7H
	DW	06fd8H
	DW	06fd9H
	DW	06fdaH
	DW	06fdbH
	DW	06fdcH
	DW	06fddH
	DW	06fdfH
	DW	06fe2H
	DW	06fe3H
	DW	06fe4H
	DW	06fe5H
	DW	06fe6H
	DW	06fe7H
	DW	06fe8H
	DW	06fe9H
	DW	06feaH
	DW	06febH
	DW	06fecH
	DW	06fedH
	DW	06ff0H
	DW	06ff1H
	DW	06ff2H
	DW	06ff3H
	DW	06ff4H
	DW	06ff5H
	DW	06ff6H
	DW	06ff7H
	DW	06ff8H
	DW	06ff9H
	DW	06ffaH
	DW	06ffbH
	DW	06ffcH
	DW	06ffdH
	DW	06ffeH
	DW	06fffH
	DW	07000H
	DW	07001H
	DW	07002H
	DW	07003H
	DW	07004H
	DW	07005H
	DW	07006H
	DW	07007H
	DW	07008H
	DW	07009H
	DW	0700aH
	DW	0700bH
	DW	0700cH
	DW	0700dH
	DW	0700eH
	DW	0700fH
	DW	07010H
	DW	07012H
	DW	07013H
	DW	07014H
	DW	07015H
	DW	07016H
	DW	07017H
	DW	07018H
	DW	07019H
	DW	0701cH
	DW	0701dH
	DW	0701eH
	DW	0701fH
	DW	07020H
	DW	07021H
	DW	07022H
	DW	07024H
	DW	07025H
	DW	07026H
	DW	07027H
	DW	07028H
	DW	07029H
	DW	0702aH
	DW	0fffeH
	DW	0702bH
	DW	0702cH
	DW	0702dH
	DW	0702eH
	DW	0702fH
	DW	07030H
	DW	07031H
	DW	07032H
	DW	07033H
	DW	07034H
	DW	07036H
	DW	07037H
	DW	07038H
	DW	0703aH
	DW	0703bH
	DW	0703cH
	DW	0703dH
	DW	0703eH
	DW	0703fH
	DW	07040H
	DW	07041H
	DW	07042H
	DW	07043H
	DW	07044H
	DW	07045H
	DW	07046H
	DW	07047H
	DW	07048H
	DW	07049H
	DW	0704aH
	DW	0704bH
	DW	0704dH
	DW	0704eH
	DW	07050H
	DW	07051H
	DW	07052H
	DW	07053H
	DW	07054H
	DW	07055H
	DW	07056H
	DW	07057H
	DW	07058H
	DW	07059H
	DW	0705aH
	DW	0705bH
	DW	0705cH
	DW	0705dH
	DW	0705fH
	DW	07060H
	DW	07061H
	DW	07062H
	DW	07063H
	DW	07064H
	DW	07065H
	DW	07066H
	DW	07067H
	DW	07068H
	DW	07069H
	DW	0706aH
	DW	0706eH
	DW	07071H
	DW	07072H
	DW	07073H
	DW	07074H
	DW	07077H
	DW	07079H
	DW	0707aH
	DW	0707bH
	DW	0707dH
	DW	07081H
	DW	07082H
	DW	07083H
	DW	07084H
	DW	07086H
	DW	07087H
	DW	07088H
	DW	0708bH
	DW	0708cH
	DW	0708dH
	DW	0708fH
	DW	07090H
	DW	07091H
	DW	07093H
	DW	07097H
	DW	07098H
	DW	0709aH
	DW	0709bH
	DW	0709eH
	DW	0709fH
	DW	070a0H
	DW	070a1H
	DW	070a2H
	DW	070a3H
	DW	070a4H
	DW	070a5H
	DW	070a6H
	DW	070a7H
	DW	070a8H
	DW	070a9H
	DW	070aaH
	DW	070b0H
	DW	070b2H
	DW	070b4H
	DW	070b5H
	DW	070b6H
	DW	070baH
	DW	070beH
	DW	070bfH
	DW	070c4H
	DW	070c5H
	DW	070c6H
	DW	070c7H
	DW	070c9H
	DW	070cbH
	DW	070ccH
	DW	070cdH
	DW	070ceH
	DW	070cfH
	DW	070d0H
	DW	070d1H
	DW	070d2H
	DW	070d3H
	DW	070d4H
	DW	070d5H
	DW	070d6H
	DW	070d7H
	DW	070daH
	DW	070dcH
	DW	070ddH
	DW	070deH
	DW	070e0H
	DW	070e1H
	DW	070e2H
	DW	070e3H
	DW	070e5H
	DW	070eaH
	DW	070eeH
	DW	070f0H
	DW	070f1H
	DW	070f2H
	DW	070f3H
	DW	070f4H
	DW	070f5H
	DW	070f6H
	DW	070f8H
	DW	070faH
	DW	070fbH
	DW	070fcH
	DW	070feH
	DW	070ffH
	DW	07100H
	DW	07101H
	DW	07102H
	DW	07103H
	DW	07104H
	DW	07105H
	DW	07106H
	DW	07107H
	DW	07108H
	DW	0710bH
	DW	0710cH
	DW	0710dH
	DW	0710eH
	DW	0710fH
	DW	07111H
	DW	07112H
	DW	07114H
	DW	07117H
	DW	0711bH
	DW	0711cH
	DW	0711dH
	DW	0711eH
	DW	0711fH
	DW	07120H
	DW	07121H
	DW	07122H
	DW	07123H
	DW	07124H
	DW	07125H
	DW	07127H
	DW	07128H
	DW	07129H
	DW	0712aH
	DW	0712bH
	DW	0712cH
	DW	0712dH
	DW	0712eH
	DW	07132H
	DW	07133H
	DW	07134H
	DW	0fffeH
	DW	07135H
	DW	07137H
	DW	07138H
	DW	07139H
	DW	0713aH
	DW	0713bH
	DW	0713cH
	DW	0713dH
	DW	0713eH
	DW	0713fH
	DW	07140H
	DW	07141H
	DW	07142H
	DW	07143H
	DW	07144H
	DW	07146H
	DW	07147H
	DW	07148H
	DW	07149H
	DW	0714bH
	DW	0714dH
	DW	0714fH
	DW	07150H
	DW	07151H
	DW	07152H
	DW	07153H
	DW	07154H
	DW	07155H
	DW	07156H
	DW	07157H
	DW	07158H
	DW	07159H
	DW	0715aH
	DW	0715bH
	DW	0715dH
	DW	0715fH
	DW	07160H
	DW	07161H
	DW	07162H
	DW	07163H
	DW	07165H
	DW	07169H
	DW	0716aH
	DW	0716bH
	DW	0716cH
	DW	0716dH
	DW	0716fH
	DW	07170H
	DW	07171H
	DW	07174H
	DW	07175H
	DW	07176H
	DW	07177H
	DW	07179H
	DW	0717bH
	DW	0717cH
	DW	0717eH
	DW	0717fH
	DW	07180H
	DW	07181H
	DW	07182H
	DW	07183H
	DW	07185H
	DW	07186H
	DW	07187H
	DW	07188H
	DW	07189H
	DW	0718bH
	DW	0718cH
	DW	0718dH
	DW	0718eH
	DW	07190H
	DW	07191H
	DW	07192H
	DW	07193H
	DW	07195H
	DW	07196H
	DW	07197H
	DW	0719aH
	DW	0719bH
	DW	0719cH
	DW	0719dH
	DW	0719eH
	DW	071a1H
	DW	071a2H
	DW	071a3H
	DW	071a4H
	DW	071a5H
	DW	071a6H
	DW	071a7H
	DW	071a9H
	DW	071aaH
	DW	071abH
	DW	071adH
	DW	071aeH
	DW	071afH
	DW	071b0H
	DW	071b1H
	DW	071b2H
	DW	071b4H
	DW	071b6H
	DW	071b7H
	DW	071b8H
	DW	071baH
	DW	071bbH
	DW	071bcH
	DW	071bdH
	DW	071beH
	DW	071bfH
	DW	071c0H
	DW	071c1H
	DW	071c2H
	DW	071c4H
	DW	071c5H
	DW	071c6H
	DW	071c7H
	DW	071c8H
	DW	071c9H
	DW	071caH
	DW	071cbH
	DW	071ccH
	DW	071cdH
	DW	071cfH
	DW	071d0H
	DW	071d1H
	DW	071d2H
	DW	071d3H
	DW	071d6H
	DW	071d7H
	DW	071d8H
	DW	071d9H
	DW	071daH
	DW	071dbH
	DW	071dcH
	DW	071ddH
	DW	071deH
	DW	071dfH
	DW	071e1H
	DW	071e2H
	DW	071e3H
	DW	071e4H
	DW	071e6H
	DW	071e8H
	DW	071e9H
	DW	071eaH
	DW	071ebH
	DW	071ecH
	DW	071edH
	DW	071efH
	DW	071f0H
	DW	071f1H
	DW	071f2H
	DW	071f3H
	DW	071f4H
	DW	071f5H
	DW	071f6H
	DW	071f7H
	DW	071f8H
	DW	071faH
	DW	071fbH
	DW	071fcH
	DW	071fdH
	DW	071feH
	DW	071ffH
	DW	07200H
	DW	07201H
	DW	07202H
	DW	07203H
	DW	07204H
	DW	07205H
	DW	07207H
	DW	07208H
	DW	07209H
	DW	0720aH
	DW	0720bH
	DW	0720cH
	DW	0720dH
	DW	0720eH
	DW	0720fH
	DW	07210H
	DW	07211H
	DW	07212H
	DW	07213H
	DW	07214H
	DW	07215H
	DW	07216H
	DW	07217H
	DW	07218H
	DW	07219H
	DW	0721aH
	DW	0fffeH
	DW	0721bH
	DW	0721cH
	DW	0721eH
	DW	0721fH
	DW	07220H
	DW	07221H
	DW	07222H
	DW	07223H
	DW	07224H
	DW	07225H
	DW	07226H
	DW	07227H
	DW	07229H
	DW	0722bH
	DW	0722dH
	DW	0722eH
	DW	0722fH
	DW	07232H
	DW	07233H
	DW	07234H
	DW	0723aH
	DW	0723cH
	DW	0723eH
	DW	07240H
	DW	07241H
	DW	07242H
	DW	07243H
	DW	07244H
	DW	07245H
	DW	07246H
	DW	07249H
	DW	0724aH
	DW	0724bH
	DW	0724eH
	DW	0724fH
	DW	07250H
	DW	07251H
	DW	07253H
	DW	07254H
	DW	07255H
	DW	07257H
	DW	07258H
	DW	0725aH
	DW	0725cH
	DW	0725eH
	DW	07260H
	DW	07263H
	DW	07264H
	DW	07265H
	DW	07268H
	DW	0726aH
	DW	0726bH
	DW	0726cH
	DW	0726dH
	DW	07270H
	DW	07271H
	DW	07273H
	DW	07274H
	DW	07276H
	DW	07277H
	DW	07278H
	DW	0727bH
	DW	0727cH
	DW	0727dH
	DW	07282H
	DW	07283H
	DW	07285H
	DW	07286H
	DW	07287H
	DW	07288H
	DW	07289H
	DW	0728cH
	DW	0728eH
	DW	07290H
	DW	07291H
	DW	07293H
	DW	07294H
	DW	07295H
	DW	07296H
	DW	07297H
	DW	07298H
	DW	07299H
	DW	0729aH
	DW	0729bH
	DW	0729cH
	DW	0729dH
	DW	0729eH
	DW	072a0H
	DW	072a1H
	DW	072a2H
	DW	072a3H
	DW	072a4H
	DW	072a5H
	DW	072a6H
	DW	072a7H
	DW	072a8H
	DW	072a9H
	DW	072aaH
	DW	072abH
	DW	072aeH
	DW	072b1H
	DW	072b2H
	DW	072b3H
	DW	072b5H
	DW	072baH
	DW	072bbH
	DW	072bcH
	DW	072bdH
	DW	072beH
	DW	072bfH
	DW	072c0H
	DW	072c5H
	DW	072c6H
	DW	072c7H
	DW	072c9H
	DW	072caH
	DW	072cbH
	DW	072ccH
	DW	072cfH
	DW	072d1H
	DW	072d3H
	DW	072d4H
	DW	072d5H
	DW	072d6H
	DW	072d8H
	DW	072daH
	DW	072dbH
	DW	0b7H
	DW	0fffeH
	DW	0fffeH
	DW	0fffeH
	DW	0fffeH
	DW	0fffeH
	DW	02014H
	DW	02170H
	DW	02171H
	DW	02172H
	DW	02173H
	DW	02174H
	DW	02175H
	DW	02176H
	DW	02177H
	DW	02178H
	DW	02179H
	DW	0fe35H
	DW	0fe36H
	DW	0fe39H
	DW	0fe3aH
	DW	0fe3fH
	DW	0fe40H
	DW	0fe3dH
	DW	0fe3eH
	DW	0fe41H
	DW	0fe42H
	DW	0fe43H
	DW	0fe44H
	DW	0fffeH
	DW	0fffeH
	DW	0fe3bH
	DW	0fe3cH
	DW	0fe37H
	DW	0fe38H
	DW	0fe31H
	DW	0fffeH
	DW	0fe33H
	DW	0fe34H
	DW	02caH
	DW	02cbH
	DW	02d9H
	DW	02013H
	DW	02015H
	DW	02025H
	DW	02035H
	DW	02105H
	DW	02109H
	DW	02196H
	DW	02197H
	DW	02198H
	DW	02199H
	DW	02215H
	DW	0221fH
	DW	02223H
	DW	02252H
	DW	02266H
	DW	02267H
	DW	022bfH
	DW	02550H
	DW	02551H
	DW	02552H
	DW	02553H
	DW	02554H
	DW	02555H
	DW	02556H
	DW	02557H
	DW	02558H
	DW	02559H
	DW	0255aH
	DW	0255bH
	DW	0255cH
	DW	0255dH
	DW	0255eH
	DW	0255fH
	DW	02560H
	DW	02561H
	DW	02562H
	DW	02563H
	DW	02564H
	DW	02565H
	DW	02566H
	DW	02567H
	DW	02568H
	DW	02569H
	DW	0256aH
	DW	0256bH
	DW	0256cH
	DW	0256dH
	DW	0256eH
	DW	0256fH
	DW	02570H
	DW	02571H
	DW	02572H
	DW	02573H
	DW	02581H
	DW	02582H
	DW	02583H
	DW	02584H
	DW	02585H
	DW	02586H
	DW	02587H
	DW	0fffeH
	DW	02588H
	DW	02589H
	DW	0258aH
	DW	0258bH
	DW	0258cH
	DW	0258dH
	DW	0258eH
	DW	0258fH
	DW	02593H
	DW	02594H
	DW	02595H
	DW	025bcH
	DW	025bdH
	DW	025e2H
	DW	025e3H
	DW	025e4H
	DW	025e5H
	DW	02609H
	DW	02295H
	DW	03012H
	DW	0301dH
	DW	0301eH
	DW	0fffeH
	DW	0fffeH
	DW	0fffeH
	DW	0fffeH
	DW	0fffeH
	DW	0fffeH
	DW	0fffeH
	DW	0fffeH
	DW	0fffeH
	DW	0fffeH
	DW	0fffeH
	DW	0fffeH
	DW	0fffeH
	DW	0fffeH
	DW	0fffeH
	DW	0fffeH
	DW	0fffeH
	DW	0fffeH
	DW	0fffeH
	DW	0fffeH
	DW	0fffeH
	DW	0fffeH
	DW	0fffeH
	DW	0fffeH
	DW	0fffeH
	DW	0fffeH
	DW	0fffeH
	DW	0fffeH
	DW	0fffeH
	DW	0fffeH
	DW	0fffeH
	DW	0fffeH
	DW	0fffeH
	DW	0fffeH
	DW	0fffeH
	DW	0fffeH
	DW	0fffeH
	DW	0251H
	DW	0fffeH
	DW	0144H
	DW	0148H
	DW	0fffeH
	DW	0261H
	DW	03021H
	DW	03022H
	DW	03023H
	DW	03024H
	DW	03025H
	DW	03026H
	DW	03027H
	DW	03028H
	DW	03029H
	DW	032a3H
	DW	0338eH
	DW	0338fH
	DW	0339cH
	DW	0339dH
	DW	0339eH
	DW	033a1H
	DW	033c4H
	DW	033ceH
	DW	033d1H
	DW	033d2H
	DW	033d5H
	DW	0fe30H
	DW	0ffe2H
	DW	0ffe4H
	DW	0fffeH
	DW	02121H
	DW	03231H
	DW	0fffeH
	DW	02010H
	DW	0fffeH
	DW	0fffeH
	DW	0fffeH
	DW	030fcH
	DW	0309bH
	DW	0309cH
	DW	030fdH
	DW	030feH
	DW	03006H
	DW	0309dH
	DW	0309eH
	DW	0fe49H
	DW	0fe4aH
	DW	0fe4bH
	DW	0fe4cH
	DW	0fe4dH
	DW	0fe4eH
	DW	0fe4fH
	DW	0fe50H
	DW	0fe51H
	DW	0fe52H
	DW	0fe54H
	DW	0fe55H
	DW	0fe56H
	DW	0fe57H
	DW	0fe59H
	DW	0fe5aH
	DW	0fe5bH
	DW	0fe5cH
	DW	0fe5dH
	DW	0fe5eH
	DW	0fe5fH
	DW	0fe60H
	DW	0fe61H
	DW	0fffeH
	DW	0fe62H
	DW	0fe63H
	DW	0fe64H
	DW	0fe65H
	DW	0fe66H
	DW	0fe68H
	DW	0fe69H
	DW	0fe6aH
	DW	0fe6bH
	DW	0fffeH
	DW	0fffeH
	DW	0fffeH
	DW	0fffeH
	DW	0fffeH
	DW	0fffeH
	DW	0fffeH
	DW	0fffeH
	DW	0fffeH
	DW	0fffeH
	DW	0fffeH
	DW	0fffeH
	DW	0fffeH
	DW	03007H
	DW	072dcH
	DW	072ddH
	DW	072dfH
	DW	072e2H
	DW	072e3H
	DW	072e4H
	DW	072e5H
	DW	072e6H
	DW	072e7H
	DW	072eaH
	DW	072ebH
	DW	072f5H
	DW	072f6H
	DW	072f9H
	DW	072fdH
	DW	072feH
	DW	072ffH
	DW	07300H
	DW	07302H
	DW	07304H
	DW	07305H
	DW	07306H
	DW	07307H
	DW	07308H
	DW	07309H
	DW	0730bH
	DW	0730cH
	DW	0730dH
	DW	0730fH
	DW	07310H
	DW	07311H
	DW	07312H
	DW	07314H
	DW	07318H
	DW	07319H
	DW	0731aH
	DW	0731fH
	DW	07320H
	DW	07323H
	DW	07324H
	DW	07326H
	DW	07327H
	DW	07328H
	DW	0732dH
	DW	0732fH
	DW	07330H
	DW	07332H
	DW	07333H
	DW	07335H
	DW	07336H
	DW	0733aH
	DW	0733bH
	DW	0733cH
	DW	0733dH
	DW	07340H
	DW	07341H
	DW	07342H
	DW	07343H
	DW	07344H
	DW	07345H
	DW	07346H
	DW	07347H
	DW	07348H
	DW	0fffeH
	DW	07349H
	DW	0734aH
	DW	0734bH
	DW	0734cH
	DW	0734eH
	DW	0734fH
	DW	07351H
	DW	07353H
	DW	07354H
	DW	07355H
	DW	07356H
	DW	07358H
	DW	07359H
	DW	0735aH
	DW	0735bH
	DW	0735cH
	DW	0735dH
	DW	0735eH
	DW	0735fH
	DW	07361H
	DW	07362H
	DW	07363H
	DW	07364H
	DW	07365H
	DW	07366H
	DW	07367H
	DW	07368H
	DW	07369H
	DW	0736aH
	DW	0736bH
	DW	0736eH
	DW	07370H
	DW	07371H
	DW	07372H
	DW	07373H
	DW	07374H
	DW	07375H
	DW	07376H
	DW	07377H
	DW	07378H
	DW	07379H
	DW	0737aH
	DW	0737bH
	DW	0737cH
	DW	0737dH
	DW	0737fH
	DW	07380H
	DW	07381H
	DW	07382H
	DW	07383H
	DW	07385H
	DW	07386H
	DW	07388H
	DW	0738aH
	DW	0738cH
	DW	0738dH
	DW	0738fH
	DW	07390H
	DW	07392H
	DW	07393H
	DW	07394H
	DW	07395H
	DW	07397H
	DW	07398H
	DW	07399H
	DW	0739aH
	DW	0739cH
	DW	0739dH
	DW	0739eH
	DW	073a0H
	DW	073a1H
	DW	073a3H
	DW	073a4H
	DW	073a5H
	DW	073a6H
	DW	073a7H
	DW	073a8H
	DW	073aaH
	DW	073acH
	DW	073adH
	DW	073b1H
	DW	073b4H
	DW	073b5H
	DW	073b6H
	DW	073b8H
	DW	073b9H
	DW	073bcH
	DW	073bdH
	DW	073beH
	DW	073bfH
	DW	073c1H
	DW	073c3H
	DW	073c4H
	DW	073c5H
	DW	073c6H
	DW	073c7H
	DW	0fffeH
	DW	073cbH
	DW	073ccH
	DW	073ceH
	DW	073d2H
	DW	073d3H
	DW	073d4H
	DW	073d5H
	DW	073d6H
	DW	073d7H
	DW	073d8H
	DW	073daH
	DW	073dbH
	DW	073dcH
	DW	073ddH
	DW	073dfH
	DW	073e1H
	DW	073e2H
	DW	073e3H
	DW	073e4H
	DW	073e6H
	DW	073e8H
	DW	073eaH
	DW	073ebH
	DW	073ecH
	DW	073eeH
	DW	073efH
	DW	073f0H
	DW	073f1H
	DW	073f3H
	DW	073f4H
	DW	073f5H
	DW	073f6H
	DW	073f7H
	DW	073f8H
	DW	073f9H
	DW	073faH
	DW	073fbH
	DW	073fcH
	DW	073fdH
	DW	073feH
	DW	073ffH
	DW	07400H
	DW	07401H
	DW	07402H
	DW	07404H
	DW	07407H
	DW	07408H
	DW	0740bH
	DW	0740cH
	DW	0740dH
	DW	0740eH
	DW	07411H
	DW	07412H
	DW	07413H
	DW	07414H
	DW	07415H
	DW	07416H
	DW	07417H
	DW	07418H
	DW	07419H
	DW	0741cH
	DW	0741dH
	DW	0741eH
	DW	0741fH
	DW	07420H
	DW	07421H
	DW	07423H
	DW	07424H
	DW	07427H
	DW	07429H
	DW	0742bH
	DW	0742dH
	DW	0742fH
	DW	07431H
	DW	07432H
	DW	07437H
	DW	07438H
	DW	07439H
	DW	0743aH
	DW	0743bH
	DW	0743dH
	DW	0743eH
	DW	0743fH
	DW	07440H
	DW	07442H
	DW	07443H
	DW	07444H
	DW	07445H
	DW	07446H
	DW	07447H
	DW	07448H
	DW	07449H
	DW	0744aH
	DW	0744bH
	DW	0744cH
	DW	0744dH
	DW	0fffeH
	DW	0744eH
	DW	0744fH
	DW	07450H
	DW	07451H
	DW	07452H
	DW	07453H
	DW	07454H
	DW	07456H
	DW	07458H
	DW	0745dH
	DW	07460H
	DW	07461H
	DW	07462H
	DW	07463H
	DW	07464H
	DW	07465H
	DW	07466H
	DW	07467H
	DW	07468H
	DW	07469H
	DW	0746aH
	DW	0746bH
	DW	0746cH
	DW	0746eH
	DW	0746fH
	DW	07471H
	DW	07472H
	DW	07473H
	DW	07474H
	DW	07475H
	DW	07478H
	DW	07479H
	DW	0747aH
	DW	0747bH
	DW	0747cH
	DW	0747dH
	DW	0747fH
	DW	07482H
	DW	07484H
	DW	07485H
	DW	07486H
	DW	07488H
	DW	07489H
	DW	0748aH
	DW	0748cH
	DW	0748dH
	DW	0748fH
	DW	07491H
	DW	07492H
	DW	07493H
	DW	07494H
	DW	07495H
	DW	07496H
	DW	07497H
	DW	07498H
	DW	07499H
	DW	0749aH
	DW	0749bH
	DW	0749dH
	DW	0749fH
	DW	074a0H
	DW	074a1H
	DW	074a2H
	DW	074a3H
	DW	074a4H
	DW	074a5H
	DW	074a6H
	DW	074aaH
	DW	074abH
	DW	074acH
	DW	074adH
	DW	074aeH
	DW	074afH
	DW	074b0H
	DW	074b1H
	DW	074b2H
	DW	074b3H
	DW	074b4H
	DW	074b5H
	DW	074b6H
	DW	074b7H
	DW	074b8H
	DW	074b9H
	DW	074bbH
	DW	074bcH
	DW	074bdH
	DW	074beH
	DW	074bfH
	DW	074c0H
	DW	074c1H
	DW	074c2H
	DW	074c3H
	DW	074c4H
	DW	074c5H
	DW	074c6H
	DW	074c7H
	DW	0fffeH
	DW	074c8H
	DW	074c9H
	DW	074caH
	DW	074cbH
	DW	074ccH
	DW	074cdH
	DW	074ceH
	DW	074cfH
	DW	074d0H
	DW	074d1H
	DW	074d3H
	DW	074d4H
	DW	074d5H
	DW	074d6H
	DW	074d7H
	DW	074d8H
	DW	074d9H
	DW	074daH
	DW	074dbH
	DW	074ddH
	DW	074dfH
	DW	074e1H
	DW	074e5H
	DW	074e7H
	DW	074e8H
	DW	074e9H
	DW	074eaH
	DW	074ebH
	DW	074ecH
	DW	074edH
	DW	074f0H
	DW	074f1H
	DW	074f2H
	DW	074f3H
	DW	074f5H
	DW	074f8H
	DW	074f9H
	DW	074faH
	DW	074fbH
	DW	074fcH
	DW	074fdH
	DW	074feH
	DW	07500H
	DW	07501H
	DW	07502H
	DW	07503H
	DW	07505H
	DW	07506H
	DW	07507H
	DW	07508H
	DW	07509H
	DW	0750aH
	DW	0750bH
	DW	0750cH
	DW	0750eH
	DW	07510H
	DW	07512H
	DW	07514H
	DW	07515H
	DW	07516H
	DW	07517H
	DW	0751bH
	DW	0751dH
	DW	0751eH
	DW	07520H
	DW	07521H
	DW	07522H
	DW	07523H
	DW	07524H
	DW	07526H
	DW	07527H
	DW	0752aH
	DW	0752eH
	DW	07534H
	DW	07536H
	DW	07539H
	DW	0753cH
	DW	0753dH
	DW	0753fH
	DW	07541H
	DW	07542H
	DW	07543H
	DW	07544H
	DW	07546H
	DW	07547H
	DW	07549H
	DW	0754aH
	DW	0754dH
	DW	07550H
	DW	07551H
	DW	07552H
	DW	07553H
	DW	07555H
	DW	07556H
	DW	07557H
	DW	07558H
	DW	0fffeH
	DW	0755dH
	DW	0755eH
	DW	0755fH
	DW	07560H
	DW	07561H
	DW	07562H
	DW	07563H
	DW	07564H
	DW	07567H
	DW	07568H
	DW	07569H
	DW	0756bH
	DW	0756cH
	DW	0756dH
	DW	0756eH
	DW	0756fH
	DW	07570H
	DW	07571H
	DW	07573H
	DW	07575H
	DW	07576H
	DW	07577H
	DW	0757aH
	DW	0757bH
	DW	0757cH
	DW	0757dH
	DW	0757eH
	DW	07580H
	DW	07581H
	DW	07582H
	DW	07584H
	DW	07585H
	DW	07587H
	DW	07588H
	DW	07589H
	DW	0758aH
	DW	0758cH
	DW	0758dH
	DW	0758eH
	DW	07590H
	DW	07593H
	DW	07595H
	DW	07598H
	DW	0759bH
	DW	0759cH
	DW	0759eH
	DW	075a2H
	DW	075a6H
	DW	075a7H
	DW	075a8H
	DW	075a9H
	DW	075aaH
	DW	075adH
	DW	075b6H
	DW	075b7H
	DW	075baH
	DW	075bbH
	DW	075bfH
	DW	075c0H
	DW	075c1H
	DW	075c6H
	DW	075cbH
	DW	075ccH
	DW	075ceH
	DW	075cfH
	DW	075d0H
	DW	075d1H
	DW	075d3H
	DW	075d7H
	DW	075d9H
	DW	075daH
	DW	075dcH
	DW	075ddH
	DW	075dfH
	DW	075e0H
	DW	075e1H
	DW	075e5H
	DW	075e9H
	DW	075ecH
	DW	075edH
	DW	075eeH
	DW	075efH
	DW	075f2H
	DW	075f3H
	DW	075f5H
	DW	075f6H
	DW	075f7H
	DW	075f8H
	DW	075faH
	DW	075fbH
	DW	075fdH
	DW	075feH
	DW	07602H
	DW	07604H
	DW	07606H
	DW	07607H
	DW	0fffeH
	DW	07608H
	DW	07609H
	DW	0760bH
	DW	0760dH
	DW	0760eH
	DW	0760fH
	DW	07611H
	DW	07612H
	DW	07613H
	DW	07614H
	DW	07616H
	DW	0761aH
	DW	0761cH
	DW	0761dH
	DW	0761eH
	DW	07621H
	DW	07623H
	DW	07627H
	DW	07628H
	DW	0762cH
	DW	0762eH
	DW	0762fH
	DW	07631H
	DW	07632H
	DW	07636H
	DW	07637H
	DW	07639H
	DW	0763aH
	DW	0763bH
	DW	0763dH
	DW	07641H
	DW	07642H
	DW	07644H
	DW	07645H
	DW	07646H
	DW	07647H
	DW	07648H
	DW	07649H
	DW	0764aH
	DW	0764bH
	DW	0764eH
	DW	0764fH
	DW	07650H
	DW	07651H
	DW	07652H
	DW	07653H
	DW	07655H
	DW	07657H
	DW	07658H
	DW	07659H
	DW	0765aH
	DW	0765bH
	DW	0765dH
	DW	0765fH
	DW	07660H
	DW	07661H
	DW	07662H
	DW	07664H
	DW	07665H
	DW	07666H
	DW	07667H
	DW	07668H
	DW	07669H
	DW	0766aH
	DW	0766cH
	DW	0766dH
	DW	0766eH
	DW	07670H
	DW	07671H
	DW	07672H
	DW	07673H
	DW	07674H
	DW	07675H
	DW	07676H
	DW	07677H
	DW	07679H
	DW	0767aH
	DW	0767cH
	DW	0767fH
	DW	07680H
	DW	07681H
	DW	07683H
	DW	07685H
	DW	07689H
	DW	0768aH
	DW	0768cH
	DW	0768dH
	DW	0768fH
	DW	07690H
	DW	07692H
	DW	07694H
	DW	07695H
	DW	07697H
	DW	07698H
	DW	0769aH
	DW	0769bH
	DW	0fffeH
	DW	0769cH
	DW	0769dH
	DW	0769eH
	DW	0769fH
	DW	076a0H
	DW	076a1H
	DW	076a2H
	DW	076a3H
	DW	076a5H
	DW	076a6H
	DW	076a7H
	DW	076a8H
	DW	076a9H
	DW	076aaH
	DW	076abH
	DW	076acH
	DW	076adH
	DW	076afH
	DW	076b0H
	DW	076b3H
	DW	076b5H
	DW	076b6H
	DW	076b7H
	DW	076b8H
	DW	076b9H
	DW	076baH
	DW	076bbH
	DW	076bcH
	DW	076bdH
	DW	076beH
	DW	076c0H
	DW	076c1H
	DW	076c3H
	DW	076c4H
	DW	076c7H
	DW	076c9H
	DW	076cbH
	DW	076ccH
	DW	076d3H
	DW	076d5H
	DW	076d9H
	DW	076daH
	DW	076dcH
	DW	076ddH
	DW	076deH
	DW	076e0H
	DW	076e1H
	DW	076e2H
	DW	076e3H
	DW	076e4H
	DW	076e6H
	DW	076e7H
	DW	076e8H
	DW	076e9H
	DW	076eaH
	DW	076ebH
	DW	076ecH
	DW	076edH
	DW	076f0H
	DW	076f3H
	DW	076f5H
	DW	076f6H
	DW	076f7H
	DW	076faH
	DW	076fbH
	DW	076fdH
	DW	076ffH
	DW	07700H
	DW	07702H
	DW	07703H
	DW	07705H
	DW	07706H
	DW	0770aH
	DW	0770cH
	DW	0770eH
	DW	0770fH
	DW	07710H
	DW	07711H
	DW	07712H
	DW	07713H
	DW	07714H
	DW	07715H
	DW	07716H
	DW	07717H
	DW	07718H
	DW	0771bH
	DW	0771cH
	DW	0771dH
	DW	0771eH
	DW	07721H
	DW	07723H
	DW	07724H
	DW	07725H
	DW	07727H
	DW	0772aH
	DW	0772bH
	DW	0fffeH
	DW	0772cH
	DW	0772eH
	DW	07730H
	DW	07731H
	DW	07732H
	DW	07733H
	DW	07734H
	DW	07739H
	DW	0773bH
	DW	0773dH
	DW	0773eH
	DW	0773fH
	DW	07742H
	DW	07744H
	DW	07745H
	DW	07746H
	DW	07748H
	DW	07749H
	DW	0774aH
	DW	0774bH
	DW	0774cH
	DW	0774dH
	DW	0774eH
	DW	0774fH
	DW	07752H
	DW	07753H
	DW	07754H
	DW	07755H
	DW	07756H
	DW	07757H
	DW	07758H
	DW	07759H
	DW	0775cH
	DW	0775dH
	DW	0775eH
	DW	0775fH
	DW	07760H
	DW	07764H
	DW	07767H
	DW	07769H
	DW	0776aH
	DW	0776dH
	DW	0776eH
	DW	0776fH
	DW	07770H
	DW	07771H
	DW	07772H
	DW	07773H
	DW	07774H
	DW	07775H
	DW	07776H
	DW	07777H
	DW	07778H
	DW	0777aH
	DW	0777bH
	DW	0777cH
	DW	07781H
	DW	07782H
	DW	07783H
	DW	07786H
	DW	07787H
	DW	07788H
	DW	07789H
	DW	0778aH
	DW	0778bH
	DW	0778fH
	DW	07790H
	DW	07793H
	DW	07794H
	DW	07795H
	DW	07796H
	DW	07797H
	DW	07798H
	DW	07799H
	DW	0779aH
	DW	0779bH
	DW	0779cH
	DW	0779dH
	DW	0779eH
	DW	077a1H
	DW	077a3H
	DW	077a4H
	DW	077a6H
	DW	077a8H
	DW	077abH
	DW	077adH
	DW	077aeH
	DW	077afH
	DW	077b1H
	DW	077b2H
	DW	077b4H
	DW	077b6H
	DW	077b7H
	DW	077b8H
	DW	077b9H
	DW	077baH
	DW	0fffeH
	DW	077bcH
	DW	077beH
	DW	077c0H
	DW	077c1H
	DW	077c2H
	DW	077c3H
	DW	077c4H
	DW	077c5H
	DW	077c6H
	DW	077c7H
	DW	077c8H
	DW	077c9H
	DW	077caH
	DW	077cbH
	DW	077ccH
	DW	077ceH
	DW	077cfH
	DW	077d0H
	DW	077d1H
	DW	077d2H
	DW	077d3H
	DW	077d4H
	DW	077d5H
	DW	077d6H
	DW	077d8H
	DW	077d9H
	DW	077daH
	DW	077ddH
	DW	077deH
	DW	077dfH
	DW	077e0H
	DW	077e1H
	DW	077e4H
	DW	077e6H
	DW	077e8H
	DW	077eaH
	DW	077efH
	DW	077f0H
	DW	077f1H
	DW	077f2H
	DW	077f4H
	DW	077f5H
	DW	077f7H
	DW	077f9H
	DW	077faH
	DW	077fbH
	DW	077fcH
	DW	07803H
	DW	07804H
	DW	07805H
	DW	07806H
	DW	07807H
	DW	07808H
	DW	0780aH
	DW	0780bH
	DW	0780eH
	DW	0780fH
	DW	07810H
	DW	07813H
	DW	07815H
	DW	07819H
	DW	0781bH
	DW	0781eH
	DW	07820H
	DW	07821H
	DW	07822H
	DW	07824H
	DW	07828H
	DW	0782aH
	DW	0782bH
	DW	0782eH
	DW	0782fH
	DW	07831H
	DW	07832H
	DW	07833H
	DW	07835H
	DW	07836H
	DW	0783dH
	DW	0783fH
	DW	07841H
	DW	07842H
	DW	07843H
	DW	07844H
	DW	07846H
	DW	07848H
	DW	07849H
	DW	0784aH
	DW	0784bH
	DW	0784dH
	DW	0784fH
	DW	07851H
	DW	07853H
	DW	07854H
	DW	07858H
	DW	07859H
	DW	0785aH
	DW	0fffeH
	DW	0785bH
	DW	0785cH
	DW	0785eH
	DW	0785fH
	DW	07860H
	DW	07861H
	DW	07862H
	DW	07863H
	DW	07864H
	DW	07865H
	DW	07866H
	DW	07867H
	DW	07868H
	DW	07869H
	DW	0786fH
	DW	07870H
	DW	07871H
	DW	07872H
	DW	07873H
	DW	07874H
	DW	07875H
	DW	07876H
	DW	07878H
	DW	07879H
	DW	0787aH
	DW	0787bH
	DW	0787dH
	DW	0787eH
	DW	0787fH
	DW	07880H
	DW	07881H
	DW	07882H
	DW	07883H
	DW	07884H
	DW	07885H
	DW	07886H
	DW	07888H
	DW	0788aH
	DW	0788bH
	DW	0788fH
	DW	07890H
	DW	07892H
	DW	07894H
	DW	07895H
	DW	07896H
	DW	07899H
	DW	0789dH
	DW	0789eH
	DW	078a0H
	DW	078a2H
	DW	078a4H
	DW	078a6H
	DW	078a8H
	DW	078a9H
	DW	078aaH
	DW	078abH
	DW	078acH
	DW	078adH
	DW	078aeH
	DW	078afH
	DW	078b5H
	DW	078b6H
	DW	078b7H
	DW	078b8H
	DW	078baH
	DW	078bbH
	DW	078bcH
	DW	078bdH
	DW	078bfH
	DW	078c0H
	DW	078c2H
	DW	078c3H
	DW	078c4H
	DW	078c6H
	DW	078c7H
	DW	078c8H
	DW	078ccH
	DW	078cdH
	DW	078ceH
	DW	078cfH
	DW	078d1H
	DW	078d2H
	DW	078d3H
	DW	078d6H
	DW	078d7H
	DW	078d8H
	DW	078daH
	DW	078dbH
	DW	078dcH
	DW	078ddH
	DW	078deH
	DW	078dfH
	DW	078e0H
	DW	078e1H
	DW	078e2H
	DW	078e3H
	DW	0fffeH
	DW	078e4H
	DW	078e5H
	DW	078e6H
	DW	078e7H
	DW	078e9H
	DW	078eaH
	DW	078ebH
	DW	078edH
	DW	078eeH
	DW	078efH
	DW	078f0H
	DW	078f1H
	DW	078f3H
	DW	078f5H
	DW	078f6H
	DW	078f8H
	DW	078f9H
	DW	078fbH
	DW	078fcH
	DW	078fdH
	DW	078feH
	DW	078ffH
	DW	07900H
	DW	07902H
	DW	07903H
	DW	07904H
	DW	07906H
	DW	07907H
	DW	07908H
	DW	07909H
	DW	0790aH
	DW	0790bH
	DW	0790cH
	DW	0790dH
	DW	0790eH
	DW	0790fH
	DW	07910H
	DW	07911H
	DW	07912H
	DW	07914H
	DW	07915H
	DW	07916H
	DW	07917H
	DW	07918H
	DW	07919H
	DW	0791aH
	DW	0791bH
	DW	0791cH
	DW	0791dH
	DW	0791fH
	DW	07920H
	DW	07921H
	DW	07922H
	DW	07923H
	DW	07925H
	DW	07926H
	DW	07927H
	DW	07928H
	DW	07929H
	DW	0792aH
	DW	0792bH
	DW	0792cH
	DW	0792dH
	DW	0792eH
	DW	0792fH
	DW	07930H
	DW	07931H
	DW	07932H
	DW	07933H
	DW	07935H
	DW	07936H
	DW	07937H
	DW	07938H
	DW	07939H
	DW	0793dH
	DW	0793fH
	DW	07942H
	DW	07943H
	DW	07944H
	DW	07945H
	DW	07947H
	DW	0794aH
	DW	0794bH
	DW	0794cH
	DW	0794dH
	DW	0794eH
	DW	0794fH
	DW	07950H
	DW	07951H
	DW	07952H
	DW	07954H
	DW	07955H
	DW	07958H
	DW	07959H
	DW	07961H
	DW	07963H
	DW	0fffeH
	DW	07964H
	DW	07966H
	DW	07969H
	DW	0796aH
	DW	0796bH
	DW	0796cH
	DW	0796eH
	DW	07970H
	DW	07971H
	DW	07972H
	DW	07973H
	DW	07974H
	DW	07975H
	DW	07976H
	DW	07979H
	DW	0797bH
	DW	0797cH
	DW	0797dH
	DW	0797eH
	DW	0797fH
	DW	07982H
	DW	07983H
	DW	07986H
	DW	07987H
	DW	07988H
	DW	07989H
	DW	0798bH
	DW	0798cH
	DW	0798dH
	DW	0798eH
	DW	07990H
	DW	07991H
	DW	07992H
	DW	07993H
	DW	07994H
	DW	07995H
	DW	07996H
	DW	07997H
	DW	07998H
	DW	07999H
	DW	0799bH
	DW	0799cH
	DW	0799dH
	DW	0799eH
	DW	0799fH
	DW	079a0H
	DW	079a1H
	DW	079a2H
	DW	079a3H
	DW	079a4H
	DW	079a5H
	DW	079a6H
	DW	079a8H
	DW	079a9H
	DW	079aaH
	DW	079abH
	DW	079acH
	DW	079adH
	DW	079aeH
	DW	079afH
	DW	079b0H
	DW	079b1H
	DW	079b2H
	DW	079b4H
	DW	079b5H
	DW	079b6H
	DW	079b7H
	DW	079b8H
	DW	079bcH
	DW	079bfH
	DW	079c2H
	DW	079c4H
	DW	079c5H
	DW	079c7H
	DW	079c8H
	DW	079caH
	DW	079ccH
	DW	079ceH
	DW	079cfH
	DW	079d0H
	DW	079d3H
	DW	079d4H
	DW	079d6H
	DW	079d7H
	DW	079d9H
	DW	079daH
	DW	079dbH
	DW	079dcH
	DW	079ddH
	DW	079deH
	DW	079e0H
	DW	079e1H
	DW	079e2H
	DW	079e5H
	DW	079e8H
	DW	079eaH
	DW	0fffeH
	DW	079ecH
	DW	079eeH
	DW	079f1H
	DW	079f2H
	DW	079f3H
	DW	079f4H
	DW	079f5H
	DW	079f6H
	DW	079f7H
	DW	079f9H
	DW	079faH
	DW	079fcH
	DW	079feH
	DW	079ffH
	DW	07a01H
	DW	07a04H
	DW	07a05H
	DW	07a07H
	DW	07a08H
	DW	07a09H
	DW	07a0aH
	DW	07a0cH
	DW	07a0fH
	DW	07a10H
	DW	07a11H
	DW	07a12H
	DW	07a13H
	DW	07a15H
	DW	07a16H
	DW	07a18H
	DW	07a19H
	DW	07a1bH
	DW	07a1cH
	DW	07a1dH
	DW	07a1fH
	DW	07a21H
	DW	07a22H
	DW	07a24H
	DW	07a25H
	DW	07a26H
	DW	07a27H
	DW	07a28H
	DW	07a29H
	DW	07a2aH
	DW	07a2bH
	DW	07a2cH
	DW	07a2dH
	DW	07a2eH
	DW	07a2fH
	DW	07a30H
	DW	07a31H
	DW	07a32H
	DW	07a34H
	DW	07a35H
	DW	07a36H
	DW	07a38H
	DW	07a3aH
	DW	07a3eH
	DW	07a40H
	DW	07a41H
	DW	07a42H
	DW	07a43H
	DW	07a44H
	DW	07a45H
	DW	07a47H
	DW	07a48H
	DW	07a49H
	DW	07a4aH
	DW	07a4bH
	DW	07a4cH
	DW	07a4dH
	DW	07a4eH
	DW	07a4fH
	DW	07a50H
	DW	07a52H
	DW	07a53H
	DW	07a54H
	DW	07a55H
	DW	07a56H
	DW	07a58H
	DW	07a59H
	DW	07a5aH
	DW	07a5bH
	DW	07a5cH
	DW	07a5dH
	DW	07a5eH
	DW	07a5fH
	DW	07a60H
	DW	07a61H
	DW	07a62H
	DW	07a63H
	DW	07a64H
	DW	07a65H
	DW	07a66H
	DW	07a67H
	DW	07a68H
	DW	0fffeH
	DW	07a69H
	DW	07a6aH
	DW	07a6bH
	DW	07a6cH
	DW	07a6dH
	DW	07a6eH
	DW	07a6fH
	DW	07a71H
	DW	07a72H
	DW	07a73H
	DW	07a75H
	DW	07a7bH
	DW	07a7cH
	DW	07a7dH
	DW	07a7eH
	DW	07a82H
	DW	07a85H
	DW	07a87H
	DW	07a89H
	DW	07a8aH
	DW	07a8bH
	DW	07a8cH
	DW	07a8eH
	DW	07a8fH
	DW	07a90H
	DW	07a93H
	DW	07a94H
	DW	07a99H
	DW	07a9aH
	DW	07a9bH
	DW	07a9eH
	DW	07aa1H
	DW	07aa2H
	DW	07aa3H
	DW	07aa4H
	DW	07aa7H
	DW	07aa9H
	DW	07aaaH
	DW	07aabH
	DW	07aaeH
	DW	07aafH
	DW	07ab0H
	DW	07ab1H
	DW	07ab2H
	DW	07ab4H
	DW	07ab5H
	DW	07ab6H
	DW	07ab7H
	DW	07ab8H
	DW	07ab9H
	DW	07abaH
	DW	07abbH
	DW	07abcH
	DW	07abdH
	DW	07abeH
	DW	07ac0H
	DW	07ac1H
	DW	07ac2H
	DW	07ac3H
	DW	07ac4H
	DW	07ac5H
	DW	07ac6H
	DW	07ac7H
	DW	07ac8H
	DW	07ac9H
	DW	07acaH
	DW	07accH
	DW	07acdH
	DW	07aceH
	DW	07acfH
	DW	07ad0H
	DW	07ad1H
	DW	07ad2H
	DW	07ad3H
	DW	07ad4H
	DW	07ad5H
	DW	07ad7H
	DW	07ad8H
	DW	07adaH
	DW	07adbH
	DW	07adcH
	DW	07addH
	DW	07ae1H
	DW	07ae2H
	DW	07ae4H
	DW	07ae7H
	DW	07ae8H
	DW	07ae9H
	DW	07aeaH
	DW	07aebH
	DW	07aecH
	DW	07aeeH
	DW	07af0H
	DW	07af1H
	DW	07af2H
	DW	07af3H
	DW	0fffeH
	DW	07af4H
	DW	07af5H
	DW	07af6H
	DW	07af7H
	DW	07af8H
	DW	07afbH
	DW	07afcH
	DW	07afeH
	DW	07b00H
	DW	07b01H
	DW	07b02H
	DW	07b05H
	DW	07b07H
	DW	07b09H
	DW	07b0cH
	DW	07b0dH
	DW	07b0eH
	DW	07b10H
	DW	07b12H
	DW	07b13H
	DW	07b16H
	DW	07b17H
	DW	07b18H
	DW	07b1aH
	DW	07b1cH
	DW	07b1dH
	DW	07b1fH
	DW	07b21H
	DW	07b22H
	DW	07b23H
	DW	07b27H
	DW	07b29H
	DW	07b2dH
	DW	07b2fH
	DW	07b30H
	DW	07b32H
	DW	07b34H
	DW	07b35H
	DW	07b36H
	DW	07b37H
	DW	07b39H
	DW	07b3bH
	DW	07b3dH
	DW	07b3fH
	DW	07b40H
	DW	07b41H
	DW	07b42H
	DW	07b43H
	DW	07b44H
	DW	07b46H
	DW	07b48H
	DW	07b4aH
	DW	07b4dH
	DW	07b4eH
	DW	07b53H
	DW	07b55H
	DW	07b57H
	DW	07b59H
	DW	07b5cH
	DW	07b5eH
	DW	07b5fH
	DW	07b61H
	DW	07b63H
	DW	07b64H
	DW	07b65H
	DW	07b66H
	DW	07b67H
	DW	07b68H
	DW	07b69H
	DW	07b6aH
	DW	07b6bH
	DW	07b6cH
	DW	07b6dH
	DW	07b6fH
	DW	07b70H
	DW	07b73H
	DW	07b74H
	DW	07b76H
	DW	07b78H
	DW	07b7aH
	DW	07b7cH
	DW	07b7dH
	DW	07b7fH
	DW	07b81H
	DW	07b82H
	DW	07b83H
	DW	07b84H
	DW	07b86H
	DW	07b87H
	DW	07b88H
	DW	07b89H
	DW	07b8aH
	DW	07b8bH
	DW	07b8cH
	DW	07b8eH
	DW	07b8fH
	DW	0fffeH
	DW	07b91H
	DW	07b92H
	DW	07b93H
	DW	07b96H
	DW	07b98H
	DW	07b99H
	DW	07b9aH
	DW	07b9bH
	DW	07b9eH
	DW	07b9fH
	DW	07ba0H
	DW	07ba3H
	DW	07ba4H
	DW	07ba5H
	DW	07baeH
	DW	07bafH
	DW	07bb0H
	DW	07bb2H
	DW	07bb3H
	DW	07bb5H
	DW	07bb6H
	DW	07bb7H
	DW	07bb9H
	DW	07bbaH
	DW	07bbbH
	DW	07bbcH
	DW	07bbdH
	DW	07bbeH
	DW	07bbfH
	DW	07bc0H
	DW	07bc2H
	DW	07bc3H
	DW	07bc4H
	DW	07bc5H
	DW	07bc8H
	DW	07bc9H
	DW	07bcaH
	DW	07bcbH
	DW	07bcdH
	DW	07bceH
	DW	07bcfH
	DW	07bd0H
	DW	07bd2H
	DW	07bd4H
	DW	07bd5H
	DW	07bd6H
	DW	07bd7H
	DW	07bd8H
	DW	07bdbH
	DW	07bdcH
	DW	07bdeH
	DW	07bdfH
	DW	07be0H
	DW	07be2H
	DW	07be3H
	DW	07be4H
	DW	07be7H
	DW	07be8H
	DW	07be9H
	DW	07bebH
	DW	07becH
	DW	07bedH
	DW	07befH
	DW	07bf0H
	DW	07bf2H
	DW	07bf3H
	DW	07bf4H
	DW	07bf5H
	DW	07bf6H
	DW	07bf8H
	DW	07bf9H
	DW	07bfaH
	DW	07bfbH
	DW	07bfdH
	DW	07bffH
	DW	07c00H
	DW	07c01H
	DW	07c02H
	DW	07c03H
	DW	07c04H
	DW	07c05H
	DW	07c06H
	DW	07c08H
	DW	07c09H
	DW	07c0aH
	DW	07c0dH
	DW	07c0eH
	DW	07c10H
	DW	07c11H
	DW	07c12H
	DW	07c13H
	DW	07c14H
	DW	07c15H
	DW	07c17H
	DW	07c18H
	DW	07c19H
	DW	0fffeH
	DW	07c1aH
	DW	07c1bH
	DW	07c1cH
	DW	07c1dH
	DW	07c1eH
	DW	07c20H
	DW	07c21H
	DW	07c22H
	DW	07c23H
	DW	07c24H
	DW	07c25H
	DW	07c28H
	DW	07c29H
	DW	07c2bH
	DW	07c2cH
	DW	07c2dH
	DW	07c2eH
	DW	07c2fH
	DW	07c30H
	DW	07c31H
	DW	07c32H
	DW	07c33H
	DW	07c34H
	DW	07c35H
	DW	07c36H
	DW	07c37H
	DW	07c39H
	DW	07c3aH
	DW	07c3bH
	DW	07c3cH
	DW	07c3dH
	DW	07c3eH
	DW	07c42H
	DW	07c43H
	DW	07c44H
	DW	07c45H
	DW	07c46H
	DW	07c47H
	DW	07c48H
	DW	07c49H
	DW	07c4aH
	DW	07c4bH
	DW	07c4cH
	DW	07c4eH
	DW	07c4fH
	DW	07c50H
	DW	07c51H
	DW	07c52H
	DW	07c53H
	DW	07c54H
	DW	07c55H
	DW	07c56H
	DW	07c57H
	DW	07c58H
	DW	07c59H
	DW	07c5aH
	DW	07c5bH
	DW	07c5cH
	DW	07c5dH
	DW	07c5eH
	DW	07c5fH
	DW	07c60H
	DW	07c61H
	DW	07c62H
	DW	07c63H
	DW	07c64H
	DW	07c65H
	DW	07c66H
	DW	07c67H
	DW	07c68H
	DW	07c69H
	DW	07c6aH
	DW	07c6bH
	DW	07c6cH
	DW	07c6dH
	DW	07c6eH
	DW	07c6fH
	DW	07c70H
	DW	07c71H
	DW	07c72H
	DW	07c75H
	DW	07c76H
	DW	07c77H
	DW	07c78H
	DW	07c79H
	DW	07c7aH
	DW	07c7eH
	DW	07c7fH
	DW	07c80H
	DW	07c81H
	DW	07c82H
	DW	07c83H
	DW	07c84H
	DW	07c85H
	DW	07c86H
	DW	07c87H
	DW	0fffeH
	DW	07c88H
	DW	07c8aH
	DW	07c8bH
	DW	07c8cH
	DW	07c8dH
	DW	07c8eH
	DW	07c8fH
	DW	07c90H
	DW	07c93H
	DW	07c94H
	DW	07c96H
	DW	07c99H
	DW	07c9aH
	DW	07c9bH
	DW	07ca0H
	DW	07ca1H
	DW	07ca3H
	DW	07ca6H
	DW	07ca7H
	DW	07ca8H
	DW	07ca9H
	DW	07cabH
	DW	07cacH
	DW	07cadH
	DW	07cafH
	DW	07cb0H
	DW	07cb4H
	DW	07cb5H
	DW	07cb6H
	DW	07cb7H
	DW	07cb8H
	DW	07cbaH
	DW	07cbbH
	DW	07cbfH
	DW	07cc0H
	DW	07cc2H
	DW	07cc3H
	DW	07cc4H
	DW	07cc6H
	DW	07cc9H
	DW	07ccbH
	DW	07cceH
	DW	07ccfH
	DW	07cd0H
	DW	07cd1H
	DW	07cd2H
	DW	07cd3H
	DW	07cd4H
	DW	07cd8H
	DW	07cdaH
	DW	07cdbH
	DW	07cddH
	DW	07cdeH
	DW	07ce1H
	DW	07ce2H
	DW	07ce3H
	DW	07ce4H
	DW	07ce5H
	DW	07ce6H
	DW	07ce7H
	DW	07ce9H
	DW	07ceaH
	DW	07cebH
	DW	07cecH
	DW	07cedH
	DW	07ceeH
	DW	07cf0H
	DW	07cf1H
	DW	07cf2H
	DW	07cf3H
	DW	07cf4H
	DW	07cf5H
	DW	07cf6H
	DW	07cf7H
	DW	07cf9H
	DW	07cfaH
	DW	07cfcH
	DW	07cfdH
	DW	07cfeH
	DW	07cffH
	DW	07d00H
	DW	07d01H
	DW	07d02H
	DW	07d03H
	DW	07d04H
	DW	07d05H
	DW	07d06H
	DW	07d07H
	DW	07d08H
	DW	07d09H
	DW	07d0bH
	DW	07d0cH
	DW	07d0dH
	DW	07d0eH
	DW	07d0fH
	DW	07d10H
	DW	0fffeH
	DW	07d11H
	DW	07d12H
	DW	07d13H
	DW	07d14H
	DW	07d15H
	DW	07d16H
	DW	07d17H
	DW	07d18H
	DW	07d19H
	DW	07d1aH
	DW	07d1bH
	DW	07d1cH
	DW	07d1dH
	DW	07d1eH
	DW	07d1fH
	DW	07d21H
	DW	07d23H
	DW	07d24H
	DW	07d25H
	DW	07d26H
	DW	07d28H
	DW	07d29H
	DW	07d2aH
	DW	07d2cH
	DW	07d2dH
	DW	07d2eH
	DW	07d30H
	DW	07d31H
	DW	07d32H
	DW	07d33H
	DW	07d34H
	DW	07d35H
	DW	07d36H
	DW	07d37H
	DW	07d38H
	DW	07d39H
	DW	07d3aH
	DW	07d3bH
	DW	07d3cH
	DW	07d3dH
	DW	07d3eH
	DW	07d3fH
	DW	07d40H
	DW	07d41H
	DW	07d42H
	DW	07d43H
	DW	07d44H
	DW	07d45H
	DW	07d46H
	DW	07d47H
	DW	07d48H
	DW	07d49H
	DW	07d4aH
	DW	07d4bH
	DW	07d4cH
	DW	07d4dH
	DW	07d4eH
	DW	07d4fH
	DW	07d50H
	DW	07d51H
	DW	07d52H
	DW	07d53H
	DW	07d54H
	DW	07d55H
	DW	07d56H
	DW	07d57H
	DW	07d58H
	DW	07d59H
	DW	07d5aH
	DW	07d5bH
	DW	07d5cH
	DW	07d5dH
	DW	07d5eH
	DW	07d5fH
	DW	07d60H
	DW	07d61H
	DW	07d62H
	DW	07d63H
	DW	07d64H
	DW	07d65H
	DW	07d66H
	DW	07d67H
	DW	07d68H
	DW	07d69H
	DW	07d6aH
	DW	07d6bH
	DW	07d6cH
	DW	07d6dH
	DW	07d6fH
	DW	07d70H
	DW	07d71H
	DW	07d72H
	DW	07d73H
	DW	07d74H
	DW	07d75H
	DW	07d76H
	DW	0fffeH
	DW	07d78H
	DW	07d79H
	DW	07d7aH
	DW	07d7bH
	DW	07d7cH
	DW	07d7dH
	DW	07d7eH
	DW	07d7fH
	DW	07d80H
	DW	07d81H
	DW	07d82H
	DW	07d83H
	DW	07d84H
	DW	07d85H
	DW	07d86H
	DW	07d87H
	DW	07d88H
	DW	07d89H
	DW	07d8aH
	DW	07d8bH
	DW	07d8cH
	DW	07d8dH
	DW	07d8eH
	DW	07d8fH
	DW	07d90H
	DW	07d91H
	DW	07d92H
	DW	07d93H
	DW	07d94H
	DW	07d95H
	DW	07d96H
	DW	07d97H
	DW	07d98H
	DW	07d99H
	DW	07d9aH
	DW	07d9bH
	DW	07d9cH
	DW	07d9dH
	DW	07d9eH
	DW	07d9fH
	DW	07da0H
	DW	07da1H
	DW	07da2H
	DW	07da3H
	DW	07da4H
	DW	07da5H
	DW	07da7H
	DW	07da8H
	DW	07da9H
	DW	07daaH
	DW	07dabH
	DW	07dacH
	DW	07dadH
	DW	07dafH
	DW	07db0H
	DW	07db1H
	DW	07db2H
	DW	07db3H
	DW	07db4H
	DW	07db5H
	DW	07db6H
	DW	07db7H
	DW	07db8H
	DW	07db9H
	DW	07dbaH
	DW	07dbbH
	DW	07dbcH
	DW	07dbdH
	DW	07dbeH
	DW	07dbfH
	DW	07dc0H
	DW	07dc1H
	DW	07dc2H
	DW	07dc3H
	DW	07dc4H
	DW	07dc5H
	DW	07dc6H
	DW	07dc7H
	DW	07dc8H
	DW	07dc9H
	DW	07dcaH
	DW	07dcbH
	DW	07dccH
	DW	07dcdH
	DW	07dceH
	DW	07dcfH
	DW	07dd0H
	DW	07dd1H
	DW	07dd2H
	DW	07dd3H
	DW	07dd4H
	DW	07dd5H
	DW	07dd6H
	DW	07dd7H
	DW	07dd8H
	DW	07dd9H
	DW	0fffeH
	DW	07ddaH
	DW	07ddbH
	DW	07ddcH
	DW	07dddH
	DW	07ddeH
	DW	07ddfH
	DW	07de0H
	DW	07de1H
	DW	07de2H
	DW	07de3H
	DW	07de4H
	DW	07de5H
	DW	07de6H
	DW	07de7H
	DW	07de8H
	DW	07de9H
	DW	07deaH
	DW	07debH
	DW	07decH
	DW	07dedH
	DW	07deeH
	DW	07defH
	DW	07df0H
	DW	07df1H
	DW	07df2H
	DW	07df3H
	DW	07df4H
	DW	07df5H
	DW	07df6H
	DW	07df7H
	DW	07df8H
	DW	07df9H
	DW	07dfaH
	DW	07dfbH
	DW	07dfcH
	DW	07dfdH
	DW	07dfeH
	DW	07dffH
	DW	07e00H
	DW	07e01H
	DW	07e02H
	DW	07e03H
	DW	07e04H
	DW	07e05H
	DW	07e06H
	DW	07e07H
	DW	07e08H
	DW	07e09H
	DW	07e0aH
	DW	07e0bH
	DW	07e0cH
	DW	07e0dH
	DW	07e0eH
	DW	07e0fH
	DW	07e10H
	DW	07e11H
	DW	07e12H
	DW	07e13H
	DW	07e14H
	DW	07e15H
	DW	07e16H
	DW	07e17H
	DW	07e18H
	DW	07e19H
	DW	07e1aH
	DW	07e1bH
	DW	07e1cH
	DW	07e1dH
	DW	07e1eH
	DW	07e1fH
	DW	07e20H
	DW	07e21H
	DW	07e22H
	DW	07e23H
	DW	07e24H
	DW	07e25H
	DW	07e26H
	DW	07e27H
	DW	07e28H
	DW	07e29H
	DW	07e2aH
	DW	07e2bH
	DW	07e2cH
	DW	07e2dH
	DW	07e2eH
	DW	07e2fH
	DW	07e30H
	DW	07e31H
	DW	07e32H
	DW	07e33H
	DW	07e34H
	DW	07e35H
	DW	07e36H
	DW	07e37H
	DW	07e38H
	DW	07e39H
	DW	0fffeH
	DW	07e3aH
	DW	07e3cH
	DW	07e3dH
	DW	07e3eH
	DW	07e3fH
	DW	07e40H
	DW	07e42H
	DW	07e43H
	DW	07e44H
	DW	07e45H
	DW	07e46H
	DW	07e48H
	DW	07e49H
	DW	07e4aH
	DW	07e4bH
	DW	07e4cH
	DW	07e4dH
	DW	07e4eH
	DW	07e4fH
	DW	07e50H
	DW	07e51H
	DW	07e52H
	DW	07e53H
	DW	07e54H
	DW	07e55H
	DW	07e56H
	DW	07e57H
	DW	07e58H
	DW	07e59H
	DW	07e5aH
	DW	07e5bH
	DW	07e5cH
	DW	07e5dH
	DW	07e5eH
	DW	07e5fH
	DW	07e60H
	DW	07e61H
	DW	07e62H
	DW	07e63H
	DW	07e64H
	DW	07e65H
	DW	07e66H
	DW	07e67H
	DW	07e68H
	DW	07e69H
	DW	07e6aH
	DW	07e6bH
	DW	07e6cH
	DW	07e6dH
	DW	07e6eH
	DW	07e6fH
	DW	07e70H
	DW	07e71H
	DW	07e72H
	DW	07e73H
	DW	07e74H
	DW	07e75H
	DW	07e76H
	DW	07e77H
	DW	07e78H
	DW	07e79H
	DW	07e7aH
	DW	07e7bH
	DW	07e7cH
	DW	07e7dH
	DW	07e7eH
	DW	07e7fH
	DW	07e80H
	DW	07e81H
	DW	07e83H
	DW	07e84H
	DW	07e85H
	DW	07e86H
	DW	07e87H
	DW	07e88H
	DW	07e89H
	DW	07e8aH
	DW	07e8bH
	DW	07e8cH
	DW	07e8dH
	DW	07e8eH
	DW	07e8fH
	DW	07e90H
	DW	07e91H
	DW	07e92H
	DW	07e93H
	DW	07e94H
	DW	07e95H
	DW	07e96H
	DW	07e97H
	DW	07e98H
	DW	07e99H
	DW	07e9aH
	DW	07e9cH
	DW	07e9dH
	DW	07e9eH
	DW	0fffeH
	DW	07eaeH
	DW	07eb4H
	DW	07ebbH
	DW	07ebcH
	DW	07ed6H
	DW	07ee4H
	DW	07eecH
	DW	07ef9H
	DW	07f0aH
	DW	07f10H
	DW	07f1eH
	DW	07f37H
	DW	07f39H
	DW	07f3bH
	DW	07f3cH
	DW	07f3dH
	DW	07f3eH
	DW	07f3fH
	DW	07f40H
	DW	07f41H
	DW	07f43H
	DW	07f46H
	DW	07f47H
	DW	07f48H
	DW	07f49H
	DW	07f4aH
	DW	07f4bH
	DW	07f4cH
	DW	07f4dH
	DW	07f4eH
	DW	07f4fH
	DW	07f52H
	DW	07f53H
	DW	07f56H
	DW	07f59H
	DW	07f5bH
	DW	07f5cH
	DW	07f5dH
	DW	07f5eH
	DW	07f60H
	DW	07f63H
	DW	07f64H
	DW	07f65H
	DW	07f66H
	DW	07f67H
	DW	07f6bH
	DW	07f6cH
	DW	07f6dH
	DW	07f6fH
	DW	07f70H
	DW	07f73H
	DW	07f75H
	DW	07f76H
	DW	07f77H
	DW	07f78H
	DW	07f7aH
	DW	07f7bH
	DW	07f7cH
	DW	07f7dH
	DW	07f7fH
	DW	07f80H
	DW	07f82H
	DW	07f83H
	DW	07f84H
	DW	07f85H
	DW	07f86H
	DW	07f87H
	DW	07f88H
	DW	07f89H
	DW	07f8bH
	DW	07f8dH
	DW	07f8fH
	DW	07f90H
	DW	07f91H
	DW	07f92H
	DW	07f93H
	DW	07f95H
	DW	07f96H
	DW	07f97H
	DW	07f98H
	DW	07f99H
	DW	07f9bH
	DW	07f9cH
	DW	07fa0H
	DW	07fa2H
	DW	07fa3H
	DW	07fa5H
	DW	07fa6H
	DW	07fa8H
	DW	07fa9H
	DW	07faaH
	DW	07fabH
	DW	07facH
	DW	07fadH
	DW	07faeH
	DW	07fb1H
	DW	0fffeH
	DW	07fb3H
	DW	07fb4H
	DW	07fb5H
	DW	07fb6H
	DW	07fb7H
	DW	07fbaH
	DW	07fbbH
	DW	07fbeH
	DW	07fc0H
	DW	07fc2H
	DW	07fc3H
	DW	07fc4H
	DW	07fc6H
	DW	07fc7H
	DW	07fc8H
	DW	07fc9H
	DW	07fcbH
	DW	07fcdH
	DW	07fcfH
	DW	07fd0H
	DW	07fd1H
	DW	07fd2H
	DW	07fd3H
	DW	07fd6H
	DW	07fd7H
	DW	07fd9H
	DW	07fdaH
	DW	07fdbH
	DW	07fdcH
	DW	07fddH
	DW	07fdeH
	DW	07fe2H
	DW	07fe3H
	DW	07fe4H
	DW	07fe7H
	DW	07fe8H
	DW	07feaH
	DW	07febH
	DW	07fecH
	DW	07fedH
	DW	07fefH
	DW	07ff2H
	DW	07ff4H
	DW	07ff5H
	DW	07ff6H
	DW	07ff7H
	DW	07ff8H
	DW	07ff9H
	DW	07ffaH
	DW	07ffdH
	DW	07ffeH
	DW	07fffH
	DW	08002H
	DW	08007H
	DW	08008H
	DW	08009H
	DW	0800aH
	DW	0800eH
	DW	0800fH
	DW	08011H
	DW	08013H
	DW	0801aH
	DW	0801bH
	DW	0801dH
	DW	0801eH
	DW	0801fH
	DW	08021H
	DW	08023H
	DW	08024H
	DW	0802bH
	DW	0802cH
	DW	0802dH
	DW	0802eH
	DW	0802fH
	DW	08030H
	DW	08032H
	DW	08034H
	DW	08039H
	DW	0803aH
	DW	0803cH
	DW	0803eH
	DW	08040H
	DW	08041H
	DW	08044H
	DW	08045H
	DW	08047H
	DW	08048H
	DW	08049H
	DW	0804eH
	DW	0804fH
	DW	08050H
	DW	08051H
	DW	08053H
	DW	08055H
	DW	08056H
	DW	08057H
	DW	0fffeH
	DW	08059H
	DW	0805bH
	DW	0805cH
	DW	0805dH
	DW	0805eH
	DW	0805fH
	DW	08060H
	DW	08061H
	DW	08062H
	DW	08063H
	DW	08064H
	DW	08065H
	DW	08066H
	DW	08067H
	DW	08068H
	DW	0806bH
	DW	0806cH
	DW	0806dH
	DW	0806eH
	DW	0806fH
	DW	08070H
	DW	08072H
	DW	08073H
	DW	08074H
	DW	08075H
	DW	08076H
	DW	08077H
	DW	08078H
	DW	08079H
	DW	0807aH
	DW	0807bH
	DW	0807cH
	DW	0807dH
	DW	0807eH
	DW	08081H
	DW	08082H
	DW	08085H
	DW	08088H
	DW	0808aH
	DW	0808dH
	DW	0808eH
	DW	0808fH
	DW	08090H
	DW	08091H
	DW	08092H
	DW	08094H
	DW	08095H
	DW	08097H
	DW	08099H
	DW	0809eH
	DW	080a3H
	DW	080a6H
	DW	080a7H
	DW	080a8H
	DW	080acH
	DW	080b0H
	DW	080b3H
	DW	080b5H
	DW	080b6H
	DW	080b8H
	DW	080b9H
	DW	080bbH
	DW	080c5H
	DW	080c7H
	DW	080c8H
	DW	080c9H
	DW	080caH
	DW	080cbH
	DW	080cfH
	DW	080d0H
	DW	080d1H
	DW	080d2H
	DW	080d3H
	DW	080d4H
	DW	080d5H
	DW	080d8H
	DW	080dfH
	DW	080e0H
	DW	080e2H
	DW	080e3H
	DW	080e6H
	DW	080eeH
	DW	080f5H
	DW	080f7H
	DW	080f9H
	DW	080fbH
	DW	080feH
	DW	080ffH
	DW	08100H
	DW	08101H
	DW	08103H
	DW	08104H
	DW	08105H
	DW	08107H
	DW	08108H
	DW	0810bH
	DW	0fffeH
	DW	0810cH
	DW	08115H
	DW	08117H
	DW	08119H
	DW	0811bH
	DW	0811cH
	DW	0811dH
	DW	0811fH
	DW	08120H
	DW	08121H
	DW	08122H
	DW	08123H
	DW	08124H
	DW	08125H
	DW	08126H
	DW	08127H
	DW	08128H
	DW	08129H
	DW	0812aH
	DW	0812bH
	DW	0812dH
	DW	0812eH
	DW	08130H
	DW	08133H
	DW	08134H
	DW	08135H
	DW	08137H
	DW	08139H
	DW	0813aH
	DW	0813bH
	DW	0813cH
	DW	0813dH
	DW	0813fH
	DW	08140H
	DW	08141H
	DW	08142H
	DW	08143H
	DW	08144H
	DW	08145H
	DW	08147H
	DW	08149H
	DW	0814dH
	DW	0814eH
	DW	0814fH
	DW	08152H
	DW	08156H
	DW	08157H
	DW	08158H
	DW	0815bH
	DW	0815cH
	DW	0815dH
	DW	0815eH
	DW	0815fH
	DW	08161H
	DW	08162H
	DW	08163H
	DW	08164H
	DW	08166H
	DW	08168H
	DW	0816aH
	DW	0816bH
	DW	0816cH
	DW	0816fH
	DW	08172H
	DW	08173H
	DW	08175H
	DW	08176H
	DW	08177H
	DW	08178H
	DW	08181H
	DW	08183H
	DW	08184H
	DW	08185H
	DW	08186H
	DW	08187H
	DW	08189H
	DW	0818bH
	DW	0818cH
	DW	0818dH
	DW	0818eH
	DW	08190H
	DW	08192H
	DW	08193H
	DW	08194H
	DW	08195H
	DW	08196H
	DW	08197H
	DW	08199H
	DW	0819aH
	DW	0819eH
	DW	0819fH
	DW	081a0H
	DW	081a1H
	DW	081a2H
	DW	081a4H
	DW	081a5H
	DW	0fffeH
	DW	081a7H
	DW	081a9H
	DW	081abH
	DW	081acH
	DW	081adH
	DW	081aeH
	DW	081afH
	DW	081b0H
	DW	081b1H
	DW	081b2H
	DW	081b4H
	DW	081b5H
	DW	081b6H
	DW	081b7H
	DW	081b8H
	DW	081b9H
	DW	081bcH
	DW	081bdH
	DW	081beH
	DW	081bfH
	DW	081c4H
	DW	081c5H
	DW	081c7H
	DW	081c8H
	DW	081c9H
	DW	081cbH
	DW	081cdH
	DW	081ceH
	DW	081cfH
	DW	081d0H
	DW	081d1H
	DW	081d2H
	DW	081d3H
	DW	081d4H
	DW	081d5H
	DW	081d6H
	DW	081d7H
	DW	081d8H
	DW	081d9H
	DW	081daH
	DW	081dbH
	DW	081dcH
	DW	081ddH
	DW	081deH
	DW	081dfH
	DW	081e0H
	DW	081e1H
	DW	081e2H
	DW	081e4H
	DW	081e5H
	DW	081e6H
	DW	081e8H
	DW	081e9H
	DW	081ebH
	DW	081eeH
	DW	081efH
	DW	081f0H
	DW	081f1H
	DW	081f2H
	DW	081f5H
	DW	081f6H
	DW	081f7H
	DW	081f8H
	DW	081f9H
	DW	081faH
	DW	081fdH
	DW	081ffH
	DW	08203H
	DW	08207H
	DW	08208H
	DW	08209H
	DW	0820aH
	DW	0820bH
	DW	0820eH
	DW	0820fH
	DW	08211H
	DW	08213H
	DW	08215H
	DW	08216H
	DW	08217H
	DW	08218H
	DW	08219H
	DW	0821aH
	DW	0821dH
	DW	08220H
	DW	08224H
	DW	08225H
	DW	08226H
	DW	08227H
	DW	08229H
	DW	0822eH
	DW	08232H
	DW	0823aH
	DW	0823cH
	DW	0823dH
	DW	0823fH
	DW	0fffeH
	DW	08240H
	DW	08241H
	DW	08242H
	DW	08243H
	DW	08245H
	DW	08246H
	DW	08248H
	DW	0824aH
	DW	0824cH
	DW	0824dH
	DW	0824eH
	DW	08250H
	DW	08251H
	DW	08252H
	DW	08253H
	DW	08254H
	DW	08255H
	DW	08256H
	DW	08257H
	DW	08259H
	DW	0825bH
	DW	0825cH
	DW	0825dH
	DW	0825eH
	DW	08260H
	DW	08261H
	DW	08262H
	DW	08263H
	DW	08264H
	DW	08265H
	DW	08266H
	DW	08267H
	DW	08269H
	DW	0826aH
	DW	0826bH
	DW	0826cH
	DW	0826dH
	DW	08271H
	DW	08275H
	DW	08276H
	DW	08277H
	DW	08278H
	DW	0827bH
	DW	0827cH
	DW	08280H
	DW	08281H
	DW	08283H
	DW	08285H
	DW	08286H
	DW	08287H
	DW	08289H
	DW	0828cH
	DW	08290H
	DW	08293H
	DW	08294H
	DW	08295H
	DW	08296H
	DW	0829aH
	DW	0829bH
	DW	0829eH
	DW	082a0H
	DW	082a2H
	DW	082a3H
	DW	082a7H
	DW	082b2H
	DW	082b5H
	DW	082b6H
	DW	082baH
	DW	082bbH
	DW	082bcH
	DW	082bfH
	DW	082c0H
	DW	082c2H
	DW	082c3H
	DW	082c5H
	DW	082c6H
	DW	082c9H
	DW	082d0H
	DW	082d6H
	DW	082d9H
	DW	082daH
	DW	082ddH
	DW	082e2H
	DW	082e7H
	DW	082e8H
	DW	082e9H
	DW	082eaH
	DW	082ecH
	DW	082edH
	DW	082eeH
	DW	082f0H
	DW	082f2H
	DW	082f3H
	DW	082f5H
	DW	082f6H
	DW	082f8H
	DW	0fffeH
	DW	082faH
	DW	082fcH
	DW	082fdH
	DW	082feH
	DW	082ffH
	DW	08300H
	DW	0830aH
	DW	0830bH
	DW	0830dH
	DW	08310H
	DW	08312H
	DW	08313H
	DW	08316H
	DW	08318H
	DW	08319H
	DW	0831dH
	DW	0831eH
	DW	0831fH
	DW	08320H
	DW	08321H
	DW	08322H
	DW	08323H
	DW	08324H
	DW	08325H
	DW	08326H
	DW	08329H
	DW	0832aH
	DW	0832eH
	DW	08330H
	DW	08332H
	DW	08337H
	DW	0833bH
	DW	0833dH
	DW	0833eH
	DW	0833fH
	DW	08341H
	DW	08342H
	DW	08344H
	DW	08345H
	DW	08348H
	DW	0834aH
	DW	0834bH
	DW	0834cH
	DW	0834dH
	DW	0834eH
	DW	08353H
	DW	08355H
	DW	08356H
	DW	08357H
	DW	08358H
	DW	08359H
	DW	0835dH
	DW	08362H
	DW	08370H
	DW	08371H
	DW	08372H
	DW	08373H
	DW	08374H
	DW	08375H
	DW	08376H
	DW	08379H
	DW	0837aH
	DW	0837eH
	DW	0837fH
	DW	08380H
	DW	08381H
	DW	08382H
	DW	08383H
	DW	08384H
	DW	08387H
	DW	08388H
	DW	0838aH
	DW	0838bH
	DW	0838cH
	DW	0838dH
	DW	0838fH
	DW	08390H
	DW	08391H
	DW	08394H
	DW	08395H
	DW	08396H
	DW	08397H
	DW	08399H
	DW	0839aH
	DW	0839dH
	DW	0839fH
	DW	083a1H
	DW	083a2H
	DW	083a3H
	DW	083a4H
	DW	083a5H
	DW	083a6H
	DW	083a7H
	DW	083acH
	DW	083adH
	DW	083aeH
	DW	0fffeH
	DW	083afH
	DW	083b5H
	DW	083bbH
	DW	083beH
	DW	083bfH
	DW	083c2H
	DW	083c3H
	DW	083c4H
	DW	083c6H
	DW	083c8H
	DW	083c9H
	DW	083cbH
	DW	083cdH
	DW	083ceH
	DW	083d0H
	DW	083d1H
	DW	083d2H
	DW	083d3H
	DW	083d5H
	DW	083d7H
	DW	083d9H
	DW	083daH
	DW	083dbH
	DW	083deH
	DW	083e2H
	DW	083e3H
	DW	083e4H
	DW	083e6H
	DW	083e7H
	DW	083e8H
	DW	083ebH
	DW	083ecH
	DW	083edH
	DW	083eeH
	DW	083efH
	DW	083f3H
	DW	083f4H
	DW	083f5H
	DW	083f6H
	DW	083f7H
	DW	083faH
	DW	083fbH
	DW	083fcH
	DW	083feH
	DW	083ffH
	DW	08400H
	DW	08402H
	DW	08405H
	DW	08407H
	DW	08408H
	DW	08409H
	DW	0840aH
	DW	08410H
	DW	08412H
	DW	08413H
	DW	08414H
	DW	08415H
	DW	08416H
	DW	08417H
	DW	08419H
	DW	0841aH
	DW	0841bH
	DW	0841eH
	DW	0841fH
	DW	08420H
	DW	08421H
	DW	08422H
	DW	08423H
	DW	08429H
	DW	0842aH
	DW	0842bH
	DW	0842cH
	DW	0842dH
	DW	0842eH
	DW	0842fH
	DW	08430H
	DW	08432H
	DW	08433H
	DW	08434H
	DW	08435H
	DW	08436H
	DW	08437H
	DW	08439H
	DW	0843aH
	DW	0843bH
	DW	0843eH
	DW	0843fH
	DW	08440H
	DW	08441H
	DW	08442H
	DW	08443H
	DW	08444H
	DW	08445H
	DW	08447H
	DW	08448H
	DW	08449H
	DW	0fffeH
	DW	0844aH
	DW	0844bH
	DW	0844cH
	DW	0844dH
	DW	0844eH
	DW	0844fH
	DW	08450H
	DW	08452H
	DW	08453H
	DW	08454H
	DW	08455H
	DW	08456H
	DW	08458H
	DW	0845dH
	DW	0845eH
	DW	0845fH
	DW	08460H
	DW	08462H
	DW	08464H
	DW	08465H
	DW	08466H
	DW	08467H
	DW	08468H
	DW	0846aH
	DW	0846eH
	DW	0846fH
	DW	08470H
	DW	08472H
	DW	08474H
	DW	08477H
	DW	08479H
	DW	0847bH
	DW	0847cH
	DW	0847dH
	DW	0847eH
	DW	0847fH
	DW	08480H
	DW	08481H
	DW	08483H
	DW	08484H
	DW	08485H
	DW	08486H
	DW	0848aH
	DW	0848dH
	DW	0848fH
	DW	08490H
	DW	08491H
	DW	08492H
	DW	08493H
	DW	08494H
	DW	08495H
	DW	08496H
	DW	08498H
	DW	0849aH
	DW	0849bH
	DW	0849dH
	DW	0849eH
	DW	0849fH
	DW	084a0H
	DW	084a2H
	DW	084a3H
	DW	084a4H
	DW	084a5H
	DW	084a6H
	DW	084a7H
	DW	084a8H
	DW	084a9H
	DW	084aaH
	DW	084abH
	DW	084acH
	DW	084adH
	DW	084aeH
	DW	084b0H
	DW	084b1H
	DW	084b3H
	DW	084b5H
	DW	084b6H
	DW	084b7H
	DW	084bbH
	DW	084bcH
	DW	084beH
	DW	084c0H
	DW	084c2H
	DW	084c3H
	DW	084c5H
	DW	084c6H
	DW	084c7H
	DW	084c8H
	DW	084cbH
	DW	084ccH
	DW	084ceH
	DW	084cfH
	DW	084d2H
	DW	084d4H
	DW	084d5H
	DW	084d7H
	DW	0fffeH
	DW	084d8H
	DW	084d9H
	DW	084daH
	DW	084dbH
	DW	084dcH
	DW	084deH
	DW	084e1H
	DW	084e2H
	DW	084e4H
	DW	084e7H
	DW	084e8H
	DW	084e9H
	DW	084eaH
	DW	084ebH
	DW	084edH
	DW	084eeH
	DW	084efH
	DW	084f1H
	DW	084f2H
	DW	084f3H
	DW	084f4H
	DW	084f5H
	DW	084f6H
	DW	084f7H
	DW	084f8H
	DW	084f9H
	DW	084faH
	DW	084fbH
	DW	084fdH
	DW	084feH
	DW	08500H
	DW	08501H
	DW	08502H
	DW	08503H
	DW	08504H
	DW	08505H
	DW	08506H
	DW	08507H
	DW	08508H
	DW	08509H
	DW	0850aH
	DW	0850bH
	DW	0850dH
	DW	0850eH
	DW	0850fH
	DW	08510H
	DW	08512H
	DW	08514H
	DW	08515H
	DW	08516H
	DW	08518H
	DW	08519H
	DW	0851bH
	DW	0851cH
	DW	0851dH
	DW	0851eH
	DW	08520H
	DW	08522H
	DW	08523H
	DW	08524H
	DW	08525H
	DW	08526H
	DW	08527H
	DW	08528H
	DW	08529H
	DW	0852aH
	DW	0852dH
	DW	0852eH
	DW	0852fH
	DW	08530H
	DW	08531H
	DW	08532H
	DW	08533H
	DW	08534H
	DW	08535H
	DW	08536H
	DW	0853eH
	DW	0853fH
	DW	08540H
	DW	08541H
	DW	08542H
	DW	08544H
	DW	08545H
	DW	08546H
	DW	08547H
	DW	0854bH
	DW	0854cH
	DW	0854dH
	DW	0854eH
	DW	0854fH
	DW	08550H
	DW	08551H
	DW	08552H
	DW	08553H
	DW	08554H
	DW	08555H
	DW	0fffeH
	DW	08557H
	DW	08558H
	DW	0855aH
	DW	0855bH
	DW	0855cH
	DW	0855dH
	DW	0855fH
	DW	08560H
	DW	08561H
	DW	08562H
	DW	08563H
	DW	08565H
	DW	08566H
	DW	08567H
	DW	08569H
	DW	0856aH
	DW	0856bH
	DW	0856cH
	DW	0856dH
	DW	0856eH
	DW	0856fH
	DW	08570H
	DW	08571H
	DW	08573H
	DW	08575H
	DW	08576H
	DW	08577H
	DW	08578H
	DW	0857cH
	DW	0857dH
	DW	0857fH
	DW	08580H
	DW	08581H
	DW	08582H
	DW	08583H
	DW	08586H
	DW	08588H
	DW	08589H
	DW	0858aH
	DW	0858bH
	DW	0858cH
	DW	0858dH
	DW	0858eH
	DW	08590H
	DW	08591H
	DW	08592H
	DW	08593H
	DW	08594H
	DW	08595H
	DW	08596H
	DW	08597H
	DW	08598H
	DW	08599H
	DW	0859aH
	DW	0859dH
	DW	0859eH
	DW	0859fH
	DW	085a0H
	DW	085a1H
	DW	085a2H
	DW	085a3H
	DW	085a5H
	DW	085a6H
	DW	085a7H
	DW	085a9H
	DW	085abH
	DW	085acH
	DW	085adH
	DW	085b1H
	DW	085b2H
	DW	085b3H
	DW	085b4H
	DW	085b5H
	DW	085b6H
	DW	085b8H
	DW	085baH
	DW	085bbH
	DW	085bcH
	DW	085bdH
	DW	085beH
	DW	085bfH
	DW	085c0H
	DW	085c2H
	DW	085c3H
	DW	085c4H
	DW	085c5H
	DW	085c6H
	DW	085c7H
	DW	085c8H
	DW	085caH
	DW	085cbH
	DW	085ccH
	DW	085cdH
	DW	085ceH
	DW	085d1H
	DW	085d2H
	DW	0fffeH
	DW	085d4H
	DW	085d6H
	DW	085d7H
	DW	085d8H
	DW	085d9H
	DW	085daH
	DW	085dbH
	DW	085ddH
	DW	085deH
	DW	085dfH
	DW	085e0H
	DW	085e1H
	DW	085e2H
	DW	085e3H
	DW	085e5H
	DW	085e6H
	DW	085e7H
	DW	085e8H
	DW	085eaH
	DW	085ebH
	DW	085ecH
	DW	085edH
	DW	085eeH
	DW	085efH
	DW	085f0H
	DW	085f1H
	DW	085f2H
	DW	085f3H
	DW	085f4H
	DW	085f5H
	DW	085f6H
	DW	085f7H
	DW	085f8H
	DW	085f9H
	DW	085faH
	DW	085fcH
	DW	085fdH
	DW	085feH
	DW	08600H
	DW	08601H
	DW	08602H
	DW	08603H
	DW	08604H
	DW	08606H
	DW	08607H
	DW	08608H
	DW	08609H
	DW	0860aH
	DW	0860bH
	DW	0860cH
	DW	0860dH
	DW	0860eH
	DW	0860fH
	DW	08610H
	DW	08612H
	DW	08613H
	DW	08614H
	DW	08615H
	DW	08617H
	DW	08618H
	DW	08619H
	DW	0861aH
	DW	0861bH
	DW	0861cH
	DW	0861dH
	DW	0861eH
	DW	0861fH
	DW	08620H
	DW	08621H
	DW	08622H
	DW	08623H
	DW	08624H
	DW	08625H
	DW	08626H
	DW	08628H
	DW	0862aH
	DW	0862bH
	DW	0862cH
	DW	0862dH
	DW	0862eH
	DW	0862fH
	DW	08630H
	DW	08631H
	DW	08632H
	DW	08633H
	DW	08634H
	DW	08635H
	DW	08636H
	DW	08637H
	DW	08639H
	DW	0863aH
	DW	0863bH
	DW	0863dH
	DW	0863eH
	DW	0863fH
	DW	08640H
	DW	0fffeH
	DW	08641H
	DW	08642H
	DW	08643H
	DW	08644H
	DW	08645H
	DW	08646H
	DW	08647H
	DW	08648H
	DW	08649H
	DW	0864aH
	DW	0864bH
	DW	0864cH
	DW	08652H
	DW	08653H
	DW	08655H
	DW	08656H
	DW	08657H
	DW	08658H
	DW	08659H
	DW	0865bH
	DW	0865cH
	DW	0865dH
	DW	0865fH
	DW	08660H
	DW	08661H
	DW	08663H
	DW	08664H
	DW	08665H
	DW	08666H
	DW	08667H
	DW	08668H
	DW	08669H
	DW	0866aH
	DW	0866dH
	DW	0866fH
	DW	08670H
	DW	08672H
	DW	08673H
	DW	08674H
	DW	08675H
	DW	08676H
	DW	08677H
	DW	08678H
	DW	08683H
	DW	08684H
	DW	08685H
	DW	08686H
	DW	08687H
	DW	08688H
	DW	08689H
	DW	0868eH
	DW	0868fH
	DW	08690H
	DW	08691H
	DW	08692H
	DW	08694H
	DW	08696H
	DW	08697H
	DW	08698H
	DW	08699H
	DW	0869aH
	DW	0869bH
	DW	0869eH
	DW	0869fH
	DW	086a0H
	DW	086a1H
	DW	086a2H
	DW	086a5H
	DW	086a6H
	DW	086abH
	DW	086adH
	DW	086aeH
	DW	086b2H
	DW	086b3H
	DW	086b7H
	DW	086b8H
	DW	086b9H
	DW	086bbH
	DW	086bcH
	DW	086bdH
	DW	086beH
	DW	086bfH
	DW	086c1H
	DW	086c2H
	DW	086c3H
	DW	086c5H
	DW	086c8H
	DW	086ccH
	DW	086cdH
	DW	086d2H
	DW	086d3H
	DW	086d5H
	DW	086d6H
	DW	086d7H
	DW	086daH
	DW	086dcH
	DW	0fffeH
	DW	086ddH
	DW	086e0H
	DW	086e1H
	DW	086e2H
	DW	086e3H
	DW	086e5H
	DW	086e6H
	DW	086e7H
	DW	086e8H
	DW	086eaH
	DW	086ebH
	DW	086ecH
	DW	086efH
	DW	086f5H
	DW	086f6H
	DW	086f7H
	DW	086faH
	DW	086fbH
	DW	086fcH
	DW	086fdH
	DW	086ffH
	DW	08701H
	DW	08704H
	DW	08705H
	DW	08706H
	DW	0870bH
	DW	0870cH
	DW	0870eH
	DW	0870fH
	DW	08710H
	DW	08711H
	DW	08714H
	DW	08716H
	DW	08719H
	DW	0871bH
	DW	0871dH
	DW	0871fH
	DW	08720H
	DW	08724H
	DW	08726H
	DW	08727H
	DW	08728H
	DW	0872aH
	DW	0872bH
	DW	0872cH
	DW	0872dH
	DW	0872fH
	DW	08730H
	DW	08732H
	DW	08733H
	DW	08735H
	DW	08736H
	DW	08738H
	DW	08739H
	DW	0873aH
	DW	0873cH
	DW	0873dH
	DW	08740H
	DW	08741H
	DW	08742H
	DW	08743H
	DW	08744H
	DW	08745H
	DW	08746H
	DW	0874aH
	DW	0874bH
	DW	0874dH
	DW	0874fH
	DW	08750H
	DW	08751H
	DW	08752H
	DW	08754H
	DW	08755H
	DW	08756H
	DW	08758H
	DW	0875aH
	DW	0875bH
	DW	0875cH
	DW	0875dH
	DW	0875eH
	DW	0875fH
	DW	08761H
	DW	08762H
	DW	08766H
	DW	08767H
	DW	08768H
	DW	08769H
	DW	0876aH
	DW	0876bH
	DW	0876cH
	DW	0876dH
	DW	0876fH
	DW	08771H
	DW	08772H
	DW	08773H
	DW	08775H
	DW	0fffeH
	DW	08777H
	DW	08778H
	DW	08779H
	DW	0877aH
	DW	0877fH
	DW	08780H
	DW	08781H
	DW	08784H
	DW	08786H
	DW	08787H
	DW	08789H
	DW	0878aH
	DW	0878cH
	DW	0878eH
	DW	0878fH
	DW	08790H
	DW	08791H
	DW	08792H
	DW	08794H
	DW	08795H
	DW	08796H
	DW	08798H
	DW	08799H
	DW	0879aH
	DW	0879bH
	DW	0879cH
	DW	0879dH
	DW	0879eH
	DW	087a0H
	DW	087a1H
	DW	087a2H
	DW	087a3H
	DW	087a4H
	DW	087a5H
	DW	087a6H
	DW	087a7H
	DW	087a9H
	DW	087aaH
	DW	087aeH
	DW	087b0H
	DW	087b1H
	DW	087b2H
	DW	087b4H
	DW	087b6H
	DW	087b7H
	DW	087b8H
	DW	087b9H
	DW	087bbH
	DW	087bcH
	DW	087beH
	DW	087bfH
	DW	087c1H
	DW	087c2H
	DW	087c3H
	DW	087c4H
	DW	087c5H
	DW	087c7H
	DW	087c8H
	DW	087c9H
	DW	087ccH
	DW	087cdH
	DW	087ceH
	DW	087cfH
	DW	087d0H
	DW	087d4H
	DW	087d5H
	DW	087d6H
	DW	087d7H
	DW	087d8H
	DW	087d9H
	DW	087daH
	DW	087dcH
	DW	087ddH
	DW	087deH
	DW	087dfH
	DW	087e1H
	DW	087e2H
	DW	087e3H
	DW	087e4H
	DW	087e6H
	DW	087e7H
	DW	087e8H
	DW	087e9H
	DW	087ebH
	DW	087ecH
	DW	087edH
	DW	087efH
	DW	087f0H
	DW	087f1H
	DW	087f2H
	DW	087f3H
	DW	087f4H
	DW	087f5H
	DW	087f6H
	DW	087f7H
	DW	087f8H
	DW	0fffeH
	DW	087faH
	DW	087fbH
	DW	087fcH
	DW	087fdH
	DW	087ffH
	DW	08800H
	DW	08801H
	DW	08802H
	DW	08804H
	DW	08805H
	DW	08806H
	DW	08807H
	DW	08808H
	DW	08809H
	DW	0880bH
	DW	0880cH
	DW	0880dH
	DW	0880eH
	DW	0880fH
	DW	08810H
	DW	08811H
	DW	08812H
	DW	08814H
	DW	08817H
	DW	08818H
	DW	08819H
	DW	0881aH
	DW	0881cH
	DW	0881dH
	DW	0881eH
	DW	0881fH
	DW	08820H
	DW	08823H
	DW	08824H
	DW	08825H
	DW	08826H
	DW	08827H
	DW	08828H
	DW	08829H
	DW	0882aH
	DW	0882bH
	DW	0882cH
	DW	0882dH
	DW	0882eH
	DW	0882fH
	DW	08830H
	DW	08831H
	DW	08833H
	DW	08834H
	DW	08835H
	DW	08836H
	DW	08837H
	DW	08838H
	DW	0883aH
	DW	0883bH
	DW	0883dH
	DW	0883eH
	DW	0883fH
	DW	08841H
	DW	08842H
	DW	08843H
	DW	08846H
	DW	08847H
	DW	08848H
	DW	08849H
	DW	0884aH
	DW	0884bH
	DW	0884eH
	DW	0884fH
	DW	08850H
	DW	08851H
	DW	08852H
	DW	08853H
	DW	08855H
	DW	08856H
	DW	08858H
	DW	0885aH
	DW	0885bH
	DW	0885cH
	DW	0885dH
	DW	0885eH
	DW	0885fH
	DW	08860H
	DW	08866H
	DW	08867H
	DW	0886aH
	DW	0886dH
	DW	0886fH
	DW	08871H
	DW	08873H
	DW	08874H
	DW	08875H
	DW	08876H
	DW	08878H
	DW	08879H
	DW	0887aH
	DW	0fffeH
	DW	0887bH
	DW	0887cH
	DW	08880H
	DW	08883H
	DW	08886H
	DW	08887H
	DW	08889H
	DW	0888aH
	DW	0888cH
	DW	0888eH
	DW	0888fH
	DW	08890H
	DW	08891H
	DW	08893H
	DW	08894H
	DW	08895H
	DW	08897H
	DW	08898H
	DW	08899H
	DW	0889aH
	DW	0889bH
	DW	0889dH
	DW	0889eH
	DW	0889fH
	DW	088a0H
	DW	088a1H
	DW	088a3H
	DW	088a5H
	DW	088a6H
	DW	088a7H
	DW	088a8H
	DW	088a9H
	DW	088aaH
	DW	088acH
	DW	088aeH
	DW	088afH
	DW	088b0H
	DW	088b2H
	DW	088b3H
	DW	088b4H
	DW	088b5H
	DW	088b6H
	DW	088b8H
	DW	088b9H
	DW	088baH
	DW	088bbH
	DW	088bdH
	DW	088beH
	DW	088bfH
	DW	088c0H
	DW	088c3H
	DW	088c4H
	DW	088c7H
	DW	088c8H
	DW	088caH
	DW	088cbH
	DW	088ccH
	DW	088cdH
	DW	088cfH
	DW	088d0H
	DW	088d1H
	DW	088d3H
	DW	088d6H
	DW	088d7H
	DW	088daH
	DW	088dbH
	DW	088dcH
	DW	088ddH
	DW	088deH
	DW	088e0H
	DW	088e1H
	DW	088e6H
	DW	088e7H
	DW	088e9H
	DW	088eaH
	DW	088ebH
	DW	088ecH
	DW	088edH
	DW	088eeH
	DW	088efH
	DW	088f2H
	DW	088f5H
	DW	088f6H
	DW	088f7H
	DW	088faH
	DW	088fbH
	DW	088fdH
	DW	088ffH
	DW	08900H
	DW	08901H
	DW	08903H
	DW	08904H
	DW	08905H
	DW	08906H
	DW	08907H
	DW	08908H
	DW	0fffeH
	DW	08909H
	DW	0890bH
	DW	0890cH
	DW	0890dH
	DW	0890eH
	DW	0890fH
	DW	08911H
	DW	08914H
	DW	08915H
	DW	08916H
	DW	08917H
	DW	08918H
	DW	0891cH
	DW	0891dH
	DW	0891eH
	DW	0891fH
	DW	08920H
	DW	08922H
	DW	08923H
	DW	08924H
	DW	08926H
	DW	08927H
	DW	08928H
	DW	08929H
	DW	0892cH
	DW	0892dH
	DW	0892eH
	DW	0892fH
	DW	08931H
	DW	08932H
	DW	08933H
	DW	08935H
	DW	08937H
	DW	08938H
	DW	08939H
	DW	0893aH
	DW	0893bH
	DW	0893cH
	DW	0893dH
	DW	0893eH
	DW	0893fH
	DW	08940H
	DW	08942H
	DW	08943H
	DW	08945H
	DW	08946H
	DW	08947H
	DW	08948H
	DW	08949H
	DW	0894aH
	DW	0894bH
	DW	0894cH
	DW	0894dH
	DW	0894eH
	DW	0894fH
	DW	08950H
	DW	08951H
	DW	08952H
	DW	08953H
	DW	08954H
	DW	08955H
	DW	08956H
	DW	08957H
	DW	08958H
	DW	08959H
	DW	0895aH
	DW	0895bH
	DW	0895cH
	DW	0895dH
	DW	08960H
	DW	08961H
	DW	08962H
	DW	08963H
	DW	08964H
	DW	08965H
	DW	08967H
	DW	08968H
	DW	08969H
	DW	0896aH
	DW	0896bH
	DW	0896cH
	DW	0896dH
	DW	0896eH
	DW	0896fH
	DW	08970H
	DW	08971H
	DW	08972H
	DW	08973H
	DW	08974H
	DW	08975H
	DW	08976H
	DW	08977H
	DW	08978H
	DW	08979H
	DW	0897aH
	DW	0897cH
	DW	0fffeH
	DW	0897dH
	DW	0897eH
	DW	08980H
	DW	08982H
	DW	08984H
	DW	08985H
	DW	08987H
	DW	08988H
	DW	08989H
	DW	0898aH
	DW	0898bH
	DW	0898cH
	DW	0898dH
	DW	0898eH
	DW	0898fH
	DW	08990H
	DW	08991H
	DW	08992H
	DW	08993H
	DW	08994H
	DW	08995H
	DW	08996H
	DW	08997H
	DW	08998H
	DW	08999H
	DW	0899aH
	DW	0899bH
	DW	0899cH
	DW	0899dH
	DW	0899eH
	DW	0899fH
	DW	089a0H
	DW	089a1H
	DW	089a2H
	DW	089a3H
	DW	089a4H
	DW	089a5H
	DW	089a6H
	DW	089a7H
	DW	089a8H
	DW	089a9H
	DW	089aaH
	DW	089abH
	DW	089acH
	DW	089adH
	DW	089aeH
	DW	089afH
	DW	089b0H
	DW	089b1H
	DW	089b2H
	DW	089b3H
	DW	089b4H
	DW	089b5H
	DW	089b6H
	DW	089b7H
	DW	089b8H
	DW	089b9H
	DW	089baH
	DW	089bbH
	DW	089bcH
	DW	089bdH
	DW	089beH
	DW	089bfH
	DW	089c0H
	DW	089c3H
	DW	089cdH
	DW	089d3H
	DW	089d4H
	DW	089d5H
	DW	089d7H
	DW	089d8H
	DW	089d9H
	DW	089dbH
	DW	089ddH
	DW	089dfH
	DW	089e0H
	DW	089e1H
	DW	089e2H
	DW	089e4H
	DW	089e7H
	DW	089e8H
	DW	089e9H
	DW	089eaH
	DW	089ecH
	DW	089edH
	DW	089eeH
	DW	089f0H
	DW	089f1H
	DW	089f2H
	DW	089f4H
	DW	089f5H
	DW	089f6H
	DW	089f7H
	DW	089f8H
	DW	089f9H
	DW	089faH
	DW	0fffeH
	DW	089fbH
	DW	089fcH
	DW	089fdH
	DW	089feH
	DW	089ffH
	DW	08a01H
	DW	08a02H
	DW	08a03H
	DW	08a04H
	DW	08a05H
	DW	08a06H
	DW	08a08H
	DW	08a09H
	DW	08a0aH
	DW	08a0bH
	DW	08a0cH
	DW	08a0dH
	DW	08a0eH
	DW	08a0fH
	DW	08a10H
	DW	08a11H
	DW	08a12H
	DW	08a13H
	DW	08a14H
	DW	08a15H
	DW	08a16H
	DW	08a17H
	DW	08a18H
	DW	08a19H
	DW	08a1aH
	DW	08a1bH
	DW	08a1cH
	DW	08a1dH
	DW	08a1eH
	DW	08a1fH
	DW	08a20H
	DW	08a21H
	DW	08a22H
	DW	08a23H
	DW	08a24H
	DW	08a25H
	DW	08a26H
	DW	08a27H
	DW	08a28H
	DW	08a29H
	DW	08a2aH
	DW	08a2bH
	DW	08a2cH
	DW	08a2dH
	DW	08a2eH
	DW	08a2fH
	DW	08a30H
	DW	08a31H
	DW	08a32H
	DW	08a33H
	DW	08a34H
	DW	08a35H
	DW	08a36H
	DW	08a37H
	DW	08a38H
	DW	08a39H
	DW	08a3aH
	DW	08a3bH
	DW	08a3cH
	DW	08a3dH
	DW	08a3fH
	DW	08a40H
	DW	08a41H
	DW	08a42H
	DW	08a43H
	DW	08a44H
	DW	08a45H
	DW	08a46H
	DW	08a47H
	DW	08a49H
	DW	08a4aH
	DW	08a4bH
	DW	08a4cH
	DW	08a4dH
	DW	08a4eH
	DW	08a4fH
	DW	08a50H
	DW	08a51H
	DW	08a52H
	DW	08a53H
	DW	08a54H
	DW	08a55H
	DW	08a56H
	DW	08a57H
	DW	08a58H
	DW	08a59H
	DW	08a5aH
	DW	08a5bH
	DW	08a5cH
	DW	08a5dH
	DW	08a5eH
	DW	0fffeH
	DW	08a5fH
	DW	08a60H
	DW	08a61H
	DW	08a62H
	DW	08a63H
	DW	08a64H
	DW	08a65H
	DW	08a66H
	DW	08a67H
	DW	08a68H
	DW	08a69H
	DW	08a6aH
	DW	08a6bH
	DW	08a6cH
	DW	08a6dH
	DW	08a6eH
	DW	08a6fH
	DW	08a70H
	DW	08a71H
	DW	08a72H
	DW	08a73H
	DW	08a74H
	DW	08a75H
	DW	08a76H
	DW	08a77H
	DW	08a78H
	DW	08a7aH
	DW	08a7bH
	DW	08a7cH
	DW	08a7dH
	DW	08a7eH
	DW	08a7fH
	DW	08a80H
	DW	08a81H
	DW	08a82H
	DW	08a83H
	DW	08a84H
	DW	08a85H
	DW	08a86H
	DW	08a87H
	DW	08a88H
	DW	08a8bH
	DW	08a8cH
	DW	08a8dH
	DW	08a8eH
	DW	08a8fH
	DW	08a90H
	DW	08a91H
	DW	08a92H
	DW	08a94H
	DW	08a95H
	DW	08a96H
	DW	08a97H
	DW	08a98H
	DW	08a99H
	DW	08a9aH
	DW	08a9bH
	DW	08a9cH
	DW	08a9dH
	DW	08a9eH
	DW	08a9fH
	DW	08aa0H
	DW	08aa1H
	DW	08aa2H
	DW	08aa3H
	DW	08aa4H
	DW	08aa5H
	DW	08aa6H
	DW	08aa7H
	DW	08aa8H
	DW	08aa9H
	DW	08aaaH
	DW	08aabH
	DW	08aacH
	DW	08aadH
	DW	08aaeH
	DW	08aafH
	DW	08ab0H
	DW	08ab1H
	DW	08ab2H
	DW	08ab3H
	DW	08ab4H
	DW	08ab5H
	DW	08ab6H
	DW	08ab7H
	DW	08ab8H
	DW	08ab9H
	DW	08abaH
	DW	08abbH
	DW	08abcH
	DW	08abdH
	DW	08abeH
	DW	08abfH
	DW	08ac0H
	DW	08ac1H
	DW	08ac2H
	DW	0fffeH
	DW	08ac3H
	DW	08ac4H
	DW	08ac5H
	DW	08ac6H
	DW	08ac7H
	DW	08ac8H
	DW	08ac9H
	DW	08acaH
	DW	08acbH
	DW	08accH
	DW	08acdH
	DW	08aceH
	DW	08acfH
	DW	08ad0H
	DW	08ad1H
	DW	08ad2H
	DW	08ad3H
	DW	08ad4H
	DW	08ad5H
	DW	08ad6H
	DW	08ad7H
	DW	08ad8H
	DW	08ad9H
	DW	08adaH
	DW	08adbH
	DW	08adcH
	DW	08addH
	DW	08adeH
	DW	08adfH
	DW	08ae0H
	DW	08ae1H
	DW	08ae2H
	DW	08ae3H
	DW	08ae4H
	DW	08ae5H
	DW	08ae6H
	DW	08ae7H
	DW	08ae8H
	DW	08ae9H
	DW	08aeaH
	DW	08aebH
	DW	08aecH
	DW	08aedH
	DW	08aeeH
	DW	08aefH
	DW	08af0H
	DW	08af1H
	DW	08af2H
	DW	08af3H
	DW	08af4H
	DW	08af5H
	DW	08af6H
	DW	08af7H
	DW	08af8H
	DW	08af9H
	DW	08afaH
	DW	08afbH
	DW	08afcH
	DW	08afdH
	DW	08afeH
	DW	08affH
	DW	08b00H
	DW	08b01H
	DW	08b02H
	DW	08b03H
	DW	08b04H
	DW	08b05H
	DW	08b06H
	DW	08b08H
	DW	08b09H
	DW	08b0aH
	DW	08b0bH
	DW	08b0cH
	DW	08b0dH
	DW	08b0eH
	DW	08b0fH
	DW	08b10H
	DW	08b11H
	DW	08b12H
	DW	08b13H
	DW	08b14H
	DW	08b15H
	DW	08b16H
	DW	08b17H
	DW	08b18H
	DW	08b19H
	DW	08b1aH
	DW	08b1bH
	DW	08b1cH
	DW	08b1dH
	DW	08b1eH
	DW	08b1fH
	DW	08b20H
	DW	08b21H
	DW	08b22H
	DW	08b23H
	DW	0fffeH
	DW	08b24H
	DW	08b25H
	DW	08b27H
	DW	08b28H
	DW	08b29H
	DW	08b2aH
	DW	08b2bH
	DW	08b2cH
	DW	08b2dH
	DW	08b2eH
	DW	08b2fH
	DW	08b30H
	DW	08b31H
	DW	08b32H
	DW	08b33H
	DW	08b34H
	DW	08b35H
	DW	08b36H
	DW	08b37H
	DW	08b38H
	DW	08b39H
	DW	08b3aH
	DW	08b3bH
	DW	08b3cH
	DW	08b3dH
	DW	08b3eH
	DW	08b3fH
	DW	08b40H
	DW	08b41H
	DW	08b42H
	DW	08b43H
	DW	08b44H
	DW	08b45H
	DW	08b46H
	DW	08b47H
	DW	08b48H
	DW	08b49H
	DW	08b4aH
	DW	08b4bH
	DW	08b4cH
	DW	08b4dH
	DW	08b4eH
	DW	08b4fH
	DW	08b50H
	DW	08b51H
	DW	08b52H
	DW	08b53H
	DW	08b54H
	DW	08b55H
	DW	08b56H
	DW	08b57H
	DW	08b58H
	DW	08b59H
	DW	08b5aH
	DW	08b5bH
	DW	08b5cH
	DW	08b5dH
	DW	08b5eH
	DW	08b5fH
	DW	08b60H
	DW	08b61H
	DW	08b62H
	DW	08b63H
	DW	08b64H
	DW	08b65H
	DW	08b67H
	DW	08b68H
	DW	08b69H
	DW	08b6aH
	DW	08b6bH
	DW	08b6dH
	DW	08b6eH
	DW	08b6fH
	DW	08b70H
	DW	08b71H
	DW	08b72H
	DW	08b73H
	DW	08b74H
	DW	08b75H
	DW	08b76H
	DW	08b77H
	DW	08b78H
	DW	08b79H
	DW	08b7aH
	DW	08b7bH
	DW	08b7cH
	DW	08b7dH
	DW	08b7eH
	DW	08b7fH
	DW	08b80H
	DW	08b81H
	DW	08b82H
	DW	08b83H
	DW	08b84H
	DW	08b85H
	DW	08b86H
	DW	0fffeH
	DW	08b87H
	DW	08b88H
	DW	08b89H
	DW	08b8aH
	DW	08b8bH
	DW	08b8cH
	DW	08b8dH
	DW	08b8eH
	DW	08b8fH
	DW	08b90H
	DW	08b91H
	DW	08b92H
	DW	08b93H
	DW	08b94H
	DW	08b95H
	DW	08b96H
	DW	08b97H
	DW	08b98H
	DW	08b99H
	DW	08b9aH
	DW	08b9bH
	DW	08b9cH
	DW	08b9dH
	DW	08b9eH
	DW	08b9fH
	DW	08bacH
	DW	08bb1H
	DW	08bbbH
	DW	08bc7H
	DW	08bd0H
	DW	08beaH
	DW	08c09H
	DW	08c1eH
	DW	08c38H
	DW	08c39H
	DW	08c3aH
	DW	08c3bH
	DW	08c3cH
	DW	08c3dH
	DW	08c3eH
	DW	08c3fH
	DW	08c40H
	DW	08c42H
	DW	08c43H
	DW	08c44H
	DW	08c45H
	DW	08c48H
	DW	08c4aH
	DW	08c4bH
	DW	08c4dH
	DW	08c4eH
	DW	08c4fH
	DW	08c50H
	DW	08c51H
	DW	08c52H
	DW	08c53H
	DW	08c54H
	DW	08c56H
	DW	08c57H
	DW	08c58H
	DW	08c59H
	DW	08c5bH
	DW	08c5cH
	DW	08c5dH
	DW	08c5eH
	DW	08c5fH
	DW	08c60H
	DW	08c63H
	DW	08c64H
	DW	08c65H
	DW	08c66H
	DW	08c67H
	DW	08c68H
	DW	08c69H
	DW	08c6cH
	DW	08c6dH
	DW	08c6eH
	DW	08c6fH
	DW	08c70H
	DW	08c71H
	DW	08c72H
	DW	08c74H
	DW	08c75H
	DW	08c76H
	DW	08c77H
	DW	08c7bH
	DW	08c7cH
	DW	08c7dH
	DW	08c7eH
	DW	08c7fH
	DW	08c80H
	DW	08c81H
	DW	08c83H
	DW	08c84H
	DW	08c86H
	DW	08c87H
	DW	0fffeH
	DW	08c88H
	DW	08c8bH
	DW	08c8dH
	DW	08c8eH
	DW	08c8fH
	DW	08c90H
	DW	08c91H
	DW	08c92H
	DW	08c93H
	DW	08c95H
	DW	08c96H
	DW	08c97H
	DW	08c99H
	DW	08c9aH
	DW	08c9bH
	DW	08c9cH
	DW	08c9dH
	DW	08c9eH
	DW	08c9fH
	DW	08ca0H
	DW	08ca1H
	DW	08ca2H
	DW	08ca3H
	DW	08ca4H
	DW	08ca5H
	DW	08ca6H
	DW	08ca7H
	DW	08ca8H
	DW	08ca9H
	DW	08caaH
	DW	08cabH
	DW	08cacH
	DW	08cadH
	DW	08caeH
	DW	08cafH
	DW	08cb0H
	DW	08cb1H
	DW	08cb2H
	DW	08cb3H
	DW	08cb4H
	DW	08cb5H
	DW	08cb6H
	DW	08cb7H
	DW	08cb8H
	DW	08cb9H
	DW	08cbaH
	DW	08cbbH
	DW	08cbcH
	DW	08cbdH
	DW	08cbeH
	DW	08cbfH
	DW	08cc0H
	DW	08cc1H
	DW	08cc2H
	DW	08cc3H
	DW	08cc4H
	DW	08cc5H
	DW	08cc6H
	DW	08cc7H
	DW	08cc8H
	DW	08cc9H
	DW	08ccaH
	DW	08ccbH
	DW	08cccH
	DW	08ccdH
	DW	08cceH
	DW	08ccfH
	DW	08cd0H
	DW	08cd1H
	DW	08cd2H
	DW	08cd3H
	DW	08cd4H
	DW	08cd5H
	DW	08cd6H
	DW	08cd7H
	DW	08cd8H
	DW	08cd9H
	DW	08cdaH
	DW	08cdbH
	DW	08cdcH
	DW	08cddH
	DW	08cdeH
	DW	08cdfH
	DW	08ce0H
	DW	08ce1H
	DW	08ce2H
	DW	08ce3H
	DW	08ce4H
	DW	08ce5H
	DW	08ce6H
	DW	08ce7H
	DW	08ce8H
	DW	08ce9H
	DW	08ceaH
	DW	08cebH
	DW	08cecH
	DW	0fffeH
	DW	08cedH
	DW	08ceeH
	DW	08cefH
	DW	08cf0H
	DW	08cf1H
	DW	08cf2H
	DW	08cf3H
	DW	08cf4H
	DW	08cf5H
	DW	08cf6H
	DW	08cf7H
	DW	08cf8H
	DW	08cf9H
	DW	08cfaH
	DW	08cfbH
	DW	08cfcH
	DW	08cfdH
	DW	08cfeH
	DW	08cffH
	DW	08d00H
	DW	08d01H
	DW	08d02H
	DW	08d03H
	DW	08d04H
	DW	08d05H
	DW	08d06H
	DW	08d07H
	DW	08d08H
	DW	08d09H
	DW	08d0aH
	DW	08d0bH
	DW	08d0cH
	DW	08d0dH
	DW	08d0eH
	DW	08d0fH
	DW	08d10H
	DW	08d11H
	DW	08d12H
	DW	08d13H
	DW	08d14H
	DW	08d15H
	DW	08d16H
	DW	08d17H
	DW	08d18H
	DW	08d19H
	DW	08d1aH
	DW	08d1bH
	DW	08d1cH
	DW	08d20H
	DW	08d51H
	DW	08d52H
	DW	08d57H
	DW	08d5fH
	DW	08d65H
	DW	08d68H
	DW	08d69H
	DW	08d6aH
	DW	08d6cH
	DW	08d6eH
	DW	08d6fH
	DW	08d71H
	DW	08d72H
	DW	08d78H
	DW	08d79H
	DW	08d7aH
	DW	08d7bH
	DW	08d7cH
	DW	08d7dH
	DW	08d7eH
	DW	08d7fH
	DW	08d80H
	DW	08d82H
	DW	08d83H
	DW	08d86H
	DW	08d87H
	DW	08d88H
	DW	08d89H
	DW	08d8cH
	DW	08d8dH
	DW	08d8eH
	DW	08d8fH
	DW	08d90H
	DW	08d92H
	DW	08d93H
	DW	08d95H
	DW	08d96H
	DW	08d97H
	DW	08d98H
	DW	08d99H
	DW	08d9aH
	DW	08d9bH
	DW	08d9cH
	DW	08d9dH
	DW	08d9eH
	DW	08da0H
	DW	08da1H
	DW	0fffeH
	DW	08da2H
	DW	08da4H
	DW	08da5H
	DW	08da6H
	DW	08da7H
	DW	08da8H
	DW	08da9H
	DW	08daaH
	DW	08dabH
	DW	08dacH
	DW	08dadH
	DW	08daeH
	DW	08dafH
	DW	08db0H
	DW	08db2H
	DW	08db6H
	DW	08db7H
	DW	08db9H
	DW	08dbbH
	DW	08dbdH
	DW	08dc0H
	DW	08dc1H
	DW	08dc2H
	DW	08dc5H
	DW	08dc7H
	DW	08dc8H
	DW	08dc9H
	DW	08dcaH
	DW	08dcdH
	DW	08dd0H
	DW	08dd2H
	DW	08dd3H
	DW	08dd4H
	DW	08dd5H
	DW	08dd8H
	DW	08dd9H
	DW	08ddcH
	DW	08de0H
	DW	08de1H
	DW	08de2H
	DW	08de5H
	DW	08de6H
	DW	08de7H
	DW	08de9H
	DW	08dedH
	DW	08deeH
	DW	08df0H
	DW	08df1H
	DW	08df2H
	DW	08df4H
	DW	08df6H
	DW	08dfcH
	DW	08dfeH
	DW	08dffH
	DW	08e00H
	DW	08e01H
	DW	08e02H
	DW	08e03H
	DW	08e04H
	DW	08e06H
	DW	08e07H
	DW	08e08H
	DW	08e0bH
	DW	08e0dH
	DW	08e0eH
	DW	08e10H
	DW	08e11H
	DW	08e12H
	DW	08e13H
	DW	08e15H
	DW	08e16H
	DW	08e17H
	DW	08e18H
	DW	08e19H
	DW	08e1aH
	DW	08e1bH
	DW	08e1cH
	DW	08e20H
	DW	08e21H
	DW	08e24H
	DW	08e25H
	DW	08e26H
	DW	08e27H
	DW	08e28H
	DW	08e2bH
	DW	08e2dH
	DW	08e30H
	DW	08e32H
	DW	08e33H
	DW	08e34H
	DW	08e36H
	DW	08e37H
	DW	08e38H
	DW	08e3bH
	DW	08e3cH
	DW	08e3eH
	DW	0fffeH
	DW	08e3fH
	DW	08e43H
	DW	08e45H
	DW	08e46H
	DW	08e4cH
	DW	08e4dH
	DW	08e4eH
	DW	08e4fH
	DW	08e50H
	DW	08e53H
	DW	08e54H
	DW	08e55H
	DW	08e56H
	DW	08e57H
	DW	08e58H
	DW	08e5aH
	DW	08e5bH
	DW	08e5cH
	DW	08e5dH
	DW	08e5eH
	DW	08e5fH
	DW	08e60H
	DW	08e61H
	DW	08e62H
	DW	08e63H
	DW	08e64H
	DW	08e65H
	DW	08e67H
	DW	08e68H
	DW	08e6aH
	DW	08e6bH
	DW	08e6eH
	DW	08e71H
	DW	08e73H
	DW	08e75H
	DW	08e77H
	DW	08e78H
	DW	08e79H
	DW	08e7aH
	DW	08e7bH
	DW	08e7dH
	DW	08e7eH
	DW	08e80H
	DW	08e82H
	DW	08e83H
	DW	08e84H
	DW	08e86H
	DW	08e88H
	DW	08e89H
	DW	08e8aH
	DW	08e8bH
	DW	08e8cH
	DW	08e8dH
	DW	08e8eH
	DW	08e91H
	DW	08e92H
	DW	08e93H
	DW	08e95H
	DW	08e96H
	DW	08e97H
	DW	08e98H
	DW	08e99H
	DW	08e9aH
	DW	08e9bH
	DW	08e9dH
	DW	08e9fH
	DW	08ea0H
	DW	08ea1H
	DW	08ea2H
	DW	08ea3H
	DW	08ea4H
	DW	08ea5H
	DW	08ea6H
	DW	08ea7H
	DW	08ea8H
	DW	08ea9H
	DW	08eaaH
	DW	08eadH
	DW	08eaeH
	DW	08eb0H
	DW	08eb1H
	DW	08eb3H
	DW	08eb4H
	DW	08eb5H
	DW	08eb6H
	DW	08eb7H
	DW	08eb8H
	DW	08eb9H
	DW	08ebbH
	DW	08ebcH
	DW	08ebdH
	DW	08ebeH
	DW	08ebfH
	DW	08ec0H
	DW	08ec1H
	DW	08ec2H
	DW	0fffeH
	DW	08ec3H
	DW	08ec4H
	DW	08ec5H
	DW	08ec6H
	DW	08ec7H
	DW	08ec8H
	DW	08ec9H
	DW	08ecaH
	DW	08ecbH
	DW	08eccH
	DW	08ecdH
	DW	08ecfH
	DW	08ed0H
	DW	08ed1H
	DW	08ed2H
	DW	08ed3H
	DW	08ed4H
	DW	08ed5H
	DW	08ed6H
	DW	08ed7H
	DW	08ed8H
	DW	08ed9H
	DW	08edaH
	DW	08edbH
	DW	08edcH
	DW	08eddH
	DW	08edeH
	DW	08edfH
	DW	08ee0H
	DW	08ee1H
	DW	08ee2H
	DW	08ee3H
	DW	08ee4H
	DW	08ee5H
	DW	08ee6H
	DW	08ee7H
	DW	08ee8H
	DW	08ee9H
	DW	08eeaH
	DW	08eebH
	DW	08eecH
	DW	08eedH
	DW	08eeeH
	DW	08eefH
	DW	08ef0H
	DW	08ef1H
	DW	08ef2H
	DW	08ef3H
	DW	08ef4H
	DW	08ef5H
	DW	08ef6H
	DW	08ef7H
	DW	08ef8H
	DW	08ef9H
	DW	08efaH
	DW	08efbH
	DW	08efcH
	DW	08efdH
	DW	08efeH
	DW	08effH
	DW	08f00H
	DW	08f01H
	DW	08f02H
	DW	08f03H
	DW	08f04H
	DW	08f05H
	DW	08f06H
	DW	08f07H
	DW	08f08H
	DW	08f09H
	DW	08f0aH
	DW	08f0bH
	DW	08f0cH
	DW	08f0dH
	DW	08f0eH
	DW	08f0fH
	DW	08f10H
	DW	08f11H
	DW	08f12H
	DW	08f13H
	DW	08f14H
	DW	08f15H
	DW	08f16H
	DW	08f17H
	DW	08f18H
	DW	08f19H
	DW	08f1aH
	DW	08f1bH
	DW	08f1cH
	DW	08f1dH
	DW	08f1eH
	DW	08f1fH
	DW	08f20H
	DW	08f21H
	DW	08f22H
	DW	08f23H
	DW	0fffeH
	DW	08f24H
	DW	08f25H
	DW	08f26H
	DW	08f27H
	DW	08f28H
	DW	08f29H
	DW	08f2aH
	DW	08f2bH
	DW	08f2cH
	DW	08f2dH
	DW	08f2eH
	DW	08f2fH
	DW	08f30H
	DW	08f31H
	DW	08f32H
	DW	08f33H
	DW	08f34H
	DW	08f35H
	DW	08f36H
	DW	08f37H
	DW	08f38H
	DW	08f39H
	DW	08f3aH
	DW	08f3bH
	DW	08f3cH
	DW	08f3dH
	DW	08f3eH
	DW	08f3fH
	DW	08f40H
	DW	08f41H
	DW	08f42H
	DW	08f43H
	DW	08f44H
	DW	08f45H
	DW	08f46H
	DW	08f47H
	DW	08f48H
	DW	08f49H
	DW	08f4aH
	DW	08f4bH
	DW	08f4cH
	DW	08f4dH
	DW	08f4eH
	DW	08f4fH
	DW	08f50H
	DW	08f51H
	DW	08f52H
	DW	08f53H
	DW	08f54H
	DW	08f55H
	DW	08f56H
	DW	08f57H
	DW	08f58H
	DW	08f59H
	DW	08f5aH
	DW	08f5bH
	DW	08f5cH
	DW	08f5dH
	DW	08f5eH
	DW	08f5fH
	DW	08f60H
	DW	08f61H
	DW	08f62H
	DW	08f63H
	DW	08f64H
	DW	08f65H
	DW	08f6aH
	DW	08f80H
	DW	08f8cH
	DW	08f92H
	DW	08f9dH
	DW	08fa0H
	DW	08fa1H
	DW	08fa2H
	DW	08fa4H
	DW	08fa5H
	DW	08fa6H
	DW	08fa7H
	DW	08faaH
	DW	08facH
	DW	08fadH
	DW	08faeH
	DW	08fafH
	DW	08fb2H
	DW	08fb3H
	DW	08fb4H
	DW	08fb5H
	DW	08fb7H
	DW	08fb8H
	DW	08fbaH
	DW	08fbbH
	DW	08fbcH
	DW	08fbfH
	DW	08fc0H
	DW	08fc3H
	DW	08fc6H
	DW	0fffeH
	DW	08fc9H
	DW	08fcaH
	DW	08fcbH
	DW	08fccH
	DW	08fcdH
	DW	08fcfH
	DW	08fd2H
	DW	08fd6H
	DW	08fd7H
	DW	08fdaH
	DW	08fe0H
	DW	08fe1H
	DW	08fe3H
	DW	08fe7H
	DW	08fecH
	DW	08fefH
	DW	08ff1H
	DW	08ff2H
	DW	08ff4H
	DW	08ff5H
	DW	08ff6H
	DW	08ffaH
	DW	08ffbH
	DW	08ffcH
	DW	08ffeH
	DW	08fffH
	DW	09007H
	DW	09008H
	DW	0900cH
	DW	0900eH
	DW	09013H
	DW	09015H
	DW	09018H
	DW	09019H
	DW	0901cH
	DW	09023H
	DW	09024H
	DW	09025H
	DW	09027H
	DW	09028H
	DW	09029H
	DW	0902aH
	DW	0902bH
	DW	0902cH
	DW	09030H
	DW	09031H
	DW	09032H
	DW	09033H
	DW	09034H
	DW	09037H
	DW	09039H
	DW	0903aH
	DW	0903dH
	DW	0903fH
	DW	09040H
	DW	09043H
	DW	09045H
	DW	09046H
	DW	09048H
	DW	09049H
	DW	0904aH
	DW	0904bH
	DW	0904cH
	DW	0904eH
	DW	09054H
	DW	09055H
	DW	09056H
	DW	09059H
	DW	0905aH
	DW	0905cH
	DW	0905dH
	DW	0905eH
	DW	0905fH
	DW	09060H
	DW	09061H
	DW	09064H
	DW	09066H
	DW	09067H
	DW	09069H
	DW	0906aH
	DW	0906bH
	DW	0906cH
	DW	0906fH
	DW	09070H
	DW	09071H
	DW	09072H
	DW	09073H
	DW	09076H
	DW	09077H
	DW	09078H
	DW	09079H
	DW	0907aH
	DW	0907bH
	DW	0907cH
	DW	0907eH
	DW	09081H
	DW	0fffeH
	DW	09084H
	DW	09085H
	DW	09086H
	DW	09087H
	DW	09089H
	DW	0908aH
	DW	0908cH
	DW	0908dH
	DW	0908eH
	DW	0908fH
	DW	09090H
	DW	09092H
	DW	09094H
	DW	09096H
	DW	09098H
	DW	0909aH
	DW	0909cH
	DW	0909eH
	DW	0909fH
	DW	090a0H
	DW	090a4H
	DW	090a5H
	DW	090a7H
	DW	090a8H
	DW	090a9H
	DW	090abH
	DW	090adH
	DW	090b2H
	DW	090b7H
	DW	090bcH
	DW	090bdH
	DW	090bfH
	DW	090c0H
	DW	090c2H
	DW	090c3H
	DW	090c6H
	DW	090c8H
	DW	090c9H
	DW	090cbH
	DW	090ccH
	DW	090cdH
	DW	090d2H
	DW	090d4H
	DW	090d5H
	DW	090d6H
	DW	090d8H
	DW	090d9H
	DW	090daH
	DW	090deH
	DW	090dfH
	DW	090e0H
	DW	090e3H
	DW	090e4H
	DW	090e5H
	DW	090e9H
	DW	090eaH
	DW	090ecH
	DW	090eeH
	DW	090f0H
	DW	090f1H
	DW	090f2H
	DW	090f3H
	DW	090f5H
	DW	090f6H
	DW	090f7H
	DW	090f9H
	DW	090faH
	DW	090fbH
	DW	090fcH
	DW	090ffH
	DW	09100H
	DW	09101H
	DW	09103H
	DW	09105H
	DW	09106H
	DW	09107H
	DW	09108H
	DW	09109H
	DW	0910aH
	DW	0910bH
	DW	0910cH
	DW	0910dH
	DW	0910eH
	DW	0910fH
	DW	09110H
	DW	09111H
	DW	09112H
	DW	09113H
	DW	09114H
	DW	09115H
	DW	09116H
	DW	09117H
	DW	09118H
	DW	0911aH
	DW	0911bH
	DW	0911cH
	DW	0fffeH
	DW	0911dH
	DW	0911fH
	DW	09120H
	DW	09121H
	DW	09124H
	DW	09125H
	DW	09126H
	DW	09127H
	DW	09128H
	DW	09129H
	DW	0912aH
	DW	0912bH
	DW	0912cH
	DW	0912dH
	DW	0912eH
	DW	09130H
	DW	09132H
	DW	09133H
	DW	09134H
	DW	09135H
	DW	09136H
	DW	09137H
	DW	09138H
	DW	0913aH
	DW	0913bH
	DW	0913cH
	DW	0913dH
	DW	0913eH
	DW	0913fH
	DW	09140H
	DW	09141H
	DW	09142H
	DW	09144H
	DW	09145H
	DW	09147H
	DW	09148H
	DW	09151H
	DW	09153H
	DW	09154H
	DW	09155H
	DW	09156H
	DW	09158H
	DW	09159H
	DW	0915bH
	DW	0915cH
	DW	0915fH
	DW	09160H
	DW	09166H
	DW	09167H
	DW	09168H
	DW	0916bH
	DW	0916dH
	DW	09173H
	DW	0917aH
	DW	0917bH
	DW	0917cH
	DW	09180H
	DW	09181H
	DW	09182H
	DW	09183H
	DW	09184H
	DW	09186H
	DW	09188H
	DW	0918aH
	DW	0918eH
	DW	0918fH
	DW	09193H
	DW	09194H
	DW	09195H
	DW	09196H
	DW	09197H
	DW	09198H
	DW	09199H
	DW	0919cH
	DW	0919dH
	DW	0919eH
	DW	0919fH
	DW	091a0H
	DW	091a1H
	DW	091a4H
	DW	091a5H
	DW	091a6H
	DW	091a7H
	DW	091a8H
	DW	091a9H
	DW	091abH
	DW	091acH
	DW	091b0H
	DW	091b1H
	DW	091b2H
	DW	091b3H
	DW	091b6H
	DW	091b7H
	DW	091b8H
	DW	091b9H
	DW	091bbH
	DW	0fffeH
	DW	091bcH
	DW	091bdH
	DW	091beH
	DW	091bfH
	DW	091c0H
	DW	091c1H
	DW	091c2H
	DW	091c3H
	DW	091c4H
	DW	091c5H
	DW	091c6H
	DW	091c8H
	DW	091cbH
	DW	091d0H
	DW	091d2H
	DW	091d3H
	DW	091d4H
	DW	091d5H
	DW	091d6H
	DW	091d7H
	DW	091d8H
	DW	091d9H
	DW	091daH
	DW	091dbH
	DW	091ddH
	DW	091deH
	DW	091dfH
	DW	091e0H
	DW	091e1H
	DW	091e2H
	DW	091e3H
	DW	091e4H
	DW	091e5H
	DW	091e6H
	DW	091e7H
	DW	091e8H
	DW	091e9H
	DW	091eaH
	DW	091ebH
	DW	091ecH
	DW	091edH
	DW	091eeH
	DW	091efH
	DW	091f0H
	DW	091f1H
	DW	091f2H
	DW	091f3H
	DW	091f4H
	DW	091f5H
	DW	091f6H
	DW	091f7H
	DW	091f8H
	DW	091f9H
	DW	091faH
	DW	091fbH
	DW	091fcH
	DW	091fdH
	DW	091feH
	DW	091ffH
	DW	09200H
	DW	09201H
	DW	09202H
	DW	09203H
	DW	09204H
	DW	09205H
	DW	09206H
	DW	09207H
	DW	09208H
	DW	09209H
	DW	0920aH
	DW	0920bH
	DW	0920cH
	DW	0920dH
	DW	0920eH
	DW	0920fH
	DW	09210H
	DW	09211H
	DW	09212H
	DW	09213H
	DW	09214H
	DW	09215H
	DW	09216H
	DW	09217H
	DW	09218H
	DW	09219H
	DW	0921aH
	DW	0921bH
	DW	0921cH
	DW	0921dH
	DW	0921eH
	DW	0921fH
	DW	09220H
	DW	09221H
	DW	09222H
	DW	09223H
	DW	09224H
	DW	0fffeH
	DW	09225H
	DW	09226H
	DW	09227H
	DW	09228H
	DW	09229H
	DW	0922aH
	DW	0922bH
	DW	0922cH
	DW	0922dH
	DW	0922eH
	DW	0922fH
	DW	09230H
	DW	09231H
	DW	09232H
	DW	09233H
	DW	09234H
	DW	09235H
	DW	09236H
	DW	09237H
	DW	09238H
	DW	09239H
	DW	0923aH
	DW	0923bH
	DW	0923cH
	DW	0923dH
	DW	0923eH
	DW	0923fH
	DW	09240H
	DW	09241H
	DW	09242H
	DW	09243H
	DW	09244H
	DW	09245H
	DW	09246H
	DW	09247H
	DW	09248H
	DW	09249H
	DW	0924aH
	DW	0924bH
	DW	0924cH
	DW	0924dH
	DW	0924eH
	DW	0924fH
	DW	09250H
	DW	09251H
	DW	09252H
	DW	09253H
	DW	09254H
	DW	09255H
	DW	09256H
	DW	09257H
	DW	09258H
	DW	09259H
	DW	0925aH
	DW	0925bH
	DW	0925cH
	DW	0925dH
	DW	0925eH
	DW	0925fH
	DW	09260H
	DW	09261H
	DW	09262H
	DW	09263H
	DW	09264H
	DW	09265H
	DW	09266H
	DW	09267H
	DW	09268H
	DW	09269H
	DW	0926aH
	DW	0926bH
	DW	0926cH
	DW	0926dH
	DW	0926eH
	DW	0926fH
	DW	09270H
	DW	09271H
	DW	09272H
	DW	09273H
	DW	09275H
	DW	09276H
	DW	09277H
	DW	09278H
	DW	09279H
	DW	0927aH
	DW	0927bH
	DW	0927cH
	DW	0927dH
	DW	0927eH
	DW	0927fH
	DW	09280H
	DW	09281H
	DW	09282H
	DW	09283H
	DW	09284H
	DW	09285H
	DW	0fffeH
	DW	09286H
	DW	09287H
	DW	09288H
	DW	09289H
	DW	0928aH
	DW	0928bH
	DW	0928cH
	DW	0928dH
	DW	0928fH
	DW	09290H
	DW	09291H
	DW	09292H
	DW	09293H
	DW	09294H
	DW	09295H
	DW	09296H
	DW	09297H
	DW	09298H
	DW	09299H
	DW	0929aH
	DW	0929bH
	DW	0929cH
	DW	0929dH
	DW	0929eH
	DW	0929fH
	DW	092a0H
	DW	092a1H
	DW	092a2H
	DW	092a3H
	DW	092a4H
	DW	092a5H
	DW	092a6H
	DW	092a7H
	DW	092a8H
	DW	092a9H
	DW	092aaH
	DW	092abH
	DW	092acH
	DW	092adH
	DW	092afH
	DW	092b0H
	DW	092b1H
	DW	092b2H
	DW	092b3H
	DW	092b4H
	DW	092b5H
	DW	092b6H
	DW	092b7H
	DW	092b8H
	DW	092b9H
	DW	092baH
	DW	092bbH
	DW	092bcH
	DW	092bdH
	DW	092beH
	DW	092bfH
	DW	092c0H
	DW	092c1H
	DW	092c2H
	DW	092c3H
	DW	092c4H
	DW	092c5H
	DW	092c6H
	DW	092c7H
	DW	092c9H
	DW	092caH
	DW	092cbH
	DW	092ccH
	DW	092cdH
	DW	092ceH
	DW	092cfH
	DW	092d0H
	DW	092d1H
	DW	092d2H
	DW	092d3H
	DW	092d4H
	DW	092d5H
	DW	092d6H
	DW	092d7H
	DW	092d8H
	DW	092d9H
	DW	092daH
	DW	092dbH
	DW	092dcH
	DW	092ddH
	DW	092deH
	DW	092dfH
	DW	092e0H
	DW	092e1H
	DW	092e2H
	DW	092e3H
	DW	092e4H
	DW	092e5H
	DW	092e6H
	DW	092e7H
