; Listing generated by Microsoft (R) Optimizing Compiler Version 16.00.40219.01 

include listing.inc

INCLUDELIB MSVCRT
INCLUDELIB OLDNAMES

PUBLIC	??_C@_0L@NLOBIMFG@_codecs_tw?$AA@		; `string'
PUBLIC	??_C@_05EJEKGFME@cp950?$AA@			; `string'
PUBLIC	??_C@_08FGMILJC@cp950ext?$AA@			; `string'
PUBLIC	??_C@_04HDKIILFF@big5?$AA@			; `string'
PUBLIC	??_C@_00CNPNBAHC@?$AA@				; `string'
PUBLIC	??_C@_08IAFCJBEI@getcodec?$AA@			; `string'
_BSS	SEGMENT
?cofunc@?1??getmultibytecodec@@9@9 DQ 01H DUP (?)	; `getmultibytecodec'::`2'::cofunc
_BSS	ENDS
;	COMDAT ??_C@_0L@NLOBIMFG@_codecs_tw?$AA@
CONST	SEGMENT
??_C@_0L@NLOBIMFG@_codecs_tw?$AA@ DB '_codecs_tw', 00H	; `string'
CONST	ENDS
;	COMDAT ??_C@_05EJEKGFME@cp950?$AA@
CONST	SEGMENT
??_C@_05EJEKGFME@cp950?$AA@ DB 'cp950', 00H		; `string'
CONST	ENDS
;	COMDAT ??_C@_08FGMILJC@cp950ext?$AA@
CONST	SEGMENT
??_C@_08FGMILJC@cp950ext?$AA@ DB 'cp950ext', 00H	; `string'
CONST	ENDS
;	COMDAT ??_C@_04HDKIILFF@big5?$AA@
CONST	SEGMENT
??_C@_04HDKIILFF@big5?$AA@ DB 'big5', 00H		; `string'
CONST	ENDS
CONST	SEGMENT
__big5_decmap DW 03000H
	DW	0ff0cH
	DW	03001H
	DW	03002H
	DW	0ff0eH
	DW	02022H
	DW	0ff1bH
	DW	0ff1aH
	DW	0ff1fH
	DW	0ff01H
	DW	0fe30H
	DW	02026H
	DW	02025H
	DW	0fe50H
	DW	0ff64H
	DW	0fe52H
	DW	0b7H
	DW	0fe54H
	DW	0fe55H
	DW	0fe56H
	DW	0fe57H
	DW	0ff5cH
	DW	02013H
	DW	0fe31H
	DW	02014H
	DW	0fe33H
	DW	02574H
	DW	0fe34H
	DW	0fe4fH
	DW	0ff08H
	DW	0ff09H
	DW	0fe35H
	DW	0fe36H
	DW	0ff5bH
	DW	0ff5dH
	DW	0fe37H
	DW	0fe38H
	DW	03014H
	DW	03015H
	DW	0fe39H
	DW	0fe3aH
	DW	03010H
	DW	03011H
	DW	0fe3bH
	DW	0fe3cH
	DW	0300aH
	DW	0300bH
	DW	0fe3dH
	DW	0fe3eH
	DW	03008H
	DW	03009H
	DW	0fe3fH
	DW	0fe40H
	DW	0300cH
	DW	0300dH
	DW	0fe41H
	DW	0fe42H
	DW	0300eH
	DW	0300fH
	DW	0fe43H
	DW	0fe44H
	DW	0fe59H
	DW	0fe5aH
	DW	0fffeH
	DW	0fffeH
	DW	0fffeH
	DW	0fffeH
	DW	0fffeH
	DW	0fffeH
	DW	0fffeH
	DW	0fffeH
	DW	0fffeH
	DW	0fffeH
	DW	0fffeH
	DW	0fffeH
	DW	0fffeH
	DW	0fffeH
	DW	0fffeH
	DW	0fffeH
	DW	0fffeH
	DW	0fffeH
	DW	0fffeH
	DW	0fffeH
	DW	0fffeH
	DW	0fffeH
	DW	0fffeH
	DW	0fffeH
	DW	0fffeH
	DW	0fffeH
	DW	0fffeH
	DW	0fffeH
	DW	0fffeH
	DW	0fffeH
	DW	0fffeH
	DW	0fffeH
	DW	0fffeH
	DW	0fffeH
	DW	0fe5bH
	DW	0fe5cH
	DW	0fe5dH
	DW	0fe5eH
	DW	02018H
	DW	02019H
	DW	0201cH
	DW	0201dH
	DW	0301dH
	DW	0301eH
	DW	02035H
	DW	02032H
	DW	0ff03H
	DW	0ff06H
	DW	0ff0aH
	DW	0203bH
	DW	0a7H
	DW	03003H
	DW	025cbH
	DW	025cfH
	DW	025b3H
	DW	025b2H
	DW	025ceH
	DW	02606H
	DW	02605H
	DW	025c7H
	DW	025c6H
	DW	025a1H
	DW	025a0H
	DW	025bdH
	DW	025bcH
	DW	032a3H
	DW	02105H
	DW	0203eH
	DW	0ffe3H
	DW	0ff3fH
	DW	02cdH
	DW	0fe49H
	DW	0fe4aH
	DW	0fe4dH
	DW	0fe4eH
	DW	0fe4bH
	DW	0fe4cH
	DW	0fe5fH
	DW	0fe60H
	DW	0fe61H
	DW	0ff0bH
	DW	0ff0dH
	DW	0d7H
	DW	0f7H
	DW	0b1H
	DW	0221aH
	DW	0ff1cH
	DW	0ff1eH
	DW	0ff1dH
	DW	02266H
	DW	02267H
	DW	02260H
	DW	0221eH
	DW	02252H
	DW	02261H
	DW	0fe62H
	DW	0fe63H
	DW	0fe64H
	DW	0fe65H
	DW	0fe66H
	DW	0223cH
	DW	02229H
	DW	0222aH
	DW	022a5H
	DW	02220H
	DW	0221fH
	DW	022bfH
	DW	033d2H
	DW	033d1H
	DW	0222bH
	DW	0222eH
	DW	02235H
	DW	02234H
	DW	02640H
	DW	02642H
	DW	02641H
	DW	02609H
	DW	02191H
	DW	02193H
	DW	02190H
	DW	02192H
	DW	02196H
	DW	02197H
	DW	02199H
	DW	02198H
	DW	02225H
	DW	02223H
	DW	0ff0fH
	DW	0ff3cH
	DW	0ff0fH
	DW	0ff3cH
	DW	0ff04H
	DW	0a5H
	DW	03012H
	DW	0a2H
	DW	0a3H
	DW	0ff05H
	DW	0ff20H
	DW	02103H
	DW	02109H
	DW	0fe69H
	DW	0fe6aH
	DW	0fe6bH
	DW	033d5H
	DW	0339cH
	DW	0339dH
	DW	0339eH
	DW	033ceH
	DW	033a1H
	DW	0338eH
	DW	0338fH
	DW	033c4H
	DW	0b0H
	DW	05159H
	DW	0515bH
	DW	0515eH
	DW	0515dH
	DW	05161H
	DW	05163H
	DW	055e7H
	DW	074e9H
	DW	07cceH
	DW	02581H
	DW	02582H
	DW	02583H
	DW	02584H
	DW	02585H
	DW	02586H
	DW	02587H
	DW	02588H
	DW	0258fH
	DW	0258eH
	DW	0258dH
	DW	0258cH
	DW	0258bH
	DW	0258aH
	DW	02589H
	DW	0253cH
	DW	02534H
	DW	0252cH
	DW	02524H
	DW	0251cH
	DW	02594H
	DW	02500H
	DW	02502H
	DW	02595H
	DW	0250cH
	DW	02510H
	DW	02514H
	DW	02518H
	DW	0256dH
	DW	0fffeH
	DW	0fffeH
	DW	0fffeH
	DW	0fffeH
	DW	0fffeH
	DW	0fffeH
	DW	0fffeH
	DW	0fffeH
	DW	0fffeH
	DW	0fffeH
	DW	0fffeH
	DW	0fffeH
	DW	0fffeH
	DW	0fffeH
	DW	0fffeH
	DW	0fffeH
	DW	0fffeH
	DW	0fffeH
	DW	0fffeH
	DW	0fffeH
	DW	0fffeH
	DW	0fffeH
	DW	0fffeH
	DW	0fffeH
	DW	0fffeH
	DW	0fffeH
	DW	0fffeH
	DW	0fffeH
	DW	0fffeH
	DW	0fffeH
	DW	0fffeH
	DW	0fffeH
	DW	0fffeH
	DW	0fffeH
	DW	0256eH
	DW	02570H
	DW	0256fH
	DW	02550H
	DW	0255eH
	DW	0256aH
	DW	02561H
	DW	025e2H
	DW	025e3H
	DW	025e5H
	DW	025e4H
	DW	02571H
	DW	02572H
	DW	02573H
	DW	0ff10H
	DW	0ff11H
	DW	0ff12H
	DW	0ff13H
	DW	0ff14H
	DW	0ff15H
	DW	0ff16H
	DW	0ff17H
	DW	0ff18H
	DW	0ff19H
	DW	02160H
	DW	02161H
	DW	02162H
	DW	02163H
	DW	02164H
	DW	02165H
	DW	02166H
	DW	02167H
	DW	02168H
	DW	02169H
	DW	03021H
	DW	03022H
	DW	03023H
	DW	03024H
	DW	03025H
	DW	03026H
	DW	03027H
	DW	03028H
	DW	03029H
	DW	05341H
	DW	05344H
	DW	05345H
	DW	0ff21H
	DW	0ff22H
	DW	0ff23H
	DW	0ff24H
	DW	0ff25H
	DW	0ff26H
	DW	0ff27H
	DW	0ff28H
	DW	0ff29H
	DW	0ff2aH
	DW	0ff2bH
	DW	0ff2cH
	DW	0ff2dH
	DW	0ff2eH
	DW	0ff2fH
	DW	0ff30H
	DW	0ff31H
	DW	0ff32H
	DW	0ff33H
	DW	0ff34H
	DW	0ff35H
	DW	0ff36H
	DW	0ff37H
	DW	0ff38H
	DW	0ff39H
	DW	0ff3aH
	DW	0ff41H
	DW	0ff42H
	DW	0ff43H
	DW	0ff44H
	DW	0ff45H
	DW	0ff46H
	DW	0ff47H
	DW	0ff48H
	DW	0ff49H
	DW	0ff4aH
	DW	0ff4bH
	DW	0ff4cH
	DW	0ff4dH
	DW	0ff4eH
	DW	0ff4fH
	DW	0ff50H
	DW	0ff51H
	DW	0ff52H
	DW	0ff53H
	DW	0ff54H
	DW	0ff55H
	DW	0ff56H
	DW	0ff57H
	DW	0ff58H
	DW	0ff59H
	DW	0ff5aH
	DW	0391H
	DW	0392H
	DW	0393H
	DW	0394H
	DW	0395H
	DW	0396H
	DW	0397H
	DW	0398H
	DW	0399H
	DW	039aH
	DW	039bH
	DW	039cH
	DW	039dH
	DW	039eH
	DW	039fH
	DW	03a0H
	DW	03a1H
	DW	03a3H
	DW	03a4H
	DW	03a5H
	DW	03a6H
	DW	03a7H
	DW	03a8H
	DW	03a9H
	DW	03b1H
	DW	03b2H
	DW	03b3H
	DW	03b4H
	DW	03b5H
	DW	03b6H
	DW	03b7H
	DW	03b8H
	DW	03b9H
	DW	03baH
	DW	03bbH
	DW	03bcH
	DW	03bdH
	DW	03beH
	DW	03bfH
	DW	03c0H
	DW	03c1H
	DW	03c3H
	DW	03c4H
	DW	03c5H
	DW	03c6H
	DW	03c7H
	DW	03c8H
	DW	03c9H
	DW	03105H
	DW	03106H
	DW	03107H
	DW	03108H
	DW	03109H
	DW	0310aH
	DW	0310bH
	DW	0310cH
	DW	0310dH
	DW	0310eH
	DW	0310fH
	DW	0fffeH
	DW	0fffeH
	DW	0fffeH
	DW	0fffeH
	DW	0fffeH
	DW	0fffeH
	DW	0fffeH
	DW	0fffeH
	DW	0fffeH
	DW	0fffeH
	DW	0fffeH
	DW	0fffeH
	DW	0fffeH
	DW	0fffeH
	DW	0fffeH
	DW	0fffeH
	DW	0fffeH
	DW	0fffeH
	DW	0fffeH
	DW	0fffeH
	DW	0fffeH
	DW	0fffeH
	DW	0fffeH
	DW	0fffeH
	DW	0fffeH
	DW	0fffeH
	DW	0fffeH
	DW	0fffeH
	DW	0fffeH
	DW	0fffeH
	DW	0fffeH
	DW	0fffeH
	DW	0fffeH
	DW	0fffeH
	DW	03110H
	DW	03111H
	DW	03112H
	DW	03113H
	DW	03114H
	DW	03115H
	DW	03116H
	DW	03117H
	DW	03118H
	DW	03119H
	DW	0311aH
	DW	0311bH
	DW	0311cH
	DW	0311dH
	DW	0311eH
	DW	0311fH
	DW	03120H
	DW	03121H
	DW	03122H
	DW	03123H
	DW	03124H
	DW	03125H
	DW	03126H
	DW	03127H
	DW	03128H
	DW	03129H
	DW	02d9H
	DW	02c9H
	DW	02caH
	DW	02c7H
	DW	02cbH
	DW	04e00H
	DW	04e59H
	DW	04e01H
	DW	04e03H
	DW	04e43H
	DW	04e5dH
	DW	04e86H
	DW	04e8cH
	DW	04ebaH
	DW	0513fH
	DW	05165H
	DW	0516bH
	DW	051e0H
	DW	05200H
	DW	05201H
	DW	0529bH
	DW	05315H
	DW	05341H
	DW	0535cH
	DW	053c8H
	DW	04e09H
	DW	04e0bH
	DW	04e08H
	DW	04e0aH
	DW	04e2bH
	DW	04e38H
	DW	051e1H
	DW	04e45H
	DW	04e48H
	DW	04e5fH
	DW	04e5eH
	DW	04e8eH
	DW	04ea1H
	DW	05140H
	DW	05203H
	DW	052faH
	DW	05343H
	DW	053c9H
	DW	053e3H
	DW	0571fH
	DW	058ebH
	DW	05915H
	DW	05927H
	DW	05973H
	DW	05b50H
	DW	05b51H
	DW	05b53H
	DW	05bf8H
	DW	05c0fH
	DW	05c22H
	DW	05c38H
	DW	05c71H
	DW	05dddH
	DW	05de5H
	DW	05df1H
	DW	05df2H
	DW	05df3H
	DW	05dfeH
	DW	05e72H
	DW	05efeH
	DW	05f0bH
	DW	05f13H
	DW	0624dH
	DW	0fffeH
	DW	0fffeH
	DW	0fffeH
	DW	0fffeH
	DW	0fffeH
	DW	0fffeH
	DW	0fffeH
	DW	0fffeH
	DW	0fffeH
	DW	0fffeH
	DW	0fffeH
	DW	0fffeH
	DW	0fffeH
	DW	0fffeH
	DW	0fffeH
	DW	0fffeH
	DW	0fffeH
	DW	0fffeH
	DW	0fffeH
	DW	0fffeH
	DW	0fffeH
	DW	0fffeH
	DW	0fffeH
	DW	0fffeH
	DW	0fffeH
	DW	0fffeH
	DW	0fffeH
	DW	0fffeH
	DW	0fffeH
	DW	0fffeH
	DW	0fffeH
	DW	0fffeH
	DW	0fffeH
	DW	0fffeH
	DW	04e11H
	DW	04e10H
	DW	04e0dH
	DW	04e2dH
	DW	04e30H
	DW	04e39H
	DW	04e4bH
	DW	05c39H
	DW	04e88H
	DW	04e91H
	DW	04e95H
	DW	04e92H
	DW	04e94H
	DW	04ea2H
	DW	04ec1H
	DW	04ec0H
	DW	04ec3H
	DW	04ec6H
	DW	04ec7H
	DW	04ecdH
	DW	04ecaH
	DW	04ecbH
	DW	04ec4H
	DW	05143H
	DW	05141H
	DW	05167H
	DW	0516dH
	DW	0516eH
	DW	0516cH
	DW	05197H
	DW	051f6H
	DW	05206H
	DW	05207H
	DW	05208H
	DW	052fbH
	DW	052feH
	DW	052ffH
	DW	05316H
	DW	05339H
	DW	05348H
	DW	05347H
	DW	05345H
	DW	0535eH
	DW	05384H
	DW	053cbH
	DW	053caH
	DW	053cdH
	DW	058ecH
	DW	05929H
	DW	0592bH
	DW	0592aH
	DW	0592dH
	DW	05b54H
	DW	05c11H
	DW	05c24H
	DW	05c3aH
	DW	05c6fH
	DW	05df4H
	DW	05e7bH
	DW	05effH
	DW	05f14H
	DW	05f15H
	DW	05fc3H
	DW	06208H
	DW	06236H
	DW	0624bH
	DW	0624eH
	DW	0652fH
	DW	06587H
	DW	06597H
	DW	065a4H
	DW	065b9H
	DW	065e5H
	DW	066f0H
	DW	06708H
	DW	06728H
	DW	06b20H
	DW	06b62H
	DW	06b79H
	DW	06bcbH
	DW	06bd4H
	DW	06bdbH
	DW	06c0fH
	DW	06c34H
	DW	0706bH
	DW	0722aH
	DW	07236H
	DW	0723bH
	DW	07247H
	DW	07259H
	DW	0725bH
	DW	072acH
	DW	0738bH
	DW	04e19H
	DW	04e16H
	DW	04e15H
	DW	04e14H
	DW	04e18H
	DW	04e3bH
	DW	04e4dH
	DW	04e4fH
	DW	04e4eH
	DW	04ee5H
	DW	04ed8H
	DW	04ed4H
	DW	04ed5H
	DW	04ed6H
	DW	04ed7H
	DW	04ee3H
	DW	04ee4H
	DW	04ed9H
	DW	04edeH
	DW	05145H
	DW	05144H
	DW	05189H
	DW	0518aH
	DW	051acH
	DW	051f9H
	DW	051faH
	DW	051f8H
	DW	0520aH
	DW	052a0H
	DW	0529fH
	DW	05305H
	DW	05306H
	DW	05317H
	DW	0531dH
	DW	04edfH
	DW	0534aH
	DW	05349H
	DW	05361H
	DW	05360H
	DW	0536fH
	DW	0536eH
	DW	053bbH
	DW	053efH
	DW	053e4H
	DW	053f3H
	DW	053ecH
	DW	053eeH
	DW	053e9H
	DW	053e8H
	DW	053fcH
	DW	053f8H
	DW	053f5H
	DW	053ebH
	DW	053e6H
	DW	053eaH
	DW	053f2H
	DW	053f1H
	DW	053f0H
	DW	053e5H
	DW	053edH
	DW	053fbH
	DW	056dbH
	DW	056daH
	DW	05916H
	DW	0fffeH
	DW	0fffeH
	DW	0fffeH
	DW	0fffeH
	DW	0fffeH
	DW	0fffeH
	DW	0fffeH
	DW	0fffeH
	DW	0fffeH
	DW	0fffeH
	DW	0fffeH
	DW	0fffeH
	DW	0fffeH
	DW	0fffeH
	DW	0fffeH
	DW	0fffeH
	DW	0fffeH
	DW	0fffeH
	DW	0fffeH
	DW	0fffeH
	DW	0fffeH
	DW	0fffeH
	DW	0fffeH
	DW	0fffeH
	DW	0fffeH
	DW	0fffeH
	DW	0fffeH
	DW	0fffeH
	DW	0fffeH
	DW	0fffeH
	DW	0fffeH
	DW	0fffeH
	DW	0fffeH
	DW	0fffeH
	DW	0592eH
	DW	05931H
	DW	05974H
	DW	05976H
	DW	05b55H
	DW	05b83H
	DW	05c3cH
	DW	05de8H
	DW	05de7H
	DW	05de6H
	DW	05e02H
	DW	05e03H
	DW	05e73H
	DW	05e7cH
	DW	05f01H
	DW	05f18H
	DW	05f17H
	DW	05fc5H
	DW	0620aH
	DW	06253H
	DW	06254H
	DW	06252H
	DW	06251H
	DW	065a5H
	DW	065e6H
	DW	0672eH
	DW	0672cH
	DW	0672aH
	DW	0672bH
	DW	0672dH
	DW	06b63H
	DW	06bcdH
	DW	06c11H
	DW	06c10H
	DW	06c38H
	DW	06c41H
	DW	06c40H
	DW	06c3eH
	DW	072afH
	DW	07384H
	DW	07389H
	DW	074dcH
	DW	074e6H
	DW	07518H
	DW	0751fH
	DW	07528H
	DW	07529H
	DW	07530H
	DW	07531H
	DW	07532H
	DW	07533H
	DW	0758bH
	DW	0767dH
	DW	076aeH
	DW	076bfH
	DW	076eeH
	DW	077dbH
	DW	077e2H
	DW	077f3H
	DW	0793aH
	DW	079beH
	DW	07a74H
	DW	07acbH
	DW	04e1eH
	DW	04e1fH
	DW	04e52H
	DW	04e53H
	DW	04e69H
	DW	04e99H
	DW	04ea4H
	DW	04ea6H
	DW	04ea5H
	DW	04effH
	DW	04f09H
	DW	04f19H
	DW	04f0aH
	DW	04f15H
	DW	04f0dH
	DW	04f10H
	DW	04f11H
	DW	04f0fH
	DW	04ef2H
	DW	04ef6H
	DW	04efbH
	DW	04ef0H
	DW	04ef3H
	DW	04efdH
	DW	04f01H
	DW	04f0bH
	DW	05149H
	DW	05147H
	DW	05146H
	DW	05148H
	DW	05168H
	DW	05171H
	DW	0518dH
	DW	051b0H
	DW	05217H
	DW	05211H
	DW	05212H
	DW	0520eH
	DW	05216H
	DW	052a3H
	DW	05308H
	DW	05321H
	DW	05320H
	DW	05370H
	DW	05371H
	DW	05409H
	DW	0540fH
	DW	0540cH
	DW	0540aH
	DW	05410H
	DW	05401H
	DW	0540bH
	DW	05404H
	DW	05411H
	DW	0540dH
	DW	05408H
	DW	05403H
	DW	0540eH
	DW	05406H
	DW	05412H
	DW	056e0H
	DW	056deH
	DW	056ddH
	DW	05733H
	DW	05730H
	DW	05728H
	DW	0572dH
	DW	0572cH
	DW	0572fH
	DW	05729H
	DW	05919H
	DW	0591aH
	DW	05937H
	DW	05938H
	DW	05984H
	DW	05978H
	DW	05983H
	DW	0597dH
	DW	05979H
	DW	05982H
	DW	05981H
	DW	05b57H
	DW	05b58H
	DW	05b87H
	DW	05b88H
	DW	05b85H
	DW	05b89H
	DW	05bfaH
	DW	05c16H
	DW	05c79H
	DW	05ddeH
	DW	05e06H
	DW	05e76H
	DW	05e74H
	DW	0fffeH
	DW	0fffeH
	DW	0fffeH
	DW	0fffeH
	DW	0fffeH
	DW	0fffeH
	DW	0fffeH
	DW	0fffeH
	DW	0fffeH
	DW	0fffeH
	DW	0fffeH
	DW	0fffeH
	DW	0fffeH
	DW	0fffeH
	DW	0fffeH
	DW	0fffeH
	DW	0fffeH
	DW	0fffeH
	DW	0fffeH
	DW	0fffeH
	DW	0fffeH
	DW	0fffeH
	DW	0fffeH
	DW	0fffeH
	DW	0fffeH
	DW	0fffeH
	DW	0fffeH
	DW	0fffeH
	DW	0fffeH
	DW	0fffeH
	DW	0fffeH
	DW	0fffeH
	DW	0fffeH
	DW	0fffeH
	DW	05f0fH
	DW	05f1bH
	DW	05fd9H
	DW	05fd6H
	DW	0620eH
	DW	0620cH
	DW	0620dH
	DW	06210H
	DW	06263H
	DW	0625bH
	DW	06258H
	DW	06536H
	DW	065e9H
	DW	065e8H
	DW	065ecH
	DW	065edH
	DW	066f2H
	DW	066f3H
	DW	06709H
	DW	0673dH
	DW	06734H
	DW	06731H
	DW	06735H
	DW	06b21H
	DW	06b64H
	DW	06b7bH
	DW	06c16H
	DW	06c5dH
	DW	06c57H
	DW	06c59H
	DW	06c5fH
	DW	06c60H
	DW	06c50H
	DW	06c55H
	DW	06c61H
	DW	06c5bH
	DW	06c4dH
	DW	06c4eH
	DW	07070H
	DW	0725fH
	DW	0725dH
	DW	0767eH
	DW	07af9H
	DW	07c73H
	DW	07cf8H
	DW	07f36H
	DW	07f8aH
	DW	07fbdH
	DW	08001H
	DW	08003H
	DW	0800cH
	DW	08012H
	DW	08033H
	DW	0807fH
	DW	08089H
	DW	0808bH
	DW	0808cH
	DW	081e3H
	DW	081eaH
	DW	081f3H
	DW	081fcH
	DW	0820cH
	DW	0821bH
	DW	0821fH
	DW	0826eH
	DW	08272H
	DW	0827eH
	DW	0866bH
	DW	08840H
	DW	0884cH
	DW	08863H
	DW	0897fH
	DW	09621H
	DW	04e32H
	DW	04ea8H
	DW	04f4dH
	DW	04f4fH
	DW	04f47H
	DW	04f57H
	DW	04f5eH
	DW	04f34H
	DW	04f5bH
	DW	04f55H
	DW	04f30H
	DW	04f50H
	DW	04f51H
	DW	04f3dH
	DW	04f3aH
	DW	04f38H
	DW	04f43H
	DW	04f54H
	DW	04f3cH
	DW	04f46H
	DW	04f63H
	DW	04f5cH
	DW	04f60H
	DW	04f2fH
	DW	04f4eH
	DW	04f36H
	DW	04f59H
	DW	04f5dH
	DW	04f48H
	DW	04f5aH
	DW	0514cH
	DW	0514bH
	DW	0514dH
	DW	05175H
	DW	051b6H
	DW	051b7H
	DW	05225H
	DW	05224H
	DW	05229H
	DW	0522aH
	DW	05228H
	DW	052abH
	DW	052a9H
	DW	052aaH
	DW	052acH
	DW	05323H
	DW	05373H
	DW	05375H
	DW	0541dH
	DW	0542dH
	DW	0541eH
	DW	0543eH
	DW	05426H
	DW	0544eH
	DW	05427H
	DW	05446H
	DW	05443H
	DW	05433H
	DW	05448H
	DW	05442H
	DW	0541bH
	DW	05429H
	DW	0544aH
	DW	05439H
	DW	0543bH
	DW	05438H
	DW	0542eH
	DW	05435H
	DW	05436H
	DW	05420H
	DW	0543cH
	DW	05440H
	DW	05431H
	DW	0542bH
	DW	0541fH
	DW	0542cH
	DW	056eaH
	DW	056f0H
	DW	056e4H
	DW	056ebH
	DW	0574aH
	DW	05751H
	DW	05740H
	DW	0574dH
	DW	0fffeH
	DW	0fffeH
	DW	0fffeH
	DW	0fffeH
	DW	0fffeH
	DW	0fffeH
	DW	0fffeH
	DW	0fffeH
	DW	0fffeH
	DW	0fffeH
	DW	0fffeH
	DW	0fffeH
	DW	0fffeH
	DW	0fffeH
	DW	0fffeH
	DW	0fffeH
	DW	0fffeH
	DW	0fffeH
	DW	0fffeH
	DW	0fffeH
	DW	0fffeH
	DW	0fffeH
	DW	0fffeH
	DW	0fffeH
	DW	0fffeH
	DW	0fffeH
	DW	0fffeH
	DW	0fffeH
	DW	0fffeH
	DW	0fffeH
	DW	0fffeH
	DW	0fffeH
	DW	0fffeH
	DW	0fffeH
	DW	05747H
	DW	0574eH
	DW	0573eH
	DW	05750H
	DW	0574fH
	DW	0573bH
	DW	058efH
	DW	0593eH
	DW	0599dH
	DW	05992H
	DW	059a8H
	DW	0599eH
	DW	059a3H
	DW	05999H
	DW	05996H
	DW	0598dH
	DW	059a4H
	DW	05993H
	DW	0598aH
	DW	059a5H
	DW	05b5dH
	DW	05b5cH
	DW	05b5aH
	DW	05b5bH
	DW	05b8cH
	DW	05b8bH
	DW	05b8fH
	DW	05c2cH
	DW	05c40H
	DW	05c41H
	DW	05c3fH
	DW	05c3eH
	DW	05c90H
	DW	05c91H
	DW	05c94H
	DW	05c8cH
	DW	05debH
	DW	05e0cH
	DW	05e8fH
	DW	05e87H
	DW	05e8aH
	DW	05ef7H
	DW	05f04H
	DW	05f1fH
	DW	05f64H
	DW	05f62H
	DW	05f77H
	DW	05f79H
	DW	05fd8H
	DW	05fccH
	DW	05fd7H
	DW	05fcdH
	DW	05ff1H
	DW	05febH
	DW	05ff8H
	DW	05feaH
	DW	06212H
	DW	06211H
	DW	06284H
	DW	06297H
	DW	06296H
	DW	06280H
	DW	06276H
	DW	06289H
	DW	0626dH
	DW	0628aH
	DW	0627cH
	DW	0627eH
	DW	06279H
	DW	06273H
	DW	06292H
	DW	0626fH
	DW	06298H
	DW	0626eH
	DW	06295H
	DW	06293H
	DW	06291H
	DW	06286H
	DW	06539H
	DW	0653bH
	DW	06538H
	DW	065f1H
	DW	066f4H
	DW	0675fH
	DW	0674eH
	DW	0674fH
	DW	06750H
	DW	06751H
	DW	0675cH
	DW	06756H
	DW	0675eH
	DW	06749H
	DW	06746H
	DW	06760H
	DW	06753H
	DW	06757H
	DW	06b65H
	DW	06bcfH
	DW	06c42H
	DW	06c5eH
	DW	06c99H
	DW	06c81H
	DW	06c88H
	DW	06c89H
	DW	06c85H
	DW	06c9bH
	DW	06c6aH
	DW	06c7aH
	DW	06c90H
	DW	06c70H
	DW	06c8cH
	DW	06c68H
	DW	06c96H
	DW	06c92H
	DW	06c7dH
	DW	06c83H
	DW	06c72H
	DW	06c7eH
	DW	06c74H
	DW	06c86H
	DW	06c76H
	DW	06c8dH
	DW	06c94H
	DW	06c98H
	DW	06c82H
	DW	07076H
	DW	0707cH
	DW	0707dH
	DW	07078H
	DW	07262H
	DW	07261H
	DW	07260H
	DW	072c4H
	DW	072c2H
	DW	07396H
	DW	0752cH
	DW	0752bH
	DW	07537H
	DW	07538H
	DW	07682H
	DW	076efH
	DW	077e3H
	DW	079c1H
	DW	079c0H
	DW	079bfH
	DW	07a76H
	DW	07cfbH
	DW	07f55H
	DW	08096H
	DW	08093H
	DW	0809dH
	DW	08098H
	DW	0809bH
	DW	0809aH
	DW	080b2H
	DW	0826fH
	DW	08292H
	DW	0fffeH
	DW	0fffeH
	DW	0fffeH
	DW	0fffeH
	DW	0fffeH
	DW	0fffeH
	DW	0fffeH
	DW	0fffeH
	DW	0fffeH
	DW	0fffeH
	DW	0fffeH
	DW	0fffeH
	DW	0fffeH
	DW	0fffeH
	DW	0fffeH
	DW	0fffeH
	DW	0fffeH
	DW	0fffeH
	DW	0fffeH
	DW	0fffeH
	DW	0fffeH
	DW	0fffeH
	DW	0fffeH
	DW	0fffeH
	DW	0fffeH
	DW	0fffeH
	DW	0fffeH
	DW	0fffeH
	DW	0fffeH
	DW	0fffeH
	DW	0fffeH
	DW	0fffeH
	DW	0fffeH
	DW	0fffeH
	DW	0828bH
	DW	0828dH
	DW	0898bH
	DW	089d2H
	DW	08a00H
	DW	08c37H
	DW	08c46H
	DW	08c55H
	DW	08c9dH
	DW	08d64H
	DW	08d70H
	DW	08db3H
	DW	08eabH
	DW	08ecaH
	DW	08f9bH
	DW	08fb0H
	DW	08fc2H
	DW	08fc6H
	DW	08fc5H
	DW	08fc4H
	DW	05de1H
	DW	09091H
	DW	090a2H
	DW	090aaH
	DW	090a6H
	DW	090a3H
	DW	09149H
	DW	091c6H
	DW	091ccH
	DW	09632H
	DW	0962eH
	DW	09631H
	DW	0962aH
	DW	0962cH
	DW	04e26H
	DW	04e56H
	DW	04e73H
	DW	04e8bH
	DW	04e9bH
	DW	04e9eH
	DW	04eabH
	DW	04eacH
	DW	04f6fH
	DW	04f9dH
	DW	04f8dH
	DW	04f73H
	DW	04f7fH
	DW	04f6cH
	DW	04f9bH
	DW	04f8bH
	DW	04f86H
	DW	04f83H
	DW	04f70H
	DW	04f75H
	DW	04f88H
	DW	04f69H
	DW	04f7bH
	DW	04f96H
	DW	04f7eH
	DW	04f8fH
	DW	04f91H
	DW	04f7aH
	DW	05154H
	DW	05152H
	DW	05155H
	DW	05169H
	DW	05177H
	DW	05176H
	DW	05178H
	DW	051bdH
	DW	051fdH
	DW	0523bH
	DW	05238H
	DW	05237H
	DW	0523aH
	DW	05230H
	DW	0522eH
	DW	05236H
	DW	05241H
	DW	052beH
	DW	052bbH
	DW	05352H
	DW	05354H
	DW	05353H
	DW	05351H
	DW	05366H
	DW	05377H
	DW	05378H
	DW	05379H
	DW	053d6H
	DW	053d4H
	DW	053d7H
	DW	05473H
	DW	05475H
	DW	05496H
	DW	05478H
	DW	05495H
	DW	05480H
	DW	0547bH
	DW	05477H
	DW	05484H
	DW	05492H
	DW	05486H
	DW	0547cH
	DW	05490H
	DW	05471H
	DW	05476H
	DW	0548cH
	DW	0549aH
	DW	05462H
	DW	05468H
	DW	0548bH
	DW	0547dH
	DW	0548eH
	DW	056faH
	DW	05783H
	DW	05777H
	DW	0576aH
	DW	05769H
	DW	05761H
	DW	05766H
	DW	05764H
	DW	0577cH
	DW	0591cH
	DW	05949H
	DW	05947H
	DW	05948H
	DW	05944H
	DW	05954H
	DW	059beH
	DW	059bbH
	DW	059d4H
	DW	059b9H
	DW	059aeH
	DW	059d1H
	DW	059c6H
	DW	059d0H
	DW	059cdH
	DW	059cbH
	DW	059d3H
	DW	059caH
	DW	059afH
	DW	059b3H
	DW	059d2H
	DW	059c5H
	DW	05b5fH
	DW	05b64H
	DW	05b63H
	DW	05b97H
	DW	05b9aH
	DW	05b98H
	DW	05b9cH
	DW	05b99H
	DW	05b9bH
	DW	05c1aH
	DW	05c48H
	DW	05c45H
	DW	0fffeH
	DW	0fffeH
	DW	0fffeH
	DW	0fffeH
	DW	0fffeH
	DW	0fffeH
	DW	0fffeH
	DW	0fffeH
	DW	0fffeH
	DW	0fffeH
	DW	0fffeH
	DW	0fffeH
	DW	0fffeH
	DW	0fffeH
	DW	0fffeH
	DW	0fffeH
	DW	0fffeH
	DW	0fffeH
	DW	0fffeH
	DW	0fffeH
	DW	0fffeH
	DW	0fffeH
	DW	0fffeH
	DW	0fffeH
	DW	0fffeH
	DW	0fffeH
	DW	0fffeH
	DW	0fffeH
	DW	0fffeH
	DW	0fffeH
	DW	0fffeH
	DW	0fffeH
	DW	0fffeH
	DW	0fffeH
	DW	05c46H
	DW	05cb7H
	DW	05ca1H
	DW	05cb8H
	DW	05ca9H
	DW	05cabH
	DW	05cb1H
	DW	05cb3H
	DW	05e18H
	DW	05e1aH
	DW	05e16H
	DW	05e15H
	DW	05e1bH
	DW	05e11H
	DW	05e78H
	DW	05e9aH
	DW	05e97H
	DW	05e9cH
	DW	05e95H
	DW	05e96H
	DW	05ef6H
	DW	05f26H
	DW	05f27H
	DW	05f29H
	DW	05f80H
	DW	05f81H
	DW	05f7fH
	DW	05f7cH
	DW	05fddH
	DW	05fe0H
	DW	05ffdH
	DW	05ff5H
	DW	05fffH
	DW	0600fH
	DW	06014H
	DW	0602fH
	DW	06035H
	DW	06016H
	DW	0602aH
	DW	06015H
	DW	06021H
	DW	06027H
	DW	06029H
	DW	0602bH
	DW	0601bH
	DW	06216H
	DW	06215H
	DW	0623fH
	DW	0623eH
	DW	06240H
	DW	0627fH
	DW	062c9H
	DW	062ccH
	DW	062c4H
	DW	062bfH
	DW	062c2H
	DW	062b9H
	DW	062d2H
	DW	062dbH
	DW	062abH
	DW	062d3H
	DW	062d4H
	DW	062cbH
	DW	062c8H
	DW	062a8H
	DW	062bdH
	DW	062bcH
	DW	062d0H
	DW	062d9H
	DW	062c7H
	DW	062cdH
	DW	062b5H
	DW	062daH
	DW	062b1H
	DW	062d8H
	DW	062d6H
	DW	062d7H
	DW	062c6H
	DW	062acH
	DW	062ceH
	DW	0653eH
	DW	065a7H
	DW	065bcH
	DW	065faH
	DW	06614H
	DW	06613H
	DW	0660cH
	DW	06606H
	DW	06602H
	DW	0660eH
	DW	06600H
	DW	0660fH
	DW	06615H
	DW	0660aH
	DW	06607H
	DW	0670dH
	DW	0670bH
	DW	0676dH
	DW	0678bH
	DW	06795H
	DW	06771H
	DW	0679cH
	DW	06773H
	DW	06777H
	DW	06787H
	DW	0679dH
	DW	06797H
	DW	0676fH
	DW	06770H
	DW	0677fH
	DW	06789H
	DW	0677eH
	DW	06790H
	DW	06775H
	DW	0679aH
	DW	06793H
	DW	0677cH
	DW	0676aH
	DW	06772H
	DW	06b23H
	DW	06b66H
	DW	06b67H
	DW	06b7fH
	DW	06c13H
	DW	06c1bH
	DW	06ce3H
	DW	06ce8H
	DW	06cf3H
	DW	06cb1H
	DW	06cccH
	DW	06ce5H
	DW	06cb3H
	DW	06cbdH
	DW	06cbeH
	DW	06cbcH
	DW	06ce2H
	DW	06cabH
	DW	06cd5H
	DW	06cd3H
	DW	06cb8H
	DW	06cc4H
	DW	06cb9H
	DW	06cc1H
	DW	06caeH
	DW	06cd7H
	DW	06cc5H
	DW	06cf1H
	DW	06cbfH
	DW	06cbbH
	DW	06ce1H
	DW	06cdbH
	DW	06ccaH
	DW	06cacH
	DW	06cefH
	DW	06cdcH
	DW	06cd6H
	DW	06ce0H
	DW	0fffeH
	DW	0fffeH
	DW	0fffeH
	DW	0fffeH
	DW	0fffeH
	DW	0fffeH
	DW	0fffeH
	DW	0fffeH
	DW	0fffeH
	DW	0fffeH
	DW	0fffeH
	DW	0fffeH
	DW	0fffeH
	DW	0fffeH
	DW	0fffeH
	DW	0fffeH
	DW	0fffeH
	DW	0fffeH
	DW	0fffeH
	DW	0fffeH
	DW	0fffeH
	DW	0fffeH
	DW	0fffeH
	DW	0fffeH
	DW	0fffeH
	DW	0fffeH
	DW	0fffeH
	DW	0fffeH
	DW	0fffeH
	DW	0fffeH
	DW	0fffeH
	DW	0fffeH
	DW	0fffeH
	DW	0fffeH
	DW	07095H
	DW	0708eH
	DW	07092H
	DW	0708aH
	DW	07099H
	DW	0722cH
	DW	0722dH
	DW	07238H
	DW	07248H
	DW	07267H
	DW	07269H
	DW	072c0H
	DW	072ceH
	DW	072d9H
	DW	072d7H
	DW	072d0H
	DW	073a9H
	DW	073a8H
	DW	0739fH
	DW	073abH
	DW	073a5H
	DW	0753dH
	DW	0759dH
	DW	07599H
	DW	0759aH
	DW	07684H
	DW	076c2H
	DW	076f2H
	DW	076f4H
	DW	077e5H
	DW	077fdH
	DW	0793eH
	DW	07940H
	DW	07941H
	DW	079c9H
	DW	079c8H
	DW	07a7aH
	DW	07a79H
	DW	07afaH
	DW	07cfeH
	DW	07f54H
	DW	07f8cH
	DW	07f8bH
	DW	08005H
	DW	080baH
	DW	080a5H
	DW	080a2H
	DW	080b1H
	DW	080a1H
	DW	080abH
	DW	080a9H
	DW	080b4H
	DW	080aaH
	DW	080afH
	DW	081e5H
	DW	081feH
	DW	0820dH
	DW	082b3H
	DW	0829dH
	DW	08299H
	DW	082adH
	DW	082bdH
	DW	0829fH
	DW	082b9H
	DW	082b1H
	DW	082acH
	DW	082a5H
	DW	082afH
	DW	082b8H
	DW	082a3H
	DW	082b0H
	DW	082beH
	DW	082b7H
	DW	0864eH
	DW	08671H
	DW	0521dH
	DW	08868H
	DW	08ecbH
	DW	08fceH
	DW	08fd4H
	DW	08fd1H
	DW	090b5H
	DW	090b8H
	DW	090b1H
	DW	090b6H
	DW	091c7H
	DW	091d1H
	DW	09577H
	DW	09580H
	DW	0961cH
	DW	09640H
	DW	0963fH
	DW	0963bH
	DW	09644H
	DW	09642H
	DW	096b9H
	DW	096e8H
	DW	09752H
	DW	0975eH
	DW	04e9fH
	DW	04eadH
	DW	04eaeH
	DW	04fe1H
	DW	04fb5H
	DW	04fafH
	DW	04fbfH
	DW	04fe0H
	DW	04fd1H
	DW	04fcfH
	DW	04fddH
	DW	04fc3H
	DW	04fb6H
	DW	04fd8H
	DW	04fdfH
	DW	04fcaH
	DW	04fd7H
	DW	04faeH
	DW	04fd0H
	DW	04fc4H
	DW	04fc2H
	DW	04fdaH
	DW	04fceH
	DW	04fdeH
	DW	04fb7H
	DW	05157H
	DW	05192H
	DW	05191H
	DW	051a0H
	DW	0524eH
	DW	05243H
	DW	0524aH
	DW	0524dH
	DW	0524cH
	DW	0524bH
	DW	05247H
	DW	052c7H
	DW	052c9H
	DW	052c3H
	DW	052c1H
	DW	0530dH
	DW	05357H
	DW	0537bH
	DW	0539aH
	DW	053dbH
	DW	054acH
	DW	054c0H
	DW	054a8H
	DW	054ceH
	DW	054c9H
	DW	054b8H
	DW	054a6H
	DW	054b3H
	DW	054c7H
	DW	054c2H
	DW	054bdH
	DW	054aaH
	DW	054c1H
	DW	0fffeH
	DW	0fffeH
	DW	0fffeH
	DW	0fffeH
	DW	0fffeH
	DW	0fffeH
	DW	0fffeH
	DW	0fffeH
	DW	0fffeH
	DW	0fffeH
	DW	0fffeH
	DW	0fffeH
	DW	0fffeH
	DW	0fffeH
	DW	0fffeH
	DW	0fffeH
	DW	0fffeH
	DW	0fffeH
	DW	0fffeH
	DW	0fffeH
	DW	0fffeH
	DW	0fffeH
	DW	0fffeH
	DW	0fffeH
	DW	0fffeH
	DW	0fffeH
	DW	0fffeH
	DW	0fffeH
	DW	0fffeH
	DW	0fffeH
	DW	0fffeH
	DW	0fffeH
	DW	0fffeH
	DW	0fffeH
	DW	054c4H
	DW	054c8H
	DW	054afH
	DW	054abH
	DW	054b1H
	DW	054bbH
	DW	054a9H
	DW	054a7H
	DW	054bfH
	DW	056ffH
	DW	05782H
	DW	0578bH
	DW	057a0H
	DW	057a3H
	DW	057a2H
	DW	057ceH
	DW	057aeH
	DW	05793H
	DW	05955H
	DW	05951H
	DW	0594fH
	DW	0594eH
	DW	05950H
	DW	059dcH
	DW	059d8H
	DW	059ffH
	DW	059e3H
	DW	059e8H
	DW	05a03H
	DW	059e5H
	DW	059eaH
	DW	059daH
	DW	059e6H
	DW	05a01H
	DW	059fbH
	DW	05b69H
	DW	05ba3H
	DW	05ba6H
	DW	05ba4H
	DW	05ba2H
	DW	05ba5H
	DW	05c01H
	DW	05c4eH
	DW	05c4fH
	DW	05c4dH
	DW	05c4bH
	DW	05cd9H
	DW	05cd2H
	DW	05df7H
	DW	05e1dH
	DW	05e25H
	DW	05e1fH
	DW	05e7dH
	DW	05ea0H
	DW	05ea6H
	DW	05efaH
	DW	05f08H
	DW	05f2dH
	DW	05f65H
	DW	05f88H
	DW	05f85H
	DW	05f8aH
	DW	05f8bH
	DW	05f87H
	DW	05f8cH
	DW	05f89H
	DW	06012H
	DW	0601dH
	DW	06020H
	DW	06025H
	DW	0600eH
	DW	06028H
	DW	0604dH
	DW	06070H
	DW	06068H
	DW	06062H
	DW	06046H
	DW	06043H
	DW	0606cH
	DW	0606bH
	DW	0606aH
	DW	06064H
	DW	06241H
	DW	062dcH
	DW	06316H
	DW	06309H
	DW	062fcH
	DW	062edH
	DW	06301H
	DW	062eeH
	DW	062fdH
	DW	06307H
	DW	062f1H
	DW	062f7H
	DW	062efH
	DW	062ecH
	DW	062feH
	DW	062f4H
	DW	06311H
	DW	06302H
	DW	0653fH
	DW	06545H
	DW	065abH
	DW	065bdH
	DW	065e2H
	DW	06625H
	DW	0662dH
	DW	06620H
	DW	06627H
	DW	0662fH
	DW	0661fH
	DW	06628H
	DW	06631H
	DW	06624H
	DW	066f7H
	DW	067ffH
	DW	067d3H
	DW	067f1H
	DW	067d4H
	DW	067d0H
	DW	067ecH
	DW	067b6H
	DW	067afH
	DW	067f5H
	DW	067e9H
	DW	067efH
	DW	067c4H
	DW	067d1H
	DW	067b4H
	DW	067daH
	DW	067e5H
	DW	067b8H
	DW	067cfH
	DW	067deH
	DW	067f3H
	DW	067b0H
	DW	067d9H
	DW	067e2H
	DW	067ddH
	DW	067d2H
	DW	06b6aH
	DW	06b83H
	DW	06b86H
	DW	06bb5H
	DW	06bd2H
	DW	06bd7H
	DW	06c1fH
	DW	06cc9H
	DW	06d0bH
	DW	06d32H
	DW	06d2aH
	DW	06d41H
	DW	06d25H
	DW	06d0cH
	DW	06d31H
	DW	06d1eH
	DW	06d17H
	DW	0fffeH
	DW	0fffeH
	DW	0fffeH
	DW	0fffeH
	DW	0fffeH
	DW	0fffeH
	DW	0fffeH
	DW	0fffeH
	DW	0fffeH
	DW	0fffeH
	DW	0fffeH
	DW	0fffeH
	DW	0fffeH
	DW	0fffeH
	DW	0fffeH
	DW	0fffeH
	DW	0fffeH
	DW	0fffeH
	DW	0fffeH
	DW	0fffeH
	DW	0fffeH
	DW	0fffeH
	DW	0fffeH
	DW	0fffeH
	DW	0fffeH
	DW	0fffeH
	DW	0fffeH
	DW	0fffeH
	DW	0fffeH
	DW	0fffeH
	DW	0fffeH
	DW	0fffeH
	DW	0fffeH
	DW	0fffeH
	DW	06d3bH
	DW	06d3dH
	DW	06d3eH
	DW	06d36H
	DW	06d1bH
	DW	06cf5H
	DW	06d39H
	DW	06d27H
	DW	06d38H
	DW	06d29H
	DW	06d2eH
	DW	06d35H
	DW	06d0eH
	DW	06d2bH
	DW	070abH
	DW	070baH
	DW	070b3H
	DW	070acH
	DW	070afH
	DW	070adH
	DW	070b8H
	DW	070aeH
	DW	070a4H
	DW	07230H
	DW	07272H
	DW	0726fH
	DW	07274H
	DW	072e9H
	DW	072e0H
	DW	072e1H
	DW	073b7H
	DW	073caH
	DW	073bbH
	DW	073b2H
	DW	073cdH
	DW	073c0H
	DW	073b3H
	DW	0751aH
	DW	0752dH
	DW	0754fH
	DW	0754cH
	DW	0754eH
	DW	0754bH
	DW	075abH
	DW	075a4H
	DW	075a5H
	DW	075a2H
	DW	075a3H
	DW	07678H
	DW	07686H
	DW	07687H
	DW	07688H
	DW	076c8H
	DW	076c6H
	DW	076c3H
	DW	076c5H
	DW	07701H
	DW	076f9H
	DW	076f8H
	DW	07709H
	DW	0770bH
	DW	076feH
	DW	076fcH
	DW	07707H
	DW	077dcH
	DW	07802H
	DW	07814H
	DW	0780cH
	DW	0780dH
	DW	07946H
	DW	07949H
	DW	07948H
	DW	07947H
	DW	079b9H
	DW	079baH
	DW	079d1H
	DW	079d2H
	DW	079cbH
	DW	07a7fH
	DW	07a81H
	DW	07affH
	DW	07afdH
	DW	07c7dH
	DW	07d02H
	DW	07d05H
	DW	07d00H
	DW	07d09H
	DW	07d07H
	DW	07d04H
	DW	07d06H
	DW	07f38H
	DW	07f8eH
	DW	07fbfH
	DW	08004H
	DW	08010H
	DW	0800dH
	DW	08011H
	DW	08036H
	DW	080d6H
	DW	080e5H
	DW	080daH
	DW	080c3H
	DW	080c4H
	DW	080ccH
	DW	080e1H
	DW	080dbH
	DW	080ceH
	DW	080deH
	DW	080e4H
	DW	080ddH
	DW	081f4H
	DW	08222H
	DW	082e7H
	DW	08303H
	DW	08305H
	DW	082e3H
	DW	082dbH
	DW	082e6H
	DW	08304H
	DW	082e5H
	DW	08302H
	DW	08309H
	DW	082d2H
	DW	082d7H
	DW	082f1H
	DW	08301H
	DW	082dcH
	DW	082d4H
	DW	082d1H
	DW	082deH
	DW	082d3H
	DW	082dfH
	DW	082efH
	DW	08306H
	DW	08650H
	DW	08679H
	DW	0867bH
	DW	0867aH
	DW	0884dH
	DW	0886bH
	DW	08981H
	DW	089d4H
	DW	08a08H
	DW	08a02H
	DW	08a03H
	DW	08c9eH
	DW	08ca0H
	DW	08d74H
	DW	08d73H
	DW	08db4H
	DW	08ecdH
	DW	08eccH
	DW	08ff0H
	DW	08fe6H
	DW	08fe2H
	DW	08feaH
	DW	08fe5H
	DW	0fffeH
	DW	0fffeH
	DW	0fffeH
	DW	0fffeH
	DW	0fffeH
	DW	0fffeH
	DW	0fffeH
	DW	0fffeH
	DW	0fffeH
	DW	0fffeH
	DW	0fffeH
	DW	0fffeH
	DW	0fffeH
	DW	0fffeH
	DW	0fffeH
	DW	0fffeH
	DW	0fffeH
	DW	0fffeH
	DW	0fffeH
	DW	0fffeH
	DW	0fffeH
	DW	0fffeH
	DW	0fffeH
	DW	0fffeH
	DW	0fffeH
	DW	0fffeH
	DW	0fffeH
	DW	0fffeH
	DW	0fffeH
	DW	0fffeH
	DW	0fffeH
	DW	0fffeH
	DW	0fffeH
	DW	0fffeH
	DW	08fedH
	DW	08febH
	DW	08fe4H
	DW	08fe8H
	DW	090caH
	DW	090ceH
	DW	090c1H
	DW	090c3H
	DW	0914bH
	DW	0914aH
	DW	091cdH
	DW	09582H
	DW	09650H
	DW	0964bH
	DW	0964cH
	DW	0964dH
	DW	09762H
	DW	09769H
	DW	097cbH
	DW	097edH
	DW	097f3H
	DW	09801H
	DW	098a8H
	DW	098dbH
	DW	098dfH
	DW	09996H
	DW	09999H
	DW	04e58H
	DW	04eb3H
	DW	0500cH
	DW	0500dH
	DW	05023H
	DW	04fefH
	DW	05026H
	DW	05025H
	DW	04ff8H
	DW	05029H
	DW	05016H
	DW	05006H
	DW	0503cH
	DW	0501fH
	DW	0501aH
	DW	05012H
	DW	05011H
	DW	04ffaH
	DW	05000H
	DW	05014H
	DW	05028H
	DW	04ff1H
	DW	05021H
	DW	0500bH
	DW	05019H
	DW	05018H
	DW	04ff3H
	DW	04feeH
	DW	0502dH
	DW	0502aH
	DW	04ffeH
	DW	0502bH
	DW	05009H
	DW	0517cH
	DW	051a4H
	DW	051a5H
	DW	051a2H
	DW	051cdH
	DW	051ccH
	DW	051c6H
	DW	051cbH
	DW	05256H
	DW	0525cH
	DW	05254H
	DW	0525bH
	DW	0525dH
	DW	0532aH
	DW	0537fH
	DW	0539fH
	DW	0539dH
	DW	053dfH
	DW	054e8H
	DW	05510H
	DW	05501H
	DW	05537H
	DW	054fcH
	DW	054e5H
	DW	054f2H
	DW	05506H
	DW	054faH
	DW	05514H
	DW	054e9H
	DW	054edH
	DW	054e1H
	DW	05509H
	DW	054eeH
	DW	054eaH
	DW	054e6H
	DW	05527H
	DW	05507H
	DW	054fdH
	DW	0550fH
	DW	05703H
	DW	05704H
	DW	057c2H
	DW	057d4H
	DW	057cbH
	DW	057c3H
	DW	05809H
	DW	0590fH
	DW	05957H
	DW	05958H
	DW	0595aH
	DW	05a11H
	DW	05a18H
	DW	05a1cH
	DW	05a1fH
	DW	05a1bH
	DW	05a13H
	DW	059ecH
	DW	05a20H
	DW	05a23H
	DW	05a29H
	DW	05a25H
	DW	05a0cH
	DW	05a09H
	DW	05b6bH
	DW	05c58H
	DW	05bb0H
	DW	05bb3H
	DW	05bb6H
	DW	05bb4H
	DW	05baeH
	DW	05bb5H
	DW	05bb9H
	DW	05bb8H
	DW	05c04H
	DW	05c51H
	DW	05c55H
	DW	05c50H
	DW	05cedH
	DW	05cfdH
	DW	05cfbH
	DW	05ceaH
	DW	05ce8H
	DW	05cf0H
	DW	05cf6H
	DW	05d01H
	DW	05cf4H
	DW	05deeH
	DW	05e2dH
	DW	05e2bH
	DW	05eabH
	DW	05eadH
	DW	05ea7H
	DW	05f31H
	DW	05f92H
	DW	05f91H
	DW	05f90H
	DW	06059H
	DW	0fffeH
	DW	0fffeH
	DW	0fffeH
	DW	0fffeH
	DW	0fffeH
	DW	0fffeH
	DW	0fffeH
	DW	0fffeH
	DW	0fffeH
	DW	0fffeH
	DW	0fffeH
	DW	0fffeH
	DW	0fffeH
	DW	0fffeH
	DW	0fffeH
	DW	0fffeH
	DW	0fffeH
	DW	0fffeH
	DW	0fffeH
	DW	0fffeH
	DW	0fffeH
	DW	0fffeH
	DW	0fffeH
	DW	0fffeH
	DW	0fffeH
	DW	0fffeH
	DW	0fffeH
	DW	0fffeH
	DW	0fffeH
	DW	0fffeH
	DW	0fffeH
	DW	0fffeH
	DW	0fffeH
	DW	0fffeH
	DW	06063H
	DW	06065H
	DW	06050H
	DW	06055H
	DW	0606dH
	DW	06069H
	DW	0606fH
	DW	06084H
	DW	0609fH
	DW	0609aH
	DW	0608dH
	DW	06094H
	DW	0608cH
	DW	06085H
	DW	06096H
	DW	06247H
	DW	062f3H
	DW	06308H
	DW	062ffH
	DW	0634eH
	DW	0633eH
	DW	0632fH
	DW	06355H
	DW	06342H
	DW	06346H
	DW	0634fH
	DW	06349H
	DW	0633aH
	DW	06350H
	DW	0633dH
	DW	0632aH
	DW	0632bH
	DW	06328H
	DW	0634dH
	DW	0634cH
	DW	06548H
	DW	06549H
	DW	06599H
	DW	065c1H
	DW	065c5H
	DW	06642H
	DW	06649H
	DW	0664fH
	DW	06643H
	DW	06652H
	DW	0664cH
	DW	06645H
	DW	06641H
	DW	066f8H
	DW	06714H
	DW	06715H
	DW	06717H
	DW	06821H
	DW	06838H
	DW	06848H
	DW	06846H
	DW	06853H
	DW	06839H
	DW	06842H
	DW	06854H
	DW	06829H
	DW	068b3H
	DW	06817H
	DW	0684cH
	DW	06851H
	DW	0683dH
	DW	067f4H
	DW	06850H
	DW	06840H
	DW	0683cH
	DW	06843H
	DW	0682aH
	DW	06845H
	DW	06813H
	DW	06818H
	DW	06841H
	DW	06b8aH
	DW	06b89H
	DW	06bb7H
	DW	06c23H
	DW	06c27H
	DW	06c28H
	DW	06c26H
	DW	06c24H
	DW	06cf0H
	DW	06d6aH
	DW	06d95H
	DW	06d88H
	DW	06d87H
	DW	06d66H
	DW	06d78H
	DW	06d77H
	DW	06d59H
	DW	06d93H
	DW	06d6cH
	DW	06d89H
	DW	06d6eH
	DW	06d5aH
	DW	06d74H
	DW	06d69H
	DW	06d8cH
	DW	06d8aH
	DW	06d79H
	DW	06d85H
	DW	06d65H
	DW	06d94H
	DW	070caH
	DW	070d8H
	DW	070e4H
	DW	070d9H
	DW	070c8H
	DW	070cfH
	DW	07239H
	DW	07279H
	DW	072fcH
	DW	072f9H
	DW	072fdH
	DW	072f8H
	DW	072f7H
	DW	07386H
	DW	073edH
	DW	07409H
	DW	073eeH
	DW	073e0H
	DW	073eaH
	DW	073deH
	DW	07554H
	DW	0755dH
	DW	0755cH
	DW	0755aH
	DW	07559H
	DW	075beH
	DW	075c5H
	DW	075c7H
	DW	075b2H
	DW	075b3H
	DW	075bdH
	DW	075bcH
	DW	075b9H
	DW	075c2H
	DW	075b8H
	DW	0768bH
	DW	076b0H
	DW	076caH
	DW	076cdH
	DW	076ceH
	DW	07729H
	DW	0771fH
	DW	07720H
	DW	07728H
	DW	077e9H
	DW	07830H
	DW	07827H
	DW	07838H
	DW	0781dH
	DW	07834H
	DW	07837H
	DW	0fffeH
	DW	0fffeH
	DW	0fffeH
	DW	0fffeH
	DW	0fffeH
	DW	0fffeH
	DW	0fffeH
	DW	0fffeH
	DW	0fffeH
	DW	0fffeH
	DW	0fffeH
	DW	0fffeH
	DW	0fffeH
	DW	0fffeH
	DW	0fffeH
	DW	0fffeH
	DW	0fffeH
	DW	0fffeH
	DW	0fffeH
	DW	0fffeH
	DW	0fffeH
	DW	0fffeH
	DW	0fffeH
	DW	0fffeH
	DW	0fffeH
	DW	0fffeH
	DW	0fffeH
	DW	0fffeH
	DW	0fffeH
	DW	0fffeH
	DW	0fffeH
	DW	0fffeH
	DW	0fffeH
	DW	0fffeH
	DW	07825H
	DW	0782dH
	DW	07820H
	DW	0781fH
	DW	07832H
	DW	07955H
	DW	07950H
	DW	07960H
	DW	0795fH
	DW	07956H
	DW	0795eH
	DW	0795dH
	DW	07957H
	DW	0795aH
	DW	079e4H
	DW	079e3H
	DW	079e7H
	DW	079dfH
	DW	079e6H
	DW	079e9H
	DW	079d8H
	DW	07a84H
	DW	07a88H
	DW	07ad9H
	DW	07b06H
	DW	07b11H
	DW	07c89H
	DW	07d21H
	DW	07d17H
	DW	07d0bH
	DW	07d0aH
	DW	07d20H
	DW	07d22H
	DW	07d14H
	DW	07d10H
	DW	07d15H
	DW	07d1aH
	DW	07d1cH
	DW	07d0dH
	DW	07d19H
	DW	07d1bH
	DW	07f3aH
	DW	07f5fH
	DW	07f94H
	DW	07fc5H
	DW	07fc1H
	DW	08006H
	DW	08018H
	DW	08015H
	DW	08019H
	DW	08017H
	DW	0803dH
	DW	0803fH
	DW	080f1H
	DW	08102H
	DW	080f0H
	DW	08105H
	DW	080edH
	DW	080f4H
	DW	08106H
	DW	080f8H
	DW	080f3H
	DW	08108H
	DW	080fdH
	DW	0810aH
	DW	080fcH
	DW	080efH
	DW	081edH
	DW	081ecH
	DW	08200H
	DW	08210H
	DW	0822aH
	DW	0822bH
	DW	08228H
	DW	0822cH
	DW	082bbH
	DW	0832bH
	DW	08352H
	DW	08354H
	DW	0834aH
	DW	08338H
	DW	08350H
	DW	08349H
	DW	08335H
	DW	08334H
	DW	0834fH
	DW	08332H
	DW	08339H
	DW	08336H
	DW	08317H
	DW	08340H
	DW	08331H
	DW	08328H
	DW	08343H
	DW	08654H
	DW	0868aH
	DW	086aaH
	DW	08693H
	DW	086a4H
	DW	086a9H
	DW	0868cH
	DW	086a3H
	DW	0869cH
	DW	08870H
	DW	08877H
	DW	08881H
	DW	08882H
	DW	0887dH
	DW	08879H
	DW	08a18H
	DW	08a10H
	DW	08a0eH
	DW	08a0cH
	DW	08a15H
	DW	08a0aH
	DW	08a17H
	DW	08a13H
	DW	08a16H
	DW	08a0fH
	DW	08a11H
	DW	08c48H
	DW	08c7aH
	DW	08c79H
	DW	08ca1H
	DW	08ca2H
	DW	08d77H
	DW	08eacH
	DW	08ed2H
	DW	08ed4H
	DW	08ecfH
	DW	08fb1H
	DW	09001H
	DW	09006H
	DW	08ff7H
	DW	09000H
	DW	08ffaH
	DW	08ff4H
	DW	09003H
	DW	08ffdH
	DW	09005H
	DW	08ff8H
	DW	09095H
	DW	090e1H
	DW	090ddH
	DW	090e2H
	DW	09152H
	DW	0914dH
	DW	0914cH
	DW	091d8H
	DW	091ddH
	DW	091d7H
	DW	091dcH
	DW	091d9H
	DW	09583H
	DW	09662H
	DW	09663H
	DW	09661H
	DW	0fffeH
	DW	0fffeH
	DW	0fffeH
	DW	0fffeH
	DW	0fffeH
	DW	0fffeH
	DW	0fffeH
	DW	0fffeH
	DW	0fffeH
	DW	0fffeH
	DW	0fffeH
	DW	0fffeH
	DW	0fffeH
	DW	0fffeH
	DW	0fffeH
	DW	0fffeH
	DW	0fffeH
	DW	0fffeH
	DW	0fffeH
	DW	0fffeH
	DW	0fffeH
	DW	0fffeH
	DW	0fffeH
	DW	0fffeH
	DW	0fffeH
	DW	0fffeH
	DW	0fffeH
	DW	0fffeH
	DW	0fffeH
	DW	0fffeH
	DW	0fffeH
	DW	0fffeH
	DW	0fffeH
	DW	0fffeH
	DW	0965bH
	DW	0965dH
	DW	09664H
	DW	09658H
	DW	0965eH
	DW	096bbH
	DW	098e2H
	DW	099acH
	DW	09aa8H
	DW	09ad8H
	DW	09b25H
	DW	09b32H
	DW	09b3cH
	DW	04e7eH
	DW	0507aH
	DW	0507dH
	DW	0505cH
	DW	05047H
	DW	05043H
	DW	0504cH
	DW	0505aH
	DW	05049H
	DW	05065H
	DW	05076H
	DW	0504eH
	DW	05055H
	DW	05075H
	DW	05074H
	DW	05077H
	DW	0504fH
	DW	0500fH
	DW	0506fH
	DW	0506dH
	DW	0515cH
	DW	05195H
	DW	051f0H
	DW	0526aH
	DW	0526fH
	DW	052d2H
	DW	052d9H
	DW	052d8H
	DW	052d5H
	DW	05310H
	DW	0530fH
	DW	05319H
	DW	0533fH
	DW	05340H
	DW	0533eH
	DW	053c3H
	DW	066fcH
	DW	05546H
	DW	0556aH
	DW	05566H
	DW	05544H
	DW	0555eH
	DW	05561H
	DW	05543H
	DW	0554aH
	DW	05531H
	DW	05556H
	DW	0554fH
	DW	05555H
	DW	0552fH
	DW	05564H
	DW	05538H
	DW	0552eH
	DW	0555cH
	DW	0552cH
	DW	05563H
	DW	05533H
	DW	05541H
	DW	05557H
	DW	05708H
	DW	0570bH
	DW	05709H
	DW	057dfH
	DW	05805H
	DW	0580aH
	DW	05806H
	DW	057e0H
	DW	057e4H
	DW	057faH
	DW	05802H
	DW	05835H
	DW	057f7H
	DW	057f9H
	DW	05920H
	DW	05962H
	DW	05a36H
	DW	05a41H
	DW	05a49H
	DW	05a66H
	DW	05a6aH
	DW	05a40H
	DW	05a3cH
	DW	05a62H
	DW	05a5aH
	DW	05a46H
	DW	05a4aH
	DW	05b70H
	DW	05bc7H
	DW	05bc5H
	DW	05bc4H
	DW	05bc2H
	DW	05bbfH
	DW	05bc6H
	DW	05c09H
	DW	05c08H
	DW	05c07H
	DW	05c60H
	DW	05c5cH
	DW	05c5dH
	DW	05d07H
	DW	05d06H
	DW	05d0eH
	DW	05d1bH
	DW	05d16H
	DW	05d22H
	DW	05d11H
	DW	05d29H
	DW	05d14H
	DW	05d19H
	DW	05d24H
	DW	05d27H
	DW	05d17H
	DW	05de2H
	DW	05e38H
	DW	05e36H
	DW	05e33H
	DW	05e37H
	DW	05eb7H
	DW	05eb8H
	DW	05eb6H
	DW	05eb5H
	DW	05ebeH
	DW	05f35H
	DW	05f37H
	DW	05f57H
	DW	05f6cH
	DW	05f69H
	DW	05f6bH
	DW	05f97H
	DW	05f99H
	DW	05f9eH
	DW	05f98H
	DW	05fa1H
	DW	05fa0H
	DW	05f9cH
	DW	0607fH
	DW	060a3H
	DW	06089H
	DW	060a0H
	DW	060a8H
	DW	060cbH
	DW	060b4H
	DW	060e6H
	DW	060bdH
	DW	0fffeH
	DW	0fffeH
	DW	0fffeH
	DW	0fffeH
	DW	0fffeH
	DW	0fffeH
	DW	0fffeH
	DW	0fffeH
	DW	0fffeH
	DW	0fffeH
	DW	0fffeH
	DW	0fffeH
	DW	0fffeH
	DW	0fffeH
	DW	0fffeH
	DW	0fffeH
	DW	0fffeH
	DW	0fffeH
	DW	0fffeH
	DW	0fffeH
	DW	0fffeH
	DW	0fffeH
	DW	0fffeH
	DW	0fffeH
	DW	0fffeH
	DW	0fffeH
	DW	0fffeH
	DW	0fffeH
	DW	0fffeH
	DW	0fffeH
	DW	0fffeH
	DW	0fffeH
	DW	0fffeH
	DW	0fffeH
	DW	060c5H
	DW	060bbH
	DW	060b5H
	DW	060dcH
	DW	060bcH
	DW	060d8H
	DW	060d5H
	DW	060c6H
	DW	060dfH
	DW	060b8H
	DW	060daH
	DW	060c7H
	DW	0621aH
	DW	0621bH
	DW	06248H
	DW	063a0H
	DW	063a7H
	DW	06372H
	DW	06396H
	DW	063a2H
	DW	063a5H
	DW	06377H
	DW	06367H
	DW	06398H
	DW	063aaH
	DW	06371H
	DW	063a9H
	DW	06389H
	DW	06383H
	DW	0639bH
	DW	0636bH
	DW	063a8H
	DW	06384H
	DW	06388H
	DW	06399H
	DW	063a1H
	DW	063acH
	DW	06392H
	DW	0638fH
	DW	06380H
	DW	0637bH
	DW	06369H
	DW	06368H
	DW	0637aH
	DW	0655dH
	DW	06556H
	DW	06551H
	DW	06559H
	DW	06557H
	DW	0555fH
	DW	0654fH
	DW	06558H
	DW	06555H
	DW	06554H
	DW	0659cH
	DW	0659bH
	DW	065acH
	DW	065cfH
	DW	065cbH
	DW	065ccH
	DW	065ceH
	DW	0665dH
	DW	0665aH
	DW	06664H
	DW	06668H
	DW	06666H
	DW	0665eH
	DW	066f9H
	DW	052d7H
	DW	0671bH
	DW	06881H
	DW	068afH
	DW	068a2H
	DW	06893H
	DW	068b5H
	DW	0687fH
	DW	06876H
	DW	068b1H
	DW	068a7H
	DW	06897H
	DW	068b0H
	DW	06883H
	DW	068c4H
	DW	068adH
	DW	06886H
	DW	06885H
	DW	06894H
	DW	0689dH
	DW	068a8H
	DW	0689fH
	DW	068a1H
	DW	06882H
	DW	06b32H
	DW	06bbaH
	DW	06bebH
	DW	06becH
	DW	06c2bH
	DW	06d8eH
	DW	06dbcH
	DW	06df3H
	DW	06dd9H
	DW	06db2H
	DW	06de1H
	DW	06dccH
	DW	06de4H
	DW	06dfbH
	DW	06dfaH
	DW	06e05H
	DW	06dc7H
	DW	06dcbH
	DW	06dafH
	DW	06dd1H
	DW	06daeH
	DW	06ddeH
	DW	06df9H
	DW	06db8H
	DW	06df7H
	DW	06df5H
	DW	06dc5H
	DW	06dd2H
	DW	06e1aH
	DW	06db5H
	DW	06ddaH
	DW	06debH
	DW	06dd8H
	DW	06deaH
	DW	06df1H
	DW	06deeH
	DW	06de8H
	DW	06dc6H
	DW	06dc4H
	DW	06daaH
	DW	06decH
	DW	06dbfH
	DW	06de6H
	DW	070f9H
	DW	07109H
	DW	0710aH
	DW	070fdH
	DW	070efH
	DW	0723dH
	DW	0727dH
	DW	07281H
	DW	0731cH
	DW	0731bH
	DW	07316H
	DW	07313H
	DW	07319H
	DW	07387H
	DW	07405H
	DW	0740aH
	DW	07403H
	DW	07406H
	DW	073feH
	DW	0740dH
	DW	074e0H
	DW	074f6H
	DW	0fffeH
	DW	0fffeH
	DW	0fffeH
	DW	0fffeH
	DW	0fffeH
	DW	0fffeH
	DW	0fffeH
	DW	0fffeH
	DW	0fffeH
	DW	0fffeH
	DW	0fffeH
	DW	0fffeH
	DW	0fffeH
	DW	0fffeH
	DW	0fffeH
	DW	0fffeH
	DW	0fffeH
	DW	0fffeH
	DW	0fffeH
	DW	0fffeH
	DW	0fffeH
	DW	0fffeH
	DW	0fffeH
	DW	0fffeH
	DW	0fffeH
	DW	0fffeH
	DW	0fffeH
	DW	0fffeH
	DW	0fffeH
	DW	0fffeH
	DW	0fffeH
	DW	0fffeH
	DW	0fffeH
	DW	0fffeH
	DW	074f7H
	DW	0751cH
	DW	07522H
	DW	07565H
	DW	07566H
	DW	07562H
	DW	07570H
	DW	0758fH
	DW	075d4H
	DW	075d5H
	DW	075b5H
	DW	075caH
	DW	075cdH
	DW	0768eH
	DW	076d4H
	DW	076d2H
	DW	076dbH
	DW	07737H
	DW	0773eH
	DW	0773cH
	DW	07736H
	DW	07738H
	DW	0773aH
	DW	0786bH
	DW	07843H
	DW	0784eH
	DW	07965H
	DW	07968H
	DW	0796dH
	DW	079fbH
	DW	07a92H
	DW	07a95H
	DW	07b20H
	DW	07b28H
	DW	07b1bH
	DW	07b2cH
	DW	07b26H
	DW	07b19H
	DW	07b1eH
	DW	07b2eH
	DW	07c92H
	DW	07c97H
	DW	07c95H
	DW	07d46H
	DW	07d43H
	DW	07d71H
	DW	07d2eH
	DW	07d39H
	DW	07d3cH
	DW	07d40H
	DW	07d30H
	DW	07d33H
	DW	07d44H
	DW	07d2fH
	DW	07d42H
	DW	07d32H
	DW	07d31H
	DW	07f3dH
	DW	07f9eH
	DW	07f9aH
	DW	07fccH
	DW	07fceH
	DW	07fd2H
	DW	0801cH
	DW	0804aH
	DW	08046H
	DW	0812fH
	DW	08116H
	DW	08123H
	DW	0812bH
	DW	08129H
	DW	08130H
	DW	08124H
	DW	08202H
	DW	08235H
	DW	08237H
	DW	08236H
	DW	08239H
	DW	0838eH
	DW	0839eH
	DW	08398H
	DW	08378H
	DW	083a2H
	DW	08396H
	DW	083bdH
	DW	083abH
	DW	08392H
	DW	0838aH
	DW	08393H
	DW	08389H
	DW	083a0H
	DW	08377H
	DW	0837bH
	DW	0837cH
	DW	08386H
	DW	083a7H
	DW	08655H
	DW	05f6aH
	DW	086c7H
	DW	086c0H
	DW	086b6H
	DW	086c4H
	DW	086b5H
	DW	086c6H
	DW	086cbH
	DW	086b1H
	DW	086afH
	DW	086c9H
	DW	08853H
	DW	0889eH
	DW	08888H
	DW	088abH
	DW	08892H
	DW	08896H
	DW	0888dH
	DW	0888bH
	DW	08993H
	DW	0898fH
	DW	08a2aH
	DW	08a1dH
	DW	08a23H
	DW	08a25H
	DW	08a31H
	DW	08a2dH
	DW	08a1fH
	DW	08a1bH
	DW	08a22H
	DW	08c49H
	DW	08c5aH
	DW	08ca9H
	DW	08cacH
	DW	08cabH
	DW	08ca8H
	DW	08caaH
	DW	08ca7H
	DW	08d67H
	DW	08d66H
	DW	08dbeH
	DW	08dbaH
	DW	08edbH
	DW	08edfH
	DW	09019H
	DW	0900dH
	DW	0901aH
	DW	09017H
	DW	09023H
	DW	0901fH
	DW	0901dH
	DW	09010H
	DW	09015H
	DW	0901eH
	DW	09020H
	DW	0900fH
	DW	09022H
	DW	09016H
	DW	0901bH
	DW	09014H
	DW	0fffeH
	DW	0fffeH
	DW	0fffeH
	DW	0fffeH
	DW	0fffeH
	DW	0fffeH
	DW	0fffeH
	DW	0fffeH
	DW	0fffeH
	DW	0fffeH
	DW	0fffeH
	DW	0fffeH
	DW	0fffeH
	DW	0fffeH
	DW	0fffeH
	DW	0fffeH
	DW	0fffeH
	DW	0fffeH
	DW	0fffeH
	DW	0fffeH
	DW	0fffeH
	DW	0fffeH
	DW	0fffeH
	DW	0fffeH
	DW	0fffeH
	DW	0fffeH
	DW	0fffeH
	DW	0fffeH
	DW	0fffeH
	DW	0fffeH
	DW	0fffeH
	DW	0fffeH
	DW	0fffeH
	DW	0fffeH
	DW	090e8H
	DW	090edH
	DW	090fdH
	DW	09157H
	DW	091ceH
	DW	091f5H
	DW	091e6H
	DW	091e3H
	DW	091e7H
	DW	091edH
	DW	091e9H
	DW	09589H
	DW	0966aH
	DW	09675H
	DW	09673H
	DW	09678H
	DW	09670H
	DW	09674H
	DW	09676H
	DW	09677H
	DW	0966cH
	DW	096c0H
	DW	096eaH
	DW	096e9H
	DW	07ae0H
	DW	07adfH
	DW	09802H
	DW	09803H
	DW	09b5aH
	DW	09ce5H
	DW	09e75H
	DW	09e7fH
	DW	09ea5H
	DW	09ebbH
	DW	050a2H
	DW	0508dH
	DW	05085H
	DW	05099H
	DW	05091H
	DW	05080H
	DW	05096H
	DW	05098H
	DW	0509aH
	DW	06700H
	DW	051f1H
	DW	05272H
	DW	05274H
	DW	05275H
	DW	05269H
	DW	052deH
	DW	052ddH
	DW	052dbH
	DW	0535aH
	DW	053a5H
	DW	0557bH
	DW	05580H
	DW	055a7H
	DW	0557cH
	DW	0558aH
	DW	0559dH
	DW	05598H
	DW	05582H
	DW	0559cH
	DW	055aaH
	DW	05594H
	DW	05587H
	DW	0558bH
	DW	05583H
	DW	055b3H
	DW	055aeH
	DW	0559fH
	DW	0553eH
	DW	055b2H
	DW	0559aH
	DW	055bbH
	DW	055acH
	DW	055b1H
	DW	0557eH
	DW	05589H
	DW	055abH
	DW	05599H
	DW	0570dH
	DW	0582fH
	DW	0582aH
	DW	05834H
	DW	05824H
	DW	05830H
	DW	05831H
	DW	05821H
	DW	0581dH
	DW	05820H
	DW	058f9H
	DW	058faH
	DW	05960H
	DW	05a77H
	DW	05a9aH
	DW	05a7fH
	DW	05a92H
	DW	05a9bH
	DW	05aa7H
	DW	05b73H
	DW	05b71H
	DW	05bd2H
	DW	05bccH
	DW	05bd3H
	DW	05bd0H
	DW	05c0aH
	DW	05c0bH
	DW	05c31H
	DW	05d4cH
	DW	05d50H
	DW	05d34H
	DW	05d47H
	DW	05dfdH
	DW	05e45H
	DW	05e3dH
	DW	05e40H
	DW	05e43H
	DW	05e7eH
	DW	05ecaH
	DW	05ec1H
	DW	05ec2H
	DW	05ec4H
	DW	05f3cH
	DW	05f6dH
	DW	05fa9H
	DW	05faaH
	DW	05fa8H
	DW	060d1H
	DW	060e1H
	DW	060b2H
	DW	060b6H
	DW	060e0H
	DW	0611cH
	DW	06123H
	DW	060faH
	DW	06115H
	DW	060f0H
	DW	060fbH
	DW	060f4H
	DW	06168H
	DW	060f1H
	DW	0610eH
	DW	060f6H
	DW	06109H
	DW	06100H
	DW	06112H
	DW	0621fH
	DW	06249H
	DW	063a3H
	DW	0638cH
	DW	063cfH
	DW	063c0H
	DW	063e9H
	DW	063c9H
	DW	063c6H
	DW	063cdH
	DW	0fffeH
	DW	0fffeH
	DW	0fffeH
	DW	0fffeH
	DW	0fffeH
	DW	0fffeH
	DW	0fffeH
	DW	0fffeH
	DW	0fffeH
	DW	0fffeH
	DW	0fffeH
	DW	0fffeH
	DW	0fffeH
	DW	0fffeH
	DW	0fffeH
	DW	0fffeH
	DW	0fffeH
	DW	0fffeH
	DW	0fffeH
	DW	0fffeH
	DW	0fffeH
	DW	0fffeH
	DW	0fffeH
	DW	0fffeH
	DW	0fffeH
	DW	0fffeH
	DW	0fffeH
	DW	0fffeH
	DW	0fffeH
	DW	0fffeH
	DW	0fffeH
	DW	0fffeH
	DW	0fffeH
	DW	0fffeH
	DW	063d2H
	DW	063e3H
	DW	063d0H
	DW	063e1H
	DW	063d6H
	DW	063edH
	DW	063eeH
	DW	06376H
	DW	063f4H
	DW	063eaH
	DW	063dbH
	DW	06452H
	DW	063daH
	DW	063f9H
	DW	0655eH
	DW	06566H
	DW	06562H
	DW	06563H
	DW	06591H
	DW	06590H
	DW	065afH
	DW	0666eH
	DW	06670H
	DW	06674H
	DW	06676H
	DW	0666fH
	DW	06691H
	DW	0667aH
	DW	0667eH
	DW	06677H
	DW	066feH
	DW	066ffH
	DW	0671fH
	DW	0671dH
	DW	068faH
	DW	068d5H
	DW	068e0H
	DW	068d8H
	DW	068d7H
	DW	06905H
	DW	068dfH
	DW	068f5H
	DW	068eeH
	DW	068e7H
	DW	068f9H
	DW	068d2H
	DW	068f2H
	DW	068e3H
	DW	068cbH
	DW	068cdH
	DW	0690dH
	DW	06912H
	DW	0690eH
	DW	068c9H
	DW	068daH
	DW	0696eH
	DW	068fbH
	DW	06b3eH
	DW	06b3aH
	DW	06b3dH
	DW	06b98H
	DW	06b96H
	DW	06bbcH
	DW	06befH
	DW	06c2eH
	DW	06c2fH
	DW	06c2cH
	DW	06e2fH
	DW	06e38H
	DW	06e54H
	DW	06e21H
	DW	06e32H
	DW	06e67H
	DW	06e4aH
	DW	06e20H
	DW	06e25H
	DW	06e23H
	DW	06e1bH
	DW	06e5bH
	DW	06e58H
	DW	06e24H
	DW	06e56H
	DW	06e6eH
	DW	06e2dH
	DW	06e26H
	DW	06e6fH
	DW	06e34H
	DW	06e4dH
	DW	06e3aH
	DW	06e2cH
	DW	06e43H
	DW	06e1dH
	DW	06e3eH
	DW	06ecbH
	DW	06e89H
	DW	06e19H
	DW	06e4eH
	DW	06e63H
	DW	06e44H
	DW	06e72H
	DW	06e69H
	DW	06e5fH
	DW	07119H
	DW	0711aH
	DW	07126H
	DW	07130H
	DW	07121H
	DW	07136H
	DW	0716eH
	DW	0711cH
	DW	0724cH
	DW	07284H
	DW	07280H
	DW	07336H
	DW	07325H
	DW	07334H
	DW	07329H
	DW	0743aH
	DW	0742aH
	DW	07433H
	DW	07422H
	DW	07425H
	DW	07435H
	DW	07436H
	DW	07434H
	DW	0742fH
	DW	0741bH
	DW	07426H
	DW	07428H
	DW	07525H
	DW	07526H
	DW	0756bH
	DW	0756aH
	DW	075e2H
	DW	075dbH
	DW	075e3H
	DW	075d9H
	DW	075d8H
	DW	075deH
	DW	075e0H
	DW	0767bH
	DW	0767cH
	DW	07696H
	DW	07693H
	DW	076b4H
	DW	076dcH
	DW	0774fH
	DW	077edH
	DW	0785dH
	DW	0786cH
	DW	0786fH
	DW	07a0dH
	DW	07a08H
	DW	07a0bH
	DW	07a05H
	DW	07a00H
	DW	07a98H
	DW	0fffeH
	DW	0fffeH
	DW	0fffeH
	DW	0fffeH
	DW	0fffeH
	DW	0fffeH
	DW	0fffeH
	DW	0fffeH
	DW	0fffeH
	DW	0fffeH
	DW	0fffeH
	DW	0fffeH
	DW	0fffeH
	DW	0fffeH
	DW	0fffeH
	DW	0fffeH
	DW	0fffeH
	DW	0fffeH
	DW	0fffeH
	DW	0fffeH
	DW	0fffeH
	DW	0fffeH
	DW	0fffeH
	DW	0fffeH
	DW	0fffeH
	DW	0fffeH
	DW	0fffeH
	DW	0fffeH
	DW	0fffeH
	DW	0fffeH
	DW	0fffeH
	DW	0fffeH
	DW	0fffeH
	DW	0fffeH
	DW	07a97H
	DW	07a96H
	DW	07ae5H
	DW	07ae3H
	DW	07b49H
	DW	07b56H
	DW	07b46H
	DW	07b50H
	DW	07b52H
	DW	07b54H
	DW	07b4dH
	DW	07b4bH
	DW	07b4fH
	DW	07b51H
	DW	07c9fH
	DW	07ca5H
	DW	07d5eH
	DW	07d50H
	DW	07d68H
	DW	07d55H
	DW	07d2bH
	DW	07d6eH
	DW	07d72H
	DW	07d61H
	DW	07d66H
	DW	07d62H
	DW	07d70H
	DW	07d73H
	DW	05584H
	DW	07fd4H
	DW	07fd5H
	DW	0800bH
	DW	08052H
	DW	08085H
	DW	08155H
	DW	08154H
	DW	0814bH
	DW	08151H
	DW	0814eH
	DW	08139H
	DW	08146H
	DW	0813eH
	DW	0814cH
	DW	08153H
	DW	08174H
	DW	08212H
	DW	0821cH
	DW	083e9H
	DW	08403H
	DW	083f8H
	DW	0840dH
	DW	083e0H
	DW	083c5H
	DW	0840bH
	DW	083c1H
	DW	083efH
	DW	083f1H
	DW	083f4H
	DW	08457H
	DW	0840aH
	DW	083f0H
	DW	0840cH
	DW	083ccH
	DW	083fdH
	DW	083f2H
	DW	083caH
	DW	08438H
	DW	0840eH
	DW	08404H
	DW	083dcH
	DW	08407H
	DW	083d4H
	DW	083dfH
	DW	0865bH
	DW	086dfH
	DW	086d9H
	DW	086edH
	DW	086d4H
	DW	086dbH
	DW	086e4H
	DW	086d0H
	DW	086deH
	DW	08857H
	DW	088c1H
	DW	088c2H
	DW	088b1H
	DW	08983H
	DW	08996H
	DW	08a3bH
	DW	08a60H
	DW	08a55H
	DW	08a5eH
	DW	08a3cH
	DW	08a41H
	DW	08a54H
	DW	08a5bH
	DW	08a50H
	DW	08a46H
	DW	08a34H
	DW	08a3aH
	DW	08a36H
	DW	08a56H
	DW	08c61H
	DW	08c82H
	DW	08cafH
	DW	08cbcH
	DW	08cb3H
	DW	08cbdH
	DW	08cc1H
	DW	08cbbH
	DW	08cc0H
	DW	08cb4H
	DW	08cb7H
	DW	08cb6H
	DW	08cbfH
	DW	08cb8H
	DW	08d8aH
	DW	08d85H
	DW	08d81H
	DW	08dceH
	DW	08dddH
	DW	08dcbH
	DW	08ddaH
	DW	08dd1H
	DW	08dccH
	DW	08ddbH
	DW	08dc6H
	DW	08efbH
	DW	08ef8H
	DW	08efcH
	DW	08f9cH
	DW	0902eH
	DW	09035H
	DW	09031H
	DW	09038H
	DW	09032H
	DW	09036H
	DW	09102H
	DW	090f5H
	DW	09109H
	DW	090feH
	DW	09163H
	DW	09165H
	DW	091cfH
	DW	09214H
	DW	09215H
	DW	09223H
	DW	09209H
	DW	0921eH
	DW	0920dH
	DW	09210H
	DW	09207H
	DW	09211H
	DW	09594H
	DW	0958fH
	DW	0958bH
	DW	09591H
	DW	0fffeH
	DW	0fffeH
	DW	0fffeH
	DW	0fffeH
	DW	0fffeH
	DW	0fffeH
	DW	0fffeH
	DW	0fffeH
	DW	0fffeH
	DW	0fffeH
	DW	0fffeH
	DW	0fffeH
	DW	0fffeH
	DW	0fffeH
	DW	0fffeH
	DW	0fffeH
	DW	0fffeH
	DW	0fffeH
	DW	0fffeH
	DW	0fffeH
	DW	0fffeH
	DW	0fffeH
	DW	0fffeH
	DW	0fffeH
	DW	0fffeH
	DW	0fffeH
	DW	0fffeH
	DW	0fffeH
	DW	0fffeH
	DW	0fffeH
	DW	0fffeH
	DW	0fffeH
	DW	0fffeH
	DW	0fffeH
	DW	09593H
	DW	09592H
	DW	0958eH
	DW	0968aH
	DW	0968eH
	DW	0968bH
	DW	0967dH
	DW	09685H
	DW	09686H
	DW	0968dH
	DW	09672H
	DW	09684H
	DW	096c1H
	DW	096c5H
	DW	096c4H
	DW	096c6H
	DW	096c7H
	DW	096efH
	DW	096f2H
	DW	097ccH
	DW	09805H
	DW	09806H
	DW	09808H
	DW	098e7H
	DW	098eaH
	DW	098efH
	DW	098e9H
	DW	098f2H
	DW	098edH
	DW	099aeH
	DW	099adH
	DW	09ec3H
	DW	09ecdH
	DW	09ed1H
	DW	04e82H
	DW	050adH
	DW	050b5H
	DW	050b2H
	DW	050b3H
	DW	050c5H
	DW	050beH
	DW	050acH
	DW	050b7H
	DW	050bbH
	DW	050afH
	DW	050c7H
	DW	0527fH
	DW	05277H
	DW	0527dH
	DW	052dfH
	DW	052e6H
	DW	052e4H
	DW	052e2H
	DW	052e3H
	DW	0532fH
	DW	055dfH
	DW	055e8H
	DW	055d3H
	DW	055e6H
	DW	055ceH
	DW	055dcH
	DW	055c7H
	DW	055d1H
	DW	055e3H
	DW	055e4H
	DW	055efH
	DW	055daH
	DW	055e1H
	DW	055c5H
	DW	055c6H
	DW	055e5H
	DW	055c9H
	DW	05712H
	DW	05713H
	DW	0585eH
	DW	05851H
	DW	05858H
	DW	05857H
	DW	0585aH
	DW	05854H
	DW	0586bH
	DW	0584cH
	DW	0586dH
	DW	0584aH
	DW	05862H
	DW	05852H
	DW	0584bH
	DW	05967H
	DW	05ac1H
	DW	05ac9H
	DW	05accH
	DW	05abeH
	DW	05abdH
	DW	05abcH
	DW	05ab3H
	DW	05ac2H
	DW	05ab2H
	DW	05d69H
	DW	05d6fH
	DW	05e4cH
	DW	05e79H
	DW	05ec9H
	DW	05ec8H
	DW	05f12H
	DW	05f59H
	DW	05facH
	DW	05faeH
	DW	0611aH
	DW	0610fH
	DW	06148H
	DW	0611fH
	DW	060f3H
	DW	0611bH
	DW	060f9H
	DW	06101H
	DW	06108H
	DW	0614eH
	DW	0614cH
	DW	06144H
	DW	0614dH
	DW	0613eH
	DW	06134H
	DW	06127H
	DW	0610dH
	DW	06106H
	DW	06137H
	DW	06221H
	DW	06222H
	DW	06413H
	DW	0643eH
	DW	0641eH
	DW	0642aH
	DW	0642dH
	DW	0643dH
	DW	0642cH
	DW	0640fH
	DW	0641cH
	DW	06414H
	DW	0640dH
	DW	06436H
	DW	06416H
	DW	06417H
	DW	06406H
	DW	0656cH
	DW	0659fH
	DW	065b0H
	DW	06697H
	DW	06689H
	DW	06687H
	DW	06688H
	DW	06696H
	DW	06684H
	DW	06698H
	DW	0668dH
	DW	06703H
	DW	06994H
	DW	0696dH
	DW	0fffeH
	DW	0fffeH
	DW	0fffeH
	DW	0fffeH
	DW	0fffeH
	DW	0fffeH
	DW	0fffeH
	DW	0fffeH
	DW	0fffeH
	DW	0fffeH
	DW	0fffeH
	DW	0fffeH
	DW	0fffeH
	DW	0fffeH
	DW	0fffeH
	DW	0fffeH
	DW	0fffeH
	DW	0fffeH
	DW	0fffeH
	DW	0fffeH
	DW	0fffeH
	DW	0fffeH
	DW	0fffeH
	DW	0fffeH
	DW	0fffeH
	DW	0fffeH
	DW	0fffeH
	DW	0fffeH
	DW	0fffeH
	DW	0fffeH
	DW	0fffeH
	DW	0fffeH
	DW	0fffeH
	DW	0fffeH
	DW	0695aH
	DW	06977H
	DW	06960H
	DW	06954H
	DW	06975H
	DW	06930H
	DW	06982H
	DW	0694aH
	DW	06968H
	DW	0696bH
	DW	0695eH
	DW	06953H
	DW	06979H
	DW	06986H
	DW	0695dH
	DW	06963H
	DW	0695bH
	DW	06b47H
	DW	06b72H
	DW	06bc0H
	DW	06bbfH
	DW	06bd3H
	DW	06bfdH
	DW	06ea2H
	DW	06eafH
	DW	06ed3H
	DW	06eb6H
	DW	06ec2H
	DW	06e90H
	DW	06e9dH
	DW	06ec7H
	DW	06ec5H
	DW	06ea5H
	DW	06e98H
	DW	06ebcH
	DW	06ebaH
	DW	06eabH
	DW	06ed1H
	DW	06e96H
	DW	06e9cH
	DW	06ec4H
	DW	06ed4H
	DW	06eaaH
	DW	06ea7H
	DW	06eb4H
	DW	0714eH
	DW	07159H
	DW	07169H
	DW	07164H
	DW	07149H
	DW	07167H
	DW	0715cH
	DW	0716cH
	DW	07166H
	DW	0714cH
	DW	07165H
	DW	0715eH
	DW	07146H
	DW	07168H
	DW	07156H
	DW	0723aH
	DW	07252H
	DW	07337H
	DW	07345H
	DW	0733fH
	DW	0733eH
	DW	0746fH
	DW	0745aH
	DW	07455H
	DW	0745fH
	DW	0745eH
	DW	07441H
	DW	0743fH
	DW	07459H
	DW	0745bH
	DW	0745cH
	DW	07576H
	DW	07578H
	DW	07600H
	DW	075f0H
	DW	07601H
	DW	075f2H
	DW	075f1H
	DW	075faH
	DW	075ffH
	DW	075f4H
	DW	075f3H
	DW	076deH
	DW	076dfH
	DW	0775bH
	DW	0776bH
	DW	07766H
	DW	0775eH
	DW	07763H
	DW	07779H
	DW	0776aH
	DW	0776cH
	DW	0775cH
	DW	07765H
	DW	07768H
	DW	07762H
	DW	077eeH
	DW	0788eH
	DW	078b0H
	DW	07897H
	DW	07898H
	DW	0788cH
	DW	07889H
	DW	0787cH
	DW	07891H
	DW	07893H
	DW	0787fH
	DW	0797aH
	DW	0797fH
	DW	07981H
	DW	0842cH
	DW	079bdH
	DW	07a1cH
	DW	07a1aH
	DW	07a20H
	DW	07a14H
	DW	07a1fH
	DW	07a1eH
	DW	07a9fH
	DW	07aa0H
	DW	07b77H
	DW	07bc0H
	DW	07b60H
	DW	07b6eH
	DW	07b67H
	DW	07cb1H
	DW	07cb3H
	DW	07cb5H
	DW	07d93H
	DW	07d79H
	DW	07d91H
	DW	07d81H
	DW	07d8fH
	DW	07d5bH
	DW	07f6eH
	DW	07f69H
	DW	07f6aH
	DW	07f72H
	DW	07fa9H
	DW	07fa8H
	DW	07fa4H
	DW	08056H
	DW	08058H
	DW	08086H
	DW	08084H
	DW	08171H
	DW	08170H
	DW	08178H
	DW	08165H
	DW	0816eH
	DW	08173H
	DW	0816bH
	DW	0fffeH
	DW	0fffeH
	DW	0fffeH
	DW	0fffeH
	DW	0fffeH
	DW	0fffeH
	DW	0fffeH
	DW	0fffeH
	DW	0fffeH
	DW	0fffeH
	DW	0fffeH
	DW	0fffeH
	DW	0fffeH
	DW	0fffeH
	DW	0fffeH
	DW	0fffeH
	DW	0fffeH
	DW	0fffeH
	DW	0fffeH
	DW	0fffeH
	DW	0fffeH
	DW	0fffeH
	DW	0fffeH
	DW	0fffeH
	DW	0fffeH
	DW	0fffeH
	DW	0fffeH
	DW	0fffeH
	DW	0fffeH
	DW	0fffeH
	DW	0fffeH
	DW	0fffeH
	DW	0fffeH
	DW	0fffeH
	DW	08179H
	DW	0817aH
	DW	08166H
	DW	08205H
	DW	08247H
	DW	08482H
	DW	08477H
	DW	0843dH
	DW	08431H
	DW	08475H
	DW	08466H
	DW	0846bH
	DW	08449H
	DW	0846cH
	DW	0845bH
	DW	0843cH
	DW	08435H
	DW	08461H
	DW	08463H
	DW	08469H
	DW	0846dH
	DW	08446H
	DW	0865eH
	DW	0865cH
	DW	0865fH
	DW	086f9H
	DW	08713H
	DW	08708H
	DW	08707H
	DW	08700H
	DW	086feH
	DW	086fbH
	DW	08702H
	DW	08703H
	DW	08706H
	DW	0870aH
	DW	08859H
	DW	088dfH
	DW	088d4H
	DW	088d9H
	DW	088dcH
	DW	088d8H
	DW	088ddH
	DW	088e1H
	DW	088caH
	DW	088d5H
	DW	088d2H
	DW	0899cH
	DW	089e3H
	DW	08a6bH
	DW	08a72H
	DW	08a73H
	DW	08a66H
	DW	08a69H
	DW	08a70H
	DW	08a87H
	DW	08a7cH
	DW	08a63H
	DW	08aa0H
	DW	08a71H
	DW	08a85H
	DW	08a6dH
	DW	08a62H
	DW	08a6eH
	DW	08a6cH
	DW	08a79H
	DW	08a7bH
	DW	08a3eH
	DW	08a68H
	DW	08c62H
	DW	08c8aH
	DW	08c89H
	DW	08ccaH
	DW	08cc7H
	DW	08cc8H
	DW	08cc4H
	DW	08cb2H
	DW	08cc3H
	DW	08cc2H
	DW	08cc5H
	DW	08de1H
	DW	08ddfH
	DW	08de8H
	DW	08defH
	DW	08df3H
	DW	08dfaH
	DW	08deaH
	DW	08de4H
	DW	08de6H
	DW	08eb2H
	DW	08f03H
	DW	08f09H
	DW	08efeH
	DW	08f0aH
	DW	08f9fH
	DW	08fb2H
	DW	0904bH
	DW	0904aH
	DW	09053H
	DW	09042H
	DW	09054H
	DW	0903cH
	DW	09055H
	DW	09050H
	DW	09047H
	DW	0904fH
	DW	0904eH
	DW	0904dH
	DW	09051H
	DW	0903eH
	DW	09041H
	DW	09112H
	DW	09117H
	DW	0916cH
	DW	0916aH
	DW	09169H
	DW	091c9H
	DW	09237H
	DW	09257H
	DW	09238H
	DW	0923dH
	DW	09240H
	DW	0923eH
	DW	0925bH
	DW	0924bH
	DW	09264H
	DW	09251H
	DW	09234H
	DW	09249H
	DW	0924dH
	DW	09245H
	DW	09239H
	DW	0923fH
	DW	0925aH
	DW	09598H
	DW	09698H
	DW	09694H
	DW	09695H
	DW	096cdH
	DW	096cbH
	DW	096c9H
	DW	096caH
	DW	096f7H
	DW	096fbH
	DW	096f9H
	DW	096f6H
	DW	09756H
	DW	09774H
	DW	09776H
	DW	09810H
	DW	09811H
	DW	09813H
	DW	0980aH
	DW	09812H
	DW	0980cH
	DW	098fcH
	DW	098f4H
	DW	0fffeH
	DW	0fffeH
	DW	0fffeH
	DW	0fffeH
	DW	0fffeH
	DW	0fffeH
	DW	0fffeH
	DW	0fffeH
	DW	0fffeH
	DW	0fffeH
	DW	0fffeH
	DW	0fffeH
	DW	0fffeH
	DW	0fffeH
	DW	0fffeH
	DW	0fffeH
	DW	0fffeH
	DW	0fffeH
	DW	0fffeH
	DW	0fffeH
	DW	0fffeH
	DW	0fffeH
	DW	0fffeH
	DW	0fffeH
	DW	0fffeH
	DW	0fffeH
	DW	0fffeH
	DW	0fffeH
	DW	0fffeH
	DW	0fffeH
	DW	0fffeH
	DW	0fffeH
	DW	0fffeH
	DW	0fffeH
	DW	098fdH
	DW	098feH
	DW	099b3H
	DW	099b1H
	DW	099b4H
	DW	09ae1H
	DW	09ce9H
	DW	09e82H
	DW	09f0eH
	DW	09f13H
	DW	09f20H
	DW	050e7H
	DW	050eeH
	DW	050e5H
	DW	050d6H
	DW	050edH
	DW	050daH
	DW	050d5H
	DW	050cfH
	DW	050d1H
	DW	050f1H
	DW	050ceH
	DW	050e9H
	DW	05162H
	DW	051f3H
	DW	05283H
	DW	05282H
	DW	05331H
	DW	053adH
	DW	055feH
	DW	05600H
	DW	0561bH
	DW	05617H
	DW	055fdH
	DW	05614H
	DW	05606H
	DW	05609H
	DW	0560dH
	DW	0560eH
	DW	055f7H
	DW	05616H
	DW	0561fH
	DW	05608H
	DW	05610H
	DW	055f6H
	DW	05718H
	DW	05716H
	DW	05875H
	DW	0587eH
	DW	05883H
	DW	05893H
	DW	0588aH
	DW	05879H
	DW	05885H
	DW	0587dH
	DW	058fdH
	DW	05925H
	DW	05922H
	DW	05924H
	DW	0596aH
	DW	05969H
	DW	05ae1H
	DW	05ae6H
	DW	05ae9H
	DW	05ad7H
	DW	05ad6H
	DW	05ad8H
	DW	05ae3H
	DW	05b75H
	DW	05bdeH
	DW	05be7H
	DW	05be1H
	DW	05be5H
	DW	05be6H
	DW	05be8H
	DW	05be2H
	DW	05be4H
	DW	05bdfH
	DW	05c0dH
	DW	05c62H
	DW	05d84H
	DW	05d87H
	DW	05e5bH
	DW	05e63H
	DW	05e55H
	DW	05e57H
	DW	05e54H
	DW	05ed3H
	DW	05ed6H
	DW	05f0aH
	DW	05f46H
	DW	05f70H
	DW	05fb9H
	DW	06147H
	DW	0613fH
	DW	0614bH
	DW	06177H
	DW	06162H
	DW	06163H
	DW	0615fH
	DW	0615aH
	DW	06158H
	DW	06175H
	DW	0622aH
	DW	06487H
	DW	06458H
	DW	06454H
	DW	064a4H
	DW	06478H
	DW	0645fH
	DW	0647aH
	DW	06451H
	DW	06467H
	DW	06434H
	DW	0646dH
	DW	0647bH
	DW	06572H
	DW	065a1H
	DW	065d7H
	DW	065d6H
	DW	066a2H
	DW	066a8H
	DW	0669dH
	DW	0699cH
	DW	069a8H
	DW	06995H
	DW	069c1H
	DW	069aeH
	DW	069d3H
	DW	069cbH
	DW	0699bH
	DW	069b7H
	DW	069bbH
	DW	069abH
	DW	069b4H
	DW	069d0H
	DW	069cdH
	DW	069adH
	DW	069ccH
	DW	069a6H
	DW	069c3H
	DW	069a3H
	DW	06b49H
	DW	06b4cH
	DW	06c33H
	DW	06f33H
	DW	06f14H
	DW	06efeH
	DW	06f13H
	DW	06ef4H
	DW	06f29H
	DW	06f3eH
	DW	06f20H
	DW	06f2cH
	DW	06f0fH
	DW	06f02H
	DW	06f22H
	DW	0fffeH
	DW	0fffeH
	DW	0fffeH
	DW	0fffeH
	DW	0fffeH
	DW	0fffeH
	DW	0fffeH
	DW	0fffeH
	DW	0fffeH
	DW	0fffeH
	DW	0fffeH
	DW	0fffeH
	DW	0fffeH
	DW	0fffeH
	DW	0fffeH
	DW	0fffeH
	DW	0fffeH
	DW	0fffeH
	DW	0fffeH
	DW	0fffeH
	DW	0fffeH
	DW	0fffeH
	DW	0fffeH
	DW	0fffeH
	DW	0fffeH
	DW	0fffeH
	DW	0fffeH
	DW	0fffeH
	DW	0fffeH
	DW	0fffeH
	DW	0fffeH
	DW	0fffeH
	DW	0fffeH
	DW	0fffeH
	DW	06effH
	DW	06eefH
	DW	06f06H
	DW	06f31H
	DW	06f38H
	DW	06f32H
	DW	06f23H
	DW	06f15H
	DW	06f2bH
	DW	06f2fH
	DW	06f88H
	DW	06f2aH
	DW	06eecH
	DW	06f01H
	DW	06ef2H
	DW	06eccH
	DW	06ef7H
	DW	07194H
	DW	07199H
	DW	0717dH
	DW	0718aH
	DW	07184H
	DW	07192H
	DW	0723eH
	DW	07292H
	DW	07296H
	DW	07344H
	DW	07350H
	DW	07464H
	DW	07463H
	DW	0746aH
	DW	07470H
	DW	0746dH
	DW	07504H
	DW	07591H
	DW	07627H
	DW	0760dH
	DW	0760bH
	DW	07609H
	DW	07613H
	DW	076e1H
	DW	076e3H
	DW	07784H
	DW	0777dH
	DW	0777fH
	DW	07761H
	DW	078c1H
	DW	0789fH
	DW	078a7H
	DW	078b3H
	DW	078a9H
	DW	078a3H
	DW	0798eH
	DW	0798fH
	DW	0798dH
	DW	07a2eH
	DW	07a31H
	DW	07aaaH
	DW	07aa9H
	DW	07aedH
	DW	07aefH
	DW	07ba1H
	DW	07b95H
	DW	07b8bH
	DW	07b75H
	DW	07b97H
	DW	07b9dH
	DW	07b94H
	DW	07b8fH
	DW	07bb8H
	DW	07b87H
	DW	07b84H
	DW	07cb9H
	DW	07cbdH
	DW	07cbeH
	DW	07dbbH
	DW	07db0H
	DW	07d9cH
	DW	07dbdH
	DW	07dbeH
	DW	07da0H
	DW	07dcaH
	DW	07db4H
	DW	07db2H
	DW	07db1H
	DW	07dbaH
	DW	07da2H
	DW	07dbfH
	DW	07db5H
	DW	07db8H
	DW	07dadH
	DW	07dd2H
	DW	07dc7H
	DW	07dacH
	DW	07f70H
	DW	07fe0H
	DW	07fe1H
	DW	07fdfH
	DW	0805eH
	DW	0805aH
	DW	08087H
	DW	08150H
	DW	08180H
	DW	0818fH
	DW	08188H
	DW	0818aH
	DW	0817fH
	DW	08182H
	DW	081e7H
	DW	081faH
	DW	08207H
	DW	08214H
	DW	0821eH
	DW	0824bH
	DW	084c9H
	DW	084bfH
	DW	084c6H
	DW	084c4H
	DW	08499H
	DW	0849eH
	DW	084b2H
	DW	0849cH
	DW	084cbH
	DW	084b8H
	DW	084c0H
	DW	084d3H
	DW	08490H
	DW	084bcH
	DW	084d1H
	DW	084caH
	DW	0873fH
	DW	0871cH
	DW	0873bH
	DW	08722H
	DW	08725H
	DW	08734H
	DW	08718H
	DW	08755H
	DW	08737H
	DW	08729H
	DW	088f3H
	DW	08902H
	DW	088f4H
	DW	088f9H
	DW	088f8H
	DW	088fdH
	DW	088e8H
	DW	0891aH
	DW	088efH
	DW	08aa6H
	DW	08a8cH
	DW	08a9eH
	DW	08aa3H
	DW	08a8dH
	DW	08aa1H
	DW	08a93H
	DW	08aa4H
	DW	0fffeH
	DW	0fffeH
	DW	0fffeH
	DW	0fffeH
	DW	0fffeH
	DW	0fffeH
	DW	0fffeH
	DW	0fffeH
	DW	0fffeH
	DW	0fffeH
	DW	0fffeH
	DW	0fffeH
	DW	0fffeH
	DW	0fffeH
	DW	0fffeH
	DW	0fffeH
	DW	0fffeH
	DW	0fffeH
	DW	0fffeH
	DW	0fffeH
	DW	0fffeH
	DW	0fffeH
	DW	0fffeH
	DW	0fffeH
	DW	0fffeH
	DW	0fffeH
	DW	0fffeH
	DW	0fffeH
	DW	0fffeH
	DW	0fffeH
	DW	0fffeH
	DW	0fffeH
	DW	0fffeH
	DW	0fffeH
	DW	08aaaH
	DW	08aa5H
	DW	08aa8H
	DW	08a98H
	DW	08a91H
	DW	08a9aH
	DW	08aa7H
	DW	08c6aH
	DW	08c8dH
	DW	08c8cH
	DW	08cd3H
	DW	08cd1H
	DW	08cd2H
	DW	08d6bH
	DW	08d99H
	DW	08d95H
	DW	08dfcH
	DW	08f14H
	DW	08f12H
	DW	08f15H
	DW	08f13H
	DW	08fa3H
	DW	09060H
	DW	09058H
	DW	0905cH
	DW	09063H
	DW	09059H
	DW	0905eH
	DW	09062H
	DW	0905dH
	DW	0905bH
	DW	09119H
	DW	09118H
	DW	0911eH
	DW	09175H
	DW	09178H
	DW	09177H
	DW	09174H
	DW	09278H
	DW	09280H
	DW	09285H
	DW	09298H
	DW	09296H
	DW	0927bH
	DW	09293H
	DW	0929cH
	DW	092a8H
	DW	0927cH
	DW	09291H
	DW	095a1H
	DW	095a8H
	DW	095a9H
	DW	095a3H
	DW	095a5H
	DW	095a4H
	DW	09699H
	DW	0969cH
	DW	0969bH
	DW	096ccH
	DW	096d2H
	DW	09700H
	DW	0977cH
	DW	09785H
	DW	097f6H
	DW	09817H
	DW	09818H
	DW	098afH
	DW	098b1H
	DW	09903H
	DW	09905H
	DW	0990cH
	DW	09909H
	DW	099c1H
	DW	09aafH
	DW	09ab0H
	DW	09ae6H
	DW	09b41H
	DW	09b42H
	DW	09cf4H
	DW	09cf6H
	DW	09cf3H
	DW	09ebcH
	DW	09f3bH
	DW	09f4aH
	DW	05104H
	DW	05100H
	DW	050fbH
	DW	050f5H
	DW	050f9H
	DW	05102H
	DW	05108H
	DW	05109H
	DW	05105H
	DW	051dcH
	DW	05287H
	DW	05288H
	DW	05289H
	DW	0528dH
	DW	0528aH
	DW	052f0H
	DW	053b2H
	DW	0562eH
	DW	0563bH
	DW	05639H
	DW	05632H
	DW	0563fH
	DW	05634H
	DW	05629H
	DW	05653H
	DW	0564eH
	DW	05657H
	DW	05674H
	DW	05636H
	DW	0562fH
	DW	05630H
	DW	05880H
	DW	0589fH
	DW	0589eH
	DW	058b3H
	DW	0589cH
	DW	058aeH
	DW	058a9H
	DW	058a6H
	DW	0596dH
	DW	05b09H
	DW	05afbH
	DW	05b0bH
	DW	05af5H
	DW	05b0cH
	DW	05b08H
	DW	05beeH
	DW	05becH
	DW	05be9H
	DW	05bebH
	DW	05c64H
	DW	05c65H
	DW	05d9dH
	DW	05d94H
	DW	05e62H
	DW	05e5fH
	DW	05e61H
	DW	05ee2H
	DW	05edaH
	DW	05edfH
	DW	05eddH
	DW	05ee3H
	DW	05ee0H
	DW	05f48H
	DW	05f71H
	DW	05fb7H
	DW	05fb5H
	DW	06176H
	DW	06167H
	DW	0616eH
	DW	0615dH
	DW	06155H
	DW	06182H
	DW	0fffeH
	DW	0fffeH
	DW	0fffeH
	DW	0fffeH
	DW	0fffeH
	DW	0fffeH
	DW	0fffeH
	DW	0fffeH
	DW	0fffeH
	DW	0fffeH
	DW	0fffeH
	DW	0fffeH
	DW	0fffeH
	DW	0fffeH
	DW	0fffeH
	DW	0fffeH
	DW	0fffeH
	DW	0fffeH
	DW	0fffeH
	DW	0fffeH
	DW	0fffeH
	DW	0fffeH
	DW	0fffeH
	DW	0fffeH
	DW	0fffeH
	DW	0fffeH
	DW	0fffeH
	DW	0fffeH
	DW	0fffeH
	DW	0fffeH
	DW	0fffeH
	DW	0fffeH
	DW	0fffeH
	DW	0fffeH
	DW	0617cH
	DW	06170H
	DW	0616bH
	DW	0617eH
	DW	061a7H
	DW	06190H
	DW	061abH
	DW	0618eH
	DW	061acH
	DW	0619aH
	DW	061a4H
	DW	06194H
	DW	061aeH
	DW	0622eH
	DW	06469H
	DW	0646fH
	DW	06479H
	DW	0649eH
	DW	064b2H
	DW	06488H
	DW	06490H
	DW	064b0H
	DW	064a5H
	DW	06493H
	DW	06495H
	DW	064a9H
	DW	06492H
	DW	064aeH
	DW	064adH
	DW	064abH
	DW	0649aH
	DW	064acH
	DW	06499H
	DW	064a2H
	DW	064b3H
	DW	06575H
	DW	06577H
	DW	06578H
	DW	066aeH
	DW	066abH
	DW	066b4H
	DW	066b1H
	DW	06a23H
	DW	06a1fH
	DW	069e8H
	DW	06a01H
	DW	06a1eH
	DW	06a19H
	DW	069fdH
	DW	06a21H
	DW	06a13H
	DW	06a0aH
	DW	069f3H
	DW	06a02H
	DW	06a05H
	DW	069edH
	DW	06a11H
	DW	06b50H
	DW	06b4eH
	DW	06ba4H
	DW	06bc5H
	DW	06bc6H
	DW	06f3fH
	DW	06f7cH
	DW	06f84H
	DW	06f51H
	DW	06f66H
	DW	06f54H
	DW	06f86H
	DW	06f6dH
	DW	06f5bH
	DW	06f78H
	DW	06f6eH
	DW	06f8eH
	DW	06f7aH
	DW	06f70H
	DW	06f64H
	DW	06f97H
	DW	06f58H
	DW	06ed5H
	DW	06f6fH
	DW	06f60H
	DW	06f5fH
	DW	0719fH
	DW	071acH
	DW	071b1H
	DW	071a8H
	DW	07256H
	DW	0729bH
	DW	0734eH
	DW	07357H
	DW	07469H
	DW	0748bH
	DW	07483H
	DW	0747eH
	DW	07480H
	DW	0757fH
	DW	07620H
	DW	07629H
	DW	0761fH
	DW	07624H
	DW	07626H
	DW	07621H
	DW	07622H
	DW	0769aH
	DW	076baH
	DW	076e4H
	DW	0778eH
	DW	07787H
	DW	0778cH
	DW	07791H
	DW	0778bH
	DW	078cbH
	DW	078c5H
	DW	078baH
	DW	078caH
	DW	078beH
	DW	078d5H
	DW	078bcH
	DW	078d0H
	DW	07a3fH
	DW	07a3cH
	DW	07a40H
	DW	07a3dH
	DW	07a37H
	DW	07a3bH
	DW	07aafH
	DW	07aaeH
	DW	07badH
	DW	07bb1H
	DW	07bc4H
	DW	07bb4H
	DW	07bc6H
	DW	07bc7H
	DW	07bc1H
	DW	07ba0H
	DW	07bccH
	DW	07ccaH
	DW	07de0H
	DW	07df4H
	DW	07defH
	DW	07dfbH
	DW	07dd8H
	DW	07decH
	DW	07dddH
	DW	07de8H
	DW	07de3H
	DW	07ddaH
	DW	07ddeH
	DW	07de9H
	DW	07d9eH
	DW	07dd9H
	DW	07df2H
	DW	07df9H
	DW	07f75H
	DW	07f77H
	DW	07fafH
	DW	0fffeH
	DW	0fffeH
	DW	0fffeH
	DW	0fffeH
	DW	0fffeH
	DW	0fffeH
	DW	0fffeH
	DW	0fffeH
	DW	0fffeH
	DW	0fffeH
	DW	0fffeH
	DW	0fffeH
	DW	0fffeH
	DW	0fffeH
	DW	0fffeH
	DW	0fffeH
	DW	0fffeH
	DW	0fffeH
	DW	0fffeH
	DW	0fffeH
	DW	0fffeH
	DW	0fffeH
	DW	0fffeH
	DW	0fffeH
	DW	0fffeH
	DW	0fffeH
	DW	0fffeH
	DW	0fffeH
	DW	0fffeH
	DW	0fffeH
	DW	0fffeH
	DW	0fffeH
	DW	0fffeH
	DW	0fffeH
	DW	07fe9H
	DW	08026H
	DW	0819bH
	DW	0819cH
	DW	0819dH
	DW	081a0H
	DW	0819aH
	DW	08198H
	DW	08517H
	DW	0853dH
	DW	0851aH
	DW	084eeH
	DW	0852cH
	DW	0852dH
	DW	08513H
	DW	08511H
	DW	08523H
	DW	08521H
	DW	08514H
	DW	084ecH
	DW	08525H
	DW	084ffH
	DW	08506H
	DW	08782H
	DW	08774H
	DW	08776H
	DW	08760H
	DW	08766H
	DW	08778H
	DW	08768H
	DW	08759H
	DW	08757H
	DW	0874cH
	DW	08753H
	DW	0885bH
	DW	0885dH
	DW	08910H
	DW	08907H
	DW	08912H
	DW	08913H
	DW	08915H
	DW	0890aH
	DW	08abcH
	DW	08ad2H
	DW	08ac7H
	DW	08ac4H
	DW	08a95H
	DW	08acbH
	DW	08af8H
	DW	08ab2H
	DW	08ac9H
	DW	08ac2H
	DW	08abfH
	DW	08ab0H
	DW	08ad6H
	DW	08acdH
	DW	08ab6H
	DW	08ab9H
	DW	08adbH
	DW	08c4cH
	DW	08c4eH
	DW	08c6cH
	DW	08ce0H
	DW	08cdeH
	DW	08ce6H
	DW	08ce4H
	DW	08cecH
	DW	08cedH
	DW	08ce2H
	DW	08ce3H
	DW	08cdcH
	DW	08ceaH
	DW	08ce1H
	DW	08d6dH
	DW	08d9fH
	DW	08da3H
	DW	08e2bH
	DW	08e10H
	DW	08e1dH
	DW	08e22H
	DW	08e0fH
	DW	08e29H
	DW	08e1fH
	DW	08e21H
	DW	08e1eH
	DW	08ebaH
	DW	08f1dH
	DW	08f1bH
	DW	08f1fH
	DW	08f29H
	DW	08f26H
	DW	08f2aH
	DW	08f1cH
	DW	08f1eH
	DW	08f25H
	DW	09069H
	DW	0906eH
	DW	09068H
	DW	0906dH
	DW	09077H
	DW	09130H
	DW	0912dH
	DW	09127H
	DW	09131H
	DW	09187H
	DW	09189H
	DW	0918bH
	DW	09183H
	DW	092c5H
	DW	092bbH
	DW	092b7H
	DW	092eaH
	DW	092acH
	DW	092e4H
	DW	092c1H
	DW	092b3H
	DW	092bcH
	DW	092d2H
	DW	092c7H
	DW	092f0H
	DW	092b2H
	DW	095adH
	DW	095b1H
	DW	09704H
	DW	09706H
	DW	09707H
	DW	09709H
	DW	09760H
	DW	0978dH
	DW	0978bH
	DW	0978fH
	DW	09821H
	DW	0982bH
	DW	0981cH
	DW	098b3H
	DW	0990aH
	DW	09913H
	DW	09912H
	DW	09918H
	DW	099ddH
	DW	099d0H
	DW	099dfH
	DW	099dbH
	DW	099d1H
	DW	099d5H
	DW	099d2H
	DW	099d9H
	DW	09ab7H
	DW	09aeeH
	DW	09aefH
	DW	09b27H
	DW	09b45H
	DW	09b44H
	DW	09b77H
	DW	09b6fH
	DW	09d06H
	DW	09d09H
	DW	0fffeH
	DW	0fffeH
	DW	0fffeH
	DW	0fffeH
	DW	0fffeH
	DW	0fffeH
	DW	0fffeH
	DW	0fffeH
	DW	0fffeH
	DW	0fffeH
	DW	0fffeH
	DW	0fffeH
	DW	0fffeH
	DW	0fffeH
	DW	0fffeH
	DW	0fffeH
	DW	0fffeH
	DW	0fffeH
	DW	0fffeH
	DW	0fffeH
	DW	0fffeH
	DW	0fffeH
	DW	0fffeH
	DW	0fffeH
	DW	0fffeH
	DW	0fffeH
	DW	0fffeH
	DW	0fffeH
	DW	0fffeH
	DW	0fffeH
	DW	0fffeH
	DW	0fffeH
	DW	0fffeH
	DW	0fffeH
	DW	09d03H
	DW	09ea9H
	DW	09ebeH
	DW	09eceH
	DW	058a8H
	DW	09f52H
	DW	05112H
	DW	05118H
	DW	05114H
	DW	05110H
	DW	05115H
	DW	05180H
	DW	051aaH
	DW	051ddH
	DW	05291H
	DW	05293H
	DW	052f3H
	DW	05659H
	DW	0566bH
	DW	05679H
	DW	05669H
	DW	05664H
	DW	05678H
	DW	0566aH
	DW	05668H
	DW	05665H
	DW	05671H
	DW	0566fH
	DW	0566cH
	DW	05662H
	DW	05676H
	DW	058c1H
	DW	058beH
	DW	058c7H
	DW	058c5H
	DW	0596eH
	DW	05b1dH
	DW	05b34H
	DW	05b78H
	DW	05bf0H
	DW	05c0eH
	DW	05f4aH
	DW	061b2H
	DW	06191H
	DW	061a9H
	DW	0618aH
	DW	061cdH
	DW	061b6H
	DW	061beH
	DW	061caH
	DW	061c8H
	DW	06230H
	DW	064c5H
	DW	064c1H
	DW	064cbH
	DW	064bbH
	DW	064bcH
	DW	064daH
	DW	064c4H
	DW	064c7H
	DW	064c2H
	DW	064cdH
	DW	064bfH
	DW	064d2H
	DW	064d4H
	DW	064beH
	DW	06574H
	DW	066c6H
	DW	066c9H
	DW	066b9H
	DW	066c4H
	DW	066c7H
	DW	066b8H
	DW	06a3dH
	DW	06a38H
	DW	06a3aH
	DW	06a59H
	DW	06a6bH
	DW	06a58H
	DW	06a39H
	DW	06a44H
	DW	06a62H
	DW	06a61H
	DW	06a4bH
	DW	06a47H
	DW	06a35H
	DW	06a5fH
	DW	06a48H
	DW	06b59H
	DW	06b77H
	DW	06c05H
	DW	06fc2H
	DW	06fb1H
	DW	06fa1H
	DW	06fc3H
	DW	06fa4H
	DW	06fc1H
	DW	06fa7H
	DW	06fb3H
	DW	06fc0H
	DW	06fb9H
	DW	06fb6H
	DW	06fa6H
	DW	06fa0H
	DW	06fb4H
	DW	071beH
	DW	071c9H
	DW	071d0H
	DW	071d2H
	DW	071c8H
	DW	071d5H
	DW	071b9H
	DW	071ceH
	DW	071d9H
	DW	071dcH
	DW	071c3H
	DW	071c4H
	DW	07368H
	DW	0749cH
	DW	074a3H
	DW	07498H
	DW	0749fH
	DW	0749eH
	DW	074e2H
	DW	0750cH
	DW	0750dH
	DW	07634H
	DW	07638H
	DW	0763aH
	DW	076e7H
	DW	076e5H
	DW	077a0H
	DW	0779eH
	DW	0779fH
	DW	077a5H
	DW	078e8H
	DW	078daH
	DW	078ecH
	DW	078e7H
	DW	079a6H
	DW	07a4dH
	DW	07a4eH
	DW	07a46H
	DW	07a4cH
	DW	07a4bH
	DW	07abaH
	DW	07bd9H
	DW	07c11H
	DW	07bc9H
	DW	07be4H
	DW	07bdbH
	DW	07be1H
	DW	07be9H
	DW	07be6H
	DW	07cd5H
	DW	07cd6H
	DW	07e0aH
	DW	0fffeH
	DW	0fffeH
	DW	0fffeH
	DW	0fffeH
	DW	0fffeH
	DW	0fffeH
	DW	0fffeH
	DW	0fffeH
	DW	0fffeH
	DW	0fffeH
	DW	0fffeH
	DW	0fffeH
	DW	0fffeH
	DW	0fffeH
	DW	0fffeH
	DW	0fffeH
	DW	0fffeH
	DW	0fffeH
	DW	0fffeH
	DW	0fffeH
	DW	0fffeH
	DW	0fffeH
	DW	0fffeH
	DW	0fffeH
	DW	0fffeH
	DW	0fffeH
	DW	0fffeH
	DW	0fffeH
	DW	0fffeH
	DW	0fffeH
	DW	0fffeH
	DW	0fffeH
	DW	0fffeH
	DW	0fffeH
	DW	07e11H
	DW	07e08H
	DW	07e1bH
	DW	07e23H
	DW	07e1eH
	DW	07e1dH
	DW	07e09H
	DW	07e10H
	DW	07f79H
	DW	07fb2H
	DW	07ff0H
	DW	07ff1H
	DW	07feeH
	DW	08028H
	DW	081b3H
	DW	081a9H
	DW	081a8H
	DW	081fbH
	DW	08208H
	DW	08258H
	DW	08259H
	DW	0854aH
	DW	08559H
	DW	08548H
	DW	08568H
	DW	08569H
	DW	08543H
	DW	08549H
	DW	0856dH
	DW	0856aH
	DW	0855eH
	DW	08783H
	DW	0879fH
	DW	0879eH
	DW	087a2H
	DW	0878dH
	DW	08861H
	DW	0892aH
	DW	08932H
	DW	08925H
	DW	0892bH
	DW	08921H
	DW	089aaH
	DW	089a6H
	DW	08ae6H
	DW	08afaH
	DW	08aebH
	DW	08af1H
	DW	08b00H
	DW	08adcH
	DW	08ae7H
	DW	08aeeH
	DW	08afeH
	DW	08b01H
	DW	08b02H
	DW	08af7H
	DW	08aedH
	DW	08af3H
	DW	08af6H
	DW	08afcH
	DW	08c6bH
	DW	08c6dH
	DW	08c93H
	DW	08cf4H
	DW	08e44H
	DW	08e31H
	DW	08e34H
	DW	08e42H
	DW	08e39H
	DW	08e35H
	DW	08f3bH
	DW	08f2fH
	DW	08f38H
	DW	08f33H
	DW	08fa8H
	DW	08fa6H
	DW	09075H
	DW	09074H
	DW	09078H
	DW	09072H
	DW	0907cH
	DW	0907aH
	DW	09134H
	DW	09192H
	DW	09320H
	DW	09336H
	DW	092f8H
	DW	09333H
	DW	0932fH
	DW	09322H
	DW	092fcH
	DW	0932bH
	DW	09304H
	DW	0931aH
	DW	09310H
	DW	09326H
	DW	09321H
	DW	09315H
	DW	0932eH
	DW	09319H
	DW	095bbH
	DW	096a7H
	DW	096a8H
	DW	096aaH
	DW	096d5H
	DW	0970eH
	DW	09711H
	DW	09716H
	DW	0970dH
	DW	09713H
	DW	0970fH
	DW	0975bH
	DW	0975cH
	DW	09766H
	DW	09798H
	DW	09830H
	DW	09838H
	DW	0983bH
	DW	09837H
	DW	0982dH
	DW	09839H
	DW	09824H
	DW	09910H
	DW	09928H
	DW	0991eH
	DW	0991bH
	DW	09921H
	DW	0991aH
	DW	099edH
	DW	099e2H
	DW	099f1H
	DW	09ab8H
	DW	09abcH
	DW	09afbH
	DW	09aedH
	DW	09b28H
	DW	09b91H
	DW	09d15H
	DW	09d23H
	DW	09d26H
	DW	09d28H
	DW	09d12H
	DW	09d1bH
	DW	09ed8H
	DW	09ed4H
	DW	09f8dH
	DW	09f9cH
	DW	0512aH
	DW	0511fH
	DW	05121H
	DW	05132H
	DW	052f5H
	DW	0568eH
	DW	05680H
	DW	05690H
	DW	05685H
	DW	05687H
	DW	0fffeH
	DW	0fffeH
	DW	0fffeH
	DW	0fffeH
	DW	0fffeH
	DW	0fffeH
	DW	0fffeH
	DW	0fffeH
	DW	0fffeH
	DW	0fffeH
	DW	0fffeH
	DW	0fffeH
	DW	0fffeH
	DW	0fffeH
	DW	0fffeH
	DW	0fffeH
	DW	0fffeH
	DW	0fffeH
	DW	0fffeH
	DW	0fffeH
	DW	0fffeH
	DW	0fffeH
	DW	0fffeH
	DW	0fffeH
	DW	0fffeH
	DW	0fffeH
	DW	0fffeH
	DW	0fffeH
	DW	0fffeH
	DW	0fffeH
	DW	0fffeH
	DW	0fffeH
	DW	0fffeH
	DW	0fffeH
	DW	0568fH
	DW	058d5H
	DW	058d3H
	DW	058d1H
	DW	058ceH
	DW	05b30H
	DW	05b2aH
	DW	05b24H
	DW	05b7aH
	DW	05c37H
	DW	05c68H
	DW	05dbcH
	DW	05dbaH
	DW	05dbdH
	DW	05db8H
	DW	05e6bH
	DW	05f4cH
	DW	05fbdH
	DW	061c9H
	DW	061c2H
	DW	061c7H
	DW	061e6H
	DW	061cbH
	DW	06232H
	DW	06234H
	DW	064ceH
	DW	064caH
	DW	064d8H
	DW	064e0H
	DW	064f0H
	DW	064e6H
	DW	064ecH
	DW	064f1H
	DW	064e2H
	DW	064edH
	DW	06582H
	DW	06583H
	DW	066d9H
	DW	066d6H
	DW	06a80H
	DW	06a94H
	DW	06a84H
	DW	06aa2H
	DW	06a9cH
	DW	06adbH
	DW	06aa3H
	DW	06a7eH
	DW	06a97H
	DW	06a90H
	DW	06aa0H
	DW	06b5cH
	DW	06baeH
	DW	06bdaH
	DW	06c08H
	DW	06fd8H
	DW	06ff1H
	DW	06fdfH
	DW	06fe0H
	DW	06fdbH
	DW	06fe4H
	DW	06febH
	DW	06fefH
	DW	06f80H
	DW	06fecH
	DW	06fe1H
	DW	06fe9H
	DW	06fd5H
	DW	06feeH
	DW	06ff0H
	DW	071e7H
	DW	071dfH
	DW	071eeH
	DW	071e6H
	DW	071e5H
	DW	071edH
	DW	071ecH
	DW	071f4H
	DW	071e0H
	DW	07235H
	DW	07246H
	DW	07370H
	DW	07372H
	DW	074a9H
	DW	074b0H
	DW	074a6H
	DW	074a8H
	DW	07646H
	DW	07642H
	DW	0764cH
	DW	076eaH
	DW	077b3H
	DW	077aaH
	DW	077b0H
	DW	077acH
	DW	077a7H
	DW	077adH
	DW	077efH
	DW	078f7H
	DW	078faH
	DW	078f4H
	DW	078efH
	DW	07901H
	DW	079a7H
	DW	079aaH
	DW	07a57H
	DW	07abfH
	DW	07c07H
	DW	07c0dH
	DW	07bfeH
	DW	07bf7H
	DW	07c0cH
	DW	07be0H
	DW	07ce0H
	DW	07cdcH
	DW	07cdeH
	DW	07ce2H
	DW	07cdfH
	DW	07cd9H
	DW	07cddH
	DW	07e2eH
	DW	07e3eH
	DW	07e46H
	DW	07e37H
	DW	07e32H
	DW	07e43H
	DW	07e2bH
	DW	07e3dH
	DW	07e31H
	DW	07e45H
	DW	07e41H
	DW	07e34H
	DW	07e39H
	DW	07e48H
	DW	07e35H
	DW	07e3fH
	DW	07e2fH
	DW	07f44H
	DW	07ff3H
	DW	07ffcH
	DW	08071H
	DW	08072H
	DW	08070H
	DW	0806fH
	DW	08073H
	DW	081c6H
	DW	081c3H
	DW	081baH
	DW	081c2H
	DW	081c0H
	DW	081bfH
	DW	081bdH
	DW	081c9H
	DW	081beH
	DW	081e8H
	DW	08209H
	DW	08271H
	DW	085aaH
	DW	0fffeH
	DW	0fffeH
	DW	0fffeH
	DW	0fffeH
	DW	0fffeH
	DW	0fffeH
	DW	0fffeH
	DW	0fffeH
	DW	0fffeH
	DW	0fffeH
	DW	0fffeH
	DW	0fffeH
	DW	0fffeH
	DW	0fffeH
	DW	0fffeH
	DW	0fffeH
	DW	0fffeH
	DW	0fffeH
	DW	0fffeH
	DW	0fffeH
	DW	0fffeH
	DW	0fffeH
	DW	0fffeH
	DW	0fffeH
	DW	0fffeH
	DW	0fffeH
	DW	0fffeH
	DW	0fffeH
	DW	0fffeH
	DW	0fffeH
	DW	0fffeH
	DW	0fffeH
	DW	0fffeH
	DW	0fffeH
	DW	08584H
	DW	0857eH
	DW	0859cH
	DW	08591H
	DW	08594H
	DW	085afH
	DW	0859bH
	DW	08587H
	DW	085a8H
	DW	0858aH
	DW	08667H
	DW	087c0H
	DW	087d1H
	DW	087b3H
	DW	087d2H
	DW	087c6H
	DW	087abH
	DW	087bbH
	DW	087baH
	DW	087c8H
	DW	087cbH
	DW	0893bH
	DW	08936H
	DW	08944H
	DW	08938H
	DW	0893dH
	DW	089acH
	DW	08b0eH
	DW	08b17H
	DW	08b19H
	DW	08b1bH
	DW	08b0aH
	DW	08b20H
	DW	08b1dH
	DW	08b04H
	DW	08b10H
	DW	08c41H
	DW	08c3fH
	DW	08c73H
	DW	08cfaH
	DW	08cfdH
	DW	08cfcH
	DW	08cf8H
	DW	08cfbH
	DW	08da8H
	DW	08e49H
	DW	08e4bH
	DW	08e48H
	DW	08e4aH
	DW	08f44H
	DW	08f3eH
	DW	08f42H
	DW	08f45H
	DW	08f3fH
	DW	0907fH
	DW	0907dH
	DW	09084H
	DW	09081H
	DW	09082H
	DW	09080H
	DW	09139H
	DW	091a3H
	DW	0919eH
	DW	0919cH
	DW	0934dH
	DW	09382H
	DW	09328H
	DW	09375H
	DW	0934aH
	DW	09365H
	DW	0934bH
	DW	09318H
	DW	0937eH
	DW	0936cH
	DW	0935bH
	DW	09370H
	DW	0935aH
	DW	09354H
	DW	095caH
	DW	095cbH
	DW	095ccH
	DW	095c8H
	DW	095c6H
	DW	096b1H
	DW	096b8H
	DW	096d6H
	DW	0971cH
	DW	0971eH
	DW	097a0H
	DW	097d3H
	DW	09846H
	DW	098b6H
	DW	09935H
	DW	09a01H
	DW	099ffH
	DW	09baeH
	DW	09babH
	DW	09baaH
	DW	09badH
	DW	09d3bH
	DW	09d3fH
	DW	09e8bH
	DW	09ecfH
	DW	09edeH
	DW	09edcH
	DW	09eddH
	DW	09edbH
	DW	09f3eH
	DW	09f4bH
	DW	053e2H
	DW	05695H
	DW	056aeH
	DW	058d9H
	DW	058d8H
	DW	05b38H
	DW	05f5dH
	DW	061e3H
	DW	06233H
	DW	064f4H
	DW	064f2H
	DW	064feH
	DW	06506H
	DW	064faH
	DW	064fbH
	DW	064f7H
	DW	065b7H
	DW	066dcH
	DW	06726H
	DW	06ab3H
	DW	06aacH
	DW	06ac3H
	DW	06abbH
	DW	06ab8H
	DW	06ac2H
	DW	06aaeH
	DW	06aafH
	DW	06b5fH
	DW	06b78H
	DW	06bafH
	DW	07009H
	DW	0700bH
	DW	06ffeH
	DW	07006H
	DW	06ffaH
	DW	07011H
	DW	0700fH
	DW	071fbH
	DW	071fcH
	DW	071feH
	DW	071f8H
	DW	07377H
	DW	07375H
	DW	074a7H
	DW	074bfH
	DW	07515H
	DW	07656H
	DW	07658H
	DW	0fffeH
	DW	0fffeH
	DW	0fffeH
	DW	0fffeH
	DW	0fffeH
	DW	0fffeH
	DW	0fffeH
	DW	0fffeH
	DW	0fffeH
	DW	0fffeH
	DW	0fffeH
	DW	0fffeH
	DW	0fffeH
	DW	0fffeH
	DW	0fffeH
	DW	0fffeH
	DW	0fffeH
	DW	0fffeH
	DW	0fffeH
	DW	0fffeH
	DW	0fffeH
	DW	0fffeH
	DW	0fffeH
	DW	0fffeH
	DW	0fffeH
	DW	0fffeH
	DW	0fffeH
	DW	0fffeH
	DW	0fffeH
	DW	0fffeH
	DW	0fffeH
	DW	0fffeH
	DW	0fffeH
	DW	0fffeH
	DW	07652H
	DW	077bdH
	DW	077bfH
	DW	077bbH
	DW	077bcH
	DW	0790eH
	DW	079aeH
	DW	07a61H
	DW	07a62H
	DW	07a60H
	DW	07ac4H
	DW	07ac5H
	DW	07c2bH
	DW	07c27H
	DW	07c2aH
	DW	07c1eH
	DW	07c23H
	DW	07c21H
	DW	07ce7H
	DW	07e54H
	DW	07e55H
	DW	07e5eH
	DW	07e5aH
	DW	07e61H
	DW	07e52H
	DW	07e59H
	DW	07f48H
	DW	07ff9H
	DW	07ffbH
	DW	08077H
	DW	08076H
	DW	081cdH
	DW	081cfH
	DW	0820aH
	DW	085cfH
	DW	085a9H
	DW	085cdH
	DW	085d0H
	DW	085c9H
	DW	085b0H
	DW	085baH
	DW	085b9H
	DW	085a6H
	DW	087efH
	DW	087ecH
	DW	087f2H
	DW	087e0H
	DW	08986H
	DW	089b2H
	DW	089f4H
	DW	08b28H
	DW	08b39H
	DW	08b2cH
	DW	08b2bH
	DW	08c50H
	DW	08d05H
	DW	08e59H
	DW	08e63H
	DW	08e66H
	DW	08e64H
	DW	08e5fH
	DW	08e55H
	DW	08ec0H
	DW	08f49H
	DW	08f4dH
	DW	09087H
	DW	09083H
	DW	09088H
	DW	091abH
	DW	091acH
	DW	091d0H
	DW	09394H
	DW	0938aH
	DW	09396H
	DW	093a2H
	DW	093b3H
	DW	093aeH
	DW	093acH
	DW	093b0H
	DW	09398H
	DW	0939aH
	DW	09397H
	DW	095d4H
	DW	095d6H
	DW	095d0H
	DW	095d5H
	DW	096e2H
	DW	096dcH
	DW	096d9H
	DW	096dbH
	DW	096deH
	DW	09724H
	DW	097a3H
	DW	097a6H
	DW	097adH
	DW	097f9H
	DW	0984dH
	DW	0984fH
	DW	0984cH
	DW	0984eH
	DW	09853H
	DW	098baH
	DW	0993eH
	DW	0993fH
	DW	0993dH
	DW	0992eH
	DW	099a5H
	DW	09a0eH
	DW	09ac1H
	DW	09b03H
	DW	09b06H
	DW	09b4fH
	DW	09b4eH
	DW	09b4dH
	DW	09bcaH
	DW	09bc9H
	DW	09bfdH
	DW	09bc8H
	DW	09bc0H
	DW	09d51H
	DW	09d5dH
	DW	09d60H
	DW	09ee0H
	DW	09f15H
	DW	09f2cH
	DW	05133H
	DW	056a5H
	DW	058deH
	DW	058dfH
	DW	058e2H
	DW	05bf5H
	DW	09f90H
	DW	05eecH
	DW	061f2H
	DW	061f7H
	DW	061f6H
	DW	061f5H
	DW	06500H
	DW	0650fH
	DW	066e0H
	DW	066ddH
	DW	06ae5H
	DW	06addH
	DW	06adaH
	DW	06ad3H
	DW	0701bH
	DW	0701fH
	DW	07028H
	DW	0701aH
	DW	0701dH
	DW	07015H
	DW	07018H
	DW	07206H
	DW	0720dH
	DW	07258H
	DW	072a2H
	DW	07378H
	DW	0fffeH
	DW	0fffeH
	DW	0fffeH
	DW	0fffeH
	DW	0fffeH
	DW	0fffeH
	DW	0fffeH
	DW	0fffeH
	DW	0fffeH
	DW	0fffeH
	DW	0fffeH
	DW	0fffeH
	DW	0fffeH
	DW	0fffeH
	DW	0fffeH
	DW	0fffeH
	DW	0fffeH
	DW	0fffeH
	DW	0fffeH
	DW	0fffeH
	DW	0fffeH
	DW	0fffeH
	DW	0fffeH
	DW	0fffeH
	DW	0fffeH
	DW	0fffeH
	DW	0fffeH
	DW	0fffeH
	DW	0fffeH
	DW	0fffeH
	DW	0fffeH
	DW	0fffeH
	DW	0fffeH
	DW	0fffeH
	DW	0737aH
	DW	074bdH
	DW	074caH
	DW	074e3H
	DW	07587H
	DW	07586H
	DW	0765fH
	DW	07661H
	DW	077c7H
	DW	07919H
	DW	079b1H
	DW	07a6bH
	DW	07a69H
	DW	07c3eH
	DW	07c3fH
	DW	07c38H
	DW	07c3dH
	DW	07c37H
	DW	07c40H
	DW	07e6bH
	DW	07e6dH
	DW	07e79H
	DW	07e69H
	DW	07e6aH
	DW	07f85H
	DW	07e73H
	DW	07fb6H
	DW	07fb9H
	DW	07fb8H
	DW	081d8H
	DW	085e9H
	DW	085ddH
	DW	085eaH
	DW	085d5H
	DW	085e4H
	DW	085e5H
	DW	085f7H
	DW	087fbH
	DW	08805H
	DW	0880dH
	DW	087f9H
	DW	087feH
	DW	08960H
	DW	0895fH
	DW	08956H
	DW	0895eH
	DW	08b41H
	DW	08b5cH
	DW	08b58H
	DW	08b49H
	DW	08b5aH
	DW	08b4eH
	DW	08b4fH
	DW	08b46H
	DW	08b59H
	DW	08d08H
	DW	08d0aH
	DW	08e7cH
	DW	08e72H
	DW	08e87H
	DW	08e76H
	DW	08e6cH
	DW	08e7aH
	DW	08e74H
	DW	08f54H
	DW	08f4eH
	DW	08fadH
	DW	0908aH
	DW	0908bH
	DW	091b1H
	DW	091aeH
	DW	093e1H
	DW	093d1H
	DW	093dfH
	DW	093c3H
	DW	093c8H
	DW	093dcH
	DW	093ddH
	DW	093d6H
	DW	093e2H
	DW	093cdH
	DW	093d8H
	DW	093e4H
	DW	093d7H
	DW	093e8H
	DW	095dcH
	DW	096b4H
	DW	096e3H
	DW	0972aH
	DW	09727H
	DW	09761H
	DW	097dcH
	DW	097fbH
	DW	0985eH
	DW	09858H
	DW	0985bH
	DW	098bcH
	DW	09945H
	DW	09949H
	DW	09a16H
	DW	09a19H
	DW	09b0dH
	DW	09be8H
	DW	09be7H
	DW	09bd6H
	DW	09bdbH
	DW	09d89H
	DW	09d61H
	DW	09d72H
	DW	09d6aH
	DW	09d6cH
	DW	09e92H
	DW	09e97H
	DW	09e93H
	DW	09eb4H
	DW	052f8H
	DW	056a8H
	DW	056b7H
	DW	056b6H
	DW	056b4H
	DW	056bcH
	DW	058e4H
	DW	05b40H
	DW	05b43H
	DW	05b7dH
	DW	05bf6H
	DW	05dc9H
	DW	061f8H
	DW	061faH
	DW	06518H
	DW	06514H
	DW	06519H
	DW	066e6H
	DW	06727H
	DW	06aecH
	DW	0703eH
	DW	07030H
	DW	07032H
	DW	07210H
	DW	0737bH
	DW	074cfH
	DW	07662H
	DW	07665H
	DW	07926H
	DW	0792aH
	DW	0792cH
	DW	0792bH
	DW	07ac7H
	DW	07af6H
	DW	07c4cH
	DW	07c43H
	DW	07c4dH
	DW	07cefH
	DW	07cf0H
	DW	08faeH
	DW	07e7dH
	DW	07e7cH
	DW	0fffeH
	DW	0fffeH
	DW	0fffeH
	DW	0fffeH
	DW	0fffeH
	DW	0fffeH
	DW	0fffeH
	DW	0fffeH
	DW	0fffeH
	DW	0fffeH
	DW	0fffeH
	DW	0fffeH
	DW	0fffeH
	DW	0fffeH
	DW	0fffeH
	DW	0fffeH
	DW	0fffeH
	DW	0fffeH
	DW	0fffeH
	DW	0fffeH
	DW	0fffeH
	DW	0fffeH
	DW	0fffeH
	DW	0fffeH
	DW	0fffeH
	DW	0fffeH
	DW	0fffeH
	DW	0fffeH
	DW	0fffeH
	DW	0fffeH
	DW	0fffeH
	DW	0fffeH
	DW	0fffeH
	DW	0fffeH
	DW	07e82H
	DW	07f4cH
	DW	08000H
	DW	081daH
	DW	08266H
	DW	085fbH
	DW	085f9H
	DW	08611H
	DW	085faH
	DW	08606H
	DW	0860bH
	DW	08607H
	DW	0860aH
	DW	08814H
	DW	08815H
	DW	08964H
	DW	089baH
	DW	089f8H
	DW	08b70H
	DW	08b6cH
	DW	08b66H
	DW	08b6fH
	DW	08b5fH
	DW	08b6bH
	DW	08d0fH
	DW	08d0dH
	DW	08e89H
	DW	08e81H
	DW	08e85H
	DW	08e82H
	DW	091b4H
	DW	091cbH
	DW	09418H
	DW	09403H
	DW	093fdH
	DW	095e1H
	DW	09730H
	DW	098c4H
	DW	09952H
	DW	09951H
	DW	099a8H
	DW	09a2bH
	DW	09a30H
	DW	09a37H
	DW	09a35H
	DW	09c13H
	DW	09c0dH
	DW	09e79H
	DW	09eb5H
	DW	09ee8H
	DW	09f2fH
	DW	09f5fH
	DW	09f63H
	DW	09f61H
	DW	05137H
	DW	05138H
	DW	056c1H
	DW	056c0H
	DW	056c2H
	DW	05914H
	DW	05c6cH
	DW	05dcdH
	DW	061fcH
	DW	061feH
	DW	0651dH
	DW	0651cH
	DW	06595H
	DW	066e9H
	DW	06afbH
	DW	06b04H
	DW	06afaH
	DW	06bb2H
	DW	0704cH
	DW	0721bH
	DW	072a7H
	DW	074d6H
	DW	074d4H
	DW	07669H
	DW	077d3H
	DW	07c50H
	DW	07e8fH
	DW	07e8cH
	DW	07fbcH
	DW	08617H
	DW	0862dH
	DW	0861aH
	DW	08823H
	DW	08822H
	DW	08821H
	DW	0881fH
	DW	0896aH
	DW	0896cH
	DW	089bdH
	DW	08b74H
	DW	08b77H
	DW	08b7dH
	DW	08d13H
	DW	08e8aH
	DW	08e8dH
	DW	08e8bH
	DW	08f5fH
	DW	08fafH
	DW	091baH
	DW	0942eH
	DW	09433H
	DW	09435H
	DW	0943aH
	DW	09438H
	DW	09432H
	DW	0942bH
	DW	095e2H
	DW	09738H
	DW	09739H
	DW	09732H
	DW	097ffH
	DW	09867H
	DW	09865H
	DW	09957H
	DW	09a45H
	DW	09a43H
	DW	09a40H
	DW	09a3eH
	DW	09acfH
	DW	09b54H
	DW	09b51H
	DW	09c2dH
	DW	09c25H
	DW	09dafH
	DW	09db4H
	DW	09dc2H
	DW	09db8H
	DW	09e9dH
	DW	09eefH
	DW	09f19H
	DW	09f5cH
	DW	09f66H
	DW	09f67H
	DW	0513cH
	DW	0513bH
	DW	056c8H
	DW	056caH
	DW	056c9H
	DW	05b7fH
	DW	05dd4H
	DW	05dd2H
	DW	05f4eH
	DW	061ffH
	DW	06524H
	DW	06b0aH
	DW	06b61H
	DW	07051H
	DW	07058H
	DW	07380H
	DW	074e4H
	DW	0758aH
	DW	0766eH
	DW	0766cH
	DW	0fffeH
	DW	0fffeH
	DW	0fffeH
	DW	0fffeH
	DW	0fffeH
	DW	0fffeH
	DW	0fffeH
	DW	0fffeH
	DW	0fffeH
	DW	0fffeH
	DW	0fffeH
	DW	0fffeH
	DW	0fffeH
	DW	0fffeH
	DW	0fffeH
	DW	0fffeH
	DW	0fffeH
	DW	0fffeH
	DW	0fffeH
	DW	0fffeH
	DW	0fffeH
	DW	0fffeH
	DW	0fffeH
	DW	0fffeH
	DW	0fffeH
	DW	0fffeH
	DW	0fffeH
	DW	0fffeH
	DW	0fffeH
	DW	0fffeH
	DW	0fffeH
	DW	0fffeH
	DW	0fffeH
	DW	0fffeH
	DW	079b3H
	DW	07c60H
	DW	07c5fH
	DW	0807eH
	DW	0807dH
	DW	081dfH
	DW	08972H
	DW	0896fH
	DW	089fcH
	DW	08b80H
	DW	08d16H
	DW	08d17H
	DW	08e91H
	DW	08e93H
	DW	08f61H
	DW	09148H
	DW	09444H
	DW	09451H
	DW	09452H
	DW	0973dH
	DW	0973eH
	DW	097c3H
	DW	097c1H
	DW	0986bH
	DW	09955H
	DW	09a55H
	DW	09a4dH
	DW	09ad2H
	DW	09b1aH
	DW	09c49H
	DW	09c31H
	DW	09c3eH
	DW	09c3bH
	DW	09dd3H
	DW	09dd7H
	DW	09f34H
	DW	09f6cH
	DW	09f6aH
	DW	09f94H
	DW	056ccH
	DW	05dd6H
	DW	06200H
	DW	06523H
	DW	0652bH
	DW	0652aH
	DW	066ecH
	DW	06b10H
	DW	074daH
	DW	07acaH
	DW	07c64H
	DW	07c63H
	DW	07c65H
	DW	07e93H
	DW	07e96H
	DW	07e94H
	DW	081e2H
	DW	08638H
	DW	0863fH
	DW	08831H
	DW	08b8aH
	DW	09090H
	DW	0908fH
	DW	09463H
	DW	09460H
	DW	09464H
	DW	09768H
	DW	0986fH
	DW	0995cH
	DW	09a5aH
	DW	09a5bH
	DW	09a57H
	DW	09ad3H
	DW	09ad4H
	DW	09ad1H
	DW	09c54H
	DW	09c57H
	DW	09c56H
	DW	09de5H
	DW	09e9fH
	DW	09ef4H
	DW	056d1H
	DW	058e9H
	DW	0652cH
	DW	0705eH
	DW	07671H
	DW	07672H
	DW	077d7H
	DW	07f50H
	DW	07f88H
	DW	08836H
	DW	08839H
	DW	08862H
	DW	08b93H
	DW	08b92H
	DW	08b96H
	DW	08277H
	DW	08d1bH
	DW	091c0H
	DW	0946aH
	DW	09742H
	DW	09748H
	DW	09744H
	DW	097c6H
	DW	09870H
	DW	09a5fH
	DW	09b22H
	DW	09b58H
	DW	09c5fH
	DW	09df9H
	DW	09dfaH
	DW	09e7cH
	DW	09e7dH
	DW	09f07H
	DW	09f77H
	DW	09f72H
	DW	05ef3H
	DW	06b16H
	DW	07063H
	DW	07c6cH
	DW	07c6eH
	DW	0883bH
	DW	089c0H
	DW	08ea1H
	DW	091c1H
	DW	09472H
	DW	09470H
	DW	09871H
	DW	0995eH
	DW	09ad6H
	DW	09b23H
	DW	09eccH
	DW	07064H
	DW	077daH
	DW	08b9aH
	DW	09477H
	DW	097c9H
	DW	09a62H
	DW	09a65H
	DW	07e9cH
	DW	08b9cH
	DW	08eaaH
	DW	091c5H
	DW	0947dH
	DW	0947eH
	DW	0947cH
	DW	09c77H
	DW	09c78H
	DW	09ef7H
	DW	08c54H
	DW	0947fH
	DW	09e1aH
	DW	07228H
	DW	09a6aH
	DW	09b31H
	DW	09e1bH
	DW	09e1eH
	DW	07c72H
	DW	0fffeH
	DW	0fffeH
	DW	0fffeH
	DW	0fffeH
	DW	0fffeH
	DW	0fffeH
	DW	0fffeH
	DW	0fffeH
	DW	0fffeH
	DW	0fffeH
	DW	0fffeH
	DW	0fffeH
	DW	0fffeH
	DW	0fffeH
	DW	0fffeH
	DW	0fffeH
	DW	0fffeH
	DW	0fffeH
	DW	0fffeH
	DW	0fffeH
	DW	0fffeH
	DW	0fffeH
	DW	0fffeH
	DW	0fffeH
	DW	0fffeH
	DW	0fffeH
	DW	0fffeH
	DW	0fffeH
	DW	0fffeH
	DW	0fffeH
	DW	0fffeH
	DW	0fffeH
	DW	0fffeH
	DW	0fffeH
	DW	030feH
	DW	0309dH
	DW	0309eH
	DW	03005H
	DW	03041H
	DW	03042H
	DW	03043H
	DW	03044H
	DW	03045H
	DW	03046H
	DW	03047H
	DW	03048H
	DW	03049H
	DW	0304aH
	DW	0304bH
	DW	0304cH
	DW	0304dH
	DW	0304eH
	DW	0304fH
	DW	03050H
	DW	03051H
	DW	03052H
	DW	03053H
	DW	03054H
	DW	03055H
	DW	03056H
	DW	03057H
	DW	03058H
	DW	03059H
	DW	0305aH
	DW	0305bH
	DW	0305cH
	DW	0305dH
	DW	0305eH
	DW	0305fH
	DW	03060H
	DW	03061H
	DW	03062H
	DW	03063H
	DW	03064H
	DW	03065H
	DW	03066H
	DW	03067H
	DW	03068H
	DW	03069H
	DW	0306aH
	DW	0306bH
	DW	0306cH
	DW	0306dH
	DW	0306eH
	DW	0306fH
	DW	03070H
	DW	03071H
	DW	03072H
	DW	03073H
	DW	03074H
	DW	03075H
	DW	03076H
	DW	03077H
	DW	03078H
	DW	03079H
	DW	0307aH
	DW	0307bH
	DW	0307cH
	DW	0307dH
	DW	0307eH
	DW	0307fH
	DW	03080H
	DW	03081H
	DW	03082H
	DW	03083H
	DW	03084H
	DW	03085H
	DW	03086H
	DW	03087H
	DW	03088H
	DW	03089H
	DW	0308aH
	DW	0308bH
	DW	0308cH
	DW	0308dH
	DW	0308eH
	DW	0308fH
	DW	03090H
	DW	03091H
	DW	03092H
	DW	03093H
	DW	030a1H
	DW	030a2H
	DW	030a3H
	DW	030a4H
	DW	030a5H
	DW	030a6H
	DW	030a7H
	DW	030a8H
	DW	030a9H
	DW	030aaH
	DW	030abH
	DW	030acH
	DW	030adH
	DW	030aeH
	DW	030afH
	DW	030b0H
	DW	030b1H
	DW	030b2H
	DW	030b3H
	DW	030b4H
	DW	030b5H
	DW	030b6H
	DW	030b7H
	DW	030b8H
	DW	030b9H
	DW	030baH
	DW	030bbH
	DW	030bcH
	DW	030bdH
	DW	030beH
	DW	030bfH
	DW	030c0H
	DW	030c1H
	DW	030c2H
	DW	030c3H
	DW	030c4H
	DW	030c5H
	DW	030c6H
	DW	030c7H
	DW	030c8H
	DW	030c9H
	DW	030caH
	DW	030cbH
	DW	030ccH
	DW	030cdH
	DW	030ceH
	DW	030cfH
	DW	030d0H
	DW	030d1H
	DW	030d2H
	DW	030d3H
	DW	030d4H
	DW	030d5H
	DW	030d6H
	DW	030d7H
	DW	030d8H
	DW	030d9H
	DW	030daH
	DW	030dbH
	DW	030dcH
	DW	030ddH
	DW	030deH
	DW	030dfH
	DW	030e0H
	DW	030e1H
	DW	030e2H
	DW	030e3H
	DW	030e4H
	DW	030e5H
	DW	030e6H
	DW	0fffeH
	DW	0fffeH
	DW	0fffeH
	DW	0fffeH
	DW	0fffeH
	DW	0fffeH
	DW	0fffeH
	DW	0fffeH
	DW	0fffeH
	DW	0fffeH
	DW	0fffeH
	DW	0fffeH
	DW	0fffeH
	DW	0fffeH
	DW	0fffeH
	DW	0fffeH
	DW	0fffeH
	DW	0fffeH
	DW	0fffeH
	DW	0fffeH
	DW	0fffeH
	DW	0fffeH
	DW	0fffeH
	DW	0fffeH
	DW	0fffeH
	DW	0fffeH
	DW	0fffeH
	DW	0fffeH
	DW	0fffeH
	DW	0fffeH
	DW	0fffeH
	DW	0fffeH
	DW	0fffeH
	DW	0fffeH
	DW	030e7H
	DW	030e8H
	DW	030e9H
	DW	030eaH
	DW	030ebH
	DW	030ecH
	DW	030edH
	DW	030eeH
	DW	030efH
	DW	030f0H
	DW	030f1H
	DW	030f2H
	DW	030f3H
	DW	030f4H
	DW	030f5H
	DW	030f6H
	DW	0414H
	DW	0415H
	DW	0401H
	DW	0416H
	DW	0417H
	DW	0418H
	DW	0419H
	DW	041aH
	DW	041bH
	DW	041cH
	DW	0423H
	DW	0424H
	DW	0425H
	DW	0426H
	DW	0427H
	DW	0428H
	DW	0429H
	DW	042aH
	DW	042bH
	DW	042cH
	DW	042dH
	DW	042eH
	DW	042fH
	DW	0430H
	DW	0431H
	DW	0432H
	DW	0433H
	DW	0434H
	DW	0435H
	DW	0451H
	DW	0436H
	DW	0437H
	DW	0438H
	DW	0439H
	DW	043aH
	DW	043bH
	DW	043cH
	DW	043dH
	DW	043eH
	DW	043fH
	DW	0440H
	DW	0441H
	DW	0442H
	DW	0443H
	DW	0444H
	DW	0445H
	DW	0446H
	DW	0447H
	DW	0448H
	DW	0449H
	DW	044aH
	DW	044bH
	DW	044cH
	DW	044dH
	DW	044eH
	DW	044fH
	DW	02460H
	DW	02461H
	DW	02462H
	DW	02463H
	DW	02464H
	DW	02465H
	DW	02466H
	DW	02467H
	DW	02468H
	DW	02469H
	DW	02474H
	DW	02475H
	DW	02476H
	DW	02477H
	DW	02478H
	DW	02479H
	DW	0247aH
	DW	0247bH
	DW	0247cH
	DW	0247dH
	DW	04e42H
	DW	04e5cH
	DW	051f5H
	DW	0531aH
	DW	05382H
	DW	04e07H
	DW	04e0cH
	DW	04e47H
	DW	04e8dH
	DW	056d7H
	DW	0fa0cH
	DW	05c6eH
	DW	05f73H
	DW	04e0fH
	DW	05187H
	DW	04e0eH
	DW	04e2eH
	DW	04e93H
	DW	04ec2H
	DW	04ec9H
	DW	04ec8H
	DW	05198H
	DW	052fcH
	DW	0536cH
	DW	053b9H
	DW	05720H
	DW	05903H
	DW	0592cH
	DW	05c10H
	DW	05dffH
	DW	065e1H
	DW	06bb3H
	DW	06bccH
	DW	06c14H
	DW	0723fH
	DW	04e31H
	DW	04e3cH
	DW	04ee8H
	DW	04edcH
	DW	04ee9H
	DW	04ee1H
	DW	04eddH
	DW	04edaH
	DW	0520cH
	DW	0531cH
	DW	0534cH
	DW	05722H
	DW	05723H
	DW	05917H
	DW	0592fH
	DW	05b81H
	DW	05b84H
	DW	05c12H
	DW	05c3bH
	DW	05c74H
	DW	05c73H
	DW	05e04H
	DW	05e80H
	DW	05e82H
	DW	05fc9H
	DW	06209H
	DW	06250H
	DW	06c15H
	DW	0fffeH
	DW	0fffeH
	DW	0fffeH
	DW	0fffeH
	DW	0fffeH
	DW	0fffeH
	DW	0fffeH
	DW	0fffeH
	DW	0fffeH
	DW	0fffeH
	DW	0fffeH
	DW	0fffeH
	DW	0fffeH
	DW	0fffeH
	DW	0fffeH
	DW	0fffeH
	DW	0fffeH
	DW	0fffeH
	DW	0fffeH
	DW	0fffeH
	DW	0fffeH
	DW	0fffeH
	DW	0fffeH
	DW	0fffeH
	DW	0fffeH
	DW	0fffeH
	DW	0fffeH
	DW	0fffeH
	DW	0fffeH
	DW	0fffeH
	DW	0fffeH
	DW	0fffeH
	DW	0fffeH
	DW	0fffeH
	DW	06c36H
	DW	06c43H
	DW	06c3fH
	DW	06c3bH
	DW	072aeH
	DW	072b0H
	DW	0738aH
	DW	079b8H
	DW	0808aH
	DW	0961eH
	DW	04f0eH
	DW	04f18H
	DW	04f2cH
	DW	04ef5H
	DW	04f14H
	DW	04ef1H
	DW	04f00H
	DW	04ef7H
	DW	04f08H
	DW	04f1dH
	DW	04f02H
	DW	04f05H
	DW	04f22H
	DW	04f13H
	DW	04f04H
	DW	04ef4H
	DW	04f12H
	DW	051b1H
	DW	05213H
	DW	05209H
	DW	05210H
	DW	052a6H
	DW	05322H
	DW	0531fH
	DW	0534dH
	DW	0538aH
	DW	05407H
	DW	056e1H
	DW	056dfH
	DW	0572eH
	DW	0572aH
	DW	05734H
	DW	0593cH
	DW	05980H
	DW	0597cH
	DW	05985H
	DW	0597bH
	DW	0597eH
	DW	05977H
	DW	0597fH
	DW	05b56H
	DW	05c15H
	DW	05c25H
	DW	05c7cH
	DW	05c7aH
	DW	05c7bH
	DW	05c7eH
	DW	05ddfH
	DW	05e75H
	DW	05e84H
	DW	05f02H
	DW	05f1aH
	DW	05f74H
	DW	05fd5H
	DW	05fd4H
	DW	05fcfH
	DW	0625cH
	DW	0625eH
	DW	06264H
	DW	06261H
	DW	06266H
	DW	06262H
	DW	06259H
	DW	06260H
	DW	0625aH
	DW	06265H
	DW	065efH
	DW	065eeH
	DW	0673eH
	DW	06739H
	DW	06738H
	DW	0673bH
	DW	0673aH
	DW	0673fH
	DW	0673cH
	DW	06733H
	DW	06c18H
	DW	06c46H
	DW	06c52H
	DW	06c5cH
	DW	06c4fH
	DW	06c4aH
	DW	06c54H
	DW	06c4bH
	DW	06c4cH
	DW	07071H
	DW	0725eH
	DW	072b4H
	DW	072b5H
	DW	0738eH
	DW	0752aH
	DW	0767fH
	DW	07a75H
	DW	07f51H
	DW	08278H
	DW	0827cH
	DW	08280H
	DW	0827dH
	DW	0827fH
	DW	0864dH
	DW	0897eH
	DW	09099H
	DW	09097H
	DW	09098H
	DW	0909bH
	DW	09094H
	DW	09622H
	DW	09624H
	DW	09620H
	DW	09623H
	DW	04f56H
	DW	04f3bH
	DW	04f62H
	DW	04f49H
	DW	04f53H
	DW	04f64H
	DW	04f3eH
	DW	04f67H
	DW	04f52H
	DW	04f5fH
	DW	04f41H
	DW	04f58H
	DW	04f2dH
	DW	04f33H
	DW	04f3fH
	DW	04f61H
	DW	0518fH
	DW	051b9H
	DW	0521cH
	DW	0521eH
	DW	05221H
	DW	052adH
	DW	052aeH
	DW	05309H
	DW	05363H
	DW	05372H
	DW	0538eH
	DW	0538fH
	DW	05430H
	DW	05437H
	DW	0542aH
	DW	05454H
	DW	05445H
	DW	05419H
	DW	0541cH
	DW	05425H
	DW	05418H
	DW	0fffeH
	DW	0fffeH
	DW	0fffeH
	DW	0fffeH
	DW	0fffeH
	DW	0fffeH
	DW	0fffeH
	DW	0fffeH
	DW	0fffeH
	DW	0fffeH
	DW	0fffeH
	DW	0fffeH
	DW	0fffeH
	DW	0fffeH
	DW	0fffeH
	DW	0fffeH
	DW	0fffeH
	DW	0fffeH
	DW	0fffeH
	DW	0fffeH
	DW	0fffeH
	DW	0fffeH
	DW	0fffeH
	DW	0fffeH
	DW	0fffeH
	DW	0fffeH
	DW	0fffeH
	DW	0fffeH
	DW	0fffeH
	DW	0fffeH
	DW	0fffeH
	DW	0fffeH
	DW	0fffeH
	DW	0fffeH
	DW	0543dH
	DW	0544fH
	DW	05441H
	DW	05428H
	DW	05424H
	DW	05447H
	DW	056eeH
	DW	056e7H
	DW	056e5H
	DW	05741H
	DW	05745H
	DW	0574cH
	DW	05749H
	DW	0574bH
	DW	05752H
	DW	05906H
	DW	05940H
	DW	059a6H
	DW	05998H
	DW	059a0H
	DW	05997H
	DW	0598eH
	DW	059a2H
	DW	05990H
	DW	0598fH
	DW	059a7H
	DW	059a1H
	DW	05b8eH
	DW	05b92H
	DW	05c28H
	DW	05c2aH
	DW	05c8dH
	DW	05c8fH
	DW	05c88H
	DW	05c8bH
	DW	05c89H
	DW	05c92H
	DW	05c8aH
	DW	05c86H
	DW	05c93H
	DW	05c95H
	DW	05de0H
	DW	05e0aH
	DW	05e0eH
	DW	05e8bH
	DW	05e89H
	DW	05e8cH
	DW	05e88H
	DW	05e8dH
	DW	05f05H
	DW	05f1dH
	DW	05f78H
	DW	05f76H
	DW	05fd2H
	DW	05fd1H
	DW	05fd0H
	DW	05fedH
	DW	05fe8H
	DW	05feeH
	DW	05ff3H
	DW	05fe1H
	DW	05fe4H
	DW	05fe3H
	DW	05ffaH
	DW	05fefH
	DW	05ff7H
	DW	05ffbH
	DW	06000H
	DW	05ff4H
	DW	0623aH
	DW	06283H
	DW	0628cH
	DW	0628eH
	DW	0628fH
	DW	06294H
	DW	06287H
	DW	06271H
	DW	0627bH
	DW	0627aH
	DW	06270H
	DW	06281H
	DW	06288H
	DW	06277H
	DW	0627dH
	DW	06272H
	DW	06274H
	DW	06537H
	DW	065f0H
	DW	065f4H
	DW	065f3H
	DW	065f2H
	DW	065f5H
	DW	06745H
	DW	06747H
	DW	06759H
	DW	06755H
	DW	0674cH
	DW	06748H
	DW	0675dH
	DW	0674dH
	DW	0675aH
	DW	0674bH
	DW	06bd0H
	DW	06c19H
	DW	06c1aH
	DW	06c78H
	DW	06c67H
	DW	06c6bH
	DW	06c84H
	DW	06c8bH
	DW	06c8fH
	DW	06c71H
	DW	06c6fH
	DW	06c69H
	DW	06c9aH
	DW	06c6dH
	DW	06c87H
	DW	06c95H
	DW	06c9cH
	DW	06c66H
	DW	06c73H
	DW	06c65H
	DW	06c7bH
	DW	06c8eH
	DW	07074H
	DW	0707aH
	DW	07263H
	DW	072bfH
	DW	072bdH
	DW	072c3H
	DW	072c6H
	DW	072c1H
	DW	072baH
	DW	072c5H
	DW	07395H
	DW	07397H
	DW	07393H
	DW	07394H
	DW	07392H
	DW	0753aH
	DW	07539H
	DW	07594H
	DW	07595H
	DW	07681H
	DW	0793dH
	DW	08034H
	DW	08095H
	DW	08099H
	DW	08090H
	DW	08092H
	DW	0809cH
	DW	08290H
	DW	0828fH
	DW	08285H
	DW	0828eH
	DW	08291H
	DW	08293H
	DW	0fffeH
	DW	0fffeH
	DW	0fffeH
	DW	0fffeH
	DW	0fffeH
	DW	0fffeH
	DW	0fffeH
	DW	0fffeH
	DW	0fffeH
	DW	0fffeH
	DW	0fffeH
	DW	0fffeH
	DW	0fffeH
	DW	0fffeH
	DW	0fffeH
	DW	0fffeH
	DW	0fffeH
	DW	0fffeH
	DW	0fffeH
	DW	0fffeH
	DW	0fffeH
	DW	0fffeH
	DW	0fffeH
	DW	0fffeH
	DW	0fffeH
	DW	0fffeH
	DW	0fffeH
	DW	0fffeH
	DW	0fffeH
	DW	0fffeH
	DW	0fffeH
	DW	0fffeH
	DW	0fffeH
	DW	0fffeH
	DW	0828aH
	DW	08283H
	DW	08284H
	DW	08c78H
	DW	08fc9H
	DW	08fbfH
	DW	0909fH
	DW	090a1H
	DW	090a5H
	DW	0909eH
	DW	090a7H
	DW	090a0H
	DW	09630H
	DW	09628H
	DW	0962fH
	DW	0962dH
	DW	04e33H
	DW	04f98H
	DW	04f7cH
	DW	04f85H
	DW	04f7dH
	DW	04f80H
	DW	04f87H
	DW	04f76H
	DW	04f74H
	DW	04f89H
	DW	04f84H
	DW	04f77H
	DW	04f4cH
	DW	04f97H
	DW	04f6aH
	DW	04f9aH
	DW	04f79H
	DW	04f81H
	DW	04f78H
	DW	04f90H
	DW	04f9cH
	DW	04f94H
	DW	04f9eH
	DW	04f92H
	DW	04f82H
	DW	04f95H
	DW	04f6bH
	DW	04f6eH
	DW	0519eH
	DW	051bcH
	DW	051beH
	DW	05235H
	DW	05232H
	DW	05233H
	DW	05246H
	DW	05231H
	DW	052bcH
	DW	0530aH
	DW	0530bH
	DW	0533cH
	DW	05392H
	DW	05394H
	DW	05487H
	DW	0547fH
	DW	05481H
	DW	05491H
	DW	05482H
	DW	05488H
	DW	0546bH
	DW	0547aH
	DW	0547eH
	DW	05465H
	DW	0546cH
	DW	05474H
	DW	05466H
	DW	0548dH
	DW	0546fH
	DW	05461H
	DW	05460H
	DW	05498H
	DW	05463H
	DW	05467H
	DW	05464H
	DW	056f7H
	DW	056f9H
	DW	0576fH
	DW	05772H
	DW	0576dH
	DW	0576bH
	DW	05771H
	DW	05770H
	DW	05776H
	DW	05780H
	DW	05775H
	DW	0577bH
	DW	05773H
	DW	05774H
	DW	05762H
	DW	05768H
	DW	0577dH
	DW	0590cH
	DW	05945H
	DW	059b5H
	DW	059baH
	DW	059cfH
	DW	059ceH
	DW	059b2H
	DW	059ccH
	DW	059c1H
	DW	059b6H
	DW	059bcH
	DW	059c3H
	DW	059d6H
	DW	059b1H
	DW	059bdH
	DW	059c0H
	DW	059c8H
	DW	059b4H
	DW	059c7H
	DW	05b62H
	DW	05b65H
	DW	05b93H
	DW	05b95H
	DW	05c44H
	DW	05c47H
	DW	05caeH
	DW	05ca4H
	DW	05ca0H
	DW	05cb5H
	DW	05cafH
	DW	05ca8H
	DW	05cacH
	DW	05c9fH
	DW	05ca3H
	DW	05cadH
	DW	05ca2H
	DW	05caaH
	DW	05ca7H
	DW	05c9dH
	DW	05ca5H
	DW	05cb6H
	DW	05cb0H
	DW	05ca6H
	DW	05e17H
	DW	05e14H
	DW	05e19H
	DW	05f28H
	DW	05f22H
	DW	05f23H
	DW	05f24H
	DW	05f54H
	DW	05f82H
	DW	05f7eH
	DW	05f7dH
	DW	05fdeH
	DW	05fe5H
	DW	0602dH
	DW	06026H
	DW	06019H
	DW	06032H
	DW	0600bH
	DW	0fffeH
	DW	0fffeH
	DW	0fffeH
	DW	0fffeH
	DW	0fffeH
	DW	0fffeH
	DW	0fffeH
	DW	0fffeH
	DW	0fffeH
	DW	0fffeH
	DW	0fffeH
	DW	0fffeH
	DW	0fffeH
	DW	0fffeH
	DW	0fffeH
	DW	0fffeH
	DW	0fffeH
	DW	0fffeH
	DW	0fffeH
	DW	0fffeH
	DW	0fffeH
	DW	0fffeH
	DW	0fffeH
	DW	0fffeH
	DW	0fffeH
	DW	0fffeH
	DW	0fffeH
	DW	0fffeH
	DW	0fffeH
	DW	0fffeH
	DW	0fffeH
	DW	0fffeH
	DW	0fffeH
	DW	0fffeH
	DW	06034H
	DW	0600aH
	DW	06017H
	DW	06033H
	DW	0601aH
	DW	0601eH
	DW	0602cH
	DW	06022H
	DW	0600dH
	DW	06010H
	DW	0602eH
	DW	06013H
	DW	06011H
	DW	0600cH
	DW	06009H
	DW	0601cH
	DW	06214H
	DW	0623dH
	DW	062adH
	DW	062b4H
	DW	062d1H
	DW	062beH
	DW	062aaH
	DW	062b6H
	DW	062caH
	DW	062aeH
	DW	062b3H
	DW	062afH
	DW	062bbH
	DW	062a9H
	DW	062b0H
	DW	062b8H
	DW	0653dH
	DW	065a8H
	DW	065bbH
	DW	06609H
	DW	065fcH
	DW	06604H
	DW	06612H
	DW	06608H
	DW	065fbH
	DW	06603H
	DW	0660bH
	DW	0660dH
	DW	06605H
	DW	065fdH
	DW	06611H
	DW	06610H
	DW	066f6H
	DW	0670aH
	DW	06785H
	DW	0676cH
	DW	0678eH
	DW	06792H
	DW	06776H
	DW	0677bH
	DW	06798H
	DW	06786H
	DW	06784H
	DW	06774H
	DW	0678dH
	DW	0678cH
	DW	0677aH
	DW	0679fH
	DW	06791H
	DW	06799H
	DW	06783H
	DW	0677dH
	DW	06781H
	DW	06778H
	DW	06779H
	DW	06794H
	DW	06b25H
	DW	06b80H
	DW	06b7eH
	DW	06bdeH
	DW	06c1dH
	DW	06c93H
	DW	06cecH
	DW	06cebH
	DW	06ceeH
	DW	06cd9H
	DW	06cb6H
	DW	06cd4H
	DW	06cadH
	DW	06ce7H
	DW	06cb7H
	DW	06cd0H
	DW	06cc2H
	DW	06cbaH
	DW	06cc3H
	DW	06cc6H
	DW	06cedH
	DW	06cf2H
	DW	06cd2H
	DW	06cddH
	DW	06cb4H
	DW	06c8aH
	DW	06c9dH
	DW	06c80H
	DW	06cdeH
	DW	06cc0H
	DW	06d30H
	DW	06ccdH
	DW	06cc7H
	DW	06cb0H
	DW	06cf9H
	DW	06ccfH
	DW	06ce9H
	DW	06cd1H
	DW	07094H
	DW	07098H
	DW	07085H
	DW	07093H
	DW	07086H
	DW	07084H
	DW	07091H
	DW	07096H
	DW	07082H
	DW	0709aH
	DW	07083H
	DW	0726aH
	DW	072d6H
	DW	072cbH
	DW	072d8H
	DW	072c9H
	DW	072dcH
	DW	072d2H
	DW	072d4H
	DW	072daH
	DW	072ccH
	DW	072d1H
	DW	073a4H
	DW	073a1H
	DW	073adH
	DW	073a6H
	DW	073a2H
	DW	073a0H
	DW	073acH
	DW	0739dH
	DW	074ddH
	DW	074e8H
	DW	0753fH
	DW	07540H
	DW	0753eH
	DW	0758cH
	DW	07598H
	DW	076afH
	DW	076f3H
	DW	076f1H
	DW	076f0H
	DW	076f5H
	DW	077f8H
	DW	077fcH
	DW	077f9H
	DW	077fbH
	DW	077faH
	DW	0fffeH
	DW	0fffeH
	DW	0fffeH
	DW	0fffeH
	DW	0fffeH
	DW	0fffeH
	DW	0fffeH
	DW	0fffeH
	DW	0fffeH
	DW	0fffeH
	DW	0fffeH
	DW	0fffeH
	DW	0fffeH
	DW	0fffeH
	DW	0fffeH
	DW	0fffeH
	DW	0fffeH
	DW	0fffeH
	DW	0fffeH
	DW	0fffeH
	DW	0fffeH
	DW	0fffeH
	DW	0fffeH
	DW	0fffeH
	DW	0fffeH
	DW	0fffeH
	DW	0fffeH
	DW	0fffeH
	DW	0fffeH
	DW	0fffeH
	DW	0fffeH
	DW	0fffeH
	DW	0fffeH
	DW	0fffeH
	DW	077f7H
	DW	07942H
	DW	0793fH
	DW	079c5H
	DW	07a78H
	DW	07a7bH
	DW	07afbH
	DW	07c75H
	DW	07cfdH
	DW	08035H
	DW	0808fH
	DW	080aeH
	DW	080a3H
	DW	080b8H
	DW	080b5H
	DW	080adH
	DW	08220H
	DW	082a0H
	DW	082c0H
	DW	082abH
	DW	0829aH
	DW	08298H
	DW	0829bH
	DW	082b5H
	DW	082a7H
	DW	082aeH
	DW	082bcH
	DW	0829eH
	DW	082baH
	DW	082b4H
	DW	082a8H
	DW	082a1H
	DW	082a9H
	DW	082c2H
	DW	082a4H
	DW	082c3H
	DW	082b6H
	DW	082a2H
	DW	08670H
	DW	0866fH
	DW	0866dH
	DW	0866eH
	DW	08c56H
	DW	08fd2H
	DW	08fcbH
	DW	08fd3H
	DW	08fcdH
	DW	08fd6H
	DW	08fd5H
	DW	08fd7H
	DW	090b2H
	DW	090b4H
	DW	090afH
	DW	090b3H
	DW	090b0H
	DW	09639H
	DW	0963dH
	DW	0963cH
	DW	0963aH
	DW	09643H
	DW	04fcdH
	DW	04fc5H
	DW	04fd3H
	DW	04fb2H
	DW	04fc9H
	DW	04fcbH
	DW	04fc1H
	DW	04fd4H
	DW	04fdcH
	DW	04fd9H
	DW	04fbbH
	DW	04fb3H
	DW	04fdbH
	DW	04fc7H
	DW	04fd6H
	DW	04fbaH
	DW	04fc0H
	DW	04fb9H
	DW	04fecH
	DW	05244H
	DW	05249H
	DW	052c0H
	DW	052c2H
	DW	0533dH
	DW	0537cH
	DW	05397H
	DW	05396H
	DW	05399H
	DW	05398H
	DW	054baH
	DW	054a1H
	DW	054adH
	DW	054a5H
	DW	054cfH
	DW	054c3H
	DW	0830dH
	DW	054b7H
	DW	054aeH
	DW	054d6H
	DW	054b6H
	DW	054c5H
	DW	054c6H
	DW	054a0H
	DW	05470H
	DW	054bcH
	DW	054a2H
	DW	054beH
	DW	05472H
	DW	054deH
	DW	054b0H
	DW	057b5H
	DW	0579eH
	DW	0579fH
	DW	057a4H
	DW	0578cH
	DW	05797H
	DW	0579dH
	DW	0579bH
	DW	05794H
	DW	05798H
	DW	0578fH
	DW	05799H
	DW	057a5H
	DW	0579aH
	DW	05795H
	DW	058f4H
	DW	0590dH
	DW	05953H
	DW	059e1H
	DW	059deH
	DW	059eeH
	DW	05a00H
	DW	059f1H
	DW	059ddH
	DW	059faH
	DW	059fdH
	DW	059fcH
	DW	059f6H
	DW	059e4H
	DW	059f2H
	DW	059f7H
	DW	059dbH
	DW	059e9H
	DW	059f3H
	DW	059f5H
	DW	059e0H
	DW	059feH
	DW	059f4H
	DW	059edH
	DW	05ba8H
	DW	05c4cH
	DW	05cd0H
	DW	05cd8H
	DW	05cccH
	DW	05cd7H
	DW	05ccbH
	DW	05cdbH
	DW	0fffeH
	DW	0fffeH
	DW	0fffeH
	DW	0fffeH
	DW	0fffeH
	DW	0fffeH
	DW	0fffeH
	DW	0fffeH
	DW	0fffeH
	DW	0fffeH
	DW	0fffeH
	DW	0fffeH
	DW	0fffeH
	DW	0fffeH
	DW	0fffeH
	DW	0fffeH
	DW	0fffeH
	DW	0fffeH
	DW	0fffeH
	DW	0fffeH
	DW	0fffeH
	DW	0fffeH
	DW	0fffeH
	DW	0fffeH
	DW	0fffeH
	DW	0fffeH
	DW	0fffeH
	DW	0fffeH
	DW	0fffeH
	DW	0fffeH
	DW	0fffeH
	DW	0fffeH
	DW	0fffeH
	DW	0fffeH
	DW	05cdeH
	DW	05cdaH
	DW	05cc9H
	DW	05cc7H
	DW	05ccaH
	DW	05cd6H
	DW	05cd3H
	DW	05cd4H
	DW	05ccfH
	DW	05cc8H
	DW	05cc6H
	DW	05cceH
	DW	05cdfH
	DW	05cf8H
	DW	05df9H
	DW	05e21H
	DW	05e22H
	DW	05e23H
	DW	05e20H
	DW	05e24H
	DW	05eb0H
	DW	05ea4H
	DW	05ea2H
	DW	05e9bH
	DW	05ea3H
	DW	05ea5H
	DW	05f07H
	DW	05f2eH
	DW	05f56H
	DW	05f86H
	DW	06037H
	DW	06039H
	DW	06054H
	DW	06072H
	DW	0605eH
	DW	06045H
	DW	06053H
	DW	06047H
	DW	06049H
	DW	0605bH
	DW	0604cH
	DW	06040H
	DW	06042H
	DW	0605fH
	DW	06024H
	DW	06044H
	DW	06058H
	DW	06066H
	DW	0606eH
	DW	06242H
	DW	06243H
	DW	062cfH
	DW	0630dH
	DW	0630bH
	DW	062f5H
	DW	0630eH
	DW	06303H
	DW	062ebH
	DW	062f9H
	DW	0630fH
	DW	0630cH
	DW	062f8H
	DW	062f6H
	DW	06300H
	DW	06313H
	DW	06314H
	DW	062faH
	DW	06315H
	DW	062fbH
	DW	062f0H
	DW	06541H
	DW	06543H
	DW	065aaH
	DW	065bfH
	DW	06636H
	DW	06621H
	DW	06632H
	DW	06635H
	DW	0661cH
	DW	06626H
	DW	06622H
	DW	06633H
	DW	0662bH
	DW	0663aH
	DW	0661dH
	DW	06634H
	DW	06639H
	DW	0662eH
	DW	0670fH
	DW	06710H
	DW	067c1H
	DW	067f2H
	DW	067c8H
	DW	067baH
	DW	067dcH
	DW	067bbH
	DW	067f8H
	DW	067d8H
	DW	067c0H
	DW	067b7H
	DW	067c5H
	DW	067ebH
	DW	067e4H
	DW	067dfH
	DW	067b5H
	DW	067cdH
	DW	067b3H
	DW	067f7H
	DW	067f6H
	DW	067eeH
	DW	067e3H
	DW	067c2H
	DW	067b9H
	DW	067ceH
	DW	067e7H
	DW	067f0H
	DW	067b2H
	DW	067fcH
	DW	067c6H
	DW	067edH
	DW	067ccH
	DW	067aeH
	DW	067e6H
	DW	067dbH
	DW	067faH
	DW	067c9H
	DW	067caH
	DW	067c3H
	DW	067eaH
	DW	067cbH
	DW	06b28H
	DW	06b82H
	DW	06b84H
	DW	06bb6H
	DW	06bd6H
	DW	06bd8H
	DW	06be0H
	DW	06c20H
	DW	06c21H
	DW	06d28H
	DW	06d34H
	DW	06d2dH
	DW	06d1fH
	DW	06d3cH
	DW	06d3fH
	DW	06d12H
	DW	06d0aH
	DW	06cdaH
	DW	06d33H
	DW	06d04H
	DW	06d19H
	DW	06d3aH
	DW	06d1aH
	DW	06d11H
	DW	06d00H
	DW	06d1dH
	DW	06d42H
	DW	0fffeH
	DW	0fffeH
	DW	0fffeH
	DW	0fffeH
	DW	0fffeH
	DW	0fffeH
	DW	0fffeH
	DW	0fffeH
	DW	0fffeH
	DW	0fffeH
	DW	0fffeH
	DW	0fffeH
	DW	0fffeH
	DW	0fffeH
	DW	0fffeH
	DW	0fffeH
	DW	0fffeH
	DW	0fffeH
	DW	0fffeH
	DW	0fffeH
	DW	0fffeH
	DW	0fffeH
	DW	0fffeH
	DW	0fffeH
	DW	0fffeH
	DW	0fffeH
	DW	0fffeH
	DW	0fffeH
	DW	0fffeH
	DW	0fffeH
	DW	0fffeH
	DW	0fffeH
	DW	0fffeH
	DW	0fffeH
	DW	06d01H
	DW	06d18H
	DW	06d37H
	DW	06d03H
	DW	06d0fH
	DW	06d40H
	DW	06d07H
	DW	06d20H
	DW	06d2cH
	DW	06d08H
	DW	06d22H
	DW	06d09H
	DW	06d10H
	DW	070b7H
	DW	0709fH
	DW	070beH
	DW	070b1H
	DW	070b0H
	DW	070a1H
	DW	070b4H
	DW	070b5H
	DW	070a9H
	DW	07241H
	DW	07249H
	DW	0724aH
	DW	0726cH
	DW	07270H
	DW	07273H
	DW	0726eH
	DW	072caH
	DW	072e4H
	DW	072e8H
	DW	072ebH
	DW	072dfH
	DW	072eaH
	DW	072e6H
	DW	072e3H
	DW	07385H
	DW	073ccH
	DW	073c2H
	DW	073c8H
	DW	073c5H
	DW	073b9H
	DW	073b6H
	DW	073b5H
	DW	073b4H
	DW	073ebH
	DW	073bfH
	DW	073c7H
	DW	073beH
	DW	073c3H
	DW	073c6H
	DW	073b8H
	DW	073cbH
	DW	074ecH
	DW	074eeH
	DW	0752eH
	DW	07547H
	DW	07548H
	DW	075a7H
	DW	075aaH
	DW	07679H
	DW	076c4H
	DW	07708H
	DW	07703H
	DW	07704H
	DW	07705H
	DW	0770aH
	DW	076f7H
	DW	076fbH
	DW	076faH
	DW	077e7H
	DW	077e8H
	DW	07806H
	DW	07811H
	DW	07812H
	DW	07805H
	DW	07810H
	DW	0780fH
	DW	0780eH
	DW	07809H
	DW	07803H
	DW	07813H
	DW	0794aH
	DW	0794cH
	DW	0794bH
	DW	07945H
	DW	07944H
	DW	079d5H
	DW	079cdH
	DW	079cfH
	DW	079d6H
	DW	079ceH
	DW	07a80H
	DW	07a7eH
	DW	07ad1H
	DW	07b00H
	DW	07b01H
	DW	07c7aH
	DW	07c78H
	DW	07c79H
	DW	07c7fH
	DW	07c80H
	DW	07c81H
	DW	07d03H
	DW	07d08H
	DW	07d01H
	DW	07f58H
	DW	07f91H
	DW	07f8dH
	DW	07fbeH
	DW	08007H
	DW	0800eH
	DW	0800fH
	DW	08014H
	DW	08037H
	DW	080d8H
	DW	080c7H
	DW	080e0H
	DW	080d1H
	DW	080c8H
	DW	080c2H
	DW	080d0H
	DW	080c5H
	DW	080e3H
	DW	080d9H
	DW	080dcH
	DW	080caH
	DW	080d5H
	DW	080c9H
	DW	080cfH
	DW	080d7H
	DW	080e6H
	DW	080cdH
	DW	081ffH
	DW	08221H
	DW	08294H
	DW	082d9H
	DW	082feH
	DW	082f9H
	DW	08307H
	DW	082e8H
	DW	08300H
	DW	082d5H
	DW	0833aH
	DW	082ebH
	DW	082d6H
	DW	082f4H
	DW	082ecH
	DW	082e1H
	DW	082f2H
	DW	082f5H
	DW	0830cH
	DW	082fbH
	DW	082f6H
	DW	082f0H
	DW	082eaH
	DW	0fffeH
	DW	0fffeH
	DW	0fffeH
	DW	0fffeH
	DW	0fffeH
	DW	0fffeH
	DW	0fffeH
	DW	0fffeH
	DW	0fffeH
	DW	0fffeH
	DW	0fffeH
	DW	0fffeH
	DW	0fffeH
	DW	0fffeH
	DW	0fffeH
	DW	0fffeH
	DW	0fffeH
	DW	0fffeH
	DW	0fffeH
	DW	0fffeH
	DW	0fffeH
	DW	0fffeH
	DW	0fffeH
	DW	0fffeH
	DW	0fffeH
	DW	0fffeH
	DW	0fffeH
	DW	0fffeH
	DW	0fffeH
	DW	0fffeH
	DW	0fffeH
	DW	0fffeH
	DW	0fffeH
	DW	0fffeH
	DW	082e4H
	DW	082e0H
	DW	082faH
	DW	082f3H
	DW	082edH
	DW	08677H
	DW	08674H
	DW	0867cH
	DW	08673H
	DW	08841H
	DW	0884eH
	DW	08867H
	DW	0886aH
	DW	08869H
	DW	089d3H
	DW	08a04H
	DW	08a07H
	DW	08d72H
	DW	08fe3H
	DW	08fe1H
	DW	08feeH
	DW	08fe0H
	DW	090f1H
	DW	090bdH
	DW	090bfH
	DW	090d5H
	DW	090c5H
	DW	090beH
	DW	090c7H
	DW	090cbH
	DW	090c8H
	DW	091d4H
	DW	091d3H
	DW	09654H
	DW	0964fH
	DW	09651H
	DW	09653H
	DW	0964aH
	DW	0964eH
	DW	0501eH
	DW	05005H
	DW	05007H
	DW	05013H
	DW	05022H
	DW	05030H
	DW	0501bH
	DW	04ff5H
	DW	04ff4H
	DW	05033H
	DW	05037H
	DW	0502cH
	DW	04ff6H
	DW	04ff7H
	DW	05017H
	DW	0501cH
	DW	05020H
	DW	05027H
	DW	05035H
	DW	0502fH
	DW	05031H
	DW	0500eH
	DW	0515aH
	DW	05194H
	DW	05193H
	DW	051caH
	DW	051c4H
	DW	051c5H
	DW	051c8H
	DW	051ceH
	DW	05261H
	DW	0525aH
	DW	05252H
	DW	0525eH
	DW	0525fH
	DW	05255H
	DW	05262H
	DW	052cdH
	DW	0530eH
	DW	0539eH
	DW	05526H
	DW	054e2H
	DW	05517H
	DW	05512H
	DW	054e7H
	DW	054f3H
	DW	054e4H
	DW	0551aH
	DW	054ffH
	DW	05504H
	DW	05508H
	DW	054ebH
	DW	05511H
	DW	05505H
	DW	054f1H
	DW	0550aH
	DW	054fbH
	DW	054f7H
	DW	054f8H
	DW	054e0H
	DW	0550eH
	DW	05503H
	DW	0550bH
	DW	05701H
	DW	05702H
	DW	057ccH
	DW	05832H
	DW	057d5H
	DW	057d2H
	DW	057baH
	DW	057c6H
	DW	057bdH
	DW	057bcH
	DW	057b8H
	DW	057b6H
	DW	057bfH
	DW	057c7H
	DW	057d0H
	DW	057b9H
	DW	057c1H
	DW	0590eH
	DW	0594aH
	DW	05a19H
	DW	05a16H
	DW	05a2dH
	DW	05a2eH
	DW	05a15H
	DW	05a0fH
	DW	05a17H
	DW	05a0aH
	DW	05a1eH
	DW	05a33H
	DW	05b6cH
	DW	05ba7H
	DW	05badH
	DW	05bacH
	DW	05c03H
	DW	05c56H
	DW	05c54H
	DW	05cecH
	DW	05cffH
	DW	05ceeH
	DW	05cf1H
	DW	05cf7H
	DW	05d00H
	DW	05cf9H
	DW	05e29H
	DW	05e28H
	DW	05ea8H
	DW	05eaeH
	DW	05eaaH
	DW	05eacH
	DW	05f33H
	DW	05f30H
	DW	05f67H
	DW	0605dH
	DW	0605aH
	DW	06067H
	DW	0fffeH
	DW	0fffeH
	DW	0fffeH
	DW	0fffeH
	DW	0fffeH
	DW	0fffeH
	DW	0fffeH
	DW	0fffeH
	DW	0fffeH
	DW	0fffeH
	DW	0fffeH
	DW	0fffeH
	DW	0fffeH
	DW	0fffeH
	DW	0fffeH
	DW	0fffeH
	DW	0fffeH
	DW	0fffeH
	DW	0fffeH
	DW	0fffeH
	DW	0fffeH
	DW	0fffeH
	DW	0fffeH
	DW	0fffeH
	DW	0fffeH
	DW	0fffeH
	DW	0fffeH
	DW	0fffeH
	DW	0fffeH
	DW	0fffeH
	DW	0fffeH
	DW	0fffeH
	DW	0fffeH
	DW	0fffeH
	DW	06041H
	DW	060a2H
	DW	06088H
	DW	06080H
	DW	06092H
	DW	06081H
	DW	0609dH
	DW	06083H
	DW	06095H
	DW	0609bH
	DW	06097H
	DW	06087H
	DW	0609cH
	DW	0608eH
	DW	06219H
	DW	06246H
	DW	062f2H
	DW	06310H
	DW	06356H
	DW	0632cH
	DW	06344H
	DW	06345H
	DW	06336H
	DW	06343H
	DW	063e4H
	DW	06339H
	DW	0634bH
	DW	0634aH
	DW	0633cH
	DW	06329H
	DW	06341H
	DW	06334H
	DW	06358H
	DW	06354H
	DW	06359H
	DW	0632dH
	DW	06347H
	DW	06333H
	DW	0635aH
	DW	06351H
	DW	06338H
	DW	06357H
	DW	06340H
	DW	06348H
	DW	0654aH
	DW	06546H
	DW	065c6H
	DW	065c3H
	DW	065c4H
	DW	065c2H
	DW	0664aH
	DW	0665fH
	DW	06647H
	DW	06651H
	DW	06712H
	DW	06713H
	DW	0681fH
	DW	0681aH
	DW	06849H
	DW	06832H
	DW	06833H
	DW	0683bH
	DW	0684bH
	DW	0684fH
	DW	06816H
	DW	06831H
	DW	0681cH
	DW	06835H
	DW	0682bH
	DW	0682dH
	DW	0682fH
	DW	0684eH
	DW	06844H
	DW	06834H
	DW	0681dH
	DW	06812H
	DW	06814H
	DW	06826H
	DW	06828H
	DW	0682eH
	DW	0684dH
	DW	0683aH
	DW	06825H
	DW	06820H
	DW	06b2cH
	DW	06b2fH
	DW	06b2dH
	DW	06b31H
	DW	06b34H
	DW	06b6dH
	DW	08082H
	DW	06b88H
	DW	06be6H
	DW	06be4H
	DW	06be8H
	DW	06be3H
	DW	06be2H
	DW	06be7H
	DW	06c25H
	DW	06d7aH
	DW	06d63H
	DW	06d64H
	DW	06d76H
	DW	06d0dH
	DW	06d61H
	DW	06d92H
	DW	06d58H
	DW	06d62H
	DW	06d6dH
	DW	06d6fH
	DW	06d91H
	DW	06d8dH
	DW	06defH
	DW	06d7fH
	DW	06d86H
	DW	06d5eH
	DW	06d67H
	DW	06d60H
	DW	06d97H
	DW	06d70H
	DW	06d7cH
	DW	06d5fH
	DW	06d82H
	DW	06d98H
	DW	06d2fH
	DW	06d68H
	DW	06d8bH
	DW	06d7eH
	DW	06d80H
	DW	06d84H
	DW	06d16H
	DW	06d83H
	DW	06d7bH
	DW	06d7dH
	DW	06d75H
	DW	06d90H
	DW	070dcH
	DW	070d3H
	DW	070d1H
	DW	070ddH
	DW	070cbH
	DW	07f39H
	DW	070e2H
	DW	070d7H
	DW	070d2H
	DW	070deH
	DW	070e0H
	DW	070d4H
	DW	070cdH
	DW	070c5H
	DW	070c6H
	DW	070c7H
	DW	070daH
	DW	070ceH
	DW	070e1H
	DW	07242H
	DW	07278H
	DW	0fffeH
	DW	0fffeH
	DW	0fffeH
	DW	0fffeH
	DW	0fffeH
	DW	0fffeH
	DW	0fffeH
	DW	0fffeH
	DW	0fffeH
	DW	0fffeH
	DW	0fffeH
	DW	0fffeH
	DW	0fffeH
	DW	0fffeH
	DW	0fffeH
	DW	0fffeH
	DW	0fffeH
	DW	0fffeH
	DW	0fffeH
	DW	0fffeH
	DW	0fffeH
	DW	0fffeH
	DW	0fffeH
	DW	0fffeH
	DW	0fffeH
	DW	0fffeH
	DW	0fffeH
	DW	0fffeH
	DW	0fffeH
	DW	0fffeH
	DW	0fffeH
	DW	0fffeH
	DW	0fffeH
	DW	0fffeH
	DW	07277H
	DW	07276H
	DW	07300H
	DW	072faH
	DW	072f4H
	DW	072feH
	DW	072f6H
	DW	072f3H
	DW	072fbH
	DW	07301H
	DW	073d3H
	DW	073d9H
	DW	073e5H
	DW	073d6H
	DW	073bcH
	DW	073e7H
	DW	073e3H
	DW	073e9H
	DW	073dcH
	DW	073d2H
	DW	073dbH
	DW	073d4H
	DW	073ddH
	DW	073daH
	DW	073d7H
	DW	073d8H
	DW	073e8H
	DW	074deH
	DW	074dfH
	DW	074f4H
	DW	074f5H
	DW	07521H
	DW	0755bH
	DW	0755fH
	DW	075b0H
	DW	075c1H
	DW	075bbH
	DW	075c4H
	DW	075c0H
	DW	075bfH
	DW	075b6H
	DW	075baH
	DW	0768aH
	DW	076c9H
	DW	0771dH
	DW	0771bH
	DW	07710H
	DW	07713H
	DW	07712H
	DW	07723H
	DW	07711H
	DW	07715H
	DW	07719H
	DW	0771aH
	DW	07722H
	DW	07727H
	DW	07823H
	DW	0782cH
	DW	07822H
	DW	07835H
	DW	0782fH
	DW	07828H
	DW	0782eH
	DW	0782bH
	DW	07821H
	DW	07829H
	DW	07833H
	DW	0782aH
	DW	07831H
	DW	07954H
	DW	0795bH
	DW	0794fH
	DW	0795cH
	DW	07953H
	DW	07952H
	DW	07951H
	DW	079ebH
	DW	079ecH
	DW	079e0H
	DW	079eeH
	DW	079edH
	DW	079eaH
	DW	079dcH
	DW	079deH
	DW	079ddH
	DW	07a86H
	DW	07a89H
	DW	07a85H
	DW	07a8bH
	DW	07a8cH
	DW	07a8aH
	DW	07a87H
	DW	07ad8H
	DW	07b10H
	DW	07b04H
	DW	07b13H
	DW	07b05H
	DW	07b0fH
	DW	07b08H
	DW	07b0aH
	DW	07b0eH
	DW	07b09H
	DW	07b12H
	DW	07c84H
	DW	07c91H
	DW	07c8aH
	DW	07c8cH
	DW	07c88H
	DW	07c8dH
	DW	07c85H
	DW	07d1eH
	DW	07d1dH
	DW	07d11H
	DW	07d0eH
	DW	07d18H
	DW	07d16H
	DW	07d13H
	DW	07d1fH
	DW	07d12H
	DW	07d0fH
	DW	07d0cH
	DW	07f5cH
	DW	07f61H
	DW	07f5eH
	DW	07f60H
	DW	07f5dH
	DW	07f5bH
	DW	07f96H
	DW	07f92H
	DW	07fc3H
	DW	07fc2H
	DW	07fc0H
	DW	08016H
	DW	0803eH
	DW	08039H
	DW	080faH
	DW	080f2H
	DW	080f9H
	DW	080f5H
	DW	08101H
	DW	080fbH
	DW	08100H
	DW	08201H
	DW	0822fH
	DW	08225H
	DW	08333H
	DW	0832dH
	DW	08344H
	DW	08319H
	DW	08351H
	DW	08325H
	DW	08356H
	DW	0833fH
	DW	08341H
	DW	08326H
	DW	0831cH
	DW	08322H
	DW	0fffeH
	DW	0fffeH
	DW	0fffeH
	DW	0fffeH
	DW	0fffeH
	DW	0fffeH
	DW	0fffeH
	DW	0fffeH
	DW	0fffeH
	DW	0fffeH
	DW	0fffeH
	DW	0fffeH
	DW	0fffeH
	DW	0fffeH
	DW	0fffeH
	DW	0fffeH
	DW	0fffeH
	DW	0fffeH
	DW	0fffeH
	DW	0fffeH
	DW	0fffeH
	DW	0fffeH
	DW	0fffeH
	DW	0fffeH
	DW	0fffeH
	DW	0fffeH
	DW	0fffeH
	DW	0fffeH
	DW	0fffeH
	DW	0fffeH
	DW	0fffeH
	DW	0fffeH
	DW	0fffeH
	DW	0fffeH
	DW	08342H
	DW	0834eH
	DW	0831bH
	DW	0832aH
	DW	08308H
	DW	0833cH
	DW	0834dH
	DW	08316H
	DW	08324H
	DW	08320H
	DW	08337H
	DW	0832fH
	DW	08329H
	DW	08347H
	DW	08345H
	DW	0834cH
	DW	08353H
	DW	0831eH
	DW	0832cH
	DW	0834bH
	DW	08327H
	DW	08348H
	DW	08653H
	DW	08652H
	DW	086a2H
	DW	086a8H
	DW	08696H
	DW	0868dH
	DW	08691H
	DW	0869eH
	DW	08687H
	DW	08697H
	DW	08686H
	DW	0868bH
	DW	0869aH
	DW	08685H
	DW	086a5H
	DW	08699H
	DW	086a1H
	DW	086a7H
	DW	08695H
	DW	08698H
	DW	0868eH
	DW	0869dH
	DW	08690H
	DW	08694H
	DW	08843H
	DW	08844H
	DW	0886dH
	DW	08875H
	DW	08876H
	DW	08872H
	DW	08880H
	DW	08871H
	DW	0887fH
	DW	0886fH
	DW	08883H
	DW	0887eH
	DW	08874H
	DW	0887cH
	DW	08a12H
	DW	08c47H
	DW	08c57H
	DW	08c7bH
	DW	08ca4H
	DW	08ca3H
	DW	08d76H
	DW	08d78H
	DW	08db5H
	DW	08db7H
	DW	08db6H
	DW	08ed1H
	DW	08ed3H
	DW	08ffeH
	DW	08ff5H
	DW	09002H
	DW	08fffH
	DW	08ffbH
	DW	09004H
	DW	08ffcH
	DW	08ff6H
	DW	090d6H
	DW	090e0H
	DW	090d9H
	DW	090daH
	DW	090e3H
	DW	090dfH
	DW	090e5H
	DW	090d8H
	DW	090dbH
	DW	090d7H
	DW	090dcH
	DW	090e4H
	DW	09150H
	DW	0914eH
	DW	0914fH
	DW	091d5H
	DW	091e2H
	DW	091daH
	DW	0965cH
	DW	0965fH
	DW	096bcH
	DW	098e3H
	DW	09adfH
	DW	09b2fH
	DW	04e7fH
	DW	05070H
	DW	0506aH
	DW	05061H
	DW	0505eH
	DW	05060H
	DW	05053H
	DW	0504bH
	DW	0505dH
	DW	05072H
	DW	05048H
	DW	0504dH
	DW	05041H
	DW	0505bH
	DW	0504aH
	DW	05062H
	DW	05015H
	DW	05045H
	DW	0505fH
	DW	05069H
	DW	0506bH
	DW	05063H
	DW	05064H
	DW	05046H
	DW	05040H
	DW	0506eH
	DW	05073H
	DW	05057H
	DW	05051H
	DW	051d0H
	DW	0526bH
	DW	0526dH
	DW	0526cH
	DW	0526eH
	DW	052d6H
	DW	052d3H
	DW	0532dH
	DW	0539cH
	DW	05575H
	DW	05576H
	DW	0553cH
	DW	0554dH
	DW	05550H
	DW	05534H
	DW	0552aH
	DW	05551H
	DW	05562H
	DW	05536H
	DW	05535H
	DW	05530H
	DW	05552H
	DW	05545H
	DW	0fffeH
	DW	0fffeH
	DW	0fffeH
	DW	0fffeH
	DW	0fffeH
	DW	0fffeH
	DW	0fffeH
	DW	0fffeH
	DW	0fffeH
	DW	0fffeH
	DW	0fffeH
	DW	0fffeH
	DW	0fffeH
	DW	0fffeH
	DW	0fffeH
	DW	0fffeH
	DW	0fffeH
	DW	0fffeH
	DW	0fffeH
	DW	0fffeH
	DW	0fffeH
	DW	0fffeH
	DW	0fffeH
	DW	0fffeH
	DW	0fffeH
	DW	0fffeH
	DW	0fffeH
	DW	0fffeH
	DW	0fffeH
	DW	0fffeH
	DW	0fffeH
	DW	0fffeH
	DW	0fffeH
	DW	0fffeH
	DW	0550cH
	DW	05532H
	DW	05565H
	DW	0554eH
	DW	05539H
	DW	05548H
	DW	0552dH
	DW	0553bH
	DW	05540H
	DW	0554bH
	DW	0570aH
	DW	05707H
	DW	057fbH
	DW	05814H
	DW	057e2H
	DW	057f6H
	DW	057dcH
	DW	057f4H
	DW	05800H
	DW	057edH
	DW	057fdH
	DW	05808H
	DW	057f8H
	DW	0580bH
	DW	057f3H
	DW	057cfH
	DW	05807H
	DW	057eeH
	DW	057e3H
	DW	057f2H
	DW	057e5H
	DW	057ecH
	DW	057e1H
	DW	0580eH
	DW	057fcH
	DW	05810H
	DW	057e7H
	DW	05801H
	DW	0580cH
	DW	057f1H
	DW	057e9H
	DW	057f0H
	DW	0580dH
	DW	05804H
	DW	0595cH
	DW	05a60H
	DW	05a58H
	DW	05a55H
	DW	05a67H
	DW	05a5eH
	DW	05a38H
	DW	05a35H
	DW	05a6dH
	DW	05a50H
	DW	05a5fH
	DW	05a65H
	DW	05a6cH
	DW	05a53H
	DW	05a64H
	DW	05a57H
	DW	05a43H
	DW	05a5dH
	DW	05a52H
	DW	05a44H
	DW	05a5bH
	DW	05a48H
	DW	05a8eH
	DW	05a3eH
	DW	05a4dH
	DW	05a39H
	DW	05a4cH
	DW	05a70H
	DW	05a69H
	DW	05a47H
	DW	05a51H
	DW	05a56H
	DW	05a42H
	DW	05a5cH
	DW	05b72H
	DW	05b6eH
	DW	05bc1H
	DW	05bc0H
	DW	05c59H
	DW	05d1eH
	DW	05d0bH
	DW	05d1dH
	DW	05d1aH
	DW	05d20H
	DW	05d0cH
	DW	05d28H
	DW	05d0dH
	DW	05d26H
	DW	05d25H
	DW	05d0fH
	DW	05d30H
	DW	05d12H
	DW	05d23H
	DW	05d1fH
	DW	05d2eH
	DW	05e3eH
	DW	05e34H
	DW	05eb1H
	DW	05eb4H
	DW	05eb9H
	DW	05eb2H
	DW	05eb3H
	DW	05f36H
	DW	05f38H
	DW	05f9bH
	DW	05f96H
	DW	05f9fH
	DW	0608aH
	DW	06090H
	DW	06086H
	DW	060beH
	DW	060b0H
	DW	060baH
	DW	060d3H
	DW	060d4H
	DW	060cfH
	DW	060e4H
	DW	060d9H
	DW	060ddH
	DW	060c8H
	DW	060b1H
	DW	060dbH
	DW	060b7H
	DW	060caH
	DW	060bfH
	DW	060c3H
	DW	060cdH
	DW	060c0H
	DW	06332H
	DW	06365H
	DW	0638aH
	DW	06382H
	DW	0637dH
	DW	063bdH
	DW	0639eH
	DW	063adH
	DW	0639dH
	DW	06397H
	DW	063abH
	DW	0638eH
	DW	0636fH
	DW	06387H
	DW	06390H
	DW	0636eH
	DW	063afH
	DW	06375H
	DW	0639cH
	DW	0636dH
	DW	063aeH
	DW	0637cH
	DW	063a4H
	DW	0633bH
	DW	0639fH
	DW	0fffeH
	DW	0fffeH
	DW	0fffeH
	DW	0fffeH
	DW	0fffeH
	DW	0fffeH
	DW	0fffeH
	DW	0fffeH
	DW	0fffeH
	DW	0fffeH
	DW	0fffeH
	DW	0fffeH
	DW	0fffeH
	DW	0fffeH
	DW	0fffeH
	DW	0fffeH
	DW	0fffeH
	DW	0fffeH
	DW	0fffeH
	DW	0fffeH
	DW	0fffeH
	DW	0fffeH
	DW	0fffeH
	DW	0fffeH
	DW	0fffeH
	DW	0fffeH
	DW	0fffeH
	DW	0fffeH
	DW	0fffeH
	DW	0fffeH
	DW	0fffeH
	DW	0fffeH
	DW	0fffeH
	DW	0fffeH
	DW	06378H
	DW	06385H
	DW	06381H
	DW	06391H
	DW	0638dH
	DW	06370H
	DW	06553H
	DW	065cdH
	DW	06665H
	DW	06661H
	DW	0665bH
	DW	06659H
	DW	0665cH
	DW	06662H
	DW	06718H
	DW	06879H
	DW	06887H
	DW	06890H
	DW	0689cH
	DW	0686dH
	DW	0686eH
	DW	068aeH
	DW	068abH
	DW	06956H
	DW	0686fH
	DW	068a3H
	DW	068acH
	DW	068a9H
	DW	06875H
	DW	06874H
	DW	068b2H
	DW	0688fH
	DW	06877H
	DW	06892H
	DW	0687cH
	DW	0686bH
	DW	06872H
	DW	068aaH
	DW	06880H
	DW	06871H
	DW	0687eH
	DW	0689bH
	DW	06896H
	DW	0688bH
	DW	068a0H
	DW	06889H
	DW	068a4H
	DW	06878H
	DW	0687bH
	DW	06891H
	DW	0688cH
	DW	0688aH
	DW	0687dH
	DW	06b36H
	DW	06b33H
	DW	06b37H
	DW	06b38H
	DW	06b91H
	DW	06b8fH
	DW	06b8dH
	DW	06b8eH
	DW	06b8cH
	DW	06c2aH
	DW	06dc0H
	DW	06dabH
	DW	06db4H
	DW	06db3H
	DW	06e74H
	DW	06dacH
	DW	06de9H
	DW	06de2H
	DW	06db7H
	DW	06df6H
	DW	06dd4H
	DW	06e00H
	DW	06dc8H
	DW	06de0H
	DW	06ddfH
	DW	06dd6H
	DW	06dbeH
	DW	06de5H
	DW	06ddcH
	DW	06dddH
	DW	06ddbH
	DW	06df4H
	DW	06dcaH
	DW	06dbdH
	DW	06dedH
	DW	06df0H
	DW	06dbaH
	DW	06dd5H
	DW	06dc2H
	DW	06dcfH
	DW	06dc9H
	DW	06dd0H
	DW	06df2H
	DW	06dd3H
	DW	06dfdH
	DW	06dd7H
	DW	06dcdH
	DW	06de3H
	DW	06dbbH
	DW	070faH
	DW	0710dH
	DW	070f7H
	DW	07117H
	DW	070f4H
	DW	0710cH
	DW	070f0H
	DW	07104H
	DW	070f3H
	DW	07110H
	DW	070fcH
	DW	070ffH
	DW	07106H
	DW	07113H
	DW	07100H
	DW	070f8H
	DW	070f6H
	DW	0710bH
	DW	07102H
	DW	0710eH
	DW	0727eH
	DW	0727bH
	DW	0727cH
	DW	0727fH
	DW	0731dH
	DW	07317H
	DW	07307H
	DW	07311H
	DW	07318H
	DW	0730aH
	DW	07308H
	DW	072ffH
	DW	0730fH
	DW	0731eH
	DW	07388H
	DW	073f6H
	DW	073f8H
	DW	073f5H
	DW	07404H
	DW	07401H
	DW	073fdH
	DW	07407H
	DW	07400H
	DW	073faH
	DW	073fcH
	DW	073ffH
	DW	0740cH
	DW	0740bH
	DW	073f4H
	DW	07408H
	DW	07564H
	DW	07563H
	DW	075ceH
	DW	075d2H
	DW	075cfH
	DW	0fffeH
	DW	0fffeH
	DW	0fffeH
	DW	0fffeH
	DW	0fffeH
	DW	0fffeH
	DW	0fffeH
	DW	0fffeH
	DW	0fffeH
	DW	0fffeH
	DW	0fffeH
	DW	0fffeH
	DW	0fffeH
	DW	0fffeH
	DW	0fffeH
	DW	0fffeH
	DW	0fffeH
	DW	0fffeH
	DW	0fffeH
	DW	0fffeH
	DW	0fffeH
	DW	0fffeH
	DW	0fffeH
	DW	0fffeH
	DW	0fffeH
	DW	0fffeH
	DW	0fffeH
	DW	0fffeH
	DW	0fffeH
	DW	0fffeH
	DW	0fffeH
	DW	0fffeH
	DW	0fffeH
	DW	0fffeH
	DW	075cbH
	DW	075ccH
	DW	075d1H
	DW	075d0H
	DW	0768fH
	DW	07689H
	DW	076d3H
	DW	07739H
	DW	0772fH
	DW	0772dH
	DW	07731H
	DW	07732H
	DW	07734H
	DW	07733H
	DW	0773dH
	DW	07725H
	DW	0773bH
	DW	07735H
	DW	07848H
	DW	07852H
	DW	07849H
	DW	0784dH
	DW	0784aH
	DW	0784cH
	DW	07826H
	DW	07845H
	DW	07850H
	DW	07964H
	DW	07967H
	DW	07969H
	DW	0796aH
	DW	07963H
	DW	0796bH
	DW	07961H
	DW	079bbH
	DW	079faH
	DW	079f8H
	DW	079f6H
	DW	079f7H
	DW	07a8fH
	DW	07a94H
	DW	07a90H
	DW	07b35H
	DW	07b47H
	DW	07b34H
	DW	07b25H
	DW	07b30H
	DW	07b22H
	DW	07b24H
	DW	07b33H
	DW	07b18H
	DW	07b2aH
	DW	07b1dH
	DW	07b31H
	DW	07b2bH
	DW	07b2dH
	DW	07b2fH
	DW	07b32H
	DW	07b38H
	DW	07b1aH
	DW	07b23H
	DW	07c94H
	DW	07c98H
	DW	07c96H
	DW	07ca3H
	DW	07d35H
	DW	07d3dH
	DW	07d38H
	DW	07d36H
	DW	07d3aH
	DW	07d45H
	DW	07d2cH
	DW	07d29H
	DW	07d41H
	DW	07d47H
	DW	07d3eH
	DW	07d3fH
	DW	07d4aH
	DW	07d3bH
	DW	07d28H
	DW	07f63H
	DW	07f95H
	DW	07f9cH
	DW	07f9dH
	DW	07f9bH
	DW	07fcaH
	DW	07fcbH
	DW	07fcdH
	DW	07fd0H
	DW	07fd1H
	DW	07fc7H
	DW	07fcfH
	DW	07fc9H
	DW	0801fH
	DW	0801eH
	DW	0801bH
	DW	08047H
	DW	08043H
	DW	08048H
	DW	08118H
	DW	08125H
	DW	08119H
	DW	0811bH
	DW	0812dH
	DW	0811fH
	DW	0812cH
	DW	0811eH
	DW	08121H
	DW	08115H
	DW	08127H
	DW	0811dH
	DW	08122H
	DW	08211H
	DW	08238H
	DW	08233H
	DW	0823aH
	DW	08234H
	DW	08232H
	DW	08274H
	DW	08390H
	DW	083a3H
	DW	083a8H
	DW	0838dH
	DW	0837aH
	DW	08373H
	DW	083a4H
	DW	08374H
	DW	0838fH
	DW	08381H
	DW	08395H
	DW	08399H
	DW	08375H
	DW	08394H
	DW	083a9H
	DW	0837dH
	DW	08383H
	DW	0838cH
	DW	0839dH
	DW	0839bH
	DW	083aaH
	DW	0838bH
	DW	0837eH
	DW	083a5H
	DW	083afH
	DW	08388H
	DW	08397H
	DW	083b0H
	DW	0837fH
	DW	083a6H
	DW	08387H
	DW	083aeH
	DW	08376H
	DW	0839aH
	DW	08659H
	DW	08656H
	DW	086bfH
	DW	086b7H
	DW	0fffeH
	DW	0fffeH
	DW	0fffeH
	DW	0fffeH
	DW	0fffeH
	DW	0fffeH
	DW	0fffeH
	DW	0fffeH
	DW	0fffeH
	DW	0fffeH
	DW	0fffeH
	DW	0fffeH
	DW	0fffeH
	DW	0fffeH
	DW	0fffeH
	DW	0fffeH
	DW	0fffeH
	DW	0fffeH
	DW	0fffeH
	DW	0fffeH
	DW	0fffeH
	DW	0fffeH
	DW	0fffeH
	DW	0fffeH
	DW	0fffeH
	DW	0fffeH
	DW	0fffeH
	DW	0fffeH
	DW	0fffeH
	DW	0fffeH
	DW	0fffeH
	DW	0fffeH
	DW	0fffeH
	DW	0fffeH
	DW	086c2H
	DW	086c1H
	DW	086c5H
	DW	086baH
	DW	086b0H
	DW	086c8H
	DW	086b9H
	DW	086b3H
	DW	086b8H
	DW	086ccH
	DW	086b4H
	DW	086bbH
	DW	086bcH
	DW	086c3H
	DW	086bdH
	DW	086beH
	DW	08852H
	DW	08889H
	DW	08895H
	DW	088a8H
	DW	088a2H
	DW	088aaH
	DW	0889aH
	DW	08891H
	DW	088a1H
	DW	0889fH
	DW	08898H
	DW	088a7H
	DW	08899H
	DW	0889bH
	DW	08897H
	DW	088a4H
	DW	088acH
	DW	0888cH
	DW	08893H
	DW	0888eH
	DW	08982H
	DW	089d6H
	DW	089d9H
	DW	089d5H
	DW	08a30H
	DW	08a27H
	DW	08a2cH
	DW	08a1eH
	DW	08c39H
	DW	08c3bH
	DW	08c5cH
	DW	08c5dH
	DW	08c7dH
	DW	08ca5H
	DW	08d7dH
	DW	08d7bH
	DW	08d79H
	DW	08dbcH
	DW	08dc2H
	DW	08db9H
	DW	08dbfH
	DW	08dc1H
	DW	08ed8H
	DW	08edeH
	DW	08eddH
	DW	08edcH
	DW	08ed7H
	DW	08ee0H
	DW	08ee1H
	DW	09024H
	DW	0900bH
	DW	09011H
	DW	0901cH
	DW	0900cH
	DW	09021H
	DW	090efH
	DW	090eaH
	DW	090f0H
	DW	090f4H
	DW	090f2H
	DW	090f3H
	DW	090d4H
	DW	090ebH
	DW	090ecH
	DW	090e9H
	DW	09156H
	DW	09158H
	DW	0915aH
	DW	09153H
	DW	09155H
	DW	091ecH
	DW	091f4H
	DW	091f1H
	DW	091f3H
	DW	091f8H
	DW	091e4H
	DW	091f9H
	DW	091eaH
	DW	091ebH
	DW	091f7H
	DW	091e8H
	DW	091eeH
	DW	0957aH
	DW	09586H
	DW	09588H
	DW	0967cH
	DW	0966dH
	DW	0966bH
	DW	09671H
	DW	0966fH
	DW	096bfH
	DW	0976aH
	DW	09804H
	DW	098e5H
	DW	09997H
	DW	0509bH
	DW	05095H
	DW	05094H
	DW	0509eH
	DW	0508bH
	DW	050a3H
	DW	05083H
	DW	0508cH
	DW	0508eH
	DW	0509dH
	DW	05068H
	DW	0509cH
	DW	05092H
	DW	05082H
	DW	05087H
	DW	0515fH
	DW	051d4H
	DW	05312H
	DW	05311H
	DW	053a4H
	DW	053a7H
	DW	05591H
	DW	055a8H
	DW	055a5H
	DW	055adH
	DW	05577H
	DW	05645H
	DW	055a2H
	DW	05593H
	DW	05588H
	DW	0558fH
	DW	055b5H
	DW	05581H
	DW	055a3H
	DW	05592H
	DW	055a4H
	DW	0557dH
	DW	0558cH
	DW	055a6H
	DW	0557fH
	DW	05595H
	DW	055a1H
	DW	0558eH
	DW	0570cH
	DW	05829H
	DW	05837H
	DW	0fffeH
	DW	0fffeH
	DW	0fffeH
	DW	0fffeH
	DW	0fffeH
	DW	0fffeH
	DW	0fffeH
	DW	0fffeH
	DW	0fffeH
	DW	0fffeH
	DW	0fffeH
	DW	0fffeH
	DW	0fffeH
	DW	0fffeH
	DW	0fffeH
	DW	0fffeH
	DW	0fffeH
	DW	0fffeH
	DW	0fffeH
	DW	0fffeH
	DW	0fffeH
	DW	0fffeH
	DW	0fffeH
	DW	0fffeH
	DW	0fffeH
	DW	0fffeH
	DW	0fffeH
	DW	0fffeH
	DW	0fffeH
	DW	0fffeH
	DW	0fffeH
	DW	0fffeH
	DW	0fffeH
	DW	0fffeH
	DW	05819H
	DW	0581eH
	DW	05827H
	DW	05823H
	DW	05828H
	DW	057f5H
	DW	05848H
	DW	05825H
	DW	0581cH
	DW	0581bH
	DW	05833H
	DW	0583fH
	DW	05836H
	DW	0582eH
	DW	05839H
	DW	05838H
	DW	0582dH
	DW	0582cH
	DW	0583bH
	DW	05961H
	DW	05aafH
	DW	05a94H
	DW	05a9fH
	DW	05a7aH
	DW	05aa2H
	DW	05a9eH
	DW	05a78H
	DW	05aa6H
	DW	05a7cH
	DW	05aa5H
	DW	05aacH
	DW	05a95H
	DW	05aaeH
	DW	05a37H
	DW	05a84H
	DW	05a8aH
	DW	05a97H
	DW	05a83H
	DW	05a8bH
	DW	05aa9H
	DW	05a7bH
	DW	05a7dH
	DW	05a8cH
	DW	05a9cH
	DW	05a8fH
	DW	05a93H
	DW	05a9dH
	DW	05beaH
	DW	05bcdH
	DW	05bcbH
	DW	05bd4H
	DW	05bd1H
	DW	05bcaH
	DW	05bceH
	DW	05c0cH
	DW	05c30H
	DW	05d37H
	DW	05d43H
	DW	05d6bH
	DW	05d41H
	DW	05d4bH
	DW	05d3fH
	DW	05d35H
	DW	05d51H
	DW	05d4eH
	DW	05d55H
	DW	05d33H
	DW	05d3aH
	DW	05d52H
	DW	05d3dH
	DW	05d31H
	DW	05d59H
	DW	05d42H
	DW	05d39H
	DW	05d49H
	DW	05d38H
	DW	05d3cH
	DW	05d32H
	DW	05d36H
	DW	05d40H
	DW	05d45H
	DW	05e44H
	DW	05e41H
	DW	05f58H
	DW	05fa6H
	DW	05fa5H
	DW	05fabH
	DW	060c9H
	DW	060b9H
	DW	060ccH
	DW	060e2H
	DW	060ceH
	DW	060c4H
	DW	06114H
	DW	060f2H
	DW	0610aH
	DW	06116H
	DW	06105H
	DW	060f5H
	DW	06113H
	DW	060f8H
	DW	060fcH
	DW	060feH
	DW	060c1H
	DW	06103H
	DW	06118H
	DW	0611dH
	DW	06110H
	DW	060ffH
	DW	06104H
	DW	0610bH
	DW	0624aH
	DW	06394H
	DW	063b1H
	DW	063b0H
	DW	063ceH
	DW	063e5H
	DW	063e8H
	DW	063efH
	DW	063c3H
	DW	0649dH
	DW	063f3H
	DW	063caH
	DW	063e0H
	DW	063f6H
	DW	063d5H
	DW	063f2H
	DW	063f5H
	DW	06461H
	DW	063dfH
	DW	063beH
	DW	063ddH
	DW	063dcH
	DW	063c4H
	DW	063d8H
	DW	063d3H
	DW	063c2H
	DW	063c7H
	DW	063ccH
	DW	063cbH
	DW	063c8H
	DW	063f0H
	DW	063d7H
	DW	063d9H
	DW	06532H
	DW	06567H
	DW	0656aH
	DW	06564H
	DW	0655cH
	DW	06568H
	DW	06565H
	DW	0658cH
	DW	0659dH
	DW	0659eH
	DW	065aeH
	DW	065d0H
	DW	065d2H
	DW	0fffeH
	DW	0fffeH
	DW	0fffeH
	DW	0fffeH
	DW	0fffeH
	DW	0fffeH
	DW	0fffeH
	DW	0fffeH
	DW	0fffeH
	DW	0fffeH
	DW	0fffeH
	DW	0fffeH
	DW	0fffeH
	DW	0fffeH
	DW	0fffeH
	DW	0fffeH
	DW	0fffeH
	DW	0fffeH
	DW	0fffeH
	DW	0fffeH
	DW	0fffeH
	DW	0fffeH
	DW	0fffeH
	DW	0fffeH
	DW	0fffeH
	DW	0fffeH
	DW	0fffeH
	DW	0fffeH
	DW	0fffeH
	DW	0fffeH
	DW	0fffeH
	DW	0fffeH
	DW	0fffeH
	DW	0fffeH
	DW	0667cH
	DW	0666cH
	DW	0667bH
	DW	06680H
	DW	06671H
	DW	06679H
	DW	0666aH
	DW	06672H
	DW	06701H
	DW	0690cH
	DW	068d3H
	DW	06904H
	DW	068dcH
	DW	0692aH
	DW	068ecH
	DW	068eaH
	DW	068f1H
	DW	0690fH
	DW	068d6H
	DW	068f7H
	DW	068ebH
	DW	068e4H
	DW	068f6H
	DW	06913H
	DW	06910H
	DW	068f3H
	DW	068e1H
	DW	06907H
	DW	068ccH
	DW	06908H
	DW	06970H
	DW	068b4H
	DW	06911H
	DW	068efH
	DW	068c6H
	DW	06914H
	DW	068f8H
	DW	068d0H
	DW	068fdH
	DW	068fcH
	DW	068e8H
	DW	0690bH
	DW	0690aH
	DW	06917H
	DW	068ceH
	DW	068c8H
	DW	068ddH
	DW	068deH
	DW	068e6H
	DW	068f4H
	DW	068d1H
	DW	06906H
	DW	068d4H
	DW	068e9H
	DW	06915H
	DW	06925H
	DW	068c7H
	DW	06b39H
	DW	06b3bH
	DW	06b3fH
	DW	06b3cH
	DW	06b94H
	DW	06b97H
	DW	06b99H
	DW	06b95H
	DW	06bbdH
	DW	06bf0H
	DW	06bf2H
	DW	06bf3H
	DW	06c30H
	DW	06dfcH
	DW	06e46H
	DW	06e47H
	DW	06e1fH
	DW	06e49H
	DW	06e88H
	DW	06e3cH
	DW	06e3dH
	DW	06e45H
	DW	06e62H
	DW	06e2bH
	DW	06e3fH
	DW	06e41H
	DW	06e5dH
	DW	06e73H
	DW	06e1cH
	DW	06e33H
	DW	06e4bH
	DW	06e40H
	DW	06e51H
	DW	06e3bH
	DW	06e03H
	DW	06e2eH
	DW	06e5eH
	DW	06e68H
	DW	06e5cH
	DW	06e61H
	DW	06e31H
	DW	06e28H
	DW	06e60H
	DW	06e71H
	DW	06e6bH
	DW	06e39H
	DW	06e22H
	DW	06e30H
	DW	06e53H
	DW	06e65H
	DW	06e27H
	DW	06e78H
	DW	06e64H
	DW	06e77H
	DW	06e55H
	DW	06e79H
	DW	06e52H
	DW	06e66H
	DW	06e35H
	DW	06e36H
	DW	06e5aH
	DW	07120H
	DW	0711eH
	DW	0712fH
	DW	070fbH
	DW	0712eH
	DW	07131H
	DW	07123H
	DW	07125H
	DW	07122H
	DW	07132H
	DW	0711fH
	DW	07128H
	DW	0713aH
	DW	0711bH
	DW	0724bH
	DW	0725aH
	DW	07288H
	DW	07289H
	DW	07286H
	DW	07285H
	DW	0728bH
	DW	07312H
	DW	0730bH
	DW	07330H
	DW	07322H
	DW	07331H
	DW	07333H
	DW	07327H
	DW	07332H
	DW	0732dH
	DW	07326H
	DW	07323H
	DW	07335H
	DW	0730cH
	DW	0742eH
	DW	0742cH
	DW	07430H
	DW	0742bH
	DW	07416H
	DW	0fffeH
	DW	0fffeH
	DW	0fffeH
	DW	0fffeH
	DW	0fffeH
	DW	0fffeH
	DW	0fffeH
	DW	0fffeH
	DW	0fffeH
	DW	0fffeH
	DW	0fffeH
	DW	0fffeH
	DW	0fffeH
	DW	0fffeH
	DW	0fffeH
	DW	0fffeH
	DW	0fffeH
	DW	0fffeH
	DW	0fffeH
	DW	0fffeH
	DW	0fffeH
	DW	0fffeH
	DW	0fffeH
	DW	0fffeH
	DW	0fffeH
	DW	0fffeH
	DW	0fffeH
	DW	0fffeH
	DW	0fffeH
	DW	0fffeH
	DW	0fffeH
	DW	0fffeH
	DW	0fffeH
	DW	0fffeH
	DW	0741aH
	DW	07421H
	DW	0742dH
	DW	07431H
	DW	07424H
	DW	07423H
	DW	0741dH
	DW	07429H
	DW	07420H
	DW	07432H
	DW	074fbH
	DW	0752fH
	DW	0756fH
	DW	0756cH
	DW	075e7H
	DW	075daH
	DW	075e1H
	DW	075e6H
	DW	075ddH
	DW	075dfH
	DW	075e4H
	DW	075d7H
	DW	07695H
	DW	07692H
	DW	076daH
	DW	07746H
	DW	07747H
	DW	07744H
	DW	0774dH
	DW	07745H
	DW	0774aH
	DW	0774eH
	DW	0774bH
	DW	0774cH
	DW	077deH
	DW	077ecH
	DW	07860H
	DW	07864H
	DW	07865H
	DW	0785cH
	DW	0786dH
	DW	07871H
	DW	0786aH
	DW	0786eH
	DW	07870H
	DW	07869H
	DW	07868H
	DW	0785eH
	DW	07862H
	DW	07974H
	DW	07973H
	DW	07972H
	DW	07970H
	DW	07a02H
	DW	07a0aH
	DW	07a03H
	DW	07a0cH
	DW	07a04H
	DW	07a99H
	DW	07ae6H
	DW	07ae4H
	DW	07b4aH
	DW	07b3bH
	DW	07b44H
	DW	07b48H
	DW	07b4cH
	DW	07b4eH
	DW	07b40H
	DW	07b58H
	DW	07b45H
	DW	07ca2H
	DW	07c9eH
	DW	07ca8H
	DW	07ca1H
	DW	07d58H
	DW	07d6fH
	DW	07d63H
	DW	07d53H
	DW	07d56H
	DW	07d67H
	DW	07d6aH
	DW	07d4fH
	DW	07d6dH
	DW	07d5cH
	DW	07d6bH
	DW	07d52H
	DW	07d54H
	DW	07d69H
	DW	07d51H
	DW	07d5fH
	DW	07d4eH
	DW	07f3eH
	DW	07f3fH
	DW	07f65H
	DW	07f66H
	DW	07fa2H
	DW	07fa0H
	DW	07fa1H
	DW	07fd7H
	DW	08051H
	DW	0804fH
	DW	08050H
	DW	080feH
	DW	080d4H
	DW	08143H
	DW	0814aH
	DW	08152H
	DW	0814fH
	DW	08147H
	DW	0813dH
	DW	0814dH
	DW	0813aH
	DW	081e6H
	DW	081eeH
	DW	081f7H
	DW	081f8H
	DW	081f9H
	DW	08204H
	DW	0823cH
	DW	0823dH
	DW	0823fH
	DW	08275H
	DW	0833bH
	DW	083cfH
	DW	083f9H
	DW	08423H
	DW	083c0H
	DW	083e8H
	DW	08412H
	DW	083e7H
	DW	083e4H
	DW	083fcH
	DW	083f6H
	DW	08410H
	DW	083c6H
	DW	083c8H
	DW	083ebH
	DW	083e3H
	DW	083bfH
	DW	08401H
	DW	083ddH
	DW	083e5H
	DW	083d8H
	DW	083ffH
	DW	083e1H
	DW	083cbH
	DW	083ceH
	DW	083d6H
	DW	083f5H
	DW	083c9H
	DW	08409H
	DW	0840fH
	DW	083deH
	DW	08411H
	DW	08406H
	DW	083c2H
	DW	083f3H
	DW	0fffeH
	DW	0fffeH
	DW	0fffeH
	DW	0fffeH
	DW	0fffeH
	DW	0fffeH
	DW	0fffeH
	DW	0fffeH
	DW	0fffeH
	DW	0fffeH
	DW	0fffeH
	DW	0fffeH
	DW	0fffeH
	DW	0fffeH
	DW	0fffeH
	DW	0fffeH
	DW	0fffeH
	DW	0fffeH
	DW	0fffeH
	DW	0fffeH
	DW	0fffeH
	DW	0fffeH
	DW	0fffeH
	DW	0fffeH
	DW	0fffeH
	DW	0fffeH
	DW	0fffeH
	DW	0fffeH
	DW	0fffeH
	DW	0fffeH
	DW	0fffeH
	DW	0fffeH
	DW	0fffeH
	DW	0fffeH
	DW	083d5H
	DW	083faH
	DW	083c7H
	DW	083d1H
	DW	083eaH
	DW	08413H
	DW	083c3H
	DW	083ecH
	DW	083eeH
	DW	083c4H
	DW	083fbH
	DW	083d7H
	DW	083e2H
	DW	0841bH
	DW	083dbH
	DW	083feH
	DW	086d8H
	DW	086e2H
	DW	086e6H
	DW	086d3H
	DW	086e3H
	DW	086daH
	DW	086eaH
	DW	086ddH
	DW	086ebH
	DW	086dcH
	DW	086ecH
	DW	086e9H
	DW	086d7H
	DW	086e8H
	DW	086d1H
	DW	08848H
	DW	08856H
	DW	08855H
	DW	088baH
	DW	088d7H
	DW	088b9H
	DW	088b8H
	DW	088c0H
	DW	088beH
	DW	088b6H
	DW	088bcH
	DW	088b7H
	DW	088bdH
	DW	088b2H
	DW	08901H
	DW	088c9H
	DW	08995H
	DW	08998H
	DW	08997H
	DW	089ddH
	DW	089daH
	DW	089dbH
	DW	08a4eH
	DW	08a4dH
	DW	08a39H
	DW	08a59H
	DW	08a40H
	DW	08a57H
	DW	08a58H
	DW	08a44H
	DW	08a45H
	DW	08a52H
	DW	08a48H
	DW	08a51H
	DW	08a4aH
	DW	08a4cH
	DW	08a4fH
	DW	08c5fH
	DW	08c81H
	DW	08c80H
	DW	08cbaH
	DW	08cbeH
	DW	08cb0H
	DW	08cb9H
	DW	08cb5H
	DW	08d84H
	DW	08d80H
	DW	08d89H
	DW	08dd8H
	DW	08dd3H
	DW	08dcdH
	DW	08dc7H
	DW	08dd6H
	DW	08ddcH
	DW	08dcfH
	DW	08dd5H
	DW	08dd9H
	DW	08dc8H
	DW	08dd7H
	DW	08dc5H
	DW	08eefH
	DW	08ef7H
	DW	08efaH
	DW	08ef9H
	DW	08ee6H
	DW	08eeeH
	DW	08ee5H
	DW	08ef5H
	DW	08ee7H
	DW	08ee8H
	DW	08ef6H
	DW	08eebH
	DW	08ef1H
	DW	08eecH
	DW	08ef4H
	DW	08ee9H
	DW	0902dH
	DW	09034H
	DW	0902fH
	DW	09106H
	DW	0912cH
	DW	09104H
	DW	090ffH
	DW	090fcH
	DW	09108H
	DW	090f9H
	DW	090fbH
	DW	09101H
	DW	09100H
	DW	09107H
	DW	09105H
	DW	09103H
	DW	09161H
	DW	09164H
	DW	0915fH
	DW	09162H
	DW	09160H
	DW	09201H
	DW	0920aH
	DW	09225H
	DW	09203H
	DW	0921aH
	DW	09226H
	DW	0920fH
	DW	0920cH
	DW	09200H
	DW	09212H
	DW	091ffH
	DW	091fdH
	DW	09206H
	DW	09204H
	DW	09227H
	DW	09202H
	DW	0921cH
	DW	09224H
	DW	09219H
	DW	09217H
	DW	09205H
	DW	09216H
	DW	0957bH
	DW	0958dH
	DW	0958cH
	DW	09590H
	DW	09687H
	DW	0967eH
	DW	09688H
	DW	0fffeH
	DW	0fffeH
	DW	0fffeH
	DW	0fffeH
	DW	0fffeH
	DW	0fffeH
	DW	0fffeH
	DW	0fffeH
	DW	0fffeH
	DW	0fffeH
	DW	0fffeH
	DW	0fffeH
	DW	0fffeH
	DW	0fffeH
	DW	0fffeH
	DW	0fffeH
	DW	0fffeH
	DW	0fffeH
	DW	0fffeH
	DW	0fffeH
	DW	0fffeH
	DW	0fffeH
	DW	0fffeH
	DW	0fffeH
	DW	0fffeH
	DW	0fffeH
	DW	0fffeH
	DW	0fffeH
	DW	0fffeH
	DW	0fffeH
	DW	0fffeH
	DW	0fffeH
	DW	0fffeH
	DW	0fffeH
	DW	09689H
	DW	09683H
	DW	09680H
	DW	096c2H
	DW	096c8H
	DW	096c3H
	DW	096f1H
	DW	096f0H
	DW	0976cH
	DW	09770H
	DW	0976eH
	DW	09807H
	DW	098a9H
	DW	098ebH
	DW	09ce6H
	DW	09ef9H
	DW	04e83H
	DW	04e84H
	DW	04eb6H
	DW	050bdH
	DW	050bfH
	DW	050c6H
	DW	050aeH
	DW	050c4H
	DW	050caH
	DW	050b4H
	DW	050c8H
	DW	050c2H
	DW	050b0H
	DW	050c1H
	DW	050baH
	DW	050b1H
	DW	050cbH
	DW	050c9H
	DW	050b6H
	DW	050b8H
	DW	051d7H
	DW	0527aH
	DW	05278H
	DW	0527bH
	DW	0527cH
	DW	055c3H
	DW	055dbH
	DW	055ccH
	DW	055d0H
	DW	055cbH
	DW	055caH
	DW	055ddH
	DW	055c0H
	DW	055d4H
	DW	055c4H
	DW	055e9H
	DW	055bfH
	DW	055d2H
	DW	0558dH
	DW	055cfH
	DW	055d5H
	DW	055e2H
	DW	055d6H
	DW	055c8H
	DW	055f2H
	DW	055cdH
	DW	055d9H
	DW	055c2H
	DW	05714H
	DW	05853H
	DW	05868H
	DW	05864H
	DW	0584fH
	DW	0584dH
	DW	05849H
	DW	0586fH
	DW	05855H
	DW	0584eH
	DW	0585dH
	DW	05859H
	DW	05865H
	DW	0585bH
	DW	0583dH
	DW	05863H
	DW	05871H
	DW	058fcH
	DW	05ac7H
	DW	05ac4H
	DW	05acbH
	DW	05abaH
	DW	05ab8H
	DW	05ab1H
	DW	05ab5H
	DW	05ab0H
	DW	05abfH
	DW	05ac8H
	DW	05abbH
	DW	05ac6H
	DW	05ab7H
	DW	05ac0H
	DW	05acaH
	DW	05ab4H
	DW	05ab6H
	DW	05acdH
	DW	05ab9H
	DW	05a90H
	DW	05bd6H
	DW	05bd8H
	DW	05bd9H
	DW	05c1fH
	DW	05c33H
	DW	05d71H
	DW	05d63H
	DW	05d4aH
	DW	05d65H
	DW	05d72H
	DW	05d6cH
	DW	05d5eH
	DW	05d68H
	DW	05d67H
	DW	05d62H
	DW	05df0H
	DW	05e4fH
	DW	05e4eH
	DW	05e4aH
	DW	05e4dH
	DW	05e4bH
	DW	05ec5H
	DW	05eccH
	DW	05ec6H
	DW	05ecbH
	DW	05ec7H
	DW	05f40H
	DW	05fafH
	DW	05fadH
	DW	060f7H
	DW	06149H
	DW	0614aH
	DW	0612bH
	DW	06145H
	DW	06136H
	DW	06132H
	DW	0612eH
	DW	06146H
	DW	0612fH
	DW	0614fH
	DW	06129H
	DW	06140H
	DW	06220H
	DW	09168H
	DW	06223H
	DW	06225H
	DW	06224H
	DW	063c5H
	DW	063f1H
	DW	063ebH
	DW	06410H
	DW	06412H
	DW	06409H
	DW	06420H
	DW	06424H
	DW	0fffeH
	DW	0fffeH
	DW	0fffeH
	DW	0fffeH
	DW	0fffeH
	DW	0fffeH
	DW	0fffeH
	DW	0fffeH
	DW	0fffeH
	DW	0fffeH
	DW	0fffeH
	DW	0fffeH
	DW	0fffeH
	DW	0fffeH
	DW	0fffeH
	DW	0fffeH
	DW	0fffeH
	DW	0fffeH
	DW	0fffeH
	DW	0fffeH
	DW	0fffeH
	DW	0fffeH
	DW	0fffeH
	DW	0fffeH
	DW	0fffeH
	DW	0fffeH
	DW	0fffeH
	DW	0fffeH
	DW	0fffeH
	DW	0fffeH
	DW	0fffeH
	DW	0fffeH
	DW	0fffeH
	DW	0fffeH
	DW	06433H
	DW	06443H
	DW	0641fH
	DW	06415H
	DW	06418H
	DW	06439H
	DW	06437H
	DW	06422H
	DW	06423H
	DW	0640cH
	DW	06426H
	DW	06430H
	DW	06428H
	DW	06441H
	DW	06435H
	DW	0642fH
	DW	0640aH
	DW	0641aH
	DW	06440H
	DW	06425H
	DW	06427H
	DW	0640bH
	DW	063e7H
	DW	0641bH
	DW	0642eH
	DW	06421H
	DW	0640eH
	DW	0656fH
	DW	06592H
	DW	065d3H
	DW	06686H
	DW	0668cH
	DW	06695H
	DW	06690H
	DW	0668bH
	DW	0668aH
	DW	06699H
	DW	06694H
	DW	06678H
	DW	06720H
	DW	06966H
	DW	0695fH
	DW	06938H
	DW	0694eH
	DW	06962H
	DW	06971H
	DW	0693fH
	DW	06945H
	DW	0696aH
	DW	06939H
	DW	06942H
	DW	06957H
	DW	06959H
	DW	0697aH
	DW	06948H
	DW	06949H
	DW	06935H
	DW	0696cH
	DW	06933H
	DW	0693dH
	DW	06965H
	DW	068f0H
	DW	06978H
	DW	06934H
	DW	06969H
	DW	06940H
	DW	0696fH
	DW	06944H
	DW	06976H
	DW	06958H
	DW	06941H
	DW	06974H
	DW	0694cH
	DW	0693bH
	DW	0694bH
	DW	06937H
	DW	0695cH
	DW	0694fH
	DW	06951H
	DW	06932H
	DW	06952H
	DW	0692fH
	DW	0697bH
	DW	0693cH
	DW	06b46H
	DW	06b45H
	DW	06b43H
	DW	06b42H
	DW	06b48H
	DW	06b41H
	DW	06b9bH
	DW	0fa0dH
	DW	06bfbH
	DW	06bfcH
	DW	06bf9H
	DW	06bf7H
	DW	06bf8H
	DW	06e9bH
	DW	06ed6H
	DW	06ec8H
	DW	06e8fH
	DW	06ec0H
	DW	06e9fH
	DW	06e93H
	DW	06e94H
	DW	06ea0H
	DW	06eb1H
	DW	06eb9H
	DW	06ec6H
	DW	06ed2H
	DW	06ebdH
	DW	06ec1H
	DW	06e9eH
	DW	06ec9H
	DW	06eb7H
	DW	06eb0H
	DW	06ecdH
	DW	06ea6H
	DW	06ecfH
	DW	06eb2H
	DW	06ebeH
	DW	06ec3H
	DW	06edcH
	DW	06ed8H
	DW	06e99H
	DW	06e92H
	DW	06e8eH
	DW	06e8dH
	DW	06ea4H
	DW	06ea1H
	DW	06ebfH
	DW	06eb3H
	DW	06ed0H
	DW	06ecaH
	DW	06e97H
	DW	06eaeH
	DW	06ea3H
	DW	07147H
	DW	07154H
	DW	07152H
	DW	07163H
	DW	07160H
	DW	07141H
	DW	0715dH
	DW	07162H
	DW	07172H
	DW	07178H
	DW	0716aH
	DW	07161H
	DW	07142H
	DW	07158H
	DW	07143H
	DW	0714bH
	DW	07170H
	DW	0715fH
	DW	07150H
	DW	07153H
	DW	0fffeH
	DW	0fffeH
	DW	0fffeH
	DW	0fffeH
	DW	0fffeH
	DW	0fffeH
	DW	0fffeH
	DW	0fffeH
	DW	0fffeH
	DW	0fffeH
	DW	0fffeH
	DW	0fffeH
	DW	0fffeH
	DW	0fffeH
	DW	0fffeH
	DW	0fffeH
	DW	0fffeH
	DW	0fffeH
	DW	0fffeH
	DW	0fffeH
	DW	0fffeH
	DW	0fffeH
	DW	0fffeH
	DW	0fffeH
	DW	0fffeH
	DW	0fffeH
	DW	0fffeH
	DW	0fffeH
	DW	0fffeH
	DW	0fffeH
	DW	0fffeH
	DW	0fffeH
	DW	0fffeH
	DW	0fffeH
	DW	07144H
	DW	0714dH
	DW	0715aH
	DW	0724fH
	DW	0728dH
	DW	0728cH
	DW	07291H
	DW	07290H
	DW	0728eH
	DW	0733cH
	DW	07342H
	DW	0733bH
	DW	0733aH
	DW	07340H
	DW	0734aH
	DW	07349H
	DW	07444H
	DW	0744aH
	DW	0744bH
	DW	07452H
	DW	07451H
	DW	07457H
	DW	07440H
	DW	0744fH
	DW	07450H
	DW	0744eH
	DW	07442H
	DW	07446H
	DW	0744dH
	DW	07454H
	DW	074e1H
	DW	074ffH
	DW	074feH
	DW	074fdH
	DW	0751dH
	DW	07579H
	DW	07577H
	DW	06983H
	DW	075efH
	DW	0760fH
	DW	07603H
	DW	075f7H
	DW	075feH
	DW	075fcH
	DW	075f9H
	DW	075f8H
	DW	07610H
	DW	075fbH
	DW	075f6H
	DW	075edH
	DW	075f5H
	DW	075fdH
	DW	07699H
	DW	076b5H
	DW	076ddH
	DW	07755H
	DW	0775fH
	DW	07760H
	DW	07752H
	DW	07756H
	DW	0775aH
	DW	07769H
	DW	07767H
	DW	07754H
	DW	07759H
	DW	0776dH
	DW	077e0H
	DW	07887H
	DW	0789aH
	DW	07894H
	DW	0788fH
	DW	07884H
	DW	07895H
	DW	07885H
	DW	07886H
	DW	078a1H
	DW	07883H
	DW	07879H
	DW	07899H
	DW	07880H
	DW	07896H
	DW	0787bH
	DW	0797cH
	DW	07982H
	DW	0797dH
	DW	07979H
	DW	07a11H
	DW	07a18H
	DW	07a19H
	DW	07a12H
	DW	07a17H
	DW	07a15H
	DW	07a22H
	DW	07a13H
	DW	07a1bH
	DW	07a10H
	DW	07aa3H
	DW	07aa2H
	DW	07a9eH
	DW	07aebH
	DW	07b66H
	DW	07b64H
	DW	07b6dH
	DW	07b74H
	DW	07b69H
	DW	07b72H
	DW	07b65H
	DW	07b73H
	DW	07b71H
	DW	07b70H
	DW	07b61H
	DW	07b78H
	DW	07b76H
	DW	07b63H
	DW	07cb2H
	DW	07cb4H
	DW	07cafH
	DW	07d88H
	DW	07d86H
	DW	07d80H
	DW	07d8dH
	DW	07d7fH
	DW	07d85H
	DW	07d7aH
	DW	07d8eH
	DW	07d7bH
	DW	07d83H
	DW	07d7cH
	DW	07d8cH
	DW	07d94H
	DW	07d84H
	DW	07d7dH
	DW	07d92H
	DW	07f6dH
	DW	07f6bH
	DW	07f67H
	DW	07f68H
	DW	07f6cH
	DW	07fa6H
	DW	07fa5H
	DW	07fa7H
	DW	07fdbH
	DW	07fdcH
	DW	08021H
	DW	08164H
	DW	08160H
	DW	08177H
	DW	0815cH
	DW	08169H
	DW	0815bH
	DW	08162H
	DW	08172H
	DW	06721H
	DW	0815eH
	DW	08176H
	DW	08167H
	DW	0816fH
	DW	0fffeH
	DW	0fffeH
	DW	0fffeH
	DW	0fffeH
	DW	0fffeH
	DW	0fffeH
	DW	0fffeH
	DW	0fffeH
	DW	0fffeH
	DW	0fffeH
	DW	0fffeH
	DW	0fffeH
	DW	0fffeH
	DW	0fffeH
	DW	0fffeH
	DW	0fffeH
	DW	0fffeH
	DW	0fffeH
	DW	0fffeH
	DW	0fffeH
	DW	0fffeH
	DW	0fffeH
	DW	0fffeH
	DW	0fffeH
	DW	0fffeH
	DW	0fffeH
	DW	0fffeH
	DW	0fffeH
	DW	0fffeH
	DW	0fffeH
	DW	0fffeH
	DW	0fffeH
	DW	0fffeH
	DW	0fffeH
	DW	08144H
	DW	08161H
	DW	0821dH
	DW	08249H
	DW	08244H
	DW	08240H
	DW	08242H
	DW	08245H
	DW	084f1H
	DW	0843fH
	DW	08456H
	DW	08476H
	DW	08479H
	DW	0848fH
	DW	0848dH
	DW	08465H
	DW	08451H
	DW	08440H
	DW	08486H
	DW	08467H
	DW	08430H
	DW	0844dH
	DW	0847dH
	DW	0845aH
	DW	08459H
	DW	08474H
	DW	08473H
	DW	0845dH
	DW	08507H
	DW	0845eH
	DW	08437H
	DW	0843aH
	DW	08434H
	DW	0847aH
	DW	08443H
	DW	08478H
	DW	08432H
	DW	08445H
	DW	08429H
	DW	083d9H
	DW	0844bH
	DW	0842fH
	DW	08442H
	DW	0842dH
	DW	0845fH
	DW	08470H
	DW	08439H
	DW	0844eH
	DW	0844cH
	DW	08452H
	DW	0846fH
	DW	084c5H
	DW	0848eH
	DW	0843bH
	DW	08447H
	DW	08436H
	DW	08433H
	DW	08468H
	DW	0847eH
	DW	08444H
	DW	0842bH
	DW	08460H
	DW	08454H
	DW	0846eH
	DW	08450H
	DW	0870bH
	DW	08704H
	DW	086f7H
	DW	0870cH
	DW	086faH
	DW	086d6H
	DW	086f5H
	DW	0874dH
	DW	086f8H
	DW	0870eH
	DW	08709H
	DW	08701H
	DW	086f6H
	DW	0870dH
	DW	08705H
	DW	088d6H
	DW	088cbH
	DW	088cdH
	DW	088ceH
	DW	088deH
	DW	088dbH
	DW	088daH
	DW	088ccH
	DW	088d0H
	DW	08985H
	DW	0899bH
	DW	089dfH
	DW	089e5H
	DW	089e4H
	DW	089e1H
	DW	089e0H
	DW	089e2H
	DW	089dcH
	DW	089e6H
	DW	08a76H
	DW	08a86H
	DW	08a7fH
	DW	08a61H
	DW	08a3fH
	DW	08a77H
	DW	08a82H
	DW	08a84H
	DW	08a75H
	DW	08a83H
	DW	08a81H
	DW	08a74H
	DW	08a7aH
	DW	08c3cH
	DW	08c4bH
	DW	08c4aH
	DW	08c65H
	DW	08c64H
	DW	08c66H
	DW	08c86H
	DW	08c84H
	DW	08c85H
	DW	08cccH
	DW	08d68H
	DW	08d69H
	DW	08d91H
	DW	08d8cH
	DW	08d8eH
	DW	08d8fH
	DW	08d8dH
	DW	08d93H
	DW	08d94H
	DW	08d90H
	DW	08d92H
	DW	08df0H
	DW	08de0H
	DW	08decH
	DW	08df1H
	DW	08deeH
	DW	08dd0H
	DW	08de9H
	DW	08de3H
	DW	08de2H
	DW	08de7H
	DW	08df2H
	DW	08debH
	DW	08df4H
	DW	08f06H
	DW	08effH
	DW	08f01H
	DW	08f00H
	DW	08f05H
	DW	08f07H
	DW	08f08H
	DW	08f02H
	DW	08f0bH
	DW	09052H
	DW	0903fH
	DW	0fffeH
	DW	0fffeH
	DW	0fffeH
	DW	0fffeH
	DW	0fffeH
	DW	0fffeH
	DW	0fffeH
	DW	0fffeH
	DW	0fffeH
	DW	0fffeH
	DW	0fffeH
	DW	0fffeH
	DW	0fffeH
	DW	0fffeH
	DW	0fffeH
	DW	0fffeH
	DW	0fffeH
	DW	0fffeH
	DW	0fffeH
	DW	0fffeH
	DW	0fffeH
	DW	0fffeH
	DW	0fffeH
	DW	0fffeH
	DW	0fffeH
	DW	0fffeH
	DW	0fffeH
	DW	0fffeH
	DW	0fffeH
	DW	0fffeH
	DW	0fffeH
	DW	0fffeH
	DW	0fffeH
	DW	0fffeH
	DW	09044H
	DW	09049H
	DW	0903dH
	DW	09110H
	DW	0910dH
	DW	0910fH
	DW	09111H
	DW	09116H
	DW	09114H
	DW	0910bH
	DW	0910eH
	DW	0916eH
	DW	0916fH
	DW	09248H
	DW	09252H
	DW	09230H
	DW	0923aH
	DW	09266H
	DW	09233H
	DW	09265H
	DW	0925eH
	DW	09283H
	DW	0922eH
	DW	0924aH
	DW	09246H
	DW	0926dH
	DW	0926cH
	DW	0924fH
	DW	09260H
	DW	09267H
	DW	0926fH
	DW	09236H
	DW	09261H
	DW	09270H
	DW	09231H
	DW	09254H
	DW	09263H
	DW	09250H
	DW	09272H
	DW	0924eH
	DW	09253H
	DW	0924cH
	DW	09256H
	DW	09232H
	DW	0959fH
	DW	0959cH
	DW	0959eH
	DW	0959bH
	DW	09692H
	DW	09693H
	DW	09691H
	DW	09697H
	DW	096ceH
	DW	096faH
	DW	096fdH
	DW	096f8H
	DW	096f5H
	DW	09773H
	DW	09777H
	DW	09778H
	DW	09772H
	DW	0980fH
	DW	0980dH
	DW	0980eH
	DW	098acH
	DW	098f6H
	DW	098f9H
	DW	099afH
	DW	099b2H
	DW	099b0H
	DW	099b5H
	DW	09aadH
	DW	09aabH
	DW	09b5bH
	DW	09ceaH
	DW	09cedH
	DW	09ce7H
	DW	09e80H
	DW	09efdH
	DW	050e6H
	DW	050d4H
	DW	050d7H
	DW	050e8H
	DW	050f3H
	DW	050dbH
	DW	050eaH
	DW	050ddH
	DW	050e4H
	DW	050d3H
	DW	050ecH
	DW	050f0H
	DW	050efH
	DW	050e3H
	DW	050e0H
	DW	051d8H
	DW	05280H
	DW	05281H
	DW	052e9H
	DW	052ebH
	DW	05330H
	DW	053acH
	DW	05627H
	DW	05615H
	DW	0560cH
	DW	05612H
	DW	055fcH
	DW	0560fH
	DW	0561cH
	DW	05601H
	DW	05613H
	DW	05602H
	DW	055faH
	DW	0561dH
	DW	05604H
	DW	055ffH
	DW	055f9H
	DW	05889H
	DW	0587cH
	DW	05890H
	DW	05898H
	DW	05886H
	DW	05881H
	DW	0587fH
	DW	05874H
	DW	0588bH
	DW	0587aH
	DW	05887H
	DW	05891H
	DW	0588eH
	DW	05876H
	DW	05882H
	DW	05888H
	DW	0587bH
	DW	05894H
	DW	0588fH
	DW	058feH
	DW	0596bH
	DW	05adcH
	DW	05aeeH
	DW	05ae5H
	DW	05ad5H
	DW	05aeaH
	DW	05adaH
	DW	05aedH
	DW	05aebH
	DW	05af3H
	DW	05ae2H
	DW	05ae0H
	DW	05adbH
	DW	05aecH
	DW	05adeH
	DW	05addH
	DW	05ad9H
	DW	05ae8H
	DW	05adfH
	DW	05b77H
	DW	05be0H
	DW	0fffeH
	DW	0fffeH
	DW	0fffeH
	DW	0fffeH
	DW	0fffeH
	DW	0fffeH
	DW	0fffeH
	DW	0fffeH
	DW	0fffeH
	DW	0fffeH
	DW	0fffeH
	DW	0fffeH
	DW	0fffeH
	DW	0fffeH
	DW	0fffeH
	DW	0fffeH
	DW	0fffeH
	DW	0fffeH
	DW	0fffeH
	DW	0fffeH
	DW	0fffeH
	DW	0fffeH
	DW	0fffeH
	DW	0fffeH
	DW	0fffeH
	DW	0fffeH
	DW	0fffeH
	DW	0fffeH
	DW	0fffeH
	DW	0fffeH
	DW	0fffeH
	DW	0fffeH
	DW	0fffeH
	DW	0fffeH
	DW	05be3H
	DW	05c63H
	DW	05d82H
	DW	05d80H
	DW	05d7dH
	DW	05d86H
	DW	05d7aH
	DW	05d81H
	DW	05d77H
	DW	05d8aH
	DW	05d89H
	DW	05d88H
	DW	05d7eH
	DW	05d7cH
	DW	05d8dH
	DW	05d79H
	DW	05d7fH
	DW	05e58H
	DW	05e59H
	DW	05e53H
	DW	05ed8H
	DW	05ed1H
	DW	05ed7H
	DW	05eceH
	DW	05edcH
	DW	05ed5H
	DW	05ed9H
	DW	05ed2H
	DW	05ed4H
	DW	05f44H
	DW	05f43H
	DW	05f6fH
	DW	05fb6H
	DW	0612cH
	DW	06128H
	DW	06141H
	DW	0615eH
	DW	06171H
	DW	06173H
	DW	06152H
	DW	06153H
	DW	06172H
	DW	0616cH
	DW	06180H
	DW	06174H
	DW	06154H
	DW	0617aH
	DW	0615bH
	DW	06165H
	DW	0613bH
	DW	0616aH
	DW	06161H
	DW	06156H
	DW	06229H
	DW	06227H
	DW	0622bH
	DW	0642bH
	DW	0644dH
	DW	0645bH
	DW	0645dH
	DW	06474H
	DW	06476H
	DW	06472H
	DW	06473H
	DW	0647dH
	DW	06475H
	DW	06466H
	DW	064a6H
	DW	0644eH
	DW	06482H
	DW	0645eH
	DW	0645cH
	DW	0644bH
	DW	06453H
	DW	06460H
	DW	06450H
	DW	0647fH
	DW	0643fH
	DW	0646cH
	DW	0646bH
	DW	06459H
	DW	06465H
	DW	06477H
	DW	06573H
	DW	065a0H
	DW	066a1H
	DW	066a0H
	DW	0669fH
	DW	06705H
	DW	06704H
	DW	06722H
	DW	069b1H
	DW	069b6H
	DW	069c9H
	DW	069a0H
	DW	069ceH
	DW	06996H
	DW	069b0H
	DW	069acH
	DW	069bcH
	DW	06991H
	DW	06999H
	DW	0698eH
	DW	069a7H
	DW	0698dH
	DW	069a9H
	DW	069beH
	DW	069afH
	DW	069bfH
	DW	069c4H
	DW	069bdH
	DW	069a4H
	DW	069d4H
	DW	069b9H
	DW	069caH
	DW	0699aH
	DW	069cfH
	DW	069b3H
	DW	06993H
	DW	069aaH
	DW	069a1H
	DW	0699eH
	DW	069d9H
	DW	06997H
	DW	06990H
	DW	069c2H
	DW	069b5H
	DW	069a5H
	DW	069c6H
	DW	06b4aH
	DW	06b4dH
	DW	06b4bH
	DW	06b9eH
	DW	06b9fH
	DW	06ba0H
	DW	06bc3H
	DW	06bc4H
	DW	06bfeH
	DW	06eceH
	DW	06ef5H
	DW	06ef1H
	DW	06f03H
	DW	06f25H
	DW	06ef8H
	DW	06f37H
	DW	06efbH
	DW	06f2eH
	DW	06f09H
	DW	06f4eH
	DW	06f19H
	DW	06f1aH
	DW	06f27H
	DW	06f18H
	DW	06f3bH
	DW	06f12H
	DW	06eedH
	DW	06f0aH
	DW	0fffeH
	DW	0fffeH
	DW	0fffeH
	DW	0fffeH
	DW	0fffeH
	DW	0fffeH
	DW	0fffeH
	DW	0fffeH
	DW	0fffeH
	DW	0fffeH
	DW	0fffeH
	DW	0fffeH
	DW	0fffeH
	DW	0fffeH
	DW	0fffeH
	DW	0fffeH
	DW	0fffeH
	DW	0fffeH
	DW	0fffeH
	DW	0fffeH
	DW	0fffeH
	DW	0fffeH
	DW	0fffeH
	DW	0fffeH
	DW	0fffeH
	DW	0fffeH
	DW	0fffeH
	DW	0fffeH
	DW	0fffeH
	DW	0fffeH
	DW	0fffeH
	DW	0fffeH
	DW	0fffeH
	DW	0fffeH
	DW	06f36H
	DW	06f73H
	DW	06ef9H
	DW	06eeeH
	DW	06f2dH
	DW	06f40H
	DW	06f30H
	DW	06f3cH
	DW	06f35H
	DW	06eebH
	DW	06f07H
	DW	06f0eH
	DW	06f43H
	DW	06f05H
	DW	06efdH
	DW	06ef6H
	DW	06f39H
	DW	06f1cH
	DW	06efcH
	DW	06f3aH
	DW	06f1fH
	DW	06f0dH
	DW	06f1eH
	DW	06f08H
	DW	06f21H
	DW	07187H
	DW	07190H
	DW	07189H
	DW	07180H
	DW	07185H
	DW	07182H
	DW	0718fH
	DW	0717bH
	DW	07186H
	DW	07181H
	DW	07197H
	DW	07244H
	DW	07253H
	DW	07297H
	DW	07295H
	DW	07293H
	DW	07343H
	DW	0734dH
	DW	07351H
	DW	0734cH
	DW	07462H
	DW	07473H
	DW	07471H
	DW	07475H
	DW	07472H
	DW	07467H
	DW	0746eH
	DW	07500H
	DW	07502H
	DW	07503H
	DW	0757dH
	DW	07590H
	DW	07616H
	DW	07608H
	DW	0760cH
	DW	07615H
	DW	07611H
	DW	0760aH
	DW	07614H
	DW	076b8H
	DW	07781H
	DW	0777cH
	DW	07785H
	DW	07782H
	DW	0776eH
	DW	07780H
	DW	0776fH
	DW	0777eH
	DW	07783H
	DW	078b2H
	DW	078aaH
	DW	078b4H
	DW	078adH
	DW	078a8H
	DW	0787eH
	DW	078abH
	DW	0789eH
	DW	078a5H
	DW	078a0H
	DW	078acH
	DW	078a2H
	DW	078a4H
	DW	07998H
	DW	0798aH
	DW	0798bH
	DW	07996H
	DW	07995H
	DW	07994H
	DW	07993H
	DW	07997H
	DW	07988H
	DW	07992H
	DW	07990H
	DW	07a2bH
	DW	07a4aH
	DW	07a30H
	DW	07a2fH
	DW	07a28H
	DW	07a26H
	DW	07aa8H
	DW	07aabH
	DW	07aacH
	DW	07aeeH
	DW	07b88H
	DW	07b9cH
	DW	07b8aH
	DW	07b91H
	DW	07b90H
	DW	07b96H
	DW	07b8dH
	DW	07b8cH
	DW	07b9bH
	DW	07b8eH
	DW	07b85H
	DW	07b98H
	DW	05284H
	DW	07b99H
	DW	07ba4H
	DW	07b82H
	DW	07cbbH
	DW	07cbfH
	DW	07cbcH
	DW	07cbaH
	DW	07da7H
	DW	07db7H
	DW	07dc2H
	DW	07da3H
	DW	07daaH
	DW	07dc1H
	DW	07dc0H
	DW	07dc5H
	DW	07d9dH
	DW	07dceH
	DW	07dc4H
	DW	07dc6H
	DW	07dcbH
	DW	07dccH
	DW	07dafH
	DW	07db9H
	DW	07d96H
	DW	07dbcH
	DW	07d9fH
	DW	07da6H
	DW	07daeH
	DW	07da9H
	DW	07da1H
	DW	07dc9H
	DW	07f73H
	DW	07fe2H
	DW	07fe3H
	DW	07fe5H
	DW	07fdeH
	DW	0fffeH
	DW	0fffeH
	DW	0fffeH
	DW	0fffeH
	DW	0fffeH
	DW	0fffeH
	DW	0fffeH
	DW	0fffeH
	DW	0fffeH
	DW	0fffeH
	DW	0fffeH
	DW	0fffeH
	DW	0fffeH
	DW	0fffeH
	DW	0fffeH
	DW	0fffeH
	DW	0fffeH
	DW	0fffeH
	DW	0fffeH
	DW	0fffeH
	DW	0fffeH
	DW	0fffeH
	DW	0fffeH
	DW	0fffeH
	DW	0fffeH
	DW	0fffeH
	DW	0fffeH
	DW	0fffeH
	DW	0fffeH
	DW	0fffeH
	DW	0fffeH
	DW	0fffeH
	DW	0fffeH
	DW	0fffeH
	DW	08024H
	DW	0805dH
	DW	0805cH
	DW	08189H
	DW	08186H
	DW	08183H
	DW	08187H
	DW	0818dH
	DW	0818cH
	DW	0818bH
	DW	08215H
	DW	08497H
	DW	084a4H
	DW	084a1H
	DW	0849fH
	DW	084baH
	DW	084ceH
	DW	084c2H
	DW	084acH
	DW	084aeH
	DW	084abH
	DW	084b9H
	DW	084b4H
	DW	084c1H
	DW	084cdH
	DW	084aaH
	DW	0849aH
	DW	084b1H
	DW	084d0H
	DW	0849dH
	DW	084a7H
	DW	084bbH
	DW	084a2H
	DW	08494H
	DW	084c7H
	DW	084ccH
	DW	0849bH
	DW	084a9H
	DW	084afH
	DW	084a8H
	DW	084d6H
	DW	08498H
	DW	084b6H
	DW	084cfH
	DW	084a0H
	DW	084d7H
	DW	084d4H
	DW	084d2H
	DW	084dbH
	DW	084b0H
	DW	08491H
	DW	08661H
	DW	08733H
	DW	08723H
	DW	08728H
	DW	0876bH
	DW	08740H
	DW	0872eH
	DW	0871eH
	DW	08721H
	DW	08719H
	DW	0871bH
	DW	08743H
	DW	0872cH
	DW	08741H
	DW	0873eH
	DW	08746H
	DW	08720H
	DW	08732H
	DW	0872aH
	DW	0872dH
	DW	0873cH
	DW	08712H
	DW	0873aH
	DW	08731H
	DW	08735H
	DW	08742H
	DW	08726H
	DW	08727H
	DW	08738H
	DW	08724H
	DW	0871aH
	DW	08730H
	DW	08711H
	DW	088f7H
	DW	088e7H
	DW	088f1H
	DW	088f2H
	DW	088faH
	DW	088feH
	DW	088eeH
	DW	088fcH
	DW	088f6H
	DW	088fbH
	DW	088f0H
	DW	088ecH
	DW	088ebH
	DW	0899dH
	DW	089a1H
	DW	0899fH
	DW	0899eH
	DW	089e9H
	DW	089ebH
	DW	089e8H
	DW	08aabH
	DW	08a99H
	DW	08a8bH
	DW	08a92H
	DW	08a8fH
	DW	08a96H
	DW	08c3dH
	DW	08c68H
	DW	08c69H
	DW	08cd5H
	DW	08ccfH
	DW	08cd7H
	DW	08d96H
	DW	08e09H
	DW	08e02H
	DW	08dffH
	DW	08e0dH
	DW	08dfdH
	DW	08e0aH
	DW	08e03H
	DW	08e07H
	DW	08e06H
	DW	08e05H
	DW	08dfeH
	DW	08e00H
	DW	08e04H
	DW	08f10H
	DW	08f11H
	DW	08f0eH
	DW	08f0dH
	DW	09123H
	DW	0911cH
	DW	09120H
	DW	09122H
	DW	0911fH
	DW	0911dH
	DW	0911aH
	DW	09124H
	DW	09121H
	DW	0911bH
	DW	0917aH
	DW	09172H
	DW	09179H
	DW	09173H
	DW	092a5H
	DW	092a4H
	DW	09276H
	DW	0929bH
	DW	0927aH
	DW	092a0H
	DW	09294H
	DW	092aaH
	DW	0928dH
	DW	0fffeH
	DW	0fffeH
	DW	0fffeH
	DW	0fffeH
	DW	0fffeH
	DW	0fffeH
	DW	0fffeH
	DW	0fffeH
	DW	0fffeH
	DW	0fffeH
	DW	0fffeH
	DW	0fffeH
	DW	0fffeH
	DW	0fffeH
	DW	0fffeH
	DW	0fffeH
	DW	0fffeH
	DW	0fffeH
	DW	0fffeH
	DW	0fffeH
	DW	0fffeH
	DW	0fffeH
	DW	0fffeH
	DW	0fffeH
	DW	0fffeH
	DW	0fffeH
	DW	0fffeH
	DW	0fffeH
	DW	0fffeH
	DW	0fffeH
	DW	0fffeH
	DW	0fffeH
	DW	0fffeH
	DW	0fffeH
	DW	092a6H
	DW	0929aH
	DW	092abH
	DW	09279H
	DW	09297H
	DW	0927fH
	DW	092a3H
	DW	092eeH
	DW	0928eH
	DW	09282H
	DW	09295H
	DW	092a2H
	DW	0927dH
	DW	09288H
	DW	092a1H
	DW	0928aH
	DW	09286H
	DW	0928cH
	DW	09299H
	DW	092a7H
	DW	0927eH
	DW	09287H
	DW	092a9H
	DW	0929dH
	DW	0928bH
	DW	0922dH
	DW	0969eH
	DW	096a1H
	DW	096ffH
	DW	09758H
	DW	0977dH
	DW	0977aH
	DW	0977eH
	DW	09783H
	DW	09780H
	DW	09782H
	DW	0977bH
	DW	09784H
	DW	09781H
	DW	0977fH
	DW	097ceH
	DW	097cdH
	DW	09816H
	DW	098adH
	DW	098aeH
	DW	09902H
	DW	09900H
	DW	09907H
	DW	0999dH
	DW	0999cH
	DW	099c3H
	DW	099b9H
	DW	099bbH
	DW	099baH
	DW	099c2H
	DW	099bdH
	DW	099c7H
	DW	09ab1H
	DW	09ae3H
	DW	09ae7H
	DW	09b3eH
	DW	09b3fH
	DW	09b60H
	DW	09b61H
	DW	09b5fH
	DW	09cf1H
	DW	09cf2H
	DW	09cf5H
	DW	09ea7H
	DW	050ffH
	DW	05103H
	DW	05130H
	DW	050f8H
	DW	05106H
	DW	05107H
	DW	050f6H
	DW	050feH
	DW	0510bH
	DW	0510cH
	DW	050fdH
	DW	0510aH
	DW	0528bH
	DW	0528cH
	DW	052f1H
	DW	052efH
	DW	05648H
	DW	05642H
	DW	0564cH
	DW	05635H
	DW	05641H
	DW	0564aH
	DW	05649H
	DW	05646H
	DW	05658H
	DW	0565aH
	DW	05640H
	DW	05633H
	DW	0563dH
	DW	0562cH
	DW	0563eH
	DW	05638H
	DW	0562aH
	DW	0563aH
	DW	0571aH
	DW	058abH
	DW	0589dH
	DW	058b1H
	DW	058a0H
	DW	058a3H
	DW	058afH
	DW	058acH
	DW	058a5H
	DW	058a1H
	DW	058ffH
	DW	05affH
	DW	05af4H
	DW	05afdH
	DW	05af7H
	DW	05af6H
	DW	05b03H
	DW	05af8H
	DW	05b02H
	DW	05af9H
	DW	05b01H
	DW	05b07H
	DW	05b05H
	DW	05b0fH
	DW	05c67H
	DW	05d99H
	DW	05d97H
	DW	05d9fH
	DW	05d92H
	DW	05da2H
	DW	05d93H
	DW	05d95H
	DW	05da0H
	DW	05d9cH
	DW	05da1H
	DW	05d9aH
	DW	05d9eH
	DW	05e69H
	DW	05e5dH
	DW	05e60H
	DW	05e5cH
	DW	07df3H
	DW	05edbH
	DW	05edeH
	DW	05ee1H
	DW	05f49H
	DW	05fb2H
	DW	0618bH
	DW	06183H
	DW	06179H
	DW	061b1H
	DW	061b0H
	DW	061a2H
	DW	06189H
	DW	0fffeH
	DW	0fffeH
	DW	0fffeH
	DW	0fffeH
	DW	0fffeH
	DW	0fffeH
	DW	0fffeH
	DW	0fffeH
	DW	0fffeH
	DW	0fffeH
	DW	0fffeH
	DW	0fffeH
	DW	0fffeH
	DW	0fffeH
	DW	0fffeH
	DW	0fffeH
	DW	0fffeH
	DW	0fffeH
	DW	0fffeH
	DW	0fffeH
	DW	0fffeH
	DW	0fffeH
	DW	0fffeH
	DW	0fffeH
	DW	0fffeH
	DW	0fffeH
	DW	0fffeH
	DW	0fffeH
	DW	0fffeH
	DW	0fffeH
	DW	0fffeH
	DW	0fffeH
	DW	0fffeH
	DW	0fffeH
	DW	0619bH
	DW	06193H
	DW	061afH
	DW	061adH
	DW	0619fH
	DW	06192H
	DW	061aaH
	DW	061a1H
	DW	0618dH
	DW	06166H
	DW	061b3H
	DW	0622dH
	DW	0646eH
	DW	06470H
	DW	06496H
	DW	064a0H
	DW	06485H
	DW	06497H
	DW	0649cH
	DW	0648fH
	DW	0648bH
	DW	0648aH
	DW	0648cH
	DW	064a3H
	DW	0649fH
	DW	06468H
	DW	064b1H
	DW	06498H
	DW	06576H
	DW	0657aH
	DW	06579H
	DW	0657bH
	DW	065b2H
	DW	065b3H
	DW	066b5H
	DW	066b0H
	DW	066a9H
	DW	066b2H
	DW	066b7H
	DW	066aaH
	DW	066afH
	DW	06a00H
	DW	06a06H
	DW	06a17H
	DW	069e5H
	DW	069f8H
	DW	06a15H
	DW	069f1H
	DW	069e4H
	DW	06a20H
	DW	069ffH
	DW	069ecH
	DW	069e2H
	DW	06a1bH
	DW	06a1dH
	DW	069feH
	DW	06a27H
	DW	069f2H
	DW	069eeH
	DW	06a14H
	DW	069f7H
	DW	069e7H
	DW	06a40H
	DW	06a08H
	DW	069e6H
	DW	069fbH
	DW	06a0dH
	DW	069fcH
	DW	069ebH
	DW	06a09H
	DW	06a04H
	DW	06a18H
	DW	06a25H
	DW	06a0fH
	DW	069f6H
	DW	06a26H
	DW	06a07H
	DW	069f4H
	DW	06a16H
	DW	06b51H
	DW	06ba5H
	DW	06ba3H
	DW	06ba2H
	DW	06ba6H
	DW	06c01H
	DW	06c00H
	DW	06bffH
	DW	06c02H
	DW	06f41H
	DW	06f26H
	DW	06f7eH
	DW	06f87H
	DW	06fc6H
	DW	06f92H
	DW	06f8dH
	DW	06f89H
	DW	06f8cH
	DW	06f62H
	DW	06f4fH
	DW	06f85H
	DW	06f5aH
	DW	06f96H
	DW	06f76H
	DW	06f6cH
	DW	06f82H
	DW	06f55H
	DW	06f72H
	DW	06f52H
	DW	06f50H
	DW	06f57H
	DW	06f94H
	DW	06f93H
	DW	06f5dH
	DW	06f00H
	DW	06f61H
	DW	06f6bH
	DW	06f7dH
	DW	06f67H
	DW	06f90H
	DW	06f53H
	DW	06f8bH
	DW	06f69H
	DW	06f7fH
	DW	06f95H
	DW	06f63H
	DW	06f77H
	DW	06f6aH
	DW	06f7bH
	DW	071b2H
	DW	071afH
	DW	0719bH
	DW	071b0H
	DW	071a0H
	DW	0719aH
	DW	071a9H
	DW	071b5H
	DW	0719dH
	DW	071a5H
	DW	0719eH
	DW	071a4H
	DW	071a1H
	DW	071aaH
	DW	0719cH
	DW	071a7H
	DW	071b3H
	DW	07298H
	DW	0729aH
	DW	07358H
	DW	07352H
	DW	0735eH
	DW	0735fH
	DW	07360H
	DW	0735dH
	DW	0735bH
	DW	07361H
	DW	0735aH
	DW	07359H
	DW	0fffeH
	DW	0fffeH
	DW	0fffeH
	DW	0fffeH
	DW	0fffeH
	DW	0fffeH
	DW	0fffeH
	DW	0fffeH
	DW	0fffeH
	DW	0fffeH
	DW	0fffeH
	DW	0fffeH
	DW	0fffeH
	DW	0fffeH
	DW	0fffeH
	DW	0fffeH
	DW	0fffeH
	DW	0fffeH
	DW	0fffeH
	DW	0fffeH
	DW	0fffeH
	DW	0fffeH
	DW	0fffeH
	DW	0fffeH
	DW	0fffeH
	DW	0fffeH
	DW	0fffeH
	DW	0fffeH
	DW	0fffeH
	DW	0fffeH
	DW	0fffeH
	DW	0fffeH
	DW	0fffeH
	DW	0fffeH
	DW	07362H
	DW	07487H
	DW	07489H
	DW	0748aH
	DW	07486H
	DW	07481H
	DW	0747dH
	DW	07485H
	DW	07488H
	DW	0747cH
	DW	07479H
	DW	07508H
	DW	07507H
	DW	0757eH
	DW	07625H
	DW	0761eH
	DW	07619H
	DW	0761dH
	DW	0761cH
	DW	07623H
	DW	0761aH
	DW	07628H
	DW	0761bH
	DW	0769cH
	DW	0769dH
	DW	0769eH
	DW	0769bH
	DW	0778dH
	DW	0778fH
	DW	07789H
	DW	07788H
	DW	078cdH
	DW	078bbH
	DW	078cfH
	DW	078ccH
	DW	078d1H
	DW	078ceH
	DW	078d4H
	DW	078c8H
	DW	078c3H
	DW	078c4H
	DW	078c9H
	DW	0799aH
	DW	079a1H
	DW	079a0H
	DW	0799cH
	DW	079a2H
	DW	0799bH
	DW	06b76H
	DW	07a39H
	DW	07ab2H
	DW	07ab4H
	DW	07ab3H
	DW	07bb7H
	DW	07bcbH
	DW	07bbeH
	DW	07bacH
	DW	07bceH
	DW	07bafH
	DW	07bb9H
	DW	07bcaH
	DW	07bb5H
	DW	07cc5H
	DW	07cc8H
	DW	07cccH
	DW	07ccbH
	DW	07df7H
	DW	07ddbH
	DW	07deaH
	DW	07de7H
	DW	07dd7H
	DW	07de1H
	DW	07e03H
	DW	07dfaH
	DW	07de6H
	DW	07df6H
	DW	07df1H
	DW	07df0H
	DW	07deeH
	DW	07ddfH
	DW	07f76H
	DW	07facH
	DW	07fb0H
	DW	07fadH
	DW	07fedH
	DW	07febH
	DW	07feaH
	DW	07fecH
	DW	07fe6H
	DW	07fe8H
	DW	08064H
	DW	08067H
	DW	081a3H
	DW	0819fH
	DW	0819eH
	DW	08195H
	DW	081a2H
	DW	08199H
	DW	08197H
	DW	08216H
	DW	0824fH
	DW	08253H
	DW	08252H
	DW	08250H
	DW	0824eH
	DW	08251H
	DW	08524H
	DW	0853bH
	DW	0850fH
	DW	08500H
	DW	08529H
	DW	0850eH
	DW	08509H
	DW	0850dH
	DW	0851fH
	DW	0850aH
	DW	08527H
	DW	0851cH
	DW	084fbH
	DW	0852bH
	DW	084faH
	DW	08508H
	DW	0850cH
	DW	084f4H
	DW	0852aH
	DW	084f2H
	DW	08515H
	DW	084f7H
	DW	084ebH
	DW	084f3H
	DW	084fcH
	DW	08512H
	DW	084eaH
	DW	084e9H
	DW	08516H
	DW	084feH
	DW	08528H
	DW	0851dH
	DW	0852eH
	DW	08502H
	DW	084fdH
	DW	0851eH
	DW	084f6H
	DW	08531H
	DW	08526H
	DW	084e7H
	DW	084e8H
	DW	084f0H
	DW	084efH
	DW	084f9H
	DW	08518H
	DW	08520H
	DW	08530H
	DW	0850bH
	DW	08519H
	DW	0852fH
	DW	08662H
	DW	0fffeH
	DW	0fffeH
	DW	0fffeH
	DW	0fffeH
	DW	0fffeH
	DW	0fffeH
	DW	0fffeH
	DW	0fffeH
	DW	0fffeH
	DW	0fffeH
	DW	0fffeH
	DW	0fffeH
	DW	0fffeH
	DW	0fffeH
	DW	0fffeH
	DW	0fffeH
	DW	0fffeH
	DW	0fffeH
	DW	0fffeH
	DW	0fffeH
	DW	0fffeH
	DW	0fffeH
	DW	0fffeH
	DW	0fffeH
	DW	0fffeH
	DW	0fffeH
	DW	0fffeH
	DW	0fffeH
	DW	0fffeH
	DW	0fffeH
	DW	0fffeH
	DW	0fffeH
	DW	0fffeH
	DW	0fffeH
	DW	08756H
	DW	08763H
	DW	08764H
	DW	08777H
	DW	087e1H
	DW	08773H
	DW	08758H
	DW	08754H
	DW	0875bH
	DW	08752H
	DW	08761H
	DW	0875aH
	DW	08751H
	DW	0875eH
	DW	0876dH
	DW	0876aH
	DW	08750H
	DW	0874eH
	DW	0875fH
	DW	0875dH
	DW	0876fH
	DW	0876cH
	DW	0877aH
	DW	0876eH
	DW	0875cH
	DW	08765H
	DW	0874fH
	DW	0877bH
	DW	08775H
	DW	08762H
	DW	08767H
	DW	08769H
	DW	0885aH
	DW	08905H
	DW	0890cH
	DW	08914H
	DW	0890bH
	DW	08917H
	DW	08918H
	DW	08919H
	DW	08906H
	DW	08916H
	DW	08911H
	DW	0890eH
	DW	08909H
	DW	089a2H
	DW	089a4H
	DW	089a3H
	DW	089edH
	DW	089f0H
	DW	089ecH
	DW	08acfH
	DW	08ac6H
	DW	08ab8H
	DW	08ad3H
	DW	08ad1H
	DW	08ad4H
	DW	08ad5H
	DW	08abbH
	DW	08ad7H
	DW	08abeH
	DW	08ac0H
	DW	08ac5H
	DW	08ad8H
	DW	08ac3H
	DW	08abaH
	DW	08abdH
	DW	08ad9H
	DW	08c3eH
	DW	08c4dH
	DW	08c8fH
	DW	08ce5H
	DW	08cdfH
	DW	08cd9H
	DW	08ce8H
	DW	08cdaH
	DW	08cddH
	DW	08ce7H
	DW	08da0H
	DW	08d9cH
	DW	08da1H
	DW	08d9bH
	DW	08e20H
	DW	08e23H
	DW	08e25H
	DW	08e24H
	DW	08e2eH
	DW	08e15H
	DW	08e1bH
	DW	08e16H
	DW	08e11H
	DW	08e19H
	DW	08e26H
	DW	08e27H
	DW	08e14H
	DW	08e12H
	DW	08e18H
	DW	08e13H
	DW	08e1cH
	DW	08e17H
	DW	08e1aH
	DW	08f2cH
	DW	08f24H
	DW	08f18H
	DW	08f1aH
	DW	08f20H
	DW	08f23H
	DW	08f16H
	DW	08f17H
	DW	09073H
	DW	09070H
	DW	0906fH
	DW	09067H
	DW	0906bH
	DW	0912fH
	DW	0912bH
	DW	09129H
	DW	0912aH
	DW	09132H
	DW	09126H
	DW	0912eH
	DW	09185H
	DW	09186H
	DW	0918aH
	DW	09181H
	DW	09182H
	DW	09184H
	DW	09180H
	DW	092d0H
	DW	092c3H
	DW	092c4H
	DW	092c0H
	DW	092d9H
	DW	092b6H
	DW	092cfH
	DW	092f1H
	DW	092dfH
	DW	092d8H
	DW	092e9H
	DW	092d7H
	DW	092ddH
	DW	092ccH
	DW	092efH
	DW	092c2H
	DW	092e8H
	DW	092caH
	DW	092c8H
	DW	092ceH
	DW	092e6H
	DW	092cdH
	DW	092d5H
	DW	092c9H
	DW	092e0H
	DW	092deH
	DW	092e7H
	DW	092d1H
	DW	092d3H
	DW	0fffeH
	DW	0fffeH
	DW	0fffeH
	DW	0fffeH
	DW	0fffeH
	DW	0fffeH
	DW	0fffeH
	DW	0fffeH
	DW	0fffeH
	DW	0fffeH
	DW	0fffeH
	DW	0fffeH
	DW	0fffeH
	DW	0fffeH
	DW	0fffeH
	DW	0fffeH
	DW	0fffeH
	DW	0fffeH
	DW	0fffeH
	DW	0fffeH
	DW	0fffeH
	DW	0fffeH
	DW	0fffeH
	DW	0fffeH
	DW	0fffeH
	DW	0fffeH
	DW	0fffeH
	DW	0fffeH
	DW	0fffeH
	DW	0fffeH
	DW	0fffeH
	DW	0fffeH
	DW	0fffeH
	DW	0fffeH
	DW	092b5H
	DW	092e1H
	DW	092c6H
	DW	092b4H
	DW	0957cH
	DW	095acH
	DW	095abH
	DW	095aeH
	DW	095b0H
	DW	096a4H
	DW	096a2H
	DW	096d3H
	DW	09705H
	DW	09708H
	DW	09702H
	DW	0975aH
	DW	0978aH
	DW	0978eH
	DW	09788H
	DW	097d0H
	DW	097cfH
	DW	0981eH
	DW	0981dH
	DW	09826H
	DW	09829H
	DW	09828H
	DW	09820H
	DW	0981bH
	DW	09827H
	DW	098b2H
	DW	09908H
	DW	098faH
	DW	09911H
	DW	09914H
	DW	09916H
	DW	09917H
	DW	09915H
	DW	099dcH
	DW	099cdH
	DW	099cfH
	DW	099d3H
	DW	099d4H
	DW	099ceH
	DW	099c9H
	DW	099d6H
	DW	099d8H
	DW	099cbH
	DW	099d7H
	DW	099ccH
	DW	09ab3H
	DW	09aecH
	DW	09aebH
	DW	09af3H
	DW	09af2H
	DW	09af1H
	DW	09b46H
	DW	09b43H
	DW	09b67H
	DW	09b74H
	DW	09b71H
	DW	09b66H
	DW	09b76H
	DW	09b75H
	DW	09b70H
	DW	09b68H
	DW	09b64H
	DW	09b6cH
	DW	09cfcH
	DW	09cfaH
	DW	09cfdH
	DW	09cffH
	DW	09cf7H
	DW	09d07H
	DW	09d00H
	DW	09cf9H
	DW	09cfbH
	DW	09d08H
	DW	09d05H
	DW	09d04H
	DW	09e83H
	DW	09ed3H
	DW	09f0fH
	DW	09f10H
	DW	0511cH
	DW	05113H
	DW	05117H
	DW	0511aH
	DW	05111H
	DW	051deH
	DW	05334H
	DW	053e1H
	DW	05670H
	DW	05660H
	DW	0566eH
	DW	05673H
	DW	05666H
	DW	05663H
	DW	0566dH
	DW	05672H
	DW	0565eH
	DW	05677H
	DW	0571cH
	DW	0571bH
	DW	058c8H
	DW	058bdH
	DW	058c9H
	DW	058bfH
	DW	058baH
	DW	058c2H
	DW	058bcH
	DW	058c6H
	DW	05b17H
	DW	05b19H
	DW	05b1bH
	DW	05b21H
	DW	05b14H
	DW	05b13H
	DW	05b10H
	DW	05b16H
	DW	05b28H
	DW	05b1aH
	DW	05b20H
	DW	05b1eH
	DW	05befH
	DW	05dacH
	DW	05db1H
	DW	05da9H
	DW	05da7H
	DW	05db5H
	DW	05db0H
	DW	05daeH
	DW	05daaH
	DW	05da8H
	DW	05db2H
	DW	05dadH
	DW	05dafH
	DW	05db4H
	DW	05e67H
	DW	05e68H
	DW	05e66H
	DW	05e6fH
	DW	05ee9H
	DW	05ee7H
	DW	05ee6H
	DW	05ee8H
	DW	05ee5H
	DW	05f4bH
	DW	05fbcH
	DW	0619dH
	DW	061a8H
	DW	06196H
	DW	061c5H
	DW	061b4H
	DW	061c6H
	DW	061c1H
	DW	061ccH
	DW	061baH
	DW	0fffeH
	DW	0fffeH
	DW	0fffeH
	DW	0fffeH
	DW	0fffeH
	DW	0fffeH
	DW	0fffeH
	DW	0fffeH
	DW	0fffeH
	DW	0fffeH
	DW	0fffeH
	DW	0fffeH
	DW	0fffeH
	DW	0fffeH
	DW	0fffeH
	DW	0fffeH
	DW	0fffeH
	DW	0fffeH
	DW	0fffeH
	DW	0fffeH
	DW	0fffeH
	DW	0fffeH
	DW	0fffeH
	DW	0fffeH
	DW	0fffeH
	DW	0fffeH
	DW	0fffeH
	DW	0fffeH
	DW	0fffeH
	DW	0fffeH
	DW	0fffeH
	DW	0fffeH
	DW	0fffeH
	DW	0fffeH
	DW	061bfH
	DW	061b8H
	DW	0618cH
	DW	064d7H
	DW	064d6H
	DW	064d0H
	DW	064cfH
	DW	064c9H
	DW	064bdH
	DW	06489H
	DW	064c3H
	DW	064dbH
	DW	064f3H
	DW	064d9H
	DW	06533H
	DW	0657fH
	DW	0657cH
	DW	065a2H
	DW	066c8H
	DW	066beH
	DW	066c0H
	DW	066caH
	DW	066cbH
	DW	066cfH
	DW	066bdH
	DW	066bbH
	DW	066baH
	DW	066ccH
	DW	06723H
	DW	06a34H
	DW	06a66H
	DW	06a49H
	DW	06a67H
	DW	06a32H
	DW	06a68H
	DW	06a3eH
	DW	06a5dH
	DW	06a6dH
	DW	06a76H
	DW	06a5bH
	DW	06a51H
	DW	06a28H
	DW	06a5aH
	DW	06a3bH
	DW	06a3fH
	DW	06a41H
	DW	06a6aH
	DW	06a64H
	DW	06a50H
	DW	06a4fH
	DW	06a54H
	DW	06a6fH
	DW	06a69H
	DW	06a60H
	DW	06a3cH
	DW	06a5eH
	DW	06a56H
	DW	06a55H
	DW	06a4dH
	DW	06a4eH
	DW	06a46H
	DW	06b55H
	DW	06b54H
	DW	06b56H
	DW	06ba7H
	DW	06baaH
	DW	06babH
	DW	06bc8H
	DW	06bc7H
	DW	06c04H
	DW	06c03H
	DW	06c06H
	DW	06fadH
	DW	06fcbH
	DW	06fa3H
	DW	06fc7H
	DW	06fbcH
	DW	06fceH
	DW	06fc8H
	DW	06f5eH
	DW	06fc4H
	DW	06fbdH
	DW	06f9eH
	DW	06fcaH
	DW	06fa8H
	DW	07004H
	DW	06fa5H
	DW	06faeH
	DW	06fbaH
	DW	06facH
	DW	06faaH
	DW	06fcfH
	DW	06fbfH
	DW	06fb8H
	DW	06fa2H
	DW	06fc9H
	DW	06fabH
	DW	06fcdH
	DW	06fafH
	DW	06fb2H
	DW	06fb0H
	DW	071c5H
	DW	071c2H
	DW	071bfH
	DW	071b8H
	DW	071d6H
	DW	071c0H
	DW	071c1H
	DW	071cbH
	DW	071d4H
	DW	071caH
	DW	071c7H
	DW	071cfH
	DW	071bdH
	DW	071d8H
	DW	071bcH
	DW	071c6H
	DW	071daH
	DW	071dbH
	DW	0729dH
	DW	0729eH
	DW	07369H
	DW	07366H
	DW	07367H
	DW	0736cH
	DW	07365H
	DW	0736bH
	DW	0736aH
	DW	0747fH
	DW	0749aH
	DW	074a0H
	DW	07494H
	DW	07492H
	DW	07495H
	DW	074a1H
	DW	0750bH
	DW	07580H
	DW	0762fH
	DW	0762dH
	DW	07631H
	DW	0763dH
	DW	07633H
	DW	0763cH
	DW	07635H
	DW	07632H
	DW	07630H
	DW	076bbH
	DW	076e6H
	DW	0779aH
	DW	0779dH
	DW	077a1H
	DW	0779cH
	DW	0779bH
	DW	077a2H
	DW	077a3H
	DW	07795H
	DW	07799H
	DW	0fffeH
	DW	0fffeH
	DW	0fffeH
	DW	0fffeH
	DW	0fffeH
	DW	0fffeH
	DW	0fffeH
	DW	0fffeH
	DW	0fffeH
	DW	0fffeH
	DW	0fffeH
	DW	0fffeH
	DW	0fffeH
	DW	0fffeH
	DW	0fffeH
	DW	0fffeH
	DW	0fffeH
	DW	0fffeH
	DW	0fffeH
	DW	0fffeH
	DW	0fffeH
	DW	0fffeH
	DW	0fffeH
	DW	0fffeH
	DW	0fffeH
	DW	0fffeH
	DW	0fffeH
	DW	0fffeH
	DW	0fffeH
	DW	0fffeH
	DW	0fffeH
	DW	0fffeH
	DW	0fffeH
	DW	0fffeH
	DW	07797H
	DW	078ddH
	DW	078e9H
	DW	078e5H
	DW	078eaH
	DW	078deH
	DW	078e3H
	DW	078dbH
	DW	078e1H
	DW	078e2H
	DW	078edH
	DW	078dfH
	DW	078e0H
	DW	079a4H
	DW	07a44H
	DW	07a48H
	DW	07a47H
	DW	07ab6H
	DW	07ab8H
	DW	07ab5H
	DW	07ab1H
	DW	07ab7H
	DW	07bdeH
	DW	07be3H
	DW	07be7H
	DW	07bddH
	DW	07bd5H
	DW	07be5H
	DW	07bdaH
	DW	07be8H
	DW	07bf9H
	DW	07bd4H
	DW	07beaH
	DW	07be2H
	DW	07bdcH
	DW	07bebH
	DW	07bd8H
	DW	07bdfH
	DW	07cd2H
	DW	07cd4H
	DW	07cd7H
	DW	07cd0H
	DW	07cd1H
	DW	07e12H
	DW	07e21H
	DW	07e17H
	DW	07e0cH
	DW	07e1fH
	DW	07e20H
	DW	07e13H
	DW	07e0eH
	DW	07e1cH
	DW	07e15H
	DW	07e1aH
	DW	07e22H
	DW	07e0bH
	DW	07e0fH
	DW	07e16H
	DW	07e0dH
	DW	07e14H
	DW	07e25H
	DW	07e24H
	DW	07f43H
	DW	07f7bH
	DW	07f7cH
	DW	07f7aH
	DW	07fb1H
	DW	07fefH
	DW	0802aH
	DW	08029H
	DW	0806cH
	DW	081b1H
	DW	081a6H
	DW	081aeH
	DW	081b9H
	DW	081b5H
	DW	081abH
	DW	081b0H
	DW	081acH
	DW	081b4H
	DW	081b2H
	DW	081b7H
	DW	081a7H
	DW	081f2H
	DW	08255H
	DW	08256H
	DW	08257H
	DW	08556H
	DW	08545H
	DW	0856bH
	DW	0854dH
	DW	08553H
	DW	08561H
	DW	08558H
	DW	08540H
	DW	08546H
	DW	08564H
	DW	08541H
	DW	08562H
	DW	08544H
	DW	08551H
	DW	08547H
	DW	08563H
	DW	0853eH
	DW	0855bH
	DW	08571H
	DW	0854eH
	DW	0856eH
	DW	08575H
	DW	08555H
	DW	08567H
	DW	08560H
	DW	0858cH
	DW	08566H
	DW	0855dH
	DW	08554H
	DW	08565H
	DW	0856cH
	DW	08663H
	DW	08665H
	DW	08664H
	DW	0879bH
	DW	0878fH
	DW	08797H
	DW	08793H
	DW	08792H
	DW	08788H
	DW	08781H
	DW	08796H
	DW	08798H
	DW	08779H
	DW	08787H
	DW	087a3H
	DW	08785H
	DW	08790H
	DW	08791H
	DW	0879dH
	DW	08784H
	DW	08794H
	DW	0879cH
	DW	0879aH
	DW	08789H
	DW	0891eH
	DW	08926H
	DW	08930H
	DW	0892dH
	DW	0892eH
	DW	08927H
	DW	08931H
	DW	08922H
	DW	08929H
	DW	08923H
	DW	0892fH
	DW	0892cH
	DW	0891fH
	DW	089f1H
	DW	08ae0H
	DW	0fffeH
	DW	0fffeH
	DW	0fffeH
	DW	0fffeH
	DW	0fffeH
	DW	0fffeH
	DW	0fffeH
	DW	0fffeH
	DW	0fffeH
	DW	0fffeH
	DW	0fffeH
	DW	0fffeH
	DW	0fffeH
	DW	0fffeH
	DW	0fffeH
	DW	0fffeH
	DW	0fffeH
	DW	0fffeH
	DW	0fffeH
	DW	0fffeH
	DW	0fffeH
	DW	0fffeH
	DW	0fffeH
	DW	0fffeH
	DW	0fffeH
	DW	0fffeH
	DW	0fffeH
	DW	0fffeH
	DW	0fffeH
	DW	0fffeH
	DW	0fffeH
	DW	0fffeH
	DW	0fffeH
	DW	0fffeH
	DW	08ae2H
	DW	08af2H
	DW	08af4H
	DW	08af5H
	DW	08addH
	DW	08b14H
	DW	08ae4H
	DW	08adfH
	DW	08af0H
	DW	08ac8H
	DW	08adeH
	DW	08ae1H
	DW	08ae8H
	DW	08affH
	DW	08aefH
	DW	08afbH
	DW	08c91H
	DW	08c92H
	DW	08c90H
	DW	08cf5H
	DW	08ceeH
	DW	08cf1H
	DW	08cf0H
	DW	08cf3H
	DW	08d6cH
	DW	08d6eH
	DW	08da5H
	DW	08da7H
	DW	08e33H
	DW	08e3eH
	DW	08e38H
	DW	08e40H
	DW	08e45H
	DW	08e36H
	DW	08e3cH
	DW	08e3dH
	DW	08e41H
	DW	08e30H
	DW	08e3fH
	DW	08ebdH
	DW	08f36H
	DW	08f2eH
	DW	08f35H
	DW	08f32H
	DW	08f39H
	DW	08f37H
	DW	08f34H
	DW	09076H
	DW	09079H
	DW	0907bH
	DW	09086H
	DW	090faH
	DW	09133H
	DW	09135H
	DW	09136H
	DW	09193H
	DW	09190H
	DW	09191H
	DW	0918dH
	DW	0918fH
	DW	09327H
	DW	0931eH
	DW	09308H
	DW	0931fH
	DW	09306H
	DW	0930fH
	DW	0937aH
	DW	09338H
	DW	0933cH
	DW	0931bH
	DW	09323H
	DW	09312H
	DW	09301H
	DW	09346H
	DW	0932dH
	DW	0930eH
	DW	0930dH
	DW	092cbH
	DW	0931dH
	DW	092faH
	DW	09325H
	DW	09313H
	DW	092f9H
	DW	092f7H
	DW	09334H
	DW	09302H
	DW	09324H
	DW	092ffH
	DW	09329H
	DW	09339H
	DW	09335H
	DW	0932aH
	DW	09314H
	DW	0930cH
	DW	0930bH
	DW	092feH
	DW	09309H
	DW	09300H
	DW	092fbH
	DW	09316H
	DW	095bcH
	DW	095cdH
	DW	095beH
	DW	095b9H
	DW	095baH
	DW	095b6H
	DW	095bfH
	DW	095b5H
	DW	095bdH
	DW	096a9H
	DW	096d4H
	DW	0970bH
	DW	09712H
	DW	09710H
	DW	09799H
	DW	09797H
	DW	09794H
	DW	097f0H
	DW	097f8H
	DW	09835H
	DW	0982fH
	DW	09832H
	DW	09924H
	DW	0991fH
	DW	09927H
	DW	09929H
	DW	0999eH
	DW	099eeH
	DW	099ecH
	DW	099e5H
	DW	099e4H
	DW	099f0H
	DW	099e3H
	DW	099eaH
	DW	099e9H
	DW	099e7H
	DW	09ab9H
	DW	09abfH
	DW	09ab4H
	DW	09abbH
	DW	09af6H
	DW	09afaH
	DW	09af9H
	DW	09af7H
	DW	09b33H
	DW	09b80H
	DW	09b85H
	DW	09b87H
	DW	09b7cH
	DW	09b7eH
	DW	09b7bH
	DW	09b82H
	DW	09b93H
	DW	09b92H
	DW	09b90H
	DW	09b7aH
	DW	09b95H
	DW	0fffeH
	DW	0fffeH
	DW	0fffeH
	DW	0fffeH
	DW	0fffeH
	DW	0fffeH
	DW	0fffeH
	DW	0fffeH
	DW	0fffeH
	DW	0fffeH
	DW	0fffeH
	DW	0fffeH
	DW	0fffeH
	DW	0fffeH
	DW	0fffeH
	DW	0fffeH
	DW	0fffeH
	DW	0fffeH
	DW	0fffeH
	DW	0fffeH
	DW	0fffeH
	DW	0fffeH
	DW	0fffeH
	DW	0fffeH
	DW	0fffeH
	DW	0fffeH
	DW	0fffeH
	DW	0fffeH
	DW	0fffeH
	DW	0fffeH
	DW	0fffeH
	DW	0fffeH
	DW	0fffeH
	DW	0fffeH
	DW	09b7dH
	DW	09b88H
	DW	09d25H
	DW	09d17H
	DW	09d20H
	DW	09d1eH
	DW	09d14H
	DW	09d29H
	DW	09d1dH
	DW	09d18H
	DW	09d22H
	DW	09d10H
	DW	09d19H
	DW	09d1fH
	DW	09e88H
	DW	09e86H
	DW	09e87H
	DW	09eaeH
	DW	09eadH
	DW	09ed5H
	DW	09ed6H
	DW	09efaH
	DW	09f12H
	DW	09f3dH
	DW	05126H
	DW	05125H
	DW	05122H
	DW	05124H
	DW	05120H
	DW	05129H
	DW	052f4H
	DW	05693H
	DW	0568cH
	DW	0568dH
	DW	05686H
	DW	05684H
	DW	05683H
	DW	0567eH
	DW	05682H
	DW	0567fH
	DW	05681H
	DW	058d6H
	DW	058d4H
	DW	058cfH
	DW	058d2H
	DW	05b2dH
	DW	05b25H
	DW	05b32H
	DW	05b23H
	DW	05b2cH
	DW	05b27H
	DW	05b26H
	DW	05b2fH
	DW	05b2eH
	DW	05b7bH
	DW	05bf1H
	DW	05bf2H
	DW	05db7H
	DW	05e6cH
	DW	05e6aH
	DW	05fbeH
	DW	05fbbH
	DW	061c3H
	DW	061b5H
	DW	061bcH
	DW	061e7H
	DW	061e0H
	DW	061e5H
	DW	061e4H
	DW	061e8H
	DW	061deH
	DW	064efH
	DW	064e9H
	DW	064e3H
	DW	064ebH
	DW	064e4H
	DW	064e8H
	DW	06581H
	DW	06580H
	DW	065b6H
	DW	065daH
	DW	066d2H
	DW	06a8dH
	DW	06a96H
	DW	06a81H
	DW	06aa5H
	DW	06a89H
	DW	06a9fH
	DW	06a9bH
	DW	06aa1H
	DW	06a9eH
	DW	06a87H
	DW	06a93H
	DW	06a8eH
	DW	06a95H
	DW	06a83H
	DW	06aa8H
	DW	06aa4H
	DW	06a91H
	DW	06a7fH
	DW	06aa6H
	DW	06a9aH
	DW	06a85H
	DW	06a8cH
	DW	06a92H
	DW	06b5bH
	DW	06badH
	DW	06c09H
	DW	06fccH
	DW	06fa9H
	DW	06ff4H
	DW	06fd4H
	DW	06fe3H
	DW	06fdcH
	DW	06fedH
	DW	06fe7H
	DW	06fe6H
	DW	06fdeH
	DW	06ff2H
	DW	06fddH
	DW	06fe2H
	DW	06fe8H
	DW	071e1H
	DW	071f1H
	DW	071e8H
	DW	071f2H
	DW	071e4H
	DW	071f0H
	DW	071e2H
	DW	07373H
	DW	0736eH
	DW	0736fH
	DW	07497H
	DW	074b2H
	DW	074abH
	DW	07490H
	DW	074aaH
	DW	074adH
	DW	074b1H
	DW	074a5H
	DW	074afH
	DW	07510H
	DW	07511H
	DW	07512H
	DW	0750fH
	DW	07584H
	DW	07643H
	DW	07648H
	DW	07649H
	DW	07647H
	DW	076a4H
	DW	076e9H
	DW	077b5H
	DW	077abH
	DW	077b2H
	DW	077b7H
	DW	077b6H
	DW	0fffeH
	DW	0fffeH
	DW	0fffeH
	DW	0fffeH
	DW	0fffeH
	DW	0fffeH
	DW	0fffeH
	DW	0fffeH
	DW	0fffeH
	DW	0fffeH
	DW	0fffeH
	DW	0fffeH
	DW	0fffeH
	DW	0fffeH
	DW	0fffeH
	DW	0fffeH
	DW	0fffeH
	DW	0fffeH
	DW	0fffeH
	DW	0fffeH
	DW	0fffeH
	DW	0fffeH
	DW	0fffeH
	DW	0fffeH
	DW	0fffeH
	DW	0fffeH
	DW	0fffeH
	DW	0fffeH
	DW	0fffeH
	DW	0fffeH
	DW	0fffeH
	DW	0fffeH
	DW	0fffeH
	DW	0fffeH
	DW	077b4H
	DW	077b1H
	DW	077a8H
	DW	077f0H
	DW	078f3H
	DW	078fdH
	DW	07902H
	DW	078fbH
	DW	078fcH
	DW	078f2H
	DW	07905H
	DW	078f9H
	DW	078feH
	DW	07904H
	DW	079abH
	DW	079a8H
	DW	07a5cH
	DW	07a5bH
	DW	07a56H
	DW	07a58H
	DW	07a54H
	DW	07a5aH
	DW	07abeH
	DW	07ac0H
	DW	07ac1H
	DW	07c05H
	DW	07c0fH
	DW	07bf2H
	DW	07c00H
	DW	07bffH
	DW	07bfbH
	DW	07c0eH
	DW	07bf4H
	DW	07c0bH
	DW	07bf3H
	DW	07c02H
	DW	07c09H
	DW	07c03H
	DW	07c01H
	DW	07bf8H
	DW	07bfdH
	DW	07c06H
	DW	07bf0H
	DW	07bf1H
	DW	07c10H
	DW	07c0aH
	DW	07ce8H
	DW	07e2dH
	DW	07e3cH
	DW	07e42H
	DW	07e33H
	DW	09848H
	DW	07e38H
	DW	07e2aH
	DW	07e49H
	DW	07e40H
	DW	07e47H
	DW	07e29H
	DW	07e4cH
	DW	07e30H
	DW	07e3bH
	DW	07e36H
	DW	07e44H
	DW	07e3aH
	DW	07f45H
	DW	07f7fH
	DW	07f7eH
	DW	07f7dH
	DW	07ff4H
	DW	07ff2H
	DW	0802cH
	DW	081bbH
	DW	081c4H
	DW	081ccH
	DW	081caH
	DW	081c5H
	DW	081c7H
	DW	081bcH
	DW	081e9H
	DW	0825bH
	DW	0825aH
	DW	0825cH
	DW	08583H
	DW	08580H
	DW	0858fH
	DW	085a7H
	DW	08595H
	DW	085a0H
	DW	0858bH
	DW	085a3H
	DW	0857bH
	DW	085a4H
	DW	0859aH
	DW	0859eH
	DW	08577H
	DW	0857cH
	DW	08589H
	DW	085a1H
	DW	0857aH
	DW	08578H
	DW	08557H
	DW	0858eH
	DW	08596H
	DW	08586H
	DW	0858dH
	DW	08599H
	DW	0859dH
	DW	08581H
	DW	085a2H
	DW	08582H
	DW	08588H
	DW	08585H
	DW	08579H
	DW	08576H
	DW	08598H
	DW	08590H
	DW	0859fH
	DW	08668H
	DW	087beH
	DW	087aaH
	DW	087adH
	DW	087c5H
	DW	087b0H
	DW	087acH
	DW	087b9H
	DW	087b5H
	DW	087bcH
	DW	087aeH
	DW	087c9H
	DW	087c3H
	DW	087c2H
	DW	087ccH
	DW	087b7H
	DW	087afH
	DW	087c4H
	DW	087caH
	DW	087b4H
	DW	087b6H
	DW	087bfH
	DW	087b8H
	DW	087bdH
	DW	087deH
	DW	087b2H
	DW	08935H
	DW	08933H
	DW	0893cH
	DW	0893eH
	DW	08941H
	DW	08952H
	DW	08937H
	DW	08942H
	DW	089adH
	DW	089afH
	DW	089aeH
	DW	089f2H
	DW	089f3H
	DW	08b1eH
	DW	0fffeH
	DW	0fffeH
	DW	0fffeH
	DW	0fffeH
	DW	0fffeH
	DW	0fffeH
	DW	0fffeH
	DW	0fffeH
	DW	0fffeH
	DW	0fffeH
	DW	0fffeH
	DW	0fffeH
	DW	0fffeH
	DW	0fffeH
	DW	0fffeH
	DW	0fffeH
	DW	0fffeH
	DW	0fffeH
	DW	0fffeH
	DW	0fffeH
	DW	0fffeH
	DW	0fffeH
	DW	0fffeH
	DW	0fffeH
	DW	0fffeH
	DW	0fffeH
	DW	0fffeH
	DW	0fffeH
	DW	0fffeH
	DW	0fffeH
	DW	0fffeH
	DW	0fffeH
	DW	0fffeH
	DW	0fffeH
	DW	08b18H
	DW	08b16H
	DW	08b11H
	DW	08b05H
	DW	08b0bH
	DW	08b22H
	DW	08b0fH
	DW	08b12H
	DW	08b15H
	DW	08b07H
	DW	08b0dH
	DW	08b08H
	DW	08b06H
	DW	08b1cH
	DW	08b13H
	DW	08b1aH
	DW	08c4fH
	DW	08c70H
	DW	08c72H
	DW	08c71H
	DW	08c6fH
	DW	08c95H
	DW	08c94H
	DW	08cf9H
	DW	08d6fH
	DW	08e4eH
	DW	08e4dH
	DW	08e53H
	DW	08e50H
	DW	08e4cH
	DW	08e47H
	DW	08f43H
	DW	08f40H
	DW	09085H
	DW	0907eH
	DW	09138H
	DW	0919aH
	DW	091a2H
	DW	0919bH
	DW	09199H
	DW	0919fH
	DW	091a1H
	DW	0919dH
	DW	091a0H
	DW	093a1H
	DW	09383H
	DW	093afH
	DW	09364H
	DW	09356H
	DW	09347H
	DW	0937cH
	DW	09358H
	DW	0935cH
	DW	09376H
	DW	09349H
	DW	09350H
	DW	09351H
	DW	09360H
	DW	0936dH
	DW	0938fH
	DW	0934cH
	DW	0936aH
	DW	09379H
	DW	09357H
	DW	09355H
	DW	09352H
	DW	0934fH
	DW	09371H
	DW	09377H
	DW	0937bH
	DW	09361H
	DW	0935eH
	DW	09363H
	DW	09367H
	DW	09380H
	DW	0934eH
	DW	09359H
	DW	095c7H
	DW	095c0H
	DW	095c9H
	DW	095c3H
	DW	095c5H
	DW	095b7H
	DW	096aeH
	DW	096b0H
	DW	096acH
	DW	09720H
	DW	0971fH
	DW	09718H
	DW	0971dH
	DW	09719H
	DW	0979aH
	DW	097a1H
	DW	0979cH
	DW	0979eH
	DW	0979dH
	DW	097d5H
	DW	097d4H
	DW	097f1H
	DW	09841H
	DW	09844H
	DW	0984aH
	DW	09849H
	DW	09845H
	DW	09843H
	DW	09925H
	DW	0992bH
	DW	0992cH
	DW	0992aH
	DW	09933H
	DW	09932H
	DW	0992fH
	DW	0992dH
	DW	09931H
	DW	09930H
	DW	09998H
	DW	099a3H
	DW	099a1H
	DW	09a02H
	DW	099faH
	DW	099f4H
	DW	099f7H
	DW	099f9H
	DW	099f8H
	DW	099f6H
	DW	099fbH
	DW	099fdH
	DW	099feH
	DW	099fcH
	DW	09a03H
	DW	09abeH
	DW	09afeH
	DW	09afdH
	DW	09b01H
	DW	09afcH
	DW	09b48H
	DW	09b9aH
	DW	09ba8H
	DW	09b9eH
	DW	09b9bH
	DW	09ba6H
	DW	09ba1H
	DW	09ba5H
	DW	09ba4H
	DW	09b86H
	DW	09ba2H
	DW	09ba0H
	DW	09bafH
	DW	09d33H
	DW	09d41H
	DW	09d67H
	DW	09d36H
	DW	09d2eH
	DW	09d2fH
	DW	09d31H
	DW	09d38H
	DW	09d30H
	DW	0fffeH
	DW	0fffeH
	DW	0fffeH
	DW	0fffeH
	DW	0fffeH
	DW	0fffeH
	DW	0fffeH
	DW	0fffeH
	DW	0fffeH
	DW	0fffeH
	DW	0fffeH
	DW	0fffeH
	DW	0fffeH
	DW	0fffeH
	DW	0fffeH
	DW	0fffeH
	DW	0fffeH
	DW	0fffeH
	DW	0fffeH
	DW	0fffeH
	DW	0fffeH
	DW	0fffeH
	DW	0fffeH
	DW	0fffeH
	DW	0fffeH
	DW	0fffeH
	DW	0fffeH
	DW	0fffeH
	DW	0fffeH
	DW	0fffeH
	DW	0fffeH
	DW	0fffeH
	DW	0fffeH
	DW	0fffeH
	DW	09d45H
	DW	09d42H
	DW	09d43H
	DW	09d3eH
	DW	09d37H
	DW	09d40H
	DW	09d3dH
	DW	07ff5H
	DW	09d2dH
	DW	09e8aH
	DW	09e89H
	DW	09e8dH
	DW	09eb0H
	DW	09ec8H
	DW	09edaH
	DW	09efbH
	DW	09effH
	DW	09f24H
	DW	09f23H
	DW	09f22H
	DW	09f54H
	DW	09fa0H
	DW	05131H
	DW	0512dH
	DW	0512eH
	DW	05698H
	DW	0569cH
	DW	05697H
	DW	0569aH
	DW	0569dH
	DW	05699H
	DW	05970H
	DW	05b3cH
	DW	05c69H
	DW	05c6aH
	DW	05dc0H
	DW	05e6dH
	DW	05e6eH
	DW	061d8H
	DW	061dfH
	DW	061edH
	DW	061eeH
	DW	061f1H
	DW	061eaH
	DW	061f0H
	DW	061ebH
	DW	061d6H
	DW	061e9H
	DW	064ffH
	DW	06504H
	DW	064fdH
	DW	064f8H
	DW	06501H
	DW	06503H
	DW	064fcH
	DW	06594H
	DW	065dbH
	DW	066daH
	DW	066dbH
	DW	066d8H
	DW	06ac5H
	DW	06ab9H
	DW	06abdH
	DW	06ae1H
	DW	06ac6H
	DW	06abaH
	DW	06ab6H
	DW	06ab7H
	DW	06ac7H
	DW	06ab4H
	DW	06aadH
	DW	06b5eH
	DW	06bc9H
	DW	06c0bH
	DW	07007H
	DW	0700cH
	DW	0700dH
	DW	07001H
	DW	07005H
	DW	07014H
	DW	0700eH
	DW	06fffH
	DW	07000H
	DW	06ffbH
	DW	07026H
	DW	06ffcH
	DW	06ff7H
	DW	0700aH
	DW	07201H
	DW	071ffH
	DW	071f9H
	DW	07203H
	DW	071fdH
	DW	07376H
	DW	074b8H
	DW	074c0H
	DW	074b5H
	DW	074c1H
	DW	074beH
	DW	074b6H
	DW	074bbH
	DW	074c2H
	DW	07514H
	DW	07513H
	DW	0765cH
	DW	07664H
	DW	07659H
	DW	07650H
	DW	07653H
	DW	07657H
	DW	0765aH
	DW	076a6H
	DW	076bdH
	DW	076ecH
	DW	077c2H
	DW	077baH
	DW	078ffH
	DW	0790cH
	DW	07913H
	DW	07914H
	DW	07909H
	DW	07910H
	DW	07912H
	DW	07911H
	DW	079adH
	DW	079acH
	DW	07a5fH
	DW	07c1cH
	DW	07c29H
	DW	07c19H
	DW	07c20H
	DW	07c1fH
	DW	07c2dH
	DW	07c1dH
	DW	07c26H
	DW	07c28H
	DW	07c22H
	DW	07c25H
	DW	07c30H
	DW	07e5cH
	DW	07e50H
	DW	07e56H
	DW	07e63H
	DW	07e58H
	DW	07e62H
	DW	07e5fH
	DW	07e51H
	DW	07e60H
	DW	07e57H
	DW	07e53H
	DW	07fb5H
	DW	07fb3H
	DW	07ff7H
	DW	07ff8H
	DW	08075H
	DW	081d1H
	DW	081d2H
	DW	0fffeH
	DW	0fffeH
	DW	0fffeH
	DW	0fffeH
	DW	0fffeH
	DW	0fffeH
	DW	0fffeH
	DW	0fffeH
	DW	0fffeH
	DW	0fffeH
	DW	0fffeH
	DW	0fffeH
	DW	0fffeH
	DW	0fffeH
	DW	0fffeH
	DW	0fffeH
	DW	0fffeH
	DW	0fffeH
	DW	0fffeH
	DW	0fffeH
	DW	0fffeH
	DW	0fffeH
	DW	0fffeH
	DW	0fffeH
	DW	0fffeH
	DW	0fffeH
	DW	0fffeH
	DW	0fffeH
	DW	0fffeH
	DW	0fffeH
	DW	0fffeH
	DW	0fffeH
	DW	0fffeH
	DW	0fffeH
	DW	081d0H
	DW	0825fH
	DW	0825eH
	DW	085b4H
	DW	085c6H
	DW	085c0H
	DW	085c3H
	DW	085c2H
	DW	085b3H
	DW	085b5H
	DW	085bdH
	DW	085c7H
	DW	085c4H
	DW	085bfH
	DW	085cbH
	DW	085ceH
	DW	085c8H
	DW	085c5H
	DW	085b1H
	DW	085b6H
	DW	085d2H
	DW	08624H
	DW	085b8H
	DW	085b7H
	DW	085beH
	DW	08669H
	DW	087e7H
	DW	087e6H
	DW	087e2H
	DW	087dbH
	DW	087ebH
	DW	087eaH
	DW	087e5H
	DW	087dfH
	DW	087f3H
	DW	087e4H
	DW	087d4H
	DW	087dcH
	DW	087d3H
	DW	087edH
	DW	087d8H
	DW	087e3H
	DW	087a4H
	DW	087d7H
	DW	087d9H
	DW	08801H
	DW	087f4H
	DW	087e8H
	DW	087ddH
	DW	08953H
	DW	0894bH
	DW	0894fH
	DW	0894cH
	DW	08946H
	DW	08950H
	DW	08951H
	DW	08949H
	DW	08b2aH
	DW	08b27H
	DW	08b23H
	DW	08b33H
	DW	08b30H
	DW	08b35H
	DW	08b47H
	DW	08b2fH
	DW	08b3cH
	DW	08b3eH
	DW	08b31H
	DW	08b25H
	DW	08b37H
	DW	08b26H
	DW	08b36H
	DW	08b2eH
	DW	08b24H
	DW	08b3bH
	DW	08b3dH
	DW	08b3aH
	DW	08c42H
	DW	08c75H
	DW	08c99H
	DW	08c98H
	DW	08c97H
	DW	08cfeH
	DW	08d04H
	DW	08d02H
	DW	08d00H
	DW	08e5cH
	DW	08e62H
	DW	08e60H
	DW	08e57H
	DW	08e56H
	DW	08e5eH
	DW	08e65H
	DW	08e67H
	DW	08e5bH
	DW	08e5aH
	DW	08e61H
	DW	08e5dH
	DW	08e69H
	DW	08e54H
	DW	08f46H
	DW	08f47H
	DW	08f48H
	DW	08f4bH
	DW	09128H
	DW	0913aH
	DW	0913bH
	DW	0913eH
	DW	091a8H
	DW	091a5H
	DW	091a7H
	DW	091afH
	DW	091aaH
	DW	093b5H
	DW	0938cH
	DW	09392H
	DW	093b7H
	DW	0939bH
	DW	0939dH
	DW	09389H
	DW	093a7H
	DW	0938eH
	DW	093aaH
	DW	0939eH
	DW	093a6H
	DW	09395H
	DW	09388H
	DW	09399H
	DW	0939fH
	DW	0938dH
	DW	093b1H
	DW	09391H
	DW	093b2H
	DW	093a4H
	DW	093a8H
	DW	093b4H
	DW	093a3H
	DW	093a5H
	DW	095d2H
	DW	095d3H
	DW	095d1H
	DW	096b3H
	DW	096d7H
	DW	096daH
	DW	05dc2H
	DW	096dfH
	DW	096d8H
	DW	096ddH
	DW	09723H
	DW	09722H
	DW	09725H
	DW	097acH
	DW	097aeH
	DW	097a8H
	DW	097abH
	DW	097a4H
	DW	097aaH
	DW	0fffeH
	DW	0fffeH
	DW	0fffeH
	DW	0fffeH
	DW	0fffeH
	DW	0fffeH
	DW	0fffeH
	DW	0fffeH
	DW	0fffeH
	DW	0fffeH
	DW	0fffeH
	DW	0fffeH
	DW	0fffeH
	DW	0fffeH
	DW	0fffeH
	DW	0fffeH
	DW	0fffeH
	DW	0fffeH
	DW	0fffeH
	DW	0fffeH
	DW	0fffeH
	DW	0fffeH
	DW	0fffeH
	DW	0fffeH
	DW	0fffeH
	DW	0fffeH
	DW	0fffeH
	DW	0fffeH
	DW	0fffeH
	DW	0fffeH
	DW	0fffeH
	DW	0fffeH
	DW	0fffeH
	DW	0fffeH
	DW	097a2H
	DW	097a5H
	DW	097d7H
	DW	097d9H
	DW	097d6H
	DW	097d8H
	DW	097faH
	DW	09850H
	DW	09851H
	DW	09852H
	DW	098b8H
	DW	09941H
	DW	0993cH
	DW	0993aH
	DW	09a0fH
	DW	09a0bH
	DW	09a09H
	DW	09a0dH
	DW	09a04H
	DW	09a11H
	DW	09a0aH
	DW	09a05H
	DW	09a07H
	DW	09a06H
	DW	09ac0H
	DW	09adcH
	DW	09b08H
	DW	09b04H
	DW	09b05H
	DW	09b29H
	DW	09b35H
	DW	09b4aH
	DW	09b4cH
	DW	09b4bH
	DW	09bc7H
	DW	09bc6H
	DW	09bc3H
	DW	09bbfH
	DW	09bc1H
	DW	09bb5H
	DW	09bb8H
	DW	09bd3H
	DW	09bb6H
	DW	09bc4H
	DW	09bb9H
	DW	09bbdH
	DW	09d5cH
	DW	09d53H
	DW	09d4fH
	DW	09d4aH
	DW	09d5bH
	DW	09d4bH
	DW	09d59H
	DW	09d56H
	DW	09d4cH
	DW	09d57H
	DW	09d52H
	DW	09d54H
	DW	09d5fH
	DW	09d58H
	DW	09d5aH
	DW	09e8eH
	DW	09e8cH
	DW	09edfH
	DW	09f01H
	DW	09f00H
	DW	09f16H
	DW	09f25H
	DW	09f2bH
	DW	09f2aH
	DW	09f29H
	DW	09f28H
	DW	09f4cH
	DW	09f55H
	DW	05134H
	DW	05135H
	DW	05296H
	DW	052f7H
	DW	053b4H
	DW	056abH
	DW	056adH
	DW	056a6H
	DW	056a7H
	DW	056aaH
	DW	056acH
	DW	058daH
	DW	058ddH
	DW	058dbH
	DW	05912H
	DW	05b3dH
	DW	05b3eH
	DW	05b3fH
	DW	05dc3H
	DW	05e70H
	DW	05fbfH
	DW	061fbH
	DW	06507H
	DW	06510H
	DW	0650dH
	DW	06509H
	DW	0650cH
	DW	0650eH
	DW	06584H
	DW	065deH
	DW	065ddH
	DW	066deH
	DW	06ae7H
	DW	06ae0H
	DW	06accH
	DW	06ad1H
	DW	06ad9H
	DW	06acbH
	DW	06adfH
	DW	06adcH
	DW	06ad0H
	DW	06aebH
	DW	06acfH
	DW	06acdH
	DW	06adeH
	DW	06b60H
	DW	06bb0H
	DW	06c0cH
	DW	07019H
	DW	07027H
	DW	07020H
	DW	07016H
	DW	0702bH
	DW	07021H
	DW	07022H
	DW	07023H
	DW	07029H
	DW	07017H
	DW	07024H
	DW	0701cH
	DW	0702aH
	DW	0720cH
	DW	0720aH
	DW	07207H
	DW	07202H
	DW	07205H
	DW	072a5H
	DW	072a6H
	DW	072a4H
	DW	072a3H
	DW	072a1H
	DW	074cbH
	DW	074c5H
	DW	074b7H
	DW	074c3H
	DW	07516H
	DW	07660H
	DW	077c9H
	DW	077caH
	DW	077c4H
	DW	077f1H
	DW	0791dH
	DW	0791bH
	DW	0fffeH
	DW	0fffeH
	DW	0fffeH
	DW	0fffeH
	DW	0fffeH
	DW	0fffeH
	DW	0fffeH
	DW	0fffeH
	DW	0fffeH
	DW	0fffeH
	DW	0fffeH
	DW	0fffeH
	DW	0fffeH
	DW	0fffeH
	DW	0fffeH
	DW	0fffeH
	DW	0fffeH
	DW	0fffeH
	DW	0fffeH
	DW	0fffeH
	DW	0fffeH
	DW	0fffeH
	DW	0fffeH
	DW	0fffeH
	DW	0fffeH
	DW	0fffeH
	DW	0fffeH
	DW	0fffeH
	DW	0fffeH
	DW	0fffeH
	DW	0fffeH
	DW	0fffeH
	DW	0fffeH
	DW	0fffeH
	DW	07921H
	DW	0791cH
	DW	07917H
	DW	0791eH
	DW	079b0H
	DW	07a67H
	DW	07a68H
	DW	07c33H
	DW	07c3cH
	DW	07c39H
	DW	07c2cH
	DW	07c3bH
	DW	07cecH
	DW	07ceaH
	DW	07e76H
	DW	07e75H
	DW	07e78H
	DW	07e70H
	DW	07e77H
	DW	07e6fH
	DW	07e7aH
	DW	07e72H
	DW	07e74H
	DW	07e68H
	DW	07f4bH
	DW	07f4aH
	DW	07f83H
	DW	07f86H
	DW	07fb7H
	DW	07ffdH
	DW	07ffeH
	DW	08078H
	DW	081d7H
	DW	081d5H
	DW	08264H
	DW	08261H
	DW	08263H
	DW	085ebH
	DW	085f1H
	DW	085edH
	DW	085d9H
	DW	085e1H
	DW	085e8H
	DW	085daH
	DW	085d7H
	DW	085ecH
	DW	085f2H
	DW	085f8H
	DW	085d8H
	DW	085dfH
	DW	085e3H
	DW	085dcH
	DW	085d1H
	DW	085f0H
	DW	085e6H
	DW	085efH
	DW	085deH
	DW	085e2H
	DW	08800H
	DW	087faH
	DW	08803H
	DW	087f6H
	DW	087f7H
	DW	08809H
	DW	0880cH
	DW	0880bH
	DW	08806H
	DW	087fcH
	DW	08808H
	DW	087ffH
	DW	0880aH
	DW	08802H
	DW	08962H
	DW	0895aH
	DW	0895bH
	DW	08957H
	DW	08961H
	DW	0895cH
	DW	08958H
	DW	0895dH
	DW	08959H
	DW	08988H
	DW	089b7H
	DW	089b6H
	DW	089f6H
	DW	08b50H
	DW	08b48H
	DW	08b4aH
	DW	08b40H
	DW	08b53H
	DW	08b56H
	DW	08b54H
	DW	08b4bH
	DW	08b55H
	DW	08b51H
	DW	08b42H
	DW	08b52H
	DW	08b57H
	DW	08c43H
	DW	08c77H
	DW	08c76H
	DW	08c9aH
	DW	08d06H
	DW	08d07H
	DW	08d09H
	DW	08dacH
	DW	08daaH
	DW	08dadH
	DW	08dabH
	DW	08e6dH
	DW	08e78H
	DW	08e73H
	DW	08e6aH
	DW	08e6fH
	DW	08e7bH
	DW	08ec2H
	DW	08f52H
	DW	08f51H
	DW	08f4fH
	DW	08f50H
	DW	08f53H
	DW	08fb4H
	DW	09140H
	DW	0913fH
	DW	091b0H
	DW	091adH
	DW	093deH
	DW	093c7H
	DW	093cfH
	DW	093c2H
	DW	093daH
	DW	093d0H
	DW	093f9H
	DW	093ecH
	DW	093ccH
	DW	093d9H
	DW	093a9H
	DW	093e6H
	DW	093caH
	DW	093d4H
	DW	093eeH
	DW	093e3H
	DW	093d5H
	DW	093c4H
	DW	093ceH
	DW	093c0H
	DW	093d2H
	DW	093e7H
	DW	0957dH
	DW	095daH
	DW	095dbH
	DW	096e1H
	DW	09729H
	DW	0972bH
	DW	0972cH
	DW	09728H
	DW	09726H
	DW	0fffeH
	DW	0fffeH
	DW	0fffeH
	DW	0fffeH
	DW	0fffeH
	DW	0fffeH
	DW	0fffeH
	DW	0fffeH
	DW	0fffeH
	DW	0fffeH
	DW	0fffeH
	DW	0fffeH
	DW	0fffeH
	DW	0fffeH
	DW	0fffeH
	DW	0fffeH
	DW	0fffeH
	DW	0fffeH
	DW	0fffeH
	DW	0fffeH
	DW	0fffeH
	DW	0fffeH
	DW	0fffeH
	DW	0fffeH
	DW	0fffeH
	DW	0fffeH
	DW	0fffeH
	DW	0fffeH
	DW	0fffeH
	DW	0fffeH
	DW	0fffeH
	DW	0fffeH
	DW	0fffeH
	DW	0fffeH
	DW	097b3H
	DW	097b7H
	DW	097b6H
	DW	097ddH
	DW	097deH
	DW	097dfH
	DW	0985cH
	DW	09859H
	DW	0985dH
	DW	09857H
	DW	098bfH
	DW	098bdH
	DW	098bbH
	DW	098beH
	DW	09948H
	DW	09947H
	DW	09943H
	DW	099a6H
	DW	099a7H
	DW	09a1aH
	DW	09a15H
	DW	09a25H
	DW	09a1dH
	DW	09a24H
	DW	09a1bH
	DW	09a22H
	DW	09a20H
	DW	09a27H
	DW	09a23H
	DW	09a1eH
	DW	09a1cH
	DW	09a14H
	DW	09ac2H
	DW	09b0bH
	DW	09b0aH
	DW	09b0eH
	DW	09b0cH
	DW	09b37H
	DW	09beaH
	DW	09bebH
	DW	09be0H
	DW	09bdeH
	DW	09be4H
	DW	09be6H
	DW	09be2H
	DW	09bf0H
	DW	09bd4H
	DW	09bd7H
	DW	09becH
	DW	09bdcH
	DW	09bd9H
	DW	09be5H
	DW	09bd5H
	DW	09be1H
	DW	09bdaH
	DW	09d77H
	DW	09d81H
	DW	09d8aH
	DW	09d84H
	DW	09d88H
	DW	09d71H
	DW	09d80H
	DW	09d78H
	DW	09d86H
	DW	09d8bH
	DW	09d8cH
	DW	09d7dH
	DW	09d6bH
	DW	09d74H
	DW	09d75H
	DW	09d70H
	DW	09d69H
	DW	09d85H
	DW	09d73H
	DW	09d7bH
	DW	09d82H
	DW	09d6fH
	DW	09d79H
	DW	09d7fH
	DW	09d87H
	DW	09d68H
	DW	09e94H
	DW	09e91H
	DW	09ec0H
	DW	09efcH
	DW	09f2dH
	DW	09f40H
	DW	09f41H
	DW	09f4dH
	DW	09f56H
	DW	09f57H
	DW	09f58H
	DW	05337H
	DW	056b2H
	DW	056b5H
	DW	056b3H
	DW	058e3H
	DW	05b45H
	DW	05dc6H
	DW	05dc7H
	DW	05eeeH
	DW	05eefH
	DW	05fc0H
	DW	05fc1H
	DW	061f9H
	DW	06517H
	DW	06516H
	DW	06515H
	DW	06513H
	DW	065dfH
	DW	066e8H
	DW	066e3H
	DW	066e4H
	DW	06af3H
	DW	06af0H
	DW	06aeaH
	DW	06ae8H
	DW	06af9H
	DW	06af1H
	DW	06aeeH
	DW	06aefH
	DW	0703cH
	DW	07035H
	DW	0702fH
	DW	07037H
	DW	07034H
	DW	07031H
	DW	07042H
	DW	07038H
	DW	0703fH
	DW	0703aH
	DW	07039H
	DW	07040H
	DW	0703bH
	DW	07033H
	DW	07041H
	DW	07213H
	DW	07214H
	DW	072a8H
	DW	0737dH
	DW	0737cH
	DW	074baH
	DW	076abH
	DW	076aaH
	DW	076beH
	DW	076edH
	DW	077ccH
	DW	077ceH
	DW	077cfH
	DW	077cdH
	DW	077f2H
	DW	07925H
	DW	07923H
	DW	07927H
	DW	07928H
	DW	07924H
	DW	07929H
	DW	0fffeH
	DW	0fffeH
	DW	0fffeH
	DW	0fffeH
	DW	0fffeH
	DW	0fffeH
	DW	0fffeH
	DW	0fffeH
	DW	0fffeH
	DW	0fffeH
	DW	0fffeH
	DW	0fffeH
	DW	0fffeH
	DW	0fffeH
	DW	0fffeH
	DW	0fffeH
	DW	0fffeH
	DW	0fffeH
	DW	0fffeH
	DW	0fffeH
	DW	0fffeH
	DW	0fffeH
	DW	0fffeH
	DW	0fffeH
	DW	0fffeH
	DW	0fffeH
	DW	0fffeH
	DW	0fffeH
	DW	0fffeH
	DW	0fffeH
	DW	0fffeH
	DW	0fffeH
	DW	0fffeH
	DW	0fffeH
	DW	079b2H
	DW	07a6eH
	DW	07a6cH
	DW	07a6dH
	DW	07af7H
	DW	07c49H
	DW	07c48H
	DW	07c4aH
	DW	07c47H
	DW	07c45H
	DW	07ceeH
	DW	07e7bH
	DW	07e7eH
	DW	07e81H
	DW	07e80H
	DW	07fbaH
	DW	07fffH
	DW	08079H
	DW	081dbH
	DW	081d9H
	DW	0820bH
	DW	08268H
	DW	08269H
	DW	08622H
	DW	085ffH
	DW	08601H
	DW	085feH
	DW	0861bH
	DW	08600H
	DW	085f6H
	DW	08604H
	DW	08609H
	DW	08605H
	DW	0860cH
	DW	085fdH
	DW	08819H
	DW	08810H
	DW	08811H
	DW	08817H
	DW	08813H
	DW	08816H
	DW	08963H
	DW	08966H
	DW	089b9H
	DW	089f7H
	DW	08b60H
	DW	08b6aH
	DW	08b5dH
	DW	08b68H
	DW	08b63H
	DW	08b65H
	DW	08b67H
	DW	08b6dH
	DW	08daeH
	DW	08e86H
	DW	08e88H
	DW	08e84H
	DW	08f59H
	DW	08f56H
	DW	08f57H
	DW	08f55H
	DW	08f58H
	DW	08f5aH
	DW	0908dH
	DW	09143H
	DW	09141H
	DW	091b7H
	DW	091b5H
	DW	091b2H
	DW	091b3H
	DW	0940bH
	DW	09413H
	DW	093fbH
	DW	09420H
	DW	0940fH
	DW	09414H
	DW	093feH
	DW	09415H
	DW	09410H
	DW	09428H
	DW	09419H
	DW	0940dH
	DW	093f5H
	DW	09400H
	DW	093f7H
	DW	09407H
	DW	0940eH
	DW	09416H
	DW	09412H
	DW	093faH
	DW	09409H
	DW	093f8H
	DW	0940aH
	DW	093ffH
	DW	093fcH
	DW	0940cH
	DW	093f6H
	DW	09411H
	DW	09406H
	DW	095deH
	DW	095e0H
	DW	095dfH
	DW	0972eH
	DW	0972fH
	DW	097b9H
	DW	097bbH
	DW	097fdH
	DW	097feH
	DW	09860H
	DW	09862H
	DW	09863H
	DW	0985fH
	DW	098c1H
	DW	098c2H
	DW	09950H
	DW	0994eH
	DW	09959H
	DW	0994cH
	DW	0994bH
	DW	09953H
	DW	09a32H
	DW	09a34H
	DW	09a31H
	DW	09a2cH
	DW	09a2aH
	DW	09a36H
	DW	09a29H
	DW	09a2eH
	DW	09a38H
	DW	09a2dH
	DW	09ac7H
	DW	09acaH
	DW	09ac6H
	DW	09b10H
	DW	09b12H
	DW	09b11H
	DW	09c0bH
	DW	09c08H
	DW	09bf7H
	DW	09c05H
	DW	09c12H
	DW	09bf8H
	DW	09c40H
	DW	09c07H
	DW	09c0eH
	DW	09c06H
	DW	09c17H
	DW	09c14H
	DW	09c09H
	DW	09d9fH
	DW	09d99H
	DW	09da4H
	DW	09d9dH
	DW	09d92H
	DW	09d98H
	DW	09d90H
	DW	09d9bH
	DW	0fffeH
	DW	0fffeH
	DW	0fffeH
	DW	0fffeH
	DW	0fffeH
	DW	0fffeH
	DW	0fffeH
	DW	0fffeH
	DW	0fffeH
	DW	0fffeH
	DW	0fffeH
	DW	0fffeH
	DW	0fffeH
	DW	0fffeH
	DW	0fffeH
	DW	0fffeH
	DW	0fffeH
	DW	0fffeH
	DW	0fffeH
	DW	0fffeH
	DW	0fffeH
	DW	0fffeH
	DW	0fffeH
	DW	0fffeH
	DW	0fffeH
	DW	0fffeH
	DW	0fffeH
	DW	0fffeH
	DW	0fffeH
	DW	0fffeH
	DW	0fffeH
	DW	0fffeH
	DW	0fffeH
	DW	0fffeH
	DW	09da0H
	DW	09d94H
	DW	09d9cH
	DW	09daaH
	DW	09d97H
	DW	09da1H
	DW	09d9aH
	DW	09da2H
	DW	09da8H
	DW	09d9eH
	DW	09da3H
	DW	09dbfH
	DW	09da9H
	DW	09d96H
	DW	09da6H
	DW	09da7H
	DW	09e99H
	DW	09e9bH
	DW	09e9aH
	DW	09ee5H
	DW	09ee4H
	DW	09ee7H
	DW	09ee6H
	DW	09f30H
	DW	09f2eH
	DW	09f5bH
	DW	09f60H
	DW	09f5eH
	DW	09f5dH
	DW	09f59H
	DW	09f91H
	DW	0513aH
	DW	05139H
	DW	05298H
	DW	05297H
	DW	056c3H
	DW	056bdH
	DW	056beH
	DW	05b48H
	DW	05b47H
	DW	05dcbH
	DW	05dcfH
	DW	05ef1H
	DW	061fdH
	DW	0651bH
	DW	06b02H
	DW	06afcH
	DW	06b03H
	DW	06af8H
	DW	06b00H
	DW	07043H
	DW	07044H
	DW	0704aH
	DW	07048H
	DW	07049H
	DW	07045H
	DW	07046H
	DW	0721dH
	DW	0721aH
	DW	07219H
	DW	0737eH
	DW	07517H
	DW	0766aH
	DW	077d0H
	DW	0792dH
	DW	07931H
	DW	0792fH
	DW	07c54H
	DW	07c53H
	DW	07cf2H
	DW	07e8aH
	DW	07e87H
	DW	07e88H
	DW	07e8bH
	DW	07e86H
	DW	07e8dH
	DW	07f4dH
	DW	07fbbH
	DW	08030H
	DW	081ddH
	DW	08618H
	DW	0862aH
	DW	08626H
	DW	0861fH
	DW	08623H
	DW	0861cH
	DW	08619H
	DW	08627H
	DW	0862eH
	DW	08621H
	DW	08620H
	DW	08629H
	DW	0861eH
	DW	08625H
	DW	08829H
	DW	0881dH
	DW	0881bH
	DW	08820H
	DW	08824H
	DW	0881cH
	DW	0882bH
	DW	0884aH
	DW	0896dH
	DW	08969H
	DW	0896eH
	DW	0896bH
	DW	089faH
	DW	08b79H
	DW	08b78H
	DW	08b45H
	DW	08b7aH
	DW	08b7bH
	DW	08d10H
	DW	08d14H
	DW	08dafH
	DW	08e8eH
	DW	08e8cH
	DW	08f5eH
	DW	08f5bH
	DW	08f5dH
	DW	09146H
	DW	09144H
	DW	09145H
	DW	091b9H
	DW	0943fH
	DW	0943bH
	DW	09436H
	DW	09429H
	DW	0943dH
	DW	0943cH
	DW	09430H
	DW	09439H
	DW	0942aH
	DW	09437H
	DW	0942cH
	DW	09440H
	DW	09431H
	DW	095e5H
	DW	095e4H
	DW	095e3H
	DW	09735H
	DW	0973aH
	DW	097bfH
	DW	097e1H
	DW	09864H
	DW	098c9H
	DW	098c6H
	DW	098c0H
	DW	09958H
	DW	09956H
	DW	09a39H
	DW	09a3dH
	DW	09a46H
	DW	09a44H
	DW	09a42H
	DW	09a41H
	DW	09a3aH
	DW	0fffeH
	DW	0fffeH
	DW	0fffeH
	DW	0fffeH
	DW	0fffeH
	DW	0fffeH
	DW	0fffeH
	DW	0fffeH
	DW	0fffeH
	DW	0fffeH
	DW	0fffeH
	DW	0fffeH
	DW	0fffeH
	DW	0fffeH
	DW	0fffeH
	DW	0fffeH
	DW	0fffeH
	DW	0fffeH
	DW	0fffeH
	DW	0fffeH
	DW	0fffeH
	DW	0fffeH
	DW	0fffeH
	DW	0fffeH
	DW	0fffeH
	DW	0fffeH
	DW	0fffeH
	DW	0fffeH
	DW	0fffeH
	DW	0fffeH
	DW	0fffeH
	DW	0fffeH
	DW	0fffeH
	DW	0fffeH
	DW	09a3fH
	DW	09acdH
	DW	09b15H
	DW	09b17H
	DW	09b18H
	DW	09b16H
	DW	09b3aH
	DW	09b52H
	DW	09c2bH
	DW	09c1dH
	DW	09c1cH
	DW	09c2cH
	DW	09c23H
	DW	09c28H
	DW	09c29H
	DW	09c24H
	DW	09c21H
	DW	09db7H
	DW	09db6H
	DW	09dbcH
	DW	09dc1H
	DW	09dc7H
	DW	09dcaH
	DW	09dcfH
	DW	09dbeH
	DW	09dc5H
	DW	09dc3H
	DW	09dbbH
	DW	09db5H
	DW	09dceH
	DW	09db9H
	DW	09dbaH
	DW	09dacH
	DW	09dc8H
	DW	09db1H
	DW	09dadH
	DW	09dccH
	DW	09db3H
	DW	09dcdH
	DW	09db2H
	DW	09e7aH
	DW	09e9cH
	DW	09eebH
	DW	09eeeH
	DW	09eedH
	DW	09f1bH
	DW	09f18H
	DW	09f1aH
	DW	09f31H
	DW	09f4eH
	DW	09f65H
	DW	09f64H
	DW	09f92H
	DW	04eb9H
	DW	056c6H
	DW	056c5H
	DW	056cbH
	DW	05971H
	DW	05b4bH
	DW	05b4cH
	DW	05dd5H
	DW	05dd1H
	DW	05ef2H
	DW	06521H
	DW	06520H
	DW	06526H
	DW	06522H
	DW	06b0bH
	DW	06b08H
	DW	06b09H
	DW	06c0dH
	DW	07055H
	DW	07056H
	DW	07057H
	DW	07052H
	DW	0721eH
	DW	0721fH
	DW	072a9H
	DW	0737fH
	DW	074d8H
	DW	074d5H
	DW	074d9H
	DW	074d7H
	DW	0766dH
	DW	076adH
	DW	07935H
	DW	079b4H
	DW	07a70H
	DW	07a71H
	DW	07c57H
	DW	07c5cH
	DW	07c59H
	DW	07c5bH
	DW	07c5aH
	DW	07cf4H
	DW	07cf1H
	DW	07e91H
	DW	07f4fH
	DW	07f87H
	DW	081deH
	DW	0826bH
	DW	08634H
	DW	08635H
	DW	08633H
	DW	0862cH
	DW	08632H
	DW	08636H
	DW	0882cH
	DW	08828H
	DW	08826H
	DW	0882aH
	DW	08825H
	DW	08971H
	DW	089bfH
	DW	089beH
	DW	089fbH
	DW	08b7eH
	DW	08b84H
	DW	08b82H
	DW	08b86H
	DW	08b85H
	DW	08b7fH
	DW	08d15H
	DW	08e95H
	DW	08e94H
	DW	08e9aH
	DW	08e92H
	DW	08e90H
	DW	08e96H
	DW	08e97H
	DW	08f60H
	DW	08f62H
	DW	09147H
	DW	0944cH
	DW	09450H
	DW	0944aH
	DW	0944bH
	DW	0944fH
	DW	09447H
	DW	09445H
	DW	09448H
	DW	09449H
	DW	09446H
	DW	0973fH
	DW	097e3H
	DW	0986aH
	DW	09869H
	DW	098cbH
	DW	09954H
	DW	0995bH
	DW	09a4eH
	DW	09a53H
	DW	09a54H
	DW	09a4cH
	DW	09a4fH
	DW	09a48H
	DW	09a4aH
	DW	0fffeH
	DW	0fffeH
	DW	0fffeH
	DW	0fffeH
	DW	0fffeH
	DW	0fffeH
	DW	0fffeH
	DW	0fffeH
	DW	0fffeH
	DW	0fffeH
	DW	0fffeH
	DW	0fffeH
	DW	0fffeH
	DW	0fffeH
	DW	0fffeH
	DW	0fffeH
	DW	0fffeH
	DW	0fffeH
	DW	0fffeH
	DW	0fffeH
	DW	0fffeH
	DW	0fffeH
	DW	0fffeH
	DW	0fffeH
	DW	0fffeH
	DW	0fffeH
	DW	0fffeH
	DW	0fffeH
	DW	0fffeH
	DW	0fffeH
	DW	0fffeH
	DW	0fffeH
	DW	0fffeH
	DW	0fffeH
	DW	09a49H
	DW	09a52H
	DW	09a50H
	DW	09ad0H
	DW	09b19H
	DW	09b2bH
	DW	09b3bH
	DW	09b56H
	DW	09b55H
	DW	09c46H
	DW	09c48H
	DW	09c3fH
	DW	09c44H
	DW	09c39H
	DW	09c33H
	DW	09c41H
	DW	09c3cH
	DW	09c37H
	DW	09c34H
	DW	09c32H
	DW	09c3dH
	DW	09c36H
	DW	09ddbH
	DW	09dd2H
	DW	09ddeH
	DW	09ddaH
	DW	09dcbH
	DW	09dd0H
	DW	09ddcH
	DW	09dd1H
	DW	09ddfH
	DW	09de9H
	DW	09dd9H
	DW	09dd8H
	DW	09dd6H
	DW	09df5H
	DW	09dd5H
	DW	09dddH
	DW	09eb6H
	DW	09ef0H
	DW	09f35H
	DW	09f33H
	DW	09f32H
	DW	09f42H
	DW	09f6bH
	DW	09f95H
	DW	09fa2H
	DW	0513dH
	DW	05299H
	DW	058e8H
	DW	058e7H
	DW	05972H
	DW	05b4dH
	DW	05dd8H
	DW	0882fH
	DW	05f4fH
	DW	06201H
	DW	06203H
	DW	06204H
	DW	06529H
	DW	06525H
	DW	06596H
	DW	066ebH
	DW	06b11H
	DW	06b12H
	DW	06b0fH
	DW	06bcaH
	DW	0705bH
	DW	0705aH
	DW	07222H
	DW	07382H
	DW	07381H
	DW	07383H
	DW	07670H
	DW	077d4H
	DW	07c67H
	DW	07c66H
	DW	07e95H
	DW	0826cH
	DW	0863aH
	DW	08640H
	DW	08639H
	DW	0863cH
	DW	08631H
	DW	0863bH
	DW	0863eH
	DW	08830H
	DW	08832H
	DW	0882eH
	DW	08833H
	DW	08976H
	DW	08974H
	DW	08973H
	DW	089feH
	DW	08b8cH
	DW	08b8eH
	DW	08b8bH
	DW	08b88H
	DW	08c45H
	DW	08d19H
	DW	08e98H
	DW	08f64H
	DW	08f63H
	DW	091bcH
	DW	09462H
	DW	09455H
	DW	0945dH
	DW	09457H
	DW	0945eH
	DW	097c4H
	DW	097c5H
	DW	09800H
	DW	09a56H
	DW	09a59H
	DW	09b1eH
	DW	09b1fH
	DW	09b20H
	DW	09c52H
	DW	09c58H
	DW	09c50H
	DW	09c4aH
	DW	09c4dH
	DW	09c4bH
	DW	09c55H
	DW	09c59H
	DW	09c4cH
	DW	09c4eH
	DW	09dfbH
	DW	09df7H
	DW	09defH
	DW	09de3H
	DW	09debH
	DW	09df8H
	DW	09de4H
	DW	09df6H
	DW	09de1H
	DW	09deeH
	DW	09de6H
	DW	09df2H
	DW	09df0H
	DW	09de2H
	DW	09decH
	DW	09df4H
	DW	09df3H
	DW	09de8H
	DW	09dedH
	DW	09ec2H
	DW	09ed0H
	DW	09ef2H
	DW	09ef3H
	DW	09f06H
	DW	09f1cH
	DW	09f38H
	DW	09f37H
	DW	09f36H
	DW	09f43H
	DW	09f4fH
	DW	0fffeH
	DW	0fffeH
	DW	0fffeH
	DW	0fffeH
	DW	0fffeH
	DW	0fffeH
	DW	0fffeH
	DW	0fffeH
	DW	0fffeH
	DW	0fffeH
	DW	0fffeH
	DW	0fffeH
	DW	0fffeH
	DW	0fffeH
	DW	0fffeH
	DW	0fffeH
	DW	0fffeH
	DW	0fffeH
	DW	0fffeH
	DW	0fffeH
	DW	0fffeH
	DW	0fffeH
	DW	0fffeH
	DW	0fffeH
	DW	0fffeH
	DW	0fffeH
	DW	0fffeH
	DW	0fffeH
	DW	0fffeH
	DW	0fffeH
	DW	0fffeH
	DW	0fffeH
	DW	0fffeH
	DW	0fffeH
	DW	09f71H
	DW	09f70H
	DW	09f6eH
	DW	09f6fH
	DW	056d3H
	DW	056cdH
	DW	05b4eH
	DW	05c6dH
	DW	0652dH
	DW	066edH
	DW	066eeH
	DW	06b13H
	DW	0705fH
	DW	07061H
	DW	0705dH
	DW	07060H
	DW	07223H
	DW	074dbH
	DW	074e5H
	DW	077d5H
	DW	07938H
	DW	079b7H
	DW	079b6H
	DW	07c6aH
	DW	07e97H
	DW	07f89H
	DW	0826dH
	DW	08643H
	DW	08838H
	DW	08837H
	DW	08835H
	DW	0884bH
	DW	08b94H
	DW	08b95H
	DW	08e9eH
	DW	08e9fH
	DW	08ea0H
	DW	08e9dH
	DW	091beH
	DW	091bdH
	DW	091c2H
	DW	0946bH
	DW	09468H
	DW	09469H
	DW	096e5H
	DW	09746H
	DW	09743H
	DW	09747H
	DW	097c7H
	DW	097e5H
	DW	09a5eH
	DW	09ad5H
	DW	09b59H
	DW	09c63H
	DW	09c67H
	DW	09c66H
	DW	09c62H
	DW	09c5eH
	DW	09c60H
	DW	09e02H
	DW	09dfeH
	DW	09e07H
	DW	09e03H
	DW	09e06H
	DW	09e05H
	DW	09e00H
	DW	09e01H
	DW	09e09H
	DW	09dffH
	DW	09dfdH
	DW	09e04H
	DW	09ea0H
	DW	09f1eH
	DW	09f46H
	DW	09f74H
	DW	09f75H
	DW	09f76H
	DW	056d4H
	DW	0652eH
	DW	065b8H
	DW	06b18H
	DW	06b19H
	DW	06b17H
	DW	06b1aH
	DW	07062H
	DW	07226H
	DW	072aaH
	DW	077d8H
	DW	077d9H
	DW	07939H
	DW	07c69H
	DW	07c6bH
	DW	07cf6H
	DW	07e9aH
	DW	07e98H
	DW	07e9bH
	DW	07e99H
	DW	081e0H
	DW	081e1H
	DW	08646H
	DW	08647H
	DW	08648H
	DW	08979H
	DW	0897aH
	DW	0897cH
	DW	0897bH
	DW	089ffH
	DW	08b98H
	DW	08b99H
	DW	08ea5H
	DW	08ea4H
	DW	08ea3H
	DW	0946eH
	DW	0946dH
	DW	0946fH
	DW	09471H
	DW	09473H
	DW	09749H
	DW	09872H
	DW	0995fH
	DW	09c68H
	DW	09c6eH
	DW	09c6dH
	DW	09e0bH
	DW	09e0dH
	DW	09e10H
	DW	09e0fH
	DW	09e12H
	DW	09e11H
	DW	09ea1H
	DW	09ef5H
	DW	09f09H
	DW	09f47H
	DW	09f78H
	DW	09f7bH
	DW	09f7aH
	DW	09f79H
	DW	0571eH
	DW	07066H
	DW	07c6fH
	DW	0883cH
	DW	08db2H
	DW	08ea6H
	DW	091c3H
	DW	09474H
	DW	09478H
	DW	09476H
	DW	09475H
	DW	09a60H
	DW	09c74H
	DW	09c73H
	DW	09c71H
	DW	09c75H
	DW	09e14H
	DW	09e13H
	DW	09ef6H
	DW	09f0aH
	DW	0fffeH
	DW	0fffeH
	DW	0fffeH
	DW	0fffeH
	DW	0fffeH
	DW	0fffeH
	DW	0fffeH
	DW	0fffeH
	DW	0fffeH
	DW	0fffeH
	DW	0fffeH
	DW	0fffeH
	DW	0fffeH
	DW	0fffeH
	DW	0fffeH
	DW	0fffeH
	DW	0fffeH
	DW	0fffeH
	DW	0fffeH
	DW	0fffeH
	DW	0fffeH
	DW	0fffeH
	DW	0fffeH
	DW	0fffeH
	DW	0fffeH
	DW	0fffeH
	DW	0fffeH
	DW	0fffeH
	DW	0fffeH
	DW	0fffeH
	DW	0fffeH
	DW	0fffeH
	DW	0fffeH
	DW	0fffeH
	DW	09fa4H
	DW	07068H
	DW	07065H
	DW	07cf7H
	DW	0866aH
	DW	0883eH
	DW	0883dH
	DW	0883fH
	DW	08b9eH
	DW	08c9cH
	DW	08ea9H
	DW	08ec9H
	DW	0974bH
	DW	09873H
	DW	09874H
	DW	098ccH
	DW	09961H
	DW	099abH
	DW	09a64H
	DW	09a66H
	DW	09a67H
	DW	09b24H
	DW	09e15H
	DW	09e17H
	DW	09f48H
	DW	06207H
	DW	06b1eH
	DW	07227H
	DW	0864cH
	DW	08ea8H
	DW	09482H
	DW	09480H
	DW	09481H
	DW	09a69H
	DW	09a68H
	DW	09b2eH
	DW	09e19H
	DW	07229H
	DW	0864bH
	DW	08b9fH
	DW	09483H
	DW	09c79H
	DW	09eb7H
	DW	07675H
	DW	09a6bH
	DW	09c7aH
	DW	09e1dH
	DW	07069H
	DW	0706aH
	DW	09ea4H
	DW	09f7eH
	DW	09f49H
	DW	09f98H
	ORG $+4
big5_decmap DQ	0000000000000000H
	DB	00H
	DB	00H
	ORG $+6
	DQ	0000000000000000H
	DB	00H
	DB	00H
	ORG $+6
	DQ	0000000000000000H
	DB	00H
	DB	00H
	ORG $+6
	DQ	0000000000000000H
	DB	00H
	DB	00H
	ORG $+6
	DQ	0000000000000000H
	DB	00H
	DB	00H
	ORG $+6
	DQ	0000000000000000H
	DB	00H
	DB	00H
	ORG $+6
	DQ	0000000000000000H
	DB	00H
	DB	00H
	ORG $+6
	DQ	0000000000000000H
	DB	00H
	DB	00H
	ORG $+6
	DQ	0000000000000000H
	DB	00H
	DB	00H
	ORG $+6
	DQ	0000000000000000H
	DB	00H
	DB	00H
	ORG $+6
	DQ	0000000000000000H
	DB	00H
	DB	00H
	ORG $+6
	DQ	0000000000000000H
	DB	00H
	DB	00H
	ORG $+6
	DQ	0000000000000000H
	DB	00H
	DB	00H
	ORG $+6
	DQ	0000000000000000H
	DB	00H
	DB	00H
	ORG $+6
	DQ	0000000000000000H
	DB	00H
	DB	00H
	ORG $+6
	DQ	0000000000000000H
	DB	00H
	DB	00H
	ORG $+6
	DQ	0000000000000000H
	DB	00H
	DB	00H
	ORG $+6
	DQ	0000000000000000H
	DB	00H
	DB	00H
	ORG $+6
	DQ	0000000000000000H
	DB	00H
	DB	00H
	ORG $+6
	DQ	0000000000000000H
	DB	00H
	DB	00H
	ORG $+6
	DQ	0000000000000000H
	DB	00H
	DB	00H
	ORG $+6
	DQ	0000000000000000H
	DB	00H
	DB	00H
	ORG $+6
	DQ	0000000000000000H
	DB	00H
	DB	00H
	ORG $+6
	DQ	0000000000000000H
	DB	00H
	DB	00H
	ORG $+6
	DQ	0000000000000000H
	DB	00H
	DB	00H
	ORG $+6
	DQ	0000000000000000H
	DB	00H
	DB	00H
	ORG $+6
	DQ	0000000000000000H
	DB	00H
	DB	00H
	ORG $+6
	DQ	0000000000000000H
	DB	00H
	DB	00H
	ORG $+6
	DQ	0000000000000000H
	DB	00H
	DB	00H
	ORG $+6
	DQ	0000000000000000H
	DB	00H
	DB	00H
	ORG $+6
	DQ	0000000000000000H
	DB	00H
	DB	00H
	ORG $+6
	DQ	0000000000000000H
	DB	00H
	DB	00H
	ORG $+6
	DQ	0000000000000000H
	DB	00H
	DB	00H
	ORG $+6
	DQ	0000000000000000H
	DB	00H
	DB	00H
	ORG $+6
	DQ	0000000000000000H
	DB	00H
	DB	00H
	ORG $+6
	DQ	0000000000000000H
	DB	00H
	DB	00H
	ORG $+6
	DQ	0000000000000000H
	DB	00H
	DB	00H
	ORG $+6
	DQ	0000000000000000H
	DB	00H
	DB	00H
	ORG $+6
	DQ	0000000000000000H
	DB	00H
	DB	00H
	ORG $+6
	DQ	0000000000000000H
	DB	00H
	DB	00H
	ORG $+6
	DQ	0000000000000000H
	DB	00H
	DB	00H
	ORG $+6
	DQ	0000000000000000H
	DB	00H
	DB	00H
	ORG $+6
	DQ	0000000000000000H
	DB	00H
	DB	00H
	ORG $+6
	DQ	0000000000000000H
	DB	00H
	DB	00H
	ORG $+6
	DQ	0000000000000000H
	DB	00H
	DB	00H
	ORG $+6
	DQ	0000000000000000H
	DB	00H
	DB	00H
	ORG $+6
	DQ	0000000000000000H
	DB	00H
	DB	00H
	ORG $+6
	DQ	0000000000000000H
	DB	00H
	DB	00H
	ORG $+6
	DQ	0000000000000000H
	DB	00H
	DB	00H
	ORG $+6
	DQ	0000000000000000H
	DB	00H
	DB	00H
	ORG $+6
	DQ	0000000000000000H
	DB	00H
	DB	00H
	ORG $+6
	DQ	0000000000000000H
	DB	00H
	DB	00H
	ORG $+6
	DQ	0000000000000000H
	DB	00H
	DB	00H
	ORG $+6
	DQ	0000000000000000H
	DB	00H
	DB	00H
	ORG $+6
	DQ	0000000000000000H
	DB	00H
	DB	00H
	ORG $+6
	DQ	0000000000000000H
	DB	00H
	DB	00H
	ORG $+6
	DQ	0000000000000000H
	DB	00H
	DB	00H
	ORG $+6
	DQ	0000000000000000H
	DB	00H
	DB	00H
	ORG $+6
	DQ	0000000000000000H
	DB	00H
	DB	00H
	ORG $+6
	DQ	0000000000000000H
	DB	00H
	DB	00H
	ORG $+6
	DQ	0000000000000000H
	DB	00H
	DB	00H
	ORG $+6
	DQ	0000000000000000H
	DB	00H
	DB	00H
	ORG $+6
	DQ	0000000000000000H
	DB	00H
	DB	00H
	ORG $+6
	DQ	0000000000000000H
	DB	00H
	DB	00H
	ORG $+6
	DQ	0000000000000000H
	DB	00H
	DB	00H
	ORG $+6
	DQ	0000000000000000H
	DB	00H
	DB	00H
	ORG $+6
	DQ	0000000000000000H
	DB	00H
	DB	00H
	ORG $+6
	DQ	0000000000000000H
	DB	00H
	DB	00H
	ORG $+6
	DQ	0000000000000000H
	DB	00H
	DB	00H
	ORG $+6
	DQ	0000000000000000H
	DB	00H
	DB	00H
	ORG $+6
	DQ	0000000000000000H
	DB	00H
	DB	00H
	ORG $+6
	DQ	0000000000000000H
	DB	00H
	DB	00H
	ORG $+6
	DQ	0000000000000000H
	DB	00H
	DB	00H
	ORG $+6
	DQ	0000000000000000H
	DB	00H
	DB	00H
	ORG $+6
	DQ	0000000000000000H
	DB	00H
	DB	00H
	ORG $+6
	DQ	0000000000000000H
	DB	00H
	DB	00H
	ORG $+6
	DQ	0000000000000000H
	DB	00H
	DB	00H
	ORG $+6
	DQ	0000000000000000H
	DB	00H
	DB	00H
	ORG $+6
	DQ	0000000000000000H
	DB	00H
	DB	00H
	ORG $+6
	DQ	0000000000000000H
	DB	00H
	DB	00H
	ORG $+6
	DQ	0000000000000000H
	DB	00H
	DB	00H
	ORG $+6
	DQ	0000000000000000H
	DB	00H
	DB	00H
	ORG $+6
	DQ	0000000000000000H
	DB	00H
	DB	00H
	ORG $+6
	DQ	0000000000000000H
	DB	00H
	DB	00H
	ORG $+6
	DQ	0000000000000000H
	DB	00H
	DB	00H
	ORG $+6
	DQ	0000000000000000H
	DB	00H
	DB	00H
	ORG $+6
	DQ	0000000000000000H
	DB	00H
	DB	00H
	ORG $+6
	DQ	0000000000000000H
	DB	00H
	DB	00H
	ORG $+6
	DQ	0000000000000000H
	DB	00H
	DB	00H
	ORG $+6
	DQ	0000000000000000H
	DB	00H
	DB	00H
	ORG $+6
	DQ	0000000000000000H
	DB	00H
	DB	00H
	ORG $+6
	DQ	0000000000000000H
	DB	00H
	DB	00H
	ORG $+6
	DQ	0000000000000000H
	DB	00H
	DB	00H
	ORG $+6
	DQ	0000000000000000H
	DB	00H
	DB	00H
	ORG $+6
	DQ	0000000000000000H
	DB	00H
	DB	00H
	ORG $+6
	DQ	0000000000000000H
	DB	00H
	DB	00H
	ORG $+6
	DQ	0000000000000000H
	DB	00H
	DB	00H
	ORG $+6
	DQ	0000000000000000H
	DB	00H
	DB	00H
	ORG $+6
	DQ	0000000000000000H
	DB	00H
	DB	00H
	ORG $+6
	DQ	0000000000000000H
	DB	00H
	DB	00H
	ORG $+6
	DQ	0000000000000000H
	DB	00H
	DB	00H
	ORG $+6
	DQ	0000000000000000H
	DB	00H
	DB	00H
	ORG $+6
	DQ	0000000000000000H
	DB	00H
	DB	00H
	ORG $+6
	DQ	0000000000000000H
	DB	00H
	DB	00H
	ORG $+6
	DQ	0000000000000000H
	DB	00H
	DB	00H
	ORG $+6
	DQ	0000000000000000H
	DB	00H
	DB	00H
	ORG $+6
	DQ	0000000000000000H
	DB	00H
	DB	00H
	ORG $+6
	DQ	0000000000000000H
	DB	00H
	DB	00H
	ORG $+6
	DQ	0000000000000000H
	DB	00H
	DB	00H
	ORG $+6
	DQ	0000000000000000H
	DB	00H
	DB	00H
	ORG $+6
	DQ	0000000000000000H
	DB	00H
	DB	00H
	ORG $+6
	DQ	0000000000000000H
	DB	00H
	DB	00H
	ORG $+6
	DQ	0000000000000000H
	DB	00H
	DB	00H
	ORG $+6
	DQ	0000000000000000H
	DB	00H
	DB	00H
	ORG $+6
	DQ	0000000000000000H
	DB	00H
	DB	00H
	ORG $+6
	DQ	0000000000000000H
	DB	00H
	DB	00H
	ORG $+6
	DQ	0000000000000000H
	DB	00H
	DB	00H
	ORG $+6
	DQ	0000000000000000H
	DB	00H
	DB	00H
	ORG $+6
	DQ	0000000000000000H
	DB	00H
	DB	00H
	ORG $+6
	DQ	0000000000000000H
	DB	00H
	DB	00H
	ORG $+6
	DQ	0000000000000000H
	DB	00H
	DB	00H
	ORG $+6
	DQ	0000000000000000H
	DB	00H
	DB	00H
	ORG $+6
	DQ	0000000000000000H
	DB	00H
	DB	00H
	ORG $+6
	DQ	0000000000000000H
	DB	00H
	DB	00H
	ORG $+6
	DQ	0000000000000000H
	DB	00H
	DB	00H
	ORG $+6
	DQ	0000000000000000H
	DB	00H
	DB	00H
	ORG $+6
	DQ	0000000000000000H
	DB	00H
	DB	00H
	ORG $+6
	DQ	0000000000000000H
	DB	00H
	DB	00H
	ORG $+6
	DQ	0000000000000000H
	DB	00H
	DB	00H
	ORG $+6
	DQ	0000000000000000H
	DB	00H
	DB	00H
	ORG $+6
	DQ	0000000000000000H
	DB	00H
	DB	00H
	ORG $+6
	DQ	0000000000000000H
	DB	00H
	DB	00H
	ORG $+6
	DQ	0000000000000000H
	DB	00H
	DB	00H
	ORG $+6
	DQ	0000000000000000H
	DB	00H
	DB	00H
	ORG $+6
	DQ	0000000000000000H
	DB	00H
	DB	00H
	ORG $+6
	DQ	0000000000000000H
	DB	00H
	DB	00H
	ORG $+6
	DQ	0000000000000000H
	DB	00H
	DB	00H
	ORG $+6
	DQ	0000000000000000H
	DB	00H
	DB	00H
	ORG $+6
	DQ	0000000000000000H
	DB	00H
	DB	00H
	ORG $+6
	DQ	0000000000000000H
	DB	00H
	DB	00H
	ORG $+6
	DQ	0000000000000000H
	DB	00H
	DB	00H
	ORG $+6
	DQ	0000000000000000H
	DB	00H
	DB	00H
	ORG $+6
	DQ	0000000000000000H
	DB	00H
	DB	00H
	ORG $+6
	DQ	0000000000000000H
	DB	00H
	DB	00H
	ORG $+6
	DQ	0000000000000000H
	DB	00H
	DB	00H
	ORG $+6
	DQ	0000000000000000H
	DB	00H
	DB	00H
	ORG $+6
	DQ	0000000000000000H
	DB	00H
	DB	00H
	ORG $+6
	DQ	0000000000000000H
	DB	00H
	DB	00H
	ORG $+6
	DQ	0000000000000000H
	DB	00H
	DB	00H
	ORG $+6
	DQ	0000000000000000H
	DB	00H
	DB	00H
	ORG $+6
	DQ	0000000000000000H
	DB	00H
	DB	00H
	ORG $+6
	DQ	0000000000000000H
	DB	00H
	DB	00H
	ORG $+6
	DQ	0000000000000000H
	DB	00H
	DB	00H
	ORG $+6
	DQ	0000000000000000H
	DB	00H
	DB	00H
	ORG $+6
	DQ	0000000000000000H
	DB	00H
	DB	00H
	ORG $+6
	DQ	0000000000000000H
	DB	00H
	DB	00H
	ORG $+6
	DQ	0000000000000000H
	DB	00H
	DB	00H
	ORG $+6
	DQ	0000000000000000H
	DB	00H
	DB	00H
	ORG $+6
	DQ	0000000000000000H
	DB	00H
	DB	00H
	ORG $+6
	DQ	0000000000000000H
	DB	00H
	DB	00H
	ORG $+6
	DQ	0000000000000000H
	DB	00H
	DB	00H
	ORG $+6
	DQ	FLAT:__big5_decmap
	DB	040H
	DB	0feH
	ORG $+6
	DQ	FLAT:__big5_decmap+382
	DB	040H
	DB	0feH
	ORG $+6
	DQ	FLAT:__big5_decmap+764
	DB	040H
	DB	0bfH
	ORG $+6
	DQ	FLAT:__big5_decmap+1020
	DB	040H
	DB	0feH
	ORG $+6
	DQ	FLAT:__big5_decmap+1402
	DB	040H
	DB	0feH
	ORG $+6
	DQ	FLAT:__big5_decmap+1784
	DB	040H
	DB	0feH
	ORG $+6
	DQ	FLAT:__big5_decmap+2166
	DB	040H
	DB	0feH
	ORG $+6
	DQ	FLAT:__big5_decmap+2548
	DB	040H
	DB	0feH
	ORG $+6
	DQ	FLAT:__big5_decmap+2930
	DB	040H
	DB	0feH
	ORG $+6
	DQ	FLAT:__big5_decmap+3312
	DB	040H
	DB	0feH
	ORG $+6
	DQ	FLAT:__big5_decmap+3694
	DB	040H
	DB	0feH
	ORG $+6
	DQ	FLAT:__big5_decmap+4076
	DB	040H
	DB	0feH
	ORG $+6
	DQ	FLAT:__big5_decmap+4458
	DB	040H
	DB	0feH
	ORG $+6
	DQ	FLAT:__big5_decmap+4840
	DB	040H
	DB	0feH
	ORG $+6
	DQ	FLAT:__big5_decmap+5222
	DB	040H
	DB	0feH
	ORG $+6
	DQ	FLAT:__big5_decmap+5604
	DB	040H
	DB	0feH
	ORG $+6
	DQ	FLAT:__big5_decmap+5986
	DB	040H
	DB	0feH
	ORG $+6
	DQ	FLAT:__big5_decmap+6368
	DB	040H
	DB	0feH
	ORG $+6
	DQ	FLAT:__big5_decmap+6750
	DB	040H
	DB	0feH
	ORG $+6
	DQ	FLAT:__big5_decmap+7132
	DB	040H
	DB	0feH
	ORG $+6
	DQ	FLAT:__big5_decmap+7514
	DB	040H
	DB	0feH
	ORG $+6
	DQ	FLAT:__big5_decmap+7896
	DB	040H
	DB	0feH
	ORG $+6
	DQ	FLAT:__big5_decmap+8278
	DB	040H
	DB	0feH
	ORG $+6
	DQ	FLAT:__big5_decmap+8660
	DB	040H
	DB	0feH
	ORG $+6
	DQ	FLAT:__big5_decmap+9042
	DB	040H
	DB	0feH
	ORG $+6
	DQ	FLAT:__big5_decmap+9424
	DB	040H
	DB	0feH
	ORG $+6
	DQ	FLAT:__big5_decmap+9806
	DB	040H
	DB	0feH
	ORG $+6
	DQ	FLAT:__big5_decmap+10188
	DB	040H
	DB	0feH
	ORG $+6
	DQ	FLAT:__big5_decmap+10570
	DB	040H
	DB	0feH
	ORG $+6
	DQ	FLAT:__big5_decmap+10952
	DB	040H
	DB	0feH
	ORG $+6
	DQ	FLAT:__big5_decmap+11334
	DB	040H
	DB	0feH
	ORG $+6
	DQ	FLAT:__big5_decmap+11716
	DB	040H
	DB	0feH
	ORG $+6
	DQ	FLAT:__big5_decmap+12098
	DB	040H
	DB	0feH
	ORG $+6
	DQ	FLAT:__big5_decmap+12480
	DB	040H
	DB	0feH
	ORG $+6
	DQ	FLAT:__big5_decmap+12862
	DB	040H
	DB	0feH
	ORG $+6
	DQ	FLAT:__big5_decmap+13244
	DB	040H
	DB	0feH
	ORG $+6
	DQ	FLAT:__big5_decmap+13626
	DB	040H
	DB	0feH
	ORG $+6
	DQ	FLAT:__big5_decmap+14008
	DB	040H
	DB	0feH
	ORG $+6
	DQ	FLAT:__big5_decmap+14390
	DB	040H
	DB	0fcH
	ORG $+6
	DQ	0000000000000000H
	DB	00H
	DB	00H
	ORG $+6
	DQ	FLAT:__big5_decmap+14768
	DB	040H
	DB	0feH
	ORG $+6
	DQ	FLAT:__big5_decmap+15150
	DB	040H
	DB	0feH
	ORG $+6
	DQ	FLAT:__big5_decmap+15532
	DB	040H
	DB	0feH
	ORG $+6
	DQ	FLAT:__big5_decmap+15914
	DB	040H
	DB	0feH
	ORG $+6
	DQ	FLAT:__big5_decmap+16296
	DB	040H
	DB	0feH
	ORG $+6
	DQ	FLAT:__big5_decmap+16678
	DB	040H
	DB	0feH
	ORG $+6
	DQ	FLAT:__big5_decmap+17060
	DB	040H
	DB	0feH
	ORG $+6
	DQ	FLAT:__big5_decmap+17442
	DB	040H
	DB	0feH
	ORG $+6
	DQ	FLAT:__big5_decmap+17824
	DB	040H
	DB	0feH
	ORG $+6
	DQ	FLAT:__big5_decmap+18206
	DB	040H
	DB	0feH
	ORG $+6
	DQ	FLAT:__big5_decmap+18588
	DB	040H
	DB	0feH
	ORG $+6
	DQ	FLAT:__big5_decmap+18970
	DB	040H
	DB	0feH
	ORG $+6
	DQ	FLAT:__big5_decmap+19352
	DB	040H
	DB	0feH
	ORG $+6
	DQ	FLAT:__big5_decmap+19734
	DB	040H
	DB	0feH
	ORG $+6
	DQ	FLAT:__big5_decmap+20116
	DB	040H
	DB	0feH
	ORG $+6
	DQ	FLAT:__big5_decmap+20498
	DB	040H
	DB	0feH
	ORG $+6
	DQ	FLAT:__big5_decmap+20880
	DB	040H
	DB	0feH
	ORG $+6
	DQ	FLAT:__big5_decmap+21262
	DB	040H
	DB	0feH
	ORG $+6
	DQ	FLAT:__big5_decmap+21644
	DB	040H
	DB	0feH
	ORG $+6
	DQ	FLAT:__big5_decmap+22026
	DB	040H
	DB	0feH
	ORG $+6
	DQ	FLAT:__big5_decmap+22408
	DB	040H
	DB	0feH
	ORG $+6
	DQ	FLAT:__big5_decmap+22790
	DB	040H
	DB	0feH
	ORG $+6
	DQ	FLAT:__big5_decmap+23172
	DB	040H
	DB	0feH
	ORG $+6
	DQ	FLAT:__big5_decmap+23554
	DB	040H
	DB	0feH
	ORG $+6
	DQ	FLAT:__big5_decmap+23936
	DB	040H
	DB	0feH
	ORG $+6
	DQ	FLAT:__big5_decmap+24318
	DB	040H
	DB	0feH
	ORG $+6
	DQ	FLAT:__big5_decmap+24700
	DB	040H
	DB	0feH
	ORG $+6
	DQ	FLAT:__big5_decmap+25082
	DB	040H
	DB	0feH
	ORG $+6
	DQ	FLAT:__big5_decmap+25464
	DB	040H
	DB	0feH
	ORG $+6
	DQ	FLAT:__big5_decmap+25846
	DB	040H
	DB	0feH
	ORG $+6
	DQ	FLAT:__big5_decmap+26228
	DB	040H
	DB	0feH
	ORG $+6
	DQ	FLAT:__big5_decmap+26610
	DB	040H
	DB	0feH
	ORG $+6
	DQ	FLAT:__big5_decmap+26992
	DB	040H
	DB	0feH
	ORG $+6
	DQ	FLAT:__big5_decmap+27374
	DB	040H
	DB	0feH
	ORG $+6
	DQ	FLAT:__big5_decmap+27756
	DB	040H
	DB	0feH
	ORG $+6
	DQ	FLAT:__big5_decmap+28138
	DB	040H
	DB	0feH
	ORG $+6
	DQ	FLAT:__big5_decmap+28520
	DB	040H
	DB	0feH
	ORG $+6
	DQ	FLAT:__big5_decmap+28902
	DB	040H
	DB	0feH
	ORG $+6
	DQ	FLAT:__big5_decmap+29284
	DB	040H
	DB	0feH
	ORG $+6
	DQ	FLAT:__big5_decmap+29666
	DB	040H
	DB	0feH
	ORG $+6
	DQ	FLAT:__big5_decmap+30048
	DB	040H
	DB	0feH
	ORG $+6
	DQ	FLAT:__big5_decmap+30430
	DB	040H
	DB	0feH
	ORG $+6
	DQ	FLAT:__big5_decmap+30812
	DB	040H
	DB	0feH
	ORG $+6
	DQ	FLAT:__big5_decmap+31194
	DB	040H
	DB	0feH
	ORG $+6
	DQ	FLAT:__big5_decmap+31576
	DB	040H
	DB	0feH
	ORG $+6
	DQ	FLAT:__big5_decmap+31958
	DB	040H
	DB	0feH
	ORG $+6
	DQ	FLAT:__big5_decmap+32340
	DB	040H
	DB	0feH
	ORG $+6
	DQ	FLAT:__big5_decmap+32722
	DB	040H
	DB	0feH
	ORG $+6
	DQ	FLAT:__big5_decmap+33104
	DB	040H
	DB	0d5H
	ORG $+6
	DQ	0000000000000000H
	DB	00H
	DB	00H
	ORG $+6
	DQ	0000000000000000H
	DB	00H
	DB	00H
	ORG $+6
	DQ	0000000000000000H
	DB	00H
	DB	00H
	ORG $+6
	DQ	0000000000000000H
	DB	00H
	DB	00H
	ORG $+6
	DQ	0000000000000000H
	DB	00H
	DB	00H
	ORG $+6
	DQ	0000000000000000H
	DB	00H
	DB	00H
	ORG $+6
__big5_encmap DW 0a246H
	DW	0a247H
	DW	0ffffH
	DW	0a244H
	DW	0ffffH
	DW	0a1b1H
	DW	0ffffH
	DW	0ffffH
	DW	0ffffH
	DW	0ffffH
	DW	0ffffH
	DW	0ffffH
	DW	0ffffH
	DW	0ffffH
	DW	0a258H
	DW	0a1d3H
	DW	0ffffH
	DW	0ffffH
	DW	0ffffH
	DW	0ffffH
	DW	0ffffH
	DW	0a150H
	DW	0ffffH
	DW	0ffffH
	DW	0ffffH
	DW	0ffffH
	DW	0ffffH
	DW	0ffffH
	DW	0ffffH
	DW	0ffffH
	DW	0ffffH
	DW	0ffffH
	DW	0ffffH
	DW	0ffffH
	DW	0ffffH
	DW	0ffffH
	DW	0ffffH
	DW	0ffffH
	DW	0ffffH
	DW	0ffffH
	DW	0ffffH
	DW	0ffffH
	DW	0ffffH
	DW	0ffffH
	DW	0ffffH
	DW	0ffffH
	DW	0ffffH
	DW	0ffffH
	DW	0ffffH
	DW	0ffffH
	DW	0ffffH
	DW	0ffffH
	DW	0ffffH
	DW	0a1d1H
	DW	0ffffH
	DW	0ffffH
	DW	0ffffH
	DW	0ffffH
	DW	0ffffH
	DW	0ffffH
	DW	0ffffH
	DW	0ffffH
	DW	0ffffH
	DW	0ffffH
	DW	0ffffH
	DW	0ffffH
	DW	0ffffH
	DW	0ffffH
	DW	0ffffH
	DW	0ffffH
	DW	0ffffH
	DW	0ffffH
	DW	0ffffH
	DW	0ffffH
	DW	0ffffH
	DW	0ffffH
	DW	0ffffH
	DW	0ffffH
	DW	0ffffH
	DW	0ffffH
	DW	0ffffH
	DW	0ffffH
	DW	0ffffH
	DW	0ffffH
	DW	0ffffH
	DW	0a1d2H
	DW	0a3beH
	DW	0ffffH
	DW	0a3bcH
	DW	0a3bdH
	DW	0a3bfH
	DW	0ffffH
	DW	0a1c5H
	DW	0ffffH
	DW	0ffffH
	DW	0ffffH
	DW	0ffffH
	DW	0ffffH
	DW	0ffffH
	DW	0ffffH
	DW	0ffffH
	DW	0ffffH
	DW	0ffffH
	DW	0ffffH
	DW	0a3bbH
	DW	0a344H
	DW	0a345H
	DW	0a346H
	DW	0a347H
	DW	0a348H
	DW	0a349H
	DW	0a34aH
	DW	0a34bH
	DW	0a34cH
	DW	0a34dH
	DW	0a34eH
	DW	0a34fH
	DW	0a350H
	DW	0a351H
	DW	0a352H
	DW	0a353H
	DW	0a354H
	DW	0ffffH
	DW	0a355H
	DW	0a356H
	DW	0a357H
	DW	0a358H
	DW	0a359H
	DW	0a35aH
	DW	0a35bH
	DW	0ffffH
	DW	0ffffH
	DW	0ffffH
	DW	0ffffH
	DW	0ffffH
	DW	0ffffH
	DW	0ffffH
	DW	0a35cH
	DW	0a35dH
	DW	0a35eH
	DW	0a35fH
	DW	0a360H
	DW	0a361H
	DW	0a362H
	DW	0a363H
	DW	0a364H
	DW	0a365H
	DW	0a366H
	DW	0a367H
	DW	0a368H
	DW	0a369H
	DW	0a36aH
	DW	0a36bH
	DW	0a36cH
	DW	0ffffH
	DW	0a36dH
	DW	0a36eH
	DW	0a36fH
	DW	0a370H
	DW	0a371H
	DW	0a372H
	DW	0a373H
	DW	0c7b3H
	DW	0ffffH
	DW	0ffffH
	DW	0ffffH
	DW	0ffffH
	DW	0ffffH
	DW	0ffffH
	DW	0ffffH
	DW	0ffffH
	DW	0ffffH
	DW	0ffffH
	DW	0ffffH
	DW	0ffffH
	DW	0ffffH
	DW	0ffffH
	DW	0ffffH
	DW	0ffffH
	DW	0ffffH
	DW	0ffffH
	DW	0c7b1H
	DW	0c7b2H
	DW	0c7b4H
	DW	0c7b5H
	DW	0c7b6H
	DW	0c7b7H
	DW	0c7b8H
	DW	0c7b9H
	DW	0c7baH
	DW	0ffffH
	DW	0ffffH
	DW	0ffffH
	DW	0ffffH
	DW	0ffffH
	DW	0ffffH
	DW	0c7bbH
	DW	0c7bcH
	DW	0c7bdH
	DW	0c7beH
	DW	0c7bfH
	DW	0c7c0H
	DW	0c7c1H
	DW	0c7c2H
	DW	0c7c3H
	DW	0c7c4H
	DW	0c7c5H
	DW	0c7c6H
	DW	0c7c7H
	DW	0c7c8H
	DW	0c7c9H
	DW	0c7caH
	DW	0c7cbH
	DW	0c7ccH
	DW	0c7cdH
	DW	0c7cfH
	DW	0c7d0H
	DW	0c7d1H
	DW	0c7d2H
	DW	0c7d3H
	DW	0c7d4H
	DW	0c7d5H
	DW	0c7d6H
	DW	0c7d7H
	DW	0c7d8H
	DW	0c7d9H
	DW	0c7daH
	DW	0c7dbH
	DW	0c7dcH
	DW	0c7ddH
	DW	0c7deH
	DW	0c7dfH
	DW	0c7e0H
	DW	0c7e1H
	DW	0c7e2H
	DW	0c7e3H
	DW	0c7e4H
	DW	0c7e5H
	DW	0c7e6H
	DW	0c7e7H
	DW	0c7e8H
	DW	0ffffH
	DW	0c7ceH
	DW	0a156H
	DW	0a158H
	DW	0ffffH
	DW	0ffffH
	DW	0ffffH
	DW	0a1a5H
	DW	0a1a6H
	DW	0ffffH
	DW	0ffffH
	DW	0a1a7H
	DW	0a1a8H
	DW	0ffffH
	DW	0ffffH
	DW	0ffffH
	DW	0ffffH
	DW	0a145H
	DW	0ffffH
	DW	0ffffH
	DW	0a14cH
	DW	0a14bH
	DW	0ffffH
	DW	0ffffH
	DW	0ffffH
	DW	0ffffH
	DW	0ffffH
	DW	0ffffH
	DW	0ffffH
	DW	0ffffH
	DW	0ffffH
	DW	0ffffH
	DW	0ffffH
	DW	0a1acH
	DW	0ffffH
	DW	0ffffH
	DW	0a1abH
	DW	0ffffH
	DW	0ffffH
	DW	0ffffH
	DW	0ffffH
	DW	0ffffH
	DW	0a1b0H
	DW	0ffffH
	DW	0ffffH
	DW	0a1c2H
	DW	0a24aH
	DW	0ffffH
	DW	0a1c1H
	DW	0ffffH
	DW	0ffffH
	DW	0ffffH
	DW	0a24bH
	DW	0ffffH
	DW	0ffffH
	DW	0ffffH
	DW	0ffffH
	DW	0ffffH
	DW	0ffffH
	DW	0ffffH
	DW	0ffffH
	DW	0ffffH
	DW	0ffffH
	DW	0ffffH
	DW	0ffffH
	DW	0ffffH
	DW	0ffffH
	DW	0ffffH
	DW	0ffffH
	DW	0ffffH
	DW	0ffffH
	DW	0ffffH
	DW	0ffffH
	DW	0ffffH
	DW	0ffffH
	DW	0ffffH
	DW	0ffffH
	DW	0ffffH
	DW	0ffffH
	DW	0ffffH
	DW	0ffffH
	DW	0ffffH
	DW	0ffffH
	DW	0ffffH
	DW	0ffffH
	DW	0ffffH
	DW	0ffffH
	DW	0ffffH
	DW	0ffffH
	DW	0ffffH
	DW	0ffffH
	DW	0ffffH
	DW	0ffffH
	DW	0ffffH
	DW	0ffffH
	DW	0ffffH
	DW	0ffffH
	DW	0ffffH
	DW	0ffffH
	DW	0ffffH
	DW	0ffffH
	DW	0ffffH
	DW	0ffffH
	DW	0ffffH
	DW	0ffffH
	DW	0ffffH
	DW	0ffffH
	DW	0ffffH
	DW	0ffffH
	DW	0ffffH
	DW	0ffffH
	DW	0ffffH
	DW	0ffffH
	DW	0ffffH
	DW	0ffffH
	DW	0ffffH
	DW	0ffffH
	DW	0ffffH
	DW	0ffffH
	DW	0ffffH
	DW	0ffffH
	DW	0ffffH
	DW	0ffffH
	DW	0ffffH
	DW	0ffffH
	DW	0ffffH
	DW	0ffffH
	DW	0ffffH
	DW	0ffffH
	DW	0ffffH
	DW	0ffffH
	DW	0ffffH
	DW	0ffffH
	DW	0ffffH
	DW	0ffffH
	DW	0ffffH
	DW	0ffffH
	DW	0ffffH
	DW	0ffffH
	DW	0a2b9H
	DW	0a2baH
	DW	0a2bbH
	DW	0a2bcH
	DW	0a2bdH
	DW	0a2beH
	DW	0a2bfH
	DW	0a2c0H
	DW	0a2c1H
	DW	0a2c2H
	DW	0ffffH
	DW	0ffffH
	DW	0ffffH
	DW	0ffffH
	DW	0ffffH
	DW	0ffffH
	DW	0ffffH
	DW	0ffffH
	DW	0ffffH
	DW	0ffffH
	DW	0ffffH
	DW	0ffffH
	DW	0ffffH
	DW	0ffffH
	DW	0ffffH
	DW	0ffffH
	DW	0ffffH
	DW	0ffffH
	DW	0ffffH
	DW	0ffffH
	DW	0ffffH
	DW	0ffffH
	DW	0ffffH
	DW	0ffffH
	DW	0ffffH
	DW	0ffffH
	DW	0ffffH
	DW	0ffffH
	DW	0ffffH
	DW	0ffffH
	DW	0ffffH
	DW	0ffffH
	DW	0ffffH
	DW	0ffffH
	DW	0ffffH
	DW	0ffffH
	DW	0ffffH
	DW	0ffffH
	DW	0a1f6H
	DW	0a1f4H
	DW	0a1f7H
	DW	0a1f5H
	DW	0ffffH
	DW	0ffffH
	DW	0a1f8H
	DW	0a1f9H
	DW	0a1fbH
	DW	0a1faH
	DW	0a1d4H
	DW	0ffffH
	DW	0ffffH
	DW	0ffffH
	DW	0a1dbH
	DW	0a1e8H
	DW	0a1e7H
	DW	0ffffH
	DW	0ffffH
	DW	0a1fdH
	DW	0ffffH
	DW	0a1fcH
	DW	0ffffH
	DW	0ffffH
	DW	0ffffH
	DW	0a1e4H
	DW	0a1e5H
	DW	0a1ecH
	DW	0ffffH
	DW	0ffffH
	DW	0a1edH
	DW	0ffffH
	DW	0ffffH
	DW	0ffffH
	DW	0ffffH
	DW	0ffffH
	DW	0a1efH
	DW	0a1eeH
	DW	0ffffH
	DW	0ffffH
	DW	0ffffH
	DW	0ffffH
	DW	0ffffH
	DW	0ffffH
	DW	0a1e3H
	DW	0ffffH
	DW	0ffffH
	DW	0ffffH
	DW	0ffffH
	DW	0ffffH
	DW	0ffffH
	DW	0ffffH
	DW	0ffffH
	DW	0ffffH
	DW	0ffffH
	DW	0ffffH
	DW	0ffffH
	DW	0ffffH
	DW	0ffffH
	DW	0ffffH
	DW	0ffffH
	DW	0ffffH
	DW	0ffffH
	DW	0ffffH
	DW	0ffffH
	DW	0ffffH
	DW	0a1dcH
	DW	0ffffH
	DW	0ffffH
	DW	0ffffH
	DW	0ffffH
	DW	0ffffH
	DW	0ffffH
	DW	0ffffH
	DW	0ffffH
	DW	0ffffH
	DW	0ffffH
	DW	0ffffH
	DW	0ffffH
	DW	0ffffH
	DW	0a1daH
	DW	0a1ddH
	DW	0ffffH
	DW	0ffffH
	DW	0ffffH
	DW	0ffffH
	DW	0a1d8H
	DW	0a1d9H
	DW	0ffffH
	DW	0ffffH
	DW	0ffffH
	DW	0ffffH
	DW	0ffffH
	DW	0ffffH
	DW	0ffffH
	DW	0ffffH
	DW	0ffffH
	DW	0ffffH
	DW	0ffffH
	DW	0ffffH
	DW	0ffffH
	DW	0ffffH
	DW	0ffffH
	DW	0ffffH
	DW	0ffffH
	DW	0ffffH
	DW	0ffffH
	DW	0ffffH
	DW	0ffffH
	DW	0ffffH
	DW	0ffffH
	DW	0ffffH
	DW	0ffffH
	DW	0ffffH
	DW	0ffffH
	DW	0ffffH
	DW	0ffffH
	DW	0ffffH
	DW	0ffffH
	DW	0ffffH
	DW	0ffffH
	DW	0ffffH
	DW	0ffffH
	DW	0ffffH
	DW	0ffffH
	DW	0ffffH
	DW	0ffffH
	DW	0ffffH
	DW	0ffffH
	DW	0ffffH
	DW	0ffffH
	DW	0ffffH
	DW	0ffffH
	DW	0ffffH
	DW	0ffffH
	DW	0ffffH
	DW	0ffffH
	DW	0ffffH
	DW	0ffffH
	DW	0ffffH
	DW	0ffffH
	DW	0ffffH
	DW	0ffffH
	DW	0ffffH
	DW	0ffffH
	DW	0ffffH
	DW	0ffffH
	DW	0ffffH
	DW	0ffffH
	DW	0a1e6H
	DW	0ffffH
	DW	0ffffH
	DW	0ffffH
	DW	0ffffH
	DW	0ffffH
	DW	0ffffH
	DW	0ffffH
	DW	0ffffH
	DW	0ffffH
	DW	0ffffH
	DW	0ffffH
	DW	0ffffH
	DW	0ffffH
	DW	0ffffH
	DW	0ffffH
	DW	0ffffH
	DW	0ffffH
	DW	0ffffH
	DW	0ffffH
	DW	0ffffH
	DW	0ffffH
	DW	0ffffH
	DW	0ffffH
	DW	0ffffH
	DW	0ffffH
	DW	0a1e9H
	DW	0c7e9H
	DW	0c7eaH
	DW	0c7ebH
	DW	0c7ecH
	DW	0c7edH
	DW	0c7eeH
	DW	0c7efH
	DW	0c7f0H
	DW	0c7f1H
	DW	0c7f2H
	DW	0ffffH
	DW	0ffffH
	DW	0ffffH
	DW	0ffffH
	DW	0ffffH
	DW	0ffffH
	DW	0ffffH
	DW	0ffffH
	DW	0ffffH
	DW	0ffffH
	DW	0c7f3H
	DW	0c7f4H
	DW	0c7f5H
	DW	0c7f6H
	DW	0c7f7H
	DW	0c7f8H
	DW	0c7f9H
	DW	0c7faH
	DW	0c7fbH
	DW	0c7fcH
	DW	0a277H
	DW	0ffffH
	DW	0a278H
	DW	0ffffH
	DW	0ffffH
	DW	0ffffH
	DW	0ffffH
	DW	0ffffH
	DW	0ffffH
	DW	0ffffH
	DW	0ffffH
	DW	0ffffH
	DW	0a27aH
	DW	0ffffH
	DW	0ffffH
	DW	0ffffH
	DW	0a27bH
	DW	0ffffH
	DW	0ffffH
	DW	0ffffH
	DW	0a27cH
	DW	0ffffH
	DW	0ffffH
	DW	0ffffH
	DW	0a27dH
	DW	0ffffH
	DW	0ffffH
	DW	0ffffH
	DW	0a275H
	DW	0ffffH
	DW	0ffffH
	DW	0ffffH
	DW	0ffffH
	DW	0ffffH
	DW	0ffffH
	DW	0ffffH
	DW	0a274H
	DW	0ffffH
	DW	0ffffH
	DW	0ffffH
	DW	0ffffH
	DW	0ffffH
	DW	0ffffH
	DW	0ffffH
	DW	0a273H
	DW	0ffffH
	DW	0ffffH
	DW	0ffffH
	DW	0ffffH
	DW	0ffffH
	DW	0ffffH
	DW	0ffffH
	DW	0a272H
	DW	0ffffH
	DW	0ffffH
	DW	0ffffH
	DW	0ffffH
	DW	0ffffH
	DW	0ffffH
	DW	0ffffH
	DW	0a271H
	DW	0ffffH
	DW	0ffffH
	DW	0ffffH
	DW	0ffffH
	DW	0ffffH
	DW	0ffffH
	DW	0ffffH
	DW	0ffffH
	DW	0ffffH
	DW	0ffffH
	DW	0ffffH
	DW	0ffffH
	DW	0ffffH
	DW	0ffffH
	DW	0ffffH
	DW	0ffffH
	DW	0ffffH
	DW	0ffffH
	DW	0ffffH
	DW	0a2a4H
	DW	0ffffH
	DW	0ffffH
	DW	0ffffH
	DW	0ffffH
	DW	0ffffH
	DW	0ffffH
	DW	0ffffH
	DW	0ffffH
	DW	0ffffH
	DW	0ffffH
	DW	0ffffH
	DW	0ffffH
	DW	0ffffH
	DW	0a2a5H
	DW	0ffffH
	DW	0ffffH
	DW	0a2a7H
	DW	0ffffH
	DW	0ffffH
	DW	0ffffH
	DW	0ffffH
	DW	0ffffH
	DW	0ffffH
	DW	0ffffH
	DW	0ffffH
	DW	0a2a6H
	DW	0ffffH
	DW	0ffffH
	DW	0a27eH
	DW	0a2a1H
	DW	0a2a3H
	DW	0a2a2H
	DW	0a2acH
	DW	0a2adH
	DW	0a2aeH
	DW	0a15aH
	DW	0ffffH
	DW	0ffffH
	DW	0ffffH
	DW	0ffffH
	DW	0ffffH
	DW	0ffffH
	DW	0ffffH
	DW	0ffffH
	DW	0ffffH
	DW	0ffffH
	DW	0ffffH
	DW	0ffffH
	DW	0a262H
	DW	0a263H
	DW	0a264H
	DW	0a265H
	DW	0a266H
	DW	0a267H
	DW	0a268H
	DW	0a269H
	DW	0a270H
	DW	0a26fH
	DW	0a26eH
	DW	0a26dH
	DW	0a26cH
	DW	0a26bH
	DW	0a26aH
	DW	0ffffH
	DW	0ffffH
	DW	0ffffH
	DW	0ffffH
	DW	0a276H
	DW	0a279H
	DW	0ffffH
	DW	0ffffH
	DW	0ffffH
	DW	0ffffH
	DW	0ffffH
	DW	0ffffH
	DW	0ffffH
	DW	0ffffH
	DW	0ffffH
	DW	0ffffH
	DW	0a1bdH
	DW	0a1bcH
	DW	0ffffH
	DW	0ffffH
	DW	0ffffH
	DW	0ffffH
	DW	0ffffH
	DW	0ffffH
	DW	0ffffH
	DW	0ffffH
	DW	0ffffH
	DW	0ffffH
	DW	0ffffH
	DW	0ffffH
	DW	0ffffH
	DW	0ffffH
	DW	0ffffH
	DW	0ffffH
	DW	0a1b6H
	DW	0a1b5H
	DW	0ffffH
	DW	0ffffH
	DW	0ffffH
	DW	0ffffH
	DW	0ffffH
	DW	0ffffH
	DW	0ffffH
	DW	0ffffH
	DW	0a1bfH
	DW	0a1beH
	DW	0ffffH
	DW	0ffffH
	DW	0ffffH
	DW	0ffffH
	DW	0ffffH
	DW	0ffffH
	DW	0ffffH
	DW	0ffffH
	DW	0a1bbH
	DW	0a1baH
	DW	0ffffH
	DW	0ffffH
	DW	0ffffH
	DW	0a1b3H
	DW	0ffffH
	DW	0ffffH
	DW	0a1b7H
	DW	0a1b4H
	DW	0ffffH
	DW	0ffffH
	DW	0ffffH
	DW	0ffffH
	DW	0ffffH
	DW	0ffffH
	DW	0ffffH
	DW	0ffffH
	DW	0ffffH
	DW	0ffffH
	DW	0ffffH
	DW	0ffffH
	DW	0ffffH
	DW	0ffffH
	DW	0ffffH
	DW	0ffffH
	DW	0ffffH
	DW	0ffffH
	DW	0a2a8H
	DW	0a2a9H
	DW	0a2abH
	DW	0a2aaH
	DW	0a1b9H
	DW	0a1b8H
	DW	0ffffH
	DW	0ffffH
	DW	0a1f3H
	DW	0ffffH
	DW	0ffffH
	DW	0ffffH
	DW	0ffffH
	DW	0ffffH
	DW	0ffffH
	DW	0ffffH
	DW	0ffffH
	DW	0ffffH
	DW	0ffffH
	DW	0ffffH
	DW	0ffffH
	DW	0ffffH
	DW	0ffffH
	DW	0ffffH
	DW	0ffffH
	DW	0ffffH
	DW	0ffffH
	DW	0ffffH
	DW	0ffffH
	DW	0ffffH
	DW	0ffffH
	DW	0ffffH
	DW	0ffffH
	DW	0ffffH
	DW	0ffffH
	DW	0ffffH
	DW	0ffffH
	DW	0ffffH
	DW	0ffffH
	DW	0ffffH
	DW	0ffffH
	DW	0ffffH
	DW	0ffffH
	DW	0ffffH
	DW	0ffffH
	DW	0ffffH
	DW	0ffffH
	DW	0ffffH
	DW	0ffffH
	DW	0ffffH
	DW	0ffffH
	DW	0ffffH
	DW	0ffffH
	DW	0ffffH
	DW	0ffffH
	DW	0ffffH
	DW	0ffffH
	DW	0ffffH
	DW	0ffffH
	DW	0ffffH
	DW	0ffffH
	DW	0ffffH
	DW	0ffffH
	DW	0a1f0H
	DW	0a1f2H
	DW	0a1f1H
	DW	0a140H
	DW	0a142H
	DW	0a143H
	DW	0a1b2H
	DW	0ffffH
	DW	0c6a4H
	DW	0ffffH
	DW	0ffffH
	DW	0a171H
	DW	0a172H
	DW	0a16dH
	DW	0a16eH
	DW	0a175H
	DW	0a176H
	DW	0a179H
	DW	0a17aH
	DW	0a169H
	DW	0a16aH
	DW	0a245H
	DW	0ffffH
	DW	0a165H
	DW	0a166H
	DW	0ffffH
	DW	0ffffH
	DW	0ffffH
	DW	0ffffH
	DW	0ffffH
	DW	0ffffH
	DW	0ffffH
	DW	0a1a9H
	DW	0a1aaH
	DW	0ffffH
	DW	0ffffH
	DW	0a2c3H
	DW	0a2c4H
	DW	0a2c5H
	DW	0a2c6H
	DW	0a2c7H
	DW	0a2c8H
	DW	0a2c9H
	DW	0a2caH
	DW	0a2cbH
	DW	0ffffH
	DW	0ffffH
	DW	0ffffH
	DW	0ffffH
	DW	0ffffH
	DW	0ffffH
	DW	0ffffH
	DW	0ffffH
	DW	0ffffH
	DW	0ffffH
	DW	0ffffH
	DW	0ffffH
	DW	0ffffH
	DW	0ffffH
	DW	0ffffH
	DW	0ffffH
	DW	0ffffH
	DW	0ffffH
	DW	0ffffH
	DW	0ffffH
	DW	0ffffH
	DW	0ffffH
	DW	0ffffH
	DW	0c6a5H
	DW	0c6a6H
	DW	0c6a7H
	DW	0c6a8H
	DW	0c6a9H
	DW	0c6aaH
	DW	0c6abH
	DW	0c6acH
	DW	0c6adH
	DW	0c6aeH
	DW	0c6afH
	DW	0c6b0H
	DW	0c6b1H
	DW	0c6b2H
	DW	0c6b3H
	DW	0c6b4H
	DW	0c6b5H
	DW	0c6b6H
	DW	0c6b7H
	DW	0c6b8H
	DW	0c6b9H
	DW	0c6baH
	DW	0c6bbH
	DW	0c6bcH
	DW	0c6bdH
	DW	0c6beH
	DW	0c6bfH
	DW	0c6c0H
	DW	0c6c1H
	DW	0c6c2H
	DW	0c6c3H
	DW	0c6c4H
	DW	0c6c5H
	DW	0c6c6H
	DW	0c6c7H
	DW	0c6c8H
	DW	0c6c9H
	DW	0c6caH
	DW	0c6cbH
	DW	0c6ccH
	DW	0c6cdH
	DW	0c6ceH
	DW	0c6cfH
	DW	0c6d0H
	DW	0c6d1H
	DW	0c6d2H
	DW	0c6d3H
	DW	0c6d4H
	DW	0c6d5H
	DW	0c6d6H
	DW	0c6d7H
	DW	0c6d8H
	DW	0c6d9H
	DW	0c6daH
	DW	0c6dbH
	DW	0c6dcH
	DW	0c6ddH
	DW	0c6deH
	DW	0c6dfH
	DW	0c6e0H
	DW	0c6e1H
	DW	0c6e2H
	DW	0c6e3H
	DW	0c6e4H
	DW	0c6e5H
	DW	0c6e6H
	DW	0c6e7H
	DW	0c6e8H
	DW	0c6e9H
	DW	0c6eaH
	DW	0c6ebH
	DW	0c6ecH
	DW	0c6edH
	DW	0c6eeH
	DW	0c6efH
	DW	0c6f0H
	DW	0c6f1H
	DW	0c6f2H
	DW	0c6f3H
	DW	0c6f4H
	DW	0c6f5H
	DW	0c6f6H
	DW	0c6f7H
	DW	0ffffH
	DW	0ffffH
	DW	0ffffH
	DW	0ffffH
	DW	0ffffH
	DW	0ffffH
	DW	0ffffH
	DW	0ffffH
	DW	0ffffH
	DW	0c6a2H
	DW	0c6a3H
	DW	0ffffH
	DW	0ffffH
	DW	0c6f8H
	DW	0c6f9H
	DW	0c6faH
	DW	0c6fbH
	DW	0c6fcH
	DW	0c6fdH
	DW	0c6feH
	DW	0c740H
	DW	0c741H
	DW	0c742H
	DW	0c743H
	DW	0c744H
	DW	0c745H
	DW	0c746H
	DW	0c747H
	DW	0c748H
	DW	0c749H
	DW	0c74aH
	DW	0c74bH
	DW	0c74cH
	DW	0c74dH
	DW	0c74eH
	DW	0c74fH
	DW	0c750H
	DW	0c751H
	DW	0c752H
	DW	0c753H
	DW	0c754H
	DW	0c755H
	DW	0c756H
	DW	0c757H
	DW	0c758H
	DW	0c759H
	DW	0c75aH
	DW	0c75bH
	DW	0c75cH
	DW	0c75dH
	DW	0c75eH
	DW	0c75fH
	DW	0c760H
	DW	0c761H
	DW	0c762H
	DW	0c763H
	DW	0c764H
	DW	0c765H
	DW	0c766H
	DW	0c767H
	DW	0c768H
	DW	0c769H
	DW	0c76aH
	DW	0c76bH
	DW	0c76cH
	DW	0c76dH
	DW	0c76eH
	DW	0c76fH
	DW	0c770H
	DW	0c771H
	DW	0c772H
	DW	0c773H
	DW	0c774H
	DW	0c775H
	DW	0c776H
	DW	0c777H
	DW	0c778H
	DW	0c779H
	DW	0c77aH
	DW	0c77bH
	DW	0c77cH
	DW	0c77dH
	DW	0c77eH
	DW	0c7a1H
	DW	0c7a2H
	DW	0c7a3H
	DW	0c7a4H
	DW	0c7a5H
	DW	0c7a6H
	DW	0c7a7H
	DW	0c7a8H
	DW	0c7a9H
	DW	0c7aaH
	DW	0c7abH
	DW	0c7acH
	DW	0c7adH
	DW	0c7aeH
	DW	0c7afH
	DW	0c7b0H
	DW	0ffffH
	DW	0ffffH
	DW	0ffffH
	DW	0ffffH
	DW	0ffffH
	DW	0ffffH
	DW	0ffffH
	DW	0c6a1H
	DW	0a374H
	DW	0a375H
	DW	0a376H
	DW	0a377H
	DW	0a378H
	DW	0a379H
	DW	0a37aH
	DW	0a37bH
	DW	0a37cH
	DW	0a37dH
	DW	0a37eH
	DW	0a3a1H
	DW	0a3a2H
	DW	0a3a3H
	DW	0a3a4H
	DW	0a3a5H
	DW	0a3a6H
	DW	0a3a7H
	DW	0a3a8H
	DW	0a3a9H
	DW	0a3aaH
	DW	0a3abH
	DW	0a3acH
	DW	0a3adH
	DW	0a3aeH
	DW	0a3afH
	DW	0a3b0H
	DW	0a3b1H
	DW	0a3b2H
	DW	0a3b3H
	DW	0a3b4H
	DW	0a3b5H
	DW	0a3b6H
	DW	0a3b7H
	DW	0a3b8H
	DW	0a3b9H
	DW	0a3baH
	DW	0a1c0H
	DW	0a255H
	DW	0a256H
	DW	0ffffH
	DW	0ffffH
	DW	0ffffH
	DW	0ffffH
	DW	0ffffH
	DW	0ffffH
	DW	0ffffH
	DW	0ffffH
	DW	0ffffH
	DW	0ffffH
	DW	0ffffH
	DW	0ffffH
	DW	0a250H
	DW	0a251H
	DW	0a252H
	DW	0ffffH
	DW	0ffffH
	DW	0a254H
	DW	0ffffH
	DW	0ffffH
	DW	0ffffH
	DW	0ffffH
	DW	0ffffH
	DW	0ffffH
	DW	0ffffH
	DW	0ffffH
	DW	0ffffH
	DW	0ffffH
	DW	0ffffH
	DW	0ffffH
	DW	0ffffH
	DW	0ffffH
	DW	0ffffH
	DW	0ffffH
	DW	0ffffH
	DW	0ffffH
	DW	0ffffH
	DW	0ffffH
	DW	0ffffH
	DW	0ffffH
	DW	0ffffH
	DW	0ffffH
	DW	0ffffH
	DW	0ffffH
	DW	0ffffH
	DW	0ffffH
	DW	0ffffH
	DW	0ffffH
	DW	0ffffH
	DW	0ffffH
	DW	0ffffH
	DW	0ffffH
	DW	0a257H
	DW	0ffffH
	DW	0ffffH
	DW	0ffffH
	DW	0ffffH
	DW	0ffffH
	DW	0ffffH
	DW	0ffffH
	DW	0ffffH
	DW	0ffffH
	DW	0a253H
	DW	0ffffH
	DW	0ffffH
	DW	0a1ebH
	DW	0a1eaH
	DW	0ffffH
	DW	0ffffH
	DW	0a24fH
	DW	0a440H
	DW	0a442H
	DW	0ffffH
	DW	0a443H
	DW	0ffffH
	DW	0ffffH
	DW	0ffffH
	DW	0c945H
	DW	0a456H
	DW	0a454H
	DW	0a457H
	DW	0a455H
	DW	0c946H
	DW	0a4a3H
	DW	0c94fH
	DW	0c94dH
	DW	0a4a2H
	DW	0a4a1H
	DW	0ffffH
	DW	0ffffH
	DW	0a542H
	DW	0a541H
	DW	0a540H
	DW	0ffffH
	DW	0a543H
	DW	0a4feH
	DW	0ffffH
	DW	0ffffH
	DW	0ffffH
	DW	0ffffH
	DW	0a5e0H
	DW	0a5e1H
	DW	0ffffH
	DW	0ffffH
	DW	0ffffH
	DW	0ffffH
	DW	0ffffH
	DW	0ffffH
	DW	0a8c3H
	DW	0ffffH
	DW	0ffffH
	DW	0ffffH
	DW	0ffffH
	DW	0a458H
	DW	0ffffH
	DW	0a4a4H
	DW	0c950H
	DW	0ffffH
	DW	0a4a5H
	DW	0c963H
	DW	0a6eaH
	DW	0cbb1H
	DW	0ffffH
	DW	0ffffH
	DW	0ffffH
	DW	0ffffH
	DW	0a459H
	DW	0a4a6H
	DW	0ffffH
	DW	0a544H
	DW	0c964H
	DW	0ffffH
	DW	0ffffH
	DW	0ffffH
	DW	0ffffH
	DW	0ffffH
	DW	0c940H
	DW	0a444H
	DW	0ffffH
	DW	0a45bH
	DW	0ffffH
	DW	0c947H
	DW	0a45cH
	DW	0ffffH
	DW	0ffffH
	DW	0a4a7H
	DW	0ffffH
	DW	0a545H
	DW	0a547H
	DW	0a546H
	DW	0ffffH
	DW	0ffffH
	DW	0a5e2H
	DW	0a5e3H
	DW	0ffffH
	DW	0ffffH
	DW	0a8c4H
	DW	0ffffH
	DW	0adbcH
	DW	0a441H
	DW	0ffffH
	DW	0ffffH
	DW	0c941H
	DW	0a445H
	DW	0a45eH
	DW	0a45dH
	DW	0ffffH
	DW	0ffffH
	DW	0ffffH
	DW	0ffffH
	DW	0ffffH
	DW	0ffffH
	DW	0ffffH
	DW	0ffffH
	DW	0ffffH
	DW	0a5e4H
	DW	0ffffH
	DW	0ffffH
	DW	0ffffH
	DW	0ffffH
	DW	0ffffH
	DW	0ffffH
	DW	0ffffH
	DW	0ffffH
	DW	0ffffH
	DW	0a8c5H
	DW	0ffffH
	DW	0ffffH
	DW	0ffffH
	DW	0ffffH
	DW	0ffffH
	DW	0ffffH
	DW	0ffffH
	DW	0ffffH
	DW	0ffffH
	DW	0ffffH
	DW	0b0aeH
	DW	0d44bH
	DW	0ffffH
	DW	0ffffH
	DW	0b6c3H
	DW	0dcb1H
	DW	0dcb2H
	DW	0ffffH
	DW	0a446H
	DW	0ffffH
	DW	0a4a9H
	DW	0ffffH
	DW	0ffffH
	DW	0a8c6H
	DW	0a447H
	DW	0c948H
	DW	0a45fH
	DW	0ffffH
	DW	0ffffH
	DW	0a4aaH
	DW	0a4acH
	DW	0c951H
	DW	0a4adH
	DW	0a4abH
	DW	0ffffH
	DW	0ffffH
	DW	0ffffH
	DW	0a5e5H
	DW	0ffffH
	DW	0a8c7H
	DW	0ffffH
	DW	0ffffH
	DW	0a8c8H
	DW	0ab45H
	DW	0ffffH
	DW	0a460H
	DW	0a4aeH
	DW	0ffffH
	DW	0a5e6H
	DW	0a5e8H
	DW	0a5e7H
	DW	0ffffH
	DW	0a6ebH
	DW	0ffffH
	DW	0ffffH
	DW	0a8c9H
	DW	0a8caH
	DW	0ab46H
	DW	0ab47H
	DW	0ffffH
	DW	0ffffH
	DW	0ffffH
	DW	0ffffH
	DW	0adbdH
	DW	0ffffH
	DW	0ffffH
	DW	0dcb3H
	DW	0ffffH
	DW	0ffffH
	DW	0f6d6H
	DW	0a448H
	DW	0ffffH
	DW	0ffffH
	DW	0ffffH
	DW	0ffffH
	DW	0ffffH
	DW	0a4b0H
	DW	0a4afH
	DW	0c952H
	DW	0a4b1H
	DW	0a4b7H
	DW	0ffffH
	DW	0a4b2H
	DW	0a4b3H
	DW	0c954H
	DW	0c953H
	DW	0a4b5H
	DW	0a4b6H
	DW	0ffffH
	DW	0a4b4H
	DW	0ffffH
	DW	0ffffH
	DW	0ffffH
	DW	0ffffH
	DW	0ffffH
	DW	0ffffH
	DW	0a54aH
	DW	0a54bH
	DW	0a54cH
	DW	0a54dH
	DW	0a549H
	DW	0a550H
	DW	0c96aH
	DW	0ffffH
	DW	0c966H
	DW	0c969H
	DW	0a551H
	DW	0a561H
	DW	0ffffH
	DW	0c968H
	DW	0ffffH
	DW	0a54eH
	DW	0a54fH
	DW	0a548H
	DW	0ffffH
	DW	0ffffH
	DW	0c965H
	DW	0c967H
	DW	0ffffH
	DW	0ffffH
	DW	0ffffH
	DW	0ffffH
	DW	0ffffH
	DW	0ffffH
	DW	0a5f5H
	DW	0c9b0H
	DW	0a5f2H
	DW	0a5f6H
	DW	0c9baH
	DW	0c9aeH
	DW	0a5f3H
	DW	0c9b2H
	DW	0ffffH
	DW	0ffffH
	DW	0ffffH
	DW	0a5f4H
	DW	0ffffH
	DW	0a5f7H
	DW	0ffffH
	DW	0a5e9H
	DW	0c9b1H
	DW	0a5f8H
	DW	0c9b5H
	DW	0ffffH
	DW	0c9b9H
	DW	0c9b6H
	DW	0ffffH
	DW	0ffffH
	DW	0c9b3H
	DW	0a5eaH
	DW	0a5ecH
	DW	0a5f9H
	DW	0ffffH
	DW	0a5eeH
	DW	0c9abH
	DW	0a5f1H
	DW	0a5efH
	DW	0a5f0H
	DW	0c9bbH
	DW	0c9b8H
	DW	0c9afH
	DW	0a5edH
	DW	0ffffH
	DW	0ffffH
	DW	0c9acH
	DW	0a5ebH
	DW	0ffffH
	DW	0ffffH
	DW	0ffffH
	DW	0c9b4H
	DW	0ffffH
	DW	0ffffH
	DW	0ffffH
	DW	0ffffH
	DW	0c9b7H
	DW	0ffffH
	DW	0ffffH
	DW	0ffffH
	DW	0ffffH
	DW	0ffffH
	DW	0ffffH
	DW	0ffffH
	DW	0ffffH
	DW	0ffffH
	DW	0c9adH
	DW	0ca66H
	DW	0ffffH
	DW	0a742H
	DW	0a6f4H
	DW	0ffffH
	DW	0ffffH
	DW	0ca67H
	DW	0a6f1H
	DW	0ffffH
	DW	0a744H
	DW	0ffffH
	DW	0a6f9H
	DW	0ffffH
	DW	0a6f8H
	DW	0ca5bH
	DW	0a6fcH
	DW	0a6f7H
	DW	0ca60H
	DW	0ca68H
	DW	0ffffH
	DW	0ca64H
	DW	0ffffH
	DW	0a6faH
	DW	0ffffH
	DW	0ffffH
	DW	0a6fdH
	DW	0a6eeH
	DW	0a747H
	DW	0ca5dH
	DW	0ffffH
	DW	0ffffH
	DW	0cbbdH
	DW	0a6ecH
	DW	0a743H
	DW	0a6edH
	DW	0a6f5H
	DW	0a6f6H
	DW	0ca62H
	DW	0ca5eH
	DW	0a6fbH
	DW	0a6f3H
	DW	0ca5aH
	DW	0a6efH
	DW	0ca65H
	DW	0a745H
	DW	0a748H
	DW	0a6f2H
	DW	0a740H
	DW	0a746H
	DW	0a6f0H
	DW	0ca63H
	DW	0a741H
	DW	0ca69H
	DW	0ca5cH
	DW	0a6feH
	DW	0ca5fH
	DW	0ffffH
	DW	0ffffH
	DW	0ca61H
	DW	0ffffH
	DW	0a8d8H
	DW	0cbbfH
	DW	0cbcbH
	DW	0a8d0H
	DW	0ffffH
	DW	0cbccH
	DW	0a8cbH
	DW	0a8d5H
	DW	0ffffH
	DW	0ffffH
	DW	0a8ceH
	DW	0cbb9H
	DW	0a8d6H
	DW	0cbb8H
	DW	0cbbcH
	DW	0cbc3H
	DW	0cbc1H
	DW	0a8deH
	DW	0a8d9H
	DW	0cbb3H
	DW	0cbb5H
	DW	0a8dbH
	DW	0a8cfH
	DW	0cbb6H
	DW	0cbc2H
	DW	0cbc9H
	DW	0a8d4H
	DW	0cbbbH
	DW	0cbb4H
	DW	0a8d3H
	DW	0cbb7H
	DW	0a8d7H
	DW	0cbbaH
	DW	0ffffH
	DW	0a8d2H
	DW	0ffffH
	DW	0a8cdH
	DW	0ffffH
	DW	0a8dcH
	DW	0cbc4H
	DW	0a8ddH
	DW	0cbc8H
	DW	0ffffH
	DW	0cbc6H
	DW	0cbcaH
	DW	0a8daH
	DW	0cbbeH
	DW	0cbb2H
	DW	0ffffH
	DW	0cbc0H
	DW	0a8d1H
	DW	0cbc5H
	DW	0a8ccH
	DW	0cbc7H
	DW	0ffffH
	DW	0ffffH
	DW	0ffffH
	DW	0ffffH
	DW	0ffffH
	DW	0ffffH
	DW	0ffffH
	DW	0ffffH
	DW	0ffffH
	DW	0ffffH
	DW	0ffffH
	DW	0ffffH
	DW	0ffffH
	DW	0ffffH
	DW	0ffffH
	DW	0ab56H
	DW	0ab4aH
	DW	0ffffH
	DW	0ffffH
	DW	0cde0H
	DW	0cde8H
	DW	0ffffH
	DW	0ab49H
	DW	0ab51H
	DW	0ab5dH
	DW	0ffffH
	DW	0cdeeH
	DW	0cdecH
	DW	0cde7H
	DW	0ffffH
	DW	0ffffH
	DW	0ffffH
	DW	0ab4bH
	DW	0cdedH
	DW	0cde3H
	DW	0ab59H
	DW	0ab50H
	DW	0ab58H
	DW	0cddeH
	DW	0ffffH
	DW	0cdeaH
	DW	0ffffH
	DW	0cde1H
	DW	0ab54H
	DW	0cde2H
	DW	0ffffH
	DW	0cdddH
	DW	0ab5bH
	DW	0ab4eH
	DW	0ab57H
	DW	0ab4dH
	DW	0ffffH
	DW	0cddfH
	DW	0cde4H
	DW	0ffffH
	DW	0cdebH
	DW	0ab55H
	DW	0ab52H
	DW	0cde6H
	DW	0ab5aH
	DW	0cde9H
	DW	0cde5H
	DW	0ab4fH
	DW	0ab5cH
	DW	0ab53H
	DW	0ab4cH
	DW	0ab48H
	DW	0ffffH
	DW	0ffffH
	DW	0ffffH
	DW	0ffffH
	DW	0ffffH
	DW	0ffffH
	DW	0ffffH
	DW	0ffffH
	DW	0ffffH
	DW	0ffffH
	DW	0cdefH
	DW	0ffffH
	DW	0add7H
	DW	0adc1H
	DW	0ffffH
	DW	0add1H
	DW	0ffffH
	DW	0add6H
	DW	0d0d0H
	DW	0d0cfH
	DW	0d0d4H
	DW	0d0d5H
	DW	0adc4H
	DW	0ffffH
	DW	0adcdH
	DW	0ffffH
	DW	0ffffH
	DW	0ffffH
	DW	0addaH
	DW	0adceH
	DW	0ffffH
	DW	0ffffH
	DW	0ffffH
	DW	0ffffH
	DW	0d0c9H
	DW	0adc7H
	DW	0d0caH
	DW	0ffffH
	DW	0addcH
	DW	0ffffH
	DW	0add3H
	DW	0adbeH
	DW	0adbfH
	DW	0d0ddH
	DW	0b0bfH
	DW	0ffffH
	DW	0adccH
	DW	0adcbH
	DW	0d0cbH
	DW	0adcfH
	DW	0d45bH
	DW	0adc6H
	DW	0d0d6H
	DW	0add5H
	DW	0add4H
	DW	0adcaH
	DW	0d0ceH
	DW	0d0d7H
	DW	0ffffH
	DW	0d0c8H
	DW	0adc9H
	DW	0d0d8H
	DW	0add2H
	DW	0d0ccH
	DW	0adc0H
	DW	0ffffH
	DW	0adc3H
	DW	0adc2H
	DW	0d0d9H
	DW	0add0H
	DW	0adc5H
	DW	0add9H
	DW	0addbH
	DW	0d0d3H
	DW	0add8H
	DW	0ffffH
	DW	0d0dbH
	DW	0d0cdH
	DW	0d0dcH
	DW	0ffffH
	DW	0d0d1H
	DW	0ffffH
	DW	0d0daH
	DW	0ffffH
	DW	0d0d2H
	DW	0ffffH
	DW	0ffffH
	DW	0ffffH
	DW	0ffffH
	DW	0adc8H
	DW	0ffffH
	DW	0ffffH
	DW	0ffffH
	DW	0d463H
	DW	0d457H
	DW	0ffffH
	DW	0b0b3H
	DW	0ffffH
	DW	0d45cH
	DW	0d462H
	DW	0b0b2H
	DW	0d455H
	DW	0b0b6H
	DW	0d459H
	DW	0d452H
	DW	0b0b4H
	DW	0d456H
	DW	0b0b9H
	DW	0b0beH
	DW	0ffffH
	DW	0d467H
	DW	0ffffH
	DW	0d451H
	DW	0ffffH
	DW	0b0baH
	DW	0ffffH
	DW	0d466H
	DW	0ffffH
	DW	0ffffH
	DW	0b0b5H
	DW	0d458H
	DW	0b0b1H
	DW	0d453H
	DW	0d44fH
	DW	0d45dH
	DW	0d450H
	DW	0d44eH
	DW	0d45aH
	DW	0d460H
	DW	0d461H
	DW	0b0b7H
	DW	0ffffH
	DW	0ffffH
	DW	0d85bH
	DW	0d45eH
	DW	0d44dH
	DW	0d45fH
	DW	0ffffH
	DW	0b0c1H
	DW	0d464H
	DW	0b0c0H
	DW	0d44cH
	DW	0ffffH
	DW	0d454H
	DW	0d465H
	DW	0b0bcH
	DW	0b0bbH
	DW	0b0b8H
	DW	0b0bdH
	DW	0ffffH
	DW	0ffffH
	DW	0b0afH
	DW	0ffffH
	DW	0ffffH
	DW	0b0b0H
	DW	0ffffH
	DW	0ffffH
	DW	0b3c8H
	DW	0ffffH
	DW	0d85eH
	DW	0d857H
	DW	0ffffH
	DW	0b3c5H
	DW	0ffffH
	DW	0d85fH
	DW	0ffffH
	DW	0ffffH
	DW	0ffffH
	DW	0d855H
	DW	0d858H
	DW	0b3c4H
	DW	0d859H
	DW	0ffffH
	DW	0ffffH
	DW	0b3c7H
	DW	0d85dH
	DW	0ffffH
	DW	0d853H
	DW	0d852H
	DW	0b3c9H
	DW	0ffffH
	DW	0b3caH
	DW	0b3c6H
	DW	0b3cbH
	DW	0d851H
	DW	0d85cH
	DW	0d85aH
	DW	0d854H
	DW	0ffffH
	DW	0ffffH
	DW	0ffffH
	DW	0b3c3H
	DW	0d856H
	DW	0ffffH
	DW	0ffffH
	DW	0ffffH
	DW	0ffffH
	DW	0ffffH
	DW	0ffffH
	DW	0ffffH
	DW	0ffffH
	DW	0b6caH
	DW	0b6c4H
	DW	0dcb7H
	DW	0b6cdH
	DW	0dcbdH
	DW	0dcc0H
	DW	0b6c6H
	DW	0b6c7H
	DW	0dcbaH
	DW	0b6c5H
	DW	0dcc3H
	DW	0b6cbH
	DW	0dcc4H
	DW	0ffffH
	DW	0dcbfH
	DW	0b6ccH
	DW	0ffffH
	DW	0dcb4H
	DW	0b6c9H
	DW	0dcb5H
	DW	0ffffH
	DW	0dcbeH
	DW	0dcbcH
	DW	0ffffH
	DW	0dcb8H
	DW	0b6c8H
	DW	0dcb6H
	DW	0b6ceH
	DW	0dcbbH
	DW	0dcc2H
	DW	0dcb9H
	DW	0dcc1H
	DW	0ffffH
	DW	0ffffH
	DW	0b9b6H
	DW	0b9b3H
	DW	0ffffH
	DW	0b9b4H
	DW	0ffffH
	DW	0e0f9H
	DW	0e0f1H
	DW	0b9b2H
	DW	0b9afH
	DW	0e0f2H
	DW	0ffffH
	DW	0ffffH
	DW	0b9b1H
	DW	0e0f5H
	DW	0ffffH
	DW	0e0f7H
	DW	0ffffH
	DW	0ffffH
	DW	0e0feH
	DW	0ffffH
	DW	0ffffH
	DW	0e0fdH
	DW	0e0f8H
	DW	0b9aeH
	DW	0e0f0H
	DW	0b9acH
	DW	0e0f3H
	DW	0b9b7H
	DW	0e0f6H
	DW	0ffffH
	DW	0e0faH
	DW	0b9b0H
	DW	0b9adH
	DW	0e0fcH
	DW	0e0fbH
	DW	0b9b5H
	DW	0ffffH
	DW	0e0f4H
	DW	0ffffH
	DW	0bbf8H
	DW	0e4ecH
	DW	0ffffH
	DW	0e4e9H
	DW	0bbf9H
	DW	0ffffH
	DW	0bbf7H
	DW	0ffffH
	DW	0e4f0H
	DW	0e4edH
	DW	0e4e6H
	DW	0bbf6H
	DW	0ffffH
	DW	0bbfaH
	DW	0e4e7H
	DW	0bbf5H
	DW	0bbfdH
	DW	0e4eaH
	DW	0e4ebH
	DW	0bbfbH
	DW	0bbfcH
	DW	0e4f1H
	DW	0e4eeH
	DW	0e4efH
	DW	0ffffH
	DW	0ffffH
	DW	0ffffH
	DW	0beaaH
	DW	0e8f8H
	DW	0bea7H
	DW	0e8f5H
	DW	0bea9H
	DW	0beabH
	DW	0ffffH
	DW	0e8f6H
	DW	0bea8H
	DW	0ffffH
	DW	0e8f7H
	DW	0ffffH
	DW	0e8f4H
	DW	0ffffH
	DW	0ffffH
	DW	0c076H
	DW	0ecbdH
	DW	0c077H
	DW	0ecbbH
	DW	0ffffH
	DW	0ecbcH
	DW	0ecbaH
	DW	0ecb9H
	DW	0ffffH
	DW	0ffffH
	DW	0ecbeH
	DW	0c075H
	DW	0ffffH
	DW	0ffffH
	DW	0efb8H
	DW	0efb9H
	DW	0ffffH
	DW	0e4e8H
	DW	0efb7H
	DW	0c078H
	DW	0c35fH
	DW	0f1ebH
	DW	0f1ecH
	DW	0ffffH
	DW	0c4d7H
	DW	0c4d8H
	DW	0f5c1H
	DW	0f5c0H
	DW	0c56cH
	DW	0c56bH
	DW	0f7d0H
	DW	0ffffH
	DW	0a449H
	DW	0a461H
	DW	0a4b9H
	DW	0ffffH
	DW	0a4b8H
	DW	0a553H
	DW	0a552H
	DW	0a5fcH
	DW	0a5fbH
	DW	0a5fdH
	DW	0a5faH
	DW	0ffffH
	DW	0a74aH
	DW	0a749H
	DW	0a74bH
	DW	0ffffH
	DW	0ffffH
	DW	0ffffH
	DW	0ffffH
	DW	0a8e0H
	DW	0ffffH
	DW	0a8dfH
	DW	0a8e1H
	DW	0ffffH
	DW	0ab5eH
	DW	0ffffH
	DW	0a259H
	DW	0d0deH
	DW	0a25aH
	DW	0b0c2H
	DW	0a25cH
	DW	0a25bH
	DW	0d860H
	DW	0ffffH
	DW	0a25dH
	DW	0b9b8H
	DW	0a25eH
	DW	0ffffH
	DW	0a44aH
	DW	0ffffH
	DW	0a4baH
	DW	0a5feH
	DW	0a8e2H
	DW	0ffffH
	DW	0a44bH
	DW	0a4bdH
	DW	0a4bbH
	DW	0a4bcH
	DW	0ffffH
	DW	0ffffH
	DW	0a640H
	DW	0ffffH
	DW	0ffffH
	DW	0ffffH
	DW	0a74cH
	DW	0a8e4H
	DW	0a8e3H
	DW	0a8e5H
	DW	0ffffH
	DW	0ffffH
	DW	0ffffH
	DW	0adddH
	DW	0ffffH
	DW	0ffffH
	DW	0ffffH
	DW	0beacH
	DW	0ffffH
	DW	0ffffH
	DW	0ffffH
	DW	0ffffH
	DW	0ffffH
	DW	0ffffH
	DW	0c94eH
	DW	0ffffH
	DW	0a554H
	DW	0a555H
	DW	0ffffH
	DW	0ffffH
	DW	0a641H
	DW	0ffffH
	DW	0ca6aH
	DW	0ffffH
	DW	0ab60H
	DW	0ab5fH
	DW	0d0e0H
	DW	0d0dfH
	DW	0b0c3H
	DW	0ffffH
	DW	0a4beH
	DW	0c955H
	DW	0ffffH
	DW	0ffffH
	DW	0ffffH
	DW	0ffffH
	DW	0ffffH
	DW	0cbcdH
	DW	0ffffH
	DW	0ab61H
	DW	0ffffH
	DW	0ade0H
	DW	0ffffH
	DW	0addeH
	DW	0addfH
	DW	0ffffH
	DW	0ffffH
	DW	0ffffH
	DW	0ffffH
	DW	0beadH
	DW	0ffffH
	DW	0a556H
	DW	0ffffH
	DW	0ffffH
	DW	0ffffH
	DW	0a642H
	DW	0c9bcH
	DW	0ffffH
	DW	0ffffH
	DW	0ffffH
	DW	0ffffH
	DW	0a74dH
	DW	0a74eH
	DW	0ffffH
	DW	0ca6bH
	DW	0ffffH
	DW	0ffffH
	DW	0cbceH
	DW	0a8e6H
	DW	0cbcfH
	DW	0ffffH
	DW	0ffffH
	DW	0ffffH
	DW	0ffffH
	DW	0ffffH
	DW	0d0e2H
	DW	0d0e3H
	DW	0ade3H
	DW	0ffffH
	DW	0d0e4H
	DW	0ffffH
	DW	0d0e1H
	DW	0ade4H
	DW	0ade2H
	DW	0ade1H
	DW	0d0e5H
	DW	0ffffH
	DW	0d468H
	DW	0ffffH
	DW	0ffffH
	DW	0ffffH
	DW	0d861H
	DW	0ffffH
	DW	0ffffH
	DW	0dcc5H
	DW	0e140H
	DW	0ffffH
	DW	0ffffH
	DW	0ffffH
	DW	0bbfeH
	DW	0beaeH
	DW	0e8f9H
	DW	0ffffH
	DW	0a44cH
	DW	0a45aH
	DW	0ffffH
	DW	0ffffH
	DW	0ffffH
	DW	0ffffH
	DW	0ffffH
	DW	0ffffH
	DW	0ffffH
	DW	0ffffH
	DW	0ffffH
	DW	0ffffH
	DW	0ffffH
	DW	0ffffH
	DW	0ffffH
	DW	0ffffH
	DW	0b0c4H
	DW	0b3cdH
	DW	0ffffH
	DW	0b9b9H
	DW	0ffffH
	DW	0c942H
	DW	0a4bfH
	DW	0ffffH
	DW	0a559H
	DW	0a557H
	DW	0a558H
	DW	0ffffH
	DW	0ffffH
	DW	0a8e7H
	DW	0a44dH
	DW	0a44eH
	DW	0ffffH
	DW	0a462H
	DW	0ffffH
	DW	0ffffH
	DW	0a4c0H
	DW	0a4c1H
	DW	0a4c2H
	DW	0c9beH
	DW	0a55aH
	DW	0ffffH
	DW	0c96bH
	DW	0ffffH
	DW	0a646H
	DW	0ffffH
	DW	0c9bfH
	DW	0a644H
	DW	0a645H
	DW	0c9bdH
	DW	0ffffH
	DW	0ffffH
	DW	0a647H
	DW	0a643H
	DW	0ffffH
	DW	0ffffH
	DW	0ffffH
	DW	0ffffH
	DW	0ca6cH
	DW	0aaecH
	DW	0ca6dH
	DW	0ffffH
	DW	0ffffH
	DW	0ca6eH
	DW	0ffffH
	DW	0ffffH
	DW	0a750H
	DW	0a74fH
	DW	0ffffH
	DW	0ffffH
	DW	0a753H
	DW	0a751H
	DW	0a752H
	DW	0ffffH
	DW	0ffffH
	DW	0ffffH
	DW	0a8edH
	DW	0ffffH
	DW	0a8ecH
	DW	0cbd4H
	DW	0cbd1H
	DW	0cbd2H
	DW	0ffffH
	DW	0cbd0H
	DW	0a8eeH
	DW	0a8eaH
	DW	0a8e9H
	DW	0ffffH
	DW	0a8ebH
	DW	0a8e8H
	DW	0ffffH
	DW	0ffffH
	DW	0ffffH
	DW	0ffffH
	DW	0ffffH
	DW	0a8efH
	DW	0ffffH
	DW	0ab63H
	DW	0cdf0H
	DW	0ffffH
	DW	0cbd3H
	DW	0ab68H
	DW	0ffffH
	DW	0cdf1H
	DW	0ab64H
	DW	0ab67H
	DW	0ab66H
	DW	0ab65H
	DW	0ab62H
	DW	0ffffH
	DW	0ffffH
	DW	0ffffH
	DW	0d0e8H
	DW	0ffffH
	DW	0ade7H
	DW	0d0ebH
	DW	0ade5H
	DW	0ffffH
	DW	0ffffH
	DW	0ffffH
	DW	0d0e7H
	DW	0ade8H
	DW	0ade6H
	DW	0ade9H
	DW	0d0e9H
	DW	0d0eaH
	DW	0ffffH
	DW	0d0e6H
	DW	0d0ecH
	DW	0ffffH
	DW	0ffffH
	DW	0ffffH
	DW	0ffffH
	DW	0ffffH
	DW	0ffffH
	DW	0b3d1H
	DW	0b0c5H
	DW	0d469H
	DW	0d46bH
	DW	0d46aH
	DW	0d46cH
	DW	0b0c6H
	DW	0ffffH
	DW	0ffffH
	DW	0b3ceH
	DW	0ffffH
	DW	0b3cfH
	DW	0b3d0H
	DW	0ffffH
	DW	0b6d0H
	DW	0dcc7H
	DW	0ffffH
	DW	0dcc6H
	DW	0dcc8H
	DW	0dcc9H
	DW	0b6d1H
	DW	0ffffH
	DW	0b6cfH
	DW	0e141H
	DW	0e142H
	DW	0b9bbH
	DW	0b9baH
	DW	0e35aH
	DW	0ffffH
	DW	0ffffH
	DW	0bc40H
	DW	0bc41H
	DW	0bc42H
	DW	0bc44H
	DW	0e4f2H
	DW	0e4f3H
	DW	0bc43H
	DW	0ffffH
	DW	0ffffH
	DW	0ffffH
	DW	0beafH
	DW	0ffffH
	DW	0beb0H
	DW	0ffffH
	DW	0ffffH
	DW	0f1edH
	DW	0f5c3H
	DW	0f5c2H
	DW	0f7d1H
	DW	0ffffH
	DW	0a44fH
	DW	0ffffH
	DW	0ffffH
	DW	0ffffH
	DW	0a55cH
	DW	0a55bH
	DW	0ffffH
	DW	0ffffH
	DW	0a648H
	DW	0ffffH
	DW	0ffffH
	DW	0c9c0H
	DW	0ffffH
	DW	0ffffH
	DW	0a755H
	DW	0a756H
	DW	0a754H
	DW	0a757H
	DW	0ca6fH
	DW	0ca70H
	DW	0ffffH
	DW	0ffffH
	DW	0ffffH
	DW	0ffffH
	DW	0ffffH
	DW	0ffffH
	DW	0ffffH
	DW	0ffffH
	DW	0ffffH
	DW	0ffffH
	DW	0ffffH
	DW	0ffffH
	DW	0a8f1H
	DW	0cbd5H
	DW	0ffffH
	DW	0a8f0H
	DW	0ffffH
	DW	0cdf2H
	DW	0ab6cH
	DW	0cdf3H
	DW	0ab6bH
	DW	0ffffH
	DW	0ffffH
	DW	0ffffH
	DW	0ab69H
	DW	0ffffH
	DW	0ab6aH
	DW	0ffffH
	DW	0ffffH
	DW	0ffffH
	DW	0d0edH
	DW	0ffffH
	DW	0ffffH
	DW	0ffffH
	DW	0ffffH
	DW	0b0c7H
	DW	0d46eH
	DW	0ffffH
	DW	0b0caH
	DW	0d46dH
	DW	0b1e5H
	DW	0b0c9H
	DW	0b0c8H
	DW	0ffffH
	DW	0b3d4H
	DW	0ffffH
	DW	0b3d3H
	DW	0b3d2H
	DW	0b6d2H
	DW	0ffffH
	DW	0ffffH
	DW	0b6d5H
	DW	0b6d6H
	DW	0b6d4H
	DW	0ffffH
	DW	0b6d3H
	DW	0ffffH
	DW	0ffffH
	DW	0e143H
	DW	0ffffH
	DW	0e144H
	DW	0ffffH
	DW	0ffffH
	DW	0ffffH
	DW	0e4f5H
	DW	0bc45H
	DW	0e4f4H
	DW	0ffffH
	DW	0beb1H
	DW	0ecbfH
	DW	0c079H
	DW	0ffffH
	DW	0f1eeH
	DW	0c455H
	DW	0ffffH
	DW	0a463H
	DW	0a4c3H
	DW	0c956H
	DW	0ffffH
	DW	0a4c4H
	DW	0a4c5H
	DW	0a55dH
	DW	0a55eH
	DW	0ffffH
	DW	0a649H
	DW	0ca71H
	DW	0cbd6H
	DW	0cbd7H
	DW	0ffffH
	DW	0ab6dH
	DW	0d0eeH
	DW	0b0ccH
	DW	0b0cbH
	DW	0d863H
	DW	0d862H
	DW	0ffffH
	DW	0ffffH
	DW	0a450H
	DW	0a4c6H
	DW	0a55fH
	DW	0ffffH
	DW	0b0cdH
	DW	0c943H
	DW	0ffffH
	DW	0c96cH
	DW	0a560H
	DW	0ffffH
	DW	0c9c2H
	DW	0a64bH
	DW	0a64aH
	DW	0c9c1H
	DW	0a758H
	DW	0ffffH
	DW	0ffffH
	DW	0ffffH
	DW	0ffffH
	DW	0ffffH
	DW	0ffffH
	DW	0adeaH
	DW	0ffffH
	DW	0ffffH
	DW	0d46fH
	DW	0ffffH
	DW	0b6d7H
	DW	0e145H
	DW	0b9bcH
	DW	0ffffH
	DW	0ffffH
	DW	0e8faH
	DW	0ffffH
	DW	0ffffH
	DW	0f3fdH
	DW	0ffffH
	DW	0a4c7H
	DW	0ffffH
	DW	0ffffH
	DW	0cbd8H
	DW	0cdf4H
	DW	0b0d0H
	DW	0b0ceH
	DW	0b0cfH
	DW	0a451H
	DW	0ffffH
	DW	0a464H
	DW	0a2cdH
	DW	0a4caH
	DW	0ffffH
	DW	0a4c9H
	DW	0a4c8H
	DW	0a563H
	DW	0a562H
	DW	0ffffH
	DW	0c96dH
	DW	0c9c3H
	DW	0ffffH
	DW	0ffffH
	DW	0ffffH
	DW	0a8f5H
	DW	0a8f2H
	DW	0a8f4H
	DW	0a8f3H
	DW	0ffffH
	DW	0ffffH
	DW	0ab6eH
	DW	0ffffH
	DW	0ffffH
	DW	0b3d5H
	DW	0ffffH
	DW	0a452H
	DW	0ffffH
	DW	0a4cbH
	DW	0ffffH
	DW	0a565H
	DW	0a564H
	DW	0ffffH
	DW	0ca72H
	DW	0ffffH
	DW	0ffffH
	DW	0a8f6H
	DW	0ffffH
	DW	0ffffH
	DW	0ffffH
	DW	0ffffH
	DW	0ffffH
	DW	0c957H
	DW	0ffffH
	DW	0a567H
	DW	0a566H
	DW	0a64cH
	DW	0a64dH
	DW	0ca73H
	DW	0a759H
	DW	0ffffH
	DW	0a75aH
	DW	0ffffH
	DW	0a8f7H
	DW	0a8f8H
	DW	0a8f9H
	DW	0ffffH
	DW	0ab6fH
	DW	0cdf5H
	DW	0ffffH
	DW	0ffffH
	DW	0adebH
	DW	0ffffH
	DW	0ffffH
	DW	0c944H
	DW	0ffffH
	DW	0a4ccH
	DW	0ffffH
	DW	0ffffH
	DW	0ffffH
	DW	0ffffH
	DW	0ffffH
	DW	0c9c4H
	DW	0ffffH
	DW	0ffffH
	DW	0ffffH
	DW	0ca74H
	DW	0ca75H
	DW	0ffffH
	DW	0ffffH
	DW	0cbd9H
	DW	0ffffH
	DW	0cbdaH
	DW	0ffffH
	DW	0cdf7H
	DW	0cdf6H
	DW	0cdf9H
	DW	0cdf8H
	DW	0ab70H
	DW	0ffffH
	DW	0d470H
	DW	0adedH
	DW	0d0efH
	DW	0adecH
	DW	0ffffH
	DW	0ffffH
	DW	0ffffH
	DW	0ffffH
	DW	0d864H
	DW	0b3d6H
	DW	0ffffH
	DW	0d865H
	DW	0ffffH
	DW	0ffffH
	DW	0ffffH
	DW	0ffffH
	DW	0e146H
	DW	0b9bdH
	DW	0ffffH
	DW	0ffffH
	DW	0ffffH
	DW	0ffffH
	DW	0bc46H
	DW	0ffffH
	DW	0f1efH
	DW	0ffffH
	DW	0ffffH
	DW	0ffffH
	DW	0ffffH
	DW	0c958H
	DW	0ffffH
	DW	0a568H
	DW	0ffffH
	DW	0ffffH
	DW	0ffffH
	DW	0ffffH
	DW	0ffffH
	DW	0ffffH
	DW	0ffffH
	DW	0b0d1H
	DW	0ffffH
	DW	0ffffH
	DW	0ffffH
	DW	0ffffH
	DW	0a453H
	DW	0a465H
	DW	0a4ceH
	DW	0a4cdH
	DW	0ffffH
	DW	0a4cfH
	DW	0ffffH
	DW	0ffffH
	DW	0ffffH
	DW	0ffffH
	DW	0ffffH
	DW	0ffffH
	DW	0a8fbH
	DW	0ffffH
	DW	0a8faH
	DW	0a8fcH
	DW	0ffffH
	DW	0ffffH
	DW	0ffffH
	DW	0ab71H
	DW	0ffffH
	DW	0ffffH
	DW	0ffffH
	DW	0adeeH
	DW	0ffffH
	DW	0e8fbH
	DW	0c24fH
	DW	0a466H
	DW	0a56aH
	DW	0a579H
	DW	0a574H
	DW	0ffffH
	DW	0a56fH
	DW	0a56eH
	DW	0a575H
	DW	0a573H
	DW	0a56cH
	DW	0a57aH
	DW	0a56dH
	DW	0a569H
	DW	0a578H
	DW	0a577H
	DW	0a576H
	DW	0a56bH
	DW	0ffffH
	DW	0a572H
	DW	0ffffH
	DW	0ffffH
	DW	0a571H
	DW	0ffffH
	DW	0ffffH
	DW	0a57bH
	DW	0a570H
	DW	0a653H
	DW	0ffffH
	DW	0a659H
	DW	0a655H
	DW	0ffffH
	DW	0a65bH
	DW	0c9c5H
	DW	0a658H
	DW	0a64eH
	DW	0a651H
	DW	0a654H
	DW	0a650H
	DW	0a657H
	DW	0a65aH
	DW	0a64fH
	DW	0a652H
	DW	0a656H
	DW	0a65cH
	DW	0ffffH
	DW	0ffffH
	DW	0ffffH
	DW	0ffffH
	DW	0ffffH
	DW	0ca7eH
	DW	0ca7bH
	DW	0ffffH
	DW	0a767H
	DW	0ca7cH
	DW	0a75bH
	DW	0a75dH
	DW	0a775H
	DW	0a770H
	DW	0ffffH
	DW	0ffffH
	DW	0ffffH
	DW	0caa5H
	DW	0ca7dH
	DW	0a75fH
	DW	0a761H
	DW	0caa4H
	DW	0a768H
	DW	0ca78H
	DW	0a774H
	DW	0a776H
	DW	0a75cH
	DW	0a76dH
	DW	0ffffH
	DW	0ca76H
	DW	0a773H
	DW	0ffffH
	DW	0a764H
	DW	0ffffH
	DW	0a76eH
	DW	0a76fH
	DW	0ca77H
	DW	0a76cH
	DW	0a76aH
	DW	0ffffH
	DW	0a76bH
	DW	0a771H
	DW	0caa1H
	DW	0a75eH
	DW	0ffffH
	DW	0a772H
	DW	0caa3H
	DW	0a766H
	DW	0a763H
	DW	0ffffH
	DW	0ca7aH
	DW	0a762H
	DW	0caa6H
	DW	0a765H
	DW	0ffffH
	DW	0a769H
	DW	0ffffH
	DW	0ffffH
	DW	0ffffH
	DW	0a760H
	DW	0caa2H
	DW	0ffffH
