; Listing generated by Microsoft (R) Optimizing Compiler Version 16.00.40219.01 

include listing.inc

INCLUDELIB MSVCRT
INCLUDELIB OLDNAMES

PUBLIC	??_C@_0L@ICBIJEOL@_codecs_jp?$AA@		; `string'
PUBLIC	??_C@_0P@NOLNKPLD@shift_jisx0213?$AA@		; `string'
PUBLIC	??_C@_0N@MIEOJMKD@euc_jisx0213?$AA@		; `string'
PUBLIC	??_C@_0N@EMKNMODG@euc_jis_2004?$AA@		; `string'
PUBLIC	??_C@_0P@FKFOPNCG@shift_jis_2004?$AA@		; `string'
PUBLIC	??_C@_06MHHBPKNI@euc_jp?$AA@			; `string'
PUBLIC	??_C@_05HPPBHLPE@cp932?$AA@			; `string'
PUBLIC	??_C@_09PMANJCNB@shift_jis?$AA@			; `string'
PUBLIC	??_C@_08KJPFDLOP@cp932ext?$AA@			; `string'
PUBLIC	??_C@_0O@ILLKEEJO@jisx0213_pair?$AA@		; `string'
PUBLIC	??_C@_0N@EPCKJDJL@jisx0213_emp?$AA@		; `string'
PUBLIC	??_C@_0P@DJCOILIE@jisx0213_2_emp?$AA@		; `string'
PUBLIC	??_C@_0P@LPLKPJCK@jisx0213_1_emp?$AA@		; `string'
PUBLIC	??_C@_0N@NCPNKLCC@jisx0213_bmp?$AA@		; `string'
PUBLIC	??_C@_0P@KEPJLDDN@jisx0213_2_bmp?$AA@		; `string'
PUBLIC	??_C@_0P@CCGNMBJD@jisx0213_1_bmp?$AA@		; `string'
PUBLIC	??_C@_0L@OOINGHMB@jisxcommon?$AA@		; `string'
PUBLIC	??_C@_08BGDEENJL@jisx0212?$AA@			; `string'
PUBLIC	??_C@_08ONBJMPCG@jisx0208?$AA@			; `string'
PUBLIC	??_C@_00CNPNBAHC@?$AA@				; `string'
PUBLIC	??_C@_08IAFCJBEI@getcodec?$AA@			; `string'
_BSS	SEGMENT
?cofunc@?1??getmultibytecodec@@9@9 DQ 01H DUP (?)	; `getmultibytecodec'::`2'::cofunc
_BSS	ENDS
;	COMDAT ??_C@_0L@ICBIJEOL@_codecs_jp?$AA@
CONST	SEGMENT
??_C@_0L@ICBIJEOL@_codecs_jp?$AA@ DB '_codecs_jp', 00H	; `string'
CONST	ENDS
;	COMDAT ??_C@_0P@NOLNKPLD@shift_jisx0213?$AA@
CONST	SEGMENT
??_C@_0P@NOLNKPLD@shift_jisx0213?$AA@ DB 'shift_jisx0213', 00H ; `string'
CONST	ENDS
;	COMDAT ??_C@_0N@MIEOJMKD@euc_jisx0213?$AA@
CONST	SEGMENT
??_C@_0N@MIEOJMKD@euc_jisx0213?$AA@ DB 'euc_jisx0213', 00H ; `string'
CONST	ENDS
;	COMDAT ??_C@_0N@EMKNMODG@euc_jis_2004?$AA@
CONST	SEGMENT
??_C@_0N@EMKNMODG@euc_jis_2004?$AA@ DB 'euc_jis_2004', 00H ; `string'
CONST	ENDS
;	COMDAT ??_C@_0P@FKFOPNCG@shift_jis_2004?$AA@
CONST	SEGMENT
??_C@_0P@FKFOPNCG@shift_jis_2004?$AA@ DB 'shift_jis_2004', 00H ; `string'
CONST	ENDS
;	COMDAT ??_C@_06MHHBPKNI@euc_jp?$AA@
CONST	SEGMENT
??_C@_06MHHBPKNI@euc_jp?$AA@ DB 'euc_jp', 00H		; `string'
CONST	ENDS
;	COMDAT ??_C@_05HPPBHLPE@cp932?$AA@
CONST	SEGMENT
??_C@_05HPPBHLPE@cp932?$AA@ DB 'cp932', 00H		; `string'
CONST	ENDS
;	COMDAT ??_C@_09PMANJCNB@shift_jis?$AA@
CONST	SEGMENT
??_C@_09PMANJCNB@shift_jis?$AA@ DB 'shift_jis', 00H	; `string'
CONST	ENDS
;	COMDAT ??_C@_08KJPFDLOP@cp932ext?$AA@
CONST	SEGMENT
??_C@_08KJPFDLOP@cp932ext?$AA@ DB 'cp932ext', 00H	; `string'
CONST	ENDS
;	COMDAT ??_C@_0O@ILLKEEJO@jisx0213_pair?$AA@
CONST	SEGMENT
??_C@_0O@ILLKEEJO@jisx0213_pair?$AA@ DB 'jisx0213_pair', 00H ; `string'
CONST	ENDS
;	COMDAT ??_C@_0N@EPCKJDJL@jisx0213_emp?$AA@
CONST	SEGMENT
??_C@_0N@EPCKJDJL@jisx0213_emp?$AA@ DB 'jisx0213_emp', 00H ; `string'
CONST	ENDS
;	COMDAT ??_C@_0P@DJCOILIE@jisx0213_2_emp?$AA@
CONST	SEGMENT
??_C@_0P@DJCOILIE@jisx0213_2_emp?$AA@ DB 'jisx0213_2_emp', 00H ; `string'
CONST	ENDS
;	COMDAT ??_C@_0P@LPLKPJCK@jisx0213_1_emp?$AA@
CONST	SEGMENT
??_C@_0P@LPLKPJCK@jisx0213_1_emp?$AA@ DB 'jisx0213_1_emp', 00H ; `string'
CONST	ENDS
;	COMDAT ??_C@_0N@NCPNKLCC@jisx0213_bmp?$AA@
CONST	SEGMENT
??_C@_0N@NCPNKLCC@jisx0213_bmp?$AA@ DB 'jisx0213_bmp', 00H ; `string'
CONST	ENDS
;	COMDAT ??_C@_0P@KEPJLDDN@jisx0213_2_bmp?$AA@
CONST	SEGMENT
??_C@_0P@KEPJLDDN@jisx0213_2_bmp?$AA@ DB 'jisx0213_2_bmp', 00H ; `string'
CONST	ENDS
;	COMDAT ??_C@_0P@CCGNMBJD@jisx0213_1_bmp?$AA@
CONST	SEGMENT
??_C@_0P@CCGNMBJD@jisx0213_1_bmp?$AA@ DB 'jisx0213_1_bmp', 00H ; `string'
CONST	ENDS
;	COMDAT ??_C@_0L@OOINGHMB@jisxcommon?$AA@
CONST	SEGMENT
??_C@_0L@OOINGHMB@jisxcommon?$AA@ DB 'jisxcommon', 00H	; `string'
CONST	ENDS
;	COMDAT ??_C@_08BGDEENJL@jisx0212?$AA@
CONST	SEGMENT
??_C@_08BGDEENJL@jisx0212?$AA@ DB 'jisx0212', 00H	; `string'
CONST	ENDS
;	COMDAT ??_C@_08ONBJMPCG@jisx0208?$AA@
CONST	SEGMENT
??_C@_08ONBJMPCG@jisx0208?$AA@ DB 'jisx0208', 00H	; `string'
CONST	ENDS
CONST	SEGMENT
__jisx0208_decmap DW 03000H
	DW	03001H
	DW	03002H
	DW	0ff0cH
	DW	0ff0eH
	DW	030fbH
	DW	0ff1aH
	DW	0ff1bH
	DW	0ff1fH
	DW	0ff01H
	DW	0309bH
	DW	0309cH
	DW	0b4H
	DW	0ff40H
	DW	0a8H
	DW	0ff3eH
	DW	0ffe3H
	DW	0ff3fH
	DW	030fdH
	DW	030feH
	DW	0309dH
	DW	0309eH
	DW	03003H
	DW	04eddH
	DW	03005H
	DW	03006H
	DW	03007H
	DW	030fcH
	DW	02015H
	DW	02010H
	DW	0ff0fH
	DW	05cH
	DW	0301cH
	DW	02016H
	DW	0ff5cH
	DW	02026H
	DW	02025H
	DW	02018H
	DW	02019H
	DW	0201cH
	DW	0201dH
	DW	0ff08H
	DW	0ff09H
	DW	03014H
	DW	03015H
	DW	0ff3bH
	DW	0ff3dH
	DW	0ff5bH
	DW	0ff5dH
	DW	03008H
	DW	03009H
	DW	0300aH
	DW	0300bH
	DW	0300cH
	DW	0300dH
	DW	0300eH
	DW	0300fH
	DW	03010H
	DW	03011H
	DW	0ff0bH
	DW	02212H
	DW	0b1H
	DW	0d7H
	DW	0f7H
	DW	0ff1dH
	DW	02260H
	DW	0ff1cH
	DW	0ff1eH
	DW	02266H
	DW	02267H
	DW	0221eH
	DW	02234H
	DW	02642H
	DW	02640H
	DW	0b0H
	DW	02032H
	DW	02033H
	DW	02103H
	DW	0ffe5H
	DW	0ff04H
	DW	0a2H
	DW	0a3H
	DW	0ff05H
	DW	0ff03H
	DW	0ff06H
	DW	0ff0aH
	DW	0ff20H
	DW	0a7H
	DW	02606H
	DW	02605H
	DW	025cbH
	DW	025cfH
	DW	025ceH
	DW	025c7H
	DW	025c6H
	DW	025a1H
	DW	025a0H
	DW	025b3H
	DW	025b2H
	DW	025bdH
	DW	025bcH
	DW	0203bH
	DW	03012H
	DW	02192H
	DW	02190H
	DW	02191H
	DW	02193H
	DW	03013H
	DW	0fffeH
	DW	0fffeH
	DW	0fffeH
	DW	0fffeH
	DW	0fffeH
	DW	0fffeH
	DW	0fffeH
	DW	0fffeH
	DW	0fffeH
	DW	0fffeH
	DW	0fffeH
	DW	02208H
	DW	0220bH
	DW	02286H
	DW	02287H
	DW	02282H
	DW	02283H
	DW	0222aH
	DW	02229H
	DW	0fffeH
	DW	0fffeH
	DW	0fffeH
	DW	0fffeH
	DW	0fffeH
	DW	0fffeH
	DW	0fffeH
	DW	0fffeH
	DW	02227H
	DW	02228H
	DW	0acH
	DW	021d2H
	DW	021d4H
	DW	02200H
	DW	02203H
	DW	0fffeH
	DW	0fffeH
	DW	0fffeH
	DW	0fffeH
	DW	0fffeH
	DW	0fffeH
	DW	0fffeH
	DW	0fffeH
	DW	0fffeH
	DW	0fffeH
	DW	0fffeH
	DW	02220H
	DW	022a5H
	DW	02312H
	DW	02202H
	DW	02207H
	DW	02261H
	DW	02252H
	DW	0226aH
	DW	0226bH
	DW	0221aH
	DW	0223dH
	DW	0221dH
	DW	02235H
	DW	0222bH
	DW	0222cH
	DW	0fffeH
	DW	0fffeH
	DW	0fffeH
	DW	0fffeH
	DW	0fffeH
	DW	0fffeH
	DW	0fffeH
	DW	0212bH
	DW	02030H
	DW	0266fH
	DW	0266dH
	DW	0266aH
	DW	02020H
	DW	02021H
	DW	0b6H
	DW	0fffeH
	DW	0fffeH
	DW	0fffeH
	DW	0fffeH
	DW	025efH
	DW	0ff10H
	DW	0ff11H
	DW	0ff12H
	DW	0ff13H
	DW	0ff14H
	DW	0ff15H
	DW	0ff16H
	DW	0ff17H
	DW	0ff18H
	DW	0ff19H
	DW	0fffeH
	DW	0fffeH
	DW	0fffeH
	DW	0fffeH
	DW	0fffeH
	DW	0fffeH
	DW	0fffeH
	DW	0ff21H
	DW	0ff22H
	DW	0ff23H
	DW	0ff24H
	DW	0ff25H
	DW	0ff26H
	DW	0ff27H
	DW	0ff28H
	DW	0ff29H
	DW	0ff2aH
	DW	0ff2bH
	DW	0ff2cH
	DW	0ff2dH
	DW	0ff2eH
	DW	0ff2fH
	DW	0ff30H
	DW	0ff31H
	DW	0ff32H
	DW	0ff33H
	DW	0ff34H
	DW	0ff35H
	DW	0ff36H
	DW	0ff37H
	DW	0ff38H
	DW	0ff39H
	DW	0ff3aH
	DW	0fffeH
	DW	0fffeH
	DW	0fffeH
	DW	0fffeH
	DW	0fffeH
	DW	0fffeH
	DW	0ff41H
	DW	0ff42H
	DW	0ff43H
	DW	0ff44H
	DW	0ff45H
	DW	0ff46H
	DW	0ff47H
	DW	0ff48H
	DW	0ff49H
	DW	0ff4aH
	DW	0ff4bH
	DW	0ff4cH
	DW	0ff4dH
	DW	0ff4eH
	DW	0ff4fH
	DW	0ff50H
	DW	0ff51H
	DW	0ff52H
	DW	0ff53H
	DW	0ff54H
	DW	0ff55H
	DW	0ff56H
	DW	0ff57H
	DW	0ff58H
	DW	0ff59H
	DW	0ff5aH
	DW	03041H
	DW	03042H
	DW	03043H
	DW	03044H
	DW	03045H
	DW	03046H
	DW	03047H
	DW	03048H
	DW	03049H
	DW	0304aH
	DW	0304bH
	DW	0304cH
	DW	0304dH
	DW	0304eH
	DW	0304fH
	DW	03050H
	DW	03051H
	DW	03052H
	DW	03053H
	DW	03054H
	DW	03055H
	DW	03056H
	DW	03057H
	DW	03058H
	DW	03059H
	DW	0305aH
	DW	0305bH
	DW	0305cH
	DW	0305dH
	DW	0305eH
	DW	0305fH
	DW	03060H
	DW	03061H
	DW	03062H
	DW	03063H
	DW	03064H
	DW	03065H
	DW	03066H
	DW	03067H
	DW	03068H
	DW	03069H
	DW	0306aH
	DW	0306bH
	DW	0306cH
	DW	0306dH
	DW	0306eH
	DW	0306fH
	DW	03070H
	DW	03071H
	DW	03072H
	DW	03073H
	DW	03074H
	DW	03075H
	DW	03076H
	DW	03077H
	DW	03078H
	DW	03079H
	DW	0307aH
	DW	0307bH
	DW	0307cH
	DW	0307dH
	DW	0307eH
	DW	0307fH
	DW	03080H
	DW	03081H
	DW	03082H
	DW	03083H
	DW	03084H
	DW	03085H
	DW	03086H
	DW	03087H
	DW	03088H
	DW	03089H
	DW	0308aH
	DW	0308bH
	DW	0308cH
	DW	0308dH
	DW	0308eH
	DW	0308fH
	DW	03090H
	DW	03091H
	DW	03092H
	DW	03093H
	DW	030a1H
	DW	030a2H
	DW	030a3H
	DW	030a4H
	DW	030a5H
	DW	030a6H
	DW	030a7H
	DW	030a8H
	DW	030a9H
	DW	030aaH
	DW	030abH
	DW	030acH
	DW	030adH
	DW	030aeH
	DW	030afH
	DW	030b0H
	DW	030b1H
	DW	030b2H
	DW	030b3H
	DW	030b4H
	DW	030b5H
	DW	030b6H
	DW	030b7H
	DW	030b8H
	DW	030b9H
	DW	030baH
	DW	030bbH
	DW	030bcH
	DW	030bdH
	DW	030beH
	DW	030bfH
	DW	030c0H
	DW	030c1H
	DW	030c2H
	DW	030c3H
	DW	030c4H
	DW	030c5H
	DW	030c6H
	DW	030c7H
	DW	030c8H
	DW	030c9H
	DW	030caH
	DW	030cbH
	DW	030ccH
	DW	030cdH
	DW	030ceH
	DW	030cfH
	DW	030d0H
	DW	030d1H
	DW	030d2H
	DW	030d3H
	DW	030d4H
	DW	030d5H
	DW	030d6H
	DW	030d7H
	DW	030d8H
	DW	030d9H
	DW	030daH
	DW	030dbH
	DW	030dcH
	DW	030ddH
	DW	030deH
	DW	030dfH
	DW	030e0H
	DW	030e1H
	DW	030e2H
	DW	030e3H
	DW	030e4H
	DW	030e5H
	DW	030e6H
	DW	030e7H
	DW	030e8H
	DW	030e9H
	DW	030eaH
	DW	030ebH
	DW	030ecH
	DW	030edH
	DW	030eeH
	DW	030efH
	DW	030f0H
	DW	030f1H
	DW	030f2H
	DW	030f3H
	DW	030f4H
	DW	030f5H
	DW	030f6H
	DW	0391H
	DW	0392H
	DW	0393H
	DW	0394H
	DW	0395H
	DW	0396H
	DW	0397H
	DW	0398H
	DW	0399H
	DW	039aH
	DW	039bH
	DW	039cH
	DW	039dH
	DW	039eH
	DW	039fH
	DW	03a0H
	DW	03a1H
	DW	03a3H
	DW	03a4H
	DW	03a5H
	DW	03a6H
	DW	03a7H
	DW	03a8H
	DW	03a9H
	DW	0fffeH
	DW	0fffeH
	DW	0fffeH
	DW	0fffeH
	DW	0fffeH
	DW	0fffeH
	DW	0fffeH
	DW	0fffeH
	DW	03b1H
	DW	03b2H
	DW	03b3H
	DW	03b4H
	DW	03b5H
	DW	03b6H
	DW	03b7H
	DW	03b8H
	DW	03b9H
	DW	03baH
	DW	03bbH
	DW	03bcH
	DW	03bdH
	DW	03beH
	DW	03bfH
	DW	03c0H
	DW	03c1H
	DW	03c3H
	DW	03c4H
	DW	03c5H
	DW	03c6H
	DW	03c7H
	DW	03c8H
	DW	03c9H
	DW	0410H
	DW	0411H
	DW	0412H
	DW	0413H
	DW	0414H
	DW	0415H
	DW	0401H
	DW	0416H
	DW	0417H
	DW	0418H
	DW	0419H
	DW	041aH
	DW	041bH
	DW	041cH
	DW	041dH
	DW	041eH
	DW	041fH
	DW	0420H
	DW	0421H
	DW	0422H
	DW	0423H
	DW	0424H
	DW	0425H
	DW	0426H
	DW	0427H
	DW	0428H
	DW	0429H
	DW	042aH
	DW	042bH
	DW	042cH
	DW	042dH
	DW	042eH
	DW	042fH
	DW	0fffeH
	DW	0fffeH
	DW	0fffeH
	DW	0fffeH
	DW	0fffeH
	DW	0fffeH
	DW	0fffeH
	DW	0fffeH
	DW	0fffeH
	DW	0fffeH
	DW	0fffeH
	DW	0fffeH
	DW	0fffeH
	DW	0fffeH
	DW	0fffeH
	DW	0430H
	DW	0431H
	DW	0432H
	DW	0433H
	DW	0434H
	DW	0435H
	DW	0451H
	DW	0436H
	DW	0437H
	DW	0438H
	DW	0439H
	DW	043aH
	DW	043bH
	DW	043cH
	DW	043dH
	DW	043eH
	DW	043fH
	DW	0440H
	DW	0441H
	DW	0442H
	DW	0443H
	DW	0444H
	DW	0445H
	DW	0446H
	DW	0447H
	DW	0448H
	DW	0449H
	DW	044aH
	DW	044bH
	DW	044cH
	DW	044dH
	DW	044eH
	DW	044fH
	DW	02500H
	DW	02502H
	DW	0250cH
	DW	02510H
	DW	02518H
	DW	02514H
	DW	0251cH
	DW	0252cH
	DW	02524H
	DW	02534H
	DW	0253cH
	DW	02501H
	DW	02503H
	DW	0250fH
	DW	02513H
	DW	0251bH
	DW	02517H
	DW	02523H
	DW	02533H
	DW	0252bH
	DW	0253bH
	DW	0254bH
	DW	02520H
	DW	0252fH
	DW	02528H
	DW	02537H
	DW	0253fH
	DW	0251dH
	DW	02530H
	DW	02525H
	DW	02538H
	DW	02542H
	DW	04e9cH
	DW	05516H
	DW	05a03H
	DW	0963fH
	DW	054c0H
	DW	0611bH
	DW	06328H
	DW	059f6H
	DW	09022H
	DW	08475H
	DW	0831cH
	DW	07a50H
	DW	060aaH
	DW	063e1H
	DW	06e25H
	DW	065edH
	DW	08466H
	DW	082a6H
	DW	09bf5H
	DW	06893H
	DW	05727H
	DW	065a1H
	DW	06271H
	DW	05b9bH
	DW	059d0H
	DW	0867bH
	DW	098f4H
	DW	07d62H
	DW	07dbeH
	DW	09b8eH
	DW	06216H
	DW	07c9fH
	DW	088b7H
	DW	05b89H
	DW	05eb5H
	DW	06309H
	DW	06697H
	DW	06848H
	DW	095c7H
	DW	0978dH
	DW	0674fH
	DW	04ee5H
	DW	04f0aH
	DW	04f4dH
	DW	04f9dH
	DW	05049H
	DW	056f2H
	DW	05937H
	DW	059d4H
	DW	05a01H
	DW	05c09H
	DW	060dfH
	DW	0610fH
	DW	06170H
	DW	06613H
	DW	06905H
	DW	070baH
	DW	0754fH
	DW	07570H
	DW	079fbH
	DW	07dadH
	DW	07defH
	DW	080c3H
	DW	0840eH
	DW	08863H
	DW	08b02H
	DW	09055H
	DW	0907aH
	DW	0533bH
	DW	04e95H
	DW	04ea5H
	DW	057dfH
	DW	080b2H
	DW	090c1H
	DW	078efH
	DW	04e00H
	DW	058f1H
	DW	06ea2H
	DW	09038H
	DW	07a32H
	DW	08328H
	DW	0828bH
	DW	09c2fH
	DW	05141H
	DW	05370H
	DW	054bdH
	DW	054e1H
	DW	056e0H
	DW	059fbH
	DW	05f15H
	DW	098f2H
	DW	06debH
	DW	080e4H
	DW	0852dH
	DW	09662H
	DW	09670H
	DW	096a0H
	DW	097fbH
	DW	0540bH
	DW	053f3H
	DW	05b87H
	DW	070cfH
	DW	07fbdH
	DW	08fc2H
	DW	096e8H
	DW	0536fH
	DW	09d5cH
	DW	07abaH
	DW	04e11H
	DW	07893H
	DW	081fcH
	DW	06e26H
	DW	05618H
	DW	05504H
	DW	06b1dH
	DW	0851aH
	DW	09c3bH
	DW	059e5H
	DW	053a9H
	DW	06d66H
	DW	074dcH
	DW	0958fH
	DW	05642H
	DW	04e91H
	DW	0904bH
	DW	096f2H
	DW	0834fH
	DW	0990cH
	DW	053e1H
	DW	055b6H
	DW	05b30H
	DW	05f71H
	DW	06620H
	DW	066f3H
	DW	06804H
	DW	06c38H
	DW	06cf3H
	DW	06d29H
	DW	0745bH
	DW	076c8H
	DW	07a4eH
	DW	09834H
	DW	082f1H
	DW	0885bH
	DW	08a60H
	DW	092edH
	DW	06db2H
	DW	075abH
	DW	076caH
	DW	099c5H
	DW	060a6H
	DW	08b01H
	DW	08d8aH
	DW	095b2H
	DW	0698eH
	DW	053adH
	DW	05186H
	DW	05712H
	DW	05830H
	DW	05944H
	DW	05bb4H
	DW	05ef6H
	DW	06028H
	DW	063a9H
	DW	063f4H
	DW	06cbfH
	DW	06f14H
	DW	0708eH
	DW	07114H
	DW	07159H
	DW	071d5H
	DW	0733fH
	DW	07e01H
	DW	08276H
	DW	082d1H
	DW	08597H
	DW	09060H
	DW	0925bH
	DW	09d1bH
	DW	05869H
	DW	065bcH
	DW	06c5aH
	DW	07525H
	DW	051f9H
	DW	0592eH
	DW	05965H
	DW	05f80H
	DW	05fdcH
	DW	062bcH
	DW	065faH
	DW	06a2aH
	DW	06b27H
	DW	06bb4H
	DW	0738bH
	DW	07fc1H
	DW	08956H
	DW	09d2cH
	DW	09d0eH
	DW	09ec4H
	DW	05ca1H
	DW	06c96H
	DW	0837bH
	DW	05104H
	DW	05c4bH
	DW	061b6H
	DW	081c6H
	DW	06876H
	DW	07261H
	DW	04e59H
	DW	04ffaH
	DW	05378H
	DW	06069H
	DW	06e29H
	DW	07a4fH
	DW	097f3H
	DW	04e0bH
	DW	05316H
	DW	04eeeH
	DW	04f55H
	DW	04f3dH
	DW	04fa1H
	DW	04f73H
	DW	052a0H
	DW	053efH
	DW	05609H
	DW	0590fH
	DW	05ac1H
	DW	05bb6H
	DW	05be1H
	DW	079d1H
	DW	06687H
	DW	0679cH
	DW	067b6H
	DW	06b4cH
	DW	06cb3H
	DW	0706bH
	DW	073c2H
	DW	0798dH
	DW	079beH
	DW	07a3cH
	DW	07b87H
	DW	082b1H
	DW	082dbH
	DW	08304H
	DW	08377H
	DW	083efH
	DW	083d3H
	DW	08766H
	DW	08ab2H
	DW	05629H
	DW	08ca8H
	DW	08fe6H
	DW	0904eH
	DW	0971eH
	DW	0868aH
	DW	04fc4H
	DW	05ce8H
	DW	06211H
	DW	07259H
	DW	0753bH
	DW	081e5H
	DW	082bdH
	DW	086feH
	DW	08cc0H
	DW	096c5H
	DW	09913H
	DW	099d5H
	DW	04ecbH
	DW	04f1aH
	DW	089e3H
	DW	056deH
	DW	0584aH
	DW	058caH
	DW	05efbH
	DW	05febH
	DW	0602aH
	DW	06094H
	DW	06062H
	DW	061d0H
	DW	06212H
	DW	062d0H
	DW	06539H
	DW	09b41H
	DW	06666H
	DW	068b0H
	DW	06d77H
	DW	07070H
	DW	0754cH
	DW	07686H
	DW	07d75H
	DW	082a5H
	DW	087f9H
	DW	0958bH
	DW	0968eH
	DW	08c9dH
	DW	051f1H
	DW	052beH
	DW	05916H
	DW	054b3H
	DW	05bb3H
	DW	05d16H
	DW	06168H
	DW	06982H
	DW	06dafH
	DW	0788dH
	DW	084cbH
	DW	08857H
	DW	08a72H
	DW	093a7H
	DW	09ab8H
	DW	06d6cH
	DW	099a8H
	DW	086d9H
	DW	057a3H
	DW	067ffH
	DW	086ceH
	DW	0920eH
	DW	05283H
	DW	05687H
	DW	05404H
	DW	05ed3H
	DW	062e1H
	DW	064b9H
	DW	0683cH
	DW	06838H
	DW	06bbbH
	DW	07372H
	DW	078baH
	DW	07a6bH
	DW	0899aH
	DW	089d2H
	DW	08d6bH
	DW	08f03H
	DW	090edH
	DW	095a3H
	DW	09694H
	DW	09769H
	DW	05b66H
	DW	05cb3H
	DW	0697dH
	DW	0984dH
	DW	0984eH
	DW	0639bH
	DW	07b20H
	DW	06a2bH
	DW	06a7fH
	DW	068b6H
	DW	09c0dH
	DW	06f5fH
	DW	05272H
	DW	0559dH
	DW	06070H
	DW	062ecH
	DW	06d3bH
	DW	06e07H
	DW	06ed1H
	DW	0845bH
	DW	08910H
	DW	08f44H
	DW	04e14H
	DW	09c39H
	DW	053f6H
	DW	0691bH
	DW	06a3aH
	DW	09784H
	DW	0682aH
	DW	0515cH
	DW	07ac3H
	DW	084b2H
	DW	091dcH
	DW	0938cH
	DW	0565bH
	DW	09d28H
	DW	06822H
	DW	08305H
	DW	08431H
	DW	07ca5H
	DW	05208H
	DW	082c5H
	DW	074e6H
	DW	04e7eH
	DW	04f83H
	DW	051a0H
	DW	05bd2H
	DW	0520aH
	DW	052d8H
	DW	052e7H
	DW	05dfbH
	DW	0559aH
	DW	0582aH
	DW	059e6H
	DW	05b8cH
	DW	05b98H
	DW	05bdbH
	DW	05e72H
	DW	05e79H
	DW	060a3H
	DW	0611fH
	DW	06163H
	DW	061beH
	DW	063dbH
	DW	06562H
	DW	067d1H
	DW	06853H
	DW	068faH
	DW	06b3eH
	DW	06b53H
	DW	06c57H
	DW	06f22H
	DW	06f97H
	DW	06f45H
	DW	074b0H
	DW	07518H
	DW	076e3H
	DW	0770bH
	DW	07affH
	DW	07ba1H
	DW	07c21H
	DW	07de9H
	DW	07f36H
	DW	07ff0H
	DW	0809dH
	DW	08266H
	DW	0839eH
	DW	089b3H
	DW	08accH
	DW	08cabH
	DW	09084H
	DW	09451H
	DW	09593H
	DW	09591H
	DW	095a2H
	DW	09665H
	DW	097d3H
	DW	09928H
	DW	08218H
	DW	04e38H
	DW	0542bH
	DW	05cb8H
	DW	05dccH
	DW	073a9H
	DW	0764cH
	DW	0773cH
	DW	05ca9H
	DW	07febH
	DW	08d0bH
	DW	096c1H
	DW	09811H
	DW	09854H
	DW	09858H
	DW	04f01H
	DW	04f0eH
	DW	05371H
	DW	0559cH
	DW	05668H
	DW	057faH
	DW	05947H
	DW	05b09H
	DW	05bc4H
	DW	05c90H
	DW	05e0cH
	DW	05e7eH
	DW	05fccH
	DW	063eeH
	DW	0673aH
	DW	065d7H
	DW	065e2H
	DW	0671fH
	DW	068cbH
	DW	068c4H
	DW	06a5fH
	DW	05e30H
	DW	06bc5H
	DW	06c17H
	DW	06c7dH
	DW	0757fH
	DW	07948H
	DW	05b63H
	DW	07a00H
	DW	07d00H
	DW	05fbdH
	DW	0898fH
	DW	08a18H
	DW	08cb4H
	DW	08d77H
	DW	08eccH
	DW	08f1dH
	DW	098e2H
	DW	09a0eH
	DW	09b3cH
	DW	04e80H
	DW	0507dH
	DW	05100H
	DW	05993H
	DW	05b9cH
	DW	0622fH
	DW	06280H
	DW	064ecH
	DW	06b3aH
	DW	072a0H
	DW	07591H
	DW	07947H
	DW	07fa9H
	DW	087fbH
	DW	08abcH
	DW	08b70H
	DW	063acH
	DW	083caH
	DW	097a0H
	DW	05409H
	DW	05403H
	DW	055abH
	DW	06854H
	DW	06a58H
	DW	08a70H
	DW	07827H
	DW	06775H
	DW	09ecdH
	DW	05374H
	DW	05ba2H
	DW	0811aH
	DW	08650H
	DW	09006H
	DW	04e18H
	DW	04e45H
	DW	04ec7H
	DW	04f11H
	DW	053caH
	DW	05438H
	DW	05baeH
	DW	05f13H
	DW	06025H
	DW	06551H
	DW	0673dH
	DW	06c42H
	DW	06c72H
	DW	06ce3H
	DW	07078H
	DW	07403H
	DW	07a76H
	DW	07aaeH
	DW	07b08H
	DW	07d1aH
	DW	07cfeH
	DW	07d66H
	DW	065e7H
	DW	0725bH
	DW	053bbH
	DW	05c45H
	DW	05de8H
	DW	062d2H
	DW	062e0H
	DW	06319H
	DW	06e20H
	DW	0865aH
	DW	08a31H
	DW	08dddH
	DW	092f8H
	DW	06f01H
	DW	079a6H
	DW	09b5aH
	DW	04ea8H
	DW	04eabH
	DW	04eacH
	DW	04f9bH
	DW	04fa0H
	DW	050d1H
	DW	05147H
	DW	07af6H
	DW	05171H
	DW	051f6H
	DW	05354H
	DW	05321H
	DW	0537fH
	DW	053ebH
	DW	055acH
	DW	05883H
	DW	05ce1H
	DW	05f37H
	DW	05f4aH
	DW	0602fH
	DW	06050H
	DW	0606dH
	DW	0631fH
	DW	06559H
	DW	06a4bH
	DW	06cc1H
	DW	072c2H
	DW	072edH
	DW	077efH
	DW	080f8H
	DW	08105H
	DW	08208H
	DW	0854eH
	DW	090f7H
	DW	093e1H
	DW	097ffH
	DW	09957H
	DW	09a5aH
	DW	04ef0H
	DW	051ddH
	DW	05c2dH
	DW	06681H
	DW	0696dH
	DW	05c40H
	DW	066f2H
	DW	06975H
	DW	07389H
	DW	06850H
	DW	07c81H
	DW	050c5H
	DW	052e4H
	DW	05747H
	DW	05dfeH
	DW	09326H
	DW	065a4H
	DW	06b23H
	DW	06b3dH
	DW	07434H
	DW	07981H
	DW	079bdH
	DW	07b4bH
	DW	07dcaH
	DW	082b9H
	DW	083ccH
	DW	0887fH
	DW	0895fH
	DW	08b39H
	DW	08fd1H
	DW	091d1H
	DW	0541fH
	DW	09280H
	DW	04e5dH
	DW	05036H
	DW	053e5H
	DW	0533aH
	DW	072d7H
	DW	07396H
	DW	077e9H
	DW	082e6H
	DW	08eafH
	DW	099c6H
	DW	099c8H
	DW	099d2H
	DW	05177H
	DW	0611aH
	DW	0865eH
	DW	055b0H
	DW	07a7aH
	DW	05076H
	DW	05bd3H
	DW	09047H
	DW	09685H
	DW	04e32H
	DW	06adbH
	DW	091e7H
	DW	05c51H
	DW	05c48H
	DW	06398H
	DW	07a9fH
	DW	06c93H
	DW	09774H
	DW	08f61H
	DW	07aaaH
	DW	0718aH
	DW	09688H
	DW	07c82H
	DW	06817H
	DW	07e70H
	DW	06851H
	DW	0936cH
	DW	052f2H
	DW	0541bH
	DW	085abH
	DW	08a13H
	DW	07fa4H
	DW	08ecdH
	DW	090e1H
	DW	05366H
	DW	08888H
	DW	07941H
	DW	04fc2H
	DW	050beH
	DW	05211H
	DW	05144H
	DW	05553H
	DW	0572dH
	DW	073eaH
	DW	0578bH
	DW	05951H
	DW	05f62H
	DW	05f84H
	DW	06075H
	DW	06176H
	DW	06167H
	DW	061a9H
	DW	063b2H
	DW	0643aH
	DW	0656cH
	DW	0666fH
	DW	06842H
	DW	06e13H
	DW	07566H
	DW	07a3dH
	DW	07cfbH
	DW	07d4cH
	DW	07d99H
	DW	07e4bH
	DW	07f6bH
	DW	0830eH
	DW	0834aH
	DW	086cdH
	DW	08a08H
	DW	08a63H
	DW	08b66H
	DW	08efdH
	DW	0981aH
	DW	09d8fH
	DW	082b8H
	DW	08fceH
	DW	09be8H
	DW	05287H
	DW	0621fH
	DW	06483H
	DW	06fc0H
	DW	09699H
	DW	06841H
	DW	05091H
	DW	06b20H
	DW	06c7aH
	DW	06f54H
	DW	07a74H
	DW	07d50H
	DW	08840H
	DW	08a23H
	DW	06708H
	DW	04ef6H
	DW	05039H
	DW	05026H
	DW	05065H
	DW	0517cH
	DW	05238H
	DW	05263H
	DW	055a7H
	DW	0570fH
	DW	05805H
	DW	05accH
	DW	05efaH
	DW	061b2H
	DW	061f8H
	DW	062f3H
	DW	06372H
	DW	0691cH
	DW	06a29H
	DW	0727dH
	DW	072acH
	DW	0732eH
	DW	07814H
	DW	0786fH
	DW	07d79H
	DW	0770cH
	DW	080a9H
	DW	0898bH
	DW	08b19H
	DW	08ce2H
	DW	08ed2H
	DW	09063H
	DW	09375H
	DW	0967aH
	DW	09855H
	DW	09a13H
	DW	09e78H
	DW	05143H
	DW	0539fH
	DW	053b3H
	DW	05e7bH
	DW	05f26H
	DW	06e1bH
	DW	06e90H
	DW	07384H
	DW	073feH
	DW	07d43H
	DW	08237H
	DW	08a00H
	DW	08afaH
	DW	09650H
	DW	04e4eH
	DW	0500bH
	DW	053e4H
	DW	0547cH
	DW	056faH
	DW	059d1H
	DW	05b64H
	DW	05df1H
	DW	05eabH
	DW	05f27H
	DW	06238H
	DW	06545H
	DW	067afH
	DW	06e56H
	DW	072d0H
	DW	07ccaH
	DW	088b4H
	DW	080a1H
	DW	080e1H
	DW	083f0H
	DW	0864eH
	DW	08a87H
	DW	08de8H
	DW	09237H
	DW	096c7H
	DW	09867H
	DW	09f13H
	DW	04e94H
	DW	04e92H
	DW	04f0dH
	DW	05348H
	DW	05449H
	DW	0543eH
	DW	05a2fH
	DW	05f8cH
	DW	05fa1H
	DW	0609fH
	DW	068a7H
	DW	06a8eH
	DW	0745aH
	DW	07881H
	DW	08a9eH
	DW	08aa4H
	DW	08b77H
	DW	09190H
	DW	04e5eH
	DW	09bc9H
	DW	04ea4H
	DW	04f7cH
	DW	04fafH
	DW	05019H
	DW	05016H
	DW	05149H
	DW	0516cH
	DW	0529fH
	DW	052b9H
	DW	052feH
	DW	0539aH
	DW	053e3H
	DW	05411H
	DW	0540eH
	DW	05589H
	DW	05751H
	DW	057a2H
	DW	0597dH
	DW	05b54H
	DW	05b5dH
	DW	05b8fH
	DW	05de5H
	DW	05de7H
	DW	05df7H
	DW	05e78H
	DW	05e83H
	DW	05e9aH
	DW	05eb7H
	DW	05f18H
	DW	06052H
	DW	0614cH
	DW	06297H
	DW	062d8H
	DW	063a7H
	DW	0653bH
	DW	06602H
	DW	06643H
	DW	066f4H
	DW	0676dH
	DW	06821H
	DW	06897H
	DW	069cbH
	DW	06c5fH
	DW	06d2aH
	DW	06d69H
	DW	06e2fH
	DW	06e9dH
	DW	07532H
	DW	07687H
	DW	0786cH
	DW	07a3fH
	DW	07ce0H
	DW	07d05H
	DW	07d18H
	DW	07d5eH
	DW	07db1H
	DW	08015H
	DW	08003H
	DW	080afH
	DW	080b1H
	DW	08154H
	DW	0818fH
	DW	0822aH
	DW	08352H
	DW	0884cH
	DW	08861H
	DW	08b1bH
	DW	08ca2H
	DW	08cfcH
	DW	090caH
	DW	09175H
	DW	09271H
	DW	0783fH
	DW	092fcH
	DW	095a4H
	DW	0964dH
	DW	09805H
	DW	09999H
	DW	09ad8H
	DW	09d3bH
	DW	0525bH
	DW	052abH
	DW	053f7H
	DW	05408H
	DW	058d5H
	DW	062f7H
	DW	06fe0H
	DW	08c6aH
	DW	08f5fH
	DW	09eb9H
	DW	0514bH
	DW	0523bH
	DW	0544aH
	DW	056fdH
	DW	07a40H
	DW	09177H
	DW	09d60H
	DW	09ed2H
	DW	07344H
	DW	06f09H
	DW	08170H
	DW	07511H
	DW	05ffdH
	DW	060daH
	DW	09aa8H
	DW	072dbH
	DW	08fbcH
	DW	06b64H
	DW	09803H
	DW	04ecaH
	DW	056f0H
	DW	05764H
	DW	058beH
	DW	05a5aH
	DW	06068H
	DW	061c7H
	DW	0660fH
	DW	06606H
	DW	06839H
	DW	068b1H
	DW	06df7H
	DW	075d5H
	DW	07d3aH
	DW	0826eH
	DW	09b42H
	DW	04e9bH
	DW	04f50H
	DW	053c9H
	DW	05506H
	DW	05d6fH
	DW	05de6H
	DW	05deeH
	DW	067fbH
	DW	06c99H
	DW	07473H
	DW	07802H
	DW	08a50H
	DW	09396H
	DW	088dfH
	DW	05750H
	DW	05ea7H
	DW	0632bH
	DW	050b5H
	DW	050acH
	DW	0518dH
	DW	06700H
	DW	054c9H
	DW	0585eH
	DW	059bbH
	DW	05bb0H
	DW	05f69H
	DW	0624dH
	DW	063a1H
	DW	0683dH
	DW	06b73H
	DW	06e08H
	DW	0707dH
	DW	091c7H
	DW	07280H
	DW	07815H
	DW	07826H
	DW	0796dH
	DW	0658eH
	DW	07d30H
	DW	083dcH
	DW	088c1H
	DW	08f09H
	DW	0969bH
	DW	05264H
	DW	05728H
	DW	06750H
	DW	07f6aH
	DW	08ca1H
	DW	051b4H
	DW	05742H
	DW	0962aH
	DW	0583aH
	DW	0698aH
	DW	080b4H
	DW	054b2H
	DW	05d0eH
	DW	057fcH
	DW	07895H
	DW	09dfaH
	DW	04f5cH
	DW	0524aH
	DW	0548bH
	DW	0643eH
	DW	06628H
	DW	06714H
	DW	067f5H
	DW	07a84H
	DW	07b56H
	DW	07d22H
	DW	0932fH
	DW	0685cH
	DW	09badH
	DW	07b39H
	DW	05319H
	DW	0518aH
	DW	05237H
	DW	05bdfH
	DW	062f6H
	DW	064aeH
	DW	064e6H
	DW	0672dH
	DW	06bbaH
	DW	085a9H
	DW	096d1H
	DW	07690H
	DW	09bd6H
	DW	0634cH
	DW	09306H
	DW	09babH
	DW	076bfH
	DW	06652H
	DW	04e09H
	DW	05098H
	DW	053c2H
	DW	05c71H
	DW	060e8H
	DW	06492H
	DW	06563H
	DW	0685fH
	DW	071e6H
	DW	073caH
	DW	07523H
	DW	07b97H
	DW	07e82H
	DW	08695H
	DW	08b83H
	DW	08cdbH
	DW	09178H
	DW	09910H
	DW	065acH
	DW	066abH
	DW	06b8bH
	DW	04ed5H
	DW	04ed4H
	DW	04f3aH
	DW	04f7fH
	DW	0523aH
	DW	053f8H
	DW	053f2H
	DW	055e3H
	DW	056dbH
	DW	058ebH
	DW	059cbH
	DW	059c9H
	DW	059ffH
	DW	05b50H
	DW	05c4dH
	DW	05e02H
	DW	05e2bH
	DW	05fd7H
	DW	0601dH
	DW	06307H
	DW	0652fH
	DW	05b5cH
	DW	065afH
	DW	065bdH
	DW	065e8H
	DW	0679dH
	DW	06b62H
	DW	06b7bH
	DW	06c0fH
	DW	07345H
	DW	07949H
	DW	079c1H
	DW	07cf8H
	DW	07d19H
	DW	07d2bH
	DW	080a2H
	DW	08102H
	DW	081f3H
	DW	08996H
	DW	08a5eH
	DW	08a69H
	DW	08a66H
	DW	08a8cH
	DW	08aeeH
	DW	08cc7H
	DW	08cdcH
	DW	096ccH
	DW	098fcH
	DW	06b6fH
	DW	04e8bH
	DW	04f3cH
	DW	04f8dH
	DW	05150H
	DW	05b57H
	DW	05bfaH
	DW	06148H
	DW	06301H
	DW	06642H
	DW	06b21H
	DW	06ecbH
	DW	06cbbH
	DW	0723eH
	DW	074bdH
	DW	075d4H
	DW	078c1H
	DW	0793aH
	DW	0800cH
	DW	08033H
	DW	081eaH
	DW	08494H
	DW	08f9eH
	DW	06c50H
	DW	09e7fH
	DW	05f0fH
	DW	08b58H
	DW	09d2bH
	DW	07afaH
	DW	08ef8H
	DW	05b8dH
	DW	096ebH
	DW	04e03H
	DW	053f1H
	DW	057f7H
	DW	05931H
	DW	05ac9H
	DW	05ba4H
	DW	06089H
	DW	06e7fH
	DW	06f06H
	DW	075beH
	DW	08ceaH
	DW	05b9fH
	DW	08500H
	DW	07be0H
	DW	05072H
	DW	067f4H
	DW	0829dH
	DW	05c61H
	DW	0854aH
	DW	07e1eH
	DW	0820eH
	DW	05199H
	DW	05c04H
	DW	06368H
	DW	08d66H
	DW	0659cH
	DW	0716eH
	DW	0793eH
	DW	07d17H
	DW	08005H
	DW	08b1dH
	DW	08ecaH
	DW	0906eH
	DW	086c7H
	DW	090aaH
	DW	0501fH
	DW	052faH
	DW	05c3aH
	DW	06753H
	DW	0707cH
	DW	07235H
	DW	0914cH
	DW	091c8H
	DW	0932bH
	DW	082e5H
	DW	05bc2H
	DW	05f31H
	DW	060f9H
	DW	04e3bH
	DW	053d6H
	DW	05b88H
	DW	0624bH
	DW	06731H
	DW	06b8aH
	DW	072e9H
	DW	073e0H
	DW	07a2eH
	DW	0816bH
	DW	08da3H
	DW	09152H
	DW	09996H
	DW	05112H
	DW	053d7H
	DW	0546aH
	DW	05bffH
	DW	06388H
	DW	06a39H
	DW	07dacH
	DW	09700H
	DW	056daH
	DW	053ceH
	DW	05468H
	DW	05b97H
	DW	05c31H
	DW	05ddeH
	DW	04feeH
	DW	06101H
	DW	062feH
	DW	06d32H
	DW	079c0H
	DW	079cbH
	DW	07d42H
	DW	07e4dH
	DW	07fd2H
	DW	081edH
	DW	0821fH
	DW	08490H
	DW	08846H
	DW	08972H
	DW	08b90H
	DW	08e74H
	DW	08f2fH
	DW	09031H
	DW	0914bH
	DW	0916cH
	DW	096c6H
	DW	0919cH
	DW	04ec0H
	DW	04f4fH
	DW	05145H
	DW	05341H
	DW	05f93H
	DW	0620eH
	DW	067d4H
	DW	06c41H
	DW	06e0bH
	DW	07363H
	DW	07e26H
	DW	091cdH
	DW	09283H
	DW	053d4H
	DW	05919H
	DW	05bbfH
	DW	06dd1H
	DW	0795dH
	DW	07e2eH
	DW	07c9bH
	DW	0587eH
	DW	0719fH
	DW	051faH
	DW	08853H
	DW	08ff0H
	DW	04fcaH
	DW	05cfbH
	DW	06625H
	DW	077acH
	DW	07ae3H
	DW	0821cH
	DW	099ffH
	DW	051c6H
	DW	05faaH
	DW	065ecH
	DW	0696fH
	DW	06b89H
	DW	06df3H
	DW	06e96H
	DW	06f64H
	DW	076feH
	DW	07d14H
	DW	05de1H
	DW	09075H
	DW	09187H
	DW	09806H
	DW	051e6H
	DW	0521dH
	DW	06240H
	DW	06691H
	DW	066d9H
	DW	06e1aH
	DW	05eb6H
	DW	07dd2H
	DW	07f72H
	DW	066f8H
	DW	085afH
	DW	085f7H
	DW	08af8H
	DW	052a9H
	DW	053d9H
	DW	05973H
	DW	05e8fH
	DW	05f90H
	DW	06055H
	DW	092e4H
	DW	09664H
	DW	050b7H
	DW	0511fH
	DW	052ddH
	DW	05320H
	DW	05347H
	DW	053ecH
	DW	054e8H
	DW	05546H
	DW	05531H
	DW	05617H
	DW	05968H
	DW	059beH
	DW	05a3cH
	DW	05bb5H
	DW	05c06H
	DW	05c0fH
	DW	05c11H
	DW	05c1aH
	DW	05e84H
	DW	05e8aH
	DW	05ee0H
	DW	05f70H
	DW	0627fH
	DW	06284H
	DW	062dbH
	DW	0638cH
	DW	06377H
	DW	06607H
	DW	0660cH
	DW	0662dH
	DW	06676H
	DW	0677eH
	DW	068a2H
	DW	06a1fH
	DW	06a35H
	DW	06cbcH
	DW	06d88H
	DW	06e09H
	DW	06e58H
	DW	0713cH
	DW	07126H
	DW	07167H
	DW	075c7H
	DW	07701H
	DW	0785dH
	DW	07901H
	DW	07965H
	DW	079f0H
	DW	07ae0H
	DW	07b11H
	DW	07ca7H
	DW	07d39H
	DW	08096H
	DW	083d6H
	DW	0848bH
	DW	08549H
	DW	0885dH
	DW	088f3H
	DW	08a1fH
	DW	08a3cH
	DW	08a54H
	DW	08a73H
	DW	08c61H
	DW	08cdeH
	DW	091a4H
	DW	09266H
	DW	0937eH
	DW	09418H
	DW	0969cH
	DW	09798H
	DW	04e0aH
	DW	04e08H
	DW	04e1eH
	DW	04e57H
	DW	05197H
	DW	05270H
	DW	057ceH
	DW	05834H
	DW	058ccH
	DW	05b22H
	DW	05e38H
	DW	060c5H
	DW	064feH
	DW	06761H
	DW	06756H
	DW	06d44H
	DW	072b6H
	DW	07573H
	DW	07a63H
	DW	084b8H
	DW	08b72H
	DW	091b8H
	DW	09320H
	DW	05631H
	DW	057f4H
	DW	098feH
	DW	062edH
	DW	0690dH
	DW	06b96H
	DW	071edH
	DW	07e54H
	DW	08077H
	DW	08272H
	DW	089e6H
	DW	098dfH
	DW	08755H
	DW	08fb1H
	DW	05c3bH
	DW	04f38H
	DW	04fe1H
	DW	04fb5H
	DW	05507H
	DW	05a20H
	DW	05bddH
	DW	05be9H
	DW	05fc3H
	DW	0614eH
	DW	0632fH
	DW	065b0H
	DW	0664bH
	DW	068eeH
	DW	0699bH
	DW	06d78H
	DW	06df1H
	DW	07533H
	DW	075b9H
	DW	0771fH
	DW	0795eH
	DW	079e6H
	DW	07d33H
	DW	081e3H
	DW	082afH
	DW	085aaH
	DW	089aaH
	DW	08a3aH
	DW	08eabH
	DW	08f9bH
	DW	09032H
	DW	091ddH
	DW	09707H
	DW	04ebaH
	DW	04ec1H
	DW	05203H
	DW	05875H
	DW	058ecH
	DW	05c0bH
	DW	0751aH
	DW	05c3dH
	DW	0814eH
	DW	08a0aH
	DW	08fc5H
	DW	09663H
	DW	0976dH
	DW	07b25H
	DW	08acfH
	DW	09808H
	DW	09162H
	DW	056f3H
	DW	053a8H
	DW	09017H
	DW	05439H
	DW	05782H
	DW	05e25H
	DW	063a8H
	DW	06c34H
	DW	0708aH
	DW	07761H
	DW	07c8bH
	DW	07fe0H
	DW	08870H
	DW	09042H
	DW	09154H
	DW	09310H
	DW	09318H
	DW	0968fH
	DW	0745eH
	DW	09ac4H
	DW	05d07H
	DW	05d69H
	DW	06570H
	DW	067a2H
	DW	08da8H
	DW	096dbH
	DW	0636eH
	DW	06749H
	DW	06919H
	DW	083c5H
	DW	09817H
	DW	096c0H
	DW	088feH
	DW	06f84H
	DW	0647aH
	DW	05bf8H
	DW	04e16H
	DW	0702cH
	DW	0755dH
	DW	0662fH
	DW	051c4H
	DW	05236H
	DW	052e2H
	DW	059d3H
	DW	05f81H
	DW	06027H
	DW	06210H
	DW	0653fH
	DW	06574H
	DW	0661fH
	DW	06674H
	DW	068f2H
	DW	06816H
	DW	06b63H
	DW	06e05H
	DW	07272H
	DW	0751fH
	DW	076dbH
	DW	07cbeH
	DW	08056H
	DW	058f0H
	DW	088fdH
	DW	0897fH
	DW	08aa0H
	DW	08a93H
	DW	08acbH
	DW	0901dH
	DW	09192H
	DW	09752H
	DW	09759H
	DW	06589H
	DW	07a0eH
	DW	08106H
	DW	096bbH
	DW	05e2dH
	DW	060dcH
	DW	0621aH
	DW	065a5H
	DW	06614H
	DW	06790H
	DW	077f3H
	DW	07a4dH
	DW	07c4dH
	DW	07e3eH
	DW	0810aH
	DW	08cacH
	DW	08d64H
	DW	08de1H
	DW	08e5fH
	DW	078a9H
	DW	05207H
	DW	062d9H
	DW	063a5H
	DW	06442H
	DW	06298H
	DW	08a2dH
	DW	07a83H
	DW	07bc0H
	DW	08aacH
	DW	096eaH
	DW	07d76H
	DW	0820cH
	DW	08749H
	DW	04ed9H
	DW	05148H
	DW	05343H
	DW	05360H
	DW	05ba3H
	DW	05c02H
	DW	05c16H
	DW	05dddH
	DW	06226H
	DW	06247H
	DW	064b0H
	DW	06813H
	DW	06834H
	DW	06cc9H
	DW	06d45H
	DW	06d17H
	DW	067d3H
	DW	06f5cH
	DW	0714eH
	DW	0717dH
	DW	065cbH
	DW	07a7fH
	DW	07badH
	DW	07ddaH
	DW	07e4aH
	DW	07fa8H
	DW	0817aH
	DW	0821bH
	DW	08239H
	DW	085a6H
	DW	08a6eH
	DW	08cceH
	DW	08df5H
	DW	09078H
	DW	09077H
	DW	092adH
	DW	09291H
	DW	09583H
	DW	09baeH
	DW	0524dH
	DW	05584H
	DW	06f38H
	DW	07136H
	DW	05168H
	DW	07985H
	DW	07e55H
	DW	081b3H
	DW	07cceH
	DW	0564cH
	DW	05851H
	DW	05ca8H
	DW	063aaH
	DW	066feH
	DW	066fdH
	DW	0695aH
	DW	072d9H
	DW	0758fH
	DW	0758eH
	DW	0790eH
	DW	07956H
	DW	079dfH
	DW	07c97H
	DW	07d20H
	DW	07d44H
	DW	08607H
	DW	08a34H
	DW	0963bH
	DW	09061H
	DW	09f20H
	DW	050e7H
	DW	05275H
	DW	053ccH
	DW	053e2H
	DW	05009H
	DW	055aaH
	DW	058eeH
	DW	0594fH
	DW	0723dH
	DW	05b8bH
	DW	05c64H
	DW	0531dH
	DW	060e3H
	DW	060f3H
	DW	0635cH
	DW	06383H
	DW	0633fH
	DW	063bbH
	DW	064cdH
	DW	065e9H
	DW	066f9H
	DW	05de3H
	DW	069cdH
	DW	069fdH
	DW	06f15H
	DW	071e5H
	DW	04e89H
	DW	075e9H
	DW	076f8H
	DW	07a93H
	DW	07cdfH
	DW	07dcfH
	DW	07d9cH
	DW	08061H
	DW	08349H
	DW	08358H
	DW	0846cH
	DW	084bcH
	DW	085fbH
	DW	088c5H
	DW	08d70H
	DW	09001H
	DW	0906dH
	DW	09397H
	DW	0971cH
	DW	09a12H
	DW	050cfH
	DW	05897H
	DW	0618eH
	DW	081d3H
	DW	08535H
	DW	08d08H
	DW	09020H
	DW	04fc3H
	DW	05074H
	DW	05247H
	DW	05373H
	DW	0606fH
	DW	06349H
	DW	0675fH
	DW	06e2cH
	DW	08db3H
	DW	0901fH
	DW	04fd7H
	DW	05c5eH
	DW	08ccaH
	DW	065cfH
	DW	07d9aH
	DW	05352H
	DW	08896H
	DW	05176H
	DW	063c3H
	DW	05b58H
	DW	05b6bH
	DW	05c0aH
	DW	0640dH
	DW	06751H
	DW	0905cH
	DW	04ed6H
	DW	0591aH
	DW	0592aH
	DW	06c70H
	DW	08a51H
	DW	0553eH
	DW	05815H
	DW	059a5H
	DW	060f0H
	DW	06253H
	DW	067c1H
	DW	08235H
	DW	06955H
	DW	09640H
	DW	099c4H
	DW	09a28H
	DW	04f53H
	DW	05806H
	DW	05bfeH
	DW	08010H
	DW	05cb1H
	DW	05e2fH
	DW	05f85H
	DW	06020H
	DW	0614bH
	DW	06234H
	DW	066ffH
	DW	06cf0H
	DW	06edeH
	DW	080ceH
	DW	0817fH
	DW	082d4H
	DW	0888bH
	DW	08cb8H
	DW	09000H
	DW	0902eH
	DW	0968aH
	DW	09edbH
	DW	09bdbH
	DW	04ee3H
	DW	053f0H
	DW	05927H
	DW	07b2cH
	DW	0918dH
	DW	0984cH
	DW	09df9H
	DW	06eddH
	DW	07027H
	DW	05353H
	DW	05544H
	DW	05b85H
	DW	06258H
	DW	0629eH
	DW	062d3H
	DW	06ca2H
	DW	06fefH
	DW	07422H
	DW	08a17H
	DW	09438H
	DW	06fc1H
	DW	08afeH
	DW	08338H
	DW	051e7H
	DW	086f8H
	DW	053eaH
	DW	053e9H
	DW	04f46H
	DW	09054H
	DW	08fb0H
	DW	0596aH
	DW	08131H
	DW	05dfdH
	DW	07aeaH
	DW	08fbfH
	DW	068daH
	DW	08c37H
	DW	072f8H
	DW	09c48H
	DW	06a3dH
	DW	08ab0H
	DW	04e39H
	DW	05358H
	DW	05606H
	DW	05766H
	DW	062c5H
	DW	063a2H
	DW	065e6H
	DW	06b4eH
	DW	06de1H
	DW	06e5bH
	DW	070adH
	DW	077edH
	DW	07aefH
	DW	07baaH
	DW	07dbbH
	DW	0803dH
	DW	080c6H
	DW	086cbH
	DW	08a95H
	DW	0935bH
	DW	056e3H
	DW	058c7H
	DW	05f3eH
	DW	065adH
	DW	06696H
	DW	06a80H
	DW	06bb5H
	DW	07537H
	DW	08ac7H
	DW	05024H
	DW	077e5H
	DW	05730H
	DW	05f1bH
	DW	06065H
	DW	0667aH
	DW	06c60H
	DW	075f4H
	DW	07a1aH
	DW	07f6eH
	DW	081f4H
	DW	08718H
	DW	09045H
	DW	099b3H
	DW	07bc9H
	DW	0755cH
	DW	07af9H
	DW	07b51H
	DW	084c4H
	DW	09010H
	DW	079e9H
	DW	07a92H
	DW	08336H
	DW	05ae1H
	DW	07740H
	DW	04e2dH
	DW	04ef2H
	DW	05b99H
	DW	05fe0H
	DW	062bdH
	DW	0663cH
	DW	067f1H
	DW	06ce8H
	DW	0866bH
	DW	08877H
	DW	08a3bH
	DW	0914eH
	DW	092f3H
	DW	099d0H
	DW	06a17H
	DW	07026H
	DW	0732aH
	DW	082e7H
	DW	08457H
	DW	08cafH
	DW	04e01H
	DW	05146H
	DW	051cbH
	DW	0558bH
	DW	05bf5H
	DW	05e16H
	DW	05e33H
	DW	05e81H
	DW	05f14H
	DW	05f35H
	DW	05f6bH
	DW	05fb4H
	DW	061f2H
	DW	06311H
	DW	066a2H
	DW	0671dH
	DW	06f6eH
	DW	07252H
	DW	0753aH
	DW	0773aH
	DW	08074H
	DW	08139H
	DW	08178H
	DW	08776H
	DW	08abfH
	DW	08adcH
	DW	08d85H
	DW	08df3H
	DW	0929aH
	DW	09577H
	DW	09802H
	DW	09ce5H
	DW	052c5H
	DW	06357H
	DW	076f4H
	DW	06715H
	DW	06c88H
	DW	073cdH
	DW	08cc3H
	DW	093aeH
	DW	09673H
	DW	06d25H
	DW	0589cH
	DW	0690eH
	DW	069ccH
	DW	08ffdH
	DW	0939aH
	DW	075dbH
	DW	0901aH
	DW	0585aH
	DW	06802H
	DW	063b4H
	DW	069fbH
	DW	04f43H
	DW	06f2cH
	DW	067d8H
	DW	08fbbH
	DW	08526H
	DW	07db4H
	DW	09354H
	DW	0693fH
	DW	06f70H
	DW	0576aH
	DW	058f7H
	DW	05b2cH
	DW	07d2cH
	DW	0722aH
	DW	0540aH
	DW	091e3H
	DW	09db4H
	DW	04eadH
	DW	04f4eH
	DW	0505cH
	DW	05075H
	DW	05243H
	DW	08c9eH
	DW	05448H
	DW	05824H
	DW	05b9aH
	DW	05e1dH
	DW	05e95H
	DW	05eadH
	DW	05ef7H
	DW	05f1fH
	DW	0608cH
	DW	062b5H
	DW	0633aH
	DW	063d0H
	DW	068afH
	DW	06c40H
	DW	07887H
	DW	0798eH
	DW	07a0bH
	DW	07de0H
	DW	08247H
	DW	08a02H
	DW	08ae6H
	DW	08e44H
	DW	09013H
	DW	090b8H
	DW	0912dH
	DW	091d8H
	DW	09f0eH
	DW	06ce5H
	DW	06458H
	DW	064e2H
	DW	06575H
	DW	06ef4H
	DW	07684H
	DW	07b1bH
	DW	09069H
	DW	093d1H
	DW	06ebaH
	DW	054f2H
	DW	05fb9H
	DW	064a4H
	DW	08f4dH
	DW	08fedH
	DW	09244H
	DW	05178H
	DW	0586bH
	DW	05929H
	DW	05c55H
	DW	05e97H
	DW	06dfbH
	DW	07e8fH
	DW	0751cH
	DW	08cbcH
	DW	08ee2H
	DW	0985bH
	DW	070b9H
	DW	04f1dH
	DW	06bbfH
	DW	06fb1H
	DW	07530H
	DW	096fbH
	DW	0514eH
	DW	05410H
	DW	05835H
	DW	05857H
	DW	059acH
	DW	05c60H
	DW	05f92H
	DW	06597H
	DW	0675cH
	DW	06e21H
	DW	0767bH
	DW	083dfH
	DW	08cedH
	DW	09014H
	DW	090fdH
	DW	0934dH
	DW	07825H
	DW	0783aH
	DW	052aaH
	DW	05ea6H
	DW	0571fH
	DW	05974H
	DW	06012H
	DW	05012H
	DW	0515aH
	DW	051acH
	DW	051cdH
	DW	05200H
	DW	05510H
	DW	05854H
	DW	05858H
	DW	05957H
	DW	05b95H
	DW	05cf6H
	DW	05d8bH
	DW	060bcH
	DW	06295H
	DW	0642dH
	DW	06771H
	DW	06843H
	DW	068bcH
	DW	068dfH
	DW	076d7H
	DW	06dd8H
	DW	06e6fH
	DW	06d9bH
	DW	0706fH
	DW	071c8H
	DW	05f53H
	DW	075d8H
	DW	07977H
	DW	07b49H
	DW	07b54H
	DW	07b52H
	DW	07cd6H
	DW	07d71H
	DW	05230H
	DW	08463H
	DW	08569H
	DW	085e4H
	DW	08a0eH
	DW	08b04H
	DW	08c46H
	DW	08e0fH
	DW	09003H
	DW	0900fH
	DW	09419H
	DW	09676H
	DW	0982dH
	DW	09a30H
	DW	095d8H
	DW	050cdH
	DW	052d5H
	DW	0540cH
	DW	05802H
	DW	05c0eH
	DW	061a7H
	DW	0649eH
	DW	06d1eH
	DW	077b3H
	DW	07ae5H
	DW	080f4H
	DW	08404H
	DW	09053H
	DW	09285H
	DW	05ce0H
	DW	09d07H
	DW	0533fH
	DW	05f97H
	DW	05fb3H
	DW	06d9cH
	DW	07279H
	DW	07763H
	DW	079bfH
	DW	07be4H
	DW	06bd2H
	DW	072ecH
	DW	08aadH
	DW	06803H
	DW	06a61H
	DW	051f8H
	DW	07a81H
	DW	06934H
	DW	05c4aH
	DW	09cf6H
	DW	082ebH
	DW	05bc5H
	DW	09149H
	DW	0701eH
	DW	05678H
	DW	05c6fH
	DW	060c7H
	DW	06566H
	DW	06c8cH
	DW	08c5aH
	DW	09041H
	DW	09813H
	DW	05451H
	DW	066c7H
	DW	0920dH
	DW	05948H
	DW	090a3H
	DW	05185H
	DW	04e4dH
	DW	051eaH
	DW	08599H
	DW	08b0eH
	DW	07058H
	DW	0637aH
	DW	0934bH
	DW	06962H
	DW	099b4H
	DW	07e04H
	DW	07577H
	DW	05357H
	DW	06960H
	DW	08edfH
	DW	096e3H
	DW	06c5dH
	DW	04e8cH
	DW	05c3cH
	DW	05f10H
	DW	08fe9H
	DW	05302H
	DW	08cd1H
	DW	08089H
	DW	08679H
	DW	05effH
	DW	065e5H
	DW	04e73H
	DW	05165H
	DW	05982H
	DW	05c3fH
	DW	097eeH
	DW	04efbH
	DW	0598aH
	DW	05fcdH
	DW	08a8dH
	DW	06fe1H
	DW	079b0H
	DW	07962H
	DW	05be7H
	DW	08471H
	DW	0732bH
	DW	071b1H
	DW	05e74H
	DW	05ff5H
	DW	0637bH
	DW	0649aH
	DW	071c3H
	DW	07c98H
	DW	04e43H
	DW	05efcH
	DW	04e4bH
	DW	057dcH
	DW	056a2H
	DW	060a9H
	DW	06fc3H
	DW	07d0dH
	DW	080fdH
	DW	08133H
	DW	081bfH
	DW	08fb2H
	DW	08997H
	DW	086a4H
	DW	05df4H
	DW	0628aH
	DW	064adH
	DW	08987H
	DW	06777H
	DW	06ce2H
	DW	06d3eH
	DW	07436H
	DW	07834H
	DW	05a46H
	DW	07f75H
	DW	082adH
	DW	099acH
	DW	04ff3H
	DW	05ec3H
	DW	062ddH
	DW	06392H
	DW	06557H
	DW	0676fH
	DW	076c3H
	DW	0724cH
	DW	080ccH
	DW	080baH
	DW	08f29H
	DW	0914dH
	DW	0500dH
	DW	057f9H
	DW	05a92H
	DW	06885H
	DW	06973H
	DW	07164H
	DW	072fdH
	DW	08cb7H
	DW	058f2H
	DW	08ce0H
	DW	0966aH
	DW	09019H
	DW	0877fH
	DW	079e4H
	DW	077e7H
	DW	08429H
	DW	04f2fH
	DW	05265H
	DW	0535aH
	DW	062cdH
	DW	067cfH
	DW	06ccaH
	DW	0767dH
	DW	07b94H
	DW	07c95H
	DW	08236H
	DW	08584H
	DW	08febH
	DW	066ddH
	DW	06f20H
	DW	07206H
	DW	07e1bH
	DW	083abH
	DW	099c1H
	DW	09ea6H
	DW	051fdH
	DW	07bb1H
	DW	07872H
	DW	07bb8H
	DW	08087H
	DW	07b48H
	DW	06ae8H
	DW	05e61H
	DW	0808cH
	DW	07551H
	DW	07560H
	DW	0516bH
	DW	09262H
	DW	06e8cH
	DW	0767aH
	DW	09197H
	DW	09aeaH
	DW	04f10H
	DW	07f70H
	DW	0629cH
	DW	07b4fH
	DW	095a5H
	DW	09ce9H
	DW	0567aH
	DW	05859H
	DW	086e4H
	DW	096bcH
	DW	04f34H
	DW	05224H
	DW	0534aH
	DW	053cdH
	DW	053dbH
	DW	05e06H
	DW	0642cH
	DW	06591H
	DW	0677fH
	DW	06c3eH
	DW	06c4eH
	DW	07248H
	DW	072afH
	DW	073edH
	DW	07554H
	DW	07e41H
	DW	0822cH
	DW	085e9H
	DW	08ca9H
	DW	07bc4H
	DW	091c6H
	DW	07169H
	DW	09812H
	DW	098efH
	DW	0633dH
	DW	06669H
	DW	0756aH
	DW	076e4H
	DW	078d0H
	DW	08543H
	DW	086eeH
	DW	0532aH
	DW	05351H
	DW	05426H
	DW	05983H
	DW	05e87H
	DW	05f7cH
	DW	060b2H
	DW	06249H
	DW	06279H
	DW	062abH
	DW	06590H
	DW	06bd4H
	DW	06cccH
	DW	075b2H
	DW	076aeH
	DW	07891H
	DW	079d8H
	DW	07dcbH
	DW	07f77H
	DW	080a5H
	DW	088abH
	DW	08ab9H
	DW	08cbbH
	DW	0907fH
	DW	0975eH
	DW	098dbH
	DW	06a0bH
	DW	07c38H
	DW	05099H
	DW	05c3eH
	DW	05faeH
	DW	06787H
	DW	06bd8H
	DW	07435H
	DW	07709H
	DW	07f8eH
	DW	09f3bH
	DW	067caH
	DW	07a17H
	DW	05339H
	DW	0758bH
	DW	09aedH
	DW	05f66H
	DW	0819dH
	DW	083f1H
	DW	08098H
	DW	05f3cH
	DW	05fc5H
	DW	07562H
	DW	07b46H
	DW	0903cH
	DW	06867H
	DW	059ebH
	DW	05a9bH
	DW	07d10H
	DW	0767eH
	DW	08b2cH
	DW	04ff5H
	DW	05f6aH
	DW	06a19H
	DW	06c37H
	DW	06f02H
	DW	074e2H
	DW	07968H
	DW	08868H
	DW	08a55H
	DW	08c79H
	DW	05edfH
	DW	063cfH
	DW	075c5H
	DW	079d2H
	DW	082d7H
	DW	09328H
	DW	092f2H
	DW	0849cH
	DW	086edH
	DW	09c2dH
	DW	054c1H
	DW	05f6cH
	DW	0658cH
	DW	06d5cH
	DW	07015H
	DW	08ca7H
	DW	08cd3H
	DW	0983bH
	DW	0654fH
	DW	074f6H
	DW	04e0dH
	DW	04ed8H
	DW	057e0H
	DW	0592bH
	DW	05a66H
	DW	05bccH
	DW	051a8H
	DW	05e03H
	DW	05e9cH
	DW	06016H
	DW	06276H
	DW	06577H
	DW	065a7H
	DW	0666eH
	DW	06d6eH
	DW	07236H
	DW	07b26H
	DW	08150H
	DW	0819aH
	DW	08299H
	DW	08b5cH
	DW	08ca0H
	DW	08ce6H
	DW	08d74H
	DW	0961cH
	DW	09644H
	DW	04faeH
	DW	064abH
	DW	06b66H
	DW	0821eH
	DW	08461H
	DW	0856aH
	DW	090e8H
	DW	05c01H
	DW	06953H
	DW	098a8H
	DW	0847aH
	DW	08557H
	DW	04f0fH
	DW	0526fH
	DW	05fa9H
	DW	05e45H
	DW	0670dH
	DW	0798fH
	DW	08179H
	DW	08907H
	DW	08986H
	DW	06df5H
	DW	05f17H
	DW	06255H
	DW	06cb8H
	DW	04ecfH
	DW	07269H
	DW	09b92H
	DW	05206H
	DW	0543bH
	DW	05674H
	DW	058b3H
	DW	061a4H
	DW	0626eH
	DW	0711aH
	DW	0596eH
	DW	07c89H
	DW	07cdeH
	DW	07d1bH
	DW	096f0H
	DW	06587H
	DW	0805eH
	DW	04e19H
	DW	04f75H
	DW	05175H
	DW	05840H
	DW	05e63H
	DW	05e73H
	DW	05f0aH
	DW	067c4H
	DW	04e26H
	DW	0853dH
	DW	09589H
	DW	0965bH
	DW	07c73H
	DW	09801H
	DW	050fbH
	DW	058c1H
	DW	07656H
	DW	078a7H
	DW	05225H
	DW	077a5H
	DW	08511H
	DW	07b86H
	DW	0504fH
	DW	05909H
	DW	07247H
	DW	07bc7H
	DW	07de8H
	DW	08fbaH
	DW	08fd4H
	DW	0904dH
	DW	04fbfH
	DW	052c9H
	DW	05a29H
	DW	05f01H
	DW	097adH
	DW	04fddH
	DW	08217H
	DW	092eaH
	DW	05703H
	DW	06355H
	DW	06b69H
	DW	0752bH
	DW	088dcH
	DW	08f14H
	DW	07a42H
	DW	052dfH
	DW	05893H
	DW	06155H
	DW	0620aH
	DW	066aeH
	DW	06bcdH
	DW	07c3fH
	DW	083e9H
	DW	05023H
	DW	04ff8H
	DW	05305H
	DW	05446H
	DW	05831H
	DW	05949H
	DW	05b9dH
	DW	05cf0H
	DW	05cefH
	DW	05d29H
	DW	05e96H
	DW	062b1H
	DW	06367H
	DW	0653eH
	DW	065b9H
	DW	0670bH
	DW	06cd5H
	DW	06ce1H
	DW	070f9H
	DW	07832H
	DW	07e2bH
	DW	080deH
	DW	082b3H
	DW	0840cH
	DW	084ecH
	DW	08702H
	DW	08912H
	DW	08a2aH
	DW	08c4aH
	DW	090a6H
	DW	092d2H
	DW	098fdH
	DW	09cf3H
	DW	09d6cH
	DW	04e4fH
	DW	04ea1H
	DW	0508dH
	DW	05256H
	DW	0574aH
	DW	059a8H
	DW	05e3dH
	DW	05fd8H
	DW	05fd9H
	DW	0623fH
	DW	066b4H
	DW	0671bH
	DW	067d0H
	DW	068d2H
	DW	05192H
	DW	07d21H
	DW	080aaH
	DW	081a8H
	DW	08b00H
	DW	08c8cH
	DW	08cbfH
	DW	0927eH
	DW	09632H
	DW	05420H
	DW	0982cH
	DW	05317H
	DW	050d5H
	DW	0535cH
	DW	058a8H
	DW	064b2H
	DW	06734H
	DW	07267H
	DW	07766H
	DW	07a46H
	DW	091e6H
	DW	052c3H
	DW	06ca1H
	DW	06b86H
	DW	05800H
	DW	05e4cH
	DW	05954H
	DW	0672cH
	DW	07ffbH
	DW	051e1H
	DW	076c6H
	DW	06469H
	DW	078e8H
	DW	09b54H
	DW	09ebbH
	DW	057cbH
	DW	059b9H
	DW	06627H
	DW	0679aH
	DW	06bceH
	DW	054e9H
	DW	069d9H
	DW	05e55H
	DW	0819cH
	DW	06795H
	DW	09baaH
	DW	067feH
	DW	09c52H
	DW	0685dH
	DW	04ea6H
	DW	04fe3H
	DW	053c8H
	DW	062b9H
	DW	0672bH
	DW	06cabH
	DW	08fc4H
	DW	04fadH
	DW	07e6dH
	DW	09ebfH
	DW	04e07H
	DW	06162H
	DW	06e80H
	DW	06f2bH
	DW	08513H
	DW	05473H
	DW	0672aH
	DW	09b45H
	DW	05df3H
	DW	07b95H
	DW	05cacH
	DW	05bc6H
	DW	0871cH
	DW	06e4aH
	DW	084d1H
	DW	07a14H
	DW	08108H
	DW	05999H
	DW	07c8dH
	DW	06c11H
	DW	07720H
	DW	052d9H
	DW	05922H
	DW	07121H
	DW	0725fH
	DW	077dbH
	DW	09727H
	DW	09d61H
	DW	0690bH
	DW	05a7fH
	DW	05a18H
	DW	051a5H
	DW	0540dH
	DW	0547dH
	DW	0660eH
	DW	076dfH
	DW	08ff7H
	DW	09298H
	DW	09cf4H
	DW	059eaH
	DW	0725dH
	DW	06ec5H
	DW	0514dH
	DW	068c9H
	DW	07dbfH
	DW	07decH
	DW	09762H
	DW	09ebaH
	DW	06478H
	DW	06a21H
	DW	08302H
	DW	05984H
	DW	05b5fH
	DW	06bdbH
	DW	0731bH
	DW	076f2H
	DW	07db2H
	DW	08017H
	DW	08499H
	DW	05132H
	DW	06728H
	DW	09ed9H
	DW	076eeH
	DW	06762H
	DW	052ffH
	DW	09905H
	DW	05c24H
	DW	0623bH
	DW	07c7eH
	DW	08cb0H
	DW	0554fH
	DW	060b6H
	DW	07d0bH
	DW	09580H
	DW	05301H
	DW	04e5fH
	DW	051b6H
	DW	0591cH
	DW	0723aH
	DW	08036H
	DW	091ceH
	DW	05f25H
	DW	077e2H
	DW	05384H
	DW	05f79H
	DW	07d04H
	DW	085acH
	DW	08a33H
	DW	08e8dH
	DW	09756H
	DW	067f3H
	DW	085aeH
	DW	09453H
	DW	06109H
	DW	06108H
	DW	06cb9H
	DW	07652H
	DW	08aedH
	DW	08f38H
	DW	0552fH
	DW	04f51H
	DW	0512aH
	DW	052c7H
	DW	053cbH
	DW	05ba5H
	DW	05e7dH
	DW	060a0H
	DW	06182H
	DW	063d6H
	DW	06709H
	DW	067daH
	DW	06e67H
	DW	06d8cH
	DW	07336H
	DW	07337H
	DW	07531H
	DW	07950H
	DW	088d5H
	DW	08a98H
	DW	0904aH
	DW	09091H
	DW	090f5H
	DW	096c4H
	DW	0878dH
	DW	05915H
	DW	04e88H
	DW	04f59H
	DW	04e0eH
	DW	08a89H
	DW	08f3fH
	DW	09810H
	DW	050adH
	DW	05e7cH
	DW	05996H
	DW	05bb9H
	DW	05eb8H
	DW	063daH
	DW	063faH
	DW	064c1H
	DW	066dcH
	DW	0694aH
	DW	069d8H
	DW	06d0bH
	DW	06eb6H
	DW	07194H
	DW	07528H
	DW	07aafH
	DW	07f8aH
	DW	08000H
	DW	08449H
	DW	084c9H
	DW	08981H
	DW	08b21H
	DW	08e0aH
	DW	09065H
	DW	0967dH
	DW	0990aH
	DW	0617eH
	DW	06291H
	DW	06b32H
	DW	06c83H
	DW	06d74H
	DW	07fccH
	DW	07ffcH
	DW	06dc0H
	DW	07f85H
	DW	087baH
	DW	088f8H
	DW	06765H
	DW	083b1H
	DW	0983cH
	DW	096f7H
	DW	06d1bH
	DW	07d61H
	DW	0843dH
	DW	0916aH
	DW	04e71H
	DW	05375H
	DW	05d50H
	DW	06b04H
	DW	06febH
	DW	085cdH
	DW	0862dH
	DW	089a7H
	DW	05229H
	DW	0540fH
	DW	05c65H
	DW	0674eH
	DW	068a8H
	DW	07406H
	DW	07483H
	DW	075e2H
	DW	088cfH
	DW	088e1H
	DW	091ccH
	DW	096e2H
	DW	09678H
	DW	05f8bH
	DW	07387H
	DW	07acbH
	DW	0844eH
	DW	063a0H
	DW	07565H
	DW	05289H
	DW	06d41H
	DW	06e9cH
	DW	07409H
	DW	07559H
	DW	0786bH
	DW	07c92H
	DW	09686H
	DW	07adcH
	DW	09f8dH
	DW	04fb6H
	DW	0616eH
	DW	065c5H
	DW	0865cH
	DW	04e86H
	DW	04eaeH
	DW	050daH
	DW	04e21H
	DW	051ccH
	DW	05beeH
	DW	06599H
	DW	06881H
	DW	06dbcH
	DW	0731fH
	DW	07642H
	DW	077adH
	DW	07a1cH
	DW	07ce7H
	DW	0826fH
	DW	08ad2H
	DW	0907cH
	DW	091cfH
	DW	09675H
	DW	09818H
	DW	0529bH
	DW	07dd1H
	DW	0502bH
	DW	05398H
	DW	06797H
	DW	06dcbH
	DW	071d0H
	DW	07433H
	DW	081e8H
	DW	08f2aH
	DW	096a3H
	DW	09c57H
	DW	09e9fH
	DW	07460H
	DW	05841H
	DW	06d99H
	DW	07d2fH
	DW	0985eH
	DW	04ee4H
	DW	04f36H
	DW	04f8bH
	DW	051b7H
	DW	052b1H
	DW	05dbaH
	DW	0601cH
	DW	073b2H
	DW	0793cH
	DW	082d3H
	DW	09234H
	DW	096b7H
	DW	096f6H
	DW	0970aH
	DW	09e97H
	DW	09f62H
	DW	066a6H
	DW	06b74H
	DW	05217H
	DW	052a3H
	DW	070c8H
	DW	088c2H
	DW	05ec9H
	DW	0604bH
	DW	06190H
	DW	06f23H
	DW	07149H
	DW	07c3eH
	DW	07df4H
	DW	0806fH
	DW	084eeH
	DW	09023H
	DW	0932cH
	DW	05442H
	DW	09b6fH
	DW	06ad3H
	DW	07089H
	DW	08cc2H
	DW	08defH
	DW	09732H
	DW	052b4H
	DW	05a41H
	DW	05ecaH
	DW	05f04H
	DW	06717H
	DW	0697cH
	DW	06994H
	DW	06d6aH
	DW	06f0fH
	DW	07262H
	DW	072fcH
	DW	07bedH
	DW	08001H
	DW	0807eH
	DW	0874bH
	DW	090ceH
	DW	0516dH
	DW	09e93H
	DW	07984H
	DW	0808bH
	DW	09332H
	DW	08ad6H
	DW	0502dH
	DW	0548cH
	DW	08a71H
	DW	06b6aH
	DW	08cc4H
	DW	08107H
	DW	060d1H
	DW	067a0H
	DW	09df2H
	DW	04e99H
	DW	04e98H
	DW	09c10H
	DW	08a6bH
	DW	085c1H
	DW	08568H
	DW	06900H
	DW	06e7eH
	DW	07897H
	DW	08155H
	DW	05f0cH
	DW	04e10H
	DW	04e15H
	DW	04e2aH
	DW	04e31H
	DW	04e36H
	DW	04e3cH
	DW	04e3fH
	DW	04e42H
	DW	04e56H
	DW	04e58H
	DW	04e82H
	DW	04e85H
	DW	08c6bH
	DW	04e8aH
	DW	08212H
	DW	05f0dH
	DW	04e8eH
	DW	04e9eH
	DW	04e9fH
	DW	04ea0H
	DW	04ea2H
	DW	04eb0H
	DW	04eb3H
	DW	04eb6H
	DW	04eceH
	DW	04ecdH
	DW	04ec4H
	DW	04ec6H
	DW	04ec2H
	DW	04ed7H
	DW	04edeH
	DW	04eedH
	DW	04edfH
	DW	04ef7H
	DW	04f09H
	DW	04f5aH
	DW	04f30H
	DW	04f5bH
	DW	04f5dH
	DW	04f57H
	DW	04f47H
	DW	04f76H
	DW	04f88H
	DW	04f8fH
	DW	04f98H
	DW	04f7bH
	DW	04f69H
	DW	04f70H
	DW	04f91H
	DW	04f6fH
	DW	04f86H
	DW	04f96H
	DW	05118H
	DW	04fd4H
	DW	04fdfH
	DW	04fceH
	DW	04fd8H
	DW	04fdbH
	DW	04fd1H
	DW	04fdaH
	DW	04fd0H
	DW	04fe4H
	DW	04fe5H
	DW	0501aH
	DW	05028H
	DW	05014H
	DW	0502aH
	DW	05025H
	DW	05005H
	DW	04f1cH
	DW	04ff6H
	DW	05021H
	DW	05029H
	DW	0502cH
	DW	04ffeH
	DW	04fefH
	DW	05011H
	DW	05006H
	DW	05043H
	DW	05047H
	DW	06703H
	DW	05055H
	DW	05050H
	DW	05048H
	DW	0505aH
	DW	05056H
	DW	0506cH
	DW	05078H
	DW	05080H
	DW	0509aH
	DW	05085H
	DW	050b4H
	DW	050b2H
	DW	050c9H
	DW	050caH
	DW	050b3H
	DW	050c2H
	DW	050d6H
	DW	050deH
	DW	050e5H
	DW	050edH
	DW	050e3H
	DW	050eeH
	DW	050f9H
	DW	050f5H
	DW	05109H
	DW	05101H
	DW	05102H
	DW	05116H
	DW	05115H
	DW	05114H
	DW	0511aH
	DW	05121H
	DW	0513aH
	DW	05137H
	DW	0513cH
	DW	0513bH
	DW	0513fH
	DW	05140H
	DW	05152H
	DW	0514cH
	DW	05154H
	DW	05162H
	DW	07af8H
	DW	05169H
	DW	0516aH
	DW	0516eH
	DW	05180H
	DW	05182H
	DW	056d8H
	DW	0518cH
	DW	05189H
	DW	0518fH
	DW	05191H
	DW	05193H
	DW	05195H
	DW	05196H
	DW	051a4H
	DW	051a6H
	DW	051a2H
	DW	051a9H
	DW	051aaH
	DW	051abH
	DW	051b3H
	DW	051b1H
	DW	051b2H
	DW	051b0H
	DW	051b5H
	DW	051bdH
	DW	051c5H
	DW	051c9H
	DW	051dbH
	DW	051e0H
	DW	08655H
	DW	051e9H
	DW	051edH
	DW	051f0H
	DW	051f5H
	DW	051feH
	DW	05204H
	DW	0520bH
	DW	05214H
	DW	0520eH
	DW	05227H
	DW	0522aH
	DW	0522eH
	DW	05233H
	DW	05239H
	DW	0524fH
	DW	05244H
	DW	0524bH
	DW	0524cH
	DW	0525eH
	DW	05254H
	DW	0526aH
	DW	05274H
	DW	05269H
	DW	05273H
	DW	0527fH
	DW	0527dH
	DW	0528dH
	DW	05294H
	DW	05292H
	DW	05271H
	DW	05288H
	DW	05291H
	DW	08fa8H
	DW	08fa7H
	DW	052acH
	DW	052adH
	DW	052bcH
	DW	052b5H
	DW	052c1H
	DW	052cdH
	DW	052d7H
	DW	052deH
	DW	052e3H
	DW	052e6H
	DW	098edH
	DW	052e0H
	DW	052f3H
	DW	052f5H
	DW	052f8H
	DW	052f9H
	DW	05306H
	DW	05308H
	DW	07538H
	DW	0530dH
	DW	05310H
	DW	0530fH
	DW	05315H
	DW	0531aH
	DW	05323H
	DW	0532fH
	DW	05331H
	DW	05333H
	DW	05338H
	DW	05340H
	DW	05346H
	DW	05345H
	DW	04e17H
	DW	05349H
	DW	0534dH
	DW	051d6H
	DW	0535eH
	DW	05369H
	DW	0536eH
	DW	05918H
	DW	0537bH
	DW	05377H
	DW	05382H
	DW	05396H
	DW	053a0H
	DW	053a6H
	DW	053a5H
	DW	053aeH
	DW	053b0H
	DW	053b6H
	DW	053c3H
	DW	07c12H
	DW	096d9H
	DW	053dfH
	DW	066fcH
	DW	071eeH
	DW	053eeH
	DW	053e8H
	DW	053edH
	DW	053faH
	DW	05401H
	DW	0543dH
	DW	05440H
	DW	0542cH
	DW	0542dH
	DW	0543cH
	DW	0542eH
	DW	05436H
	DW	05429H
	DW	0541dH
	DW	0544eH
	DW	0548fH
	DW	05475H
	DW	0548eH
	DW	0545fH
	DW	05471H
	DW	05477H
	DW	05470H
	DW	05492H
	DW	0547bH
	DW	05480H
	DW	05476H
	DW	05484H
	DW	05490H
	DW	05486H
	DW	054c7H
	DW	054a2H
	DW	054b8H
	DW	054a5H
	DW	054acH
	DW	054c4H
	DW	054c8H
	DW	054a8H
	DW	054abH
	DW	054c2H
	DW	054a4H
	DW	054beH
	DW	054bcH
	DW	054d8H
	DW	054e5H
	DW	054e6H
	DW	0550fH
	DW	05514H
	DW	054fdH
	DW	054eeH
	DW	054edH
	DW	054faH
	DW	054e2H
	DW	05539H
	DW	05540H
	DW	05563H
	DW	0554cH
	DW	0552eH
	DW	0555cH
	DW	05545H
	DW	05556H
	DW	05557H
	DW	05538H
	DW	05533H
	DW	0555dH
	DW	05599H
	DW	05580H
	DW	054afH
	DW	0558aH
	DW	0559fH
	DW	0557bH
	DW	0557eH
	DW	05598H
	DW	0559eH
	DW	055aeH
	DW	0557cH
	DW	05583H
	DW	055a9H
	DW	05587H
	DW	055a8H
	DW	055daH
	DW	055c5H
	DW	055dfH
	DW	055c4H
	DW	055dcH
	DW	055e4H
	DW	055d4H
	DW	05614H
	DW	055f7H
	DW	05616H
	DW	055feH
	DW	055fdH
	DW	0561bH
	DW	055f9H
	DW	0564eH
	DW	05650H
	DW	071dfH
	DW	05634H
	DW	05636H
	DW	05632H
	DW	05638H
	DW	0566bH
	DW	05664H
	DW	0562fH
	DW	0566cH
	DW	0566aH
	DW	05686H
	DW	05680H
	DW	0568aH
	DW	056a0H
	DW	05694H
	DW	0568fH
	DW	056a5H
	DW	056aeH
	DW	056b6H
	DW	056b4H
	DW	056c2H
	DW	056bcH
	DW	056c1H
	DW	056c3H
	DW	056c0H
	DW	056c8H
	DW	056ceH
	DW	056d1H
	DW	056d3H
	DW	056d7H
	DW	056eeH
	DW	056f9H
	DW	05700H
	DW	056ffH
	DW	05704H
	DW	05709H
	DW	05708H
	DW	0570bH
	DW	0570dH
	DW	05713H
	DW	05718H
	DW	05716H
	DW	055c7H
	DW	0571cH
	DW	05726H
	DW	05737H
	DW	05738H
	DW	0574eH
	DW	0573bH
	DW	05740H
	DW	0574fH
	DW	05769H
	DW	057c0H
	DW	05788H
	DW	05761H
	DW	0577fH
	DW	05789H
	DW	05793H
	DW	057a0H
	DW	057b3H
	DW	057a4H
	DW	057aaH
	DW	057b0H
	DW	057c3H
	DW	057c6H
	DW	057d4H
	DW	057d2H
	DW	057d3H
	DW	0580aH
	DW	057d6H
	DW	057e3H
	DW	0580bH
	DW	05819H
	DW	0581dH
	DW	05872H
	DW	05821H
	DW	05862H
	DW	0584bH
	DW	05870H
	DW	06bc0H
	DW	05852H
	DW	0583dH
	DW	05879H
	DW	05885H
	DW	058b9H
	DW	0589fH
	DW	058abH
	DW	058baH
	DW	058deH
	DW	058bbH
	DW	058b8H
	DW	058aeH
	DW	058c5H
	DW	058d3H
	DW	058d1H
	DW	058d7H
	DW	058d9H
	DW	058d8H
	DW	058e5H
	DW	058dcH
	DW	058e4H
	DW	058dfH
	DW	058efH
	DW	058faH
	DW	058f9H
	DW	058fbH
	DW	058fcH
	DW	058fdH
	DW	05902H
	DW	0590aH
	DW	05910H
	DW	0591bH
	DW	068a6H
	DW	05925H
	DW	0592cH
	DW	0592dH
	DW	05932H
	DW	05938H
	DW	0593eH
	DW	07ad2H
	DW	05955H
	DW	05950H
	DW	0594eH
	DW	0595aH
	DW	05958H
	DW	05962H
	DW	05960H
	DW	05967H
	DW	0596cH
	DW	05969H
	DW	05978H
	DW	05981H
	DW	0599dH
	DW	04f5eH
	DW	04fabH
	DW	059a3H
	DW	059b2H
	DW	059c6H
	DW	059e8H
	DW	059dcH
	DW	0598dH
	DW	059d9H
	DW	059daH
	DW	05a25H
	DW	05a1fH
	DW	05a11H
	DW	05a1cH
	DW	05a09H
	DW	05a1aH
	DW	05a40H
	DW	05a6cH
	DW	05a49H
	DW	05a35H
	DW	05a36H
	DW	05a62H
	DW	05a6aH
	DW	05a9aH
	DW	05abcH
	DW	05abeH
	DW	05acbH
	DW	05ac2H
	DW	05abdH
	DW	05ae3H
	DW	05ad7H
	DW	05ae6H
	DW	05ae9H
	DW	05ad6H
	DW	05afaH
	DW	05afbH
	DW	05b0cH
	DW	05b0bH
	DW	05b16H
	DW	05b32H
	DW	05ad0H
	DW	05b2aH
	DW	05b36H
	DW	05b3eH
	DW	05b43H
	DW	05b45H
	DW	05b40H
	DW	05b51H
	DW	05b55H
	DW	05b5aH
	DW	05b5bH
	DW	05b65H
	DW	05b69H
	DW	05b70H
	DW	05b73H
	DW	05b75H
	DW	05b78H
	DW	06588H
	DW	05b7aH
	DW	05b80H
	DW	05b83H
	DW	05ba6H
	DW	05bb8H
	DW	05bc3H
	DW	05bc7H
	DW	05bc9H
	DW	05bd4H
	DW	05bd0H
	DW	05be4H
	DW	05be6H
	DW	05be2H
	DW	05bdeH
	DW	05be5H
	DW	05bebH
	DW	05bf0H
	DW	05bf6H
	DW	05bf3H
	DW	05c05H
	DW	05c07H
	DW	05c08H
	DW	05c0dH
	DW	05c13H
	DW	05c20H
	DW	05c22H
	DW	05c28H
	DW	05c38H
	DW	05c39H
	DW	05c41H
	DW	05c46H
	DW	05c4eH
	DW	05c53H
	DW	05c50H
	DW	05c4fH
	DW	05b71H
	DW	05c6cH
	DW	05c6eH
	DW	04e62H
	DW	05c76H
	DW	05c79H
	DW	05c8cH
	DW	05c91H
	DW	05c94H
	DW	0599bH
	DW	05cabH
	DW	05cbbH
	DW	05cb6H
	DW	05cbcH
	DW	05cb7H
	DW	05cc5H
	DW	05cbeH
	DW	05cc7H
	DW	05cd9H
	DW	05ce9H
	DW	05cfdH
	DW	05cfaH
	DW	05cedH
	DW	05d8cH
	DW	05ceaH
	DW	05d0bH
	DW	05d15H
	DW	05d17H
	DW	05d5cH
	DW	05d1fH
	DW	05d1bH
	DW	05d11H
	DW	05d14H
	DW	05d22H
	DW	05d1aH
	DW	05d19H
	DW	05d18H
	DW	05d4cH
	DW	05d52H
	DW	05d4eH
	DW	05d4bH
	DW	05d6cH
	DW	05d73H
	DW	05d76H
	DW	05d87H
	DW	05d84H
	DW	05d82H
	DW	05da2H
	DW	05d9dH
	DW	05dacH
	DW	05daeH
	DW	05dbdH
	DW	05d90H
	DW	05db7H
	DW	05dbcH
	DW	05dc9H
	DW	05dcdH
	DW	05dd3H
	DW	05dd2H
	DW	05dd6H
	DW	05ddbH
	DW	05debH
	DW	05df2H
	DW	05df5H
	DW	05e0bH
	DW	05e1aH
	DW	05e19H
	DW	05e11H
	DW	05e1bH
	DW	05e36H
	DW	05e37H
	DW	05e44H
	DW	05e43H
	DW	05e40H
	DW	05e4eH
	DW	05e57H
	DW	05e54H
	DW	05e5fH
	DW	05e62H
	DW	05e64H
	DW	05e47H
	DW	05e75H
	DW	05e76H
	DW	05e7aH
	DW	09ebcH
	DW	05e7fH
	DW	05ea0H
	DW	05ec1H
	DW	05ec2H
	DW	05ec8H
	DW	05ed0H
	DW	05ecfH
	DW	05ed6H
	DW	05ee3H
	DW	05eddH
	DW	05edaH
	DW	05edbH
	DW	05ee2H
	DW	05ee1H
	DW	05ee8H
	DW	05ee9H
	DW	05eecH
	DW	05ef1H
	DW	05ef3H
	DW	05ef0H
	DW	05ef4H
	DW	05ef8H
	DW	05efeH
	DW	05f03H
	DW	05f09H
	DW	05f5dH
	DW	05f5cH
	DW	05f0bH
	DW	05f11H
	DW	05f16H
	DW	05f29H
	DW	05f2dH
	DW	05f38H
	DW	05f41H
	DW	05f48H
	DW	05f4cH
	DW	05f4eH
	DW	05f2fH
	DW	05f51H
	DW	05f56H
	DW	05f57H
	DW	05f59H
	DW	05f61H
	DW	05f6dH
	DW	05f73H
	DW	05f77H
	DW	05f83H
	DW	05f82H
	DW	05f7fH
	DW	05f8aH
	DW	05f88H
	DW	05f91H
	DW	05f87H
	DW	05f9eH
	DW	05f99H
	DW	05f98H
	DW	05fa0H
	DW	05fa8H
	DW	05fadH
	DW	05fbcH
	DW	05fd6H
	DW	05ffbH
	DW	05fe4H
	DW	05ff8H
	DW	05ff1H
	DW	05fddH
	DW	060b3H
	DW	05fffH
	DW	06021H
	DW	06060H
	DW	06019H
	DW	06010H
	DW	06029H
	DW	0600eH
	DW	06031H
	DW	0601bH
	DW	06015H
	DW	0602bH
	DW	06026H
	DW	0600fH
	DW	0603aH
	DW	0605aH
	DW	06041H
	DW	0606aH
	DW	06077H
	DW	0605fH
	DW	0604aH
	DW	06046H
	DW	0604dH
	DW	06063H
	DW	06043H
	DW	06064H
	DW	06042H
	DW	0606cH
	DW	0606bH
	DW	06059H
	DW	06081H
	DW	0608dH
	DW	060e7H
	DW	06083H
	DW	0609aH
	DW	06084H
	DW	0609bH
	DW	06096H
	DW	06097H
	DW	06092H
	DW	060a7H
	DW	0608bH
	DW	060e1H
	DW	060b8H
	DW	060e0H
	DW	060d3H
	DW	060b4H
	DW	05ff0H
	DW	060bdH
	DW	060c6H
	DW	060b5H
	DW	060d8H
	DW	0614dH
	DW	06115H
	DW	06106H
	DW	060f6H
	DW	060f7H
	DW	06100H
	DW	060f4H
	DW	060faH
	DW	06103H
	DW	06121H
	DW	060fbH
	DW	060f1H
	DW	0610dH
	DW	0610eH
	DW	06147H
	DW	0613eH
	DW	06128H
	DW	06127H
	DW	0614aH
	DW	0613fH
	DW	0613cH
	DW	0612cH
	DW	06134H
	DW	0613dH
	DW	06142H
	DW	06144H
	DW	06173H
	DW	06177H
	DW	06158H
	DW	06159H
	DW	0615aH
	DW	0616bH
	DW	06174H
	DW	0616fH
	DW	06165H
	DW	06171H
	DW	0615fH
	DW	0615dH
	DW	06153H
	DW	06175H
	DW	06199H
	DW	06196H
	DW	06187H
	DW	061acH
	DW	06194H
	DW	0619aH
	DW	0618aH
	DW	06191H
	DW	061abH
	DW	061aeH
	DW	061ccH
	DW	061caH
	DW	061c9H
	DW	061f7H
	DW	061c8H
	DW	061c3H
	DW	061c6H
	DW	061baH
	DW	061cbH
	DW	07f79H
	DW	061cdH
	DW	061e6H
	DW	061e3H
	DW	061f6H
	DW	061faH
	DW	061f4H
	DW	061ffH
	DW	061fdH
	DW	061fcH
	DW	061feH
	DW	06200H
	DW	06208H
	DW	06209H
	DW	0620dH
	DW	0620cH
	DW	06214H
	DW	0621bH
	DW	0621eH
	DW	06221H
	DW	0622aH
	DW	0622eH
	DW	06230H
	DW	06232H
	DW	06233H
	DW	06241H
	DW	0624eH
	DW	0625eH
	DW	06263H
	DW	0625bH
	DW	06260H
	DW	06268H
	DW	0627cH
	DW	06282H
	DW	06289H
	DW	0627eH
	DW	06292H
	DW	06293H
	DW	06296H
	DW	062d4H
	DW	06283H
	DW	06294H
	DW	062d7H
	DW	062d1H
	DW	062bbH
	DW	062cfH
	DW	062ffH
	DW	062c6H
	DW	064d4H
	DW	062c8H
	DW	062dcH
	DW	062ccH
	DW	062caH
	DW	062c2H
	DW	062c7H
	DW	0629bH
	DW	062c9H
	DW	0630cH
	DW	062eeH
	DW	062f1H
	DW	06327H
	DW	06302H
	DW	06308H
	DW	062efH
	DW	062f5H
	DW	06350H
	DW	0633eH
	DW	0634dH
	DW	0641cH
	DW	0634fH
	DW	06396H
	DW	0638eH
	DW	06380H
	DW	063abH
	DW	06376H
	DW	063a3H
	DW	0638fH
	DW	06389H
	DW	0639fH
	DW	063b5H
	DW	0636bH
	DW	06369H
	DW	063beH
	DW	063e9H
	DW	063c0H
	DW	063c6H
	DW	063e3H
	DW	063c9H
	DW	063d2H
	DW	063f6H
	DW	063c4H
	DW	06416H
	DW	06434H
	DW	06406H
	DW	06413H
	DW	06426H
	DW	06436H
	DW	0651dH
	DW	06417H
	DW	06428H
	DW	0640fH
	DW	06467H
	DW	0646fH
	DW	06476H
	DW	0644eH
	DW	0652aH
	DW	06495H
	DW	06493H
	DW	064a5H
	DW	064a9H
	DW	06488H
	DW	064bcH
	DW	064daH
	DW	064d2H
	DW	064c5H
	DW	064c7H
	DW	064bbH
	DW	064d8H
	DW	064c2H
	DW	064f1H
	DW	064e7H
	DW	08209H
	DW	064e0H
	DW	064e1H
	DW	062acH
	DW	064e3H
	DW	064efH
	DW	0652cH
	DW	064f6H
	DW	064f4H
	DW	064f2H
	DW	064faH
	DW	06500H
	DW	064fdH
	DW	06518H
	DW	0651cH
	DW	06505H
	DW	06524H
	DW	06523H
	DW	0652bH
	DW	06534H
	DW	06535H
	DW	06537H
	DW	06536H
	DW	06538H
	DW	0754bH
	DW	06548H
	DW	06556H
	DW	06555H
	DW	0654dH
	DW	06558H
	DW	0655eH
	DW	0655dH
	DW	06572H
	DW	06578H
	DW	06582H
	DW	06583H
	DW	08b8aH
	DW	0659bH
	DW	0659fH
	DW	065abH
	DW	065b7H
	DW	065c3H
	DW	065c6H
	DW	065c1H
	DW	065c4H
	DW	065ccH
	DW	065d2H
	DW	065dbH
	DW	065d9H
	DW	065e0H
	DW	065e1H
	DW	065f1H
	DW	06772H
	DW	0660aH
	DW	06603H
	DW	065fbH
	DW	06773H
	DW	06635H
	DW	06636H
	DW	06634H
	DW	0661cH
	DW	0664fH
	DW	06644H
	DW	06649H
	DW	06641H
	DW	0665eH
	DW	0665dH
	DW	06664H
	DW	06667H
	DW	06668H
	DW	0665fH
	DW	06662H
	DW	06670H
	DW	06683H
	DW	06688H
	DW	0668eH
	DW	06689H
	DW	06684H
	DW	06698H
	DW	0669dH
	DW	066c1H
	DW	066b9H
	DW	066c9H
	DW	066beH
	DW	066bcH
	DW	066c4H
	DW	066b8H
	DW	066d6H
	DW	066daH
	DW	066e0H
	DW	0663fH
	DW	066e6H
	DW	066e9H
	DW	066f0H
	DW	066f5H
	DW	066f7H
	DW	0670fH
	DW	06716H
	DW	0671eH
	DW	06726H
	DW	06727H
	DW	09738H
	DW	0672eH
	DW	0673fH
	DW	06736H
	DW	06741H
	DW	06738H
	DW	06737H
	DW	06746H
	DW	0675eH
	DW	06760H
	DW	06759H
	DW	06763H
	DW	06764H
	DW	06789H
	DW	06770H
	DW	067a9H
	DW	0677cH
	DW	0676aH
	DW	0678cH
	DW	0678bH
	DW	067a6H
	DW	067a1H
	DW	06785H
	DW	067b7H
	DW	067efH
	DW	067b4H
	DW	067ecH
	DW	067b3H
	DW	067e9H
	DW	067b8H
	DW	067e4H
	DW	067deH
	DW	067ddH
	DW	067e2H
	DW	067eeH
	DW	067b9H
	DW	067ceH
	DW	067c6H
	DW	067e7H
	DW	06a9cH
	DW	0681eH
	DW	06846H
	DW	06829H
	DW	06840H
	DW	0684dH
	DW	06832H
	DW	0684eH
	DW	068b3H
	DW	0682bH
	DW	06859H
	DW	06863H
	DW	06877H
	DW	0687fH
	DW	0689fH
	DW	0688fH
	DW	068adH
	DW	06894H
	DW	0689dH
	DW	0689bH
	DW	06883H
	DW	06aaeH
	DW	068b9H
	DW	06874H
	DW	068b5H
	DW	068a0H
	DW	068baH
	DW	0690fH
	DW	0688dH
	DW	0687eH
	DW	06901H
	DW	068caH
	DW	06908H
	DW	068d8H
	DW	06922H
	DW	06926H
	DW	068e1H
	DW	0690cH
	DW	068cdH
	DW	068d4H
	DW	068e7H
	DW	068d5H
	DW	06936H
	DW	06912H
	DW	06904H
	DW	068d7H
	DW	068e3H
	DW	06925H
	DW	068f9H
	DW	068e0H
	DW	068efH
	DW	06928H
	DW	0692aH
	DW	0691aH
	DW	06923H
	DW	06921H
	DW	068c6H
	DW	06979H
	DW	06977H
	DW	0695cH
	DW	06978H
	DW	0696bH
	DW	06954H
	DW	0697eH
	DW	0696eH
	DW	06939H
	DW	06974H
	DW	0693dH
	DW	06959H
	DW	06930H
	DW	06961H
	DW	0695eH
	DW	0695dH
	DW	06981H
	DW	0696aH
	DW	069b2H
	DW	069aeH
	DW	069d0H
	DW	069bfH
	DW	069c1H
	DW	069d3H
	DW	069beH
	DW	069ceH
	DW	05be8H
	DW	069caH
	DW	069ddH
	DW	069bbH
	DW	069c3H
	DW	069a7H
	DW	06a2eH
	DW	06991H
	DW	069a0H
	DW	0699cH
	DW	06995H
	DW	069b4H
	DW	069deH
	DW	069e8H
	DW	06a02H
	DW	06a1bH
	DW	069ffH
	DW	06b0aH
	DW	069f9H
	DW	069f2H
	DW	069e7H
	DW	06a05H
	DW	069b1H
	DW	06a1eH
	DW	069edH
	DW	06a14H
	DW	069ebH
	DW	06a0aH
	DW	06a12H
	DW	06ac1H
	DW	06a23H
	DW	06a13H
	DW	06a44H
	DW	06a0cH
	DW	06a72H
	DW	06a36H
	DW	06a78H
	DW	06a47H
	DW	06a62H
	DW	06a59H
	DW	06a66H
	DW	06a48H
	DW	06a38H
	DW	06a22H
	DW	06a90H
	DW	06a8dH
	DW	06aa0H
	DW	06a84H
	DW	06aa2H
	DW	06aa3H
	DW	06a97H
	DW	08617H
	DW	06abbH
	DW	06ac3H
	DW	06ac2H
	DW	06ab8H
	DW	06ab3H
	DW	06aacH
	DW	06adeH
	DW	06ad1H
	DW	06adfH
	DW	06aaaH
	DW	06adaH
	DW	06aeaH
	DW	06afbH
	DW	06b05H
	DW	08616H
	DW	06afaH
	DW	06b12H
	DW	06b16H
	DW	09b31H
	DW	06b1fH
	DW	06b38H
	DW	06b37H
	DW	076dcH
	DW	06b39H
	DW	098eeH
	DW	06b47H
	DW	06b43H
	DW	06b49H
	DW	06b50H
	DW	06b59H
	DW	06b54H
	DW	06b5bH
	DW	06b5fH
	DW	06b61H
	DW	06b78H
	DW	06b79H
	DW	06b7fH
	DW	06b80H
	DW	06b84H
	DW	06b83H
	DW	06b8dH
	DW	06b98H
	DW	06b95H
	DW	06b9eH
	DW	06ba4H
	DW	06baaH
	DW	06babH
	DW	06bafH
	DW	06bb2H
	DW	06bb1H
	DW	06bb3H
	DW	06bb7H
	DW	06bbcH
	DW	06bc6H
	DW	06bcbH
	DW	06bd3H
	DW	06bdfH
	DW	06becH
	DW	06bebH
	DW	06bf3H
	DW	06befH
	DW	09ebeH
	DW	06c08H
	DW	06c13H
	DW	06c14H
	DW	06c1bH
	DW	06c24H
	DW	06c23H
	DW	06c5eH
	DW	06c55H
	DW	06c62H
	DW	06c6aH
	DW	06c82H
	DW	06c8dH
	DW	06c9aH
	DW	06c81H
	DW	06c9bH
	DW	06c7eH
	DW	06c68H
	DW	06c73H
	DW	06c92H
	DW	06c90H
	DW	06cc4H
	DW	06cf1H
	DW	06cd3H
	DW	06cbdH
	DW	06cd7H
	DW	06cc5H
	DW	06cddH
	DW	06caeH
	DW	06cb1H
	DW	06cbeH
	DW	06cbaH
	DW	06cdbH
	DW	06cefH
	DW	06cd9H
	DW	06ceaH
	DW	06d1fH
	DW	0884dH
	DW	06d36H
	DW	06d2bH
	DW	06d3dH
	DW	06d38H
	DW	06d19H
	DW	06d35H
	DW	06d33H
	DW	06d12H
	DW	06d0cH
	DW	06d63H
	DW	06d93H
	DW	06d64H
	DW	06d5aH
	DW	06d79H
	DW	06d59H
	DW	06d8eH
	DW	06d95H
	DW	06fe4H
	DW	06d85H
	DW	06df9H
	DW	06e15H
	DW	06e0aH
	DW	06db5H
	DW	06dc7H
	DW	06de6H
	DW	06db8H
	DW	06dc6H
	DW	06decH
	DW	06ddeH
	DW	06dccH
	DW	06de8H
	DW	06dd2H
	DW	06dc5H
	DW	06dfaH
	DW	06dd9H
	DW	06de4H
	DW	06dd5H
	DW	06deaH
	DW	06deeH
	DW	06e2dH
	DW	06e6eH
	DW	06e2eH
	DW	06e19H
	DW	06e72H
	DW	06e5fH
	DW	06e3eH
	DW	06e23H
	DW	06e6bH
	DW	06e2bH
	DW	06e76H
	DW	06e4dH
	DW	06e1fH
	DW	06e43H
	DW	06e3aH
	DW	06e4eH
	DW	06e24H
	DW	06effH
	DW	06e1dH
	DW	06e38H
	DW	06e82H
	DW	06eaaH
	DW	06e98H
	DW	06ec9H
	DW	06eb7H
	DW	06ed3H
	DW	06ebdH
	DW	06eafH
	DW	06ec4H
	DW	06eb2H
	DW	06ed4H
	DW	06ed5H
	DW	06e8fH
	DW	06ea5H
	DW	06ec2H
	DW	06e9fH
	DW	06f41H
	DW	06f11H
	DW	0704cH
	DW	06eecH
	DW	06ef8H
	DW	06efeH
	DW	06f3fH
	DW	06ef2H
	DW	06f31H
	DW	06eefH
	DW	06f32H
	DW	06eccH
	DW	06f3eH
	DW	06f13H
	DW	06ef7H
	DW	06f86H
	DW	06f7aH
	DW	06f78H
	DW	06f81H
	DW	06f80H
	DW	06f6fH
	DW	06f5bH
	DW	06ff3H
	DW	06f6dH
	DW	06f82H
	DW	06f7cH
	DW	06f58H
	DW	06f8eH
	DW	06f91H
	DW	06fc2H
	DW	06f66H
	DW	06fb3H
	DW	06fa3H
	DW	06fa1H
	DW	06fa4H
	DW	06fb9H
	DW	06fc6H
	DW	06faaH
	DW	06fdfH
	DW	06fd5H
	DW	06fecH
	DW	06fd4H
	DW	06fd8H
	DW	06ff1H
	DW	06feeH
	DW	06fdbH
	DW	07009H
	DW	0700bH
	DW	06ffaH
	DW	07011H
	DW	07001H
	DW	0700fH
	DW	06ffeH
	DW	0701bH
	DW	0701aH
	DW	06f74H
	DW	0701dH
	DW	07018H
	DW	0701fH
	DW	07030H
	DW	0703eH
	DW	07032H
	DW	07051H
	DW	07063H
	DW	07099H
	DW	07092H
	DW	070afH
	DW	070f1H
	DW	070acH
	DW	070b8H
	DW	070b3H
	DW	070aeH
	DW	070dfH
	DW	070cbH
	DW	070ddH
	DW	070d9H
	DW	07109H
	DW	070fdH
	DW	0711cH
	DW	07119H
	DW	07165H
	DW	07155H
	DW	07188H
	DW	07166H
	DW	07162H
	DW	0714cH
	DW	07156H
	DW	0716cH
	DW	0718fH
	DW	071fbH
	DW	07184H
	DW	07195H
	DW	071a8H
	DW	071acH
	DW	071d7H
	DW	071b9H
	DW	071beH
	DW	071d2H
	DW	071c9H
	DW	071d4H
	DW	071ceH
	DW	071e0H
	DW	071ecH
	DW	071e7H
	DW	071f5H
	DW	071fcH
	DW	071f9H
	DW	071ffH
	DW	0720dH
	DW	07210H
	DW	0721bH
	DW	07228H
	DW	0722dH
	DW	0722cH
	DW	07230H
	DW	07232H
	DW	0723bH
	DW	0723cH
	DW	0723fH
	DW	07240H
	DW	07246H
	DW	0724bH
	DW	07258H
	DW	07274H
	DW	0727eH
	DW	07282H
	DW	07281H
	DW	07287H
	DW	07292H
	DW	07296H
	DW	072a2H
	DW	072a7H
	DW	072b9H
	DW	072b2H
	DW	072c3H
	DW	072c6H
	DW	072c4H
	DW	072ceH
	DW	072d2H
	DW	072e2H
	DW	072e0H
	DW	072e1H
	DW	072f9H
	DW	072f7H
	DW	0500fH
	DW	07317H
	DW	0730aH
	DW	0731cH
	DW	07316H
	DW	0731dH
	DW	07334H
	DW	0732fH
	DW	07329H
	DW	07325H
	DW	0733eH
	DW	0734eH
	DW	0734fH
	DW	09ed8H
	DW	07357H
	DW	0736aH
	DW	07368H
	DW	07370H
	DW	07378H
	DW	07375H
	DW	0737bH
	DW	0737aH
	DW	073c8H
	DW	073b3H
	DW	073ceH
	DW	073bbH
	DW	073c0H
	DW	073e5H
	DW	073eeH
	DW	073deH
	DW	074a2H
	DW	07405H
	DW	0746fH
	DW	07425H
	DW	073f8H
	DW	07432H
	DW	0743aH
	DW	07455H
	DW	0743fH
	DW	0745fH
	DW	07459H
	DW	07441H
	DW	0745cH
	DW	07469H
	DW	07470H
	DW	07463H
	DW	0746aH
	DW	07476H
	DW	0747eH
	DW	0748bH
	DW	0749eH
	DW	074a7H
	DW	074caH
	DW	074cfH
	DW	074d4H
	DW	073f1H
	DW	074e0H
	DW	074e3H
	DW	074e7H
	DW	074e9H
	DW	074eeH
	DW	074f2H
	DW	074f0H
	DW	074f1H
	DW	074f8H
	DW	074f7H
	DW	07504H
	DW	07503H
	DW	07505H
	DW	0750cH
	DW	0750eH
	DW	0750dH
	DW	07515H
	DW	07513H
	DW	0751eH
	DW	07526H
	DW	0752cH
	DW	0753cH
	DW	07544H
	DW	0754dH
	DW	0754aH
	DW	07549H
	DW	0755bH
	DW	07546H
	DW	0755aH
	DW	07569H
	DW	07564H
	DW	07567H
	DW	0756bH
	DW	0756dH
	DW	07578H
	DW	07576H
	DW	07586H
	DW	07587H
	DW	07574H
	DW	0758aH
	DW	07589H
	DW	07582H
	DW	07594H
	DW	0759aH
	DW	0759dH
	DW	075a5H
	DW	075a3H
	DW	075c2H
	DW	075b3H
	DW	075c3H
	DW	075b5H
	DW	075bdH
	DW	075b8H
	DW	075bcH
	DW	075b1H
	DW	075cdH
	DW	075caH
	DW	075d2H
	DW	075d9H
	DW	075e3H
	DW	075deH
	DW	075feH
	DW	075ffH
	DW	075fcH
	DW	07601H
	DW	075f0H
	DW	075faH
	DW	075f2H
	DW	075f3H
	DW	0760bH
	DW	0760dH
	DW	07609H
	DW	0761fH
	DW	07627H
	DW	07620H
	DW	07621H
	DW	07622H
	DW	07624H
	DW	07634H
	DW	07630H
	DW	0763bH
	DW	07647H
	DW	07648H
	DW	07646H
	DW	0765cH
	DW	07658H
	DW	07661H
	DW	07662H
	DW	07668H
	DW	07669H
	DW	0766aH
	DW	07667H
	DW	0766cH
	DW	07670H
	DW	07672H
	DW	07676H
	DW	07678H
	DW	0767cH
	DW	07680H
	DW	07683H
	DW	07688H
	DW	0768bH
	DW	0768eH
	DW	07696H
	DW	07693H
	DW	07699H
	DW	0769aH
	DW	076b0H
	DW	076b4H
	DW	076b8H
	DW	076b9H
	DW	076baH
	DW	076c2H
	DW	076cdH
	DW	076d6H
	DW	076d2H
	DW	076deH
	DW	076e1H
	DW	076e5H
	DW	076e7H
	DW	076eaH
	DW	0862fH
	DW	076fbH
	DW	07708H
	DW	07707H
	DW	07704H
	DW	07729H
	DW	07724H
	DW	0771eH
	DW	07725H
	DW	07726H
	DW	0771bH
	DW	07737H
	DW	07738H
	DW	07747H
	DW	0775aH
	DW	07768H
	DW	0776bH
	DW	0775bH
	DW	07765H
	DW	0777fH
	DW	0777eH
	DW	07779H
	DW	0778eH
	DW	0778bH
	DW	07791H
	DW	077a0H
	DW	0779eH
	DW	077b0H
	DW	077b6H
	DW	077b9H
	DW	077bfH
	DW	077bcH
	DW	077bdH
	DW	077bbH
	DW	077c7H
	DW	077cdH
	DW	077d7H
	DW	077daH
	DW	077dcH
	DW	077e3H
	DW	077eeH
	DW	077fcH
	DW	0780cH
	DW	07812H
	DW	07926H
	DW	07820H
	DW	0792aH
	DW	07845H
	DW	0788eH
	DW	07874H
	DW	07886H
	DW	0787cH
	DW	0789aH
	DW	0788cH
	DW	078a3H
	DW	078b5H
	DW	078aaH
	DW	078afH
	DW	078d1H
	DW	078c6H
	DW	078cbH
	DW	078d4H
	DW	078beH
	DW	078bcH
	DW	078c5H
	DW	078caH
	DW	078ecH
	DW	078e7H
	DW	078daH
	DW	078fdH
	DW	078f4H
	DW	07907H
	DW	07912H
	DW	07911H
	DW	07919H
	DW	0792cH
	DW	0792bH
	DW	07940H
	DW	07960H
	DW	07957H
	DW	0795fH
	DW	0795aH
	DW	07955H
	DW	07953H
	DW	0797aH
	DW	0797fH
	DW	0798aH
	DW	0799dH
	DW	079a7H
	DW	09f4bH
	DW	079aaH
	DW	079aeH
	DW	079b3H
	DW	079b9H
	DW	079baH
	DW	079c9H
	DW	079d5H
	DW	079e7H
	DW	079ecH
	DW	079e1H
	DW	079e3H
	DW	07a08H
	DW	07a0dH
	DW	07a18H
	DW	07a19H
	DW	07a20H
	DW	07a1fH
	DW	07980H
	DW	07a31H
	DW	07a3bH
	DW	07a3eH
	DW	07a37H
	DW	07a43H
	DW	07a57H
	DW	07a49H
	DW	07a61H
	DW	07a62H
	DW	07a69H
	DW	09f9dH
	DW	07a70H
	DW	07a79H
	DW	07a7dH
	DW	07a88H
	DW	07a97H
	DW	07a95H
	DW	07a98H
	DW	07a96H
	DW	07aa9H
	DW	07ac8H
	DW	07ab0H
	DW	07ab6H
	DW	07ac5H
	DW	07ac4H
	DW	07abfH
	DW	09083H
	DW	07ac7H
	DW	07acaH
	DW	07acdH
	DW	07acfH
	DW	07ad5H
	DW	07ad3H
	DW	07ad9H
	DW	07adaH
	DW	07addH
	DW	07ae1H
	DW	07ae2H
	DW	07ae6H
	DW	07aedH
	DW	07af0H
	DW	07b02H
	DW	07b0fH
	DW	07b0aH
	DW	07b06H
	DW	07b33H
	DW	07b18H
	DW	07b19H
	DW	07b1eH
	DW	07b35H
	DW	07b28H
	DW	07b36H
	DW	07b50H
	DW	07b7aH
	DW	07b04H
	DW	07b4dH
	DW	07b0bH
	DW	07b4cH
	DW	07b45H
	DW	07b75H
	DW	07b65H
	DW	07b74H
	DW	07b67H
	DW	07b70H
	DW	07b71H
	DW	07b6cH
	DW	07b6eH
	DW	07b9dH
	DW	07b98H
	DW	07b9fH
	DW	07b8dH
	DW	07b9cH
	DW	07b9aH
	DW	07b8bH
	DW	07b92H
	DW	07b8fH
	DW	07b5dH
	DW	07b99H
	DW	07bcbH
	DW	07bc1H
	DW	07bccH
	DW	07bcfH
	DW	07bb4H
	DW	07bc6H
	DW	07bddH
	DW	07be9H
	DW	07c11H
	DW	07c14H
	DW	07be6H
	DW	07be5H
	DW	07c60H
	DW	07c00H
	DW	07c07H
	DW	07c13H
	DW	07bf3H
	DW	07bf7H
	DW	07c17H
	DW	07c0dH
	DW	07bf6H
	DW	07c23H
	DW	07c27H
	DW	07c2aH
	DW	07c1fH
	DW	07c37H
	DW	07c2bH
	DW	07c3dH
	DW	07c4cH
	DW	07c43H
	DW	07c54H
	DW	07c4fH
	DW	07c40H
	DW	07c50H
	DW	07c58H
	DW	07c5fH
	DW	07c64H
	DW	07c56H
	DW	07c65H
	DW	07c6cH
	DW	07c75H
	DW	07c83H
	DW	07c90H
	DW	07ca4H
	DW	07cadH
	DW	07ca2H
	DW	07cabH
	DW	07ca1H
	DW	07ca8H
	DW	07cb3H
	DW	07cb2H
	DW	07cb1H
	DW	07caeH
	DW	07cb9H
	DW	07cbdH
	DW	07cc0H
	DW	07cc5H
	DW	07cc2H
	DW	07cd8H
	DW	07cd2H
	DW	07cdcH
	DW	07ce2H
	DW	09b3bH
	DW	07cefH
	DW	07cf2H
	DW	07cf4H
	DW	07cf6H
	DW	07cfaH
	DW	07d06H
	DW	07d02H
	DW	07d1cH
	DW	07d15H
	DW	07d0aH
	DW	07d45H
	DW	07d4bH
	DW	07d2eH
	DW	07d32H
	DW	07d3fH
	DW	07d35H
	DW	07d46H
	DW	07d73H
	DW	07d56H
	DW	07d4eH
	DW	07d72H
	DW	07d68H
	DW	07d6eH
	DW	07d4fH
	DW	07d63H
	DW	07d93H
	DW	07d89H
	DW	07d5bH
	DW	07d8fH
	DW	07d7dH
	DW	07d9bH
	DW	07dbaH
	DW	07daeH
	DW	07da3H
	DW	07db5H
	DW	07dc7H
	DW	07dbdH
	DW	07dabH
	DW	07e3dH
	DW	07da2H
	DW	07dafH
	DW	07ddcH
	DW	07db8H
	DW	07d9fH
	DW	07db0H
	DW	07dd8H
	DW	07dddH
	DW	07de4H
	DW	07ddeH
	DW	07dfbH
	DW	07df2H
	DW	07de1H
	DW	07e05H
	DW	07e0aH
	DW	07e23H
	DW	07e21H
	DW	07e12H
	DW	07e31H
	DW	07e1fH
	DW	07e09H
	DW	07e0bH
	DW	07e22H
	DW	07e46H
	DW	07e66H
	DW	07e3bH
	DW	07e35H
	DW	07e39H
	DW	07e43H
	DW	07e37H
	DW	07e32H
	DW	07e3aH
	DW	07e67H
	DW	07e5dH
	DW	07e56H
	DW	07e5eH
	DW	07e59H
	DW	07e5aH
	DW	07e79H
	DW	07e6aH
	DW	07e69H
	DW	07e7cH
	DW	07e7bH
	DW	07e83H
	DW	07dd5H
	DW	07e7dH
	DW	08faeH
	DW	07e7fH
	DW	07e88H
	DW	07e89H
	DW	07e8cH
	DW	07e92H
	DW	07e90H
	DW	07e93H
	DW	07e94H
	DW	07e96H
	DW	07e8eH
	DW	07e9bH
	DW	07e9cH
	DW	07f38H
	DW	07f3aH
	DW	07f45H
	DW	07f4cH
	DW	07f4dH
	DW	07f4eH
	DW	07f50H
	DW	07f51H
	DW	07f55H
	DW	07f54H
	DW	07f58H
	DW	07f5fH
	DW	07f60H
	DW	07f68H
	DW	07f69H
	DW	07f67H
	DW	07f78H
	DW	07f82H
	DW	07f86H
	DW	07f83H
	DW	07f88H
	DW	07f87H
	DW	07f8cH
	DW	07f94H
	DW	07f9eH
	DW	07f9dH
	DW	07f9aH
	DW	07fa3H
	DW	07fafH
	DW	07fb2H
	DW	07fb9H
	DW	07faeH
	DW	07fb6H
	DW	07fb8H
	DW	08b71H
	DW	07fc5H
	DW	07fc6H
	DW	07fcaH
	DW	07fd5H
	DW	07fd4H
	DW	07fe1H
	DW	07fe6H
	DW	07fe9H
	DW	07ff3H
	DW	07ff9H
	DW	098dcH
	DW	08006H
	DW	08004H
	DW	0800bH
	DW	08012H
	DW	08018H
	DW	08019H
	DW	0801cH
	DW	08021H
	DW	08028H
	DW	0803fH
	DW	0803bH
	DW	0804aH
	DW	08046H
	DW	08052H
	DW	08058H
	DW	0805aH
	DW	0805fH
	DW	08062H
	DW	08068H
	DW	08073H
	DW	08072H
	DW	08070H
	DW	08076H
	DW	08079H
	DW	0807dH
	DW	0807fH
	DW	08084H
	DW	08086H
	DW	08085H
	DW	0809bH
	DW	08093H
	DW	0809aH
	DW	080adH
	DW	05190H
	DW	080acH
	DW	080dbH
	DW	080e5H
	DW	080d9H
	DW	080ddH
	DW	080c4H
	DW	080daH
	DW	080d6H
	DW	08109H
	DW	080efH
	DW	080f1H
	DW	0811bH
	DW	08129H
	DW	08123H
	DW	0812fH
	DW	0814bH
	DW	0968bH
	DW	08146H
	DW	0813eH
	DW	08153H
	DW	08151H
	DW	080fcH
	DW	08171H
	DW	0816eH
	DW	08165H
	DW	08166H
	DW	08174H
	DW	08183H
	DW	08188H
	DW	0818aH
	DW	08180H
	DW	08182H
	DW	081a0H
	DW	08195H
	DW	081a4H
	DW	081a3H
	DW	0815fH
	DW	08193H
	DW	081a9H
	DW	081b0H
	DW	081b5H
	DW	081beH
	DW	081b8H
	DW	081bdH
	DW	081c0H
	DW	081c2H
	DW	081baH
	DW	081c9H
	DW	081cdH
	DW	081d1H
	DW	081d9H
	DW	081d8H
	DW	081c8H
	DW	081daH
	DW	081dfH
	DW	081e0H
	DW	081e7H
	DW	081faH
	DW	081fbH
	DW	081feH
	DW	08201H
	DW	08202H
	DW	08205H
	DW	08207H
	DW	0820aH
	DW	0820dH
	DW	08210H
	DW	08216H
	DW	08229H
	DW	0822bH
	DW	08238H
	DW	08233H
	DW	08240H
	DW	08259H
	DW	08258H
	DW	0825dH
	DW	0825aH
	DW	0825fH
	DW	08264H
	DW	08262H
	DW	08268H
	DW	0826aH
	DW	0826bH
	DW	0822eH
	DW	08271H
	DW	08277H
	DW	08278H
	DW	0827eH
	DW	0828dH
	DW	08292H
	DW	082abH
	DW	0829fH
	DW	082bbH
	DW	082acH
	DW	082e1H
	DW	082e3H
	DW	082dfH
	DW	082d2H
	DW	082f4H
	DW	082f3H
	DW	082faH
	DW	08393H
	DW	08303H
	DW	082fbH
	DW	082f9H
	DW	082deH
	DW	08306H
	DW	082dcH
	DW	08309H
	DW	082d9H
	DW	08335H
	DW	08334H
	DW	08316H
	DW	08332H
	DW	08331H
	DW	08340H
	DW	08339H
	DW	08350H
	DW	08345H
	DW	0832fH
	DW	0832bH
	DW	08317H
	DW	08318H
	DW	08385H
	DW	0839aH
	DW	083aaH
	DW	0839fH
	DW	083a2H
	DW	08396H
	DW	08323H
	DW	0838eH
	DW	08387H
	DW	0838aH
	DW	0837cH
	DW	083b5H
	DW	08373H
	DW	08375H
	DW	083a0H
	DW	08389H
	DW	083a8H
	DW	083f4H
	DW	08413H
	DW	083ebH
	DW	083ceH
	DW	083fdH
	DW	08403H
	DW	083d8H
	DW	0840bH
	DW	083c1H
	DW	083f7H
	DW	08407H
	DW	083e0H
	DW	083f2H
	DW	0840dH
	DW	08422H
	DW	08420H
	DW	083bdH
	DW	08438H
	DW	08506H
	DW	083fbH
	DW	0846dH
	DW	0842aH
	DW	0843cH
	DW	0855aH
	DW	08484H
	DW	08477H
	DW	0846bH
	DW	084adH
	DW	0846eH
	DW	08482H
	DW	08469H
	DW	08446H
	DW	0842cH
	DW	0846fH
	DW	08479H
	DW	08435H
	DW	084caH
	DW	08462H
	DW	084b9H
	DW	084bfH
	DW	0849fH
	DW	084d9H
	DW	084cdH
	DW	084bbH
	DW	084daH
	DW	084d0H
	DW	084c1H
	DW	084c6H
	DW	084d6H
	DW	084a1H
	DW	08521H
	DW	084ffH
	DW	084f4H
	DW	08517H
	DW	08518H
	DW	0852cH
	DW	0851fH
	DW	08515H
	DW	08514H
	DW	084fcH
	DW	08540H
	DW	08563H
	DW	08558H
	DW	08548H
	DW	08541H
	DW	08602H
	DW	0854bH
	DW	08555H
	DW	08580H
	DW	085a4H
	DW	08588H
	DW	08591H
	DW	0858aH
	DW	085a8H
	DW	0856dH
	DW	08594H
	DW	0859bH
	DW	085eaH
	DW	08587H
	DW	0859cH
	DW	08577H
	DW	0857eH
	DW	08590H
	DW	085c9H
	DW	085baH
	DW	085cfH
	DW	085b9H
	DW	085d0H
	DW	085d5H
	DW	085ddH
	DW	085e5H
	DW	085dcH
	DW	085f9H
	DW	0860aH
	DW	08613H
	DW	0860bH
	DW	085feH
	DW	085faH
	DW	08606H
	DW	08622H
	DW	0861aH
	DW	08630H
	DW	0863fH
	DW	0864dH
	DW	04e55H
	DW	08654H
	DW	0865fH
	DW	08667H
	DW	08671H
	DW	08693H
	DW	086a3H
	DW	086a9H
	DW	086aaH
	DW	0868bH
	DW	0868cH
	DW	086b6H
	DW	086afH
	DW	086c4H
	DW	086c6H
	DW	086b0H
	DW	086c9H
	DW	08823H
	DW	086abH
	DW	086d4H
	DW	086deH
	DW	086e9H
	DW	086ecH
	DW	086dfH
	DW	086dbH
	DW	086efH
	DW	08712H
	DW	08706H
	DW	08708H
	DW	08700H
	DW	08703H
	DW	086fbH
	DW	08711H
	DW	08709H
	DW	0870dH
	DW	086f9H
	DW	0870aH
	DW	08734H
	DW	0873fH
	DW	08737H
	DW	0873bH
	DW	08725H
	DW	08729H
	DW	0871aH
	DW	08760H
	DW	0875fH
	DW	08778H
	DW	0874cH
	DW	0874eH
	DW	08774H
	DW	08757H
	DW	08768H
	DW	0876eH
	DW	08759H
	DW	08753H
	DW	08763H
	DW	0876aH
	DW	08805H
	DW	087a2H
	DW	0879fH
	DW	08782H
	DW	087afH
	DW	087cbH
	DW	087bdH
	DW	087c0H
	DW	087d0H
	DW	096d6H
	DW	087abH
	DW	087c4H
	DW	087b3H
	DW	087c7H
	DW	087c6H
	DW	087bbH
	DW	087efH
	DW	087f2H
	DW	087e0H
	DW	0880fH
	DW	0880dH
	DW	087feH
	DW	087f6H
	DW	087f7H
	DW	0880eH
	DW	087d2H
	DW	08811H
	DW	08816H
	DW	08815H
	DW	08822H
	DW	08821H
	DW	08831H
	DW	08836H
	DW	08839H
	DW	08827H
	DW	0883bH
	DW	08844H
	DW	08842H
	DW	08852H
	DW	08859H
	DW	0885eH
	DW	08862H
	DW	0886bH
	DW	08881H
	DW	0887eH
	DW	0889eH
	DW	08875H
	DW	0887dH
	DW	088b5H
	DW	08872H
	DW	08882H
	DW	08897H
	DW	08892H
	DW	088aeH
	DW	08899H
	DW	088a2H
	DW	0888dH
	DW	088a4H
	DW	088b0H
	DW	088bfH
	DW	088b1H
	DW	088c3H
	DW	088c4H
	DW	088d4H
	DW	088d8H
	DW	088d9H
	DW	088ddH
	DW	088f9H
	DW	08902H
	DW	088fcH
	DW	088f4H
	DW	088e8H
	DW	088f2H
	DW	08904H
	DW	0890cH
	DW	0890aH
	DW	08913H
	DW	08943H
	DW	0891eH
	DW	08925H
	DW	0892aH
	DW	0892bH
	DW	08941H
	DW	08944H
	DW	0893bH
	DW	08936H
	DW	08938H
	DW	0894cH
	DW	0891dH
	DW	08960H
	DW	0895eH
	DW	08966H
	DW	08964H
	DW	0896dH
	DW	0896aH
	DW	0896fH
	DW	08974H
	DW	08977H
	DW	0897eH
	DW	08983H
	DW	08988H
	DW	0898aH
	DW	08993H
	DW	08998H
	DW	089a1H
	DW	089a9H
	DW	089a6H
	DW	089acH
	DW	089afH
	DW	089b2H
	DW	089baH
	DW	089bdH
	DW	089bfH
	DW	089c0H
	DW	089daH
	DW	089dcH
	DW	089ddH
	DW	089e7H
	DW	089f4H
	DW	089f8H
	DW	08a03H
	DW	08a16H
	DW	08a10H
	DW	08a0cH
	DW	08a1bH
	DW	08a1dH
	DW	08a25H
	DW	08a36H
	DW	08a41H
	DW	08a5bH
	DW	08a52H
	DW	08a46H
	DW	08a48H
	DW	08a7cH
	DW	08a6dH
	DW	08a6cH
	DW	08a62H
	DW	08a85H
	DW	08a82H
	DW	08a84H
	DW	08aa8H
	DW	08aa1H
	DW	08a91H
	DW	08aa5H
	DW	08aa6H
	DW	08a9aH
	DW	08aa3H
	DW	08ac4H
	DW	08acdH
	DW	08ac2H
	DW	08adaH
	DW	08aebH
	DW	08af3H
	DW	08ae7H
	DW	08ae4H
	DW	08af1H
	DW	08b14H
	DW	08ae0H
	DW	08ae2H
	DW	08af7H
	DW	08adeH
	DW	08adbH
	DW	08b0cH
	DW	08b07H
	DW	08b1aH
	DW	08ae1H
	DW	08b16H
	DW	08b10H
	DW	08b17H
	DW	08b20H
	DW	08b33H
	DW	097abH
	DW	08b26H
	DW	08b2bH
	DW	08b3eH
	DW	08b28H
	DW	08b41H
	DW	08b4cH
	DW	08b4fH
	DW	08b4eH
	DW	08b49H
	DW	08b56H
	DW	08b5bH
	DW	08b5aH
	DW	08b6bH
	DW	08b5fH
	DW	08b6cH
	DW	08b6fH
	DW	08b74H
	DW	08b7dH
	DW	08b80H
	DW	08b8cH
	DW	08b8eH
	DW	08b92H
	DW	08b93H
	DW	08b96H
	DW	08b99H
	DW	08b9aH
	DW	08c3aH
	DW	08c41H
	DW	08c3fH
	DW	08c48H
	DW	08c4cH
	DW	08c4eH
	DW	08c50H
	DW	08c55H
	DW	08c62H
	DW	08c6cH
	DW	08c78H
	DW	08c7aH
	DW	08c82H
	DW	08c89H
	DW	08c85H
	DW	08c8aH
	DW	08c8dH
	DW	08c8eH
	DW	08c94H
	DW	08c7cH
	DW	08c98H
	DW	0621dH
	DW	08cadH
	DW	08caaH
	DW	08cbdH
	DW	08cb2H
	DW	08cb3H
	DW	08caeH
	DW	08cb6H
	DW	08cc8H
	DW	08cc1H
	DW	08ce4H
	DW	08ce3H
	DW	08cdaH
	DW	08cfdH
	DW	08cfaH
	DW	08cfbH
	DW	08d04H
	DW	08d05H
	DW	08d0aH
	DW	08d07H
	DW	08d0fH
	DW	08d0dH
	DW	08d10H
	DW	09f4eH
	DW	08d13H
	DW	08ccdH
	DW	08d14H
	DW	08d16H
	DW	08d67H
	DW	08d6dH
	DW	08d71H
	DW	08d73H
	DW	08d81H
	DW	08d99H
	DW	08dc2H
	DW	08dbeH
	DW	08dbaH
	DW	08dcfH
	DW	08ddaH
	DW	08dd6H
	DW	08dccH
	DW	08ddbH
	DW	08dcbH
	DW	08deaH
	DW	08debH
	DW	08ddfH
	DW	08de3H
	DW	08dfcH
	DW	08e08H
	DW	08e09H
	DW	08dffH
	DW	08e1dH
	DW	08e1eH
	DW	08e10H
	DW	08e1fH
	DW	08e42H
	DW	08e35H
	DW	08e30H
	DW	08e34H
	DW	08e4aH
	DW	08e47H
	DW	08e49H
	DW	08e4cH
	DW	08e50H
	DW	08e48H
	DW	08e59H
	DW	08e64H
	DW	08e60H
	DW	08e2aH
	DW	08e63H
	DW	08e55H
	DW	08e76H
	DW	08e72H
	DW	08e7cH
	DW	08e81H
	DW	08e87H
	DW	08e85H
	DW	08e84H
	DW	08e8bH
	DW	08e8aH
	DW	08e93H
	DW	08e91H
	DW	08e94H
	DW	08e99H
	DW	08eaaH
	DW	08ea1H
	DW	08eacH
	DW	08eb0H
	DW	08ec6H
	DW	08eb1H
	DW	08ebeH
	DW	08ec5H
	DW	08ec8H
	DW	08ecbH
	DW	08edbH
	DW	08ee3H
	DW	08efcH
	DW	08efbH
	DW	08eebH
	DW	08efeH
	DW	08f0aH
	DW	08f05H
	DW	08f15H
	DW	08f12H
	DW	08f19H
	DW	08f13H
	DW	08f1cH
	DW	08f1fH
	DW	08f1bH
	DW	08f0cH
	DW	08f26H
	DW	08f33H
	DW	08f3bH
	DW	08f39H
	DW	08f45H
	DW	08f42H
	DW	08f3eH
	DW	08f4cH
	DW	08f49H
	DW	08f46H
	DW	08f4eH
	DW	08f57H
	DW	08f5cH
	DW	08f62H
	DW	08f63H
	DW	08f64H
	DW	08f9cH
	DW	08f9fH
	DW	08fa3H
	DW	08fadH
	DW	08fafH
	DW	08fb7H
	DW	08fdaH
	DW	08fe5H
	DW	08fe2H
	DW	08feaH
	DW	08fefH
	DW	09087H
	DW	08ff4H
	DW	09005H
	DW	08ff9H
	DW	08ffaH
	DW	09011H
	DW	09015H
	DW	09021H
	DW	0900dH
	DW	0901eH
	DW	09016H
	DW	0900bH
	DW	09027H
	DW	09036H
	DW	09035H
	DW	09039H
	DW	08ff8H
	DW	0904fH
	DW	09050H
	DW	09051H
	DW	09052H
	DW	0900eH
	DW	09049H
	DW	0903eH
	DW	09056H
	DW	09058H
	DW	0905eH
	DW	09068H
	DW	0906fH
	DW	09076H
	DW	096a8H
	DW	09072H
	DW	09082H
	DW	0907dH
	DW	09081H
	DW	09080H
	DW	0908aH
	DW	09089H
	DW	0908fH
	DW	090a8H
	DW	090afH
	DW	090b1H
	DW	090b5H
	DW	090e2H
	DW	090e4H
	DW	06248H
	DW	090dbH
	DW	09102H
	DW	09112H
	DW	09119H
	DW	09132H
	DW	09130H
	DW	0914aH
	DW	09156H
	DW	09158H
	DW	09163H
	DW	09165H
	DW	09169H
	DW	09173H
	DW	09172H
	DW	0918bH
	DW	09189H
	DW	09182H
	DW	091a2H
	DW	091abH
	DW	091afH
	DW	091aaH
	DW	091b5H
	DW	091b4H
	DW	091baH
	DW	091c0H
	DW	091c1H
	DW	091c9H
	DW	091cbH
	DW	091d0H
	DW	091d6H
	DW	091dfH
	DW	091e1H
	DW	091dbH
	DW	091fcH
	DW	091f5H
	DW	091f6H
	DW	0921eH
	DW	091ffH
	DW	09214H
	DW	0922cH
	DW	09215H
	DW	09211H
	DW	0925eH
	DW	09257H
	DW	09245H
	DW	09249H
	DW	09264H
	DW	09248H
	DW	09295H
	DW	0923fH
	DW	0924bH
	DW	09250H
	DW	0929cH
	DW	09296H
	DW	09293H
	DW	0929bH
	DW	0925aH
	DW	092cfH
	DW	092b9H
	DW	092b7H
	DW	092e9H
	DW	0930fH
	DW	092faH
	DW	09344H
	DW	0932eH
	DW	09319H
	DW	09322H
	DW	0931aH
	DW	09323H
	DW	0933aH
	DW	09335H
	DW	0933bH
	DW	0935cH
	DW	09360H
	DW	0937cH
	DW	0936eH
	DW	09356H
	DW	093b0H
	DW	093acH
	DW	093adH
	DW	09394H
	DW	093b9H
	DW	093d6H
	DW	093d7H
	DW	093e8H
	DW	093e5H
	DW	093d8H
	DW	093c3H
	DW	093ddH
	DW	093d0H
	DW	093c8H
	DW	093e4H
	DW	0941aH
	DW	09414H
	DW	09413H
	DW	09403H
	DW	09407H
	DW	09410H
	DW	09436H
	DW	0942bH
	DW	09435H
	DW	09421H
	DW	0943aH
	DW	09441H
	DW	09452H
	DW	09444H
	DW	0945bH
	DW	09460H
	DW	09462H
	DW	0945eH
	DW	0946aH
	DW	09229H
	DW	09470H
	DW	09475H
	DW	09477H
	DW	0947dH
	DW	0945aH
	DW	0947cH
	DW	0947eH
	DW	09481H
	DW	0947fH
	DW	09582H
	DW	09587H
	DW	0958aH
	DW	09594H
	DW	09596H
	DW	09598H
	DW	09599H
	DW	095a0H
	DW	095a8H
	DW	095a7H
	DW	095adH
	DW	095bcH
	DW	095bbH
	DW	095b9H
	DW	095beH
	DW	095caH
	DW	06ff6H
	DW	095c3H
	DW	095cdH
	DW	095ccH
	DW	095d5H
	DW	095d4H
	DW	095d6H
	DW	095dcH
	DW	095e1H
	DW	095e5H
	DW	095e2H
	DW	09621H
	DW	09628H
	DW	0962eH
	DW	0962fH
	DW	09642H
	DW	0964cH
	DW	0964fH
	DW	0964bH
	DW	09677H
	DW	0965cH
	DW	0965eH
	DW	0965dH
	DW	0965fH
	DW	09666H
	DW	09672H
	DW	0966cH
	DW	0968dH
	DW	09698H
	DW	09695H
	DW	09697H
	DW	096aaH
	DW	096a7H
	DW	096b1H
	DW	096b2H
	DW	096b0H
	DW	096b4H
	DW	096b6H
	DW	096b8H
	DW	096b9H
	DW	096ceH
	DW	096cbH
	DW	096c9H
	DW	096cdH
	DW	0894dH
	DW	096dcH
	DW	0970dH
	DW	096d5H
	DW	096f9H
	DW	09704H
	DW	09706H
	DW	09708H
	DW	09713H
	DW	0970eH
	DW	09711H
	DW	0970fH
	DW	09716H
	DW	09719H
	DW	09724H
	DW	0972aH
	DW	09730H
	DW	09739H
	DW	0973dH
	DW	0973eH
	DW	09744H
	DW	09746H
	DW	09748H
	DW	09742H
	DW	09749H
	DW	0975cH
	DW	09760H
	DW	09764H
	DW	09766H
	DW	09768H
	DW	052d2H
	DW	0976bH
	DW	09771H
	DW	09779H
	DW	09785H
	DW	0977cH
	DW	09781H
	DW	0977aH
	DW	09786H
	DW	0978bH
	DW	0978fH
	DW	09790H
	DW	0979cH
	DW	097a8H
	DW	097a6H
	DW	097a3H
	DW	097b3H
	DW	097b4H
	DW	097c3H
	DW	097c6H
	DW	097c8H
	DW	097cbH
	DW	097dcH
	DW	097edH
	DW	09f4fH
	DW	097f2H
	DW	07adfH
	DW	097f6H
	DW	097f5H
	DW	0980fH
	DW	0980cH
	DW	09838H
	DW	09824H
	DW	09821H
	DW	09837H
	DW	0983dH
	DW	09846H
	DW	0984fH
	DW	0984bH
	DW	0986bH
	DW	0986fH
	DW	09870H
	DW	09871H
	DW	09874H
	DW	09873H
	DW	098aaH
	DW	098afH
	DW	098b1H
	DW	098b6H
	DW	098c4H
	DW	098c3H
	DW	098c6H
	DW	098e9H
	DW	098ebH
	DW	09903H
	DW	09909H
	DW	09912H
	DW	09914H
	DW	09918H
	DW	09921H
	DW	0991dH
	DW	0991eH
	DW	09924H
	DW	09920H
	DW	0992cH
	DW	0992eH
	DW	0993dH
	DW	0993eH
	DW	09942H
	DW	09949H
	DW	09945H
	DW	09950H
	DW	0994bH
	DW	09951H
	DW	09952H
	DW	0994cH
	DW	09955H
	DW	09997H
	DW	09998H
	DW	099a5H
	DW	099adH
	DW	099aeH
	DW	099bcH
	DW	099dfH
	DW	099dbH
	DW	099ddH
	DW	099d8H
	DW	099d1H
	DW	099edH
	DW	099eeH
	DW	099f1H
	DW	099f2H
	DW	099fbH
	DW	099f8H
	DW	09a01H
	DW	09a0fH
	DW	09a05H
	DW	099e2H
	DW	09a19H
	DW	09a2bH
	DW	09a37H
	DW	09a45H
	DW	09a42H
	DW	09a40H
	DW	09a43H
	DW	09a3eH
	DW	09a55H
	DW	09a4dH
	DW	09a5bH
	DW	09a57H
	DW	09a5fH
	DW	09a62H
	DW	09a65H
	DW	09a64H
	DW	09a69H
	DW	09a6bH
	DW	09a6aH
	DW	09aadH
	DW	09ab0H
	DW	09abcH
	DW	09ac0H
	DW	09acfH
	DW	09ad1H
	DW	09ad3H
	DW	09ad4H
	DW	09adeH
	DW	09adfH
	DW	09ae2H
	DW	09ae3H
	DW	09ae6H
	DW	09aefH
	DW	09aebH
	DW	09aeeH
	DW	09af4H
	DW	09af1H
	DW	09af7H
	DW	09afbH
	DW	09b06H
	DW	09b18H
	DW	09b1aH
	DW	09b1fH
	DW	09b22H
	DW	09b23H
	DW	09b25H
	DW	09b27H
	DW	09b28H
	DW	09b29H
	DW	09b2aH
	DW	09b2eH
	DW	09b2fH
	DW	09b32H
	DW	09b44H
	DW	09b43H
	DW	09b4fH
	DW	09b4dH
	DW	09b4eH
	DW	09b51H
	DW	09b58H
	DW	09b74H
	DW	09b93H
	DW	09b83H
	DW	09b91H
	DW	09b96H
	DW	09b97H
	DW	09b9fH
	DW	09ba0H
	DW	09ba8H
	DW	09bb4H
	DW	09bc0H
	DW	09bcaH
	DW	09bb9H
	DW	09bc6H
	DW	09bcfH
	DW	09bd1H
	DW	09bd2H
	DW	09be3H
	DW	09be2H
	DW	09be4H
	DW	09bd4H
	DW	09be1H
	DW	09c3aH
	DW	09bf2H
	DW	09bf1H
	DW	09bf0H
	DW	09c15H
	DW	09c14H
	DW	09c09H
	DW	09c13H
	DW	09c0cH
	DW	09c06H
	DW	09c08H
	DW	09c12H
	DW	09c0aH
	DW	09c04H
	DW	09c2eH
	DW	09c1bH
	DW	09c25H
	DW	09c24H
	DW	09c21H
	DW	09c30H
	DW	09c47H
	DW	09c32H
	DW	09c46H
	DW	09c3eH
	DW	09c5aH
	DW	09c60H
	DW	09c67H
	DW	09c76H
	DW	09c78H
	DW	09ce7H
	DW	09cecH
	DW	09cf0H
	DW	09d09H
	DW	09d08H
	DW	09cebH
	DW	09d03H
	DW	09d06H
	DW	09d2aH
	DW	09d26H
	DW	09dafH
	DW	09d23H
	DW	09d1fH
	DW	09d44H
	DW	09d15H
	DW	09d12H
	DW	09d41H
	DW	09d3fH
	DW	09d3eH
	DW	09d46H
	DW	09d48H
	DW	09d5dH
	DW	09d5eH
	DW	09d64H
	DW	09d51H
	DW	09d50H
	DW	09d59H
	DW	09d72H
	DW	09d89H
	DW	09d87H
	DW	09dabH
	DW	09d6fH
	DW	09d7aH
	DW	09d9aH
	DW	09da4H
	DW	09da9H
	DW	09db2H
	DW	09dc4H
	DW	09dc1H
	DW	09dbbH
	DW	09db8H
	DW	09dbaH
	DW	09dc6H
	DW	09dcfH
	DW	09dc2H
	DW	09dd9H
	DW	09dd3H
	DW	09df8H
	DW	09de6H
	DW	09dedH
	DW	09defH
	DW	09dfdH
	DW	09e1aH
	DW	09e1bH
	DW	09e1eH
	DW	09e75H
	DW	09e79H
	DW	09e7dH
	DW	09e81H
	DW	09e88H
	DW	09e8bH
	DW	09e8cH
	DW	09e92H
	DW	09e95H
	DW	09e91H
	DW	09e9dH
	DW	09ea5H
	DW	09ea9H
	DW	09eb8H
	DW	09eaaH
	DW	09eadH
	DW	09761H
	DW	09eccH
	DW	09eceH
	DW	09ecfH
	DW	09ed0H
	DW	09ed4H
	DW	09edcH
	DW	09edeH
	DW	09eddH
	DW	09ee0H
	DW	09ee5H
	DW	09ee8H
	DW	09eefH
	DW	09ef4H
	DW	09ef6H
	DW	09ef7H
	DW	09ef9H
	DW	09efbH
	DW	09efcH
	DW	09efdH
	DW	09f07H
	DW	09f08H
	DW	076b7H
	DW	09f15H
	DW	09f21H
	DW	09f2cH
	DW	09f3eH
	DW	09f4aH
	DW	09f52H
	DW	09f54H
	DW	09f63H
	DW	09f5fH
	DW	09f60H
	DW	09f61H
	DW	09f66H
	DW	09f67H
	DW	09f6cH
	DW	09f6aH
	DW	09f77H
	DW	09f72H
	DW	09f76H
	DW	09f95H
	DW	09f9cH
	DW	09fa0H
	DW	0582fH
	DW	069c7H
	DW	09059H
	DW	07464H
	DW	051dcH
	DW	07199H
	ORG $+8
jisx0208_decmap DQ 0000000000000000H
	DB	00H
	DB	00H
	ORG $+6
	DQ	0000000000000000H
	DB	00H
	DB	00H
	ORG $+6
	DQ	0000000000000000H
	DB	00H
	DB	00H
	ORG $+6
	DQ	0000000000000000H
	DB	00H
	DB	00H
	ORG $+6
	DQ	0000000000000000H
	DB	00H
	DB	00H
	ORG $+6
	DQ	0000000000000000H
	DB	00H
	DB	00H
	ORG $+6
	DQ	0000000000000000H
	DB	00H
	DB	00H
	ORG $+6
	DQ	0000000000000000H
	DB	00H
	DB	00H
	ORG $+6
	DQ	0000000000000000H
	DB	00H
	DB	00H
	ORG $+6
	DQ	0000000000000000H
	DB	00H
	DB	00H
	ORG $+6
	DQ	0000000000000000H
	DB	00H
	DB	00H
	ORG $+6
	DQ	0000000000000000H
	DB	00H
	DB	00H
	ORG $+6
	DQ	0000000000000000H
	DB	00H
	DB	00H
	ORG $+6
	DQ	0000000000000000H
	DB	00H
	DB	00H
	ORG $+6
	DQ	0000000000000000H
	DB	00H
	DB	00H
	ORG $+6
	DQ	0000000000000000H
	DB	00H
	DB	00H
	ORG $+6
	DQ	0000000000000000H
	DB	00H
	DB	00H
	ORG $+6
	DQ	0000000000000000H
	DB	00H
	DB	00H
	ORG $+6
	DQ	0000000000000000H
	DB	00H
	DB	00H
	ORG $+6
	DQ	0000000000000000H
	DB	00H
	DB	00H
	ORG $+6
	DQ	0000000000000000H
	DB	00H
	DB	00H
	ORG $+6
	DQ	0000000000000000H
	DB	00H
	DB	00H
	ORG $+6
	DQ	0000000000000000H
	DB	00H
	DB	00H
	ORG $+6
	DQ	0000000000000000H
	DB	00H
	DB	00H
	ORG $+6
	DQ	0000000000000000H
	DB	00H
	DB	00H
	ORG $+6
	DQ	0000000000000000H
	DB	00H
	DB	00H
	ORG $+6
	DQ	0000000000000000H
	DB	00H
	DB	00H
	ORG $+6
	DQ	0000000000000000H
	DB	00H
	DB	00H
	ORG $+6
	DQ	0000000000000000H
	DB	00H
	DB	00H
	ORG $+6
	DQ	0000000000000000H
	DB	00H
	DB	00H
	ORG $+6
	DQ	0000000000000000H
	DB	00H
	DB	00H
	ORG $+6
	DQ	0000000000000000H
	DB	00H
	DB	00H
	ORG $+6
	DQ	0000000000000000H
	DB	00H
	DB	00H
	ORG $+6
	DQ	FLAT:__jisx0208_decmap
	DB	021H
	DB	07eH
	ORG $+6
	DQ	FLAT:__jisx0208_decmap+188
	DB	021H
	DB	07eH
	ORG $+6
	DQ	FLAT:__jisx0208_decmap+376
	DB	030H
	DB	07aH
	ORG $+6
	DQ	FLAT:__jisx0208_decmap+526
	DB	021H
	DB	073H
	ORG $+6
	DQ	FLAT:__jisx0208_decmap+692
	DB	021H
	DB	076H
	ORG $+6
	DQ	FLAT:__jisx0208_decmap+864
	DB	021H
	DB	058H
	ORG $+6
	DQ	FLAT:__jisx0208_decmap+976
	DB	021H
	DB	071H
	ORG $+6
	DQ	FLAT:__jisx0208_decmap+1138
	DB	021H
	DB	040H
	ORG $+6
	DQ	0000000000000000H
	DB	00H
	DB	00H
	ORG $+6
	DQ	0000000000000000H
	DB	00H
	DB	00H
	ORG $+6
	DQ	0000000000000000H
	DB	00H
	DB	00H
	ORG $+6
	DQ	0000000000000000H
	DB	00H
	DB	00H
	ORG $+6
	DQ	0000000000000000H
	DB	00H
	DB	00H
	ORG $+6
	DQ	0000000000000000H
	DB	00H
	DB	00H
	ORG $+6
	DQ	0000000000000000H
	DB	00H
	DB	00H
	ORG $+6
	DQ	FLAT:__jisx0208_decmap+1202
	DB	021H
	DB	07eH
	ORG $+6
	DQ	FLAT:__jisx0208_decmap+1390
	DB	021H
	DB	07eH
	ORG $+6
	DQ	FLAT:__jisx0208_decmap+1578
	DB	021H
	DB	07eH
	ORG $+6
	DQ	FLAT:__jisx0208_decmap+1766
	DB	021H
	DB	07eH
	ORG $+6
	DQ	FLAT:__jisx0208_decmap+1954
	DB	021H
	DB	07eH
	ORG $+6
	DQ	FLAT:__jisx0208_decmap+2142
	DB	021H
	DB	07eH
	ORG $+6
	DQ	FLAT:__jisx0208_decmap+2330
	DB	021H
	DB	07eH
	ORG $+6
	DQ	FLAT:__jisx0208_decmap+2518
	DB	021H
	DB	07eH
	ORG $+6
	DQ	FLAT:__jisx0208_decmap+2706
	DB	021H
	DB	07eH
	ORG $+6
	DQ	FLAT:__jisx0208_decmap+2894
	DB	021H
	DB	07eH
	ORG $+6
	DQ	FLAT:__jisx0208_decmap+3082
	DB	021H
	DB	07eH
	ORG $+6
	DQ	FLAT:__jisx0208_decmap+3270
	DB	021H
	DB	07eH
	ORG $+6
	DQ	FLAT:__jisx0208_decmap+3458
	DB	021H
	DB	07eH
	ORG $+6
	DQ	FLAT:__jisx0208_decmap+3646
	DB	021H
	DB	07eH
	ORG $+6
	DQ	FLAT:__jisx0208_decmap+3834
	DB	021H
	DB	07eH
	ORG $+6
	DQ	FLAT:__jisx0208_decmap+4022
	DB	021H
	DB	07eH
	ORG $+6
	DQ	FLAT:__jisx0208_decmap+4210
	DB	021H
	DB	07eH
	ORG $+6
	DQ	FLAT:__jisx0208_decmap+4398
	DB	021H
	DB	07eH
	ORG $+6
	DQ	FLAT:__jisx0208_decmap+4586
	DB	021H
	DB	07eH
	ORG $+6
	DQ	FLAT:__jisx0208_decmap+4774
	DB	021H
	DB	07eH
	ORG $+6
	DQ	FLAT:__jisx0208_decmap+4962
	DB	021H
	DB	07eH
	ORG $+6
	DQ	FLAT:__jisx0208_decmap+5150
	DB	021H
	DB	07eH
	ORG $+6
	DQ	FLAT:__jisx0208_decmap+5338
	DB	021H
	DB	07eH
	ORG $+6
	DQ	FLAT:__jisx0208_decmap+5526
	DB	021H
	DB	07eH
	ORG $+6
	DQ	FLAT:__jisx0208_decmap+5714
	DB	021H
	DB	07eH
	ORG $+6
	DQ	FLAT:__jisx0208_decmap+5902
	DB	021H
	DB	07eH
	ORG $+6
	DQ	FLAT:__jisx0208_decmap+6090
	DB	021H
	DB	07eH
	ORG $+6
	DQ	FLAT:__jisx0208_decmap+6278
	DB	021H
	DB	07eH
	ORG $+6
	DQ	FLAT:__jisx0208_decmap+6466
	DB	021H
	DB	07eH
	ORG $+6
	DQ	FLAT:__jisx0208_decmap+6654
	DB	021H
	DB	07eH
	ORG $+6
	DQ	FLAT:__jisx0208_decmap+6842
	DB	021H
	DB	07eH
	ORG $+6
	DQ	FLAT:__jisx0208_decmap+7030
	DB	021H
	DB	053H
	ORG $+6
	DQ	FLAT:__jisx0208_decmap+7132
	DB	021H
	DB	07eH
	ORG $+6
	DQ	FLAT:__jisx0208_decmap+7320
	DB	021H
	DB	07eH
	ORG $+6
	DQ	FLAT:__jisx0208_decmap+7508
	DB	021H
	DB	07eH
	ORG $+6
	DQ	FLAT:__jisx0208_decmap+7696
	DB	021H
	DB	07eH
	ORG $+6
	DQ	FLAT:__jisx0208_decmap+7884
	DB	021H
	DB	07eH
	ORG $+6
	DQ	FLAT:__jisx0208_decmap+8072
	DB	021H
	DB	07eH
	ORG $+6
	DQ	FLAT:__jisx0208_decmap+8260
	DB	021H
	DB	07eH
	ORG $+6
	DQ	FLAT:__jisx0208_decmap+8448
	DB	021H
	DB	07eH
	ORG $+6
	DQ	FLAT:__jisx0208_decmap+8636
	DB	021H
	DB	07eH
	ORG $+6
	DQ	FLAT:__jisx0208_decmap+8824
	DB	021H
	DB	07eH
	ORG $+6
	DQ	FLAT:__jisx0208_decmap+9012
	DB	021H
	DB	07eH
	ORG $+6
	DQ	FLAT:__jisx0208_decmap+9200
	DB	021H
	DB	07eH
	ORG $+6
	DQ	FLAT:__jisx0208_decmap+9388
	DB	021H
	DB	07eH
	ORG $+6
	DQ	FLAT:__jisx0208_decmap+9576
	DB	021H
	DB	07eH
	ORG $+6
	DQ	FLAT:__jisx0208_decmap+9764
	DB	021H
	DB	07eH
	ORG $+6
	DQ	FLAT:__jisx0208_decmap+9952
	DB	021H
	DB	07eH
	ORG $+6
	DQ	FLAT:__jisx0208_decmap+10140
	DB	021H
	DB	07eH
	ORG $+6
	DQ	FLAT:__jisx0208_decmap+10328
	DB	021H
	DB	07eH
	ORG $+6
	DQ	FLAT:__jisx0208_decmap+10516
	DB	021H
	DB	07eH
	ORG $+6
	DQ	FLAT:__jisx0208_decmap+10704
	DB	021H
	DB	07eH
	ORG $+6
	DQ	FLAT:__jisx0208_decmap+10892
	DB	021H
	DB	07eH
	ORG $+6
	DQ	FLAT:__jisx0208_decmap+11080
	DB	021H
	DB	07eH
	ORG $+6
	DQ	FLAT:__jisx0208_decmap+11268
	DB	021H
	DB	07eH
	ORG $+6
	DQ	FLAT:__jisx0208_decmap+11456
	DB	021H
	DB	07eH
	ORG $+6
	DQ	FLAT:__jisx0208_decmap+11644
	DB	021H
	DB	07eH
	ORG $+6
	DQ	FLAT:__jisx0208_decmap+11832
	DB	021H
	DB	07eH
	ORG $+6
	DQ	FLAT:__jisx0208_decmap+12020
	DB	021H
	DB	07eH
	ORG $+6
	DQ	FLAT:__jisx0208_decmap+12208
	DB	021H
	DB	07eH
	ORG $+6
	DQ	FLAT:__jisx0208_decmap+12396
	DB	021H
	DB	07eH
	ORG $+6
	DQ	FLAT:__jisx0208_decmap+12584
	DB	021H
	DB	07eH
	ORG $+6
	DQ	FLAT:__jisx0208_decmap+12772
	DB	021H
	DB	07eH
	ORG $+6
	DQ	FLAT:__jisx0208_decmap+12960
	DB	021H
	DB	07eH
	ORG $+6
	DQ	FLAT:__jisx0208_decmap+13148
	DB	021H
	DB	07eH
	ORG $+6
	DQ	FLAT:__jisx0208_decmap+13336
	DB	021H
	DB	07eH
	ORG $+6
	DQ	FLAT:__jisx0208_decmap+13524
	DB	021H
	DB	07eH
	ORG $+6
	DQ	FLAT:__jisx0208_decmap+13712
	DB	021H
	DB	07eH
	ORG $+6
	DQ	FLAT:__jisx0208_decmap+13900
	DB	021H
	DB	026H
	ORG $+6
	DQ	0000000000000000H
	DB	00H
	DB	00H
	ORG $+6
	DQ	0000000000000000H
	DB	00H
	DB	00H
	ORG $+6
	DQ	0000000000000000H
	DB	00H
	DB	00H
	ORG $+6
	DQ	0000000000000000H
	DB	00H
	DB	00H
	ORG $+6
	DQ	0000000000000000H
	DB	00H
	DB	00H
	ORG $+6
	DQ	0000000000000000H
	DB	00H
	DB	00H
	ORG $+6
	DQ	0000000000000000H
	DB	00H
	DB	00H
	ORG $+6
	DQ	0000000000000000H
	DB	00H
	DB	00H
	ORG $+6
	DQ	0000000000000000H
	DB	00H
	DB	00H
	ORG $+6
	DQ	0000000000000000H
	DB	00H
	DB	00H
	ORG $+6
	DQ	0000000000000000H
	DB	00H
	DB	00H
	ORG $+6
	DQ	0000000000000000H
	DB	00H
	DB	00H
	ORG $+6
	DQ	0000000000000000H
	DB	00H
	DB	00H
	ORG $+6
	DQ	0000000000000000H
	DB	00H
	DB	00H
	ORG $+6
	DQ	0000000000000000H
	DB	00H
	DB	00H
	ORG $+6
	DQ	0000000000000000H
	DB	00H
	DB	00H
	ORG $+6
	DQ	0000000000000000H
	DB	00H
	DB	00H
	ORG $+6
	DQ	0000000000000000H
	DB	00H
	DB	00H
	ORG $+6
	DQ	0000000000000000H
	DB	00H
	DB	00H
	ORG $+6
	DQ	0000000000000000H
	DB	00H
	DB	00H
	ORG $+6
	DQ	0000000000000000H
	DB	00H
	DB	00H
	ORG $+6
	DQ	0000000000000000H
	DB	00H
	DB	00H
	ORG $+6
	DQ	0000000000000000H
	DB	00H
	DB	00H
	ORG $+6
	DQ	0000000000000000H
	DB	00H
	DB	00H
	ORG $+6
	DQ	0000000000000000H
	DB	00H
	DB	00H
	ORG $+6
	DQ	0000000000000000H
	DB	00H
	DB	00H
	ORG $+6
	DQ	0000000000000000H
	DB	00H
	DB	00H
	ORG $+6
	DQ	0000000000000000H
	DB	00H
	DB	00H
	ORG $+6
	DQ	0000000000000000H
	DB	00H
	DB	00H
	ORG $+6
	DQ	0000000000000000H
	DB	00H
	DB	00H
	ORG $+6
	DQ	0000000000000000H
	DB	00H
	DB	00H
	ORG $+6
	DQ	0000000000000000H
	DB	00H
	DB	00H
	ORG $+6
	DQ	0000000000000000H
	DB	00H
	DB	00H
	ORG $+6
	DQ	0000000000000000H
	DB	00H
	DB	00H
	ORG $+6
	DQ	0000000000000000H
	DB	00H
	DB	00H
	ORG $+6
	DQ	0000000000000000H
	DB	00H
	DB	00H
	ORG $+6
	DQ	0000000000000000H
	DB	00H
	DB	00H
	ORG $+6
	DQ	0000000000000000H
	DB	00H
	DB	00H
	ORG $+6
	DQ	0000000000000000H
	DB	00H
	DB	00H
	ORG $+6
	DQ	0000000000000000H
	DB	00H
	DB	00H
	ORG $+6
	DQ	0000000000000000H
	DB	00H
	DB	00H
	ORG $+6
	DQ	0000000000000000H
	DB	00H
	DB	00H
	ORG $+6
	DQ	0000000000000000H
	DB	00H
	DB	00H
	ORG $+6
	DQ	0000000000000000H
	DB	00H
	DB	00H
	ORG $+6
	DQ	0000000000000000H
	DB	00H
	DB	00H
	ORG $+6
	DQ	0000000000000000H
	DB	00H
	DB	00H
	ORG $+6
	DQ	0000000000000000H
	DB	00H
	DB	00H
	ORG $+6
	DQ	0000000000000000H
	DB	00H
	DB	00H
	ORG $+6
	DQ	0000000000000000H
	DB	00H
	DB	00H
	ORG $+6
	DQ	0000000000000000H
	DB	00H
	DB	00H
	ORG $+6
	DQ	0000000000000000H
	DB	00H
	DB	00H
	ORG $+6
	DQ	0000000000000000H
	DB	00H
	DB	00H
	ORG $+6
	DQ	0000000000000000H
	DB	00H
	DB	00H
	ORG $+6
	DQ	0000000000000000H
	DB	00H
	DB	00H
	ORG $+6
	DQ	0000000000000000H
	DB	00H
	DB	00H
	ORG $+6
	DQ	0000000000000000H
	DB	00H
	DB	00H
	ORG $+6
	DQ	0000000000000000H
	DB	00H
	DB	00H
	ORG $+6
	DQ	0000000000000000H
	DB	00H
	DB	00H
	ORG $+6
	DQ	0000000000000000H
	DB	00H
	DB	00H
	ORG $+6
	DQ	0000000000000000H
	DB	00H
	DB	00H
	ORG $+6
	DQ	0000000000000000H
	DB	00H
	DB	00H
	ORG $+6
	DQ	0000000000000000H
	DB	00H
	DB	00H
	ORG $+6
	DQ	0000000000000000H
	DB	00H
	DB	00H
	ORG $+6
	DQ	0000000000000000H
	DB	00H
	DB	00H
	ORG $+6
	DQ	0000000000000000H
	DB	00H
	DB	00H
	ORG $+6
	DQ	0000000000000000H
	DB	00H
	DB	00H
	ORG $+6
	DQ	0000000000000000H
	DB	00H
	DB	00H
	ORG $+6
	DQ	0000000000000000H
	DB	00H
	DB	00H
	ORG $+6
	DQ	0000000000000000H
	DB	00H
	DB	00H
	ORG $+6
	DQ	0000000000000000H
	DB	00H
	DB	00H
	ORG $+6
	DQ	0000000000000000H
	DB	00H
	DB	00H
	ORG $+6
	DQ	0000000000000000H
	DB	00H
	DB	00H
	ORG $+6
	DQ	0000000000000000H
	DB	00H
	DB	00H
	ORG $+6
	DQ	0000000000000000H
	DB	00H
	DB	00H
	ORG $+6
	DQ	0000000000000000H
	DB	00H
	DB	00H
	ORG $+6
	DQ	0000000000000000H
	DB	00H
	DB	00H
	ORG $+6
	DQ	0000000000000000H
	DB	00H
	DB	00H
	ORG $+6
	DQ	0000000000000000H
	DB	00H
	DB	00H
	ORG $+6
	DQ	0000000000000000H
	DB	00H
	DB	00H
	ORG $+6
	DQ	0000000000000000H
	DB	00H
	DB	00H
	ORG $+6
	DQ	0000000000000000H
	DB	00H
	DB	00H
	ORG $+6
	DQ	0000000000000000H
	DB	00H
	DB	00H
	ORG $+6
	DQ	0000000000000000H
	DB	00H
	DB	00H
	ORG $+6
	DQ	0000000000000000H
	DB	00H
	DB	00H
	ORG $+6
	DQ	0000000000000000H
	DB	00H
	DB	00H
	ORG $+6
	DQ	0000000000000000H
	DB	00H
	DB	00H
	ORG $+6
	DQ	0000000000000000H
	DB	00H
	DB	00H
	ORG $+6
	DQ	0000000000000000H
	DB	00H
	DB	00H
	ORG $+6
	DQ	0000000000000000H
	DB	00H
	DB	00H
	ORG $+6
	DQ	0000000000000000H
	DB	00H
	DB	00H
	ORG $+6
	DQ	0000000000000000H
	DB	00H
	DB	00H
	ORG $+6
	DQ	0000000000000000H
	DB	00H
	DB	00H
	ORG $+6
	DQ	0000000000000000H
	DB	00H
	DB	00H
	ORG $+6
	DQ	0000000000000000H
	DB	00H
	DB	00H
	ORG $+6
	DQ	0000000000000000H
	DB	00H
	DB	00H
	ORG $+6
	DQ	0000000000000000H
	DB	00H
	DB	00H
	ORG $+6
	DQ	0000000000000000H
	DB	00H
	DB	00H
	ORG $+6
	DQ	0000000000000000H
	DB	00H
	DB	00H
	ORG $+6
	DQ	0000000000000000H
	DB	00H
	DB	00H
	ORG $+6
	DQ	0000000000000000H
	DB	00H
	DB	00H
	ORG $+6
	DQ	0000000000000000H
	DB	00H
	DB	00H
	ORG $+6
	DQ	0000000000000000H
	DB	00H
	DB	00H
	ORG $+6
	DQ	0000000000000000H
	DB	00H
	DB	00H
	ORG $+6
	DQ	0000000000000000H
	DB	00H
	DB	00H
	ORG $+6
	DQ	0000000000000000H
	DB	00H
	DB	00H
	ORG $+6
	DQ	0000000000000000H
	DB	00H
	DB	00H
	ORG $+6
	DQ	0000000000000000H
	DB	00H
	DB	00H
	ORG $+6
	DQ	0000000000000000H
	DB	00H
	DB	00H
	ORG $+6
	DQ	0000000000000000H
	DB	00H
	DB	00H
	ORG $+6
	DQ	0000000000000000H
	DB	00H
	DB	00H
	ORG $+6
	DQ	0000000000000000H
	DB	00H
	DB	00H
	ORG $+6
	DQ	0000000000000000H
	DB	00H
	DB	00H
	ORG $+6
	DQ	0000000000000000H
	DB	00H
	DB	00H
	ORG $+6
	DQ	0000000000000000H
	DB	00H
	DB	00H
	ORG $+6
	DQ	0000000000000000H
	DB	00H
	DB	00H
	ORG $+6
	DQ	0000000000000000H
	DB	00H
	DB	00H
	ORG $+6
	DQ	0000000000000000H
	DB	00H
	DB	00H
	ORG $+6
	DQ	0000000000000000H
	DB	00H
	DB	00H
	ORG $+6
	DQ	0000000000000000H
	DB	00H
	DB	00H
	ORG $+6
	DQ	0000000000000000H
	DB	00H
	DB	00H
	ORG $+6
	DQ	0000000000000000H
	DB	00H
	DB	00H
	ORG $+6
	DQ	0000000000000000H
	DB	00H
	DB	00H
	ORG $+6
	DQ	0000000000000000H
	DB	00H
	DB	00H
	ORG $+6
	DQ	0000000000000000H
	DB	00H
	DB	00H
	ORG $+6
	DQ	0000000000000000H
	DB	00H
	DB	00H
	ORG $+6
	DQ	0000000000000000H
	DB	00H
	DB	00H
	ORG $+6
	DQ	0000000000000000H
	DB	00H
	DB	00H
	ORG $+6
	DQ	0000000000000000H
	DB	00H
	DB	00H
	ORG $+6
	DQ	0000000000000000H
	DB	00H
	DB	00H
	ORG $+6
	DQ	0000000000000000H
	DB	00H
	DB	00H
	ORG $+6
	DQ	0000000000000000H
	DB	00H
	DB	00H
	ORG $+6
	DQ	0000000000000000H
	DB	00H
	DB	00H
	ORG $+6
	DQ	0000000000000000H
	DB	00H
	DB	00H
	ORG $+6
	DQ	0000000000000000H
	DB	00H
	DB	00H
	ORG $+6
	DQ	0000000000000000H
	DB	00H
	DB	00H
	ORG $+6
	DQ	0000000000000000H
	DB	00H
	DB	00H
	ORG $+6
	DQ	0000000000000000H
	DB	00H
	DB	00H
	ORG $+6
	DQ	0000000000000000H
	DB	00H
	DB	00H
	ORG $+6
	DQ	0000000000000000H
	DB	00H
	DB	00H
	ORG $+6
__jisx0212_decmap DW 02d8H
	DW	02c7H
	DW	0b8H
	DW	02d9H
	DW	02ddH
	DW	0afH
	DW	02dbH
	DW	02daH
	DW	07eH
	DW	0384H
	DW	0385H
	DW	0fffeH
	DW	0fffeH
	DW	0fffeH
	DW	0fffeH
	DW	0fffeH
	DW	0fffeH
	DW	0fffeH
	DW	0fffeH
	DW	0a1H
	DW	0a6H
	DW	0bfH
	DW	0fffeH
	DW	0fffeH
	DW	0fffeH
	DW	0fffeH
	DW	0fffeH
	DW	0fffeH
	DW	0fffeH
	DW	0fffeH
	DW	0fffeH
	DW	0fffeH
	DW	0fffeH
	DW	0fffeH
	DW	0fffeH
	DW	0fffeH
	DW	0fffeH
	DW	0fffeH
	DW	0fffeH
	DW	0fffeH
	DW	0fffeH
	DW	0fffeH
	DW	0fffeH
	DW	0fffeH
	DW	0fffeH
	DW	0fffeH
	DW	0fffeH
	DW	0fffeH
	DW	0fffeH
	DW	0fffeH
	DW	0fffeH
	DW	0fffeH
	DW	0fffeH
	DW	0fffeH
	DW	0fffeH
	DW	0fffeH
	DW	0fffeH
	DW	0fffeH
	DW	0fffeH
	DW	0fffeH
	DW	0baH
	DW	0aaH
	DW	0a9H
	DW	0aeH
	DW	02122H
	DW	0a4H
	DW	02116H
	DW	0386H
	DW	0388H
	DW	0389H
	DW	038aH
	DW	03aaH
	DW	0fffeH
	DW	038cH
	DW	0fffeH
	DW	038eH
	DW	03abH
	DW	0fffeH
	DW	038fH
	DW	0fffeH
	DW	0fffeH
	DW	0fffeH
	DW	0fffeH
	DW	03acH
	DW	03adH
	DW	03aeH
	DW	03afH
	DW	03caH
	DW	0390H
	DW	03ccH
	DW	03c2H
	DW	03cdH
	DW	03cbH
	DW	03b0H
	DW	03ceH
	DW	0402H
	DW	0403H
	DW	0404H
	DW	0405H
	DW	0406H
	DW	0407H
	DW	0408H
	DW	0409H
	DW	040aH
	DW	040bH
	DW	040cH
	DW	040eH
	DW	040fH
	DW	0fffeH
	DW	0fffeH
	DW	0fffeH
	DW	0fffeH
	DW	0fffeH
	DW	0fffeH
	DW	0fffeH
	DW	0fffeH
	DW	0fffeH
	DW	0fffeH
	DW	0fffeH
	DW	0fffeH
	DW	0fffeH
	DW	0fffeH
	DW	0fffeH
	DW	0fffeH
	DW	0fffeH
	DW	0fffeH
	DW	0fffeH
	DW	0fffeH
	DW	0fffeH
	DW	0fffeH
	DW	0fffeH
	DW	0fffeH
	DW	0fffeH
	DW	0fffeH
	DW	0fffeH
	DW	0fffeH
	DW	0fffeH
	DW	0fffeH
	DW	0fffeH
	DW	0fffeH
	DW	0fffeH
	DW	0fffeH
	DW	0fffeH
	DW	0452H
	DW	0453H
	DW	0454H
	DW	0455H
	DW	0456H
	DW	0457H
	DW	0458H
	DW	0459H
	DW	045aH
	DW	045bH
	DW	045cH
	DW	045eH
	DW	045fH
	DW	0c6H
	DW	0110H
	DW	0fffeH
	DW	0126H
	DW	0fffeH
	DW	0132H
	DW	0fffeH
	DW	0141H
	DW	013fH
	DW	0fffeH
	DW	014aH
	DW	0d8H
	DW	0152H
	DW	0fffeH
	DW	0166H
	DW	0deH
	DW	0fffeH
	DW	0fffeH
	DW	0fffeH
	DW	0fffeH
	DW	0fffeH
	DW	0fffeH
	DW	0fffeH
	DW	0fffeH
	DW	0fffeH
	DW	0fffeH
	DW	0fffeH
	DW	0fffeH
	DW	0fffeH
	DW	0fffeH
	DW	0fffeH
	DW	0fffeH
	DW	0e6H
	DW	0111H
	DW	0f0H
	DW	0127H
	DW	0131H
	DW	0133H
	DW	0138H
	DW	0142H
	DW	0140H
	DW	0149H
	DW	014bH
	DW	0f8H
	DW	0153H
	DW	0dfH
	DW	0167H
	DW	0feH
	DW	0c1H
	DW	0c0H
	DW	0c4H
	DW	0c2H
	DW	0102H
	DW	01cdH
	DW	0100H
	DW	0104H
	DW	0c5H
	DW	0c3H
	DW	0106H
	DW	0108H
	DW	010cH
	DW	0c7H
	DW	010aH
	DW	010eH
	DW	0c9H
	DW	0c8H
	DW	0cbH
	DW	0caH
	DW	011aH
	DW	0116H
	DW	0112H
	DW	0118H
	DW	0fffeH
	DW	011cH
	DW	011eH
	DW	0122H
	DW	0120H
	DW	0124H
	DW	0cdH
	DW	0ccH
	DW	0cfH
	DW	0ceH
	DW	01cfH
	DW	0130H
	DW	012aH
	DW	012eH
	DW	0128H
	DW	0134H
	DW	0136H
	DW	0139H
	DW	013dH
	DW	013bH
	DW	0143H
	DW	0147H
	DW	0145H
	DW	0d1H
	DW	0d3H
	DW	0d2H
	DW	0d6H
	DW	0d4H
	DW	01d1H
	DW	0150H
	DW	014cH
	DW	0d5H
	DW	0154H
	DW	0158H
	DW	0156H
	DW	015aH
	DW	015cH
	DW	0160H
	DW	015eH
	DW	0164H
	DW	0162H
	DW	0daH
	DW	0d9H
	DW	0dcH
	DW	0dbH
	DW	016cH
	DW	01d3H
	DW	0170H
	DW	016aH
	DW	0172H
	DW	016eH
	DW	0168H
	DW	01d7H
	DW	01dbH
	DW	01d9H
	DW	01d5H
	DW	0174H
	DW	0ddH
	DW	0178H
	DW	0176H
	DW	0179H
	DW	017dH
	DW	017bH
	DW	0e1H
	DW	0e0H
	DW	0e4H
	DW	0e2H
	DW	0103H
	DW	01ceH
	DW	0101H
	DW	0105H
	DW	0e5H
	DW	0e3H
	DW	0107H
	DW	0109H
	DW	010dH
	DW	0e7H
	DW	010bH
	DW	010fH
	DW	0e9H
	DW	0e8H
	DW	0ebH
	DW	0eaH
	DW	011bH
	DW	0117H
	DW	0113H
	DW	0119H
	DW	01f5H
	DW	011dH
	DW	011fH
	DW	0fffeH
	DW	0121H
	DW	0125H
	DW	0edH
	DW	0ecH
	DW	0efH
	DW	0eeH
	DW	01d0H
	DW	0fffeH
	DW	012bH
	DW	012fH
	DW	0129H
	DW	0135H
	DW	0137H
	DW	013aH
	DW	013eH
	DW	013cH
	DW	0144H
	DW	0148H
	DW	0146H
	DW	0f1H
	DW	0f3H
	DW	0f2H
	DW	0f6H
	DW	0f4H
	DW	01d2H
	DW	0151H
	DW	014dH
	DW	0f5H
	DW	0155H
	DW	0159H
	DW	0157H
	DW	015bH
	DW	015dH
	DW	0161H
	DW	015fH
	DW	0165H
	DW	0163H
	DW	0faH
	DW	0f9H
	DW	0fcH
	DW	0fbH
	DW	016dH
	DW	01d4H
	DW	0171H
	DW	016bH
	DW	0173H
	DW	016fH
	DW	0169H
	DW	01d8H
	DW	01dcH
	DW	01daH
	DW	01d6H
	DW	0175H
	DW	0fdH
	DW	0ffH
	DW	0177H
	DW	017aH
	DW	017eH
	DW	017cH
	DW	04e02H
	DW	04e04H
	DW	04e05H
	DW	04e0cH
	DW	04e12H
	DW	04e1fH
	DW	04e23H
	DW	04e24H
	DW	04e28H
	DW	04e2bH
	DW	04e2eH
	DW	04e2fH
	DW	04e30H
	DW	04e35H
	DW	04e40H
	DW	04e41H
	DW	04e44H
	DW	04e47H
	DW	04e51H
	DW	04e5aH
	DW	04e5cH
	DW	04e63H
	DW	04e68H
	DW	04e69H
	DW	04e74H
	DW	04e75H
	DW	04e79H
	DW	04e7fH
	DW	04e8dH
	DW	04e96H
	DW	04e97H
	DW	04e9dH
	DW	04eafH
	DW	04eb9H
	DW	04ec3H
	DW	04ed0H
	DW	04edaH
	DW	04edbH
	DW	04ee0H
	DW	04ee1H
	DW	04ee2H
	DW	04ee8H
	DW	04eefH
	DW	04ef1H
	DW	04ef3H
	DW	04ef5H
	DW	04efdH
	DW	04efeH
	DW	04effH
	DW	04f00H
	DW	04f02H
	DW	04f03H
	DW	04f08H
	DW	04f0bH
	DW	04f0cH
	DW	04f12H
	DW	04f15H
	DW	04f16H
	DW	04f17H
	DW	04f19H
	DW	04f2eH
	DW	04f31H
	DW	04f60H
	DW	04f33H
	DW	04f35H
	DW	04f37H
	DW	04f39H
	DW	04f3bH
	DW	04f3eH
	DW	04f40H
	DW	04f42H
	DW	04f48H
	DW	04f49H
	DW	04f4bH
	DW	04f4cH
	DW	04f52H
	DW	04f54H
	DW	04f56H
	DW	04f58H
	DW	04f5fH
	DW	04f63H
	DW	04f6aH
	DW	04f6cH
	DW	04f6eH
	DW	04f71H
	DW	04f77H
	DW	04f78H
	DW	04f79H
	DW	04f7aH
	DW	04f7dH
	DW	04f7eH
	DW	04f81H
	DW	04f82H
	DW	04f84H
	DW	04f85H
	DW	04f89H
	DW	04f8aH
	DW	04f8cH
	DW	04f8eH
	DW	04f90H
	DW	04f92H
	DW	04f93H
	DW	04f94H
	DW	04f97H
	DW	04f99H
	DW	04f9aH
	DW	04f9eH
	DW	04f9fH
	DW	04fb2H
	DW	04fb7H
	DW	04fb9H
	DW	04fbbH
	DW	04fbcH
	DW	04fbdH
	DW	04fbeH
	DW	04fc0H
	DW	04fc1H
	DW	04fc5H
	DW	04fc6H
	DW	04fc8H
	DW	04fc9H
	DW	04fcbH
	DW	04fccH
	DW	04fcdH
	DW	04fcfH
	DW	04fd2H
	DW	04fdcH
	DW	04fe0H
	DW	04fe2H
	DW	04ff0H
	DW	04ff2H
	DW	04ffcH
	DW	04ffdH
	DW	04fffH
	DW	05000H
	DW	05001H
	DW	05004H
	DW	05007H
	DW	0500aH
	DW	0500cH
	DW	0500eH
	DW	05010H
	DW	05013H
	DW	05017H
	DW	05018H
	DW	0501bH
	DW	0501cH
	DW	0501dH
	DW	0501eH
	DW	05022H
	DW	05027H
	DW	0502eH
	DW	05030H
	DW	05032H
	DW	05033H
	DW	05035H
	DW	05040H
	DW	05041H
	DW	05042H
	DW	05045H
	DW	05046H
	DW	0504aH
	DW	0504cH
	DW	0504eH
	DW	05051H
	DW	05052H
	DW	05053H
	DW	05057H
	DW	05059H
	DW	0505fH
	DW	05060H
	DW	05062H
	DW	05063H
	DW	05066H
	DW	05067H
	DW	0506aH
	DW	0506dH
	DW	05070H
	DW	05071H
	DW	0503bH
	DW	05081H
	DW	05083H
	DW	05084H
	DW	05086H
	DW	0508aH
	DW	0508eH
	DW	0508fH
	DW	05090H
	DW	05092H
	DW	05093H
	DW	05094H
	DW	05096H
	DW	0509bH
	DW	0509cH
	DW	0509eH
	DW	0509fH
	DW	050a0H
	DW	050a1H
	DW	050a2H
	DW	050aaH
	DW	050afH
	DW	050b0H
	DW	050b9H
	DW	050baH
	DW	050bdH
	DW	050c0H
	DW	050c3H
	DW	050c4H
	DW	050c7H
	DW	050ccH
	DW	050ceH
	DW	050d0H
	DW	050d3H
	DW	050d4H
	DW	050d8H
	DW	050dcH
	DW	050ddH
	DW	050dfH
	DW	050e2H
	DW	050e4H
	DW	050e6H
	DW	050e8H
	DW	050e9H
	DW	050efH
	DW	050f1H
	DW	050f6H
	DW	050faH
	DW	050feH
	DW	05103H
	DW	05106H
	DW	05107H
	DW	05108H
	DW	0510bH
	DW	0510cH
	DW	0510dH
	DW	0510eH
	DW	050f2H
	DW	05110H
	DW	05117H
	DW	05119H
	DW	0511bH
	DW	0511cH
	DW	0511dH
	DW	0511eH
	DW	05123H
	DW	05127H
	DW	05128H
	DW	0512cH
	DW	0512dH
	DW	0512fH
	DW	05131H
	DW	05133H
	DW	05134H
	DW	05135H
	DW	05138H
	DW	05139H
	DW	05142H
	DW	0514aH
	DW	0514fH
	DW	05153H
	DW	05155H
	DW	05157H
	DW	05158H
	DW	0515fH
	DW	05164H
	DW	05166H
	DW	0517eH
	DW	05183H
	DW	05184H
	DW	0518bH
	DW	0518eH
	DW	05198H
	DW	0519dH
	DW	051a1H
	DW	051a3H
	DW	051adH
	DW	051b8H
	DW	051baH
	DW	051bcH
	DW	051beH
	DW	051bfH
	DW	051c2H
	DW	051c8H
	DW	051cfH
	DW	051d1H
	DW	051d2H
	DW	051d3H
	DW	051d5H
	DW	051d8H
	DW	051deH
	DW	051e2H
	DW	051e5H
	DW	051eeH
	DW	051f2H
	DW	051f3H
	DW	051f4H
	DW	051f7H
	DW	05201H
	DW	05202H
	DW	05205H
	DW	05212H
	DW	05213H
	DW	05215H
	DW	05216H
	DW	05218H
	DW	05222H
	DW	05228H
	DW	05231H
	DW	05232H
	DW	05235H
	DW	0523cH
	DW	05245H
	DW	05249H
	DW	05255H
	DW	05257H
	DW	05258H
	DW	0525aH
	DW	0525cH
	DW	0525fH
	DW	05260H
	DW	05261H
	DW	05266H
	DW	0526eH
	DW	05277H
	DW	05278H
	DW	05279H
	DW	05280H
	DW	05282H
	DW	05285H
	DW	0528aH
	DW	0528cH
	DW	05293H
	DW	05295H
	DW	05296H
	DW	05297H
	DW	05298H
	DW	0529aH
	DW	0529cH
	DW	052a4H
	DW	052a5H
	DW	052a6H
	DW	052a7H
	DW	052afH
	DW	052b0H
	DW	052b6H
	DW	052b7H
	DW	052b8H
	DW	052baH
	DW	052bbH
	DW	052bdH
	DW	052c0H
	DW	052c4H
	DW	052c6H
	DW	052c8H
	DW	052ccH
	DW	052cfH
	DW	052d1H
	DW	052d4H
	DW	052d6H
	DW	052dbH
	DW	052dcH
	DW	052e1H
	DW	052e5H
	DW	052e8H
	DW	052e9H
	DW	052eaH
	DW	052ecH
	DW	052f0H
	DW	052f1H
	DW	052f4H
	DW	052f6H
	DW	052f7H
	DW	05300H
	DW	05303H
	DW	0530aH
	DW	0530bH
	DW	0530cH
	DW	05311H
	DW	05313H
	DW	05318H
	DW	0531bH
	DW	0531cH
	DW	0531eH
	DW	0531fH
	DW	05325H
	DW	05327H
	DW	05328H
	DW	05329H
	DW	0532bH
	DW	0532cH
	DW	0532dH
	DW	05330H
	DW	05332H
	DW	05335H
	DW	0533cH
	DW	0533dH
	DW	0533eH
	DW	05342H
	DW	0534cH
	DW	0534bH
	DW	05359H
	DW	0535bH
	DW	05361H
	DW	05363H
	DW	05365H
	DW	0536cH
	DW	0536dH
	DW	05372H
	DW	05379H
	DW	0537eH
	DW	05383H
	DW	05387H
	DW	05388H
	DW	0538eH
	DW	05393H
	DW	05394H
	DW	05399H
	DW	0539dH
	DW	053a1H
	DW	053a4H
	DW	053aaH
	DW	053abH
	DW	053afH
	DW	053b2H
	DW	053b4H
	DW	053b5H
	DW	053b7H
	DW	053b8H
	DW	053baH
	DW	053bdH
	DW	053c0H
	DW	053c5H
	DW	053cfH
	DW	053d2H
	DW	053d3H
	DW	053d5H
	DW	053daH
	DW	053ddH
	DW	053deH
	DW	053e0H
	DW	053e6H
	DW	053e7H
	DW	053f5H
	DW	05402H
	DW	05413H
	DW	0541aH
	DW	05421H
	DW	05427H
	DW	05428H
	DW	0542aH
	DW	0542fH
	DW	05431H
	DW	05434H
	DW	05435H
	DW	05443H
	DW	05444H
	DW	05447H
	DW	0544dH
	DW	0544fH
	DW	0545eH
	DW	05462H
	DW	05464H
	DW	05466H
	DW	05467H
	DW	05469H
	DW	0546bH
	DW	0546dH
	DW	0546eH
	DW	05474H
	DW	0547fH
	DW	05481H
	DW	05483H
	DW	05485H
	DW	05488H
	DW	05489H
	DW	0548dH
	DW	05491H
	DW	05495H
	DW	05496H
	DW	0549cH
	DW	0549fH
	DW	054a1H
	DW	054a6H
	DW	054a7H
	DW	054a9H
	DW	054aaH
	DW	054adH
	DW	054aeH
	DW	054b1H
	DW	054b7H
	DW	054b9H
	DW	054baH
	DW	054bbH
	DW	054bfH
	DW	054c6H
	DW	054caH
	DW	054cdH
	DW	054ceH
	DW	054e0H
	DW	054eaH
	DW	054ecH
	DW	054efH
	DW	054f6H
	DW	054fcH
	DW	054feH
	DW	054ffH
	DW	05500H
	DW	05501H
	DW	05505H
	DW	05508H
	DW	05509H
	DW	0550cH
	DW	0550dH
	DW	0550eH
	DW	05515H
	DW	0552aH
	DW	0552bH
	DW	05532H
	DW	05535H
	DW	05536H
	DW	0553bH
	DW	0553cH
	DW	0553dH
	DW	05541H
	DW	05547H
	DW	05549H
	DW	0554aH
	DW	0554dH
	DW	05550H
	DW	05551H
	DW	05558H
	DW	0555aH
	DW	0555bH
	DW	0555eH
	DW	05560H
	DW	05561H
	DW	05564H
	DW	05566H
	DW	0557fH
	DW	05581H
	DW	05582H
	DW	05586H
	DW	05588H
	DW	0558eH
	DW	0558fH
	DW	05591H
	DW	05592H
	DW	05593H
	DW	05594H
	DW	05597H
	DW	055a3H
	DW	055a4H
	DW	055adH
	DW	055b2H
	DW	055bfH
	DW	055c1H
	DW	055c3H
	DW	055c6H
	DW	055c9H
	DW	055cbH
	DW	055ccH
	DW	055ceH
	DW	055d1H
	DW	055d2H
	DW	055d3H
	DW	055d7H
	DW	055d8H
	DW	055dbH
	DW	055deH
	DW	055e2H
	DW	055e9H
	DW	055f6H
	DW	055ffH
	DW	05605H
	DW	05608H
	DW	0560aH
	DW	0560dH
	DW	0560eH
	DW	0560fH
	DW	05610H
	DW	05611H
	DW	05612H
	DW	05619H
	DW	0562cH
	DW	05630H
	DW	05633H
	DW	05635H
	DW	05637H
	DW	05639H
	DW	0563bH
	DW	0563cH
	DW	0563dH
	DW	0563fH
	DW	05640H
	DW	05641H
	DW	05643H
	DW	05644H
	DW	05646H
	DW	05649H
	DW	0564bH
	DW	0564dH
	DW	0564fH
	DW	05654H
	DW	0565eH
	DW	05660H
	DW	05661H
	DW	05662H
	DW	05663H
	DW	05666H
	DW	05669H
	DW	0566dH
	DW	0566fH
	DW	05671H
	DW	05672H
	DW	05675H
	DW	05684H
	DW	05685H
	DW	05688H
	DW	0568bH
	DW	0568cH
	DW	05695H
	DW	05699H
	DW	0569aH
	DW	0569dH
	DW	0569eH
	DW	0569fH
	DW	056a6H
	DW	056a7H
	DW	056a8H
	DW	056a9H
	DW	056abH
	DW	056acH
	DW	056adH
	DW	056b1H
	DW	056b3H
	DW	056b7H
	DW	056beH
	DW	056c5H
	DW	056c9H
	DW	056caH
	DW	056cbH
	DW	056cfH
	DW	056d0H
	DW	056ccH
	DW	056cdH
	DW	056d9H
	DW	056dcH
	DW	056ddH
	DW	056dfH
	DW	056e1H
	DW	056e4H
	DW	056e5H
	DW	056e6H
	DW	056e7H
	DW	056e8H
	DW	056f1H
	DW	056ebH
	DW	056edH
	DW	056f6H
	DW	056f7H
	DW	05701H
	DW	05702H
	DW	05707H
	DW	0570aH
	DW	0570cH
	DW	05711H
	DW	05715H
	DW	0571aH
	DW	0571bH
	DW	0571dH
	DW	05720H
	DW	05722H
	DW	05723H
	DW	05724H
	DW	05725H
	DW	05729H
	DW	0572aH
	DW	0572cH
	DW	0572eH
	DW	0572fH
	DW	05733H
	DW	05734H
	DW	0573dH
	DW	0573eH
	DW	0573fH
	DW	05745H
	DW	05746H
	DW	0574cH
	DW	0574dH
	DW	05752H
	DW	05762H
	DW	05765H
	DW	05767H
	DW	05768H
	DW	0576bH
	DW	0576dH
	DW	0576eH
	DW	0576fH
	DW	05770H
	DW	05771H
	DW	05773H
	DW	05774H
	DW	05775H
	DW	05777H
	DW	05779H
	DW	0577aH
	DW	0577bH
	DW	0577cH
	DW	0577eH
	DW	05781H
	DW	05783H
	DW	0578cH
	DW	05794H
	DW	05797H
	DW	05799H
	DW	0579aH
	DW	0579cH
	DW	0579dH
	DW	0579eH
	DW	0579fH
	DW	057a1H
	DW	05795H
	DW	057a7H
	DW	057a8H
	DW	057a9H
	DW	057acH
	DW	057b8H
	DW	057bdH
	DW	057c7H
	DW	057c8H
	DW	057ccH
	DW	057cfH
	DW	057d5H
	DW	057ddH
	DW	057deH
	DW	057e4H
	DW	057e6H
	DW	057e7H
	DW	057e9H
	DW	057edH
	DW	057f0H
	DW	057f5H
	DW	057f6H
	DW	057f8H
	DW	057fdH
	DW	057feH
	DW	057ffH
	DW	05803H
	DW	05804H
	DW	05808H
	DW	05809H
	DW	057e1H
	DW	0580cH
	DW	0580dH
	DW	0581bH
	DW	0581eH
	DW	0581fH
	DW	05820H
	DW	05826H
	DW	05827H
	DW	0582dH
	DW	05832H
	DW	05839H
	DW	0583fH
	DW	05849H
	DW	0584cH
	DW	0584dH
	DW	0584fH
	DW	05850H
	DW	05855H
	DW	0585fH
	DW	05861H
	DW	05864H
	DW	05867H
	DW	05868H
	DW	05878H
	DW	0587cH
	DW	0587fH
	DW	05880H
	DW	05881H
	DW	05887H
	DW	05888H
	DW	05889H
	DW	0588aH
	DW	0588cH
	DW	0588dH
	DW	0588fH
	DW	05890H
	DW	05894H
	DW	05896H
	DW	0589dH
	DW	058a0H
	DW	058a1H
	DW	058a2H
	DW	058a6H
	DW	058a9H
	DW	058b1H
	DW	058b2H
	DW	058c4H
	DW	058bcH
	DW	058c2H
	DW	058c8H
	DW	058cdH
	DW	058ceH
	DW	058d0H
	DW	058d2H
	DW	058d4H
	DW	058d6H
	DW	058daH
	DW	058ddH
	DW	058e1H
	DW	058e2H
	DW	058e9H
	DW	058f3H
	DW	05905H
	DW	05906H
	DW	0590bH
	DW	0590cH
	DW	05912H
	DW	05913H
	DW	05914H
	DW	08641H
	DW	0591dH
	DW	05921H
	DW	05923H
	DW	05924H
	DW	05928H
	DW	0592fH
	DW	05930H
	DW	05933H
	DW	05935H
	DW	05936H
	DW	0593fH
	DW	05943H
	DW	05946H
	DW	05952H
	DW	05953H
	DW	05959H
	DW	0595bH
	DW	0595dH
	DW	0595eH
	DW	0595fH
	DW	05961H
	DW	05963H
	DW	0596bH
	DW	0596dH
	DW	0596fH
	DW	05972H
	DW	05975H
	DW	05976H
	DW	05979H
	DW	0597bH
	DW	0597cH
	DW	0598bH
	DW	0598cH
	DW	0598eH
	DW	05992H
	DW	05995H
	DW	05997H
	DW	0599fH
	DW	059a4H
	DW	059a7H
	DW	059adH
	DW	059aeH
	DW	059afH
	DW	059b0H
	DW	059b3H
	DW	059b7H
	DW	059baH
	DW	059bcH
	DW	059c1H
	DW	059c3H
	DW	059c4H
	DW	059c8H
	DW	059caH
	DW	059cdH
	DW	059d2H
	DW	059ddH
	DW	059deH
	DW	059dfH
	DW	059e3H
	DW	059e4H
	DW	059e7H
	DW	059eeH
	DW	059efH
	DW	059f1H
	DW	059f2H
	DW	059f4H
	DW	059f7H
	DW	05a00H
	DW	05a04H
	DW	05a0cH
	DW	05a0dH
	DW	05a0eH
	DW	05a12H
	DW	05a13H
	DW	05a1eH
	DW	05a23H
	DW	05a24H
	DW	05a27H
	DW	05a28H
	DW	05a2aH
	DW	05a2dH
	DW	05a30H
	DW	05a44H
	DW	05a45H
	DW	05a47H
	DW	05a48H
	DW	05a4cH
	DW	05a50H
	DW	05a55H
	DW	05a5eH
	DW	05a63H
	DW	05a65H
	DW	05a67H
	DW	05a6dH
	DW	05a77H
	DW	05a7aH
	DW	05a7bH
	DW	05a7eH
	DW	05a8bH
	DW	05a90H
	DW	05a93H
	DW	05a96H
	DW	05a99H
	DW	05a9cH
	DW	05a9eH
	DW	05a9fH
	DW	05aa0H
	DW	05aa2H
	DW	05aa7H
	DW	05aacH
	DW	05ab1H
	DW	05ab2H
	DW	05ab3H
	DW	05ab5H
	DW	05ab8H
	DW	05abaH
	DW	05abbH
	DW	05abfH
	DW	05ac4H
	DW	05ac6H
	DW	05ac8H
	DW	05acfH
	DW	05adaH
	DW	05adcH
	DW	05ae0H
	DW	05ae5H
	DW	05aeaH
	DW	05aeeH
	DW	05af5H
	DW	05af6H
	DW	05afdH
	DW	05b00H
	DW	05b01H
	DW	05b08H
	DW	05b17H
	DW	05b34H
	DW	05b19H
	DW	05b1bH
	DW	05b1dH
	DW	05b21H
	DW	05b25H
	DW	05b2dH
	DW	05b38H
	DW	05b41H
	DW	05b4bH
	DW	05b4cH
	DW	05b52H
	DW	05b56H
	DW	05b5eH
	DW	05b68H
	DW	05b6eH
	DW	05b6fH
	DW	05b7cH
	DW	05b7dH
	DW	05b7eH
	DW	05b7fH
	DW	05b81H
	DW	05b84H
	DW	05b86H
	DW	05b8aH
	DW	05b8eH
	DW	05b90H
	DW	05b91H
	DW	05b93H
	DW	05b94H
	DW	05b96H
	DW	05ba8H
	DW	05ba9H
	DW	05bacH
	DW	05badH
	DW	05bafH
	DW	05bb1H
	DW	05bb2H
	DW	05bb7H
	DW	05bbaH
	DW	05bbcH
	DW	05bc0H
	DW	05bc1H
	DW	05bcdH
	DW	05bcfH
	DW	05bd6H
	DW	05bd7H
	DW	05bd8H
	DW	05bd9H
	DW	05bdaH
	DW	05be0H
	DW	05befH
	DW	05bf1H
	DW	05bf4H
	DW	05bfdH
	DW	05c0cH
	DW	05c17H
	DW	05c1eH
	DW	05c1fH
	DW	05c23H
	DW	05c26H
	DW	05c29H
	DW	05c2bH
	DW	05c2cH
	DW	05c2eH
	DW	05c30H
	DW	05c32H
	DW	05c35H
	DW	05c36H
	DW	05c59H
	DW	05c5aH
	DW	05c5cH
	DW	05c62H
	DW	05c63H
	DW	05c67H
	DW	05c68H
	DW	05c69H
	DW	05c6dH
	DW	05c70H
	DW	05c74H
	DW	05c75H
	DW	05c7aH
	DW	05c7bH
	DW	05c7cH
	DW	05c7dH
	DW	05c87H
	DW	05c88H
	DW	05c8aH
	DW	05c8fH
	DW	05c92H
	DW	05c9dH
	DW	05c9fH
	DW	05ca0H
	DW	05ca2H
	DW	05ca3H
	DW	05ca6H
	DW	05caaH
	DW	05cb2H
	DW	05cb4H
	DW	05cb5H
	DW	05cbaH
	DW	05cc9H
	DW	05ccbH
	DW	05cd2H
	DW	05cddH
	DW	05cd7H
	DW	05ceeH
	DW	05cf1H
	DW	05cf2H
	DW	05cf4H
	DW	05d01H
	DW	05d06H
	DW	05d0dH
	DW	05d12H
	DW	05d2bH
	DW	05d23H
	DW	05d24H
	DW	05d26H
	DW	05d27H
	DW	05d31H
	DW	05d34H
	DW	05d39H
	DW	05d3dH
	DW	05d3fH
	DW	05d42H
	DW	05d43H
	DW	05d46H
	DW	05d48H
	DW	05d55H
	DW	05d51H
	DW	05d59H
	DW	05d4aH
	DW	05d5fH
	DW	05d60H
	DW	05d61H
	DW	05d62H
	DW	05d64H
	DW	05d6aH
	DW	05d6dH
	DW	05d70H
	DW	05d79H
	DW	05d7aH
	DW	05d7eH
	DW	05d7fH
	DW	05d81H
	DW	05d83H
	DW	05d88H
	DW	05d8aH
	DW	05d92H
	DW	05d93H
	DW	05d94H
	DW	05d95H
	DW	05d99H
	DW	05d9bH
	DW	05d9fH
	DW	05da0H
	DW	05da7H
	DW	05dabH
	DW	05db0H
	DW	05db4H
	DW	05db8H
	DW	05db9H
	DW	05dc3H
	DW	05dc7H
	DW	05dcbH
	DW	05dd0H
	DW	05dceH
	DW	05dd8H
	DW	05dd9H
	DW	05de0H
	DW	05de4H
	DW	05de9H
	DW	05df8H
	DW	05df9H
	DW	05e00H
	DW	05e07H
	DW	05e0dH
	DW	05e12H
	DW	05e14H
	DW	05e15H
	DW	05e18H
	DW	05e1fH
	DW	05e20H
	DW	05e2eH
	DW	05e28H
	DW	05e32H
	DW	05e35H
	DW	05e3eH
	DW	05e4bH
	DW	05e50H
	DW	05e49H
	DW	05e51H
	DW	05e56H
	DW	05e58H
	DW	05e5bH
	DW	05e5cH
	DW	05e5eH
	DW	05e68H
	DW	05e6aH
	DW	05e6bH
	DW	05e6cH
	DW	05e6dH
	DW	05e6eH
	DW	05e70H
	DW	05e80H
	DW	05e8bH
	DW	05e8eH
	DW	05ea2H
	DW	05ea4H
	DW	05ea5H
	DW	05ea8H
	DW	05eaaH
	DW	05eacH
	DW	05eb1H
	DW	05eb3H
	DW	05ebdH
	DW	05ebeH
	DW	05ebfH
	DW	05ec6H
	DW	05eccH
	DW	05ecbH
	DW	05eceH
	DW	05ed1H
	DW	05ed2H
	DW	05ed4H
	DW	05ed5H
	DW	05edcH
	DW	05edeH
	DW	05ee5H
	DW	05eebH
	DW	05f02H
	DW	05f06H
	DW	05f07H
	DW	05f08H
	DW	05f0eH
	DW	05f19H
	DW	05f1cH
	DW	05f1dH
	DW	05f21H
	DW	05f22H
	DW	05f23H
	DW	05f24H
	DW	05f28H
	DW	05f2bH
	DW	05f2cH
	DW	05f2eH
	DW	05f30H
	DW	05f34H
	DW	05f36H
	DW	05f3bH
	DW	05f3dH
	DW	05f3fH
	DW	05f40H
	DW	05f44H
	DW	05f45H
	DW	05f47H
	DW	05f4dH
	DW	05f50H
	DW	05f54H
	DW	05f58H
	DW	05f5bH
	DW	05f60H
	DW	05f63H
	DW	05f64H
	DW	05f67H
	DW	05f6fH
	DW	05f72H
	DW	05f74H
	DW	05f75H
	DW	05f78H
	DW	05f7aH
	DW	05f7dH
	DW	05f7eH
	DW	05f89H
	DW	05f8dH
	DW	05f8fH
	DW	05f96H
	DW	05f9cH
	DW	05f9dH
	DW	05fa2H
	DW	05fa7H
	DW	05fabH
	DW	05fa4H
	DW	05facH
	DW	05fafH
	DW	05fb0H
	DW	05fb1H
	DW	05fb8H
	DW	05fc4H
	DW	05fc7H
	DW	05fc8H
	DW	05fc9H
	DW	05fcbH
	DW	05fd0H
	DW	05fd1H
	DW	05fd2H
	DW	05fd3H
	DW	05fd4H
	DW	05fdeH
	DW	05fe1H
	DW	05fe2H
	DW	05fe8H
	DW	05fe9H
	DW	05feaH
	DW	05fecH
	DW	05fedH
	DW	05feeH
	DW	05fefH
	DW	05ff2H
	DW	05ff3H
	DW	05ff6H
	DW	05ffaH
	DW	05ffcH
	DW	06007H
	DW	0600aH
	DW	0600dH
	DW	06013H
	DW	06014H
	DW	06017H
	DW	06018H
	DW	0601aH
	DW	0601fH
	DW	06024H
	DW	0602dH
	DW	06033H
	DW	06035H
	DW	06040H
	DW	06047H
	DW	06048H
	DW	06049H
	DW	0604cH
	DW	06051H
	DW	06054H
	DW	06056H
	DW	06057H
	DW	0605dH
	DW	06061H
	DW	06067H
	DW	06071H
	DW	0607eH
	DW	0607fH
	DW	06082H
	DW	06086H
	DW	06088H
	DW	0608aH
	DW	0608eH
	DW	06091H
	DW	06093H
	DW	06095H
	DW	06098H
	DW	0609dH
	DW	0609eH
	DW	060a2H
	DW	060a4H
	DW	060a5H
	DW	060a8H
	DW	060b0H
	DW	060b1H
	DW	060b7H
	DW	060bbH
	DW	060beH
	DW	060c2H
	DW	060c4H
	DW	060c8H
	DW	060c9H
	DW	060caH
	DW	060cbH
	DW	060ceH
	DW	060cfH
	DW	060d4H
	DW	060d5H
	DW	060d9H
	DW	060dbH
	DW	060ddH
	DW	060deH
	DW	060e2H
	DW	060e5H
	DW	060f2H
	DW	060f5H
	DW	060f8H
	DW	060fcH
	DW	060fdH
	DW	06102H
	DW	06107H
	DW	0610aH
	DW	0610cH
	DW	06110H
	DW	06111H
	DW	06112H
	DW	06113H
	DW	06114H
	DW	06116H
	DW	06117H
	DW	06119H
	DW	0611cH
	DW	0611eH
	DW	06122H
	DW	0612aH
	DW	0612bH
	DW	06130H
	DW	06131H
	DW	06135H
	DW	06136H
	DW	06137H
	DW	06139H
	DW	06141H
	DW	06145H
	DW	06146H
	DW	06149H
	DW	0615eH
	DW	06160H
	DW	0616cH
	DW	06172H
	DW	06178H
	DW	0617bH
	DW	0617cH
	DW	0617fH
	DW	06180H
	DW	06181H
	DW	06183H
	DW	06184H
	DW	0618bH
	DW	0618dH
	DW	06192H
	DW	06193H
	DW	06197H
	DW	06198H
	DW	0619cH
	DW	0619dH
	DW	0619fH
	DW	061a0H
	DW	061a5H
	DW	061a8H
	DW	061aaH
	DW	061adH
	DW	061b8H
	DW	061b9H
	DW	061bcH
	DW	061c0H
	DW	061c1H
	DW	061c2H
	DW	061ceH
	DW	061cfH
	DW	061d5H
	DW	061dcH
	DW	061ddH
	DW	061deH
	DW	061dfH
	DW	061e1H
	DW	061e2H
	DW	061e7H
	DW	061e9H
	DW	061e5H
	DW	061ecH
	DW	061edH
	DW	061efH
	DW	06201H
	DW	06203H
	DW	06204H
	DW	06207H
	DW	06213H
	DW	06215H
	DW	0621cH
	DW	06220H
	DW	06222H
	DW	06223H
	DW	06227H
	DW	06229H
	DW	0622bH
	DW	06239H
	DW	0623dH
	DW	06242H
	DW	06243H
	DW	06244H
	DW	06246H
	DW	0624cH
	DW	06250H
	DW	06251H
	DW	06252H
	DW	06254H
	DW	06256H
	DW	0625aH
	DW	0625cH
	DW	06264H
	DW	0626dH
	DW	0626fH
	DW	06273H
	DW	0627aH
	DW	0627dH
	DW	0628dH
	DW	0628eH
	DW	0628fH
	DW	06290H
	DW	062a6H
	DW	062a8H
	DW	062b3H
	DW	062b6H
	DW	062b7H
	DW	062baH
	DW	062beH
	DW	062bfH
	DW	062c4H
	DW	062ceH
	DW	062d5H
	DW	062d6H
	DW	062daH
	DW	062eaH
	DW	062f2H
	DW	062f4H
	DW	062fcH
	DW	062fdH
	DW	06303H
	DW	06304H
	DW	0630aH
	DW	0630bH
	DW	0630dH
	DW	06310H
	DW	06313H
	DW	06316H
	DW	06318H
	DW	06329H
	DW	0632aH
	DW	0632dH
	DW	06335H
	DW	06336H
	DW	06339H
	DW	0633cH
	DW	06341H
	DW	06342H
	DW	06343H
	DW	06344H
	DW	06346H
	DW	0634aH
	DW	0634bH
	DW	0634eH
	DW	06352H
	DW	06353H
	DW	06354H
	DW	06358H
	DW	0635bH
	DW	06365H
	DW	06366H
	DW	0636cH
	DW	0636dH
	DW	06371H
	DW	06374H
	DW	06375H
	DW	06378H
	DW	0637cH
	DW	0637dH
	DW	0637fH
	DW	06382H
	DW	06384H
	DW	06387H
	DW	0638aH
	DW	06390H
	DW	06394H
	DW	06395H
	DW	06399H
	DW	0639aH
	DW	0639eH
	DW	063a4H
	DW	063a6H
	DW	063adH
	DW	063aeH
	DW	063afH
	DW	063bdH
	DW	063c1H
	DW	063c5H
	DW	063c8H
	DW	063ceH
	DW	063d1H
	DW	063d3H
	DW	063d4H
	DW	063d5H
	DW	063dcH
	DW	063e0H
	DW	063e5H
	DW	063eaH
	DW	063ecH
	DW	063f2H
	DW	063f3H
	DW	063f5H
	DW	063f8H
	DW	063f9H
	DW	06409H
	DW	0640aH
	DW	06410H
	DW	06412H
	DW	06414H
	DW	06418H
	DW	0641eH
	DW	06420H
	DW	06422H
	DW	06424H
	DW	06425H
	DW	06429H
	DW	0642aH
	DW	0642fH
	DW	06430H
	DW	06435H
	DW	0643dH
	DW	0643fH
	DW	0644bH
	DW	0644fH
	DW	06451H
	DW	06452H
	DW	06453H
	DW	06454H
	DW	0645aH
	DW	0645bH
	DW	0645cH
	DW	0645dH
	DW	0645fH
	DW	06460H
	DW	06461H
	DW	06463H
	DW	0646dH
	DW	06473H
	DW	06474H
	DW	0647bH
	DW	0647dH
	DW	06485H
	DW	06487H
	DW	0648fH
	DW	06490H
	DW	06491H
	DW	06498H
	DW	06499H
	DW	0649bH
	DW	0649dH
	DW	0649fH
	DW	064a1H
	DW	064a3H
	DW	064a6H
	DW	064a8H
	DW	064acH
	DW	064b3H
	DW	064bdH
	DW	064beH
	DW	064bfH
	DW	064c4H
	DW	064c9H
	DW	064caH
	DW	064cbH
	DW	064ccH
	DW	064ceH
	DW	064d0H
	DW	064d1H
	DW	064d5H
	DW	064d7H
	DW	064e4H
	DW	064e5H
	DW	064e9H
	DW	064eaH
	DW	064edH
	DW	064f0H
	DW	064f5H
	DW	064f7H
	DW	064fbH
	DW	064ffH
	DW	06501H
	DW	06504H
	DW	06508H
	DW	06509H
	DW	0650aH
	DW	0650fH
	DW	06513H
	DW	06514H
	DW	06516H
	DW	06519H
	DW	0651bH
	DW	0651eH
	DW	0651fH
	DW	06522H
	DW	06526H
	DW	06529H
	DW	0652eH
	DW	06531H
	DW	0653aH
	DW	0653cH
	DW	0653dH
	DW	06543H
	DW	06547H
	DW	06549H
	DW	06550H
	DW	06552H
	DW	06554H
	DW	0655fH
	DW	06560H
	DW	06567H
	DW	0656bH
	DW	0657aH
	DW	0657dH
	DW	06581H
	DW	06585H
	DW	0658aH
	DW	06592H
	DW	06595H
	DW	06598H
	DW	0659dH
	DW	065a0H
	DW	065a3H
	DW	065a6H
	DW	065aeH
	DW	065b2H
	DW	065b3H
	DW	065b4H
	DW	065bfH
	DW	065c2H
	DW	065c8H
	DW	065c9H
	DW	065ceH
	DW	065d0H
	DW	065d4H
	DW	065d6H
	DW	065d8H
	DW	065dfH
	DW	065f0H
	DW	065f2H
	DW	065f4H
	DW	065f5H
	DW	065f9H
	DW	065feH
	DW	065ffH
	DW	06600H
	DW	06604H
	DW	06608H
	DW	06609H
	DW	0660dH
	DW	06611H
	DW	06612H
	DW	06615H
	DW	06616H
	DW	0661dH
	DW	0661eH
	DW	06621H
	DW	06622H
	DW	06623H
	DW	06624H
	DW	06626H
	DW	06629H
	DW	0662aH
	DW	0662bH
	DW	0662cH
	DW	0662eH
	DW	06630H
	DW	06631H
	DW	06633H
	DW	06639H
	DW	06637H
	DW	06640H
	DW	06645H
	DW	06646H
	DW	0664aH
	DW	0664cH
	DW	06651H
	DW	0664eH
	DW	06657H
	DW	06658H
	DW	06659H
	DW	0665bH
	DW	0665cH
	DW	06660H
	DW	06661H
	DW	066fbH
	DW	0666aH
	DW	0666bH
	DW	0666cH
	DW	0667eH
	DW	06673H
	DW	06675H
	DW	0667fH
	DW	06677H
	DW	06678H
	DW	06679H
	DW	0667bH
	DW	06680H
	DW	0667cH
	DW	0668bH
	DW	0668cH
	DW	0668dH
	DW	06690H
	DW	06692H
	DW	06699H
	DW	0669aH
	DW	0669bH
	DW	0669cH
	DW	0669fH
	DW	066a0H
	DW	066a4H
	DW	066adH
	DW	066b1H
	DW	066b2H
	DW	066b5H
	DW	066bbH
	DW	066bfH
	DW	066c0H
	DW	066c2H
	DW	066c3H
	DW	066c8H
	DW	066ccH
	DW	066ceH
	DW	066cfH
	DW	066d4H
	DW	066dbH
	DW	066dfH
	DW	066e8H
	DW	066ebH
	DW	066ecH
	DW	066eeH
	DW	066faH
	DW	06705H
	DW	06707H
	DW	0670eH
	DW	06713H
	DW	06719H
	DW	0671cH
	DW	06720H
	DW	06722H
	DW	06733H
	DW	0673eH
	DW	06745H
	DW	06747H
	DW	06748H
	DW	0674cH
	DW	06754H
	DW	06755H
	DW	0675dH
	DW	06766H
	DW	0676cH
	DW	0676eH
	DW	06774H
	DW	06776H
	DW	0677bH
	DW	06781H
	DW	06784H
	DW	0678eH
	DW	0678fH
	DW	06791H
	DW	06793H
	DW	06796H
	DW	06798H
	DW	06799H
	DW	0679bH
	DW	067b0H
	DW	067b1H
	DW	067b2H
	DW	067b5H
	DW	067bbH
	DW	067bcH
	DW	067bdH
	DW	067f9H
	DW	067c0H
	DW	067c2H
	DW	067c3H
	DW	067c5H
	DW	067c8H
	DW	067c9H
	DW	067d2H
	DW	067d7H
	DW	067d9H
	DW	067dcH
	DW	067e1H
	DW	067e6H
	DW	067f0H
	DW	067f2H
	DW	067f6H
	DW	067f7H
	DW	06852H
	DW	06814H
	DW	06819H
	DW	0681dH
	DW	0681fH
	DW	06828H
	DW	06827H
	DW	0682cH
	DW	0682dH
	DW	0682fH
	DW	06830H
	DW	06831H
	DW	06833H
	DW	0683bH
	DW	0683fH
	DW	06844H
	DW	06845H
	DW	0684aH
	DW	0684cH
	DW	06855H
	DW	06857H
	DW	06858H
	DW	0685bH
	DW	0686bH
	DW	0686eH
	DW	0686fH
	DW	06870H
	DW	06871H
	DW	06872H
	DW	06875H
	DW	06879H
	DW	0687aH
	DW	0687bH
	DW	0687cH
	DW	06882H
	DW	06884H
	DW	06886H
	DW	06888H
	DW	06896H
	DW	06898H
	DW	0689aH
	DW	0689cH
	DW	068a1H
	DW	068a3H
	DW	068a5H
	DW	068a9H
	DW	068aaH
	DW	068aeH
	DW	068b2H
	DW	068bbH
	DW	068c5H
	DW	068c8H
	DW	068ccH
	DW	068cfH
	DW	068d0H
	DW	068d1H
	DW	068d3H
	DW	068d6H
	DW	068d9H
	DW	068dcH
	DW	068ddH
	DW	068e5H
	DW	068e8H
	DW	068eaH
	DW	068ebH
	DW	068ecH
	DW	068edH
	DW	068f0H
	DW	068f1H
	DW	068f5H
	DW	068f6H
	DW	068fbH
	DW	068fcH
	DW	068fdH
	DW	06906H
	DW	06909H
	DW	0690aH
	DW	06910H
	DW	06911H
	DW	06913H
	DW	06916H
	DW	06917H
	DW	06931H
	DW	06933H
	DW	06935H
	DW	06938H
	DW	0693bH
	DW	06942H
	DW	06945H
	DW	06949H
	DW	0694eH
	DW	06957H
	DW	0695bH
	DW	06963H
	DW	06964H
	DW	06965H
	DW	06966H
	DW	06968H
	DW	06969H
	DW	0696cH
	DW	06970H
	DW	06971H
	DW	06972H
	DW	0697aH
	DW	0697bH
	DW	0697fH
	DW	06980H
	DW	0698dH
	DW	06992H
	DW	06996H
	DW	06998H
	DW	069a1H
	DW	069a5H
	DW	069a6H
	DW	069a8H
	DW	069abH
	DW	069adH
	DW	069afH
	DW	069b7H
	DW	069b8H
	DW	069baH
	DW	069bcH
	DW	069c5H
	DW	069c8H
	DW	069d1H
	DW	069d6H
	DW	069d7H
	DW	069e2H
	DW	069e5H
	DW	069eeH
	DW	069efH
	DW	069f1H
	DW	069f3H
	DW	069f5H
	DW	069feH
	DW	06a00H
	DW	06a01H
	DW	06a03H
	DW	06a0fH
	DW	06a11H
	DW	06a15H
	DW	06a1aH
	DW	06a1dH
	DW	06a20H
	DW	06a24H
	DW	06a28H
	DW	06a30H
	DW	06a32H
	DW	06a34H
	DW	06a37H
	DW	06a3bH
	DW	06a3eH
	DW	06a3fH
	DW	06a45H
	DW	06a46H
	DW	06a49H
	DW	06a4aH
	DW	06a4eH
	DW	06a50H
	DW	06a51H
	DW	06a52H
	DW	06a55H
	DW	06a56H
	DW	06a5bH
	DW	06a64H
	DW	06a67H
	DW	06a6aH
	DW	06a71H
	DW	06a73H
	DW	06a7eH
	DW	06a81H
	DW	06a83H
	DW	06a86H
	DW	06a87H
	DW	06a89H
	DW	06a8bH
	DW	06a91H
	DW	06a9bH
	DW	06a9dH
	DW	06a9eH
	DW	06a9fH
	DW	06aa5H
	DW	06aabH
	DW	06aafH
	DW	06ab0H
	DW	06ab1H
	DW	06ab4H
	DW	06abdH
	DW	06abeH
	DW	06abfH
	DW	06ac6H
	DW	06ac9H
	DW	06ac8H
	DW	06accH
	DW	06ad0H
	DW	06ad4H
	DW	06ad5H
	DW	06ad6H
	DW	06adcH
	DW	06addH
	DW	06ae4H
	DW	06ae7H
	DW	06aecH
	DW	06af0H
	DW	06af1H
	DW	06af2H
	DW	06afcH
	DW	06afdH
	DW	06b02H
	DW	06b03H
	DW	06b06H
	DW	06b07H
	DW	06b09H
	DW	06b0fH
	DW	06b10H
	DW	06b11H
	DW	06b17H
	DW	06b1bH
	DW	06b1eH
	DW	06b24H
	DW	06b28H
	DW	06b2bH
	DW	06b2cH
	DW	06b2fH
	DW	06b35H
	DW	06b36H
	DW	06b3bH
	DW	06b3fH
	DW	06b46H
	DW	06b4aH
	DW	06b4dH
	DW	06b52H
	DW	06b56H
	DW	06b58H
	DW	06b5dH
	DW	06b60H
	DW	06b67H
	DW	06b6bH
	DW	06b6eH
	DW	06b70H
	DW	06b75H
	DW	06b7dH
	DW	06b7eH
	DW	06b82H
	DW	06b85H
	DW	06b97H
	DW	06b9bH
	DW	06b9fH
	DW	06ba0H
	DW	06ba2H
	DW	06ba3H
	DW	06ba8H
	DW	06ba9H
	DW	06bacH
	DW	06badH
	DW	06baeH
	DW	06bb0H
	DW	06bb8H
	DW	06bb9H
	DW	06bbdH
	DW	06bbeH
	DW	06bc3H
	DW	06bc4H
	DW	06bc9H
	DW	06bccH
	DW	06bd6H
	DW	06bdaH
	DW	06be1H
	DW	06be3H
	DW	06be6H
	DW	06be7H
	DW	06beeH
	DW	06bf1H
	DW	06bf7H
	DW	06bf9H
	DW	06bffH
	DW	06c02H
	DW	06c04H
	DW	06c05H
	DW	06c09H
	DW	06c0dH
	DW	06c0eH
	DW	06c10H
	DW	06c12H
	DW	06c19H
	DW	06c1fH
	DW	06c26H
	DW	06c27H
	DW	06c28H
	DW	06c2cH
	DW	06c2eH
	DW	06c33H
	DW	06c35H
	DW	06c36H
	DW	06c3aH
	DW	06c3bH
	DW	06c3fH
	DW	06c4aH
	DW	06c4bH
	DW	06c4dH
	DW	06c4fH
	DW	06c52H
	DW	06c54H
	DW	06c59H
	DW	06c5bH
	DW	06c5cH
	DW	06c6bH
	DW	06c6dH
	DW	06c6fH
	DW	06c74H
	DW	06c76H
	DW	06c78H
	DW	06c79H
	DW	06c7bH
	DW	06c85H
	DW	06c86H
	DW	06c87H
	DW	06c89H
	DW	06c94H
	DW	06c95H
	DW	06c97H
	DW	06c98H
	DW	06c9cH
	DW	06c9fH
	DW	06cb0H
	DW	06cb2H
	DW	06cb4H
	DW	06cc2H
	DW	06cc6H
	DW	06ccdH
	DW	06ccfH
	DW	06cd0H
	DW	06cd1H
	DW	06cd2H
	DW	06cd4H
	DW	06cd6H
	DW	06cdaH
	DW	06cdcH
	DW	06ce0H
	DW	06ce7H
	DW	06ce9H
	DW	06cebH
	DW	06cecH
	DW	06ceeH
	DW	06cf2H
	DW	06cf4H
	DW	06d04H
	DW	06d07H
	DW	06d0aH
	DW	06d0eH
	DW	06d0fH
	DW	06d11H
	DW	06d13H
	DW	06d1aH
	DW	06d26H
	DW	06d27H
	DW	06d28H
	DW	06c67H
	DW	06d2eH
	DW	06d2fH
	DW	06d31H
	DW	06d39H
	DW	06d3cH
	DW	06d3fH
	DW	06d57H
	DW	06d5eH
	DW	06d5fH
	DW	06d61H
	DW	06d65H
	DW	06d67H
	DW	06d6fH
	DW	06d70H
	DW	06d7cH
	DW	06d82H
	DW	06d87H
	DW	06d91H
	DW	06d92H
	DW	06d94H
	DW	06d96H
	DW	06d97H
	DW	06d98H
	DW	06daaH
	DW	06dacH
	DW	06db4H
	DW	06db7H
	DW	06db9H
	DW	06dbdH
	DW	06dbfH
	DW	06dc4H
	DW	06dc8H
	DW	06dcaH
	DW	06dceH
	DW	06dcfH
	DW	06dd6H
	DW	06ddbH
	DW	06dddH
	DW	06ddfH
	DW	06de0H
	DW	06de2H
	DW	06de5H
	DW	06de9H
	DW	06defH
	DW	06df0H
	DW	06df4H
	DW	06df6H
	DW	06dfcH
	DW	06e00H
	DW	06e04H
	DW	06e1eH
	DW	06e22H
	DW	06e27H
	DW	06e32H
	DW	06e36H
	DW	06e39H
	DW	06e3bH
	DW	06e3cH
	DW	06e44H
	DW	06e45H
	DW	06e48H
	DW	06e49H
	DW	06e4bH
	DW	06e4fH
	DW	06e51H
	DW	06e52H
	DW	06e53H
	DW	06e54H
	DW	06e57H
	DW	06e5cH
	DW	06e5dH
	DW	06e5eH
	DW	06e62H
	DW	06e63H
	DW	06e68H
	DW	06e73H
	DW	06e7bH
	DW	06e7dH
	DW	06e8dH
	DW	06e93H
	DW	06e99H
	DW	06ea0H
	DW	06ea7H
	DW	06eadH
	DW	06eaeH
	DW	06eb1H
	DW	06eb3H
	DW	06ebbH
	DW	06ebfH
	DW	06ec0H
	DW	06ec1H
	DW	06ec3H
	DW	06ec7H
	DW	06ec8H
	DW	06ecaH
	DW	06ecdH
	DW	06eceH
	DW	06ecfH
	DW	06eebH
	DW	06eedH
	DW	06eeeH
	DW	06ef9H
	DW	06efbH
	DW	06efdH
	DW	06f04H
	DW	06f08H
	DW	06f0aH
	DW	06f0cH
	DW	06f0dH
	DW	06f16H
	DW	06f18H
	DW	06f1aH
	DW	06f1bH
	DW	06f26H
	DW	06f29H
	DW	06f2aH
	DW	06f2fH
	DW	06f30H
	DW	06f33H
	DW	06f36H
	DW	06f3bH
	DW	06f3cH
	DW	06f2dH
	DW	06f4fH
	DW	06f51H
	DW	06f52H
	DW	06f53H
	DW	06f57H
	DW	06f59H
	DW	06f5aH
	DW	06f5dH
	DW	06f5eH
	DW	06f61H
	DW	06f62H
	DW	06f68H
	DW	06f6cH
	DW	06f7dH
	DW	06f7eH
	DW	06f83H
	DW	06f87H
	DW	06f88H
	DW	06f8bH
	DW	06f8cH
	DW	06f8dH
	DW	06f90H
	DW	06f92H
	DW	06f93H
	DW	06f94H
	DW	06f96H
	DW	06f9aH
	DW	06f9fH
	DW	06fa0H
	DW	06fa5H
	DW	06fa6H
	DW	06fa7H
	DW	06fa8H
	DW	06faeH
	DW	06fafH
	DW	06fb0H
	DW	06fb5H
	DW	06fb6H
	DW	06fbcH
	DW	06fc5H
	DW	06fc7H
	DW	06fc8H
	DW	06fcaH
	DW	06fdaH
	DW	06fdeH
	DW	06fe8H
	DW	06fe9H
	DW	06ff0H
	DW	06ff5H
	DW	06ff9H
	DW	06ffcH
	DW	06ffdH
	DW	07000H
	DW	07005H
	DW	07006H
	DW	07007H
	DW	0700dH
	DW	07017H
	DW	07020H
	DW	07023H
	DW	0702fH
	DW	07034H
	DW	07037H
	DW	07039H
	DW	0703cH
	DW	07043H
	DW	07044H
	DW	07048H
	DW	07049H
	DW	0704aH
	DW	0704bH
	DW	07054H
	DW	07055H
	DW	0705dH
	DW	0705eH
	DW	0704eH
	DW	07064H
	DW	07065H
	DW	0706cH
	DW	0706eH
	DW	07075H
	DW	07076H
	DW	0707eH
	DW	07081H
	DW	07085H
	DW	07086H
	DW	07094H
	DW	07095H
	DW	07096H
	DW	07097H
	DW	07098H
	DW	0709bH
	DW	070a4H
	DW	070abH
	DW	070b0H
	DW	070b1H
	DW	070b4H
	DW	070b7H
	DW	070caH
	DW	070d1H
	DW	070d3H
	DW	070d4H
	DW	070d5H
	DW	070d6H
	DW	070d8H
	DW	070dcH
	DW	070e4H
	DW	070faH
	DW	07103H
	DW	07104H
	DW	07105H
	DW	07106H
	DW	07107H
	DW	0710bH
	DW	0710cH
	DW	0710fH
	DW	0711eH
	DW	07120H
	DW	0712bH
	DW	0712dH
	DW	0712fH
	DW	07130H
	DW	07131H
	DW	07138H
	DW	07141H
	DW	07145H
	DW	07146H
	DW	07147H
	DW	0714aH
	DW	0714bH
	DW	07150H
	DW	07152H
	DW	07157H
	DW	0715aH
	DW	0715cH
	DW	0715eH
	DW	07160H
	DW	07168H
	DW	07179H
	DW	07180H
	DW	07185H
	DW	07187H
	DW	0718cH
	DW	07192H
	DW	0719aH
	DW	0719bH
	DW	071a0H
	DW	071a2H
	DW	071afH
	DW	071b0H
	DW	071b2H
	DW	071b3H
	DW	071baH
	DW	071bfH
	DW	071c0H
	DW	071c1H
	DW	071c4H
	DW	071cbH
	DW	071ccH
	DW	071d3H
	DW	071d6H
	DW	071d9H
	DW	071daH
	DW	071dcH
	DW	071f8H
	DW	071feH
	DW	07200H
	DW	07207H
	DW	07208H
	DW	07209H
	DW	07213H
	DW	07217H
	DW	0721aH
	DW	0721dH
	DW	0721fH
	DW	07224H
	DW	0722bH
	DW	0722fH
	DW	07234H
	DW	07238H
	DW	07239H
	DW	07241H
	DW	07242H
	DW	07243H
	DW	07245H
	DW	0724eH
	DW	0724fH
	DW	07250H
	DW	07253H
	DW	07255H
	DW	07256H
	DW	0725aH
	DW	0725cH
	DW	0725eH
	DW	07260H
	DW	07263H
	DW	07268H
	DW	0726bH
	DW	0726eH
	DW	0726fH
	DW	07271H
	DW	07277H
	DW	07278H
	DW	0727bH
	DW	0727cH
	DW	0727fH
	DW	07284H
	DW	07289H
	DW	0728dH
	DW	0728eH
	DW	07293H
	DW	0729bH
	DW	072a8H
	DW	072adH
	DW	072aeH
	DW	072b1H
	DW	072b4H
	DW	072beH
	DW	072c1H
	DW	072c7H
	DW	072c9H
	DW	072ccH
	DW	072d5H
	DW	072d6H
	DW	072d8H
	DW	072dfH
	DW	072e5H
	DW	072f3H
	DW	072f4H
	DW	072faH
	DW	072fbH
	DW	072feH
	DW	07302H
	DW	07304H
	DW	07305H
	DW	07307H
	DW	0730bH
	DW	0730dH
	DW	07312H
	DW	07313H
	DW	07318H
	DW	07319H
	DW	0731eH
	DW	07322H
	DW	07324H
	DW	07327H
	DW	07328H
	DW	0732cH
	DW	07331H
	DW	07332H
	DW	07335H
	DW	0733aH
	DW	0733bH
	DW	0733dH
	DW	07343H
	DW	0734dH
	DW	07350H
	DW	07352H
	DW	07356H
	DW	07358H
	DW	0735dH
	DW	0735eH
	DW	0735fH
	DW	07360H
	DW	07366H
	DW	07367H
	DW	07369H
	DW	0736bH
	DW	0736cH
	DW	0736eH
	DW	0736fH
	DW	07371H
	DW	07377H
	DW	07379H
	DW	0737cH
	DW	07380H
	DW	07381H
	DW	07383H
	DW	07385H
	DW	07386H
	DW	0738eH
	DW	07390H
	DW	07393H
	DW	07395H
	DW	07397H
	DW	07398H
	DW	0739cH
	DW	0739eH
	DW	0739fH
	DW	073a0H
	DW	073a2H
	DW	073a5H
	DW	073a6H
	DW	073aaH
	DW	073abH
	DW	073adH
	DW	073b5H
	DW	073b7H
	DW	073b9H
	DW	073bcH
	DW	073bdH
	DW	073bfH
	DW	073c5H
	DW	073c6H
	DW	073c9H
	DW	073cbH
	DW	073ccH
	DW	073cfH
	DW	073d2H
	DW	073d3H
	DW	073d6H
	DW	073d9H
	DW	073ddH
	DW	073e1H
	DW	073e3H
	DW	073e6H
	DW	073e7H
	DW	073e9H
	DW	073f4H
	DW	073f5H
	DW	073f7H
	DW	073f9H
	DW	073faH
	DW	073fbH
	DW	073fdH
	DW	073ffH
	DW	07400H
	DW	07401H
	DW	07404H
	DW	07407H
	DW	0740aH
	DW	07411H
	DW	0741aH
	DW	0741bH
	DW	07424H
	DW	07426H
	DW	07428H
	DW	07429H
	DW	0742aH
	DW	0742bH
	DW	0742cH
	DW	0742dH
	DW	0742eH
	DW	0742fH
	DW	07430H
	DW	07431H
	DW	07439H
	DW	07440H
	DW	07443H
	DW	07444H
	DW	07446H
	DW	07447H
	DW	0744bH
	DW	0744dH
	DW	07451H
	DW	07452H
	DW	07457H
	DW	0745dH
	DW	07462H
	DW	07466H
	DW	07467H
	DW	07468H
	DW	0746bH
	DW	0746dH
	DW	0746eH
	DW	07471H
	DW	07472H
	DW	07480H
	DW	07481H
	DW	07485H
	DW	07486H
	DW	07487H
	DW	07489H
	DW	0748fH
	DW	07490H
	DW	07491H
	DW	07492H
	DW	07498H
	DW	07499H
	DW	0749aH
	DW	0749cH
	DW	0749fH
	DW	074a0H
	DW	074a1H
	DW	074a3H
	DW	074a6H
	DW	074a8H
	DW	074a9H
	DW	074aaH
	DW	074abH
	DW	074aeH
	DW	074afH
	DW	074b1H
	DW	074b2H
	DW	074b5H
	DW	074b9H
	DW	074bbH
	DW	074bfH
	DW	074c8H
	DW	074c9H
	DW	074ccH
	DW	074d0H
	DW	074d3H
	DW	074d8H
	DW	074daH
	DW	074dbH
	DW	074deH
	DW	074dfH
	DW	074e4H
	DW	074e8H
	DW	074eaH
	DW	074ebH
	DW	074efH
	DW	074f4H
	DW	074faH
	DW	074fbH
	DW	074fcH
	DW	074ffH
	DW	07506H
	DW	07512H
	DW	07516H
	DW	07517H
	DW	07520H
	DW	07521H
	DW	07524H
	DW	07527H
	DW	07529H
	DW	0752aH
	DW	0752fH
	DW	07536H
	DW	07539H
	DW	0753dH
	DW	0753eH
	DW	0753fH
	DW	07540H
	DW	07543H
	DW	07547H
	DW	07548H
	DW	0754eH
	DW	07550H
	DW	07552H
	DW	07557H
	DW	0755eH
	DW	0755fH
	DW	07561H
	DW	0756fH
	DW	07571H
	DW	07579H
	DW	0757aH
	DW	0757bH
	DW	0757cH
	DW	0757dH
	DW	0757eH
	DW	07581H
	DW	07585H
	DW	07590H
	DW	07592H
	DW	07593H
	DW	07595H
	DW	07599H
	DW	0759cH
	DW	075a2H
	DW	075a4H
	DW	075b4H
	DW	075baH
	DW	075bfH
	DW	075c0H
	DW	075c1H
	DW	075c4H
	DW	075c6H
	DW	075ccH
	DW	075ceH
	DW	075cfH
	DW	075d7H
	DW	075dcH
	DW	075dfH
	DW	075e0H
	DW	075e1H
	DW	075e4H
	DW	075e7H
	DW	075ecH
	DW	075eeH
	DW	075efH
	DW	075f1H
	DW	075f9H
	DW	07600H
	DW	07602H
	DW	07603H
	DW	07604H
	DW	07607H
	DW	07608H
	DW	0760aH
	DW	0760cH
	DW	0760fH
	DW	07612H
	DW	07613H
	DW	07615H
	DW	07616H
	DW	07619H
	DW	0761bH
	DW	0761cH
	DW	0761dH
	DW	0761eH
	DW	07623H
	DW	07625H
	DW	07626H
	DW	07629H
	DW	0762dH
	DW	07632H
	DW	07633H
	DW	07635H
	DW	07638H
	DW	07639H
	DW	0763aH
	DW	0763cH
	DW	0764aH
	DW	07640H
	DW	07641H
	DW	07643H
	DW	07644H
	DW	07645H
	DW	07649H
	DW	0764bH
	DW	07655H
	DW	07659H
	DW	0765fH
	DW	07664H
	DW	07665H
	DW	0766dH
	DW	0766eH
	DW	0766fH
	DW	07671H
	DW	07674H
	DW	07681H
	DW	07685H
	DW	0768cH
	DW	0768dH
	DW	07695H
	DW	0769bH
	DW	0769cH
	DW	0769dH
	DW	0769fH
	DW	076a0H
	DW	076a2H
	DW	076a3H
	DW	076a4H
	DW	076a5H
	DW	076a6H
	DW	076a7H
	DW	076a8H
	DW	076aaH
	DW	076adH
	DW	076bdH
	DW	076c1H
	DW	076c5H
	DW	076c9H
	DW	076cbH
	DW	076ccH
	DW	076ceH
	DW	076d4H
	DW	076d9H
	DW	076e0H
	DW	076e6H
	DW	076e8H
	DW	076ecH
	DW	076f0H
	DW	076f1H
	DW	076f6H
	DW	076f9H
	DW	076fcH
	DW	07700H
	DW	07706H
	DW	0770aH
	DW	0770eH
	DW	07712H
	DW	07714H
	DW	07715H
	DW	07717H
	DW	07719H
	DW	0771aH
	DW	0771cH
	DW	07722H
	DW	07728H
	DW	0772dH
	DW	0772eH
	DW	0772fH
	DW	07734H
	DW	07735H
	DW	07736H
	DW	07739H
	DW	0773dH
	DW	0773eH
	DW	07742H
	DW	07745H
	DW	07746H
	DW	0774aH
	DW	0774dH
	DW	0774eH
	DW	0774fH
	DW	07752H
	DW	07756H
	DW	07757H
	DW	0775cH
	DW	0775eH
	DW	0775fH
	DW	07760H
	DW	07762H
	DW	07764H
	DW	07767H
	DW	0776aH
	DW	0776cH
	DW	07770H
	DW	07772H
	DW	07773H
	DW	07774H
	DW	0777aH
	DW	0777dH
	DW	07780H
	DW	07784H
	DW	0778cH
	DW	0778dH
	DW	07794H
	DW	07795H
	DW	07796H
	DW	0779aH
	DW	0779fH
	DW	077a2H
	DW	077a7H
	DW	077aaH
	DW	077aeH
	DW	077afH
	DW	077b1H
	DW	077b5H
	DW	077beH
	DW	077c3H
	DW	077c9H
	DW	077d1H
	DW	077d2H
	DW	077d5H
	DW	077d9H
	DW	077deH
	DW	077dfH
	DW	077e0H
	DW	077e4H
	DW	077e6H
	DW	077eaH
	DW	077ecH
	DW	077f0H
	DW	077f1H
	DW	077f4H
	DW	077f8H
	DW	077fbH
	DW	07805H
	DW	07806H
	DW	07809H
	DW	0780dH
	DW	0780eH
	DW	07811H
	DW	0781dH
	DW	07821H
	DW	07822H
	DW	07823H
	DW	0782dH
	DW	0782eH
	DW	07830H
	DW	07835H
	DW	07837H
	DW	07843H
	DW	07844H
	DW	07847H
	DW	07848H
	DW	0784cH
	DW	0784eH
	DW	07852H
	DW	0785cH
	DW	0785eH
	DW	07860H
	DW	07861H
	DW	07863H
	DW	07864H
	DW	07868H
	DW	0786aH
	DW	0786eH
	DW	0787aH
	DW	0787eH
	DW	0788aH
	DW	0788fH
	DW	07894H
	DW	07898H
	DW	078a1H
	DW	0789dH
	DW	0789eH
	DW	0789fH
	DW	078a4H
	DW	078a8H
	DW	078acH
	DW	078adH
	DW	078b0H
	DW	078b1H
	DW	078b2H
	DW	078b3H
	DW	078bbH
	DW	078bdH
	DW	078bfH
	DW	078c7H
	DW	078c8H
	DW	078c9H
	DW	078ccH
	DW	078ceH
	DW	078d2H
	DW	078d3H
	DW	078d5H
	DW	078d6H
	DW	078e4H
	DW	078dbH
	DW	078dfH
	DW	078e0H
	DW	078e1H
	DW	078e6H
	DW	078eaH
	DW	078f2H
	DW	078f3H
	DW	07900H
	DW	078f6H
	DW	078f7H
	DW	078faH
	DW	078fbH
	DW	078ffH
	DW	07906H
	DW	0790cH
	DW	07910H
	DW	0791aH
	DW	0791cH
	DW	0791eH
	DW	0791fH
	DW	07920H
	DW	07925H
	DW	07927H
	DW	07929H
	DW	0792dH
	DW	07931H
	DW	07934H
	DW	07935H
	DW	0793bH
	DW	0793dH
	DW	0793fH
	DW	07944H
	DW	07945H
	DW	07946H
	DW	0794aH
	DW	0794bH
	DW	0794fH
	DW	07951H
	DW	07954H
	DW	07958H
	DW	0795bH
	DW	0795cH
	DW	07967H
	DW	07969H
	DW	0796bH
	DW	07972H
	DW	07979H
	DW	0797bH
	DW	0797cH
	DW	0797eH
	DW	0798bH
	DW	0798cH
	DW	07991H
	DW	07993H
	DW	07994H
	DW	07995H
	DW	07996H
	DW	07998H
	DW	0799bH
	DW	0799cH
	DW	079a1H
	DW	079a8H
	DW	079a9H
	DW	079abH
	DW	079afH
	DW	079b1H
	DW	079b4H
	DW	079b8H
	DW	079bbH
	DW	079c2H
	DW	079c4H
	DW	079c7H
	DW	079c8H
	DW	079caH
	DW	079cfH
	DW	079d4H
	DW	079d6H
	DW	079daH
	DW	079ddH
	DW	079deH
	DW	079e0H
	DW	079e2H
	DW	079e5H
	DW	079eaH
	DW	079ebH
	DW	079edH
	DW	079f1H
	DW	079f8H
	DW	079fcH
	DW	07a02H
	DW	07a03H
	DW	07a07H
	DW	07a09H
	DW	07a0aH
	DW	07a0cH
	DW	07a11H
	DW	07a15H
	DW	07a1bH
	DW	07a1eH
	DW	07a21H
	DW	07a27H
	DW	07a2bH
	DW	07a2dH
	DW	07a2fH
	DW	07a30H
	DW	07a34H
	DW	07a35H
	DW	07a38H
	DW	07a39H
	DW	07a3aH
	DW	07a44H
	DW	07a45H
	DW	07a47H
	DW	07a48H
	DW	07a4cH
	DW	07a55H
	DW	07a56H
	DW	07a59H
	DW	07a5cH
	DW	07a5dH
	DW	07a5fH
	DW	07a60H
	DW	07a65H
	DW	07a67H
	DW	07a6aH
	DW	07a6dH
	DW	07a75H
	DW	07a78H
	DW	07a7eH
	DW	07a80H
	DW	07a82H
	DW	07a85H
	DW	07a86H
	DW	07a8aH
	DW	07a8bH
	DW	07a90H
	DW	07a91H
	DW	07a94H
	DW	07a9eH
	DW	07aa0H
	DW	07aa3H
	DW	07aacH
	DW	07ab3H
	DW	07ab5H
	DW	07ab9H
	DW	07abbH
	DW	07abcH
	DW	07ac6H
	DW	07ac9H
	DW	07accH
	DW	07aceH
	DW	07ad1H
	DW	07adbH
	DW	07ae8H
	DW	07ae9H
	DW	07aebH
	DW	07aecH
	DW	07af1H
	DW	07af4H
	DW	07afbH
	DW	07afdH
	DW	07afeH
	DW	07b07H
	DW	07b14H
	DW	07b1fH
	DW	07b23H
	DW	07b27H
	DW	07b29H
	DW	07b2aH
	DW	07b2bH
	DW	07b2dH
	DW	07b2eH
	DW	07b2fH
	DW	07b30H
	DW	07b31H
	DW	07b34H
	DW	07b3dH
	DW	07b3fH
	DW	07b40H
	DW	07b41H
	DW	07b47H
	DW	07b4eH
	DW	07b55H
	DW	07b60H
	DW	07b64H
	DW	07b66H
	DW	07b69H
	DW	07b6aH
	DW	07b6dH
	DW	07b6fH
	DW	07b72H
	DW	07b73H
	DW	07b77H
	DW	07b84H
	DW	07b89H
	DW	07b8eH
	DW	07b90H
	DW	07b91H
	DW	07b96H
	DW	07b9bH
	DW	07b9eH
	DW	07ba0H
	DW	07ba5H
	DW	07bacH
	DW	07bafH
	DW	07bb0H
	DW	07bb2H
	DW	07bb5H
	DW	07bb6H
	DW	07bbaH
	DW	07bbbH
	DW	07bbcH
	DW	07bbdH
	DW	07bc2H
	DW	07bc5H
	DW	07bc8H
	DW	07bcaH
	DW	07bd4H
	DW	07bd6H
	DW	07bd7H
	DW	07bd9H
	DW	07bdaH
	DW	07bdbH
	DW	07be8H
	DW	07beaH
	DW	07bf2H
	DW	07bf4H
	DW	07bf5H
	DW	07bf8H
	DW	07bf9H
	DW	07bfaH
	DW	07bfcH
	DW	07bfeH
	DW	07c01H
	DW	07c02H
	DW	07c03H
	DW	07c04H
	DW	07c06H
	DW	07c09H
	DW	07c0bH
	DW	07c0cH
	DW	07c0eH
	DW	07c0fH
	DW	07c19H
	DW	07c1bH
	DW	07c20H
	DW	07c25H
	DW	07c26H
	DW	07c28H
	DW	07c2cH
	DW	07c31H
	DW	07c33H
	DW	07c34H
	DW	07c36H
	DW	07c39H
	DW	07c3aH
	DW	07c46H
	DW	07c4aH
	DW	07c55H
	DW	07c51H
	DW	07c52H
	DW	07c53H
	DW	07c59H
	DW	07c5aH
	DW	07c5bH
	DW	07c5cH
	DW	07c5dH
	DW	07c5eH
	DW	07c61H
	DW	07c63H
	DW	07c67H
	DW	07c69H
	DW	07c6dH
	DW	07c6eH
	DW	07c70H
	DW	07c72H
	DW	07c79H
	DW	07c7cH
	DW	07c7dH
	DW	07c86H
	DW	07c87H
	DW	07c8fH
	DW	07c94H
	DW	07c9eH
	DW	07ca0H
	DW	07ca6H
	DW	07cb0H
	DW	07cb6H
	DW	07cb7H
	DW	07cbaH
	DW	07cbbH
	DW	07cbcH
	DW	07cbfH
	DW	07cc4H
	DW	07cc7H
	DW	07cc8H
	DW	07cc9H
	DW	07ccdH
	DW	07ccfH
	DW	07cd3H
	DW	07cd4H
	DW	07cd5H
	DW	07cd7H
	DW	07cd9H
	DW	07cdaH
	DW	07cddH
	DW	07ce6H
	DW	07ce9H
	DW	07cebH
	DW	07cf5H
	DW	07d03H
	DW	07d07H
	DW	07d08H
	DW	07d09H
	DW	07d0fH
	DW	07d11H
	DW	07d12H
	DW	07d13H
	DW	07d16H
	DW	07d1dH
	DW	07d1eH
	DW	07d23H
	DW	07d26H
	DW	07d2aH
	DW	07d2dH
	DW	07d31H
	DW	07d3cH
	DW	07d3dH
	DW	07d3eH
	DW	07d40H
	DW	07d41H
	DW	07d47H
	DW	07d48H
	DW	07d4dH
	DW	07d51H
	DW	07d53H
	DW	07d57H
	DW	07d59H
	DW	07d5aH
	DW	07d5cH
	DW	07d5dH
	DW	07d65H
	DW	07d67H
	DW	07d6aH
	DW	07d70H
	DW	07d78H
	DW	07d7aH
	DW	07d7bH
	DW	07d7fH
	DW	07d81H
	DW	07d82H
	DW	07d83H
	DW	07d85H
	DW	07d86H
	DW	07d88H
	DW	07d8bH
	DW	07d8cH
	DW	07d8dH
	DW	07d91H
	DW	07d96H
	DW	07d97H
	DW	07d9dH
	DW	07d9eH
	DW	07da6H
	DW	07da7H
	DW	07daaH
	DW	07db3H
	DW	07db6H
	DW	07db7H
	DW	07db9H
	DW	07dc2H
	DW	07dc3H
	DW	07dc4H
	DW	07dc5H
	DW	07dc6H
	DW	07dccH
	DW	07dcdH
	DW	07dceH
	DW	07dd7H
	DW	07dd9H
	DW	07e00H
	DW	07de2H
	DW	07de5H
	DW	07de6H
	DW	07deaH
	DW	07debH
	DW	07dedH
	DW	07df1H
	DW	07df5H
	DW	07df6H
	DW	07df9H
	DW	07dfaH
	DW	07e08H
	DW	07e10H
	DW	07e11H
	DW	07e15H
	DW	07e17H
	DW	07e1cH
	DW	07e1dH
	DW	07e20H
	DW	07e27H
	DW	07e28H
	DW	07e2cH
	DW	07e2dH
	DW	07e2fH
	DW	07e33H
	DW	07e36H
	DW	07e3fH
	DW	07e44H
	DW	07e45H
	DW	07e47H
	DW	07e4eH
	DW	07e50H
	DW	07e52H
	DW	07e58H
	DW	07e5fH
	DW	07e61H
	DW	07e62H
	DW	07e65H
	DW	07e6bH
	DW	07e6eH
	DW	07e6fH
	DW	07e73H
	DW	07e78H
	DW	07e7eH
	DW	07e81H
	DW	07e86H
	DW	07e87H
	DW	07e8aH
	DW	07e8dH
	DW	07e91H
	DW	07e95H
	DW	07e98H
	DW	07e9aH
	DW	07e9dH
	DW	07e9eH
	DW	07f3cH
	DW	07f3bH
	DW	07f3dH
	DW	07f3eH
	DW	07f3fH
	DW	07f43H
	DW	07f44H
	DW	07f47H
	DW	07f4fH
	DW	07f52H
	DW	07f53H
	DW	07f5bH
	DW	07f5cH
	DW	07f5dH
	DW	07f61H
	DW	07f63H
	DW	07f64H
	DW	07f65H
	DW	07f66H
	DW	07f6dH
	DW	07f71H
	DW	07f7dH
	DW	07f7eH
	DW	07f7fH
	DW	07f80H
	DW	07f8bH
	DW	07f8dH
	DW	07f8fH
	DW	07f90H
	DW	07f91H
	DW	07f96H
	DW	07f97H
	DW	07f9cH
	DW	07fa1H
	DW	07fa2H
	DW	07fa6H
	DW	07faaH
	DW	07fadH
	DW	07fb4H
	DW	07fbcH
	DW	07fbfH
	DW	07fc0H
	DW	07fc3H
	DW	07fc8H
	DW	07fceH
	DW	07fcfH
	DW	07fdbH
	DW	07fdfH
	DW	07fe3H
	DW	07fe5H
	DW	07fe8H
	DW	07fecH
	DW	07feeH
	DW	07fefH
	DW	07ff2H
	DW	07ffaH
	DW	07ffdH
	DW	07ffeH
	DW	07fffH
	DW	08007H
	DW	08008H
	DW	0800aH
	DW	0800dH
	DW	0800eH
	DW	0800fH
	DW	08011H
	DW	08013H
	DW	08014H
	DW	08016H
	DW	0801dH
	DW	0801eH
	DW	0801fH
	DW	08020H
	DW	08024H
	DW	08026H
	DW	0802cH
	DW	0802eH
	DW	08030H
	DW	08034H
	DW	08035H
	DW	08037H
	DW	08039H
	DW	0803aH
	DW	0803cH
	DW	0803eH
	DW	08040H
	DW	08044H
	DW	08060H
	DW	08064H
	DW	08066H
	DW	0806dH
	DW	08071H
	DW	08075H
	DW	08081H
	DW	08088H
	DW	0808eH
	DW	0809cH
	DW	0809eH
	DW	080a6H
	DW	080a7H
	DW	080abH
	DW	080b8H
	DW	080b9H
	DW	080c8H
	DW	080cdH
	DW	080cfH
	DW	080d2H
	DW	080d4H
	DW	080d5H
	DW	080d7H
	DW	080d8H
	DW	080e0H
	DW	080edH
	DW	080eeH
	DW	080f0H
	DW	080f2H
	DW	080f3H
	DW	080f6H
	DW	080f9H
	DW	080faH
	DW	080feH
	DW	08103H
	DW	0810bH
	DW	08116H
	DW	08117H
	DW	08118H
	DW	0811cH
	DW	0811eH
	DW	08120H
	DW	08124H
	DW	08127H
	DW	0812cH
	DW	08130H
	DW	08135H
	DW	0813aH
	DW	0813cH
	DW	08145H
	DW	08147H
	DW	0814aH
	DW	0814cH
	DW	08152H
	DW	08157H
	DW	08160H
	DW	08161H
	DW	08167H
	DW	08168H
	DW	08169H
	DW	0816dH
	DW	0816fH
	DW	08177H
	DW	08181H
	DW	08190H
	DW	08184H
	DW	08185H
	DW	08186H
	DW	0818bH
	DW	0818eH
	DW	08196H
	DW	08198H
	DW	0819bH
	DW	0819eH
	DW	081a2H
	DW	081aeH
	DW	081b2H
	DW	081b4H
	DW	081bbH
	DW	081cbH
	DW	081c3H
	DW	081c5H
	DW	081caH
	DW	081ceH
	DW	081cfH
	DW	081d5H
	DW	081d7H
	DW	081dbH
	DW	081ddH
	DW	081deH
	DW	081e1H
	DW	081e4H
	DW	081ebH
	DW	081ecH
	DW	081f0H
	DW	081f1H
	DW	081f2H
	DW	081f5H
	DW	081f6H
	DW	081f8H
	DW	081f9H
	DW	081fdH
	DW	081ffH
	DW	08200H
	DW	08203H
	DW	0820fH
	DW	08213H
	DW	08214H
	DW	08219H
	DW	0821aH
	DW	0821dH
	DW	08221H
	DW	08222H
	DW	08228H
	DW	08232H
	DW	08234H
	DW	0823aH
	DW	08243H
	DW	08244H
	DW	08245H
	DW	08246H
	DW	0824bH
	DW	0824eH
	DW	0824fH
	DW	08251H
	DW	08256H
	DW	0825cH
	DW	08260H
	DW	08263H
	DW	08267H
	DW	0826dH
	DW	08274H
	DW	0827bH
	DW	0827dH
	DW	0827fH
	DW	08280H
	DW	08281H
	DW	08283H
	DW	08284H
	DW	08287H
	DW	08289H
	DW	0828aH
	DW	0828eH
	DW	08291H
	DW	08294H
	DW	08296H
	DW	08298H
	DW	0829aH
	DW	0829bH
	DW	082a0H
	DW	082a1H
	DW	082a3H
	DW	082a4H
	DW	082a7H
	DW	082a8H
	DW	082a9H
	DW	082aaH
	DW	082aeH
	DW	082b0H
	DW	082b2H
	DW	082b4H
	DW	082b7H
	DW	082baH
	DW	082bcH
	DW	082beH
	DW	082bfH
	DW	082c6H
	DW	082d0H
	DW	082d5H
	DW	082daH
	DW	082e0H
	DW	082e2H
	DW	082e4H
	DW	082e8H
	DW	082eaH
	DW	082edH
	DW	082efH
	DW	082f6H
	DW	082f7H
	DW	082fdH
	DW	082feH
	DW	08300H
	DW	08301H
	DW	08307H
	DW	08308H
	DW	0830aH
	DW	0830bH
	DW	08354H
	DW	0831bH
	DW	0831dH
	DW	0831eH
	DW	0831fH
	DW	08321H
	DW	08322H
	DW	0832cH
	DW	0832dH
	DW	0832eH
	DW	08330H
	DW	08333H
	DW	08337H
	DW	0833aH
	DW	0833cH
	DW	0833dH
	DW	08342H
	DW	08343H
	DW	08344H
	DW	08347H
	DW	0834dH
	DW	0834eH
	DW	08351H
	DW	08355H
	DW	08356H
	DW	08357H
	DW	08370H
	DW	08378H
	DW	0837dH
	DW	0837fH
	DW	08380H
	DW	08382H
	DW	08384H
	DW	08386H
	DW	0838dH
	DW	08392H
	DW	08394H
	DW	08395H
	DW	08398H
	DW	08399H
	DW	0839bH
	DW	0839cH
	DW	0839dH
	DW	083a6H
	DW	083a7H
	DW	083a9H
	DW	083acH
	DW	083beH
	DW	083bfH
	DW	083c0H
	DW	083c7H
	DW	083c9H
	DW	083cfH
	DW	083d0H
	DW	083d1H
	DW	083d4H
	DW	083ddH
	DW	08353H
	DW	083e8H
	DW	083eaH
	DW	083f6H
	DW	083f8H
	DW	083f9H
	DW	083fcH
	DW	08401H
	DW	08406H
	DW	0840aH
	DW	0840fH
	DW	08411H
	DW	08415H
	DW	08419H
	DW	083adH
	DW	0842fH
	DW	08439H
	DW	08445H
	DW	08447H
	DW	08448H
	DW	0844aH
	DW	0844dH
	DW	0844fH
	DW	08451H
	DW	08452H
	DW	08456H
	DW	08458H
	DW	08459H
	DW	0845aH
	DW	0845cH
	DW	08460H
	DW	08464H
	DW	08465H
	DW	08467H
	DW	0846aH
	DW	08470H
	DW	08473H
	DW	08474H
	DW	08476H
	DW	08478H
	DW	0847cH
	DW	0847dH
	DW	08481H
	DW	08485H
	DW	08492H
	DW	08493H
	DW	08495H
	DW	0849eH
	DW	084a6H
	DW	084a8H
	DW	084a9H
	DW	084aaH
	DW	084afH
	DW	084b1H
	DW	084b4H
	DW	084baH
	DW	084bdH
	DW	084beH
	DW	084c0H
	DW	084c2H
	DW	084c7H
	DW	084c8H
	DW	084ccH
	DW	084cfH
	DW	084d3H
	DW	084dcH
	DW	084e7H
	DW	084eaH
	DW	084efH
	DW	084f0H
	DW	084f1H
	DW	084f2H
	DW	084f7H
	DW	08532H
	DW	084faH
	DW	084fbH
	DW	084fdH
	DW	08502H
	DW	08503H
	DW	08507H
	DW	0850cH
	DW	0850eH
	DW	08510H
	DW	0851cH
	DW	0851eH
	DW	08522H
	DW	08523H
	DW	08524H
	DW	08525H
	DW	08527H
	DW	0852aH
	DW	0852bH
	DW	0852fH
	DW	08533H
	DW	08534H
	DW	08536H
	DW	0853fH
	DW	08546H
	DW	0854fH
	DW	08550H
	DW	08551H
	DW	08552H
	DW	08553H
	DW	08556H
	DW	08559H
	DW	0855cH
	DW	0855dH
	DW	0855eH
	DW	0855fH
	DW	08560H
	DW	08561H
	DW	08562H
	DW	08564H
	DW	0856bH
	DW	0856fH
	DW	08579H
	DW	0857aH
	DW	0857bH
	DW	0857dH
	DW	0857fH
	DW	08581H
	DW	08585H
	DW	08586H
	DW	08589H
	DW	0858bH
	DW	0858cH
	DW	0858fH
	DW	08593H
	DW	08598H
	DW	0859dH
	DW	0859fH
	DW	085a0H
	DW	085a2H
	DW	085a5H
	DW	085a7H
	DW	085b4H
	DW	085b6H
	DW	085b7H
	DW	085b8H
	DW	085bcH
	DW	085bdH
	DW	085beH
	DW	085bfH
	DW	085c2H
	DW	085c7H
	DW	085caH
	DW	085cbH
	DW	085ceH
	DW	085adH
	DW	085d8H
	DW	085daH
	DW	085dfH
	DW	085e0H
	DW	085e6H
	DW	085e8H
	DW	085edH
	DW	085f3H
	DW	085f6H
	DW	085fcH
	DW	085ffH
	DW	08600H
	DW	08604H
	DW	08605H
	DW	0860dH
	DW	0860eH
	DW	08610H
	DW	08611H
	DW	08612H
	DW	08618H
	DW	08619H
	DW	0861bH
	DW	0861eH
	DW	08621H
	DW	08627H
	DW	08629H
	DW	08636H
	DW	08638H
	DW	0863aH
	DW	0863cH
	DW	0863dH
	DW	08640H
	DW	08642H
	DW	08646H
	DW	08652H
	DW	08653H
	DW	08656H
	DW	08657H
	DW	08658H
	DW	08659H
	DW	0865dH
	DW	08660H
	DW	08661H
	DW	08662H
	DW	08663H
	DW	08664H
	DW	08669H
	DW	0866cH
	DW	0866fH
	DW	08675H
	DW	08676H
	DW	08677H
	DW	0867aH
	DW	0868dH
	DW	08691H
	DW	08696H
	DW	08698H
	DW	0869aH
	DW	0869cH
	DW	086a1H
	DW	086a6H
	DW	086a7H
	DW	086a8H
	DW	086adH
	DW	086b1H
	DW	086b3H
	DW	086b4H
	DW	086b5H
	DW	086b7H
	DW	086b8H
	DW	086b9H
	DW	086bfH
	DW	086c0H
	DW	086c1H
	DW	086c3H
	DW	086c5H
	DW	086d1H
	DW	086d2H
	DW	086d5H
	DW	086d7H
	DW	086daH
	DW	086dcH
	DW	086e0H
	DW	086e3H
	DW	086e5H
	DW	086e7H
	DW	08688H
	DW	086faH
	DW	086fcH
	DW	086fdH
	DW	08704H
	DW	08705H
	DW	08707H
	DW	0870bH
	DW	0870eH
	DW	0870fH
	DW	08710H
	DW	08713H
	DW	08714H
	DW	08719H
	DW	0871eH
	DW	0871fH
	DW	08721H
	DW	08723H
	DW	08728H
	DW	0872eH
	DW	0872fH
	DW	08731H
	DW	08732H
	DW	08739H
	DW	0873aH
	DW	0873cH
	DW	0873dH
	DW	0873eH
	DW	08740H
	DW	08743H
	DW	08745H
	DW	0874dH
	DW	08758H
	DW	0875dH
	DW	08761H
	DW	08764H
	DW	08765H
	DW	0876fH
	DW	08771H
	DW	08772H
	DW	0877bH
	DW	08783H
	DW	08784H
	DW	08785H
	DW	08786H
	DW	08787H
	DW	08788H
	DW	08789H
	DW	0878bH
	DW	0878cH
	DW	08790H
	DW	08793H
	DW	08795H
	DW	08797H
	DW	08798H
	DW	08799H
	DW	0879eH
	DW	087a0H
	DW	087a3H
	DW	087a7H
	DW	087acH
	DW	087adH
	DW	087aeH
	DW	087b1H
	DW	087b5H
	DW	087beH
	DW	087bfH
	DW	087c1H
	DW	087c8H
	DW	087c9H
	DW	087caH
	DW	087ceH
	DW	087d5H
	DW	087d6H
	DW	087d9H
	DW	087daH
	DW	087dcH
	DW	087dfH
	DW	087e2H
	DW	087e3H
	DW	087e4H
	DW	087eaH
	DW	087ebH
	DW	087edH
	DW	087f1H
	DW	087f3H
	DW	087f8H
	DW	087faH
	DW	087ffH
	DW	08801H
	DW	08803H
	DW	08806H
	DW	08809H
	DW	0880aH
	DW	0880bH
	DW	08810H
	DW	08819H
	DW	08812H
	DW	08813H
	DW	08814H
	DW	08818H
	DW	0881aH
	DW	0881bH
	DW	0881cH
	DW	0881eH
	DW	0881fH
	DW	08828H
	DW	0882dH
	DW	0882eH
	DW	08830H
	DW	08832H
	DW	08835H
	DW	0883aH
	DW	0883cH
	DW	08841H
	DW	08843H
	DW	08845H
	DW	08848H
	DW	08849H
	DW	0884aH
	DW	0884bH
	DW	0884eH
	DW	08851H
	DW	08855H
	DW	08856H
	DW	08858H
	DW	0885aH
	DW	0885cH
	DW	0885fH
	DW	08860H
	DW	08864H
	DW	08869H
	DW	08871H
	DW	08879H
	DW	0887bH
	DW	08880H
	DW	08898H
	DW	0889aH
	DW	0889bH
	DW	0889cH
	DW	0889fH
	DW	088a0H
	DW	088a8H
	DW	088aaH
	DW	088baH
	DW	088bdH
	DW	088beH
	DW	088c0H
	DW	088caH
	DW	088cbH
	DW	088ccH
	DW	088cdH
	DW	088ceH
	DW	088d1H
	DW	088d2H
	DW	088d3H
	DW	088dbH
	DW	088deH
	DW	088e7H
	DW	088efH
	DW	088f0H
	DW	088f1H
	DW	088f5H
	DW	088f7H
	DW	08901H
	DW	08906H
	DW	0890dH
	DW	0890eH
	DW	0890fH
	DW	08915H
	DW	08916H
	DW	08918H
	DW	08919H
	DW	0891aH
	DW	0891cH
	DW	08920H
	DW	08926H
	DW	08927H
	DW	08928H
	DW	08930H
	DW	08931H
	DW	08932H
	DW	08935H
	DW	08939H
	DW	0893aH
	DW	0893eH
	DW	08940H
	DW	08942H
	DW	08945H
	DW	08946H
	DW	08949H
	DW	0894fH
	DW	08952H
	DW	08957H
	DW	0895aH
	DW	0895bH
	DW	0895cH
	DW	08961H
	DW	08962H
	DW	08963H
	DW	0896bH
	DW	0896eH
	DW	08970H
	DW	08973H
	DW	08975H
	DW	0897aH
	DW	0897bH
	DW	0897cH
	DW	0897dH
	DW	08989H
	DW	0898dH
	DW	08990H
	DW	08994H
	DW	08995H
	DW	0899bH
	DW	0899cH
	DW	0899fH
	DW	089a0H
	DW	089a5H
	DW	089b0H
	DW	089b4H
	DW	089b5H
	DW	089b6H
	DW	089b7H
	DW	089bcH
	DW	089d4H
	DW	089d5H
	DW	089d6H
	DW	089d7H
	DW	089d8H
	DW	089e5H
	DW	089e9H
	DW	089ebH
	DW	089edH
	DW	089f1H
	DW	089f3H
	DW	089f6H
	DW	089f9H
	DW	089fdH
	DW	089ffH
	DW	08a04H
	DW	08a05H
	DW	08a07H
	DW	08a0fH
	DW	08a11H
	DW	08a12H
	DW	08a14H
	DW	08a15H
	DW	08a1eH
	DW	08a20H
	DW	08a22H
	DW	08a24H
	DW	08a26H
	DW	08a2bH
	DW	08a2cH
	DW	08a2fH
	DW	08a35H
	DW	08a37H
	DW	08a3dH
	DW	08a3eH
	DW	08a40H
	DW	08a43H
	DW	08a45H
	DW	08a47H
	DW	08a49H
	DW	08a4dH
	DW	08a4eH
	DW	08a53H
	DW	08a56H
	DW	08a57H
	DW	08a58H
	DW	08a5cH
	DW	08a5dH
	DW	08a61H
	DW	08a65H
	DW	08a67H
	DW	08a75H
	DW	08a76H
	DW	08a77H
	DW	08a79H
	DW	08a7aH
	DW	08a7bH
	DW	08a7eH
	DW	08a7fH
	DW	08a80H
	DW	08a83H
	DW	08a86H
	DW	08a8bH
	DW	08a8fH
	DW	08a90H
	DW	08a92H
	DW	08a96H
	DW	08a97H
	DW	08a99H
	DW	08a9fH
	DW	08aa7H
	DW	08aa9H
	DW	08aaeH
	DW	08aafH
	DW	08ab3H
	DW	08ab6H
	DW	08ab7H
	DW	08abbH
	DW	08abeH
	DW	08ac3H
	DW	08ac6H
	DW	08ac8H
	DW	08ac9H
	DW	08acaH
	DW	08ad1H
	DW	08ad3H
	DW	08ad4H
	DW	08ad5H
	DW	08ad7H
	DW	08addH
	DW	08adfH
	DW	08aecH
	DW	08af0H
	DW	08af4H
	DW	08af5H
	DW	08af6H
	DW	08afcH
	DW	08affH
	DW	08b05H
	DW	08b06H
	DW	08b0bH
	DW	08b11H
	DW	08b1cH
	DW	08b1eH
	DW	08b1fH
	DW	08b0aH
	DW	08b2dH
	DW	08b30H
	DW	08b37H
	DW	08b3cH
	DW	08b42H
	DW	08b43H
	DW	08b44H
	DW	08b45H
	DW	08b46H
	DW	08b48H
	DW	08b52H
	DW	08b53H
	DW	08b54H
	DW	08b59H
	DW	08b4dH
	DW	08b5eH
	DW	08b63H
	DW	08b6dH
	DW	08b76H
	DW	08b78H
	DW	08b79H
	DW	08b7cH
	DW	08b7eH
	DW	08b81H
	DW	08b84H
	DW	08b85H
	DW	08b8bH
	DW	08b8dH
	DW	08b8fH
	DW	08b94H
	DW	08b95H
	DW	08b9cH
	DW	08b9eH
	DW	08b9fH
	DW	08c38H
	DW	08c39H
	DW	08c3dH
	DW	08c3eH
	DW	08c45H
	DW	08c47H
	DW	08c49H
	DW	08c4bH
	DW	08c4fH
	DW	08c51H
	DW	08c53H
	DW	08c54H
	DW	08c57H
	DW	08c58H
	DW	08c5bH
	DW	08c5dH
	DW	08c59H
	DW	08c63H
	DW	08c64H
	DW	08c66H
	DW	08c68H
	DW	08c69H
	DW	08c6dH
	DW	08c73H
	DW	08c75H
	DW	08c76H
	DW	08c7bH
	DW	08c7eH
	DW	08c86H
	DW	08c87H
	DW	08c8bH
	DW	08c90H
	DW	08c92H
	DW	08c93H
	DW	08c99H
	DW	08c9bH
	DW	08c9cH
	DW	08ca4H
	DW	08cb9H
	DW	08cbaH
	DW	08cc5H
	DW	08cc6H
	DW	08cc9H
	DW	08ccbH
	DW	08ccfH
	DW	08cd6H
	DW	08cd5H
	DW	08cd9H
	DW	08cddH
	DW	08ce1H
	DW	08ce8H
	DW	08cecH
	DW	08cefH
	DW	08cf0H
	DW	08cf2H
	DW	08cf5H
	DW	08cf7H
	DW	08cf8H
	DW	08cfeH
	DW	08cffH
	DW	08d01H
	DW	08d03H
	DW	08d09H
	DW	08d12H
	DW	08d17H
	DW	08d1bH
	DW	08d65H
	DW	08d69H
	DW	08d6cH
	DW	08d6eH
	DW	08d7fH
	DW	08d82H
	DW	08d84H
	DW	08d88H
	DW	08d8dH
	DW	08d90H
	DW	08d91H
	DW	08d95H
	DW	08d9eH
	DW	08d9fH
	DW	08da0H
	DW	08da6H
	DW	08dabH
	DW	08dacH
	DW	08dafH
	DW	08db2H
	DW	08db5H
	DW	08db7H
	DW	08db9H
	DW	08dbbH
	DW	08dc0H
	DW	08dc5H
	DW	08dc6H
	DW	08dc7H
	DW	08dc8H
	DW	08dcaH
	DW	08dceH
	DW	08dd1H
	DW	08dd4H
	DW	08dd5H
	DW	08dd7H
	DW	08dd9H
	DW	08de4H
	DW	08de5H
	DW	08de7H
	DW	08decH
	DW	08df0H
	DW	08dbcH
	DW	08df1H
	DW	08df2H
	DW	08df4H
	DW	08dfdH
	DW	08e01H
	DW	08e04H
	DW	08e05H
	DW	08e06H
	DW	08e0bH
	DW	08e11H
	DW	08e14H
	DW	08e16H
	DW	08e20H
	DW	08e21H
	DW	08e22H
	DW	08e23H
	DW	08e26H
	DW	08e27H
	DW	08e31H
	DW	08e33H
	DW	08e36H
	DW	08e37H
	DW	08e38H
	DW	08e39H
	DW	08e3dH
	DW	08e40H
	DW	08e41H
	DW	08e4bH
	DW	08e4dH
	DW	08e4eH
	DW	08e4fH
	DW	08e54H
	DW	08e5bH
	DW	08e5cH
	DW	08e5dH
	DW	08e5eH
	DW	08e61H
	DW	08e62H
	DW	08e69H
	DW	08e6cH
	DW	08e6dH
	DW	08e6fH
	DW	08e70H
	DW	08e71H
	DW	08e79H
	DW	08e7aH
	DW	08e7bH
	DW	08e82H
	DW	08e83H
	DW	08e89H
	DW	08e90H
	DW	08e92H
	DW	08e95H
	DW	08e9aH
	DW	08e9bH
	DW	08e9dH
	DW	08e9eH
	DW	08ea2H
	DW	08ea7H
	DW	08ea9H
	DW	08eadH
	DW	08eaeH
	DW	08eb3H
	DW	08eb5H
	DW	08ebaH
	DW	08ebbH
	DW	08ec0H
	DW	08ec1H
	DW	08ec3H
	DW	08ec4H
	DW	08ec7H
	DW	08ecfH
	DW	08ed1H
	DW	08ed4H
	DW	08edcH
	DW	08ee8H
	DW	08eeeH
	DW	08ef0H
	DW	08ef1H
	DW	08ef7H
	DW	08ef9H
	DW	08efaH
	DW	08eedH
	DW	08f00H
	DW	08f02H
	DW	08f07H
	DW	08f08H
	DW	08f0fH
	DW	08f10H
	DW	08f16H
	DW	08f17H
	DW	08f18H
	DW	08f1eH
	DW	08f20H
	DW	08f21H
	DW	08f23H
	DW	08f25H
	DW	08f27H
	DW	08f28H
	DW	08f2cH
	DW	08f2dH
	DW	08f2eH
	DW	08f34H
	DW	08f35H
	DW	08f36H
	DW	08f37H
	DW	08f3aH
	DW	08f40H
	DW	08f41H
	DW	08f43H
	DW	08f47H
	DW	08f4fH
	DW	08f51H
	DW	08f52H
	DW	08f53H
	DW	08f54H
	DW	08f55H
	DW	08f58H
	DW	08f5dH
	DW	08f5eH
	DW	08f65H
	DW	08f9dH
	DW	08fa0H
	DW	08fa1H
	DW	08fa4H
	DW	08fa5H
	DW	08fa6H
	DW	08fb5H
	DW	08fb6H
	DW	08fb8H
	DW	08fbeH
	DW	08fc0H
	DW	08fc1H
	DW	08fc6H
	DW	08fcaH
	DW	08fcbH
	DW	08fcdH
	DW	08fd0H
	DW	08fd2H
	DW	08fd3H
	DW	08fd5H
	DW	08fe0H
	DW	08fe3H
	DW	08fe4H
	DW	08fe8H
	DW	08feeH
	DW	08ff1H
	DW	08ff5H
	DW	08ff6H
	DW	08ffbH
	DW	08ffeH
	DW	09002H
	DW	09004H
	DW	09008H
	DW	0900cH
	DW	09018H
	DW	0901bH
	DW	09028H
	DW	09029H
	DW	0902fH
	DW	0902aH
	DW	0902cH
	DW	0902dH
	DW	09033H
	DW	09034H
	DW	09037H
	DW	0903fH
	DW	09043H
	DW	09044H
	DW	0904cH
	DW	0905bH
	DW	0905dH
	DW	09062H
	DW	09066H
	DW	09067H
	DW	0906cH
	DW	09070H
	DW	09074H
	DW	09079H
	DW	09085H
	DW	09088H
	DW	0908bH
	DW	0908cH
	DW	0908eH
	DW	09090H
	DW	09095H
	DW	09097H
	DW	09098H
	DW	09099H
	DW	0909bH
	DW	090a0H
	DW	090a1H
	DW	090a2H
	DW	090a5H
	DW	090b0H
	DW	090b2H
	DW	090b3H
	DW	090b4H
	DW	090b6H
	DW	090bdH
	DW	090ccH
	DW	090beH
	DW	090c3H
	DW	090c4H
	DW	090c5H
	DW	090c7H
	DW	090c8H
	DW	090d5H
	DW	090d7H
	DW	090d8H
	DW	090d9H
	DW	090dcH
	DW	090ddH
	DW	090dfH
	DW	090e5H
	DW	090d2H
	DW	090f6H
	DW	090ebH
	DW	090efH
	DW	090f0H
	DW	090f4H
	DW	090feH
	DW	090ffH
	DW	09100H
	DW	09104H
	DW	09105H
	DW	09106H
	DW	09108H
	DW	0910dH
	DW	09110H
	DW	09114H
	DW	09116H
	DW	09117H
	DW	09118H
	DW	0911aH
	DW	0911cH
	DW	0911eH
	DW	09120H
	DW	09125H
	DW	09122H
	DW	09123H
	DW	09127H
	DW	09129H
	DW	0912eH
	DW	0912fH
	DW	09131H
	DW	09134H
	DW	09136H
	DW	09137H
	DW	09139H
	DW	0913aH
	DW	0913cH
	DW	0913dH
	DW	09143H
	DW	09147H
	DW	09148H
	DW	0914fH
	DW	09153H
	DW	09157H
	DW	09159H
	DW	0915aH
	DW	0915bH
	DW	09161H
	DW	09164H
	DW	09167H
	DW	0916dH
	DW	09174H
	DW	09179H
	DW	0917aH
	DW	0917bH
	DW	09181H
	DW	09183H
	DW	09185H
	DW	09186H
	DW	0918aH
	DW	0918eH
	DW	09191H
	DW	09193H
	DW	09194H
	DW	09195H
	DW	09198H
	DW	0919eH
	DW	091a1H
	DW	091a6H
	DW	091a8H
	DW	091acH
	DW	091adH
	DW	091aeH
	DW	091b0H
	DW	091b1H
	DW	091b2H
	DW	091b3H
	DW	091b6H
	DW	091bbH
	DW	091bcH
	DW	091bdH
	DW	091bfH
	DW	091c2H
	DW	091c3H
	DW	091c5H
	DW	091d3H
	DW	091d4H
	DW	091d7H
	DW	091d9H
	DW	091daH
	DW	091deH
	DW	091e4H
	DW	091e5H
	DW	091e9H
	DW	091eaH
	DW	091ecH
	DW	091edH
	DW	091eeH
	DW	091efH
	DW	091f0H
	DW	091f1H
	DW	091f7H
	DW	091f9H
	DW	091fbH
	DW	091fdH
	DW	09200H
	DW	09201H
	DW	09204H
	DW	09205H
	DW	09206H
	DW	09207H
	DW	09209H
	DW	0920aH
	DW	0920cH
	DW	09210H
	DW	09212H
	DW	09213H
	DW	09216H
	DW	09218H
	DW	0921cH
	DW	0921dH
	DW	09223H
	DW	09224H
	DW	09225H
	DW	09226H
	DW	09228H
	DW	0922eH
	DW	0922fH
	DW	09230H
	DW	09233H
	DW	09235H
	DW	09236H
	DW	09238H
	DW	09239H
	DW	0923aH
	DW	0923cH
	DW	0923eH
	DW	09240H
	DW	09242H
	DW	09243H
	DW	09246H
	DW	09247H
	DW	0924aH
	DW	0924dH
	DW	0924eH
	DW	0924fH
	DW	09251H
	DW	09258H
	DW	09259H
	DW	0925cH
	DW	0925dH
	DW	09260H
	DW	09261H
	DW	09265H
	DW	09267H
	DW	09268H
	DW	09269H
	DW	0926eH
	DW	0926fH
	DW	09270H
	DW	09275H
	DW	09276H
	DW	09277H
	DW	09278H
	DW	09279H
	DW	0927bH
	DW	0927cH
	DW	0927dH
	DW	0927fH
	DW	09288H
	DW	09289H
	DW	0928aH
	DW	0928dH
	DW	0928eH
	DW	09292H
	DW	09297H
	DW	09299H
	DW	0929fH
	DW	092a0H
	DW	092a4H
	DW	092a5H
	DW	092a7H
	DW	092a8H
	DW	092abH
	DW	092afH
	DW	092b2H
	DW	092b6H
	DW	092b8H
	DW	092baH
	DW	092bbH
	DW	092bcH
	DW	092bdH
	DW	092bfH
	DW	092c0H
	DW	092c1H
	DW	092c2H
	DW	092c3H
	DW	092c5H
	DW	092c6H
	DW	092c7H
	DW	092c8H
	DW	092cbH
	DW	092ccH
	DW	092cdH
	DW	092ceH
	DW	092d0H
	DW	092d3H
	DW	092d5H
	DW	092d7H
	DW	092d8H
	DW	092d9H
	DW	092dcH
	DW	092ddH
	DW	092dfH
	DW	092e0H
	DW	092e1H
	DW	092e3H
	DW	092e5H
	DW	092e7H
	DW	092e8H
	DW	092ecH
	DW	092eeH
	DW	092f0H
	DW	092f9H
	DW	092fbH
	DW	092ffH
	DW	09300H
	DW	09302H
	DW	09308H
	DW	0930dH
	DW	09311H
	DW	09314H
	DW	09315H
	DW	0931cH
	DW	0931dH
	DW	0931eH
	DW	0931fH
	DW	09321H
	DW	09324H
	DW	09325H
	DW	09327H
	DW	09329H
	DW	0932aH
	DW	09333H
	DW	09334H
	DW	09336H
	DW	09337H
	DW	09347H
	DW	09348H
	DW	09349H
	DW	09350H
	DW	09351H
	DW	09352H
	DW	09355H
	DW	09357H
	DW	09358H
	DW	0935aH
	DW	0935eH
	DW	09364H
	DW	09365H
	DW	09367H
	DW	09369H
	DW	0936aH
	DW	0936dH
	DW	0936fH
	DW	09370H
	DW	09371H
	DW	09373H
	DW	09374H
	DW	09376H
	DW	0937aH
	DW	0937dH
	DW	0937fH
	DW	09380H
	DW	09381H
	DW	09382H
	DW	09388H
	DW	0938aH
	DW	0938bH
	DW	0938dH
	DW	0938fH
	DW	09392H
	DW	09395H
	DW	09398H
	DW	0939bH
	DW	0939eH
	DW	093a1H
	DW	093a3H
	DW	093a4H
	DW	093a6H
	DW	093a8H
	DW	093abH
	DW	093b4H
	DW	093b5H
	DW	093b6H
	DW	093baH
	DW	093a9H
	DW	093c1H
	DW	093c4H
	DW	093c5H
	DW	093c6H
	DW	093c7H
	DW	093c9H
	DW	093caH
	DW	093cbH
	DW	093ccH
	DW	093cdH
	DW	093d3H
	DW	093d9H
	DW	093dcH
	DW	093deH
	DW	093dfH
	DW	093e2H
	DW	093e6H
	DW	093e7H
	DW	093f9H
	DW	093f7H
	DW	093f8H
	DW	093faH
	DW	093fbH
	DW	093fdH
	DW	09401H
	DW	09402H
	DW	09404H
	DW	09408H
	DW	09409H
	DW	0940dH
	DW	0940eH
	DW	0940fH
	DW	09415H
	DW	09416H
	DW	09417H
	DW	0941fH
	DW	0942eH
	DW	0942fH
	DW	09431H
	DW	09432H
	DW	09433H
	DW	09434H
	DW	0943bH
	DW	0943fH
	DW	0943dH
	DW	09443H
	DW	09445H
	DW	09448H
	DW	0944aH
	DW	0944cH
	DW	09455H
	DW	09459H
	DW	0945cH
	DW	0945fH
	DW	09461H
	DW	09463H
	DW	09468H
	DW	0946bH
	DW	0946dH
	DW	0946eH
	DW	0946fH
	DW	09471H
	DW	09472H
	DW	09484H
	DW	09483H
	DW	09578H
	DW	09579H
	DW	0957eH
	DW	09584H
	DW	09588H
	DW	0958cH
	DW	0958dH
	DW	0958eH
	DW	0959dH
	DW	0959eH
	DW	0959fH
	DW	095a1H
	DW	095a6H
	DW	095a9H
	DW	095abH
	DW	095acH
	DW	095b4H
	DW	095b6H
	DW	095baH
	DW	095bdH
	DW	095bfH
	DW	095c6H
	DW	095c8H
	DW	095c9H
	DW	095cbH
	DW	095d0H
	DW	095d1H
	DW	095d2H
	DW	095d3H
	DW	095d9H
	DW	095daH
	DW	095ddH
	DW	095deH
	DW	095dfH
	DW	095e0H
	DW	095e4H
	DW	095e6H
	DW	0961dH
	DW	0961eH
	DW	09622H
	DW	09624H
	DW	09625H
	DW	09626H
	DW	0962cH
	DW	09631H
	DW	09633H
	DW	09637H
	DW	09638H
	DW	09639H
	DW	0963aH
	DW	0963cH
	DW	0963dH
	DW	09641H
	DW	09652H
	DW	09654H
	DW	09656H
	DW	09657H
	DW	09658H
	DW	09661H
	DW	0966eH
	DW	09674H
	DW	0967bH
	DW	0967cH
	DW	0967eH
	DW	0967fH
	DW	09681H
	DW	09682H
	DW	09683H
	DW	09684H
	DW	09689H
	DW	09691H
	DW	09696H
	DW	0969aH
	DW	0969dH
	DW	0969fH
	DW	096a4H
	DW	096a5H
	DW	096a6H
	DW	096a9H
	DW	096aeH
	DW	096afH
	DW	096b3H
	DW	096baH
	DW	096caH
	DW	096d2H
	DW	05db2H
	DW	096d8H
	DW	096daH
	DW	096ddH
	DW	096deH
	DW	096dfH
	DW	096e9H
	DW	096efH
	DW	096f1H
	DW	096faH
	DW	09702H
	DW	09703H
	DW	09705H
	DW	09709H
	DW	0971aH
	DW	0971bH
	DW	0971dH
	DW	09721H
	DW	09722H
	DW	09723H
	DW	09728H
	DW	09731H
	DW	09733H
	DW	09741H
	DW	09743H
	DW	0974aH
	DW	0974eH
	DW	0974fH
	DW	09755H
	DW	09757H
	DW	09758H
	DW	0975aH
	DW	0975bH
	DW	09763H
	DW	09767H
	DW	0976aH
	DW	0976eH
	DW	09773H
	DW	09776H
	DW	09777H
	DW	09778H
	DW	0977bH
	DW	0977dH
	DW	0977fH
	DW	09780H
	DW	09789H
	DW	09795H
	DW	09796H
	DW	09797H
	DW	09799H
	DW	0979aH
	DW	0979eH
	DW	0979fH
	DW	097a2H
	DW	097acH
	DW	097aeH
	DW	097b1H
	DW	097b2H
	DW	097b5H
	DW	097b6H
	DW	097b8H
	DW	097b9H
	DW	097baH
	DW	097bcH
	DW	097beH
	DW	097bfH
	DW	097c1H
	DW	097c4H
	DW	097c5H
	DW	097c7H
	DW	097c9H
	DW	097caH
	DW	097ccH
	DW	097cdH
	DW	097ceH
	DW	097d0H
	DW	097d1H
	DW	097d4H
	DW	097d7H
	DW	097d8H
	DW	097d9H
	DW	097ddH
	DW	097deH
	DW	097e0H
	DW	097dbH
	DW	097e1H
	DW	097e4H
	DW	097efH
	DW	097f1H
	DW	097f4H
	DW	097f7H
	DW	097f8H
	DW	097faH
	DW	09807H
	DW	0980aH
	DW	09819H
	DW	0980dH
	DW	0980eH
	DW	09814H
	DW	09816H
	DW	0981cH
	DW	0981eH
	DW	09820H
	DW	09823H
	DW	09826H
	DW	0982bH
	DW	0982eH
	DW	0982fH
	DW	09830H
	DW	09832H
	DW	09833H
	DW	09835H
	DW	09825H
	DW	0983eH
	DW	09844H
	DW	09847H
	DW	0984aH
	DW	09851H
	DW	09852H
	DW	09853H
	DW	09856H
	DW	09857H
	DW	09859H
	DW	0985aH
	DW	09862H
	DW	09863H
	DW	09865H
	DW	09866H
	DW	0986aH
	DW	0986cH
	DW	098abH
	DW	098adH
	DW	098aeH
	DW	098b0H
	DW	098b4H
	DW	098b7H
	DW	098b8H
	DW	098baH
	DW	098bbH
	DW	098bfH
	DW	098c2H
	DW	098c5H
	DW	098c8H
	DW	098ccH
	DW	098e1H
	DW	098e3H
	DW	098e5H
	DW	098e6H
	DW	098e7H
	DW	098eaH
	DW	098f3H
	DW	098f6H
	DW	09902H
	DW	09907H
	DW	09908H
	DW	09911H
	DW	09915H
	DW	09916H
	DW	09917H
	DW	0991aH
	DW	0991bH
	DW	0991cH
	DW	0991fH
	DW	09922H
	DW	09926H
	DW	09927H
	DW	0992bH
	DW	09931H
	DW	09932H
	DW	09933H
	DW	09934H
	DW	09935H
	DW	09939H
	DW	0993aH
	DW	0993bH
	DW	0993cH
	DW	09940H
	DW	09941H
	DW	09946H
	DW	09947H
	DW	09948H
	DW	0994dH
	DW	0994eH
	DW	09954H
	DW	09958H
	DW	09959H
	DW	0995bH
	DW	0995cH
	DW	0995eH
	DW	0995fH
	DW	09960H
	DW	0999bH
	DW	0999dH
	DW	0999fH
	DW	099a6H
	DW	099b0H
	DW	099b1H
	DW	099b2H
	DW	099b5H
	DW	099b9H
	DW	099baH
	DW	099bdH
	DW	099bfH
	DW	099c3H
	DW	099c9H
	DW	099d3H
	DW	099d4H
	DW	099d9H
	DW	099daH
	DW	099dcH
	DW	099deH
	DW	099e7H
	DW	099eaH
	DW	099ebH
	DW	099ecH
	DW	099f0H
	DW	099f4H
	DW	099f5H
	DW	099f9H
	DW	099fdH
	DW	099feH
	DW	09a02H
	DW	09a03H
	DW	09a04H
	DW	09a0bH
	DW	09a0cH
	DW	09a10H
	DW	09a11H
	DW	09a16H
	DW	09a1eH
	DW	09a20H
	DW	09a22H
	DW	09a23H
	DW	09a24H
	DW	09a27H
	DW	09a2dH
	DW	09a2eH
	DW	09a33H
	DW	09a35H
	DW	09a36H
	DW	09a38H
	DW	09a47H
	DW	09a41H
	DW	09a44H
	DW	09a4aH
	DW	09a4bH
	DW	09a4cH
	DW	09a4eH
	DW	09a51H
	DW	09a54H
	DW	09a56H
	DW	09a5dH
	DW	09aaaH
	DW	09aacH
	DW	09aaeH
	DW	09aafH
	DW	09ab2H
	DW	09ab4H
	DW	09ab5H
	DW	09ab6H
	DW	09ab9H
	DW	09abbH
	DW	09abeH
	DW	09abfH
	DW	09ac1H
	DW	09ac3H
	DW	09ac6H
	DW	09ac8H
	DW	09aceH
	DW	09ad0H
	DW	09ad2H
	DW	09ad5H
	DW	09ad6H
	DW	09ad7H
	DW	09adbH
	DW	09adcH
	DW	09ae0H
	DW	09ae4H
	DW	09ae5H
	DW	09ae7H
	DW	09ae9H
	DW	09aecH
	DW	09af2H
	DW	09af3H
	DW	09af5H
	DW	09af9H
	DW	09afaH
	DW	09afdH
	DW	09affH
	DW	09b00H
	DW	09b01H
	DW	09b02H
	DW	09b03H
	DW	09b04H
	DW	09b05H
	DW	09b08H
	DW	09b09H
	DW	09b0bH
	DW	09b0cH
	DW	09b0dH
	DW	09b0eH
	DW	09b10H
	DW	09b12H
	DW	09b16H
	DW	09b19H
	DW	09b1bH
	DW	09b1cH
	DW	09b20H
	DW	09b26H
	DW	09b2bH
	DW	09b2dH
	DW	09b33H
	DW	09b34H
	DW	09b35H
	DW	09b37H
	DW	09b39H
	DW	09b3aH
	DW	09b3dH
	DW	09b48H
	DW	09b4bH
	DW	09b4cH
	DW	09b55H
	DW	09b56H
	DW	09b57H
	DW	09b5bH
	DW	09b5eH
	DW	09b61H
	DW	09b63H
	DW	09b65H
	DW	09b66H
	DW	09b68H
	DW	09b6aH
	DW	09b6bH
	DW	09b6cH
	DW	09b6dH
	DW	09b6eH
	DW	09b73H
	DW	09b75H
	DW	09b77H
	DW	09b78H
	DW	09b79H
	DW	09b7fH
	DW	09b80H
	DW	09b84H
	DW	09b85H
	DW	09b86H
	DW	09b87H
	DW	09b89H
	DW	09b8aH
	DW	09b8bH
	DW	09b8dH
	DW	09b8fH
	DW	09b90H
	DW	09b94H
	DW	09b9aH
	DW	09b9dH
	DW	09b9eH
	DW	09ba6H
	DW	09ba7H
	DW	09ba9H
	DW	09bacH
	DW	09bb0H
	DW	09bb1H
	DW	09bb2H
	DW	09bb7H
	DW	09bb8H
	DW	09bbbH
	DW	09bbcH
	DW	09bbeH
	DW	09bbfH
	DW	09bc1H
	DW	09bc7H
	DW	09bc8H
	DW	09bceH
	DW	09bd0H
	DW	09bd7H
	DW	09bd8H
	DW	09bddH
	DW	09bdfH
	DW	09be5H
	DW	09be7H
	DW	09beaH
	DW	09bebH
	DW	09befH
	DW	09bf3H
	DW	09bf7H
	DW	09bf8H
	DW	09bf9H
	DW	09bfaH
	DW	09bfdH
	DW	09bffH
	DW	09c00H
	DW	09c02H
	DW	09c0bH
	DW	09c0fH
	DW	09c11H
	DW	09c16H
	DW	09c18H
	DW	09c19H
	DW	09c1aH
	DW	09c1cH
	DW	09c1eH
	DW	09c22H
	DW	09c23H
	DW	09c26H
	DW	09c27H
	DW	09c28H
	DW	09c29H
	DW	09c2aH
	DW	09c31H
	DW	09c35H
	DW	09c36H
	DW	09c37H
	DW	09c3dH
	DW	09c41H
	DW	09c43H
	DW	09c44H
	DW	09c45H
	DW	09c49H
	DW	09c4aH
	DW	09c4eH
	DW	09c4fH
	DW	09c50H
	DW	09c53H
	DW	09c54H
	DW	09c56H
	DW	09c58H
	DW	09c5bH
	DW	09c5dH
	DW	09c5eH
	DW	09c5fH
	DW	09c63H
	DW	09c69H
	DW	09c6aH
	DW	09c5cH
	DW	09c6bH
	DW	09c68H
	DW	09c6eH
	DW	09c70H
	DW	09c72H
	DW	09c75H
	DW	09c77H
	DW	09c7bH
	DW	09ce6H
	DW	09cf2H
	DW	09cf7H
	DW	09cf9H
	DW	09d0bH
	DW	09d02H
	DW	09d11H
	DW	09d17H
	DW	09d18H
	DW	09d1cH
	DW	09d1dH
	DW	09d1eH
	DW	09d2fH
	DW	09d30H
	DW	09d32H
	DW	09d33H
	DW	09d34H
	DW	09d3aH
	DW	09d3cH
	DW	09d45H
	DW	09d3dH
	DW	09d42H
	DW	09d43H
	DW	09d47H
	DW	09d4aH
	DW	09d53H
	DW	09d54H
	DW	09d5fH
	DW	09d63H
	DW	09d62H
	DW	09d65H
	DW	09d69H
	DW	09d6aH
	DW	09d6bH
	DW	09d70H
	DW	09d76H
	DW	09d77H
	DW	09d7bH
	DW	09d7cH
	DW	09d7eH
	DW	09d83H
	DW	09d84H
	DW	09d86H
	DW	09d8aH
	DW	09d8dH
	DW	09d8eH
	DW	09d92H
	DW	09d93H
	DW	09d95H
	DW	09d96H
	DW	09d97H
	DW	09d98H
	DW	09da1H
	DW	09daaH
	DW	09dacH
	DW	09daeH
	DW	09db1H
	DW	09db5H
	DW	09db9H
	DW	09dbcH
	DW	09dbfH
	DW	09dc3H
	DW	09dc7H
	DW	09dc9H
	DW	09dcaH
	DW	09dd4H
	DW	09dd5H
	DW	09dd6H
	DW	09dd7H
	DW	09ddaH
	DW	09ddeH
	DW	09ddfH
	DW	09de0H
	DW	09de5H
	DW	09de7H
	DW	09de9H
	DW	09debH
	DW	09deeH
	DW	09df0H
	DW	09df3H
	DW	09df4H
	DW	09dfeH
	DW	09e0aH
	DW	09e02H
	DW	09e07H
	DW	09e0eH
	DW	09e10H
	DW	09e11H
	DW	09e12H
	DW	09e15H
	DW	09e16H
	DW	09e19H
	DW	09e1cH
	DW	09e1dH
	DW	09e7aH
	DW	09e7bH
	DW	09e7cH
	DW	09e80H
	DW	09e82H
	DW	09e83H
	DW	09e84H
	DW	09e85H
	DW	09e87H
	DW	09e8eH
	DW	09e8fH
	DW	09e96H
	DW	09e98H
	DW	09e9bH
	DW	09e9eH
	DW	09ea4H
	DW	09ea8H
	DW	09eacH
	DW	09eaeH
	DW	09eafH
	DW	09eb0H
	DW	09eb3H
	DW	09eb4H
	DW	09eb5H
	DW	09ec6H
	DW	09ec8H
	DW	09ecbH
	DW	09ed5H
	DW	09edfH
	DW	09ee4H
	DW	09ee7H
	DW	09eecH
	DW	09eedH
	DW	09eeeH
	DW	09ef0H
	DW	09ef1H
	DW	09ef2H
	DW	09ef5H
	DW	09ef8H
	DW	09effH
	DW	09f02H
	DW	09f03H
	DW	09f09H
	DW	09f0fH
	DW	09f10H
	DW	09f11H
	DW	09f12H
	DW	09f14H
	DW	09f16H
	DW	09f17H
	DW	09f19H
	DW	09f1aH
	DW	09f1bH
	DW	09f1fH
	DW	09f22H
	DW	09f26H
	DW	09f2aH
	DW	09f2bH
	DW	09f2fH
	DW	09f31H
	DW	09f32H
	DW	09f34H
	DW	09f37H
	DW	09f39H
	DW	09f3aH
	DW	09f3cH
	DW	09f3dH
	DW	09f3fH
	DW	09f41H
	DW	09f43H
	DW	09f44H
	DW	09f45H
	DW	09f46H
	DW	09f47H
	DW	09f53H
	DW	09f55H
	DW	09f56H
	DW	09f57H
	DW	09f58H
	DW	09f5aH
	DW	09f5dH
	DW	09f5eH
	DW	09f68H
	DW	09f69H
	DW	09f6dH
	DW	09f6eH
	DW	09f6fH
	DW	09f70H
	DW	09f71H
	DW	09f73H
	DW	09f75H
	DW	09f7aH
	DW	09f7dH
	DW	09f8fH
	DW	09f90H
	DW	09f91H
	DW	09f92H
	DW	09f94H
	DW	09f96H
	DW	09f97H
	DW	09f9eH
	DW	09fa1H
	DW	09fa2H
	DW	09fa3H
	DW	09fa5H
	ORG $+10
jisx0212_decmap DQ 0000000000000000H
	DB	00H
	DB	00H
	ORG $+6
	DQ	0000000000000000H
	DB	00H
	DB	00H
	ORG $+6
	DQ	0000000000000000H
	DB	00H
	DB	00H
	ORG $+6
	DQ	0000000000000000H
	DB	00H
	DB	00H
	ORG $+6
	DQ	0000000000000000H
	DB	00H
	DB	00H
	ORG $+6
	DQ	0000000000000000H
	DB	00H
	DB	00H
	ORG $+6
	DQ	0000000000000000H
	DB	00H
	DB	00H
	ORG $+6
	DQ	0000000000000000H
	DB	00H
	DB	00H
	ORG $+6
	DQ	0000000000000000H
	DB	00H
	DB	00H
	ORG $+6
	DQ	0000000000000000H
	DB	00H
	DB	00H
	ORG $+6
	DQ	0000000000000000H
	DB	00H
	DB	00H
	ORG $+6
	DQ	0000000000000000H
	DB	00H
	DB	00H
	ORG $+6
	DQ	0000000000000000H
	DB	00H
	DB	00H
	ORG $+6
	DQ	0000000000000000H
	DB	00H
	DB	00H
	ORG $+6
	DQ	0000000000000000H
	DB	00H
	DB	00H
	ORG $+6
	DQ	0000000000000000H
	DB	00H
	DB	00H
	ORG $+6
	DQ	0000000000000000H
	DB	00H
	DB	00H
	ORG $+6
	DQ	0000000000000000H
	DB	00H
	DB	00H
	ORG $+6
	DQ	0000000000000000H
	DB	00H
	DB	00H
	ORG $+6
	DQ	0000000000000000H
	DB	00H
	DB	00H
	ORG $+6
	DQ	0000000000000000H
	DB	00H
	DB	00H
	ORG $+6
	DQ	0000000000000000H
	DB	00H
	DB	00H
	ORG $+6
	DQ	0000000000000000H
	DB	00H
	DB	00H
	ORG $+6
	DQ	0000000000000000H
	DB	00H
	DB	00H
	ORG $+6
	DQ	0000000000000000H
	DB	00H
	DB	00H
	ORG $+6
	DQ	0000000000000000H
	DB	00H
	DB	00H
	ORG $+6
	DQ	0000000000000000H
	DB	00H
	DB	00H
	ORG $+6
	DQ	0000000000000000H
	DB	00H
	DB	00H
	ORG $+6
	DQ	0000000000000000H
	DB	00H
	DB	00H
	ORG $+6
	DQ	0000000000000000H
	DB	00H
	DB	00H
	ORG $+6
	DQ	0000000000000000H
	DB	00H
	DB	00H
	ORG $+6
	DQ	0000000000000000H
	DB	00H
	DB	00H
	ORG $+6
	DQ	0000000000000000H
	DB	00H
	DB	00H
	ORG $+6
	DQ	0000000000000000H
	DB	00H
	DB	00H
	ORG $+6
	DQ	FLAT:__jisx0212_decmap
	DB	02fH
	DB	071H
	ORG $+6
	DQ	0000000000000000H
	DB	00H
	DB	00H
	ORG $+6
	DQ	0000000000000000H
	DB	00H
	DB	00H
	ORG $+6
	DQ	0000000000000000H
	DB	00H
	DB	00H
	ORG $+6
	DQ	FLAT:__jisx0212_decmap+134
	DB	061H
	DB	07cH
	ORG $+6
	DQ	FLAT:__jisx0212_decmap+190
	DB	042H
	DB	07eH
	ORG $+6
	DQ	0000000000000000H
	DB	00H
	DB	00H
	ORG $+6
	DQ	FLAT:__jisx0212_decmap+312
	DB	021H
	DB	050H
	ORG $+6
	DQ	FLAT:__jisx0212_decmap+408
	DB	021H
	DB	077H
	ORG $+6
	DQ	FLAT:__jisx0212_decmap+582
	DB	021H
	DB	077H
	ORG $+6
	DQ	0000000000000000H
	DB	00H
	DB	00H
	ORG $+6
	DQ	0000000000000000H
	DB	00H
	DB	00H
	ORG $+6
	DQ	0000000000000000H
	DB	00H
	DB	00H
	ORG $+6
	DQ	0000000000000000H
	DB	00H
	DB	00H
	ORG $+6
	DQ	FLAT:__jisx0212_decmap+756
	DB	021H
	DB	07eH
	ORG $+6
	DQ	FLAT:__jisx0212_decmap+944
	DB	021H
	DB	07eH
	ORG $+6
	DQ	FLAT:__jisx0212_decmap+1132
	DB	021H
	DB	07eH
	ORG $+6
	DQ	FLAT:__jisx0212_decmap+1320
	DB	021H
	DB	07eH
	ORG $+6
	DQ	FLAT:__jisx0212_decmap+1508
	DB	021H
	DB	07eH
	ORG $+6
	DQ	FLAT:__jisx0212_decmap+1696
	DB	021H
	DB	07eH
	ORG $+6
	DQ	FLAT:__jisx0212_decmap+1884
	DB	021H
	DB	07eH
	ORG $+6
	DQ	FLAT:__jisx0212_decmap+2072
	DB	021H
	DB	07eH
	ORG $+6
	DQ	FLAT:__jisx0212_decmap+2260
	DB	021H
	DB	07eH
	ORG $+6
	DQ	FLAT:__jisx0212_decmap+2448
	DB	021H
	DB	07eH
	ORG $+6
	DQ	FLAT:__jisx0212_decmap+2636
	DB	021H
	DB	07eH
	ORG $+6
	DQ	FLAT:__jisx0212_decmap+2824
	DB	021H
	DB	07eH
	ORG $+6
	DQ	FLAT:__jisx0212_decmap+3012
	DB	021H
	DB	07eH
	ORG $+6
	DQ	FLAT:__jisx0212_decmap+3200
	DB	021H
	DB	07eH
	ORG $+6
	DQ	FLAT:__jisx0212_decmap+3388
	DB	021H
	DB	07eH
	ORG $+6
	DQ	FLAT:__jisx0212_decmap+3576
	DB	021H
	DB	07eH
	ORG $+6
	DQ	FLAT:__jisx0212_decmap+3764
	DB	021H
	DB	07eH
	ORG $+6
	DQ	FLAT:__jisx0212_decmap+3952
	DB	021H
	DB	07eH
	ORG $+6
	DQ	FLAT:__jisx0212_decmap+4140
	DB	021H
	DB	07eH
	ORG $+6
	DQ	FLAT:__jisx0212_decmap+4328
	DB	021H
	DB	07eH
	ORG $+6
	DQ	FLAT:__jisx0212_decmap+4516
	DB	021H
	DB	07eH
	ORG $+6
	DQ	FLAT:__jisx0212_decmap+4704
	DB	021H
	DB	07eH
	ORG $+6
	DQ	FLAT:__jisx0212_decmap+4892
	DB	021H
	DB	07eH
	ORG $+6
	DQ	FLAT:__jisx0212_decmap+5080
	DB	021H
	DB	07eH
	ORG $+6
	DQ	FLAT:__jisx0212_decmap+5268
	DB	021H
	DB	07eH
	ORG $+6
	DQ	FLAT:__jisx0212_decmap+5456
	DB	021H
	DB	07eH
	ORG $+6
	DQ	FLAT:__jisx0212_decmap+5644
	DB	021H
	DB	07eH
	ORG $+6
	DQ	FLAT:__jisx0212_decmap+5832
	DB	021H
	DB	07eH
	ORG $+6
	DQ	FLAT:__jisx0212_decmap+6020
	DB	021H
	DB	07eH
	ORG $+6
	DQ	FLAT:__jisx0212_decmap+6208
	DB	021H
	DB	07eH
	ORG $+6
	DQ	FLAT:__jisx0212_decmap+6396
	DB	021H
	DB	07eH
	ORG $+6
	DQ	FLAT:__jisx0212_decmap+6584
	DB	021H
	DB	07eH
	ORG $+6
	DQ	FLAT:__jisx0212_decmap+6772
	DB	021H
	DB	07eH
	ORG $+6
	DQ	FLAT:__jisx0212_decmap+6960
	DB	021H
	DB	07eH
	ORG $+6
	DQ	FLAT:__jisx0212_decmap+7148
	DB	021H
	DB	07eH
	ORG $+6
	DQ	FLAT:__jisx0212_decmap+7336
	DB	021H
	DB	07eH
	ORG $+6
	DQ	FLAT:__jisx0212_decmap+7524
	DB	021H
	DB	07eH
	ORG $+6
	DQ	FLAT:__jisx0212_decmap+7712
	DB	021H
	DB	07eH
	ORG $+6
	DQ	FLAT:__jisx0212_decmap+7900
	DB	021H
	DB	07eH
	ORG $+6
	DQ	FLAT:__jisx0212_decmap+8088
	DB	021H
	DB	07eH
	ORG $+6
	DQ	FLAT:__jisx0212_decmap+8276
	DB	021H
	DB	07eH
	ORG $+6
	DQ	FLAT:__jisx0212_decmap+8464
	DB	021H
	DB	07eH
	ORG $+6
	DQ	FLAT:__jisx0212_decmap+8652
	DB	021H
	DB	07eH
	ORG $+6
	DQ	FLAT:__jisx0212_decmap+8840
	DB	021H
	DB	07eH
	ORG $+6
	DQ	FLAT:__jisx0212_decmap+9028
	DB	021H
	DB	07eH
	ORG $+6
	DQ	FLAT:__jisx0212_decmap+9216
	DB	021H
	DB	07eH
	ORG $+6
	DQ	FLAT:__jisx0212_decmap+9404
	DB	021H
	DB	07eH
	ORG $+6
	DQ	FLAT:__jisx0212_decmap+9592
	DB	021H
	DB	07eH
	ORG $+6
	DQ	FLAT:__jisx0212_decmap+9780
	DB	021H
	DB	07eH
	ORG $+6
	DQ	FLAT:__jisx0212_decmap+9968
	DB	021H
	DB	07eH
	ORG $+6
	DQ	FLAT:__jisx0212_decmap+10156
	DB	021H
	DB	07eH
	ORG $+6
	DQ	FLAT:__jisx0212_decmap+10344
	DB	021H
	DB	07eH
	ORG $+6
	DQ	FLAT:__jisx0212_decmap+10532
	DB	021H
	DB	07eH
	ORG $+6
	DQ	FLAT:__jisx0212_decmap+10720
	DB	021H
	DB	07eH
	ORG $+6
	DQ	FLAT:__jisx0212_decmap+10908
	DB	021H
	DB	07eH
	ORG $+6
	DQ	FLAT:__jisx0212_decmap+11096
	DB	021H
	DB	07eH
	ORG $+6
	DQ	FLAT:__jisx0212_decmap+11284
	DB	021H
	DB	07eH
	ORG $+6
	DQ	FLAT:__jisx0212_decmap+11472
	DB	021H
	DB	07eH
	ORG $+6
	DQ	FLAT:__jisx0212_decmap+11660
	DB	021H
	DB	07eH
	ORG $+6
	DQ	FLAT:__jisx0212_decmap+11848
	DB	021H
	DB	07eH
	ORG $+6
	DQ	FLAT:__jisx0212_decmap+12036
	DB	021H
	DB	07eH
	ORG $+6
	DQ	FLAT:__jisx0212_decmap+12224
	DB	021H
	DB	063H
	ORG $+6
	DQ	0000000000000000H
	DB	00H
	DB	00H
	ORG $+6
	DQ	0000000000000000H
	DB	00H
	DB	00H
	ORG $+6
	DQ	0000000000000000H
	DB	00H
	DB	00H
	ORG $+6
	DQ	0000000000000000H
	DB	00H
	DB	00H
	ORG $+6
	DQ	0000000000000000H
	DB	00H
	DB	00H
	ORG $+6
	DQ	0000000000000000H
	DB	00H
	DB	00H
	ORG $+6
	DQ	0000000000000000H
	DB	00H
	DB	00H
	ORG $+6
	DQ	0000000000000000H
	DB	00H
	DB	00H
	ORG $+6
	DQ	0000000000000000H
	DB	00H
	DB	00H
	ORG $+6
	DQ	0000000000000000H
	DB	00H
	DB	00H
	ORG $+6
	DQ	0000000000000000H
	DB	00H
	DB	00H
	ORG $+6
	DQ	0000000000000000H
	DB	00H
	DB	00H
	ORG $+6
	DQ	0000000000000000H
	DB	00H
	DB	00H
	ORG $+6
	DQ	0000000000000000H
	DB	00H
	DB	00H
	ORG $+6
	DQ	0000000000000000H
	DB	00H
	DB	00H
	ORG $+6
	DQ	0000000000000000H
	DB	00H
	DB	00H
	ORG $+6
	DQ	0000000000000000H
	DB	00H
	DB	00H
	ORG $+6
	DQ	0000000000000000H
	DB	00H
	DB	00H
	ORG $+6
	DQ	0000000000000000H
	DB	00H
	DB	00H
	ORG $+6
	DQ	0000000000000000H
	DB	00H
	DB	00H
	ORG $+6
	DQ	0000000000000000H
	DB	00H
	DB	00H
	ORG $+6
	DQ	0000000000000000H
	DB	00H
	DB	00H
	ORG $+6
	DQ	0000000000000000H
	DB	00H
	DB	00H
	ORG $+6
	DQ	0000000000000000H
	DB	00H
	DB	00H
	ORG $+6
	DQ	0000000000000000H
	DB	00H
	DB	00H
	ORG $+6
	DQ	0000000000000000H
	DB	00H
	DB	00H
	ORG $+6
	DQ	0000000000000000H
	DB	00H
	DB	00H
	ORG $+6
	DQ	0000000000000000H
	DB	00H
	DB	00H
	ORG $+6
	DQ	0000000000000000H
	DB	00H
	DB	00H
	ORG $+6
	DQ	0000000000000000H
	DB	00H
	DB	00H
	ORG $+6
	DQ	0000000000000000H
	DB	00H
	DB	00H
	ORG $+6
	DQ	0000000000000000H
	DB	00H
	DB	00H
	ORG $+6
	DQ	0000000000000000H
	DB	00H
	DB	00H
	ORG $+6
	DQ	0000000000000000H
	DB	00H
	DB	00H
	ORG $+6
	DQ	0000000000000000H
	DB	00H
	DB	00H
	ORG $+6
	DQ	0000000000000000H
	DB	00H
	DB	00H
	ORG $+6
	DQ	0000000000000000H
	DB	00H
	DB	00H
	ORG $+6
	DQ	0000000000000000H
	DB	00H
	DB	00H
	ORG $+6
	DQ	0000000000000000H
	DB	00H
	DB	00H
	ORG $+6
	DQ	0000000000000000H
	DB	00H
	DB	00H
	ORG $+6
	DQ	0000000000000000H
	DB	00H
	DB	00H
	ORG $+6
	DQ	0000000000000000H
	DB	00H
	DB	00H
	ORG $+6
	DQ	0000000000000000H
	DB	00H
	DB	00H
	ORG $+6
	DQ	0000000000000000H
	DB	00H
	DB	00H
	ORG $+6
	DQ	0000000000000000H
	DB	00H
	DB	00H
	ORG $+6
	DQ	0000000000000000H
	DB	00H
	DB	00H
	ORG $+6
	DQ	0000000000000000H
	DB	00H
	DB	00H
	ORG $+6
	DQ	0000000000000000H
	DB	00H
	DB	00H
	ORG $+6
	DQ	0000000000000000H
	DB	00H
	DB	00H
	ORG $+6
	DQ	0000000000000000H
	DB	00H
	DB	00H
	ORG $+6
	DQ	0000000000000000H
	DB	00H
	DB	00H
	ORG $+6
	DQ	0000000000000000H
	DB	00H
	DB	00H
	ORG $+6
	DQ	0000000000000000H
	DB	00H
	DB	00H
	ORG $+6
	DQ	0000000000000000H
	DB	00H
	DB	00H
	ORG $+6
	DQ	0000000000000000H
	DB	00H
	DB	00H
	ORG $+6
	DQ	0000000000000000H
	DB	00H
	DB	00H
	ORG $+6
	DQ	0000000000000000H
	DB	00H
	DB	00H
	ORG $+6
	DQ	0000000000000000H
	DB	00H
	DB	00H
	ORG $+6
	DQ	0000000000000000H
	DB	00H
	DB	00H
	ORG $+6
	DQ	0000000000000000H
	DB	00H
	DB	00H
	ORG $+6
	DQ	0000000000000000H
	DB	00H
	DB	00H
	ORG $+6
	DQ	0000000000000000H
	DB	00H
	DB	00H
	ORG $+6
	DQ	0000000000000000H
	DB	00H
	DB	00H
	ORG $+6
	DQ	0000000000000000H
	DB	00H
	DB	00H
	ORG $+6
	DQ	0000000000000000H
	DB	00H
	DB	00H
	ORG $+6
	DQ	0000000000000000H
	DB	00H
	DB	00H
	ORG $+6
	DQ	0000000000000000H
	DB	00H
	DB	00H
	ORG $+6
	DQ	0000000000000000H
	DB	00H
	DB	00H
	ORG $+6
	DQ	0000000000000000H
	DB	00H
	DB	00H
	ORG $+6
	DQ	0000000000000000H
	DB	00H
	DB	00H
	ORG $+6
	DQ	0000000000000000H
	DB	00H
	DB	00H
	ORG $+6
	DQ	0000000000000000H
	DB	00H
	DB	00H
	ORG $+6
	DQ	0000000000000000H
	DB	00H
	DB	00H
	ORG $+6
	DQ	0000000000000000H
	DB	00H
	DB	00H
	ORG $+6
	DQ	0000000000000000H
	DB	00H
	DB	00H
	ORG $+6
	DQ	0000000000000000H
	DB	00H
	DB	00H
	ORG $+6
	DQ	0000000000000000H
	DB	00H
	DB	00H
	ORG $+6
	DQ	0000000000000000H
	DB	00H
	DB	00H
	ORG $+6
	DQ	0000000000000000H
	DB	00H
	DB	00H
	ORG $+6
	DQ	0000000000000000H
	DB	00H
	DB	00H
	ORG $+6
	DQ	0000000000000000H
	DB	00H
	DB	00H
	ORG $+6
	DQ	0000000000000000H
	DB	00H
	DB	00H
	ORG $+6
	DQ	0000000000000000H
	DB	00H
	DB	00H
	ORG $+6
	DQ	0000000000000000H
	DB	00H
	DB	00H
	ORG $+6
	DQ	0000000000000000H
	DB	00H
	DB	00H
	ORG $+6
	DQ	0000000000000000H
	DB	00H
	DB	00H
	ORG $+6
	DQ	0000000000000000H
	DB	00H
	DB	00H
	ORG $+6
	DQ	0000000000000000H
	DB	00H
	DB	00H
	ORG $+6
	DQ	0000000000000000H
	DB	00H
	DB	00H
	ORG $+6
	DQ	0000000000000000H
	DB	00H
	DB	00H
	ORG $+6
	DQ	0000000000000000H
	DB	00H
	DB	00H
	ORG $+6
	DQ	0000000000000000H
	DB	00H
	DB	00H
	ORG $+6
	DQ	0000000000000000H
	DB	00H
	DB	00H
	ORG $+6
	DQ	0000000000000000H
	DB	00H
	DB	00H
	ORG $+6
	DQ	0000000000000000H
	DB	00H
	DB	00H
	ORG $+6
	DQ	0000000000000000H
	DB	00H
	DB	00H
	ORG $+6
	DQ	0000000000000000H
	DB	00H
	DB	00H
	ORG $+6
	DQ	0000000000000000H
	DB	00H
	DB	00H
	ORG $+6
	DQ	0000000000000000H
	DB	00H
	DB	00H
	ORG $+6
	DQ	0000000000000000H
	DB	00H
	DB	00H
	ORG $+6
	DQ	0000000000000000H
	DB	00H
	DB	00H
	ORG $+6
	DQ	0000000000000000H
	DB	00H
	DB	00H
	ORG $+6
	DQ	0000000000000000H
	DB	00H
	DB	00H
	ORG $+6
	DQ	0000000000000000H
	DB	00H
	DB	00H
	ORG $+6
	DQ	0000000000000000H
	DB	00H
	DB	00H
	ORG $+6
	DQ	0000000000000000H
	DB	00H
	DB	00H
	ORG $+6
	DQ	0000000000000000H
	DB	00H
	DB	00H
	ORG $+6
	DQ	0000000000000000H
	DB	00H
	DB	00H
	ORG $+6
	DQ	0000000000000000H
	DB	00H
	DB	00H
	ORG $+6
	DQ	0000000000000000H
	DB	00H
	DB	00H
	ORG $+6
	DQ	0000000000000000H
	DB	00H
	DB	00H
	ORG $+6
	DQ	0000000000000000H
	DB	00H
	DB	00H
	ORG $+6
	DQ	0000000000000000H
	DB	00H
	DB	00H
	ORG $+6
	DQ	0000000000000000H
	DB	00H
	DB	00H
	ORG $+6
	DQ	0000000000000000H
	DB	00H
	DB	00H
	ORG $+6
	DQ	0000000000000000H
	DB	00H
	DB	00H
	ORG $+6
	DQ	0000000000000000H
	DB	00H
	DB	00H
	ORG $+6
	DQ	0000000000000000H
	DB	00H
	DB	00H
	ORG $+6
	DQ	0000000000000000H
	DB	00H
	DB	00H
	ORG $+6
	DQ	0000000000000000H
	DB	00H
	DB	00H
	ORG $+6
	DQ	0000000000000000H
	DB	00H
	DB	00H
	ORG $+6
	DQ	0000000000000000H
	DB	00H
	DB	00H
	ORG $+6
	DQ	0000000000000000H
	DB	00H
	DB	00H
	ORG $+6
	DQ	0000000000000000H
	DB	00H
	DB	00H
	ORG $+6
	DQ	0000000000000000H
	DB	00H
	DB	00H
	ORG $+6
	DQ	0000000000000000H
	DB	00H
	DB	00H
	ORG $+6
	DQ	0000000000000000H
	DB	00H
	DB	00H
	ORG $+6
	DQ	0000000000000000H
	DB	00H
	DB	00H
	ORG $+6
	DQ	0000000000000000H
	DB	00H
	DB	00H
	ORG $+6
	DQ	0000000000000000H
	DB	00H
	DB	00H
	ORG $+6
	DQ	0000000000000000H
	DB	00H
	DB	00H
	ORG $+6
	DQ	0000000000000000H
	DB	00H
	DB	00H
	ORG $+6
	DQ	0000000000000000H
	DB	00H
	DB	00H
	ORG $+6
	DQ	0000000000000000H
	DB	00H
	DB	00H
	ORG $+6
	DQ	0000000000000000H
	DB	00H
	DB	00H
	ORG $+6
	DQ	0000000000000000H
	DB	00H
	DB	00H
	ORG $+6
	DQ	0000000000000000H
	DB	00H
	DB	00H
	ORG $+6
	DQ	0000000000000000H
	DB	00H
	DB	00H
	ORG $+6
	DQ	0000000000000000H
	DB	00H
	DB	00H
	ORG $+6
	DQ	0000000000000000H
	DB	00H
	DB	00H
	ORG $+6
	DQ	0000000000000000H
	DB	00H
	DB	00H
	ORG $+6
	DQ	0000000000000000H
	DB	00H
	DB	00H
	ORG $+6
	DQ	0000000000000000H
	DB	00H
	DB	00H
	ORG $+6
	DQ	0000000000000000H
	DB	00H
	DB	00H
	ORG $+6
	DQ	0000000000000000H
	DB	00H
	DB	00H
	ORG $+6
	DQ	0000000000000000H
	DB	00H
	DB	00H
	ORG $+6
__jisxcommon_encmap DW 02140H
	DW	0ffffH
	DW	0ffffH
	DW	0ffffH
	DW	0ffffH
	DW	0ffffH
	DW	0ffffH
	DW	0ffffH
	DW	0ffffH
	DW	0ffffH
	DW	0ffffH
	DW	0ffffH
	DW	0ffffH
	DW	0ffffH
	DW	0ffffH
	DW	0ffffH
	DW	0ffffH
	DW	0ffffH
	DW	0ffffH
	DW	0ffffH
	DW	0ffffH
	DW	0ffffH
	DW	0ffffH
	DW	0ffffH
	DW	0ffffH
	DW	0ffffH
	DW	0ffffH
	DW	0ffffH
	DW	0ffffH
	DW	0ffffH
	DW	0ffffH
	DW	0ffffH
	DW	0ffffH
	DW	0ffffH
	DW	0a237H
	DW	0ffffH
	DW	0ffffH
	DW	0ffffH
	DW	0ffffH
	DW	0ffffH
	DW	0ffffH
	DW	0ffffH
	DW	0ffffH
	DW	0ffffH
	DW	0ffffH
	DW	0ffffH
	DW	0ffffH
	DW	0ffffH
	DW	0ffffH
	DW	0ffffH
	DW	0ffffH
	DW	0ffffH
	DW	0ffffH
	DW	0ffffH
	DW	0ffffH
	DW	0ffffH
	DW	0ffffH
	DW	0ffffH
	DW	0ffffH
	DW	0ffffH
	DW	0ffffH
	DW	0ffffH
	DW	0ffffH
	DW	0ffffH
	DW	0ffffH
	DW	0ffffH
	DW	0ffffH
	DW	0ffffH
	DW	0ffffH
	DW	0a242H
	DW	02171H
	DW	02172H
	DW	0a270H
	DW	0ffffH
	DW	0a243H
	DW	02178H
	DW	0212fH
	DW	0a26dH
	DW	0a26cH
	DW	0ffffH
	DW	0224cH
	DW	0ffffH
	DW	0a26eH
	DW	0a234H
	DW	0216bH
	DW	0215eH
	DW	0ffffH
	DW	0ffffH
	DW	0212dH
	DW	0ffffH
	DW	02279H
	DW	0ffffH
	DW	0a231H
	DW	0ffffH
	DW	0a26bH
	DW	0ffffH
	DW	0ffffH
	DW	0ffffH
	DW	0ffffH
	DW	0a244H
	DW	0aa22H
	DW	0aa21H
	DW	0aa24H
	DW	0aa2aH
	DW	0aa23H
	DW	0aa29H
	DW	0a921H
	DW	0aa2eH
	DW	0aa32H
	DW	0aa31H
	DW	0aa34H
	DW	0aa33H
	DW	0aa40H
	DW	0aa3fH
	DW	0aa42H
	DW	0aa41H
	DW	0ffffH
	DW	0aa50H
	DW	0aa52H
	DW	0aa51H
	DW	0aa54H
	DW	0aa58H
	DW	0aa53H
	DW	0215fH
	DW	0a92cH
	DW	0aa63H
	DW	0aa62H
	DW	0aa65H
	DW	0aa64H
	DW	0aa72H
	DW	0a930H
	DW	0a94eH
	DW	0ab22H
	DW	0ab21H
	DW	0ab24H
	DW	0ab2aH
	DW	0ab23H
	DW	0ab29H
	DW	0a941H
	DW	0ab2eH
	DW	0ab32H
	DW	0ab31H
	DW	0ab34H
	DW	0ab33H
	DW	0ab40H
	DW	0ab3fH
	DW	0ab42H
	DW	0ab41H
	DW	0a943H
	DW	0ab50H
	DW	0ab52H
	DW	0ab51H
	DW	0ab54H
	DW	0ab58H
	DW	0ab53H
	DW	02160H
	DW	0a94cH
	DW	0ab63H
	DW	0ab62H
	DW	0ab65H
	DW	0ab64H
	DW	0ab72H
	DW	0a950H
	DW	0ab73H
	DW	0aa27H
	DW	0ab27H
	DW	0aa25H
	DW	0ab25H
	DW	0aa28H
	DW	0ab28H
	DW	0aa2bH
	DW	0ab2bH
	DW	0aa2cH
	DW	0ab2cH
	DW	0aa2fH
	DW	0ab2fH
	DW	0aa2dH
	DW	0ab2dH
	DW	0aa30H
	DW	0ab30H
	DW	0a922H
	DW	0a942H
	DW	0aa37H
	DW	0ab37H
	DW	0ffffH
	DW	0ffffH
	DW	0aa36H
	DW	0ab36H
	DW	0aa38H
	DW	0ab38H
	DW	0aa35H
	DW	0ab35H
	DW	0aa3aH
	DW	0ab3aH
	DW	0aa3bH
	DW	0ab3bH
	DW	0aa3dH
	DW	0ab3dH
	DW	0aa3cH
	DW	0ffffH
	DW	0aa3eH
	DW	0ab3eH
	DW	0a924H
	DW	0a944H
	DW	0aa47H
	DW	0ab47H
	DW	0aa45H
	DW	0ab45H
	DW	0ffffH
	DW	0ffffH
	DW	0aa46H
	DW	0ab46H
	DW	0aa44H
	DW	0a945H
	DW	0a926H
	DW	0a946H
	DW	0aa48H
	DW	0ab48H
	DW	0aa49H
	DW	0ab49H
	DW	0a947H
	DW	0aa4aH
	DW	0ab4aH
	DW	0aa4cH
	DW	0ab4cH
	DW	0aa4bH
	DW	0ab4bH
	DW	0a929H
	DW	0a949H
	DW	0a928H
	DW	0a948H
	DW	0aa4dH
	DW	0ab4dH
	DW	0aa4fH
	DW	0ab4fH
	DW	0aa4eH
	DW	0ab4eH
	DW	0a94aH
	DW	0a92bH
	DW	0a94bH
	DW	0aa57H
	DW	0ab57H
	DW	0ffffH
	DW	0ffffH
	DW	0aa56H
	DW	0ab56H
	DW	0a92dH
	DW	0a94dH
	DW	0aa59H
	DW	0ab59H
	DW	0aa5bH
	DW	0ab5bH
	DW	0aa5aH
	DW	0ab5aH
	DW	0aa5cH
	DW	0ab5cH
	DW	0aa5dH
	DW	0ab5dH
	DW	0aa5fH
	DW	0ab5fH
	DW	0aa5eH
	DW	0ab5eH
	DW	0aa61H
	DW	0ab61H
	DW	0aa60H
	DW	0ab60H
	DW	0a92fH
	DW	0a94fH
	DW	0aa6cH
	DW	0ab6cH
	DW	0aa69H
	DW	0ab69H
	DW	0aa66H
	DW	0ab66H
	DW	0aa6bH
	DW	0ab6bH
	DW	0aa68H
	DW	0ab68H
	DW	0aa6aH
	DW	0ab6aH
	DW	0aa71H
	DW	0ab71H
	DW	0aa74H
	DW	0ab74H
	DW	0aa73H
	DW	0aa75H
	DW	0ab75H
	DW	0aa77H
	DW	0ab77H
	DW	0aa76H
	DW	0ab76H
	DW	0ffffH
	DW	0ffffH
	DW	0ffffH
	DW	0ffffH
	DW	0ffffH
	DW	0ffffH
	DW	0ffffH
	DW	0ffffH
	DW	0ffffH
	DW	0ffffH
	DW	0ffffH
	DW	0ffffH
	DW	0ffffH
	DW	0ffffH
	DW	0ffffH
	DW	0ffffH
	DW	0ffffH
	DW	0ffffH
	DW	0ffffH
	DW	0ffffH
	DW	0ffffH
	DW	0ffffH
	DW	0ffffH
	DW	0ffffH
	DW	0ffffH
	DW	0ffffH
	DW	0ffffH
	DW	0ffffH
	DW	0ffffH
	DW	0ffffH
	DW	0ffffH
	DW	0ffffH
	DW	0ffffH
	DW	0ffffH
	DW	0ffffH
	DW	0ffffH
	DW	0ffffH
	DW	0ffffH
	DW	0ffffH
	DW	0ffffH
	DW	0ffffH
	DW	0ffffH
	DW	0ffffH
	DW	0ffffH
	DW	0ffffH
	DW	0ffffH
	DW	0ffffH
	DW	0ffffH
	DW	0ffffH
	DW	0ffffH
	DW	0ffffH
	DW	0ffffH
	DW	0ffffH
	DW	0ffffH
	DW	0ffffH
	DW	0ffffH
	DW	0ffffH
	DW	0ffffH
	DW	0ffffH
	DW	0ffffH
	DW	0ffffH
	DW	0ffffH
	DW	0ffffH
	DW	0ffffH
	DW	0ffffH
	DW	0ffffH
	DW	0ffffH
	DW	0ffffH
	DW	0ffffH
	DW	0ffffH
	DW	0ffffH
	DW	0ffffH
	DW	0ffffH
	DW	0ffffH
	DW	0ffffH
	DW	0ffffH
	DW	0ffffH
	DW	0ffffH
	DW	0aa26H
	DW	0ab26H
	DW	0aa43H
	DW	0ab43H
	DW	0aa55H
	DW	0ab55H
	DW	0aa67H
	DW	0ab67H
	DW	0aa70H
	DW	0ab70H
	DW	0aa6dH
	DW	0ab6dH
	DW	0aa6fH
	DW	0ab6fH
	DW	0aa6eH
	DW	0ab6eH
	DW	0ffffH
	DW	0ffffH
	DW	0ffffH
	DW	0ffffH
	DW	0ffffH
	DW	0ffffH
	DW	0ffffH
	DW	0ffffH
	DW	0ffffH
	DW	0ffffH
	DW	0ffffH
	DW	0ffffH
	DW	0ffffH
	DW	0ffffH
	DW	0ffffH
	DW	0ffffH
	DW	0ffffH
	DW	0ffffH
	DW	0ffffH
	DW	0ffffH
	DW	0ffffH
	DW	0ffffH
	DW	0ffffH
	DW	0ffffH
	DW	0ab39H
	DW	0a230H
	DW	0ffffH
	DW	0ffffH
	DW	0ffffH
	DW	0ffffH
	DW	0ffffH
	DW	0ffffH
	DW	0ffffH
	DW	0ffffH
	DW	0ffffH
	DW	0ffffH
	DW	0ffffH
	DW	0ffffH
	DW	0ffffH
	DW	0ffffH
	DW	0ffffH
	DW	0ffffH
	DW	0a22fH
	DW	0a232H
	DW	0a236H
	DW	0a235H
	DW	0ffffH
	DW	0a233H
	DW	0a238H
	DW	0a239H
	DW	0a661H
	DW	0ffffH
	DW	0a662H
	DW	0a663H
	DW	0a664H
	DW	0ffffH
	DW	0a667H
	DW	0ffffH
	DW	0a669H
	DW	0a66cH
	DW	0a676H
	DW	02621H
	DW	02622H
	DW	02623H
	DW	02624H
	DW	02625H
	DW	02626H
	DW	02627H
	DW	02628H
	DW	02629H
	DW	0262aH
	DW	0262bH
	DW	0262cH
	DW	0262dH
	DW	0262eH
	DW	0262fH
	DW	02630H
	DW	02631H
	DW	0ffffH
	DW	02632H
	DW	02633H
	DW	02634H
	DW	02635H
	DW	02636H
	DW	02637H
	DW	02638H
	DW	0a665H
	DW	0a66aH
	DW	0a671H
	DW	0a672H
	DW	0a673H
	DW	0a674H
	DW	0a67bH
	DW	02641H
	DW	02642H
	DW	02643H
	DW	02644H
	DW	02645H
	DW	02646H
	DW	02647H
	DW	02648H
	DW	02649H
	DW	0264aH
	DW	0264bH
	DW	0264cH
	DW	0264dH
	DW	0264eH
	DW	0264fH
	DW	02650H
	DW	02651H
	DW	0a678H
	DW	02652H
	DW	02653H
	DW	02654H
	DW	02655H
	DW	02656H
	DW	02657H
	DW	02658H
	DW	0a675H
	DW	0a67aH
	DW	0a677H
	DW	0a679H
	DW	0a67cH
	DW	02727H
	DW	0a742H
	DW	0a743H
	DW	0a744H
	DW	0a745H
	DW	0a746H
	DW	0a747H
	DW	0a748H
	DW	0a749H
	DW	0a74aH
	DW	0a74bH
	DW	0a74cH
	DW	0ffffH
	DW	0a74dH
	DW	0a74eH
	DW	02721H
	DW	02722H
	DW	02723H
	DW	02724H
	DW	02725H
	DW	02726H
	DW	02728H
	DW	02729H
	DW	0272aH
	DW	0272bH
	DW	0272cH
	DW	0272dH
	DW	0272eH
	DW	0272fH
	DW	02730H
	DW	02731H
	DW	02732H
	DW	02733H
	DW	02734H
	DW	02735H
	DW	02736H
	DW	02737H
	DW	02738H
	DW	02739H
	DW	0273aH
	DW	0273bH
	DW	0273cH
	DW	0273dH
	DW	0273eH
	DW	0273fH
	DW	02740H
	DW	02741H
	DW	02751H
	DW	02752H
	DW	02753H
	DW	02754H
	DW	02755H
	DW	02756H
	DW	02758H
	DW	02759H
	DW	0275aH
	DW	0275bH
	DW	0275cH
	DW	0275dH
	DW	0275eH
	DW	0275fH
	DW	02760H
	DW	02761H
	DW	02762H
	DW	02763H
	DW	02764H
	DW	02765H
	DW	02766H
	DW	02767H
	DW	02768H
	DW	02769H
	DW	0276aH
	DW	0276bH
	DW	0276cH
	DW	0276dH
	DW	0276eH
	DW	0276fH
	DW	02770H
	DW	02771H
	DW	0ffffH
	DW	02757H
	DW	0a772H
	DW	0a773H
	DW	0a774H
	DW	0a775H
	DW	0a776H
	DW	0a777H
	DW	0a778H
	DW	0a779H
	DW	0a77aH
	DW	0a77bH
	DW	0a77cH
	DW	0ffffH
	DW	0a77dH
	DW	0a77eH
	DW	0213eH
	DW	0ffffH
	DW	0ffffH
	DW	0ffffH
	DW	0ffffH
	DW	0213dH
	DW	02142H
	DW	0ffffH
	DW	02146H
	DW	02147H
	DW	0ffffH
	DW	0ffffH
	DW	02148H
	DW	02149H
	DW	0ffffH
	DW	0ffffH
	DW	02277H
	DW	02278H
	DW	0ffffH
	DW	0ffffH
	DW	0ffffH
	DW	02145H
	DW	02144H
	DW	0ffffH
	DW	0ffffH
	DW	0ffffH
	DW	0ffffH
	DW	0ffffH
	DW	0ffffH
	DW	0ffffH
	DW	0ffffH
	DW	0ffffH
	DW	02273H
	DW	0ffffH
	DW	0216cH
	DW	0216dH
	DW	0ffffH
	DW	0ffffH
	DW	0ffffH
	DW	0ffffH
	DW	0ffffH
	DW	0ffffH
	DW	0ffffH
	DW	02228H
	DW	0216eH
	DW	0ffffH
	DW	0ffffH
	DW	0ffffH
	DW	0ffffH
	DW	0ffffH
	DW	0ffffH
	DW	0ffffH
	DW	0ffffH
	DW	0ffffH
	DW	0ffffH
	DW	0ffffH
	DW	0ffffH
	DW	0ffffH
	DW	0ffffH
	DW	0ffffH
	DW	0ffffH
	DW	0ffffH
	DW	0ffffH
	DW	0a271H
	DW	0ffffH
	DW	0ffffH
	DW	0ffffH
	DW	0ffffH
	DW	0ffffH
	DW	0ffffH
	DW	0ffffH
	DW	0ffffH
	DW	0ffffH
	DW	0ffffH
	DW	0ffffH
	DW	0a26fH
	DW	0ffffH
	DW	0ffffH
	DW	0ffffH
	DW	0ffffH
	DW	0ffffH
	DW	0ffffH
	DW	0ffffH
	DW	0ffffH
	DW	02272H
	DW	0ffffH
	DW	0ffffH
	DW	0ffffH
	DW	0ffffH
	DW	0ffffH
	DW	0ffffH
	DW	0ffffH
	DW	0ffffH
	DW	0ffffH
	DW	0ffffH
	DW	0ffffH
	DW	0ffffH
	DW	0ffffH
	DW	0ffffH
	DW	0ffffH
	DW	0ffffH
	DW	0ffffH
	DW	0ffffH
	DW	0ffffH
	DW	0ffffH
	DW	0ffffH
	DW	0ffffH
	DW	0ffffH
	DW	0ffffH
	DW	0ffffH
	DW	0ffffH
	DW	0ffffH
	DW	0ffffH
	DW	0ffffH
	DW	0ffffH
	DW	0ffffH
	DW	0ffffH
	DW	0ffffH
	DW	0ffffH
	DW	0ffffH
	DW	0ffffH
	DW	0ffffH
	DW	0ffffH
	DW	0ffffH
	DW	0ffffH
	DW	0ffffH
	DW	0ffffH
	DW	0ffffH
	DW	0ffffH
	DW	0ffffH
	DW	0ffffH
	DW	0ffffH
	DW	0ffffH
	DW	0ffffH
	DW	0ffffH
	DW	0ffffH
	DW	0ffffH
	DW	0ffffH
	DW	0ffffH
	DW	0ffffH
	DW	0ffffH
	DW	0ffffH
	DW	0ffffH
	DW	0ffffH
	DW	0ffffH
	DW	0ffffH
	DW	0ffffH
	DW	0ffffH
	DW	0ffffH
	DW	0ffffH
	DW	0ffffH
	DW	0ffffH
	DW	0ffffH
	DW	0ffffH
	DW	0ffffH
	DW	0ffffH
	DW	0ffffH
	DW	0ffffH
	DW	0ffffH
	DW	0ffffH
	DW	0ffffH
	DW	0ffffH
	DW	0ffffH
	DW	0ffffH
	DW	0ffffH
	DW	0ffffH
	DW	0ffffH
	DW	0ffffH
	DW	0ffffH
	DW	0ffffH
	DW	0ffffH
	DW	0ffffH
	DW	0ffffH
	DW	0ffffH
	DW	0ffffH
	DW	0ffffH
	DW	0ffffH
	DW	0ffffH
	DW	0ffffH
	DW	0ffffH
	DW	0ffffH
	DW	0ffffH
	DW	0ffffH
	DW	0ffffH
	DW	0ffffH
	DW	0222bH
	DW	0222cH
	DW	0222aH
	DW	0222dH
	DW	0ffffH
	DW	0ffffH
	DW	0ffffH
	DW	0ffffH
	DW	0ffffH
	DW	0ffffH
	DW	0ffffH
	DW	0ffffH
	DW	0ffffH
	DW	0ffffH
	DW	0ffffH
	DW	0ffffH
	DW	0ffffH
	DW	0ffffH
	DW	0ffffH
	DW	0ffffH
	DW	0ffffH
	DW	0ffffH
	DW	0ffffH
	DW	0ffffH
	DW	0ffffH
	DW	0ffffH
	DW	0ffffH
	DW	0ffffH
	DW	0ffffH
	DW	0ffffH
	DW	0ffffH
	DW	0ffffH
	DW	0ffffH
	DW	0ffffH
	DW	0ffffH
	DW	0ffffH
	DW	0ffffH
	DW	0ffffH
	DW	0ffffH
	DW	0ffffH
	DW	0ffffH
	DW	0ffffH
	DW	0ffffH
	DW	0ffffH
	DW	0ffffH
	DW	0ffffH
	DW	0ffffH
	DW	0ffffH
	DW	0ffffH
	DW	0ffffH
	DW	0ffffH
	DW	0ffffH
	DW	0ffffH
	DW	0ffffH
	DW	0ffffH
	DW	0ffffH
	DW	0ffffH
	DW	0ffffH
	DW	0ffffH
	DW	0ffffH
	DW	0ffffH
	DW	0ffffH
	DW	0ffffH
	DW	0ffffH
	DW	0ffffH
	DW	0ffffH
	DW	0224dH
	DW	0ffffH
	DW	0224eH
	DW	0224fH
	DW	0ffffH
	DW	0225fH
	DW	02250H
	DW	0ffffH
	DW	0ffffH
	DW	0ffffH
	DW	02260H
	DW	0223aH
	DW	0ffffH
	DW	0ffffH
	DW	0223bH
	DW	0ffffH
	DW	0ffffH
	DW	0ffffH
	DW	0ffffH
	DW	0ffffH
	DW	0ffffH
	DW	0215dH
	DW	0ffffH
	DW	0ffffH
	DW	0ffffH
	DW	0ffffH
	DW	0ffffH
	DW	0ffffH
	DW	0ffffH
	DW	02265H
	DW	0ffffH
	DW	0ffffH
	DW	02267H
	DW	02167H
	DW	0ffffH
	DW	0225cH
	DW	0ffffH
	DW	0ffffH
	DW	0ffffH
	DW	0ffffH
	DW	0ffffH
	DW	0ffffH
	DW	0224aH
	DW	0224bH
	DW	02241H
	DW	02240H
	DW	02269H
	DW	0226aH
	DW	0ffffH
	DW	0ffffH
	DW	0ffffH
	DW	0ffffH
	DW	0ffffH
	DW	0ffffH
	DW	0ffffH
	DW	02168H
	DW	02268H
	DW	0ffffH
	DW	0ffffH
	DW	0ffffH
	DW	0ffffH
	DW	0ffffH
	DW	0ffffH
	DW	0ffffH
	DW	02266H
	DW	0ffffH
	DW	0ffffH
	DW	0ffffH
	DW	0ffffH
	DW	0ffffH
	DW	0ffffH
	DW	0ffffH
	DW	0ffffH
	DW	0ffffH
	DW	0ffffH
	DW	0ffffH
	DW	0ffffH
	DW	0ffffH
	DW	0ffffH
	DW	0ffffH
	DW	0ffffH
	DW	0ffffH
	DW	0ffffH
	DW	0ffffH
	DW	0ffffH
	DW	02262H
	DW	0ffffH
	DW	0ffffH
	DW	0ffffH
	DW	0ffffH
	DW	0ffffH
	DW	0ffffH
	DW	0ffffH
	DW	0ffffH
	DW	0ffffH
	DW	0ffffH
	DW	0ffffH
	DW	0ffffH
	DW	0ffffH
	DW	02162H
	DW	02261H
	DW	0ffffH
	DW	0ffffH
	DW	0ffffH
	DW	0ffffH
	DW	02165H
	DW	02166H
	DW	0ffffH
	DW	0ffffH
	DW	02263H
	DW	02264H
	DW	0ffffH
	DW	0ffffH
	DW	0ffffH
	DW	0ffffH
	DW	0ffffH
	DW	0ffffH
	DW	0ffffH
	DW	0ffffH
	DW	0ffffH
	DW	0ffffH
	DW	0ffffH
	DW	0ffffH
	DW	0ffffH
	DW	0ffffH
	DW	0ffffH
	DW	0ffffH
	DW	0ffffH
	DW	0ffffH
	DW	0ffffH
	DW	0ffffH
	DW	0ffffH
	DW	0ffffH
	DW	0223eH
	DW	0223fH
	DW	0ffffH
	DW	0ffffH
	DW	0223cH
	DW	0223dH
	DW	0ffffH
	DW	0ffffH
	DW	0ffffH
	DW	0ffffH
	DW	0ffffH
	DW	0ffffH
	DW	0ffffH
	DW	0ffffH
	DW	0ffffH
	DW	0ffffH
	DW	0ffffH
	DW	0ffffH
	DW	0ffffH
	DW	0ffffH
	DW	0ffffH
	DW	0ffffH
	DW	0ffffH
	DW	0ffffH
	DW	0ffffH
	DW	0ffffH
	DW	0ffffH
	DW	0ffffH
	DW	0ffffH
	DW	0ffffH
	DW	0ffffH
	DW	0ffffH
	DW	0ffffH
	DW	0ffffH
	DW	0ffffH
	DW	0225dH
	DW	0225eH
	DW	02821H
	DW	0282cH
	DW	02822H
	DW	0282dH
	DW	0ffffH
	DW	0ffffH
	DW	0ffffH
	DW	0ffffH
	DW	0ffffH
	DW	0ffffH
	DW	0ffffH
	DW	0ffffH
	DW	02823H
	DW	0ffffH
	DW	0ffffH
	DW	0282eH
	DW	02824H
	DW	0ffffH
	DW	0ffffH
	DW	0282fH
	DW	02826H
	DW	0ffffH
	DW	0ffffH
	DW	02831H
	DW	02825H
	DW	0ffffH
	DW	0ffffH
	DW	02830H
	DW	02827H
	DW	0283cH
	DW	0ffffH
	DW	0ffffH
	DW	02837H
	DW	0ffffH
	DW	0ffffH
	DW	02832H
	DW	02829H
	DW	0283eH
	DW	0ffffH
	DW	0ffffH
	DW	02839H
	DW	0ffffH
	DW	0ffffH
	DW	02834H
	DW	02828H
	DW	0ffffH
	DW	0ffffH
	DW	02838H
	DW	0283dH
	DW	0ffffH
	DW	0ffffH
	DW	02833H
	DW	0282aH
	DW	0ffffH
	DW	0ffffH
	DW	0283aH
	DW	0283fH
	DW	0ffffH
	DW	0ffffH
	DW	02835H
	DW	0282bH
	DW	0ffffH
	DW	0ffffH
	DW	0283bH
	DW	0ffffH
	DW	0ffffH
	DW	02840H
	DW	0ffffH
	DW	0ffffH
	DW	0ffffH
	DW	0ffffH
	DW	0ffffH
	DW	0ffffH
	DW	0ffffH
	DW	0ffffH
	DW	02836H
	DW	0ffffH
	DW	0ffffH
	DW	0ffffH
	DW	0ffffH
	DW	0ffffH
	DW	0ffffH
	DW	0ffffH
	DW	0ffffH
	DW	0ffffH
	DW	0ffffH
	DW	0ffffH
	DW	0ffffH
	DW	0ffffH
	DW	0ffffH
	DW	0ffffH
	DW	0ffffH
	DW	0ffffH
	DW	0ffffH
	DW	0ffffH
	DW	0ffffH
	DW	0ffffH
	DW	0ffffH
	DW	0ffffH
	DW	0ffffH
	DW	0ffffH
	DW	0ffffH
	DW	0ffffH
	DW	0ffffH
	DW	0ffffH
	DW	0ffffH
	DW	0ffffH
	DW	0ffffH
	DW	0ffffH
	DW	0ffffH
	DW	0ffffH
	DW	0ffffH
	DW	0ffffH
	DW	0ffffH
	DW	0ffffH
	DW	0ffffH
	DW	0ffffH
	DW	0ffffH
	DW	0ffffH
	DW	0ffffH
	DW	0ffffH
	DW	0ffffH
	DW	0ffffH
	DW	0ffffH
	DW	0ffffH
	DW	0ffffH
	DW	0ffffH
	DW	0ffffH
	DW	0ffffH
	DW	0ffffH
	DW	0ffffH
	DW	0ffffH
	DW	0ffffH
	DW	0ffffH
	DW	0ffffH
	DW	0ffffH
	DW	0ffffH
	DW	0ffffH
	DW	0ffffH
	DW	0ffffH
	DW	0ffffH
	DW	0ffffH
	DW	0ffffH
	DW	0ffffH
	DW	0ffffH
	DW	0ffffH
	DW	0ffffH
	DW	0ffffH
	DW	0ffffH
	DW	0ffffH
	DW	0ffffH
	DW	0ffffH
	DW	0ffffH
	DW	0ffffH
	DW	0ffffH
	DW	0ffffH
	DW	0ffffH
	DW	0ffffH
	DW	0ffffH
	DW	0ffffH
	DW	02223H
	DW	02222H
	DW	0ffffH
	DW	0ffffH
	DW	0ffffH
	DW	0ffffH
	DW	0ffffH
	DW	0ffffH
	DW	0ffffH
	DW	0ffffH
	DW	0ffffH
	DW	0ffffH
	DW	0ffffH
	DW	0ffffH
	DW	0ffffH
	DW	0ffffH
	DW	0ffffH
	DW	0ffffH
	DW	02225H
	DW	02224H
	DW	0ffffH
	DW	0ffffH
	DW	0ffffH
	DW	0ffffH
	DW	0ffffH
	DW	0ffffH
	DW	0ffffH
	DW	0ffffH
	DW	02227H
	DW	02226H
	DW	0ffffH
	DW	0ffffH
	DW	0ffffH
	DW	0ffffH
	DW	0ffffH
	DW	0ffffH
	DW	0ffffH
	DW	0ffffH
	DW	02221H
	DW	0217eH
	DW	0ffffH
	DW	0ffffH
	DW	0ffffH
	DW	0217bH
	DW	0ffffH
	DW	0ffffH
	DW	0217dH
	DW	0217cH
	DW	0ffffH
	DW	0ffffH
	DW	0ffffH
	DW	0ffffH
	DW	0ffffH
	DW	0ffffH
	DW	0ffffH
	DW	0ffffH
	DW	0ffffH
	DW	0ffffH
	DW	0ffffH
	DW	0ffffH
	DW	0ffffH
	DW	0ffffH
	DW	0ffffH
	DW	0ffffH
	DW	0ffffH
	DW	0ffffH
	DW	0ffffH
	DW	0ffffH
	DW	0ffffH
	DW	0ffffH
	DW	0ffffH
	DW	0ffffH
	DW	0ffffH
	DW	0ffffH
	DW	0ffffH
	DW	0ffffH
	DW	0ffffH
	DW	0ffffH
	DW	0ffffH
	DW	0227eH
	DW	0217aH
	DW	02179H
	DW	0ffffH
	DW	0ffffH
	DW	0ffffH
	DW	0ffffH
	DW	0ffffH
	DW	0ffffH
	DW	0ffffH
	DW	0ffffH
	DW	0ffffH
	DW	0ffffH
	DW	0ffffH
	DW	0ffffH
	DW	0ffffH
	DW	0ffffH
	DW	0ffffH
	DW	0ffffH
	DW	0ffffH
	DW	0ffffH
	DW	0ffffH
	DW	0ffffH
	DW	0ffffH
	DW	0ffffH
	DW	0ffffH
	DW	0ffffH
	DW	0ffffH
	DW	0ffffH
	DW	0ffffH
	DW	0ffffH
	DW	0ffffH
	DW	0ffffH
	DW	0ffffH
	DW	0ffffH
	DW	0ffffH
	DW	0ffffH
	DW	0ffffH
	DW	0ffffH
	DW	0ffffH
	DW	0ffffH
	DW	0ffffH
	DW	0ffffH
	DW	0ffffH
	DW	0ffffH
	DW	0ffffH
	DW	0ffffH
	DW	0ffffH
	DW	0ffffH
	DW	0ffffH
	DW	0ffffH
	DW	0ffffH
	DW	0ffffH
	DW	0ffffH
	DW	0ffffH
	DW	0ffffH
	DW	0ffffH
	DW	0ffffH
	DW	0ffffH
	DW	0ffffH
	DW	0216aH
	DW	0ffffH
	DW	02169H
	DW	0ffffH
	DW	0ffffH
	DW	0ffffH
	DW	0ffffH
	DW	0ffffH
	DW	0ffffH
	DW	0ffffH
	DW	0ffffH
	DW	0ffffH
	DW	0ffffH
	DW	0ffffH
	DW	0ffffH
	DW	0ffffH
	DW	0ffffH
	DW	0ffffH
	DW	0ffffH
	DW	0ffffH
	DW	0ffffH
	DW	0ffffH
	DW	0ffffH
	DW	0ffffH
	DW	0ffffH
	DW	0ffffH
	DW	0ffffH
	DW	0ffffH
	DW	0ffffH
	DW	0ffffH
	DW	0ffffH
	DW	0ffffH
	DW	0ffffH
	DW	0ffffH
	DW	0ffffH
	DW	0ffffH
	DW	0ffffH
	DW	0ffffH
	DW	0ffffH
	DW	0ffffH
	DW	0ffffH
	DW	0ffffH
	DW	02276H
	DW	0ffffH
	DW	0ffffH
	DW	02275H
	DW	0ffffH
	DW	02274H
	DW	02121H
	DW	02122H
	DW	02123H
	DW	02137H
	DW	0ffffH
	DW	02139H
	DW	0213aH
	DW	0213bH
	DW	02152H
	DW	02153H
	DW	02154H
	DW	02155H
	DW	02156H
	DW	02157H
	DW	02158H
	DW	02159H
	DW	0215aH
	DW	0215bH
	DW	02229H
	DW	0222eH
	DW	0214cH
	DW	0214dH
	DW	0ffffH
	DW	0ffffH
	DW	0ffffH
	DW	0ffffH
	DW	0ffffH
	DW	0ffffH
	DW	02141H
	DW	0ffffH
	DW	0ffffH
	DW	0ffffH
	DW	0ffffH
	DW	0ffffH
	DW	0ffffH
	DW	0ffffH
	DW	0ffffH
	DW	0ffffH
	DW	0ffffH
	DW	0ffffH
	DW	0ffffH
	DW	0ffffH
	DW	0ffffH
	DW	0ffffH
	DW	0ffffH
	DW	0ffffH
	DW	0ffffH
	DW	0ffffH
	DW	0ffffH
	DW	0ffffH
	DW	0ffffH
	DW	0ffffH
	DW	0ffffH
	DW	0ffffH
	DW	0ffffH
	DW	0ffffH
	DW	0ffffH
	DW	0ffffH
	DW	0ffffH
	DW	0ffffH
	DW	0ffffH
	DW	0ffffH
	DW	0ffffH
	DW	0ffffH
	DW	0ffffH
	DW	02421H
	DW	02422H
	DW	02423H
	DW	02424H
	DW	02425H
	DW	02426H
	DW	02427H
	DW	02428H
	DW	02429H
	DW	0242aH
	DW	0242bH
	DW	0242cH
	DW	0242dH
	DW	0242eH
	DW	0242fH
	DW	02430H
	DW	02431H
	DW	02432H
	DW	02433H
	DW	02434H
	DW	02435H
	DW	02436H
	DW	02437H
	DW	02438H
	DW	02439H
	DW	0243aH
	DW	0243bH
	DW	0243cH
	DW	0243dH
	DW	0243eH
	DW	0243fH
	DW	02440H
	DW	02441H
	DW	02442H
	DW	02443H
	DW	02444H
	DW	02445H
	DW	02446H
	DW	02447H
	DW	02448H
	DW	02449H
	DW	0244aH
	DW	0244bH
	DW	0244cH
	DW	0244dH
	DW	0244eH
	DW	0244fH
	DW	02450H
	DW	02451H
	DW	02452H
	DW	02453H
	DW	02454H
	DW	02455H
	DW	02456H
	DW	02457H
	DW	02458H
	DW	02459H
	DW	0245aH
	DW	0245bH
	DW	0245cH
	DW	0245dH
	DW	0245eH
	DW	0245fH
	DW	02460H
	DW	02461H
	DW	02462H
	DW	02463H
	DW	02464H
	DW	02465H
	DW	02466H
	DW	02467H
	DW	02468H
	DW	02469H
	DW	0246aH
	DW	0246bH
	DW	0246cH
	DW	0246dH
	DW	0246eH
	DW	0246fH
	DW	02470H
	DW	02471H
	DW	02472H
	DW	02473H
	DW	0ffffH
	DW	0ffffH
	DW	0ffffH
	DW	0ffffH
	DW	0ffffH
	DW	0ffffH
	DW	0ffffH
	DW	0212bH
	DW	0212cH
	DW	02135H
	DW	02136H
	DW	0ffffH
	DW	0ffffH
	DW	02521H
	DW	02522H
	DW	02523H
	DW	02524H
	DW	02525H
	DW	02526H
	DW	02527H
	DW	02528H
	DW	02529H
	DW	0252aH
	DW	0252bH
	DW	0252cH
	DW	0252dH
	DW	0252eH
	DW	0252fH
	DW	02530H
	DW	02531H
	DW	02532H
	DW	02533H
	DW	02534H
	DW	02535H
	DW	02536H
	DW	02537H
	DW	02538H
	DW	02539H
	DW	0253aH
	DW	0253bH
	DW	0253cH
	DW	0253dH
	DW	0253eH
	DW	0253fH
	DW	02540H
	DW	02541H
	DW	02542H
	DW	02543H
	DW	02544H
	DW	02545H
	DW	02546H
	DW	02547H
	DW	02548H
	DW	02549H
	DW	0254aH
	DW	0254bH
	DW	0254cH
	DW	0254dH
	DW	0254eH
	DW	0254fH
	DW	02550H
	DW	02551H
	DW	02552H
	DW	02553H
	DW	02554H
	DW	02555H
	DW	02556H
	DW	02557H
	DW	02558H
	DW	02559H
	DW	0255aH
	DW	0255bH
	DW	0255cH
	DW	0255dH
	DW	0255eH
	DW	0255fH
	DW	02560H
	DW	02561H
	DW	02562H
	DW	02563H
	DW	02564H
	DW	02565H
	DW	02566H
	DW	02567H
	DW	02568H
	DW	02569H
	DW	0256aH
	DW	0256bH
	DW	0256cH
	DW	0256dH
	DW	0256eH
	DW	0256fH
	DW	02570H
	DW	02571H
	DW	02572H
	DW	02573H
	DW	02574H
	DW	02575H
	DW	02576H
	DW	0ffffH
	DW	0ffffH
	DW	0ffffH
	DW	0ffffH
	DW	02126H
	DW	0213cH
	DW	02133H
	DW	02134H
	DW	0306cH
	DW	0437aH
	DW	0b021H
	DW	03c37H
	DW	0b022H
	DW	0b023H
	DW	0ffffH
	DW	04b7cH
	DW	03e66H
	DW	03b30H
	DW	03e65H
	DW	0323cH
	DW	0b024H
	DW	04954H
	DW	04d3fH
	DW	0ffffH
	DW	05022H
	DW	0312fH
	DW	0b025H
	DW	0ffffH
	DW	0336eH
	DW	05023H
	DW	04024H
	DW	05242H
	DW	03556H
	DW	04a3aH
	DW	0ffffH
	DW	0ffffH
	DW	0ffffH
	DW	0ffffH
	DW	03e67H
	DW	0b026H
	DW	0ffffH
	DW	04e3eH
	DW	0ffffH
	DW	0b027H
	DW	0b028H
	DW	0ffffH
	DW	04a42H
	DW	0ffffH
	DW	0b029H
	DW	0ffffH
	DW	05024H
	DW	0b02aH
	DW	0ffffH
	DW	04366H
	DW	0b02bH
	DW	0b02cH
	DW	0b02dH
	DW	05025H
	DW	0367aH
	DW	0ffffH
	DW	0ffffH
	DW	0b02eH
	DW	05026H
	DW	0ffffH
	DW	0345dH
	DW	04330H
	DW	0ffffH
	DW	03c67H
	DW	05027H
	DW	0ffffH
	DW	0ffffH
	DW	05028H
	DW	0b02fH
	DW	0b030H
	DW	05029H
	DW	04735H
	DW	0b031H
	DW	03557H
	DW	0ffffH
	DW	0b032H
	DW	0ffffH
	DW	0ffffH
	DW	0ffffH
	DW	04737H
	DW	0ffffH
	DW	04663H
	DW	03843H
	DW	04b33H
	DW	0ffffH
	DW	0b033H
	DW	0ffffH
	DW	0ffffH
	DW	0ffffH
	DW	06949H
	DW	0502aH
	DW	03e68H
	DW	0502bH
	DW	03235H
	DW	0b034H
	DW	0ffffH
	DW	0b035H
	DW	03665H
	DW	03870H
	DW	04c69H
	DW	0ffffH
	DW	0ffffH
	DW	05626H
	DW	0b036H
	DW	0ffffH
	DW	0ffffH
	DW	0ffffH
	DW	0ffffH
	DW	0b037H
	DW	0b038H
	DW	0ffffH
	DW	0ffffH
	DW	0ffffH
	DW	0ffffH
	DW	0ffffH
	DW	0ffffH
	DW	0ffffH
	DW	04d70H
	DW	0ffffH
	DW	0467dH
	DW	0b039H
	DW	0b03aH
	DW	0ffffH
	DW	0ffffH
	DW	0ffffH
	DW	0b03bH
	DW	0ffffH
	DW	0ffffH
	DW	0ffffH
	DW	0ffffH
	DW	03425H
	DW	0b03cH
	DW	03535H
	DW	0ffffH
	DW	0502cH
	DW	0ffffH
	DW	0ffffH
	DW	0502dH
	DW	04e3bH
	DW	0ffffH
	DW	04d3dH
	DW	04168H
	DW	0502fH
	DW	03b76H
	DW	04673H
	DW	0b03dH
	DW	05032H
	DW	0ffffH
	DW	0ffffH
	DW	0313eH
	DW	0385fH
	DW	0ffffH
	DW	0385eH
	DW	03066H
	DW	0b03eH
	DW	0b03fH
	DW	04f4bH
	DW	04f4aH
	DW	0ffffH
	DW	03a33H
	DW	03021H
	DW	0b040H
	DW	05033H
	DW	05034H
	DW	05035H
	DW	04b34H
	DW	05036H
	DW	0ffffH
	DW	03872H
	DW	03067H
	DW	04b72H
	DW	0ffffH
	DW	0357cH
	DW	0ffffH
	DW	0ffffH
	DW	0357dH
	DW	0357eH
	DW	04462H
	DW	04e3cH
	DW	0b041H
	DW	05037H
	DW	0ffffH
	DW	0ffffH
	DW	05038H
	DW	0ffffH
	DW	0ffffH
	DW	05039H
	DW	0ffffH
	DW	0ffffH
	DW	0b042H
	DW	03f4dH
	DW	0ffffH
	DW	0ffffH
	DW	0ffffH
	DW	0ffffH
	DW	0ffffH
	DW	03d3aH
	DW	03f4eH
	DW	0503eH
	DW	0b043H
	DW	0503cH
	DW	0ffffH
	DW	0503dH
	DW	03558H
	DW	0ffffH
	DW	0ffffH
	DW	03a23H
	DW	03270H
	DW	0ffffH
	DW	0503bH
	DW	0503aH
	DW	04a29H
	DW	0b044H
	DW	0ffffH
	DW	0ffffH
	DW	0ffffH
	DW	03b46H
	DW	03b45H
	DW	0423eH
	DW	0503fH
	DW	04955H
	DW	04067H
	DW	0b045H
	DW	0b046H
	DW	0ffffH
	DW	02138H
	DW	05040H
	DW	05042H
	DW	0b047H
	DW	0b048H
	DW	0b049H
	DW	04265H
	DW	04e61H
	DW	0304aH
	DW	0ffffH
	DW	0ffffH
	DW	0b04aH
	DW	0ffffH
	DW	0ffffH
	DW	0ffffH
	DW	0ffffH
	DW	05041H
	DW	0323eH
	DW	0b04bH
	DW	03644H
	DW	0b04cH
	DW	04367H
	DW	0b04dH
	DW	0ffffH
	DW	0b04eH
	DW	0376fH
	DW	05043H
	DW	0ffffH
	DW	0ffffH
	DW	0ffffH
	DW	04724H
	DW	0ffffH
	DW	0b04fH
	DW	0b050H
	DW	0b051H
	DW	0b052H
	DW	0346bH
	DW	0b053H
	DW	0b054H
	DW	0ffffH
	DW	0ffffH
	DW	0ffffH
	DW	0ffffH
	DW	0b055H
	DW	05044H
	DW	0304bH
	DW	0b056H
	DW	0b057H
	DW	03860H
	DW	0346cH
	DW	0497aH
	DW	04832H
	DW	03559H
	DW	0b058H
	DW	0ffffH
	DW	0ffffH
	DW	0b059H
	DW	0b05aH
	DW	0b05bH
	DW	0ffffH
	DW	0b05cH
	DW	03271H
	DW	0ffffH
	DW	05067H
	DW	04541H
	DW	0ffffH
	DW	0ffffH
	DW	0ffffH
	DW	0ffffH
	DW	0ffffH
	DW	0ffffH
	DW	0ffffH
	DW	0ffffH
	DW	0ffffH
	DW	0ffffH
	DW	0ffffH
	DW	0ffffH
	DW	0ffffH
	DW	0ffffH
	DW	0ffffH
	DW	0ffffH
	DW	0b05dH
	DW	0476cH
	DW	05046H
	DW	0b05eH
	DW	0ffffH
	DW	0b060H
	DW	0483cH
	DW	0b061H
	DW	04e62H
	DW	0b062H
	DW	03f2dH
	DW	0b063H
	DW	03b47H
	DW	0b064H
	DW	03b77H
	DW	03240H
	DW	0b065H
	DW	0ffffH
	DW	0b066H
	DW	0ffffH
	DW	0b067H
	DW	04451H
	DW	0ffffH
	DW	0ffffH
	DW	04322H
	DW	0504aH
	DW	0b068H
	DW	0b069H
	DW	0ffffH
	DW	0b06aH
	DW	0b06bH
	DW	0304cH
	DW	04463H
	DW	03d3bH
	DW	03a34H
	DW	04d24H
	DW	0b06cH
	DW	0424eH
	DW	0b06dH
	DW	0323fH
	DW	0b06eH
	DW	05049H
	DW	0b06fH
	DW	04d3eH
	DW	05045H
	DW	05047H
	DW	03a6eH
	DW	05048H
	DW	05524H
	DW	0b070H
	DW	0b05fH
	DW	0ffffH
	DW	0ffffH
	DW	0b071H
	DW	0ffffH
	DW	0ffffH
	DW	0ffffH
	DW	0ffffH
	DW	0ffffH
	DW	05050H
	DW	0b072H
	DW	0ffffH
	DW	0b073H
	DW	0ffffH
	DW	0b074H
	DW	05053H
	DW	05051H
	DW	0b075H
	DW	0ffffH
	DW	03242H
	DW	0ffffH
	DW	04a3bH
	DW	0504bH
	DW	0b076H
	DW	0b077H
	DW	0b078H
	DW	0b079H
	DW	0504fH
	DW	03873H
	DW	0b07aH
	DW	0b07bH
	DW	03b48H
	DW	0ffffH
	DW	0b07cH
	DW	0b07dH
	DW	03426H
	DW	0b07eH
	DW	0b121H
	DW	05054H
	DW	0ffffH
	DW	0504cH
	DW	0b122H
	DW	0b123H
	DW	04e63H
	DW	0b124H
	DW	03b78H
	DW	0b125H
	DW	0504dH
	DW	0b126H
	DW	05052H
	DW	0b127H
	DW	0b128H
	DW	0b129H
	DW	0ffffH
	DW	05055H
	DW	0b12aH
	DW	0504eH
	DW	0b12bH
	DW	0b12cH
	DW	03621H
	DW	0ffffH
	DW	0304dH
	DW	0b12dH
	DW	0b12eH
	DW	03622H
	DW	03241H
	DW	0ffffH
	DW	0ffffH
	DW	0ffffH
	DW	0ffffH
	DW	0ffffH
	DW	0ffffH
	DW	0ffffH
	DW	0ffffH
	DW	0ffffH
	DW	05525H
	DW	0ffffH
	DW	04b79H
	DW	0496eH
	DW	03874H
	DW	0ffffH
	DW	0ffffH
	DW	0b12fH
	DW	0ffffH
	DW	0ffffH
	DW	03f2fH
	DW	04e37H
	DW	0b130H
	DW	0ffffH
	DW	0b131H
	DW	0ffffH
	DW	0b132H
	DW	0b133H
	DW	0b134H
	DW	0b135H
	DW	04a58H
	DW	0b136H
	DW	0b137H
	DW	03738H
	DW	04225H
	DW	03264H
	DW	0b138H
	DW	0b139H
	DW	0ffffH
	DW	0b13aH
	DW	0b13bH
	DW	03d53H
	DW	0b13cH
	DW	0b13dH
	DW	0b13eH
	DW	05059H
	DW	0b13fH
	DW	0505eH
	DW	0505cH
	DW	0b140H
	DW	0ffffH
	DW	05057H
	DW	0ffffH
	DW	0ffffH
	DW	0422fH
	DW	0505aH
	DW	0ffffH
	DW	0505dH
	DW	0505bH
	DW	0b141H
	DW	04a5dH
	DW	0ffffH
	DW	05058H
	DW	0b142H
	DW	03f2eH
	DW	0b143H
	DW	04b73H
	DW	0505fH
	DW	05060H
	DW	0ffffH
	DW	0ffffH
	DW	0ffffH
	DW	0ffffH
	DW	0ffffH
	DW	0ffffH
	DW	0ffffH
	DW	0ffffH
	DW	03d24H
	DW	0506dH
	DW	0b144H
	DW	0ffffH
	DW	0b145H
	DW	04750H
	DW	0ffffH
	DW	04936H
	DW	05068H
	DW	0ffffH
	DW	04a70H
	DW	0ffffH
	DW	03236H
	DW	0ffffH
	DW	0b146H
	DW	0b147H
	DW	0506cH
	DW	0b148H
	DW	0b149H
	DW	0b14aH
	DW	0ffffH
	DW	0ffffH
	DW	0b14bH
	DW	05066H
	DW	0506fH
	DW	0b14cH
	DW	0ffffH
	DW	04152H
	DW	0b14dH
	DW	03844H
	DW	0b14eH
	DW	0475cH
	DW	0b14fH
	DW	06047H
	DW	0b150H
	DW	0506eH
	DW	0455dH
	DW	0b151H
	DW	05063H
	DW	0ffffH
	DW	03876H
	DW	0b152H
	DW	0b153H
	DW	03875H
	DW	05061H
	DW	0b154H
	DW	0b155H
	DW	0b156H
	DW	0b157H
	DW	03c5aH
	DW	0ffffH
	DW	05069H
	DW	0b158H
	DW	04a6fH
	DW	0434dH
	DW	05065H
	DW	03771H
	DW	0b159H
	DW	05062H
	DW	0506aH
	DW	05064H
	DW	04e51H
	DW	0506bH
	DW	04f41H
	DW	0b15aH
	DW	0ffffH
	DW	0b15bH
	DW	0ffffH
	DW	0b15cH
	DW	0b15dH
	DW	0ffffH
	DW	0b15eH
	DW	03666H
	DW	0ffffH
	DW	0ffffH
	DW	03770H
	DW	0ffffH
	DW	0b176H
	DW	0ffffH
	DW	0ffffH
	DW	0ffffH
	DW	0ffffH
	DW	0b15fH
	DW	0b160H
	DW	0b161H
	DW	05070H
	DW	0ffffH
	DW	0b162H
	DW	0b163H
	DW	05071H
	DW	05075H
	DW	0304eH
	DW	0b164H
	DW	0ffffH
	DW	0b165H
	DW	0ffffH
	DW	0b166H
	DW	04a50H
	DW	05074H
	DW	0b167H
	DW	0b168H
	DW	0b169H
	DW	0ffffH
	DW	05073H
	DW	05077H
	DW	0b16aH
	DW	0ffffH
	DW	0b16bH
	DW	05076H
	DW	0ffffH
	DW	04464H
	DW	0ffffH
	DW	0ffffH
	DW	0b16cH
	DW	0b16dH
	DW	0ffffH
	DW	0b16eH
	DW	0b16fH
	DW	0ffffH
	DW	03772H
	DW	0b170H
	DW	0b171H
	DW	0ffffH
	DW	0ffffH
	DW	0b172H
	DW	0ffffH
	DW	05078H
	DW	0b173H
	DW	0ffffH
	DW	0ffffH
	DW	0b174H
	DW	0b175H
	DW	03c45H
	DW	0ffffH
	DW	04226H
	DW	04465H
	DW	03676H
	DW	0ffffH
	DW	05079H
	DW	0ffffH
	DW	0ffffH
	DW	0ffffH
	DW	0ffffH
	DW	03536H
	DW	0ffffH
	DW	0ffffH
	DW	0507aH
	DW	0b177H
	DW	0ffffH
	DW	0b178H
	DW	0b179H
	DW	0507cH
	DW	0b17aH
	DW	0ffffH
	DW	0ffffH
	DW	0ffffH
	DW	0b17bH
	DW	0ffffH
	DW	0ffffH
	DW	04b35H
	DW	0b17cH
	DW	0b17dH
	DW	0b17eH
	DW	03766H
	DW	0b221H
	DW	0b222H
	DW	0b223H
	DW	0ffffH
	DW	0b224H
	DW	0ffffH
	DW	03b31H
	DW	04877H
	DW	0507bH
	DW	0b225H
	DW	0b226H
	DW	0ffffH
	DW	0b227H
	DW	0b228H
	DW	0b229H
	DW	0b22aH
	DW	0b22bH
	DW	0ffffH
	DW	0ffffH
	DW	0ffffH
	DW	0ffffH
	DW	0ffffH
	DW	0ffffH
	DW	0ffffH
	DW	0b22cH
	DW	0ffffH
	DW	03a45H
	DW	04d43H
	DW	0ffffH
	DW	0b22dH
	DW	0b22eH
	DW	0ffffH
	DW	0507eH
	DW	05123H
	DW	0507dH
	DW	03a44H
	DW	0ffffH
	DW	03d7dH
	DW	0ffffH
	DW	0b22fH
	DW	0b230H
	DW	0ffffH
	DW	0ffffH
	DW	0b231H
	DW	03739H
	DW	0ffffH
	DW	0b232H
	DW	0ffffH
	DW	05124H
	DW	0b233H
	DW	0b234H
	DW	0364fH
	DW	0ffffH
	DW	0b235H
	DW	0ffffH
	DW	05121H
	DW	05122H
	DW	0ffffH
	DW	0b236H
	DW	0462fH
	DW	0b237H
	DW	0417cH
	DW	0b238H
	DW	03623H
	DW	0ffffH
	DW	0b239H
	DW	0b23aH
	DW	04b4dH
	DW	05125H
	DW	0ffffH
	DW	0b23bH
	DW	0ffffH
	DW	04e3dH
	DW	0ffffH
	DW	0b23cH
	DW	0b23dH
	DW	05126H
	DW	0b23eH
	DW	0ffffH
	DW	0ffffH
	DW	0b23fH
	DW	05129H
	DW	0b240H
	DW	05127H
	DW	0b241H
	DW	0414eH
	DW	0b242H
	DW	0b243H
	DW	0ffffH
	DW	0ffffH
	DW	0ffffH
	DW	05128H
	DW	0512aH
	DW	0b244H
	DW	0ffffH
	DW	0b245H
	DW	0b251H
	DW	0ffffH
	DW	0ffffH
	DW	0512cH
	DW	0b246H
	DW	0ffffH
	DW	0ffffH
	DW	0512bH
	DW	0b247H
	DW	04a48H
	DW	0ffffH
	DW	0ffffH
	DW	0b248H
	DW	03537H
	DW	0512eH
	DW	0512fH
	DW	0b249H
	DW	0322fH
	DW	0ffffH
	DW	0b24aH
	DW	0b24bH
	DW	0b24cH
	DW	0512dH
	DW	0ffffH
	DW	0b24dH
	DW	0b24eH
	DW	0b24fH
	DW	0b250H
	DW	0ffffH
	DW	0b252H
	DW	0ffffH
	DW	03c74H
	DW	0ffffH
	DW	05132H
	DW	05131H
	DW	05130H
	DW	0b253H
	DW	05056H
	DW	0b254H
	DW	05133H
	DW	0b255H
	DW	0b256H
	DW	0b257H
	DW	0b258H
	DW	03d7eH
	DW	0ffffH
	DW	05134H
	DW	0ffffH
	DW	0b259H
	DW	0ffffH
	DW	0ffffH
	DW	0ffffH
	DW	0b25aH
	DW	0b25bH
	DW	0ffffH
	DW	04d25H
	DW	0ffffH
	DW	0b25cH
	DW	0b25dH
	DW	0ffffH
	DW	0b25eH
	DW	0ffffH
	DW	0b25fH
	DW	04c59H
	DW	0b260H
	DW	0b261H
	DW	0b262H
	DW	0ffffH
	DW	05136H
	DW	0b263H
	DW	0b264H
	DW	05135H
	DW	05138H
	DW	05137H
	DW	0ffffH
	DW	0ffffH
	DW	05139H
	DW	0513aH
	DW	03074H
	DW	0b265H
	DW	03835H
	DW	0373bH
	DW	03d3cH
	DW	0437bH
	DW	03624H
	DW	04068H
	DW	03877H
	DW	0b266H
	DW	0396eH
	DW	0513cH
	DW	04c48H
	DW	04546H
	DW	0b267H
	DW	03b79H
	DW	0ffffH
	DW	0513bH
	DW	0b268H
	DW	0513dH
	DW	0b269H
	DW	0ffffH
	DW	0b26aH
	DW	0b26bH
	DW	0ffffH
	DW	0455eH
	DW	0ffffH
	DW	03375H
	DW	0ffffH
	DW	0ffffH
	DW	0b26cH
	DW	0ffffH
	DW	0ffffH
	DW	0513eH
	DW	0ffffH
	DW	0b26dH
	DW	0467eH
	DW	0b26eH
	DW	0ffffH
	DW	04134H
	DW	05140H
	DW	05141H
	DW	0482cH
	DW	03878H
	DW	04f3bH
	DW	05142H
	DW	0ffffH
	DW	0ffffH
	DW	03626H
	DW	0ffffH
	DW	0ffffH
	DW	0ffffH
	DW	04a3cH
	DW	04236H
	DW	03671H
	DW	04535H
	DW	0ffffH
	DW	0ffffH
	DW	0ffffH
	DW	03773H
	DW	0ffffH
	DW	0b26fH
	DW	0ffffH
	DW	05143H
	DW	0ffffH
	DW	05144H
	DW	0b270H
	DW	0b271H
	DW	04662H
	DW	0315fH
	DW	0ffffH
	DW	0ffffH
	DW	05147H
	DW	03a7dH
	DW	0b272H
	DW	05146H
	DW	03a46H
	DW	0b273H
	DW	05148H
	DW	0666eH
	DW	05149H
	DW	04b41H
	DW	0514aH
	DW	0ffffH
	DW	0514bH
	DW	0514cH
	DW	03e69H
	DW	0b274H
	DW	03c4cH
	DW	0ffffH
	DW	0ffffH
	DW	0ffffH
	DW	0b275H
	DW	0ffffH
	DW	0ffffH
	DW	03427H
	DW	0b276H
	DW	0514fH
	DW	0b277H
	DW	0514dH
	DW	04c3dH
	DW	0514eH
	DW	0ffffH
	DW	0495aH
	DW	05150H
	DW	05151H
	DW	05152H
	DW	0455fH
	DW	0b278H
	DW	0ffffH
	DW	0ffffH
	DW	05156H
	DW	05154H
	DW	05155H
	DW	05153H
	DW	03a63H
	DW	05157H
	DW	04c6aH
	DW	04e64H
	DW	0b279H
	DW	0ffffH
	DW	0b27aH
	DW	0ffffH
	DW	0b27bH
	DW	05158H
	DW	0b27cH
	DW	0b27dH
	DW	0ffffH
	DW	0ffffH
	DW	0b27eH
	DW	0ffffH
	DW	04028H
	DW	05159H
	DW	03d5aH
	DW	0ffffH
	DW	0b321H
	DW	0515aH
	DW	0ffffH
	DW	0437cH
	DW	04e3fH
	DW	04560H
	DW	0ffffH
	DW	0b322H
	DW	0ffffH
	DW	0b323H
	DW	0b324H
	DW	0b325H
	DW	0ffffH
	DW	0b326H
	DW	05245H
	DW	0ffffH
	DW	0b327H
	DW	0ffffH
	DW	0ffffH
	DW	0515bH
	DW	07425H
	DW	03645H
	DW	0b328H
	DW	0ffffH
	DW	0515cH
	DW	04b5eH
	DW	0b329H
	DW	0ffffH
	DW	0ffffH
	DW	0b32aH
	DW	03d68H
	DW	0427cH
	DW	0ffffH
	DW	0515eH
	DW	04664H
	DW	0ffffH
	DW	0ffffH
	DW	0515fH
	DW	0b32bH
	DW	0ffffH
	DW	05160H
	DW	0332eH
	DW	0b32cH
	DW	0b32dH
	DW	0b32eH
	DW	05161H
	DW	03627H
	DW	0b32fH
	DW	0464cH
	DW	0317aH
	DW	03d50H
	DW	0ffffH
	DW	0ffffH
	DW	04821H
	DW	05162H
	DW	04561H
	DW	0b330H
	DW	0b331H
	DW	03f4fH
	DW	05163H
	DW	0b332H
	DW	04a2cH
	DW	0405aH
	DW	03422H
	DW	0ffffH
	DW	03429H
	DW	05164H
	DW	0ffffH
	DW	0ffffH
	DW	05166H
	DW	0ffffH
	DW	0ffffH
	DW	0373aH
	DW	0b333H
	DW	0b334H
	DW	05165H
	DW	0b335H
	DW	0b336H
	DW	04e73H
	DW	0b337H
	DW	0ffffH
	DW	0ffffH
	DW	0ffffH
	DW	0ffffH
	DW	03d69H
	DW	0ffffH
	DW	0ffffH
	DW	0ffffH
	DW	0ffffH
	DW	0b338H
	DW	0ffffH
	DW	0483dH
	DW	04a4cH
	DW	0ffffH
	DW	05167H
	DW	0b339H
	DW	04d78H
	DW	05168H
	DW	0ffffH
	DW	0ffffH
	DW	0ffffH
	DW	05169H
	DW	0ffffH
	DW	0457eH
	DW	0b33aH
	DW	0b33bH
	DW	0516aH
	DW	0ffffH
	DW	0b33cH
	DW	04029H
	DW	03a7eH
	DW	03774H
	DW	0516bH
	DW	03b49H
	DW	0396fH
	DW	0b33dH
	DW	0ffffH
	DW	0ffffH
	DW	0ffffH
	DW	0ffffH
	DW	0ffffH
	DW	0ffffH
	DW	04466H
	DW	0516dH
	DW	0b33eH
	DW	0ffffH
	DW	04227H
	DW	0ffffH
	DW	0b33fH
	DW	03a6fH
	DW	0516eH
	DW	0516fH
	DW	04130H
	DW	0ffffH
	DW	0516cH
	DW	0ffffH
	DW	0ffffH
	DW	0ffffH
	DW	0ffffH
	DW	05171H
	DW	0b340H
	DW	04b36H
	DW	0b341H
	DW	0b342H
	DW	0ffffH
	DW	0b343H
	DW	03964H
	DW	0b344H
	DW	0ffffH
	DW	05170H
	DW	0b345H
	DW	0b346H
	DW	0b347H
	DW	0ffffH
	DW	03775H
	DW	03a5eH
	DW	0476dH
	DW	0b348H
	DW	0ffffH
	DW	0ffffH
	DW	05174H
	DW	05172H
	DW	0ffffH
	DW	0ffffH
	DW	0ffffH
	DW	0b349H
	DW	0497bH
	DW	03e6aH
	DW	0517bH
	DW	03364H
	DW	05175H
	DW	05173H
	DW	0414fH
	DW	0ffffH
	DW	0b34aH
	DW	0b34bH
	DW	0b34cH
	DW	0ffffH
	DW	0ffffH
	DW	0ffffH
	DW	05177H
	DW	0ffffH
	DW	05176H
	DW	0b34dH
	DW	0ffffH
	DW	0b34eH
	DW	03344H
	DW	0ffffH
	DW	0b34fH
	DW	0ffffH
	DW	03760H
	DW	0517cH
	DW	04e2dH
	DW	0b350H
	DW	0ffffH
	DW	0b351H
	DW	05178H
	DW	0ffffH
	DW	0ffffH
	DW	0ffffH
	DW	0517dH
	DW	0517aH
	DW	0b352H
	DW	05179H
	DW	0b353H
	DW	0b354H
	DW	0b355H
	DW	0b356H
	DW	0ffffH
	DW	0b357H
	DW	04e4fH
	DW	0b358H
	DW	0ffffH
	DW	0ffffH
	DW	03879H
	DW	03243H
	DW	0ffffH
	DW	0ffffH
	DW	04e74H
	DW	0b359H
	DW	0b35aH
	DW	0b35bH
	DW	0b35cH
	DW	0ffffH
	DW	03d75H
	DW	04558H
	DW	03965H
	DW	05222H
	DW	05223H
	DW	0ffffH
	DW	0b35dH
	DW	0b35eH
	DW	04e65H
	DW	0ffffH
	DW	0ffffH
	DW	04f2bH
	DW	05225H
	DW	0b35fH
	DW	0b360H
	DW	0b361H
	DW	0387aH
	DW	0b362H
	DW	0b363H
	DW	05224H
	DW	0b364H
	DW	0332fH
	DW	0ffffH
	DW	0b365H
	DW	05226H
	DW	0ffffH
	DW	04b56H
	DW	0b366H
	DW	0443cH
	DW	0b367H
	DW	04d26H
	DW	0b368H
	DW	04a59H
	DW	0ffffH
	DW	0ffffH
	DW	0b369H
	DW	05227H
	DW	0ffffH
	DW	0b36aH
	DW	0ffffH
	DW	0b36bH
	DW	07055H
	DW	0ffffH
	DW	0b36cH
	DW	04630H
	DW	0b36dH
	DW	05228H
	DW	0342aH
	DW	04c33H
	DW	0ffffH
	DW	0b36eH
	DW	0b36fH
	DW	03e21H
	DW	05229H
	DW	04a67H
	DW	0522dH
	DW	0b370H
	DW	0402aH
	DW	0522aH
	DW	03650H
	DW	0b371H
	DW	0522bH
	DW	0342bH
	DW	0b372H
	DW	0b373H
	DW	0b374H
	DW	0ffffH
	DW	0b375H
	DW	0ffffH
	DW	0ffffH
	DW	0ffffH
	DW	0b376H
	DW	0b377H
	DW	0372eH
	DW	0522eH
	DW	0b378H
	DW	0522fH
	DW	0b379H
	DW	0b37aH
	DW	05230H
	DW	05231H
	DW	03c5bH
	DW	0ffffH
	DW	0ffffH
	DW	0ffffH
	DW	0387bH
	DW	04c5eH
	DW	0b37bH
	DW	04c68H
	DW	04677H
	DW	0b37cH
	DW	0ffffH
	DW	04a71H
	DW	05232H
	DW	0ffffH
	DW	05233H
	DW	0ffffH
	DW	0b37dH
	DW	0b37eH
	DW	0b421H
	DW	05235H
	DW	0ffffH
	DW	05237H
	DW	05236H
	DW	0b422H
	DW	0ffffH
	DW	0b423H
	DW	0ffffH
	DW	05238H
	DW	0323dH
	DW	04b4cH
	DW	0b424H
	DW	03a7cH
	DW	05239H
	DW	0b425H
	DW	0b426H
	DW	04159H
	DW	0b427H
	DW	0b428H
	DW	03e22H
	DW	03629H
	DW	0ffffH
	DW	0523aH
	DW	0ffffH
	DW	0b429H
	DW	0ffffH
	DW	0b42aH
	DW	0b42bH
	DW	0b42cH
	DW	0485bH
	DW	0b42dH
	DW	0b42eH
	DW	0b42fH
	DW	0ffffH
	DW	0523bH
	DW	0b430H
	DW	0523cH
	DW	0b431H
	DW	0523dH
	DW	0ffffH
	DW	0b432H
	DW	0ffffH
	DW	0ffffH
	DW	0523eH
	DW	04924H
	DW	03668H
	DW	03065H
	DW	0b433H
	DW	0b434H
	DW	0b435H
	DW	0463fH
	DW	0523fH
	DW	03d3dH
	DW	0b436H
	DW	04069H
	DW	0ffffH
	DW	05241H
	DW	05240H
	DW	03e23H
	DW	03861H
	DW	05243H
	DW	0483eH
	DW	0b438H
	DW	0b437H
	DW	05244H
	DW	0ffffH
	DW	0ffffH
	DW	0ffffH
	DW	0485cH
	DW	04234H
	DW	0426eH
	DW	03628H
	DW	0ffffH
	DW	0ffffH
	DW	0466eH
	DW	04331H
	DW	0b439H
	DW	0476eH
	DW	0b43aH
	DW	04b4eH
	DW	0ffffH
	DW	05246H
	DW	0ffffH
	DW	0406aH
	DW	0b43bH
	DW	0ffffH
	DW	0b43cH
	DW	0ffffH
	DW	0b43dH
	DW	03735H
	DW	0ffffH
	DW	0ffffH
	DW	05247H
	DW	0ffffH
	DW	0ffffH
	DW	0b43eH
	DW	0b43fH
	DW	05248H
	DW	0312cH
	DW	03075H
	DW	0346dH
	DW	0b440H
	DW	04228H
	DW	03551H
	DW	04d71H
	DW	0ffffH
	DW	0524bH
	DW	03237H
	DW	0b441H
	DW	0ffffH
	DW	0524aH
	DW	0ffffH
	DW	0ffffH
	DW	0b442H
	DW	0362aH
	DW	0ffffH
	DW	0ffffH
	DW	0524cH
	DW	0b443H
	DW	04c71H
	DW	0ffffH
	DW	0ffffH
	DW	0b444H
	DW	0b445H
	DW	0ffffH
	DW	0ffffH
	DW	0ffffH
	DW	0ffffH
	DW	0ffffH
	DW	0b446H
	DW	0ffffH
	DW	0ffffH
	DW	0ffffH
	DW	0ffffH
	DW	0b447H
	DW	0b448H
	DW	0ffffH
	DW	0524dH
	DW	0ffffH
	DW	04e52H
	DW	0b449H
	DW	0387cH
	DW	0ffffH
	DW	0ffffH
	DW	0b44aH
	DW	0ffffH
	DW	03836H
	DW	0524eH
	DW	0b44bH
	DW	0ffffH
	DW	0ffffH
	DW	0b44cH
	DW	05250H
	DW	0524fH
	DW	0ffffH
	DW	03f5fH
	DW	03139H
	DW	0b44dH
	DW	0b44eH
	DW	0ffffH
	DW	0315eH
	DW	05251H
	DW	0b44fH
	DW	05252H
	DW	0ffffH
	DW	0b450H
	DW	03837H
	DW	0b451H
	DW	0b452H
	DW	05253H
	DW	0b453H
	DW	0b454H
	DW	0ffffH
	DW	0b455H
	DW	0356eH
	DW	0ffffH
	DW	0b456H
	DW	0ffffH
	DW	0ffffH
	DW	0b457H
	DW	0ffffH
	DW	03b32H
	DW	05254H
	DW	0ffffH
	DW	0b458H
	DW	0ffffH
	DW	0ffffH
	DW	04b74H
	DW	03a35H
	DW	0355aH
	DW	04d27H
	DW	04150H
	DW	0483fH
	DW	03c7dH
	DW	0b459H
	DW	0ffffH
	DW	0ffffH
	DW	0b45aH
	DW	0b45bH
	DW	03d47H
	DW	0b45cH
	DW	03c68H
	DW	03c75H
	DW	0ffffH
	DW	03d76H
	DW	0b45dH
	DW	04840H
	DW	0ffffH
	DW	0b45eH
	DW	0b45fH
	DW	05257H
	DW	0b460H
	DW	03143H
	DW	04151H
	DW	0387dH
	DW	03845H
	DW	03667H
	DW	0b461H
	DW	0b462H
	DW	0525bH
	DW	04321H
	DW	0427eH
	DW	0362bH
	DW	03e24H
	DW	0525cH
	DW	0525aH
	DW	03244H
	DW	04266H
	DW	03c38H
	DW	03b4bH
	DW	03126H
	DW	0ffffH
	DW	0b463H
	DW	03370H
	DW	03966H
	DW	03b4aH
	DW	0ffffH
	DW	0525dH
	DW	0525eH
	DW	0b464H
	DW	03549H
	DW	03346H
	DW	0ffffH
	DW	0ffffH
	DW	0ffffH
	DW	03967H
	DW	03548H
	DW	0445fH
	DW	03125H
	DW	04631H
	DW	04c3eH
	DW	03921H
	DW	04d79H
	DW	04547H
	DW	0387eH
	DW	0ffffH
	DW	0b465H
	DW	0ffffH
	DW	0ffffH
	DW	0ffffH
	DW	0ffffH
	DW	0ffffH
	DW	0ffffH
	DW	0b466H
	DW	0372fH
	DW	0ffffH
	DW	05267H
	DW	0ffffH
	DW	03663H
	DW	04b4aH
	DW	0b467H
	DW	0ffffH
	DW	0ffffH
	DW	0ffffH
	DW	0ffffH
	DW	0485dH
	DW	0b468H
	DW	0b469H
	DW	05266H
	DW	0b46aH
	DW	0345eH
	DW	05261H
	DW	05262H
	DW	05264H
	DW	0b46bH
	DW	0ffffH
	DW	0b46cH
	DW	0ffffH
	DW	0ffffH
	DW	0b46dH
	DW	0b46eH
	DW	05265H
	DW	0ffffH
	DW	0355bH
	DW	03f61H
	DW	0ffffH
	DW	04a2dH
	DW	05263H
	DW	0525fH
	DW	03863H
	DW	0ffffH
	DW	05260H
	DW	0ffffH
	DW	04f24H
	DW	0b46fH
	DW	0b470H
	DW	0ffffH
	DW	04a72H
	DW	0b471H
	DW	04468H
	DW	03862H
	DW	03970H
	DW	0ffffH
	DW	0ffffH
	DW	0b472H
	DW	05268H
	DW	0b473H
	DW	0ffffH
	DW	0465dH
	DW	0ffffH
	DW	0ffffH
	DW	0ffffH
	DW	0ffffH
	DW	0ffffH
	DW	0ffffH
	DW	0ffffH
	DW	0ffffH
	DW	0ffffH
	DW	0ffffH
	DW	0ffffH
	DW	0ffffH
	DW	0b474H
	DW	0526cH
	DW	0ffffH
	DW	0ffffH
	DW	0b475H
	DW	0ffffH
	DW	0b476H
	DW	0ffffH
	DW	0b477H
	DW	0b478H
	DW	03c7eH
	DW	0b479H
	DW	03c76H
	DW	0b47aH
	DW	0ffffH
	DW	0b47bH
	DW	0b47cH
	DW	0ffffH
	DW	0526fH
	DW	0526dH
	DW	0ffffH
	DW	04c23H
	DW	0b47dH
	DW	0526aH
	DW	05273H
	DW	0526eH
	DW	0ffffH
	DW	0ffffH
	DW	0ffffH
	DW	05271H
	DW	03846H
	DW	04c3fH
	DW	0ffffH
	DW	0b47eH
	DW	05272H
	DW	0b521H
	DW	0ffffH
	DW	0b522H
	DW	05274H
	DW	0b523H
	DW	05276H
	DW	0ffffH
	DW	0b524H
	DW	0b525H
	DW	0ffffH
	DW	03a70H
	DW	04f42H
	DW	0b526H
	DW	0526bH
	DW	05269H
	DW	05275H
	DW	0b527H
	DW	05270H
	DW	0ffffH
	DW	0ffffH
	DW	0b528H
	DW	0b529H
	DW	0ffffH
	DW	0ffffH
	DW	0ffffH
	DW	0ffffH
	DW	0ffffH
	DW	0b52aH
	DW	0ffffH
	DW	0ffffH
	DW	0b52bH
	DW	0ffffH
	DW	0b52cH
	DW	05278H
	DW	0ffffH
	DW	05323H
	DW	0527aH
	DW	0b52dH
	DW	0b52eH
	DW	0527eH
	DW	0b52fH
	DW	0b530H
	DW	05321H
	DW	0527bH
	DW	0b531H
	DW	0b532H
	DW	0533eH
	DW	0ffffH
	DW	0b533H
	DW	03a69H
	DW	03331H
	DW	0ffffH
	DW	0ffffH
	DW	0ffffH
	DW	0b534H
	DW	05279H
	DW	0b535H
	DW	0b536H
	DW	0b537H
	DW	05325H
	DW	03076H
	DW	05324H
	DW	0b538H
	DW	03025H
	DW	0494aH
	DW	05322H
	DW	0ffffH
	DW	0527cH
	DW	0ffffH
	DW	0b539H
	DW	05277H
	DW	0527dH
	DW	03a48H
	DW	0b53aH
	DW	0ffffH
	DW	0ffffH
	DW	0b53bH
	DW	0b53cH
	DW	0ffffH
	DW	0ffffH
	DW	0ffffH
	DW	0ffffH
	DW	0ffffH
	DW	0ffffH
	DW	0ffffH
	DW	0ffffH
	DW	0ffffH
	DW	05326H
	DW	0ffffH
	DW	0ffffH
	DW	0ffffH
	DW	0ffffH
	DW	0ffffH
	DW	0ffffH
	DW	0ffffH
	DW	0b53dH
	DW	03077H
	DW	0532fH
	DW	0ffffH
	DW	0ffffH
	DW	05327H
	DW	05328H
	DW	0ffffH
	DW	03e25H
	DW	04b69H
	DW	0b53eH
	DW	0ffffH
	DW	0b53fH
	DW	0532dH
	DW	0532cH
	DW	0b540H
	DW	0ffffH
	DW	0ffffH
	DW	0452fH
	DW	0ffffH
	DW	0ffffH
	DW	0ffffH
	DW	0b541H
	DW	0ffffH
	DW	0ffffH
	DW	0ffffH
	DW	0532eH
	DW	0ffffH
	DW	0b542H
	DW	0532bH
	DW	0b543H
	DW	0b544H
	DW	0b545H
	DW	0b546H
	DW	0ffffH
	DW	0ffffH
	DW	03134H
	DW	0b547H
	DW	03a36H
	DW	03f30H
	DW	0b548H
	DW	0b549H
	DW	0ffffH
	DW	0ffffH
	DW	0b54aH
	DW	0b54bH
	DW	0b54cH
	DW	05329H
	DW	04562H
	DW	0ffffH
	DW	0ffffH
	DW	0ffffH
	DW	0532aH
	DW	0b54dH
	DW	03022H
	DW	0ffffH
	DW	0ffffH
	DW	0ffffH
	DW	0ffffH
	DW	0ffffH
	DW	0ffffH
	DW	0ffffH
	DW	0ffffH
	DW	0ffffH
	DW	0ffffH
	DW	0ffffH
	DW	0ffffH
	DW	0ffffH
	DW	0ffffH
	DW	0ffffH
	DW	0ffffH
	DW	0ffffH
	DW	0ffffH
	DW	0ffffH
	DW	0b54eH
	DW	0b54fH
	DW	0ffffH
	DW	0ffffH
	DW	05334H
	DW	04d23H
	DW	0ffffH
	DW	03e27H
	DW	0b550H
	DW	0533aH
	DW	0ffffH
	DW	0b551H
	DW	0b552H
	DW	0ffffH
	DW	05339H
	DW	05330H
	DW	0ffffH
	DW	0b553H
	DW	0b554H
	DW	0b555H
	DW	04243H
	DW	0ffffH
	DW	05331H
	DW	0b556H
	DW	0ffffH
	DW	0ffffH
	DW	0426fH
	DW	05336H
	DW	03e26H
	DW	0b557H
	DW	0ffffH
	DW	0b558H
	DW	0b559H
	DW	0ffffH
	DW	05333H
	DW	0b55aH
	DW	0ffffH
	DW	04c64H
	DW	0b55bH
	DW	0b55cH
	DW	0ffffH
	DW	0373cH
	DW	0ffffH
	DW	0ffffH
	DW	05337H
	DW	05338H
	DW	0b55dH
	DW	0ffffH
	DW	0b55eH
	DW	0b55fH
	DW	05335H
	DW	0533bH
	DW	0b560H
	DW	0ffffH
	DW	0b561H
	DW	0b562H
	DW	0ffffH
	DW	05332H
	DW	0b563H
	DW	0ffffH
	DW	0b564H
	DW	0ffffH
	DW	0ffffH
	DW	0ffffH
	DW	0ffffH
	DW	0ffffH
	DW	0ffffH
	DW	0ffffH
	DW	0ffffH
	DW	0ffffH
	DW	0ffffH
	DW	0ffffH
	DW	0ffffH
	DW	0ffffH
	DW	0ffffH
	DW	0ffffH
	DW	0ffffH
	DW	0ffffH
	DW	0ffffH
	DW	0ffffH
	DW	0ffffH
	DW	05341H
	DW	05346H
	DW	0ffffH
	DW	05342H
	DW	0b565H
	DW	0533dH
	DW	0b566H
	DW	0b567H
	DW	05347H
	DW	04131H
	DW	0ffffH
	DW	0b568H
	DW	05349H
	DW	0b569H
	DW	03922H
	DW	0533fH
	DW	0437dH
	DW	0ffffH
	DW	0ffffH
	DW	0b56aH
	DW	0b56bH
	DW	0ffffH
	DW	0b56cH
	DW	0b56dH
	DW	0b56eH
	DW	0b56fH
	DW	0ffffH
	DW	0ffffH
	DW	0b570H
	DW	05343H
	DW	0533cH
	DW	0342dH
	DW	0ffffH
	DW	0346eH
	DW	03365H
	DW	05344H
	DW	05340H
	DW	0ffffH
	DW	0ffffH
	DW	0ffffH
	DW	0b571H
	DW	0b572H
	DW	0ffffH
	DW	0ffffH
	DW	03776H
	DW	0534aH
	DW	05348H
	DW	04153H
	DW	0354aH
	DW	0362cH
	DW	0b573H
	DW	05345H
	DW	0ffffH
	DW	03674H
	DW	0ffffH
	DW	0b574H
	DW	0ffffH
	DW	0ffffH
	DW	0ffffH
	DW	03144H
	DW	0ffffH
	DW	0ffffH
	DW	0ffffH
	DW	0ffffH
	DW	0ffffH
	DW	0ffffH
	DW	0ffffH
	DW	0ffffH
	DW	0b575H
	DW	0ffffH
	DW	0b576H
	DW	0ffffH
	DW	0b577H
	DW	0534eH
	DW	0534cH
	DW	0b578H
	DW	05427H
	DW	0ffffH
	DW	0b579H
	DW	0ffffH
	DW	0b57aH
	DW	0b57bH
	DW	0ffffH
	DW	0b57cH
	DW	0ffffH
	DW	0ffffH
	DW	0b57dH
	DW	0b57eH
	DW	0b621H
	DW	05351H
	DW	0ffffH
	DW	0ffffH
	DW	0b622H
	DW	0b623H
	DW	0ffffH
	DW	0534bH
	DW	0b624H
	DW	0534fH
	DW	0ffffH
	DW	0b625H
	DW	0534dH
	DW	0ffffH
	DW	0ffffH
	DW	0b626H
	DW	03b4cH
	DW	05350H
	DW	0ffffH
	DW	0ffffH
	DW	0ffffH
	DW	0ffffH
	DW	0b627H
	DW	0ffffH
	DW	0ffffH
	DW	0ffffH
	DW	0ffffH
	DW	0ffffH
	DW	0ffffH
	DW	0ffffH
	DW	0ffffH
	DW	0ffffH
	DW	0ffffH
	DW	0ffffH
	DW	0ffffH
	DW	0b628H
	DW	05353H
	DW	0ffffH
	DW	05358H
	DW	0ffffH
	DW	0ffffH
	DW	0ffffH
	DW	05356H
	DW	05355H
	DW	0b629H
	DW	0b62aH
	DW	04332H
	DW	0ffffH
	DW	0b62bH
	DW	03245H
	DW	0b62cH
	DW	0ffffH
	DW	0ffffH
	DW	0b62dH
	DW	0b62eH
	DW	0b62fH
	DW	0b630H
	DW	0b631H
	DW	0b632H
	DW	0ffffH
	DW	05352H
	DW	0ffffH
	DW	05354H
	DW	03e28H
	DW	03133H
	DW	0b633H
	DW	0ffffH
	DW	05357H
	DW	0ffffH
	DW	0ffffH
	DW	0ffffH
	DW	0ffffH
	DW	0ffffH
	DW	0ffffH
	DW	0ffffH
	DW	0ffffH
	DW	0ffffH
	DW	0ffffH
	DW	0ffffH
	DW	0ffffH
	DW	0ffffH
	DW	0325eH
	DW	0ffffH
	DW	0ffffH
	DW	0b634H
	DW	0ffffH
	DW	0ffffH
	DW	05362H
	DW	0b635H
	DW	03e7cH
	DW	0535eH
	DW	0b636H
	DW	0535cH
	DW	0b637H
	DW	0535dH
	DW	0b638H
	DW	0535fH
	DW	0b639H
	DW	0ffffH
	DW	0b63aH
	DW	0b63bH
	DW	0b63cH
	DW	0ffffH
	DW	0b63dH
	DW	0b63eH
	DW	0b63fH
	DW	0313dH
	DW	0b640H
	DW	0b641H
	DW	0ffffH
	DW	0b642H
	DW	0ffffH
	DW	0ffffH
	DW	0b643H
	DW	0ffffH
	DW	0b644H
	DW	04139H
	DW	0b645H
	DW	05359H
	DW	0b646H
	DW	0535aH
	DW	0ffffH
	DW	0ffffH
	DW	0ffffH
	DW	0b647H
	DW	0ffffH
	DW	0ffffH
	DW	0ffffH
	DW	0ffffH
	DW	0ffffH
	DW	0ffffH
	DW	0337aH
	DW	0ffffH
	DW	0ffffH
	DW	0b648H
	DW	0ffffH
	DW	0b649H
	DW	0b64aH
	DW	0b64bH
	DW	0b64cH
	DW	05361H
	DW	0ffffH
	DW	0b64dH
	DW	0ffffH
	DW	0346fH
	DW	0b64eH
	DW	05364H
	DW	05360H
	DW	05363H
	DW	0b64fH
	DW	0ffffH
	DW	0b650H
	DW	0ffffH
	DW	0b651H
	DW	0b652H
	DW	0ffffH
	DW	04a2eH
	DW	0b653H
	DW	0ffffH
	DW	0ffffH
	DW	04655H
	DW	0ffffH
	DW	04838H
	DW	0ffffH
	DW	0ffffH
	DW	0ffffH
	DW	0ffffH
	DW	0ffffH
	DW	05366H
	DW	0ffffH
	DW	0ffffH
	DW	0ffffH
	DW	0b654H
	DW	0b655H
	DW	05365H
	DW	03345H
	DW	0b656H
	DW	0ffffH
	DW	05367H
	DW	0b657H
	DW	0b658H
	DW	0ffffH
	DW	0ffffH
	DW	0536aH
	DW	0ffffH
	DW	0ffffH
	DW	0ffffH
	DW	0ffffH
	DW	05369H
	DW	0b659H
	DW	0ffffH
	DW	0ffffH
	DW	0ffffH
	DW	0b65aH
	DW	0b65bH
	DW	0ffffH
	DW	0ffffH
	DW	0b65cH
	DW	0b65dH
	DW	0b65eH
	DW	05368H
	DW	0ffffH
	DW	04739H
	DW	0ffffH
	DW	0ffffH
	DW	0536bH
	DW	0b65fH
	DW	0b660H
	DW	0b661H
	DW	0b662H
	DW	0ffffH
	DW	0b663H
	DW	0b664H
	DW	0b665H
	DW	0536cH
	DW	0ffffH
	DW	0ffffH
	DW	0b666H
	DW	0ffffH
	DW	0b667H
	DW	0536eH
	DW	0ffffH
	DW	0536dH
	DW	0b668H
	DW	0ffffH
	DW	0ffffH
	DW	0ffffH
	DW	0ffffH
	DW	05370H
	DW	0ffffH
	DW	0b669H
	DW	0ffffH
	DW	05373H
	DW	05371H
	DW	0536fH
	DW	05372H
	DW	0ffffH
	DW	0b66aH
	DW	0ffffH
	DW	0ffffH
	DW	05374H
	DW	0b66bH
	DW	0b66cH
	DW	0b66dH
	DW	0b670H
	DW	0b671H
	DW	05375H
	DW	0b66eH
	DW	0b66fH
	DW	05376H
	DW	0ffffH
	DW	05377H
	DW	0ffffH
	DW	0ffffH
	DW	0ffffH
	DW	05378H
	DW	05145H
	DW	0b672H
	DW	03c7cH
	DW	03b4dH
	DW	0b673H
	DW	0b674H
	DW	03273H
	DW	0b675H
	DW	03078H
	DW	0b676H
	DW	0ffffH
	DW	04344H
	DW	0b677H
	DW	0b678H
	DW	0b679H
	DW	0b67aH
	DW	0b67bH
	DW	0ffffH
	DW	0ffffH
	DW	0b67dH
	DW	0ffffH
	DW	0b67eH
	DW	05379H
	DW	0ffffH
	DW	03a24H
	DW	0b67cH
	DW	0304fH
	DW	03f5eH
	DW	0ffffH
	DW	0ffffH
	DW	0b721H
	DW	0b722H
	DW	0ffffH
	DW	0537aH
	DW	03847H
	DW	0ffffH
	DW	0ffffH
	DW	03971H
	DW	0ffffH
	DW	0537cH
	DW	0537bH
	DW	0b723H
	DW	0b724H
	DW	04a60H
	DW	0537dH
	DW	0ffffH
	DW	0ffffH
	DW	0b725H
	DW	05421H
	DW	0537eH
	DW	0b726H
	DW	05422H
	DW	0b727H
	DW	05423H
	DW	0ffffH
	DW	03777H
	DW	0ffffH
	DW	0b728H
	DW	03160H
	DW	05424H
	DW	0ffffH
	DW	0b729H
	DW	05426H
	DW	0ffffH
	DW	05425H
	DW	0ffffH
	DW	0b72aH
	DW	0b72bH
	DW	05428H
	DW	0b72cH
	DW	0ffffH
	DW	0455aH
	DW	0b72dH
	DW	0ffffH
	DW	0b72eH
	DW	0b72fH
	DW	0b730H
	DW	0b731H
	DW	05429H
	DW	03035H
	DW	03a5fH
	DW	0b732H
	DW	0b733H
	DW	0ffffH
	DW	0b734H
	DW	0373dH
	DW	0b735H
	DW	0b736H
	DW	0434fH
	DW	0ffffH
	DW	0ffffH
	DW	0b737H
	DW	0b738H
	DW	0ffffH
	DW	0ffffH
	DW	0542aH
	DW	0542bH
	DW	0ffffH
	DW	0ffffH
	DW	0542dH
	DW	0ffffH
	DW	0b739H
	DW	0b73aH
	DW	0b73bH
	DW	0542eH
	DW	0ffffH
	DW	03a64H
	DW	0ffffH
	DW	0ffffH
	DW	0b73cH
	DW	0b73dH
	DW	03651H
	DW	0ffffH
	DW	0ffffH
	DW	04b37H
	DW	0ffffH
	DW	0b73eH
	DW	0b73fH
	DW	0542cH
	DW	0542fH
	DW	03a41H
	DW	03923H
	DW	0b740H
	DW	0ffffH
	DW	0ffffH
	DW	0ffffH
	DW	0ffffH
	DW	0ffffH
	DW	0ffffH
	DW	0ffffH
	DW	0ffffH
	DW	0ffffH
	DW	0ffffH
	DW	0ffffH
	DW	0ffffH
	DW	0ffffH
	DW	0ffffH
	DW	05433H
	DW	0b741H
	DW	0ffffH
	DW	03a25H
	DW	0b742H
	DW	04333H
	DW	0b743H
	DW	0b744H
	DW	05430H
	DW	0445aH
	DW	0b745H
	DW	0ffffH
	DW	0b746H
	DW	0b747H
	DW	0b748H
	DW	0b749H
	DW	0b74aH
	DW	0ffffH
	DW	0b74bH
	DW	0b74cH
	DW	0b74dH
	DW	0ffffH
	DW	0b74eH
	DW	0ffffH
	DW	0b74fH
	DW	0b750H
	DW	0b751H
	DW	0b752H
	DW	0ffffH
	DW	0b753H
	DW	05434H
	DW	0ffffH
	DW	0b754H
	DW	03f62H
	DW	0b755H
	DW	0ffffH
	DW	0ffffH
	DW	0ffffH
	DW	0ffffH
	DW	05432H
	DW	05435H
	DW	0ffffH
	DW	0373fH
	DW	0b756H
	DW	0ffffH
	DW	0ffffH
	DW	0ffffH
	DW	0ffffH
	DW	0ffffH
	DW	0ffffH
	DW	05436H
	DW	0b757H
	DW	0b760H
	DW	0ffffH
	DW	0b758H
	DW	0ffffH
	DW	0b759H
	DW	0b75aH
	DW	0ffffH
	DW	0b75bH
	DW	0b75cH
	DW	0b75dH
	DW	0b75eH
	DW	05437H
	DW	0b75fH
	DW	03924H
	DW	03340H
	DW	05439H
	DW	0ffffH
	DW	0ffffH
	DW	0b761H
	DW	0b762H
	DW	0b763H
	DW	0543aH
	DW	0ffffH
	DW	0b764H
	DW	0ffffH
	DW	0ffffH
	DW	0ffffH
	DW	0543bH
	DW	0ffffH
	DW	0ffffH
	DW	05438H
	DW	0ffffH
	DW	0ffffH
	DW	0ffffH
	DW	0ffffH
	DW	0b765H
	DW	0ffffH
	DW	0ffffH
	DW	0ffffH
	DW	0ffffH
	DW	0b766H
	DW	0ffffH
	DW	0ffffH
	DW	05431H
	DW	0ffffH
	DW	0ffffH
	DW	0543cH
	DW	0ffffH
	DW	0ffffH
	DW	0543dH
	DW	0b767H
	DW	0b768H
	DW	0ffffH
	DW	0ffffH
	DW	04b64H
	DW	0b769H
	DW	0ffffH
	DW	03e6bH
	DW	0b76aH
	DW	0ffffH
	DW	0ffffH
	DW	0543fH
	DW	05440H
	DW	0543eH
	DW	0b76bH
	DW	05442H
	DW	0ffffH
	DW	0ffffH
	DW	0ffffH
	DW	0ffffH
	DW	0ffffH
	DW	04738H
	DW	0b76cH
	DW	0b76dH
	DW	03068H
	DW	04956H
	DW	0b77eH
	DW	0ffffH
	DW	05443H
	DW	0b76eH
	DW	0ffffH
	DW	0b76fH
	DW	0b770H
	DW	0ffffH
	DW	0b771H
	DW	0ffffH
	DW	0ffffH
	DW	0ffffH
	DW	0b772H
	DW	0ffffH
	DW	0ffffH
	DW	0b773H
	DW	0ffffH
	DW	0ffffH
	DW	0ffffH
	DW	03e7dH
	DW	0b774H
	DW	0b775H
	DW	03c39H
	DW	0b776H
	DW	0475dH
	DW	03470H
	DW	0ffffH
	DW	03a6bH
	DW	0b777H
	DW	0b778H
	DW	0b779H
	DW	04b59H
	DW	0ffffH
	DW	04632H
	DW	0b77aH
	DW	0b77bH
	DW	03778H
	DW	0424fH
	DW	0ffffH
	DW	0b77cH
	DW	0b77dH
	DW	05441H
	DW	05444H
	DW	0b821H
	DW	0b822H
	DW	0ffffH
	DW	0ffffH
	DW	0ffffH
	DW	0ffffH
	DW	0ffffH
	DW	0ffffH
	DW	0ffffH
	DW	04244H
	DW	0ffffH
	DW	0ffffH
	DW	0ffffH
	DW	05445H
	DW	0ffffH
	DW	0b823H
	DW	0ffffH
	DW	05446H
	DW	0b824H
	DW	0b825H
	DW	0b826H
	DW	05448H
	DW	0ffffH
	DW	0ffffH
	DW	04469H
	DW	0ffffH
	DW	0b827H
	DW	0b828H
	DW	0ffffH
	DW	0ffffH
	DW	0342eH
	DW	0ffffH
	DW	0ffffH
	DW	0b829H
	DW	0ffffH
	DW	07421H
	DW	03161H
	DW	04a73H
	DW	0b82aH
	DW	0ffffH
	DW	03e6cH
	DW	04548H
	DW	0ffffH
	DW	0ffffH
	DW	0ffffH
	DW	0b82bH
	DW	03a66H
	DW	0ffffH
	DW	0ffffH
	DW	0544eH
	DW	0ffffH
	DW	0b82cH
	DW	04a3dH
	DW	04e5dH
	DW	0ffffH
	DW	0ffffH
	DW	0ffffH
	DW	0ffffH
	DW	0ffffH
	DW	0ffffH
	DW	0ffffH
	DW	0b82dH
	DW	03274H
	DW	0544aH
	DW	0b82eH
	DW	0b82fH
	DW	0ffffH
	DW	0b830H
	DW	0b831H
	DW	0413aH
	DW	0544dH
	DW	0ffffH
	DW	04563H
	DW	0b832H
	DW	0ffffH
	DW	04549H
	DW	04564H
	DW	04839H
	DW	0444dH
	DW	0ffffH
	DW	0ffffH
	DW	0ffffH
	DW	03a49H
	DW	0b833H
	DW	0ffffH
	DW	0b834H
	DW	05449H
	DW	0ffffH
	DW	0b835H
	DW	0ffffH
	DW	0ffffH
	DW	0b836H
	DW	0b837H
	DW	03176H
	DW	0ffffH
	DW	04536H
	DW	0ffffH
	DW	0ffffH
	DW	0ffffH
	DW	0ffffH
	DW	0544bH
	DW	0ffffH
	DW	05447H
	DW	0ffffH
	DW	0ffffH
	DW	03f50H
	DW	0ffffH
	DW	0ffffH
	DW	0b838H
	DW	0544fH
	DW	0ffffH
	DW	0ffffH
	DW	0b839H
	DW	0ffffH
	DW	03d4eH
	DW	0b83aH
	DW	0b83bH
	DW	0b83cH
	DW	0ffffH
	DW	0362dH
	DW	0ffffH
	DW	05450H
	DW	0ffffH
	DW	0b83dH
	DW	0b83eH
	DW	0b83fH
	DW	0b840H
	DW	0ffffH
	DW	0b841H
	DW	0b842H
	DW	0ffffH
	DW	0b843H
	DW	0b844H
	DW	0ffffH
	DW	0ffffH
	DW	04a68H
	DW	0b845H
	DW	0ffffH
	DW	0b846H
	DW	0417dH
	DW	0ffffH
	DW	0ffffH
	DW	0ffffH
	DW	0ffffH
	DW	04446H
	DW	0b847H
	DW	0ffffH
	DW	05452H
	DW	0b848H
	DW	0b849H
	DW	0b84aH
	DW	0ffffH
	DW	0ffffH
	DW	0ffffH
	DW	0b84bH
	DW	0ffffH
	DW	04b4fH
	DW	0b84cH
	DW	0ffffH
	DW	05453H
	DW	0ffffH
	DW	0ffffH
	DW	05458H
	DW	0ffffH
	DW	0ffffH
	DW	0b84dH
	DW	0b84eH
	DW	04a2fH
	DW	0ffffH
	DW	0ffffH
	DW	0ffffH
	DW	0ffffH
	DW	05457H
	DW	05451H
	DW	05454H
	DW	05456H
	DW	0b850H
	DW	0ffffH
	DW	03a26H
	DW	0ffffH
	DW	0ffffH
	DW	04a49H
	DW	0b851H
	DW	0ffffH
	DW	0b84fH
	DW	05459H
	DW	0ffffH
	DW	04345H
	DW	0b852H
	DW	0ffffH
	DW	03275H
	DW	0ffffH
	DW	03e6dH
	DW	0b853H
	DW	0b854H
	DW	0ffffH
	DW	0b855H
	DW	0545bH
	DW	0b856H
	DW	0545aH
	DW	0b857H
	DW	03968H
	DW	0b858H
	DW	0545cH
	DW	0545eH
	DW	0545dH
	DW	0b859H
	DW	0ffffH
	DW	05460H
	DW	0b85aH
	DW	05455H
	DW	05462H
	DW	0ffffH
	DW	0b85bH
	DW	0b85cH
	DW	0ffffH
	DW	05461H
	DW	0545fH
	DW	0ffffH
	DW	0ffffH
	DW	0ffffH
	DW	0b85dH
	DW	0ffffH
	DW	03b4eH
	DW	03f51H
	DW	0ffffH
	DW	04154H
	DW	05463H
	DW	0403cH
	DW	0306dH
	DW	04764H
	DW	0b85eH
	DW	0ffffH
	DW	0ffffH
	DW	0ffffH
	DW	0445bH
	DW	0ffffH
	DW	05465H
	DW	05464H
	DW	05466H
	DW	05467H
	DW	05468H
	DW	05469H
	DW	0ffffH
	DW	0ffffH
	DW	0b85fH
	DW	0b860H
	DW	0ffffH
	DW	0ffffH
	DW	04a51H
	DW	0546aH
	DW	0b861H
	DW	0b862H
	DW	0ffffH
	DW	0ffffH
	DW	03246H
	DW	0546bH
	DW	0ffffH
	DW	0b863H
	DW	0b864H
	DW	0b865H
	DW	04d3cH
	DW	03330H
	DW	0ffffH
	DW	05249H
	DW	03d48H
	DW	0423fH
	DW	0546cH
	DW	04c6bH
	DW	0b867H
	DW	0ffffH
	DW	0ffffH
	DW	0ffffH
	DW	0b868H
	DW	04c34H
	DW	0b869H
	DW	0b86aH
	DW	0546eH
	DW	0ffffH
	DW	04267H
	DW	0b86bH
	DW	04537H
	DW	04240H
	DW	04957H
	DW	0546fH
	DW	05470H
	DW	0317bH
	DW	0b86cH
	DW	0b86dH
	DW	03c3aH
	DW	05471H
	DW	0b86eH
	DW	0ffffH
	DW	0b86fH
	DW	0b870H
	DW	03050H
	DW	05472H
	DW	0ffffH
	DW	0ffffH
	DW	0ffffH
	DW	0ffffH
	DW	0ffffH
	DW	05473H
	DW	0b871H
	DW	0ffffH
	DW	0ffffH
	DW	0ffffH
	DW	0b872H
	DW	03162H
	DW	0ffffH
	DW	0b873H
	DW	03471H
	DW	04660H
	DW	04a74H
	DW	0ffffH
	DW	0ffffH
	DW	0ffffH
	DW	0ffffH
	DW	05477H
	DW	04155H
	DW	05476H
	DW	03740H
	DW	0b874H
	DW	0b875H
	DW	04b5bH
	DW	05475H
	DW	0ffffH
	DW	04565H
	DW	05479H
	DW	0b876H
	DW	05478H
	DW	0b877H
	DW	0ffffH
	DW	0b878H
	DW	0b879H
	DW	0b87aH
	DW	0547bH
	DW	0b87bH
	DW	0547aH
	DW	0b87cH
	DW	0ffffH
	DW	0317cH
	DW	0ffffH
	DW	0547cH
	DW	03e29H
	DW	0547eH
	DW	04325H
	DW	0b87dH
	DW	0547dH
	DW	0b87eH
	DW	04a33H
	DW	0b921H
	DW	0ffffH
	DW	0ffffH
	DW	0b922H
	DW	03d77H
	DW	0455bH
	DW	0b923H
	DW	0b924H
	DW	0ffffH
	DW	05521H
	DW	0b925H
	DW	0ffffH
	DW	0b926H
	DW	0b927H
	DW	03925H
	DW	0ffffH
	DW	0ffffH
	DW	0ffffH
	DW	05522H
	DW	04721H
	DW	0485eH
	DW	04c51H
	DW	0ffffH
	DW	0ffffH
	DW	0ffffH
	DW	0ffffH
	DW	0ffffH
	DW	04725H
	DW	0b928H
	DW	0b929H
	DW	0552bH
	DW	0b92aH
	DW	0ffffH
	DW	0ffffH
	DW	0ffffH
	DW	0b92bH
	DW	03538H
	DW	0ffffH
	DW	0b92cH
	DW	04d45H
	DW	0b92dH
	DW	0ffffH
	DW	04c2fH
	DW	0ffffH
	DW	0562cH
	DW	0ffffH
	DW	05523H
	DW	0ffffH
	DW	0b92eH
	DW	0ffffH
	DW	0ffffH
	DW	0ffffH
	DW	05526H
	DW	0b92fH
	DW	04245H
	DW	0ffffH
	DW	0b930H
	DW	04b38H
	DW	0ffffH
	DW	0ffffH
	DW	0ffffH
	DW	0454aH
	DW	0b931H
	DW	0b932H
	DW	0b933H
	DW	0b934H
	DW	0ffffH
	DW	05527H
	DW	0b935H
	DW	0ffffH
	DW	0ffffH
	DW	0ffffH
	DW	0b936H
	DW	0ffffH
	DW	04b65H
	DW	0b937H
	DW	03a4aH
	DW	0b938H
	DW	0ffffH
	DW	03e2aH
	DW	0ffffH
	DW	0ffffH
	DW	0b939H
	DW	0ffffH
	DW	0b93aH
	DW	0b93bH
	DW	0ffffH
	DW	05528H
	DW	0ffffH
	DW	0b93cH
	DW	03b50H
	DW	0b93dH
	DW	03b4fH
	DW	0ffffH
	DW	0b93eH
	DW	0ffffH
	DW	0ffffH
	DW	03039H
	DW	03848H
	DW	0b93fH
	DW	0402bH
	DW	03051H
	DW	0ffffH
	DW	0ffffH
	DW	0ffffH
	DW	0ffffH
	DW	0552cH
	DW	0552dH
	DW	0ffffH
	DW	0552aH
	DW	0b940H
	DW	0b941H
	DW	0b942H
	DW	0ffffH
	DW	0ffffH
	DW	0ffffH
	DW	0b943H
	DW	0b944H
	DW	03138H
	DW	0342fH
	DW	0b945H
	DW	05529H
	DW	0ffffH
	DW	04c45H
	DW	04931H
	DW	0ffffH
	DW	0ffffH
	DW	0b946H
	DW	0b947H
	DW	0ffffH
	DW	0b948H
	DW	0b949H
	DW	0ffffH
	DW	0b94aH
	DW	0ffffH
	DW	03028H
	DW	0b94bH
	DW	0ffffH
	DW	0ffffH
	DW	0ffffH
	DW	03079H
	DW	0ffffH
	DW	0ffffH
	DW	0ffffH
	DW	03b51H
	DW	0b94cH
	DW	03052H
	DW	0ffffH
	DW	03023H
	DW	0b94dH
	DW	0ffffH
	DW	0ffffH
	DW	0ffffH
	DW	0ffffH
	DW	05532H
	DW	0ffffH
	DW	0ffffH
	DW	0b94eH
	DW	0b94fH
	DW	0b950H
	DW	0ffffH
	DW	0ffffH
	DW	05530H
	DW	0b951H
	DW	0b952H
	DW	0ffffH
	DW	0ffffH
	DW	0ffffH
	DW	0ffffH
	DW	04c3cH
	DW	0ffffH
	DW	05533H
	DW	0ffffH
	DW	05531H
	DW	0ffffH
	DW	0b953H
	DW	0552fH
	DW	03f31H
	DW	0ffffH
	DW	0ffffH
	DW	0b954H
	DW	0b955H
	DW	0552eH
	DW	0ffffH
	DW	0b956H
	DW	0b957H
	DW	04a5aH
	DW	0b958H
	DW	0ffffH
	DW	0ffffH
	DW	0b959H
	DW	0ffffH
	DW	03864H
	DW	0b95aH
	DW	0ffffH
	DW	0ffffH
	DW	0ffffH
	DW	0ffffH
	DW	05537H
	DW	05538H
	DW	0ffffH
	DW	0ffffH
	DW	0ffffH
	DW	0ffffH
	DW	0ffffH
	DW	03e2bH
	DW	0ffffH
	DW	0ffffH
	DW	0ffffH
	DW	05534H
	DW	04f2cH
	DW	0ffffH
	DW	0ffffH
	DW	0b95bH
	DW	0b95cH
	DW	0474cH
	DW	0b95dH
	DW	0b95eH
	DW	05536H
	DW	0ffffH
	DW	0ffffH
	DW	0b95fH
	DW	0ffffH
	DW	0ffffH
	DW	0ffffH
	DW	0b960H
	DW	0ffffH
	DW	0ffffH
	DW	0ffffH
	DW	0ffffH
	DW	0b961H
	DW	0ffffH
	DW	0ffffH
	DW	0ffffH
	DW	0ffffH
	DW	03a27H
	DW	0ffffH
	DW	0ffffH
	DW	0ffffH
	DW	0b962H
	DW	0ffffH
	DW	0ffffH
	DW	0ffffH
	DW	05539H
	DW	0b963H
	DW	0ffffH
	DW	0b964H
	DW	04958H
	DW	0b965H
	DW	0ffffH
	DW	0ffffH
	DW	0553aH
	DW	0ffffH
	DW	05535H
	DW	0b966H
	DW	0ffffH
	DW	0ffffH
	DW	0ffffH
	DW	0ffffH
	DW	0ffffH
	DW	0ffffH
	DW	0ffffH
	DW	0ffffH
	DW	0ffffH
	DW	0b967H
	DW	0ffffH
	DW	0ffffH
	DW	0b968H
	DW	0b969H
	DW	0ffffH
	DW	0ffffH
	DW	0b96aH
	DW	04c3bH
	DW	0ffffH
	DW	0ffffH
	DW	0ffffH
	DW	0ffffH
	DW	0ffffH
	DW	0ffffH
	DW	0ffffH
	DW	0ffffH
	DW	0ffffH
	DW	0ffffH
	DW	0ffffH
	DW	0b96bH
	DW	0ffffH
	DW	0ffffH
	DW	0ffffH
	DW	0ffffH
	DW	0b96cH
	DW	0ffffH
	DW	0475eH
	DW	0b96dH
	DW	0ffffH
	DW	0ffffH
	DW	0b96eH
	DW	0ffffH
	DW	0ffffH
	DW	0b96fH
	DW	0553bH
	DW	04932H
	DW	0b970H
	DW	0ffffH
	DW	0b971H
	DW	0b972H
	DW	0b973H
	DW	0ffffH
	DW	0b974H
	DW	0ffffH
	DW	0ffffH
	DW	0ffffH
	DW	0ffffH
	DW	0b975H
	DW	0ffffH
	DW	0ffffH
	DW	0ffffH
	DW	0ffffH
	DW	0b976H
	DW	0ffffH
	DW	0ffffH
	DW	0ffffH
	DW	0ffffH
	DW	0b977H
	DW	0b978H
	DW	0b979H
	DW	0ffffH
	DW	0b97aH
	DW	0ffffH
	DW	0ffffH
	DW	0b97bH
	DW	0ffffH
	DW	0b97cH
	DW	0b97dH
	DW	0553cH
	DW	05540H
	DW	0553dH
	DW	0b97eH
	DW	0ffffH
	DW	03247H
	DW	0553fH
	DW	0ffffH
	DW	0ba21H
	DW	0ffffH
	DW	0ba22H
	DW	0ffffH
	DW	0ba23H
	DW	03c3bH
	DW	0ffffH
	DW	0553eH
	DW	03779H
	DW	0ffffH
	DW	0ffffH
	DW	0ba24H
	DW	0554cH
	DW	0ffffH
	DW	0ffffH
	DW	0ffffH
	DW	0ffffH
	DW	0ffffH
	DW	05545H
	DW	05542H
	DW	0ffffH
	DW	0ffffH
	DW	0ba25H
	DW	0ffffH
	DW	0ba26H
	DW	0ffffH
	DW	0ffffH
	DW	0ffffH
	DW	0ba27H
	DW	04364H
	DW	0ffffH
	DW	05541H
	DW	0ffffH
	DW	0ba28H
	DW	05543H
	DW	0ffffH
	DW	0ffffH
	DW	05544H
	DW	0ba29H
	DW	0ffffH
	DW	0ffffH
	DW	0ffffH
	DW	0ba2aH
	DW	0ffffH
	DW	0ffffH
	DW	0ffffH
	DW	0ffffH
	DW	0ffffH
	DW	0ffffH
	DW	0ba2bH
	DW	0ba2cH
	DW	0ffffH
	DW	0ffffH
	DW	0ffffH
	DW	05546H
	DW	05547H
	DW	0ffffH
	DW	0ba2dH
	DW	0ba2eH
	DW	0ba2fH
	DW	0ffffH
	DW	0ffffH
	DW	0ffffH
	DW	0ffffH
	DW	0ffffH
	DW	0ffffH
	DW	0ba30H
	DW	03472H
	DW	0ffffH
	DW	05549H
	DW	05548H
	DW	0ffffH
	DW	0ffffH
	DW	0ffffH
	DW	0ffffH
	DW	0ffffH
	DW	0ffffH
	DW	0ffffH
	DW	0ffffH
	DW	0ffffH
	DW	0554aH
	DW	0ba31H
	DW	0ffffH
	DW	0ba33H
	DW	0ffffH
	DW	0ba34H
	DW	0ffffH
	DW	0ba35H
	DW	0ffffH
	DW	0ffffH
	DW	0ffffH
	DW	0ba36H
	DW	03e6eH
	DW	0ffffH
	DW	0ffffH
	DW	0ba37H
	DW	0ffffH
	DW	0ffffH
	DW	0ffffH
	DW	0ffffH
	DW	0554dH
	DW	0ffffH
	DW	0445cH
	DW	0ba38H
	DW	0ffffH
	DW	0ffffH
	DW	03145H
	DW	0ffffH
	DW	0554bH
	DW	0ffffH
	DW	0ba32H
	DW	0ffffH
	DW	0554eH
	DW	0ffffH
	DW	0ba39H
	DW	0ffffH
	DW	0ffffH
	DW	0ffffH
	DW	0ffffH
	DW	0ffffH
	DW	0554fH
	DW	0ffffH
	DW	05552H
	DW	0ba3aH
	DW	0ffffH
	DW	05550H
	DW	0ffffH
	DW	05551H
	DW	0ffffH
	DW	0ffffH
	DW	0ffffH
	DW	0ffffH
	DW	0ffffH
	DW	0ba3bH
	DW	0ba3cH
	DW	0ffffH
	DW	0ffffH
	DW	0ffffH
	DW	03b52H
	DW	05553H
	DW	0ba3dH
	DW	0ffffH
	DW	03926H
	DW	05554H
	DW	0ba3eH
	DW	03b7aH
	DW	04238H
	DW	0ffffH
	DW	05555H
	DW	05556H
	DW	03b5aH
	DW	03927H
	DW	0ba3fH
	DW	04c52H
	DW	0ffffH
	DW	0ffffH
	DW	0ffffH
	DW	03528H
	DW	03849H
	DW	05557H
	DW	03358H
	DW	0ffffH
	DW	0ba40H
	DW	05558H
	DW	0ffffH
	DW	04239H
	DW	0ffffH
	DW	0ffffH
	DW	0ba41H
	DW	0ba42H
	DW	05559H
	DW	05623H
	DW	0ffffH
	DW	0555aH
	DW	0ffffH
	DW	0555bH
	DW	0ffffH
	DW	0ffffH
	DW	0555cH
	DW	0ffffH
	DW	0555eH
	DW	0ffffH
	DW	0ba43H
	DW	0ba44H
	DW	0ba45H
	DW	0ba46H
	DW	0555fH
	DW	0ba47H
	DW	0ffffH
