; Listing generated by Microsoft (R) Optimizing Compiler Version 16.00.40219.01 

include listing.inc

INCLUDELIB MSVCRT
INCLUDELIB OLDNAMES

PUBLIC	??_C@_0CK@LPNFBAGO@Fast?5implementation?5of?5the?5datet@ ; `string'
PUBLIC	??_C@_09BLEDGJAH@_datetime?$AA@			; `string'
PUBLIC	??_C@_0BC@JEMBMAD@datetime?4datetime?$AA@	; `string'
PUBLIC	??_C@_0DA@OEACLEJI@tz?5?9?$DO?5convert?5to?5local?5time?5in?5n@ ; `string'
PUBLIC	??_C@_0L@ECALMFAG@astimezone?$AA@		; `string'
PUBLIC	??_C@_0CL@IFILGCIP@Return?5datetime?5with?5new?5specifi@ ; `string'
PUBLIC	??_C@_0JA@IBIENBBE@?$FLsep?$FN?5?9?$DO?5string?5in?5ISO?58601?5form@ ; `string'
PUBLIC	??_C@_0DJ@MGNAKBHL@Return?5UTC?5time?5tuple?0?5compatibl@ ; `string'
PUBLIC	??_C@_0N@LHNBNFDP@utctimetuple?$AA@		; `string'
PUBLIC	??_C@_0CB@CCPKKINL@Return?5POSIX?5timestamp?5as?5float?4@ ; `string'
PUBLIC	??_C@_0CO@LKCKICLJ@Return?5time?5object?5with?5same?5tim@ ; `string'
PUBLIC	??_C@_06LODNGPBG@timetz?$AA@			; `string'
PUBLIC	??_C@_0DI@BHDEBDDH@Return?5time?5object?5with?5same?5tim@ ; `string'
PUBLIC	??_C@_0DC@LNOALPPA@Return?5date?5object?5with?5same?5yea@ ; `string'
PUBLIC	??_C@_0DG@POLGFJIG@date?0?5time?5?9?$DO?5datetime?5with?5same@ ; `string'
PUBLIC	??_C@_07PCDCECCK@combine?$AA@			; `string'
PUBLIC	??_C@_0EM@OMBKPNCM@string?0?5format?5?9?$DO?5new?5datetime?5p@ ; `string'
PUBLIC	??_C@_08JKOOHOPP@strptime?$AA@			; `string'
PUBLIC	??_C@_0EF@KHGJAJAA@timestamp?5?9?$DO?5UTC?5datetime?5from?5a@ ; `string'
PUBLIC	??_C@_0BB@GBGDJFBJ@utcfromtimestamp?$AA@	; `string'
PUBLIC	??_C@_0DJ@MJHLLJLE@timestamp?$FL?0?5tz?$FN?5?9?$DO?5tz?8s?5local?5ti@ ; `string'
PUBLIC	??_C@_0DF@OGGJLCPO@Return?5a?5new?5datetime?5representi@ ; `string'
PUBLIC	??_C@_06GKOOHOFL@utcnow?$AA@			; `string'
PUBLIC	??_C@_0DD@JPPGJGOI@?$FLtz?$FN?5?9?$DO?5new?5datetime?5with?5tz?8s?5l@ ; `string'
PUBLIC	??_C@_03CGLHMDPP@now?$AA@			; `string'
PUBLIC	??_C@_03MGBCFPKM@sep?$AA@			; `string'
PUBLIC	??_C@_04JNIHBGGH@date?$AA@			; `string'
PUBLIC	??_C@_0BD@LIAHNOMG@_strptime_datetime?$AA@	; `string'
PUBLIC	??_C@_09OMDJNLDP@timestamp?$AA@			; `string'
PUBLIC	??_C@_02IGJGHHBN@tz?$AA@			; `string'
PUBLIC	??_C@_0O@NMMCJMEE@datetime?4time?$AA@		; `string'
PUBLIC	??_C@_0CH@HGAMGBKA@Return?5time?5with?5new?5specified?5f@ ; `string'
PUBLIC	??_C@_0BO@PCCLEJIH@Return?5self?4tzinfo?4dst?$CIself?$CJ?4?$AA@ ; `string'
PUBLIC	??_C@_0CB@BKFJMHAP@Return?5self?4tzinfo?4tzname?$CIself?$CJ?4@ ; `string'
PUBLIC	??_C@_0CE@LHGMAHOI@Return?5self?4tzinfo?4utcoffset?$CIsel@ ; `string'
PUBLIC	??_C@_0DN@HPEMOKB@Return?5string?5in?5ISO?58601?5format@ ; `string'
PUBLIC	??_C@_06DBOJKPOI@tzinfo?$AA@			; `string'
PUBLIC	??_C@_0M@IPLGOMOC@microsecond?$AA@		; `string'
PUBLIC	??_C@_06BJCFNGJP@second?$AA@			; `string'
PUBLIC	??_C@_06JGJIJFNK@minute?$AA@			; `string'
PUBLIC	??_C@_04LMOJGCPE@hour?$AA@			; `string'
PUBLIC	??_C@_0BC@BMDCMDDO@datetime?4timezone?$AA@	; `string'
PUBLIC	??_C@_0P@BIOPACEL@pickle?5support?$AA@		; `string'
PUBLIC	??_C@_0N@BDGMCEOD@Return?5None?4?$AA@		; `string'
PUBLIC	??_C@_0BF@NDKIKJK@Return?5fixed?5offset?4?$AA@	; `string'
PUBLIC	??_C@_0GP@EEKHNJLP@If?5name?5is?5specified?5when?5timezo@ ; `string'
PUBLIC	??_C@_04MEMAJGDJ@name?$AA@			; `string'
PUBLIC	??_C@_06KLHHMIGM@offset?$AA@			; `string'
PUBLIC	??_C@_0BA@GEFABIKC@datetime?4tzinfo?$AA@	; `string'
PUBLIC	??_C@_0BA@IKFFDJGA@?9?$DO?5?$CIcls?0?5state?$CJ?$AA@ ; `string'
PUBLIC	??_C@_0CL@PFDHOCLO@datetime?5in?5UTC?5?9?$DO?5datetime?5in?5l@ ; `string'
PUBLIC	??_C@_07COGHOOJN@fromutc?$AA@			; `string'
PUBLIC	??_C@_0CP@CILGLPLI@datetime?5?9?$DO?5DST?5offset?5in?5minute@ ; `string'
PUBLIC	??_C@_03HHBLCKEM@dst?$AA@			; `string'
PUBLIC	??_C@_0FG@KHADFGHJ@datetime?5?9?$DO?5timedelta?5showing?5of@ ; `string'
PUBLIC	??_C@_09DGNKAEDJ@utcoffset?$AA@			; `string'
PUBLIC	??_C@_0CG@ECFLPKO@datetime?5?9?$DO?5string?5name?5of?5time?5@ ; `string'
PUBLIC	??_C@_0N@NAMJJHIO@__getstate__?$AA@		; `string'
PUBLIC	??_C@_0BA@NHLJJDN@__getinitargs__?$AA@		; `string'
PUBLIC	??_C@_0O@GKGBLLNG@datetime?4date?$AA@		; `string'
PUBLIC	??_C@_0CH@GIJAIIMK@Return?5date?5with?5new?5specified?5f@ ; `string'
PUBLIC	??_C@_0FA@FKOJHDKA@Return?5the?5day?5of?5the?5week?5repre@ ; `string'
PUBLIC	??_C@_07FALBAABE@weekday?$AA@			; `string'
PUBLIC	??_C@_0ED@NMEOEPCF@Return?5proleptic?5Gregorian?5ordin@ ; `string'
PUBLIC	??_C@_09EONCNCPH@toordinal?$AA@			; `string'
PUBLIC	??_C@_0FA@KMKAPEAA@Return?5the?5day?5of?5the?5week?5repre@ ; `string'
PUBLIC	??_C@_0L@OLCJLGMC@isoweekday?$AA@		; `string'
PUBLIC	??_C@_0CO@IHBEGEBB@Return?5string?5in?5ISO?58601?5format@ ; `string'
PUBLIC	??_C@_0EA@IKJAEJCA@Return?5a?53?9tuple?5containing?5ISO?5@ ; `string'
PUBLIC	??_C@_0M@NNCHLCCB@isocalendar?$AA@		; `string'
PUBLIC	??_C@_0DF@CKKAPDOD@Return?5time?5tuple?0?5compatible?5wi@ ; `string'
PUBLIC	??_C@_0BM@NAMMOMBA@Formats?5self?5with?5strftime?4?$AA@ ; `string'
PUBLIC	??_C@_0L@MEMCGMKL@__format__?$AA@		; `string'
PUBLIC	??_C@_0CD@LOCOCHNH@format?5?9?$DO?5strftime?$CI?$CJ?5style?5strin@ ; `string'
PUBLIC	??_C@_0BN@GEPPPCNC@Return?5ctime?$CI?$CJ?5style?5string?4?$AA@ ; `string'
PUBLIC	??_C@_05NCKEBKLP@ctime?$AA@			; `string'
PUBLIC	??_C@_0EO@GEOOIIOE@Current?5date?5or?5datetime?3?5?5same?5@ ; `string'
PUBLIC	??_C@_05MGEAPCOL@today?$AA@			; `string'
PUBLIC	??_C@_0DM@HOLBBDCF@int?5?9?$DO?5date?5corresponding?5to?5a?5p@ ; `string'
PUBLIC	??_C@_0M@EGBEAMKN@fromordinal?$AA@		; `string'
PUBLIC	??_C@_0ED@ODEPENLP@timestamp?5?9?$DO?5local?5date?5from?5a?5P@ ; `string'
PUBLIC	??_C@_06DLEPGFEF@format?$AA@			; `string'
PUBLIC	??_C@_09BCIOHOOO@timetuple?$AA@			; `string'
PUBLIC	??_C@_09KILOLAPA@isoformat?$AA@			; `string'
PUBLIC	??_C@_0O@LBDJOPJI@fromtimestamp?$AA@		; `string'
PUBLIC	??_C@_03NNBHCDBP@day?$AA@			; `string'
PUBLIC	??_C@_05MEBAADFH@month?$AA@			; `string'
PUBLIC	??_C@_04JFPLDHAO@year?$AA@			; `string'
PUBLIC	??_C@_0BD@HJBKAPAI@datetime?4timedelta?$AA@	; `string'
PUBLIC	??_C@_0BN@JMEDOFNE@__reduce__?$CI?$CJ?5?9?$DO?5?$CIcls?0?5state?$CJ?$AA@ ; `string'
PUBLIC	??_C@_0L@NNMACJIG@__reduce__?$AA@		; `string'
PUBLIC	??_C@_0BP@FCABBAIC@Total?5seconds?5in?5the?5duration?4?$AA@ ; `string'
PUBLIC	??_C@_0O@NKEEINIH@total_seconds?$AA@		; `string'
PUBLIC	??_C@_0DG@IHOJEBBG@Number?5of?5microseconds?5?$CI?$DO?$DN?50?5and@ ; `string'
PUBLIC	??_C@_0CO@EIOKLPFO@Number?5of?5seconds?5?$CI?$DO?$DN?50?5and?5less@ ; `string'
PUBLIC	??_C@_0BA@CFKEOBG@Number?5of?5days?4?$AA@	; `string'
PUBLIC	??_C@_05EFKAJCNN@weeks?$AA@			; `string'
PUBLIC	??_C@_05LOHOPFFC@hours?$AA@			; `string'
PUBLIC	??_C@_07GCICIJGK@minutes?$AA@			; `string'
PUBLIC	??_C@_0N@JDBMCDJK@milliseconds?$AA@		; `string'
PUBLIC	??_C@_0N@EKJJBPIN@microseconds?$AA@		; `string'
PUBLIC	??_C@_07GELLIBDG@seconds?$AA@			; `string'
PUBLIC	??_C@_04IJMHDAOD@days?$AA@			; `string'
PUBLIC	??_C@_0BB@IDBMACFH@as_integer_ratio?$AA@	; `string'
PUBLIC	??_C@_0M@HIOPEIIP@struct_time?$AA@		; `string'
PUBLIC	??_C@_04CLCEDBPF@time?$AA@			; `string'
PUBLIC	??_C@_08EPGBJPHJ@strftime?$AA@			; `string'
PUBLIC	??_C@_07CLEHDIEJ@replace?$AA@			; `string'
PUBLIC	??_C@_03MKABNOCG@Dec?$AA@			; `string'
PUBLIC	??_C@_03JPJOFNIA@Nov?$AA@			; `string'
PUBLIC	??_C@_03BMAOKBAD@Oct?$AA@			; `string'
PUBLIC	??_C@_03GGCAPAJC@Sep?$AA@			; `string'
PUBLIC	??_C@_03IFJFEIGA@Aug?$AA@			; `string'
PUBLIC	??_C@_03LBGABGKK@Jul?$AA@			; `string'
PUBLIC	??_C@_03IDFGHECI@Jun?$AA@			; `string'
PUBLIC	??_C@_03CNMDKL@May?$AA@				; `string'
PUBLIC	??_C@_03LEOLGMJP@Apr?$AA@			; `string'
PUBLIC	??_C@_03ODNJBKGA@Mar?$AA@			; `string'
PUBLIC	??_C@_03HJBDCHOM@Feb?$AA@			; `string'
PUBLIC	??_C@_03JIHJHPIE@Jan?$AA@			; `string'
PUBLIC	??_C@_03KOEHGMDN@Sun?$AA@			; `string'
PUBLIC	??_C@_03FEFJNEK@Sat?$AA@			; `string'
PUBLIC	??_C@_03IDIOELNC@Fri?$AA@			; `string'
PUBLIC	??_C@_03IOFIKPDN@Thu?$AA@			; `string'
PUBLIC	??_C@_03MHOMLAJA@Wed?$AA@			; `string'
PUBLIC	??_C@_03NAGEINEP@Tue?$AA@			; `string'
PUBLIC	??_C@_03PDAGKDH@Mon?$AA@			; `string'
PUBLIC	??_C@_06CNBAGEMF@tzname?$AA@			; `string'
EXTRN	PyType_GenericNew:PROC
EXTRN	PyObject_GenericGetAttr:PROC
_BSS	SEGMENT
us_per_us DQ	01H DUP (?)
us_per_ms DQ	01H DUP (?)
us_per_second DQ 01H DUP (?)
us_per_minute DQ 01H DUP (?)
us_per_hour DQ	01H DUP (?)
us_per_day DQ	01H DUP (?)
us_per_week DQ	01H DUP (?)
seconds_per_day DQ 01H DUP (?)
?module@?1??datetime_strptime@@9@9 DQ 01H DUP (?)	; `datetime_strptime'::`2'::module
module_methods DB 020H DUP (?)
_BSS	ENDS
;	COMDAT ??_C@_0CK@LPNFBAGO@Fast?5implementation?5of?5the?5datet@
CONST	SEGMENT
??_C@_0CK@LPNFBAGO@Fast?5implementation?5of?5the?5datet@ DB 'Fast impleme'
	DB	'ntation of the datetime type.', 00H		; `string'
CONST	ENDS
;	COMDAT ??_C@_09BLEDGJAH@_datetime?$AA@
CONST	SEGMENT
??_C@_09BLEDGJAH@_datetime?$AA@ DB '_datetime', 00H	; `string'
CONST	ENDS
;	COMDAT ??_C@_0BC@JEMBMAD@datetime?4datetime?$AA@
CONST	SEGMENT
??_C@_0BC@JEMBMAD@datetime?4datetime?$AA@ DB 'datetime.datetime', 00H ; `string'
CONST	ENDS
;	COMDAT ??_C@_0DA@OEACLEJI@tz?5?9?$DO?5convert?5to?5local?5time?5in?5n@
CONST	SEGMENT
??_C@_0DA@OEACLEJI@tz?5?9?$DO?5convert?5to?5local?5time?5in?5n@ DB 'tz ->'
	DB	' convert to local time in new timezone tz', 0aH, 00H ; `string'
CONST	ENDS
;	COMDAT ??_C@_0L@ECALMFAG@astimezone?$AA@
CONST	SEGMENT
??_C@_0L@ECALMFAG@astimezone?$AA@ DB 'astimezone', 00H	; `string'
CONST	ENDS
;	COMDAT ??_C@_0CL@IFILGCIP@Return?5datetime?5with?5new?5specifi@
CONST	SEGMENT
??_C@_0CL@IFILGCIP@Return?5datetime?5with?5new?5specifi@ DB 'Return datet'
	DB	'ime with new specified fields.', 00H	; `string'
CONST	ENDS
;	COMDAT ??_C@_0JA@IBIENBBE@?$FLsep?$FN?5?9?$DO?5string?5in?5ISO?58601?5form@
CONST	SEGMENT
??_C@_0JA@IBIENBBE@?$FLsep?$FN?5?9?$DO?5string?5in?5ISO?58601?5form@ DB '['
	DB	'sep] -> string in ISO 8601 format, YYYY-MM-DDTHH:MM:SS[.mmmmm'
	DB	'm][+HH:MM].', 0aH, 0aH, 'sep is used to separate the year fro'
	DB	'm the time, and defaults to ''T''.', 00H	; `string'
CONST	ENDS
;	COMDAT ??_C@_0DJ@MGNAKBHL@Return?5UTC?5time?5tuple?0?5compatibl@
CONST	SEGMENT
??_C@_0DJ@MGNAKBHL@Return?5UTC?5time?5tuple?0?5compatibl@ DB 'Return UTC '
	DB	'time tuple, compatible with time.localtime().', 00H ; `string'
CONST	ENDS
;	COMDAT ??_C@_0N@LHNBNFDP@utctimetuple?$AA@
CONST	SEGMENT
??_C@_0N@LHNBNFDP@utctimetuple?$AA@ DB 'utctimetuple', 00H ; `string'
CONST	ENDS
;	COMDAT ??_C@_0CB@CCPKKINL@Return?5POSIX?5timestamp?5as?5float?4@
CONST	SEGMENT
??_C@_0CB@CCPKKINL@Return?5POSIX?5timestamp?5as?5float?4@ DB 'Return POSI'
	DB	'X timestamp as float.', 00H			; `string'
CONST	ENDS
;	COMDAT ??_C@_0CO@LKCKICLJ@Return?5time?5object?5with?5same?5tim@
CONST	SEGMENT
??_C@_0CO@LKCKICLJ@Return?5time?5object?5with?5same?5tim@ DB 'Return time'
	DB	' object with same time and tzinfo.', 00H	; `string'
CONST	ENDS
;	COMDAT ??_C@_06LODNGPBG@timetz?$AA@
CONST	SEGMENT
??_C@_06LODNGPBG@timetz?$AA@ DB 'timetz', 00H		; `string'
CONST	ENDS
;	COMDAT ??_C@_0DI@BHDEBDDH@Return?5time?5object?5with?5same?5tim@
CONST	SEGMENT
??_C@_0DI@BHDEBDDH@Return?5time?5object?5with?5same?5tim@ DB 'Return time'
	DB	' object with same time but with tzinfo=None.', 00H ; `string'
CONST	ENDS
;	COMDAT ??_C@_0DC@LNOALPPA@Return?5date?5object?5with?5same?5yea@
CONST	SEGMENT
??_C@_0DC@LNOALPPA@Return?5date?5object?5with?5same?5yea@ DB 'Return date'
	DB	' object with same year, month and day.', 00H ; `string'
CONST	ENDS
;	COMDAT ??_C@_0DG@POLGFJIG@date?0?5time?5?9?$DO?5datetime?5with?5same@
CONST	SEGMENT
??_C@_0DG@POLGFJIG@date?0?5time?5?9?$DO?5datetime?5with?5same@ DB 'date, '
	DB	'time -> datetime with same date and time fields', 00H ; `string'
CONST	ENDS
;	COMDAT ??_C@_07PCDCECCK@combine?$AA@
CONST	SEGMENT
??_C@_07PCDCECCK@combine?$AA@ DB 'combine', 00H		; `string'
CONST	ENDS
;	COMDAT ??_C@_0EM@OMBKPNCM@string?0?5format?5?9?$DO?5new?5datetime?5p@
CONST	SEGMENT
??_C@_0EM@OMBKPNCM@string?0?5format?5?9?$DO?5new?5datetime?5p@ DB 'string'
	DB	', format -> new datetime parsed from a string (like time.strp'
	DB	'time()).', 00H				; `string'
CONST	ENDS
;	COMDAT ??_C@_08JKOOHOPP@strptime?$AA@
CONST	SEGMENT
??_C@_08JKOOHOPP@strptime?$AA@ DB 'strptime', 00H	; `string'
CONST	ENDS
;	COMDAT ??_C@_0EF@KHGJAJAA@timestamp?5?9?$DO?5UTC?5datetime?5from?5a@
CONST	SEGMENT
??_C@_0EF@KHGJAJAA@timestamp?5?9?$DO?5UTC?5datetime?5from?5a@ DB 'timesta'
	DB	'mp -> UTC datetime from a POSIX timestamp (like time.time()).'
	DB	00H						; `string'
CONST	ENDS
;	COMDAT ??_C@_0BB@GBGDJFBJ@utcfromtimestamp?$AA@
CONST	SEGMENT
??_C@_0BB@GBGDJFBJ@utcfromtimestamp?$AA@ DB 'utcfromtimestamp', 00H ; `string'
CONST	ENDS
;	COMDAT ??_C@_0DJ@MJHLLJLE@timestamp?$FL?0?5tz?$FN?5?9?$DO?5tz?8s?5local?5ti@
CONST	SEGMENT
??_C@_0DJ@MJHLLJLE@timestamp?$FL?0?5tz?$FN?5?9?$DO?5tz?8s?5local?5ti@ DB 't'
	DB	'imestamp[, tz] -> tz''s local time from POSIX timestamp.', 00H ; `string'
CONST	ENDS
;	COMDAT ??_C@_0DF@OGGJLCPO@Return?5a?5new?5datetime?5representi@
CONST	SEGMENT
??_C@_0DF@OGGJLCPO@Return?5a?5new?5datetime?5representi@ DB 'Return a new'
	DB	' datetime representing UTC day and time.', 00H ; `string'
CONST	ENDS
;	COMDAT ??_C@_06GKOOHOFL@utcnow?$AA@
CONST	SEGMENT
??_C@_06GKOOHOFL@utcnow?$AA@ DB 'utcnow', 00H		; `string'
CONST	ENDS
;	COMDAT ??_C@_0DD@JPPGJGOI@?$FLtz?$FN?5?9?$DO?5new?5datetime?5with?5tz?8s?5l@
CONST	SEGMENT
??_C@_0DD@JPPGJGOI@?$FLtz?$FN?5?9?$DO?5new?5datetime?5with?5tz?8s?5l@ DB '['
	DB	'tz] -> new datetime with tz''s local day and time.', 00H ; `string'
CONST	ENDS
;	COMDAT ??_C@_03CGLHMDPP@now?$AA@
CONST	SEGMENT
??_C@_03CGLHMDPP@now?$AA@ DB 'now', 00H			; `string'
CONST	ENDS
;	COMDAT ??_C@_03MGBCFPKM@sep?$AA@
CONST	SEGMENT
??_C@_03MGBCFPKM@sep?$AA@ DB 'sep', 00H			; `string'
CONST	ENDS
;	COMDAT ??_C@_04JNIHBGGH@date?$AA@
CONST	SEGMENT
??_C@_04JNIHBGGH@date?$AA@ DB 'date', 00H		; `string'
CONST	ENDS
;	COMDAT ??_C@_0BD@LIAHNOMG@_strptime_datetime?$AA@
CONST	SEGMENT
??_C@_0BD@LIAHNOMG@_strptime_datetime?$AA@ DB '_strptime_datetime', 00H ; `string'
CONST	ENDS
;	COMDAT ??_C@_09OMDJNLDP@timestamp?$AA@
CONST	SEGMENT
??_C@_09OMDJNLDP@timestamp?$AA@ DB 'timestamp', 00H	; `string'
CONST	ENDS
;	COMDAT ??_C@_02IGJGHHBN@tz?$AA@
CONST	SEGMENT
??_C@_02IGJGHHBN@tz?$AA@ DB 'tz', 00H			; `string'
CONST	ENDS
;	COMDAT ??_C@_0O@NMMCJMEE@datetime?4time?$AA@
CONST	SEGMENT
??_C@_0O@NMMCJMEE@datetime?4time?$AA@ DB 'datetime.time', 00H ; `string'
CONST	ENDS
;	COMDAT ??_C@_0CH@HGAMGBKA@Return?5time?5with?5new?5specified?5f@
CONST	SEGMENT
??_C@_0CH@HGAMGBKA@Return?5time?5with?5new?5specified?5f@ DB 'Return time'
	DB	' with new specified fields.', 00H		; `string'
CONST	ENDS
;	COMDAT ??_C@_0BO@PCCLEJIH@Return?5self?4tzinfo?4dst?$CIself?$CJ?4?$AA@
CONST	SEGMENT
??_C@_0BO@PCCLEJIH@Return?5self?4tzinfo?4dst?$CIself?$CJ?4?$AA@ DB 'Retur'
	DB	'n self.tzinfo.dst(self).', 00H		; `string'
CONST	ENDS
;	COMDAT ??_C@_0CB@BKFJMHAP@Return?5self?4tzinfo?4tzname?$CIself?$CJ?4@
CONST	SEGMENT
??_C@_0CB@BKFJMHAP@Return?5self?4tzinfo?4tzname?$CIself?$CJ?4@ DB 'Return'
	DB	' self.tzinfo.tzname(self).', 00H		; `string'
CONST	ENDS
;	COMDAT ??_C@_0CE@LHGMAHOI@Return?5self?4tzinfo?4utcoffset?$CIsel@
CONST	SEGMENT
??_C@_0CE@LHGMAHOI@Return?5self?4tzinfo?4utcoffset?$CIsel@ DB 'Return sel'
	DB	'f.tzinfo.utcoffset(self).', 00H		; `string'
CONST	ENDS
;	COMDAT ??_C@_0DN@HPEMOKB@Return?5string?5in?5ISO?58601?5format@
CONST	SEGMENT
??_C@_0DN@HPEMOKB@Return?5string?5in?5ISO?58601?5format@ DB 'Return strin'
	DB	'g in ISO 8601 format, HH:MM:SS[.mmmmmm][+HH:MM].', 00H ; `string'
CONST	ENDS
;	COMDAT ??_C@_06DBOJKPOI@tzinfo?$AA@
CONST	SEGMENT
??_C@_06DBOJKPOI@tzinfo?$AA@ DB 'tzinfo', 00H		; `string'
CONST	ENDS
;	COMDAT ??_C@_0M@IPLGOMOC@microsecond?$AA@
CONST	SEGMENT
??_C@_0M@IPLGOMOC@microsecond?$AA@ DB 'microsecond', 00H ; `string'
CONST	ENDS
;	COMDAT ??_C@_06BJCFNGJP@second?$AA@
CONST	SEGMENT
??_C@_06BJCFNGJP@second?$AA@ DB 'second', 00H		; `string'
CONST	ENDS
;	COMDAT ??_C@_06JGJIJFNK@minute?$AA@
CONST	SEGMENT
??_C@_06JGJIJFNK@minute?$AA@ DB 'minute', 00H		; `string'
CONST	ENDS
;	COMDAT ??_C@_04LMOJGCPE@hour?$AA@
CONST	SEGMENT
??_C@_04LMOJGCPE@hour?$AA@ DB 'hour', 00H		; `string'
CONST	ENDS
;	COMDAT ??_C@_0BC@BMDCMDDO@datetime?4timezone?$AA@
CONST	SEGMENT
??_C@_0BC@BMDCMDDO@datetime?4timezone?$AA@ DB 'datetime.timezone', 00H ; `string'
CONST	ENDS
;	COMDAT ??_C@_0P@BIOPACEL@pickle?5support?$AA@
CONST	SEGMENT
??_C@_0P@BIOPACEL@pickle?5support?$AA@ DB 'pickle support', 00H ; `string'
CONST	ENDS
;	COMDAT ??_C@_0N@BDGMCEOD@Return?5None?4?$AA@
CONST	SEGMENT
??_C@_0N@BDGMCEOD@Return?5None?4?$AA@ DB 'Return None.', 00H ; `string'
CONST	ENDS
;	COMDAT ??_C@_0BF@NDKIKJK@Return?5fixed?5offset?4?$AA@
CONST	SEGMENT
??_C@_0BF@NDKIKJK@Return?5fixed?5offset?4?$AA@ DB 'Return fixed offset.', 00H ; `string'
CONST	ENDS
;	COMDAT ??_C@_0GP@EEKHNJLP@If?5name?5is?5specified?5when?5timezo@
CONST	SEGMENT
??_C@_0GP@EEKHNJLP@If?5name?5is?5specified?5when?5timezo@ DB 'If name is '
	DB	'specified when timezone is created, returns the name.  Otherw'
	DB	'ise returns offset as ''UTC(+|-)HH:MM''.', 00H ; `string'
CONST	ENDS
;	COMDAT ??_C@_04MEMAJGDJ@name?$AA@
CONST	SEGMENT
??_C@_04MEMAJGDJ@name?$AA@ DB 'name', 00H		; `string'
CONST	ENDS
;	COMDAT ??_C@_06KLHHMIGM@offset?$AA@
CONST	SEGMENT
??_C@_06KLHHMIGM@offset?$AA@ DB 'offset', 00H		; `string'
CONST	ENDS
;	COMDAT ??_C@_0BA@GEFABIKC@datetime?4tzinfo?$AA@
CONST	SEGMENT
??_C@_0BA@GEFABIKC@datetime?4tzinfo?$AA@ DB 'datetime.tzinfo', 00H ; `string'
CONST	ENDS
;	COMDAT ??_C@_0BA@IKFFDJGA@?9?$DO?5?$CIcls?0?5state?$CJ?$AA@
CONST	SEGMENT
??_C@_0BA@IKFFDJGA@?9?$DO?5?$CIcls?0?5state?$CJ?$AA@ DB '-> (cls, state)', 00H ; `string'
CONST	ENDS
;	COMDAT ??_C@_0CL@PFDHOCLO@datetime?5in?5UTC?5?9?$DO?5datetime?5in?5l@
CONST	SEGMENT
??_C@_0CL@PFDHOCLO@datetime?5in?5UTC?5?9?$DO?5datetime?5in?5l@ DB 'dateti'
	DB	'me in UTC -> datetime in local time.', 00H	; `string'
CONST	ENDS
;	COMDAT ??_C@_07COGHOOJN@fromutc?$AA@
CONST	SEGMENT
??_C@_07COGHOOJN@fromutc?$AA@ DB 'fromutc', 00H		; `string'
CONST	ENDS
;	COMDAT ??_C@_0CP@CILGLPLI@datetime?5?9?$DO?5DST?5offset?5in?5minute@
CONST	SEGMENT
??_C@_0CP@CILGLPLI@datetime?5?9?$DO?5DST?5offset?5in?5minute@ DB 'datetim'
	DB	'e -> DST offset in minutes east of UTC.', 00H ; `string'
CONST	ENDS
;	COMDAT ??_C@_03HHBLCKEM@dst?$AA@
CONST	SEGMENT
??_C@_03HHBLCKEM@dst?$AA@ DB 'dst', 00H			; `string'
CONST	ENDS
;	COMDAT ??_C@_0FG@KHADFGHJ@datetime?5?9?$DO?5timedelta?5showing?5of@
CONST	SEGMENT
??_C@_0FG@KHADFGHJ@datetime?5?9?$DO?5timedelta?5showing?5of@ DB 'datetime'
	DB	' -> timedelta showing offset from UTC, negative values indica'
	DB	'ting West of UTC', 00H			; `string'
CONST	ENDS
;	COMDAT ??_C@_09DGNKAEDJ@utcoffset?$AA@
CONST	SEGMENT
??_C@_09DGNKAEDJ@utcoffset?$AA@ DB 'utcoffset', 00H	; `string'
CONST	ENDS
;	COMDAT ??_C@_0CG@ECFLPKO@datetime?5?9?$DO?5string?5name?5of?5time?5@
CONST	SEGMENT
??_C@_0CG@ECFLPKO@datetime?5?9?$DO?5string?5name?5of?5time?5@ DB 'datetim'
	DB	'e -> string name of time zone.', 00H	; `string'
CONST	ENDS
;	COMDAT ??_C@_0N@NAMJJHIO@__getstate__?$AA@
CONST	SEGMENT
??_C@_0N@NAMJJHIO@__getstate__?$AA@ DB '__getstate__', 00H ; `string'
CONST	ENDS
;	COMDAT ??_C@_0BA@NHLJJDN@__getinitargs__?$AA@
CONST	SEGMENT
??_C@_0BA@NHLJJDN@__getinitargs__?$AA@ DB '__getinitargs__', 00H ; `string'
CONST	ENDS
;	COMDAT ??_C@_0O@GKGBLLNG@datetime?4date?$AA@
CONST	SEGMENT
??_C@_0O@GKGBLLNG@datetime?4date?$AA@ DB 'datetime.date', 00H ; `string'
CONST	ENDS
;	COMDAT ??_C@_0CH@GIJAIIMK@Return?5date?5with?5new?5specified?5f@
CONST	SEGMENT
??_C@_0CH@GIJAIIMK@Return?5date?5with?5new?5specified?5f@ DB 'Return date'
	DB	' with new specified fields.', 00H		; `string'
CONST	ENDS
;	COMDAT ??_C@_0FA@FKOJHDKA@Return?5the?5day?5of?5the?5week?5repre@
CONST	SEGMENT
??_C@_0FA@FKOJHDKA@Return?5the?5day?5of?5the?5week?5repre@ DB 'Return the'
	DB	' day of the week represented by the date.', 0aH, 'Monday == 0'
	DB	' ... Sunday == 6', 00H			; `string'
CONST	ENDS
;	COMDAT ??_C@_07FALBAABE@weekday?$AA@
CONST	SEGMENT
??_C@_07FALBAABE@weekday?$AA@ DB 'weekday', 00H		; `string'
CONST	ENDS
;	COMDAT ??_C@_0ED@NMEOEPCF@Return?5proleptic?5Gregorian?5ordin@
CONST	SEGMENT
??_C@_0ED@NMEOEPCF@Return?5proleptic?5Gregorian?5ordin@ DB 'Return prolep'
	DB	'tic Gregorian ordinal.  January 1 of year 1 is day 1.', 00H ; `string'
CONST	ENDS
;	COMDAT ??_C@_09EONCNCPH@toordinal?$AA@
CONST	SEGMENT
??_C@_09EONCNCPH@toordinal?$AA@ DB 'toordinal', 00H	; `string'
CONST	ENDS
;	COMDAT ??_C@_0FA@KMKAPEAA@Return?5the?5day?5of?5the?5week?5repre@
CONST	SEGMENT
??_C@_0FA@KMKAPEAA@Return?5the?5day?5of?5the?5week?5repre@ DB 'Return the'
	DB	' day of the week represented by the date.', 0aH, 'Monday == 1'
	DB	' ... Sunday == 7', 00H			; `string'
CONST	ENDS
;	COMDAT ??_C@_0L@OLCJLGMC@isoweekday?$AA@
CONST	SEGMENT
??_C@_0L@OLCJLGMC@isoweekday?$AA@ DB 'isoweekday', 00H	; `string'
CONST	ENDS
;	COMDAT ??_C@_0CO@IHBEGEBB@Return?5string?5in?5ISO?58601?5format@
CONST	SEGMENT
??_C@_0CO@IHBEGEBB@Return?5string?5in?5ISO?58601?5format@ DB 'Return stri'
	DB	'ng in ISO 8601 format, YYYY-MM-DD.', 00H	; `string'
CONST	ENDS
;	COMDAT ??_C@_0EA@IKJAEJCA@Return?5a?53?9tuple?5containing?5ISO?5@
CONST	SEGMENT
??_C@_0EA@IKJAEJCA@Return?5a?53?9tuple?5containing?5ISO?5@ DB 'Return a 3'
	DB	'-tuple containing ISO year, week number, and weekday.', 00H ; `string'
CONST	ENDS
;	COMDAT ??_C@_0M@NNCHLCCB@isocalendar?$AA@
CONST	SEGMENT
??_C@_0M@NNCHLCCB@isocalendar?$AA@ DB 'isocalendar', 00H ; `string'
CONST	ENDS
;	COMDAT ??_C@_0DF@CKKAPDOD@Return?5time?5tuple?0?5compatible?5wi@
CONST	SEGMENT
??_C@_0DF@CKKAPDOD@Return?5time?5tuple?0?5compatible?5wi@ DB 'Return time'
	DB	' tuple, compatible with time.localtime().', 00H ; `string'
CONST	ENDS
;	COMDAT ??_C@_0BM@NAMMOMBA@Formats?5self?5with?5strftime?4?$AA@
CONST	SEGMENT
??_C@_0BM@NAMMOMBA@Formats?5self?5with?5strftime?4?$AA@ DB 'Formats self '
	DB	'with strftime.', 00H			; `string'
CONST	ENDS
;	COMDAT ??_C@_0L@MEMCGMKL@__format__?$AA@
CONST	SEGMENT
??_C@_0L@MEMCGMKL@__format__?$AA@ DB '__format__', 00H	; `string'
CONST	ENDS
;	COMDAT ??_C@_0CD@LOCOCHNH@format?5?9?$DO?5strftime?$CI?$CJ?5style?5strin@
CONST	SEGMENT
??_C@_0CD@LOCOCHNH@format?5?9?$DO?5strftime?$CI?$CJ?5style?5strin@ DB 'fo'
	DB	'rmat -> strftime() style string.', 00H	; `string'
CONST	ENDS
;	COMDAT ??_C@_0BN@GEPPPCNC@Return?5ctime?$CI?$CJ?5style?5string?4?$AA@
CONST	SEGMENT
??_C@_0BN@GEPPPCNC@Return?5ctime?$CI?$CJ?5style?5string?4?$AA@ DB 'Return'
	DB	' ctime() style string.', 00H		; `string'
CONST	ENDS
;	COMDAT ??_C@_05NCKEBKLP@ctime?$AA@
CONST	SEGMENT
??_C@_05NCKEBKLP@ctime?$AA@ DB 'ctime', 00H		; `string'
CONST	ENDS
;	COMDAT ??_C@_0EO@GEOOIIOE@Current?5date?5or?5datetime?3?5?5same?5@
CONST	SEGMENT
??_C@_0EO@GEOOIIOE@Current?5date?5or?5datetime?3?5?5same?5@ DB 'Current d'
	DB	'ate or datetime:  same as self.__class__.fromtimestamp(time.t'
	DB	'ime()).', 00H				; `string'
CONST	ENDS
;	COMDAT ??_C@_05MGEAPCOL@today?$AA@
CONST	SEGMENT
??_C@_05MGEAPCOL@today?$AA@ DB 'today', 00H		; `string'
CONST	ENDS
;	COMDAT ??_C@_0DM@HOLBBDCF@int?5?9?$DO?5date?5corresponding?5to?5a?5p@
CONST	SEGMENT
??_C@_0DM@HOLBBDCF@int?5?9?$DO?5date?5corresponding?5to?5a?5p@ DB 'int ->'
	DB	' date corresponding to a proleptic Gregorian ordinal.', 00H ; `string'
CONST	ENDS
;	COMDAT ??_C@_0M@EGBEAMKN@fromordinal?$AA@
CONST	SEGMENT
??_C@_0M@EGBEAMKN@fromordinal?$AA@ DB 'fromordinal', 00H ; `string'
CONST	ENDS
;	COMDAT ??_C@_0ED@ODEPENLP@timestamp?5?9?$DO?5local?5date?5from?5a?5P@
CONST	SEGMENT
??_C@_0ED@ODEPENLP@timestamp?5?9?$DO?5local?5date?5from?5a?5P@ DB 'timest'
	DB	'amp -> local date from a POSIX timestamp (like time.time()).', 00H ; `string'
CONST	ENDS
;	COMDAT ??_C@_06DLEPGFEF@format?$AA@
CONST	SEGMENT
??_C@_06DLEPGFEF@format?$AA@ DB 'format', 00H		; `string'
CONST	ENDS
;	COMDAT ??_C@_09BCIOHOOO@timetuple?$AA@
CONST	SEGMENT
??_C@_09BCIOHOOO@timetuple?$AA@ DB 'timetuple', 00H	; `string'
CONST	ENDS
;	COMDAT ??_C@_09KILOLAPA@isoformat?$AA@
CONST	SEGMENT
??_C@_09KILOLAPA@isoformat?$AA@ DB 'isoformat', 00H	; `string'
CONST	ENDS
;	COMDAT ??_C@_0O@LBDJOPJI@fromtimestamp?$AA@
CONST	SEGMENT
??_C@_0O@LBDJOPJI@fromtimestamp?$AA@ DB 'fromtimestamp', 00H ; `string'
CONST	ENDS
;	COMDAT ??_C@_03NNBHCDBP@day?$AA@
CONST	SEGMENT
??_C@_03NNBHCDBP@day?$AA@ DB 'day', 00H			; `string'
CONST	ENDS
;	COMDAT ??_C@_05MEBAADFH@month?$AA@
CONST	SEGMENT
??_C@_05MEBAADFH@month?$AA@ DB 'month', 00H		; `string'
CONST	ENDS
;	COMDAT ??_C@_04JFPLDHAO@year?$AA@
CONST	SEGMENT
??_C@_04JFPLDHAO@year?$AA@ DB 'year', 00H		; `string'
CONST	ENDS
;	COMDAT ??_C@_0BD@HJBKAPAI@datetime?4timedelta?$AA@
CONST	SEGMENT
??_C@_0BD@HJBKAPAI@datetime?4timedelta?$AA@ DB 'datetime.timedelta', 00H ; `string'
CONST	ENDS
;	COMDAT ??_C@_0BN@JMEDOFNE@__reduce__?$CI?$CJ?5?9?$DO?5?$CIcls?0?5state?$CJ?$AA@
CONST	SEGMENT
??_C@_0BN@JMEDOFNE@__reduce__?$CI?$CJ?5?9?$DO?5?$CIcls?0?5state?$CJ?$AA@ DB '_'
	DB	'_reduce__() -> (cls, state)', 00H		; `string'
CONST	ENDS
;	COMDAT ??_C@_0L@NNMACJIG@__reduce__?$AA@
CONST	SEGMENT
??_C@_0L@NNMACJIG@__reduce__?$AA@ DB '__reduce__', 00H	; `string'
CONST	ENDS
;	COMDAT ??_C@_0BP@FCABBAIC@Total?5seconds?5in?5the?5duration?4?$AA@
CONST	SEGMENT
??_C@_0BP@FCABBAIC@Total?5seconds?5in?5the?5duration?4?$AA@ DB 'Total sec'
	DB	'onds in the duration.', 00H			; `string'
CONST	ENDS
;	COMDAT ??_C@_0O@NKEEINIH@total_seconds?$AA@
CONST	SEGMENT
??_C@_0O@NKEEINIH@total_seconds?$AA@ DB 'total_seconds', 00H ; `string'
CONST	ENDS
;	COMDAT ??_C@_0DG@IHOJEBBG@Number?5of?5microseconds?5?$CI?$DO?$DN?50?5and@
CONST	SEGMENT
??_C@_0DG@IHOJEBBG@Number?5of?5microseconds?5?$CI?$DO?$DN?50?5and@ DB 'Nu'
	DB	'mber of microseconds (>= 0 and less than 1 second).', 00H ; `string'
CONST	ENDS
;	COMDAT ??_C@_0CO@EIOKLPFO@Number?5of?5seconds?5?$CI?$DO?$DN?50?5and?5less@
CONST	SEGMENT
??_C@_0CO@EIOKLPFO@Number?5of?5seconds?5?$CI?$DO?$DN?50?5and?5less@ DB 'N'
	DB	'umber of seconds (>= 0 and less than 1 day).', 00H ; `string'
CONST	ENDS
;	COMDAT ??_C@_0BA@CFKEOBG@Number?5of?5days?4?$AA@
CONST	SEGMENT
??_C@_0BA@CFKEOBG@Number?5of?5days?4?$AA@ DB 'Number of days.', 00H ; `string'
CONST	ENDS
;	COMDAT ??_C@_05EFKAJCNN@weeks?$AA@
CONST	SEGMENT
??_C@_05EFKAJCNN@weeks?$AA@ DB 'weeks', 00H		; `string'
CONST	ENDS
;	COMDAT ??_C@_05LOHOPFFC@hours?$AA@
CONST	SEGMENT
??_C@_05LOHOPFFC@hours?$AA@ DB 'hours', 00H		; `string'
CONST	ENDS
;	COMDAT ??_C@_07GCICIJGK@minutes?$AA@
CONST	SEGMENT
??_C@_07GCICIJGK@minutes?$AA@ DB 'minutes', 00H		; `string'
CONST	ENDS
;	COMDAT ??_C@_0N@JDBMCDJK@milliseconds?$AA@
CONST	SEGMENT
??_C@_0N@JDBMCDJK@milliseconds?$AA@ DB 'milliseconds', 00H ; `string'
CONST	ENDS
;	COMDAT ??_C@_0N@EKJJBPIN@microseconds?$AA@
CONST	SEGMENT
??_C@_0N@EKJJBPIN@microseconds?$AA@ DB 'microseconds', 00H ; `string'
CONST	ENDS
;	COMDAT ??_C@_07GELLIBDG@seconds?$AA@
CONST	SEGMENT
??_C@_07GELLIBDG@seconds?$AA@ DB 'seconds', 00H		; `string'
CONST	ENDS
;	COMDAT ??_C@_04IJMHDAOD@days?$AA@
CONST	SEGMENT
??_C@_04IJMHDAOD@days?$AA@ DB 'days', 00H		; `string'
CONST	ENDS
;	COMDAT ??_C@_0BB@IDBMACFH@as_integer_ratio?$AA@
CONST	SEGMENT
??_C@_0BB@IDBMACFH@as_integer_ratio?$AA@ DB 'as_integer_ratio', 00H ; `string'
CONST	ENDS
;	COMDAT ??_C@_0M@HIOPEIIP@struct_time?$AA@
CONST	SEGMENT
??_C@_0M@HIOPEIIP@struct_time?$AA@ DB 'struct_time', 00H ; `string'
CONST	ENDS
;	COMDAT ??_C@_04CLCEDBPF@time?$AA@
CONST	SEGMENT
??_C@_04CLCEDBPF@time?$AA@ DB 'time', 00H		; `string'
CONST	ENDS
;	COMDAT ??_C@_08EPGBJPHJ@strftime?$AA@
CONST	SEGMENT
??_C@_08EPGBJPHJ@strftime?$AA@ DB 'strftime', 00H	; `string'
CONST	ENDS
;	COMDAT ??_C@_07CLEHDIEJ@replace?$AA@
CONST	SEGMENT
??_C@_07CLEHDIEJ@replace?$AA@ DB 'replace', 00H		; `string'
CONST	ENDS
;	COMDAT ??_C@_03MKABNOCG@Dec?$AA@
CONST	SEGMENT
??_C@_03MKABNOCG@Dec?$AA@ DB 'Dec', 00H			; `string'
CONST	ENDS
;	COMDAT ??_C@_03JPJOFNIA@Nov?$AA@
CONST	SEGMENT
??_C@_03JPJOFNIA@Nov?$AA@ DB 'Nov', 00H			; `string'
CONST	ENDS
;	COMDAT ??_C@_03BMAOKBAD@Oct?$AA@
CONST	SEGMENT
??_C@_03BMAOKBAD@Oct?$AA@ DB 'Oct', 00H			; `string'
CONST	ENDS
;	COMDAT ??_C@_03GGCAPAJC@Sep?$AA@
CONST	SEGMENT
??_C@_03GGCAPAJC@Sep?$AA@ DB 'Sep', 00H			; `string'
CONST	ENDS
;	COMDAT ??_C@_03IFJFEIGA@Aug?$AA@
CONST	SEGMENT
??_C@_03IFJFEIGA@Aug?$AA@ DB 'Aug', 00H			; `string'
CONST	ENDS
;	COMDAT ??_C@_03LBGABGKK@Jul?$AA@
CONST	SEGMENT
??_C@_03LBGABGKK@Jul?$AA@ DB 'Jul', 00H			; `string'
CONST	ENDS
;	COMDAT ??_C@_03IDFGHECI@Jun?$AA@
CONST	SEGMENT
??_C@_03IDFGHECI@Jun?$AA@ DB 'Jun', 00H			; `string'
CONST	ENDS
;	COMDAT ??_C@_03CNMDKL@May?$AA@
CONST	SEGMENT
??_C@_03CNMDKL@May?$AA@ DB 'May', 00H			; `string'
CONST	ENDS
;	COMDAT ??_C@_03LEOLGMJP@Apr?$AA@
CONST	SEGMENT
??_C@_03LEOLGMJP@Apr?$AA@ DB 'Apr', 00H			; `string'
CONST	ENDS
;	COMDAT ??_C@_03ODNJBKGA@Mar?$AA@
CONST	SEGMENT
??_C@_03ODNJBKGA@Mar?$AA@ DB 'Mar', 00H			; `string'
CONST	ENDS
;	COMDAT ??_C@_03HJBDCHOM@Feb?$AA@
CONST	SEGMENT
??_C@_03HJBDCHOM@Feb?$AA@ DB 'Feb', 00H			; `string'
CONST	ENDS
;	COMDAT ??_C@_03JIHJHPIE@Jan?$AA@
CONST	SEGMENT
??_C@_03JIHJHPIE@Jan?$AA@ DB 'Jan', 00H			; `string'
CONST	ENDS
;	COMDAT ??_C@_03KOEHGMDN@Sun?$AA@
CONST	SEGMENT
??_C@_03KOEHGMDN@Sun?$AA@ DB 'Sun', 00H			; `string'
CONST	ENDS
;	COMDAT ??_C@_03FEFJNEK@Sat?$AA@
CONST	SEGMENT
??_C@_03FEFJNEK@Sat?$AA@ DB 'Sat', 00H			; `string'
CONST	ENDS
;	COMDAT ??_C@_03IDIOELNC@Fri?$AA@
CONST	SEGMENT
??_C@_03IDIOELNC@Fri?$AA@ DB 'Fri', 00H			; `string'
CONST	ENDS
;	COMDAT ??_C@_03IOFIKPDN@Thu?$AA@
CONST	SEGMENT
??_C@_03IOFIKPDN@Thu?$AA@ DB 'Thu', 00H			; `string'
CONST	ENDS
;	COMDAT ??_C@_03MHOMLAJA@Wed?$AA@
CONST	SEGMENT
??_C@_03MHOMLAJA@Wed?$AA@ DB 'Wed', 00H			; `string'
CONST	ENDS
;	COMDAT ??_C@_03NAGEINEP@Tue?$AA@
CONST	SEGMENT
??_C@_03NAGEINEP@Tue?$AA@ DB 'Tue', 00H			; `string'
CONST	ENDS
;	COMDAT ??_C@_03PDAGKDH@Mon?$AA@
CONST	SEGMENT
??_C@_03PDAGKDH@Mon?$AA@ DB 'Mon', 00H			; `string'
CONST	ENDS
_TLS	SEGMENT
?PyId_fromutc@?1??datetime_astimezone@@9@9 DQ 0000000000000000H ; `datetime_astimezone'::`2'::PyId_fromutc
	DQ	FLAT:??_C@_07COGHOOJN@fromutc?$AA@
	DQ	0000000000000000H
?PyId_isoformat@?1??datetime_str@@9@9 DQ 0000000000000000H ; `datetime_str'::`2'::PyId_isoformat
	DQ	FLAT:??_C@_09KILOLAPA@isoformat?$AA@
	DQ	0000000000000000H
?PyId__strptime_datetime@?1??datetime_strptime@@9@9 DQ 0000000000000000H ; `datetime_strptime'::`2'::PyId__strptime_datetime
	DQ	FLAT:??_C@_0BD@LIAHNOMG@_strptime_datetime?$AA@
	DQ	0000000000000000H
?PyId_fromutc@?2??datetime_fromtimestamp@@9@9 DQ 0000000000000000H ; `datetime_fromtimestamp'::`3'::PyId_fromutc
	DQ	FLAT:??_C@_07COGHOOJN@fromutc?$AA@
	DQ	0000000000000000H
?PyId_fromutc@?2??datetime_now@@9@9 DQ 0000000000000000H ; `datetime_now'::`3'::PyId_fromutc
	DQ	FLAT:??_C@_07COGHOOJN@fromutc?$AA@
	DQ	0000000000000000H
?PyId_isoformat@?1??time_str@@9@9 DQ 0000000000000000H	; `time_str'::`2'::PyId_isoformat
	DQ	FLAT:??_C@_09KILOLAPA@isoformat?$AA@
	DQ	0000000000000000H
?PyId___getstate__@?1??tzinfo_reduce@@9@9 DQ 0000000000000000H ; `tzinfo_reduce'::`2'::PyId___getstate__
	DQ	FLAT:??_C@_0N@NAMJJHIO@__getstate__?$AA@
	DQ	0000000000000000H
?PyId___getinitargs__@?1??tzinfo_reduce@@9@9 DQ 0000000000000000H ; `tzinfo_reduce'::`2'::PyId___getinitargs__
	DQ	FLAT:??_C@_0BA@NHLJJDN@__getinitargs__?$AA@
	DQ	0000000000000000H
?PyId_strftime@?1??date_format@@9@9 DQ 0000000000000000H ; `date_format'::`2'::PyId_strftime
	DQ	FLAT:??_C@_08EPGBJPHJ@strftime?$AA@
	DQ	0000000000000000H
?PyId_timetuple@?1??date_strftime@@9@9 DQ 0000000000000000H ; `date_strftime'::`2'::PyId_timetuple
	DQ	FLAT:??_C@_09BCIOHOOO@timetuple?$AA@
	DQ	0000000000000000H
?PyId_isoformat@?1??date_str@@9@9 DQ 0000000000000000H	; `date_str'::`2'::PyId_isoformat
	DQ	FLAT:??_C@_09KILOLAPA@isoformat?$AA@
	DQ	0000000000000000H
?PyId_fromtimestamp@?1??date_today@@9@9 DQ 0000000000000000H ; `date_today'::`2'::PyId_fromtimestamp
	DQ	FLAT:??_C@_0O@LBDJOPJI@fromtimestamp?$AA@
	DQ	0000000000000000H
?PyId_as_integer_ratio@?1??truedivide_timedelta_float@@9@9 DQ 0000000000000000H ; `truedivide_timedelta_float'::`2'::PyId_as_integer_ratio
	DQ	FLAT:??_C@_0BB@IDBMACFH@as_integer_ratio?$AA@
	DQ	0000000000000000H
?PyId_as_integer_ratio@?1??multiply_float_timedelta@@9@9 DQ 0000000000000000H ; `multiply_float_timedelta'::`2'::PyId_as_integer_ratio
	DQ	FLAT:??_C@_0BB@IDBMACFH@as_integer_ratio?$AA@
	DQ	0000000000000000H
?PyId_struct_time@?2??build_struct_time@@9@9 DQ 0000000000000000H ; `build_struct_time'::`3'::PyId_struct_time
	DQ	FLAT:??_C@_0M@HIOPEIIP@struct_time?$AA@
	DQ	0000000000000000H
?PyId_time@?2??time_time@@9@9 DQ 0000000000000000H	; `time_time'::`3'::PyId_time
	DQ	FLAT:??_C@_04CLCEDBPF@time?$AA@
	DQ	0000000000000000H
?PyId_strftime@?BC@??wrap_strftime@@9@9 DQ 0000000000000000H ; `wrap_strftime'::`18'::PyId_strftime
	DQ	FLAT:??_C@_08EPGBJPHJ@strftime?$AA@
	DQ	0000000000000000H
?PyId_replace@?1??make_Zreplacement@@9@9 DQ 0000000000000000H ; `make_Zreplacement'::`2'::PyId_replace
	DQ	FLAT:??_C@_07CLEHDIEJ@replace?$AA@
	DQ	0000000000000000H
?PyId_tzname@?1??call_tzname@@9@9 DQ 0000000000000000H	; `call_tzname'::`2'::PyId_tzname
	DQ	FLAT:??_C@_06CNBAGEMF@tzname?$AA@
	DQ	0000000000000000H
_TLS	ENDS
;	COMDAT ??_C@_06CNBAGEMF@tzname?$AA@
CONST	SEGMENT
??_C@_06CNBAGEMF@tzname?$AA@ DB 'tzname', 00H		; `string'
CONST	ENDS
_DATA	SEGMENT
_days_in_month DD 00H
	DD	01fH
	DD	01cH
	DD	01fH
	DD	01eH
	DD	01fH
	DD	01eH
	DD	01fH
	DD	01fH
	DD	01eH
	DD	01fH
	DD	01eH
	DD	01fH
	ORG $+4
_days_before_month DD 00H
	DD	00H
	DD	01fH
	DD	03bH
	DD	05aH
	DD	078H
	DD	097H
	DD	0b5H
	DD	0d4H
	DD	0f3H
	DD	0111H
	DD	0130H
	DD	014eH
	ORG $+4
?DayNames@?1??format_ctime@@9@9 DQ FLAT:??_C@_03PDAGKDH@Mon?$AA@ ; `format_ctime'::`2'::DayNames
	DQ	FLAT:??_C@_03NAGEINEP@Tue?$AA@
	DQ	FLAT:??_C@_03MHOMLAJA@Wed?$AA@
	DQ	FLAT:??_C@_03IOFIKPDN@Thu?$AA@
	DQ	FLAT:??_C@_03IDIOELNC@Fri?$AA@
	DQ	FLAT:??_C@_03FEFJNEK@Sat?$AA@
	DQ	FLAT:??_C@_03KOEHGMDN@Sun?$AA@
	ORG $+8
?MonthNames@?1??format_ctime@@9@9 DQ FLAT:??_C@_03JIHJHPIE@Jan?$AA@ ; `format_ctime'::`2'::MonthNames
	DQ	FLAT:??_C@_03HJBDCHOM@Feb?$AA@
	DQ	FLAT:??_C@_03ODNJBKGA@Mar?$AA@
	DQ	FLAT:??_C@_03LEOLGMJP@Apr?$AA@
	DQ	FLAT:??_C@_03CNMDKL@May?$AA@
	DQ	FLAT:??_C@_03IDFGHECI@Jun?$AA@
	DQ	FLAT:??_C@_03LBGABGKK@Jul?$AA@
	DQ	FLAT:??_C@_03IFJFEIGA@Aug?$AA@
	DQ	FLAT:??_C@_03GGCAPAJC@Sep?$AA@
	DQ	FLAT:??_C@_03BMAOKBAD@Oct?$AA@
	DQ	FLAT:??_C@_03JPJOFNIA@Nov?$AA@
	DQ	FLAT:??_C@_03MKABNOCG@Dec?$AA@
?keywords@?1??delta_new@@9@9 DQ FLAT:??_C@_04IJMHDAOD@days?$AA@ ; `delta_new'::`2'::keywords
	DQ	FLAT:??_C@_07GELLIBDG@seconds?$AA@
	DQ	FLAT:??_C@_0N@EKJJBPIN@microseconds?$AA@
	DQ	FLAT:??_C@_0N@JDBMCDJK@milliseconds?$AA@
	DQ	FLAT:??_C@_07GCICIJGK@minutes?$AA@
	DQ	FLAT:??_C@_05LOHOPFFC@hours?$AA@
	DQ	FLAT:??_C@_05EFKAJCNN@weeks?$AA@
	DQ	0000000000000000H
delta_members DQ FLAT:??_C@_04IJMHDAOD@days?$AA@
	DD	01H
	ORG $+4
	DQ	0000000000000068H
	DD	01H
	ORG $+4
	DQ	FLAT:??_C@_0BA@CFKEOBG@Number?5of?5days?4?$AA@
	DQ	FLAT:??_C@_07GELLIBDG@seconds?$AA@
	DD	01H
	ORG $+4
	DQ	000000000000006cH
	DD	01H
	ORG $+4
	DQ	FLAT:??_C@_0CO@EIOKLPFO@Number?5of?5seconds?5?$CI?$DO?$DN?50?5and?5less@
	DQ	FLAT:??_C@_0N@EKJJBPIN@microseconds?$AA@
	DD	01H
	ORG $+4
	DQ	0000000000000070H
	DD	01H
	ORG $+4
	DQ	FLAT:??_C@_0DG@IHOJEBBG@Number?5of?5microseconds?5?$CI?$DO?$DN?50?5and@
	DQ	0000000000000000H
	ORG $+32
delta_methods DQ FLAT:??_C@_0O@NKEEINIH@total_seconds?$AA@
	DQ	FLAT:delta_total_seconds
	DD	04H
	ORG $+4
	DQ	FLAT:??_C@_0BP@FCABBAIC@Total?5seconds?5in?5the?5duration?4?$AA@
	DQ	FLAT:??_C@_0L@NNMACJIG@__reduce__?$AA@
	DQ	FLAT:delta_reduce
	DD	04H
	ORG $+4
	DQ	FLAT:??_C@_0BN@JMEDOFNE@__reduce__?$CI?$CJ?5?9?$DO?5?$CIcls?0?5state?$CJ?$AA@
	DQ	0000000000000000H
	DQ	0000000000000000H
	ORG $+16
delta_doc DB	'Difference between two datetime values.', 00H
	ORG $+8
delta_as_number DQ FLAT:delta_add
	DQ	FLAT:delta_subtract
	DQ	FLAT:delta_multiply
	DQ	FLAT:delta_remainder
	DQ	FLAT:delta_divmod
	DQ	0000000000000000H
	DQ	FLAT:delta_negative
	DQ	FLAT:delta_positive
	DQ	FLAT:delta_abs
	DQ	FLAT:delta_bool
	DQ	0000000000000000H
	DQ	0000000000000000H
	DQ	0000000000000000H
	DQ	0000000000000000H
	DQ	0000000000000000H
	DQ	0000000000000000H
	DQ	0000000000000000H
	DQ	0000000000000000H
	DQ	0000000000000000H
	DQ	0000000000000000H
	DQ	0000000000000000H
	DQ	0000000000000000H
	DQ	0000000000000000H
	DQ	0000000000000000H
	DQ	0000000000000000H
	DQ	0000000000000000H
	DQ	0000000000000000H
	DQ	0000000000000000H
	DQ	0000000000000000H
	DQ	FLAT:delta_divide
	DQ	FLAT:delta_truedivide
	DQ	0000000000000000H
	DQ	0000000000000000H
	ORG $+8
PyDateTime_DeltaType DQ dead1234beef5678H
	DQ	dead1234beef5678H
	DQ	0000000000000000H
	ORG $+8
	DQ	0000000000000001H
	DQ	0000000000000000H
	DQ	0000000000000000H
	DQ	0000000000000000H
	DQ	dead1234beef5678H
	DQ	dead1234beef5678H
	DQ	0000000000000001H
	DQ	0000000000000000H
	DQ	0000000000000000H
	ORG $+8
	DQ	FLAT:??_C@_0BD@HJBKAPAI@datetime?4timedelta?$AA@
	DQ	0000000000000080H
	DQ	0000000000000000H
	DQ	0000000000000000H
	DQ	0000000000000000H
	DQ	0000000000000000H
	DQ	0000000000000000H
	DQ	0000000000000000H
	DQ	FLAT:delta_repr
	DQ	FLAT:delta_as_number
	DQ	0000000000000000H
	DQ	0000000000000000H
	DQ	FLAT:delta_hash
	DQ	0000000000000000H
	DQ	FLAT:delta_str
	DQ	FLAT:PyObject_GenericGetAttr
	DQ	0000000000000000H
	DQ	0000000000000000H
	DD	040400H
	ORG $+4
	DQ	FLAT:delta_doc
	DQ	0000000000000000H
	DQ	0000000000000000H
	DQ	FLAT:delta_richcompare
	DQ	0000000000000000H
	DQ	0000000000000000H
	DQ	0000000000000000H
	DQ	FLAT:delta_methods
	DQ	FLAT:delta_members
	DQ	0000000000000000H
	DQ	0000000000000000H
	DQ	0000000000000000H
	DQ	0000000000000000H
	DQ	0000000000000000H
	DQ	0000000000000000H
	DQ	0000000000000000H
	DQ	0000000000000000H
	DQ	FLAT:delta_new
	DQ	0000000000000000H
	ORG $+64
date_getset DQ	FLAT:??_C@_04JFPLDHAO@year?$AA@
	DQ	FLAT:date_year
	ORG $+24
	DQ	FLAT:??_C@_05MEBAADFH@month?$AA@
	DQ	FLAT:date_month
	ORG $+24
	DQ	FLAT:??_C@_03NNBHCDBP@day?$AA@
	DQ	FLAT:date_day
	ORG $+24
	DQ	0000000000000000H
	ORG $+32
date_kws DQ	FLAT:??_C@_04JFPLDHAO@year?$AA@
	DQ	FLAT:??_C@_05MEBAADFH@month?$AA@
	DQ	FLAT:??_C@_03NNBHCDBP@day?$AA@
	DQ	0000000000000000H
?keywords@?1??date_strftime@@9@9 DQ FLAT:??_C@_06DLEPGFEF@format?$AA@ ; `date_strftime'::`2'::keywords
	DQ	0000000000000000H
date_methods DQ	FLAT:??_C@_0O@LBDJOPJI@fromtimestamp?$AA@
	DQ	FLAT:date_fromtimestamp
	DD	011H
	ORG $+4
	DQ	FLAT:??_C@_0ED@ODEPENLP@timestamp?5?9?$DO?5local?5date?5from?5a?5P@
	DQ	FLAT:??_C@_0M@EGBEAMKN@fromordinal?$AA@
	DQ	FLAT:date_fromordinal
	DD	011H
	ORG $+4
	DQ	FLAT:??_C@_0DM@HOLBBDCF@int?5?9?$DO?5date?5corresponding?5to?5a?5p@
	DQ	FLAT:??_C@_05MGEAPCOL@today?$AA@
	DQ	FLAT:date_today
	DD	014H
	ORG $+4
	DQ	FLAT:??_C@_0EO@GEOOIIOE@Current?5date?5or?5datetime?3?5?5same?5@
	DQ	FLAT:??_C@_05NCKEBKLP@ctime?$AA@
	DQ	FLAT:date_ctime
	DD	04H
	ORG $+4
	DQ	FLAT:??_C@_0BN@GEPPPCNC@Return?5ctime?$CI?$CJ?5style?5string?4?$AA@
	DQ	FLAT:??_C@_08EPGBJPHJ@strftime?$AA@
	DQ	FLAT:date_strftime
	DD	03H
	ORG $+4
	DQ	FLAT:??_C@_0CD@LOCOCHNH@format?5?9?$DO?5strftime?$CI?$CJ?5style?5strin@
	DQ	FLAT:??_C@_0L@MEMCGMKL@__format__?$AA@
	DQ	FLAT:date_format
	DD	01H
	ORG $+4
	DQ	FLAT:??_C@_0BM@NAMMOMBA@Formats?5self?5with?5strftime?4?$AA@
	DQ	FLAT:??_C@_09BCIOHOOO@timetuple?$AA@
	DQ	FLAT:date_timetuple
	DD	04H
	ORG $+4
	DQ	FLAT:??_C@_0DF@CKKAPDOD@Return?5time?5tuple?0?5compatible?5wi@
	DQ	FLAT:??_C@_0M@NNCHLCCB@isocalendar?$AA@
	DQ	FLAT:date_isocalendar
	DD	04H
	ORG $+4
	DQ	FLAT:??_C@_0EA@IKJAEJCA@Return?5a?53?9tuple?5containing?5ISO?5@
	DQ	FLAT:??_C@_09KILOLAPA@isoformat?$AA@
	DQ	FLAT:date_isoformat
	DD	04H
	ORG $+4
	DQ	FLAT:??_C@_0CO@IHBEGEBB@Return?5string?5in?5ISO?58601?5format@
	DQ	FLAT:??_C@_0L@OLCJLGMC@isoweekday?$AA@
	DQ	FLAT:date_isoweekday
	DD	04H
	ORG $+4
	DQ	FLAT:??_C@_0FA@KMKAPEAA@Return?5the?5day?5of?5the?5week?5repre@
	DQ	FLAT:??_C@_09EONCNCPH@toordinal?$AA@
	DQ	FLAT:date_toordinal
	DD	04H
	ORG $+4
	DQ	FLAT:??_C@_0ED@NMEOEPCF@Return?5proleptic?5Gregorian?5ordin@
	DQ	FLAT:??_C@_07FALBAABE@weekday?$AA@
	DQ	FLAT:date_weekday
	DD	04H
	ORG $+4
	DQ	FLAT:??_C@_0FA@FKOJHDKA@Return?5the?5day?5of?5the?5week?5repre@
	DQ	FLAT:??_C@_07CLEHDIEJ@replace?$AA@
	DQ	FLAT:date_replace
	DD	03H
	ORG $+4
	DQ	FLAT:??_C@_0CH@GIJAIIMK@Return?5date?5with?5new?5specified?5f@
	DQ	FLAT:??_C@_0L@NNMACJIG@__reduce__?$AA@
	DQ	FLAT:date_reduce
	DD	04H
	ORG $+4
	DQ	FLAT:??_C@_0BN@JMEDOFNE@__reduce__?$CI?$CJ?5?9?$DO?5?$CIcls?0?5state?$CJ?$AA@
	DQ	0000000000000000H
	DQ	0000000000000000H
	ORG $+16
date_doc DB	'date(year, month, day) --> date object', 00H
	ORG $+9
date_as_number DQ FLAT:date_add
	DQ	FLAT:date_subtract
	DQ	0000000000000000H
	DQ	0000000000000000H
	DQ	0000000000000000H
	DQ	0000000000000000H
	DQ	0000000000000000H
	DQ	0000000000000000H
	DQ	0000000000000000H
	DQ	0000000000000000H
	ORG $+192
PyDateTime_DateType DQ dead1234beef5678H
	DQ	dead1234beef5678H
	DQ	0000000000000000H
	ORG $+8
	DQ	0000000000000001H
	DQ	0000000000000000H
	DQ	0000000000000000H
	DQ	0000000000000000H
	DQ	dead1234beef5678H
	DQ	dead1234beef5678H
	DQ	0000000000000001H
	DQ	0000000000000000H
	DQ	0000000000000000H
	ORG $+8
	DQ	FLAT:??_C@_0O@GKGBLLNG@datetime?4date?$AA@
	DQ	0000000000000070H
	DQ	0000000000000000H
	DQ	0000000000000000H
	DQ	0000000000000000H
	DQ	0000000000000000H
	DQ	0000000000000000H
	DQ	0000000000000000H
	DQ	FLAT:date_repr
	DQ	FLAT:date_as_number
	DQ	0000000000000000H
	DQ	0000000000000000H
	DQ	FLAT:date_hash
	DQ	0000000000000000H
	DQ	FLAT:date_str
	DQ	FLAT:PyObject_GenericGetAttr
	DQ	0000000000000000H
	DQ	0000000000000000H
	DD	040400H
	ORG $+4
	DQ	FLAT:date_doc
	DQ	0000000000000000H
	DQ	0000000000000000H
	DQ	FLAT:date_richcompare
	DQ	0000000000000000H
	DQ	0000000000000000H
	DQ	0000000000000000H
	DQ	FLAT:date_methods
	DQ	0000000000000000H
	DQ	FLAT:date_getset
	DQ	0000000000000000H
	DQ	0000000000000000H
	DQ	0000000000000000H
	DQ	0000000000000000H
	DQ	0000000000000000H
	DQ	0000000000000000H
	DQ	0000000000000000H
	DQ	FLAT:date_new
	DQ	0000000000000000H
	ORG $+64
tzinfo_methods DQ FLAT:??_C@_06CNBAGEMF@tzname?$AA@
	DQ	FLAT:tzinfo_tzname
	DD	08H
	ORG $+4
	DQ	FLAT:??_C@_0CG@ECFLPKO@datetime?5?9?$DO?5string?5name?5of?5time?5@
	DQ	FLAT:??_C@_09DGNKAEDJ@utcoffset?$AA@
	DQ	FLAT:tzinfo_utcoffset
	DD	08H
	ORG $+4
	DQ	FLAT:??_C@_0FG@KHADFGHJ@datetime?5?9?$DO?5timedelta?5showing?5of@
	DQ	FLAT:??_C@_03HHBLCKEM@dst?$AA@
	DQ	FLAT:tzinfo_dst
	DD	08H
	ORG $+4
	DQ	FLAT:??_C@_0CP@CILGLPLI@datetime?5?9?$DO?5DST?5offset?5in?5minute@
	DQ	FLAT:??_C@_07COGHOOJN@fromutc?$AA@
	DQ	FLAT:tzinfo_fromutc
	DD	08H
	ORG $+4
	DQ	FLAT:??_C@_0CL@PFDHOCLO@datetime?5in?5UTC?5?9?$DO?5datetime?5in?5l@
	DQ	FLAT:??_C@_0L@NNMACJIG@__reduce__?$AA@
	DQ	FLAT:tzinfo_reduce
	DD	04H
	ORG $+4
	DQ	FLAT:??_C@_0BA@IKFFDJGA@?9?$DO?5?$CIcls?0?5state?$CJ?$AA@
	DQ	0000000000000000H
	DQ	0000000000000000H
	ORG $+16
tzinfo_doc DB	'Abstract base class for time zone info objects.', 00H
PyDateTime_TZInfoType DQ dead1234beef5678H
	DQ	dead1234beef5678H
	DQ	0000000000000000H
	ORG $+8
	DQ	0000000000000001H
	DQ	0000000000000000H
	DQ	0000000000000000H
	DQ	0000000000000000H
	DQ	dead1234beef5678H
	DQ	dead1234beef5678H
	DQ	0000000000000001H
	DQ	0000000000000000H
	DQ	0000000000000000H
	ORG $+8
	DQ	FLAT:??_C@_0BA@GEFABIKC@datetime?4tzinfo?$AA@
	DQ	0000000000000060H
	DQ	0000000000000000H
	DQ	0000000000000000H
	DQ	0000000000000000H
	DQ	0000000000000000H
	DQ	0000000000000000H
	DQ	0000000000000000H
	DQ	0000000000000000H
	DQ	0000000000000000H
	DQ	0000000000000000H
	DQ	0000000000000000H
	DQ	0000000000000000H
	DQ	0000000000000000H
	DQ	0000000000000000H
	DQ	FLAT:PyObject_GenericGetAttr
	DQ	0000000000000000H
	DQ	0000000000000000H
	DD	040400H
	ORG $+4
	DQ	FLAT:tzinfo_doc
	DQ	0000000000000000H
	DQ	0000000000000000H
	DQ	0000000000000000H
	DQ	0000000000000000H
	DQ	0000000000000000H
	DQ	0000000000000000H
	DQ	FLAT:tzinfo_methods
	DQ	0000000000000000H
	DQ	0000000000000000H
	DQ	0000000000000000H
	DQ	0000000000000000H
	DQ	0000000000000000H
	DQ	0000000000000000H
	DQ	0000000000000000H
	DQ	0000000000000000H
	DQ	0000000000000000H
	DQ	FLAT:PyType_GenericNew
	DQ	0000000000000000H
	ORG $+64
timezone_kws DQ	FLAT:??_C@_06KLHHMIGM@offset?$AA@
	DQ	FLAT:??_C@_04MEMAJGDJ@name?$AA@
	DQ	0000000000000000H
	ORG $+8
timezone_methods DQ FLAT:??_C@_06CNBAGEMF@tzname?$AA@
	DQ	FLAT:timezone_tzname
	DD	08H
	ORG $+4
	DQ	FLAT:??_C@_0GP@EEKHNJLP@If?5name?5is?5specified?5when?5timezo@
	DQ	FLAT:??_C@_09DGNKAEDJ@utcoffset?$AA@
	DQ	FLAT:timezone_utcoffset
	DD	08H
	ORG $+4
	DQ	FLAT:??_C@_0BF@NDKIKJK@Return?5fixed?5offset?4?$AA@
	DQ	FLAT:??_C@_03HHBLCKEM@dst?$AA@
	DQ	FLAT:timezone_dst
	DD	08H
	ORG $+4
	DQ	FLAT:??_C@_0N@BDGMCEOD@Return?5None?4?$AA@
	DQ	FLAT:??_C@_07COGHOOJN@fromutc?$AA@
	DQ	FLAT:timezone_fromutc
	DD	08H
	ORG $+4
	DQ	FLAT:??_C@_0CL@PFDHOCLO@datetime?5in?5UTC?5?9?$DO?5datetime?5in?5l@
	DQ	FLAT:??_C@_0BA@NHLJJDN@__getinitargs__?$AA@
	DQ	FLAT:timezone_getinitargs
	DD	04H
	ORG $+4
	DQ	FLAT:??_C@_0P@BIOPACEL@pickle?5support?$AA@
	DQ	0000000000000000H
	DQ	0000000000000000H
	ORG $+16
timezone_doc DB	'Fixed offset from UTC implementation of tzinfo.', 00H
PyDateTime_TimeZoneType DQ dead1234beef5678H
	DQ	dead1234beef5678H
	DQ	0000000000000000H
	ORG $+8
	DQ	0000000000000001H
	DQ	0000000000000000H
	DQ	0000000000000000H
	DQ	0000000000000000H
	DQ	dead1234beef5678H
	DQ	dead1234beef5678H
	DQ	0000000000000001H
	DQ	0000000000000000H
	DQ	0000000000000000H
	ORG $+8
	DQ	FLAT:??_C@_0BC@BMDCMDDO@datetime?4timezone?$AA@
	DQ	0000000000000070H
	DQ	0000000000000000H
	DQ	FLAT:timezone_dealloc
	DQ	0000000000000000H
	DQ	0000000000000000H
	DQ	0000000000000000H
	DQ	0000000000000000H
	DQ	FLAT:timezone_repr
	DQ	0000000000000000H
	DQ	0000000000000000H
	DQ	0000000000000000H
	DQ	FLAT:timezone_hash
	DQ	0000000000000000H
	DQ	FLAT:timezone_str
	DQ	0000000000000000H
	DQ	0000000000000000H
	DQ	0000000000000000H
	DD	040000H
	ORG $+4
	DQ	FLAT:timezone_doc
	DQ	0000000000000000H
	DQ	0000000000000000H
	DQ	FLAT:timezone_richcompare
	DQ	0000000000000000H
	DQ	0000000000000000H
	DQ	0000000000000000H
	DQ	FLAT:timezone_methods
	DQ	0000000000000000H
	DQ	0000000000000000H
	DQ	FLAT:PyDateTime_TZInfoType
	DQ	0000000000000000H
	DQ	0000000000000000H
	DQ	0000000000000000H
	DQ	0000000000000000H
	DQ	0000000000000000H
	DQ	0000000000000000H
	DQ	FLAT:timezone_new
	ORG $+72
time_getset DQ	FLAT:??_C@_04LMOJGCPE@hour?$AA@
	DQ	FLAT:time_hour
	ORG $+24
	DQ	FLAT:??_C@_06JGJIJFNK@minute?$AA@
	DQ	FLAT:time_minute
	ORG $+24
	DQ	FLAT:??_C@_06BJCFNGJP@second?$AA@
	DQ	FLAT:py_time_second
	ORG $+24
	DQ	FLAT:??_C@_0M@IPLGOMOC@microsecond?$AA@
	DQ	FLAT:time_microsecond
	ORG $+24
	DQ	FLAT:??_C@_06DBOJKPOI@tzinfo?$AA@
	DQ	FLAT:time_tzinfo
	ORG $+24
	DQ	0000000000000000H
	ORG $+32
time_kws DQ	FLAT:??_C@_04LMOJGCPE@hour?$AA@
	DQ	FLAT:??_C@_06JGJIJFNK@minute?$AA@
	DQ	FLAT:??_C@_06BJCFNGJP@second?$AA@
	DQ	FLAT:??_C@_0M@IPLGOMOC@microsecond?$AA@
	DQ	FLAT:??_C@_06DBOJKPOI@tzinfo?$AA@
	DQ	0000000000000000H
?keywords@?1??time_strftime@@9@9 DQ FLAT:??_C@_06DLEPGFEF@format?$AA@ ; `time_strftime'::`2'::keywords
	DQ	0000000000000000H
time_methods DQ	FLAT:??_C@_09KILOLAPA@isoformat?$AA@
	DQ	FLAT:time_isoformat
	DD	04H
	ORG $+4
	DQ	FLAT:??_C@_0DN@HPEMOKB@Return?5string?5in?5ISO?58601?5format@
	DQ	FLAT:??_C@_08EPGBJPHJ@strftime?$AA@
	DQ	FLAT:time_strftime
	DD	03H
	ORG $+4
	DQ	FLAT:??_C@_0CD@LOCOCHNH@format?5?9?$DO?5strftime?$CI?$CJ?5style?5strin@
	DQ	FLAT:??_C@_0L@MEMCGMKL@__format__?$AA@
	DQ	FLAT:date_format
	DD	01H
	ORG $+4
	DQ	FLAT:??_C@_0BM@NAMMOMBA@Formats?5self?5with?5strftime?4?$AA@
	DQ	FLAT:??_C@_09DGNKAEDJ@utcoffset?$AA@
	DQ	FLAT:time_utcoffset
	DD	04H
	ORG $+4
	DQ	FLAT:??_C@_0CE@LHGMAHOI@Return?5self?4tzinfo?4utcoffset?$CIsel@
	DQ	FLAT:??_C@_06CNBAGEMF@tzname?$AA@
	DQ	FLAT:time_tzname
	DD	04H
	ORG $+4
	DQ	FLAT:??_C@_0CB@BKFJMHAP@Return?5self?4tzinfo?4tzname?$CIself?$CJ?4@
	DQ	FLAT:??_C@_03HHBLCKEM@dst?$AA@
	DQ	FLAT:time_dst
	DD	04H
	ORG $+4
	DQ	FLAT:??_C@_0BO@PCCLEJIH@Return?5self?4tzinfo?4dst?$CIself?$CJ?4?$AA@
	DQ	FLAT:??_C@_07CLEHDIEJ@replace?$AA@
	DQ	FLAT:time_replace
	DD	03H
	ORG $+4
	DQ	FLAT:??_C@_0CH@HGAMGBKA@Return?5time?5with?5new?5specified?5f@
	DQ	FLAT:??_C@_0L@NNMACJIG@__reduce__?$AA@
	DQ	FLAT:time_reduce
	DD	04H
	ORG $+4
	DQ	FLAT:??_C@_0BN@JMEDOFNE@__reduce__?$CI?$CJ?5?9?$DO?5?$CIcls?0?5state?$CJ?$AA@
	DQ	0000000000000000H
	DQ	0000000000000000H
	ORG $+16
time_doc DB	'time([hour[, minute[, second[, microsecond[, tzinfo]]]]]'
	DB	') --> a time object', 0aH, 0aH, 'All arguments are optional. '
	DB	'tzinfo may be None, or an instance of', 0aH, 'a tzinfo subcla'
	DB	'ss. The remaining arguments may be ints.', 0aH, 00H
	ORG $+8
time_as_number DQ 0000000000000000H
	DQ	0000000000000000H
	DQ	0000000000000000H
	DQ	0000000000000000H
	DQ	0000000000000000H
	DQ	0000000000000000H
	DQ	0000000000000000H
	DQ	0000000000000000H
	DQ	0000000000000000H
	DQ	FLAT:time_bool
	ORG $+192
PyDateTime_TimeType DQ dead1234beef5678H
	DQ	dead1234beef5678H
	DQ	0000000000000000H
	ORG $+8
	DQ	0000000000000001H
	DQ	0000000000000000H
	DQ	0000000000000000H
	DQ	0000000000000000H
	DQ	dead1234beef5678H
	DQ	dead1234beef5678H
	DQ	0000000000000001H
	DQ	0000000000000000H
	DQ	0000000000000000H
	ORG $+8
	DQ	FLAT:??_C@_0O@NMMCJMEE@datetime?4time?$AA@
	DQ	0000000000000080H
	DQ	0000000000000000H
	DQ	FLAT:time_dealloc
	DQ	0000000000000000H
	DQ	0000000000000000H
	DQ	0000000000000000H
	DQ	0000000000000000H
	DQ	FLAT:time_repr
	DQ	FLAT:time_as_number
	DQ	0000000000000000H
	DQ	0000000000000000H
	DQ	FLAT:time_hash
	DQ	0000000000000000H
	DQ	FLAT:time_str
	DQ	FLAT:PyObject_GenericGetAttr
	DQ	0000000000000000H
	DQ	0000000000000000H
	DD	040400H
	ORG $+4
	DQ	FLAT:time_doc
	DQ	0000000000000000H
	DQ	0000000000000000H
	DQ	FLAT:time_richcompare
	DQ	0000000000000000H
	DQ	0000000000000000H
	DQ	0000000000000000H
	DQ	FLAT:time_methods
	DQ	0000000000000000H
	DQ	FLAT:time_getset
	DQ	0000000000000000H
	DQ	0000000000000000H
	DQ	0000000000000000H
	DQ	0000000000000000H
	DQ	0000000000000000H
	DQ	0000000000000000H
	DQ	FLAT:time_alloc
	DQ	FLAT:time_new
	DQ	0000000000000000H
	ORG $+64
datetime_getset DQ FLAT:??_C@_04LMOJGCPE@hour?$AA@
	DQ	FLAT:datetime_hour
	ORG $+24
	DQ	FLAT:??_C@_06JGJIJFNK@minute?$AA@
	DQ	FLAT:datetime_minute
	ORG $+24
	DQ	FLAT:??_C@_06BJCFNGJP@second?$AA@
	DQ	FLAT:datetime_second
	ORG $+24
	DQ	FLAT:??_C@_0M@IPLGOMOC@microsecond?$AA@
	DQ	FLAT:datetime_microsecond
	ORG $+24
	DQ	FLAT:??_C@_06DBOJKPOI@tzinfo?$AA@
	DQ	FLAT:datetime_tzinfo
	ORG $+24
	DQ	0000000000000000H
	ORG $+32
datetime_kws DQ	FLAT:??_C@_04JFPLDHAO@year?$AA@
	DQ	FLAT:??_C@_05MEBAADFH@month?$AA@
	DQ	FLAT:??_C@_03NNBHCDBP@day?$AA@
	DQ	FLAT:??_C@_04LMOJGCPE@hour?$AA@
	DQ	FLAT:??_C@_06JGJIJFNK@minute?$AA@
	DQ	FLAT:??_C@_06BJCFNGJP@second?$AA@
	DQ	FLAT:??_C@_0M@IPLGOMOC@microsecond?$AA@
	DQ	FLAT:??_C@_06DBOJKPOI@tzinfo?$AA@
	DQ	0000000000000000H
?keywords@?1??datetime_now@@9@9 DQ FLAT:??_C@_02IGJGHHBN@tz?$AA@ ; `datetime_now'::`2'::keywords
	DQ	0000000000000000H
?keywords@?1??datetime_fromtimestamp@@9@9 DQ FLAT:??_C@_09OMDJNLDP@timestamp?$AA@ ; `datetime_fromtimestamp'::`2'::keywords
	DQ	FLAT:??_C@_02IGJGHHBN@tz?$AA@
	DQ	0000000000000000H
?keywords@?1??datetime_combine@@9@9 DQ FLAT:??_C@_04JNIHBGGH@date?$AA@ ; `datetime_combine'::`2'::keywords
	DQ	FLAT:??_C@_04CLCEDBPF@time?$AA@
	DQ	0000000000000000H
?keywords@?1??datetime_isoformat@@9@9 DQ FLAT:??_C@_03MGBCFPKM@sep?$AA@ ; `datetime_isoformat'::`2'::keywords
	DQ	0000000000000000H
?keywords@?1??datetime_astimezone@@9@9 DQ FLAT:??_C@_02IGJGHHBN@tz?$AA@ ; `datetime_astimezone'::`2'::keywords
	DQ	0000000000000000H
	ORG $+8
datetime_methods DQ FLAT:??_C@_03CGLHMDPP@now?$AA@
	DQ	FLAT:datetime_now
	DD	013H
	ORG $+4
	DQ	FLAT:??_C@_0DD@JPPGJGOI@?$FLtz?$FN?5?9?$DO?5new?5datetime?5with?5tz?8s?5l@
	DQ	FLAT:??_C@_06GKOOHOFL@utcnow?$AA@
	DQ	FLAT:datetime_utcnow
	DD	014H
	ORG $+4
	DQ	FLAT:??_C@_0DF@OGGJLCPO@Return?5a?5new?5datetime?5representi@
	DQ	FLAT:??_C@_0O@LBDJOPJI@fromtimestamp?$AA@
	DQ	FLAT:datetime_fromtimestamp
	DD	013H
	ORG $+4
	DQ	FLAT:??_C@_0DJ@MJHLLJLE@timestamp?$FL?0?5tz?$FN?5?9?$DO?5tz?8s?5local?5ti@
	DQ	FLAT:??_C@_0BB@GBGDJFBJ@utcfromtimestamp?$AA@
	DQ	FLAT:datetime_utcfromtimestamp
	DD	011H
	ORG $+4
	DQ	FLAT:??_C@_0EF@KHGJAJAA@timestamp?5?9?$DO?5UTC?5datetime?5from?5a@
	DQ	FLAT:??_C@_08JKOOHOPP@strptime?$AA@
	DQ	FLAT:datetime_strptime
	DD	011H
	ORG $+4
	DQ	FLAT:??_C@_0EM@OMBKPNCM@string?0?5format?5?9?$DO?5new?5datetime?5p@
	DQ	FLAT:??_C@_07PCDCECCK@combine?$AA@
	DQ	FLAT:datetime_combine
	DD	013H
	ORG $+4
	DQ	FLAT:??_C@_0DG@POLGFJIG@date?0?5time?5?9?$DO?5datetime?5with?5same@
	DQ	FLAT:??_C@_04JNIHBGGH@date?$AA@
	DQ	FLAT:datetime_getdate
	DD	04H
	ORG $+4
	DQ	FLAT:??_C@_0DC@LNOALPPA@Return?5date?5object?5with?5same?5yea@
	DQ	FLAT:??_C@_04CLCEDBPF@time?$AA@
	DQ	FLAT:datetime_gettime
	DD	04H
	ORG $+4
	DQ	FLAT:??_C@_0DI@BHDEBDDH@Return?5time?5object?5with?5same?5tim@
	DQ	FLAT:??_C@_06LODNGPBG@timetz?$AA@
	DQ	FLAT:datetime_gettimetz
	DD	04H
	ORG $+4
	DQ	FLAT:??_C@_0CO@LKCKICLJ@Return?5time?5object?5with?5same?5tim@
	DQ	FLAT:??_C@_05NCKEBKLP@ctime?$AA@
	DQ	FLAT:datetime_ctime
	DD	04H
	ORG $+4
	DQ	FLAT:??_C@_0BN@GEPPPCNC@Return?5ctime?$CI?$CJ?5style?5string?4?$AA@
	DQ	FLAT:??_C@_09BCIOHOOO@timetuple?$AA@
	DQ	FLAT:datetime_timetuple
	DD	04H
	ORG $+4
	DQ	FLAT:??_C@_0DF@CKKAPDOD@Return?5time?5tuple?0?5compatible?5wi@
	DQ	FLAT:??_C@_09OMDJNLDP@timestamp?$AA@
	DQ	FLAT:datetime_timestamp
	DD	04H
	ORG $+4
	DQ	FLAT:??_C@_0CB@CCPKKINL@Return?5POSIX?5timestamp?5as?5float?4@
	DQ	FLAT:??_C@_0N@LHNBNFDP@utctimetuple?$AA@
	DQ	FLAT:datetime_utctimetuple
	DD	04H
	ORG $+4
	DQ	FLAT:??_C@_0DJ@MGNAKBHL@Return?5UTC?5time?5tuple?0?5compatibl@
	DQ	FLAT:??_C@_09KILOLAPA@isoformat?$AA@
	DQ	FLAT:datetime_isoformat
	DD	03H
	ORG $+4
	DQ	FLAT:??_C@_0JA@IBIENBBE@?$FLsep?$FN?5?9?$DO?5string?5in?5ISO?58601?5form@
	DQ	FLAT:??_C@_09DGNKAEDJ@utcoffset?$AA@
	DQ	FLAT:datetime_utcoffset
	DD	04H
	ORG $+4
	DQ	FLAT:??_C@_0CE@LHGMAHOI@Return?5self?4tzinfo?4utcoffset?$CIsel@
	DQ	FLAT:??_C@_06CNBAGEMF@tzname?$AA@
	DQ	FLAT:datetime_tzname
	DD	04H
	ORG $+4
	DQ	FLAT:??_C@_0CB@BKFJMHAP@Return?5self?4tzinfo?4tzname?$CIself?$CJ?4@
	DQ	FLAT:??_C@_03HHBLCKEM@dst?$AA@
	DQ	FLAT:datetime_dst
	DD	04H
	ORG $+4
	DQ	FLAT:??_C@_0BO@PCCLEJIH@Return?5self?4tzinfo?4dst?$CIself?$CJ?4?$AA@
	DQ	FLAT:??_C@_07CLEHDIEJ@replace?$AA@
	DQ	FLAT:datetime_replace
	DD	03H
	ORG $+4
	DQ	FLAT:??_C@_0CL@IFILGCIP@Return?5datetime?5with?5new?5specifi@
	DQ	FLAT:??_C@_0L@ECALMFAG@astimezone?$AA@
	DQ	FLAT:datetime_astimezone
	DD	03H
	ORG $+4
	DQ	FLAT:??_C@_0DA@OEACLEJI@tz?5?9?$DO?5convert?5to?5local?5time?5in?5n@
	DQ	FLAT:??_C@_0L@NNMACJIG@__reduce__?$AA@
	DQ	FLAT:datetime_reduce
	DD	04H
	ORG $+4
	DQ	FLAT:??_C@_0BN@JMEDOFNE@__reduce__?$CI?$CJ?5?9?$DO?5?$CIcls?0?5state?$CJ?$AA@
	DQ	0000000000000000H
	DQ	0000000000000000H
	ORG $+16
datetime_doc DB	'datetime(year, month, day[, hour[, minute[, second[, mic'
	DB	'rosecond[,tzinfo]]]]])', 0aH, 0aH, 'The year, month and day a'
	DB	'rguments are required. tzinfo may be None, or an', 0aH, 'inst'
	DB	'ance of a tzinfo subclass. The remaining arguments may be int'
	DB	's.', 0aH, 00H
	ORG $+1
datetime_as_number DQ FLAT:datetime_add
	DQ	FLAT:datetime_subtract
	DQ	0000000000000000H
	DQ	0000000000000000H
	DQ	0000000000000000H
	DQ	0000000000000000H
	DQ	0000000000000000H
	DQ	0000000000000000H
	DQ	0000000000000000H
	DQ	0000000000000000H
	ORG $+192
PyDateTime_DateTimeType DQ dead1234beef5678H
	DQ	dead1234beef5678H
	DQ	0000000000000000H
	ORG $+8
	DQ	0000000000000001H
	DQ	0000000000000000H
	DQ	0000000000000000H
	DQ	0000000000000000H
	DQ	dead1234beef5678H
	DQ	dead1234beef5678H
	DQ	0000000000000001H
	DQ	0000000000000000H
	DQ	0000000000000000H
	ORG $+8
	DQ	FLAT:??_C@_0BC@JEMBMAD@datetime?4datetime?$AA@
	DQ	0000000000000080H
	DQ	0000000000000000H
	DQ	FLAT:datetime_dealloc
	DQ	0000000000000000H
	DQ	0000000000000000H
	DQ	0000000000000000H
	DQ	0000000000000000H
	DQ	FLAT:datetime_repr
	DQ	FLAT:datetime_as_number
	DQ	0000000000000000H
	DQ	0000000000000000H
	DQ	FLAT:datetime_hash
	DQ	0000000000000000H
	DQ	FLAT:datetime_str
	DQ	FLAT:PyObject_GenericGetAttr
	DQ	0000000000000000H
	DQ	0000000000000000H
	DD	040400H
	ORG $+4
	DQ	FLAT:datetime_doc
	DQ	0000000000000000H
	DQ	0000000000000000H
	DQ	FLAT:datetime_richcompare
	DQ	0000000000000000H
	DQ	0000000000000000H
	DQ	0000000000000000H
	DQ	FLAT:datetime_methods
	DQ	0000000000000000H
	DQ	FLAT:datetime_getset
	DQ	FLAT:PyDateTime_DateType
	DQ	0000000000000000H
	DQ	0000000000000000H
	DQ	0000000000000000H
	DQ	0000000000000000H
	DQ	0000000000000000H
	DQ	FLAT:datetime_alloc
	DQ	FLAT:datetime_new
	DQ	0000000000000000H
	ORG $+64
CAPI	DQ	FLAT:PyDateTime_DateType
	DQ	FLAT:PyDateTime_DateTimeType
	DQ	FLAT:PyDateTime_TimeType
	DQ	FLAT:PyDateTime_DeltaType
	DQ	FLAT:PyDateTime_TZInfoType
	DQ	FLAT:new_date_ex
	DQ	FLAT:new_datetime_ex
	DQ	FLAT:new_time_ex
	DQ	FLAT:new_delta_ex
	DQ	FLAT:datetime_fromtimestamp
	DQ	FLAT:date_fromtimestamp
	ORG $+8
datetimemodule DQ dead1234beef5678H
	DQ	dead1234beef5678H
	DQ	0000000000000000H
	ORG $+8
	DQ	0000000000000001H
	DQ	0000000000000000H
	DQ	0000000000000000H
	DQ	0000000000000000H
	DQ	dead1234beef5678H
	DQ	dead1234beef5678H
	DQ	0000000000000001H
	DQ	0000000000000000H
	DQ	0000000000000000H
	DQ	0000000000000000H
	DQ	0000000000000000H
	ORG $+8
	DQ	FLAT:??_C@_09BLEDGJAH@_datetime?$AA@
	DQ	FLAT:??_C@_0CK@LPNFBAGO@Fast?5implementation?5of?5the?5datet@
	DQ	ffffffffffffffffH
	DQ	FLAT:module_methods
	DQ	0000000000000000H
	DQ	0000000000000000H
	DQ	0000000000000000H
	DQ	0000000000000000H
_DATA	ENDS
EXTRN	__imp__gmtime64:PROC
; Function compile flags: /Ogtpy
; File c:\program files (x86)\microsoft visual studio 10.0\vc\include\time.inl
;	COMDAT gmtime
_TEXT	SEGMENT
_Time$ = 8
gmtime	PROC						; COMDAT

; 101  : #pragma warning( push )
; 102  : #pragma warning( disable : 4996 )
; 103  :     return _gmtime64(_Time);
; 104  : #pragma warning( pop )
; 105  : }

  00000	48 ff 25 00 00
	00 00		 rex_jmp QWORD PTR __imp__gmtime64
gmtime	ENDP
_TEXT	ENDS
EXTRN	__imp__localtime64:PROC
; Function compile flags: /Ogtpy
;	COMDAT localtime
_TEXT	SEGMENT
_Time$ = 8
localtime PROC						; COMDAT

; 114  : #pragma warning( push )
; 115  : #pragma warning( disable : 4996 )
; 116  :     return _localtime64(_Time);
; 117  : #pragma warning( pop )
; 118  : }

  00000	48 ff 25 00 00
	00 00		 rex_jmp QWORD PTR __imp__localtime64
localtime ENDP
_TEXT	ENDS
EXTRN	__imp__mktime64:PROC
; Function compile flags: /Ogtpy
;	COMDAT mktime
_TEXT	SEGMENT
_Tm$ = 8
mktime	PROC						; COMDAT

; 125  :     return _mktime64(_Tm);
; 126  : }

  00000	48 ff 25 00 00
	00 00		 rex_jmp QWORD PTR __imp__mktime64
mktime	ENDP
_TEXT	ENDS
PUBLIC	??_C@_0L@DHGMCEID@_Py_IncRef?$AA@		; `string'
PUBLIC	??_C@_0CD@HDJFDCDP@c?3?2src?2pyparallel?2include?2object@ ; `string'
PUBLIC	_Py_IncRef
EXTRN	_PyParallel_Guard:PROC
EXTRN	_Py_PXCTX:PROC
;	COMDAT pdata
; File c:\src\pyparallel\include\object.h
pdata	SEGMENT
$pdata$_Py_IncRef DD imagerel $LN5
	DD	imagerel $LN5+74
	DD	imagerel $unwind$_Py_IncRef
pdata	ENDS
;	COMDAT xdata
xdata	SEGMENT
$unwind$_Py_IncRef DD 020601H
	DD	030025206H
xdata	ENDS
;	COMDAT ??_C@_0L@DHGMCEID@_Py_IncRef?$AA@
CONST	SEGMENT
??_C@_0L@DHGMCEID@_Py_IncRef?$AA@ DB '_Py_IncRef', 00H	; `string'
CONST	ENDS
;	COMDAT ??_C@_0CD@HDJFDCDP@c?3?2src?2pyparallel?2include?2object@
CONST	SEGMENT
??_C@_0CD@HDJFDCDP@c?3?2src?2pyparallel?2include?2object@ DB 'c:\src\pypa'
	DB	'rallel\include\object.h', 00H		; `string'
; Function compile flags: /Ogtpy
CONST	ENDS
;	COMDAT _Py_IncRef
_TEXT	SEGMENT
op$ = 64
_Py_IncRef PROC						; COMDAT

; 904  : {

$LN5:
  00000	40 53		 push	 rbx
  00002	48 83 ec 30	 sub	 rsp, 48			; 00000030H
  00006	48 8b d9	 mov	 rbx, rcx

; 905  :     if ((!Py_PXCTX && (Py_ISPY(op) || Px_PERSISTED(op)))) {

  00009	e8 00 00 00 00	 call	 _Py_PXCTX
  0000e	85 c0		 test	 eax, eax
  00010	75 32		 jne	 SHORT $LN2@Py_IncRef
  00012	48 8d 15 00 00
	00 00		 lea	 rdx, OFFSET FLAT:??_C@_0CD@HDJFDCDP@c?3?2src?2pyparallel?2include?2object@
  00019	48 8d 0d 00 00
	00 00		 lea	 rcx, OFFSET FLAT:??_C@_0L@DHGMCEID@_Py_IncRef?$AA@
  00020	4c 8b cb	 mov	 r9, rbx
  00023	41 b8 89 03 00
	00		 mov	 r8d, 905		; 00000389H
  00029	c7 44 24 20 02
	00 00 00	 mov	 DWORD PTR [rsp+32], 2
  00031	e8 00 00 00 00	 call	 _PyParallel_Guard
  00036	85 c0		 test	 eax, eax
  00038	75 06		 jne	 SHORT $LN1@Py_IncRef
  0003a	f6 43 20 20	 test	 BYTE PTR [rbx+32], 32	; 00000020H
  0003e	74 04		 je	 SHORT $LN2@Py_IncRef
$LN1@Py_IncRef:

; 906  :         _Py_INC_REFTOTAL;
; 907  :         (((PyObject*)(op))->ob_refcnt++);

  00040	48 ff 43 50	 inc	 QWORD PTR [rbx+80]
$LN2@Py_IncRef:

; 908  :     }
; 909  : }

  00044	48 83 c4 30	 add	 rsp, 48			; 00000030H
  00048	5b		 pop	 rbx
  00049	c3		 ret	 0
_Py_IncRef ENDP
_TEXT	ENDS
PUBLIC	??_C@_0L@DMHMLFIA@_Py_DecRef?$AA@		; `string'
PUBLIC	_Py_DecRef
EXTRN	Px_DecRef:PROC
EXTRN	_Px_Dealloc:PROC
;	COMDAT pdata
pdata	SEGMENT
$pdata$_Py_DecRef DD imagerel $LN12
	DD	imagerel $LN12+123
	DD	imagerel $unwind$_Py_DecRef
pdata	ENDS
;	COMDAT xdata
xdata	SEGMENT
$unwind$_Py_DecRef DD 020601H
	DD	030025206H
xdata	ENDS
;	COMDAT ??_C@_0L@DMHMLFIA@_Py_DecRef?$AA@
CONST	SEGMENT
??_C@_0L@DMHMLFIA@_Py_DecRef?$AA@ DB '_Py_DecRef', 00H	; `string'
; Function compile flags: /Ogtpy
CONST	ENDS
;	COMDAT _Py_DecRef
_TEXT	SEGMENT
op$ = 64
_Py_DecRef PROC						; COMDAT

; 923  : {

$LN12:
  00000	40 53		 push	 rbx
  00002	48 83 ec 30	 sub	 rsp, 48			; 00000030H
  00006	48 8b d9	 mov	 rbx, rcx

; 924  :     if (!Py_PXCTX) {

  00009	e8 00 00 00 00	 call	 _Py_PXCTX
  0000e	85 c0		 test	 eax, eax
  00010	75 63		 jne	 SHORT $LN11@Py_DecRef

; 925  :         if (Px_PERSISTED(op) || Px_CLONED(op))

  00012	48 8b 43 20	 mov	 rax, QWORD PTR [rbx+32]
  00016	a8 20		 test	 al, 32			; 00000020H
  00018	75 53		 jne	 SHORT $LN5@Py_DecRef
  0001a	84 c0		 test	 al, al
  0001c	78 4f		 js	 SHORT $LN5@Py_DecRef

; 927  :         else if (!Px_ISPX(op)) {

  0001e	a8 02		 test	 al, 2
  00020	75 53		 jne	 SHORT $LN11@Py_DecRef

; 928  :             _Py_DEC_REFTOTAL;
; 929  :             if ((--((PyObject *)(op))->ob_refcnt) != 0) {

  00022	48 ff 4b 50	 dec	 QWORD PTR [rbx+80]
  00026	75 4d		 jne	 SHORT $LN11@Py_DecRef

; 930  :                 _Py_CHECK_REFCNT(op);
; 931  :             } else
; 932  :                 _Py_Dealloc((PyObject *)(op));

  00028	48 8d 15 00 00
	00 00		 lea	 rdx, OFFSET FLAT:??_C@_0CD@HDJFDCDP@c?3?2src?2pyparallel?2include?2object@
  0002f	48 8d 0d 00 00
	00 00		 lea	 rcx, OFFSET FLAT:??_C@_0L@DMHMLFIA@_Py_DecRef?$AA@
  00036	4c 8b cb	 mov	 r9, rbx
  00039	41 b8 a4 03 00
	00		 mov	 r8d, 932		; 000003a4H
  0003f	c7 44 24 20 10
	00 00 00	 mov	 DWORD PTR [rsp+32], 16
  00047	e8 00 00 00 00	 call	 _PyParallel_Guard
  0004c	48 8b cb	 mov	 rcx, rbx
  0004f	85 c0		 test	 eax, eax
  00051	74 0a		 je	 SHORT $LN10@Py_DecRef

; 933  :         }
; 934  :     }
; 935  : }

  00053	48 83 c4 30	 add	 rsp, 48			; 00000030H
  00057	5b		 pop	 rbx
  00058	e9 00 00 00 00	 jmp	 _Px_Dealloc
$LN10@Py_DecRef:

; 930  :                 _Py_CHECK_REFCNT(op);
; 931  :             } else
; 932  :                 _Py_Dealloc((PyObject *)(op));

  0005d	48 8b 43 58	 mov	 rax, QWORD PTR [rbx+88]

; 933  :         }
; 934  :     }
; 935  : }

  00061	48 83 c4 30	 add	 rsp, 48			; 00000030H
  00065	5b		 pop	 rbx
  00066	48 ff a0 88 00
	00 00		 rex_jmp QWORD PTR [rax+136]
$LN5@Py_DecRef:

; 926  :             Px_DECREF(op);

  0006d	48 8b cb	 mov	 rcx, rbx
  00070	e8 00 00 00 00	 call	 Px_DecRef
$LN11@Py_DecRef:

; 933  :         }
; 934  :     }
; 935  : }

  00075	48 83 c4 30	 add	 rsp, 48			; 00000030H
  00079	5b		 pop	 rbx
  0007a	c3		 ret	 0
_Py_DecRef ENDP
; Function compile flags: /Ogtpy
; File c:\src\pyparallel\include\objimpl.h
_TEXT	ENDS
;	COMDAT _PyObject_InitHead
_TEXT	SEGMENT
op$ = 8
_PyObject_InitHead PROC					; COMDAT

; 216  :     assert(Py_TYPE(op));
; 217  :     op->is_px = _Py_NOT_PARALLEL;

  00000	48 ba 78 56 ef
	be 34 12 ad de	 mov	 rdx, -2401243008567650696 ; dead1234beef5678H

; 218  :     op->px    = _Py_NOT_PARALLEL;
; 219  :     op->slist_entry.Next = NULL;

  0000a	33 c0		 xor	 eax, eax

; 220  :     op->px_flags  = Py_PXFLAGS_ISPY;

  0000c	48 c7 41 20 01
	00 00 00	 mov	 QWORD PTR [rcx+32], 1
  00014	48 89 11	 mov	 QWORD PTR [rcx], rdx
  00017	48 89 51 08	 mov	 QWORD PTR [rcx+8], rdx
  0001b	48 89 41 10	 mov	 QWORD PTR [rcx+16], rax

; 221  :     op->srw_lock  = NULL;

  0001f	48 89 41 28	 mov	 QWORD PTR [rcx+40], rax

; 222  :     op->event     = NULL;

  00023	48 89 41 30	 mov	 QWORD PTR [rcx+48], rax

; 223  :     op->orig_type = NULL;

  00027	48 89 41 38	 mov	 QWORD PTR [rcx+56], rax

; 224  : #ifdef Py_TRACE_REFS
; 225  :     op->_ob_next = NULL;
; 226  :     op->_ob_prev = NULL;
; 227  : #else
; 228  :     op->_ob_next = _Py_NOT_PARALLEL;

  0002b	48 89 51 40	 mov	 QWORD PTR [rcx+64], rdx

; 229  :     op->_ob_prev = _Py_NOT_PARALLEL;

  0002f	48 89 51 48	 mov	 QWORD PTR [rcx+72], rdx

; 230  : #endif
; 231  : }

  00033	c3		 ret	 0
_PyObject_InitHead ENDP
_TEXT	ENDS
PUBLIC	??_C@_0O@JKHPLOII@PyObject_INIT?$AA@		; `string'
PUBLIC	??_C@_0CE@FGBBJFKA@c?3?2src?2pyparallel?2include?2objimp@ ; `string'
EXTRN	_Px_NewReference:PROC
EXTRN	_PxObject_Init:PROC
;	COMDAT pdata
pdata	SEGMENT
$pdata$PyObject_INIT DD imagerel PyObject_INIT
	DD	imagerel PyObject_INIT+185
	DD	imagerel $unwind$PyObject_INIT
pdata	ENDS
;	COMDAT xdata
xdata	SEGMENT
$unwind$PyObject_INIT DD 040a01H
	DD	08340aH
	DD	07006520aH
xdata	ENDS
;	COMDAT ??_C@_0O@JKHPLOII@PyObject_INIT?$AA@
CONST	SEGMENT
??_C@_0O@JKHPLOII@PyObject_INIT?$AA@ DB 'PyObject_INIT', 00H ; `string'
CONST	ENDS
;	COMDAT ??_C@_0CE@FGBBJFKA@c?3?2src?2pyparallel?2include?2objimp@
CONST	SEGMENT
??_C@_0CE@FGBBJFKA@c?3?2src?2pyparallel?2include?2objimp@ DB 'c:\src\pypa'
	DB	'rallel\include\objimpl.h', 00H		; `string'
; Function compile flags: /Ogtpy
CONST	ENDS
;	COMDAT PyObject_INIT
_TEXT	SEGMENT
op$ = 64
tp$ = 72
PyObject_INIT PROC					; COMDAT

; 236  : {

  00000	48 89 5c 24 08	 mov	 QWORD PTR [rsp+8], rbx
  00005	57		 push	 rdi
  00006	48 83 ec 30	 sub	 rsp, 48			; 00000030H
  0000a	48 8b fa	 mov	 rdi, rdx
  0000d	48 8b d9	 mov	 rbx, rcx

; 237  :     Px_RETURN(_PxObject_Init(op, tp))

  00010	e8 00 00 00 00	 call	 _Py_PXCTX
  00015	85 c0		 test	 eax, eax
  00017	74 15		 je	 SHORT $LN1@PyObject_I
  00019	48 8b d7	 mov	 rdx, rdi
  0001c	48 8b cb	 mov	 rcx, rbx

; 242  : }

  0001f	48 8b 5c 24 40	 mov	 rbx, QWORD PTR [rsp+64]
  00024	48 83 c4 30	 add	 rsp, 48			; 00000030H
  00028	5f		 pop	 rdi
  00029	e9 00 00 00 00	 jmp	 _PxObject_Init
$LN1@PyObject_I:

; 238  :     Py_TYPE(op) = tp;
; 239  :     _PyObject_InitHead(op);

  0002e	48 b9 78 56 ef
	be 34 12 ad de	 mov	 rcx, -2401243008567650696 ; dead1234beef5678H
  00038	33 c0		 xor	 eax, eax

; 240  :     _Py_NewReference(op);

  0003a	48 8d 15 00 00
	00 00		 lea	 rdx, OFFSET FLAT:??_C@_0CE@FGBBJFKA@c?3?2src?2pyparallel?2include?2objimp@
  00041	48 89 0b	 mov	 QWORD PTR [rbx], rcx
  00044	48 89 4b 08	 mov	 QWORD PTR [rbx+8], rcx
  00048	48 89 4b 40	 mov	 QWORD PTR [rbx+64], rcx
  0004c	48 89 4b 48	 mov	 QWORD PTR [rbx+72], rcx
  00050	48 8d 0d 00 00
	00 00		 lea	 rcx, OFFSET FLAT:??_C@_0O@JKHPLOII@PyObject_INIT?$AA@
  00057	4c 8b cb	 mov	 r9, rbx
  0005a	41 b8 f0 00 00
	00		 mov	 r8d, 240		; 000000f0H
  00060	48 89 7b 58	 mov	 QWORD PTR [rbx+88], rdi
  00064	48 89 43 10	 mov	 QWORD PTR [rbx+16], rax
  00068	48 c7 43 20 01
	00 00 00	 mov	 QWORD PTR [rbx+32], 1
  00070	48 89 43 28	 mov	 QWORD PTR [rbx+40], rax
  00074	48 89 43 30	 mov	 QWORD PTR [rbx+48], rax
  00078	48 89 43 38	 mov	 QWORD PTR [rbx+56], rax
  0007c	c7 44 24 20 10
	00 00 00	 mov	 DWORD PTR [rsp+32], 16
  00084	e8 00 00 00 00	 call	 _PyParallel_Guard
  00089	85 c0		 test	 eax, eax
  0008b	74 16		 je	 SHORT $LN4@PyObject_I
  0008d	48 8b cb	 mov	 rcx, rbx
  00090	e8 00 00 00 00	 call	 _Px_NewReference

; 241  :     return op;

  00095	48 8b c3	 mov	 rax, rbx

; 242  : }

  00098	48 8b 5c 24 40	 mov	 rbx, QWORD PTR [rsp+64]
  0009d	48 83 c4 30	 add	 rsp, 48			; 00000030H
  000a1	5f		 pop	 rdi
  000a2	c3		 ret	 0
$LN4@PyObject_I:

; 240  :     _Py_NewReference(op);

  000a3	48 c7 43 50 01
	00 00 00	 mov	 QWORD PTR [rbx+80], 1

; 241  :     return op;

  000ab	48 8b c3	 mov	 rax, rbx

; 242  : }

  000ae	48 8b 5c 24 40	 mov	 rbx, QWORD PTR [rsp+64]
  000b3	48 83 c4 30	 add	 rsp, 48			; 00000030H
  000b7	5f		 pop	 rdi
  000b8	c3		 ret	 0
PyObject_INIT ENDP
; Function compile flags: /Ogtpy
; File c:\src\pyparallel\modules\_datetimemodule.c
_TEXT	ENDS
;	COMDAT divmod
_TEXT	SEGMENT
x$ = 8
y$ = 16
r$ = 24
divmod	PROC						; COMDAT

; 129  : {

  00000	44 8b d2	 mov	 r10d, edx

; 130  :     int quo;
; 131  : 
; 132  :     assert(y > 0);
; 133  :     quo = x / y;

  00003	8b c1		 mov	 eax, ecx
  00005	99		 cdq
  00006	41 f7 fa	 idiv	 r10d

; 134  :     *r = x - quo * y;

  00009	44 8b c8	 mov	 r9d, eax
  0000c	45 0f af ca	 imul	 r9d, r10d
  00010	41 2b c9	 sub	 ecx, r9d
  00013	41 89 08	 mov	 DWORD PTR [r8], ecx

; 135  :     if (*r < 0) {

  00016	79 05		 jns	 SHORT $LN4@divmod

; 136  :         --quo;

  00018	ff c8		 dec	 eax

; 137  :         *r += y;

  0001a	45 01 10	 add	 DWORD PTR [r8], r10d
$LN4@divmod:

; 138  :     }
; 139  :     assert(0 <= *r && *r < y);
; 140  :     return quo;
; 141  : }

  0001d	f3 c3		 fatret	 0
divmod	ENDP
_TEXT	ENDS
PUBLIC	__real@3fe0000000000000
PUBLIC	__real@0000000000000000
EXTRN	_fltused:DWORD
EXTRN	floor:PROC
EXTRN	ceil:PROC
;	COMDAT pdata
pdata	SEGMENT
$pdata$round_to_long DD imagerel round_to_long
	DD	imagerel round_to_long+58
	DD	imagerel $unwind$round_to_long
pdata	ENDS
;	COMDAT xdata
xdata	SEGMENT
$unwind$round_to_long DD 010401H
	DD	04204H
xdata	ENDS
;	COMDAT __real@3fe0000000000000
CONST	SEGMENT
__real@3fe0000000000000 DQ 03fe0000000000000r	; 0.5
CONST	ENDS
;	COMDAT __real@0000000000000000
CONST	SEGMENT
__real@0000000000000000 DQ 00000000000000000r	; 0
; Function compile flags: /Ogtpy
CONST	ENDS
;	COMDAT round_to_long
_TEXT	SEGMENT
x$ = 48
round_to_long PROC					; COMDAT

; 148  : {

  00000	48 83 ec 28	 sub	 rsp, 40			; 00000028H

; 149  :     if (x >= 0.0)

  00004	66 0f 2f 05 00
	00 00 00	 comisd	 xmm0, QWORD PTR __real@0000000000000000
  0000c	72 16		 jb	 SHORT $LN2@round_to_l

; 150  :         x = floor(x + 0.5);

  0000e	f2 0f 58 05 00
	00 00 00	 addsd	 xmm0, QWORD PTR __real@3fe0000000000000
  00016	e8 00 00 00 00	 call	 floor

; 153  :     return (long)x;

  0001b	f2 0f 2c c0	 cvttsd2si eax, xmm0

; 154  : }

  0001f	48 83 c4 28	 add	 rsp, 40			; 00000028H
  00023	c3		 ret	 0
$LN2@round_to_l:

; 151  :     else
; 152  :         x = ceil(x - 0.5);

  00024	f2 0f 5c 05 00
	00 00 00	 subsd	 xmm0, QWORD PTR __real@3fe0000000000000
  0002c	e8 00 00 00 00	 call	 ceil

; 153  :     return (long)x;

  00031	f2 0f 2c c0	 cvttsd2si eax, xmm0

; 154  : }

  00035	48 83 c4 28	 add	 rsp, 40			; 00000028H
  00039	c3		 ret	 0
round_to_long ENDP
_TEXT	ENDS
EXTRN	_PyLong_DivmodNear:PROC
;	COMDAT pdata
; File c:\src\pyparallel\include\object.h
pdata	SEGMENT
$pdata$divide_nearest DD imagerel divide_nearest
	DD	imagerel divide_nearest+115
	DD	imagerel $unwind$divide_nearest
pdata	ENDS
;	COMDAT xdata
xdata	SEGMENT
$unwind$divide_nearest DD 041e01H
	DD	08341eH
	DD	070025206H
; Function compile flags: /Ogtpy
; File c:\src\pyparallel\modules\_datetimemodule.c
xdata	ENDS
;	COMDAT divide_nearest
_TEXT	SEGMENT
m$ = 64
n$ = 72
divide_nearest PROC					; COMDAT

; 161  : {

  00000	40 57		 push	 rdi
  00002	48 83 ec 30	 sub	 rsp, 48			; 00000030H

; 162  :     PyObject *result;
; 163  :     PyObject *temp;
; 164  : 
; 165  :     temp = _PyLong_DivmodNear(m, n);

  00006	e8 00 00 00 00	 call	 _PyLong_DivmodNear
  0000b	48 8b f8	 mov	 rdi, rax

; 166  :     if (temp == NULL)

  0000e	48 85 c0	 test	 rax, rax
  00011	75 06		 jne	 SHORT $LN1@divide_nea

; 173  : }

  00013	48 83 c4 30	 add	 rsp, 48			; 00000030H
  00017	5f		 pop	 rdi
  00018	c3		 ret	 0
$LN1@divide_nea:
  00019	48 89 5c 24 40	 mov	 QWORD PTR [rsp+64], rbx

; 167  :         return NULL;
; 168  :     result = PyTuple_GET_ITEM(temp, 0);

  0001e	48 8b 58 70	 mov	 rbx, QWORD PTR [rax+112]

; 169  :     Py_INCREF(result);

  00022	e8 00 00 00 00	 call	 _Py_PXCTX
  00027	85 c0		 test	 eax, eax
  00029	75 32		 jne	 SHORT $LN5@divide_nea
  0002b	48 8d 15 00 00
	00 00		 lea	 rdx, OFFSET FLAT:??_C@_0CD@HDJFDCDP@c?3?2src?2pyparallel?2include?2object@
  00032	48 8d 0d 00 00
	00 00		 lea	 rcx, OFFSET FLAT:??_C@_0L@DHGMCEID@_Py_IncRef?$AA@
  00039	4c 8b cb	 mov	 r9, rbx
  0003c	41 b8 89 03 00
	00		 mov	 r8d, 905		; 00000389H
  00042	c7 44 24 20 02
	00 00 00	 mov	 DWORD PTR [rsp+32], 2
  0004a	e8 00 00 00 00	 call	 _PyParallel_Guard
  0004f	85 c0		 test	 eax, eax
  00051	75 06		 jne	 SHORT $LN4@divide_nea
  00053	f6 43 20 20	 test	 BYTE PTR [rbx+32], 32	; 00000020H
  00057	74 04		 je	 SHORT $LN5@divide_nea
$LN4@divide_nea:
  00059	48 ff 43 50	 inc	 QWORD PTR [rbx+80]
$LN5@divide_nea:

; 170  :     Py_DECREF(temp);

  0005d	48 8b cf	 mov	 rcx, rdi
  00060	e8 00 00 00 00	 call	 _Py_DecRef

; 171  : 
; 172  :     return result;

  00065	48 8b c3	 mov	 rax, rbx
  00068	48 8b 5c 24 40	 mov	 rbx, QWORD PTR [rsp+64]

; 173  : }

  0006d	48 83 c4 30	 add	 rsp, 48			; 00000030H
  00071	5f		 pop	 rdi
  00072	c3		 ret	 0
divide_nearest ENDP
; Function compile flags: /Ogtpy
_TEXT	ENDS
;	COMDAT is_leap
_TEXT	SEGMENT
year$ = 8
is_leap	PROC						; COMDAT

; 197  :     /* Cast year to unsigned.  The result is the same either way, but
; 198  :      * C can generate faster code for unsigned mod than for signed
; 199  :      * mod (especially for % 4 -- a good compiler should just grab
; 200  :      * the last 2 bits when the LHS is unsigned).
; 201  :      */
; 202  :     const unsigned int ayear = (unsigned int)year;
; 203  :     return ayear % 4 == 0 && (ayear % 100 != 0 || ayear % 400 == 0);

  00000	f6 c1 03	 test	 cl, 3
  00003	75 2b		 jne	 SHORT $LN4@is_leap
  00005	b8 1f 85 eb 51	 mov	 eax, 1374389535		; 51eb851fH
  0000a	f7 e1		 mul	 ecx
  0000c	c1 ea 05	 shr	 edx, 5
  0000f	6b d2 64	 imul	 edx, 100		; 00000064H
  00012	3b ca		 cmp	 ecx, edx
  00014	75 14		 jne	 SHORT $LN3@is_leap
  00016	b8 1f 85 eb 51	 mov	 eax, 1374389535		; 51eb851fH
  0001b	f7 e1		 mul	 ecx
  0001d	c1 ea 07	 shr	 edx, 7
  00020	69 d2 90 01 00
	00		 imul	 edx, 400		; 00000190H
  00026	3b ca		 cmp	 ecx, edx
  00028	75 06		 jne	 SHORT $LN4@is_leap
$LN3@is_leap:
  0002a	b8 01 00 00 00	 mov	 eax, 1

; 204  : }

  0002f	c3		 ret	 0
$LN4@is_leap:

; 197  :     /* Cast year to unsigned.  The result is the same either way, but
; 198  :      * C can generate faster code for unsigned mod than for signed
; 199  :      * mod (especially for % 4 -- a good compiler should just grab
; 200  :      * the last 2 bits when the LHS is unsigned).
; 201  :      */
; 202  :     const unsigned int ayear = (unsigned int)year;
; 203  :     return ayear % 4 == 0 && (ayear % 100 != 0 || ayear % 400 == 0);

  00030	33 c0		 xor	 eax, eax

; 204  : }

  00032	c3		 ret	 0
is_leap	ENDP
_TEXT	ENDS
;	COMDAT pdata
pdata	SEGMENT
$pdata$days_in_month DD imagerel days_in_month
	DD	imagerel days_in_month+47
	DD	imagerel $unwind$days_in_month
pdata	ENDS
;	COMDAT xdata
xdata	SEGMENT
$unwind$days_in_month DD 010401H
	DD	04204H
; Function compile flags: /Ogtpy
xdata	ENDS
;	COMDAT days_in_month
_TEXT	SEGMENT
year$ = 48
month$ = 56
days_in_month PROC					; COMDAT

; 209  : {

  00000	48 83 ec 28	 sub	 rsp, 40			; 00000028H
  00004	4c 63 c2	 movsxd	 r8, edx

; 210  :     assert(month >= 1);
; 211  :     assert(month <= 12);
; 212  :     if (month == 2 && is_leap(year))

  00007	41 83 f8 02	 cmp	 r8d, 2
  0000b	75 12		 jne	 SHORT $LN2@days_in_mo
  0000d	e8 00 00 00 00	 call	 is_leap
  00012	85 c0		 test	 eax, eax
  00014	74 09		 je	 SHORT $LN2@days_in_mo

; 213  :         return 29;

  00016	41 8d 40 1b	 lea	 eax, QWORD PTR [r8+27]

; 216  : }

  0001a	48 83 c4 28	 add	 rsp, 40			; 00000028H
  0001e	c3		 ret	 0
$LN2@days_in_mo:

; 214  :     else
; 215  :         return _days_in_month[month];

  0001f	48 8d 0d 00 00
	00 00		 lea	 rcx, OFFSET FLAT:_days_in_month
  00026	42 8b 04 81	 mov	 eax, DWORD PTR [rcx+r8*4]

; 216  : }

  0002a	48 83 c4 28	 add	 rsp, 40			; 00000028H
  0002e	c3		 ret	 0
days_in_month ENDP
_TEXT	ENDS
;	COMDAT pdata
pdata	SEGMENT
$pdata$days_before_month DD imagerel days_before_month
	DD	imagerel days_before_month+44
	DD	imagerel $unwind$days_before_month
pdata	ENDS
;	COMDAT xdata
xdata	SEGMENT
$unwind$days_before_month DD 010401H
	DD	04204H
; Function compile flags: /Ogtpy
xdata	ENDS
;	COMDAT days_before_month
_TEXT	SEGMENT
year$ = 48
month$ = 56
days_before_month PROC					; COMDAT

; 221  : {

  00000	48 83 ec 28	 sub	 rsp, 40			; 00000028H

; 222  :     int days;
; 223  : 
; 224  :     assert(month >= 1);
; 225  :     assert(month <= 12);
; 226  :     days = _days_before_month[month];

  00004	4c 8d 05 00 00
	00 00		 lea	 r8, OFFSET FLAT:_days_before_month
  0000b	48 63 c2	 movsxd	 rax, edx
  0000e	45 8b 04 80	 mov	 r8d, DWORD PTR [r8+rax*4]

; 227  :     if (month > 2 && is_leap(year))

  00012	83 fa 02	 cmp	 edx, 2
  00015	7e 0d		 jle	 SHORT $LN4@days_befor
  00017	e8 00 00 00 00	 call	 is_leap
  0001c	85 c0		 test	 eax, eax

; 228  :         ++days;
; 229  :     return days;

  0001e	41 8d 40 01	 lea	 eax, DWORD PTR [r8+1]
  00022	75 03		 jne	 SHORT $LN1@days_befor
$LN4@days_befor:
  00024	41 8b c0	 mov	 eax, r8d
$LN1@days_befor:

; 230  : }

  00027	48 83 c4 28	 add	 rsp, 40			; 00000028H
  0002b	c3		 ret	 0
days_before_month ENDP
; Function compile flags: /Ogtpy
_TEXT	ENDS
;	COMDAT days_before_year
_TEXT	SEGMENT
year$ = 8
days_before_year PROC					; COMDAT

; 238  :     int y = year - 1;

  00000	44 8d 41 ff	 lea	 r8d, DWORD PTR [rcx-1]

; 239  :     /* This is incorrect if year <= 0; we really want the floor
; 240  :      * here.  But so long as MINYEAR is 1, the smallest year this
; 241  :      * can see is 1.
; 242  :      */
; 243  :     assert (year >= 1);
; 244  :     return y*365 + y/4 - y/100 + y/400;

  00004	b8 1f 85 eb 51	 mov	 eax, 1374389535		; 51eb851fH
  00009	41 8b c8	 mov	 ecx, r8d
  0000c	41 f7 e8	 imul	 r8d
  0000f	44 8b ca	 mov	 r9d, edx
  00012	41 c1 f9 07	 sar	 r9d, 7
  00016	69 c9 6d 01 00
	00		 imul	 ecx, 365		; 0000016dH
  0001c	41 8b c1	 mov	 eax, r9d
  0001f	c1 e8 1f	 shr	 eax, 31
  00022	44 03 c8	 add	 r9d, eax
  00025	b8 1f 85 eb 51	 mov	 eax, 1374389535		; 51eb851fH
  0002a	44 03 c9	 add	 r9d, ecx
  0002d	41 f7 e8	 imul	 r8d
  00030	c1 fa 05	 sar	 edx, 5
  00033	41 8b c0	 mov	 eax, r8d
  00036	8b ca		 mov	 ecx, edx
  00038	c1 e9 1f	 shr	 ecx, 31
  0003b	03 d1		 add	 edx, ecx
  0003d	44 2b ca	 sub	 r9d, edx
  00040	99		 cdq
  00041	83 e2 03	 and	 edx, 3
  00044	03 c2		 add	 eax, edx
  00046	c1 f8 02	 sar	 eax, 2
  00049	41 03 c1	 add	 eax, r9d

; 245  : }

  0004c	c3		 ret	 0
days_before_year ENDP
_TEXT	ENDS
;	COMDAT pdata
pdata	SEGMENT
$pdata$ord_to_ymd DD imagerel ord_to_ymd
	DD	imagerel ord_to_ymd+318
	DD	imagerel $unwind$ord_to_ymd
pdata	ENDS
;	COMDAT xdata
xdata	SEGMENT
$unwind$ord_to_ymd DD 040a01H
	DD	06340aH
	DD	07006320aH
; Function compile flags: /Ogtpy
xdata	ENDS
;	COMDAT ord_to_ymd
_TEXT	SEGMENT
ordinal$ = 48
year$ = 56
month$ = 64
day$ = 72
ord_to_ymd PROC						; COMDAT

; 257  : {

  00000	48 89 5c 24 08	 mov	 QWORD PTR [rsp+8], rbx
  00005	57		 push	 rdi
  00006	48 83 ec 20	 sub	 rsp, 32			; 00000020H
  0000a	48 8b da	 mov	 rbx, rdx

; 258  :     int n, n1, n4, n100, n400, leapyear, preceding;
; 259  : 
; 260  :     /* ordinal is a 1-based index, starting at 1-Jan-1.  The pattern of
; 261  :      * leap years repeats exactly every 400 years.  The basic strategy is
; 262  :      * to find the closest 400-year boundary at or before ordinal, then
; 263  :      * work with the offset from that boundary to ordinal.  Life is much
; 264  :      * clearer if we subtract 1 from ordinal first -- then the values
; 265  :      * of ordinal at 400-year boundaries are exactly those divisible
; 266  :      * by DI400Y:
; 267  :      *
; 268  :      *    D  M   Y            n              n-1
; 269  :      *    -- --- ----        ----------     ----------------
; 270  :      *    31 Dec -400        -DI400Y       -DI400Y -1
; 271  :      *     1 Jan -399         -DI400Y +1   -DI400Y      400-year boundary
; 272  :      *    ...
; 273  :      *    30 Dec  000        -1             -2
; 274  :      *    31 Dec  000         0             -1
; 275  :      *     1 Jan  001         1              0          400-year boundary
; 276  :      *     2 Jan  001         2              1
; 277  :      *     3 Jan  001         3              2
; 278  :      *    ...
; 279  :      *    31 Dec  400         DI400Y        DI400Y -1
; 280  :      *     1 Jan  401         DI400Y +1     DI400Y      400-year boundary
; 281  :      */
; 282  :     assert(ordinal >= 1);
; 283  :     --ordinal;

  0000d	44 8d 51 ff	 lea	 r10d, DWORD PTR [rcx-1]
  00011	4d 8b d9	 mov	 r11, r9

; 284  :     n400 = ordinal / DI400Y;
; 285  :     n = ordinal % DI400Y;

  00014	b8 bd 06 6b 39	 mov	 eax, 963315389		; 396b06bdH
  00019	41 f7 ea	 imul	 r10d
  0001c	c1 fa 0f	 sar	 edx, 15
  0001f	8b c2		 mov	 eax, edx
  00021	c1 e8 1f	 shr	 eax, 31
  00024	03 d0		 add	 edx, eax
  00026	8b c2		 mov	 eax, edx

; 286  :     *year = n400 * 400 + 1;

  00028	69 d2 90 01 00
	00		 imul	 edx, 400		; 00000190H
  0002e	69 c0 b1 3a 02
	00		 imul	 eax, 146097		; 00023ab1H
  00034	8d 4a 01	 lea	 ecx, DWORD PTR [rdx+1]
  00037	44 2b d0	 sub	 r10d, eax

; 287  : 
; 288  :     /* Now n is the (non-negative) offset, in days, from January 1 of
; 289  :      * year, to the desired date.  Now compute how many 100-year cycles
; 290  :      * precede n.
; 291  :      * Note that it's possible for n100 to equal 4!  In that case 4 full
; 292  :      * 100-year cycles precede the desired day, which implies the
; 293  :      * desired day is December 31 at the end of a 400-year cycle.
; 294  :      */
; 295  :     n100 = n / DI100Y;

  0003a	b8 fb 81 ac e5	 mov	 eax, -441679365		; ffffffffe5ac81fbH
  0003f	41 f7 ea	 imul	 r10d
  00042	45 8d 0c 12	 lea	 r9d, DWORD PTR [r10+rdx]
  00046	41 c1 f9 0f	 sar	 r9d, 15
  0004a	41 8b c1	 mov	 eax, r9d
  0004d	c1 e8 1f	 shr	 eax, 31
  00050	44 03 c8	 add	 r9d, eax

; 296  :     n = n % DI100Y;

  00053	41 8b c1	 mov	 eax, r9d
  00056	69 c0 54 71 ff
	ff		 imul	 eax, -36524		; ffffffffffff7154H
  0005c	44 03 d0	 add	 r10d, eax

; 297  : 
; 298  :     /* Now compute how many 4-year cycles precede it. */
; 299  :     n4 = n / DI4Y;

  0005f	b8 73 b0 6d 16	 mov	 eax, 376287347		; 166db073H
  00064	41 f7 ea	 imul	 r10d
  00067	8b fa		 mov	 edi, edx
  00069	c1 ff 07	 sar	 edi, 7
  0006c	8b c7		 mov	 eax, edi
  0006e	c1 e8 1f	 shr	 eax, 31
  00071	03 f8		 add	 edi, eax

; 300  :     n = n % DI4Y;

  00073	8b c7		 mov	 eax, edi
  00075	69 c0 4b fa ff
	ff		 imul	 eax, -1461		; fffffffffffffa4bH
  0007b	44 03 d0	 add	 r10d, eax

; 301  : 
; 302  :     /* And now how many single years.  Again n1 can be 4, and again
; 303  :      * meaning that the desired day is December 31 at the end of the
; 304  :      * 4-year cycle.
; 305  :      */
; 306  :     n1 = n / 365;

  0007e	b8 b1 f9 8c b3	 mov	 eax, -1282606671	; ffffffffb38cf9b1H
  00083	41 f7 ea	 imul	 r10d
  00086	41 03 d2	 add	 edx, r10d
  00089	c1 fa 08	 sar	 edx, 8
  0008c	8b c2		 mov	 eax, edx
  0008e	c1 e8 1f	 shr	 eax, 31
  00091	03 d0		 add	 edx, eax

; 307  :     n = n % 365;

  00093	8b c2		 mov	 eax, edx
  00095	69 c0 93 fe ff
	ff		 imul	 eax, -365		; fffffffffffffe93H
  0009b	44 03 d0	 add	 r10d, eax

; 308  : 
; 309  :     *year += n100 * 100 + n4 * 4 + n1;

  0009e	41 8b c1	 mov	 eax, r9d
  000a1	6b c0 19	 imul	 eax, 25
  000a4	03 c7		 add	 eax, edi
  000a6	8d 04 81	 lea	 eax, DWORD PTR [rcx+rax*4]
  000a9	03 c2		 add	 eax, edx
  000ab	89 03		 mov	 DWORD PTR [rbx], eax

; 310  :     if (n1 == 4 || n100 == 4) {

  000ad	83 fa 04	 cmp	 edx, 4
  000b0	74 6f		 je	 SHORT $LN2@ord_to_ymd
  000b2	41 83 f9 04	 cmp	 r9d, 4
  000b6	74 69		 je	 SHORT $LN2@ord_to_ymd

; 313  :         *month = 12;
; 314  :         *day = 31;
; 315  :         return;
; 316  :     }
; 317  : 
; 318  :     /* Now the year is correct, and n is the offset from January 1.  We
; 319  :      * find the month via an estimate that's either exact or one too
; 320  :      * large.
; 321  :      */
; 322  :     leapyear = n1 == 3 && (n4 != 24 || n100 == 3);

  000b8	b9 01 00 00 00	 mov	 ecx, 1
  000bd	83 fa 03	 cmp	 edx, 3
  000c0	75 0e		 jne	 SHORT $LN7@ord_to_ymd
  000c2	83 ff 18	 cmp	 edi, 24
  000c5	75 05		 jne	 SHORT $LN6@ord_to_ymd
  000c7	44 3b ca	 cmp	 r9d, edx
  000ca	75 04		 jne	 SHORT $LN7@ord_to_ymd
$LN6@ord_to_ymd:
  000cc	8b c1		 mov	 eax, ecx
  000ce	eb 02		 jmp	 SHORT $LN8@ord_to_ymd
$LN7@ord_to_ymd:
  000d0	33 c0		 xor	 eax, eax
$LN8@ord_to_ymd:

; 323  :     assert(leapyear == is_leap(*year));
; 324  :     *month = (n + 50) >> 5;

  000d2	41 8d 52 32	 lea	 edx, DWORD PTR [r10+50]
  000d6	c1 fa 05	 sar	 edx, 5
  000d9	41 89 10	 mov	 DWORD PTR [r8], edx

; 325  :     preceding = (_days_before_month[*month] + (*month > 2 && leapyear));

  000dc	83 fa 02	 cmp	 edx, 2
  000df	7e 04		 jle	 SHORT $LN9@ord_to_ymd
  000e1	85 c0		 test	 eax, eax
  000e3	75 02		 jne	 SHORT $LN10@ord_to_ymd
$LN9@ord_to_ymd:
  000e5	33 c9		 xor	 ecx, ecx
$LN10@ord_to_ymd:
  000e7	4c 8d 0d 00 00
	00 00		 lea	 r9, OFFSET FLAT:_days_before_month
  000ee	48 63 c2	 movsxd	 rax, edx
  000f1	41 8b 04 81	 mov	 eax, DWORD PTR [r9+rax*4]
  000f5	44 8d 0c 01	 lea	 r9d, DWORD PTR [rcx+rax]

; 326  :     if (preceding > n) {

  000f9	45 3b ca	 cmp	 r9d, r10d
  000fc	7e 0f		 jle	 SHORT $LN1@ord_to_ymd

; 327  :         /* estimate is too large */
; 328  :         *month -= 1;

  000fe	ff ca		 dec	 edx
  00100	41 89 10	 mov	 DWORD PTR [r8], edx

; 329  :         preceding -= days_in_month(*year, *month);

  00103	8b 0b		 mov	 ecx, DWORD PTR [rbx]
  00105	e8 00 00 00 00	 call	 days_in_month
  0010a	44 2b c8	 sub	 r9d, eax
$LN1@ord_to_ymd:

; 330  :     }
; 331  :     n -= preceding;
; 332  :     assert(0 <= n);
; 333  :     assert(n < days_in_month(*year, *month));
; 334  : 
; 335  :     *day = n + 1;

  0010d	45 2b d1	 sub	 r10d, r9d
  00110	41 ff c2	 inc	 r10d
  00113	45 89 13	 mov	 DWORD PTR [r11], r10d

; 336  : }

  00116	48 8b 5c 24 30	 mov	 rbx, QWORD PTR [rsp+48]
  0011b	48 83 c4 20	 add	 rsp, 32			; 00000020H
  0011f	5f		 pop	 rdi
  00120	c3		 ret	 0
$LN2@ord_to_ymd:

; 311  :         assert(n == 0);
; 312  :         *year -= 1;

  00121	ff c8		 dec	 eax
  00123	89 03		 mov	 DWORD PTR [rbx], eax

; 336  : }

  00125	48 8b 5c 24 30	 mov	 rbx, QWORD PTR [rsp+48]
  0012a	41 c7 00 0c 00
	00 00		 mov	 DWORD PTR [r8], 12
  00131	41 c7 03 1f 00
	00 00		 mov	 DWORD PTR [r11], 31
  00138	48 83 c4 20	 add	 rsp, 32			; 00000020H
  0013c	5f		 pop	 rdi
  0013d	c3		 ret	 0
ord_to_ymd ENDP
_TEXT	ENDS
;	COMDAT pdata
pdata	SEGMENT
$pdata$ymd_to_ord DD imagerel ymd_to_ord
	DD	imagerel ymd_to_ord+31
	DD	imagerel $unwind$ymd_to_ord
pdata	ENDS
;	COMDAT xdata
xdata	SEGMENT
$unwind$ymd_to_ord DD 010401H
	DD	04204H
; Function compile flags: /Ogtpy
xdata	ENDS
;	COMDAT ymd_to_ord
_TEXT	SEGMENT
year$ = 48
month$ = 56
day$ = 64
ymd_to_ord PROC						; COMDAT

; 341  : {

  00000	48 83 ec 28	 sub	 rsp, 40			; 00000028H
  00004	45 8b d8	 mov	 r11d, r8d

; 342  :     return days_before_year(year) + days_before_month(year, month) + day;

  00007	e8 00 00 00 00	 call	 days_before_month
  0000c	44 8b d0	 mov	 r10d, eax
  0000f	e8 00 00 00 00	 call	 days_before_year
  00014	43 8d 0c 13	 lea	 ecx, DWORD PTR [r11+r10]
  00018	03 c1		 add	 eax, ecx

; 343  : }

  0001a	48 83 c4 28	 add	 rsp, 40			; 00000028H
  0001e	c3		 ret	 0
ymd_to_ord ENDP
_TEXT	ENDS
;	COMDAT pdata
pdata	SEGMENT
$pdata$weekday DD imagerel weekday
	DD	imagerel weekday+48
	DD	imagerel $unwind$weekday
pdata	ENDS
;	COMDAT xdata
xdata	SEGMENT
$unwind$weekday DD 010401H
	DD	04204H
; Function compile flags: /Ogtpy
xdata	ENDS
;	COMDAT weekday
_TEXT	SEGMENT
year$ = 48
month$ = 56
day$ = 64
weekday	PROC						; COMDAT

; 348  : {

  00000	48 83 ec 28	 sub	 rsp, 40			; 00000028H

; 349  :     return (ymd_to_ord(year, month, day) + 6) % 7;

  00004	e8 00 00 00 00	 call	 ymd_to_ord
  00009	44 8d 58 06	 lea	 r11d, DWORD PTR [rax+6]
  0000d	b8 93 24 49 92	 mov	 eax, -1840700269	; ffffffff92492493H
  00012	41 f7 eb	 imul	 r11d
  00015	41 03 d3	 add	 edx, r11d
  00018	c1 fa 02	 sar	 edx, 2
  0001b	8b ca		 mov	 ecx, edx
  0001d	c1 e9 1f	 shr	 ecx, 31
  00020	03 d1		 add	 edx, ecx
  00022	6b d2 07	 imul	 edx, 7
  00025	44 2b da	 sub	 r11d, edx
  00028	41 8b c3	 mov	 eax, r11d

; 350  : }

  0002b	48 83 c4 28	 add	 rsp, 40			; 00000028H
  0002f	c3		 ret	 0
weekday	ENDP
_TEXT	ENDS
;	COMDAT pdata
pdata	SEGMENT
$pdata$iso_week1_monday DD imagerel iso_week1_monday
	DD	imagerel iso_week1_monday+72
	DD	imagerel $unwind$iso_week1_monday
pdata	ENDS
;	COMDAT xdata
xdata	SEGMENT
$unwind$iso_week1_monday DD 010401H
	DD	04204H
; Function compile flags: /Ogtpy
xdata	ENDS
;	COMDAT iso_week1_monday
_TEXT	SEGMENT
year$ = 48
iso_week1_monday PROC					; COMDAT

; 357  : {

  00000	48 83 ec 28	 sub	 rsp, 40			; 00000028H

; 358  :     int first_day = ymd_to_ord(year, 1, 1);     /* ord of 1/1 */

  00004	ba 01 00 00 00	 mov	 edx, 1
  00009	44 8b c2	 mov	 r8d, edx
  0000c	e8 00 00 00 00	 call	 ymd_to_ord
  00011	44 8b d8	 mov	 r11d, eax

; 359  :     /* 0 if 1/1 is a Monday, 1 if a Tue, etc. */
; 360  :     int first_weekday = (first_day + 6) % 7;

  00014	44 8d 40 06	 lea	 r8d, DWORD PTR [rax+6]
  00018	b8 93 24 49 92	 mov	 eax, -1840700269	; ffffffff92492493H
  0001d	41 f7 e8	 imul	 r8d
  00020	41 03 d0	 add	 edx, r8d
  00023	c1 fa 02	 sar	 edx, 2
  00026	8b ca		 mov	 ecx, edx
  00028	c1 e9 1f	 shr	 ecx, 31
  0002b	03 d1		 add	 edx, ecx
  0002d	6b d2 07	 imul	 edx, 7
  00030	44 2b c2	 sub	 r8d, edx

; 361  :     /* ordinal of closest Monday at or before 1/1 */
; 362  :     int week1_monday  = first_day - first_weekday;

  00033	45 2b d8	 sub	 r11d, r8d

; 363  : 
; 364  :     if (first_weekday > 3)      /* if 1/1 was Fri, Sat, Sun */
; 365  :         week1_monday += 7;
; 366  :     return week1_monday;

  00036	41 8d 43 07	 lea	 eax, DWORD PTR [r11+7]
  0003a	41 83 f8 03	 cmp	 r8d, 3
  0003e	7f 03		 jg	 SHORT $LN1@iso_week1_
  00040	41 8b c3	 mov	 eax, r11d
$LN1@iso_week1_:

; 367  : }

  00043	48 83 c4 28	 add	 rsp, 40			; 00000028H
  00047	c3		 ret	 0
iso_week1_monday ENDP
_TEXT	ENDS
PUBLIC	??_C@_0CD@GIAJIAD@days?$DN?$CFd?$DL?5must?5have?5magnitude?5?$DM?$DN?5@ ; `string'
EXTRN	PyErr_Format:PROC
EXTRN	PyExc_OverflowError:QWORD
;	COMDAT pdata
pdata	SEGMENT
$pdata$check_delta_day_range DD imagerel check_delta_day_range
	DD	imagerel check_delta_day_range+60
	DD	imagerel $unwind$check_delta_day_range
pdata	ENDS
;	COMDAT xdata
xdata	SEGMENT
$unwind$check_delta_day_range DD 010401H
	DD	04204H
xdata	ENDS
;	COMDAT ??_C@_0CD@GIAJIAD@days?$DN?$CFd?$DL?5must?5have?5magnitude?5?$DM?$DN?5@
CONST	SEGMENT
??_C@_0CD@GIAJIAD@days?$DN?$CFd?$DL?5must?5have?5magnitude?5?$DM?$DN?5@ DB 'd'
	DB	'ays=%d; must have magnitude <= %d', 00H	; `string'
; Function compile flags: /Ogtpy
CONST	ENDS
;	COMDAT check_delta_day_range
_TEXT	SEGMENT
days$ = 48
check_delta_day_range PROC				; COMDAT

; 378  : {

  00000	48 83 ec 28	 sub	 rsp, 40			; 00000028H

; 379  :     if (-MAX_DELTA_DAYS <= days && days <= MAX_DELTA_DAYS)

  00004	8d 81 ff c9 9a
	3b		 lea	 eax, DWORD PTR [rcx+999999999]
  0000a	3d fe 93 35 77	 cmp	 eax, 1999999998		; 773593feH
  0000f	77 07		 ja	 SHORT $LN1@check_delt

; 380  :         return 0;

  00011	33 c0		 xor	 eax, eax

; 385  : }

  00013	48 83 c4 28	 add	 rsp, 40			; 00000028H
  00017	c3		 ret	 0
$LN1@check_delt:

; 381  :     PyErr_Format(PyExc_OverflowError,
; 382  :                  "days=%d; must have magnitude <= %d",
; 383  :                  days, MAX_DELTA_DAYS);

  00018	44 8b c1	 mov	 r8d, ecx
  0001b	48 8b 0d 00 00
	00 00		 mov	 rcx, QWORD PTR PyExc_OverflowError
  00022	48 8d 15 00 00
	00 00		 lea	 rdx, OFFSET FLAT:??_C@_0CD@GIAJIAD@days?$DN?$CFd?$DL?5must?5have?5magnitude?5?$DM?$DN?5@
  00029	41 b9 ff c9 9a
	3b		 mov	 r9d, 999999999		; 3b9ac9ffH
  0002f	e8 00 00 00 00	 call	 PyErr_Format

; 384  :     return -1;

  00034	83 c8 ff	 or	 eax, -1

; 385  : }

  00037	48 83 c4 28	 add	 rsp, 40			; 00000028H
  0003b	c3		 ret	 0
check_delta_day_range ENDP
_TEXT	ENDS
PUBLIC	??_C@_0BF@OKOCEDOB@year?5is?5out?5of?5range?$AA@ ; `string'
PUBLIC	??_C@_0BH@HLLPOIEL@month?5must?5be?5in?51?4?412?$AA@ ; `string'
PUBLIC	??_C@_0BO@OOGOFMAP@day?5is?5out?5of?5range?5for?5month?$AA@ ; `string'
EXTRN	PyErr_SetString:PROC
EXTRN	PyExc_ValueError:QWORD
;	COMDAT pdata
pdata	SEGMENT
$pdata$check_date_args DD imagerel check_date_args
	DD	imagerel check_date_args+129
	DD	imagerel $unwind$check_date_args
pdata	ENDS
;	COMDAT xdata
xdata	SEGMENT
$unwind$check_date_args DD 010401H
	DD	04204H
xdata	ENDS
;	COMDAT ??_C@_0BF@OKOCEDOB@year?5is?5out?5of?5range?$AA@
CONST	SEGMENT
??_C@_0BF@OKOCEDOB@year?5is?5out?5of?5range?$AA@ DB 'year is out of range'
	DB	00H						; `string'
CONST	ENDS
;	COMDAT ??_C@_0BH@HLLPOIEL@month?5must?5be?5in?51?4?412?$AA@
CONST	SEGMENT
??_C@_0BH@HLLPOIEL@month?5must?5be?5in?51?4?412?$AA@ DB 'month must be in'
	DB	' 1..12', 00H				; `string'
CONST	ENDS
;	COMDAT ??_C@_0BO@OOGOFMAP@day?5is?5out?5of?5range?5for?5month?$AA@
CONST	SEGMENT
??_C@_0BO@OOGOFMAP@day?5is?5out?5of?5range?5for?5month?$AA@ DB 'day is ou'
	DB	't of range for month', 00H			; `string'
; Function compile flags: /Ogtpy
CONST	ENDS
;	COMDAT check_date_args
_TEXT	SEGMENT
year$ = 48
month$ = 56
day$ = 64
check_date_args PROC					; COMDAT

; 392  : {

  00000	48 83 ec 28	 sub	 rsp, 40			; 00000028H

; 393  : 
; 394  :     if (year < MINYEAR || year > MAXYEAR) {

  00004	8d 41 ff	 lea	 eax, DWORD PTR [rcx-1]
  00007	45 8b c8	 mov	 r9d, r8d
  0000a	3d 0e 27 00 00	 cmp	 eax, 9998		; 0000270eH
  0000f	77 55		 ja	 SHORT $LN5@check_date

; 398  :     }
; 399  :     if (month < 1 || month > 12) {

  00011	8d 42 ff	 lea	 eax, DWORD PTR [rdx-1]
  00014	83 f8 0b	 cmp	 eax, 11
  00017	77 32		 ja	 SHORT $LN3@check_date

; 402  :         return -1;
; 403  :     }
; 404  :     if (day < 1 || day > days_in_month(year, month)) {

  00019	41 83 f8 01	 cmp	 r8d, 1
  0001d	7c 11		 jl	 SHORT $LN1@check_date
  0001f	e8 00 00 00 00	 call	 days_in_month
  00024	44 3b c8	 cmp	 r9d, eax
  00027	7f 07		 jg	 SHORT $LN1@check_date

; 407  :         return -1;
; 408  :     }
; 409  :     return 0;

  00029	33 c0		 xor	 eax, eax

; 410  : }

  0002b	48 83 c4 28	 add	 rsp, 40			; 00000028H
  0002f	c3		 ret	 0
$LN1@check_date:

; 395  :         PyErr_SetString(PyExc_ValueError,
; 396  :                         "year is out of range");

  00030	48 8b 0d 00 00
	00 00		 mov	 rcx, QWORD PTR PyExc_ValueError

; 405  :         PyErr_SetString(PyExc_ValueError,
; 406  :                         "day is out of range for month");

  00037	48 8d 15 00 00
	00 00		 lea	 rdx, OFFSET FLAT:??_C@_0BO@OOGOFMAP@day?5is?5out?5of?5range?5for?5month?$AA@
  0003e	e8 00 00 00 00	 call	 PyErr_SetString
  00043	83 c8 ff	 or	 eax, -1

; 410  : }

  00046	48 83 c4 28	 add	 rsp, 40			; 00000028H
  0004a	c3		 ret	 0
$LN3@check_date:

; 395  :         PyErr_SetString(PyExc_ValueError,
; 396  :                         "year is out of range");

  0004b	48 8b 0d 00 00
	00 00		 mov	 rcx, QWORD PTR PyExc_ValueError

; 400  :         PyErr_SetString(PyExc_ValueError,
; 401  :                         "month must be in 1..12");

  00052	48 8d 15 00 00
	00 00		 lea	 rdx, OFFSET FLAT:??_C@_0BH@HLLPOIEL@month?5must?5be?5in?51?4?412?$AA@
  00059	e8 00 00 00 00	 call	 PyErr_SetString
  0005e	83 c8 ff	 or	 eax, -1

; 410  : }

  00061	48 83 c4 28	 add	 rsp, 40			; 00000028H
  00065	c3		 ret	 0
$LN5@check_date:

; 395  :         PyErr_SetString(PyExc_ValueError,
; 396  :                         "year is out of range");

  00066	48 8b 0d 00 00
	00 00		 mov	 rcx, QWORD PTR PyExc_ValueError
  0006d	48 8d 15 00 00
	00 00		 lea	 rdx, OFFSET FLAT:??_C@_0BF@OKOCEDOB@year?5is?5out?5of?5range?$AA@
  00074	e8 00 00 00 00	 call	 PyErr_SetString

; 397  :         return -1;

  00079	83 c8 ff	 or	 eax, -1

; 410  : }

  0007c	48 83 c4 28	 add	 rsp, 40			; 00000028H
  00080	c3		 ret	 0
check_date_args ENDP
_TEXT	ENDS
PUBLIC	??_C@_0BG@BMLNJKHN@hour?5must?5be?5in?50?4?423?$AA@ ; `string'
PUBLIC	??_C@_0BI@FCAMKLIB@minute?5must?5be?5in?50?4?459?$AA@ ; `string'
PUBLIC	??_C@_0BI@FHJLBIID@second?5must?5be?5in?50?4?459?$AA@ ; `string'
PUBLIC	??_C@_0CB@MAGNOEPP@microsecond?5must?5be?5in?50?4?4999999@ ; `string'
;	COMDAT pdata
pdata	SEGMENT
$pdata$check_time_args DD imagerel check_time_args
	DD	imagerel check_time_args+144
	DD	imagerel $unwind$check_time_args
pdata	ENDS
;	COMDAT xdata
xdata	SEGMENT
$unwind$check_time_args DD 010401H
	DD	04204H
xdata	ENDS
;	COMDAT ??_C@_0BG@BMLNJKHN@hour?5must?5be?5in?50?4?423?$AA@
CONST	SEGMENT
??_C@_0BG@BMLNJKHN@hour?5must?5be?5in?50?4?423?$AA@ DB 'hour must be in 0'
	DB	'..23', 00H					; `string'
CONST	ENDS
;	COMDAT ??_C@_0BI@FCAMKLIB@minute?5must?5be?5in?50?4?459?$AA@
CONST	SEGMENT
??_C@_0BI@FCAMKLIB@minute?5must?5be?5in?50?4?459?$AA@ DB 'minute must be '
	DB	'in 0..59', 00H				; `string'
CONST	ENDS
;	COMDAT ??_C@_0BI@FHJLBIID@second?5must?5be?5in?50?4?459?$AA@
CONST	SEGMENT
??_C@_0BI@FHJLBIID@second?5must?5be?5in?50?4?459?$AA@ DB 'second must be '
	DB	'in 0..59', 00H				; `string'
CONST	ENDS
;	COMDAT ??_C@_0CB@MAGNOEPP@microsecond?5must?5be?5in?50?4?4999999@
CONST	SEGMENT
??_C@_0CB@MAGNOEPP@microsecond?5must?5be?5in?50?4?4999999@ DB 'microsecon'
	DB	'd must be in 0..999999', 00H		; `string'
; Function compile flags: /Ogtpy
CONST	ENDS
;	COMDAT check_time_args
_TEXT	SEGMENT
h$ = 48
m$ = 56
s$ = 64
us$ = 72
check_time_args PROC					; COMDAT

; 417  : {

  00000	48 83 ec 28	 sub	 rsp, 40			; 00000028H

; 418  :     if (h < 0 || h > 23) {

  00004	83 f9 17	 cmp	 ecx, 23
  00007	77 6c		 ja	 SHORT $LN7@check_time

; 422  :     }
; 423  :     if (m < 0 || m > 59) {

  00009	83 fa 3b	 cmp	 edx, 59			; 0000003bH
  0000c	77 4c		 ja	 SHORT $LN5@check_time

; 426  :         return -1;
; 427  :     }
; 428  :     if (s < 0 || s > 59) {

  0000e	41 83 f8 3b	 cmp	 r8d, 59			; 0000003bH
  00012	77 2b		 ja	 SHORT $LN3@check_time

; 431  :         return -1;
; 432  :     }
; 433  :     if (us < 0 || us > 999999) {

  00014	41 81 f9 3f 42
	0f 00		 cmp	 r9d, 999999		; 000f423fH
  0001b	77 07		 ja	 SHORT $LN1@check_time

; 436  :         return -1;
; 437  :     }
; 438  :     return 0;

  0001d	33 c0		 xor	 eax, eax

; 439  : }

  0001f	48 83 c4 28	 add	 rsp, 40			; 00000028H
  00023	c3		 ret	 0
$LN1@check_time:

; 419  :         PyErr_SetString(PyExc_ValueError,
; 420  :                         "hour must be in 0..23");

  00024	48 8b 0d 00 00
	00 00		 mov	 rcx, QWORD PTR PyExc_ValueError

; 434  :         PyErr_SetString(PyExc_ValueError,
; 435  :                         "microsecond must be in 0..999999");

  0002b	48 8d 15 00 00
	00 00		 lea	 rdx, OFFSET FLAT:??_C@_0CB@MAGNOEPP@microsecond?5must?5be?5in?50?4?4999999@
  00032	e8 00 00 00 00	 call	 PyErr_SetString
  00037	83 c8 ff	 or	 eax, -1

; 439  : }

  0003a	48 83 c4 28	 add	 rsp, 40			; 00000028H
  0003e	c3		 ret	 0
$LN3@check_time:

; 419  :         PyErr_SetString(PyExc_ValueError,
; 420  :                         "hour must be in 0..23");

  0003f	48 8b 0d 00 00
	00 00		 mov	 rcx, QWORD PTR PyExc_ValueError

; 429  :         PyErr_SetString(PyExc_ValueError,
; 430  :                         "second must be in 0..59");

  00046	48 8d 15 00 00
	00 00		 lea	 rdx, OFFSET FLAT:??_C@_0BI@FHJLBIID@second?5must?5be?5in?50?4?459?$AA@
  0004d	e8 00 00 00 00	 call	 PyErr_SetString
  00052	83 c8 ff	 or	 eax, -1

; 439  : }

  00055	48 83 c4 28	 add	 rsp, 40			; 00000028H
  00059	c3		 ret	 0
$LN5@check_time:

; 419  :         PyErr_SetString(PyExc_ValueError,
; 420  :                         "hour must be in 0..23");

  0005a	48 8b 0d 00 00
	00 00		 mov	 rcx, QWORD PTR PyExc_ValueError

; 424  :         PyErr_SetString(PyExc_ValueError,
; 425  :                         "minute must be in 0..59");

  00061	48 8d 15 00 00
	00 00		 lea	 rdx, OFFSET FLAT:??_C@_0BI@FCAMKLIB@minute?5must?5be?5in?50?4?459?$AA@
  00068	e8 00 00 00 00	 call	 PyErr_SetString
  0006d	83 c8 ff	 or	 eax, -1

; 439  : }

  00070	48 83 c4 28	 add	 rsp, 40			; 00000028H
  00074	c3		 ret	 0
$LN7@check_time:

; 419  :         PyErr_SetString(PyExc_ValueError,
; 420  :                         "hour must be in 0..23");

  00075	48 8b 0d 00 00
	00 00		 mov	 rcx, QWORD PTR PyExc_ValueError
  0007c	48 8d 15 00 00
	00 00		 lea	 rdx, OFFSET FLAT:??_C@_0BG@BMLNJKHN@hour?5must?5be?5in?50?4?423?$AA@
  00083	e8 00 00 00 00	 call	 PyErr_SetString

; 421  :         return -1;

  00088	83 c8 ff	 or	 eax, -1

; 439  : }

  0008b	48 83 c4 28	 add	 rsp, 40			; 00000028H
  0008f	c3		 ret	 0
check_time_args ENDP
_TEXT	ENDS
;	COMDAT pdata
pdata	SEGMENT
$pdata$normalize_pair DD imagerel normalize_pair
	DD	imagerel normalize_pair+38
	DD	imagerel $unwind$normalize_pair
pdata	ENDS
;	COMDAT xdata
xdata	SEGMENT
$unwind$normalize_pair DD 010401H
	DD	04204H
; Function compile flags: /Ogtpy
xdata	ENDS
;	COMDAT normalize_pair
_TEXT	SEGMENT
hi$ = 48
lo$ = 56
factor$ = 64
normalize_pair PROC					; COMDAT

; 453  : {

  00000	48 83 ec 28	 sub	 rsp, 40			; 00000028H
  00004	4c 8b d9	 mov	 r11, rcx

; 454  :     assert(factor > 0);
; 455  :     assert(lo != hi);
; 456  :     if (*lo < 0 || *lo >= factor) {

  00007	8b 0a		 mov	 ecx, DWORD PTR [rdx]
  00009	41 8b c0	 mov	 eax, r8d
  0000c	85 c9		 test	 ecx, ecx
  0000e	78 04		 js	 SHORT $LN1@normalize_
  00010	3b c8		 cmp	 ecx, eax
  00012	7c 0d		 jl	 SHORT $LN2@normalize_
$LN1@normalize_:

; 457  :         const int num_hi = divmod(*lo, factor, lo);

  00014	4c 8b c2	 mov	 r8, rdx
  00017	8b d0		 mov	 edx, eax
  00019	e8 00 00 00 00	 call	 divmod

; 458  :         const int new_hi = *hi + num_hi;
; 459  :         assert(! SIGNED_ADD_OVERFLOWED(new_hi, *hi, num_hi));
; 460  :         *hi = new_hi;

  0001e	41 01 03	 add	 DWORD PTR [r11], eax
$LN2@normalize_:

; 461  :     }
; 462  :     assert(0 <= *lo && *lo < factor);
; 463  : }

  00021	48 83 c4 28	 add	 rsp, 40			; 00000028H
  00025	c3		 ret	 0
normalize_pair ENDP
_TEXT	ENDS
;	COMDAT pdata
pdata	SEGMENT
$pdata$normalize_d_s_us DD imagerel normalize_d_s_us
	DD	imagerel normalize_d_s_us+91
	DD	imagerel $unwind$normalize_d_s_us
pdata	ENDS
;	COMDAT xdata
xdata	SEGMENT
$unwind$normalize_d_s_us DD 040a01H
	DD	06340aH
	DD	07006320aH
; Function compile flags: /Ogtpy
xdata	ENDS
;	COMDAT normalize_d_s_us
_TEXT	SEGMENT
d$ = 48
s$ = 56
us$ = 64
normalize_d_s_us PROC					; COMDAT

; 473  : {

  00000	48 89 5c 24 08	 mov	 QWORD PTR [rsp+8], rbx
  00005	57		 push	 rdi
  00006	48 83 ec 20	 sub	 rsp, 32			; 00000020H

; 474  :     if (*us < 0 || *us >= 1000000) {

  0000a	41 8b 00	 mov	 eax, DWORD PTR [r8]
  0000d	4d 8b c8	 mov	 r9, r8
  00010	48 8b da	 mov	 rbx, rdx
  00013	48 8b f9	 mov	 rdi, rcx
  00016	85 c0		 test	 eax, eax
  00018	78 07		 js	 SHORT $LN3@normalize_@2
  0001a	3d 40 42 0f 00	 cmp	 eax, 1000000		; 000f4240H
  0001f	7c 11		 jl	 SHORT $LN4@normalize_@2
$LN3@normalize_@2:

; 475  :         normalize_pair(s, us, 1000000);

  00021	41 b8 40 42 0f
	00		 mov	 r8d, 1000000		; 000f4240H
  00027	49 8b d1	 mov	 rdx, r9
  0002a	48 8b cb	 mov	 rcx, rbx
  0002d	e8 00 00 00 00	 call	 normalize_pair
$LN4@normalize_@2:

; 476  :         /* |s| can't be bigger than about
; 477  :          * |original s| + |original us|/1000000 now.
; 478  :          */
; 479  : 
; 480  :     }
; 481  :     if (*s < 0 || *s >= 24*3600) {

  00032	8b 03		 mov	 eax, DWORD PTR [rbx]
  00034	85 c0		 test	 eax, eax
  00036	78 07		 js	 SHORT $LN1@normalize_@2
  00038	3d 80 51 01 00	 cmp	 eax, 86400		; 00015180H
  0003d	7c 11		 jl	 SHORT $LN2@normalize_@2
$LN1@normalize_@2:

; 482  :         normalize_pair(d, s, 24*3600);

  0003f	41 b8 80 51 01
	00		 mov	 r8d, 86400		; 00015180H
  00045	48 8b d3	 mov	 rdx, rbx
  00048	48 8b cf	 mov	 rcx, rdi
  0004b	e8 00 00 00 00	 call	 normalize_pair
$LN2@normalize_@2:

; 483  :         /* |d| can't be bigger than about
; 484  :          * |original d| +
; 485  :          * (|original s| + |original us|/1000000) / (24*3600) now.
; 486  :          */
; 487  :     }
; 488  :     assert(0 <= *s && *s < 24*3600);
; 489  :     assert(0 <= *us && *us < 1000000);
; 490  : }

  00050	48 8b 5c 24 30	 mov	 rbx, QWORD PTR [rsp+48]
  00055	48 83 c4 20	 add	 rsp, 32			; 00000020H
  00059	5f		 pop	 rdi
  0005a	c3		 ret	 0
normalize_d_s_us ENDP
_TEXT	ENDS
PUBLIC	??_C@_0BI@ICPHLELO@date?5value?5out?5of?5range?$AA@ ; `string'
;	COMDAT pdata
pdata	SEGMENT
$pdata$normalize_y_m_d DD imagerel normalize_y_m_d
	DD	imagerel normalize_y_m_d+239
	DD	imagerel $unwind$normalize_y_m_d
pdata	ENDS
;	COMDAT xdata
xdata	SEGMENT
$unwind$normalize_y_m_d DD 081401H
	DD	086414H
	DD	075414H
	DD	063414H
	DD	070103214H
xdata	ENDS
;	COMDAT ??_C@_0BI@ICPHLELO@date?5value?5out?5of?5range?$AA@
CONST	SEGMENT
??_C@_0BI@ICPHLELO@date?5value?5out?5of?5range?$AA@ DB 'date value out of'
	DB	' range', 00H				; `string'
; Function compile flags: /Ogtpy
CONST	ENDS
;	COMDAT normalize_y_m_d
_TEXT	SEGMENT
y$ = 48
m$ = 56
d$ = 64
normalize_y_m_d PROC					; COMDAT

; 500  : {

  00000	48 89 5c 24 08	 mov	 QWORD PTR [rsp+8], rbx
  00005	48 89 6c 24 10	 mov	 QWORD PTR [rsp+16], rbp
  0000a	48 89 74 24 18	 mov	 QWORD PTR [rsp+24], rsi
  0000f	57		 push	 rdi
  00010	48 83 ec 20	 sub	 rsp, 32			; 00000020H

; 501  :     int dim;            /* # of days in month */
; 502  : 
; 503  :     /* In actual use, m is always the month component extracted from a
; 504  :      * date/datetime object.  Therefore it is always in [1, 12] range.
; 505  :      */
; 506  : 
; 507  :     assert(1 <= *m && *m <= 12);
; 508  : 
; 509  :     /* Now only day can be out of bounds (year may also be out of bounds
; 510  :      * for a datetime object, but we don't care about that here).
; 511  :      * If day is out of bounds, what to do is arguable, but at least the
; 512  :      * method here is principled and explainable.
; 513  :      */
; 514  :     dim = days_in_month(*y, *m);

  00014	44 8b 0a	 mov	 r9d, DWORD PTR [rdx]
  00017	44 8b 11	 mov	 r10d, DWORD PTR [rcx]
  0001a	48 8b fa	 mov	 rdi, rdx
  0001d	48 8b d9	 mov	 rbx, rcx
  00020	41 8b d1	 mov	 edx, r9d
  00023	41 8b ca	 mov	 ecx, r10d
  00026	49 8b f0	 mov	 rsi, r8
  00029	e8 00 00 00 00	 call	 days_in_month

; 515  :     if (*d < 1 || *d > dim) {

  0002e	8b 2e		 mov	 ebp, DWORD PTR [rsi]
  00030	83 fd 01	 cmp	 ebp, 1
  00033	7c 04		 jl	 SHORT $LN12@normalize_@3
  00035	3b e8		 cmp	 ebp, eax
  00037	7e 48		 jle	 SHORT $LN6@normalize_@3
$LN12@normalize_@3:

; 516  :         /* Move day-1 days from the first of the month.  First try to
; 517  :          * get off cheap if we're only one day out of range
; 518  :          * (adjustments for timezone alone can't be worse than that).
; 519  :          */
; 520  :         if (*d == 0) {

  00039	85 ed		 test	 ebp, ebp
  0003b	75 25		 jne	 SHORT $LN11@normalize_@3

; 521  :             --*m;

  0003d	41 8d 51 ff	 lea	 edx, DWORD PTR [r9-1]
  00041	89 17		 mov	 DWORD PTR [rdi], edx

; 522  :             if (*m > 0)

  00043	85 d2		 test	 edx, edx
  00045	7e 0b		 jle	 SHORT $LN10@normalize_@3

; 523  :                 *d = days_in_month(*y, *m);

  00047	8b 0b		 mov	 ecx, DWORD PTR [rbx]
  00049	e8 00 00 00 00	 call	 days_in_month
  0004e	89 06		 mov	 DWORD PTR [rsi], eax

; 524  :             else {

  00050	eb 2f		 jmp	 SHORT $LN6@normalize_@3
$LN10@normalize_@3:

; 525  :                 --*y;

  00052	ff 0b		 dec	 DWORD PTR [rbx]

; 526  :                 *m = 12;

  00054	c7 07 0c 00 00
	00		 mov	 DWORD PTR [rdi], 12

; 527  :                 *d = 31;

  0005a	c7 06 1f 00 00
	00		 mov	 DWORD PTR [rsi], 31

; 528  :             }

  00060	eb 1f		 jmp	 SHORT $LN6@normalize_@3
$LN11@normalize_@3:

; 529  :         }
; 530  :         else if (*d == dim + 1) {

  00062	ff c0		 inc	 eax
  00064	3b e8		 cmp	 ebp, eax
  00066	75 2b		 jne	 SHORT $LN7@normalize_@3

; 531  :             /* move forward a day */
; 532  :             ++*m;

  00068	41 8d 41 01	 lea	 eax, DWORD PTR [r9+1]
  0006c	89 07		 mov	 DWORD PTR [rdi], eax

; 533  :             *d = 1;

  0006e	c7 06 01 00 00
	00		 mov	 DWORD PTR [rsi], 1

; 534  :             if (*m > 12) {

  00074	83 3f 0c	 cmp	 DWORD PTR [rdi], 12
  00077	7e 08		 jle	 SHORT $LN6@normalize_@3

; 535  :                 *m = 1;

  00079	c7 07 01 00 00
	00		 mov	 DWORD PTR [rdi], 1

; 536  :                 ++*y;

  0007f	ff 03		 inc	 DWORD PTR [rbx]
$LN6@normalize_@3:

; 547  :             }
; 548  :         }
; 549  :     }
; 550  :     assert(*m > 0);
; 551  :     assert(*d > 0);
; 552  :     if (MINYEAR <= *y && *y <= MAXYEAR)

  00081	8b 03		 mov	 eax, DWORD PTR [rbx]
  00083	83 f8 01	 cmp	 eax, 1
  00086	7c 3c		 jl	 SHORT $error$20598
  00088	3d 0f 27 00 00	 cmp	 eax, 9999		; 0000270fH
  0008d	7f 35		 jg	 SHORT $error$20598

; 553  :         return 0;

  0008f	33 c0		 xor	 eax, eax
  00091	eb 47		 jmp	 SHORT $LN14@normalize_@3
$LN7@normalize_@3:

; 537  :             }
; 538  :         }
; 539  :         else {
; 540  :             int ordinal = ymd_to_ord(*y, *m, 1) +
; 541  :                                       *d - 1;

  00093	41 b8 01 00 00
	00		 mov	 r8d, 1
  00099	41 8b d1	 mov	 edx, r9d
  0009c	41 8b ca	 mov	 ecx, r10d
  0009f	e8 00 00 00 00	 call	 ymd_to_ord
  000a4	8d 4c 28 ff	 lea	 ecx, DWORD PTR [rax+rbp-1]

; 542  :             if (ordinal < 1 || ordinal > MAXORDINAL) {

  000a8	8d 41 ff	 lea	 eax, DWORD PTR [rcx-1]
  000ab	3d da b9 37 00	 cmp	 eax, 3652058		; 0037b9daH
  000b0	77 12		 ja	 SHORT $error$20598

; 543  :                 goto error;
; 544  :             } else {
; 545  :                 ord_to_ymd(ordinal, y, m, d);

  000b2	4c 8b ce	 mov	 r9, rsi
  000b5	4c 8b c7	 mov	 r8, rdi
  000b8	48 8b d3	 mov	 rdx, rbx
  000bb	e8 00 00 00 00	 call	 ord_to_ymd

; 546  :                 return 0;

  000c0	33 c0		 xor	 eax, eax
  000c2	eb 16		 jmp	 SHORT $LN14@normalize_@3
$error$20598:

; 554  :  error:
; 555  :     PyErr_SetString(PyExc_OverflowError,
; 556  :             "date value out of range");

  000c4	48 8b 0d 00 00
	00 00		 mov	 rcx, QWORD PTR PyExc_OverflowError
  000cb	48 8d 15 00 00
	00 00		 lea	 rdx, OFFSET FLAT:??_C@_0BI@ICPHLELO@date?5value?5out?5of?5range?$AA@
  000d2	e8 00 00 00 00	 call	 PyErr_SetString

; 557  :     return -1;

  000d7	83 c8 ff	 or	 eax, -1
$LN14@normalize_@3:

; 558  : 
; 559  : }

  000da	48 8b 5c 24 30	 mov	 rbx, QWORD PTR [rsp+48]
  000df	48 8b 6c 24 38	 mov	 rbp, QWORD PTR [rsp+56]
  000e4	48 8b 74 24 40	 mov	 rsi, QWORD PTR [rsp+64]
  000e9	48 83 c4 20	 add	 rsp, 32			; 00000020H
  000ed	5f		 pop	 rdi
  000ee	c3		 ret	 0
normalize_y_m_d ENDP
; Function compile flags: /Ogtpy
_TEXT	ENDS
;	COMDAT normalize_date
_TEXT	SEGMENT
year$ = 8
month$ = 16
day$ = 24
normalize_date PROC					; COMDAT

; 568  :     return normalize_y_m_d(year, month, day);
; 569  : }

  00000	e9 00 00 00 00	 jmp	 normalize_y_m_d
normalize_date ENDP
_TEXT	ENDS
;	COMDAT pdata
pdata	SEGMENT
$pdata$normalize_datetime DD imagerel normalize_datetime
	DD	imagerel normalize_datetime+146
	DD	imagerel $unwind$normalize_datetime
pdata	ENDS
;	COMDAT xdata
xdata	SEGMENT
$unwind$normalize_datetime DD 081501H
	DD	087415H
	DD	076415H
	DD	065415H
	DD	0c0113215H
; Function compile flags: /Ogtpy
xdata	ENDS
;	COMDAT normalize_datetime
_TEXT	SEGMENT
year$ = 48
month$ = 56
day$ = 64
hour$ = 72
minute$ = 80
second$ = 88
microsecond$ = 96
normalize_datetime PROC					; COMDAT

; 578  : {

  00000	48 89 6c 24 08	 mov	 QWORD PTR [rsp+8], rbp
  00005	48 89 74 24 10	 mov	 QWORD PTR [rsp+16], rsi
  0000a	48 89 7c 24 18	 mov	 QWORD PTR [rsp+24], rdi
  0000f	41 54		 push	 r12
  00011	48 83 ec 20	 sub	 rsp, 32			; 00000020H
  00015	48 8b ea	 mov	 rbp, rdx

; 579  :     normalize_pair(second, microsecond, 1000000);

  00018	48 8b 54 24 60	 mov	 rdx, QWORD PTR microsecond$[rsp]
  0001d	4c 8b e1	 mov	 r12, rcx
  00020	48 8b 4c 24 58	 mov	 rcx, QWORD PTR second$[rsp]
  00025	49 8b f0	 mov	 rsi, r8
  00028	41 b8 40 42 0f
	00		 mov	 r8d, 1000000		; 000f4240H
  0002e	49 8b f9	 mov	 rdi, r9
  00031	e8 00 00 00 00	 call	 normalize_pair

; 580  :     normalize_pair(minute, second, 60);

  00036	48 8b 54 24 58	 mov	 rdx, QWORD PTR second$[rsp]
  0003b	48 8b 4c 24 50	 mov	 rcx, QWORD PTR minute$[rsp]
  00040	41 b8 3c 00 00
	00		 mov	 r8d, 60			; 0000003cH
  00046	e8 00 00 00 00	 call	 normalize_pair

; 581  :     normalize_pair(hour, minute, 60);

  0004b	48 8b 54 24 50	 mov	 rdx, QWORD PTR minute$[rsp]
  00050	41 b8 3c 00 00
	00		 mov	 r8d, 60			; 0000003cH
  00056	48 8b cf	 mov	 rcx, rdi
  00059	e8 00 00 00 00	 call	 normalize_pair

; 582  :     normalize_pair(day, hour, 24);

  0005e	41 b8 18 00 00
	00		 mov	 r8d, 24
  00064	48 8b d7	 mov	 rdx, rdi
  00067	48 8b ce	 mov	 rcx, rsi
  0006a	e8 00 00 00 00	 call	 normalize_pair

; 583  :     return normalize_date(year, month, day);

  0006f	4c 8b c6	 mov	 r8, rsi
  00072	48 8b d5	 mov	 rdx, rbp
  00075	49 8b cc	 mov	 rcx, r12

; 584  : }

  00078	48 8b 6c 24 30	 mov	 rbp, QWORD PTR [rsp+48]
  0007d	48 8b 74 24 38	 mov	 rsi, QWORD PTR [rsp+56]
  00082	48 8b 7c 24 40	 mov	 rdi, QWORD PTR [rsp+64]
  00087	48 83 c4 20	 add	 rsp, 32			; 00000020H
  0008b	41 5c		 pop	 r12
  0008d	e9 00 00 00 00	 jmp	 normalize_date
normalize_datetime ENDP
_TEXT	ENDS
EXTRN	PyErr_NoMemory:PROC
EXTRN	PyObject_Malloc:PROC
;	COMDAT pdata
pdata	SEGMENT
$pdata$time_alloc DD imagerel time_alloc
	DD	imagerel time_alloc+82
	DD	imagerel $unwind$time_alloc
pdata	ENDS
;	COMDAT xdata
xdata	SEGMENT
$unwind$time_alloc DD 040a01H
	DD	06340aH
	DD	07006320aH
; Function compile flags: /Ogtpy
xdata	ENDS
;	COMDAT time_alloc
_TEXT	SEGMENT
type$ = 48
aware$ = 56
time_alloc PROC						; COMDAT

; 609  : {

  00000	48 89 5c 24 08	 mov	 QWORD PTR [rsp+8], rbx
  00005	57		 push	 rdi
  00006	48 83 ec 20	 sub	 rsp, 32			; 00000020H
  0000a	48 8b f9	 mov	 rdi, rcx

; 610  :     PyObject *self;
; 611  : 
; 612  :     self = (PyObject *)
; 613  :         PyObject_MALLOC(aware ?
; 614  :                         sizeof(PyDateTime_Time) :
; 615  :                 sizeof(_PyDateTime_BaseTime));

  0000d	b8 80 00 00 00	 mov	 eax, 128		; 00000080H
  00012	48 85 d2	 test	 rdx, rdx
  00015	b9 70 00 00 00	 mov	 ecx, 112		; 00000070H
  0001a	0f 45 c8	 cmovne	 ecx, eax
  0001d	e8 00 00 00 00	 call	 PyObject_Malloc
  00022	48 8b d8	 mov	 rbx, rax

; 616  :     if (self == NULL)

  00025	48 85 c0	 test	 rax, rax
  00028	75 0f		 jne	 SHORT $LN1@time_alloc

; 620  : }

  0002a	48 8b 5c 24 30	 mov	 rbx, QWORD PTR [rsp+48]
  0002f	48 83 c4 20	 add	 rsp, 32			; 00000020H
  00033	5f		 pop	 rdi
  00034	e9 00 00 00 00	 jmp	 PyErr_NoMemory
$LN1@time_alloc:

; 617  :         return (PyObject *)PyErr_NoMemory();
; 618  :     PyObject_INIT(self, type);

  00039	48 8b d7	 mov	 rdx, rdi
  0003c	48 8b c8	 mov	 rcx, rax
  0003f	e8 00 00 00 00	 call	 PyObject_INIT

; 619  :     return self;

  00044	48 8b c3	 mov	 rax, rbx

; 620  : }

  00047	48 8b 5c 24 30	 mov	 rbx, QWORD PTR [rsp+48]
  0004c	48 83 c4 20	 add	 rsp, 32			; 00000020H
  00050	5f		 pop	 rdi
  00051	c3		 ret	 0
time_alloc ENDP
_TEXT	ENDS
;	COMDAT pdata
pdata	SEGMENT
$pdata$datetime_alloc DD imagerel datetime_alloc
	DD	imagerel datetime_alloc+71
	DD	imagerel $unwind$datetime_alloc
pdata	ENDS
;	COMDAT xdata
xdata	SEGMENT
$unwind$datetime_alloc DD 040a01H
	DD	06340aH
	DD	07006320aH
; Function compile flags: /Ogtpy
xdata	ENDS
;	COMDAT datetime_alloc
_TEXT	SEGMENT
type$ = 48
aware$ = 56
datetime_alloc PROC					; COMDAT

; 624  : {

  00000	48 89 5c 24 08	 mov	 QWORD PTR [rsp+8], rbx
  00005	57		 push	 rdi
  00006	48 83 ec 20	 sub	 rsp, 32			; 00000020H
  0000a	48 8b f9	 mov	 rdi, rcx

; 625  :     PyObject *self;
; 626  : 
; 627  :     self = (PyObject *)
; 628  :         PyObject_MALLOC(aware ?
; 629  :                         sizeof(PyDateTime_DateTime) :
; 630  :                 sizeof(_PyDateTime_BaseDateTime));

  0000d	b9 80 00 00 00	 mov	 ecx, 128		; 00000080H
  00012	e8 00 00 00 00	 call	 PyObject_Malloc
  00017	48 8b d8	 mov	 rbx, rax

; 631  :     if (self == NULL)

  0001a	48 85 c0	 test	 rax, rax
  0001d	75 0f		 jne	 SHORT $LN1@datetime_a

; 635  : }

  0001f	48 8b 5c 24 30	 mov	 rbx, QWORD PTR [rsp+48]
  00024	48 83 c4 20	 add	 rsp, 32			; 00000020H
  00028	5f		 pop	 rdi
  00029	e9 00 00 00 00	 jmp	 PyErr_NoMemory
$LN1@datetime_a:

; 632  :         return (PyObject *)PyErr_NoMemory();
; 633  :     PyObject_INIT(self, type);

  0002e	48 8b d7	 mov	 rdx, rdi
  00031	48 8b c8	 mov	 rcx, rax
  00034	e8 00 00 00 00	 call	 PyObject_INIT

; 634  :     return self;

  00039	48 8b c3	 mov	 rax, rbx

; 635  : }

  0003c	48 8b 5c 24 30	 mov	 rbx, QWORD PTR [rsp+48]
  00041	48 83 c4 20	 add	 rsp, 32			; 00000020H
  00045	5f		 pop	 rdi
  00046	c3		 ret	 0
datetime_alloc ENDP
; Function compile flags: /Ogtpy
_TEXT	ENDS
;	COMDAT set_date_fields
_TEXT	SEGMENT
self$ = 8
y$ = 16
m$ = 24
d$ = 32
set_date_fields PROC					; COMDAT

; 646  :     self->hashcode = -1;
; 647  :     SET_YEAR(self, y);

  00000	8b c2		 mov	 eax, edx
  00002	48 c7 41 60 ff
	ff ff ff	 mov	 QWORD PTR [rcx+96], -1
  0000a	88 51 6a	 mov	 BYTE PTR [rcx+106], dl
  0000d	c1 f8 08	 sar	 eax, 8

; 648  :     SET_MONTH(self, m);

  00010	44 88 41 6b	 mov	 BYTE PTR [rcx+107], r8b

; 649  :     SET_DAY(self, d);

  00014	44 88 49 6c	 mov	 BYTE PTR [rcx+108], r9b
  00018	88 41 69	 mov	 BYTE PTR [rcx+105], al

; 650  : }

  0001b	c3		 ret	 0
set_date_fields ENDP
_TEXT	ENDS
;	COMDAT pdata
pdata	SEGMENT
$pdata$new_date_ex DD imagerel new_date_ex
	DD	imagerel new_date_ex+74
	DD	imagerel $unwind$new_date_ex
pdata	ENDS
;	COMDAT xdata
xdata	SEGMENT
$unwind$new_date_ex DD 060f01H
	DD	07640fH
	DD	06340fH
	DD	0700b320fH
; Function compile flags: /Ogtpy
xdata	ENDS
;	COMDAT new_date_ex
_TEXT	SEGMENT
year$ = 48
month$ = 56
day$ = 64
type$ = 72
new_date_ex PROC					; COMDAT

; 659  : {

  00000	48 89 5c 24 08	 mov	 QWORD PTR [rsp+8], rbx
  00005	48 89 74 24 10	 mov	 QWORD PTR [rsp+16], rsi
  0000a	57		 push	 rdi
  0000b	48 83 ec 20	 sub	 rsp, 32			; 00000020H
  0000f	8b fa		 mov	 edi, edx
  00011	8b f1		 mov	 esi, ecx

; 660  :     PyDateTime_Date *self;
; 661  : 
; 662  :     self = (PyDateTime_Date *) (type->tp_alloc(type, 0));

  00013	33 d2		 xor	 edx, edx
  00015	49 8b c9	 mov	 rcx, r9
  00018	41 8b d8	 mov	 ebx, r8d
  0001b	41 ff 91 88 01
	00 00		 call	 QWORD PTR [r9+392]
  00022	48 8b c8	 mov	 rcx, rax

; 663  :     if (self != NULL)

  00025	48 85 c0	 test	 rax, rax
  00028	74 10		 je	 SHORT $LN1@new_date_e

; 664  :         set_date_fields(self, year, month, day);

  0002a	44 8b cb	 mov	 r9d, ebx
  0002d	44 8b c7	 mov	 r8d, edi
  00030	8b d6		 mov	 edx, esi
  00032	e8 00 00 00 00	 call	 set_date_fields

; 665  :     return (PyObject *) self;

  00037	48 8b c1	 mov	 rax, rcx
$LN1@new_date_e:

; 666  : }

  0003a	48 8b 5c 24 30	 mov	 rbx, QWORD PTR [rsp+48]
  0003f	48 8b 74 24 38	 mov	 rsi, QWORD PTR [rsp+56]
  00044	48 83 c4 20	 add	 rsp, 32			; 00000020H
  00048	5f		 pop	 rdi
  00049	c3		 ret	 0
new_date_ex ENDP
_TEXT	ENDS
EXTRN	_Py_NoneStruct:BYTE
;	COMDAT pdata
; File c:\src\pyparallel\include\object.h
pdata	SEGMENT
$pdata$new_datetime_ex DD imagerel new_datetime_ex
	DD	imagerel new_datetime_ex+266
	DD	imagerel $unwind$new_datetime_ex
pdata	ENDS
;	COMDAT xdata
xdata	SEGMENT
$unwind$new_datetime_ex DD 0c1e01H
	DD	0d741eH
	DD	0c641eH
	DD	0b541eH
	DD	0a341eH
	DD	0e01a521eH
	DD	0c016d018H
; Function compile flags: /Ogtpy
; File c:\src\pyparallel\modules\_datetimemodule.c
xdata	ENDS
;	COMDAT new_datetime_ex
_TEXT	SEGMENT
year$ = 80
month$ = 88
day$ = 96
hour$ = 104
minute$ = 112
second$ = 120
usecond$ = 128
tzinfo$ = 136
type$ = 144
new_datetime_ex PROC					; COMDAT

; 675  : {

  00000	48 89 5c 24 08	 mov	 QWORD PTR [rsp+8], rbx
  00005	48 89 6c 24 10	 mov	 QWORD PTR [rsp+16], rbp
  0000a	48 89 74 24 18	 mov	 QWORD PTR [rsp+24], rsi
  0000f	48 89 7c 24 20	 mov	 QWORD PTR [rsp+32], rdi
  00014	41 54		 push	 r12
  00016	41 55		 push	 r13
  00018	41 56		 push	 r14
  0001a	48 83 ec 30	 sub	 rsp, 48			; 00000030H

; 676  :     PyDateTime_DateTime *self;
; 677  :     char aware = tzinfo != Py_None;

  0001e	48 8b bc 24 88
	00 00 00	 mov	 rdi, QWORD PTR tzinfo$[rsp]
  00026	48 8d 05 00 00
	00 00		 lea	 rax, OFFSET FLAT:_Py_NoneStruct
  0002d	44 8b ea	 mov	 r13d, edx
  00030	48 3b f8	 cmp	 rdi, rax

; 678  : 
; 679  :     self = (PyDateTime_DateTime *) (type->tp_alloc(type, aware));

  00033	48 8b 84 24 90
	00 00 00	 mov	 rax, QWORD PTR type$[rsp]
  0003b	44 8b f1	 mov	 r14d, ecx
  0003e	40 0f 95 c6	 setne	 sil
  00042	48 8b c8	 mov	 rcx, rax
  00045	41 8b e9	 mov	 ebp, r9d
  00048	48 0f be d6	 movsx	 rdx, sil
  0004c	45 8b e0	 mov	 r12d, r8d
  0004f	ff 90 88 01 00
	00		 call	 QWORD PTR [rax+392]
  00055	48 8b d8	 mov	 rbx, rax

; 680  :     if (self != NULL) {

  00058	48 85 c0	 test	 rax, rax
  0005b	0f 84 8a 00 00
	00		 je	 $LN1@new_dateti

; 681  :         self->hastzinfo = aware;
; 682  :         set_date_fields((PyDateTime_Date *)self, year, month, day);

  00061	45 8b cc	 mov	 r9d, r12d
  00064	45 8b c5	 mov	 r8d, r13d
  00067	41 8b d6	 mov	 edx, r14d
  0006a	48 8b c8	 mov	 rcx, rax
  0006d	40 88 70 68	 mov	 BYTE PTR [rax+104], sil
  00071	e8 00 00 00 00	 call	 set_date_fields

; 683  :         DATE_SET_HOUR(self, hour);

  00076	40 88 69 6d	 mov	 BYTE PTR [rcx+109], bpl

; 684  :         DATE_SET_MINUTE(self, minute);

  0007a	0f b6 4c 24 70	 movzx	 ecx, BYTE PTR minute$[rsp]
  0007f	88 4b 6e	 mov	 BYTE PTR [rbx+110], cl

; 685  :         DATE_SET_SECOND(self, second);

  00082	0f b6 4c 24 78	 movzx	 ecx, BYTE PTR second$[rsp]
  00087	88 4b 6f	 mov	 BYTE PTR [rbx+111], cl

; 686  :         DATE_SET_MICROSECOND(self, usecond);

  0008a	8b 8c 24 80 00
	00 00		 mov	 ecx, DWORD PTR usecond$[rsp]
  00091	8b c1		 mov	 eax, ecx
  00093	88 4b 72	 mov	 BYTE PTR [rbx+114], cl
  00096	c1 f8 10	 sar	 eax, 16
  00099	88 43 70	 mov	 BYTE PTR [rbx+112], al
  0009c	8b c1		 mov	 eax, ecx
  0009e	c1 f8 08	 sar	 eax, 8
  000a1	88 43 71	 mov	 BYTE PTR [rbx+113], al

; 687  :         if (aware) {

  000a4	40 84 f6	 test	 sil, sil
  000a7	74 3f		 je	 SHORT $LN9@new_dateti

; 688  :             Py_INCREF(tzinfo);

  000a9	e8 00 00 00 00	 call	 _Py_PXCTX
  000ae	85 c0		 test	 eax, eax
  000b0	75 32		 jne	 SHORT $LN6@new_dateti
  000b2	48 8d 15 00 00
	00 00		 lea	 rdx, OFFSET FLAT:??_C@_0CD@HDJFDCDP@c?3?2src?2pyparallel?2include?2object@
  000b9	48 8d 0d 00 00
	00 00		 lea	 rcx, OFFSET FLAT:??_C@_0L@DHGMCEID@_Py_IncRef?$AA@
  000c0	4c 8b cf	 mov	 r9, rdi
  000c3	41 b8 89 03 00
	00		 mov	 r8d, 905		; 00000389H
  000c9	c7 44 24 20 02
	00 00 00	 mov	 DWORD PTR [rsp+32], 2
  000d1	e8 00 00 00 00	 call	 _PyParallel_Guard
  000d6	85 c0		 test	 eax, eax
  000d8	75 06		 jne	 SHORT $LN5@new_dateti
  000da	f6 47 20 20	 test	 BYTE PTR [rdi+32], 32	; 00000020H
  000de	74 04		 je	 SHORT $LN6@new_dateti
$LN5@new_dateti:
  000e0	48 ff 47 50	 inc	 QWORD PTR [rdi+80]
$LN6@new_dateti:

; 689  :             self->tzinfo = tzinfo;

  000e4	48 89 7b 78	 mov	 QWORD PTR [rbx+120], rdi
$LN9@new_dateti:

; 690  :         }
; 691  :     }
; 692  :     return (PyObject *)self;

  000e8	48 8b c3	 mov	 rax, rbx
$LN1@new_dateti:

; 693  : }

  000eb	48 8b 5c 24 50	 mov	 rbx, QWORD PTR [rsp+80]
  000f0	48 8b 6c 24 58	 mov	 rbp, QWORD PTR [rsp+88]
  000f5	48 8b 74 24 60	 mov	 rsi, QWORD PTR [rsp+96]
  000fa	48 8b 7c 24 68	 mov	 rdi, QWORD PTR [rsp+104]
  000ff	48 83 c4 30	 add	 rsp, 48			; 00000030H
  00103	41 5e		 pop	 r14
  00105	41 5d		 pop	 r13
  00107	41 5c		 pop	 r12
  00109	c3		 ret	 0
new_datetime_ex ENDP
_TEXT	ENDS
;	COMDAT pdata
; File c:\src\pyparallel\include\object.h
pdata	SEGMENT
$pdata$new_time_ex DD imagerel new_time_ex
	DD	imagerel new_time_ex+233
	DD	imagerel $unwind$new_time_ex
pdata	ENDS
;	COMDAT xdata
xdata	SEGMENT
$unwind$new_time_ex DD 0c1e01H
	DD	0d741eH
	DD	0c641eH
	DD	0b541eH
	DD	0a341eH
	DD	0e01a521eH
	DD	0c016d018H
; Function compile flags: /Ogtpy
; File c:\src\pyparallel\modules\_datetimemodule.c
xdata	ENDS
;	COMDAT new_time_ex
_TEXT	SEGMENT
hour$ = 80
minute$ = 88
second$ = 96
usecond$ = 104
tzinfo$ = 112
type$ = 120
new_time_ex PROC					; COMDAT

; 703  : {

  00000	48 89 5c 24 08	 mov	 QWORD PTR [rsp+8], rbx
  00005	48 89 6c 24 10	 mov	 QWORD PTR [rsp+16], rbp
  0000a	48 89 74 24 18	 mov	 QWORD PTR [rsp+24], rsi
  0000f	48 89 7c 24 20	 mov	 QWORD PTR [rsp+32], rdi
  00014	41 54		 push	 r12
  00016	41 55		 push	 r13
  00018	41 56		 push	 r14
  0001a	48 83 ec 30	 sub	 rsp, 48			; 00000030H

; 704  :     PyDateTime_Time *self;
; 705  :     char aware = tzinfo != Py_None;

  0001e	48 8b 7c 24 70	 mov	 rdi, QWORD PTR tzinfo$[rsp]
  00023	48 8d 05 00 00
	00 00		 lea	 rax, OFFSET FLAT:_Py_NoneStruct
  0002a	44 8b ea	 mov	 r13d, edx
  0002d	48 3b f8	 cmp	 rdi, rax

; 706  : 
; 707  :     self = (PyDateTime_Time *) (type->tp_alloc(type, aware));

  00030	48 8b 44 24 78	 mov	 rax, QWORD PTR type$[rsp]
  00035	44 8b f1	 mov	 r14d, ecx
  00038	40 0f 95 c5	 setne	 bpl
  0003c	48 8b c8	 mov	 rcx, rax
  0003f	41 8b f1	 mov	 esi, r9d
  00042	48 0f be d5	 movsx	 rdx, bpl
  00046	45 8b e0	 mov	 r12d, r8d
  00049	ff 90 88 01 00
	00		 call	 QWORD PTR [rax+392]
  0004f	48 8b d8	 mov	 rbx, rax

; 708  :     if (self != NULL) {

  00052	48 85 c0	 test	 rax, rax
  00055	74 73		 je	 SHORT $LN1@new_time_e

; 709  :         self->hastzinfo = aware;
; 710  :         self->hashcode = -1;
; 711  :         TIME_SET_HOUR(self, hour);
; 712  :         TIME_SET_MINUTE(self, minute);
; 713  :         TIME_SET_SECOND(self, second);
; 714  :         TIME_SET_MICROSECOND(self, usecond);

  00057	8b ce		 mov	 ecx, esi
  00059	40 88 68 68	 mov	 BYTE PTR [rax+104], bpl
  0005d	48 c7 40 60 ff
	ff ff ff	 mov	 QWORD PTR [rax+96], -1
  00065	c1 f9 10	 sar	 ecx, 16
  00068	44 88 70 69	 mov	 BYTE PTR [rax+105], r14b
  0006c	44 88 68 6a	 mov	 BYTE PTR [rax+106], r13b
  00070	88 48 6c	 mov	 BYTE PTR [rax+108], cl
  00073	8b ce		 mov	 ecx, esi
  00075	44 88 60 6b	 mov	 BYTE PTR [rax+107], r12b
  00079	c1 f9 08	 sar	 ecx, 8
  0007c	40 88 70 6e	 mov	 BYTE PTR [rax+110], sil
  00080	88 48 6d	 mov	 BYTE PTR [rax+109], cl

; 715  :         if (aware) {

  00083	40 84 ed	 test	 bpl, bpl
  00086	74 42		 je	 SHORT $LN1@new_time_e

; 716  :             Py_INCREF(tzinfo);

  00088	e8 00 00 00 00	 call	 _Py_PXCTX
  0008d	85 c0		 test	 eax, eax
  0008f	75 32		 jne	 SHORT $LN6@new_time_e
  00091	48 8d 15 00 00
	00 00		 lea	 rdx, OFFSET FLAT:??_C@_0CD@HDJFDCDP@c?3?2src?2pyparallel?2include?2object@
  00098	48 8d 0d 00 00
	00 00		 lea	 rcx, OFFSET FLAT:??_C@_0L@DHGMCEID@_Py_IncRef?$AA@
  0009f	4c 8b cf	 mov	 r9, rdi
  000a2	41 b8 89 03 00
	00		 mov	 r8d, 905		; 00000389H
  000a8	c7 44 24 20 02
	00 00 00	 mov	 DWORD PTR [rsp+32], 2
  000b0	e8 00 00 00 00	 call	 _PyParallel_Guard
  000b5	85 c0		 test	 eax, eax
  000b7	75 06		 jne	 SHORT $LN5@new_time_e
  000b9	f6 47 20 20	 test	 BYTE PTR [rdi+32], 32	; 00000020H
  000bd	74 04		 je	 SHORT $LN6@new_time_e
$LN5@new_time_e:
  000bf	48 ff 47 50	 inc	 QWORD PTR [rdi+80]
$LN6@new_time_e:

; 717  :             self->tzinfo = tzinfo;

  000c3	48 89 7b 70	 mov	 QWORD PTR [rbx+112], rdi

; 718  :         }
; 719  :     }
; 720  :     return (PyObject *)self;

  000c7	48 8b c3	 mov	 rax, rbx
$LN1@new_time_e:

; 721  : }

  000ca	48 8b 5c 24 50	 mov	 rbx, QWORD PTR [rsp+80]
  000cf	48 8b 6c 24 58	 mov	 rbp, QWORD PTR [rsp+88]
  000d4	48 8b 74 24 60	 mov	 rsi, QWORD PTR [rsp+96]
  000d9	48 8b 7c 24 68	 mov	 rdi, QWORD PTR [rsp+104]
  000de	48 83 c4 30	 add	 rsp, 48			; 00000030H
  000e2	41 5e		 pop	 r14
  000e4	41 5d		 pop	 r13
  000e6	41 5c		 pop	 r12
  000e8	c3		 ret	 0
new_time_ex ENDP
_TEXT	ENDS
;	COMDAT pdata
pdata	SEGMENT
$pdata$new_delta_ex DD imagerel new_delta_ex
	DD	imagerel new_delta_ex+131
	DD	imagerel $unwind$new_delta_ex
pdata	ENDS
;	COMDAT xdata
xdata	SEGMENT
$unwind$new_delta_ex DD 041401H
	DD	070103214H
	DD	0300e600fH
; Function compile flags: /Ogtpy
xdata	ENDS
;	COMDAT new_delta_ex
_TEXT	SEGMENT
days$ = 64
seconds$ = 72
microseconds$ = 80
normalize$ = 88
type$ = 96
new_delta_ex PROC					; COMDAT

; 735  : {

  00000	44 89 44 24 18	 mov	 DWORD PTR [rsp+24], r8d
  00005	89 54 24 10	 mov	 DWORD PTR [rsp+16], edx
  00009	89 4c 24 08	 mov	 DWORD PTR [rsp+8], ecx
  0000d	53		 push	 rbx
  0000e	56		 push	 rsi
  0000f	57		 push	 rdi
  00010	48 83 ec 20	 sub	 rsp, 32			; 00000020H
  00014	41 8b f8	 mov	 edi, r8d
  00017	8b f2		 mov	 esi, edx
  00019	8b d9		 mov	 ebx, ecx

; 736  :     PyDateTime_Delta *self;
; 737  : 
; 738  :     if (normalize)

  0001b	45 85 c9	 test	 r9d, r9d
  0001e	74 20		 je	 SHORT $LN3@new_delta_

; 739  :         normalize_d_s_us(&days, &seconds, &microseconds);

  00020	4c 8d 44 24 50	 lea	 r8, QWORD PTR microseconds$[rsp]
  00025	48 8d 54 24 48	 lea	 rdx, QWORD PTR seconds$[rsp]
  0002a	48 8d 4c 24 40	 lea	 rcx, QWORD PTR days$[rsp]
  0002f	e8 00 00 00 00	 call	 normalize_d_s_us
  00034	8b 7c 24 50	 mov	 edi, DWORD PTR microseconds$[rsp]
  00038	8b 74 24 48	 mov	 esi, DWORD PTR seconds$[rsp]
  0003c	8b 5c 24 40	 mov	 ebx, DWORD PTR days$[rsp]
$LN3@new_delta_:

; 740  :     assert(0 <= seconds && seconds < 24*3600);
; 741  :     assert(0 <= microseconds && microseconds < 1000000);
; 742  : 
; 743  :     if (check_delta_day_range(days) < 0)

  00040	8b cb		 mov	 ecx, ebx
  00042	e8 00 00 00 00	 call	 check_delta_day_range
  00047	85 c0		 test	 eax, eax
  00049	79 0a		 jns	 SHORT $LN2@new_delta_

; 744  :         return NULL;

  0004b	33 c0		 xor	 eax, eax

; 752  :     }
; 753  :     return (PyObject *) self;
; 754  : }

  0004d	48 83 c4 20	 add	 rsp, 32			; 00000020H
  00051	5f		 pop	 rdi
  00052	5e		 pop	 rsi
  00053	5b		 pop	 rbx
  00054	c3		 ret	 0
$LN2@new_delta_:

; 745  : 
; 746  :     self = (PyDateTime_Delta *) (type->tp_alloc(type, 0));

  00055	48 8b 44 24 60	 mov	 rax, QWORD PTR type$[rsp]
  0005a	33 d2		 xor	 edx, edx
  0005c	48 8b c8	 mov	 rcx, rax
  0005f	ff 90 88 01 00
	00		 call	 QWORD PTR [rax+392]

; 747  :     if (self != NULL) {

  00065	48 85 c0	 test	 rax, rax
  00068	74 11		 je	 SHORT $LN1@new_delta_

; 748  :         self->hashcode = -1;

  0006a	48 c7 40 60 ff
	ff ff ff	 mov	 QWORD PTR [rax+96], -1

; 749  :         SET_TD_DAYS(self, days);

  00072	89 58 68	 mov	 DWORD PTR [rax+104], ebx

; 750  :         SET_TD_SECONDS(self, seconds);

  00075	89 70 6c	 mov	 DWORD PTR [rax+108], esi

; 751  :         SET_TD_MICROSECONDS(self, microseconds);

  00078	89 78 70	 mov	 DWORD PTR [rax+112], edi
$LN1@new_delta_:

; 752  :     }
; 753  :     return (PyObject *) self;
; 754  : }

  0007b	48 83 c4 20	 add	 rsp, 32			; 00000020H
  0007f	5f		 pop	 rdi
  00080	5e		 pop	 rsi
  00081	5b		 pop	 rbx
  00082	c3		 ret	 0
new_delta_ex ENDP
_TEXT	ENDS
;	COMDAT pdata
; File c:\src\pyparallel\include\object.h
pdata	SEGMENT
$pdata$create_timezone DD imagerel create_timezone
	DD	imagerel create_timezone+210
	DD	imagerel $unwind$create_timezone
pdata	ENDS
;	COMDAT xdata
xdata	SEGMENT
$unwind$create_timezone DD 060f01H
	DD	09640fH
	DD	08340fH
	DD	0700b520fH
; Function compile flags: /Ogtpy
; File c:\src\pyparallel\modules\_datetimemodule.c
xdata	ENDS
;	COMDAT create_timezone
_TEXT	SEGMENT
offset$ = 64
name$ = 72
create_timezone PROC					; COMDAT

; 778  : {

  00000	48 89 5c 24 08	 mov	 QWORD PTR [rsp+8], rbx
  00005	48 89 74 24 10	 mov	 QWORD PTR [rsp+16], rsi
  0000a	57		 push	 rdi
  0000b	48 83 ec 30	 sub	 rsp, 48			; 00000030H
  0000f	48 8b f1	 mov	 rsi, rcx
  00012	48 8b da	 mov	 rbx, rdx

; 779  :     PyDateTime_TimeZone *self;
; 780  :     PyTypeObject *type = &PyDateTime_TimeZoneType;
; 781  : 
; 782  :     assert(offset != NULL);
; 783  :     assert(PyDelta_Check(offset));
; 784  :     assert(name == NULL || PyUnicode_Check(name));
; 785  : 
; 786  :     self = (PyDateTime_TimeZone *)(type->tp_alloc(type, 0));

  00015	48 8d 0d 00 00
	00 00		 lea	 rcx, OFFSET FLAT:PyDateTime_TimeZoneType
  0001c	33 d2		 xor	 edx, edx
  0001e	ff 15 88 01 00
	00		 call	 QWORD PTR PyDateTime_TimeZoneType+392
  00024	48 8b f8	 mov	 rdi, rax

; 787  :     if (self == NULL) {

  00027	48 85 c0	 test	 rax, rax
  0002a	75 10		 jne	 SHORT $LN5@create_tim

; 793  :     self->name = name;
; 794  :     return (PyObject *)self;
; 795  : }

  0002c	48 8b 5c 24 40	 mov	 rbx, QWORD PTR [rsp+64]
  00031	48 8b 74 24 48	 mov	 rsi, QWORD PTR [rsp+72]
  00036	48 83 c4 30	 add	 rsp, 48			; 00000030H
  0003a	5f		 pop	 rdi
  0003b	c3		 ret	 0
$LN5@create_tim:

; 788  :         return NULL;
; 789  :     }
; 790  :     Py_INCREF(offset);

  0003c	e8 00 00 00 00	 call	 _Py_PXCTX
  00041	85 c0		 test	 eax, eax
  00043	75 32		 jne	 SHORT $LN9@create_tim
  00045	48 8d 15 00 00
	00 00		 lea	 rdx, OFFSET FLAT:??_C@_0CD@HDJFDCDP@c?3?2src?2pyparallel?2include?2object@
  0004c	48 8d 0d 00 00
	00 00		 lea	 rcx, OFFSET FLAT:??_C@_0L@DHGMCEID@_Py_IncRef?$AA@
  00053	4c 8b ce	 mov	 r9, rsi
  00056	41 b8 89 03 00
	00		 mov	 r8d, 905		; 00000389H
  0005c	c7 44 24 20 02
	00 00 00	 mov	 DWORD PTR [rsp+32], 2
  00064	e8 00 00 00 00	 call	 _PyParallel_Guard
  00069	85 c0		 test	 eax, eax
  0006b	75 06		 jne	 SHORT $LN8@create_tim
  0006d	f6 46 20 20	 test	 BYTE PTR [rsi+32], 32	; 00000020H
  00071	74 04		 je	 SHORT $LN9@create_tim
$LN8@create_tim:
  00073	48 ff 46 50	 inc	 QWORD PTR [rsi+80]
$LN9@create_tim:

; 791  :     self->offset = offset;

  00077	48 89 77 60	 mov	 QWORD PTR [rdi+96], rsi

; 792  :     Py_XINCREF(name);

  0007b	48 85 db	 test	 rbx, rbx
  0007e	74 3b		 je	 SHORT $LN3@create_tim
  00080	e8 00 00 00 00	 call	 _Py_PXCTX
  00085	85 c0		 test	 eax, eax
  00087	75 32		 jne	 SHORT $LN3@create_tim
  00089	48 8d 15 00 00
	00 00		 lea	 rdx, OFFSET FLAT:??_C@_0CD@HDJFDCDP@c?3?2src?2pyparallel?2include?2object@
  00090	48 8d 0d 00 00
	00 00		 lea	 rcx, OFFSET FLAT:??_C@_0L@DHGMCEID@_Py_IncRef?$AA@
  00097	4c 8b cb	 mov	 r9, rbx
  0009a	41 b8 89 03 00
	00		 mov	 r8d, 905		; 00000389H
  000a0	c7 44 24 20 02
	00 00 00	 mov	 DWORD PTR [rsp+32], 2
  000a8	e8 00 00 00 00	 call	 _PyParallel_Guard
  000ad	85 c0		 test	 eax, eax
  000af	75 06		 jne	 SHORT $LN12@create_tim
  000b1	f6 43 20 20	 test	 BYTE PTR [rbx+32], 32	; 00000020H
  000b5	74 04		 je	 SHORT $LN3@create_tim
$LN12@create_tim:
  000b7	48 ff 43 50	 inc	 QWORD PTR [rbx+80]
$LN3@create_tim:

; 793  :     self->name = name;
; 794  :     return (PyObject *)self;
; 795  : }

  000bb	48 8b 74 24 48	 mov	 rsi, QWORD PTR [rsp+72]
  000c0	48 89 5f 68	 mov	 QWORD PTR [rdi+104], rbx
  000c4	48 8b 5c 24 40	 mov	 rbx, QWORD PTR [rsp+64]
  000c9	48 8b c7	 mov	 rax, rdi
  000cc	48 83 c4 30	 add	 rsp, 48			; 00000030H
  000d0	5f		 pop	 rdi
  000d1	c3		 ret	 0
create_timezone ENDP
_TEXT	ENDS
PUBLIC	??_C@_0EE@GAPMMBNH@tzinfo?5argument?5must?5be?5None?5or?5@ ; `string'
EXTRN	PyExc_TypeError:QWORD
EXTRN	PyType_IsSubtype:PROC
;	COMDAT pdata
pdata	SEGMENT
$pdata$check_tzinfo_subclass DD imagerel check_tzinfo_subclass
	DD	imagerel check_tzinfo_subclass+90
	DD	imagerel $unwind$check_tzinfo_subclass
pdata	ENDS
;	COMDAT xdata
xdata	SEGMENT
$unwind$check_tzinfo_subclass DD 020601H
	DD	030023206H
xdata	ENDS
;	COMDAT ??_C@_0EE@GAPMMBNH@tzinfo?5argument?5must?5be?5None?5or?5@
CONST	SEGMENT
??_C@_0EE@GAPMMBNH@tzinfo?5argument?5must?5be?5None?5or?5@ DB 'tzinfo arg'
	DB	'ument must be None or of a tzinfo subclass, not type ''%s''', 00H ; `string'
; Function compile flags: /Ogtpy
CONST	ENDS
;	COMDAT check_tzinfo_subclass
_TEXT	SEGMENT
p$ = 48
check_tzinfo_subclass PROC				; COMDAT

; 837  : {

  00000	40 53		 push	 rbx
  00002	48 83 ec 20	 sub	 rsp, 32			; 00000020H

; 838  :     if (p == Py_None || PyTZInfo_Check(p))

  00006	48 8d 05 00 00
	00 00		 lea	 rax, OFFSET FLAT:_Py_NoneStruct
  0000d	48 8b d9	 mov	 rbx, rcx
  00010	48 3b c8	 cmp	 rcx, rax
  00013	74 3d		 je	 SHORT $LN1@check_tzin
  00015	48 8b 49 58	 mov	 rcx, QWORD PTR [rcx+88]
  00019	48 8d 15 00 00
	00 00		 lea	 rdx, OFFSET FLAT:PyDateTime_TZInfoType
  00020	48 3b ca	 cmp	 rcx, rdx
  00023	74 2d		 je	 SHORT $LN1@check_tzin
  00025	e8 00 00 00 00	 call	 PyType_IsSubtype
  0002a	85 c0		 test	 eax, eax
  0002c	75 24		 jne	 SHORT $LN1@check_tzin

; 840  :     PyErr_Format(PyExc_TypeError,
; 841  :                  "tzinfo argument must be None or of a tzinfo subclass, "
; 842  :                  "not type '%s'",
; 843  :                  Py_TYPE(p)->tp_name);

  0002e	4c 8b 43 58	 mov	 r8, QWORD PTR [rbx+88]
  00032	48 8b 0d 00 00
	00 00		 mov	 rcx, QWORD PTR PyExc_TypeError
  00039	48 8d 15 00 00
	00 00		 lea	 rdx, OFFSET FLAT:??_C@_0EE@GAPMMBNH@tzinfo?5argument?5must?5be?5None?5or?5@
  00040	4d 8b 40 70	 mov	 r8, QWORD PTR [r8+112]
  00044	e8 00 00 00 00	 call	 PyErr_Format

; 844  :     return -1;

  00049	83 c8 ff	 or	 eax, -1

; 845  : }

  0004c	48 83 c4 20	 add	 rsp, 32			; 00000020H
  00050	5b		 pop	 rbx
  00051	c3		 ret	 0
$LN1@check_tzin:

; 839  :         return 0;

  00052	33 c0		 xor	 eax, eax

; 845  : }

  00054	48 83 c4 20	 add	 rsp, 32			; 00000020H
  00058	5b		 pop	 rbx
  00059	c3		 ret	 0
check_tzinfo_subclass ENDP
_TEXT	ENDS
;	COMDAT pdata
pdata	SEGMENT
$pdata$get_tzinfo_member DD imagerel get_tzinfo_member
	DD	imagerel get_tzinfo_member+99
	DD	imagerel $unwind$get_tzinfo_member
pdata	ENDS
;	COMDAT xdata
xdata	SEGMENT
$unwind$get_tzinfo_member DD 020601H
	DD	030023206H
; Function compile flags: /Ogtpy
xdata	ENDS
;	COMDAT get_tzinfo_member
_TEXT	SEGMENT
self$ = 48
get_tzinfo_member PROC					; COMDAT

; 853  : {

  00000	40 53		 push	 rbx
  00002	48 83 ec 20	 sub	 rsp, 32			; 00000020H
  00006	48 8b d9	 mov	 rbx, rcx

; 854  :     PyObject *tzinfo = NULL;
; 855  : 
; 856  :     if (PyDateTime_Check(self) && HASTZINFO(self))

  00009	48 8b 49 58	 mov	 rcx, QWORD PTR [rcx+88]
  0000d	48 8d 15 00 00
	00 00		 lea	 rdx, OFFSET FLAT:PyDateTime_DateTimeType
  00014	48 3b ca	 cmp	 rcx, rdx
  00017	74 09		 je	 SHORT $LN4@get_tzinfo
  00019	e8 00 00 00 00	 call	 PyType_IsSubtype
  0001e	85 c0		 test	 eax, eax
  00020	74 10		 je	 SHORT $LN5@get_tzinfo
$LN4@get_tzinfo:
  00022	80 7b 68 00	 cmp	 BYTE PTR [rbx+104], 0
  00026	74 0a		 je	 SHORT $LN5@get_tzinfo

; 859  :         tzinfo = ((PyDateTime_Time *)self)->tzinfo;
; 860  : 
; 861  :     return tzinfo;

  00028	48 8b 43 78	 mov	 rax, QWORD PTR [rbx+120]

; 862  : }

  0002c	48 83 c4 20	 add	 rsp, 32			; 00000020H
  00030	5b		 pop	 rbx
  00031	c3		 ret	 0
$LN5@get_tzinfo:

; 857  :         tzinfo = ((PyDateTime_DateTime *)self)->tzinfo;
; 858  :     else if (PyTime_Check(self) && HASTZINFO(self))

  00032	48 8b 4b 58	 mov	 rcx, QWORD PTR [rbx+88]
  00036	48 8d 15 00 00
	00 00		 lea	 rdx, OFFSET FLAT:PyDateTime_TimeType
  0003d	48 3b ca	 cmp	 rcx, rdx
  00040	74 09		 je	 SHORT $LN1@get_tzinfo
  00042	e8 00 00 00 00	 call	 PyType_IsSubtype
  00047	85 c0		 test	 eax, eax
  00049	74 10		 je	 SHORT $LN9@get_tzinfo
$LN1@get_tzinfo:
  0004b	80 7b 68 00	 cmp	 BYTE PTR [rbx+104], 0
  0004f	74 0a		 je	 SHORT $LN9@get_tzinfo

; 859  :         tzinfo = ((PyDateTime_Time *)self)->tzinfo;
; 860  : 
; 861  :     return tzinfo;

  00051	48 8b 43 70	 mov	 rax, QWORD PTR [rbx+112]

; 862  : }

  00055	48 83 c4 20	 add	 rsp, 32			; 00000020H
  00059	5b		 pop	 rbx
  0005a	c3		 ret	 0
$LN9@get_tzinfo:

; 859  :         tzinfo = ((PyDateTime_Time *)self)->tzinfo;
; 860  : 
; 861  :     return tzinfo;

  0005b	33 c0		 xor	 eax, eax

; 862  : }

  0005d	48 83 c4 20	 add	 rsp, 32			; 00000020H
  00061	5b		 pop	 rbx
  00062	c3		 ret	 0
get_tzinfo_member ENDP
_TEXT	ENDS
PUBLIC	??_C@_0EC@KJOMKDID@offset?5must?5be?5a?5timedelta?5repre@ ; `string'
PUBLIC	??_C@_0FK@GNEMBLOI@offset?5must?5be?5a?5timedelta?5stric@ ; `string'
PUBLIC	??_C@_0DI@CJHONLAB@tzinfo?4?$CFs?$CI?$CJ?5must?5return?5None?5or?5@ ; `string'
PUBLIC	??_C@_01MJMHLOMK@O?$AA@				; `string'
EXTRN	PyObject_CallMethod:PROC
;	COMDAT pdata
; File c:\src\pyparallel\include\object.h
pdata	SEGMENT
$pdata$call_tzinfo_method DD imagerel call_tzinfo_method
	DD	imagerel call_tzinfo_method+114
	DD	imagerel $unwind$call_tzinfo_method
pdata	ENDS
;	COMDAT pdata
pdata	SEGMENT
$pdata$0$call_tzinfo_method DD imagerel call_tzinfo_method+114
	DD	imagerel call_tzinfo_method+226
	DD	imagerel $chain$0$call_tzinfo_method
pdata	ENDS
;	COMDAT pdata
pdata	SEGMENT
$pdata$2$call_tzinfo_method DD imagerel call_tzinfo_method+226
	DD	imagerel call_tzinfo_method+301
	DD	imagerel $chain$2$call_tzinfo_method
pdata	ENDS
;	COMDAT pdata
pdata	SEGMENT
$pdata$4$call_tzinfo_method DD imagerel call_tzinfo_method+301
	DD	imagerel call_tzinfo_method+363
	DD	imagerel $chain$4$call_tzinfo_method
pdata	ENDS
;	COMDAT xdata
xdata	SEGMENT
$chain$4$call_tzinfo_method DD 020021H
	DD	083400H
	DD	imagerel call_tzinfo_method
	DD	imagerel call_tzinfo_method+114
	DD	imagerel $unwind$call_tzinfo_method
xdata	ENDS
;	COMDAT xdata
xdata	SEGMENT
$chain$2$call_tzinfo_method DD 020021H
	DD	083400H
	DD	imagerel call_tzinfo_method
	DD	imagerel call_tzinfo_method+114
	DD	imagerel $unwind$call_tzinfo_method
xdata	ENDS
;	COMDAT xdata
xdata	SEGMENT
$chain$0$call_tzinfo_method DD 020521H
	DD	083405H
	DD	imagerel call_tzinfo_method
	DD	imagerel call_tzinfo_method+114
	DD	imagerel $unwind$call_tzinfo_method
xdata	ENDS
;	COMDAT xdata
xdata	SEGMENT
$unwind$call_tzinfo_method DD 040a01H
	DD	09640aH
	DD	07006520aH
xdata	ENDS
;	COMDAT ??_C@_0EC@KJOMKDID@offset?5must?5be?5a?5timedelta?5repre@
CONST	SEGMENT
??_C@_0EC@KJOMKDID@offset?5must?5be?5a?5timedelta?5repre@ DB 'offset must'
	DB	' be a timedelta representing a whole number of minutes', 00H ; `string'
CONST	ENDS
;	COMDAT ??_C@_0FK@GNEMBLOI@offset?5must?5be?5a?5timedelta?5stric@
CONST	SEGMENT
??_C@_0FK@GNEMBLOI@offset?5must?5be?5a?5timedelta?5stric@ DB 'offset must'
	DB	' be a timedelta strictly between -timedelta(hours=24) and tim'
	DB	'edelta(hours=24).', 00H			; `string'
CONST	ENDS
;	COMDAT ??_C@_0DI@CJHONLAB@tzinfo?4?$CFs?$CI?$CJ?5must?5return?5None?5or?5@
CONST	SEGMENT
??_C@_0DI@CJHONLAB@tzinfo?4?$CFs?$CI?$CJ?5must?5return?5None?5or?5@ DB 't'
	DB	'zinfo.%s() must return None or timedelta, not ''%.200s''', 00H ; `string'
CONST	ENDS
;	COMDAT ??_C@_01MJMHLOMK@O?$AA@
CONST	SEGMENT
??_C@_01MJMHLOMK@O?$AA@ DB 'O', 00H			; `string'
; Function compile flags: /Ogtpy
; File c:\src\pyparallel\modules\_datetimemodule.c
CONST	ENDS
;	COMDAT call_tzinfo_method
_TEXT	SEGMENT
tzinfo$ = 64
name$ = 72
tzinfoarg$ = 80
call_tzinfo_method PROC					; COMDAT

; 873  : {

  00000	48 89 74 24 10	 mov	 QWORD PTR [rsp+16], rsi
  00005	57		 push	 rdi
  00006	48 83 ec 30	 sub	 rsp, 48			; 00000030H

; 874  :     PyObject *offset;
; 875  : 
; 876  :     assert(tzinfo != NULL);
; 877  :     assert(PyTZInfo_Check(tzinfo) || tzinfo == Py_None);
; 878  :     assert(tzinfoarg != NULL);
; 879  : 
; 880  :     if (tzinfo == Py_None)

  0000a	48 8d 35 00 00
	00 00		 lea	 rsi, OFFSET FLAT:_Py_NoneStruct
  00011	48 8b fa	 mov	 rdi, rdx
  00014	48 3b ce	 cmp	 rcx, rsi
  00017	75 4f		 jne	 SHORT $LN11@call_tzinf

; 881  :         Py_RETURN_NONE;

  00019	e8 00 00 00 00	 call	 _Py_PXCTX
  0001e	85 c0		 test	 eax, eax
  00020	75 38		 jne	 SHORT $LN15@call_tzinf
  00022	48 8d 15 00 00
	00 00		 lea	 rdx, OFFSET FLAT:??_C@_0CD@HDJFDCDP@c?3?2src?2pyparallel?2include?2object@
  00029	48 8d 0d 00 00
	00 00		 lea	 rcx, OFFSET FLAT:??_C@_0L@DHGMCEID@_Py_IncRef?$AA@
  00030	4c 8b ce	 mov	 r9, rsi
  00033	41 b8 89 03 00
	00		 mov	 r8d, 905		; 00000389H
  00039	c7 44 24 20 02
	00 00 00	 mov	 DWORD PTR [rsp+32], 2
  00041	e8 00 00 00 00	 call	 _PyParallel_Guard
  00046	85 c0		 test	 eax, eax
  00048	75 09		 jne	 SHORT $LN14@call_tzinf
  0004a	f6 05 20 00 00
	00 20		 test	 BYTE PTR _Py_NoneStruct+32, 32 ; 00000020H
  00051	74 07		 je	 SHORT $LN15@call_tzinf
$LN14@call_tzinf:
  00053	48 ff 05 50 00
	00 00		 inc	 QWORD PTR _Py_NoneStruct+80
$LN15@call_tzinf:
  0005a	48 8b c6	 mov	 rax, rsi

; 911  : }

  0005d	48 8b 74 24 48	 mov	 rsi, QWORD PTR [rsp+72]
  00062	48 83 c4 30	 add	 rsp, 48			; 00000030H
  00066	5f		 pop	 rdi
  00067	c3		 ret	 0
$LN11@call_tzinf:

; 882  :     offset = PyObject_CallMethod(tzinfo, name, "O", tzinfoarg);

  00068	4d 8b c8	 mov	 r9, r8
  0006b	4c 8d 05 00 00
	00 00		 lea	 r8, OFFSET FLAT:??_C@_01MJMHLOMK@O?$AA@
  00072	48 89 5c 24 40	 mov	 QWORD PTR [rsp+64], rbx
  00077	e8 00 00 00 00	 call	 PyObject_CallMethod
  0007c	48 8b d8	 mov	 rbx, rax

; 883  :     if (offset == Py_None || offset == NULL)

  0007f	48 3b c6	 cmp	 rax, rsi
  00082	0f 84 d3 00 00
	00		 je	 $LN18@call_tzinf
  00088	48 85 c0	 test	 rax, rax
  0008b	0f 84 ca 00 00
	00		 je	 $LN18@call_tzinf

; 884  :         return offset;
; 885  :     if (PyDelta_Check(offset)) {

  00091	48 8b 48 58	 mov	 rcx, QWORD PTR [rax+88]
  00095	48 8d 15 00 00
	00 00		 lea	 rdx, OFFSET FLAT:PyDateTime_DeltaType
  0009c	48 3b ca	 cmp	 rcx, rdx
  0009f	74 41		 je	 SHORT $LN7@call_tzinf
  000a1	e8 00 00 00 00	 call	 PyType_IsSubtype
  000a6	85 c0		 test	 eax, eax
  000a8	75 38		 jne	 SHORT $LN7@call_tzinf

; 899  :         }
; 900  :     }
; 901  :     else {
; 902  :         Py_DECREF(offset);

  000aa	48 8b cb	 mov	 rcx, rbx
  000ad	e8 00 00 00 00	 call	 _Py_DecRef

; 903  :         PyErr_Format(PyExc_TypeError,
; 904  :                      "tzinfo.%s() must return None or "
; 905  :                      "timedelta, not '%.200s'",
; 906  :                      name, Py_TYPE(offset)->tp_name);

  000b2	4c 8b 4b 58	 mov	 r9, QWORD PTR [rbx+88]
  000b6	48 8b 0d 00 00
	00 00		 mov	 rcx, QWORD PTR PyExc_TypeError
  000bd	4d 8b 49 70	 mov	 r9, QWORD PTR [r9+112]
  000c1	48 8d 15 00 00
	00 00		 lea	 rdx, OFFSET FLAT:??_C@_0DI@CJHONLAB@tzinfo?4?$CFs?$CI?$CJ?5must?5return?5None?5or?5@
  000c8	4c 8b c7	 mov	 r8, rdi
  000cb	e8 00 00 00 00	 call	 PyErr_Format
  000d0	48 8b 5c 24 40	 mov	 rbx, QWORD PTR [rsp+64]
  000d5	33 c0		 xor	 eax, eax

; 911  : }

  000d7	48 8b 74 24 48	 mov	 rsi, QWORD PTR [rsp+72]
  000dc	48 83 c4 30	 add	 rsp, 48			; 00000030H
  000e0	5f		 pop	 rdi
  000e1	c3		 ret	 0
$LN7@call_tzinf:

; 886  :         if (GET_TD_MICROSECONDS(offset) != 0 || GET_TD_SECONDS(offset) % 60 != 0) {

  000e2	83 7b 70 00	 cmp	 DWORD PTR [rbx+112], 0
  000e6	75 56		 jne	 SHORT $LN5@call_tzinf
  000e8	8b 4b 6c	 mov	 ecx, DWORD PTR [rbx+108]
  000eb	b8 89 88 88 88	 mov	 eax, -2004318071	; ffffffff88888889H
  000f0	f7 e9		 imul	 ecx
  000f2	03 d1		 add	 edx, ecx
  000f4	c1 fa 05	 sar	 edx, 5
  000f7	8b c2		 mov	 eax, edx
  000f9	c1 e8 1f	 shr	 eax, 31
  000fc	03 d0		 add	 edx, eax
  000fe	6b d2 3c	 imul	 edx, 60			; 0000003cH
  00101	3b ca		 cmp	 ecx, edx
  00103	75 39		 jne	 SHORT $LN5@call_tzinf

; 891  :         }
; 892  :         if ((GET_TD_DAYS(offset) == -1 && GET_TD_SECONDS(offset) == 0) ||
; 893  :             GET_TD_DAYS(offset) < -1 || GET_TD_DAYS(offset) >= 1) {

  00105	8b 43 68	 mov	 eax, DWORD PTR [rbx+104]
  00108	83 f8 ff	 cmp	 eax, -1
  0010b	75 06		 jne	 SHORT $LN19@call_tzinf
  0010d	85 c9		 test	 ecx, ecx
  0010f	74 1c		 je	 SHORT $LN3@call_tzinf
  00111	3b c0		 cmp	 eax, eax
$LN19@call_tzinf:
  00113	7c 18		 jl	 SHORT $LN3@call_tzinf
  00115	83 f8 01	 cmp	 eax, 1
  00118	7d 13		 jge	 SHORT $LN3@call_tzinf

; 907  :         return NULL;
; 908  :     }
; 909  : 
; 910  :     return offset;

  0011a	48 8b c3	 mov	 rax, rbx
  0011d	48 8b 5c 24 40	 mov	 rbx, QWORD PTR [rsp+64]

; 911  : }

  00122	48 8b 74 24 48	 mov	 rsi, QWORD PTR [rsp+72]
  00127	48 83 c4 30	 add	 rsp, 48			; 00000030H
  0012b	5f		 pop	 rdi
  0012c	c3		 ret	 0
$LN3@call_tzinf:

; 894  :             Py_DECREF(offset);

  0012d	48 8b cb	 mov	 rcx, rbx
  00130	e8 00 00 00 00	 call	 _Py_DecRef

; 895  :             PyErr_Format(PyExc_ValueError, "offset must be a timedelta"
; 896  :                          " strictly between -timedelta(hours=24) and"
; 897  :                          " timedelta(hours=24).");

  00135	48 8d 15 00 00
	00 00		 lea	 rdx, OFFSET FLAT:??_C@_0FK@GNEMBLOI@offset?5must?5be?5a?5timedelta?5stric@

; 898  :             return NULL;

  0013c	eb 0f		 jmp	 SHORT $LN21@call_tzinf
$LN5@call_tzinf:

; 887  :             Py_DECREF(offset);

  0013e	48 8b cb	 mov	 rcx, rbx
  00141	e8 00 00 00 00	 call	 _Py_DecRef

; 888  :             PyErr_Format(PyExc_ValueError, "offset must be a timedelta"
; 889  :                          " representing a whole number of minutes");

  00146	48 8d 15 00 00
	00 00		 lea	 rdx, OFFSET FLAT:??_C@_0EC@KJOMKDID@offset?5must?5be?5a?5timedelta?5repre@
$LN21@call_tzinf:
  0014d	48 8b 0d 00 00
	00 00		 mov	 rcx, QWORD PTR PyExc_ValueError
  00154	e8 00 00 00 00	 call	 PyErr_Format

; 890  :             return NULL;

  00159	33 c0		 xor	 eax, eax
$LN18@call_tzinf:
  0015b	48 8b 5c 24 40	 mov	 rbx, QWORD PTR [rsp+64]

; 911  : }

  00160	48 8b 74 24 48	 mov	 rsi, QWORD PTR [rsp+72]
  00165	48 83 c4 30	 add	 rsp, 48			; 00000030H
  00169	5f		 pop	 rdi
  0016a	c3		 ret	 0
call_tzinfo_method ENDP
; Function compile flags: /Ogtpy
_TEXT	ENDS
;	COMDAT call_utcoffset
_TEXT	SEGMENT
tzinfo$ = 8
tzinfoarg$ = 16
call_utcoffset PROC					; COMDAT

; 924  :     return call_tzinfo_method(tzinfo, "utcoffset", tzinfoarg);

  00000	4c 8b c2	 mov	 r8, rdx
  00003	48 8d 15 00 00
	00 00		 lea	 rdx, OFFSET FLAT:??_C@_09DGNKAEDJ@utcoffset?$AA@

; 925  : }

  0000a	e9 00 00 00 00	 jmp	 call_tzinfo_method
call_utcoffset ENDP
; Function compile flags: /Ogtpy
_TEXT	ENDS
;	COMDAT call_dst
_TEXT	SEGMENT
tzinfo$ = 8
tzinfoarg$ = 16
call_dst PROC						; COMDAT

; 938  :     return call_tzinfo_method(tzinfo, "dst", tzinfoarg);

  00000	4c 8b c2	 mov	 r8, rdx
  00003	48 8d 15 00 00
	00 00		 lea	 rdx, OFFSET FLAT:??_C@_03HHBLCKEM@dst?$AA@

; 939  : }

  0000a	e9 00 00 00 00	 jmp	 call_tzinfo_method
call_dst ENDP
_TEXT	ENDS
PUBLIC	??_C@_0DH@IEFGKKMD@tzinfo?4tzname?$CI?$CJ?5must?5return?5None@ ; `string'
EXTRN	_PyObject_CallMethodId:PROC
EXTRN	_tls_index:DWORD
;	COMDAT pdata
; File c:\src\pyparallel\include\object.h
pdata	SEGMENT
$pdata$call_tzname DD imagerel call_tzname
	DD	imagerel call_tzname+219
	DD	imagerel $unwind$call_tzname
pdata	ENDS
;	COMDAT xdata
xdata	SEGMENT
$unwind$call_tzname DD 048901H
	DD	083489H
	DD	070025206H
xdata	ENDS
;	COMDAT ??_C@_0DH@IEFGKKMD@tzinfo?4tzname?$CI?$CJ?5must?5return?5None@
CONST	SEGMENT
??_C@_0DH@IEFGKKMD@tzinfo?4tzname?$CI?$CJ?5must?5return?5None@ DB 'tzinfo'
	DB	'.tzname() must return None or a string, not ''%s''', 00H ; `string'
; Function compile flags: /Ogtpy
; File c:\src\pyparallel\modules\_datetimemodule.c
CONST	ENDS
;	COMDAT call_tzname
_TEXT	SEGMENT
tzinfo$ = 64
tzinfoarg$ = 72
call_tzname PROC					; COMDAT

; 949  : {

  00000	40 57		 push	 rdi
  00002	48 83 ec 30	 sub	 rsp, 48			; 00000030H

; 950  :     PyObject *result;
; 951  :     _Py_IDENTIFIER(tzname);
; 952  : 
; 953  :     assert(tzinfo != NULL);
; 954  :     assert(check_tzinfo_subclass(tzinfo) >= 0);
; 955  :     assert(tzinfoarg != NULL);
; 956  : 
; 957  :     if (tzinfo == Py_None)

  00006	48 8d 3d 00 00
	00 00		 lea	 rdi, OFFSET FLAT:_Py_NoneStruct
  0000d	4c 8b ca	 mov	 r9, rdx
  00010	4c 8b d1	 mov	 r10, rcx
  00013	48 3b cf	 cmp	 rcx, rdi
  00016	75 4a		 jne	 SHORT $LN4@call_tznam

; 958  :         Py_RETURN_NONE;

  00018	e8 00 00 00 00	 call	 _Py_PXCTX
  0001d	85 c0		 test	 eax, eax
  0001f	75 38		 jne	 SHORT $LN8@call_tznam
  00021	48 8d 15 00 00
	00 00		 lea	 rdx, OFFSET FLAT:??_C@_0CD@HDJFDCDP@c?3?2src?2pyparallel?2include?2object@
  00028	48 8d 0d 00 00
	00 00		 lea	 rcx, OFFSET FLAT:??_C@_0L@DHGMCEID@_Py_IncRef?$AA@
  0002f	4c 8b cf	 mov	 r9, rdi
  00032	41 b8 89 03 00
	00		 mov	 r8d, 905		; 00000389H
  00038	c7 44 24 20 02
	00 00 00	 mov	 DWORD PTR [rsp+32], 2
  00040	e8 00 00 00 00	 call	 _PyParallel_Guard
  00045	85 c0		 test	 eax, eax
  00047	75 09		 jne	 SHORT $LN7@call_tznam
  00049	f6 05 20 00 00
	00 20		 test	 BYTE PTR _Py_NoneStruct+32, 32 ; 00000020H
  00050	74 07		 je	 SHORT $LN8@call_tznam
$LN7@call_tznam:
  00052	48 ff 05 50 00
	00 00		 inc	 QWORD PTR _Py_NoneStruct+80
$LN8@call_tznam:
  00059	48 8b c7	 mov	 rax, rdi

; 974  : }

  0005c	48 83 c4 30	 add	 rsp, 48			; 00000030H
  00060	5f		 pop	 rdi
  00061	c3		 ret	 0
$LN4@call_tznam:

; 959  : 
; 960  :     result = _PyObject_CallMethodId(tzinfo, &PyId_tzname, "O", tzinfoarg);

  00062	8b 0d 00 00 00
	00		 mov	 ecx, DWORD PTR _tls_index
  00068	65 48 8b 04 25
	58 00 00 00	 mov	 rax, QWORD PTR gs:88
  00071	ba 00 00 00 00	 mov	 edx, OFFSET FLAT:?PyId_tzname@?1??call_tzname@@9@9
  00076	48 03 14 c8	 add	 rdx, QWORD PTR [rax+rcx*8]
  0007a	4c 8d 05 00 00
	00 00		 lea	 r8, OFFSET FLAT:??_C@_01MJMHLOMK@O?$AA@
  00081	49 8b ca	 mov	 rcx, r10
  00084	48 89 5c 24 40	 mov	 QWORD PTR [rsp+64], rbx
  00089	e8 00 00 00 00	 call	 _PyObject_CallMethodId
  0008e	48 8b d8	 mov	 rbx, rax

; 961  : 
; 962  :     if (result == NULL || result == Py_None)

  00091	48 85 c0	 test	 rax, rax
  00094	74 3a		 je	 SHORT $LN11@call_tznam
  00096	48 3b c7	 cmp	 rax, rdi
  00099	74 35		 je	 SHORT $LN11@call_tznam

; 963  :         return result;
; 964  : 
; 965  :     if (!PyUnicode_Check(result)) {

  0009b	4c 8b 40 58	 mov	 r8, QWORD PTR [rax+88]
  0009f	41 f7 80 00 01
	00 00 00 00 00
	10		 test	 DWORD PTR [r8+256], 268435456 ; 10000000H
  000aa	75 21		 jne	 SHORT $LN1@call_tznam

; 966  :         PyErr_Format(PyExc_TypeError, "tzinfo.tzname() must "
; 967  :                      "return None or a string, not '%s'",
; 968  :                      Py_TYPE(result)->tp_name);

  000ac	4d 8b 40 70	 mov	 r8, QWORD PTR [r8+112]
  000b0	48 8b 0d 00 00
	00 00		 mov	 rcx, QWORD PTR PyExc_TypeError
  000b7	48 8d 15 00 00
	00 00		 lea	 rdx, OFFSET FLAT:??_C@_0DH@IEFGKKMD@tzinfo?4tzname?$CI?$CJ?5must?5return?5None@
  000be	e8 00 00 00 00	 call	 PyErr_Format

; 969  :         Py_DECREF(result);

  000c3	48 8b cb	 mov	 rcx, rbx
  000c6	e8 00 00 00 00	 call	 _Py_DecRef

; 970  :         result = NULL;

  000cb	33 db		 xor	 ebx, ebx
$LN1@call_tznam:

; 971  :     }
; 972  : 
; 973  :     return result;

  000cd	48 8b c3	 mov	 rax, rbx
$LN11@call_tznam:
  000d0	48 8b 5c 24 40	 mov	 rbx, QWORD PTR [rsp+64]

; 974  : }

  000d5	48 83 c4 30	 add	 rsp, 48			; 00000030H
  000d9	5f		 pop	 rdi
  000da	c3		 ret	 0
call_tzname ENDP
_TEXT	ENDS
PUBLIC	??_C@_0P@GPOFMDAD@?$CFU?0?5tzinfo?$DN?$CFR?$CJ?$AA@ ; `string'
EXTRN	PyUnicode_FromFormat:PROC
EXTRN	PyUnicode_Substring:PROC
;	COMDAT pdata
pdata	SEGMENT
$pdata$append_keyword_tzinfo DD imagerel append_keyword_tzinfo
	DD	imagerel append_keyword_tzinfo+48
	DD	imagerel $unwind$append_keyword_tzinfo
pdata	ENDS
;	COMDAT pdata
pdata	SEGMENT
$pdata$0$append_keyword_tzinfo DD imagerel append_keyword_tzinfo+48
	DD	imagerel append_keyword_tzinfo+95
	DD	imagerel $chain$0$append_keyword_tzinfo
pdata	ENDS
;	COMDAT pdata
pdata	SEGMENT
$pdata$2$append_keyword_tzinfo DD imagerel append_keyword_tzinfo+95
	DD	imagerel append_keyword_tzinfo+143
	DD	imagerel $chain$2$append_keyword_tzinfo
pdata	ENDS
;	COMDAT xdata
xdata	SEGMENT
$chain$2$append_keyword_tzinfo DD 020021H
	DD	066400H
	DD	imagerel append_keyword_tzinfo
	DD	imagerel append_keyword_tzinfo+48
	DD	imagerel $unwind$append_keyword_tzinfo
xdata	ENDS
;	COMDAT xdata
xdata	SEGMENT
$chain$0$append_keyword_tzinfo DD 020521H
	DD	066405H
	DD	imagerel append_keyword_tzinfo
	DD	imagerel append_keyword_tzinfo+48
	DD	imagerel $unwind$append_keyword_tzinfo
xdata	ENDS
;	COMDAT xdata
xdata	SEGMENT
$unwind$append_keyword_tzinfo DD 040a01H
	DD	07340aH
	DD	07006320aH
xdata	ENDS
;	COMDAT ??_C@_0P@GPOFMDAD@?$CFU?0?5tzinfo?$DN?$CFR?$CJ?$AA@
CONST	SEGMENT
??_C@_0P@GPOFMDAD@?$CFU?0?5tzinfo?$DN?$CFR?$CJ?$AA@ DB '%U, tzinfo=%R)', 00H ; `string'
; Function compile flags: /Ogtpy
CONST	ENDS
;	COMDAT append_keyword_tzinfo
_TEXT	SEGMENT
repr$ = 48
tzinfo$ = 56
append_keyword_tzinfo PROC				; COMDAT

; 983  : {

  00000	48 89 5c 24 10	 mov	 QWORD PTR [rsp+16], rbx
  00005	57		 push	 rdi
  00006	48 83 ec 20	 sub	 rsp, 32			; 00000020H

; 984  :     PyObject *temp;
; 985  : 
; 986  :     assert(PyUnicode_Check(repr));
; 987  :     assert(tzinfo);
; 988  :     if (tzinfo == Py_None)

  0000a	48 8d 05 00 00
	00 00		 lea	 rax, OFFSET FLAT:_Py_NoneStruct
  00011	48 8b fa	 mov	 rdi, rdx
  00014	48 8b d9	 mov	 rbx, rcx
  00017	48 3b d0	 cmp	 rdx, rax
  0001a	75 0e		 jne	 SHORT $LN2@append_key

; 989  :         return repr;

  0001c	48 8b c1	 mov	 rax, rcx

; 999  : }

  0001f	48 8b 5c 24 38	 mov	 rbx, QWORD PTR [rsp+56]
  00024	48 83 c4 20	 add	 rsp, 32			; 00000020H
  00028	5f		 pop	 rdi
  00029	c3		 ret	 0
$LN2@append_key:

; 990  :     /* Get rid of the trailing ')'. */
; 991  :     assert(PyUnicode_READ_CHAR(repr, PyUnicode_GET_LENGTH(repr)-1) == ')');
; 992  :     temp = PyUnicode_Substring(repr, 0, PyUnicode_GET_LENGTH(repr) - 1);

  0002a	4c 8b 41 60	 mov	 r8, QWORD PTR [rcx+96]
  0002e	33 d2		 xor	 edx, edx
  00030	48 89 74 24 30	 mov	 QWORD PTR [rsp+48], rsi
  00035	49 ff c8	 dec	 r8
  00038	e8 00 00 00 00	 call	 PyUnicode_Substring

; 993  :     Py_DECREF(repr);

  0003d	48 8b cb	 mov	 rcx, rbx
  00040	48 8b f0	 mov	 rsi, rax
  00043	e8 00 00 00 00	 call	 _Py_DecRef

; 994  :     if (temp == NULL)

  00048	48 85 f6	 test	 rsi, rsi
  0004b	75 12		 jne	 SHORT $LN1@append_key

; 995  :         return NULL;

  0004d	33 c0		 xor	 eax, eax
  0004f	48 8b 74 24 30	 mov	 rsi, QWORD PTR [rsp+48]

; 999  : }

  00054	48 8b 5c 24 38	 mov	 rbx, QWORD PTR [rsp+56]
  00059	48 83 c4 20	 add	 rsp, 32			; 00000020H
  0005d	5f		 pop	 rdi
  0005e	c3		 ret	 0
$LN1@append_key:

; 996  :     repr = PyUnicode_FromFormat("%U, tzinfo=%R)", temp, tzinfo);

  0005f	48 8d 0d 00 00
	00 00		 lea	 rcx, OFFSET FLAT:??_C@_0P@GPOFMDAD@?$CFU?0?5tzinfo?$DN?$CFR?$CJ?$AA@
  00066	4c 8b c7	 mov	 r8, rdi
  00069	48 8b d6	 mov	 rdx, rsi
  0006c	e8 00 00 00 00	 call	 PyUnicode_FromFormat

; 997  :     Py_DECREF(temp);

  00071	48 8b ce	 mov	 rcx, rsi
  00074	48 8b d8	 mov	 rbx, rax
  00077	e8 00 00 00 00	 call	 _Py_DecRef
  0007c	48 8b 74 24 30	 mov	 rsi, QWORD PTR [rsp+48]

; 998  :     return repr;

  00081	48 8b c3	 mov	 rax, rbx

; 999  : }

  00084	48 8b 5c 24 38	 mov	 rbx, QWORD PTR [rsp+56]
  00089	48 83 c4 20	 add	 rsp, 32			; 00000020H
  0008d	5f		 pop	 rdi
  0008e	c3		 ret	 0
append_keyword_tzinfo ENDP
_TEXT	ENDS
PUBLIC	??_C@_0BO@FEEHMIJ@?$CFs?5?$CFs?5?$CF2d?5?$CF02d?3?$CF02d?3?$CF02d?5?$CF04d?$AA@ ; `string'
EXTRN	__ImageBase:BYTE
;	COMDAT pdata
pdata	SEGMENT
$pdata$format_ctime DD imagerel format_ctime
	DD	imagerel format_ctime+150
	DD	imagerel $unwind$format_ctime
pdata	ENDS
;	COMDAT xdata
xdata	SEGMENT
$unwind$format_ctime DD 0a1801H
	DD	0e6418H
	DD	0d5418H
	DD	0c3418H
	DD	0d0147218H
	DD	07010c012H
xdata	ENDS
;	COMDAT ??_C@_0BO@FEEHMIJ@?$CFs?5?$CFs?5?$CF2d?5?$CF02d?3?$CF02d?3?$CF02d?5?$CF04d?$AA@
CONST	SEGMENT
??_C@_0BO@FEEHMIJ@?$CFs?5?$CFs?5?$CF2d?5?$CF02d?3?$CF02d?3?$CF02d?5?$CF04d?$AA@ DB '%'
	DB	's %s %2d %02d:%02d:%02d %04d', 00H		; `string'
; Function compile flags: /Ogtpy
CONST	ENDS
;	COMDAT format_ctime
_TEXT	SEGMENT
date$ = 96
hours$ = 104
minutes$ = 112
seconds$ = 120
format_ctime PROC					; COMDAT

; 1007 : {

  00000	48 89 5c 24 08	 mov	 QWORD PTR [rsp+8], rbx
  00005	48 89 6c 24 10	 mov	 QWORD PTR [rsp+16], rbp
  0000a	48 89 74 24 18	 mov	 QWORD PTR [rsp+24], rsi
  0000f	57		 push	 rdi
  00010	41 54		 push	 r12
  00012	41 55		 push	 r13
  00014	48 83 ec 40	 sub	 rsp, 64			; 00000040H

; 1008 :     static const char *DayNames[] = {
; 1009 :         "Mon", "Tue", "Wed", "Thu", "Fri", "Sat", "Sun"
; 1010 :     };
; 1011 :     static const char *MonthNames[] = {
; 1012 :         "Jan", "Feb", "Mar", "Apr", "May", "Jun",
; 1013 :         "Jul", "Aug", "Sep", "Oct", "Nov", "Dec"
; 1014 :     };
; 1015 : 
; 1016 :     int wday = weekday(GET_YEAR(date), GET_MONTH(date), GET_DAY(date));

  00018	0f b6 59 69	 movzx	 ebx, BYTE PTR [rcx+105]
  0001c	0f b6 41 6a	 movzx	 eax, BYTE PTR [rcx+106]
  00020	0f b6 79 6c	 movzx	 edi, BYTE PTR [rcx+108]
  00024	0f b6 71 6b	 movzx	 esi, BYTE PTR [rcx+107]
  00028	45 8b e0	 mov	 r12d, r8d
  0002b	44 8b ea	 mov	 r13d, edx
  0002e	c1 e3 08	 shl	 ebx, 8
  00031	44 8b c7	 mov	 r8d, edi
  00034	8b d6		 mov	 edx, esi
  00036	0b d8		 or	 ebx, eax
  00038	41 8b e9	 mov	 ebp, r9d
  0003b	8b cb		 mov	 ecx, ebx
  0003d	e8 00 00 00 00	 call	 weekday

; 1017 : 
; 1018 :     return PyUnicode_FromFormat("%s %s %2d %02d:%02d:%02d %04d",
; 1019 :                                 DayNames[wday], MonthNames[GET_MONTH(date)-1],
; 1020 :                                 GET_DAY(date), hours, minutes, seconds,
; 1021 :                                 GET_YEAR(date));

  00042	48 8d 0d 00 00
	00 00		 lea	 rcx, OFFSET FLAT:__ImageBase
  00049	89 5c 24 38	 mov	 DWORD PTR [rsp+56], ebx
  0004d	4c 8b 84 f1 f8
	ff ff ff	 mov	 r8, QWORD PTR ?MonthNames@?1??format_ctime@@9@9[rcx+rsi*8-8]
  00055	48 63 d0	 movsxd	 rdx, eax
  00058	89 6c 24 30	 mov	 DWORD PTR [rsp+48], ebp
  0005c	48 8b 94 d1 00
	00 00 00	 mov	 rdx, QWORD PTR ?DayNames@?1??format_ctime@@9@9[rcx+rdx*8]
  00064	48 8d 0d 00 00
	00 00		 lea	 rcx, OFFSET FLAT:??_C@_0BO@FEEHMIJ@?$CFs?5?$CFs?5?$CF2d?5?$CF02d?3?$CF02d?3?$CF02d?5?$CF04d?$AA@
  0006b	44 8b cf	 mov	 r9d, edi
  0006e	44 89 64 24 28	 mov	 DWORD PTR [rsp+40], r12d
  00073	44 89 6c 24 20	 mov	 DWORD PTR [rsp+32], r13d
  00078	e8 00 00 00 00	 call	 PyUnicode_FromFormat

; 1022 : }

  0007d	48 8b 5c 24 60	 mov	 rbx, QWORD PTR [rsp+96]
  00082	48 8b 6c 24 68	 mov	 rbp, QWORD PTR [rsp+104]
  00087	48 8b 74 24 70	 mov	 rsi, QWORD PTR [rsp+112]
  0008c	48 83 c4 40	 add	 rsp, 64			; 00000040H
  00090	41 5d		 pop	 r13
  00092	41 5c		 pop	 r12
  00094	5f		 pop	 rdi
  00095	c3		 ret	 0
format_ctime ENDP
_TEXT	ENDS
PUBLIC	??_C@_0CJ@BFKOKFNK@tzname?4replace?$CI?$CJ?5did?5not?5return?5@ ; `string'
PUBLIC	??_C@_02NGMLHCAB@?$CF?$CF?$AA@			; `string'
PUBLIC	??_C@_02FCBLNKNB@ss?$AA@			; `string'
PUBLIC	??_C@_01FGNFDNOH@?$CF?$AA@			; `string'
EXTRN	PyUnicode_FromStringAndSize:PROC
;	COMDAT pdata
pdata	SEGMENT
$pdata$make_Zreplacement DD imagerel make_Zreplacement
	DD	imagerel make_Zreplacement+282
	DD	imagerel $unwind$make_Zreplacement
pdata	ENDS
;	COMDAT xdata
xdata	SEGMENT
$unwind$make_Zreplacement DD 084001H
	DD	085440H
	DD	0a640fH
	DD	09340fH
	DD	0700b520fH
xdata	ENDS
;	COMDAT ??_C@_0CJ@BFKOKFNK@tzname?4replace?$CI?$CJ?5did?5not?5return?5@
CONST	SEGMENT
??_C@_0CJ@BFKOKFNK@tzname?4replace?$CI?$CJ?5did?5not?5return?5@ DB 'tznam'
	DB	'e.replace() did not return a string', 00H	; `string'
CONST	ENDS
;	COMDAT ??_C@_02NGMLHCAB@?$CF?$CF?$AA@
CONST	SEGMENT
??_C@_02NGMLHCAB@?$CF?$CF?$AA@ DB '%%', 00H		; `string'
CONST	ENDS
;	COMDAT ??_C@_02FCBLNKNB@ss?$AA@
CONST	SEGMENT
??_C@_02FCBLNKNB@ss?$AA@ DB 'ss', 00H			; `string'
CONST	ENDS
;	COMDAT ??_C@_01FGNFDNOH@?$CF?$AA@
CONST	SEGMENT
??_C@_01FGNFDNOH@?$CF?$AA@ DB '%', 00H			; `string'
; Function compile flags: /Ogtpy
CONST	ENDS
;	COMDAT make_Zreplacement
_TEXT	SEGMENT
object$ = 64
tzinfoarg$ = 72
make_Zreplacement PROC					; COMDAT

; 1080 : {

  00000	48 89 5c 24 10	 mov	 QWORD PTR [rsp+16], rbx
  00005	48 89 74 24 18	 mov	 QWORD PTR [rsp+24], rsi
  0000a	57		 push	 rdi
  0000b	48 83 ec 30	 sub	 rsp, 48			; 00000030H
  0000f	48 8b f2	 mov	 rsi, rdx

; 1081 :     PyObject *temp;
; 1082 :     PyObject *tzinfo = get_tzinfo_member(object);

  00012	e8 00 00 00 00	 call	 get_tzinfo_member

; 1083 :     PyObject *Zreplacement = PyUnicode_FromStringAndSize(NULL, 0);

  00017	33 d2		 xor	 edx, edx
  00019	33 c9		 xor	 ecx, ecx
  0001b	48 8b f8	 mov	 rdi, rax
  0001e	e8 00 00 00 00	 call	 PyUnicode_FromStringAndSize
  00023	48 8b d8	 mov	 rbx, rax

; 1084 :     _Py_IDENTIFIER(replace);
; 1085 : 
; 1086 :     if (Zreplacement == NULL)

  00026	48 85 c0	 test	 rax, rax
  00029	75 10		 jne	 SHORT $LN7@make_Zrepl

; 1120 : }

  0002b	48 8b 5c 24 48	 mov	 rbx, QWORD PTR [rsp+72]
  00030	48 8b 74 24 50	 mov	 rsi, QWORD PTR [rsp+80]
  00035	48 83 c4 30	 add	 rsp, 48			; 00000030H
  00039	5f		 pop	 rdi
  0003a	c3		 ret	 0
$LN7@make_Zrepl:
  0003b	48 89 6c 24 40	 mov	 QWORD PTR [rsp+64], rbp

; 1087 :         return NULL;
; 1088 :     if (tzinfo == Py_None || tzinfo == NULL)

  00040	48 8d 2d 00 00
	00 00		 lea	 rbp, OFFSET FLAT:_Py_NoneStruct
  00047	48 3b fd	 cmp	 rdi, rbp
  0004a	0f 84 b5 00 00
	00		 je	 $LN10@make_Zrepl
  00050	48 85 ff	 test	 rdi, rdi
  00053	0f 84 ac 00 00
	00		 je	 $LN10@make_Zrepl

; 1089 :         return Zreplacement;
; 1090 : 
; 1091 :     assert(tzinfoarg != NULL);
; 1092 :     temp = call_tzname(tzinfo, tzinfoarg);

  00059	48 8b d6	 mov	 rdx, rsi
  0005c	48 8b cf	 mov	 rcx, rdi
  0005f	e8 00 00 00 00	 call	 call_tzname
  00064	48 8b f8	 mov	 rdi, rax

; 1093 :     if (temp == NULL)

  00067	48 85 c0	 test	 rax, rax
  0006a	0f 84 8b 00 00
	00		 je	 $Error$21058

; 1094 :         goto Error;
; 1095 :     if (temp == Py_None) {

  00070	48 3b c5	 cmp	 rax, rbp
  00073	75 10		 jne	 SHORT $LN3@make_Zrepl

; 1096 :         Py_DECREF(temp);

  00075	48 8b c8	 mov	 rcx, rax
  00078	e8 00 00 00 00	 call	 _Py_DecRef
$LN1@make_Zrepl:

; 1097 :         return Zreplacement;

  0007d	48 8b c3	 mov	 rax, rbx
  00080	e9 80 00 00 00	 jmp	 $LN10@make_Zrepl
$LN3@make_Zrepl:

; 1098 :     }
; 1099 : 
; 1100 :     assert(PyUnicode_Check(temp));
; 1101 :     /* Since the tzname is getting stuffed into the
; 1102 :      * format, we have to double any % signs so that
; 1103 :      * strftime doesn't treat them as format codes.
; 1104 :      */
; 1105 :     Py_DECREF(Zreplacement);

  00085	48 8b cb	 mov	 rcx, rbx
  00088	e8 00 00 00 00	 call	 _Py_DecRef

; 1106 :     Zreplacement = _PyObject_CallMethodId(temp, &PyId_replace, "ss", "%", "%%");

  0008d	44 8b 1d 00 00
	00 00		 mov	 r11d, DWORD PTR _tls_index
  00094	65 48 8b 04 25
	58 00 00 00	 mov	 rax, QWORD PTR gs:88
  0009d	ba 00 00 00 00	 mov	 edx, OFFSET FLAT:?PyId_replace@?1??make_Zreplacement@@9@9
  000a2	4c 8d 0d 00 00
	00 00		 lea	 r9, OFFSET FLAT:??_C@_01FGNFDNOH@?$CF?$AA@
  000a9	4c 8d 05 00 00
	00 00		 lea	 r8, OFFSET FLAT:??_C@_02FCBLNKNB@ss?$AA@
  000b0	4a 03 14 d8	 add	 rdx, QWORD PTR [rax+r11*8]
  000b4	48 8d 05 00 00
	00 00		 lea	 rax, OFFSET FLAT:??_C@_02NGMLHCAB@?$CF?$CF?$AA@
  000bb	48 8b cf	 mov	 rcx, rdi
  000be	48 89 44 24 20	 mov	 QWORD PTR [rsp+32], rax
  000c3	e8 00 00 00 00	 call	 _PyObject_CallMethodId

; 1107 :     Py_DECREF(temp);

  000c8	48 8b cf	 mov	 rcx, rdi
  000cb	48 8b d8	 mov	 rbx, rax
  000ce	e8 00 00 00 00	 call	 _Py_DecRef

; 1108 :     if (Zreplacement == NULL)

  000d3	48 85 db	 test	 rbx, rbx

; 1109 :         return NULL;

  000d6	74 2b		 je	 SHORT $LN11@make_Zrepl

; 1110 :     if (!PyUnicode_Check(Zreplacement)) {

  000d8	48 8b 43 58	 mov	 rax, QWORD PTR [rbx+88]
  000dc	f7 80 00 01 00
	00 00 00 00 10	 test	 DWORD PTR [rax+256], 268435456 ; 10000000H
  000e6	75 95		 jne	 SHORT $LN1@make_Zrepl

; 1111 :         PyErr_SetString(PyExc_TypeError,
; 1112 :                         "tzname.replace() did not return a string");

  000e8	48 8b 0d 00 00
	00 00		 mov	 rcx, QWORD PTR PyExc_TypeError
  000ef	48 8d 15 00 00
	00 00		 lea	 rdx, OFFSET FLAT:??_C@_0CJ@BFKOKFNK@tzname?4replace?$CI?$CJ?5did?5not?5return?5@
  000f6	e8 00 00 00 00	 call	 PyErr_SetString
$Error$21058:

; 1113 :         goto Error;
; 1114 :     }
; 1115 :     return Zreplacement;
; 1116 : 
; 1117 :   Error:
; 1118 :     Py_DECREF(Zreplacement);

  000fb	48 8b cb	 mov	 rcx, rbx
  000fe	e8 00 00 00 00	 call	 _Py_DecRef
$LN11@make_Zrepl:

; 1119 :     return NULL;

  00103	33 c0		 xor	 eax, eax
$LN10@make_Zrepl:
  00105	48 8b 6c 24 40	 mov	 rbp, QWORD PTR [rsp+64]

; 1120 : }

  0010a	48 8b 5c 24 48	 mov	 rbx, QWORD PTR [rsp+72]
  0010f	48 8b 74 24 50	 mov	 rsi, QWORD PTR [rsp+80]
  00114	48 83 c4 30	 add	 rsp, 48			; 00000030H
  00118	5f		 pop	 rdi
  00119	c3		 ret	 0
make_Zreplacement ENDP
_TEXT	ENDS
PUBLIC	??_C@_04OBKAGHLG@?$CF06d?$AA@			; `string'
EXTRN	PyBytes_FromStringAndSize:PROC
EXTRN	__imp_sprintf:PROC
;	COMDAT pdata
pdata	SEGMENT
$pdata$make_freplacement DD imagerel make_freplacement
	DD	imagerel make_freplacement+185
	DD	imagerel $unwind$make_freplacement
pdata	ENDS
;	COMDAT xdata
xdata	SEGMENT
$unwind$make_freplacement DD 020601H
	DD	07002b206H
xdata	ENDS
;	COMDAT ??_C@_04OBKAGHLG@?$CF06d?$AA@
CONST	SEGMENT
??_C@_04OBKAGHLG@?$CF06d?$AA@ DB '%06d', 00H		; `string'
; Function compile flags: /Ogtpy
CONST	ENDS
;	COMDAT make_freplacement
_TEXT	SEGMENT
freplacement$ = 32
object$ = 112
make_freplacement PROC					; COMDAT

; 1124 : {

  00000	40 57		 push	 rdi
  00002	48 83 ec 60	 sub	 rsp, 96			; 00000060H
  00006	48 8b f9	 mov	 rdi, rcx

; 1125 :     char freplacement[64];
; 1126 :     if (PyTime_Check(object))

  00009	48 8b 49 58	 mov	 rcx, QWORD PTR [rcx+88]
  0000d	48 8d 15 00 00
	00 00		 lea	 rdx, OFFSET FLAT:PyDateTime_TimeType
  00014	48 3b ca	 cmp	 rcx, rdx
  00017	74 4f		 je	 SHORT $LN5@make_frepl
  00019	e8 00 00 00 00	 call	 PyType_IsSubtype
  0001e	85 c0		 test	 eax, eax
  00020	75 46		 jne	 SHORT $LN5@make_frepl

; 1128 :     else if (PyDateTime_Check(object))

  00022	48 8b 4f 58	 mov	 rcx, QWORD PTR [rdi+88]
  00026	48 8d 15 00 00
	00 00		 lea	 rdx, OFFSET FLAT:PyDateTime_DateTimeType
  0002d	48 3b ca	 cmp	 rcx, rdx
  00030	74 20		 je	 SHORT $LN2@make_frepl
  00032	e8 00 00 00 00	 call	 PyType_IsSubtype
  00037	85 c0		 test	 eax, eax
  00039	75 17		 jne	 SHORT $LN2@make_frepl

; 1131 :         sprintf(freplacement, "%06d", 0);

  0003b	48 8d 15 00 00
	00 00		 lea	 rdx, OFFSET FLAT:??_C@_04OBKAGHLG@?$CF06d?$AA@
  00042	48 8d 4c 24 20	 lea	 rcx, QWORD PTR freplacement$[rsp]
  00047	45 33 c0	 xor	 r8d, r8d
  0004a	ff 15 00 00 00
	00		 call	 QWORD PTR __imp_sprintf
  00050	eb 43		 jmp	 SHORT $LN1@make_frepl
$LN2@make_frepl:

; 1129 :         sprintf(freplacement, "%06d", DATE_GET_MICROSECOND(object));

  00052	0f b6 47 71	 movzx	 eax, BYTE PTR [rdi+113]
  00056	44 0f b6 47 70	 movzx	 r8d, BYTE PTR [rdi+112]
  0005b	41 c1 e0 08	 shl	 r8d, 8
  0005f	44 0b c0	 or	 r8d, eax
  00062	0f b6 47 72	 movzx	 eax, BYTE PTR [rdi+114]

; 1130 :     else

  00066	eb 14		 jmp	 SHORT $LN9@make_frepl
$LN5@make_frepl:

; 1127 :         sprintf(freplacement, "%06d", TIME_GET_MICROSECOND(object));

  00068	0f b6 47 6d	 movzx	 eax, BYTE PTR [rdi+109]
  0006c	44 0f b6 47 6c	 movzx	 r8d, BYTE PTR [rdi+108]
  00071	41 c1 e0 08	 shl	 r8d, 8
  00075	44 0b c0	 or	 r8d, eax
  00078	0f b6 47 6e	 movzx	 eax, BYTE PTR [rdi+110]
$LN9@make_frepl:
  0007c	41 c1 e0 08	 shl	 r8d, 8
  00080	48 8d 15 00 00
	00 00		 lea	 rdx, OFFSET FLAT:??_C@_04OBKAGHLG@?$CF06d?$AA@
  00087	48 8d 4c 24 20	 lea	 rcx, QWORD PTR freplacement$[rsp]
  0008c	44 0b c0	 or	 r8d, eax
  0008f	ff 15 00 00 00
	00		 call	 QWORD PTR __imp_sprintf
$LN1@make_frepl:

; 1132 : 
; 1133 :     return PyBytes_FromStringAndSize(freplacement, strlen(freplacement));

  00095	48 83 c9 ff	 or	 rcx, -1
  00099	33 c0		 xor	 eax, eax
  0009b	48 8d 7c 24 20	 lea	 rdi, QWORD PTR freplacement$[rsp]
  000a0	f2 ae		 repne scasb
  000a2	48 f7 d1	 not	 rcx
  000a5	48 8d 51 ff	 lea	 rdx, QWORD PTR [rcx-1]
  000a9	48 8d 4c 24 20	 lea	 rcx, QWORD PTR freplacement$[rsp]
  000ae	e8 00 00 00 00	 call	 PyBytes_FromStringAndSize

; 1134 : }

  000b3	48 83 c4 60	 add	 rsp, 96			; 00000060H
  000b7	5f		 pop	 rdi
  000b8	c3		 ret	 0
make_freplacement ENDP
_TEXT	ENDS
PUBLIC	??_C@_02HCKGKOFO@?$CI?$CJ?$AA@			; `string'
EXTRN	PyImport_ImportModuleNoBlock:PROC
;	COMDAT pdata
pdata	SEGMENT
$pdata$time_time DD imagerel time_time
	DD	imagerel time_time+60
	DD	imagerel $unwind$time_time
pdata	ENDS
;	COMDAT pdata
pdata	SEGMENT
$pdata$0$time_time DD imagerel time_time+60
	DD	imagerel time_time+95
	DD	imagerel $chain$0$time_time
pdata	ENDS
;	COMDAT pdata
pdata	SEGMENT
$pdata$1$time_time DD imagerel time_time+95
	DD	imagerel time_time+101
	DD	imagerel $chain$1$time_time
pdata	ENDS
;	COMDAT xdata
xdata	SEGMENT
$chain$1$time_time DD 021H
	DD	imagerel time_time
	DD	imagerel time_time+60
	DD	imagerel $unwind$time_time
xdata	ENDS
;	COMDAT xdata
xdata	SEGMENT
$chain$0$time_time DD 020521H
	DD	063405H
	DD	imagerel time_time
	DD	imagerel time_time+60
	DD	imagerel $unwind$time_time
xdata	ENDS
;	COMDAT xdata
xdata	SEGMENT
$unwind$time_time DD 020601H
	DD	070023206H
xdata	ENDS
;	COMDAT ??_C@_02HCKGKOFO@?$CI?$CJ?$AA@
CONST	SEGMENT
??_C@_02HCKGKOFO@?$CI?$CJ?$AA@ DB '()', 00H		; `string'
; Function compile flags: /Ogtpy
CONST	ENDS
;	COMDAT time_time
_TEXT	SEGMENT
time_time PROC						; COMDAT

; 1317 : {

  00000	40 57		 push	 rdi
  00002	48 83 ec 20	 sub	 rsp, 32			; 00000020H

; 1318 :     PyObject *result = NULL;
; 1319 :     PyObject *time = PyImport_ImportModuleNoBlock("time");

  00006	48 8d 0d 00 00
	00 00		 lea	 rcx, OFFSET FLAT:??_C@_04CLCEDBPF@time?$AA@
  0000d	e8 00 00 00 00	 call	 PyImport_ImportModuleNoBlock
  00012	48 8b f8	 mov	 rdi, rax

; 1320 : 
; 1321 :     if (time != NULL) {

  00015	48 85 c0	 test	 rax, rax
  00018	74 45		 je	 SHORT $LN4@time_time

; 1322 :         _Py_IDENTIFIER(time);
; 1323 : 
; 1324 :         result = _PyObject_CallMethodId(time, &PyId_time, "()");

  0001a	8b 0d 00 00 00
	00		 mov	 ecx, DWORD PTR _tls_index
  00020	65 48 8b 04 25
	58 00 00 00	 mov	 rax, QWORD PTR gs:88
  00029	ba 00 00 00 00	 mov	 edx, OFFSET FLAT:?PyId_time@?2??time_time@@9@9
  0002e	48 03 14 c8	 add	 rdx, QWORD PTR [rax+rcx*8]
  00032	4c 8d 05 00 00
	00 00		 lea	 r8, OFFSET FLAT:??_C@_02HCKGKOFO@?$CI?$CJ?$AA@
  00039	48 8b cf	 mov	 rcx, rdi
  0003c	48 89 5c 24 30	 mov	 QWORD PTR [rsp+48], rbx
  00041	e8 00 00 00 00	 call	 _PyObject_CallMethodId

; 1325 :         Py_DECREF(time);

  00046	48 8b cf	 mov	 rcx, rdi
  00049	48 8b d8	 mov	 rbx, rax
  0004c	e8 00 00 00 00	 call	 _Py_DecRef

; 1326 :     }
; 1327 :     return result;

  00051	48 8b c3	 mov	 rax, rbx
  00054	48 8b 5c 24 30	 mov	 rbx, QWORD PTR [rsp+48]

; 1328 : }

  00059	48 83 c4 20	 add	 rsp, 32			; 00000020H
  0005d	5f		 pop	 rdi
  0005e	c3		 ret	 0
$LN4@time_time:
  0005f	48 83 c4 20	 add	 rsp, 32			; 00000020H
  00063	5f		 pop	 rdi
  00064	c3		 ret	 0
time_time ENDP
_TEXT	ENDS
PUBLIC	??_C@_0O@CFPDDNCK@?$CI?$CIiiiiiiiii?$CJ?$CJ?$AA@ ; `string'
;	COMDAT pdata
pdata	SEGMENT
$pdata$build_struct_time DD imagerel build_struct_time
	DD	imagerel build_struct_time+59
	DD	imagerel $unwind$build_struct_time
pdata	ENDS
;	COMDAT pdata
pdata	SEGMENT
$pdata$0$build_struct_time DD imagerel build_struct_time+59
	DD	imagerel build_struct_time+207
	DD	imagerel $chain$0$build_struct_time
pdata	ENDS
;	COMDAT pdata
pdata	SEGMENT
$pdata$1$build_struct_time DD imagerel build_struct_time+207
	DD	imagerel build_struct_time+229
	DD	imagerel $chain$1$build_struct_time
pdata	ENDS
;	COMDAT xdata
xdata	SEGMENT
$chain$1$build_struct_time DD 021H
	DD	imagerel build_struct_time
	DD	imagerel build_struct_time+59
	DD	imagerel $unwind$build_struct_time
xdata	ENDS
;	COMDAT xdata
xdata	SEGMENT
$chain$0$build_struct_time DD 020821H
	DD	0103408H
	DD	imagerel build_struct_time
	DD	imagerel build_struct_time+59
	DD	imagerel $unwind$build_struct_time
xdata	ENDS
;	COMDAT xdata
xdata	SEGMENT
$unwind$build_struct_time DD 081301H
	DD	0126413H
	DD	0115413H
	DD	0d00fb213H
	DD	0700bc00dH
xdata	ENDS
;	COMDAT ??_C@_0O@CFPDDNCK@?$CI?$CIiiiiiiiii?$CJ?$CJ?$AA@
CONST	SEGMENT
??_C@_0O@CFPDDNCK@?$CI?$CIiiiiiiiii?$CJ?$CJ?$AA@ DB '((iiiiiiiii))', 00H ; `string'
; Function compile flags: /Ogtpy
CONST	ENDS
;	COMDAT build_struct_time
_TEXT	SEGMENT
y$ = 128
m$ = 136
d$ = 144
hh$ = 152
mm$ = 160
ss$ = 168
dstflag$ = 176
build_struct_time PROC					; COMDAT

; 1335 : {

  00000	48 89 6c 24 10	 mov	 QWORD PTR [rsp+16], rbp
  00005	48 89 74 24 18	 mov	 QWORD PTR [rsp+24], rsi
  0000a	57		 push	 rdi
  0000b	41 54		 push	 r12
  0000d	41 55		 push	 r13
  0000f	48 83 ec 60	 sub	 rsp, 96			; 00000060H
  00013	44 8b e1	 mov	 r12d, ecx

; 1336 :     PyObject *time;
; 1337 :     PyObject *result = NULL;
; 1338 : 
; 1339 :     time = PyImport_ImportModuleNoBlock("time");

  00016	48 8d 0d 00 00
	00 00		 lea	 rcx, OFFSET FLAT:??_C@_04CLCEDBPF@time?$AA@
  0001d	45 8b e9	 mov	 r13d, r9d
  00020	41 8b f0	 mov	 esi, r8d
  00023	8b ea		 mov	 ebp, edx
  00025	e8 00 00 00 00	 call	 PyImport_ImportModuleNoBlock
  0002a	48 8b f8	 mov	 rdi, rax

; 1340 :     if (time != NULL) {

  0002d	48 85 c0	 test	 rax, rax
  00030	0f 84 99 00 00
	00		 je	 $LN1@build_stru

; 1341 :         _Py_IDENTIFIER(struct_time);
; 1342 : 
; 1343 :         result = _PyObject_CallMethodId(time, &PyId_struct_time,
; 1344 :                                         "((iiiiiiiii))",
; 1345 :                                         y, m, d,
; 1346 :                                         hh, mm, ss,
; 1347 :                                         weekday(y, m, d),
; 1348 :                                         days_before_month(y, m) + d,
; 1349 :                                         dstflag);

  00036	8b d5		 mov	 edx, ebp
  00038	41 8b cc	 mov	 ecx, r12d
  0003b	48 89 9c 24 80
	00 00 00	 mov	 QWORD PTR [rsp+128], rbx
  00043	e8 00 00 00 00	 call	 days_before_month
  00048	44 8b c6	 mov	 r8d, esi
  0004b	8b d5		 mov	 edx, ebp
  0004d	8d 1c 06	 lea	 ebx, DWORD PTR [rsi+rax]
  00050	e8 00 00 00 00	 call	 weekday
  00055	8b 0d 00 00 00
	00		 mov	 ecx, DWORD PTR _tls_index
  0005b	44 8b d8	 mov	 r11d, eax
  0005e	65 48 8b 04 25
	58 00 00 00	 mov	 rax, QWORD PTR gs:88
  00067	ba 00 00 00 00	 mov	 edx, OFFSET FLAT:?PyId_struct_time@?2??build_struct_time@@9@9
  0006c	48 03 14 c8	 add	 rdx, QWORD PTR [rax+rcx*8]
  00070	8b 84 24 b0 00
	00 00		 mov	 eax, DWORD PTR dstflag$[rsp]
  00077	4c 8d 05 00 00
	00 00		 lea	 r8, OFFSET FLAT:??_C@_0O@CFPDDNCK@?$CI?$CIiiiiiiiii?$CJ?$CJ?$AA@
  0007e	89 44 24 58	 mov	 DWORD PTR [rsp+88], eax
  00082	8b 84 24 a8 00
	00 00		 mov	 eax, DWORD PTR ss$[rsp]
  00089	89 5c 24 50	 mov	 DWORD PTR [rsp+80], ebx
  0008d	44 89 5c 24 48	 mov	 DWORD PTR [rsp+72], r11d
  00092	89 44 24 40	 mov	 DWORD PTR [rsp+64], eax
  00096	8b 84 24 a0 00
	00 00		 mov	 eax, DWORD PTR mm$[rsp]
  0009d	89 44 24 38	 mov	 DWORD PTR [rsp+56], eax
  000a1	44 89 6c 24 30	 mov	 DWORD PTR [rsp+48], r13d
  000a6	45 8b cc	 mov	 r9d, r12d
  000a9	48 8b cf	 mov	 rcx, rdi
  000ac	89 74 24 28	 mov	 DWORD PTR [rsp+40], esi
  000b0	89 6c 24 20	 mov	 DWORD PTR [rsp+32], ebp
  000b4	e8 00 00 00 00	 call	 _PyObject_CallMethodId

; 1350 :         Py_DECREF(time);

  000b9	48 8b cf	 mov	 rcx, rdi
  000bc	48 8b d8	 mov	 rbx, rax
  000bf	e8 00 00 00 00	 call	 _Py_DecRef

; 1351 :     }
; 1352 :     return result;

  000c4	48 8b c3	 mov	 rax, rbx
  000c7	48 8b 9c 24 80
	00 00 00	 mov	 rbx, QWORD PTR [rsp+128]
$LN1@build_stru:

; 1353 : }

  000cf	4c 8d 5c 24 60	 lea	 r11, QWORD PTR [rsp+96]
  000d4	49 8b 6b 28	 mov	 rbp, QWORD PTR [r11+40]
  000d8	49 8b 73 30	 mov	 rsi, QWORD PTR [r11+48]
  000dc	49 8b e3	 mov	 rsp, r11
  000df	41 5d		 pop	 r13
  000e1	41 5c		 pop	 r12
  000e3	5f		 pop	 rdi
  000e4	c3		 ret	 0
build_struct_time ENDP
_TEXT	ENDS
EXTRN	_Py_FalseStruct:BYTE
EXTRN	_Py_TrueStruct:BYTE
;	COMDAT pdata
; File c:\src\pyparallel\include\object.h
pdata	SEGMENT
$pdata$diff_to_bool DD imagerel diff_to_bool
	DD	imagerel diff_to_bool+204
	DD	imagerel $unwind$diff_to_bool
pdata	ENDS
;	COMDAT xdata
xdata	SEGMENT
$unwind$diff_to_bool DD 020601H
	DD	030025206H
; Function compile flags: /Ogtpy
; File c:\src\pyparallel\modules\_datetimemodule.c
xdata	ENDS
;	COMDAT diff_to_bool
_TEXT	SEGMENT
diff$ = 64
op$ = 72
diff_to_bool PROC					; COMDAT

; 1365 : {

  00000	40 53		 push	 rbx
  00002	48 83 ec 30	 sub	 rsp, 48			; 00000030H

; 1366 :     PyObject *result;
; 1367 :     int istrue;
; 1368 : 
; 1369 :     switch (op) {

  00006	83 fa 05	 cmp	 edx, 5
  00009	77 4d		 ja	 SHORT $LN1@diff_to_bo
  0000b	4c 8d 05 00 00
	00 00		 lea	 r8, OFFSET FLAT:__ImageBase
  00012	48 63 c2	 movsxd	 rax, edx
  00015	41 8b 94 80 00
	00 00 00	 mov	 edx, DWORD PTR $LN16@diff_to_bo[r8+rax*4]
  0001d	49 03 d0	 add	 rdx, r8
  00020	ff e2		 jmp	 rdx
$LN7@diff_to_bo:

; 1370 :         case Py_EQ: istrue = diff == 0; break;

  00022	33 c0		 xor	 eax, eax
  00024	85 c9		 test	 ecx, ecx
  00026	0f 94 c0	 sete	 al
  00029	eb 2f		 jmp	 SHORT $LN8@diff_to_bo
$LN6@diff_to_bo:

; 1371 :         case Py_NE: istrue = diff != 0; break;

  0002b	33 c0		 xor	 eax, eax
  0002d	85 c9		 test	 ecx, ecx
  0002f	0f 95 c0	 setne	 al
  00032	eb 26		 jmp	 SHORT $LN8@diff_to_bo
$LN5@diff_to_bo:

; 1372 :         case Py_LE: istrue = diff <= 0; break;

  00034	33 c0		 xor	 eax, eax
  00036	85 c9		 test	 ecx, ecx
  00038	0f 9e c0	 setle	 al
  0003b	eb 1d		 jmp	 SHORT $LN8@diff_to_bo
$LN4@diff_to_bo:

; 1373 :         case Py_GE: istrue = diff >= 0; break;

  0003d	33 c0		 xor	 eax, eax
  0003f	85 c9		 test	 ecx, ecx
  00041	0f 99 c0	 setns	 al
  00044	eb 14		 jmp	 SHORT $LN8@diff_to_bo
$LN3@diff_to_bo:

; 1374 :         case Py_LT: istrue = diff < 0; break;

  00046	33 c0		 xor	 eax, eax
  00048	85 c9		 test	 ecx, ecx
  0004a	0f 98 c0	 sets	 al
  0004d	eb 0b		 jmp	 SHORT $LN8@diff_to_bo
$LN2@diff_to_bo:

; 1375 :         case Py_GT: istrue = diff > 0; break;

  0004f	33 c0		 xor	 eax, eax
  00051	85 c9		 test	 ecx, ecx
  00053	0f 9f c0	 setg	 al
  00056	eb 02		 jmp	 SHORT $LN8@diff_to_bo
$LN1@diff_to_bo:

; 1376 :         default:
; 1377 :             assert(! "op unknown");
; 1378 :             istrue = 0; /* To shut up compiler */

  00058	33 c0		 xor	 eax, eax
$LN8@diff_to_bo:

; 1379 :     }
; 1380 :     result = istrue ? Py_True : Py_False;

  0005a	48 8d 0d 00 00
	00 00		 lea	 rcx, OFFSET FLAT:_Py_TrueStruct
  00061	85 c0		 test	 eax, eax
  00063	48 8d 1d 00 00
	00 00		 lea	 rbx, OFFSET FLAT:_Py_FalseStruct
  0006a	48 0f 45 d9	 cmovne	 rbx, rcx

; 1381 :     Py_INCREF(result);

  0006e	e8 00 00 00 00	 call	 _Py_PXCTX
  00073	85 c0		 test	 eax, eax
  00075	75 32		 jne	 SHORT $LN17@diff_to_bo
  00077	48 8d 15 00 00
	00 00		 lea	 rdx, OFFSET FLAT:??_C@_0CD@HDJFDCDP@c?3?2src?2pyparallel?2include?2object@
  0007e	48 8d 0d 00 00
	00 00		 lea	 rcx, OFFSET FLAT:??_C@_0L@DHGMCEID@_Py_IncRef?$AA@
  00085	4c 8b cb	 mov	 r9, rbx
  00088	41 b8 89 03 00
	00		 mov	 r8d, 905		; 00000389H
  0008e	c7 44 24 20 02
	00 00 00	 mov	 DWORD PTR [rsp+32], 2
  00096	e8 00 00 00 00	 call	 _PyParallel_Guard
  0009b	85 c0		 test	 eax, eax
  0009d	75 06		 jne	 SHORT $LN12@diff_to_bo
  0009f	f6 43 20 20	 test	 BYTE PTR [rbx+32], 32	; 00000020H
  000a3	74 04		 je	 SHORT $LN17@diff_to_bo
$LN12@diff_to_bo:
  000a5	48 ff 43 50	 inc	 QWORD PTR [rbx+80]
$LN17@diff_to_bo:

; 1382 :     return result;

  000a9	48 8b c3	 mov	 rax, rbx

; 1383 : }

  000ac	48 83 c4 30	 add	 rsp, 48			; 00000030H
  000b0	5b		 pop	 rbx
  000b1	c3		 ret	 0
  000b2	66 90		 npad	 2
$LN16@diff_to_bo:
  000b4	00 00 00 00	 DD	 $LN3@diff_to_bo
  000b8	00 00 00 00	 DD	 $LN5@diff_to_bo
  000bc	00 00 00 00	 DD	 $LN7@diff_to_bo
  000c0	00 00 00 00	 DD	 $LN6@diff_to_bo
  000c4	00 00 00 00	 DD	 $LN2@diff_to_bo
  000c8	00 00 00 00	 DD	 $LN4@diff_to_bo
diff_to_bool ENDP
_TEXT	ENDS
PUBLIC	??_C@_0BH@KMOACFMA@can?8t?5compare?5?$CFs?5to?5?$CFs?$AA@ ; `string'
;	COMDAT pdata
pdata	SEGMENT
$pdata$cmperror DD imagerel cmperror
	DD	imagerel cmperror+46
	DD	imagerel $unwind$cmperror
pdata	ENDS
;	COMDAT xdata
xdata	SEGMENT
$unwind$cmperror DD 010401H
	DD	04204H
xdata	ENDS
;	COMDAT ??_C@_0BH@KMOACFMA@can?8t?5compare?5?$CFs?5to?5?$CFs?$AA@
CONST	SEGMENT
??_C@_0BH@KMOACFMA@can?8t?5compare?5?$CFs?5to?5?$CFs?$AA@ DB 'can''t comp'
	DB	'are %s to %s', 00H				; `string'
; Function compile flags: /Ogtpy
CONST	ENDS
;	COMDAT cmperror
_TEXT	SEGMENT
a$ = 48
b$ = 56
cmperror PROC						; COMDAT

; 1388 : {

  00000	48 83 ec 28	 sub	 rsp, 40			; 00000028H

; 1389 :     PyErr_Format(PyExc_TypeError,
; 1390 :                  "can't compare %s to %s",
; 1391 :                  Py_TYPE(a)->tp_name, Py_TYPE(b)->tp_name);

  00004	4c 8b 4a 58	 mov	 r9, QWORD PTR [rdx+88]
  00008	4c 8b 41 58	 mov	 r8, QWORD PTR [rcx+88]
  0000c	48 8b 0d 00 00
	00 00		 mov	 rcx, QWORD PTR PyExc_TypeError
  00013	4d 8b 49 70	 mov	 r9, QWORD PTR [r9+112]
  00017	4d 8b 40 70	 mov	 r8, QWORD PTR [r8+112]
  0001b	48 8d 15 00 00
	00 00		 lea	 rdx, OFFSET FLAT:??_C@_0BH@KMOACFMA@can?8t?5compare?5?$CFs?5to?5?$CFs?$AA@
  00022	e8 00 00 00 00	 call	 PyErr_Format

; 1392 :     return NULL;

  00027	33 c0		 xor	 eax, eax

; 1393 : }

  00029	48 83 c4 28	 add	 rsp, 40			; 00000028H
  0002d	c3		 ret	 0
cmperror ENDP
_TEXT	ENDS
EXTRN	PyNumber_Add:PROC
EXTRN	PyNumber_Multiply:PROC
EXTRN	PyLong_FromLong:PROC
;	COMDAT pdata
; File c:\src\pyparallel\include\object.h
pdata	SEGMENT
$pdata$delta_to_microseconds DD imagerel delta_to_microseconds
	DD	imagerel delta_to_microseconds+58
	DD	imagerel $unwind$delta_to_microseconds
pdata	ENDS
;	COMDAT pdata
pdata	SEGMENT
$pdata$0$delta_to_microseconds DD imagerel delta_to_microseconds+58
	DD	imagerel delta_to_microseconds+431
	DD	imagerel $chain$0$delta_to_microseconds
pdata	ENDS
;	COMDAT pdata
pdata	SEGMENT
$pdata$1$delta_to_microseconds DD imagerel delta_to_microseconds+431
	DD	imagerel delta_to_microseconds+557
	DD	imagerel $chain$1$delta_to_microseconds
pdata	ENDS
;	COMDAT xdata
xdata	SEGMENT
$chain$1$delta_to_microseconds DD 021H
	DD	imagerel delta_to_microseconds
	DD	imagerel delta_to_microseconds+58
	DD	imagerel $unwind$delta_to_microseconds
xdata	ENDS
;	COMDAT xdata
xdata	SEGMENT
$chain$0$delta_to_microseconds DD 020521H
	DD	085405H
	DD	imagerel delta_to_microseconds
	DD	imagerel delta_to_microseconds+58
	DD	imagerel $unwind$delta_to_microseconds
xdata	ENDS
;	COMDAT xdata
xdata	SEGMENT
$unwind$delta_to_microseconds DD 081501H
	DD	0b7415H
	DD	0a6415H
	DD	093415H
	DD	0c0115215H
; Function compile flags: /Ogtpy
; File c:\src\pyparallel\modules\_datetimemodule.c
xdata	ENDS
;	COMDAT delta_to_microseconds
_TEXT	SEGMENT
self$ = 64
delta_to_microseconds PROC				; COMDAT

; 1425 : {

  00000	48 89 5c 24 10	 mov	 QWORD PTR [rsp+16], rbx
  00005	48 89 74 24 18	 mov	 QWORD PTR [rsp+24], rsi
  0000a	48 89 7c 24 20	 mov	 QWORD PTR [rsp+32], rdi
  0000f	41 54		 push	 r12
  00011	48 83 ec 30	 sub	 rsp, 48			; 00000030H
  00015	4c 8b e1	 mov	 r12, rcx

; 1426 :     PyObject *x1 = NULL;
; 1427 :     PyObject *x2 = NULL;
; 1428 :     PyObject *x3 = NULL;
; 1429 :     PyObject *result = NULL;
; 1430 : 
; 1431 :     x1 = PyLong_FromLong(GET_TD_DAYS(self));

  00018	8b 49 68	 mov	 ecx, DWORD PTR [rcx+104]
  0001b	33 db		 xor	 ebx, ebx
  0001d	8b fb		 mov	 edi, ebx
  0001f	e8 00 00 00 00	 call	 PyLong_FromLong
  00024	48 8b f0	 mov	 rsi, rax

; 1432 :     if (x1 == NULL)

  00027	48 85 c0	 test	 rax, rax
  0002a	0f 84 e4 01 00
	00		 je	 $LN58@delta_to_m

; 1433 :         goto Done;
; 1434 :     x2 = PyNumber_Multiply(x1, seconds_per_day);        /* days in seconds */

  00030	48 8b 15 00 00
	00 00		 mov	 rdx, QWORD PTR seconds_per_day
  00037	48 8b c8	 mov	 rcx, rax
  0003a	48 89 6c 24 40	 mov	 QWORD PTR [rsp+64], rbp
  0003f	e8 00 00 00 00	 call	 PyNumber_Multiply
  00044	48 8b e8	 mov	 rbp, rax

; 1435 :     if (x2 == NULL)

  00047	48 85 c0	 test	 rax, rax
  0004a	0f 84 86 00 00
	00		 je	 $Done$21335

; 1436 :         goto Done;
; 1437 :     Py_DECREF(x1);

  00050	48 8b ce	 mov	 rcx, rsi
  00053	e8 00 00 00 00	 call	 _Py_DecRef

; 1438 :     x1 = NULL;
; 1439 : 
; 1440 :     /* x2 has days in seconds */
; 1441 :     x1 = PyLong_FromLong(GET_TD_SECONDS(self));         /* seconds */

  00058	41 8b 4c 24 6c	 mov	 ecx, DWORD PTR [r12+108]
  0005d	e8 00 00 00 00	 call	 PyLong_FromLong
  00062	48 8b f0	 mov	 rsi, rax

; 1442 :     if (x1 == NULL)

  00065	48 85 c0	 test	 rax, rax
  00068	0f 84 cd 00 00
	00		 je	 $LN11@delta_to_m

; 1443 :         goto Done;
; 1444 :     x3 = PyNumber_Add(x1, x2);          /* days and seconds in seconds */

  0006e	48 8b d5	 mov	 rdx, rbp
  00071	48 8b c8	 mov	 rcx, rax
  00074	e8 00 00 00 00	 call	 PyNumber_Add
  00079	48 8b f8	 mov	 rdi, rax

; 1445 :     if (x3 == NULL)

  0007c	48 85 c0	 test	 rax, rax
  0007f	74 55		 je	 SHORT $Done$21335

; 1446 :         goto Done;
; 1447 :     Py_DECREF(x1);

  00081	48 8b ce	 mov	 rcx, rsi
  00084	e8 00 00 00 00	 call	 _Py_DecRef

; 1448 :     Py_DECREF(x2);

  00089	48 8b cd	 mov	 rcx, rbp
  0008c	e8 00 00 00 00	 call	 _Py_DecRef

; 1449 :     /* x1 = */ x2 = NULL;
; 1450 : 
; 1451 :     /* x3 has days+seconds in seconds */
; 1452 :     x1 = PyNumber_Multiply(x3, us_per_second);          /* us */

  00091	48 8b 15 00 00
	00 00		 mov	 rdx, QWORD PTR us_per_second
  00098	48 8b cf	 mov	 rcx, rdi
  0009b	e8 00 00 00 00	 call	 PyNumber_Multiply
  000a0	48 8b f0	 mov	 rsi, rax

; 1453 :     if (x1 == NULL)

  000a3	48 85 c0	 test	 rax, rax
  000a6	0f 84 f9 00 00
	00		 je	 $LN7@delta_to_m

; 1454 :         goto Done;
; 1455 :     Py_DECREF(x3);

  000ac	48 8b cf	 mov	 rcx, rdi
  000af	e8 00 00 00 00	 call	 _Py_DecRef

; 1456 :     x3 = NULL;
; 1457 : 
; 1458 :     /* x1 has days+seconds in us */
; 1459 :     x2 = PyLong_FromLong(GET_TD_MICROSECONDS(self));

  000b4	41 8b 4c 24 70	 mov	 ecx, DWORD PTR [r12+112]
  000b9	8b fb		 mov	 edi, ebx
  000bb	e8 00 00 00 00	 call	 PyLong_FromLong
  000c0	48 8b e8	 mov	 rbp, rax

; 1460 :     if (x2 == NULL)

  000c3	48 85 c0	 test	 rax, rax
  000c6	74 0e		 je	 SHORT $Done$21335

; 1461 :         goto Done;
; 1462 :     result = PyNumber_Add(x1, x2);

  000c8	48 8b d0	 mov	 rdx, rax
  000cb	48 8b ce	 mov	 rcx, rsi
  000ce	e8 00 00 00 00	 call	 PyNumber_Add
  000d3	48 8b d8	 mov	 rbx, rax
$Done$21335:

; 1463 : 
; 1464 : Done:
; 1465 :     Py_XDECREF(x1);

  000d6	e8 00 00 00 00	 call	 _Py_PXCTX
  000db	85 c0		 test	 eax, eax
  000dd	75 5c		 jne	 SHORT $LN11@delta_to_m
  000df	48 8b 46 20	 mov	 rax, QWORD PTR [rsi+32]
  000e3	a8 20		 test	 al, 32			; 00000020H
  000e5	75 4c		 jne	 SHORT $LN25@delta_to_m
  000e7	84 c0		 test	 al, al
  000e9	78 48		 js	 SHORT $LN25@delta_to_m
  000eb	a8 02		 test	 al, 2
  000ed	75 4c		 jne	 SHORT $LN11@delta_to_m
  000ef	48 ff 4e 50	 dec	 QWORD PTR [rsi+80]
  000f3	75 46		 jne	 SHORT $LN11@delta_to_m
  000f5	48 8d 15 00 00
	00 00		 lea	 rdx, OFFSET FLAT:??_C@_0CD@HDJFDCDP@c?3?2src?2pyparallel?2include?2object@
  000fc	48 8d 0d 00 00
	00 00		 lea	 rcx, OFFSET FLAT:??_C@_0L@DMHMLFIA@_Py_DecRef?$AA@
  00103	4c 8b ce	 mov	 r9, rsi
  00106	41 b8 a4 03 00
	00		 mov	 r8d, 932		; 000003a4H
  0010c	c7 44 24 20 10
	00 00 00	 mov	 DWORD PTR [rsp+32], 16
  00114	e8 00 00 00 00	 call	 _PyParallel_Guard
  00119	48 8b ce	 mov	 rcx, rsi
  0011c	85 c0		 test	 eax, eax
  0011e	74 07		 je	 SHORT $LN30@delta_to_m
  00120	e8 00 00 00 00	 call	 _Px_Dealloc
  00125	eb 14		 jmp	 SHORT $LN11@delta_to_m
$LN30@delta_to_m:
  00127	48 8b 46 58	 mov	 rax, QWORD PTR [rsi+88]
  0012b	ff 90 88 00 00
	00		 call	 QWORD PTR [rax+136]
  00131	eb 08		 jmp	 SHORT $LN11@delta_to_m
$LN25@delta_to_m:
  00133	48 8b ce	 mov	 rcx, rsi
  00136	e8 00 00 00 00	 call	 Px_DecRef
$LN11@delta_to_m:

; 1466 :     Py_XDECREF(x2);

  0013b	48 85 ed	 test	 rbp, rbp
  0013e	74 65		 je	 SHORT $LN7@delta_to_m
  00140	e8 00 00 00 00	 call	 _Py_PXCTX
  00145	85 c0		 test	 eax, eax
  00147	75 5c		 jne	 SHORT $LN7@delta_to_m
  00149	48 8b 45 20	 mov	 rax, QWORD PTR [rbp+32]
  0014d	a8 20		 test	 al, 32			; 00000020H
  0014f	75 4c		 jne	 SHORT $LN36@delta_to_m
  00151	84 c0		 test	 al, al
  00153	78 48		 js	 SHORT $LN36@delta_to_m
  00155	a8 02		 test	 al, 2
  00157	75 4c		 jne	 SHORT $LN7@delta_to_m
  00159	48 ff 4d 50	 dec	 QWORD PTR [rbp+80]
  0015d	75 46		 jne	 SHORT $LN7@delta_to_m
  0015f	48 8d 15 00 00
	00 00		 lea	 rdx, OFFSET FLAT:??_C@_0CD@HDJFDCDP@c?3?2src?2pyparallel?2include?2object@
  00166	48 8d 0d 00 00
	00 00		 lea	 rcx, OFFSET FLAT:??_C@_0L@DMHMLFIA@_Py_DecRef?$AA@
  0016d	4c 8b cd	 mov	 r9, rbp
  00170	41 b8 a4 03 00
	00		 mov	 r8d, 932		; 000003a4H
  00176	c7 44 24 20 10
	00 00 00	 mov	 DWORD PTR [rsp+32], 16
  0017e	e8 00 00 00 00	 call	 _PyParallel_Guard
  00183	48 8b cd	 mov	 rcx, rbp
  00186	85 c0		 test	 eax, eax
  00188	74 07		 je	 SHORT $LN41@delta_to_m
  0018a	e8 00 00 00 00	 call	 _Px_Dealloc
  0018f	eb 14		 jmp	 SHORT $LN7@delta_to_m
$LN41@delta_to_m:
  00191	48 8b 45 58	 mov	 rax, QWORD PTR [rbp+88]
  00195	ff 90 88 00 00
	00		 call	 QWORD PTR [rax+136]
  0019b	eb 08		 jmp	 SHORT $LN7@delta_to_m
$LN36@delta_to_m:
  0019d	48 8b cd	 mov	 rcx, rbp
  001a0	e8 00 00 00 00	 call	 Px_DecRef
$LN7@delta_to_m:

; 1467 :     Py_XDECREF(x3);

  001a5	48 8b 6c 24 40	 mov	 rbp, QWORD PTR [rsp+64]
  001aa	48 85 ff	 test	 rdi, rdi
  001ad	74 65		 je	 SHORT $LN58@delta_to_m
  001af	e8 00 00 00 00	 call	 _Py_PXCTX
  001b4	85 c0		 test	 eax, eax
  001b6	75 5c		 jne	 SHORT $LN58@delta_to_m
  001b8	48 8b 47 20	 mov	 rax, QWORD PTR [rdi+32]
  001bc	a8 20		 test	 al, 32			; 00000020H
  001be	75 4c		 jne	 SHORT $LN47@delta_to_m
  001c0	84 c0		 test	 al, al
  001c2	78 48		 js	 SHORT $LN47@delta_to_m
  001c4	a8 02		 test	 al, 2
  001c6	75 4c		 jne	 SHORT $LN58@delta_to_m
  001c8	48 ff 4f 50	 dec	 QWORD PTR [rdi+80]
  001cc	75 46		 jne	 SHORT $LN58@delta_to_m
  001ce	48 8d 15 00 00
	00 00		 lea	 rdx, OFFSET FLAT:??_C@_0CD@HDJFDCDP@c?3?2src?2pyparallel?2include?2object@
  001d5	48 8d 0d 00 00
	00 00		 lea	 rcx, OFFSET FLAT:??_C@_0L@DMHMLFIA@_Py_DecRef?$AA@
  001dc	4c 8b cf	 mov	 r9, rdi
  001df	41 b8 a4 03 00
	00		 mov	 r8d, 932		; 000003a4H
  001e5	c7 44 24 20 10
	00 00 00	 mov	 DWORD PTR [rsp+32], 16
  001ed	e8 00 00 00 00	 call	 _PyParallel_Guard
  001f2	48 8b cf	 mov	 rcx, rdi
  001f5	85 c0		 test	 eax, eax
  001f7	74 07		 je	 SHORT $LN52@delta_to_m
  001f9	e8 00 00 00 00	 call	 _Px_Dealloc
  001fe	eb 14		 jmp	 SHORT $LN58@delta_to_m
$LN52@delta_to_m:
  00200	48 8b 47 58	 mov	 rax, QWORD PTR [rdi+88]
  00204	ff 90 88 00 00
	00		 call	 QWORD PTR [rax+136]
  0020a	eb 08		 jmp	 SHORT $LN58@delta_to_m
$LN47@delta_to_m:
  0020c	48 8b cf	 mov	 rcx, rdi
  0020f	e8 00 00 00 00	 call	 Px_DecRef
$LN58@delta_to_m:

; 1468 :     return result;
; 1469 : }

  00214	48 8b 74 24 50	 mov	 rsi, QWORD PTR [rsp+80]
  00219	48 8b 7c 24 58	 mov	 rdi, QWORD PTR [rsp+88]
  0021e	48 8b c3	 mov	 rax, rbx
  00221	48 8b 5c 24 48	 mov	 rbx, QWORD PTR [rsp+72]
  00226	48 83 c4 30	 add	 rsp, 48			; 00000030H
  0022a	41 5c		 pop	 r12
  0022c	c3		 ret	 0
delta_to_microseconds ENDP
_TEXT	ENDS
EXTRN	PyErr_Occurred:PROC
EXTRN	PyLong_AsLong:PROC
EXTRN	PyTuple_GetItem:PROC
EXTRN	PyNumber_Divmod:PROC
;	COMDAT pdata
; File c:\src\pyparallel\include\object.h
pdata	SEGMENT
$pdata$microseconds_to_delta_ex DD imagerel microseconds_to_delta_ex
	DD	imagerel microseconds_to_delta_ex+44
	DD	imagerel $unwind$microseconds_to_delta_ex
pdata	ENDS
;	COMDAT pdata
pdata	SEGMENT
$pdata$0$microseconds_to_delta_ex DD imagerel microseconds_to_delta_ex+44
	DD	imagerel microseconds_to_delta_ex+49
	DD	imagerel $chain$0$microseconds_to_delta_ex
pdata	ENDS
;	COMDAT pdata
pdata	SEGMENT
$pdata$1$microseconds_to_delta_ex DD imagerel microseconds_to_delta_ex+49
	DD	imagerel microseconds_to_delta_ex+213
	DD	imagerel $chain$1$microseconds_to_delta_ex
pdata	ENDS
;	COMDAT pdata
pdata	SEGMENT
$pdata$2$microseconds_to_delta_ex DD imagerel microseconds_to_delta_ex+213
	DD	imagerel microseconds_to_delta_ex+268
	DD	imagerel $chain$2$microseconds_to_delta_ex
pdata	ENDS
;	COMDAT pdata
pdata	SEGMENT
$pdata$3$microseconds_to_delta_ex DD imagerel microseconds_to_delta_ex+268
	DD	imagerel microseconds_to_delta_ex+333
	DD	imagerel $chain$3$microseconds_to_delta_ex
pdata	ENDS
;	COMDAT pdata
pdata	SEGMENT
$pdata$4$microseconds_to_delta_ex DD imagerel microseconds_to_delta_ex+333
	DD	imagerel microseconds_to_delta_ex+338
	DD	imagerel $chain$4$microseconds_to_delta_ex
pdata	ENDS
;	COMDAT pdata
pdata	SEGMENT
$pdata$5$microseconds_to_delta_ex DD imagerel microseconds_to_delta_ex+338
	DD	imagerel microseconds_to_delta_ex+453
	DD	imagerel $chain$5$microseconds_to_delta_ex
pdata	ENDS
;	COMDAT pdata
pdata	SEGMENT
$pdata$6$microseconds_to_delta_ex DD imagerel microseconds_to_delta_ex+453
	DD	imagerel microseconds_to_delta_ex+549
	DD	imagerel $chain$6$microseconds_to_delta_ex
pdata	ENDS
;	COMDAT pdata
pdata	SEGMENT
$pdata$8$microseconds_to_delta_ex DD imagerel microseconds_to_delta_ex+549
	DD	imagerel microseconds_to_delta_ex+576
	DD	imagerel $chain$8$microseconds_to_delta_ex
pdata	ENDS
;	COMDAT pdata
pdata	SEGMENT
$pdata$10$microseconds_to_delta_ex DD imagerel microseconds_to_delta_ex+576
	DD	imagerel microseconds_to_delta_ex+589
	DD	imagerel $chain$10$microseconds_to_delta_ex
pdata	ENDS
;	COMDAT pdata
pdata	SEGMENT
$pdata$11$microseconds_to_delta_ex DD imagerel microseconds_to_delta_ex+589
	DD	imagerel microseconds_to_delta_ex+601
	DD	imagerel $chain$11$microseconds_to_delta_ex
pdata	ENDS
;	COMDAT xdata
xdata	SEGMENT
$chain$11$microseconds_to_delta_ex DD 021H
	DD	imagerel microseconds_to_delta_ex
	DD	imagerel microseconds_to_delta_ex+44
	DD	imagerel $unwind$microseconds_to_delta_ex
xdata	ENDS
;	COMDAT xdata
xdata	SEGMENT
$chain$10$microseconds_to_delta_ex DD 020021H
	DD	0a3400H
	DD	imagerel microseconds_to_delta_ex
	DD	imagerel microseconds_to_delta_ex+44
	DD	imagerel $unwind$microseconds_to_delta_ex
xdata	ENDS
;	COMDAT xdata
xdata	SEGMENT
$chain$8$microseconds_to_delta_ex DD 020021H
	DD	0a3400H
	DD	imagerel microseconds_to_delta_ex
	DD	imagerel microseconds_to_delta_ex+44
	DD	imagerel $unwind$microseconds_to_delta_ex
xdata	ENDS
;	COMDAT xdata
xdata	SEGMENT
$chain$6$microseconds_to_delta_ex DD 021H
	DD	imagerel microseconds_to_delta_ex+44
	DD	imagerel microseconds_to_delta_ex+49
	DD	imagerel $chain$0$microseconds_to_delta_ex
xdata	ENDS
;	COMDAT xdata
xdata	SEGMENT
$chain$5$microseconds_to_delta_ex DD 021H
	DD	imagerel microseconds_to_delta_ex+49
	DD	imagerel microseconds_to_delta_ex+213
	DD	imagerel $chain$1$microseconds_to_delta_ex
xdata	ENDS
;	COMDAT xdata
xdata	SEGMENT
$chain$4$microseconds_to_delta_ex DD 021H
	DD	imagerel microseconds_to_delta_ex+213
	DD	imagerel microseconds_to_delta_ex+268
	DD	imagerel $chain$2$microseconds_to_delta_ex
xdata	ENDS
;	COMDAT xdata
xdata	SEGMENT
$chain$3$microseconds_to_delta_ex DD 020521H
	DD	0cc405H
	DD	imagerel microseconds_to_delta_ex+213
	DD	imagerel microseconds_to_delta_ex+268
	DD	imagerel $chain$2$microseconds_to_delta_ex
xdata	ENDS
;	COMDAT xdata
xdata	SEGMENT
$chain$2$microseconds_to_delta_ex DD 020521H
	DD	0b5405H
	DD	imagerel microseconds_to_delta_ex+49
	DD	imagerel microseconds_to_delta_ex+213
	DD	imagerel $chain$1$microseconds_to_delta_ex
xdata	ENDS
;	COMDAT xdata
xdata	SEGMENT
$chain$1$microseconds_to_delta_ex DD 020521H
	DD	0dd405H
	DD	imagerel microseconds_to_delta_ex+44
	DD	imagerel microseconds_to_delta_ex+49
	DD	imagerel $chain$0$microseconds_to_delta_ex
xdata	ENDS
;	COMDAT xdata
xdata	SEGMENT
$chain$0$microseconds_to_delta_ex DD 020521H
	DD	0a3405H
	DD	imagerel microseconds_to_delta_ex
	DD	imagerel microseconds_to_delta_ex+44
	DD	imagerel $unwind$microseconds_to_delta_ex
xdata	ENDS
;	COMDAT xdata
xdata	SEGMENT
$unwind$microseconds_to_delta_ex DD 040901H
	DD	0e0055209H
	DD	060027003H
; Function compile flags: /Ogtpy
; File c:\src\pyparallel\modules\_datetimemodule.c
xdata	ENDS
;	COMDAT microseconds_to_delta_ex
_TEXT	SEGMENT
pyus$ = 80
type$ = 88
microseconds_to_delta_ex PROC				; COMDAT

; 1475 : {

  00000	40 56		 push	 rsi
  00002	57		 push	 rdi
  00003	41 56		 push	 r14
  00005	48 83 ec 30	 sub	 rsp, 48			; 00000030H
  00009	4c 8b f2	 mov	 r14, rdx

; 1476 :     int us;
; 1477 :     int s;
; 1478 :     int d;
; 1479 :     long temp;
; 1480 : 
; 1481 :     PyObject *tuple = NULL;
; 1482 :     PyObject *num = NULL;
; 1483 :     PyObject *result = NULL;
; 1484 : 
; 1485 :     tuple = PyNumber_Divmod(pyus, us_per_second);

  0000c	48 8b 15 00 00
	00 00		 mov	 rdx, QWORD PTR us_per_second
  00013	33 ff		 xor	 edi, edi
  00015	e8 00 00 00 00	 call	 PyNumber_Divmod
  0001a	48 8b f0	 mov	 rsi, rax

; 1486 :     if (tuple == NULL)

  0001d	48 85 c0	 test	 rax, rax
  00020	0f 84 27 02 00
	00		 je	 $LN49@microsecon

; 1487 :         goto Done;
; 1488 : 
; 1489 :     num = PyTuple_GetItem(tuple, 1);            /* us */

  00026	8d 57 01	 lea	 edx, QWORD PTR [rdi+1]
  00029	48 8b c8	 mov	 rcx, rax
  0002c	48 89 5c 24 50	 mov	 QWORD PTR [rsp+80], rbx
  00031	4c 89 6c 24 68	 mov	 QWORD PTR [rsp+104], r13
  00036	e8 00 00 00 00	 call	 PyTuple_GetItem
  0003b	48 8b d8	 mov	 rbx, rax

; 1490 :     if (num == NULL)

  0003e	48 85 c0	 test	 rax, rax
  00041	0f 84 0b 01 00
	00		 je	 $Done$21388

; 1491 :         goto Done;
; 1492 :     temp = PyLong_AsLong(num);

  00047	48 8b c8	 mov	 rcx, rax
  0004a	e8 00 00 00 00	 call	 PyLong_AsLong

; 1493 :     num = NULL;

  0004f	8b df		 mov	 ebx, edi
  00051	44 8b e8	 mov	 r13d, eax

; 1494 :     if (temp == -1 && PyErr_Occurred())

  00054	83 f8 ff	 cmp	 eax, -1
  00057	75 0e		 jne	 SHORT $LN18@microsecon
  00059	e8 00 00 00 00	 call	 PyErr_Occurred
  0005e	48 85 c0	 test	 rax, rax
  00061	0f 85 eb 00 00
	00		 jne	 $Done$21388
$LN18@microsecon:

; 1495 :         goto Done;
; 1496 :     assert(0 <= temp && temp < 1000000);
; 1497 :     us = (int)temp;
; 1498 :     if (us < 0) {

  00067	45 85 ed	 test	 r13d, r13d
  0006a	0f 88 e2 00 00
	00		 js	 $Done$21388

; 1499 :         /* The divisor was positive, so this must be an error. */
; 1500 :         assert(PyErr_Occurred());
; 1501 :         goto Done;
; 1502 :     }
; 1503 : 
; 1504 :     num = PyTuple_GetItem(tuple, 0);            /* leftover seconds */

  00070	33 d2		 xor	 edx, edx
  00072	48 8b ce	 mov	 rcx, rsi
  00075	e8 00 00 00 00	 call	 PyTuple_GetItem
  0007a	48 8b d8	 mov	 rbx, rax

; 1505 :     if (num == NULL)

  0007d	48 85 c0	 test	 rax, rax
  00080	0f 84 cc 00 00
	00		 je	 $Done$21388

; 1506 :         goto Done;
; 1507 :     Py_INCREF(num);

  00086	48 8b c8	 mov	 rcx, rax
  00089	e8 00 00 00 00	 call	 _Py_IncRef

; 1508 :     Py_DECREF(tuple);

  0008e	48 8b ce	 mov	 rcx, rsi
  00091	e8 00 00 00 00	 call	 _Py_DecRef

; 1509 : 
; 1510 :     tuple = PyNumber_Divmod(num, seconds_per_day);

  00096	48 8b 15 00 00
	00 00		 mov	 rdx, QWORD PTR seconds_per_day
  0009d	48 8b cb	 mov	 rcx, rbx
  000a0	e8 00 00 00 00	 call	 PyNumber_Divmod
  000a5	48 8b f0	 mov	 rsi, rax

; 1511 :     if (tuple == NULL)

  000a8	48 85 c0	 test	 rax, rax
  000ab	0f 84 06 01 00
	00		 je	 $LN7@microsecon

; 1512 :         goto Done;
; 1513 :     Py_DECREF(num);

  000b1	48 8b cb	 mov	 rcx, rbx
  000b4	e8 00 00 00 00	 call	 _Py_DecRef

; 1514 : 
; 1515 :     num = PyTuple_GetItem(tuple, 1);            /* seconds */

  000b9	ba 01 00 00 00	 mov	 edx, 1
  000be	48 8b ce	 mov	 rcx, rsi
  000c1	e8 00 00 00 00	 call	 PyTuple_GetItem
  000c6	48 8b d8	 mov	 rbx, rax

; 1516 :     if (num == NULL)

  000c9	48 85 c0	 test	 rax, rax
  000cc	0f 84 80 00 00
	00		 je	 $Done$21388

; 1517 :         goto Done;
; 1518 :     temp = PyLong_AsLong(num);

  000d2	48 8b c8	 mov	 rcx, rax
  000d5	48 89 6c 24 58	 mov	 QWORD PTR [rsp+88], rbp
  000da	e8 00 00 00 00	 call	 PyLong_AsLong

; 1519 :     num = NULL;

  000df	48 8b df	 mov	 rbx, rdi
  000e2	8b e8		 mov	 ebp, eax

; 1520 :     if (temp == -1 && PyErr_Occurred())

  000e4	83 f8 ff	 cmp	 eax, -1
  000e7	75 0a		 jne	 SHORT $LN13@microsecon
  000e9	e8 00 00 00 00	 call	 PyErr_Occurred
  000ee	48 85 c0	 test	 rax, rax
  000f1	75 5a		 jne	 SHORT $LN51@microsecon
$LN13@microsecon:

; 1521 :         goto Done;
; 1522 :     assert(0 <= temp && temp < 24*3600);
; 1523 :     s = (int)temp;
; 1524 : 
; 1525 :     if (s < 0) {

  000f3	85 ed		 test	 ebp, ebp
  000f5	78 56		 js	 SHORT $LN51@microsecon

; 1526 :         /* The divisor was positive, so this must be an error. */
; 1527 :         assert(PyErr_Occurred());
; 1528 :         goto Done;
; 1529 :     }
; 1530 : 
; 1531 :     num = PyTuple_GetItem(tuple, 0);            /* leftover days */

  000f7	33 d2		 xor	 edx, edx
  000f9	48 8b ce	 mov	 rcx, rsi
  000fc	e8 00 00 00 00	 call	 PyTuple_GetItem
  00101	48 8b d8	 mov	 rbx, rax

; 1532 :     if (num == NULL)

  00104	48 85 c0	 test	 rax, rax
  00107	74 44		 je	 SHORT $LN51@microsecon

; 1533 :         goto Done;
; 1534 :     Py_INCREF(num);

  00109	48 8b c8	 mov	 rcx, rax
  0010c	4c 89 64 24 60	 mov	 QWORD PTR [rsp+96], r12
  00111	e8 00 00 00 00	 call	 _Py_IncRef

; 1535 :     temp = PyLong_AsLong(num);

  00116	48 8b cb	 mov	 rcx, rbx
  00119	e8 00 00 00 00	 call	 PyLong_AsLong
  0011e	44 8b e0	 mov	 r12d, eax

; 1536 :     if (temp == -1 && PyErr_Occurred())

  00121	83 f8 ff	 cmp	 eax, -1
  00124	75 0a		 jne	 SHORT $LN10@microsecon
  00126	e8 00 00 00 00	 call	 PyErr_Occurred
  0012b	48 85 c0	 test	 rax, rax
  0012e	75 18		 jne	 SHORT $LN52@microsecon
$LN10@microsecon:

; 1537 :         goto Done;
; 1538 :     d = (int)temp;
; 1539 :     if ((long)d != temp) {
; 1540 :         PyErr_SetString(PyExc_OverflowError, "normalized days too "
; 1541 :                         "large to fit in a C int");
; 1542 :         goto Done;
; 1543 :     }
; 1544 :     result = new_delta_ex(d, s, us, 0, type);

  00130	45 33 c9	 xor	 r9d, r9d
  00133	45 8b c5	 mov	 r8d, r13d
  00136	8b d5		 mov	 edx, ebp
  00138	41 8b cc	 mov	 ecx, r12d
  0013b	4c 89 74 24 20	 mov	 QWORD PTR [rsp+32], r14
  00140	e8 00 00 00 00	 call	 new_delta_ex
  00145	48 8b f8	 mov	 rdi, rax
$LN52@microsecon:
  00148	4c 8b 64 24 60	 mov	 r12, QWORD PTR [rsp+96]
$LN51@microsecon:
  0014d	48 8b 6c 24 58	 mov	 rbp, QWORD PTR [rsp+88]
$Done$21388:

; 1545 : 
; 1546 : Done:
; 1547 :     Py_XDECREF(tuple);

  00152	e8 00 00 00 00	 call	 _Py_PXCTX
  00157	85 c0		 test	 eax, eax
  00159	75 5c		 jne	 SHORT $LN7@microsecon
  0015b	48 8b 46 20	 mov	 rax, QWORD PTR [rsi+32]
  0015f	a8 20		 test	 al, 32			; 00000020H
  00161	75 4c		 jne	 SHORT $LN27@microsecon
  00163	84 c0		 test	 al, al
  00165	78 48		 js	 SHORT $LN27@microsecon
  00167	a8 02		 test	 al, 2
  00169	75 4c		 jne	 SHORT $LN7@microsecon
  0016b	48 ff 4e 50	 dec	 QWORD PTR [rsi+80]
  0016f	75 46		 jne	 SHORT $LN7@microsecon
  00171	48 8d 15 00 00
	00 00		 lea	 rdx, OFFSET FLAT:??_C@_0CD@HDJFDCDP@c?3?2src?2pyparallel?2include?2object@
  00178	48 8d 0d 00 00
	00 00		 lea	 rcx, OFFSET FLAT:??_C@_0L@DMHMLFIA@_Py_DecRef?$AA@
  0017f	4c 8b ce	 mov	 r9, rsi
  00182	41 b8 a4 03 00
	00		 mov	 r8d, 932		; 000003a4H
  00188	c7 44 24 20 10
	00 00 00	 mov	 DWORD PTR [rsp+32], 16
  00190	e8 00 00 00 00	 call	 _PyParallel_Guard
  00195	48 8b ce	 mov	 rcx, rsi
  00198	85 c0		 test	 eax, eax
  0019a	74 07		 je	 SHORT $LN32@microsecon
  0019c	e8 00 00 00 00	 call	 _Px_Dealloc
  001a1	eb 14		 jmp	 SHORT $LN7@microsecon
$LN32@microsecon:
  001a3	48 8b 46 58	 mov	 rax, QWORD PTR [rsi+88]
  001a7	ff 90 88 00 00
	00		 call	 QWORD PTR [rax+136]
  001ad	eb 08		 jmp	 SHORT $LN7@microsecon
$LN27@microsecon:
  001af	48 8b ce	 mov	 rcx, rsi
  001b2	e8 00 00 00 00	 call	 Px_DecRef
$LN7@microsecon:

; 1548 :     Py_XDECREF(num);

  001b7	4c 8b 6c 24 68	 mov	 r13, QWORD PTR [rsp+104]
  001bc	48 85 db	 test	 rbx, rbx
  001bf	0f 84 83 00 00
	00		 je	 $LN48@microsecon
  001c5	e8 00 00 00 00	 call	 _Py_PXCTX
  001ca	85 c0		 test	 eax, eax
  001cc	75 7a		 jne	 SHORT $LN48@microsecon
  001ce	48 8b 43 20	 mov	 rax, QWORD PTR [rbx+32]
  001d2	a8 20		 test	 al, 32			; 00000020H
  001d4	75 6a		 jne	 SHORT $LN38@microsecon
  001d6	84 c0		 test	 al, al
  001d8	78 66		 js	 SHORT $LN38@microsecon
  001da	a8 02		 test	 al, 2
  001dc	75 6a		 jne	 SHORT $LN48@microsecon
  001de	48 ff 4b 50	 dec	 QWORD PTR [rbx+80]
  001e2	75 64		 jne	 SHORT $LN48@microsecon
  001e4	48 8d 15 00 00
	00 00		 lea	 rdx, OFFSET FLAT:??_C@_0CD@HDJFDCDP@c?3?2src?2pyparallel?2include?2object@
  001eb	48 8d 0d 00 00
	00 00		 lea	 rcx, OFFSET FLAT:??_C@_0L@DMHMLFIA@_Py_DecRef?$AA@
  001f2	4c 8b cb	 mov	 r9, rbx
  001f5	41 b8 a4 03 00
	00		 mov	 r8d, 932		; 000003a4H
  001fb	c7 44 24 20 10
	00 00 00	 mov	 DWORD PTR [rsp+32], 16
  00203	e8 00 00 00 00	 call	 _PyParallel_Guard
  00208	48 8b cb	 mov	 rcx, rbx
  0020b	85 c0		 test	 eax, eax
  0020d	74 16		 je	 SHORT $LN43@microsecon
  0020f	e8 00 00 00 00	 call	 _Px_Dealloc
  00214	48 8b 5c 24 50	 mov	 rbx, QWORD PTR [rsp+80]

; 1549 :     return result;

  00219	48 8b c7	 mov	 rax, rdi

; 1550 : }

  0021c	48 83 c4 30	 add	 rsp, 48			; 00000030H
  00220	41 5e		 pop	 r14
  00222	5f		 pop	 rdi
  00223	5e		 pop	 rsi
  00224	c3		 ret	 0

; 1548 :     Py_XDECREF(num);

$LN43@microsecon:
  00225	48 8b 43 58	 mov	 rax, QWORD PTR [rbx+88]
  00229	ff 90 88 00 00
	00		 call	 QWORD PTR [rax+136]
  0022f	48 8b 5c 24 50	 mov	 rbx, QWORD PTR [rsp+80]

; 1549 :     return result;

  00234	48 8b c7	 mov	 rax, rdi

; 1550 : }

  00237	48 83 c4 30	 add	 rsp, 48			; 00000030H
  0023b	41 5e		 pop	 r14
  0023d	5f		 pop	 rdi
  0023e	5e		 pop	 rsi
  0023f	c3		 ret	 0

; 1548 :     Py_XDECREF(num);

$LN38@microsecon:
  00240	48 8b cb	 mov	 rcx, rbx
  00243	e8 00 00 00 00	 call	 Px_DecRef
$LN48@microsecon:
  00248	48 8b 5c 24 50	 mov	 rbx, QWORD PTR [rsp+80]
$LN49@microsecon:

; 1549 :     return result;

  0024d	48 8b c7	 mov	 rax, rdi

; 1550 : }

  00250	48 83 c4 30	 add	 rsp, 48			; 00000030H
  00254	41 5e		 pop	 r14
  00256	5f		 pop	 rdi
  00257	5e		 pop	 rsi
  00258	c3		 ret	 0
microseconds_to_delta_ex ENDP
_TEXT	ENDS
;	COMDAT pdata
pdata	SEGMENT
$pdata$multiply_int_timedelta DD imagerel multiply_int_timedelta
	DD	imagerel multiply_int_timedelta+109
	DD	imagerel $unwind$multiply_int_timedelta
pdata	ENDS
;	COMDAT xdata
xdata	SEGMENT
$unwind$multiply_int_timedelta DD 040a01H
	DD	06340aH
	DD	07006320aH
; Function compile flags: /Ogtpy
xdata	ENDS
;	COMDAT multiply_int_timedelta
_TEXT	SEGMENT
intobj$ = 48
delta$ = 56
multiply_int_timedelta PROC				; COMDAT

; 1557 : {

  00000	48 89 5c 24 08	 mov	 QWORD PTR [rsp+8], rbx
  00005	57		 push	 rdi
  00006	48 83 ec 20	 sub	 rsp, 32			; 00000020H
  0000a	48 8b f9	 mov	 rdi, rcx

; 1558 :     PyObject *pyus_in;
; 1559 :     PyObject *pyus_out;
; 1560 :     PyObject *result;
; 1561 : 
; 1562 :     pyus_in = delta_to_microseconds(delta);

  0000d	48 8b ca	 mov	 rcx, rdx
  00010	e8 00 00 00 00	 call	 delta_to_microseconds
  00015	48 8b d8	 mov	 rbx, rax

; 1563 :     if (pyus_in == NULL)

  00018	48 85 c0	 test	 rax, rax
  0001b	75 0d		 jne	 SHORT $LN2@multiply_i
$LN5@multiply_i:

; 1564 :         return NULL;

  0001d	33 c0		 xor	 eax, eax

; 1574 : }

  0001f	48 8b 5c 24 30	 mov	 rbx, QWORD PTR [rsp+48]
  00024	48 83 c4 20	 add	 rsp, 32			; 00000020H
  00028	5f		 pop	 rdi
  00029	c3		 ret	 0
$LN2@multiply_i:

; 1565 : 
; 1566 :     pyus_out = PyNumber_Multiply(pyus_in, intobj);

  0002a	48 8b d7	 mov	 rdx, rdi
  0002d	48 8b c8	 mov	 rcx, rax
  00030	e8 00 00 00 00	 call	 PyNumber_Multiply

; 1567 :     Py_DECREF(pyus_in);

  00035	48 8b cb	 mov	 rcx, rbx
  00038	48 8b f8	 mov	 rdi, rax
  0003b	e8 00 00 00 00	 call	 _Py_DecRef

; 1568 :     if (pyus_out == NULL)

  00040	48 85 ff	 test	 rdi, rdi

; 1569 :         return NULL;

  00043	74 d8		 je	 SHORT $LN5@multiply_i

; 1570 : 
; 1571 :     result = microseconds_to_delta(pyus_out);

  00045	48 8d 15 00 00
	00 00		 lea	 rdx, OFFSET FLAT:PyDateTime_DeltaType
  0004c	48 8b cf	 mov	 rcx, rdi
  0004f	e8 00 00 00 00	 call	 microseconds_to_delta_ex

; 1572 :     Py_DECREF(pyus_out);

  00054	48 8b cf	 mov	 rcx, rdi
  00057	48 8b d8	 mov	 rbx, rax
  0005a	e8 00 00 00 00	 call	 _Py_DecRef

; 1573 :     return result;

  0005f	48 8b c3	 mov	 rax, rbx

; 1574 : }

  00062	48 8b 5c 24 30	 mov	 rbx, QWORD PTR [rsp+48]
  00067	48 83 c4 20	 add	 rsp, 32			; 00000020H
  0006b	5f		 pop	 rdi
  0006c	c3		 ret	 0
multiply_int_timedelta ENDP
_TEXT	ENDS
;	COMDAT pdata
; File c:\src\pyparallel\include\object.h
pdata	SEGMENT
$pdata$multiply_float_timedelta DD imagerel multiply_float_timedelta
	DD	imagerel multiply_float_timedelta+106
	DD	imagerel $unwind$multiply_float_timedelta
pdata	ENDS
;	COMDAT pdata
pdata	SEGMENT
$pdata$0$multiply_float_timedelta DD imagerel multiply_float_timedelta+106
	DD	imagerel multiply_float_timedelta+204
	DD	imagerel $chain$0$multiply_float_timedelta
pdata	ENDS
;	COMDAT pdata
pdata	SEGMENT
$pdata$1$multiply_float_timedelta DD imagerel multiply_float_timedelta+204
	DD	imagerel multiply_float_timedelta+471
	DD	imagerel $chain$1$multiply_float_timedelta
pdata	ENDS
;	COMDAT xdata
xdata	SEGMENT
$chain$1$multiply_float_timedelta DD 021H
	DD	imagerel multiply_float_timedelta
	DD	imagerel multiply_float_timedelta+106
	DD	imagerel $unwind$multiply_float_timedelta
xdata	ENDS
;	COMDAT xdata
xdata	SEGMENT
$chain$0$multiply_float_timedelta DD 020521H
	DD	086405H
	DD	imagerel multiply_float_timedelta
	DD	imagerel multiply_float_timedelta+106
	DD	imagerel $unwind$multiply_float_timedelta
xdata	ENDS
;	COMDAT xdata
xdata	SEGMENT
$unwind$multiply_float_timedelta DD 060f01H
	DD	0a540fH
	DD	09340fH
	DD	0700b520fH
; Function compile flags: /Ogtpy
; File c:\src\pyparallel\modules\_datetimemodule.c
xdata	ENDS
;	COMDAT multiply_float_timedelta
_TEXT	SEGMENT
floatobj$ = 64
delta$ = 72
multiply_float_timedelta PROC				; COMDAT

; 1578 : {

  00000	48 89 5c 24 10	 mov	 QWORD PTR [rsp+16], rbx
  00005	48 89 6c 24 18	 mov	 QWORD PTR [rsp+24], rbp
  0000a	57		 push	 rdi
  0000b	48 83 ec 30	 sub	 rsp, 48			; 00000030H
  0000f	48 8b f9	 mov	 rdi, rcx

; 1579 :     PyObject *result = NULL;
; 1580 :     PyObject *pyus_in = NULL, *temp, *pyus_out;
; 1581 :     PyObject *ratio = NULL;
; 1582 :     _Py_IDENTIFIER(as_integer_ratio);
; 1583 : 
; 1584 :     pyus_in = delta_to_microseconds(delta);

  00012	48 8b ca	 mov	 rcx, rdx
  00015	33 ed		 xor	 ebp, ebp
  00017	e8 00 00 00 00	 call	 delta_to_microseconds
  0001c	48 8b d8	 mov	 rbx, rax

; 1585 :     if (pyus_in == NULL)

  0001f	48 85 c0	 test	 rax, rax
  00022	75 10		 jne	 SHORT $LN12@multiply_f

; 1606 : }

  00024	48 8b 5c 24 48	 mov	 rbx, QWORD PTR [rsp+72]
  00029	48 8b 6c 24 50	 mov	 rbp, QWORD PTR [rsp+80]
  0002e	48 83 c4 30	 add	 rsp, 48			; 00000030H
  00032	5f		 pop	 rdi
  00033	c3		 ret	 0
$LN12@multiply_f:

; 1586 :         return NULL;
; 1587 :     ratio = _PyObject_CallMethodId(floatobj, &PyId_as_integer_ratio, NULL);

  00034	8b 0d 00 00 00
	00		 mov	 ecx, DWORD PTR _tls_index
  0003a	65 48 8b 04 25
	58 00 00 00	 mov	 rax, QWORD PTR gs:88
  00043	ba 00 00 00 00	 mov	 edx, OFFSET FLAT:?PyId_as_integer_ratio@?1??multiply_float_timedelta@@9@9
  00048	48 03 14 c8	 add	 rdx, QWORD PTR [rax+rcx*8]
  0004c	45 33 c0	 xor	 r8d, r8d
  0004f	48 8b cf	 mov	 rcx, rdi
  00052	e8 00 00 00 00	 call	 _PyObject_CallMethodId
  00057	48 8b f8	 mov	 rdi, rax

; 1588 :     if (ratio == NULL)

  0005a	48 85 c0	 test	 rax, rax
  0005d	0f 84 ee 00 00
	00		 je	 $error$21471

; 1589 :         goto error;
; 1590 :     temp = PyNumber_Multiply(pyus_in, PyTuple_GET_ITEM(ratio, 0));

  00063	48 8b 50 70	 mov	 rdx, QWORD PTR [rax+112]
  00067	48 8b cb	 mov	 rcx, rbx
  0006a	48 89 74 24 40	 mov	 QWORD PTR [rsp+64], rsi
  0006f	e8 00 00 00 00	 call	 PyNumber_Multiply

; 1591 :     Py_DECREF(pyus_in);

  00074	48 8b cb	 mov	 rcx, rbx
  00077	48 8b f0	 mov	 rsi, rax
  0007a	e8 00 00 00 00	 call	 _Py_DecRef

; 1592 :     pyus_in = NULL;
; 1593 :     if (temp == NULL)

  0007f	48 85 f6	 test	 rsi, rsi
  00082	74 36		 je	 SHORT $LN7@multiply_f

; 1594 :         goto error;
; 1595 :     pyus_out = divide_nearest(temp, PyTuple_GET_ITEM(ratio, 1));

  00084	48 8b 57 78	 mov	 rdx, QWORD PTR [rdi+120]
  00088	48 8b ce	 mov	 rcx, rsi
  0008b	e8 00 00 00 00	 call	 divide_nearest

; 1596 :     Py_DECREF(temp);

  00090	48 8b ce	 mov	 rcx, rsi
  00093	48 8b d8	 mov	 rbx, rax
  00096	e8 00 00 00 00	 call	 _Py_DecRef

; 1597 :     if (pyus_out == NULL)

  0009b	48 85 db	 test	 rbx, rbx
  0009e	74 1a		 je	 SHORT $LN7@multiply_f

; 1598 :         goto error;
; 1599 :     result = microseconds_to_delta(pyus_out);

  000a0	48 8d 15 00 00
	00 00		 lea	 rdx, OFFSET FLAT:PyDateTime_DeltaType
  000a7	48 8b cb	 mov	 rcx, rbx
  000aa	e8 00 00 00 00	 call	 microseconds_to_delta_ex

; 1600 :     Py_DECREF(pyus_out);

  000af	48 8b cb	 mov	 rcx, rbx
  000b2	48 8b e8	 mov	 rbp, rax
  000b5	e8 00 00 00 00	 call	 _Py_DecRef
$LN7@multiply_f:

; 1603 :     Py_XDECREF(ratio);

  000ba	e8 00 00 00 00	 call	 _Py_PXCTX
  000bf	48 8b 74 24 40	 mov	 rsi, QWORD PTR [rsp+64]
  000c4	85 c0		 test	 eax, eax
  000c6	0f 85 f8 00 00
	00		 jne	 $LN3@multiply_f
  000cc	48 8b 4f 20	 mov	 rcx, QWORD PTR [rdi+32]
  000d0	f6 c1 20	 test	 cl, 32			; 00000020H
  000d3	75 77		 jne	 SHORT $LN30@multiply_f
  000d5	84 c9		 test	 cl, cl
  000d7	78 73		 js	 SHORT $LN30@multiply_f
  000d9	f6 c1 02	 test	 cl, 2
  000dc	0f 85 e2 00 00
	00		 jne	 $LN3@multiply_f
  000e2	48 ff 4f 50	 dec	 QWORD PTR [rdi+80]
  000e6	0f 85 d8 00 00
	00		 jne	 $LN3@multiply_f
  000ec	48 8d 15 00 00
	00 00		 lea	 rdx, OFFSET FLAT:??_C@_0CD@HDJFDCDP@c?3?2src?2pyparallel?2include?2object@
  000f3	48 8d 0d 00 00
	00 00		 lea	 rcx, OFFSET FLAT:??_C@_0L@DMHMLFIA@_Py_DecRef?$AA@
  000fa	4c 8b cf	 mov	 r9, rdi
  000fd	41 b8 a4 03 00
	00		 mov	 r8d, 932		; 000003a4H
  00103	c7 44 24 20 10
	00 00 00	 mov	 DWORD PTR [rsp+32], 16
  0010b	e8 00 00 00 00	 call	 _PyParallel_Guard
  00110	48 8b cf	 mov	 rcx, rdi
  00113	85 c0		 test	 eax, eax
  00115	74 18		 je	 SHORT $LN35@multiply_f
$LN38@multiply_f:
  00117	e8 00 00 00 00	 call	 _Px_Dealloc

; 1604 : 
; 1605 :     return result;

  0011c	48 8b c5	 mov	 rax, rbp

; 1606 : }

  0011f	48 8b 5c 24 48	 mov	 rbx, QWORD PTR [rsp+72]
  00124	48 8b 6c 24 50	 mov	 rbp, QWORD PTR [rsp+80]
  00129	48 83 c4 30	 add	 rsp, 48			; 00000030H
  0012d	5f		 pop	 rdi
  0012e	c3		 ret	 0

; 1603 :     Py_XDECREF(ratio);

$LN35@multiply_f:
  0012f	48 8b 47 58	 mov	 rax, QWORD PTR [rdi+88]
  00133	ff 90 88 00 00
	00		 call	 QWORD PTR [rax+136]

; 1604 : 
; 1605 :     return result;

  00139	48 8b c5	 mov	 rax, rbp

; 1606 : }

  0013c	48 8b 5c 24 48	 mov	 rbx, QWORD PTR [rsp+72]
  00141	48 8b 6c 24 50	 mov	 rbp, QWORD PTR [rsp+80]
  00146	48 83 c4 30	 add	 rsp, 48			; 00000030H
  0014a	5f		 pop	 rdi
  0014b	c3		 ret	 0

; 1603 :     Py_XDECREF(ratio);

$LN30@multiply_f:
  0014c	48 8b cf	 mov	 rcx, rdi
  0014f	eb 6e		 jmp	 SHORT $LN37@multiply_f
$error$21471:

; 1601 :  error:
; 1602 :     Py_XDECREF(pyus_in);

  00151	e8 00 00 00 00	 call	 _Py_PXCTX
  00156	85 c0		 test	 eax, eax
  00158	75 6a		 jne	 SHORT $LN3@multiply_f
  0015a	48 8b 43 20	 mov	 rax, QWORD PTR [rbx+32]
  0015e	a8 20		 test	 al, 32			; 00000020H
  00160	75 5a		 jne	 SHORT $LN19@multiply_f
  00162	84 c0		 test	 al, al
  00164	78 56		 js	 SHORT $LN19@multiply_f
  00166	a8 02		 test	 al, 2
  00168	75 5a		 jne	 SHORT $LN3@multiply_f
  0016a	48 ff 4b 50	 dec	 QWORD PTR [rbx+80]
  0016e	75 54		 jne	 SHORT $LN3@multiply_f
  00170	48 8d 15 00 00
	00 00		 lea	 rdx, OFFSET FLAT:??_C@_0CD@HDJFDCDP@c?3?2src?2pyparallel?2include?2object@
  00177	48 8d 0d 00 00
	00 00		 lea	 rcx, OFFSET FLAT:??_C@_0L@DMHMLFIA@_Py_DecRef?$AA@
  0017e	4c 8b cb	 mov	 r9, rbx
  00181	41 b8 a4 03 00
	00		 mov	 r8d, 932		; 000003a4H
  00187	c7 44 24 20 10
	00 00 00	 mov	 DWORD PTR [rsp+32], 16
  0018f	e8 00 00 00 00	 call	 _PyParallel_Guard
  00194	48 8b cb	 mov	 rcx, rbx
  00197	85 c0		 test	 eax, eax
  00199	0f 85 78 ff ff
	ff		 jne	 $LN38@multiply_f
  0019f	48 8b 43 58	 mov	 rax, QWORD PTR [rbx+88]
  001a3	ff 90 88 00 00
	00		 call	 QWORD PTR [rax+136]

; 1604 : 
; 1605 :     return result;

  001a9	48 8b c5	 mov	 rax, rbp

; 1606 : }

  001ac	48 8b 5c 24 48	 mov	 rbx, QWORD PTR [rsp+72]
  001b1	48 8b 6c 24 50	 mov	 rbp, QWORD PTR [rsp+80]
  001b6	48 83 c4 30	 add	 rsp, 48			; 00000030H
  001ba	5f		 pop	 rdi
  001bb	c3		 ret	 0

; 1601 :  error:
; 1602 :     Py_XDECREF(pyus_in);

$LN19@multiply_f:
  001bc	48 8b cb	 mov	 rcx, rbx
$LN37@multiply_f:
  001bf	e8 00 00 00 00	 call	 Px_DecRef
$LN3@multiply_f:

; 1606 : }

  001c4	48 8b 5c 24 48	 mov	 rbx, QWORD PTR [rsp+72]
  001c9	48 8b c5	 mov	 rax, rbp
  001cc	48 8b 6c 24 50	 mov	 rbp, QWORD PTR [rsp+80]
  001d1	48 83 c4 30	 add	 rsp, 48			; 00000030H
  001d5	5f		 pop	 rdi
  001d6	c3		 ret	 0
multiply_float_timedelta ENDP
_TEXT	ENDS
EXTRN	PyNumber_FloorDivide:PROC
;	COMDAT pdata
pdata	SEGMENT
$pdata$divide_timedelta_int DD imagerel divide_timedelta_int
	DD	imagerel divide_timedelta_int+106
	DD	imagerel $unwind$divide_timedelta_int
pdata	ENDS
;	COMDAT xdata
xdata	SEGMENT
$unwind$divide_timedelta_int DD 040a01H
	DD	06340aH
	DD	07006320aH
; Function compile flags: /Ogtpy
xdata	ENDS
;	COMDAT divide_timedelta_int
_TEXT	SEGMENT
delta$ = 48
intobj$ = 56
divide_timedelta_int PROC				; COMDAT

; 1610 : {

  00000	48 89 5c 24 08	 mov	 QWORD PTR [rsp+8], rbx
  00005	57		 push	 rdi
  00006	48 83 ec 20	 sub	 rsp, 32			; 00000020H
  0000a	48 8b fa	 mov	 rdi, rdx

; 1611 :     PyObject *pyus_in;
; 1612 :     PyObject *pyus_out;
; 1613 :     PyObject *result;
; 1614 : 
; 1615 :     pyus_in = delta_to_microseconds(delta);

  0000d	e8 00 00 00 00	 call	 delta_to_microseconds
  00012	48 8b d8	 mov	 rbx, rax

; 1616 :     if (pyus_in == NULL)

  00015	48 85 c0	 test	 rax, rax
  00018	75 0d		 jne	 SHORT $LN2@divide_tim
$LN5@divide_tim:

; 1617 :         return NULL;

  0001a	33 c0		 xor	 eax, eax

; 1627 : }

  0001c	48 8b 5c 24 30	 mov	 rbx, QWORD PTR [rsp+48]
  00021	48 83 c4 20	 add	 rsp, 32			; 00000020H
  00025	5f		 pop	 rdi
  00026	c3		 ret	 0
$LN2@divide_tim:

; 1618 : 
; 1619 :     pyus_out = PyNumber_FloorDivide(pyus_in, intobj);

  00027	48 8b d7	 mov	 rdx, rdi
  0002a	48 8b c8	 mov	 rcx, rax
  0002d	e8 00 00 00 00	 call	 PyNumber_FloorDivide

; 1620 :     Py_DECREF(pyus_in);

  00032	48 8b cb	 mov	 rcx, rbx
  00035	48 8b f8	 mov	 rdi, rax
  00038	e8 00 00 00 00	 call	 _Py_DecRef

; 1621 :     if (pyus_out == NULL)

  0003d	48 85 ff	 test	 rdi, rdi

; 1622 :         return NULL;

  00040	74 d8		 je	 SHORT $LN5@divide_tim

; 1623 : 
; 1624 :     result = microseconds_to_delta(pyus_out);

  00042	48 8d 15 00 00
	00 00		 lea	 rdx, OFFSET FLAT:PyDateTime_DeltaType
  00049	48 8b cf	 mov	 rcx, rdi
  0004c	e8 00 00 00 00	 call	 microseconds_to_delta_ex

; 1625 :     Py_DECREF(pyus_out);

  00051	48 8b cf	 mov	 rcx, rdi
  00054	48 8b d8	 mov	 rbx, rax
  00057	e8 00 00 00 00	 call	 _Py_DecRef

; 1626 :     return result;

  0005c	48 8b c3	 mov	 rax, rbx

; 1627 : }

  0005f	48 8b 5c 24 30	 mov	 rbx, QWORD PTR [rsp+48]
  00064	48 83 c4 20	 add	 rsp, 32			; 00000020H
  00068	5f		 pop	 rdi
  00069	c3		 ret	 0
divide_timedelta_int ENDP
_TEXT	ENDS
;	COMDAT pdata
pdata	SEGMENT
$pdata$divide_timedelta_timedelta DD imagerel divide_timedelta_timedelta
	DD	imagerel divide_timedelta_timedelta+40
	DD	imagerel $unwind$divide_timedelta_timedelta
pdata	ENDS
;	COMDAT pdata
pdata	SEGMENT
$pdata$0$divide_timedelta_timedelta DD imagerel divide_timedelta_timedelta+40
	DD	imagerel divide_timedelta_timedelta+84
	DD	imagerel $chain$0$divide_timedelta_timedelta
pdata	ENDS
;	COMDAT pdata
pdata	SEGMENT
$pdata$2$divide_timedelta_timedelta DD imagerel divide_timedelta_timedelta+84
	DD	imagerel divide_timedelta_timedelta+130
	DD	imagerel $chain$2$divide_timedelta_timedelta
pdata	ENDS
;	COMDAT xdata
xdata	SEGMENT
$chain$2$divide_timedelta_timedelta DD 020021H
	DD	066400H
	DD	imagerel divide_timedelta_timedelta
	DD	imagerel divide_timedelta_timedelta+40
	DD	imagerel $unwind$divide_timedelta_timedelta
xdata	ENDS
;	COMDAT xdata
xdata	SEGMENT
$chain$0$divide_timedelta_timedelta DD 020521H
	DD	066405H
	DD	imagerel divide_timedelta_timedelta
	DD	imagerel divide_timedelta_timedelta+40
	DD	imagerel $unwind$divide_timedelta_timedelta
xdata	ENDS
;	COMDAT xdata
xdata	SEGMENT
$unwind$divide_timedelta_timedelta DD 040a01H
	DD	07340aH
	DD	07006320aH
; Function compile flags: /Ogtpy
xdata	ENDS
;	COMDAT divide_timedelta_timedelta
_TEXT	SEGMENT
left$ = 48
right$ = 56
divide_timedelta_timedelta PROC				; COMDAT

; 1631 : {

  00000	48 89 5c 24 10	 mov	 QWORD PTR [rsp+16], rbx
  00005	57		 push	 rdi
  00006	48 83 ec 20	 sub	 rsp, 32			; 00000020H
  0000a	48 8b da	 mov	 rbx, rdx

; 1632 :     PyObject *pyus_left;
; 1633 :     PyObject *pyus_right;
; 1634 :     PyObject *result;
; 1635 : 
; 1636 :     pyus_left = delta_to_microseconds(left);

  0000d	e8 00 00 00 00	 call	 delta_to_microseconds
  00012	48 8b f8	 mov	 rdi, rax

; 1637 :     if (pyus_left == NULL)

  00015	48 85 c0	 test	 rax, rax
  00018	75 0b		 jne	 SHORT $LN2@divide_tim@2

; 1650 : }

  0001a	48 8b 5c 24 38	 mov	 rbx, QWORD PTR [rsp+56]
  0001f	48 83 c4 20	 add	 rsp, 32			; 00000020H
  00023	5f		 pop	 rdi
  00024	c3		 ret	 0
$LN2@divide_tim@2:

; 1638 :         return NULL;
; 1639 : 
; 1640 :     pyus_right = delta_to_microseconds(right);

  00025	48 8b cb	 mov	 rcx, rbx
  00028	48 89 74 24 30	 mov	 QWORD PTR [rsp+48], rsi
  0002d	e8 00 00 00 00	 call	 delta_to_microseconds

; 1641 :     if (pyus_right == NULL)     {
; 1642 :         Py_DECREF(pyus_left);

  00032	48 8b cf	 mov	 rcx, rdi
  00035	48 8b f0	 mov	 rsi, rax
  00038	48 85 c0	 test	 rax, rax
  0003b	75 17		 jne	 SHORT $LN1@divide_tim@2
  0003d	e8 00 00 00 00	 call	 _Py_DecRef
  00042	48 8b 74 24 30	 mov	 rsi, QWORD PTR [rsp+48]

; 1643 :         return NULL;

  00047	33 c0		 xor	 eax, eax

; 1650 : }

  00049	48 8b 5c 24 38	 mov	 rbx, QWORD PTR [rsp+56]
  0004e	48 83 c4 20	 add	 rsp, 32			; 00000020H
  00052	5f		 pop	 rdi
  00053	c3		 ret	 0
$LN1@divide_tim@2:

; 1644 :     }
; 1645 : 
; 1646 :     result = PyNumber_FloorDivide(pyus_left, pyus_right);

  00054	48 8b d0	 mov	 rdx, rax
  00057	e8 00 00 00 00	 call	 PyNumber_FloorDivide

; 1647 :     Py_DECREF(pyus_left);

  0005c	48 8b cf	 mov	 rcx, rdi
  0005f	48 8b d8	 mov	 rbx, rax
  00062	e8 00 00 00 00	 call	 _Py_DecRef

; 1648 :     Py_DECREF(pyus_right);

  00067	48 8b ce	 mov	 rcx, rsi
  0006a	e8 00 00 00 00	 call	 _Py_DecRef
  0006f	48 8b 74 24 30	 mov	 rsi, QWORD PTR [rsp+48]

; 1649 :     return result;

  00074	48 8b c3	 mov	 rax, rbx

; 1650 : }

  00077	48 8b 5c 24 38	 mov	 rbx, QWORD PTR [rsp+56]
  0007c	48 83 c4 20	 add	 rsp, 32			; 00000020H
  00080	5f		 pop	 rdi
  00081	c3		 ret	 0
divide_timedelta_timedelta ENDP
_TEXT	ENDS
EXTRN	PyNumber_TrueDivide:PROC
;	COMDAT pdata
pdata	SEGMENT
$pdata$truedivide_timedelta_timedelta DD imagerel truedivide_timedelta_timedelta
	DD	imagerel truedivide_timedelta_timedelta+40
	DD	imagerel $unwind$truedivide_timedelta_timedelta
pdata	ENDS
;	COMDAT pdata
pdata	SEGMENT
$pdata$0$truedivide_timedelta_timedelta DD imagerel truedivide_timedelta_timedelta+40
	DD	imagerel truedivide_timedelta_timedelta+84
	DD	imagerel $chain$0$truedivide_timedelta_timedelta
pdata	ENDS
;	COMDAT pdata
pdata	SEGMENT
$pdata$2$truedivide_timedelta_timedelta DD imagerel truedivide_timedelta_timedelta+84
	DD	imagerel truedivide_timedelta_timedelta+130
	DD	imagerel $chain$2$truedivide_timedelta_timedelta
pdata	ENDS
;	COMDAT xdata
xdata	SEGMENT
$chain$2$truedivide_timedelta_timedelta DD 020021H
	DD	066400H
	DD	imagerel truedivide_timedelta_timedelta
	DD	imagerel truedivide_timedelta_timedelta+40
	DD	imagerel $unwind$truedivide_timedelta_timedelta
xdata	ENDS
;	COMDAT xdata
xdata	SEGMENT
$chain$0$truedivide_timedelta_timedelta DD 020521H
	DD	066405H
	DD	imagerel truedivide_timedelta_timedelta
	DD	imagerel truedivide_timedelta_timedelta+40
	DD	imagerel $unwind$truedivide_timedelta_timedelta
xdata	ENDS
;	COMDAT xdata
xdata	SEGMENT
$unwind$truedivide_timedelta_timedelta DD 040a01H
	DD	07340aH
	DD	07006320aH
; Function compile flags: /Ogtpy
xdata	ENDS
;	COMDAT truedivide_timedelta_timedelta
_TEXT	SEGMENT
left$ = 48
right$ = 56
truedivide_timedelta_timedelta PROC			; COMDAT

; 1654 : {

  00000	48 89 5c 24 10	 mov	 QWORD PTR [rsp+16], rbx
  00005	57		 push	 rdi
  00006	48 83 ec 20	 sub	 rsp, 32			; 00000020H
  0000a	48 8b da	 mov	 rbx, rdx

; 1655 :     PyObject *pyus_left;
; 1656 :     PyObject *pyus_right;
; 1657 :     PyObject *result;
; 1658 : 
; 1659 :     pyus_left = delta_to_microseconds(left);

  0000d	e8 00 00 00 00	 call	 delta_to_microseconds
  00012	48 8b f8	 mov	 rdi, rax

; 1660 :     if (pyus_left == NULL)

  00015	48 85 c0	 test	 rax, rax
  00018	75 0b		 jne	 SHORT $LN2@truedivide

; 1673 : }

  0001a	48 8b 5c 24 38	 mov	 rbx, QWORD PTR [rsp+56]
  0001f	48 83 c4 20	 add	 rsp, 32			; 00000020H
  00023	5f		 pop	 rdi
  00024	c3		 ret	 0
$LN2@truedivide:

; 1661 :         return NULL;
; 1662 : 
; 1663 :     pyus_right = delta_to_microseconds(right);

  00025	48 8b cb	 mov	 rcx, rbx
  00028	48 89 74 24 30	 mov	 QWORD PTR [rsp+48], rsi
  0002d	e8 00 00 00 00	 call	 delta_to_microseconds

; 1664 :     if (pyus_right == NULL)     {
; 1665 :         Py_DECREF(pyus_left);

  00032	48 8b cf	 mov	 rcx, rdi
  00035	48 8b f0	 mov	 rsi, rax
  00038	48 85 c0	 test	 rax, rax
  0003b	75 17		 jne	 SHORT $LN1@truedivide
  0003d	e8 00 00 00 00	 call	 _Py_DecRef
  00042	48 8b 74 24 30	 mov	 rsi, QWORD PTR [rsp+48]

; 1666 :         return NULL;

  00047	33 c0		 xor	 eax, eax

; 1673 : }

  00049	48 8b 5c 24 38	 mov	 rbx, QWORD PTR [rsp+56]
  0004e	48 83 c4 20	 add	 rsp, 32			; 00000020H
  00052	5f		 pop	 rdi
  00053	c3		 ret	 0
$LN1@truedivide:

; 1667 :     }
; 1668 : 
; 1669 :     result = PyNumber_TrueDivide(pyus_left, pyus_right);

  00054	48 8b d0	 mov	 rdx, rax
  00057	e8 00 00 00 00	 call	 PyNumber_TrueDivide

; 1670 :     Py_DECREF(pyus_left);

  0005c	48 8b cf	 mov	 rcx, rdi
  0005f	48 8b d8	 mov	 rbx, rax
  00062	e8 00 00 00 00	 call	 _Py_DecRef

; 1671 :     Py_DECREF(pyus_right);

  00067	48 8b ce	 mov	 rcx, rsi
  0006a	e8 00 00 00 00	 call	 _Py_DecRef
  0006f	48 8b 74 24 30	 mov	 rsi, QWORD PTR [rsp+48]

; 1672 :     return result;

  00074	48 8b c3	 mov	 rax, rbx

; 1673 : }

  00077	48 8b 5c 24 38	 mov	 rbx, QWORD PTR [rsp+56]
  0007c	48 83 c4 20	 add	 rsp, 32			; 00000020H
  00080	5f		 pop	 rdi
  00081	c3		 ret	 0
truedivide_timedelta_timedelta ENDP
_TEXT	ENDS
;	COMDAT pdata
; File c:\src\pyparallel\include\object.h
pdata	SEGMENT
$pdata$truedivide_timedelta_float DD imagerel truedivide_timedelta_float
	DD	imagerel truedivide_timedelta_float+103
	DD	imagerel $unwind$truedivide_timedelta_float
pdata	ENDS
;	COMDAT pdata
pdata	SEGMENT
$pdata$0$truedivide_timedelta_float DD imagerel truedivide_timedelta_float+103
	DD	imagerel truedivide_timedelta_float+201
	DD	imagerel $chain$0$truedivide_timedelta_float
pdata	ENDS
;	COMDAT pdata
pdata	SEGMENT
$pdata$1$truedivide_timedelta_float DD imagerel truedivide_timedelta_float+201
	DD	imagerel truedivide_timedelta_float+468
	DD	imagerel $chain$1$truedivide_timedelta_float
pdata	ENDS
;	COMDAT xdata
xdata	SEGMENT
$chain$1$truedivide_timedelta_float DD 021H
	DD	imagerel truedivide_timedelta_float
	DD	imagerel truedivide_timedelta_float+103
	DD	imagerel $unwind$truedivide_timedelta_float
xdata	ENDS
;	COMDAT xdata
xdata	SEGMENT
$chain$0$truedivide_timedelta_float DD 020521H
	DD	086405H
	DD	imagerel truedivide_timedelta_float
	DD	imagerel truedivide_timedelta_float+103
	DD	imagerel $unwind$truedivide_timedelta_float
xdata	ENDS
;	COMDAT xdata
xdata	SEGMENT
$unwind$truedivide_timedelta_float DD 060f01H
	DD	0a540fH
	DD	09340fH
	DD	0700b520fH
; Function compile flags: /Ogtpy
; File c:\src\pyparallel\modules\_datetimemodule.c
xdata	ENDS
;	COMDAT truedivide_timedelta_float
_TEXT	SEGMENT
delta$ = 64
f$ = 72
truedivide_timedelta_float PROC				; COMDAT

; 1677 : {

  00000	48 89 5c 24 10	 mov	 QWORD PTR [rsp+16], rbx
  00005	48 89 6c 24 18	 mov	 QWORD PTR [rsp+24], rbp
  0000a	57		 push	 rdi
  0000b	48 83 ec 30	 sub	 rsp, 48			; 00000030H
  0000f	48 8b fa	 mov	 rdi, rdx

; 1678 :     PyObject *result = NULL;

  00012	33 ed		 xor	 ebp, ebp

; 1679 :     PyObject *pyus_in = NULL, *temp, *pyus_out;
; 1680 :     PyObject *ratio = NULL;
; 1681 :     _Py_IDENTIFIER(as_integer_ratio);
; 1682 : 
; 1683 :     pyus_in = delta_to_microseconds(delta);

  00014	e8 00 00 00 00	 call	 delta_to_microseconds
  00019	48 8b d8	 mov	 rbx, rax

; 1684 :     if (pyus_in == NULL)

  0001c	48 85 c0	 test	 rax, rax
  0001f	75 10		 jne	 SHORT $LN12@truedivide@2

; 1705 : }

  00021	48 8b 5c 24 48	 mov	 rbx, QWORD PTR [rsp+72]
  00026	48 8b 6c 24 50	 mov	 rbp, QWORD PTR [rsp+80]
  0002b	48 83 c4 30	 add	 rsp, 48			; 00000030H
  0002f	5f		 pop	 rdi
  00030	c3		 ret	 0
$LN12@truedivide@2:

; 1685 :         return NULL;
; 1686 :     ratio = _PyObject_CallMethodId(f, &PyId_as_integer_ratio, NULL);

  00031	8b 0d 00 00 00
	00		 mov	 ecx, DWORD PTR _tls_index
  00037	65 48 8b 04 25
	58 00 00 00	 mov	 rax, QWORD PTR gs:88
  00040	ba 00 00 00 00	 mov	 edx, OFFSET FLAT:?PyId_as_integer_ratio@?1??truedivide_timedelta_float@@9@9
  00045	48 03 14 c8	 add	 rdx, QWORD PTR [rax+rcx*8]
  00049	45 33 c0	 xor	 r8d, r8d
  0004c	48 8b cf	 mov	 rcx, rdi
  0004f	e8 00 00 00 00	 call	 _PyObject_CallMethodId
  00054	48 8b f8	 mov	 rdi, rax

; 1687 :     if (ratio == NULL)

  00057	48 85 c0	 test	 rax, rax
  0005a	0f 84 ee 00 00
	00		 je	 $error$21567

; 1688 :         goto error;
; 1689 :     temp = PyNumber_Multiply(pyus_in, PyTuple_GET_ITEM(ratio, 1));

  00060	48 8b 50 78	 mov	 rdx, QWORD PTR [rax+120]
  00064	48 8b cb	 mov	 rcx, rbx
  00067	48 89 74 24 40	 mov	 QWORD PTR [rsp+64], rsi
  0006c	e8 00 00 00 00	 call	 PyNumber_Multiply

; 1690 :     Py_DECREF(pyus_in);

  00071	48 8b cb	 mov	 rcx, rbx
  00074	48 8b f0	 mov	 rsi, rax
  00077	e8 00 00 00 00	 call	 _Py_DecRef

; 1691 :     pyus_in = NULL;
; 1692 :     if (temp == NULL)

  0007c	48 85 f6	 test	 rsi, rsi
  0007f	74 36		 je	 SHORT $LN7@truedivide@2

; 1693 :         goto error;
; 1694 :     pyus_out = divide_nearest(temp, PyTuple_GET_ITEM(ratio, 0));

  00081	48 8b 57 70	 mov	 rdx, QWORD PTR [rdi+112]
  00085	48 8b ce	 mov	 rcx, rsi
  00088	e8 00 00 00 00	 call	 divide_nearest

; 1695 :     Py_DECREF(temp);

  0008d	48 8b ce	 mov	 rcx, rsi
  00090	48 8b d8	 mov	 rbx, rax
  00093	e8 00 00 00 00	 call	 _Py_DecRef

; 1696 :     if (pyus_out == NULL)

  00098	48 85 db	 test	 rbx, rbx
  0009b	74 1a		 je	 SHORT $LN7@truedivide@2

; 1697 :         goto error;
; 1698 :     result = microseconds_to_delta(pyus_out);

  0009d	48 8d 15 00 00
	00 00		 lea	 rdx, OFFSET FLAT:PyDateTime_DeltaType
  000a4	48 8b cb	 mov	 rcx, rbx
  000a7	e8 00 00 00 00	 call	 microseconds_to_delta_ex

; 1699 :     Py_DECREF(pyus_out);

  000ac	48 8b cb	 mov	 rcx, rbx
  000af	48 8b e8	 mov	 rbp, rax
  000b2	e8 00 00 00 00	 call	 _Py_DecRef
$LN7@truedivide@2:

; 1702 :     Py_XDECREF(ratio);

  000b7	e8 00 00 00 00	 call	 _Py_PXCTX
  000bc	48 8b 74 24 40	 mov	 rsi, QWORD PTR [rsp+64]
  000c1	85 c0		 test	 eax, eax
  000c3	0f 85 f8 00 00
	00		 jne	 $LN3@truedivide@2
  000c9	48 8b 4f 20	 mov	 rcx, QWORD PTR [rdi+32]
  000cd	f6 c1 20	 test	 cl, 32			; 00000020H
  000d0	75 77		 jne	 SHORT $LN30@truedivide@2
  000d2	84 c9		 test	 cl, cl
  000d4	78 73		 js	 SHORT $LN30@truedivide@2
  000d6	f6 c1 02	 test	 cl, 2
  000d9	0f 85 e2 00 00
	00		 jne	 $LN3@truedivide@2
  000df	48 ff 4f 50	 dec	 QWORD PTR [rdi+80]
  000e3	0f 85 d8 00 00
	00		 jne	 $LN3@truedivide@2
  000e9	48 8d 15 00 00
	00 00		 lea	 rdx, OFFSET FLAT:??_C@_0CD@HDJFDCDP@c?3?2src?2pyparallel?2include?2object@
  000f0	48 8d 0d 00 00
	00 00		 lea	 rcx, OFFSET FLAT:??_C@_0L@DMHMLFIA@_Py_DecRef?$AA@
  000f7	4c 8b cf	 mov	 r9, rdi
  000fa	41 b8 a4 03 00
	00		 mov	 r8d, 932		; 000003a4H
  00100	c7 44 24 20 10
	00 00 00	 mov	 DWORD PTR [rsp+32], 16
  00108	e8 00 00 00 00	 call	 _PyParallel_Guard
  0010d	48 8b cf	 mov	 rcx, rdi
  00110	85 c0		 test	 eax, eax
  00112	74 18		 je	 SHORT $LN35@truedivide@2
$LN38@truedivide@2:
  00114	e8 00 00 00 00	 call	 _Px_Dealloc

; 1703 : 
; 1704 :     return result;

  00119	48 8b c5	 mov	 rax, rbp

; 1705 : }

  0011c	48 8b 5c 24 48	 mov	 rbx, QWORD PTR [rsp+72]
  00121	48 8b 6c 24 50	 mov	 rbp, QWORD PTR [rsp+80]
  00126	48 83 c4 30	 add	 rsp, 48			; 00000030H
  0012a	5f		 pop	 rdi
  0012b	c3		 ret	 0

; 1702 :     Py_XDECREF(ratio);

$LN35@truedivide@2:
  0012c	48 8b 47 58	 mov	 rax, QWORD PTR [rdi+88]
  00130	ff 90 88 00 00
	00		 call	 QWORD PTR [rax+136]

; 1703 : 
; 1704 :     return result;

  00136	48 8b c5	 mov	 rax, rbp

; 1705 : }

  00139	48 8b 5c 24 48	 mov	 rbx, QWORD PTR [rsp+72]
  0013e	48 8b 6c 24 50	 mov	 rbp, QWORD PTR [rsp+80]
  00143	48 83 c4 30	 add	 rsp, 48			; 00000030H
  00147	5f		 pop	 rdi
  00148	c3		 ret	 0

; 1702 :     Py_XDECREF(ratio);

$LN30@truedivide@2:
  00149	48 8b cf	 mov	 rcx, rdi
  0014c	eb 6e		 jmp	 SHORT $LN37@truedivide@2
$error$21567:

; 1700 :  error:
; 1701 :     Py_XDECREF(pyus_in);

  0014e	e8 00 00 00 00	 call	 _Py_PXCTX
  00153	85 c0		 test	 eax, eax
  00155	75 6a		 jne	 SHORT $LN3@truedivide@2
  00157	48 8b 43 20	 mov	 rax, QWORD PTR [rbx+32]
  0015b	a8 20		 test	 al, 32			; 00000020H
  0015d	75 5a		 jne	 SHORT $LN19@truedivide@2
  0015f	84 c0		 test	 al, al
  00161	78 56		 js	 SHORT $LN19@truedivide@2
  00163	a8 02		 test	 al, 2
  00165	75 5a		 jne	 SHORT $LN3@truedivide@2
  00167	48 ff 4b 50	 dec	 QWORD PTR [rbx+80]
  0016b	75 54		 jne	 SHORT $LN3@truedivide@2
  0016d	48 8d 15 00 00
	00 00		 lea	 rdx, OFFSET FLAT:??_C@_0CD@HDJFDCDP@c?3?2src?2pyparallel?2include?2object@
  00174	48 8d 0d 00 00
	00 00		 lea	 rcx, OFFSET FLAT:??_C@_0L@DMHMLFIA@_Py_DecRef?$AA@
  0017b	4c 8b cb	 mov	 r9, rbx
  0017e	41 b8 a4 03 00
	00		 mov	 r8d, 932		; 000003a4H
  00184	c7 44 24 20 10
	00 00 00	 mov	 DWORD PTR [rsp+32], 16
  0018c	e8 00 00 00 00	 call	 _PyParallel_Guard
  00191	48 8b cb	 mov	 rcx, rbx
  00194	85 c0		 test	 eax, eax
  00196	0f 85 78 ff ff
	ff		 jne	 $LN38@truedivide@2
  0019c	48 8b 43 58	 mov	 rax, QWORD PTR [rbx+88]
  001a0	ff 90 88 00 00
	00		 call	 QWORD PTR [rax+136]

; 1703 : 
; 1704 :     return result;

  001a6	48 8b c5	 mov	 rax, rbp

; 1705 : }

  001a9	48 8b 5c 24 48	 mov	 rbx, QWORD PTR [rsp+72]
  001ae	48 8b 6c 24 50	 mov	 rbp, QWORD PTR [rsp+80]
  001b3	48 83 c4 30	 add	 rsp, 48			; 00000030H
  001b7	5f		 pop	 rdi
  001b8	c3		 ret	 0

; 1700 :  error:
; 1701 :     Py_XDECREF(pyus_in);

$LN19@truedivide@2:
  001b9	48 8b cb	 mov	 rcx, rbx
$LN37@truedivide@2:
  001bc	e8 00 00 00 00	 call	 Px_DecRef
$LN3@truedivide@2:

; 1705 : }

  001c1	48 8b 5c 24 48	 mov	 rbx, QWORD PTR [rsp+72]
  001c6	48 8b c5	 mov	 rax, rbp
  001c9	48 8b 6c 24 50	 mov	 rbp, QWORD PTR [rsp+80]
  001ce	48 83 c4 30	 add	 rsp, 48			; 00000030H
  001d2	5f		 pop	 rdi
  001d3	c3		 ret	 0
truedivide_timedelta_float ENDP
_TEXT	ENDS
;	COMDAT pdata
pdata	SEGMENT
$pdata$truedivide_timedelta_int DD imagerel truedivide_timedelta_int
	DD	imagerel truedivide_timedelta_int+106
	DD	imagerel $unwind$truedivide_timedelta_int
pdata	ENDS
;	COMDAT xdata
xdata	SEGMENT
$unwind$truedivide_timedelta_int DD 040a01H
	DD	06340aH
	DD	07006320aH
; Function compile flags: /Ogtpy
xdata	ENDS
;	COMDAT truedivide_timedelta_int
_TEXT	SEGMENT
delta$ = 48
i$ = 56
truedivide_timedelta_int PROC				; COMDAT

; 1709 : {

  00000	48 89 5c 24 08	 mov	 QWORD PTR [rsp+8], rbx
  00005	57		 push	 rdi
  00006	48 83 ec 20	 sub	 rsp, 32			; 00000020H
  0000a	48 8b fa	 mov	 rdi, rdx

; 1710 :     PyObject *result;
; 1711 :     PyObject *pyus_in, *pyus_out;
; 1712 :     pyus_in = delta_to_microseconds(delta);

  0000d	e8 00 00 00 00	 call	 delta_to_microseconds
  00012	48 8b d8	 mov	 rbx, rax

; 1713 :     if (pyus_in == NULL)

  00015	48 85 c0	 test	 rax, rax
  00018	75 0d		 jne	 SHORT $LN2@truedivide@3
$LN5@truedivide@3:

; 1714 :         return NULL;

  0001a	33 c0		 xor	 eax, eax

; 1723 : }

  0001c	48 8b 5c 24 30	 mov	 rbx, QWORD PTR [rsp+48]
  00021	48 83 c4 20	 add	 rsp, 32			; 00000020H
  00025	5f		 pop	 rdi
  00026	c3		 ret	 0
$LN2@truedivide@3:

; 1715 :     pyus_out = divide_nearest(pyus_in, i);

  00027	48 8b d7	 mov	 rdx, rdi
  0002a	48 8b c8	 mov	 rcx, rax
  0002d	e8 00 00 00 00	 call	 divide_nearest

; 1716 :     Py_DECREF(pyus_in);

  00032	48 8b cb	 mov	 rcx, rbx
  00035	48 8b f8	 mov	 rdi, rax
  00038	e8 00 00 00 00	 call	 _Py_DecRef

; 1717 :     if (pyus_out == NULL)

  0003d	48 85 ff	 test	 rdi, rdi

; 1718 :         return NULL;

  00040	74 d8		 je	 SHORT $LN5@truedivide@3

; 1719 :     result = microseconds_to_delta(pyus_out);

  00042	48 8d 15 00 00
	00 00		 lea	 rdx, OFFSET FLAT:PyDateTime_DeltaType
  00049	48 8b cf	 mov	 rcx, rdi
  0004c	e8 00 00 00 00	 call	 microseconds_to_delta_ex

; 1720 :     Py_DECREF(pyus_out);

  00051	48 8b cf	 mov	 rcx, rdi
  00054	48 8b d8	 mov	 rbx, rax
  00057	e8 00 00 00 00	 call	 _Py_DecRef

; 1721 : 
; 1722 :     return result;

  0005c	48 8b c3	 mov	 rax, rbx

; 1723 : }

  0005f	48 8b 5c 24 30	 mov	 rbx, QWORD PTR [rsp+48]
  00064	48 83 c4 20	 add	 rsp, 32			; 00000020H
  00068	5f		 pop	 rdi
  00069	c3		 ret	 0
truedivide_timedelta_int ENDP
_TEXT	ENDS
EXTRN	_Py_NotImplementedStruct:BYTE
;	COMDAT pdata
; File c:\src\pyparallel\include\object.h
pdata	SEGMENT
$pdata$delta_add DD imagerel delta_add
	DD	imagerel delta_add+224
	DD	imagerel $unwind$delta_add
pdata	ENDS
;	COMDAT xdata
xdata	SEGMENT
$unwind$delta_add DD 0a1a01H
	DD	0b741aH
	DD	0a641aH
	DD	09541aH
	DD	08341aH
	DD	0c016521aH
; Function compile flags: /Ogtpy
; File c:\src\pyparallel\modules\_datetimemodule.c
xdata	ENDS
;	COMDAT delta_add
_TEXT	SEGMENT
left$ = 64
right$ = 72
delta_add PROC						; COMDAT

; 1727 : {

  00000	48 89 5c 24 08	 mov	 QWORD PTR [rsp+8], rbx
  00005	48 89 6c 24 10	 mov	 QWORD PTR [rsp+16], rbp
  0000a	48 89 74 24 18	 mov	 QWORD PTR [rsp+24], rsi
  0000f	48 89 7c 24 20	 mov	 QWORD PTR [rsp+32], rdi
  00014	41 54		 push	 r12
  00016	48 83 ec 30	 sub	 rsp, 48			; 00000030H
  0001a	48 8b f1	 mov	 rsi, rcx

; 1728 :     PyObject *result = Py_NotImplemented;
; 1729 : 
; 1730 :     if (PyDelta_Check(left) && PyDelta_Check(right)) {

  0001d	48 8b 49 58	 mov	 rcx, QWORD PTR [rcx+88]
  00021	48 8d 2d 00 00
	00 00		 lea	 rbp, OFFSET FLAT:PyDateTime_DeltaType
  00028	4c 8d 25 00 00
	00 00		 lea	 r12, OFFSET FLAT:_Py_NotImplementedStruct
  0002f	48 8b fa	 mov	 rdi, rdx
  00032	49 8b dc	 mov	 rbx, r12
  00035	48 3b cd	 cmp	 rcx, rbp
  00038	74 0c		 je	 SHORT $LN3@delta_add
  0003a	48 8b d5	 mov	 rdx, rbp
  0003d	e8 00 00 00 00	 call	 PyType_IsSubtype
  00042	85 c0		 test	 eax, eax
  00044	74 41		 je	 SHORT $LN11@delta_add
$LN3@delta_add:
  00046	48 8b 4f 58	 mov	 rcx, QWORD PTR [rdi+88]
  0004a	48 3b cd	 cmp	 rcx, rbp
  0004d	74 0c		 je	 SHORT $LN2@delta_add
  0004f	48 8b d5	 mov	 rdx, rbp
  00052	e8 00 00 00 00	 call	 PyType_IsSubtype
  00057	85 c0		 test	 eax, eax
  00059	74 2c		 je	 SHORT $LN11@delta_add
$LN2@delta_add:

; 1731 :         /* delta + delta */
; 1732 :         /* The C-level additions can't overflow because of the
; 1733 :          * invariant bounds.
; 1734 :          */
; 1735 :         int days = GET_TD_DAYS(left) + GET_TD_DAYS(right);

  0005b	8b 4e 68	 mov	 ecx, DWORD PTR [rsi+104]

; 1736 :         int seconds = GET_TD_SECONDS(left) + GET_TD_SECONDS(right);

  0005e	8b 56 6c	 mov	 edx, DWORD PTR [rsi+108]

; 1737 :         int microseconds = GET_TD_MICROSECONDS(left) +
; 1738 :                            GET_TD_MICROSECONDS(right);

  00061	44 8b 46 70	 mov	 r8d, DWORD PTR [rsi+112]
  00065	03 4f 68	 add	 ecx, DWORD PTR [rdi+104]
  00068	03 57 6c	 add	 edx, DWORD PTR [rdi+108]
  0006b	44 03 47 70	 add	 r8d, DWORD PTR [rdi+112]

; 1739 :         result = new_delta(days, seconds, microseconds, 1);

  0006f	41 b9 01 00 00
	00		 mov	 r9d, 1
  00075	48 89 6c 24 20	 mov	 QWORD PTR [rsp+32], rbp
  0007a	e8 00 00 00 00	 call	 new_delta_ex
  0007f	48 8b d8	 mov	 rbx, rax

; 1740 :     }
; 1741 : 
; 1742 :     if (result == Py_NotImplemented)

  00082	49 3b c4	 cmp	 rax, r12
  00085	75 3e		 jne	 SHORT $LN8@delta_add
$LN11@delta_add:

; 1743 :         Py_INCREF(result);

  00087	e8 00 00 00 00	 call	 _Py_PXCTX
  0008c	85 c0		 test	 eax, eax
  0008e	75 32		 jne	 SHORT $LN12@delta_add
  00090	48 8d 15 00 00
	00 00		 lea	 rdx, OFFSET FLAT:??_C@_0CD@HDJFDCDP@c?3?2src?2pyparallel?2include?2object@
  00097	48 8d 0d 00 00
	00 00		 lea	 rcx, OFFSET FLAT:??_C@_0L@DHGMCEID@_Py_IncRef?$AA@
  0009e	4c 8b cb	 mov	 r9, rbx
  000a1	41 b8 89 03 00
	00		 mov	 r8d, 905		; 00000389H
  000a7	c7 44 24 20 02
	00 00 00	 mov	 DWORD PTR [rsp+32], 2
