; Listing generated by Microsoft (R) Optimizing Compiler Version 16.00.40219.01 

include listing.inc

INCLUDELIB MSVCRT
INCLUDELIB OLDNAMES

PUBLIC	??_C@_0BP@JCNIEMPM@Weak?9reference?5support?5module?4?$AA@ ; `string'
PUBLIC	??_C@_08FKMBKJGD@_weakref?$AA@			; `string'
PUBLIC	??_C@_05BFHPMDA@proxy?$AA@			; `string'
PUBLIC	??_C@_0M@ICFIDCLN@getweakrefs?$AA@		; `string'
PUBLIC	??_C@_0BA@PEGMHKJI@getweakrefcount?$AA@		; `string'
;	COMDAT ??_C@_0BP@JCNIEMPM@Weak?9reference?5support?5module?4?$AA@
CONST	SEGMENT
??_C@_0BP@JCNIEMPM@Weak?9reference?5support?5module?4?$AA@ DB 'Weak-refer'
	DB	'ence support module.', 00H			; `string'
CONST	ENDS
;	COMDAT ??_C@_08FKMBKJGD@_weakref?$AA@
CONST	SEGMENT
??_C@_08FKMBKJGD@_weakref?$AA@ DB '_weakref', 00H	; `string'
CONST	ENDS
;	COMDAT ??_C@_05BFHPMDA@proxy?$AA@
CONST	SEGMENT
??_C@_05BFHPMDA@proxy?$AA@ DB 'proxy', 00H		; `string'
CONST	ENDS
;	COMDAT ??_C@_0M@ICFIDCLN@getweakrefs?$AA@
CONST	SEGMENT
??_C@_0M@ICFIDCLN@getweakrefs?$AA@ DB 'getweakrefs', 00H ; `string'
CONST	ENDS
;	COMDAT ??_C@_0BA@PEGMHKJI@getweakrefcount?$AA@
CONST	SEGMENT
??_C@_0BA@PEGMHKJI@getweakrefcount?$AA@ DB 'getweakrefcount', 00H ; `string'
CONST	ENDS
_DATA	SEGMENT
weakref_getweakrefcount__doc__ DB 'getweakrefcount(object) -- return the '
	DB	'number of weak references', 0aH, 'to ''object''.', 00H
	ORG $+3
weakref_getweakrefs__doc__ DB 'getweakrefs(object) -- return a list of al'
	DB	'l weak reference objects', 0aH, 'that point to ''object''.', 00H
	ORG $+5
weakref_proxy__doc__ DB 'proxy(object[, callback]) -- create a proxy obje'
	DB	'ct that weakly', 0aH, 'references ''object''.  ''callback'', '
	DB	'if given, is called with a', 0aH, 'reference to the proxy whe'
	DB	'n ''object'' is about to be finalized.', 00H
	ORG $+5
weakref_functions DQ FLAT:??_C@_0BA@PEGMHKJI@getweakrefcount?$AA@
	DQ	FLAT:weakref_getweakrefcount
	DD	08H
	ORG $+4
	DQ	FLAT:weakref_getweakrefcount__doc__
	DQ	FLAT:??_C@_0M@ICFIDCLN@getweakrefs?$AA@
	DQ	FLAT:weakref_getweakrefs
	DD	08H
	ORG $+4
	DQ	FLAT:weakref_getweakrefs__doc__
	DQ	FLAT:??_C@_05BFHPMDA@proxy?$AA@
	DQ	FLAT:weakref_proxy
	DD	01H
	ORG $+4
	DQ	FLAT:weakref_proxy__doc__
	DQ	0000000000000000H
	DQ	0000000000000000H
	DD	00H
	ORG $+4
	DQ	0000000000000000H
weakrefmodule DQ dead1234beef5678H
	DQ	dead1234beef5678H
	DQ	0000000000000000H
	ORG $+8
	DQ	0000000000000001H
	DQ	0000000000000000H
	DQ	0000000000000000H
	DQ	0000000000000000H
	DQ	dead1234beef5678H
	DQ	dead1234beef5678H
	DQ	0000000000000001H
	DQ	0000000000000000H
	DQ	0000000000000000H
	DQ	0000000000000000H
	DQ	0000000000000000H
	ORG $+8
	DQ	FLAT:??_C@_08FKMBKJGD@_weakref?$AA@
	DQ	FLAT:??_C@_0BP@JCNIEMPM@Weak?9reference?5support?5module?4?$AA@
	DQ	ffffffffffffffffH
	DQ	FLAT:weakref_functions
	DQ	0000000000000000H
	DQ	0000000000000000H
	DQ	0000000000000000H
	DQ	0000000000000000H
_DATA	ENDS
PUBLIC	??_C@_0L@DHGMCEID@_Py_IncRef?$AA@		; `string'
PUBLIC	??_C@_0CD@HDJFDCDP@c?3?2src?2pyparallel?2include?2object@ ; `string'
PUBLIC	_Py_IncRef
EXTRN	_PyParallel_Guard:PROC
EXTRN	_Py_PXCTX:PROC
;	COMDAT pdata
; File c:\src\pyparallel\include\object.h
pdata	SEGMENT
$pdata$_Py_IncRef DD imagerel $LN5
	DD	imagerel $LN5+74
	DD	imagerel $unwind$_Py_IncRef
pdata	ENDS
;	COMDAT xdata
xdata	SEGMENT
$unwind$_Py_IncRef DD 020601H
	DD	030025206H
xdata	ENDS
;	COMDAT ??_C@_0L@DHGMCEID@_Py_IncRef?$AA@
CONST	SEGMENT
??_C@_0L@DHGMCEID@_Py_IncRef?$AA@ DB '_Py_IncRef', 00H	; `string'
CONST	ENDS
;	COMDAT ??_C@_0CD@HDJFDCDP@c?3?2src?2pyparallel?2include?2object@
CONST	SEGMENT
??_C@_0CD@HDJFDCDP@c?3?2src?2pyparallel?2include?2object@ DB 'c:\src\pypa'
	DB	'rallel\include\object.h', 00H		; `string'
; Function compile flags: /Ogtpy
CONST	ENDS
;	COMDAT _Py_IncRef
_TEXT	SEGMENT
op$ = 64
_Py_IncRef PROC						; COMDAT

; 904  : {

$LN5:
  00000	40 53		 push	 rbx
  00002	48 83 ec 30	 sub	 rsp, 48			; 00000030H
  00006	48 8b d9	 mov	 rbx, rcx

; 905  :     if ((!Py_PXCTX && (Py_ISPY(op) || Px_PERSISTED(op)))) {

  00009	e8 00 00 00 00	 call	 _Py_PXCTX
  0000e	85 c0		 test	 eax, eax
  00010	75 32		 jne	 SHORT $LN2@Py_IncRef
  00012	48 8d 15 00 00
	00 00		 lea	 rdx, OFFSET FLAT:??_C@_0CD@HDJFDCDP@c?3?2src?2pyparallel?2include?2object@
  00019	48 8d 0d 00 00
	00 00		 lea	 rcx, OFFSET FLAT:??_C@_0L@DHGMCEID@_Py_IncRef?$AA@
  00020	4c 8b cb	 mov	 r9, rbx
  00023	41 b8 89 03 00
	00		 mov	 r8d, 905		; 00000389H
  00029	c7 44 24 20 02
	00 00 00	 mov	 DWORD PTR [rsp+32], 2
  00031	e8 00 00 00 00	 call	 _PyParallel_Guard
  00036	85 c0		 test	 eax, eax
  00038	75 06		 jne	 SHORT $LN1@Py_IncRef
  0003a	f6 43 20 20	 test	 BYTE PTR [rbx+32], 32	; 00000020H
  0003e	74 04		 je	 SHORT $LN2@Py_IncRef
$LN1@Py_IncRef:

; 906  :         _Py_INC_REFTOTAL;
; 907  :         (((PyObject*)(op))->ob_refcnt++);

  00040	48 ff 43 50	 inc	 QWORD PTR [rbx+80]
$LN2@Py_IncRef:

; 908  :     }
; 909  : }

  00044	48 83 c4 30	 add	 rsp, 48			; 00000030H
  00048	5b		 pop	 rbx
  00049	c3		 ret	 0
_Py_IncRef ENDP
_TEXT	ENDS
EXTRN	PyLong_FromLong:PROC
EXTRN	PyLong_FromSsize_t:PROC
EXTRN	_PyWeakref_GetWeakrefCount:PROC
;	COMDAT pdata
; File c:\src\pyparallel\modules\_weakref.c
pdata	SEGMENT
$pdata$weakref_getweakrefcount DD imagerel weakref_getweakrefcount
	DD	imagerel weakref_getweakrefcount+52
	DD	imagerel $unwind$weakref_getweakrefcount
pdata	ENDS
;	COMDAT xdata
xdata	SEGMENT
$unwind$weakref_getweakrefcount DD 010401H
	DD	04204H
; Function compile flags: /Ogtpy
xdata	ENDS
;	COMDAT weakref_getweakrefcount
_TEXT	SEGMENT
self$ = 48
object$ = 56
weakref_getweakrefcount PROC				; COMDAT

; 14   : {

  00000	48 83 ec 28	 sub	 rsp, 40			; 00000028H

; 15   :     PyObject *result = NULL;
; 16   : 
; 17   :     if (PyType_SUPPORTS_WEAKREFS(Py_TYPE(object))) {

  00004	48 8b 42 58	 mov	 rax, QWORD PTR [rdx+88]
  00008	48 8b 88 28 01
	00 00		 mov	 rcx, QWORD PTR [rax+296]
  0000f	48 85 c9	 test	 rcx, rcx
  00012	7e 15		 jle	 SHORT $LN2@weakref_ge

; 18   :         PyWeakReference **list = GET_WEAKREFS_LISTPTR(object);
; 19   : 
; 20   :         result = PyLong_FromSsize_t(_PyWeakref_GetWeakrefCount(*list));

  00014	48 8b 0c 11	 mov	 rcx, QWORD PTR [rcx+rdx]
  00018	e8 00 00 00 00	 call	 _PyWeakref_GetWeakrefCount
  0001d	48 8b c8	 mov	 rcx, rax

; 24   : 
; 25   :     return result;
; 26   : }

  00020	48 83 c4 28	 add	 rsp, 40			; 00000028H
  00024	e9 00 00 00 00	 jmp	 PyLong_FromSsize_t
$LN2@weakref_ge:

; 21   :     }
; 22   :     else
; 23   :         result = PyLong_FromLong(0);

  00029	33 c9		 xor	 ecx, ecx

; 24   : 
; 25   :     return result;
; 26   : }

  0002b	48 83 c4 28	 add	 rsp, 40			; 00000028H
  0002f	e9 00 00 00 00	 jmp	 PyLong_FromLong
weakref_getweakrefcount ENDP
_TEXT	ENDS
EXTRN	PyList_New:PROC
;	COMDAT pdata
; File c:\src\pyparallel\include\object.h
pdata	SEGMENT
$pdata$weakref_getweakrefs DD imagerel weakref_getweakrefs
	DD	imagerel weakref_getweakrefs+37
	DD	imagerel $unwind$weakref_getweakrefs
pdata	ENDS
;	COMDAT pdata
pdata	SEGMENT
$pdata$1$weakref_getweakrefs DD imagerel weakref_getweakrefs+37
	DD	imagerel weakref_getweakrefs+188
	DD	imagerel $chain$1$weakref_getweakrefs
pdata	ENDS
;	COMDAT pdata
pdata	SEGMENT
$pdata$2$weakref_getweakrefs DD imagerel weakref_getweakrefs+188
	DD	imagerel weakref_getweakrefs+205
	DD	imagerel $chain$2$weakref_getweakrefs
pdata	ENDS
;	COMDAT xdata
xdata	SEGMENT
$chain$2$weakref_getweakrefs DD 021H
	DD	imagerel weakref_getweakrefs
	DD	imagerel weakref_getweakrefs+37
	DD	imagerel $unwind$weakref_getweakrefs
xdata	ENDS
;	COMDAT xdata
xdata	SEGMENT
$chain$1$weakref_getweakrefs DD 040a21H
	DD	09640aH
	DD	085405H
	DD	imagerel weakref_getweakrefs
	DD	imagerel weakref_getweakrefs+37
	DD	imagerel $unwind$weakref_getweakrefs
xdata	ENDS
;	COMDAT xdata
xdata	SEGMENT
$unwind$weakref_getweakrefs DD 040a01H
	DD	0a340aH
	DD	07006520aH
; Function compile flags: /Ogtpy
; File c:\src\pyparallel\modules\_weakref.c
xdata	ENDS
;	COMDAT weakref_getweakrefs
_TEXT	SEGMENT
self$ = 64
object$ = 72
weakref_getweakrefs PROC				; COMDAT

; 35   : {

  00000	48 89 5c 24 18	 mov	 QWORD PTR [rsp+24], rbx
  00005	57		 push	 rdi
  00006	48 83 ec 30	 sub	 rsp, 48			; 00000030H

; 36   :     PyObject *result = NULL;
; 37   : 
; 38   :     if (PyType_SUPPORTS_WEAKREFS(Py_TYPE(object))) {

  0000a	48 8b 42 58	 mov	 rax, QWORD PTR [rdx+88]
  0000e	48 8b da	 mov	 rbx, rdx
  00011	48 8b b8 28 01
	00 00		 mov	 rdi, QWORD PTR [rax+296]
  00018	48 85 ff	 test	 rdi, rdi
  0001b	0f 8e 9b 00 00
	00		 jle	 $LN6@weakref_ge@2

; 39   :         PyWeakReference **list = GET_WEAKREFS_LISTPTR(object);
; 40   :         Py_ssize_t count = _PyWeakref_GetWeakrefCount(*list);

  00021	48 8b 0c 17	 mov	 rcx, QWORD PTR [rdi+rdx]
  00025	48 89 6c 24 40	 mov	 QWORD PTR [rsp+64], rbp
  0002a	48 89 74 24 48	 mov	 QWORD PTR [rsp+72], rsi
  0002f	e8 00 00 00 00	 call	 _PyWeakref_GetWeakrefCount

; 41   : 
; 42   :         result = PyList_New(count);

  00034	48 8b c8	 mov	 rcx, rax
  00037	48 8b e8	 mov	 rbp, rax
  0003a	e8 00 00 00 00	 call	 PyList_New
  0003f	48 8b f0	 mov	 rsi, rax

; 43   :         if (result != NULL) {

  00042	48 85 c0	 test	 rax, rax
  00045	74 60		 je	 SHORT $LN18@weakref_ge@2

; 44   :             PyWeakReference *current = *list;

  00047	48 8b 1c 1f	 mov	 rbx, QWORD PTR [rdi+rbx]

; 45   :             Py_ssize_t i;
; 46   :             for (i = 0; i < count; ++i) {

  0004b	33 ff		 xor	 edi, edi
  0004d	48 85 ed	 test	 rbp, rbp
  00050	7e 55		 jle	 SHORT $LN18@weakref_ge@2
$LL4@weakref_ge@2:

; 47   :                 PyList_SET_ITEM(result, i, (PyObject *) current);

  00052	48 8b 46 70	 mov	 rax, QWORD PTR [rsi+112]
  00056	48 89 1c f8	 mov	 QWORD PTR [rax+rdi*8], rbx

; 48   :                 Py_INCREF(current);

  0005a	e8 00 00 00 00	 call	 _Py_PXCTX
  0005f	85 c0		 test	 eax, eax
  00061	75 32		 jne	 SHORT $LN10@weakref_ge@2
  00063	48 8d 15 00 00
	00 00		 lea	 rdx, OFFSET FLAT:??_C@_0CD@HDJFDCDP@c?3?2src?2pyparallel?2include?2object@
  0006a	48 8d 0d 00 00
	00 00		 lea	 rcx, OFFSET FLAT:??_C@_0L@DHGMCEID@_Py_IncRef?$AA@
  00071	4c 8b cb	 mov	 r9, rbx
  00074	41 b8 89 03 00
	00		 mov	 r8d, 905		; 00000389H
  0007a	c7 44 24 20 02
	00 00 00	 mov	 DWORD PTR [rsp+32], 2
  00082	e8 00 00 00 00	 call	 _PyParallel_Guard
  00087	85 c0		 test	 eax, eax
  00089	75 06		 jne	 SHORT $LN9@weakref_ge@2
  0008b	f6 43 20 20	 test	 BYTE PTR [rbx+32], 32	; 00000020H
  0008f	74 04		 je	 SHORT $LN10@weakref_ge@2
$LN9@weakref_ge@2:
  00091	48 ff 43 50	 inc	 QWORD PTR [rbx+80]
$LN10@weakref_ge@2:

; 49   :                 current = current->wr_next;

  00095	48 8b 9b 80 00
	00 00		 mov	 rbx, QWORD PTR [rbx+128]
  0009c	48 ff c7	 inc	 rdi
  0009f	48 3b fd	 cmp	 rdi, rbp
  000a2	7c ae		 jl	 SHORT $LL4@weakref_ge@2

; 55   :     }
; 56   :     return result;

  000a4	48 8b c6	 mov	 rax, rsi
$LN18@weakref_ge@2:
  000a7	48 8b 6c 24 40	 mov	 rbp, QWORD PTR [rsp+64]
  000ac	48 8b 74 24 48	 mov	 rsi, QWORD PTR [rsp+72]

; 57   : }

  000b1	48 8b 5c 24 50	 mov	 rbx, QWORD PTR [rsp+80]
  000b6	48 83 c4 30	 add	 rsp, 48			; 00000030H
  000ba	5f		 pop	 rdi
  000bb	c3		 ret	 0
$LN6@weakref_ge@2:

; 50   :             }
; 51   :         }
; 52   :     }
; 53   :     else {
; 54   :         result = PyList_New(0);

  000bc	33 c9		 xor	 ecx, ecx

; 57   : }

  000be	48 8b 5c 24 50	 mov	 rbx, QWORD PTR [rsp+80]
  000c3	48 83 c4 30	 add	 rsp, 48			; 00000030H
  000c7	5f		 pop	 rdi
  000c8	e9 00 00 00 00	 jmp	 PyList_New
weakref_getweakrefs ENDP
_TEXT	ENDS
EXTRN	PyWeakref_NewProxy:PROC
EXTRN	PyArg_UnpackTuple:PROC
;	COMDAT pdata
pdata	SEGMENT
$pdata$weakref_proxy DD imagerel weakref_proxy
	DD	imagerel weakref_proxy+92
	DD	imagerel $unwind$weakref_proxy
pdata	ENDS
;	COMDAT xdata
xdata	SEGMENT
$unwind$weakref_proxy DD 010401H
	DD	06204H
; Function compile flags: /Ogtpy
xdata	ENDS
;	COMDAT weakref_proxy
_TEXT	SEGMENT
self$ = 64
args$ = 72
callback$ = 80
object$ = 88
weakref_proxy PROC					; COMDAT

; 67   : {

  00000	48 83 ec 38	 sub	 rsp, 56			; 00000038H
  00004	48 8b c2	 mov	 rax, rdx

; 68   :     PyObject *object;
; 69   :     PyObject *callback = NULL;
; 70   :     PyObject *result = NULL;
; 71   : 
; 72   :     if (PyArg_UnpackTuple(args, "proxy", 1, 2, &object, &callback)) {

  00007	48 8d 4c 24 50	 lea	 rcx, QWORD PTR callback$[rsp]
  0000c	41 b9 02 00 00
	00		 mov	 r9d, 2
  00012	48 89 4c 24 28	 mov	 QWORD PTR [rsp+40], rcx
  00017	48 8d 4c 24 58	 lea	 rcx, QWORD PTR object$[rsp]
  0001c	48 8d 15 00 00
	00 00		 lea	 rdx, OFFSET FLAT:??_C@_05BFHPMDA@proxy?$AA@
  00023	48 89 4c 24 20	 mov	 QWORD PTR [rsp+32], rcx
  00028	45 8d 41 ff	 lea	 r8d, QWORD PTR [r9-1]
  0002c	48 8b c8	 mov	 rcx, rax
  0002f	48 c7 44 24 50
	00 00 00 00	 mov	 QWORD PTR callback$[rsp], 0
  00038	e8 00 00 00 00	 call	 PyArg_UnpackTuple
  0003d	85 c0		 test	 eax, eax
  0003f	74 14		 je	 SHORT $LN4@weakref_pr

; 73   :         result = PyWeakref_NewProxy(object, callback);

  00041	48 8b 54 24 50	 mov	 rdx, QWORD PTR callback$[rsp]
  00046	48 8b 4c 24 58	 mov	 rcx, QWORD PTR object$[rsp]
  0004b	e8 00 00 00 00	 call	 PyWeakref_NewProxy

; 76   : }

  00050	48 83 c4 38	 add	 rsp, 56			; 00000038H
  00054	c3		 ret	 0
$LN4@weakref_pr:

; 74   :     }
; 75   :     return result;

  00055	33 c0		 xor	 eax, eax

; 76   : }

  00057	48 83 c4 38	 add	 rsp, 56			; 00000038H
  0005b	c3		 ret	 0
weakref_proxy ENDP
_TEXT	ENDS
PUBLIC	??_C@_0BC@NMFNMFOK@CallableProxyType?$AA@	; `string'
PUBLIC	??_C@_09BGIKPLGP@ProxyType?$AA@			; `string'
PUBLIC	??_C@_0O@EJIAIJCO@ReferenceType?$AA@		; `string'
PUBLIC	??_C@_03GCDGINBO@ref?$AA@			; `string'
PUBLIC	PyInit__weakref
EXTRN	_PyWeakref_CallableProxyType:BYTE
EXTRN	_PyWeakref_ProxyType:BYTE
EXTRN	PyModule_AddObject:PROC
EXTRN	_PyWeakref_RefType:BYTE
EXTRN	PyModule_Create2:PROC
;	COMDAT pdata
; File c:\src\pyparallel\include\object.h
pdata	SEGMENT
$pdata$PyInit__weakref DD imagerel $LN21
	DD	imagerel $LN21+408
	DD	imagerel $unwind$PyInit__weakref
pdata	ENDS
;	COMDAT xdata
xdata	SEGMENT
$unwind$PyInit__weakref DD 020601H
	DD	030025206H
xdata	ENDS
;	COMDAT ??_C@_0BC@NMFNMFOK@CallableProxyType?$AA@
CONST	SEGMENT
??_C@_0BC@NMFNMFOK@CallableProxyType?$AA@ DB 'CallableProxyType', 00H ; `string'
CONST	ENDS
;	COMDAT ??_C@_09BGIKPLGP@ProxyType?$AA@
CONST	SEGMENT
??_C@_09BGIKPLGP@ProxyType?$AA@ DB 'ProxyType', 00H	; `string'
CONST	ENDS
;	COMDAT ??_C@_0O@EJIAIJCO@ReferenceType?$AA@
CONST	SEGMENT
??_C@_0O@EJIAIJCO@ReferenceType?$AA@ DB 'ReferenceType', 00H ; `string'
CONST	ENDS
;	COMDAT ??_C@_03GCDGINBO@ref?$AA@
CONST	SEGMENT
??_C@_03GCDGINBO@ref?$AA@ DB 'ref', 00H			; `string'
; Function compile flags: /Ogtpy
; File c:\src\pyparallel\modules\_weakref.c
CONST	ENDS
;	COMDAT PyInit__weakref
_TEXT	SEGMENT
PyInit__weakref PROC					; COMDAT

; 105  : {

$LN21:
  00000	40 53		 push	 rbx
  00002	48 83 ec 30	 sub	 rsp, 48			; 00000030H

; 106  :     PyObject *m;
; 107  : 
; 108  :     m = PyModule_Create(&weakrefmodule);

  00006	48 8d 0d 00 00
	00 00		 lea	 rcx, OFFSET FLAT:weakrefmodule
  0000d	ba f5 03 00 00	 mov	 edx, 1013		; 000003f5H
  00012	e8 00 00 00 00	 call	 PyModule_Create2
  00017	48 8b d8	 mov	 rbx, rax

; 109  :                        
; 110  :     if (m != NULL) {

  0001a	48 85 c0	 test	 rax, rax
  0001d	0f 84 6f 01 00
	00		 je	 $LN1@PyInit__we

; 111  :         Py_INCREF(&_PyWeakref_RefType);

  00023	e8 00 00 00 00	 call	 _Py_PXCTX
  00028	85 c0		 test	 eax, eax
  0002a	75 3c		 jne	 SHORT $LN5@PyInit__we
  0002c	4c 8d 0d 00 00
	00 00		 lea	 r9, OFFSET FLAT:_PyWeakref_RefType
  00033	48 8d 15 00 00
	00 00		 lea	 rdx, OFFSET FLAT:??_C@_0CD@HDJFDCDP@c?3?2src?2pyparallel?2include?2object@
  0003a	48 8d 0d 00 00
	00 00		 lea	 rcx, OFFSET FLAT:??_C@_0L@DHGMCEID@_Py_IncRef?$AA@
  00041	41 b8 89 03 00
	00		 mov	 r8d, 905		; 00000389H
  00047	c7 44 24 20 02
	00 00 00	 mov	 DWORD PTR [rsp+32], 2
  0004f	e8 00 00 00 00	 call	 _PyParallel_Guard
  00054	85 c0		 test	 eax, eax
  00056	75 09		 jne	 SHORT $LN4@PyInit__we
  00058	f6 05 20 00 00
	00 20		 test	 BYTE PTR _PyWeakref_RefType+32, 32 ; 00000020H
  0005f	74 07		 je	 SHORT $LN5@PyInit__we
$LN4@PyInit__we:
  00061	48 ff 05 50 00
	00 00		 inc	 QWORD PTR _PyWeakref_RefType+80
$LN5@PyInit__we:

; 112  :         PyModule_AddObject(m, "ref",
; 113  :                            (PyObject *) &_PyWeakref_RefType);

  00068	4c 8d 05 00 00
	00 00		 lea	 r8, OFFSET FLAT:_PyWeakref_RefType
  0006f	48 8d 15 00 00
	00 00		 lea	 rdx, OFFSET FLAT:??_C@_03GCDGINBO@ref?$AA@
  00076	48 8b cb	 mov	 rcx, rbx
  00079	e8 00 00 00 00	 call	 PyModule_AddObject

; 114  :         Py_INCREF(&_PyWeakref_RefType);

  0007e	e8 00 00 00 00	 call	 _Py_PXCTX
  00083	85 c0		 test	 eax, eax
  00085	75 3c		 jne	 SHORT $LN9@PyInit__we
  00087	4c 8d 0d 00 00
	00 00		 lea	 r9, OFFSET FLAT:_PyWeakref_RefType
  0008e	48 8d 15 00 00
	00 00		 lea	 rdx, OFFSET FLAT:??_C@_0CD@HDJFDCDP@c?3?2src?2pyparallel?2include?2object@
  00095	48 8d 0d 00 00
	00 00		 lea	 rcx, OFFSET FLAT:??_C@_0L@DHGMCEID@_Py_IncRef?$AA@
  0009c	41 b8 89 03 00
	00		 mov	 r8d, 905		; 00000389H
  000a2	c7 44 24 20 02
	00 00 00	 mov	 DWORD PTR [rsp+32], 2
  000aa	e8 00 00 00 00	 call	 _PyParallel_Guard
  000af	85 c0		 test	 eax, eax
  000b1	75 09		 jne	 SHORT $LN8@PyInit__we
  000b3	f6 05 20 00 00
	00 20		 test	 BYTE PTR _PyWeakref_RefType+32, 32 ; 00000020H
  000ba	74 07		 je	 SHORT $LN9@PyInit__we
$LN8@PyInit__we:
  000bc	48 ff 05 50 00
	00 00		 inc	 QWORD PTR _PyWeakref_RefType+80
$LN9@PyInit__we:

; 115  :         PyModule_AddObject(m, "ReferenceType",
; 116  :                            (PyObject *) &_PyWeakref_RefType);

  000c3	4c 8d 05 00 00
	00 00		 lea	 r8, OFFSET FLAT:_PyWeakref_RefType
  000ca	48 8d 15 00 00
	00 00		 lea	 rdx, OFFSET FLAT:??_C@_0O@EJIAIJCO@ReferenceType?$AA@
  000d1	48 8b cb	 mov	 rcx, rbx
  000d4	e8 00 00 00 00	 call	 PyModule_AddObject

; 117  :         Py_INCREF(&_PyWeakref_ProxyType);

  000d9	e8 00 00 00 00	 call	 _Py_PXCTX
  000de	85 c0		 test	 eax, eax
  000e0	75 3c		 jne	 SHORT $LN13@PyInit__we
  000e2	4c 8d 0d 00 00
	00 00		 lea	 r9, OFFSET FLAT:_PyWeakref_ProxyType
  000e9	48 8d 15 00 00
	00 00		 lea	 rdx, OFFSET FLAT:??_C@_0CD@HDJFDCDP@c?3?2src?2pyparallel?2include?2object@
  000f0	48 8d 0d 00 00
	00 00		 lea	 rcx, OFFSET FLAT:??_C@_0L@DHGMCEID@_Py_IncRef?$AA@
  000f7	41 b8 89 03 00
	00		 mov	 r8d, 905		; 00000389H
  000fd	c7 44 24 20 02
	00 00 00	 mov	 DWORD PTR [rsp+32], 2
  00105	e8 00 00 00 00	 call	 _PyParallel_Guard
  0010a	85 c0		 test	 eax, eax
  0010c	75 09		 jne	 SHORT $LN12@PyInit__we
  0010e	f6 05 20 00 00
	00 20		 test	 BYTE PTR _PyWeakref_ProxyType+32, 32 ; 00000020H
  00115	74 07		 je	 SHORT $LN13@PyInit__we
$LN12@PyInit__we:
  00117	48 ff 05 50 00
	00 00		 inc	 QWORD PTR _PyWeakref_ProxyType+80
$LN13@PyInit__we:

; 118  :         PyModule_AddObject(m, "ProxyType",
; 119  :                            (PyObject *) &_PyWeakref_ProxyType);

  0011e	4c 8d 05 00 00
	00 00		 lea	 r8, OFFSET FLAT:_PyWeakref_ProxyType
  00125	48 8d 15 00 00
	00 00		 lea	 rdx, OFFSET FLAT:??_C@_09BGIKPLGP@ProxyType?$AA@
  0012c	48 8b cb	 mov	 rcx, rbx
  0012f	e8 00 00 00 00	 call	 PyModule_AddObject

; 120  :         Py_INCREF(&_PyWeakref_CallableProxyType);

  00134	e8 00 00 00 00	 call	 _Py_PXCTX
  00139	85 c0		 test	 eax, eax
  0013b	75 3c		 jne	 SHORT $LN17@PyInit__we
  0013d	4c 8d 0d 00 00
	00 00		 lea	 r9, OFFSET FLAT:_PyWeakref_CallableProxyType
  00144	48 8d 15 00 00
	00 00		 lea	 rdx, OFFSET FLAT:??_C@_0CD@HDJFDCDP@c?3?2src?2pyparallel?2include?2object@
  0014b	48 8d 0d 00 00
	00 00		 lea	 rcx, OFFSET FLAT:??_C@_0L@DHGMCEID@_Py_IncRef?$AA@
  00152	41 b8 89 03 00
	00		 mov	 r8d, 905		; 00000389H
  00158	c7 44 24 20 02
	00 00 00	 mov	 DWORD PTR [rsp+32], 2
  00160	e8 00 00 00 00	 call	 _PyParallel_Guard
  00165	85 c0		 test	 eax, eax
  00167	75 09		 jne	 SHORT $LN16@PyInit__we
  00169	f6 05 20 00 00
	00 20		 test	 BYTE PTR _PyWeakref_CallableProxyType+32, 32 ; 00000020H
  00170	74 07		 je	 SHORT $LN17@PyInit__we
$LN16@PyInit__we:
  00172	48 ff 05 50 00
	00 00		 inc	 QWORD PTR _PyWeakref_CallableProxyType+80
$LN17@PyInit__we:

; 121  :         PyModule_AddObject(m, "CallableProxyType",
; 122  :                            (PyObject *) &_PyWeakref_CallableProxyType);

  00179	4c 8d 05 00 00
	00 00		 lea	 r8, OFFSET FLAT:_PyWeakref_CallableProxyType
  00180	48 8d 15 00 00
	00 00		 lea	 rdx, OFFSET FLAT:??_C@_0BC@NMFNMFOK@CallableProxyType?$AA@
  00187	48 8b cb	 mov	 rcx, rbx
  0018a	e8 00 00 00 00	 call	 PyModule_AddObject

; 123  :     }
; 124  :     return m;

  0018f	48 8b c3	 mov	 rax, rbx
$LN1@PyInit__we:

; 125  : }

  00192	48 83 c4 30	 add	 rsp, 48			; 00000030H
  00196	5b		 pop	 rbx
  00197	c3		 ret	 0
PyInit__weakref ENDP
_TEXT	ENDS
END
