; Listing generated by Microsoft (R) Optimizing Compiler Version 16.00.40219.01 

include listing.inc

INCLUDELIB MSVCRT
INCLUDELIB OLDNAMES

PUBLIC	??_C@_05HIFJDKLD@array?$AA@			; `string'
PUBLIC	??_C@_0CF@GMIJNGPM@Internal?4?5Used?5for?5pickling?5supp@ ; `string'
PUBLIC	??_C@_0O@OPHKEACL@arrayiterator?$AA@		; `string'
PUBLIC	??_C@_0N@MOOGCAMH@__setstate__?$AA@		; `string'
PUBLIC	??_C@_0L@NNMACJIG@__reduce__?$AA@		; `string'
PUBLIC	??_C@_0M@DCMOJOBC@array?4array?$AA@		; `string'
PUBLIC	??_C@_00CNPNBAHC@?$AA@				; `string'
PUBLIC	??_C@_0L@HOGGIPGN@__sizeof__?$AA@		; `string'
PUBLIC	??_C@_09JKEMBMBG@tounicode?$AA@			; `string'
PUBLIC	??_C@_07NAJELLCK@tobytes?$AA@			; `string'
PUBLIC	??_C@_08FNIIFOJC@tostring?$AA@			; `string'
PUBLIC	??_C@_06IEBOCBAI@tolist?$AA@			; `string'
PUBLIC	??_C@_06IKANPOPE@tofile?$AA@			; `string'
PUBLIC	??_C@_07KOIEOCCE@reverse?$AA@			; `string'
PUBLIC	??_C@_06LEMKAMD@remove?$AA@			; `string'
PUBLIC	??_C@_0O@CFEDDKPG@__reduce_ex__?$AA@		; `string'
PUBLIC	??_C@_03NJDAHFJE@pop?$AA@			; `string'
PUBLIC	??_C@_06OAOPNKHP@insert?$AA@			; `string'
PUBLIC	??_C@_05FKHKFDID@index?$AA@			; `string'
PUBLIC	??_C@_0M@JCIKMCEM@fromunicode?$AA@		; `string'
PUBLIC	??_C@_09OCNOKPAF@frombytes?$AA@			; `string'
PUBLIC	??_C@_0L@PGGLCJNP@fromstring?$AA@		; `string'
PUBLIC	??_C@_08BGGGONCE@fromlist?$AA@			; `string'
PUBLIC	??_C@_08BIHFDCNI@fromfile?$AA@			; `string'
PUBLIC	??_C@_06BPBOMFNI@extend?$AA@			; `string'
PUBLIC	??_C@_0N@LCDCNIJ@__deepcopy__?$AA@		; `string'
PUBLIC	??_C@_05IOMEMJEC@count?$AA@			; `string'
PUBLIC	??_C@_08MOMBEIKE@__copy__?$AA@			; `string'
PUBLIC	??_C@_08LGNCHIMC@byteswap?$AA@			; `string'
PUBLIC	??_C@_0M@MDHGDJKG@buffer_info?$AA@		; `string'
PUBLIC	??_C@_06PCICMFGG@append?$AA@			; `string'
PUBLIC	??_C@_0CG@DALNPKGO@the?5size?0?5in?5bytes?0?5of?5one?5array@ ; `string'
PUBLIC	??_C@_08BFHIGMPA@itemsize?$AA@			; `string'
PUBLIC	??_C@_0DA@HJNMFPLE@the?5typecode?5character?5used?5to?5c@ ; `string'
PUBLIC	??_C@_08FJHEKLCH@typecode?$AA@			; `string'
PUBLIC	??_C@_08IBFKALI@__dict__?$AA@			; `string'
PUBLIC	??_C@_0BF@FHDBJGA@_array_reconstructor?$AA@	; `string'
PUBLIC	??_C@_05NGFEDHGN@write?$AA@			; `string'
PUBLIC	??_C@_04POLDLDMI@read?$AA@			; `string'
PUBLIC	??_C@_01LPLHEDKD@d?$AA@				; `string'
PUBLIC	??_C@_01INIBCBCB@f?$AA@				; `string'
PUBLIC	??_C@_01BNIGIBBF@Q?$AA@				; `string'
PUBLIC	??_C@_01IIACKFLH@q?$AA@				; `string'
PUBLIC	??_C@_01OCOKONAJ@L?$AA@				; `string'
PUBLIC	??_C@_01HHGOMJKL@l?$AA@				; `string'
PUBLIC	??_C@_01JPJNBJEM@I?$AA@				; `string'
PUBLIC	??_C@_01KBJDNOO@i?$AA@				; `string'
PUBLIC	??_C@_01IGIGCIAN@H?$AA@				; `string'
PUBLIC	??_C@_01BDACAMKP@h?$AA@				; `string'
PUBLIC	??_C@_01OMGOGALD@u?$AA@				; `string'
PUBLIC	??_C@_01HMGJMAIH@B?$AA@				; `string'
PUBLIC	??_C@_01OJONOECF@b?$AA@				; `string'
EXTRN	PyObject_SelfIter:PROC
EXTRN	PyObject_Free:PROC
EXTRN	PyType_GenericAlloc:PROC
EXTRN	PyObject_GenericGetAttr:PROC
_BSS	SEGMENT
?array_reconstructor@?1??array_reduce_ex@@9@9 DQ 01H DUP (?) ; `array_reduce_ex'::`2'::array_reconstructor
_BSS	ENDS
;	COMDAT ??_C@_05HIFJDKLD@array?$AA@
CONST	SEGMENT
??_C@_05HIFJDKLD@array?$AA@ DB 'array', 00H		; `string'
CONST	ENDS
;	COMDAT ??_C@_0CF@GMIJNGPM@Internal?4?5Used?5for?5pickling?5supp@
CONST	SEGMENT
??_C@_0CF@GMIJNGPM@Internal?4?5Used?5for?5pickling?5supp@ DB 'Internal. U'
	DB	'sed for pickling support.', 00H		; `string'
CONST	ENDS
;	COMDAT ??_C@_0O@OPHKEACL@arrayiterator?$AA@
CONST	SEGMENT
??_C@_0O@OPHKEACL@arrayiterator?$AA@ DB 'arrayiterator', 00H ; `string'
CONST	ENDS
;	COMDAT ??_C@_0N@MOOGCAMH@__setstate__?$AA@
CONST	SEGMENT
??_C@_0N@MOOGCAMH@__setstate__?$AA@ DB '__setstate__', 00H ; `string'
CONST	ENDS
;	COMDAT ??_C@_0L@NNMACJIG@__reduce__?$AA@
CONST	SEGMENT
??_C@_0L@NNMACJIG@__reduce__?$AA@ DB '__reduce__', 00H	; `string'
CONST	ENDS
;	COMDAT ??_C@_0M@DCMOJOBC@array?4array?$AA@
CONST	SEGMENT
??_C@_0M@DCMOJOBC@array?4array?$AA@ DB 'array.array', 00H ; `string'
CONST	ENDS
;	COMDAT ??_C@_00CNPNBAHC@?$AA@
CONST	SEGMENT
??_C@_00CNPNBAHC@?$AA@ DB 00H				; `string'
CONST	ENDS
;	COMDAT ??_C@_0L@HOGGIPGN@__sizeof__?$AA@
CONST	SEGMENT
??_C@_0L@HOGGIPGN@__sizeof__?$AA@ DB '__sizeof__', 00H	; `string'
CONST	ENDS
;	COMDAT ??_C@_09JKEMBMBG@tounicode?$AA@
CONST	SEGMENT
??_C@_09JKEMBMBG@tounicode?$AA@ DB 'tounicode', 00H	; `string'
CONST	ENDS
;	COMDAT ??_C@_07NAJELLCK@tobytes?$AA@
CONST	SEGMENT
??_C@_07NAJELLCK@tobytes?$AA@ DB 'tobytes', 00H		; `string'
CONST	ENDS
;	COMDAT ??_C@_08FNIIFOJC@tostring?$AA@
CONST	SEGMENT
??_C@_08FNIIFOJC@tostring?$AA@ DB 'tostring', 00H	; `string'
CONST	ENDS
;	COMDAT ??_C@_06IEBOCBAI@tolist?$AA@
CONST	SEGMENT
??_C@_06IEBOCBAI@tolist?$AA@ DB 'tolist', 00H		; `string'
CONST	ENDS
;	COMDAT ??_C@_06IKANPOPE@tofile?$AA@
CONST	SEGMENT
??_C@_06IKANPOPE@tofile?$AA@ DB 'tofile', 00H		; `string'
CONST	ENDS
;	COMDAT ??_C@_07KOIEOCCE@reverse?$AA@
CONST	SEGMENT
??_C@_07KOIEOCCE@reverse?$AA@ DB 'reverse', 00H		; `string'
CONST	ENDS
;	COMDAT ??_C@_06LEMKAMD@remove?$AA@
CONST	SEGMENT
??_C@_06LEMKAMD@remove?$AA@ DB 'remove', 00H		; `string'
CONST	ENDS
;	COMDAT ??_C@_0O@CFEDDKPG@__reduce_ex__?$AA@
CONST	SEGMENT
??_C@_0O@CFEDDKPG@__reduce_ex__?$AA@ DB '__reduce_ex__', 00H ; `string'
CONST	ENDS
;	COMDAT ??_C@_03NJDAHFJE@pop?$AA@
CONST	SEGMENT
??_C@_03NJDAHFJE@pop?$AA@ DB 'pop', 00H			; `string'
CONST	ENDS
;	COMDAT ??_C@_06OAOPNKHP@insert?$AA@
CONST	SEGMENT
??_C@_06OAOPNKHP@insert?$AA@ DB 'insert', 00H		; `string'
CONST	ENDS
;	COMDAT ??_C@_05FKHKFDID@index?$AA@
CONST	SEGMENT
??_C@_05FKHKFDID@index?$AA@ DB 'index', 00H		; `string'
CONST	ENDS
;	COMDAT ??_C@_0M@JCIKMCEM@fromunicode?$AA@
CONST	SEGMENT
??_C@_0M@JCIKMCEM@fromunicode?$AA@ DB 'fromunicode', 00H ; `string'
CONST	ENDS
;	COMDAT ??_C@_09OCNOKPAF@frombytes?$AA@
CONST	SEGMENT
??_C@_09OCNOKPAF@frombytes?$AA@ DB 'frombytes', 00H	; `string'
CONST	ENDS
;	COMDAT ??_C@_0L@PGGLCJNP@fromstring?$AA@
CONST	SEGMENT
??_C@_0L@PGGLCJNP@fromstring?$AA@ DB 'fromstring', 00H	; `string'
CONST	ENDS
;	COMDAT ??_C@_08BGGGONCE@fromlist?$AA@
CONST	SEGMENT
??_C@_08BGGGONCE@fromlist?$AA@ DB 'fromlist', 00H	; `string'
CONST	ENDS
;	COMDAT ??_C@_08BIHFDCNI@fromfile?$AA@
CONST	SEGMENT
??_C@_08BIHFDCNI@fromfile?$AA@ DB 'fromfile', 00H	; `string'
CONST	ENDS
;	COMDAT ??_C@_06BPBOMFNI@extend?$AA@
CONST	SEGMENT
??_C@_06BPBOMFNI@extend?$AA@ DB 'extend', 00H		; `string'
CONST	ENDS
;	COMDAT ??_C@_0N@LCDCNIJ@__deepcopy__?$AA@
CONST	SEGMENT
??_C@_0N@LCDCNIJ@__deepcopy__?$AA@ DB '__deepcopy__', 00H ; `string'
CONST	ENDS
;	COMDAT ??_C@_05IOMEMJEC@count?$AA@
CONST	SEGMENT
??_C@_05IOMEMJEC@count?$AA@ DB 'count', 00H		; `string'
CONST	ENDS
;	COMDAT ??_C@_08MOMBEIKE@__copy__?$AA@
CONST	SEGMENT
??_C@_08MOMBEIKE@__copy__?$AA@ DB '__copy__', 00H	; `string'
CONST	ENDS
;	COMDAT ??_C@_08LGNCHIMC@byteswap?$AA@
CONST	SEGMENT
??_C@_08LGNCHIMC@byteswap?$AA@ DB 'byteswap', 00H	; `string'
CONST	ENDS
;	COMDAT ??_C@_0M@MDHGDJKG@buffer_info?$AA@
CONST	SEGMENT
??_C@_0M@MDHGDJKG@buffer_info?$AA@ DB 'buffer_info', 00H ; `string'
CONST	ENDS
;	COMDAT ??_C@_06PCICMFGG@append?$AA@
CONST	SEGMENT
??_C@_06PCICMFGG@append?$AA@ DB 'append', 00H		; `string'
CONST	ENDS
;	COMDAT ??_C@_0CG@DALNPKGO@the?5size?0?5in?5bytes?0?5of?5one?5array@
CONST	SEGMENT
??_C@_0CG@DALNPKGO@the?5size?0?5in?5bytes?0?5of?5one?5array@ DB 'the size'
	DB	', in bytes, of one array item', 00H		; `string'
CONST	ENDS
;	COMDAT ??_C@_08BFHIGMPA@itemsize?$AA@
CONST	SEGMENT
??_C@_08BFHIGMPA@itemsize?$AA@ DB 'itemsize', 00H	; `string'
CONST	ENDS
;	COMDAT ??_C@_0DA@HJNMFPLE@the?5typecode?5character?5used?5to?5c@
CONST	SEGMENT
??_C@_0DA@HJNMFPLE@the?5typecode?5character?5used?5to?5c@ DB 'the typecod'
	DB	'e character used to create the array', 00H	; `string'
CONST	ENDS
;	COMDAT ??_C@_08FJHEKLCH@typecode?$AA@
CONST	SEGMENT
??_C@_08FJHEKLCH@typecode?$AA@ DB 'typecode', 00H	; `string'
CONST	ENDS
;	COMDAT ??_C@_08IBFKALI@__dict__?$AA@
CONST	SEGMENT
??_C@_08IBFKALI@__dict__?$AA@ DB '__dict__', 00H	; `string'
CONST	ENDS
;	COMDAT ??_C@_0BF@FHDBJGA@_array_reconstructor?$AA@
CONST	SEGMENT
??_C@_0BF@FHDBJGA@_array_reconstructor?$AA@ DB '_array_reconstructor', 00H ; `string'
CONST	ENDS
CONST	SEGMENT
mformat_descriptors DQ 0000000000000001H
	DD	00H
	DD	00H
	DQ	0000000000000001H
	DD	01H
	DD	00H
	DQ	0000000000000002H
	DD	00H
	DD	00H
	DQ	0000000000000002H
	DD	00H
	DD	01H
	DQ	0000000000000002H
	DD	01H
	DD	00H
	DQ	0000000000000002H
	DD	01H
	DD	01H
	DQ	0000000000000004H
	DD	00H
	DD	00H
	DQ	0000000000000004H
	DD	00H
	DD	01H
	DQ	0000000000000004H
	DD	01H
	DD	00H
	DQ	0000000000000004H
	DD	01H
	DD	01H
	DQ	0000000000000008H
	DD	00H
	DD	00H
	DQ	0000000000000008H
	DD	00H
	DD	01H
	DQ	0000000000000008H
	DD	01H
	DD	00H
	DQ	0000000000000008H
	DD	01H
	DD	01H
	DQ	0000000000000004H
	DD	00H
	DD	00H
	DQ	0000000000000004H
	DD	00H
	DD	01H
	DQ	0000000000000008H
	DD	00H
	DD	00H
	DQ	0000000000000008H
	DD	00H
	DD	01H
	DQ	0000000000000004H
	DD	00H
	DD	00H
	DQ	0000000000000004H
	DD	00H
	DD	01H
	DQ	0000000000000008H
	DD	00H
	DD	00H
	DQ	0000000000000008H
	DD	00H
	DD	01H
CONST	ENDS
;	COMDAT ??_C@_05NGFEDHGN@write?$AA@
CONST	SEGMENT
??_C@_05NGFEDHGN@write?$AA@ DB 'write', 00H		; `string'
CONST	ENDS
_TLS	SEGMENT
?PyId___dict__@?1??array_reduce_ex@@9@9 DQ 0000000000000000H ; `array_reduce_ex'::`2'::PyId___dict__
	DQ	FLAT:??_C@_08IBFKALI@__dict__?$AA@
	DQ	0000000000000000H
?PyId__array_reconstructor@?1??array_reduce_ex@@9@9 DQ 0000000000000000H ; `array_reduce_ex'::`2'::PyId__array_reconstructor
	DQ	FLAT:??_C@_0BF@FHDBJGA@_array_reconstructor?$AA@
	DQ	0000000000000000H
?PyId_write@?2??array_tofile@@9@9 DQ 0000000000000000H	; `array_tofile'::`3'::PyId_write
	DQ	FLAT:??_C@_05NGFEDHGN@write?$AA@
	DQ	0000000000000000H
?PyId_read@?1??array_fromfile@@9@9 DQ 0000000000000000H	; `array_fromfile'::`2'::PyId_read
	DQ	FLAT:??_C@_04POLDLDMI@read?$AA@
	DQ	0000000000000000H
_TLS	ENDS
;	COMDAT ??_C@_04POLDLDMI@read?$AA@
CONST	SEGMENT
??_C@_04POLDLDMI@read?$AA@ DB 'read', 00H		; `string'
CONST	ENDS
_DATA	SEGMENT
descriptors DB	062H
	ORG $+3
	DD	01H
	DQ	FLAT:b_getitem
	DQ	FLAT:b_setitem
	DQ	FLAT:??_C@_01OJONOECF@b?$AA@
	DD	01H
	DD	01H
	DB	042H
	ORG $+3
	DD	01H
	DQ	FLAT:BB_getitem
	DQ	FLAT:BB_setitem
	DQ	FLAT:??_C@_01HMGJMAIH@B?$AA@
	DD	01H
	DD	00H
	DB	075H
	ORG $+3
	DD	02H
	DQ	FLAT:u_getitem
	DQ	FLAT:u_setitem
	DQ	FLAT:??_C@_01OMGOGALD@u?$AA@
	DD	00H
	DD	00H
	DB	068H
	ORG $+3
	DD	02H
	DQ	FLAT:h_getitem
	DQ	FLAT:h_setitem
	DQ	FLAT:??_C@_01BDACAMKP@h?$AA@
	DD	01H
	DD	01H
	DB	048H
	ORG $+3
	DD	02H
	DQ	FLAT:HH_getitem
	DQ	FLAT:HH_setitem
	DQ	FLAT:??_C@_01IGIGCIAN@H?$AA@
	DD	01H
	DD	00H
	DB	069H
	ORG $+3
	DD	04H
	DQ	FLAT:i_getitem
	DQ	FLAT:i_setitem
	DQ	FLAT:??_C@_01KBJDNOO@i?$AA@
	DD	01H
	DD	01H
	DB	049H
	ORG $+3
	DD	04H
	DQ	FLAT:II_getitem
	DQ	FLAT:II_setitem
	DQ	FLAT:??_C@_01JPJNBJEM@I?$AA@
	DD	01H
	DD	00H
	DB	06cH
	ORG $+3
	DD	04H
	DQ	FLAT:l_getitem
	DQ	FLAT:l_setitem
	DQ	FLAT:??_C@_01HHGOMJKL@l?$AA@
	DD	01H
	DD	01H
	DB	04cH
	ORG $+3
	DD	04H
	DQ	FLAT:LL_getitem
	DQ	FLAT:LL_setitem
	DQ	FLAT:??_C@_01OCOKONAJ@L?$AA@
	DD	01H
	DD	00H
	DB	071H
	ORG $+3
	DD	08H
	DQ	FLAT:q_getitem
	DQ	FLAT:q_setitem
	DQ	FLAT:??_C@_01IIACKFLH@q?$AA@
	DD	01H
	DD	01H
	DB	051H
	ORG $+3
	DD	08H
	DQ	FLAT:QQ_getitem
	DQ	FLAT:QQ_setitem
	DQ	FLAT:??_C@_01BNIGIBBF@Q?$AA@
	DD	01H
	DD	00H
	DB	066H
	ORG $+3
	DD	04H
	DQ	FLAT:f_getitem
	DQ	FLAT:f_setitem
	DQ	FLAT:??_C@_01INIBCBCB@f?$AA@
	DD	00H
	DD	00H
	DB	064H
	ORG $+3
	DD	08H
	DQ	FLAT:d_getitem
	DQ	FLAT:d_setitem
	DQ	FLAT:??_C@_01LPLHEDKD@d?$AA@
	DD	00H
	DD	00H
	DB	00H
	ORG $+3
	DD	00H
	DQ	0000000000000000H
	DQ	0000000000000000H
	DQ	0000000000000000H
	DD	00H
	DD	00H
copy_doc DB	'copy(array)', 0aH, 0aH, ' Return a copy of the array.', 00H
	ORG $+6
count_doc DB	'count(x)', 0aH, 0aH, 'Return number of occurrences of x '
	DB	'in the array.', 00H
	ORG $+6
index_doc DB	'index(x)', 0aH, 0aH, 'Return index of first occurrence o'
	DB	'f x in the array.', 00H
	ORG $+2
remove_doc DB	'remove(x)', 0aH, 0aH, 'Remove the first occurrence of x '
	DB	'in the array.', 00H
	ORG $+6
pop_doc	DB	'pop([i])', 0aH, 0aH, 'Return the i-th element and delete'
	DB	' it from the array. i defaults to -1.', 00H
	ORG $+6
append_doc DB	'append(x)', 0aH, 0aH, 'Append new value x to the end of '
	DB	'the array.', 00H
	ORG $+1
extend_doc DB	'extend(array or iterable)', 0aH, 0aH, ' Append items to '
	DB	'the end of the array.', 00H
	ORG $+6
reverse_doc DB	'reverse()', 0aH, 0aH, 'Reverse the order of the items in'
	DB	' the array.', 00H
insert_doc DB	'insert(i,x)', 0aH, 0aH, 'Insert a new item x into the ar'
	DB	'ray before position i.', 00H
	ORG $+5
fromlist_doc DB	'fromlist(list)', 0aH, 0aH, 'Append items to array from l'
	DB	'ist.', 00H
	ORG $+7
buffer_info_doc DB 'buffer_info() -> (address, length)', 0aH, 0aH, 'Retur'
	DB	'n a tuple (address, length) giving the current memory address'
	DB	' and', 0aH, 'the length in items of the buffer used to hold a'
	DB	'rray''s contents', 0aH, 'The length should be multiplied by t'
	DB	'he itemsize attribute to calculate', 0aH, 'the buffer length '
	DB	'in bytes.', 00H
	ORG $+2
byteswap_doc DB	'byteswap()', 0aH, 0aH, 'Byteswap all items of the array.'
	DB	'  If the items in the array are not 1, 2,', 0aH, '4, or 8 byt'
	DB	'es in size, RuntimeError is raised.', 00H
	ORG $+3
reduce_doc DB	'Return state information for pickling.', 00H
	ORG $+1
fromfile_doc DB	'fromfile(f, n)', 0aH, 0aH, 'Read n objects from the file'
	DB	' object f and append them to the end of the', 0aH, 'array.', 00H
	ORG $+1
tofile_doc DB	'tofile(f)', 0aH, 0aH, 'Write all items (as machine value'
	DB	's) to the file object f.', 00H
	ORG $+3
array_as_mapping DQ FLAT:array_length
	DQ	FLAT:array_subscr
	DQ	FLAT:array_ass_subscr
tolist_doc DB	'tolist() -> list', 0aH, 0aH, 'Convert array to an ordina'
	DB	'ry list with the same items.', 00H
	ORG $+7
fromstring_doc DB 'fromstring(string)', 0aH, 0aH, 'Appends items from the'
	DB	' string, interpreting it as an array of machine', 0aH, 'value'
	DB	's, as if it had been read from a file using the fromfile() me'
	DB	'thod).', 0aH, 0aH, 'This method is deprecated. Use frombytes '
	DB	'instead.', 00H
	ORG $+2
emptybuf DQ	FLAT:??_C@_00CNPNBAHC@?$AA@
frombytes_doc DB 'frombytes(bytestring)', 0aH, 0aH, 'Appends items from t'
	DB	'he string, interpreting it as an array of machine', 0aH, 'val'
	DB	'ues, as if it had been read from a file using the fromfile() '
	DB	'method).', 00H
	ORG $+2
array_as_buffer DQ FLAT:array_buffer_getbuf
	DQ	FLAT:array_buffer_relbuf
setstate_doc DB	'Set state information for unpickling.', 00H
	ORG $+2
tobytes_doc DB	'tobytes() -> bytes', 0aH, 0aH, 'Convert the array to an '
	DB	'array of machine values and return the bytes', 0aH, 'represen'
	DB	'tation.', 00H
	ORG $+7
tostring_doc DB	'tostring() -> bytes', 0aH, 0aH, 'Convert the array to an'
	DB	' array of machine values and return the bytes', 0aH, 'represe'
	DB	'ntation.', 0aH, 0aH, 'This method is deprecated. Use tobytes '
	DB	'instead.', 00H
	ORG $+5
fromunicode_doc DB 'fromunicode(ustr)', 0aH, 0aH, 'Extends this array wit'
	DB	'h data from the unicode string ustr.', 0aH, 'The array must b'
	DB	'e a unicode type array; otherwise a ValueError', 0aH, 'is rai'
	DB	'sed.  Use array.frombytes(ustr.encode(...)) to', 0aH, 'append'
	DB	' Unicode data to an array of some other type.', 00H
	ORG $+10
tounicode_doc DB 'tounicode() -> unicode', 0aH, 0aH, 'Convert the array t'
	DB	'o a unicode string.  The array must be', 0aH, 'a unicode type'
	DB	' array; otherwise a ValueError is raised.  Use', 0aH, 'array.'
	DB	'tobytes().decode() to obtain a unicode string from', 0aH, 'an'
	DB	' array of some other type.', 00H
	ORG $+3
sizeof_doc DB	'__sizeof__() -> int', 0aH, 0aH, 'Size of the array in me'
	DB	'mory, in bytes.', 00H
	ORG $+12
array_getsets DQ FLAT:??_C@_08FJHEKLCH@typecode?$AA@
	DQ	FLAT:array_get_typecode
	DQ	0000000000000000H
	DQ	FLAT:??_C@_0DA@HJNMFPLE@the?5typecode?5character?5used?5to?5c@
	ORG $+8
	DQ	FLAT:??_C@_08BFHIGMPA@itemsize?$AA@
	DQ	FLAT:array_get_itemsize
	DQ	0000000000000000H
	DQ	FLAT:??_C@_0CG@DALNPKGO@the?5size?0?5in?5bytes?0?5of?5one?5array@
	ORG $+8
	DQ	0000000000000000H
	ORG $+32
	ORG $+8
array_methods DQ FLAT:??_C@_06PCICMFGG@append?$AA@
	DQ	FLAT:array_append
	DD	08H
	ORG $+4
	DQ	FLAT:append_doc
	DQ	FLAT:??_C@_0M@MDHGDJKG@buffer_info?$AA@
	DQ	FLAT:array_buffer_info
	DD	04H
	ORG $+4
	DQ	FLAT:buffer_info_doc
	DQ	FLAT:??_C@_08LGNCHIMC@byteswap?$AA@
	DQ	FLAT:array_byteswap
	DD	04H
	ORG $+4
	DQ	FLAT:byteswap_doc
	DQ	FLAT:??_C@_08MOMBEIKE@__copy__?$AA@
	DQ	FLAT:array_copy
	DD	04H
	ORG $+4
	DQ	FLAT:copy_doc
	DQ	FLAT:??_C@_05IOMEMJEC@count?$AA@
	DQ	FLAT:array_count
	DD	08H
	ORG $+4
	DQ	FLAT:count_doc
	DQ	FLAT:??_C@_0N@LCDCNIJ@__deepcopy__?$AA@
	DQ	FLAT:array_copy
	DD	08H
	ORG $+4
	DQ	FLAT:copy_doc
	DQ	FLAT:??_C@_06BPBOMFNI@extend?$AA@
	DQ	FLAT:array_extend
	DD	08H
	ORG $+4
	DQ	FLAT:extend_doc
	DQ	FLAT:??_C@_08BIHFDCNI@fromfile?$AA@
	DQ	FLAT:array_fromfile
	DD	01H
	ORG $+4
	DQ	FLAT:fromfile_doc
	DQ	FLAT:??_C@_08BGGGONCE@fromlist?$AA@
	DQ	FLAT:array_fromlist
	DD	08H
	ORG $+4
	DQ	FLAT:fromlist_doc
	DQ	FLAT:??_C@_0L@PGGLCJNP@fromstring?$AA@
	DQ	FLAT:array_fromstring
	DD	01H
	ORG $+4
	DQ	FLAT:fromstring_doc
	DQ	FLAT:??_C@_09OCNOKPAF@frombytes?$AA@
	DQ	FLAT:array_frombytes
	DD	01H
	ORG $+4
	DQ	FLAT:frombytes_doc
	DQ	FLAT:??_C@_0M@JCIKMCEM@fromunicode?$AA@
	DQ	FLAT:array_fromunicode
	DD	01H
	ORG $+4
	DQ	FLAT:fromunicode_doc
	DQ	FLAT:??_C@_05FKHKFDID@index?$AA@
	DQ	FLAT:array_index
	DD	08H
	ORG $+4
	DQ	FLAT:index_doc
	DQ	FLAT:??_C@_06OAOPNKHP@insert?$AA@
	DQ	FLAT:array_insert
	DD	01H
	ORG $+4
	DQ	FLAT:insert_doc
	DQ	FLAT:??_C@_03NJDAHFJE@pop?$AA@
	DQ	FLAT:array_pop
	DD	01H
	ORG $+4
	DQ	FLAT:pop_doc
	DQ	FLAT:??_C@_0O@CFEDDKPG@__reduce_ex__?$AA@
	DQ	FLAT:array_reduce_ex
	DD	08H
	ORG $+4
	DQ	FLAT:reduce_doc
	DQ	FLAT:??_C@_06LEMKAMD@remove?$AA@
	DQ	FLAT:array_remove
	DD	08H
	ORG $+4
	DQ	FLAT:remove_doc
	DQ	FLAT:??_C@_07KOIEOCCE@reverse?$AA@
	DQ	FLAT:array_reverse
	DD	04H
	ORG $+4
	DQ	FLAT:reverse_doc
	DQ	FLAT:??_C@_06IKANPOPE@tofile?$AA@
	DQ	FLAT:array_tofile
	DD	08H
	ORG $+4
	DQ	FLAT:tofile_doc
	DQ	FLAT:??_C@_06IEBOCBAI@tolist?$AA@
	DQ	FLAT:array_tolist
	DD	04H
	ORG $+4
	DQ	FLAT:tolist_doc
	DQ	FLAT:??_C@_08FNIIFOJC@tostring?$AA@
	DQ	FLAT:array_tostring
	DD	04H
	ORG $+4
	DQ	FLAT:tostring_doc
	DQ	FLAT:??_C@_07NAJELLCK@tobytes?$AA@
	DQ	FLAT:array_tobytes
	DD	04H
	ORG $+4
	DQ	FLAT:tobytes_doc
	DQ	FLAT:??_C@_09JKEMBMBG@tounicode?$AA@
	DQ	FLAT:array_tounicode
	DD	04H
	ORG $+4
	DQ	FLAT:tounicode_doc
	DQ	FLAT:??_C@_0L@HOGGIPGN@__sizeof__?$AA@
	DQ	FLAT:array_sizeof
	DD	04H
	ORG $+4
	DQ	FLAT:sizeof_doc
	DQ	0000000000000000H
	DQ	0000000000000000H
	ORG $+16
array_as_sequence DQ FLAT:array_length
	DQ	FLAT:array_concat
	DQ	FLAT:array_repeat
	DQ	FLAT:array_item
	DQ	0000000000000000H
	DQ	FLAT:array_ass_item
	DQ	0000000000000000H
	DQ	FLAT:array_contains
	DQ	FLAT:array_inplace_concat
	DQ	FLAT:array_inplace_repeat
module_doc DB	'This module defines an object type which can efficiently'
	DB	' represent', 0aH, 'an array of basic values: characters, inte'
	DB	'gers, floating point', 0aH, 'numbers.  Arrays are sequence ty'
	DB	'pes and behave very much like lists,', 0aH, 'except that the '
	DB	'type of objects stored in them is constrained.  The', 0aH, 't'
	DB	'ype is specified at object creation time by using a type code'
	DB	', which', 0aH, 'is a single character.  The following type co'
	DB	'des are defined:', 0aH, 0aH, '    Type code   C Type         '
	DB	'    Minimum size in bytes ', 0aH, '    ''b''         signed i'
	DB	'nteger     1 ', 0aH, '    ''B''         unsigned integer   1 '
	DB	0aH, '    ''u''         Unicode character  2 (see note) ', 0aH
	DB	'    ''h''         signed integer     2 ', 0aH, '    ''H''    '
	DB	'     unsigned integer   2 ', 0aH, '    ''i''         signed i'
	DB	'nteger     2 ', 0aH, '    ''I''         unsigned integer   2 '
	DB	0aH, '    ''l''         signed integer     4 ', 0aH, '    ''L'''
	DB	'         unsigned integer   4 ', 0aH, '    ''q''         sign'
	DB	'ed integer     8 (see note) ', 0aH, '    ''Q''         unsign'
	DB	'ed integer   8 (see note) ', 0aH, '    ''f''         floating'
	DB	' point     4 ', 0aH, '    ''d''         floating point     8 '
	DB	0aH, 0aH, 'NOTE: The ''u'' typecode corresponds to Python''s u'
	DB	'nicode character. On ', 0aH, 'narrow builds this is 2-bytes o'
	DB	'n wide builds this is 4-bytes.', 0aH, 0aH, 'NOTE: The ''q'' a'
	DB	'nd ''Q'' type codes are only available if the platform ', 0aH
	DB	'C compiler used to build Python supports ''long long'', or, o'
	DB	'n Windows, ', 0aH, '''__int64''.', 0aH, 0aH, 'The constructor'
	DB	' is:', 0aH, 0aH, 'array(typecode [, initializer]) -- create a'
	DB	' new array', 0aH, 00H
	ORG $+13
arraytype_doc DB 'array(typecode [, initializer]) -> array', 0aH, 0aH, 'R'
	DB	'eturn a new array whose items are restricted by typecode, and'
	DB	0aH, 'initialized from the optional initializer value, which m'
	DB	'ust be a list,', 0aH, 'string or iterable over elements of th'
	DB	'e appropriate type.', 0aH, 0aH, 'Arrays represent basic value'
	DB	's and behave very much like lists, except', 0aH, 'the type of'
	DB	' objects stored in them is constrained.', 0aH, 0aH, 'Methods:'
	DB	0aH, 0aH, 'append() -- append a new item to the end of the arr'
	DB	'ay', 0aH, 'buffer_info() -- return information giving the cur'
	DB	'rent memory info', 0aH, 'byteswap() -- byteswap all the items'
	DB	' of the array', 0aH, 'count() -- return number of occurrences'
	DB	' of an object', 0aH, 'extend() -- extend array by appending m'
	DB	'ultiple elements from an iterable', 0aH, 'fromfile() -- read '
	DB	'items from a file object', 0aH, 'fromlist() -- append items f'
	DB	'rom the list', 0aH, 'frombytes() -- append items from the str'
	DB	'ing', 0aH, 'index() -- return index of first occurrence of an'
	DB	' object', 0aH, 'insert() -- insert a new item into the array '
	DB	'at a provided position', 0aH, 'pop() -- remove and return ite'
	DB	'm (default last)', 0aH, 'remove() -- remove first occurrence '
	DB	'of an object', 0aH, 'reverse() -- reverse the order of the it'
	DB	'ems in the array', 0aH, 'tofile() -- write all items to a fil'
	DB	'e object', 0aH, 'tolist() -- return the array converted to an'
	DB	' ordinary list', 0aH, 'tobytes() -- return the array converte'
	DB	'd to a string', 0aH, 0aH, 'Attributes:', 0aH, 0aH, 'typecode '
	DB	'-- the typecode character used to create the array', 0aH, 'it'
	DB	'emsize -- the length in bytes of one array item', 0aH, 00H
	ORG $+8
Arraytype DQ	dead1234beef5678H
	DQ	dead1234beef5678H
	DQ	0000000000000000H
	ORG $+8
	DQ	0000000000000001H
	DQ	0000000000000000H
	DQ	0000000000000000H
	DQ	0000000000000000H
	DQ	dead1234beef5678H
	DQ	dead1234beef5678H
	DQ	0000000000000001H
	DQ	0000000000000000H
	DQ	0000000000000000H
	ORG $+8
	DQ	FLAT:??_C@_0M@DCMOJOBC@array?4array?$AA@
	DQ	00000000000000a0H
	DQ	0000000000000000H
	DQ	FLAT:array_dealloc
	DQ	0000000000000000H
	DQ	0000000000000000H
	DQ	0000000000000000H
	DQ	0000000000000000H
	DQ	FLAT:array_repr
	DQ	0000000000000000H
	DQ	FLAT:array_as_sequence
	DQ	FLAT:array_as_mapping
	DQ	0000000000000000H
	DQ	0000000000000000H
	DQ	0000000000000000H
	DQ	FLAT:PyObject_GenericGetAttr
	DQ	0000000000000000H
	DQ	FLAT:array_as_buffer
	DD	040400H
	ORG $+4
	DQ	FLAT:arraytype_doc
	DQ	0000000000000000H
	DQ	0000000000000000H
	DQ	FLAT:array_richcompare
	DQ	0000000000000088H
	DQ	FLAT:array_iter
	DQ	0000000000000000H
	DQ	FLAT:array_methods
	DQ	0000000000000000H
	DQ	FLAT:array_getsets
	DQ	0000000000000000H
	DQ	0000000000000000H
	DQ	0000000000000000H
	DQ	0000000000000000H
	DQ	0000000000000000H
	DQ	0000000000000000H
	DQ	FLAT:PyType_GenericAlloc
	DQ	FLAT:array_new
	DQ	FLAT:PyObject_Free
	ORG $+64
arrayiter_methods DQ FLAT:??_C@_0L@NNMACJIG@__reduce__?$AA@
	DQ	FLAT:arrayiter_reduce
	DD	04H
	ORG $+4
	DQ	FLAT:reduce_doc
	DQ	FLAT:??_C@_0N@MOOGCAMH@__setstate__?$AA@
	DQ	FLAT:arrayiter_setstate
	DD	08H
	ORG $+4
	DQ	FLAT:setstate_doc
	DQ	0000000000000000H
	DQ	0000000000000000H
	ORG $+16
PyArrayIter_Type DQ dead1234beef5678H
	DQ	dead1234beef5678H
	DQ	0000000000000000H
	ORG $+8
	DQ	0000000000000001H
	DQ	0000000000000000H
	DQ	0000000000000000H
	DQ	0000000000000000H
	DQ	dead1234beef5678H
	DQ	dead1234beef5678H
	DQ	0000000000000001H
	DQ	0000000000000000H
	DQ	0000000000000000H
	ORG $+8
	DQ	FLAT:??_C@_0O@OPHKEACL@arrayiterator?$AA@
	DQ	0000000000000080H
	DQ	0000000000000000H
	DQ	FLAT:arrayiter_dealloc
	DQ	0000000000000000H
	DQ	0000000000000000H
	DQ	0000000000000000H
	DQ	0000000000000000H
	DQ	0000000000000000H
	DQ	0000000000000000H
	DQ	0000000000000000H
	DQ	0000000000000000H
	DQ	0000000000000000H
	DQ	0000000000000000H
	DQ	0000000000000000H
	DQ	FLAT:PyObject_GenericGetAttr
	DQ	0000000000000000H
	DQ	0000000000000000H
	DD	044000H
	ORG $+4
	DQ	0000000000000000H
	DQ	FLAT:arrayiter_traverse
	DQ	0000000000000000H
	DQ	0000000000000000H
	DQ	0000000000000000H
	DQ	FLAT:PyObject_SelfIter
	DQ	FLAT:arrayiter_next
	DQ	FLAT:arrayiter_methods
	ORG $+152
a_methods DQ	FLAT:??_C@_0BF@FHDBJGA@_array_reconstructor?$AA@
	DQ	FLAT:array_reconstructor
	DD	01H
	ORG $+4
	DQ	FLAT:??_C@_0CF@GMIJNGPM@Internal?4?5Used?5for?5pickling?5supp@
	DQ	0000000000000000H
	DQ	0000000000000000H
	DD	00H
	ORG $+4
	DQ	0000000000000000H
arraymodule DQ	dead1234beef5678H
	DQ	dead1234beef5678H
	DQ	0000000000000000H
	ORG $+8
	DQ	0000000000000001H
	DQ	0000000000000000H
	DQ	0000000000000000H
	DQ	0000000000000000H
	DQ	dead1234beef5678H
	DQ	dead1234beef5678H
	DQ	0000000000000001H
	DQ	0000000000000000H
	DQ	0000000000000000H
	DQ	0000000000000000H
	DQ	0000000000000000H
	ORG $+8
	DQ	FLAT:??_C@_05HIFJDKLD@array?$AA@
	DQ	FLAT:module_doc
	DQ	ffffffffffffffffH
	DQ	FLAT:a_methods
	DQ	0000000000000000H
	DQ	0000000000000000H
	DQ	0000000000000000H
	DQ	0000000000000000H
_DATA	ENDS
;	COMDAT ??_C@_01LPLHEDKD@d?$AA@
CONST	SEGMENT
??_C@_01LPLHEDKD@d?$AA@ DB 'd', 00H			; `string'
CONST	ENDS
;	COMDAT ??_C@_01INIBCBCB@f?$AA@
CONST	SEGMENT
??_C@_01INIBCBCB@f?$AA@ DB 'f', 00H			; `string'
CONST	ENDS
;	COMDAT ??_C@_01BNIGIBBF@Q?$AA@
CONST	SEGMENT
??_C@_01BNIGIBBF@Q?$AA@ DB 'Q', 00H			; `string'
CONST	ENDS
;	COMDAT ??_C@_01IIACKFLH@q?$AA@
CONST	SEGMENT
??_C@_01IIACKFLH@q?$AA@ DB 'q', 00H			; `string'
CONST	ENDS
;	COMDAT ??_C@_01OCOKONAJ@L?$AA@
CONST	SEGMENT
??_C@_01OCOKONAJ@L?$AA@ DB 'L', 00H			; `string'
CONST	ENDS
;	COMDAT ??_C@_01HHGOMJKL@l?$AA@
CONST	SEGMENT
??_C@_01HHGOMJKL@l?$AA@ DB 'l', 00H			; `string'
CONST	ENDS
;	COMDAT ??_C@_01JPJNBJEM@I?$AA@
CONST	SEGMENT
??_C@_01JPJNBJEM@I?$AA@ DB 'I', 00H			; `string'
CONST	ENDS
;	COMDAT ??_C@_01KBJDNOO@i?$AA@
CONST	SEGMENT
??_C@_01KBJDNOO@i?$AA@ DB 'i', 00H			; `string'
CONST	ENDS
;	COMDAT ??_C@_01IGIGCIAN@H?$AA@
CONST	SEGMENT
??_C@_01IGIGCIAN@H?$AA@ DB 'H', 00H			; `string'
CONST	ENDS
;	COMDAT ??_C@_01BDACAMKP@h?$AA@
CONST	SEGMENT
??_C@_01BDACAMKP@h?$AA@ DB 'h', 00H			; `string'
CONST	ENDS
;	COMDAT ??_C@_01OMGOGALD@u?$AA@
CONST	SEGMENT
??_C@_01OMGOGALD@u?$AA@ DB 'u', 00H			; `string'
CONST	ENDS
;	COMDAT ??_C@_01HMGJMAIH@B?$AA@
CONST	SEGMENT
??_C@_01HMGJMAIH@B?$AA@ DB 'B', 00H			; `string'
CONST	ENDS
;	COMDAT ??_C@_01OJONOECF@b?$AA@
CONST	SEGMENT
??_C@_01OJONOECF@b?$AA@ DB 'b', 00H			; `string'
CONST	ENDS
PUBLIC	??_C@_0L@DHGMCEID@_Py_IncRef?$AA@		; `string'
PUBLIC	??_C@_0CD@HDJFDCDP@c?3?2src?2pyparallel?2include?2object@ ; `string'
PUBLIC	_Py_IncRef
EXTRN	_PyParallel_Guard:PROC
EXTRN	_Py_PXCTX:PROC
;	COMDAT pdata
; File c:\src\pyparallel\include\object.h
pdata	SEGMENT
$pdata$_Py_IncRef DD imagerel $LN5
	DD	imagerel $LN5+74
	DD	imagerel $unwind$_Py_IncRef
pdata	ENDS
;	COMDAT xdata
xdata	SEGMENT
$unwind$_Py_IncRef DD 020601H
	DD	030025206H
xdata	ENDS
;	COMDAT ??_C@_0L@DHGMCEID@_Py_IncRef?$AA@
CONST	SEGMENT
??_C@_0L@DHGMCEID@_Py_IncRef?$AA@ DB '_Py_IncRef', 00H	; `string'
CONST	ENDS
;	COMDAT ??_C@_0CD@HDJFDCDP@c?3?2src?2pyparallel?2include?2object@
CONST	SEGMENT
??_C@_0CD@HDJFDCDP@c?3?2src?2pyparallel?2include?2object@ DB 'c:\src\pypa'
	DB	'rallel\include\object.h', 00H		; `string'
; Function compile flags: /Ogtpy
CONST	ENDS
;	COMDAT _Py_IncRef
_TEXT	SEGMENT
op$ = 64
_Py_IncRef PROC						; COMDAT

; 904  : {

$LN5:
  00000	40 53		 push	 rbx
  00002	48 83 ec 30	 sub	 rsp, 48			; 00000030H
  00006	48 8b d9	 mov	 rbx, rcx

; 905  :     if ((!Py_PXCTX && (Py_ISPY(op) || Px_PERSISTED(op)))) {

  00009	e8 00 00 00 00	 call	 _Py_PXCTX
  0000e	85 c0		 test	 eax, eax
  00010	75 32		 jne	 SHORT $LN2@Py_IncRef
  00012	48 8d 15 00 00
	00 00		 lea	 rdx, OFFSET FLAT:??_C@_0CD@HDJFDCDP@c?3?2src?2pyparallel?2include?2object@
  00019	48 8d 0d 00 00
	00 00		 lea	 rcx, OFFSET FLAT:??_C@_0L@DHGMCEID@_Py_IncRef?$AA@
  00020	4c 8b cb	 mov	 r9, rbx
  00023	41 b8 89 03 00
	00		 mov	 r8d, 905		; 00000389H
  00029	c7 44 24 20 02
	00 00 00	 mov	 DWORD PTR [rsp+32], 2
  00031	e8 00 00 00 00	 call	 _PyParallel_Guard
  00036	85 c0		 test	 eax, eax
  00038	75 06		 jne	 SHORT $LN1@Py_IncRef
  0003a	f6 43 20 20	 test	 BYTE PTR [rbx+32], 32	; 00000020H
  0003e	74 04		 je	 SHORT $LN2@Py_IncRef
$LN1@Py_IncRef:

; 906  :         _Py_INC_REFTOTAL;
; 907  :         (((PyObject*)(op))->ob_refcnt++);

  00040	48 ff 43 50	 inc	 QWORD PTR [rbx+80]
$LN2@Py_IncRef:

; 908  :     }
; 909  : }

  00044	48 83 c4 30	 add	 rsp, 48			; 00000030H
  00048	5b		 pop	 rbx
  00049	c3		 ret	 0
_Py_IncRef ENDP
_TEXT	ENDS
PUBLIC	??_C@_0L@DMHMLFIA@_Py_DecRef?$AA@		; `string'
PUBLIC	_Py_DecRef
EXTRN	Px_DecRef:PROC
EXTRN	_Px_Dealloc:PROC
;	COMDAT pdata
pdata	SEGMENT
$pdata$_Py_DecRef DD imagerel $LN12
	DD	imagerel $LN12+123
	DD	imagerel $unwind$_Py_DecRef
pdata	ENDS
;	COMDAT xdata
xdata	SEGMENT
$unwind$_Py_DecRef DD 020601H
	DD	030025206H
xdata	ENDS
;	COMDAT ??_C@_0L@DMHMLFIA@_Py_DecRef?$AA@
CONST	SEGMENT
??_C@_0L@DMHMLFIA@_Py_DecRef?$AA@ DB '_Py_DecRef', 00H	; `string'
; Function compile flags: /Ogtpy
CONST	ENDS
;	COMDAT _Py_DecRef
_TEXT	SEGMENT
op$ = 64
_Py_DecRef PROC						; COMDAT

; 923  : {

$LN12:
  00000	40 53		 push	 rbx
  00002	48 83 ec 30	 sub	 rsp, 48			; 00000030H
  00006	48 8b d9	 mov	 rbx, rcx

; 924  :     if (!Py_PXCTX) {

  00009	e8 00 00 00 00	 call	 _Py_PXCTX
  0000e	85 c0		 test	 eax, eax
  00010	75 63		 jne	 SHORT $LN11@Py_DecRef

; 925  :         if (Px_PERSISTED(op) || Px_CLONED(op))

  00012	48 8b 43 20	 mov	 rax, QWORD PTR [rbx+32]
  00016	a8 20		 test	 al, 32			; 00000020H
  00018	75 53		 jne	 SHORT $LN5@Py_DecRef
  0001a	84 c0		 test	 al, al
  0001c	78 4f		 js	 SHORT $LN5@Py_DecRef

; 927  :         else if (!Px_ISPX(op)) {

  0001e	a8 02		 test	 al, 2
  00020	75 53		 jne	 SHORT $LN11@Py_DecRef

; 928  :             _Py_DEC_REFTOTAL;
; 929  :             if ((--((PyObject *)(op))->ob_refcnt) != 0) {

  00022	48 ff 4b 50	 dec	 QWORD PTR [rbx+80]
  00026	75 4d		 jne	 SHORT $LN11@Py_DecRef

; 930  :                 _Py_CHECK_REFCNT(op);
; 931  :             } else
; 932  :                 _Py_Dealloc((PyObject *)(op));

  00028	48 8d 15 00 00
	00 00		 lea	 rdx, OFFSET FLAT:??_C@_0CD@HDJFDCDP@c?3?2src?2pyparallel?2include?2object@
  0002f	48 8d 0d 00 00
	00 00		 lea	 rcx, OFFSET FLAT:??_C@_0L@DMHMLFIA@_Py_DecRef?$AA@
  00036	4c 8b cb	 mov	 r9, rbx
  00039	41 b8 a4 03 00
	00		 mov	 r8d, 932		; 000003a4H
  0003f	c7 44 24 20 10
	00 00 00	 mov	 DWORD PTR [rsp+32], 16
  00047	e8 00 00 00 00	 call	 _PyParallel_Guard
  0004c	48 8b cb	 mov	 rcx, rbx
  0004f	85 c0		 test	 eax, eax
  00051	74 0a		 je	 SHORT $LN10@Py_DecRef

; 933  :         }
; 934  :     }
; 935  : }

  00053	48 83 c4 30	 add	 rsp, 48			; 00000030H
  00057	5b		 pop	 rbx
  00058	e9 00 00 00 00	 jmp	 _Px_Dealloc
$LN10@Py_DecRef:

; 930  :                 _Py_CHECK_REFCNT(op);
; 931  :             } else
; 932  :                 _Py_Dealloc((PyObject *)(op));

  0005d	48 8b 43 58	 mov	 rax, QWORD PTR [rbx+88]

; 933  :         }
; 934  :     }
; 935  : }

  00061	48 83 c4 30	 add	 rsp, 48			; 00000030H
  00065	5b		 pop	 rbx
  00066	48 ff a0 88 00
	00 00		 rex_jmp QWORD PTR [rax+136]
$LN5@Py_DecRef:

; 926  :             Px_DECREF(op);

  0006d	48 8b cb	 mov	 rcx, rbx
  00070	e8 00 00 00 00	 call	 Px_DecRef
$LN11@Py_DecRef:

; 933  :         }
; 934  :     }
; 935  : }

  00075	48 83 c4 30	 add	 rsp, 48			; 00000030H
  00079	5b		 pop	 rbx
  0007a	c3		 ret	 0
_Py_DecRef ENDP
_TEXT	ENDS
PUBLIC	??_C@_0DB@GJKGCBFK@cannot?5resize?5an?5array?5that?5is?5e@ ; `string'
EXTRN	PyErr_NoMemory:PROC
EXTRN	__imp_realloc:PROC
EXTRN	_PxMem_Realloc:PROC
EXTRN	__imp_free:PROC
EXTRN	_PxMem_Free:PROC
EXTRN	PyErr_SetString:PROC
EXTRN	PyExc_BufferError:QWORD
;	COMDAT pdata
; File c:\src\pyparallel\modules\arraymodule.c
pdata	SEGMENT
$pdata$array_resize DD imagerel array_resize
	DD	imagerel array_resize+400
	DD	imagerel $unwind$array_resize
pdata	ENDS
;	COMDAT xdata
xdata	SEGMENT
$unwind$array_resize DD 0adc01H
	DD	08c4dcH
	DD	0764caH
	DD	0654c1H
	DD	09340aH
	DD	07006320aH
xdata	ENDS
;	COMDAT ??_C@_0DB@GJKGCBFK@cannot?5resize?5an?5array?5that?5is?5e@
CONST	SEGMENT
??_C@_0DB@GJKGCBFK@cannot?5resize?5an?5array?5that?5is?5e@ DB 'cannot res'
	DB	'ize an array that is exporting buffers', 00H ; `string'
; Function compile flags: /Ogtpy
CONST	ENDS
;	COMDAT array_resize
_TEXT	SEGMENT
self$ = 48
newsize$ = 56
array_resize PROC					; COMDAT

; 50   : {

  00000	48 89 5c 24 20	 mov	 QWORD PTR [rsp+32], rbx
  00005	57		 push	 rdi
  00006	48 83 ec 20	 sub	 rsp, 32			; 00000020H

; 51   :     char *items;
; 52   :     size_t _new_size;
; 53   : 
; 54   :     if (self->ob_exports > 0 && newsize != Py_SIZE(self)) {

  0000a	83 b9 90 00 00
	00 00		 cmp	 DWORD PTR [rcx+144], 0
  00011	48 8b fa	 mov	 rdi, rdx
  00014	48 8b d9	 mov	 rbx, rcx
  00017	7e 27		 jle	 SHORT $LN6@array_resi
  00019	48 3b 51 60	 cmp	 rdx, QWORD PTR [rcx+96]
  0001d	74 21		 je	 SHORT $LN6@array_resi

; 55   :         PyErr_SetString(PyExc_BufferError,
; 56   :             "cannot resize an array that is exporting buffers");

  0001f	48 8b 0d 00 00
	00 00		 mov	 rcx, QWORD PTR PyExc_BufferError
  00026	48 8d 15 00 00
	00 00		 lea	 rdx, OFFSET FLAT:??_C@_0DB@GJKGCBFK@cannot?5resize?5an?5array?5that?5is?5e@
  0002d	e8 00 00 00 00	 call	 PyErr_SetString

; 57   :         return -1;

  00032	83 c8 ff	 or	 eax, -1

; 108  : }

  00035	48 8b 5c 24 48	 mov	 rbx, QWORD PTR [rsp+72]
  0003a	48 83 c4 20	 add	 rsp, 32			; 00000020H
  0003e	5f		 pop	 rdi
  0003f	c3		 ret	 0
$LN6@array_resi:

; 58   :     }
; 59   : 
; 60   :     /* Bypass realloc() when a previous overallocation is large enough
; 61   :        to accommodate the newsize.  If the newsize is 16 smaller than the
; 62   :        current size, then proceed with the realloc() to shrink the array.
; 63   :     */
; 64   : 
; 65   :     if (self->allocated >= newsize &&
; 66   :         Py_SIZE(self) < newsize + 16 &&
; 67   :         self->ob_item != NULL) {

  00040	48 39 51 78	 cmp	 QWORD PTR [rcx+120], rdx
  00044	7c 22		 jl	 SHORT $LN5@array_resi
  00046	48 8d 42 10	 lea	 rax, QWORD PTR [rdx+16]
  0004a	48 39 41 60	 cmp	 QWORD PTR [rcx+96], rax
  0004e	7d 18		 jge	 SHORT $LN5@array_resi
  00050	48 83 79 70 00	 cmp	 QWORD PTR [rcx+112], 0
  00055	74 11		 je	 SHORT $LN5@array_resi

; 68   :         Py_SIZE(self) = newsize;

  00057	48 89 51 60	 mov	 QWORD PTR [rcx+96], rdx

; 69   :         return 0;

  0005b	33 c0		 xor	 eax, eax

; 108  : }

  0005d	48 8b 5c 24 48	 mov	 rbx, QWORD PTR [rsp+72]
  00062	48 83 c4 20	 add	 rsp, 32			; 00000020H
  00066	5f		 pop	 rdi
  00067	c3		 ret	 0
$LN5@array_resi:

; 70   :     }
; 71   : 
; 72   :     if (newsize == 0) {

  00068	48 85 d2	 test	 rdx, rdx
  0006b	75 4a		 jne	 SHORT $LN4@array_resi

; 73   :         PyMem_FREE(self->ob_item);

  0006d	e8 00 00 00 00	 call	 _Py_PXCTX
  00072	48 8b 4b 70	 mov	 rcx, QWORD PTR [rbx+112]
  00076	85 c0		 test	 eax, eax
  00078	74 1e		 je	 SHORT $LN9@array_resi
  0007a	e8 00 00 00 00	 call	 _PxMem_Free

; 74   :         self->ob_item = NULL;

  0007f	33 c0		 xor	 eax, eax
  00081	48 89 43 70	 mov	 QWORD PTR [rbx+112], rax

; 75   :         Py_SIZE(self) = 0;

  00085	48 89 43 60	 mov	 QWORD PTR [rbx+96], rax

; 76   :         self->allocated = 0;

  00089	48 89 43 78	 mov	 QWORD PTR [rbx+120], rax

; 108  : }

  0008d	48 8b 5c 24 48	 mov	 rbx, QWORD PTR [rsp+72]
  00092	48 83 c4 20	 add	 rsp, 32			; 00000020H
  00096	5f		 pop	 rdi
  00097	c3		 ret	 0
$LN9@array_resi:

; 73   :         PyMem_FREE(self->ob_item);

  00098	ff 15 00 00 00
	00		 call	 QWORD PTR __imp_free

; 74   :         self->ob_item = NULL;

  0009e	33 c0		 xor	 eax, eax
  000a0	48 89 43 70	 mov	 QWORD PTR [rbx+112], rax

; 75   :         Py_SIZE(self) = 0;

  000a4	48 89 43 60	 mov	 QWORD PTR [rbx+96], rax

; 76   :         self->allocated = 0;

  000a8	48 89 43 78	 mov	 QWORD PTR [rbx+120], rax

; 108  : }

  000ac	48 8b 5c 24 48	 mov	 rbx, QWORD PTR [rsp+72]
  000b1	48 83 c4 20	 add	 rsp, 32			; 00000020H
  000b5	5f		 pop	 rdi
  000b6	c3		 ret	 0
$LN4@array_resi:

; 77   :         return 0;
; 78   :     }
; 79   : 
; 80   :     /* This over-allocates proportional to the array size, making room
; 81   :      * for additional growth.  The over-allocation is mild, but is
; 82   :      * enough to give linear-time amortized behavior over a long
; 83   :      * sequence of appends() in the presence of a poorly-performing
; 84   :      * system realloc().
; 85   :      * The growth pattern is:  0, 4, 8, 16, 25, 34, 46, 56, 67, 79, ...
; 86   :      * Note, the pattern starts out the same as for lists but then
; 87   :      * grows at a smaller rate so that larger arrays only overallocate
; 88   :      * by about 1/16th -- this is done because arrays are presumed to be more
; 89   :      * memory critical.
; 90   :      */
; 91   : 
; 92   :     _new_size = (newsize >> 4) + (Py_SIZE(self) < 8 ? 3 : 7) + newsize;

  000b7	48 83 7b 60 08	 cmp	 QWORD PTR [rbx+96], 8
  000bc	48 89 6c 24 30	 mov	 QWORD PTR [rsp+48], rbp

; 93   :     items = self->ob_item;

  000c1	48 8b 6b 70	 mov	 rbp, QWORD PTR [rbx+112]
  000c5	48 89 74 24 38	 mov	 QWORD PTR [rsp+56], rsi
  000ca	48 8b f2	 mov	 rsi, rdx
  000cd	b8 07 00 00 00	 mov	 eax, 7
  000d2	b9 03 00 00 00	 mov	 ecx, 3
  000d7	4c 89 64 24 40	 mov	 QWORD PTR [rsp+64], r12
  000dc	0f 4c c1	 cmovl	 eax, ecx
  000df	48 c1 fe 04	 sar	 rsi, 4
  000e3	48 03 c2	 add	 rax, rdx

; 94   :     /* XXX The following multiplication and division does not optimize away
; 95   :        like it does for lists since the size is not known at compile time */
; 96   :     if (_new_size <= ((~(size_t)0) / self->ob_descr->itemsize))

  000e6	33 d2		 xor	 edx, edx
  000e8	48 03 f0	 add	 rsi, rax
  000eb	48 8b 83 80 00
	00 00		 mov	 rax, QWORD PTR [rbx+128]
  000f2	4c 63 40 04	 movsxd	 r8, DWORD PTR [rax+4]
  000f6	48 83 c8 ff	 or	 rax, -1
  000fa	49 f7 f0	 div	 r8
  000fd	48 3b f0	 cmp	 rsi, rax
  00100	77 6c		 ja	 SHORT $LN19@array_resi

; 97   :         PyMem_RESIZE(items, char, (_new_size * self->ob_descr->itemsize));

  00102	4c 0f af c6	 imul	 r8, rsi
  00106	49 bc ff ff ff
	ff ff ff ff 7f	 mov	 r12, 9223372036854775807 ; 7fffffffffffffffH
  00110	4d 3b c4	 cmp	 r8, r12
  00113	77 59		 ja	 SHORT $LN19@array_resi
  00115	e8 00 00 00 00	 call	 _Py_PXCTX
  0011a	85 c0		 test	 eax, eax
  0011c	48 8b 83 80 00
	00 00		 mov	 rax, QWORD PTR [rbx+128]
  00123	74 12		 je	 SHORT $LN15@array_resi
  00125	48 63 50 04	 movsxd	 rdx, DWORD PTR [rax+4]
  00129	48 8b cd	 mov	 rcx, rbp
  0012c	48 0f af d6	 imul	 rdx, rsi
  00130	e8 00 00 00 00	 call	 _PxMem_Realloc
  00135	eb 22		 jmp	 SHORT $LN2@array_resi
$LN15@array_resi:
  00137	48 63 48 04	 movsxd	 rcx, DWORD PTR [rax+4]
  0013b	48 0f af ce	 imul	 rcx, rsi
  0013f	49 3b cc	 cmp	 rcx, r12
  00142	77 2a		 ja	 SHORT $LN19@array_resi
  00144	48 85 c9	 test	 rcx, rcx
  00147	ba 01 00 00 00	 mov	 edx, 1
  0014c	48 0f 45 d1	 cmovne	 rdx, rcx
  00150	48 8b cd	 mov	 rcx, rbp
  00153	ff 15 00 00 00
	00		 call	 QWORD PTR __imp_realloc
$LN2@array_resi:

; 98   :     else
; 99   :         items = NULL;
; 100  :     if (items == NULL) {

  00159	48 85 c0	 test	 rax, rax
  0015c	74 10		 je	 SHORT $LN19@array_resi

; 103  :     }
; 104  :     self->ob_item = items;

  0015e	48 89 43 70	 mov	 QWORD PTR [rbx+112], rax

; 105  :     Py_SIZE(self) = newsize;

  00162	48 89 7b 60	 mov	 QWORD PTR [rbx+96], rdi

; 106  :     self->allocated = _new_size;

  00166	48 89 73 78	 mov	 QWORD PTR [rbx+120], rsi

; 107  :     return 0;

  0016a	33 c0		 xor	 eax, eax
  0016c	eb 08		 jmp	 SHORT $LN22@array_resi
$LN19@array_resi:

; 101  :         PyErr_NoMemory();

  0016e	e8 00 00 00 00	 call	 PyErr_NoMemory

; 102  :         return -1;

  00173	83 c8 ff	 or	 eax, -1
$LN22@array_resi:

; 108  : }

  00176	48 8b 74 24 38	 mov	 rsi, QWORD PTR [rsp+56]
  0017b	48 8b 6c 24 30	 mov	 rbp, QWORD PTR [rsp+48]
  00180	4c 8b 64 24 40	 mov	 r12, QWORD PTR [rsp+64]
  00185	48 8b 5c 24 48	 mov	 rbx, QWORD PTR [rsp+72]
  0018a	48 83 c4 20	 add	 rsp, 32			; 00000020H
  0018e	5f		 pop	 rdi
  0018f	c3		 ret	 0
array_resize ENDP
_TEXT	ENDS
EXTRN	PyLong_FromLong:PROC
; Function compile flags: /Ogtpy
;	COMDAT b_getitem
_TEXT	SEGMENT
ap$ = 8
i$ = 16
b_getitem PROC						; COMDAT

; 125  :     long x = ((char *)ap->ob_item)[i];

  00000	48 8b 41 70	 mov	 rax, QWORD PTR [rcx+112]
  00004	0f be 0c 10	 movsx	 ecx, BYTE PTR [rax+rdx]

; 126  :     if (x >= 128)

  00008	81 f9 80 00 00
	00		 cmp	 ecx, 128		; 00000080H
  0000e	7c 06		 jl	 SHORT $LN1@b_getitem

; 127  :         x -= 256;

  00010	81 e9 00 01 00
	00		 sub	 ecx, 256		; 00000100H
$LN1@b_getitem:

; 128  :     return PyLong_FromLong(x);
; 129  : }

  00016	e9 00 00 00 00	 jmp	 PyLong_FromLong
b_getitem ENDP
_TEXT	ENDS
PUBLIC	??_C@_0CE@LPIDPKAF@signed?5char?5is?5greater?5than?5maxi@ ; `string'
PUBLIC	??_C@_0CB@KFFPLEPD@signed?5char?5is?5less?5than?5minimum@ ; `string'
PUBLIC	??_C@_0BN@IIFFHIEL@h?$DLarray?5item?5must?5be?5integer?$AA@ ; `string'
EXTRN	PyExc_OverflowError:QWORD
EXTRN	_PyArg_Parse_SizeT:PROC
;	COMDAT pdata
pdata	SEGMENT
$pdata$b_setitem DD imagerel b_setitem
	DD	imagerel b_setitem+151
	DD	imagerel $unwind$b_setitem
pdata	ENDS
;	COMDAT xdata
xdata	SEGMENT
$unwind$b_setitem DD 040a01H
	DD	06340aH
	DD	07006320aH
xdata	ENDS
;	COMDAT ??_C@_0CE@LPIDPKAF@signed?5char?5is?5greater?5than?5maxi@
CONST	SEGMENT
??_C@_0CE@LPIDPKAF@signed?5char?5is?5greater?5than?5maxi@ DB 'signed char'
	DB	' is greater than maximum', 00H		; `string'
CONST	ENDS
;	COMDAT ??_C@_0CB@KFFPLEPD@signed?5char?5is?5less?5than?5minimum@
CONST	SEGMENT
??_C@_0CB@KFFPLEPD@signed?5char?5is?5less?5than?5minimum@ DB 'signed char'
	DB	' is less than minimum', 00H			; `string'
CONST	ENDS
;	COMDAT ??_C@_0BN@IIFFHIEL@h?$DLarray?5item?5must?5be?5integer?$AA@
CONST	SEGMENT
??_C@_0BN@IIFFHIEL@h?$DLarray?5item?5must?5be?5integer?$AA@ DB 'h;array i'
	DB	'tem must be integer', 00H			; `string'
; Function compile flags: /Ogtpy
CONST	ENDS
;	COMDAT b_setitem
_TEXT	SEGMENT
ap$ = 48
i$ = 56
v$ = 64
x$ = 72
b_setitem PROC						; COMDAT

; 133  : {

  00000	48 89 5c 24 08	 mov	 QWORD PTR [rsp+8], rbx
  00005	57		 push	 rdi
  00006	48 83 ec 20	 sub	 rsp, 32			; 00000020H
  0000a	49 8b c0	 mov	 rax, r8
  0000d	48 8b da	 mov	 rbx, rdx
  00010	48 8b f9	 mov	 rdi, rcx

; 134  :     short x;
; 135  :     /* PyArg_Parse's 'b' formatter is for an unsigned char, therefore
; 136  :        must use the next size up that is signed ('h') and manually do
; 137  :        the overflow checking */
; 138  :     if (!PyArg_Parse(v, "h;array item must be integer", &x))

  00013	4c 8d 44 24 48	 lea	 r8, QWORD PTR x$[rsp]
  00018	48 8d 15 00 00
	00 00		 lea	 rdx, OFFSET FLAT:??_C@_0BN@IIFFHIEL@h?$DLarray?5item?5must?5be?5integer?$AA@
  0001f	48 8b c8	 mov	 rcx, rax
  00022	e8 00 00 00 00	 call	 _PyArg_Parse_SizeT
  00027	85 c0		 test	 eax, eax

; 139  :         return -1;

  00029	74 1e		 je	 SHORT $LN9@b_setitem

; 140  :     else if (x < -128) {

  0002b	0f b7 4c 24 48	 movzx	 ecx, WORD PTR x$[rsp]
  00030	66 83 f9 80	 cmp	 cx, -128		; ffffffffffffff80H
  00034	7d 21		 jge	 SHORT $LN4@b_setitem

; 141  :         PyErr_SetString(PyExc_OverflowError,
; 142  :             "signed char is less than minimum");

  00036	48 8b 0d 00 00
	00 00		 mov	 rcx, QWORD PTR PyExc_OverflowError
  0003d	48 8d 15 00 00
	00 00		 lea	 rdx, OFFSET FLAT:??_C@_0CB@KFFPLEPD@signed?5char?5is?5less?5than?5minimum@
  00044	e8 00 00 00 00	 call	 PyErr_SetString
$LN9@b_setitem:

; 143  :         return -1;

  00049	83 c8 ff	 or	 eax, -1

; 153  : }

  0004c	48 8b 5c 24 30	 mov	 rbx, QWORD PTR [rsp+48]
  00051	48 83 c4 20	 add	 rsp, 32			; 00000020H
  00055	5f		 pop	 rdi
  00056	c3		 ret	 0
$LN4@b_setitem:

; 144  :     }
; 145  :     else if (x > 127) {

  00057	66 83 f9 7f	 cmp	 cx, 127			; 0000007fH
  0005b	7e 21		 jle	 SHORT $LN2@b_setitem

; 146  :         PyErr_SetString(PyExc_OverflowError,
; 147  :             "signed char is greater than maximum");

  0005d	48 8b 0d 00 00
	00 00		 mov	 rcx, QWORD PTR PyExc_OverflowError
  00064	48 8d 15 00 00
	00 00		 lea	 rdx, OFFSET FLAT:??_C@_0CE@LPIDPKAF@signed?5char?5is?5greater?5than?5maxi@
  0006b	e8 00 00 00 00	 call	 PyErr_SetString

; 148  :         return -1;

  00070	83 c8 ff	 or	 eax, -1

; 153  : }

  00073	48 8b 5c 24 30	 mov	 rbx, QWORD PTR [rsp+48]
  00078	48 83 c4 20	 add	 rsp, 32			; 00000020H
  0007c	5f		 pop	 rdi
  0007d	c3		 ret	 0
$LN2@b_setitem:

; 149  :     }
; 150  :     if (i >= 0)

  0007e	48 85 db	 test	 rbx, rbx
  00081	78 07		 js	 SHORT $LN1@b_setitem

; 151  :         ((char *)ap->ob_item)[i] = (char)x;

  00083	48 8b 47 70	 mov	 rax, QWORD PTR [rdi+112]
  00087	88 0c 03	 mov	 BYTE PTR [rbx+rax], cl
$LN1@b_setitem:

; 152  :     return 0;

  0008a	33 c0		 xor	 eax, eax

; 153  : }

  0008c	48 8b 5c 24 30	 mov	 rbx, QWORD PTR [rsp+48]
  00091	48 83 c4 20	 add	 rsp, 32			; 00000020H
  00095	5f		 pop	 rdi
  00096	c3		 ret	 0
b_setitem ENDP
; Function compile flags: /Ogtpy
_TEXT	ENDS
;	COMDAT BB_getitem
_TEXT	SEGMENT
ap$ = 8
i$ = 16
BB_getitem PROC						; COMDAT

; 158  :     long x = ((unsigned char *)ap->ob_item)[i];

  00000	48 8b 41 70	 mov	 rax, QWORD PTR [rcx+112]
  00004	0f b6 0c 10	 movzx	 ecx, BYTE PTR [rax+rdx]

; 159  :     return PyLong_FromLong(x);
; 160  : }

  00008	e9 00 00 00 00	 jmp	 PyLong_FromLong
BB_getitem ENDP
_TEXT	ENDS
PUBLIC	??_C@_0BN@OAIGAPKB@b?$DLarray?5item?5must?5be?5integer?$AA@ ; `string'
;	COMDAT pdata
pdata	SEGMENT
$pdata$BB_setitem DD imagerel BB_setitem
	DD	imagerel BB_setitem+87
	DD	imagerel $unwind$BB_setitem
pdata	ENDS
;	COMDAT xdata
xdata	SEGMENT
$unwind$BB_setitem DD 040a01H
	DD	06340aH
	DD	07006320aH
xdata	ENDS
;	COMDAT ??_C@_0BN@OAIGAPKB@b?$DLarray?5item?5must?5be?5integer?$AA@
CONST	SEGMENT
??_C@_0BN@OAIGAPKB@b?$DLarray?5item?5must?5be?5integer?$AA@ DB 'b;array i'
	DB	'tem must be integer', 00H			; `string'
; Function compile flags: /Ogtpy
CONST	ENDS
;	COMDAT BB_setitem
_TEXT	SEGMENT
ap$ = 48
i$ = 56
v$ = 64
x$ = 72
BB_setitem PROC						; COMDAT

; 164  : {

  00000	48 89 5c 24 08	 mov	 QWORD PTR [rsp+8], rbx
  00005	57		 push	 rdi
  00006	48 83 ec 20	 sub	 rsp, 32			; 00000020H
  0000a	49 8b c0	 mov	 rax, r8
  0000d	48 8b da	 mov	 rbx, rdx
  00010	48 8b f9	 mov	 rdi, rcx

; 165  :     unsigned char x;
; 166  :     /* 'B' == unsigned char, maps to PyArg_Parse's 'b' formatter */
; 167  :     if (!PyArg_Parse(v, "b;array item must be integer", &x))

  00013	4c 8d 44 24 48	 lea	 r8, QWORD PTR x$[rsp]
  00018	48 8d 15 00 00
	00 00		 lea	 rdx, OFFSET FLAT:??_C@_0BN@OAIGAPKB@b?$DLarray?5item?5must?5be?5integer?$AA@
  0001f	48 8b c8	 mov	 rcx, rax
  00022	e8 00 00 00 00	 call	 _PyArg_Parse_SizeT
  00027	85 c0		 test	 eax, eax
  00029	75 0e		 jne	 SHORT $LN2@BB_setitem

; 168  :         return -1;

  0002b	83 c8 ff	 or	 eax, -1

; 172  : }

  0002e	48 8b 5c 24 30	 mov	 rbx, QWORD PTR [rsp+48]
  00033	48 83 c4 20	 add	 rsp, 32			; 00000020H
  00037	5f		 pop	 rdi
  00038	c3		 ret	 0
$LN2@BB_setitem:

; 169  :     if (i >= 0)

  00039	48 85 db	 test	 rbx, rbx
  0003c	78 0c		 js	 SHORT $LN1@BB_setitem

; 170  :         ((char *)ap->ob_item)[i] = x;

  0003e	48 8b 4f 70	 mov	 rcx, QWORD PTR [rdi+112]
  00042	0f b6 44 24 48	 movzx	 eax, BYTE PTR x$[rsp]
  00047	88 04 0b	 mov	 BYTE PTR [rbx+rcx], al
$LN1@BB_setitem:

; 171  :     return 0;

  0004a	33 c0		 xor	 eax, eax

; 172  : }

  0004c	48 8b 5c 24 30	 mov	 rbx, QWORD PTR [rsp+48]
  00051	48 83 c4 20	 add	 rsp, 32			; 00000020H
  00055	5f		 pop	 rdi
  00056	c3		 ret	 0
BB_setitem ENDP
_TEXT	ENDS
EXTRN	PyUnicode_FromUnicode:PROC
; Function compile flags: /Ogtpy
;	COMDAT u_getitem
_TEXT	SEGMENT
ap$ = 8
i$ = 16
u_getitem PROC						; COMDAT

; 177  :     return PyUnicode_FromUnicode(&((Py_UNICODE *) ap->ob_item)[i], 1);

  00000	48 8b 41 70	 mov	 rax, QWORD PTR [rcx+112]
  00004	48 8d 0c 50	 lea	 rcx, QWORD PTR [rax+rdx*2]
  00008	ba 01 00 00 00	 mov	 edx, 1

; 178  : }

  0000d	e9 00 00 00 00	 jmp	 PyUnicode_FromUnicode
u_getitem ENDP
_TEXT	ENDS
PUBLIC	??_C@_0CF@JPMPNLNP@array?5item?5must?5be?5unicode?5chara@ ; `string'
PUBLIC	??_C@_0CI@MFMIOCHL@u?$CD?$DLarray?5item?5must?5be?5unicode?5ch@ ; `string'
EXTRN	PyExc_TypeError:QWORD
;	COMDAT pdata
pdata	SEGMENT
$pdata$u_setitem DD imagerel u_setitem
	DD	imagerel u_setitem+123
	DD	imagerel $unwind$u_setitem
pdata	ENDS
;	COMDAT xdata
xdata	SEGMENT
$unwind$u_setitem DD 040a01H
	DD	08340aH
	DD	07006520aH
xdata	ENDS
;	COMDAT ??_C@_0CF@JPMPNLNP@array?5item?5must?5be?5unicode?5chara@
CONST	SEGMENT
??_C@_0CF@JPMPNLNP@array?5item?5must?5be?5unicode?5chara@ DB 'array item '
	DB	'must be unicode character', 00H		; `string'
CONST	ENDS
;	COMDAT ??_C@_0CI@MFMIOCHL@u?$CD?$DLarray?5item?5must?5be?5unicode?5ch@
CONST	SEGMENT
??_C@_0CI@MFMIOCHL@u?$CD?$DLarray?5item?5must?5be?5unicode?5ch@ DB 'u#;ar'
	DB	'ray item must be unicode character', 00H	; `string'
; Function compile flags: /Ogtpy
CONST	ENDS
;	COMDAT u_setitem
_TEXT	SEGMENT
p$ = 32
ap$ = 64
i$ = 72
v$ = 80
len$ = 88
u_setitem PROC						; COMDAT

; 182  : {

  00000	48 89 5c 24 08	 mov	 QWORD PTR [rsp+8], rbx
  00005	57		 push	 rdi
  00006	48 83 ec 30	 sub	 rsp, 48			; 00000030H
  0000a	49 8b c0	 mov	 rax, r8
  0000d	48 8b da	 mov	 rbx, rdx
  00010	48 8b f9	 mov	 rdi, rcx

; 183  :     Py_UNICODE *p;
; 184  :     Py_ssize_t len;
; 185  : 
; 186  :     if (!PyArg_Parse(v, "u#;array item must be unicode character", &p, &len))

  00013	4c 8d 44 24 20	 lea	 r8, QWORD PTR p$[rsp]
  00018	48 8d 15 00 00
	00 00		 lea	 rdx, OFFSET FLAT:??_C@_0CI@MFMIOCHL@u?$CD?$DLarray?5item?5must?5be?5unicode?5ch@
  0001f	4c 8d 4c 24 58	 lea	 r9, QWORD PTR len$[rsp]
  00024	48 8b c8	 mov	 rcx, rax
  00027	e8 00 00 00 00	 call	 _PyArg_Parse_SizeT
  0002c	85 c0		 test	 eax, eax

; 187  :         return -1;

  0002e	74 1b		 je	 SHORT $LN6@u_setitem

; 188  :     if (len != 1) {

  00030	48 83 7c 24 58
	01		 cmp	 QWORD PTR len$[rsp], 1
  00036	74 21		 je	 SHORT $LN2@u_setitem

; 189  :         PyErr_SetString(PyExc_TypeError,
; 190  :                         "array item must be unicode character");

  00038	48 8b 0d 00 00
	00 00		 mov	 rcx, QWORD PTR PyExc_TypeError
  0003f	48 8d 15 00 00
	00 00		 lea	 rdx, OFFSET FLAT:??_C@_0CF@JPMPNLNP@array?5item?5must?5be?5unicode?5chara@
  00046	e8 00 00 00 00	 call	 PyErr_SetString
$LN6@u_setitem:

; 191  :         return -1;

  0004b	83 c8 ff	 or	 eax, -1

; 196  : }

  0004e	48 8b 5c 24 40	 mov	 rbx, QWORD PTR [rsp+64]
  00053	48 83 c4 30	 add	 rsp, 48			; 00000030H
  00057	5f		 pop	 rdi
  00058	c3		 ret	 0
$LN2@u_setitem:

; 192  :     }
; 193  :     if (i >= 0)

  00059	48 85 db	 test	 rbx, rbx
  0005c	78 10		 js	 SHORT $LN1@u_setitem

; 194  :         ((Py_UNICODE *)ap->ob_item)[i] = p[0];

  0005e	48 8b 44 24 20	 mov	 rax, QWORD PTR p$[rsp]
  00063	48 8b 57 70	 mov	 rdx, QWORD PTR [rdi+112]
  00067	0f b7 08	 movzx	 ecx, WORD PTR [rax]
  0006a	66 89 0c 5a	 mov	 WORD PTR [rdx+rbx*2], cx
$LN1@u_setitem:

; 195  :     return 0;

  0006e	33 c0		 xor	 eax, eax

; 196  : }

  00070	48 8b 5c 24 40	 mov	 rbx, QWORD PTR [rsp+64]
  00075	48 83 c4 30	 add	 rsp, 48			; 00000030H
  00079	5f		 pop	 rdi
  0007a	c3		 ret	 0
u_setitem ENDP
; Function compile flags: /Ogtpy
_TEXT	ENDS
;	COMDAT h_getitem
_TEXT	SEGMENT
ap$ = 8
i$ = 16
h_getitem PROC						; COMDAT

; 202  :     return PyLong_FromLong((long) ((short *)ap->ob_item)[i]);

  00000	48 8b 41 70	 mov	 rax, QWORD PTR [rcx+112]
  00004	0f bf 0c 50	 movsx	 ecx, WORD PTR [rax+rdx*2]

; 203  : }

  00008	e9 00 00 00 00	 jmp	 PyLong_FromLong
h_getitem ENDP
_TEXT	ENDS
;	COMDAT pdata
pdata	SEGMENT
$pdata$h_setitem DD imagerel h_setitem
	DD	imagerel h_setitem+88
	DD	imagerel $unwind$h_setitem
pdata	ENDS
;	COMDAT xdata
xdata	SEGMENT
$unwind$h_setitem DD 040a01H
	DD	06340aH
	DD	07006320aH
; Function compile flags: /Ogtpy
xdata	ENDS
;	COMDAT h_setitem
_TEXT	SEGMENT
ap$ = 48
i$ = 56
v$ = 64
x$ = 72
h_setitem PROC						; COMDAT

; 208  : {

  00000	48 89 5c 24 08	 mov	 QWORD PTR [rsp+8], rbx
  00005	57		 push	 rdi
  00006	48 83 ec 20	 sub	 rsp, 32			; 00000020H
  0000a	49 8b c0	 mov	 rax, r8
  0000d	48 8b da	 mov	 rbx, rdx
  00010	48 8b f9	 mov	 rdi, rcx

; 209  :     short x;
; 210  :     /* 'h' == signed short, maps to PyArg_Parse's 'h' formatter */
; 211  :     if (!PyArg_Parse(v, "h;array item must be integer", &x))

  00013	4c 8d 44 24 48	 lea	 r8, QWORD PTR x$[rsp]
  00018	48 8d 15 00 00
	00 00		 lea	 rdx, OFFSET FLAT:??_C@_0BN@IIFFHIEL@h?$DLarray?5item?5must?5be?5integer?$AA@
  0001f	48 8b c8	 mov	 rcx, rax
  00022	e8 00 00 00 00	 call	 _PyArg_Parse_SizeT
  00027	85 c0		 test	 eax, eax
  00029	75 0e		 jne	 SHORT $LN2@h_setitem

; 212  :         return -1;

  0002b	83 c8 ff	 or	 eax, -1

; 216  : }

  0002e	48 8b 5c 24 30	 mov	 rbx, QWORD PTR [rsp+48]
  00033	48 83 c4 20	 add	 rsp, 32			; 00000020H
  00037	5f		 pop	 rdi
  00038	c3		 ret	 0
$LN2@h_setitem:

; 213  :     if (i >= 0)

  00039	48 85 db	 test	 rbx, rbx
  0003c	78 0d		 js	 SHORT $LN1@h_setitem

; 214  :                  ((short *)ap->ob_item)[i] = x;

  0003e	48 8b 4f 70	 mov	 rcx, QWORD PTR [rdi+112]
  00042	0f b7 44 24 48	 movzx	 eax, WORD PTR x$[rsp]
  00047	66 89 04 59	 mov	 WORD PTR [rcx+rbx*2], ax
$LN1@h_setitem:

; 215  :     return 0;

  0004b	33 c0		 xor	 eax, eax

; 216  : }

  0004d	48 8b 5c 24 30	 mov	 rbx, QWORD PTR [rsp+48]
  00052	48 83 c4 20	 add	 rsp, 32			; 00000020H
  00056	5f		 pop	 rdi
  00057	c3		 ret	 0
h_setitem ENDP
; Function compile flags: /Ogtpy
_TEXT	ENDS
;	COMDAT HH_getitem
_TEXT	SEGMENT
ap$ = 8
i$ = 16
HH_getitem PROC						; COMDAT

; 221  :     return PyLong_FromLong((long) ((unsigned short *)ap->ob_item)[i]);

  00000	48 8b 41 70	 mov	 rax, QWORD PTR [rcx+112]
  00004	0f b7 0c 50	 movzx	 ecx, WORD PTR [rax+rdx*2]

; 222  : }

  00008	e9 00 00 00 00	 jmp	 PyLong_FromLong
HH_getitem ENDP
_TEXT	ENDS
PUBLIC	??_C@_0CH@FGIAJPNJ@unsigned?5short?5is?5greater?5than?5m@ ; `string'
PUBLIC	??_C@_0CE@KIHIKEPG@unsigned?5short?5is?5less?5than?5mini@ ; `string'
PUBLIC	??_C@_0BN@OLFCKBGP@i?$DLarray?5item?5must?5be?5integer?$AA@ ; `string'
;	COMDAT pdata
pdata	SEGMENT
$pdata$HH_setitem DD imagerel HH_setitem
	DD	imagerel HH_setitem+151
	DD	imagerel $unwind$HH_setitem
pdata	ENDS
;	COMDAT xdata
xdata	SEGMENT
$unwind$HH_setitem DD 040a01H
	DD	06340aH
	DD	07006320aH
xdata	ENDS
;	COMDAT ??_C@_0CH@FGIAJPNJ@unsigned?5short?5is?5greater?5than?5m@
CONST	SEGMENT
??_C@_0CH@FGIAJPNJ@unsigned?5short?5is?5greater?5than?5m@ DB 'unsigned sh'
	DB	'ort is greater than maximum', 00H		; `string'
CONST	ENDS
;	COMDAT ??_C@_0CE@KIHIKEPG@unsigned?5short?5is?5less?5than?5mini@
CONST	SEGMENT
??_C@_0CE@KIHIKEPG@unsigned?5short?5is?5less?5than?5mini@ DB 'unsigned sh'
	DB	'ort is less than minimum', 00H		; `string'
CONST	ENDS
;	COMDAT ??_C@_0BN@OLFCKBGP@i?$DLarray?5item?5must?5be?5integer?$AA@
CONST	SEGMENT
??_C@_0BN@OLFCKBGP@i?$DLarray?5item?5must?5be?5integer?$AA@ DB 'i;array i'
	DB	'tem must be integer', 00H			; `string'
; Function compile flags: /Ogtpy
CONST	ENDS
;	COMDAT HH_setitem
_TEXT	SEGMENT
ap$ = 48
i$ = 56
v$ = 64
x$ = 72
HH_setitem PROC						; COMDAT

; 226  : {

  00000	48 89 5c 24 08	 mov	 QWORD PTR [rsp+8], rbx
  00005	57		 push	 rdi
  00006	48 83 ec 20	 sub	 rsp, 32			; 00000020H
  0000a	49 8b c0	 mov	 rax, r8
  0000d	48 8b da	 mov	 rbx, rdx
  00010	48 8b f9	 mov	 rdi, rcx

; 227  :     int x;
; 228  :     /* PyArg_Parse's 'h' formatter is for a signed short, therefore
; 229  :        must use the next size up and manually do the overflow checking */
; 230  :     if (!PyArg_Parse(v, "i;array item must be integer", &x))

  00013	4c 8d 44 24 48	 lea	 r8, QWORD PTR x$[rsp]
  00018	48 8d 15 00 00
	00 00		 lea	 rdx, OFFSET FLAT:??_C@_0BN@OLFCKBGP@i?$DLarray?5item?5must?5be?5integer?$AA@
  0001f	48 8b c8	 mov	 rcx, rax
  00022	e8 00 00 00 00	 call	 _PyArg_Parse_SizeT
  00027	85 c0		 test	 eax, eax

; 231  :         return -1;

  00029	74 1b		 je	 SHORT $LN9@HH_setitem

; 232  :     else if (x < 0) {

  0002b	8b 4c 24 48	 mov	 ecx, DWORD PTR x$[rsp]
  0002f	85 c9		 test	 ecx, ecx
  00031	79 21		 jns	 SHORT $LN4@HH_setitem

; 233  :         PyErr_SetString(PyExc_OverflowError,
; 234  :             "unsigned short is less than minimum");

  00033	48 8b 0d 00 00
	00 00		 mov	 rcx, QWORD PTR PyExc_OverflowError
  0003a	48 8d 15 00 00
	00 00		 lea	 rdx, OFFSET FLAT:??_C@_0CE@KIHIKEPG@unsigned?5short?5is?5less?5than?5mini@
  00041	e8 00 00 00 00	 call	 PyErr_SetString
$LN9@HH_setitem:

; 235  :         return -1;

  00046	83 c8 ff	 or	 eax, -1

; 245  : }

  00049	48 8b 5c 24 30	 mov	 rbx, QWORD PTR [rsp+48]
  0004e	48 83 c4 20	 add	 rsp, 32			; 00000020H
  00052	5f		 pop	 rdi
  00053	c3		 ret	 0
$LN4@HH_setitem:

; 236  :     }
; 237  :     else if (x > USHRT_MAX) {

  00054	81 f9 ff ff 00
	00		 cmp	 ecx, 65535		; 0000ffffH
  0005a	7e 21		 jle	 SHORT $LN2@HH_setitem

; 238  :         PyErr_SetString(PyExc_OverflowError,
; 239  :             "unsigned short is greater than maximum");

  0005c	48 8b 0d 00 00
	00 00		 mov	 rcx, QWORD PTR PyExc_OverflowError
  00063	48 8d 15 00 00
	00 00		 lea	 rdx, OFFSET FLAT:??_C@_0CH@FGIAJPNJ@unsigned?5short?5is?5greater?5than?5m@
  0006a	e8 00 00 00 00	 call	 PyErr_SetString

; 240  :         return -1;

  0006f	83 c8 ff	 or	 eax, -1

; 245  : }

  00072	48 8b 5c 24 30	 mov	 rbx, QWORD PTR [rsp+48]
  00077	48 83 c4 20	 add	 rsp, 32			; 00000020H
  0007b	5f		 pop	 rdi
  0007c	c3		 ret	 0
$LN2@HH_setitem:

; 241  :     }
; 242  :     if (i >= 0)

  0007d	48 85 db	 test	 rbx, rbx
  00080	78 08		 js	 SHORT $LN1@HH_setitem

; 243  :         ((short *)ap->ob_item)[i] = (short)x;

  00082	48 8b 47 70	 mov	 rax, QWORD PTR [rdi+112]
  00086	66 89 0c 58	 mov	 WORD PTR [rax+rbx*2], cx
$LN1@HH_setitem:

; 244  :     return 0;

  0008a	33 c0		 xor	 eax, eax

; 245  : }

  0008c	48 8b 5c 24 30	 mov	 rbx, QWORD PTR [rsp+48]
  00091	48 83 c4 20	 add	 rsp, 32			; 00000020H
  00095	5f		 pop	 rdi
  00096	c3		 ret	 0
HH_setitem ENDP
; Function compile flags: /Ogtpy
_TEXT	ENDS
;	COMDAT i_getitem
_TEXT	SEGMENT
ap$ = 8
i$ = 16
i_getitem PROC						; COMDAT

; 250  :     return PyLong_FromLong((long) ((int *)ap->ob_item)[i]);

  00000	48 8b 41 70	 mov	 rax, QWORD PTR [rcx+112]
  00004	8b 0c 90	 mov	 ecx, DWORD PTR [rax+rdx*4]

; 251  : }

  00007	e9 00 00 00 00	 jmp	 PyLong_FromLong
i_getitem ENDP
_TEXT	ENDS
;	COMDAT pdata
pdata	SEGMENT
$pdata$i_setitem DD imagerel i_setitem
	DD	imagerel i_setitem+86
	DD	imagerel $unwind$i_setitem
pdata	ENDS
;	COMDAT xdata
xdata	SEGMENT
$unwind$i_setitem DD 040a01H
	DD	06340aH
	DD	07006320aH
; Function compile flags: /Ogtpy
xdata	ENDS
;	COMDAT i_setitem
_TEXT	SEGMENT
ap$ = 48
i$ = 56
v$ = 64
x$ = 72
i_setitem PROC						; COMDAT

; 255  : {

  00000	48 89 5c 24 08	 mov	 QWORD PTR [rsp+8], rbx
  00005	57		 push	 rdi
  00006	48 83 ec 20	 sub	 rsp, 32			; 00000020H
  0000a	49 8b c0	 mov	 rax, r8
  0000d	48 8b da	 mov	 rbx, rdx
  00010	48 8b f9	 mov	 rdi, rcx

; 256  :     int x;
; 257  :     /* 'i' == signed int, maps to PyArg_Parse's 'i' formatter */
; 258  :     if (!PyArg_Parse(v, "i;array item must be integer", &x))

  00013	4c 8d 44 24 48	 lea	 r8, QWORD PTR x$[rsp]
  00018	48 8d 15 00 00
	00 00		 lea	 rdx, OFFSET FLAT:??_C@_0BN@OLFCKBGP@i?$DLarray?5item?5must?5be?5integer?$AA@
  0001f	48 8b c8	 mov	 rcx, rax
  00022	e8 00 00 00 00	 call	 _PyArg_Parse_SizeT
  00027	85 c0		 test	 eax, eax
  00029	75 0e		 jne	 SHORT $LN2@i_setitem

; 259  :         return -1;

  0002b	83 c8 ff	 or	 eax, -1

; 263  : }

  0002e	48 8b 5c 24 30	 mov	 rbx, QWORD PTR [rsp+48]
  00033	48 83 c4 20	 add	 rsp, 32			; 00000020H
  00037	5f		 pop	 rdi
  00038	c3		 ret	 0
$LN2@i_setitem:

; 260  :     if (i >= 0)

  00039	48 85 db	 test	 rbx, rbx
  0003c	78 0b		 js	 SHORT $LN1@i_setitem

; 261  :                  ((int *)ap->ob_item)[i] = x;

  0003e	48 8b 4f 70	 mov	 rcx, QWORD PTR [rdi+112]
  00042	8b 44 24 48	 mov	 eax, DWORD PTR x$[rsp]
  00046	89 04 99	 mov	 DWORD PTR [rcx+rbx*4], eax
$LN1@i_setitem:

; 262  :     return 0;

  00049	33 c0		 xor	 eax, eax

; 263  : }

  0004b	48 8b 5c 24 30	 mov	 rbx, QWORD PTR [rsp+48]
  00050	48 83 c4 20	 add	 rsp, 32			; 00000020H
  00054	5f		 pop	 rdi
  00055	c3		 ret	 0
i_setitem ENDP
_TEXT	ENDS
EXTRN	PyLong_FromUnsignedLong:PROC
; Function compile flags: /Ogtpy
;	COMDAT II_getitem
_TEXT	SEGMENT
ap$ = 8
i$ = 16
II_getitem PROC						; COMDAT

; 268  :     return PyLong_FromUnsignedLong(
; 269  :         (unsigned long) ((unsigned int *)ap->ob_item)[i]);

  00000	48 8b 41 70	 mov	 rax, QWORD PTR [rcx+112]
  00004	8b 0c 90	 mov	 ecx, DWORD PTR [rax+rdx*4]

; 270  : }

  00007	e9 00 00 00 00	 jmp	 PyLong_FromUnsignedLong
II_getitem ENDP
_TEXT	ENDS
PUBLIC	??_C@_0CF@FJOCEHKO@unsigned?5int?5is?5greater?5than?5max@ ; `string'
PUBLIC	??_C@_0CC@EPGGIEKN@unsigned?5int?5is?5less?5than?5minimu@ ; `string'
PUBLIC	??_C@_0BN@NPDLBKJK@l?$DLarray?5item?5must?5be?5integer?$AA@ ; `string'
EXTRN	PyErr_Occurred:PROC
EXTRN	PyLong_AsUnsignedLong:PROC
;	COMDAT pdata
pdata	SEGMENT
$pdata$II_setitem DD imagerel II_setitem
	DD	imagerel II_setitem+231
	DD	imagerel $unwind$II_setitem
pdata	ENDS
;	COMDAT xdata
xdata	SEGMENT
$unwind$II_setitem DD 060f01H
	DD	07640fH
	DD	06340fH
	DD	0700b320fH
xdata	ENDS
;	COMDAT ??_C@_0CF@FJOCEHKO@unsigned?5int?5is?5greater?5than?5max@
CONST	SEGMENT
??_C@_0CF@FJOCEHKO@unsigned?5int?5is?5greater?5than?5max@ DB 'unsigned in'
	DB	't is greater than maximum', 00H		; `string'
CONST	ENDS
;	COMDAT ??_C@_0CC@EPGGIEKN@unsigned?5int?5is?5less?5than?5minimu@
CONST	SEGMENT
??_C@_0CC@EPGGIEKN@unsigned?5int?5is?5less?5than?5minimu@ DB 'unsigned in'
	DB	't is less than minimum', 00H		; `string'
CONST	ENDS
;	COMDAT ??_C@_0BN@NPDLBKJK@l?$DLarray?5item?5must?5be?5integer?$AA@
CONST	SEGMENT
??_C@_0BN@NPDLBKJK@l?$DLarray?5item?5must?5be?5integer?$AA@ DB 'l;array i'
	DB	'tem must be integer', 00H			; `string'
; Function compile flags: /Ogtpy
CONST	ENDS
;	COMDAT II_setitem
_TEXT	SEGMENT
ap$ = 48
i$ = 56
y$20449 = 64
v$ = 64
II_setitem PROC						; COMDAT

; 274  : {

  00000	48 89 5c 24 08	 mov	 QWORD PTR [rsp+8], rbx
  00005	48 89 74 24 10	 mov	 QWORD PTR [rsp+16], rsi
  0000a	57		 push	 rdi
  0000b	48 83 ec 20	 sub	 rsp, 32			; 00000020H

; 275  :     unsigned long x;
; 276  :     if (PyLong_Check(v)) {

  0000f	49 8b 40 58	 mov	 rax, QWORD PTR [r8+88]
  00013	4d 8b c8	 mov	 r9, r8
  00016	48 8b fa	 mov	 rdi, rdx
  00019	f7 80 00 01 00
	00 00 00 00 01	 test	 DWORD PTR [rax+256], 16777216 ; 01000000H
  00023	48 8b f1	 mov	 rsi, rcx
  00026	74 30		 je	 SHORT $LN7@II_setitem@2

; 277  :         x = PyLong_AsUnsignedLong(v);

  00028	49 8b c8	 mov	 rcx, r8
  0002b	e8 00 00 00 00	 call	 PyLong_AsUnsignedLong
  00030	8b d8		 mov	 ebx, eax

; 278  :         if (x == (unsigned long) -1 && PyErr_Occurred())

  00032	83 f8 ff	 cmp	 eax, -1			; ffffffffH
  00035	75 67		 jne	 SHORT $LN3@II_setitem@2
  00037	e8 00 00 00 00	 call	 PyErr_Occurred
  0003c	48 85 c0	 test	 rax, rax
  0003f	0f 84 84 00 00
	00		 je	 $LN2@II_setitem@2
$LN10@II_setitem@2:

; 279  :             return -1;

  00045	83 c8 ff	 or	 eax, -1

; 301  :     return 0;
; 302  : }

  00048	48 8b 5c 24 30	 mov	 rbx, QWORD PTR [rsp+48]
  0004d	48 8b 74 24 38	 mov	 rsi, QWORD PTR [rsp+56]
  00052	48 83 c4 20	 add	 rsp, 32			; 00000020H
  00056	5f		 pop	 rdi
  00057	c3		 ret	 0
$LN7@II_setitem@2:

; 280  :     }
; 281  :     else {
; 282  :         long y;
; 283  :         if (!PyArg_Parse(v, "l;array item must be integer", &y))

  00058	4c 8d 44 24 40	 lea	 r8, QWORD PTR y$20449[rsp]
  0005d	48 8d 15 00 00
	00 00		 lea	 rdx, OFFSET FLAT:??_C@_0BN@NPDLBKJK@l?$DLarray?5item?5must?5be?5integer?$AA@
  00064	49 8b c9	 mov	 rcx, r9
  00067	e8 00 00 00 00	 call	 _PyArg_Parse_SizeT
  0006c	85 c0		 test	 eax, eax

; 284  :             return -1;

  0006e	74 d5		 je	 SHORT $LN10@II_setitem@2

; 285  :         if (y < 0) {

  00070	8b 5c 24 40	 mov	 ebx, DWORD PTR y$20449[rsp]
  00074	85 db		 test	 ebx, ebx
  00076	79 26		 jns	 SHORT $LN3@II_setitem@2

; 286  :             PyErr_SetString(PyExc_OverflowError,
; 287  :                 "unsigned int is less than minimum");

  00078	48 8b 0d 00 00
	00 00		 mov	 rcx, QWORD PTR PyExc_OverflowError
  0007f	48 8d 15 00 00
	00 00		 lea	 rdx, OFFSET FLAT:??_C@_0CC@EPGGIEKN@unsigned?5int?5is?5less?5than?5minimu@
  00086	e8 00 00 00 00	 call	 PyErr_SetString

; 288  :             return -1;

  0008b	83 c8 ff	 or	 eax, -1

; 301  :     return 0;
; 302  : }

  0008e	48 8b 5c 24 30	 mov	 rbx, QWORD PTR [rsp+48]
  00093	48 8b 74 24 38	 mov	 rsi, QWORD PTR [rsp+56]
  00098	48 83 c4 20	 add	 rsp, 32			; 00000020H
  0009c	5f		 pop	 rdi
  0009d	c3		 ret	 0
$LN3@II_setitem@2:

; 289  :         }
; 290  :         x = (unsigned long)y;
; 291  : 
; 292  :     }
; 293  :     if (x > UINT_MAX) {

  0009e	83 fb ff	 cmp	 ebx, -1			; ffffffffH
  000a1	76 26		 jbe	 SHORT $LN2@II_setitem@2

; 294  :         PyErr_SetString(PyExc_OverflowError,
; 295  :             "unsigned int is greater than maximum");

  000a3	48 8b 0d 00 00
	00 00		 mov	 rcx, QWORD PTR PyExc_OverflowError
  000aa	48 8d 15 00 00
	00 00		 lea	 rdx, OFFSET FLAT:??_C@_0CF@FJOCEHKO@unsigned?5int?5is?5greater?5than?5max@
  000b1	e8 00 00 00 00	 call	 PyErr_SetString

; 296  :         return -1;

  000b6	83 c8 ff	 or	 eax, -1

; 301  :     return 0;
; 302  : }

  000b9	48 8b 5c 24 30	 mov	 rbx, QWORD PTR [rsp+48]
  000be	48 8b 74 24 38	 mov	 rsi, QWORD PTR [rsp+56]
  000c3	48 83 c4 20	 add	 rsp, 32			; 00000020H
  000c7	5f		 pop	 rdi
  000c8	c3		 ret	 0
$LN2@II_setitem@2:

; 297  :     }
; 298  : 
; 299  :     if (i >= 0)

  000c9	48 85 ff	 test	 rdi, rdi
  000cc	78 07		 js	 SHORT $LN1@II_setitem@2

; 300  :         ((unsigned int *)ap->ob_item)[i] = (unsigned int)x;

  000ce	48 8b 46 70	 mov	 rax, QWORD PTR [rsi+112]
  000d2	89 1c b8	 mov	 DWORD PTR [rax+rdi*4], ebx
$LN1@II_setitem@2:

; 301  :     return 0;
; 302  : }

  000d5	48 8b 5c 24 30	 mov	 rbx, QWORD PTR [rsp+48]
  000da	48 8b 74 24 38	 mov	 rsi, QWORD PTR [rsp+56]
  000df	33 c0		 xor	 eax, eax
  000e1	48 83 c4 20	 add	 rsp, 32			; 00000020H
  000e5	5f		 pop	 rdi
  000e6	c3		 ret	 0
II_setitem ENDP
; Function compile flags: /Ogtpy
_TEXT	ENDS
;	COMDAT l_getitem
_TEXT	SEGMENT
ap$ = 8
i$ = 16
l_getitem PROC						; COMDAT

; 307  :     return PyLong_FromLong(((long *)ap->ob_item)[i]);

  00000	48 8b 41 70	 mov	 rax, QWORD PTR [rcx+112]
  00004	8b 0c 90	 mov	 ecx, DWORD PTR [rax+rdx*4]

; 308  : }

  00007	e9 00 00 00 00	 jmp	 PyLong_FromLong
l_getitem ENDP
_TEXT	ENDS
;	COMDAT pdata
pdata	SEGMENT
$pdata$l_setitem DD imagerel l_setitem
	DD	imagerel l_setitem+86
	DD	imagerel $unwind$l_setitem
pdata	ENDS
;	COMDAT xdata
xdata	SEGMENT
$unwind$l_setitem DD 040a01H
	DD	06340aH
	DD	07006320aH
; Function compile flags: /Ogtpy
xdata	ENDS
;	COMDAT l_setitem
_TEXT	SEGMENT
ap$ = 48
i$ = 56
v$ = 64
x$ = 72
l_setitem PROC						; COMDAT

; 312  : {

  00000	48 89 5c 24 08	 mov	 QWORD PTR [rsp+8], rbx
  00005	57		 push	 rdi
  00006	48 83 ec 20	 sub	 rsp, 32			; 00000020H
  0000a	49 8b c0	 mov	 rax, r8
  0000d	48 8b da	 mov	 rbx, rdx
  00010	48 8b f9	 mov	 rdi, rcx

; 313  :     long x;
; 314  :     if (!PyArg_Parse(v, "l;array item must be integer", &x))

  00013	4c 8d 44 24 48	 lea	 r8, QWORD PTR x$[rsp]
  00018	48 8d 15 00 00
	00 00		 lea	 rdx, OFFSET FLAT:??_C@_0BN@NPDLBKJK@l?$DLarray?5item?5must?5be?5integer?$AA@
  0001f	48 8b c8	 mov	 rcx, rax
  00022	e8 00 00 00 00	 call	 _PyArg_Parse_SizeT
  00027	85 c0		 test	 eax, eax
  00029	75 0e		 jne	 SHORT $LN2@l_setitem

; 315  :         return -1;

  0002b	83 c8 ff	 or	 eax, -1

; 319  : }

  0002e	48 8b 5c 24 30	 mov	 rbx, QWORD PTR [rsp+48]
  00033	48 83 c4 20	 add	 rsp, 32			; 00000020H
  00037	5f		 pop	 rdi
  00038	c3		 ret	 0
$LN2@l_setitem:

; 316  :     if (i >= 0)

  00039	48 85 db	 test	 rbx, rbx
  0003c	78 0b		 js	 SHORT $LN1@l_setitem

; 317  :                  ((long *)ap->ob_item)[i] = x;

  0003e	48 8b 4f 70	 mov	 rcx, QWORD PTR [rdi+112]
  00042	8b 44 24 48	 mov	 eax, DWORD PTR x$[rsp]
  00046	89 04 99	 mov	 DWORD PTR [rcx+rbx*4], eax
$LN1@l_setitem:

; 318  :     return 0;

  00049	33 c0		 xor	 eax, eax

; 319  : }

  0004b	48 8b 5c 24 30	 mov	 rbx, QWORD PTR [rsp+48]
  00050	48 83 c4 20	 add	 rsp, 32			; 00000020H
  00054	5f		 pop	 rdi
  00055	c3		 ret	 0
l_setitem ENDP
; Function compile flags: /Ogtpy
_TEXT	ENDS
;	COMDAT LL_getitem
_TEXT	SEGMENT
ap$ = 8
i$ = 16
LL_getitem PROC						; COMDAT

; 324  :     return PyLong_FromUnsignedLong(((unsigned long *)ap->ob_item)[i]);

  00000	48 8b 41 70	 mov	 rax, QWORD PTR [rcx+112]
  00004	8b 0c 90	 mov	 ecx, DWORD PTR [rax+rdx*4]

; 325  : }

  00007	e9 00 00 00 00	 jmp	 PyLong_FromUnsignedLong
LL_getitem ENDP
_TEXT	ENDS
PUBLIC	??_C@_0CG@PFKJNNEL@unsigned?5long?5is?5greater?5than?5ma@ ; `string'
PUBLIC	??_C@_0CD@GGGBBGOM@unsigned?5long?5is?5less?5than?5minim@ ; `string'
;	COMDAT pdata
pdata	SEGMENT
$pdata$LL_setitem DD imagerel LL_setitem
	DD	imagerel LL_setitem+231
	DD	imagerel $unwind$LL_setitem
pdata	ENDS
;	COMDAT xdata
xdata	SEGMENT
$unwind$LL_setitem DD 060f01H
	DD	07640fH
	DD	06340fH
	DD	0700b320fH
xdata	ENDS
;	COMDAT ??_C@_0CG@PFKJNNEL@unsigned?5long?5is?5greater?5than?5ma@
CONST	SEGMENT
??_C@_0CG@PFKJNNEL@unsigned?5long?5is?5greater?5than?5ma@ DB 'unsigned lo'
	DB	'ng is greater than maximum', 00H		; `string'
CONST	ENDS
;	COMDAT ??_C@_0CD@GGGBBGOM@unsigned?5long?5is?5less?5than?5minim@
CONST	SEGMENT
??_C@_0CD@GGGBBGOM@unsigned?5long?5is?5less?5than?5minim@ DB 'unsigned lo'
	DB	'ng is less than minimum', 00H		; `string'
; Function compile flags: /Ogtpy
CONST	ENDS
;	COMDAT LL_setitem
_TEXT	SEGMENT
ap$ = 48
i$ = 56
y$20500 = 64
v$ = 64
LL_setitem PROC						; COMDAT

; 329  : {

  00000	48 89 5c 24 08	 mov	 QWORD PTR [rsp+8], rbx
  00005	48 89 74 24 10	 mov	 QWORD PTR [rsp+16], rsi
  0000a	57		 push	 rdi
  0000b	48 83 ec 20	 sub	 rsp, 32			; 00000020H

; 330  :     unsigned long x;
; 331  :     if (PyLong_Check(v)) {

  0000f	49 8b 40 58	 mov	 rax, QWORD PTR [r8+88]
  00013	4d 8b c8	 mov	 r9, r8
  00016	48 8b fa	 mov	 rdi, rdx
  00019	f7 80 00 01 00
	00 00 00 00 01	 test	 DWORD PTR [rax+256], 16777216 ; 01000000H
  00023	48 8b f1	 mov	 rsi, rcx
  00026	74 30		 je	 SHORT $LN7@LL_setitem@3

; 332  :         x = PyLong_AsUnsignedLong(v);

  00028	49 8b c8	 mov	 rcx, r8
  0002b	e8 00 00 00 00	 call	 PyLong_AsUnsignedLong
  00030	8b d8		 mov	 ebx, eax

; 333  :         if (x == (unsigned long) -1 && PyErr_Occurred())

  00032	83 f8 ff	 cmp	 eax, -1			; ffffffffH
  00035	75 67		 jne	 SHORT $LN3@LL_setitem@3
  00037	e8 00 00 00 00	 call	 PyErr_Occurred
  0003c	48 85 c0	 test	 rax, rax
  0003f	0f 84 84 00 00
	00		 je	 $LN2@LL_setitem@3
$LN10@LL_setitem@3:

; 334  :             return -1;

  00045	83 c8 ff	 or	 eax, -1

; 356  :     return 0;
; 357  : }

  00048	48 8b 5c 24 30	 mov	 rbx, QWORD PTR [rsp+48]
  0004d	48 8b 74 24 38	 mov	 rsi, QWORD PTR [rsp+56]
  00052	48 83 c4 20	 add	 rsp, 32			; 00000020H
  00056	5f		 pop	 rdi
  00057	c3		 ret	 0
$LN7@LL_setitem@3:

; 335  :     }
; 336  :     else {
; 337  :         long y;
; 338  :         if (!PyArg_Parse(v, "l;array item must be integer", &y))

  00058	4c 8d 44 24 40	 lea	 r8, QWORD PTR y$20500[rsp]
  0005d	48 8d 15 00 00
	00 00		 lea	 rdx, OFFSET FLAT:??_C@_0BN@NPDLBKJK@l?$DLarray?5item?5must?5be?5integer?$AA@
  00064	49 8b c9	 mov	 rcx, r9
  00067	e8 00 00 00 00	 call	 _PyArg_Parse_SizeT
  0006c	85 c0		 test	 eax, eax

; 339  :             return -1;

  0006e	74 d5		 je	 SHORT $LN10@LL_setitem@3

; 340  :         if (y < 0) {

  00070	8b 5c 24 40	 mov	 ebx, DWORD PTR y$20500[rsp]
  00074	85 db		 test	 ebx, ebx
  00076	79 26		 jns	 SHORT $LN3@LL_setitem@3

; 341  :             PyErr_SetString(PyExc_OverflowError,
; 342  :                 "unsigned long is less than minimum");

  00078	48 8b 0d 00 00
	00 00		 mov	 rcx, QWORD PTR PyExc_OverflowError
  0007f	48 8d 15 00 00
	00 00		 lea	 rdx, OFFSET FLAT:??_C@_0CD@GGGBBGOM@unsigned?5long?5is?5less?5than?5minim@
  00086	e8 00 00 00 00	 call	 PyErr_SetString

; 343  :             return -1;

  0008b	83 c8 ff	 or	 eax, -1

; 356  :     return 0;
; 357  : }

  0008e	48 8b 5c 24 30	 mov	 rbx, QWORD PTR [rsp+48]
  00093	48 8b 74 24 38	 mov	 rsi, QWORD PTR [rsp+56]
  00098	48 83 c4 20	 add	 rsp, 32			; 00000020H
  0009c	5f		 pop	 rdi
  0009d	c3		 ret	 0
$LN3@LL_setitem@3:

; 344  :         }
; 345  :         x = (unsigned long)y;
; 346  : 
; 347  :     }
; 348  :     if (x > ULONG_MAX) {

  0009e	83 fb ff	 cmp	 ebx, -1			; ffffffffH
  000a1	76 26		 jbe	 SHORT $LN2@LL_setitem@3

; 349  :         PyErr_SetString(PyExc_OverflowError,
; 350  :             "unsigned long is greater than maximum");

  000a3	48 8b 0d 00 00
	00 00		 mov	 rcx, QWORD PTR PyExc_OverflowError
  000aa	48 8d 15 00 00
	00 00		 lea	 rdx, OFFSET FLAT:??_C@_0CG@PFKJNNEL@unsigned?5long?5is?5greater?5than?5ma@
  000b1	e8 00 00 00 00	 call	 PyErr_SetString

; 351  :         return -1;

  000b6	83 c8 ff	 or	 eax, -1

; 356  :     return 0;
; 357  : }

  000b9	48 8b 5c 24 30	 mov	 rbx, QWORD PTR [rsp+48]
  000be	48 8b 74 24 38	 mov	 rsi, QWORD PTR [rsp+56]
  000c3	48 83 c4 20	 add	 rsp, 32			; 00000020H
  000c7	5f		 pop	 rdi
  000c8	c3		 ret	 0
$LN2@LL_setitem@3:

; 352  :     }
; 353  : 
; 354  :     if (i >= 0)

  000c9	48 85 ff	 test	 rdi, rdi
  000cc	78 07		 js	 SHORT $LN1@LL_setitem@3

; 355  :         ((unsigned long *)ap->ob_item)[i] = x;

  000ce	48 8b 46 70	 mov	 rax, QWORD PTR [rsi+112]
  000d2	89 1c b8	 mov	 DWORD PTR [rax+rdi*4], ebx
$LN1@LL_setitem@3:

; 356  :     return 0;
; 357  : }

  000d5	48 8b 5c 24 30	 mov	 rbx, QWORD PTR [rsp+48]
  000da	48 8b 74 24 38	 mov	 rsi, QWORD PTR [rsp+56]
  000df	33 c0		 xor	 eax, eax
  000e1	48 83 c4 20	 add	 rsp, 32			; 00000020H
  000e5	5f		 pop	 rdi
  000e6	c3		 ret	 0
LL_setitem ENDP
_TEXT	ENDS
EXTRN	PyLong_FromLongLong:PROC
; Function compile flags: /Ogtpy
;	COMDAT q_getitem
_TEXT	SEGMENT
ap$ = 8
i$ = 16
q_getitem PROC						; COMDAT

; 364  :     return PyLong_FromLongLong(((PY_LONG_LONG *)ap->ob_item)[i]);

  00000	48 8b 49 70	 mov	 rcx, QWORD PTR [rcx+112]
  00004	48 8b 0c d1	 mov	 rcx, QWORD PTR [rcx+rdx*8]

; 365  : }

  00008	e9 00 00 00 00	 jmp	 PyLong_FromLongLong
q_getitem ENDP
_TEXT	ENDS
PUBLIC	??_C@_0BN@JNLAGNB@L?$DLarray?5item?5must?5be?5integer?$AA@ ; `string'
;	COMDAT pdata
pdata	SEGMENT
$pdata$q_setitem DD imagerel q_setitem
	DD	imagerel q_setitem+88
	DD	imagerel $unwind$q_setitem
pdata	ENDS
;	COMDAT xdata
xdata	SEGMENT
$unwind$q_setitem DD 040a01H
	DD	06340aH
	DD	07006320aH
xdata	ENDS
;	COMDAT ??_C@_0BN@JNLAGNB@L?$DLarray?5item?5must?5be?5integer?$AA@
CONST	SEGMENT
??_C@_0BN@JNLAGNB@L?$DLarray?5item?5must?5be?5integer?$AA@ DB 'L;array it'
	DB	'em must be integer', 00H			; `string'
; Function compile flags: /Ogtpy
CONST	ENDS
;	COMDAT q_setitem
_TEXT	SEGMENT
ap$ = 48
i$ = 56
v$ = 64
x$ = 72
q_setitem PROC						; COMDAT

; 369  : {

  00000	48 89 5c 24 08	 mov	 QWORD PTR [rsp+8], rbx
  00005	57		 push	 rdi
  00006	48 83 ec 20	 sub	 rsp, 32			; 00000020H
  0000a	49 8b c0	 mov	 rax, r8
  0000d	48 8b da	 mov	 rbx, rdx
  00010	48 8b f9	 mov	 rdi, rcx

; 370  :     PY_LONG_LONG x;
; 371  :     if (!PyArg_Parse(v, "L;array item must be integer", &x))

  00013	4c 8d 44 24 48	 lea	 r8, QWORD PTR x$[rsp]
  00018	48 8d 15 00 00
	00 00		 lea	 rdx, OFFSET FLAT:??_C@_0BN@JNLAGNB@L?$DLarray?5item?5must?5be?5integer?$AA@
  0001f	48 8b c8	 mov	 rcx, rax
  00022	e8 00 00 00 00	 call	 _PyArg_Parse_SizeT
  00027	85 c0		 test	 eax, eax
  00029	75 0e		 jne	 SHORT $LN2@q_setitem

; 372  :         return -1;

  0002b	83 c8 ff	 or	 eax, -1

; 376  : }

  0002e	48 8b 5c 24 30	 mov	 rbx, QWORD PTR [rsp+48]
  00033	48 83 c4 20	 add	 rsp, 32			; 00000020H
  00037	5f		 pop	 rdi
  00038	c3		 ret	 0
$LN2@q_setitem:

; 373  :     if (i >= 0)

  00039	48 85 db	 test	 rbx, rbx
  0003c	78 0d		 js	 SHORT $LN1@q_setitem

; 374  :         ((PY_LONG_LONG *)ap->ob_item)[i] = x;

  0003e	48 8b 4f 70	 mov	 rcx, QWORD PTR [rdi+112]
  00042	48 8b 44 24 48	 mov	 rax, QWORD PTR x$[rsp]
  00047	48 89 04 d9	 mov	 QWORD PTR [rcx+rbx*8], rax
$LN1@q_setitem:

; 375  :     return 0;

  0004b	33 c0		 xor	 eax, eax

; 376  : }

  0004d	48 8b 5c 24 30	 mov	 rbx, QWORD PTR [rsp+48]
  00052	48 83 c4 20	 add	 rsp, 32			; 00000020H
  00056	5f		 pop	 rdi
  00057	c3		 ret	 0
q_setitem ENDP
_TEXT	ENDS
EXTRN	PyLong_FromUnsignedLongLong:PROC
; Function compile flags: /Ogtpy
;	COMDAT QQ_getitem
_TEXT	SEGMENT
ap$ = 8
i$ = 16
QQ_getitem PROC						; COMDAT

; 381  :     return PyLong_FromUnsignedLongLong(
; 382  :         ((unsigned PY_LONG_LONG *)ap->ob_item)[i]);

  00000	48 8b 49 70	 mov	 rcx, QWORD PTR [rcx+112]
  00004	48 8b 0c d1	 mov	 rcx, QWORD PTR [rcx+rdx*8]

; 383  : }

  00008	e9 00 00 00 00	 jmp	 PyLong_FromUnsignedLongLong
QQ_getitem ENDP
_TEXT	ENDS
PUBLIC	??_C@_0CI@CLOIAIHO@unsigned?5long?5long?5is?5less?5than?5@ ; `string'
EXTRN	PyLong_AsUnsignedLongLong:PROC
;	COMDAT pdata
pdata	SEGMENT
$pdata$QQ_setitem DD imagerel QQ_setitem
	DD	imagerel QQ_setitem+189
	DD	imagerel $unwind$QQ_setitem
pdata	ENDS
;	COMDAT xdata
xdata	SEGMENT
$unwind$QQ_setitem DD 060f01H
	DD	07640fH
	DD	06340fH
	DD	0700b320fH
xdata	ENDS
;	COMDAT ??_C@_0CI@CLOIAIHO@unsigned?5long?5long?5is?5less?5than?5@
CONST	SEGMENT
??_C@_0CI@CLOIAIHO@unsigned?5long?5long?5is?5less?5than?5@ DB 'unsigned l'
	DB	'ong long is less than minimum', 00H		; `string'
; Function compile flags: /Ogtpy
CONST	ENDS
;	COMDAT QQ_setitem
_TEXT	SEGMENT
ap$ = 48
i$ = 56
y$20550 = 64
v$ = 64
QQ_setitem PROC						; COMDAT

; 387  : {

  00000	48 89 5c 24 08	 mov	 QWORD PTR [rsp+8], rbx
  00005	48 89 74 24 10	 mov	 QWORD PTR [rsp+16], rsi
  0000a	57		 push	 rdi
  0000b	48 83 ec 20	 sub	 rsp, 32			; 00000020H

; 388  :     unsigned PY_LONG_LONG x;
; 389  :     if (PyLong_Check(v)) {

  0000f	49 8b 40 58	 mov	 rax, QWORD PTR [r8+88]
  00013	4d 8b c8	 mov	 r9, r8
  00016	48 8b fa	 mov	 rdi, rdx
  00019	f7 80 00 01 00
	00 00 00 00 01	 test	 DWORD PTR [rax+256], 16777216 ; 01000000H
  00023	48 8b f1	 mov	 rsi, rcx
  00026	74 2e		 je	 SHORT $LN6@QQ_setitem@2

; 390  :         x = PyLong_AsUnsignedLongLong(v);

  00028	49 8b c8	 mov	 rcx, r8
  0002b	e8 00 00 00 00	 call	 PyLong_AsUnsignedLongLong
  00030	48 8b d8	 mov	 rbx, rax

; 391  :         if (x == (unsigned PY_LONG_LONG) -1 && PyErr_Occurred())

  00033	48 83 f8 ff	 cmp	 rax, -1
  00037	75 65		 jne	 SHORT $LN2@QQ_setitem@2
  00039	e8 00 00 00 00	 call	 PyErr_Occurred
  0003e	48 85 c0	 test	 rax, rax
  00041	74 5b		 je	 SHORT $LN2@QQ_setitem@2
$LN9@QQ_setitem@2:

; 392  :             return -1;

  00043	83 c8 ff	 or	 eax, -1

; 408  :     return 0;
; 409  : }

  00046	48 8b 5c 24 30	 mov	 rbx, QWORD PTR [rsp+48]
  0004b	48 8b 74 24 38	 mov	 rsi, QWORD PTR [rsp+56]
  00050	48 83 c4 20	 add	 rsp, 32			; 00000020H
  00054	5f		 pop	 rdi
  00055	c3		 ret	 0
$LN6@QQ_setitem@2:

; 393  :     }
; 394  :     else {
; 395  :         PY_LONG_LONG y;
; 396  :         if (!PyArg_Parse(v, "L;array item must be integer", &y))

  00056	4c 8d 44 24 40	 lea	 r8, QWORD PTR y$20550[rsp]
  0005b	48 8d 15 00 00
	00 00		 lea	 rdx, OFFSET FLAT:??_C@_0BN@JNLAGNB@L?$DLarray?5item?5must?5be?5integer?$AA@
  00062	49 8b c9	 mov	 rcx, r9
  00065	e8 00 00 00 00	 call	 _PyArg_Parse_SizeT
  0006a	85 c0		 test	 eax, eax

; 397  :             return -1;

  0006c	74 d5		 je	 SHORT $LN9@QQ_setitem@2

; 398  :         if (y < 0) {

  0006e	48 8b 5c 24 40	 mov	 rbx, QWORD PTR y$20550[rsp]
  00073	48 85 db	 test	 rbx, rbx
  00076	79 26		 jns	 SHORT $LN2@QQ_setitem@2

; 399  :             PyErr_SetString(PyExc_OverflowError,
; 400  :                 "unsigned long long is less than minimum");

  00078	48 8b 0d 00 00
	00 00		 mov	 rcx, QWORD PTR PyExc_OverflowError
  0007f	48 8d 15 00 00
	00 00		 lea	 rdx, OFFSET FLAT:??_C@_0CI@CLOIAIHO@unsigned?5long?5long?5is?5less?5than?5@
  00086	e8 00 00 00 00	 call	 PyErr_SetString

; 401  :             return -1;

  0008b	83 c8 ff	 or	 eax, -1

; 408  :     return 0;
; 409  : }

  0008e	48 8b 5c 24 30	 mov	 rbx, QWORD PTR [rsp+48]
  00093	48 8b 74 24 38	 mov	 rsi, QWORD PTR [rsp+56]
  00098	48 83 c4 20	 add	 rsp, 32			; 00000020H
  0009c	5f		 pop	 rdi
  0009d	c3		 ret	 0
$LN2@QQ_setitem@2:

; 402  :         }
; 403  :         x = (unsigned PY_LONG_LONG)y;
; 404  :     }
; 405  : 
; 406  :     if (i >= 0)

  0009e	48 85 ff	 test	 rdi, rdi
  000a1	78 08		 js	 SHORT $LN1@QQ_setitem@2

; 407  :         ((unsigned PY_LONG_LONG *)ap->ob_item)[i] = x;

  000a3	48 8b 46 70	 mov	 rax, QWORD PTR [rsi+112]
  000a7	48 89 1c f8	 mov	 QWORD PTR [rax+rdi*8], rbx
$LN1@QQ_setitem@2:

; 408  :     return 0;
; 409  : }

  000ab	48 8b 5c 24 30	 mov	 rbx, QWORD PTR [rsp+48]
  000b0	48 8b 74 24 38	 mov	 rsi, QWORD PTR [rsp+56]
  000b5	33 c0		 xor	 eax, eax
  000b7	48 83 c4 20	 add	 rsp, 32			; 00000020H
  000bb	5f		 pop	 rdi
  000bc	c3		 ret	 0
QQ_setitem ENDP
_TEXT	ENDS
EXTRN	PyFloat_FromDouble:PROC
EXTRN	_fltused:DWORD
; Function compile flags: /Ogtpy
;	COMDAT f_getitem
_TEXT	SEGMENT
ap$ = 8
i$ = 16
f_getitem PROC						; COMDAT

; 415  :     return PyFloat_FromDouble((double) ((float *)ap->ob_item)[i]);

  00000	48 8b 41 70	 mov	 rax, QWORD PTR [rcx+112]
  00004	66 0f 6e 04 90	 movd	 xmm0, DWORD PTR [rax+rdx*4]
  00009	0f 5a c0	 cvtps2pd xmm0, xmm0

; 416  : }

  0000c	e9 00 00 00 00	 jmp	 PyFloat_FromDouble
f_getitem ENDP
_TEXT	ENDS
PUBLIC	??_C@_0BL@GDNNBMHH@f?$DLarray?5item?5must?5be?5float?$AA@ ; `string'
;	COMDAT pdata
pdata	SEGMENT
$pdata$f_setitem DD imagerel f_setitem
	DD	imagerel f_setitem+90
	DD	imagerel $unwind$f_setitem
pdata	ENDS
;	COMDAT xdata
xdata	SEGMENT
$unwind$f_setitem DD 040a01H
	DD	06340aH
	DD	07006320aH
xdata	ENDS
;	COMDAT ??_C@_0BL@GDNNBMHH@f?$DLarray?5item?5must?5be?5float?$AA@
CONST	SEGMENT
??_C@_0BL@GDNNBMHH@f?$DLarray?5item?5must?5be?5float?$AA@ DB 'f;array ite'
	DB	'm must be float', 00H			; `string'
; Function compile flags: /Ogtpy
CONST	ENDS
;	COMDAT f_setitem
_TEXT	SEGMENT
ap$ = 48
i$ = 56
v$ = 64
x$ = 72
f_setitem PROC						; COMDAT

; 420  : {

  00000	48 89 5c 24 08	 mov	 QWORD PTR [rsp+8], rbx
  00005	57		 push	 rdi
  00006	48 83 ec 20	 sub	 rsp, 32			; 00000020H
  0000a	49 8b c0	 mov	 rax, r8
  0000d	48 8b da	 mov	 rbx, rdx
  00010	48 8b f9	 mov	 rdi, rcx

; 421  :     float x;
; 422  :     if (!PyArg_Parse(v, "f;array item must be float", &x))

  00013	4c 8d 44 24 48	 lea	 r8, QWORD PTR x$[rsp]
  00018	48 8d 15 00 00
	00 00		 lea	 rdx, OFFSET FLAT:??_C@_0BL@GDNNBMHH@f?$DLarray?5item?5must?5be?5float?$AA@
  0001f	48 8b c8	 mov	 rcx, rax
  00022	e8 00 00 00 00	 call	 _PyArg_Parse_SizeT
  00027	85 c0		 test	 eax, eax
  00029	75 0e		 jne	 SHORT $LN2@f_setitem

; 423  :         return -1;

  0002b	83 c8 ff	 or	 eax, -1

; 427  : }

  0002e	48 8b 5c 24 30	 mov	 rbx, QWORD PTR [rsp+48]
  00033	48 83 c4 20	 add	 rsp, 32			; 00000020H
  00037	5f		 pop	 rdi
  00038	c3		 ret	 0
$LN2@f_setitem:

; 424  :     if (i >= 0)

  00039	48 85 db	 test	 rbx, rbx
  0003c	78 0f		 js	 SHORT $LN1@f_setitem

; 425  :                  ((float *)ap->ob_item)[i] = x;

  0003e	48 8b 47 70	 mov	 rax, QWORD PTR [rdi+112]
  00042	f3 0f 10 44 24
	48		 movss	 xmm0, DWORD PTR x$[rsp]
  00048	f3 0f 11 04 98	 movss	 DWORD PTR [rax+rbx*4], xmm0
$LN1@f_setitem:

; 426  :     return 0;

  0004d	33 c0		 xor	 eax, eax

; 427  : }

  0004f	48 8b 5c 24 30	 mov	 rbx, QWORD PTR [rsp+48]
  00054	48 83 c4 20	 add	 rsp, 32			; 00000020H
  00058	5f		 pop	 rdi
  00059	c3		 ret	 0
f_setitem ENDP
; Function compile flags: /Ogtpy
_TEXT	ENDS
;	COMDAT d_getitem
_TEXT	SEGMENT
ap$ = 8
i$ = 16
d_getitem PROC						; COMDAT

; 432  :     return PyFloat_FromDouble(((double *)ap->ob_item)[i]);

  00000	48 8b 41 70	 mov	 rax, QWORD PTR [rcx+112]
  00004	f2 0f 10 04 d0	 movsdx	 xmm0, QWORD PTR [rax+rdx*8]

; 433  : }

  00009	e9 00 00 00 00	 jmp	 PyFloat_FromDouble
d_getitem ENDP
_TEXT	ENDS
PUBLIC	??_C@_0BL@LOMFCKPF@d?$DLarray?5item?5must?5be?5float?$AA@ ; `string'
;	COMDAT pdata
pdata	SEGMENT
$pdata$d_setitem DD imagerel d_setitem
	DD	imagerel d_setitem+90
	DD	imagerel $unwind$d_setitem
pdata	ENDS
;	COMDAT xdata
xdata	SEGMENT
$unwind$d_setitem DD 040a01H
	DD	06340aH
	DD	07006320aH
xdata	ENDS
;	COMDAT ??_C@_0BL@LOMFCKPF@d?$DLarray?5item?5must?5be?5float?$AA@
CONST	SEGMENT
??_C@_0BL@LOMFCKPF@d?$DLarray?5item?5must?5be?5float?$AA@ DB 'd;array ite'
	DB	'm must be float', 00H			; `string'
; Function compile flags: /Ogtpy
CONST	ENDS
;	COMDAT d_setitem
_TEXT	SEGMENT
ap$ = 48
i$ = 56
v$ = 64
x$ = 72
d_setitem PROC						; COMDAT

; 437  : {

  00000	48 89 5c 24 08	 mov	 QWORD PTR [rsp+8], rbx
  00005	57		 push	 rdi
  00006	48 83 ec 20	 sub	 rsp, 32			; 00000020H
  0000a	49 8b c0	 mov	 rax, r8
  0000d	48 8b da	 mov	 rbx, rdx
  00010	48 8b f9	 mov	 rdi, rcx

; 438  :     double x;
; 439  :     if (!PyArg_Parse(v, "d;array item must be float", &x))

  00013	4c 8d 44 24 48	 lea	 r8, QWORD PTR x$[rsp]
  00018	48 8d 15 00 00
	00 00		 lea	 rdx, OFFSET FLAT:??_C@_0BL@LOMFCKPF@d?$DLarray?5item?5must?5be?5float?$AA@
  0001f	48 8b c8	 mov	 rcx, rax
  00022	e8 00 00 00 00	 call	 _PyArg_Parse_SizeT
  00027	85 c0		 test	 eax, eax
  00029	75 0e		 jne	 SHORT $LN2@d_setitem

; 440  :         return -1;

  0002b	83 c8 ff	 or	 eax, -1

; 444  : }

  0002e	48 8b 5c 24 30	 mov	 rbx, QWORD PTR [rsp+48]
  00033	48 83 c4 20	 add	 rsp, 32			; 00000020H
  00037	5f		 pop	 rdi
  00038	c3		 ret	 0
$LN2@d_setitem:

; 441  :     if (i >= 0)

  00039	48 85 db	 test	 rbx, rbx
  0003c	78 0f		 js	 SHORT $LN1@d_setitem

; 442  :                  ((double *)ap->ob_item)[i] = x;

  0003e	48 8b 47 70	 mov	 rax, QWORD PTR [rdi+112]
  00042	f2 0f 10 44 24
	48		 movsdx	 xmm0, QWORD PTR x$[rsp]
  00048	f2 0f 11 04 d8	 movsdx	 QWORD PTR [rax+rbx*8], xmm0
$LN1@d_setitem:

; 443  :     return 0;

  0004d	33 c0		 xor	 eax, eax

; 444  : }

  0004f	48 8b 5c 24 30	 mov	 rbx, QWORD PTR [rsp+48]
  00054	48 83 c4 20	 add	 rsp, 32			; 00000020H
  00058	5f		 pop	 rdi
  00059	c3		 ret	 0
d_setitem ENDP
_TEXT	ENDS
PUBLIC	??_C@_0BJ@DMBOHOAP@?4?4?2Modules?2arraymodule?4c?$AA@ ; `string'
EXTRN	__imp_malloc:PROC
EXTRN	_PxMem_Malloc:PROC
EXTRN	_PyErr_BadInternalCall:PROC
;	COMDAT pdata
pdata	SEGMENT
$pdata$newarrayobject DD imagerel newarrayobject
	DD	imagerel newarrayobject+54
	DD	imagerel $unwind$newarrayobject
pdata	ENDS
;	COMDAT pdata
pdata	SEGMENT
$pdata$1$newarrayobject DD imagerel newarrayobject+54
	DD	imagerel newarrayobject+100
	DD	imagerel $chain$1$newarrayobject
pdata	ENDS
;	COMDAT pdata
pdata	SEGMENT
$pdata$2$newarrayobject DD imagerel newarrayobject+100
	DD	imagerel newarrayobject+171
	DD	imagerel $chain$2$newarrayobject
pdata	ENDS
;	COMDAT pdata
pdata	SEGMENT
$pdata$3$newarrayobject DD imagerel newarrayobject+171
	DD	imagerel newarrayobject+192
	DD	imagerel $chain$3$newarrayobject
pdata	ENDS
;	COMDAT pdata
pdata	SEGMENT
$pdata$5$newarrayobject DD imagerel newarrayobject+192
	DD	imagerel newarrayobject+263
	DD	imagerel $chain$5$newarrayobject
pdata	ENDS
;	COMDAT xdata
xdata	SEGMENT
$chain$5$newarrayobject DD 060021H
	DD	08c400H
	DD	076400H
	DD	063400H
	DD	imagerel newarrayobject
	DD	imagerel newarrayobject+54
	DD	imagerel $unwind$newarrayobject
xdata	ENDS
;	COMDAT xdata
xdata	SEGMENT
$chain$3$newarrayobject DD 021H
	DD	imagerel newarrayobject+54
	DD	imagerel newarrayobject+100
	DD	imagerel $chain$1$newarrayobject
xdata	ENDS
;	COMDAT xdata
xdata	SEGMENT
$chain$2$newarrayobject DD 020521H
	DD	063405H
	DD	imagerel newarrayobject+54
	DD	imagerel newarrayobject+100
	DD	imagerel $chain$1$newarrayobject
xdata	ENDS
;	COMDAT xdata
xdata	SEGMENT
$chain$1$newarrayobject DD 040e21H
	DD	08c40eH
	DD	076405H
	DD	imagerel newarrayobject
	DD	imagerel newarrayobject+54
	DD	imagerel $unwind$newarrayobject
xdata	ENDS
;	COMDAT xdata
xdata	SEGMENT
$unwind$newarrayobject DD 040a01H
	DD	09540aH
	DD	07006320aH
xdata	ENDS
;	COMDAT ??_C@_0BJ@DMBOHOAP@?4?4?2Modules?2arraymodule?4c?$AA@
CONST	SEGMENT
??_C@_0BJ@DMBOHOAP@?4?4?2Modules?2arraymodule?4c?$AA@ DB '..\Modules\arra'
	DB	'ymodule.c', 00H				; `string'
; Function compile flags: /Ogtpy
CONST	ENDS
;	COMDAT newarrayobject
_TEXT	SEGMENT
type$ = 48
size$ = 56
descr$ = 64
newarrayobject PROC					; COMDAT

; 477  : {

  00000	48 89 6c 24 20	 mov	 QWORD PTR [rsp+32], rbp
  00005	57		 push	 rdi
  00006	48 83 ec 20	 sub	 rsp, 32			; 00000020H
  0000a	49 8b e8	 mov	 rbp, r8
  0000d	48 8b fa	 mov	 rdi, rdx
  00010	4c 8b c1	 mov	 r8, rcx

; 478  :     arrayobject *op;
; 479  :     size_t nbytes;
; 480  : 
; 481  :     if (size < 0) {

  00013	48 85 d2	 test	 rdx, rdx
  00016	79 1e		 jns	 SHORT $LN6@newarrayob

; 482  :         PyErr_BadInternalCall();

  00018	48 8d 0d 00 00
	00 00		 lea	 rcx, OFFSET FLAT:??_C@_0BJ@DMBOHOAP@?4?4?2Modules?2arraymodule?4c?$AA@
  0001f	ba e2 01 00 00	 mov	 edx, 482		; 000001e2H
  00024	e8 00 00 00 00	 call	 _PyErr_BadInternalCall

; 483  :         return NULL;

  00029	33 c0		 xor	 eax, eax

; 511  : }

  0002b	48 8b 6c 24 48	 mov	 rbp, QWORD PTR [rsp+72]
  00030	48 83 c4 20	 add	 rsp, 32			; 00000020H
  00034	5f		 pop	 rdi
  00035	c3		 ret	 0
$LN6@newarrayob:
  00036	48 89 74 24 38	 mov	 QWORD PTR [rsp+56], rsi

; 484  :     }
; 485  : 
; 486  :     /* Check for overflow */
; 487  :     if (size > PY_SSIZE_T_MAX / descr->itemsize) {

  0003b	48 63 75 04	 movsxd	 rsi, DWORD PTR [rbp+4]
  0003f	4c 89 64 24 40	 mov	 QWORD PTR [rsp+64], r12
  00044	49 bc ff ff ff
	ff ff ff ff 7f	 mov	 r12, 9223372036854775807 ; 7fffffffffffffffH
  0004e	49 8b c4	 mov	 rax, r12
  00051	48 99		 cdq
  00053	48 f7 fe	 idiv	 rsi
  00056	48 3b f8	 cmp	 rdi, rax
  00059	7e 07		 jle	 SHORT $LN5@newarrayob

; 488  :         return PyErr_NoMemory();

  0005b	e8 00 00 00 00	 call	 PyErr_NoMemory
  00060	eb 49		 jmp	 SHORT $LN16@newarrayob
$LN5@newarrayob:

; 489  :     }
; 490  :     nbytes = size * descr->itemsize;
; 491  :     op = (arrayobject *) type->tp_alloc(type, 0);

  00062	33 d2		 xor	 edx, edx
  00064	48 89 5c 24 30	 mov	 QWORD PTR [rsp+48], rbx
  00069	48 0f af f7	 imul	 rsi, rdi
  0006d	41 ff 90 88 01
	00 00		 call	 QWORD PTR [r8+392]
  00074	48 8b d8	 mov	 rbx, rax

; 492  :     if (op == NULL) {

  00077	48 85 c0	 test	 rax, rax
  0007a	74 2a		 je	 SHORT $LN17@newarrayob
$LN4@newarrayob:

; 493  :         return NULL;
; 494  :     }
; 495  :     op->ob_descr = descr;

  0007c	48 89 a8 80 00
	00 00		 mov	 QWORD PTR [rax+128], rbp

; 496  :     op->allocated = size;
; 497  :     op->weakreflist = NULL;

  00083	33 ed		 xor	 ebp, ebp
  00085	48 89 78 78	 mov	 QWORD PTR [rax+120], rdi

; 498  :     Py_SIZE(op) = size;

  00089	48 89 78 60	 mov	 QWORD PTR [rax+96], rdi
  0008d	48 89 a8 88 00
	00 00		 mov	 QWORD PTR [rax+136], rbp

; 499  :     if (size <= 0) {

  00094	48 85 ff	 test	 rdi, rdi
  00097	7f 27		 jg	 SHORT $LN3@newarrayob

; 500  :         op->ob_item = NULL;

  00099	48 89 68 70	 mov	 QWORD PTR [rax+112], rbp
$LN1@newarrayob:

; 507  :         }
; 508  :     }
; 509  :     op->ob_exports = 0;

  0009d	89 ab 90 00 00
	00		 mov	 DWORD PTR [rbx+144], ebp

; 510  :     return (PyObject *) op;

  000a3	48 8b c3	 mov	 rax, rbx
$LN17@newarrayob:
  000a6	48 8b 5c 24 30	 mov	 rbx, QWORD PTR [rsp+48]
$LN16@newarrayob:
  000ab	48 8b 74 24 38	 mov	 rsi, QWORD PTR [rsp+56]
  000b0	4c 8b 64 24 40	 mov	 r12, QWORD PTR [rsp+64]

; 511  : }

  000b5	48 8b 6c 24 48	 mov	 rbp, QWORD PTR [rsp+72]
  000ba	48 83 c4 20	 add	 rsp, 32			; 00000020H
  000be	5f		 pop	 rdi
  000bf	c3		 ret	 0
$LN3@newarrayob:

; 501  :     }
; 502  :     else {
; 503  :         op->ob_item = PyMem_NEW(char, nbytes);

  000c0	49 3b f4	 cmp	 rsi, r12
  000c3	76 05		 jbe	 SHORT $LN13@newarrayob
  000c5	48 8b c5	 mov	 rax, rbp
  000c8	eb 25		 jmp	 SHORT $LN10@newarrayob
$LN13@newarrayob:
  000ca	e8 00 00 00 00	 call	 _Py_PXCTX
  000cf	85 c0		 test	 eax, eax
  000d1	74 0a		 je	 SHORT $LN11@newarrayob
  000d3	48 8b ce	 mov	 rcx, rsi
  000d6	e8 00 00 00 00	 call	 _PxMem_Malloc
  000db	eb 12		 jmp	 SHORT $LN10@newarrayob
$LN11@newarrayob:
  000dd	48 85 f6	 test	 rsi, rsi
  000e0	b9 01 00 00 00	 mov	 ecx, 1
  000e5	48 0f 45 ce	 cmovne	 rcx, rsi
  000e9	ff 15 00 00 00
	00		 call	 QWORD PTR __imp_malloc
$LN10@newarrayob:
  000ef	48 89 43 70	 mov	 QWORD PTR [rbx+112], rax

; 504  :         if (op->ob_item == NULL) {

  000f3	48 85 c0	 test	 rax, rax
  000f6	75 a5		 jne	 SHORT $LN1@newarrayob

; 505  :             Py_DECREF(op);

  000f8	48 8b cb	 mov	 rcx, rbx
  000fb	e8 00 00 00 00	 call	 _Py_DecRef

; 506  :             return PyErr_NoMemory();

  00100	e8 00 00 00 00	 call	 PyErr_NoMemory
  00105	eb 9f		 jmp	 SHORT $LN17@newarrayob
newarrayobject ENDP
; Function compile flags: /Ogtpy
_TEXT	ENDS
;	COMDAT getarrayitem
_TEXT	SEGMENT
op$ = 8
i$ = 16
getarrayitem PROC					; COMDAT

; 516  :     register arrayobject *ap;
; 517  :     assert(array_Check(op));
; 518  :     ap = (arrayobject *)op;
; 519  :     assert(i>=0 && i<Py_SIZE(ap));
; 520  :     return (*ap->ob_descr->getitem)(ap, i);

  00000	48 8b 81 80 00
	00 00		 mov	 rax, QWORD PTR [rcx+128]

; 521  : }

  00007	48 ff 60 08	 rex_jmp QWORD PTR [rax+8]
getarrayitem ENDP
_TEXT	ENDS
EXTRN	__imp_memmove:PROC
;	COMDAT pdata
pdata	SEGMENT
$pdata$ins1 DD	imagerel ins1
	DD	imagerel ins1+219
	DD	imagerel $unwind$ins1
pdata	ENDS
;	COMDAT xdata
xdata	SEGMENT
$unwind$ins1 DD	081401H
	DD	086414H
	DD	075414H
	DD	063414H
	DD	070103214H
; Function compile flags: /Ogtpy
xdata	ENDS
;	COMDAT ins1
_TEXT	SEGMENT
self$ = 48
where$ = 56
v$ = 64
ins1	PROC						; COMDAT

; 525  : {

  00000	48 89 5c 24 08	 mov	 QWORD PTR [rsp+8], rbx
  00005	48 89 6c 24 10	 mov	 QWORD PTR [rsp+16], rbp
  0000a	48 89 74 24 18	 mov	 QWORD PTR [rsp+24], rsi
  0000f	57		 push	 rdi
  00010	48 83 ec 20	 sub	 rsp, 32			; 00000020H

; 526  :     char *items;
; 527  :     Py_ssize_t n = Py_SIZE(self);

  00014	48 8b 71 60	 mov	 rsi, QWORD PTR [rcx+96]
  00018	49 8b e8	 mov	 rbp, r8
  0001b	48 8b da	 mov	 rbx, rdx
  0001e	48 8b f9	 mov	 rdi, rcx

; 528  :     if (v == NULL) {

  00021	4d 85 c0	 test	 r8, r8
  00024	75 19		 jne	 SHORT $LN7@ins1

; 529  :         PyErr_BadInternalCall();

  00026	48 8d 0d 00 00
	00 00		 lea	 rcx, OFFSET FLAT:??_C@_0BJ@DMBOHOAP@?4?4?2Modules?2arraymodule?4c?$AA@
  0002d	ba 11 02 00 00	 mov	 edx, 529		; 00000211H
  00032	e8 00 00 00 00	 call	 _PyErr_BadInternalCall
$LN11@ins1:

; 530  :         return -1;

  00037	83 c8 ff	 or	 eax, -1
  0003a	e9 87 00 00 00	 jmp	 $LN8@ins1
$LN7@ins1:

; 531  :     }
; 532  :     if ((*self->ob_descr->setitem)(self, -1, v) < 0)

  0003f	48 8b 81 80 00
	00 00		 mov	 rax, QWORD PTR [rcx+128]
  00046	48 83 ca ff	 or	 rdx, -1
  0004a	ff 50 10	 call	 QWORD PTR [rax+16]
  0004d	85 c0		 test	 eax, eax

; 533  :         return -1;

  0004f	78 e6		 js	 SHORT $LN11@ins1

; 534  : 
; 535  :     if (array_resize(self, n+1) == -1)

  00051	48 8d 56 01	 lea	 rdx, QWORD PTR [rsi+1]
  00055	48 8b cf	 mov	 rcx, rdi
  00058	e8 00 00 00 00	 call	 array_resize
  0005d	83 f8 ff	 cmp	 eax, -1

; 536  :         return -1;

  00060	74 d5		 je	 SHORT $LN11@ins1

; 537  :     items = self->ob_item;

  00062	4c 8b 47 70	 mov	 r8, QWORD PTR [rdi+112]

; 538  :     if (where < 0) {

  00066	48 85 db	 test	 rbx, rbx
  00069	79 0c		 jns	 SHORT $LN3@ins1

; 539  :         where += n;

  0006b	48 03 de	 add	 rbx, rsi

; 540  :         if (where < 0)

  0006e	b8 00 00 00 00	 mov	 eax, 0
  00073	48 0f 48 d8	 cmovs	 rbx, rax
$LN3@ins1:

; 541  :             where = 0;
; 542  :     }
; 543  :     if (where > n)

  00077	48 3b de	 cmp	 rbx, rsi
  0007a	7e 05		 jle	 SHORT $LN10@ins1

; 544  :         where = n;

  0007c	48 8b de	 mov	 rbx, rsi

; 545  :     /* appends don't need to call memmove() */
; 546  :     if (where != n)

  0007f	eb 32		 jmp	 SHORT $LN1@ins1
$LN10@ins1:
  00081	74 30		 je	 SHORT $LN1@ins1

; 547  :         memmove(items + (where+1)*self->ob_descr->itemsize,
; 548  :             items + where*self->ob_descr->itemsize,
; 549  :             (n-where)*self->ob_descr->itemsize);

  00083	48 8b 87 80 00
	00 00		 mov	 rax, QWORD PTR [rdi+128]
  0008a	48 2b f3	 sub	 rsi, rbx
  0008d	48 8d 4b 01	 lea	 rcx, QWORD PTR [rbx+1]
  00091	4c 63 48 04	 movsxd	 r9, DWORD PTR [rax+4]
  00095	49 8b d1	 mov	 rdx, r9
  00098	49 0f af c9	 imul	 rcx, r9
  0009c	49 0f af f1	 imul	 rsi, r9
  000a0	49 03 c8	 add	 rcx, r8
  000a3	48 0f af d3	 imul	 rdx, rbx
  000a7	49 03 d0	 add	 rdx, r8
  000aa	4c 8b c6	 mov	 r8, rsi
  000ad	ff 15 00 00 00
	00		 call	 QWORD PTR __imp_memmove
$LN1@ins1:

; 550  :     return (*self->ob_descr->setitem)(self, where, v);

  000b3	48 8b 87 80 00
	00 00		 mov	 rax, QWORD PTR [rdi+128]
  000ba	4c 8b c5	 mov	 r8, rbp
  000bd	48 8b d3	 mov	 rdx, rbx
  000c0	48 8b cf	 mov	 rcx, rdi
  000c3	ff 50 10	 call	 QWORD PTR [rax+16]
$LN8@ins1:

; 551  : }

  000c6	48 8b 5c 24 30	 mov	 rbx, QWORD PTR [rsp+48]
  000cb	48 8b 6c 24 38	 mov	 rbp, QWORD PTR [rsp+56]
  000d0	48 8b 74 24 40	 mov	 rsi, QWORD PTR [rsp+64]
  000d5	48 83 c4 20	 add	 rsp, 32			; 00000020H
  000d9	5f		 pop	 rdi
  000da	c3		 ret	 0
ins1	ENDP
_TEXT	ENDS
EXTRN	PyObject_ClearWeakRefs:PROC
;	COMDAT pdata
pdata	SEGMENT
$pdata$array_dealloc DD imagerel array_dealloc
	DD	imagerel array_dealloc+93
	DD	imagerel $unwind$array_dealloc
pdata	ENDS
;	COMDAT xdata
xdata	SEGMENT
$unwind$array_dealloc DD 020601H
	DD	030023206H
; Function compile flags: /Ogtpy
xdata	ENDS
;	COMDAT array_dealloc
_TEXT	SEGMENT
op$ = 48
array_dealloc PROC					; COMDAT

; 557  : {

  00000	40 53		 push	 rbx
  00002	48 83 ec 20	 sub	 rsp, 32			; 00000020H

; 558  :     if (op->weakreflist != NULL)

  00006	48 83 b9 88 00
	00 00 00	 cmp	 QWORD PTR [rcx+136], 0
  0000e	48 8b d9	 mov	 rbx, rcx
  00011	74 05		 je	 SHORT $LN2@array_deal

; 559  :         PyObject_ClearWeakRefs((PyObject *) op);

  00013	e8 00 00 00 00	 call	 PyObject_ClearWeakRefs
$LN2@array_deal:

; 560  :     if (op->ob_item != NULL)

  00018	48 83 7b 70 00	 cmp	 QWORD PTR [rbx+112], 0
  0001d	74 2b		 je	 SHORT $LN6@array_deal

; 561  :         PyMem_DEL(op->ob_item);

  0001f	e8 00 00 00 00	 call	 _Py_PXCTX
  00024	48 8b 4b 70	 mov	 rcx, QWORD PTR [rbx+112]
  00028	85 c0		 test	 eax, eax
  0002a	74 18		 je	 SHORT $LN5@array_deal
  0002c	e8 00 00 00 00	 call	 _PxMem_Free

; 562  :     Py_TYPE(op)->tp_free((PyObject *)op);

  00031	48 8b 43 58	 mov	 rax, QWORD PTR [rbx+88]
  00035	48 8b cb	 mov	 rcx, rbx

; 563  : }

  00038	48 83 c4 20	 add	 rsp, 32			; 00000020H
  0003c	5b		 pop	 rbx
  0003d	48 ff a0 98 01
	00 00		 rex_jmp QWORD PTR [rax+408]
$LN5@array_deal:

; 561  :         PyMem_DEL(op->ob_item);

  00044	ff 15 00 00 00
	00		 call	 QWORD PTR __imp_free
$LN6@array_deal:

; 562  :     Py_TYPE(op)->tp_free((PyObject *)op);

  0004a	48 8b 43 58	 mov	 rax, QWORD PTR [rbx+88]
  0004e	48 8b cb	 mov	 rcx, rbx

; 563  : }

  00051	48 83 c4 20	 add	 rsp, 32			; 00000020H
  00055	5b		 pop	 rbx
  00056	48 ff a0 98 01
	00 00		 rex_jmp QWORD PTR [rax+408]
array_dealloc ENDP
_TEXT	ENDS
EXTRN	__ImageBase:BYTE
EXTRN	PyObject_RichCompare:PROC
EXTRN	PyObject_RichCompareBool:PROC
EXTRN	_Py_FalseStruct:BYTE
EXTRN	_Py_TrueStruct:BYTE
EXTRN	_Py_NotImplementedStruct:BYTE
EXTRN	PyType_IsSubtype:PROC
;	COMDAT pdata
; File c:\src\pyparallel\include\object.h
pdata	SEGMENT
$pdata$array_richcompare DD imagerel array_richcompare
	DD	imagerel array_richcompare+235
	DD	imagerel $unwind$array_richcompare
pdata	ENDS
;	COMDAT pdata
pdata	SEGMENT
$pdata$0$array_richcompare DD imagerel array_richcompare+235
	DD	imagerel array_richcompare+564
	DD	imagerel $chain$0$array_richcompare
pdata	ENDS
;	COMDAT pdata
pdata	SEGMENT
$pdata$1$array_richcompare DD imagerel array_richcompare+564
	DD	imagerel array_richcompare+587
	DD	imagerel $chain$1$array_richcompare
pdata	ENDS
;	COMDAT pdata
pdata	SEGMENT
$pdata$2$array_richcompare DD imagerel array_richcompare+587
	DD	imagerel array_richcompare+1028
	DD	imagerel $chain$2$array_richcompare
pdata	ENDS
;	COMDAT xdata
xdata	SEGMENT
$chain$2$array_richcompare DD 020021H
	DD	0cd400H
	DD	imagerel array_richcompare
	DD	imagerel array_richcompare+235
	DD	imagerel $unwind$array_richcompare
xdata	ENDS
;	COMDAT xdata
xdata	SEGMENT
$chain$1$array_richcompare DD 021H
	DD	imagerel array_richcompare
	DD	imagerel array_richcompare+235
	DD	imagerel $unwind$array_richcompare
xdata	ENDS
;	COMDAT xdata
xdata	SEGMENT
$chain$0$array_richcompare DD 020521H
	DD	0cd405H
	DD	imagerel array_richcompare
	DD	imagerel array_richcompare+235
	DD	imagerel $unwind$array_richcompare
xdata	ENDS
;	COMDAT xdata
xdata	SEGMENT
$unwind$array_richcompare DD 0a1601H
	DD	0e5416H
	DD	0d3416H
	DD	0f0125216H
	DD	0c00ee010H
	DD	0600b700cH
; Function compile flags: /Ogtpy
; File c:\src\pyparallel\modules\arraymodule.c
xdata	ENDS
;	COMDAT array_richcompare
_TEXT	SEGMENT
v$ = 96
w$ = 104
op$ = 112
array_richcompare PROC					; COMDAT

; 567  : {

  00000	48 89 5c 24 10	 mov	 QWORD PTR [rsp+16], rbx
  00005	48 89 6c 24 18	 mov	 QWORD PTR [rsp+24], rbp
  0000a	56		 push	 rsi
  0000b	57		 push	 rdi
  0000c	41 54		 push	 r12
  0000e	41 56		 push	 r14
  00010	41 57		 push	 r15
  00012	48 83 ec 30	 sub	 rsp, 48			; 00000030H

; 568  :     arrayobject *va, *wa;
; 569  :     PyObject *vi = NULL;

  00016	33 f6		 xor	 esi, esi
  00018	4c 8b f9	 mov	 r15, rcx

; 570  :     PyObject *wi = NULL;
; 571  :     Py_ssize_t i, k;
; 572  :     PyObject *res;
; 573  : 
; 574  :     if (!array_Check(v) || !array_Check(w))

  0001b	48 8b 49 58	 mov	 rcx, QWORD PTR [rcx+88]
  0001f	48 8d 3d 00 00
	00 00		 lea	 rdi, OFFSET FLAT:Arraytype
  00026	4d 63 e0	 movsxd	 r12, r8d
  00029	4c 8b f2	 mov	 r14, rdx
  0002c	8b ee		 mov	 ebp, esi
  0002e	8b de		 mov	 ebx, esi
  00030	48 3b cf	 cmp	 rcx, rdi
  00033	74 0c		 je	 SHORT $LN36@array_rich
  00035	48 8b d7	 mov	 rdx, rdi
  00038	e8 00 00 00 00	 call	 PyType_IsSubtype
  0003d	85 c0		 test	 eax, eax
  0003f	74 15		 je	 SHORT $LN37@array_rich
$LN36@array_rich:
  00041	49 8b 4e 58	 mov	 rcx, QWORD PTR [r14+88]
  00045	48 3b cf	 cmp	 rcx, rdi
  00048	74 5d		 je	 SHORT $LN38@array_rich
  0004a	48 8b d7	 mov	 rdx, rdi
  0004d	e8 00 00 00 00	 call	 PyType_IsSubtype
  00052	85 c0		 test	 eax, eax
  00054	75 51		 jne	 SHORT $LN38@array_rich
$LN37@array_rich:

; 575  :         Py_RETURN_NOTIMPLEMENTED;

  00056	e8 00 00 00 00	 call	 _Py_PXCTX
  0005b	85 c0		 test	 eax, eax
  0005d	75 3c		 jne	 SHORT $LN42@array_rich
  0005f	4c 8d 0d 00 00
	00 00		 lea	 r9, OFFSET FLAT:_Py_NotImplementedStruct
  00066	48 8d 15 00 00
	00 00		 lea	 rdx, OFFSET FLAT:??_C@_0CD@HDJFDCDP@c?3?2src?2pyparallel?2include?2object@
  0006d	48 8d 0d 00 00
	00 00		 lea	 rcx, OFFSET FLAT:??_C@_0L@DHGMCEID@_Py_IncRef?$AA@
  00074	41 b8 89 03 00
	00		 mov	 r8d, 905		; 00000389H
  0007a	c7 44 24 20 02
	00 00 00	 mov	 DWORD PTR [rsp+32], 2
  00082	e8 00 00 00 00	 call	 _PyParallel_Guard
  00087	85 c0		 test	 eax, eax
  00089	75 09		 jne	 SHORT $LN41@array_rich
  0008b	f6 05 20 00 00
	00 20		 test	 BYTE PTR _Py_NotImplementedStruct+32, 32 ; 00000020H
  00092	74 07		 je	 SHORT $LN42@array_rich
$LN41@array_rich:
  00094	48 ff 05 50 00
	00 00		 inc	 QWORD PTR _Py_NotImplementedStruct+80
$LN42@array_rich:
  0009b	48 8d 05 00 00
	00 00		 lea	 rax, OFFSET FLAT:_Py_NotImplementedStruct
  000a2	e9 8d 01 00 00	 jmp	 $LN39@array_rich
$LN38@array_rich:

; 576  : 
; 577  :     va = (arrayobject *)v;
; 578  :     wa = (arrayobject *)w;
; 579  : 
; 580  :     if (Py_SIZE(va) != Py_SIZE(wa) && (op == Py_EQ || op == Py_NE)) {

  000a7	49 8b 47 60	 mov	 rax, QWORD PTR [r15+96]
  000ab	49 3b 46 60	 cmp	 rax, QWORD PTR [r14+96]
  000af	74 3a		 je	 SHORT $LN35@array_rich
  000b1	41 83 fc 02	 cmp	 r12d, 2
  000b5	74 1d		 je	 SHORT $LN84@array_rich
  000b7	41 83 fc 03	 cmp	 r12d, 3
  000bb	75 2e		 jne	 SHORT $LN35@array_rich

; 584  :         else
; 585  :             res = Py_True;

  000bd	48 8d 3d 00 00
	00 00		 lea	 rdi, OFFSET FLAT:_Py_TrueStruct

; 586  :         Py_INCREF(res);

  000c4	48 8b cf	 mov	 rcx, rdi
  000c7	e8 00 00 00 00	 call	 _Py_IncRef

; 587  :         return res;

  000cc	48 8b c7	 mov	 rax, rdi
  000cf	e9 60 01 00 00	 jmp	 $LN39@array_rich
$LN84@array_rich:

; 581  :         /* Shortcut: if the lengths differ, the arrays differ */
; 582  :         if (op == Py_EQ)
; 583  :             res = Py_False;

  000d4	48 8d 3d 00 00
	00 00		 lea	 rdi, OFFSET FLAT:_Py_FalseStruct

; 586  :         Py_INCREF(res);

  000db	48 8b cf	 mov	 rcx, rdi
  000de	e8 00 00 00 00	 call	 _Py_IncRef

; 587  :         return res;

  000e3	48 8b c7	 mov	 rax, rdi
  000e6	e9 49 01 00 00	 jmp	 $LN39@array_rich
$LN35@array_rich:
  000eb	4c 89 6c 24 60	 mov	 QWORD PTR [rsp+96], r13

; 588  :     }
; 589  : 
; 590  :     /* Search for the first index where items are different */
; 591  :     k = 1;
; 592  :     for (i = 0; i < Py_SIZE(va) && i < Py_SIZE(wa); i++) {

  000f0	48 8b fe	 mov	 rdi, rsi
  000f3	41 bd 01 00 00
	00		 mov	 r13d, 1
  000f9	48 85 c0	 test	 rax, rax
  000fc	0f 8e 38 02 00
	00		 jle	 $LN85@array_rich
$LL31@array_rich:
  00102	49 3b 7e 60	 cmp	 rdi, QWORD PTR [r14+96]
  00106	7d 68		 jge	 SHORT $LN29@array_rich

; 593  :         vi = getarrayitem(v, i);

  00108	48 8b d7	 mov	 rdx, rdi
  0010b	49 8b cf	 mov	 rcx, r15
  0010e	e8 00 00 00 00	 call	 getarrayitem

; 594  :         wi = getarrayitem(w, i);

  00113	48 8b d7	 mov	 rdx, rdi
  00116	49 8b ce	 mov	 rcx, r14
  00119	48 8b e8	 mov	 rbp, rax
  0011c	e8 00 00 00 00	 call	 getarrayitem
  00121	48 8b d8	 mov	 rbx, rax

; 595  :         if (vi == NULL || wi == NULL) {

  00124	48 85 ed	 test	 rbp, rbp
  00127	0f 84 28 01 00
	00		 je	 $LN25@array_rich
  0012d	48 85 c0	 test	 rax, rax
  00130	0f 84 9f 00 00
	00		 je	 $LN26@array_rich

; 599  :         }
; 600  :         k = PyObject_RichCompareBool(vi, wi, Py_EQ);

  00136	41 b8 02 00 00
	00		 mov	 r8d, 2
  0013c	48 8b d0	 mov	 rdx, rax
  0013f	48 8b cd	 mov	 rcx, rbp
  00142	e8 00 00 00 00	 call	 PyObject_RichCompareBool
  00147	4c 63 e8	 movsxd	 r13, eax

; 601  :         if (k == 0)

  0014a	85 c0		 test	 eax, eax
  0014c	74 2b		 je	 SHORT $LN16@array_rich

; 602  :             break; /* Keeping vi and wi alive! */
; 603  :         Py_DECREF(vi);

  0014e	48 8b cd	 mov	 rcx, rbp
  00151	e8 00 00 00 00	 call	 _Py_DecRef

; 604  :         Py_DECREF(wi);

  00156	48 8b cb	 mov	 rcx, rbx
  00159	e8 00 00 00 00	 call	 _Py_DecRef

; 605  :         if (k < 0)

  0015e	4d 85 ed	 test	 r13, r13
  00161	0f 88 c6 00 00
	00		 js	 $LN7@array_rich

; 588  :     }
; 589  : 
; 590  :     /* Search for the first index where items are different */
; 591  :     k = 1;
; 592  :     for (i = 0; i < Py_SIZE(va) && i < Py_SIZE(wa); i++) {

  00167	48 ff c7	 inc	 rdi
  0016a	49 3b 7f 60	 cmp	 rdi, QWORD PTR [r15+96]
  0016e	7c 92		 jl	 SHORT $LL31@array_rich
$LN29@array_rich:

; 606  :             return NULL;
; 607  :     }
; 608  : 
; 609  :     if (k) {

  00170	4d 85 ed	 test	 r13, r13
  00173	0f 85 c1 01 00
	00		 jne	 $LN85@array_rich
$LN16@array_rich:

; 629  :     }
; 630  : 
; 631  :     /* We have an item that differs.  First, shortcuts for EQ/NE */
; 632  :     if (op == Py_EQ) {

  00179	41 83 fc 02	 cmp	 r12d, 2
  0017d	0f 85 3e 01 00
	00		 jne	 $LN4@array_rich

; 633  :         Py_INCREF(Py_False);

  00183	e8 00 00 00 00	 call	 _Py_PXCTX
  00188	48 8d 3d 00 00
	00 00		 lea	 rdi, OFFSET FLAT:_Py_FalseStruct
  0018f	85 c0		 test	 eax, eax
  00191	0f 85 8b 01 00
	00		 jne	 $LN1@array_rich
  00197	48 8d 15 00 00
	00 00		 lea	 rdx, OFFSET FLAT:??_C@_0CD@HDJFDCDP@c?3?2src?2pyparallel?2include?2object@
  0019e	48 8d 0d 00 00
	00 00		 lea	 rcx, OFFSET FLAT:??_C@_0L@DHGMCEID@_Py_IncRef?$AA@
  001a5	4c 8b cf	 mov	 r9, rdi
  001a8	41 b8 89 03 00
	00		 mov	 r8d, 905		; 00000389H
  001ae	44 89 64 24 20	 mov	 DWORD PTR [rsp+32], r12d
  001b3	e8 00 00 00 00	 call	 _PyParallel_Guard
  001b8	85 c0		 test	 eax, eax
  001ba	75 0d		 jne	 SHORT $LN71@array_rich
  001bc	f6 05 20 00 00
	00 20		 test	 BYTE PTR _Py_FalseStruct+32, 32 ; 00000020H
  001c3	0f 84 59 01 00
	00		 je	 $LN1@array_rich
$LN71@array_rich:
  001c9	48 ff 05 50 00
	00 00		 inc	 QWORD PTR _Py_FalseStruct+80

; 634  :         res = Py_False;

  001d0	e9 4d 01 00 00	 jmp	 $LN1@array_rich
$LN26@array_rich:

; 596  :             Py_XDECREF(vi);

  001d5	e8 00 00 00 00	 call	 _Py_PXCTX
  001da	85 c0		 test	 eax, eax
  001dc	75 4f		 jne	 SHORT $LN7@array_rich
  001de	48 8b 45 20	 mov	 rax, QWORD PTR [rbp+32]
  001e2	a8 20		 test	 al, 32			; 00000020H
  001e4	75 65		 jne	 SHORT $LN49@array_rich
  001e6	84 c0		 test	 al, al
  001e8	78 61		 js	 SHORT $LN49@array_rich
  001ea	a8 02		 test	 al, 2
  001ec	75 3f		 jne	 SHORT $LN7@array_rich
  001ee	48 ff 4d 50	 dec	 QWORD PTR [rbp+80]
  001f2	75 39		 jne	 SHORT $LN7@array_rich
  001f4	48 8d 15 00 00
	00 00		 lea	 rdx, OFFSET FLAT:??_C@_0CD@HDJFDCDP@c?3?2src?2pyparallel?2include?2object@
  001fb	48 8d 0d 00 00
	00 00		 lea	 rcx, OFFSET FLAT:??_C@_0L@DMHMLFIA@_Py_DecRef?$AA@
  00202	4c 8b cd	 mov	 r9, rbp
  00205	41 b8 a4 03 00
	00		 mov	 r8d, 932		; 000003a4H
  0020b	c7 44 24 20 10
	00 00 00	 mov	 DWORD PTR [rsp+32], 16
  00213	e8 00 00 00 00	 call	 _PyParallel_Guard
  00218	48 8b cd	 mov	 rcx, rbp
  0021b	85 c0		 test	 eax, eax
  0021d	0f 85 81 00 00
	00		 jne	 $LN89@array_rich
  00223	48 8b 45 58	 mov	 rax, QWORD PTR [rbp+88]
$LN90@array_rich:
  00227	ff 90 88 00 00
	00		 call	 QWORD PTR [rax+136]
$LN7@array_rich:

; 621  :         default: return NULL; /* cannot happen */

  0022d	33 c0		 xor	 eax, eax
$LN87@array_rich:
  0022f	4c 8b 6c 24 60	 mov	 r13, QWORD PTR [rsp+96]
$LN39@array_rich:

; 647  : }

  00234	48 8b 5c 24 68	 mov	 rbx, QWORD PTR [rsp+104]
  00239	48 8b 6c 24 70	 mov	 rbp, QWORD PTR [rsp+112]
  0023e	48 83 c4 30	 add	 rsp, 48			; 00000030H
  00242	41 5f		 pop	 r15
  00244	41 5e		 pop	 r14
  00246	41 5c		 pop	 r12
  00248	5f		 pop	 rdi
  00249	5e		 pop	 rsi
  0024a	c3		 ret	 0

; 596  :             Py_XDECREF(vi);

$LN49@array_rich:
  0024b	48 8b cd	 mov	 rcx, rbp

; 597  :             Py_XDECREF(wi);

  0024e	e8 00 00 00 00	 call	 Px_DecRef

; 598  :             return NULL;

  00253	eb d8		 jmp	 SHORT $LN7@array_rich
$LN25@array_rich:

; 597  :             Py_XDECREF(wi);

  00255	48 85 c0	 test	 rax, rax
  00258	74 d3		 je	 SHORT $LN7@array_rich
  0025a	e8 00 00 00 00	 call	 _Py_PXCTX
  0025f	85 c0		 test	 eax, eax
  00261	75 ca		 jne	 SHORT $LN7@array_rich
  00263	48 8b 43 20	 mov	 rax, QWORD PTR [rbx+32]
  00267	a8 20		 test	 al, 32			; 00000020H
  00269	75 49		 jne	 SHORT $LN60@array_rich
  0026b	84 c0		 test	 al, al
  0026d	78 45		 js	 SHORT $LN60@array_rich
  0026f	a8 02		 test	 al, 2
  00271	75 ba		 jne	 SHORT $LN7@array_rich
  00273	48 ff 4b 50	 dec	 QWORD PTR [rbx+80]
  00277	75 b4		 jne	 SHORT $LN7@array_rich
  00279	48 8d 15 00 00
	00 00		 lea	 rdx, OFFSET FLAT:??_C@_0CD@HDJFDCDP@c?3?2src?2pyparallel?2include?2object@
  00280	48 8d 0d 00 00
	00 00		 lea	 rcx, OFFSET FLAT:??_C@_0L@DMHMLFIA@_Py_DecRef?$AA@
  00287	4c 8b cb	 mov	 r9, rbx
  0028a	41 b8 a4 03 00
	00		 mov	 r8d, 932		; 000003a4H
  00290	c7 44 24 20 10
	00 00 00	 mov	 DWORD PTR [rsp+32], 16
  00298	e8 00 00 00 00	 call	 _PyParallel_Guard
  0029d	48 8b cb	 mov	 rcx, rbx
  002a0	85 c0		 test	 eax, eax
  002a2	74 07		 je	 SHORT $LN65@array_rich
$LN89@array_rich:
  002a4	e8 00 00 00 00	 call	 _Px_Dealloc
  002a9	eb 82		 jmp	 SHORT $LN7@array_rich
$LN65@array_rich:
  002ab	48 8b 43 58	 mov	 rax, QWORD PTR [rbx+88]
  002af	e9 73 ff ff ff	 jmp	 $LN90@array_rich
$LN60@array_rich:
  002b4	48 8b cb	 mov	 rcx, rbx
  002b7	e8 00 00 00 00	 call	 Px_DecRef

; 598  :             return NULL;

  002bc	e9 6c ff ff ff	 jmp	 $LN7@array_rich
$LN4@array_rich:

; 635  :     }
; 636  :     else if (op == Py_NE) {

  002c1	41 83 fc 03	 cmp	 r12d, 3
  002c5	75 4a		 jne	 SHORT $LN2@array_rich

; 637  :         Py_INCREF(Py_True);

  002c7	e8 00 00 00 00	 call	 _Py_PXCTX
  002cc	48 8d 3d 00 00
	00 00		 lea	 rdi, OFFSET FLAT:_Py_TrueStruct
  002d3	85 c0		 test	 eax, eax
  002d5	75 4b		 jne	 SHORT $LN1@array_rich
  002d7	48 8d 15 00 00
	00 00		 lea	 rdx, OFFSET FLAT:??_C@_0CD@HDJFDCDP@c?3?2src?2pyparallel?2include?2object@
  002de	48 8d 0d 00 00
	00 00		 lea	 rcx, OFFSET FLAT:??_C@_0L@DHGMCEID@_Py_IncRef?$AA@
  002e5	4c 8b cf	 mov	 r9, rdi
  002e8	41 b8 89 03 00
	00		 mov	 r8d, 905		; 00000389H
  002ee	c7 44 24 20 02
	00 00 00	 mov	 DWORD PTR [rsp+32], 2
  002f6	e8 00 00 00 00	 call	 _PyParallel_Guard
  002fb	85 c0		 test	 eax, eax
  002fd	75 09		 jne	 SHORT $LN75@array_rich
  002ff	f6 05 20 00 00
	00 20		 test	 BYTE PTR _Py_TrueStruct+32, 32 ; 00000020H
  00306	74 1a		 je	 SHORT $LN1@array_rich
$LN75@array_rich:
  00308	48 ff 05 50 00
	00 00		 inc	 QWORD PTR _Py_TrueStruct+80

; 638  :         res = Py_True;
; 639  :     }
; 640  :     else {

  0030f	eb 11		 jmp	 SHORT $LN1@array_rich
$LN2@array_rich:

; 641  :         /* Compare the final item again using the proper operator */
; 642  :         res = PyObject_RichCompare(vi, wi, op);

  00311	45 8b c4	 mov	 r8d, r12d
  00314	48 8b d3	 mov	 rdx, rbx
  00317	48 8b cd	 mov	 rcx, rbp
  0031a	e8 00 00 00 00	 call	 PyObject_RichCompare
  0031f	48 8b f8	 mov	 rdi, rax
$LN1@array_rich:

; 643  :     }
; 644  :     Py_DECREF(vi);

  00322	48 8b cd	 mov	 rcx, rbp
  00325	e8 00 00 00 00	 call	 _Py_DecRef

; 645  :     Py_DECREF(wi);

  0032a	48 8b cb	 mov	 rcx, rbx
  0032d	e8 00 00 00 00	 call	 _Py_DecRef

; 646  :     return res;

  00332	48 8b c7	 mov	 rax, rdi
  00335	e9 f5 fe ff ff	 jmp	 $LN87@array_rich
$LN85@array_rich:

; 610  :         /* No more items to compare -- compare sizes */
; 611  :         Py_ssize_t vs = Py_SIZE(va);

  0033a	49 8b 57 60	 mov	 rdx, QWORD PTR [r15+96]

; 612  :         Py_ssize_t ws = Py_SIZE(wa);

  0033e	4d 8b 46 60	 mov	 r8, QWORD PTR [r14+96]

; 613  :         int cmp;
; 614  :         switch (op) {

  00342	41 83 fc 05	 cmp	 r12d, 5
  00346	0f 87 e1 fe ff
	ff		 ja	 $LN7@array_rich
  0034c	4c 8d 0d 00 00
	00 00		 lea	 r9, OFFSET FLAT:__ImageBase
  00353	43 8b 8c a1 00
	00 00 00	 mov	 ecx, DWORD PTR $LN86@array_rich[r9+r12*4]
  0035b	49 03 c9	 add	 rcx, r9
  0035e	ff e1		 jmp	 rcx
$LN13@array_rich:

; 615  :         case Py_LT: cmp = vs <  ws; break;

  00360	49 3b d0	 cmp	 rdx, r8
  00363	40 0f 9c c6	 setl	 sil
  00367	eb 2b		 jmp	 SHORT $LN14@array_rich
$LN12@array_rich:

; 616  :         case Py_LE: cmp = vs <= ws; break;

  00369	49 3b d0	 cmp	 rdx, r8
  0036c	40 0f 9e c6	 setle	 sil
  00370	eb 22		 jmp	 SHORT $LN14@array_rich
$LN11@array_rich:

; 617  :         case Py_EQ: cmp = vs == ws; break;

  00372	49 3b d0	 cmp	 rdx, r8
  00375	40 0f 94 c6	 sete	 sil
  00379	eb 19		 jmp	 SHORT $LN14@array_rich
$LN10@array_rich:

; 618  :         case Py_NE: cmp = vs != ws; break;

  0037b	49 3b d0	 cmp	 rdx, r8
  0037e	40 0f 95 c6	 setne	 sil
  00382	eb 10		 jmp	 SHORT $LN14@array_rich
$LN9@array_rich:

; 619  :         case Py_GT: cmp = vs >  ws; break;

  00384	49 3b d0	 cmp	 rdx, r8
  00387	40 0f 9f c6	 setg	 sil
  0038b	eb 07		 jmp	 SHORT $LN14@array_rich
$LN8@array_rich:

; 620  :         case Py_GE: cmp = vs >= ws; break;

  0038d	49 3b d0	 cmp	 rdx, r8
  00390	40 0f 9d c6	 setge	 sil
$LN14@array_rich:

; 622  :         }
; 623  :         if (cmp)

  00394	48 8d 1d 00 00
	00 00		 lea	 rbx, OFFSET FLAT:_Py_TrueStruct
  0039b	48 8d 3d 00 00
	00 00		 lea	 rdi, OFFSET FLAT:_Py_FalseStruct
  003a2	85 f6		 test	 esi, esi
  003a4	48 0f 44 df	 cmove	 rbx, rdi

; 624  :             res = Py_True;
; 625  :         else
; 626  :             res = Py_False;
; 627  :         Py_INCREF(res);

  003a8	e8 00 00 00 00	 call	 _Py_PXCTX
  003ad	85 c0		 test	 eax, eax
  003af	75 32		 jne	 SHORT $LN68@array_rich
  003b1	48 8d 15 00 00
	00 00		 lea	 rdx, OFFSET FLAT:??_C@_0CD@HDJFDCDP@c?3?2src?2pyparallel?2include?2object@
  003b8	48 8d 0d 00 00
	00 00		 lea	 rcx, OFFSET FLAT:??_C@_0L@DHGMCEID@_Py_IncRef?$AA@
  003bf	4c 8b cb	 mov	 r9, rbx
  003c2	41 b8 89 03 00
	00		 mov	 r8d, 905		; 00000389H
  003c8	c7 44 24 20 02
	00 00 00	 mov	 DWORD PTR [rsp+32], 2
  003d0	e8 00 00 00 00	 call	 _PyParallel_Guard
  003d5	85 c0		 test	 eax, eax
  003d7	75 06		 jne	 SHORT $LN67@array_rich
  003d9	f6 43 20 20	 test	 BYTE PTR [rbx+32], 32	; 00000020H
  003dd	74 04		 je	 SHORT $LN68@array_rich
$LN67@array_rich:
  003df	48 ff 43 50	 inc	 QWORD PTR [rbx+80]
$LN68@array_rich:

; 628  :         return res;

  003e3	48 8b c3	 mov	 rax, rbx
  003e6	e9 44 fe ff ff	 jmp	 $LN87@array_rich
  003eb	90		 npad	 1
$LN86@array_rich:

; 647  : }

  003ec	00 00 00 00	 DD	 $LN13@array_rich
  003f0	00 00 00 00	 DD	 $LN12@array_rich
  003f4	00 00 00 00	 DD	 $LN11@array_rich
  003f8	00 00 00 00	 DD	 $LN10@array_rich
  003fc	00 00 00 00	 DD	 $LN9@array_rich
  00400	00 00 00 00	 DD	 $LN8@array_rich
array_richcompare ENDP
; Function compile flags: /Ogtpy
_TEXT	ENDS
;	COMDAT array_length
_TEXT	SEGMENT
a$ = 8
array_length PROC					; COMDAT

; 652  :     return Py_SIZE(a);

  00000	48 8b 41 60	 mov	 rax, QWORD PTR [rcx+96]

; 653  : }

  00004	c3		 ret	 0
array_length ENDP
_TEXT	ENDS
PUBLIC	??_C@_0BJ@FONIJAGJ@array?5index?5out?5of?5range?$AA@ ; `string'
EXTRN	PyExc_IndexError:QWORD
;	COMDAT pdata
pdata	SEGMENT
$pdata$array_item DD imagerel array_item
	DD	imagerel array_item+50
	DD	imagerel $unwind$array_item
pdata	ENDS
;	COMDAT xdata
xdata	SEGMENT
$unwind$array_item DD 010401H
	DD	04204H
xdata	ENDS
;	COMDAT ??_C@_0BJ@FONIJAGJ@array?5index?5out?5of?5range?$AA@
CONST	SEGMENT
??_C@_0BJ@FONIJAGJ@array?5index?5out?5of?5range?$AA@ DB 'array index out '
	DB	'of range', 00H				; `string'
; Function compile flags: /Ogtpy
CONST	ENDS
;	COMDAT array_item
_TEXT	SEGMENT
a$ = 48
i$ = 56
array_item PROC						; COMDAT

; 657  : {

  00000	48 83 ec 28	 sub	 rsp, 40			; 00000028H

; 658  :     if (i < 0 || i >= Py_SIZE(a)) {

  00004	48 85 d2	 test	 rdx, rdx
  00007	78 0f		 js	 SHORT $LN1@array_item
  00009	48 3b 51 60	 cmp	 rdx, QWORD PTR [rcx+96]
  0000d	7d 09		 jge	 SHORT $LN1@array_item

; 661  :     }
; 662  :     return getarrayitem((PyObject *)a, i);
; 663  : }

  0000f	48 83 c4 28	 add	 rsp, 40			; 00000028H
  00013	e9 00 00 00 00	 jmp	 getarrayitem
$LN1@array_item:

; 659  :         PyErr_SetString(PyExc_IndexError, "array index out of range");

  00018	48 8b 0d 00 00
	00 00		 mov	 rcx, QWORD PTR PyExc_IndexError
  0001f	48 8d 15 00 00
	00 00		 lea	 rdx, OFFSET FLAT:??_C@_0BJ@FONIJAGJ@array?5index?5out?5of?5range?$AA@
  00026	e8 00 00 00 00	 call	 PyErr_SetString

; 660  :         return NULL;

  0002b	33 c0		 xor	 eax, eax

; 661  :     }
; 662  :     return getarrayitem((PyObject *)a, i);
; 663  : }

  0002d	48 83 c4 28	 add	 rsp, 40			; 00000028H
  00031	c3		 ret	 0
array_item ENDP
_TEXT	ENDS
EXTRN	memcpy:PROC
;	COMDAT pdata
pdata	SEGMENT
$pdata$array_slice DD imagerel array_slice
	DD	imagerel array_slice+171
	DD	imagerel $unwind$array_slice
pdata	ENDS
;	COMDAT xdata
xdata	SEGMENT
$unwind$array_slice DD 081401H
	DD	086414H
	DD	075414H
	DD	063414H
	DD	070103214H
; Function compile flags: /Ogtpy
xdata	ENDS
;	COMDAT array_slice
_TEXT	SEGMENT
a$ = 48
ilow$ = 56
ihigh$ = 64
array_slice PROC					; COMDAT

; 667  : {

  00000	48 89 5c 24 08	 mov	 QWORD PTR [rsp+8], rbx
  00005	48 89 6c 24 10	 mov	 QWORD PTR [rsp+16], rbp
  0000a	48 89 74 24 18	 mov	 QWORD PTR [rsp+24], rsi
  0000f	57		 push	 rdi
  00010	48 83 ec 20	 sub	 rsp, 32			; 00000020H
  00014	48 8b f1	 mov	 rsi, rcx

; 668  :     arrayobject *np;
; 669  :     if (ilow < 0)

  00017	33 c9		 xor	 ecx, ecx
  00019	49 8b d8	 mov	 rbx, r8
  0001c	48 8b fa	 mov	 rdi, rdx
  0001f	48 85 d2	 test	 rdx, rdx
  00022	79 04		 jns	 SHORT $LN8@array_slic

; 670  :         ilow = 0;

  00024	8b f9		 mov	 edi, ecx
  00026	eb 0b		 jmp	 SHORT $LN6@array_slic
$LN8@array_slic:

; 671  :     else if (ilow > Py_SIZE(a))

  00028	48 8b 46 60	 mov	 rax, QWORD PTR [rsi+96]
  0002c	48 3b d0	 cmp	 rdx, rax
  0002f	48 0f 4f f8	 cmovg	 rdi, rax
$LN6@array_slic:

; 672  :         ilow = Py_SIZE(a);
; 673  :     if (ihigh < 0)

  00033	48 85 db	 test	 rbx, rbx
  00036	48 0f 48 d9	 cmovs	 rbx, rcx

; 674  :         ihigh = 0;
; 675  :     if (ihigh < ilow)

  0003a	48 3b df	 cmp	 rbx, rdi
  0003d	7d 05		 jge	 SHORT $LN4@array_slic

; 676  :         ihigh = ilow;

  0003f	48 8b df	 mov	 rbx, rdi
  00042	eb 0b		 jmp	 SHORT $LN2@array_slic
$LN4@array_slic:

; 677  :     else if (ihigh > Py_SIZE(a))

  00044	48 8b 46 60	 mov	 rax, QWORD PTR [rsi+96]
  00048	48 3b d8	 cmp	 rbx, rax
  0004b	48 0f 4f d8	 cmovg	 rbx, rax
$LN2@array_slic:

; 678  :         ihigh = Py_SIZE(a);
; 679  :     np = (arrayobject *) newarrayobject(&Arraytype, ihigh - ilow, a->ob_descr);

  0004f	4c 8b 86 80 00
	00 00		 mov	 r8, QWORD PTR [rsi+128]
  00056	48 2b df	 sub	 rbx, rdi
  00059	48 8d 0d 00 00
	00 00		 lea	 rcx, OFFSET FLAT:Arraytype
  00060	48 8b d3	 mov	 rdx, rbx
  00063	e8 00 00 00 00	 call	 newarrayobject
  00068	48 8b e8	 mov	 rbp, rax

; 680  :     if (np == NULL)

  0006b	48 85 c0	 test	 rax, rax
  0006e	74 26		 je	 SHORT $LN9@array_slic
$LN1@array_slic:

; 681  :         return NULL;
; 682  :     memcpy(np->ob_item, a->ob_item + ilow * a->ob_descr->itemsize,
; 683  :            (ihigh-ilow) * a->ob_descr->itemsize);

  00070	48 8b 86 80 00
	00 00		 mov	 rax, QWORD PTR [rsi+128]
  00077	48 8b 4d 70	 mov	 rcx, QWORD PTR [rbp+112]
  0007b	48 63 50 04	 movsxd	 rdx, DWORD PTR [rax+4]
  0007f	4c 8b c2	 mov	 r8, rdx
  00082	48 0f af d7	 imul	 rdx, rdi
  00086	4c 0f af c3	 imul	 r8, rbx
  0008a	48 03 56 70	 add	 rdx, QWORD PTR [rsi+112]
  0008e	e8 00 00 00 00	 call	 memcpy

; 684  :     return (PyObject *)np;

  00093	48 8b c5	 mov	 rax, rbp
$LN9@array_slic:

; 685  : }

  00096	48 8b 5c 24 30	 mov	 rbx, QWORD PTR [rsp+48]
  0009b	48 8b 6c 24 38	 mov	 rbp, QWORD PTR [rsp+56]
  000a0	48 8b 74 24 40	 mov	 rsi, QWORD PTR [rsp+64]
  000a5	48 83 c4 20	 add	 rsp, 32			; 00000020H
  000a9	5f		 pop	 rdi
  000aa	c3		 ret	 0
array_slice ENDP
; Function compile flags: /Ogtpy
_TEXT	ENDS
;	COMDAT array_copy
_TEXT	SEGMENT
a$ = 8
unused$ = 16
array_copy PROC						; COMDAT

; 690  :     return array_slice(a, 0, Py_SIZE(a));

  00000	4c 8b 41 60	 mov	 r8, QWORD PTR [rcx+96]
  00004	33 d2		 xor	 edx, edx

; 691  : }

  00006	e9 00 00 00 00	 jmp	 array_slice
array_copy ENDP
_TEXT	ENDS
PUBLIC	??_C@_0CO@HGBNJIFC@can?5only?5append?5array?5?$CInot?5?$CC?$CF?420@ ; `string'
EXTRN	PyErr_BadArgument:PROC
EXTRN	PyErr_Format:PROC
;	COMDAT pdata
pdata	SEGMENT
$pdata$array_concat DD imagerel array_concat
	DD	imagerel array_concat+291
	DD	imagerel $unwind$array_concat
pdata	ENDS
;	COMDAT xdata
xdata	SEGMENT
$unwind$array_concat DD 060f01H
	DD	07640fH
	DD	06340fH
	DD	0700b320fH
xdata	ENDS
;	COMDAT ??_C@_0CO@HGBNJIFC@can?5only?5append?5array?5?$CInot?5?$CC?$CF?420@
CONST	SEGMENT
??_C@_0CO@HGBNJIFC@can?5only?5append?5array?5?$CInot?5?$CC?$CF?420@ DB 'c'
	DB	'an only append array (not "%.200s") to array', 00H ; `string'
; Function compile flags: /Ogtpy
CONST	ENDS
;	COMDAT array_concat
_TEXT	SEGMENT
a$ = 48
bb$ = 56
array_concat PROC					; COMDAT

; 700  : {

  00000	48 89 5c 24 08	 mov	 QWORD PTR [rsp+8], rbx
  00005	48 89 74 24 10	 mov	 QWORD PTR [rsp+16], rsi
  0000a	57		 push	 rdi
  0000b	48 83 ec 20	 sub	 rsp, 32			; 00000020H
  0000f	48 8b f9	 mov	 rdi, rcx

; 701  :     Py_ssize_t size;
; 702  :     arrayobject *np;
; 703  :     if (!array_Check(bb)) {

  00012	48 8b 4a 58	 mov	 rcx, QWORD PTR [rdx+88]
  00016	48 8d 35 00 00
	00 00		 lea	 rsi, OFFSET FLAT:Arraytype
  0001d	48 8b da	 mov	 rbx, rdx
  00020	48 3b ce	 cmp	 rcx, rsi
  00023	74 39		 je	 SHORT $LN4@array_conc
  00025	48 8b d6	 mov	 rdx, rsi
  00028	e8 00 00 00 00	 call	 PyType_IsSubtype
  0002d	85 c0		 test	 eax, eax
  0002f	75 2d		 jne	 SHORT $LN4@array_conc

; 704  :         PyErr_Format(PyExc_TypeError,
; 705  :              "can only append array (not \"%.200s\") to array",
; 706  :                  Py_TYPE(bb)->tp_name);

  00031	4c 8b 43 58	 mov	 r8, QWORD PTR [rbx+88]
  00035	48 8b 0d 00 00
	00 00		 mov	 rcx, QWORD PTR PyExc_TypeError
  0003c	48 8d 15 00 00
	00 00		 lea	 rdx, OFFSET FLAT:??_C@_0CO@HGBNJIFC@can?5only?5append?5array?5?$CInot?5?$CC?$CF?420@
  00043	4d 8b 40 70	 mov	 r8, QWORD PTR [r8+112]
  00047	e8 00 00 00 00	 call	 PyErr_Format
$LN7@array_conc:

; 707  :         return NULL;

  0004c	33 c0		 xor	 eax, eax

; 725  :     return (PyObject *)np;
; 726  : #undef b
; 727  : }

  0004e	48 8b 5c 24 30	 mov	 rbx, QWORD PTR [rsp+48]
  00053	48 8b 74 24 38	 mov	 rsi, QWORD PTR [rsp+56]
  00058	48 83 c4 20	 add	 rsp, 32			; 00000020H
  0005c	5f		 pop	 rdi
  0005d	c3		 ret	 0
$LN4@array_conc:

; 708  :     }
; 709  : #define b ((arrayobject *)bb)
; 710  :     if (a->ob_descr != b->ob_descr) {

  0005e	4c 8b 87 80 00
	00 00		 mov	 r8, QWORD PTR [rdi+128]
  00065	4c 3b 83 80 00
	00 00		 cmp	 r8, QWORD PTR [rbx+128]
  0006c	74 17		 je	 SHORT $LN3@array_conc

; 711  :         PyErr_BadArgument();

  0006e	e8 00 00 00 00	 call	 PyErr_BadArgument

; 712  :         return NULL;

  00073	33 c0		 xor	 eax, eax

; 725  :     return (PyObject *)np;
; 726  : #undef b
; 727  : }

  00075	48 8b 5c 24 30	 mov	 rbx, QWORD PTR [rsp+48]
  0007a	48 8b 74 24 38	 mov	 rsi, QWORD PTR [rsp+56]
  0007f	48 83 c4 20	 add	 rsp, 32			; 00000020H
  00083	5f		 pop	 rdi
  00084	c3		 ret	 0
$LN3@array_conc:

; 713  :     }
; 714  :     if (Py_SIZE(a) > PY_SSIZE_T_MAX - Py_SIZE(b)) {

  00085	48 8b 4b 60	 mov	 rcx, QWORD PTR [rbx+96]
  00089	48 8b 57 60	 mov	 rdx, QWORD PTR [rdi+96]
  0008d	48 b8 ff ff ff
	ff ff ff ff 7f	 mov	 rax, 9223372036854775807 ; 7fffffffffffffffH
  00097	48 2b c1	 sub	 rax, rcx
  0009a	48 3b d0	 cmp	 rdx, rax
  0009d	7e 14		 jle	 SHORT $LN2@array_conc

; 725  :     return (PyObject *)np;
; 726  : #undef b
; 727  : }

  0009f	48 8b 5c 24 30	 mov	 rbx, QWORD PTR [rsp+48]
  000a4	48 8b 74 24 38	 mov	 rsi, QWORD PTR [rsp+56]
  000a9	48 83 c4 20	 add	 rsp, 32			; 00000020H
  000ad	5f		 pop	 rdi
  000ae	e9 00 00 00 00	 jmp	 PyErr_NoMemory
$LN2@array_conc:

; 715  :         return PyErr_NoMemory();
; 716  :     }
; 717  :     size = Py_SIZE(a) + Py_SIZE(b);

  000b3	48 03 d1	 add	 rdx, rcx

; 718  :     np = (arrayobject *) newarrayobject(&Arraytype, size, a->ob_descr);

  000b6	48 8b ce	 mov	 rcx, rsi
  000b9	e8 00 00 00 00	 call	 newarrayobject
  000be	48 8b f0	 mov	 rsi, rax

; 719  :     if (np == NULL) {

  000c1	48 85 c0	 test	 rax, rax

; 720  :         return NULL;

  000c4	74 86		 je	 SHORT $LN7@array_conc

; 721  :     }
; 722  :     memcpy(np->ob_item, a->ob_item, Py_SIZE(a)*a->ob_descr->itemsize);

  000c6	48 8b 87 80 00
	00 00		 mov	 rax, QWORD PTR [rdi+128]
  000cd	48 8b 57 70	 mov	 rdx, QWORD PTR [rdi+112]
  000d1	48 8b 4e 70	 mov	 rcx, QWORD PTR [rsi+112]
  000d5	4c 63 40 04	 movsxd	 r8, DWORD PTR [rax+4]
  000d9	4c 0f af 47 60	 imul	 r8, QWORD PTR [rdi+96]
  000de	e8 00 00 00 00	 call	 memcpy

; 723  :     memcpy(np->ob_item + Py_SIZE(a)*a->ob_descr->itemsize,
; 724  :            b->ob_item, Py_SIZE(b)*b->ob_descr->itemsize);

  000e3	48 8b 87 80 00
	00 00		 mov	 rax, QWORD PTR [rdi+128]
  000ea	4c 8b 9b 80 00
	00 00		 mov	 r11, QWORD PTR [rbx+128]
  000f1	48 63 48 04	 movsxd	 rcx, DWORD PTR [rax+4]
  000f5	4d 63 43 04	 movsxd	 r8, DWORD PTR [r11+4]
  000f9	48 8b 53 70	 mov	 rdx, QWORD PTR [rbx+112]
  000fd	48 0f af 4f 60	 imul	 rcx, QWORD PTR [rdi+96]
  00102	4c 0f af 43 60	 imul	 r8, QWORD PTR [rbx+96]
  00107	48 03 4e 70	 add	 rcx, QWORD PTR [rsi+112]
  0010b	e8 00 00 00 00	 call	 memcpy

; 725  :     return (PyObject *)np;
; 726  : #undef b
; 727  : }

  00110	48 8b 5c 24 30	 mov	 rbx, QWORD PTR [rsp+48]
  00115	48 8b c6	 mov	 rax, rsi
  00118	48 8b 74 24 38	 mov	 rsi, QWORD PTR [rsp+56]
  0011d	48 83 c4 20	 add	 rsp, 32			; 00000020H
  00121	5f		 pop	 rdi
  00122	c3		 ret	 0
array_concat ENDP
_TEXT	ENDS
EXTRN	memset:PROC
;	COMDAT pdata
pdata	SEGMENT
$pdata$array_repeat DD imagerel array_repeat
	DD	imagerel array_repeat+80
	DD	imagerel $unwind$array_repeat
pdata	ENDS
;	COMDAT pdata
pdata	SEGMENT
$pdata$0$array_repeat DD imagerel array_repeat+80
	DD	imagerel array_repeat+124
	DD	imagerel $chain$0$array_repeat
pdata	ENDS
;	COMDAT pdata
pdata	SEGMENT
$pdata$2$array_repeat DD imagerel array_repeat+124
	DD	imagerel array_repeat+145
	DD	imagerel $chain$2$array_repeat
pdata	ENDS
;	COMDAT pdata
pdata	SEGMENT
$pdata$4$array_repeat DD imagerel array_repeat+145
	DD	imagerel array_repeat+373
	DD	imagerel $chain$4$array_repeat
pdata	ENDS
;	COMDAT pdata
pdata	SEGMENT
$pdata$5$array_repeat DD imagerel array_repeat+373
	DD	imagerel array_repeat+389
	DD	imagerel $chain$5$array_repeat
pdata	ENDS
;	COMDAT xdata
xdata	SEGMENT
$chain$5$array_repeat DD 021H
	DD	imagerel array_repeat+124
	DD	imagerel array_repeat+145
	DD	imagerel $chain$2$array_repeat
xdata	ENDS
;	COMDAT xdata
xdata	SEGMENT
$chain$4$array_repeat DD 040e21H
	DD	07540eH
	DD	063405H
	DD	imagerel array_repeat+124
	DD	imagerel array_repeat+145
	DD	imagerel $chain$2$array_repeat
xdata	ENDS
;	COMDAT xdata
xdata	SEGMENT
$chain$2$array_repeat DD 020021H
	DD	08c400H
	DD	imagerel array_repeat
	DD	imagerel array_repeat+80
	DD	imagerel $unwind$array_repeat
xdata	ENDS
;	COMDAT xdata
xdata	SEGMENT
$chain$0$array_repeat DD 020521H
	DD	08c405H
	DD	imagerel array_repeat
	DD	imagerel array_repeat+80
	DD	imagerel $unwind$array_repeat
xdata	ENDS
;	COMDAT xdata
xdata	SEGMENT
$unwind$array_repeat DD 040a01H
	DD	09640aH
	DD	07006320aH
; Function compile flags: /Ogtpy
xdata	ENDS
;	COMDAT array_repeat
_TEXT	SEGMENT
a$ = 48
n$ = 56
array_repeat PROC					; COMDAT

; 731  : {

  00000	48 89 74 24 20	 mov	 QWORD PTR [rsp+32], rsi
  00005	57		 push	 rdi
  00006	48 83 ec 20	 sub	 rsp, 32			; 00000020H

; 732  :     Py_ssize_t size;
; 733  :     arrayobject *np;
; 734  :     Py_ssize_t oldbytes, newbytes;
; 735  :     if (n < 0)

  0000a	33 c0		 xor	 eax, eax
  0000c	48 85 d2	 test	 rdx, rdx
  0000f	48 8b f1	 mov	 rsi, rcx

; 736  :         n = 0;
; 737  :     if ((Py_SIZE(a) != 0) && (n > PY_SSIZE_T_MAX / Py_SIZE(a))) {

  00012	48 8b 49 60	 mov	 rcx, QWORD PTR [rcx+96]
  00016	48 8b fa	 mov	 rdi, rdx
  00019	48 0f 48 f8	 cmovs	 rdi, rax
  0001d	48 85 c9	 test	 rcx, rcx
  00020	74 23		 je	 SHORT $LN23@array_repe
  00022	48 b8 ff ff ff
	ff ff ff ff 7f	 mov	 rax, 9223372036854775807 ; 7fffffffffffffffH
  0002c	48 99		 cdq
  0002e	48 f7 f9	 idiv	 rcx
  00031	48 3b f8	 cmp	 rdi, rax
  00034	7e 0f		 jle	 SHORT $LN23@array_repe

; 761  : }

  00036	48 8b 74 24 48	 mov	 rsi, QWORD PTR [rsp+72]
  0003b	48 83 c4 20	 add	 rsp, 32			; 00000020H
  0003f	5f		 pop	 rdi
  00040	e9 00 00 00 00	 jmp	 PyErr_NoMemory
$LN23@array_repe:

; 738  :         return PyErr_NoMemory();
; 739  :     }
; 740  :     size = Py_SIZE(a) * n;
; 741  :     np = (arrayobject *) newarrayobject(&Arraytype, size, a->ob_descr);

  00045	4c 8b 86 80 00
	00 00		 mov	 r8, QWORD PTR [rsi+128]
  0004c	48 0f af cf	 imul	 rcx, rdi
  00050	4c 89 64 24 40	 mov	 QWORD PTR [rsp+64], r12
  00055	48 8b d1	 mov	 rdx, rcx
  00058	48 8d 0d 00 00
	00 00		 lea	 rcx, OFFSET FLAT:Arraytype
  0005f	e8 00 00 00 00	 call	 newarrayobject
  00064	4c 8b e0	 mov	 r12, rax

; 742  :     if (np == NULL)

  00067	48 85 c0	 test	 rax, rax
  0006a	75 10		 jne	 SHORT $LN22@array_repe
  0006c	4c 8b 64 24 40	 mov	 r12, QWORD PTR [rsp+64]

; 761  : }

  00071	48 8b 74 24 48	 mov	 rsi, QWORD PTR [rsp+72]
  00076	48 83 c4 20	 add	 rsp, 32			; 00000020H
  0007a	5f		 pop	 rdi
  0007b	c3		 ret	 0
$LN22@array_repe:

; 743  :         return NULL;
; 744  :     if (n == 0)

  0007c	48 85 ff	 test	 rdi, rdi

; 745  :         return (PyObject *)np;

  0007f	0f 84 f0 00 00
	00		 je	 $LN35@array_repe

; 746  :     oldbytes = Py_SIZE(a) * a->ob_descr->itemsize;

  00085	48 8b 86 80 00
	00 00		 mov	 rax, QWORD PTR [rsi+128]

; 747  :     newbytes = oldbytes * n;
; 748  :     /* this follows the code in unicode_repeat */
; 749  :     if (oldbytes == 1) {
; 750  :         memset(np->ob_item, a->ob_item[0], newbytes);

  0008c	49 8b 4c 24 70	 mov	 rcx, QWORD PTR [r12+112]
  00091	48 89 5c 24 30	 mov	 QWORD PTR [rsp+48], rbx
  00096	48 63 58 04	 movsxd	 rbx, DWORD PTR [rax+4]
  0009a	48 89 6c 24 38	 mov	 QWORD PTR [rsp+56], rbp
  0009f	48 0f af 5e 60	 imul	 rbx, QWORD PTR [rsi+96]
  000a4	48 8b eb	 mov	 rbp, rbx
  000a7	48 0f af ef	 imul	 rbp, rdi
  000ab	48 83 fb 01	 cmp	 rbx, 1
  000af	75 14		 jne	 SHORT $LN20@array_repe
  000b1	48 8b 46 70	 mov	 rax, QWORD PTR [rsi+112]
  000b5	4c 8b c5	 mov	 r8, rbp
  000b8	0f be 10	 movsx	 edx, BYTE PTR [rax]
  000bb	e8 00 00 00 00	 call	 memset

; 751  :     } else {

  000c0	e9 a3 00 00 00	 jmp	 $LN9@array_repe
$LN20@array_repe:

; 752  :         Py_ssize_t done = oldbytes;
; 753  :         Py_MEMCPY(np->ob_item, a->ob_item, oldbytes);

  000c5	4c 8b 4e 70	 mov	 r9, QWORD PTR [rsi+112]
  000c9	48 83 fb 10	 cmp	 rbx, 16
  000cd	72 0d		 jb	 SHORT $LN15@array_repe
  000cf	4c 8b c3	 mov	 r8, rbx
  000d2	49 8b d1	 mov	 rdx, r9
  000d5	e8 00 00 00 00	 call	 memcpy
  000da	eb 24		 jmp	 SHORT $LN17@array_repe
$LN15@array_repe:
  000dc	48 85 db	 test	 rbx, rbx
  000df	74 1f		 je	 SHORT $LN17@array_repe
  000e1	4c 2b c9	 sub	 r9, rcx
  000e4	48 8b d3	 mov	 rdx, rbx
  000e7	66 0f 1f 84 00
	00 00 00 00	 npad	 9
$LL13@array_repe:
  000f0	41 0f b6 04 09	 movzx	 eax, BYTE PTR [r9+rcx]
  000f5	48 ff c1	 inc	 rcx
  000f8	48 ff ca	 dec	 rdx
  000fb	88 41 ff	 mov	 BYTE PTR [rcx-1], al
  000fe	75 f0		 jne	 SHORT $LL13@array_repe
$LN17@array_repe:

; 754  :         while (done < newbytes) {

  00100	48 3b dd	 cmp	 rbx, rbp
  00103	7d 63		 jge	 SHORT $LN9@array_repe
  00105	66 66 66 0f 1f
	84 00 00 00 00
	00		 npad	 11
$LL10@array_repe:

; 755  :             Py_ssize_t ncopy = (done <= newbytes-done) ? done : newbytes-done;
; 756  :             Py_MEMCPY(np->ob_item+done, np->ob_item, ncopy);

  00110	4d 8b 4c 24 70	 mov	 r9, QWORD PTR [r12+112]
  00115	48 8b fd	 mov	 rdi, rbp
  00118	48 2b fb	 sub	 rdi, rbx
  0011b	49 8d 0c 19	 lea	 rcx, QWORD PTR [r9+rbx]
  0011f	48 3b df	 cmp	 rbx, rdi
  00122	48 0f 4e fb	 cmovle	 rdi, rbx
  00126	48 83 ff 10	 cmp	 rdi, 16
  0012a	72 0d		 jb	 SHORT $LN5@array_repe
  0012c	4c 8b c7	 mov	 r8, rdi
  0012f	49 8b d1	 mov	 rdx, r9
  00132	e8 00 00 00 00	 call	 memcpy
  00137	eb 27		 jmp	 SHORT $LN7@array_repe
$LN5@array_repe:
  00139	48 85 ff	 test	 rdi, rdi
  0013c	74 22		 je	 SHORT $LN7@array_repe
  0013e	4c 2b c9	 sub	 r9, rcx
  00141	48 8b d7	 mov	 rdx, rdi
  00144	66 66 66 66 0f
	1f 84 00 00 00
	00 00		 npad	 12
$LL3@array_repe:
  00150	41 0f b6 04 09	 movzx	 eax, BYTE PTR [r9+rcx]
  00155	48 ff c1	 inc	 rcx
  00158	48 ff ca	 dec	 rdx
  0015b	88 41 ff	 mov	 BYTE PTR [rcx-1], al
  0015e	75 f0		 jne	 SHORT $LL3@array_repe
$LN7@array_repe:

; 757  :             done += ncopy;

  00160	48 03 df	 add	 rbx, rdi
  00163	48 3b dd	 cmp	 rbx, rbp
  00166	7c a8		 jl	 SHORT $LL10@array_repe
$LN9@array_repe:
  00168	48 8b 6c 24 38	 mov	 rbp, QWORD PTR [rsp+56]
  0016d	48 8b 5c 24 30	 mov	 rbx, QWORD PTR [rsp+48]

; 758  :         }
; 759  :     }
; 760  :     return (PyObject *)np;

  00172	49 8b c4	 mov	 rax, r12
$LN35@array_repe:
  00175	4c 8b 64 24 40	 mov	 r12, QWORD PTR [rsp+64]

; 761  : }

  0017a	48 8b 74 24 48	 mov	 rsi, QWORD PTR [rsp+72]
  0017f	48 83 c4 20	 add	 rsp, 32			; 00000020H
  00183	5f		 pop	 rdi
  00184	c3		 ret	 0
array_repeat ENDP
_TEXT	ENDS
PUBLIC	??_C@_0DE@JBAHFOA@can?5only?5assign?5array?5?$CInot?5?$CC?$CF?420@ ; `string'
;	COMDAT pdata
pdata	SEGMENT
$pdata$array_ass_slice DD imagerel array_ass_slice
	DD	imagerel array_ass_slice+573
	DD	imagerel $unwind$array_ass_slice
pdata	ENDS
;	COMDAT xdata
xdata	SEGMENT
$unwind$array_ass_slice DD 081401H
	DD	0a6414H
	DD	095414H
	DD	083414H
	DD	070105214H
xdata	ENDS
;	COMDAT ??_C@_0DE@JBAHFOA@can?5only?5assign?5array?5?$CInot?5?$CC?$CF?420@
CONST	SEGMENT
??_C@_0DE@JBAHFOA@can?5only?5assign?5array?5?$CInot?5?$CC?$CF?420@ DB 'ca'
	DB	'n only assign array (not "%.200s") to array slice', 00H ; `string'
; Function compile flags: /Ogtpy
CONST	ENDS
;	COMDAT array_ass_slice
_TEXT	SEGMENT
d$1$ = 32
n$1$ = 40
a$ = 64
ilow$ = 72
ihigh$ = 80
item$1$ = 88
v$ = 88
array_ass_slice PROC					; COMDAT

; 765  : {

  00000	48 89 5c 24 08	 mov	 QWORD PTR [rsp+8], rbx
  00005	48 89 6c 24 10	 mov	 QWORD PTR [rsp+16], rbp
  0000a	48 89 74 24 18	 mov	 QWORD PTR [rsp+24], rsi
  0000f	57		 push	 rdi
  00010	48 83 ec 30	 sub	 rsp, 48			; 00000030H
  00014	48 8b f2	 mov	 rsi, rdx

; 766  :     char *item;
; 767  :     Py_ssize_t n; /* Size of replacement array */
; 768  :     Py_ssize_t d; /* Change in size */
; 769  : #define b ((arrayobject *)v)
; 770  :     if (v == NULL)

  00017	33 d2		 xor	 edx, edx
  00019	49 8b e9	 mov	 rbp, r9
  0001c	49 8b d8	 mov	 rbx, r8
  0001f	48 8b f9	 mov	 rdi, rcx
  00022	4d 85 c9	 test	 r9, r9
  00025	75 18		 jne	 SHORT $LN22@array_ass_

; 771  :         n = 0;

  00027	8b ca		 mov	 ecx, edx
  00029	48 89 54 24 28	 mov	 QWORD PTR n$1$[rsp], rdx
$LN16@array_ass_:

; 794  :     }
; 795  :     if (ilow < 0)

  0002e	48 85 f6	 test	 rsi, rsi
  00031	0f 89 af 00 00
	00		 jns	 $LN14@array_ass_

; 796  :         ilow = 0;

  00037	48 8b f2	 mov	 rsi, rdx
  0003a	e9 b2 00 00 00	 jmp	 $LN12@array_ass_
$LN22@array_ass_:

; 772  :     else if (array_Check(v)) {

  0003f	49 8b 49 58	 mov	 rcx, QWORD PTR [r9+88]
  00043	48 8d 05 00 00
	00 00		 lea	 rax, OFFSET FLAT:Arraytype
  0004a	48 3b c8	 cmp	 rcx, rax
  0004d	74 31		 je	 SHORT $LN19@array_ass_
  0004f	48 8b d0	 mov	 rdx, rax
  00052	e8 00 00 00 00	 call	 PyType_IsSubtype
  00057	85 c0		 test	 eax, eax
  00059	75 23		 jne	 SHORT $LN26@array_ass_

; 787  :         }
; 788  :     }
; 789  :     else {
; 790  :         PyErr_Format(PyExc_TypeError,
; 791  :          "can only assign array (not \"%.200s\") to array slice",
; 792  :                          Py_TYPE(v)->tp_name);

  0005b	4c 8b 45 58	 mov	 r8, QWORD PTR [rbp+88]
  0005f	48 8b 0d 00 00
	00 00		 mov	 rcx, QWORD PTR PyExc_TypeError
  00066	48 8d 15 00 00
	00 00		 lea	 rdx, OFFSET FLAT:??_C@_0DE@JBAHFOA@can?5only?5assign?5array?5?$CInot?5?$CC?$CF?420@
  0006d	4d 8b 40 70	 mov	 r8, QWORD PTR [r8+112]
  00071	e8 00 00 00 00	 call	 PyErr_Format

; 793  :         return -1;

  00076	83 c8 ff	 or	 eax, -1
  00079	e9 aa 01 00 00	 jmp	 $LN23@array_ass_
$LN26@array_ass_:

; 804  :         ihigh = Py_SIZE(a);
; 805  :     item = a->ob_item;

  0007e	33 d2		 xor	 edx, edx
$LN19@array_ass_:

; 773  :         n = Py_SIZE(b);

  00080	48 8b 4d 60	 mov	 rcx, QWORD PTR [rbp+96]
  00084	48 89 4c 24 28	 mov	 QWORD PTR n$1$[rsp], rcx

; 774  :         if (a == b) {

  00089	48 3b fd	 cmp	 rdi, rbp
  0008c	75 37		 jne	 SHORT $LN18@array_ass_

; 775  :             /* Special case "a[i:j] = a" -- copy b first */
; 776  :             int ret;
; 777  :             v = array_slice(b, 0, n);

  0008e	4c 8b c1	 mov	 r8, rcx
  00091	33 d2		 xor	 edx, edx
  00093	48 8b cd	 mov	 rcx, rbp
  00096	e8 00 00 00 00	 call	 array_slice
  0009b	48 8b e8	 mov	 rbp, rax

; 778  :             if (!v)

  0009e	48 85 c0	 test	 rax, rax

; 779  :                 return -1;

  000a1	74 3b		 je	 SHORT $LN28@array_ass_

; 780  :             ret = array_ass_slice(a, ilow, ihigh, v);

  000a3	4c 8b c8	 mov	 r9, rax
  000a6	4c 8b c3	 mov	 r8, rbx
  000a9	48 8b d6	 mov	 rdx, rsi
  000ac	48 8b cf	 mov	 rcx, rdi
  000af	e8 00 00 00 00	 call	 array_ass_slice

; 781  :             Py_DECREF(v);

  000b4	48 8b cd	 mov	 rcx, rbp
  000b7	8b d8		 mov	 ebx, eax
  000b9	e8 00 00 00 00	 call	 _Py_DecRef

; 782  :             return ret;

  000be	8b c3		 mov	 eax, ebx
  000c0	e9 63 01 00 00	 jmp	 $LN23@array_ass_
$LN18@array_ass_:

; 783  :         }
; 784  :         if (b->ob_descr != a->ob_descr) {

  000c5	48 8b 87 80 00
	00 00		 mov	 rax, QWORD PTR [rdi+128]
  000cc	48 39 85 80 00
	00 00		 cmp	 QWORD PTR [rbp+128], rax
  000d3	0f 84 55 ff ff
	ff		 je	 $LN16@array_ass_

; 785  :             PyErr_BadArgument();

  000d9	e8 00 00 00 00	 call	 PyErr_BadArgument
$LN28@array_ass_:

; 786  :             return -1;

  000de	83 c8 ff	 or	 eax, -1
  000e1	e9 42 01 00 00	 jmp	 $LN23@array_ass_
$LN14@array_ass_:

; 797  :     else if (ilow > Py_SIZE(a))

  000e6	48 8b 47 60	 mov	 rax, QWORD PTR [rdi+96]
  000ea	48 3b f0	 cmp	 rsi, rax
  000ed	48 0f 4f f0	 cmovg	 rsi, rax
$LN12@array_ass_:

; 798  :         ilow = Py_SIZE(a);
; 799  :     if (ihigh < 0)

  000f1	48 85 db	 test	 rbx, rbx
  000f4	48 0f 48 da	 cmovs	 rbx, rdx

; 800  :         ihigh = 0;
; 801  :     if (ihigh < ilow)

  000f8	48 3b de	 cmp	 rbx, rsi
  000fb	7d 05		 jge	 SHORT $LN10@array_ass_

; 802  :         ihigh = ilow;

  000fd	48 8b de	 mov	 rbx, rsi
  00100	eb 0b		 jmp	 SHORT $LN8@array_ass_
$LN10@array_ass_:

; 803  :     else if (ihigh > Py_SIZE(a))

  00102	48 8b 47 60	 mov	 rax, QWORD PTR [rdi+96]
  00106	48 3b d8	 cmp	 rbx, rax
  00109	48 0f 4f d8	 cmovg	 rbx, rax
$LN8@array_ass_:

; 804  :         ihigh = Py_SIZE(a);
; 805  :     item = a->ob_item;

  0010d	4c 8b 57 70	 mov	 r10, QWORD PTR [rdi+112]

; 806  :     d = n - (ihigh-ilow);

  00111	48 2b cb	 sub	 rcx, rbx
  00114	48 03 ce	 add	 rcx, rsi
  00117	4c 89 54 24 58	 mov	 QWORD PTR item$1$[rsp], r10
  0011c	48 89 4c 24 20	 mov	 QWORD PTR d$1$[rsp], rcx

; 807  :     /* Issue #4509: If the array has exported buffers and the slice
; 808  :        assignment would change the size of the array, fail early to make
; 809  :        sure we don't modify it. */
; 810  :     if (d != 0 && a->ob_exports > 0) {

  00121	74 24		 je	 SHORT $LN7@array_ass_
  00123	83 bf 90 00 00
	00 00		 cmp	 DWORD PTR [rdi+144], 0
  0012a	7e 1b		 jle	 SHORT $LN7@array_ass_

; 811  :         PyErr_SetString(PyExc_BufferError,
; 812  :             "cannot resize an array that is exporting buffers");

  0012c	48 8b 0d 00 00
	00 00		 mov	 rcx, QWORD PTR PyExc_BufferError
  00133	48 8d 15 00 00
	00 00		 lea	 rdx, OFFSET FLAT:??_C@_0DB@GJKGCBFK@cannot?5resize?5an?5array?5that?5is?5e@
  0013a	e8 00 00 00 00	 call	 PyErr_SetString

; 813  :         return -1;

  0013f	83 c8 ff	 or	 eax, -1
  00142	e9 e1 00 00 00	 jmp	 $LN23@array_ass_
$LN7@array_ass_:

; 814  :     }
; 815  :     if (d < 0) { /* Delete -d items */

  00147	48 85 c9	 test	 rcx, rcx
  0014a	79 4d		 jns	 SHORT $LN27@array_ass_

; 816  :         memmove(item + (ihigh+d)*a->ob_descr->itemsize,
; 817  :             item + ihigh*a->ob_descr->itemsize,
; 818  :             (Py_SIZE(a)-ihigh)*a->ob_descr->itemsize);

  0014c	48 8b 87 80 00
	00 00		 mov	 rax, QWORD PTR [rdi+128]
  00153	4c 8b 47 60	 mov	 r8, QWORD PTR [rdi+96]
  00157	48 03 cb	 add	 rcx, rbx
  0015a	4c 63 48 04	 movsxd	 r9, DWORD PTR [rax+4]
  0015e	4c 2b c3	 sub	 r8, rbx
  00161	49 8b d1	 mov	 rdx, r9
  00164	49 0f af c9	 imul	 rcx, r9
  00168	4d 0f af c1	 imul	 r8, r9
  0016c	49 03 ca	 add	 rcx, r10
  0016f	48 0f af d3	 imul	 rdx, rbx
  00173	49 03 d2	 add	 rdx, r10
  00176	ff 15 00 00 00
	00		 call	 QWORD PTR __imp_memmove

; 819  :         if (array_resize(a, Py_SIZE(a) + d) == -1)

  0017c	48 8b 54 24 20	 mov	 rdx, QWORD PTR d$1$[rsp]
  00181	48 8b cf	 mov	 rcx, rdi
  00184	48 03 57 60	 add	 rdx, QWORD PTR [rdi+96]
  00188	e8 00 00 00 00	 call	 array_resize
  0018d	83 f8 ff	 cmp	 eax, -1
  00190	75 5b		 jne	 SHORT $LN25@array_ass_

; 820  :             return -1;

  00192	0b c0		 or	 eax, eax
  00194	e9 8f 00 00 00	 jmp	 $LN23@array_ass_
$LN27@array_ass_:

; 821  :     }
; 822  :     else if (d > 0) { /* Insert d items */

  00199	7e 57		 jle	 SHORT $LN3@array_ass_

; 823  :         if (array_resize(a, Py_SIZE(a) + d))

  0019b	48 8b 47 60	 mov	 rax, QWORD PTR [rdi+96]
  0019f	48 8d 14 01	 lea	 rdx, QWORD PTR [rcx+rax]
  001a3	48 8b cf	 mov	 rcx, rdi
  001a6	e8 00 00 00 00	 call	 array_resize
  001ab	85 c0		 test	 eax, eax

; 824  :             return -1;

  001ad	0f 85 2b ff ff
	ff		 jne	 $LN28@array_ass_

; 825  :         memmove(item + (ihigh+d)*a->ob_descr->itemsize,
; 826  :             item + ihigh*a->ob_descr->itemsize,
; 827  :             (Py_SIZE(a)-ihigh)*a->ob_descr->itemsize);

  001b3	4c 8b 54 24 58	 mov	 r10, QWORD PTR item$1$[rsp]
  001b8	48 8b 87 80 00
	00 00		 mov	 rax, QWORD PTR [rdi+128]
  001bf	4c 8b 47 60	 mov	 r8, QWORD PTR [rdi+96]
  001c3	4c 63 48 04	 movsxd	 r9, DWORD PTR [rax+4]
  001c7	48 8b 4c 24 20	 mov	 rcx, QWORD PTR d$1$[rsp]
  001cc	4c 2b c3	 sub	 r8, rbx
  001cf	48 03 cb	 add	 rcx, rbx
  001d2	49 8b d1	 mov	 rdx, r9
  001d5	4d 0f af c1	 imul	 r8, r9
  001d9	48 0f af d3	 imul	 rdx, rbx
  001dd	49 0f af c9	 imul	 rcx, r9
  001e1	49 03 d2	 add	 rdx, r10
  001e4	49 03 ca	 add	 rcx, r10
  001e7	ff 15 00 00 00
	00		 call	 QWORD PTR __imp_memmove
$LN25@array_ass_:

; 804  :         ihigh = Py_SIZE(a);
; 805  :     item = a->ob_item;

  001ed	4c 8b 54 24 58	 mov	 r10, QWORD PTR item$1$[rsp]
$LN3@array_ass_:

; 828  :     }
; 829  :     if (n > 0)

  001f2	48 8b 4c 24 28	 mov	 rcx, QWORD PTR n$1$[rsp]
  001f7	48 85 c9	 test	 rcx, rcx
  001fa	7e 2a		 jle	 SHORT $LN1@array_ass_

; 830  :         memcpy(item + ilow*a->ob_descr->itemsize, b->ob_item,
; 831  :                n*b->ob_descr->itemsize);

  001fc	48 8b 85 80 00
	00 00		 mov	 rax, QWORD PTR [rbp+128]
  00203	48 8b 55 70	 mov	 rdx, QWORD PTR [rbp+112]
  00207	4c 63 40 04	 movsxd	 r8, DWORD PTR [rax+4]
  0020b	48 8b 87 80 00
	00 00		 mov	 rax, QWORD PTR [rdi+128]
  00212	4c 0f af c1	 imul	 r8, rcx
  00216	48 63 48 04	 movsxd	 rcx, DWORD PTR [rax+4]
  0021a	48 0f af ce	 imul	 rcx, rsi
  0021e	49 03 ca	 add	 rcx, r10
  00221	e8 00 00 00 00	 call	 memcpy
$LN1@array_ass_:

; 832  :     return 0;

  00226	33 c0		 xor	 eax, eax
$LN23@array_ass_:

; 833  : #undef b
; 834  : }

  00228	48 8b 5c 24 40	 mov	 rbx, QWORD PTR [rsp+64]
  0022d	48 8b 6c 24 48	 mov	 rbp, QWORD PTR [rsp+72]
  00232	48 8b 74 24 50	 mov	 rsi, QWORD PTR [rsp+80]
  00237	48 83 c4 30	 add	 rsp, 48			; 00000030H
  0023b	5f		 pop	 rdi
  0023c	c3		 ret	 0
array_ass_slice ENDP
_TEXT	ENDS
PUBLIC	??_C@_0CE@DDILIBCI@array?5assignment?5index?5out?5of?5ra@ ; `string'
;	COMDAT pdata
pdata	SEGMENT
$pdata$array_ass_item DD imagerel array_ass_item
	DD	imagerel array_ass_item+78
	DD	imagerel $unwind$array_ass_item
pdata	ENDS
;	COMDAT xdata
xdata	SEGMENT
$unwind$array_ass_item DD 010401H
	DD	04204H
xdata	ENDS
;	COMDAT ??_C@_0CE@DDILIBCI@array?5assignment?5index?5out?5of?5ra@
CONST	SEGMENT
??_C@_0CE@DDILIBCI@array?5assignment?5index?5out?5of?5ra@ DB 'array assig'
	DB	'nment index out of range', 00H		; `string'
; Function compile flags: /Ogtpy
CONST	ENDS
;	COMDAT array_ass_item
_TEXT	SEGMENT
a$ = 48
i$ = 56
v$ = 64
array_ass_item PROC					; COMDAT

; 838  : {

  00000	48 83 ec 28	 sub	 rsp, 40			; 00000028H

; 839  :     if (i < 0 || i >= Py_SIZE(a)) {

  00004	48 85 d2	 test	 rdx, rdx
  00007	78 2a		 js	 SHORT $LN2@array_ass_@2
  00009	48 3b 51 60	 cmp	 rdx, QWORD PTR [rcx+96]
  0000d	7d 24		 jge	 SHORT $LN2@array_ass_@2

; 843  :     }
; 844  :     if (v == NULL)

  0000f	4d 85 c0	 test	 r8, r8
  00012	75 10		 jne	 SHORT $LN1@array_ass_@2

; 845  :         return array_ass_slice(a, i, i+1, v);

  00014	4c 8d 42 01	 lea	 r8, QWORD PTR [rdx+1]
  00018	45 33 c9	 xor	 r9d, r9d

; 847  : }

  0001b	48 83 c4 28	 add	 rsp, 40			; 00000028H
  0001f	e9 00 00 00 00	 jmp	 array_ass_slice
$LN1@array_ass_@2:

; 846  :     return (*a->ob_descr->setitem)(a, i, v);

  00024	48 8b 81 80 00
	00 00		 mov	 rax, QWORD PTR [rcx+128]

; 847  : }

  0002b	48 83 c4 28	 add	 rsp, 40			; 00000028H
  0002f	48 ff 60 10	 rex_jmp QWORD PTR [rax+16]
$LN2@array_ass_@2:

; 840  :         PyErr_SetString(PyExc_IndexError,
; 841  :                          "array assignment index out of range");

  00033	48 8b 0d 00 00
	00 00		 mov	 rcx, QWORD PTR PyExc_IndexError
  0003a	48 8d 15 00 00
	00 00		 lea	 rdx, OFFSET FLAT:??_C@_0CE@DDILIBCI@array?5assignment?5index?5out?5of?5ra@
  00041	e8 00 00 00 00	 call	 PyErr_SetString

; 842  :         return -1;

  00046	83 c8 ff	 or	 eax, -1

; 847  : }

  00049	48 83 c4 28	 add	 rsp, 40			; 00000028H
  0004d	c3		 ret	 0
array_ass_item ENDP
; Function compile flags: /Ogtpy
_TEXT	ENDS
;	COMDAT setarrayitem
_TEXT	SEGMENT
a$ = 8
i$ = 16
v$ = 24
setarrayitem PROC					; COMDAT

; 852  :     assert(array_Check(a));
; 853  :     return array_ass_item((arrayobject *)a, i, v);
; 854  : }

  00000	e9 00 00 00 00	 jmp	 array_ass_item
setarrayitem ENDP
_TEXT	ENDS
EXTRN	PyIter_Next:PROC
EXTRN	PyObject_GetIter:PROC
;	COMDAT pdata
; File c:\src\pyparallel\include\object.h
pdata	SEGMENT
$pdata$array_iter_extend DD imagerel array_iter_extend
	DD	imagerel array_iter_extend+46
	DD	imagerel $unwind$array_iter_extend
pdata	ENDS
;	COMDAT pdata
pdata	SEGMENT
$pdata$0$array_iter_extend DD imagerel array_iter_extend+46
	DD	imagerel array_iter_extend+258
	DD	imagerel $chain$0$array_iter_extend
pdata	ENDS
;	COMDAT pdata
pdata	SEGMENT
$pdata$2$array_iter_extend DD imagerel array_iter_extend+258
	DD	imagerel array_iter_extend+293
	DD	imagerel $chain$2$array_iter_extend
pdata	ENDS
;	COMDAT xdata
xdata	SEGMENT
$chain$2$array_iter_extend DD 020021H
	DD	083400H
	DD	imagerel array_iter_extend
	DD	imagerel array_iter_extend+46
	DD	imagerel $unwind$array_iter_extend
xdata	ENDS
;	COMDAT xdata
xdata	SEGMENT
$chain$0$array_iter_extend DD 020521H
	DD	083405H
	DD	imagerel array_iter_extend
	DD	imagerel array_iter_extend+46
	DD	imagerel $unwind$array_iter_extend
xdata	ENDS
;	COMDAT xdata
xdata	SEGMENT
$unwind$array_iter_extend DD 040a01H
	DD	09640aH
	DD	07006520aH
; Function compile flags: /Ogtpy
; File c:\src\pyparallel\modules\arraymodule.c
xdata	ENDS
;	COMDAT array_iter_extend
_TEXT	SEGMENT
self$ = 64
bb$ = 72
array_iter_extend PROC					; COMDAT

; 858  : {

  00000	48 89 74 24 10	 mov	 QWORD PTR [rsp+16], rsi
  00005	57		 push	 rdi
  00006	48 83 ec 30	 sub	 rsp, 48			; 00000030H
  0000a	48 8b f1	 mov	 rsi, rcx

; 859  :     PyObject *it, *v;
; 860  : 
; 861  :     it = PyObject_GetIter(bb);

  0000d	48 8b ca	 mov	 rcx, rdx
  00010	e8 00 00 00 00	 call	 PyObject_GetIter
  00015	48 8b f8	 mov	 rdi, rax

; 862  :     if (it == NULL)

  00018	48 85 c0	 test	 rax, rax
  0001b	75 0e		 jne	 SHORT $LN19@array_iter

; 863  :         return -1;

  0001d	83 c8 ff	 or	 eax, -1

; 875  :         return -1;
; 876  :     return 0;
; 877  : }

  00020	48 8b 74 24 48	 mov	 rsi, QWORD PTR [rsp+72]
  00025	48 83 c4 30	 add	 rsp, 48			; 00000030H
  00029	5f		 pop	 rdi
  0002a	c3		 ret	 0
$LN19@array_iter:

; 864  : 
; 865  :     while ((v = PyIter_Next(it)) != NULL) {

  0002b	48 8b c8	 mov	 rcx, rax
  0002e	48 89 5c 24 40	 mov	 QWORD PTR [rsp+64], rbx
  00033	e8 00 00 00 00	 call	 PyIter_Next
  00038	48 8b d8	 mov	 rbx, rax
  0003b	48 85 c0	 test	 rax, rax
  0003e	0f 84 9c 00 00
	00		 je	 $LN3@array_iter
  00044	66 66 66 66 0f
	1f 84 00 00 00
	00 00		 npad	 12
$LL4@array_iter:

; 866  :         if (ins1(self, Py_SIZE(self), v) != 0) {

  00050	48 8b 56 60	 mov	 rdx, QWORD PTR [rsi+96]
  00054	4c 8b c3	 mov	 r8, rbx
  00057	48 8b ce	 mov	 rcx, rsi
  0005a	e8 00 00 00 00	 call	 ins1
  0005f	85 c0		 test	 eax, eax
  00061	0f 85 9b 00 00
	00		 jne	 $LN20@array_iter

; 869  :             return -1;
; 870  :         }
; 871  :         Py_DECREF(v);

  00067	e8 00 00 00 00	 call	 _Py_PXCTX
  0006c	85 c0		 test	 eax, eax
  0006e	75 5c		 jne	 SHORT $LN18@array_iter
  00070	48 8b 43 20	 mov	 rax, QWORD PTR [rbx+32]
  00074	a8 20		 test	 al, 32			; 00000020H
  00076	75 4c		 jne	 SHORT $LN12@array_iter
  00078	84 c0		 test	 al, al
  0007a	78 48		 js	 SHORT $LN12@array_iter
  0007c	a8 02		 test	 al, 2
  0007e	75 4c		 jne	 SHORT $LN18@array_iter
  00080	48 ff 4b 50	 dec	 QWORD PTR [rbx+80]
  00084	75 46		 jne	 SHORT $LN18@array_iter
  00086	48 8d 15 00 00
	00 00		 lea	 rdx, OFFSET FLAT:??_C@_0CD@HDJFDCDP@c?3?2src?2pyparallel?2include?2object@
  0008d	48 8d 0d 00 00
	00 00		 lea	 rcx, OFFSET FLAT:??_C@_0L@DMHMLFIA@_Py_DecRef?$AA@
  00094	4c 8b cb	 mov	 r9, rbx
  00097	41 b8 a4 03 00
	00		 mov	 r8d, 932		; 000003a4H
  0009d	c7 44 24 20 10
	00 00 00	 mov	 DWORD PTR [rsp+32], 16
  000a5	e8 00 00 00 00	 call	 _PyParallel_Guard
  000aa	48 8b cb	 mov	 rcx, rbx
  000ad	85 c0		 test	 eax, eax
  000af	74 07		 je	 SHORT $LN17@array_iter
  000b1	e8 00 00 00 00	 call	 _Px_Dealloc
  000b6	eb 14		 jmp	 SHORT $LN18@array_iter
$LN17@array_iter:
  000b8	48 8b 43 58	 mov	 rax, QWORD PTR [rbx+88]
  000bc	ff 90 88 00 00
	00		 call	 QWORD PTR [rax+136]
  000c2	eb 08		 jmp	 SHORT $LN18@array_iter
$LN12@array_iter:
  000c4	48 8b cb	 mov	 rcx, rbx
  000c7	e8 00 00 00 00	 call	 Px_DecRef
$LN18@array_iter:

; 864  : 
; 865  :     while ((v = PyIter_Next(it)) != NULL) {

  000cc	48 8b cf	 mov	 rcx, rdi
  000cf	e8 00 00 00 00	 call	 PyIter_Next
  000d4	48 8b d8	 mov	 rbx, rax
  000d7	48 85 c0	 test	 rax, rax
  000da	0f 85 70 ff ff
	ff		 jne	 $LL4@array_iter
$LN3@array_iter:

; 872  :     }
; 873  :     Py_DECREF(it);

  000e0	48 8b cf	 mov	 rcx, rdi
  000e3	e8 00 00 00 00	 call	 _Py_DecRef

; 874  :     if (PyErr_Occurred())

  000e8	e8 00 00 00 00	 call	 PyErr_Occurred
  000ed	48 8b 5c 24 40	 mov	 rbx, QWORD PTR [rsp+64]
  000f2	48 f7 d8	 neg	 rax
  000f5	1b c0		 sbb	 eax, eax

; 875  :         return -1;
; 876  :     return 0;
; 877  : }

  000f7	48 8b 74 24 48	 mov	 rsi, QWORD PTR [rsp+72]
  000fc	48 83 c4 30	 add	 rsp, 48			; 00000030H
  00100	5f		 pop	 rdi
  00101	c3		 ret	 0
$LN20@array_iter:

; 867  :             Py_DECREF(v);

  00102	48 8b cb	 mov	 rcx, rbx
  00105	e8 00 00 00 00	 call	 _Py_DecRef

; 868  :             Py_DECREF(it);

  0010a	48 8b cf	 mov	 rcx, rdi
  0010d	e8 00 00 00 00	 call	 _Py_DecRef
  00112	48 8b 5c 24 40	 mov	 rbx, QWORD PTR [rsp+64]

; 875  :         return -1;
; 876  :     return 0;
; 877  : }

  00117	48 8b 74 24 48	 mov	 rsi, QWORD PTR [rsp+72]
  0011c	83 c8 ff	 or	 eax, -1
  0011f	48 83 c4 30	 add	 rsp, 48			; 00000030H
  00123	5f		 pop	 rdi
  00124	c3		 ret	 0
array_iter_extend ENDP
_TEXT	ENDS
PUBLIC	??_C@_0CI@PPGDJIHM@can?5only?5extend?5with?5array?5of?5sa@ ; `string'
;	COMDAT pdata
pdata	SEGMENT
$pdata$array_do_extend DD imagerel array_do_extend
	DD	imagerel array_do_extend+125
	DD	imagerel $unwind$array_do_extend
pdata	ENDS
;	COMDAT pdata
pdata	SEGMENT
$pdata$1$array_do_extend DD imagerel array_do_extend+125
	DD	imagerel array_do_extend+214
	DD	imagerel $chain$1$array_do_extend
pdata	ENDS
;	COMDAT pdata
pdata	SEGMENT
$pdata$3$array_do_extend DD imagerel array_do_extend+214
	DD	imagerel array_do_extend+261
	DD	imagerel $chain$3$array_do_extend
pdata	ENDS
;	COMDAT pdata
pdata	SEGMENT
$pdata$4$array_do_extend DD imagerel array_do_extend+261
	DD	imagerel array_do_extend+285
	DD	imagerel $chain$4$array_do_extend
pdata	ENDS
;	COMDAT xdata
xdata	SEGMENT
$chain$4$array_do_extend DD 020021H
	DD	076400H
	DD	imagerel array_do_extend
	DD	imagerel array_do_extend+125
	DD	imagerel $unwind$array_do_extend
xdata	ENDS
;	COMDAT xdata
xdata	SEGMENT
$chain$3$array_do_extend DD 040021H
	DD	076400H
	DD	065400H
	DD	imagerel array_do_extend
	DD	imagerel array_do_extend+125
	DD	imagerel $unwind$array_do_extend
xdata	ENDS
;	COMDAT xdata
xdata	SEGMENT
$chain$1$array_do_extend DD 043521H
	DD	065435H
	DD	076405H
	DD	imagerel array_do_extend
	DD	imagerel array_do_extend+125
	DD	imagerel $unwind$array_do_extend
xdata	ENDS
;	COMDAT xdata
xdata	SEGMENT
$unwind$array_do_extend DD 040a01H
	DD	08340aH
	DD	07006320aH
xdata	ENDS
;	COMDAT ??_C@_0CI@PPGDJIHM@can?5only?5extend?5with?5array?5of?5sa@
CONST	SEGMENT
??_C@_0CI@PPGDJIHM@can?5only?5extend?5with?5array?5of?5sa@ DB 'can only e'
	DB	'xtend with array of same kind', 00H		; `string'
; Function compile flags: /Ogtpy
CONST	ENDS
;	COMDAT array_do_extend
_TEXT	SEGMENT
self$ = 48
bb$ = 56
array_do_extend PROC					; COMDAT

; 881  : {

  00000	48 89 5c 24 18	 mov	 QWORD PTR [rsp+24], rbx
  00005	57		 push	 rdi
  00006	48 83 ec 20	 sub	 rsp, 32			; 00000020H
  0000a	48 8b f9	 mov	 rdi, rcx

; 882  :     Py_ssize_t size, oldsize, bbsize;
; 883  : 
; 884  :     if (!array_Check(bb))

  0000d	48 8b 4a 58	 mov	 rcx, QWORD PTR [rdx+88]
  00011	48 8b da	 mov	 rbx, rdx
  00014	48 8d 15 00 00
	00 00		 lea	 rdx, OFFSET FLAT:Arraytype
  0001b	48 3b ca	 cmp	 rcx, rdx
  0001e	74 1e		 je	 SHORT $LN5@array_do_e
  00020	e8 00 00 00 00	 call	 PyType_IsSubtype
  00025	85 c0		 test	 eax, eax
  00027	75 15		 jne	 SHORT $LN5@array_do_e

; 885  :         return array_iter_extend(self, bb);

  00029	48 8b d3	 mov	 rdx, rbx
  0002c	48 8b cf	 mov	 rcx, rdi

; 907  : #undef b
; 908  : }

  0002f	48 8b 5c 24 40	 mov	 rbx, QWORD PTR [rsp+64]
  00034	48 83 c4 20	 add	 rsp, 32			; 00000020H
  00038	5f		 pop	 rdi
  00039	e9 00 00 00 00	 jmp	 array_iter_extend
$LN5@array_do_e:

; 886  : #define b ((arrayobject *)bb)
; 887  :     if (self->ob_descr != b->ob_descr) {

  0003e	48 8b 87 80 00
	00 00		 mov	 rax, QWORD PTR [rdi+128]
  00045	48 3b 83 80 00
	00 00		 cmp	 rax, QWORD PTR [rbx+128]
  0004c	74 21		 je	 SHORT $LN4@array_do_e

; 888  :         PyErr_SetString(PyExc_TypeError,
; 889  :                      "can only extend with array of same kind");

  0004e	48 8b 0d 00 00
	00 00		 mov	 rcx, QWORD PTR PyExc_TypeError
  00055	48 8d 15 00 00
	00 00		 lea	 rdx, OFFSET FLAT:??_C@_0CI@PPGDJIHM@can?5only?5extend?5with?5array?5of?5sa@
  0005c	e8 00 00 00 00	 call	 PyErr_SetString

; 890  :         return -1;

  00061	83 c8 ff	 or	 eax, -1

; 907  : #undef b
; 908  : }

  00064	48 8b 5c 24 40	 mov	 rbx, QWORD PTR [rsp+64]
  00069	48 83 c4 20	 add	 rsp, 32			; 00000020H
  0006d	5f		 pop	 rdi
  0006e	c3		 ret	 0
$LN4@array_do_e:

; 891  :     }
; 892  :     if ((Py_SIZE(self) > PY_SSIZE_T_MAX - Py_SIZE(b)) ||
; 893  :         ((Py_SIZE(self) + Py_SIZE(b)) > PY_SSIZE_T_MAX / self->ob_descr->itemsize)) {

  0006f	4c 8b 43 60	 mov	 r8, QWORD PTR [rbx+96]
  00073	48 ba ff ff ff
	ff ff ff ff 7f	 mov	 rdx, 9223372036854775807 ; 7fffffffffffffffH
  0007d	48 89 74 24 38	 mov	 QWORD PTR [rsp+56], rsi
  00082	48 8b 77 60	 mov	 rsi, QWORD PTR [rdi+96]
  00086	48 8b ca	 mov	 rcx, rdx
  00089	49 2b c8	 sub	 rcx, r8
  0008c	48 3b f1	 cmp	 rsi, rcx
  0008f	7f 74		 jg	 SHORT $LN2@array_do_e
  00091	48 63 48 04	 movsxd	 rcx, DWORD PTR [rax+4]
  00095	48 8b c2	 mov	 rax, rdx
  00098	48 99		 cdq
  0009a	48 f7 f9	 idiv	 rcx
  0009d	4a 8d 0c 06	 lea	 rcx, QWORD PTR [rsi+r8]
  000a1	48 3b c8	 cmp	 rcx, rax
  000a4	7f 5f		 jg	 SHORT $LN2@array_do_e

; 895  :         return -1;
; 896  :     }
; 897  :     oldsize = Py_SIZE(self);
; 898  :     /* Get the size of bb before resizing the array since bb could be self. */
; 899  :     bbsize = Py_SIZE(bb);
; 900  :     size = oldsize + Py_SIZE(b);

  000a6	4a 8d 14 06	 lea	 rdx, QWORD PTR [rsi+r8]

; 901  :     if (array_resize(self, size) == -1)

  000aa	48 8b cf	 mov	 rcx, rdi
  000ad	48 89 6c 24 30	 mov	 QWORD PTR [rsp+48], rbp
  000b2	49 8b e8	 mov	 rbp, r8
  000b5	e8 00 00 00 00	 call	 array_resize
  000ba	83 f8 ff	 cmp	 eax, -1
  000bd	75 17		 jne	 SHORT $LN1@array_do_e

; 902  :         return -1;

  000bf	0b c0		 or	 eax, eax
$LN9@array_do_e:
  000c1	48 8b 6c 24 30	 mov	 rbp, QWORD PTR [rsp+48]
  000c6	48 8b 74 24 38	 mov	 rsi, QWORD PTR [rsp+56]

; 907  : #undef b
; 908  : }

  000cb	48 8b 5c 24 40	 mov	 rbx, QWORD PTR [rsp+64]
  000d0	48 83 c4 20	 add	 rsp, 32			; 00000020H
  000d4	5f		 pop	 rdi
  000d5	c3		 ret	 0
$LN1@array_do_e:

; 903  :     memcpy(self->ob_item + oldsize * self->ob_descr->itemsize,
; 904  :         b->ob_item, bbsize * b->ob_descr->itemsize);

  000d6	48 8b 83 80 00
	00 00		 mov	 rax, QWORD PTR [rbx+128]
  000dd	48 8b 53 70	 mov	 rdx, QWORD PTR [rbx+112]
  000e1	4c 63 40 04	 movsxd	 r8, DWORD PTR [rax+4]
  000e5	48 8b 87 80 00
	00 00		 mov	 rax, QWORD PTR [rdi+128]
  000ec	48 63 48 04	 movsxd	 rcx, DWORD PTR [rax+4]
  000f0	4c 0f af c5	 imul	 r8, rbp
  000f4	48 0f af ce	 imul	 rcx, rsi
  000f8	48 03 4f 70	 add	 rcx, QWORD PTR [rdi+112]
  000fc	e8 00 00 00 00	 call	 memcpy

; 905  : 
; 906  :     return 0;

  00101	33 c0		 xor	 eax, eax
  00103	eb bc		 jmp	 SHORT $LN9@array_do_e
$LN2@array_do_e:

; 894  :         PyErr_NoMemory();

  00105	e8 00 00 00 00	 call	 PyErr_NoMemory
  0010a	48 8b 74 24 38	 mov	 rsi, QWORD PTR [rsp+56]

; 907  : #undef b
; 908  : }

  0010f	48 8b 5c 24 40	 mov	 rbx, QWORD PTR [rsp+64]
  00114	83 c8 ff	 or	 eax, -1
  00117	48 83 c4 20	 add	 rsp, 32			; 00000020H
  0011b	5f		 pop	 rdi
  0011c	c3		 ret	 0
array_do_extend ENDP
_TEXT	ENDS
PUBLIC	??_C@_0DA@CFHNCMNJ@can?5only?5extend?5array?5with?5array@ ; `string'
;	COMDAT pdata
; File c:\src\pyparallel\include\object.h
pdata	SEGMENT
$pdata$array_inplace_concat DD imagerel array_inplace_concat
	DD	imagerel array_inplace_concat+170
	DD	imagerel $unwind$array_inplace_concat
pdata	ENDS
;	COMDAT xdata
xdata	SEGMENT
$unwind$array_inplace_concat DD 040a01H
	DD	08340aH
	DD	07006520aH
xdata	ENDS
;	COMDAT ??_C@_0DA@CFHNCMNJ@can?5only?5extend?5array?5with?5array@
CONST	SEGMENT
??_C@_0DA@CFHNCMNJ@can?5only?5extend?5array?5with?5array@ DB 'can only ex'
	DB	'tend array with array (not "%.200s")', 00H	; `string'
; Function compile flags: /Ogtpy
; File c:\src\pyparallel\modules\arraymodule.c
CONST	ENDS
;	COMDAT array_inplace_concat
_TEXT	SEGMENT
self$ = 64
bb$ = 72
array_inplace_concat PROC				; COMDAT

; 912  : {

  00000	48 89 5c 24 08	 mov	 QWORD PTR [rsp+8], rbx
  00005	57		 push	 rdi
  00006	48 83 ec 30	 sub	 rsp, 48			; 00000030H
  0000a	48 8b d9	 mov	 rbx, rcx

; 913  :     if (!array_Check(bb)) {

  0000d	48 8b 4a 58	 mov	 rcx, QWORD PTR [rdx+88]
  00011	48 8b fa	 mov	 rdi, rdx
  00014	48 8d 15 00 00
	00 00		 lea	 rdx, OFFSET FLAT:Arraytype
  0001b	48 3b ca	 cmp	 rcx, rdx
  0001e	74 31		 je	 SHORT $LN2@array_inpl
  00020	e8 00 00 00 00	 call	 PyType_IsSubtype
  00025	85 c0		 test	 eax, eax
  00027	75 28		 jne	 SHORT $LN2@array_inpl

; 914  :         PyErr_Format(PyExc_TypeError,
; 915  :             "can only extend array with array (not \"%.200s\")",
; 916  :             Py_TYPE(bb)->tp_name);

  00029	4c 8b 47 58	 mov	 r8, QWORD PTR [rdi+88]
  0002d	48 8b 0d 00 00
	00 00		 mov	 rcx, QWORD PTR PyExc_TypeError
  00034	48 8d 15 00 00
	00 00		 lea	 rdx, OFFSET FLAT:??_C@_0DA@CFHNCMNJ@can?5only?5extend?5array?5with?5array@
  0003b	4d 8b 40 70	 mov	 r8, QWORD PTR [r8+112]
  0003f	e8 00 00 00 00	 call	 PyErr_Format
$LN9@array_inpl:

; 917  :         return NULL;

  00044	33 c0		 xor	 eax, eax

; 923  : }

  00046	48 8b 5c 24 40	 mov	 rbx, QWORD PTR [rsp+64]
  0004b	48 83 c4 30	 add	 rsp, 48			; 00000030H
  0004f	5f		 pop	 rdi
  00050	c3		 ret	 0
$LN2@array_inpl:

; 918  :     }
; 919  :     if (array_do_extend(self, bb) == -1)

  00051	48 8b d7	 mov	 rdx, rdi
  00054	48 8b cb	 mov	 rcx, rbx
  00057	e8 00 00 00 00	 call	 array_do_extend
  0005c	83 f8 ff	 cmp	 eax, -1

; 920  :         return NULL;

  0005f	74 e3		 je	 SHORT $LN9@array_inpl

; 921  :     Py_INCREF(self);

  00061	e8 00 00 00 00	 call	 _Py_PXCTX
  00066	85 c0		 test	 eax, eax
  00068	75 32		 jne	 SHORT $LN6@array_inpl
  0006a	48 8d 15 00 00
	00 00		 lea	 rdx, OFFSET FLAT:??_C@_0CD@HDJFDCDP@c?3?2src?2pyparallel?2include?2object@
  00071	48 8d 0d 00 00
	00 00		 lea	 rcx, OFFSET FLAT:??_C@_0L@DHGMCEID@_Py_IncRef?$AA@
  00078	4c 8b cb	 mov	 r9, rbx
  0007b	41 b8 89 03 00
	00		 mov	 r8d, 905		; 00000389H
  00081	c7 44 24 20 02
	00 00 00	 mov	 DWORD PTR [rsp+32], 2
  00089	e8 00 00 00 00	 call	 _PyParallel_Guard
  0008e	85 c0		 test	 eax, eax
  00090	75 06		 jne	 SHORT $LN5@array_inpl
  00092	f6 43 20 20	 test	 BYTE PTR [rbx+32], 32	; 00000020H
  00096	74 04		 je	 SHORT $LN6@array_inpl
$LN5@array_inpl:
  00098	48 ff 43 50	 inc	 QWORD PTR [rbx+80]
$LN6@array_inpl:

; 922  :     return (PyObject *)self;

  0009c	48 8b c3	 mov	 rax, rbx

; 923  : }

  0009f	48 8b 5c 24 40	 mov	 rbx, QWORD PTR [rsp+64]
  000a4	48 83 c4 30	 add	 rsp, 48			; 00000030H
  000a8	5f		 pop	 rdi
  000a9	c3		 ret	 0
array_inplace_concat ENDP
_TEXT	ENDS
;	COMDAT pdata
; File c:\src\pyparallel\include\object.h
pdata	SEGMENT
$pdata$array_inplace_repeat DD imagerel array_inplace_repeat
	DD	imagerel array_inplace_repeat+162
	DD	imagerel $unwind$array_inplace_repeat
pdata	ENDS
;	COMDAT pdata
pdata	SEGMENT
$pdata$1$array_inplace_repeat DD imagerel array_inplace_repeat+162
	DD	imagerel array_inplace_repeat+224
	DD	imagerel $chain$1$array_inplace_repeat
pdata	ENDS
;	COMDAT pdata
pdata	SEGMENT
$pdata$2$array_inplace_repeat DD imagerel array_inplace_repeat+224
	DD	imagerel array_inplace_repeat+302
	DD	imagerel $chain$2$array_inplace_repeat
pdata	ENDS
;	COMDAT xdata
xdata	SEGMENT
$chain$2$array_inplace_repeat DD 021H
	DD	imagerel array_inplace_repeat
	DD	imagerel array_inplace_repeat+162
	DD	imagerel $unwind$array_inplace_repeat
xdata	ENDS
;	COMDAT xdata
xdata	SEGMENT
$chain$1$array_inplace_repeat DD 040e21H
	DD	09c40eH
	DD	087405H
	DD	imagerel array_inplace_repeat
	DD	imagerel array_inplace_repeat+162
	DD	imagerel $unwind$array_inplace_repeat
xdata	ENDS
;	COMDAT xdata
xdata	SEGMENT
$unwind$array_inplace_repeat DD 060f01H
	DD	0b540fH
	DD	0a340fH
	DD	0600b520fH
; Function compile flags: /Ogtpy
; File c:\src\pyparallel\modules\arraymodule.c
xdata	ENDS
;	COMDAT array_inplace_repeat
_TEXT	SEGMENT
self$ = 64
n$ = 72
array_inplace_repeat PROC				; COMDAT

; 927  : {

  00000	48 89 5c 24 18	 mov	 QWORD PTR [rsp+24], rbx
  00005	48 89 6c 24 20	 mov	 QWORD PTR [rsp+32], rbp
  0000a	56		 push	 rsi
  0000b	48 83 ec 30	 sub	 rsp, 48			; 00000030H

; 928  :     char *items, *p;
; 929  :     Py_ssize_t size, i;
; 930  : 
; 931  :     if (Py_SIZE(self) > 0) {

  0000f	4c 8b 41 60	 mov	 r8, QWORD PTR [rcx+96]
  00013	48 8b ea	 mov	 rbp, rdx
  00016	48 8b d9	 mov	 rbx, rcx
  00019	4d 85 c0	 test	 r8, r8
  0001c	0f 8e be 00 00
	00		 jle	 $LN1@array_inpl@2

; 932  :         if (n < 0)

  00022	33 c0		 xor	 eax, eax
  00024	48 85 d2	 test	 rdx, rdx

; 933  :             n = 0;
; 934  :         if ((self->ob_descr->itemsize != 0) &&
; 935  :             (Py_SIZE(self) > PY_SSIZE_T_MAX / self->ob_descr->itemsize)) {

  00027	49 ba ff ff ff
	ff ff ff ff 7f	 mov	 r10, 9223372036854775807 ; 7fffffffffffffffH
  00031	48 0f 48 e8	 cmovs	 rbp, rax
  00035	48 8b 81 80 00
	00 00		 mov	 rax, QWORD PTR [rcx+128]
  0003c	4c 63 48 04	 movsxd	 r9, DWORD PTR [rax+4]
  00040	45 85 c9	 test	 r9d, r9d
  00043	74 21		 je	 SHORT $LN6@array_inpl@2
  00045	49 8b c2	 mov	 rax, r10
  00048	48 99		 cdq
  0004a	49 f7 f9	 idiv	 r9
  0004d	4c 3b c0	 cmp	 r8, rax
  00050	7e 14		 jle	 SHORT $LN6@array_inpl@2
$LN19@array_inpl@2:

; 951  :     return (PyObject *)self;
; 952  : }

  00052	48 8b 5c 24 50	 mov	 rbx, QWORD PTR [rsp+80]
  00057	48 8b 6c 24 58	 mov	 rbp, QWORD PTR [rsp+88]
  0005c	48 83 c4 30	 add	 rsp, 48			; 00000030H
  00060	5e		 pop	 rsi
  00061	e9 00 00 00 00	 jmp	 PyErr_NoMemory
$LN6@array_inpl@2:

; 936  :             return PyErr_NoMemory();
; 937  :         }
; 938  :         size = Py_SIZE(self) * self->ob_descr->itemsize;

  00066	49 8b f1	 mov	 rsi, r9
  00069	49 0f af f0	 imul	 rsi, r8

; 939  :         if (n > 0 && size > PY_SSIZE_T_MAX / n) {

  0006d	48 85 ed	 test	 rbp, rbp
  00070	7e 0d		 jle	 SHORT $LN5@array_inpl@2
  00072	49 8b c2	 mov	 rax, r10
  00075	48 99		 cdq
  00077	48 f7 fd	 idiv	 rbp
  0007a	48 3b f0	 cmp	 rsi, rax

; 940  :             return PyErr_NoMemory();

  0007d	7f d3		 jg	 SHORT $LN19@array_inpl@2
$LN5@array_inpl@2:

; 941  :         }
; 942  :         if (array_resize(self, n * Py_SIZE(self)) == -1)

  0007f	4c 0f af c5	 imul	 r8, rbp
  00083	49 8b d0	 mov	 rdx, r8
  00086	e8 00 00 00 00	 call	 array_resize
  0008b	83 f8 ff	 cmp	 eax, -1
  0008e	75 12		 jne	 SHORT $LN4@array_inpl@2

; 943  :             return NULL;

  00090	33 c0		 xor	 eax, eax

; 951  :     return (PyObject *)self;
; 952  : }

  00092	48 8b 5c 24 50	 mov	 rbx, QWORD PTR [rsp+80]
  00097	48 8b 6c 24 58	 mov	 rbp, QWORD PTR [rsp+88]
  0009c	48 83 c4 30	 add	 rsp, 48			; 00000030H
  000a0	5e		 pop	 rsi
  000a1	c3		 ret	 0
$LN4@array_inpl@2:
  000a2	48 89 7c 24 40	 mov	 QWORD PTR [rsp+64], rdi

; 944  :         items = p = self->ob_item;

  000a7	48 8b 7b 70	 mov	 rdi, QWORD PTR [rbx+112]
  000ab	4c 89 64 24 48	 mov	 QWORD PTR [rsp+72], r12
  000b0	4c 8b e7	 mov	 r12, rdi

; 945  :         for (i = 1; i < n; i++) {

  000b3	48 83 fd 01	 cmp	 rbp, 1
  000b7	7e 1d		 jle	 SHORT $LN18@array_inpl@2

; 944  :         items = p = self->ob_item;

  000b9	48 ff cd	 dec	 rbp
  000bc	0f 1f 40 00	 npad	 4
$LL3@array_inpl@2:

; 946  :             p += size;

  000c0	48 03 fe	 add	 rdi, rsi

; 947  :             memcpy(p, items, size);

  000c3	4c 8b c6	 mov	 r8, rsi
  000c6	49 8b d4	 mov	 rdx, r12
  000c9	48 8b cf	 mov	 rcx, rdi
  000cc	e8 00 00 00 00	 call	 memcpy
  000d1	48 ff cd	 dec	 rbp
  000d4	75 ea		 jne	 SHORT $LL3@array_inpl@2
$LN18@array_inpl@2:
  000d6	48 8b 7c 24 40	 mov	 rdi, QWORD PTR [rsp+64]
  000db	4c 8b 64 24 48	 mov	 r12, QWORD PTR [rsp+72]
$LN1@array_inpl@2:

; 948  :         }
; 949  :     }
; 950  :     Py_INCREF(self);

  000e0	e8 00 00 00 00	 call	 _Py_PXCTX
  000e5	85 c0		 test	 eax, eax
  000e7	75 32		 jne	 SHORT $LN12@array_inpl@2
  000e9	48 8d 15 00 00
	00 00		 lea	 rdx, OFFSET FLAT:??_C@_0CD@HDJFDCDP@c?3?2src?2pyparallel?2include?2object@
  000f0	48 8d 0d 00 00
	00 00		 lea	 rcx, OFFSET FLAT:??_C@_0L@DHGMCEID@_Py_IncRef?$AA@
  000f7	4c 8b cb	 mov	 r9, rbx
  000fa	41 b8 89 03 00
	00		 mov	 r8d, 905		; 00000389H
  00100	c7 44 24 20 02
	00 00 00	 mov	 DWORD PTR [rsp+32], 2
  00108	e8 00 00 00 00	 call	 _PyParallel_Guard
  0010d	85 c0		 test	 eax, eax
  0010f	75 06		 jne	 SHORT $LN11@array_inpl@2
  00111	f6 43 20 20	 test	 BYTE PTR [rbx+32], 32	; 00000020H
  00115	74 04		 je	 SHORT $LN12@array_inpl@2
$LN11@array_inpl@2:
  00117	48 ff 43 50	 inc	 QWORD PTR [rbx+80]
$LN12@array_inpl@2:

; 951  :     return (PyObject *)self;
; 952  : }

  0011b	48 8b 6c 24 58	 mov	 rbp, QWORD PTR [rsp+88]
  00120	48 8b c3	 mov	 rax, rbx
  00123	48 8b 5c 24 50	 mov	 rbx, QWORD PTR [rsp+80]
  00128	48 83 c4 30	 add	 rsp, 48			; 00000030H
  0012c	5e		 pop	 rsi
  0012d	c3		 ret	 0
array_inplace_repeat ENDP
_TEXT	ENDS
EXTRN	_Py_NoneStruct:BYTE
;	COMDAT pdata
; File c:\src\pyparallel\include\object.h
pdata	SEGMENT
$pdata$ins DD	imagerel ins
	DD	imagerel ins+101
	DD	imagerel $unwind$ins
pdata	ENDS
;	COMDAT xdata
xdata	SEGMENT
$unwind$ins DD	010401H
	DD	06204H
; Function compile flags: /Ogtpy
; File c:\src\pyparallel\modules\arraymodule.c
xdata	ENDS
;	COMDAT ins
_TEXT	SEGMENT
self$ = 64
where$ = 72
v$ = 80
ins	PROC						; COMDAT

; 957  : {

  00000	48 83 ec 38	 sub	 rsp, 56			; 00000038H

; 958  :     if (ins1(self, where, v) != 0)

  00004	e8 00 00 00 00	 call	 ins1
  00009	85 c0		 test	 eax, eax
  0000b	74 07		 je	 SHORT $LN1@ins

; 959  :         return NULL;

  0000d	33 c0		 xor	 eax, eax

; 962  : }

  0000f	48 83 c4 38	 add	 rsp, 56			; 00000038H
  00013	c3		 ret	 0
$LN1@ins:

; 960  :     Py_INCREF(Py_None);

  00014	e8 00 00 00 00	 call	 _Py_PXCTX
  00019	85 c0		 test	 eax, eax
  0001b	75 3c		 jne	 SHORT $LN5@ins
  0001d	4c 8d 0d 00 00
	00 00		 lea	 r9, OFFSET FLAT:_Py_NoneStruct
  00024	48 8d 15 00 00
	00 00		 lea	 rdx, OFFSET FLAT:??_C@_0CD@HDJFDCDP@c?3?2src?2pyparallel?2include?2object@
  0002b	48 8d 0d 00 00
	00 00		 lea	 rcx, OFFSET FLAT:??_C@_0L@DHGMCEID@_Py_IncRef?$AA@
  00032	41 b8 89 03 00
	00		 mov	 r8d, 905		; 00000389H
  00038	c7 44 24 20 02
	00 00 00	 mov	 DWORD PTR [rsp+32], 2
  00040	e8 00 00 00 00	 call	 _PyParallel_Guard
  00045	85 c0		 test	 eax, eax
  00047	75 09		 jne	 SHORT $LN4@ins
  00049	f6 05 20 00 00
	00 20		 test	 BYTE PTR _Py_NoneStruct+32, 32 ; 00000020H
  00050	74 07		 je	 SHORT $LN5@ins
$LN4@ins:
  00052	48 ff 05 50 00
	00 00		 inc	 QWORD PTR _Py_NoneStruct+80
$LN5@ins:

; 961  :     return Py_None;

  00059	48 8d 05 00 00
	00 00		 lea	 rax, OFFSET FLAT:_Py_NoneStruct

; 962  : }

  00060	48 83 c4 38	 add	 rsp, 56			; 00000038H
  00064	c3		 ret	 0
ins	ENDP
_TEXT	ENDS
EXTRN	PyLong_FromSsize_t:PROC
;	COMDAT pdata
; File c:\src\pyparallel\include\object.h
pdata	SEGMENT
$pdata$array_count DD imagerel array_count
	DD	imagerel array_count+246
	DD	imagerel $unwind$array_count
pdata	ENDS
;	COMDAT xdata
xdata	SEGMENT
$unwind$array_count DD 0a1801H
	DD	0c6418H
	DD	0b5418H
	DD	0a3418H
	DD	0d0145218H
	DD	07010c012H
; Function compile flags: /Ogtpy
; File c:\src\pyparallel\modules\arraymodule.c
xdata	ENDS
;	COMDAT array_count
_TEXT	SEGMENT
self$ = 80
v$ = 88
array_count PROC					; COMDAT

; 966  : {

  00000	48 89 5c 24 08	 mov	 QWORD PTR [rsp+8], rbx
  00005	48 89 6c 24 10	 mov	 QWORD PTR [rsp+16], rbp
  0000a	48 89 74 24 18	 mov	 QWORD PTR [rsp+24], rsi
  0000f	57		 push	 rdi
  00010	41 54		 push	 r12
  00012	41 55		 push	 r13
  00014	48 83 ec 30	 sub	 rsp, 48			; 00000030H

; 967  :     Py_ssize_t count = 0;

  00018	33 f6		 xor	 esi, esi
  0001a	4c 8b ea	 mov	 r13, rdx
  0001d	4c 8b e1	 mov	 r12, rcx

; 968  :     Py_ssize_t i;
; 969  : 
; 970  :     for (i = 0; i < Py_SIZE(self); i++) {

  00020	8b fe		 mov	 edi, esi
  00022	48 39 71 60	 cmp	 QWORD PTR [rcx+96], rsi
  00026	0f 8e a5 00 00
	00		 jle	 $LN4@array_coun
  0002c	0f 1f 40 00	 npad	 4
$LL6@array_coun:

; 971  :         PyObject *selfi = getarrayitem((PyObject *)self, i);

  00030	48 8b d7	 mov	 rdx, rdi
  00033	49 8b cc	 mov	 rcx, r12
  00036	e8 00 00 00 00	 call	 getarrayitem

; 972  :         int cmp = PyObject_RichCompareBool(selfi, v, Py_EQ);

  0003b	41 b8 02 00 00
	00		 mov	 r8d, 2
  00041	49 8b d5	 mov	 rdx, r13
  00044	48 8b c8	 mov	 rcx, rax
  00047	48 8b d8	 mov	 rbx, rax
  0004a	e8 00 00 00 00	 call	 PyObject_RichCompareBool
  0004f	8b e8		 mov	 ebp, eax

; 973  :         Py_DECREF(selfi);

  00051	e8 00 00 00 00	 call	 _Py_PXCTX
  00056	85 c0		 test	 eax, eax
  00058	75 5e		 jne	 SHORT $LN19@array_coun
  0005a	48 8b 4b 20	 mov	 rcx, QWORD PTR [rbx+32]
  0005e	f6 c1 20	 test	 cl, 32			; 00000020H
  00061	75 4d		 jne	 SHORT $LN13@array_coun
  00063	84 c9		 test	 cl, cl
  00065	78 49		 js	 SHORT $LN13@array_coun
  00067	f6 c1 02	 test	 cl, 2
  0006a	75 4c		 jne	 SHORT $LN19@array_coun
  0006c	48 ff 4b 50	 dec	 QWORD PTR [rbx+80]
  00070	75 46		 jne	 SHORT $LN19@array_coun
  00072	48 8d 15 00 00
	00 00		 lea	 rdx, OFFSET FLAT:??_C@_0CD@HDJFDCDP@c?3?2src?2pyparallel?2include?2object@
  00079	48 8d 0d 00 00
	00 00		 lea	 rcx, OFFSET FLAT:??_C@_0L@DMHMLFIA@_Py_DecRef?$AA@
  00080	4c 8b cb	 mov	 r9, rbx
  00083	41 b8 a4 03 00
	00		 mov	 r8d, 932		; 000003a4H
  00089	c7 44 24 20 10
	00 00 00	 mov	 DWORD PTR [rsp+32], 16
  00091	e8 00 00 00 00	 call	 _PyParallel_Guard
  00096	48 8b cb	 mov	 rcx, rbx
  00099	85 c0		 test	 eax, eax
  0009b	74 07		 je	 SHORT $LN18@array_coun
  0009d	e8 00 00 00 00	 call	 _Px_Dealloc
  000a2	eb 14		 jmp	 SHORT $LN19@array_coun
$LN18@array_coun:
  000a4	48 8b 43 58	 mov	 rax, QWORD PTR [rbx+88]
  000a8	ff 90 88 00 00
	00		 call	 QWORD PTR [rax+136]
  000ae	eb 08		 jmp	 SHORT $LN19@array_coun
$LN13@array_coun:
  000b0	48 8b cb	 mov	 rcx, rbx
  000b3	e8 00 00 00 00	 call	 Px_DecRef
$LN19@array_coun:

; 974  :         if (cmp > 0)

  000b8	85 ed		 test	 ebp, ebp
  000ba	7e 05		 jle	 SHORT $LN23@array_coun

; 975  :             count++;

  000bc	48 ff c6	 inc	 rsi
  000bf	eb 02		 jmp	 SHORT $LN5@array_coun
$LN23@array_coun:

; 976  :         else if (cmp < 0)

  000c1	78 2f		 js	 SHORT $LN21@array_coun
$LN5@array_coun:

; 968  :     Py_ssize_t i;
; 969  : 
; 970  :     for (i = 0; i < Py_SIZE(self); i++) {

  000c3	48 ff c7	 inc	 rdi
  000c6	49 3b 7c 24 60	 cmp	 rdi, QWORD PTR [r12+96]
  000cb	0f 8c 5f ff ff
	ff		 jl	 $LL6@array_coun
$LN4@array_coun:

; 978  :     }
; 979  :     return PyLong_FromSsize_t(count);

  000d1	48 8b ce	 mov	 rcx, rsi
  000d4	e8 00 00 00 00	 call	 PyLong_FromSsize_t
$LN7@array_coun:

; 980  : }

  000d9	48 8b 5c 24 50	 mov	 rbx, QWORD PTR [rsp+80]
  000de	48 8b 6c 24 58	 mov	 rbp, QWORD PTR [rsp+88]
  000e3	48 8b 74 24 60	 mov	 rsi, QWORD PTR [rsp+96]
  000e8	48 83 c4 30	 add	 rsp, 48			; 00000030H
  000ec	41 5d		 pop	 r13
  000ee	41 5c		 pop	 r12
  000f0	5f		 pop	 rdi
  000f1	c3		 ret	 0
$LN21@array_coun:

; 977  :             return NULL;

  000f2	33 c0		 xor	 eax, eax
  000f4	eb e3		 jmp	 SHORT $LN7@array_coun
array_count ENDP
_TEXT	ENDS
PUBLIC	??_C@_0BO@LMBGGMKK@array?4index?$CIx?$CJ?3?5x?5not?5in?5list?$AA@ ; `string'
EXTRN	PyExc_ValueError:QWORD
;	COMDAT pdata
; File c:\src\pyparallel\include\object.h
pdata	SEGMENT
$pdata$array_index DD imagerel array_index
	DD	imagerel array_index+260
	DD	imagerel $unwind$array_index
pdata	ENDS
;	COMDAT xdata
xdata	SEGMENT
$unwind$array_index DD 0a1a01H
	DD	0b741aH
	DD	0a641aH
	DD	09541aH
	DD	08341aH
	DD	0c016521aH
xdata	ENDS
;	COMDAT ??_C@_0BO@LMBGGMKK@array?4index?$CIx?$CJ?3?5x?5not?5in?5list?$AA@
CONST	SEGMENT
??_C@_0BO@LMBGGMKK@array?4index?$CIx?$CJ?3?5x?5not?5in?5list?$AA@ DB 'arr'
	DB	'ay.index(x): x not in list', 00H		; `string'
; Function compile flags: /Ogtpy
; File c:\src\pyparallel\modules\arraymodule.c
CONST	ENDS
;	COMDAT array_index
_TEXT	SEGMENT
self$ = 64
v$ = 72
array_index PROC					; COMDAT

; 989  : {

  00000	48 89 5c 24 08	 mov	 QWORD PTR [rsp+8], rbx
  00005	48 89 6c 24 10	 mov	 QWORD PTR [rsp+16], rbp
  0000a	48 89 74 24 18	 mov	 QWORD PTR [rsp+24], rsi
  0000f	48 89 7c 24 20	 mov	 QWORD PTR [rsp+32], rdi
  00014	41 54		 push	 r12
  00016	48 83 ec 30	 sub	 rsp, 48			; 00000030H

; 990  :     Py_ssize_t i;
; 991  : 
; 992  :     for (i = 0; i < Py_SIZE(self); i++) {

  0001a	33 ff		 xor	 edi, edi
  0001c	4c 8b e2	 mov	 r12, rdx
  0001f	48 8b e9	 mov	 rbp, rcx
  00022	48 39 79 60	 cmp	 QWORD PTR [rcx+96], rdi
  00026	0f 8e 9f 00 00
	00		 jle	 $LN4@array_inde
  0002c	0f 1f 40 00	 npad	 4
$LL6@array_inde:

; 993  :         PyObject *selfi = getarrayitem((PyObject *)self, i);

  00030	48 8b d7	 mov	 rdx, rdi
  00033	48 8b cd	 mov	 rcx, rbp
  00036	e8 00 00 00 00	 call	 getarrayitem

; 994  :         int cmp = PyObject_RichCompareBool(selfi, v, Py_EQ);

  0003b	41 b8 02 00 00
	00		 mov	 r8d, 2
  00041	49 8b d4	 mov	 rdx, r12
  00044	48 8b c8	 mov	 rcx, rax
  00047	48 8b d8	 mov	 rbx, rax
  0004a	e8 00 00 00 00	 call	 PyObject_RichCompareBool
  0004f	8b f0		 mov	 esi, eax

; 995  :         Py_DECREF(selfi);

  00051	e8 00 00 00 00	 call	 _Py_PXCTX
  00056	85 c0		 test	 eax, eax
  00058	75 5e		 jne	 SHORT $LN19@array_inde
  0005a	48 8b 4b 20	 mov	 rcx, QWORD PTR [rbx+32]
  0005e	f6 c1 20	 test	 cl, 32			; 00000020H
  00061	75 4d		 jne	 SHORT $LN13@array_inde
  00063	84 c9		 test	 cl, cl
  00065	78 49		 js	 SHORT $LN13@array_inde
  00067	f6 c1 02	 test	 cl, 2
  0006a	75 4c		 jne	 SHORT $LN19@array_inde
  0006c	48 ff 4b 50	 dec	 QWORD PTR [rbx+80]
  00070	75 46		 jne	 SHORT $LN19@array_inde
  00072	48 8d 15 00 00
	00 00		 lea	 rdx, OFFSET FLAT:??_C@_0CD@HDJFDCDP@c?3?2src?2pyparallel?2include?2object@
  00079	48 8d 0d 00 00
	00 00		 lea	 rcx, OFFSET FLAT:??_C@_0L@DMHMLFIA@_Py_DecRef?$AA@
  00080	4c 8b cb	 mov	 r9, rbx
  00083	41 b8 a4 03 00
	00		 mov	 r8d, 932		; 000003a4H
  00089	c7 44 24 20 10
	00 00 00	 mov	 DWORD PTR [rsp+32], 16
  00091	e8 00 00 00 00	 call	 _PyParallel_Guard
  00096	48 8b cb	 mov	 rcx, rbx
  00099	85 c0		 test	 eax, eax
  0009b	74 07		 je	 SHORT $LN18@array_inde
  0009d	e8 00 00 00 00	 call	 _Px_Dealloc
  000a2	eb 14		 jmp	 SHORT $LN19@array_inde
$LN18@array_inde:
  000a4	48 8b 43 58	 mov	 rax, QWORD PTR [rbx+88]
  000a8	ff 90 88 00 00
	00		 call	 QWORD PTR [rax+136]
  000ae	eb 08		 jmp	 SHORT $LN19@array_inde
$LN13@array_inde:
  000b0	48 8b cb	 mov	 rcx, rbx
  000b3	e8 00 00 00 00	 call	 Px_DecRef
$LN19@array_inde:

; 996  :         if (cmp > 0) {

  000b8	85 f6		 test	 esi, esi
  000ba	7f 3f		 jg	 SHORT $LN21@array_inde

; 998  :         }
; 999  :         else if (cmp < 0)

  000bc	78 20		 js	 SHORT $LN22@array_inde

; 990  :     Py_ssize_t i;
; 991  : 
; 992  :     for (i = 0; i < Py_SIZE(self); i++) {

  000be	48 ff c7	 inc	 rdi
  000c1	48 3b 7d 60	 cmp	 rdi, QWORD PTR [rbp+96]
  000c5	0f 8c 65 ff ff
	ff		 jl	 $LL6@array_inde
$LN4@array_inde:

; 1000 :             return NULL;
; 1001 :     }
; 1002 :     PyErr_SetString(PyExc_ValueError, "array.index(x): x not in list");

  000cb	48 8b 0d 00 00
	00 00		 mov	 rcx, QWORD PTR PyExc_ValueError
  000d2	48 8d 15 00 00
	00 00		 lea	 rdx, OFFSET FLAT:??_C@_0BO@LMBGGMKK@array?4index?$CIx?$CJ?3?5x?5not?5in?5list?$AA@
  000d9	e8 00 00 00 00	 call	 PyErr_SetString
$LN22@array_inde:

; 1003 :     return NULL;

  000de	33 c0		 xor	 eax, eax
$LN7@array_inde:

; 1004 : }

  000e0	48 8b 5c 24 40	 mov	 rbx, QWORD PTR [rsp+64]
  000e5	48 8b 6c 24 48	 mov	 rbp, QWORD PTR [rsp+72]
  000ea	48 8b 74 24 50	 mov	 rsi, QWORD PTR [rsp+80]
  000ef	48 8b 7c 24 58	 mov	 rdi, QWORD PTR [rsp+88]
  000f4	48 83 c4 30	 add	 rsp, 48			; 00000030H
  000f8	41 5c		 pop	 r12
  000fa	c3		 ret	 0
$LN21@array_inde:

; 997  :             return PyLong_FromLong((long)i);

  000fb	8b cf		 mov	 ecx, edi
  000fd	e8 00 00 00 00	 call	 PyLong_FromLong
  00102	eb dc		 jmp	 SHORT $LN7@array_inde
array_index ENDP
_TEXT	ENDS
;	COMDAT pdata
; File c:\src\pyparallel\include\object.h
pdata	SEGMENT
$pdata$array_contains DD imagerel array_contains
	DD	imagerel array_contains+222
	DD	imagerel $unwind$array_contains
pdata	ENDS
;	COMDAT xdata
xdata	SEGMENT
$unwind$array_contains DD 0a2401H
	DD	083424H
	DD	0b7415H
	DD	0a6415H
	DD	095415H
	DD	0c0115215H
; Function compile flags: /Ogtpy
; File c:\src\pyparallel\modules\arraymodule.c
xdata	ENDS
;	COMDAT array_contains
_TEXT	SEGMENT
self$ = 64
v$ = 72
array_contains PROC					; COMDAT

; 1013 : {

  00000	48 89 6c 24 10	 mov	 QWORD PTR [rsp+16], rbp
  00005	48 89 74 24 18	 mov	 QWORD PTR [rsp+24], rsi
  0000a	48 89 7c 24 20	 mov	 QWORD PTR [rsp+32], rdi
  0000f	41 54		 push	 r12
  00011	48 83 ec 30	 sub	 rsp, 48			; 00000030H

; 1014 :     Py_ssize_t i;
; 1015 :     int cmp;
; 1016 : 
; 1017 :     for (i = 0, cmp = 0 ; cmp == 0 && i < Py_SIZE(self); i++) {

  00015	33 ff		 xor	 edi, edi
  00017	4c 8b e2	 mov	 r12, rdx
  0001a	48 8b e9	 mov	 rbp, rcx
  0001d	8b f7		 mov	 esi, edi
  0001f	48 89 5c 24 40	 mov	 QWORD PTR [rsp+64], rbx
$LL3@array_cont:
  00024	48 3b 7d 60	 cmp	 rdi, QWORD PTR [rbp+96]
  00028	0f 8d 93 00 00
	00		 jge	 $LN19@array_cont

; 1018 :         PyObject *selfi = getarrayitem((PyObject *)self, i);

  0002e	48 8b d7	 mov	 rdx, rdi
  00031	48 8b cd	 mov	 rcx, rbp
  00034	e8 00 00 00 00	 call	 getarrayitem

; 1019 :         cmp = PyObject_RichCompareBool(selfi, v, Py_EQ);

  00039	41 b8 02 00 00
	00		 mov	 r8d, 2
  0003f	49 8b d4	 mov	 rdx, r12
  00042	48 8b c8	 mov	 rcx, rax
  00045	48 8b d8	 mov	 rbx, rax
  00048	e8 00 00 00 00	 call	 PyObject_RichCompareBool
  0004d	8b f0		 mov	 esi, eax

; 1020 :         Py_DECREF(selfi);

  0004f	e8 00 00 00 00	 call	 _Py_PXCTX
  00054	85 c0		 test	 eax, eax
  00056	75 5e		 jne	 SHORT $LN2@array_cont
  00058	48 8b 4b 20	 mov	 rcx, QWORD PTR [rbx+32]
  0005c	f6 c1 20	 test	 cl, 32			; 00000020H
  0005f	75 4d		 jne	 SHORT $LN10@array_cont
  00061	84 c9		 test	 cl, cl
  00063	78 49		 js	 SHORT $LN10@array_cont
  00065	f6 c1 02	 test	 cl, 2
  00068	75 4c		 jne	 SHORT $LN2@array_cont
  0006a	48 ff 4b 50	 dec	 QWORD PTR [rbx+80]
  0006e	75 46		 jne	 SHORT $LN2@array_cont
  00070	48 8d 15 00 00
	00 00		 lea	 rdx, OFFSET FLAT:??_C@_0CD@HDJFDCDP@c?3?2src?2pyparallel?2include?2object@
  00077	48 8d 0d 00 00
	00 00		 lea	 rcx, OFFSET FLAT:??_C@_0L@DMHMLFIA@_Py_DecRef?$AA@
  0007e	4c 8b cb	 mov	 r9, rbx
  00081	41 b8 a4 03 00
	00		 mov	 r8d, 932		; 000003a4H
  00087	c7 44 24 20 10
	00 00 00	 mov	 DWORD PTR [rsp+32], 16
  0008f	e8 00 00 00 00	 call	 _PyParallel_Guard
  00094	48 8b cb	 mov	 rcx, rbx
  00097	85 c0		 test	 eax, eax
  00099	74 07		 je	 SHORT $LN15@array_cont
  0009b	e8 00 00 00 00	 call	 _Px_Dealloc
  000a0	eb 14		 jmp	 SHORT $LN2@array_cont
$LN15@array_cont:
  000a2	48 8b 43 58	 mov	 rax, QWORD PTR [rbx+88]
  000a6	ff 90 88 00 00
	00		 call	 QWORD PTR [rax+136]
  000ac	eb 08		 jmp	 SHORT $LN2@array_cont
$LN10@array_cont:
  000ae	48 8b cb	 mov	 rcx, rbx
  000b1	e8 00 00 00 00	 call	 Px_DecRef
$LN2@array_cont:

; 1014 :     Py_ssize_t i;
; 1015 :     int cmp;
; 1016 : 
; 1017 :     for (i = 0, cmp = 0 ; cmp == 0 && i < Py_SIZE(self); i++) {

  000b6	48 ff c7	 inc	 rdi
  000b9	85 f6		 test	 esi, esi
  000bb	0f 84 63 ff ff
	ff		 je	 $LL3@array_cont
$LN19@array_cont:
  000c1	48 8b 5c 24 40	 mov	 rbx, QWORD PTR [rsp+64]

; 1021 :     }
; 1022 :     return cmp;
; 1023 : }

  000c6	48 8b 6c 24 48	 mov	 rbp, QWORD PTR [rsp+72]
  000cb	48 8b 7c 24 58	 mov	 rdi, QWORD PTR [rsp+88]
  000d0	8b c6		 mov	 eax, esi
  000d2	48 8b 74 24 50	 mov	 rsi, QWORD PTR [rsp+80]
  000d7	48 83 c4 30	 add	 rsp, 48			; 00000030H
  000db	41 5c		 pop	 r12
  000dd	c3		 ret	 0
array_contains ENDP
_TEXT	ENDS
PUBLIC	??_C@_0BP@MLCNIPFC@array?4remove?$CIx?$CJ?3?5x?5not?5in?5list?$AA@ ; `string'
;	COMDAT pdata
; File c:\src\pyparallel\include\object.h
pdata	SEGMENT
$pdata$array_remove DD imagerel array_remove
	DD	imagerel array_remove+358
	DD	imagerel $unwind$array_remove
pdata	ENDS
;	COMDAT xdata
xdata	SEGMENT
$unwind$array_remove DD 0a1a01H
	DD	0b741aH
	DD	0a641aH
	DD	09541aH
	DD	08341aH
	DD	0c016521aH
xdata	ENDS
;	COMDAT ??_C@_0BP@MLCNIPFC@array?4remove?$CIx?$CJ?3?5x?5not?5in?5list?$AA@
CONST	SEGMENT
??_C@_0BP@MLCNIPFC@array?4remove?$CIx?$CJ?3?5x?5not?5in?5list?$AA@ DB 'ar'
	DB	'ray.remove(x): x not in list', 00H		; `string'
; Function compile flags: /Ogtpy
; File c:\src\pyparallel\modules\arraymodule.c
CONST	ENDS
;	COMDAT array_remove
_TEXT	SEGMENT
self$ = 64
v$ = 72
array_remove PROC					; COMDAT

; 1027 : {

  00000	48 89 5c 24 08	 mov	 QWORD PTR [rsp+8], rbx
  00005	48 89 6c 24 10	 mov	 QWORD PTR [rsp+16], rbp
  0000a	48 89 74 24 18	 mov	 QWORD PTR [rsp+24], rsi
  0000f	48 89 7c 24 20	 mov	 QWORD PTR [rsp+32], rdi
  00014	41 54		 push	 r12
  00016	48 83 ec 30	 sub	 rsp, 48			; 00000030H

; 1028 :     int i;
; 1029 : 
; 1030 :     for (i = 0; i < Py_SIZE(self); i++) {

  0001a	33 ff		 xor	 edi, edi
  0001c	4c 8b e2	 mov	 r12, rdx
  0001f	48 8b e9	 mov	 rbp, rcx
  00022	48 39 79 60	 cmp	 QWORD PTR [rcx+96], rdi
  00026	0f 8e a1 00 00
	00		 jle	 $LN5@array_remo
  0002c	8b c7		 mov	 eax, edi
  0002e	66 90		 npad	 2
$LL7@array_remo:

; 1031 :         PyObject *selfi = getarrayitem((PyObject *)self,i);

  00030	48 8b d0	 mov	 rdx, rax
  00033	48 8b cd	 mov	 rcx, rbp
  00036	e8 00 00 00 00	 call	 getarrayitem

; 1032 :         int cmp = PyObject_RichCompareBool(selfi, v, Py_EQ);

  0003b	41 b8 02 00 00
	00		 mov	 r8d, 2
  00041	49 8b d4	 mov	 rdx, r12
  00044	48 8b c8	 mov	 rcx, rax
  00047	48 8b d8	 mov	 rbx, rax
  0004a	e8 00 00 00 00	 call	 PyObject_RichCompareBool
  0004f	8b f0		 mov	 esi, eax

; 1033 :         Py_DECREF(selfi);

  00051	e8 00 00 00 00	 call	 _Py_PXCTX
  00056	85 c0		 test	 eax, eax
  00058	75 5e		 jne	 SHORT $LN20@array_remo
  0005a	48 8b 4b 20	 mov	 rcx, QWORD PTR [rbx+32]
  0005e	f6 c1 20	 test	 cl, 32			; 00000020H
  00061	75 4d		 jne	 SHORT $LN14@array_remo
  00063	84 c9		 test	 cl, cl
  00065	78 49		 js	 SHORT $LN14@array_remo
  00067	f6 c1 02	 test	 cl, 2
  0006a	75 4c		 jne	 SHORT $LN20@array_remo
  0006c	48 ff 4b 50	 dec	 QWORD PTR [rbx+80]
  00070	75 46		 jne	 SHORT $LN20@array_remo
  00072	48 8d 15 00 00
	00 00		 lea	 rdx, OFFSET FLAT:??_C@_0CD@HDJFDCDP@c?3?2src?2pyparallel?2include?2object@
  00079	48 8d 0d 00 00
	00 00		 lea	 rcx, OFFSET FLAT:??_C@_0L@DMHMLFIA@_Py_DecRef?$AA@
  00080	4c 8b cb	 mov	 r9, rbx
  00083	41 b8 a4 03 00
	00		 mov	 r8d, 932		; 000003a4H
  00089	c7 44 24 20 10
	00 00 00	 mov	 DWORD PTR [rsp+32], 16
  00091	e8 00 00 00 00	 call	 _PyParallel_Guard
  00096	48 8b cb	 mov	 rcx, rbx
  00099	85 c0		 test	 eax, eax
  0009b	74 07		 je	 SHORT $LN19@array_remo
  0009d	e8 00 00 00 00	 call	 _Px_Dealloc
  000a2	eb 14		 jmp	 SHORT $LN20@array_remo
$LN19@array_remo:
  000a4	48 8b 43 58	 mov	 rax, QWORD PTR [rbx+88]
  000a8	ff 90 88 00 00
	00		 call	 QWORD PTR [rax+136]
  000ae	eb 08		 jmp	 SHORT $LN20@array_remo
$LN14@array_remo:
  000b0	48 8b cb	 mov	 rcx, rbx
  000b3	e8 00 00 00 00	 call	 Px_DecRef
$LN20@array_remo:

; 1034 :         if (cmp > 0) {

  000b8	85 f6		 test	 esi, esi
  000ba	7f 41		 jg	 SHORT $LN26@array_remo

; 1040 :         }
; 1041 :         else if (cmp < 0)

  000bc	78 22		 js	 SHORT $LN27@array_remo

; 1028 :     int i;
; 1029 : 
; 1030 :     for (i = 0; i < Py_SIZE(self); i++) {

  000be	ff c7		 inc	 edi
  000c0	48 63 c7	 movsxd	 rax, edi
  000c3	48 3b 45 60	 cmp	 rax, QWORD PTR [rbp+96]
  000c7	0f 8c 63 ff ff
	ff		 jl	 $LL7@array_remo
$LN5@array_remo:

; 1042 :             return NULL;
; 1043 :     }
; 1044 :     PyErr_SetString(PyExc_ValueError, "array.remove(x): x not in list");

  000cd	48 8b 0d 00 00
	00 00		 mov	 rcx, QWORD PTR PyExc_ValueError
  000d4	48 8d 15 00 00
	00 00		 lea	 rdx, OFFSET FLAT:??_C@_0BP@MLCNIPFC@array?4remove?$CIx?$CJ?3?5x?5not?5in?5list?$AA@
  000db	e8 00 00 00 00	 call	 PyErr_SetString
$LN27@array_remo:

; 1045 :     return NULL;

  000e0	33 c0		 xor	 eax, eax
$LN8@array_remo:

; 1046 : }

  000e2	48 8b 5c 24 40	 mov	 rbx, QWORD PTR [rsp+64]
  000e7	48 8b 6c 24 48	 mov	 rbp, QWORD PTR [rsp+72]
  000ec	48 8b 74 24 50	 mov	 rsi, QWORD PTR [rsp+80]
  000f1	48 8b 7c 24 58	 mov	 rdi, QWORD PTR [rsp+88]
  000f6	48 83 c4 30	 add	 rsp, 48			; 00000030H
  000fa	41 5c		 pop	 r12
  000fc	c3		 ret	 0
$LN26@array_remo:

; 1035 :             if (array_ass_slice(self, i, i+1,
; 1036 :                                (PyObject *)NULL) != 0)

  000fd	8d 47 01	 lea	 eax, DWORD PTR [rdi+1]
  00100	48 63 d7	 movsxd	 rdx, edi
  00103	45 33 c9	 xor	 r9d, r9d
  00106	4c 63 c0	 movsxd	 r8, eax
  00109	48 8b cd	 mov	 rcx, rbp
  0010c	e8 00 00 00 00	 call	 array_ass_slice
  00111	85 c0		 test	 eax, eax

; 1037 :                 return NULL;

  00113	75 cb		 jne	 SHORT $LN27@array_remo

; 1038 :             Py_INCREF(Py_None);

  00115	e8 00 00 00 00	 call	 _Py_PXCTX
  0011a	85 c0		 test	 eax, eax
  0011c	75 3c		 jne	 SHORT $LN22@array_remo
  0011e	4c 8d 0d 00 00
	00 00		 lea	 r9, OFFSET FLAT:_Py_NoneStruct
  00125	48 8d 15 00 00
	00 00		 lea	 rdx, OFFSET FLAT:??_C@_0CD@HDJFDCDP@c?3?2src?2pyparallel?2include?2object@
  0012c	48 8d 0d 00 00
	00 00		 lea	 rcx, OFFSET FLAT:??_C@_0L@DHGMCEID@_Py_IncRef?$AA@
  00133	41 b8 89 03 00
	00		 mov	 r8d, 905		; 00000389H
  00139	c7 44 24 20 02
	00 00 00	 mov	 DWORD PTR [rsp+32], 2
  00141	e8 00 00 00 00	 call	 _PyParallel_Guard
  00146	85 c0		 test	 eax, eax
  00148	75 09		 jne	 SHORT $LN21@array_remo
  0014a	f6 05 20 00 00
	00 20		 test	 BYTE PTR _Py_NoneStruct+32, 32 ; 00000020H
  00151	74 07		 je	 SHORT $LN22@array_remo
$LN21@array_remo:
  00153	48 ff 05 50 00
	00 00		 inc	 QWORD PTR _Py_NoneStruct+80
$LN22@array_remo:

; 1039 :             return Py_None;

  0015a	48 8d 05 00 00
	00 00		 lea	 rax, OFFSET FLAT:_Py_NoneStruct
  00161	e9 7c ff ff ff	 jmp	 $LN8@array_remo
array_remove ENDP
_TEXT	ENDS
PUBLIC	??_C@_0BH@IJGJGNPF@pop?5index?5out?5of?5range?$AA@ ; `string'
PUBLIC	??_C@_0BF@MIKMJNKA@pop?5from?5empty?5array?$AA@	; `string'
PUBLIC	??_C@_06JHLPABKE@?$HMn?3pop?$AA@		; `string'
EXTRN	_PyArg_ParseTuple_SizeT:PROC
;	COMDAT pdata
pdata	SEGMENT
$pdata$array_pop DD imagerel array_pop
	DD	imagerel array_pop+109
	DD	imagerel $unwind$array_pop
pdata	ENDS
;	COMDAT pdata
pdata	SEGMENT
$pdata$0$array_pop DD imagerel array_pop+109
	DD	imagerel array_pop+167
	DD	imagerel $chain$0$array_pop
pdata	ENDS
;	COMDAT pdata
pdata	SEGMENT
$pdata$2$array_pop DD imagerel array_pop+167
	DD	imagerel array_pop+181
	DD	imagerel $chain$2$array_pop
pdata	ENDS
;	COMDAT pdata
pdata	SEGMENT
$pdata$3$array_pop DD imagerel array_pop+181
	DD	imagerel array_pop+208
	DD	imagerel $chain$3$array_pop
pdata	ENDS
;	COMDAT xdata
xdata	SEGMENT
$chain$3$array_pop DD 021H
	DD	imagerel array_pop
	DD	imagerel array_pop+109
	DD	imagerel $unwind$array_pop
xdata	ENDS
;	COMDAT xdata
xdata	SEGMENT
$chain$2$array_pop DD 020021H
	DD	063400H
	DD	imagerel array_pop
	DD	imagerel array_pop+109
	DD	imagerel $unwind$array_pop
xdata	ENDS
;	COMDAT xdata
xdata	SEGMENT
$chain$0$array_pop DD 020521H
	DD	063405H
	DD	imagerel array_pop
	DD	imagerel array_pop+109
	DD	imagerel $unwind$array_pop
xdata	ENDS
;	COMDAT xdata
xdata	SEGMENT
$unwind$array_pop DD 020601H
	DD	070023206H
xdata	ENDS
;	COMDAT ??_C@_0BH@IJGJGNPF@pop?5index?5out?5of?5range?$AA@
CONST	SEGMENT
??_C@_0BH@IJGJGNPF@pop?5index?5out?5of?5range?$AA@ DB 'pop index out of r'
	DB	'ange', 00H					; `string'
CONST	ENDS
;	COMDAT ??_C@_0BF@MIKMJNKA@pop?5from?5empty?5array?$AA@
CONST	SEGMENT
??_C@_0BF@MIKMJNKA@pop?5from?5empty?5array?$AA@ DB 'pop from empty array', 00H ; `string'
CONST	ENDS
;	COMDAT ??_C@_06JHLPABKE@?$HMn?3pop?$AA@
CONST	SEGMENT
??_C@_06JHLPABKE@?$HMn?3pop?$AA@ DB '|n:pop', 00H	; `string'
; Function compile flags: /Ogtpy
CONST	ENDS
;	COMDAT array_pop
_TEXT	SEGMENT
self$ = 48
args$ = 56
i$ = 64
array_pop PROC						; COMDAT

; 1055 : {

  00000	40 57		 push	 rdi
  00002	48 83 ec 20	 sub	 rsp, 32			; 00000020H
  00006	48 8b c2	 mov	 rax, rdx
  00009	48 8b f9	 mov	 rdi, rcx

; 1056 :     Py_ssize_t i = -1;
; 1057 :     PyObject *v;
; 1058 :     if (!PyArg_ParseTuple(args, "|n:pop", &i))

  0000c	4c 8d 44 24 40	 lea	 r8, QWORD PTR i$[rsp]
  00011	48 8d 15 00 00
	00 00		 lea	 rdx, OFFSET FLAT:??_C@_06JHLPABKE@?$HMn?3pop?$AA@
  00018	48 8b c8	 mov	 rcx, rax
  0001b	48 c7 44 24 40
	ff ff ff ff	 mov	 QWORD PTR i$[rsp], -1
  00024	e8 00 00 00 00	 call	 _PyArg_ParseTuple_SizeT
  00029	85 c0		 test	 eax, eax

; 1059 :         return NULL;

  0002b	74 1c		 je	 SHORT $LN11@array_pop

; 1060 :     if (Py_SIZE(self) == 0) {

  0002d	48 8b 47 60	 mov	 rax, QWORD PTR [rdi+96]
  00031	48 85 c0	 test	 rax, rax
  00034	75 1b		 jne	 SHORT $LN5@array_pop

; 1061 :         /* Special-case most common failure cause */
; 1062 :         PyErr_SetString(PyExc_IndexError, "pop from empty array");

  00036	48 8b 0d 00 00
	00 00		 mov	 rcx, QWORD PTR PyExc_IndexError
  0003d	48 8d 15 00 00
	00 00		 lea	 rdx, OFFSET FLAT:??_C@_0BF@MIKMJNKA@pop?5from?5empty?5array?$AA@
  00044	e8 00 00 00 00	 call	 PyErr_SetString
$LN11@array_pop:

; 1063 :         return NULL;

  00049	33 c0		 xor	 eax, eax

; 1077 : }

  0004b	48 83 c4 20	 add	 rsp, 32			; 00000020H
  0004f	5f		 pop	 rdi
  00050	c3		 ret	 0
$LN5@array_pop:

; 1064 :     }
; 1065 :     if (i < 0)

  00051	48 8b 54 24 40	 mov	 rdx, QWORD PTR i$[rsp]
  00056	48 85 d2	 test	 rdx, rdx
  00059	79 0a		 jns	 SHORT $LN9@array_pop

; 1066 :         i += Py_SIZE(self);

  0005b	48 03 d0	 add	 rdx, rax
  0005e	48 89 54 24 40	 mov	 QWORD PTR i$[rsp], rdx

; 1067 :     if (i < 0 || i >= Py_SIZE(self)) {

  00063	78 50		 js	 SHORT $LN2@array_pop
$LN9@array_pop:
  00065	48 3b d0	 cmp	 rdx, rax
  00068	7d 4b		 jge	 SHORT $LN2@array_pop

; 1070 :     }
; 1071 :     v = getarrayitem((PyObject *)self,i);

  0006a	48 8b cf	 mov	 rcx, rdi
  0006d	48 89 5c 24 30	 mov	 QWORD PTR [rsp+48], rbx
  00072	e8 00 00 00 00	 call	 getarrayitem

; 1072 :     if (array_ass_slice(self, i, i+1, (PyObject *)NULL) != 0) {

  00077	48 8b 54 24 40	 mov	 rdx, QWORD PTR i$[rsp]
  0007c	45 33 c9	 xor	 r9d, r9d
  0007f	4c 8d 42 01	 lea	 r8, QWORD PTR [rdx+1]
  00083	48 8b cf	 mov	 rcx, rdi
  00086	48 8b d8	 mov	 rbx, rax
  00089	e8 00 00 00 00	 call	 array_ass_slice
  0008e	85 c0		 test	 eax, eax
  00090	74 15		 je	 SHORT $LN1@array_pop

; 1073 :         Py_DECREF(v);

  00092	48 8b cb	 mov	 rcx, rbx
  00095	e8 00 00 00 00	 call	 _Py_DecRef
  0009a	48 8b 5c 24 30	 mov	 rbx, QWORD PTR [rsp+48]

; 1074 :         return NULL;

  0009f	33 c0		 xor	 eax, eax

; 1077 : }

  000a1	48 83 c4 20	 add	 rsp, 32			; 00000020H
  000a5	5f		 pop	 rdi
  000a6	c3		 ret	 0
$LN1@array_pop:

; 1075 :     }
; 1076 :     return v;

  000a7	48 8b c3	 mov	 rax, rbx
  000aa	48 8b 5c 24 30	 mov	 rbx, QWORD PTR [rsp+48]

; 1077 : }

  000af	48 83 c4 20	 add	 rsp, 32			; 00000020H
  000b3	5f		 pop	 rdi
  000b4	c3		 ret	 0
$LN2@array_pop:

; 1068 :         PyErr_SetString(PyExc_IndexError, "pop index out of range");

  000b5	48 8b 0d 00 00
	00 00		 mov	 rcx, QWORD PTR PyExc_IndexError
  000bc	48 8d 15 00 00
	00 00		 lea	 rdx, OFFSET FLAT:??_C@_0BH@IJGJGNPF@pop?5index?5out?5of?5range?$AA@
  000c3	e8 00 00 00 00	 call	 PyErr_SetString

; 1069 :         return NULL;

  000c8	33 c0		 xor	 eax, eax

; 1077 : }

  000ca	48 83 c4 20	 add	 rsp, 32			; 00000020H
  000ce	5f		 pop	 rdi
  000cf	c3		 ret	 0
array_pop ENDP
_TEXT	ENDS
;	COMDAT pdata
; File c:\src\pyparallel\include\object.h
pdata	SEGMENT
$pdata$array_extend DD imagerel array_extend
	DD	imagerel array_extend+102
	DD	imagerel $unwind$array_extend
pdata	ENDS
;	COMDAT xdata
xdata	SEGMENT
$unwind$array_extend DD 010401H
	DD	06204H
; Function compile flags: /Ogtpy
; File c:\src\pyparallel\modules\arraymodule.c
xdata	ENDS
;	COMDAT array_extend
_TEXT	SEGMENT
self$ = 64
bb$ = 72
array_extend PROC					; COMDAT

; 1086 : {

  00000	48 83 ec 38	 sub	 rsp, 56			; 00000038H

; 1087 :     if (array_do_extend(self, bb) == -1)

  00004	e8 00 00 00 00	 call	 array_do_extend
  00009	83 f8 ff	 cmp	 eax, -1
  0000c	75 07		 jne	 SHORT $LN1@array_exte

; 1088 :         return NULL;

  0000e	33 c0		 xor	 eax, eax

; 1091 : }

  00010	48 83 c4 38	 add	 rsp, 56			; 00000038H
  00014	c3		 ret	 0
$LN1@array_exte:

; 1089 :     Py_INCREF(Py_None);

  00015	e8 00 00 00 00	 call	 _Py_PXCTX
  0001a	85 c0		 test	 eax, eax
  0001c	75 3c		 jne	 SHORT $LN5@array_exte
  0001e	4c 8d 0d 00 00
	00 00		 lea	 r9, OFFSET FLAT:_Py_NoneStruct
  00025	48 8d 15 00 00
	00 00		 lea	 rdx, OFFSET FLAT:??_C@_0CD@HDJFDCDP@c?3?2src?2pyparallel?2include?2object@
  0002c	48 8d 0d 00 00
	00 00		 lea	 rcx, OFFSET FLAT:??_C@_0L@DHGMCEID@_Py_IncRef?$AA@
  00033	41 b8 89 03 00
	00		 mov	 r8d, 905		; 00000389H
  00039	c7 44 24 20 02
	00 00 00	 mov	 DWORD PTR [rsp+32], 2
  00041	e8 00 00 00 00	 call	 _PyParallel_Guard
  00046	85 c0		 test	 eax, eax
  00048	75 09		 jne	 SHORT $LN4@array_exte
  0004a	f6 05 20 00 00
	00 20		 test	 BYTE PTR _Py_NoneStruct+32, 32 ; 00000020H
  00051	74 07		 je	 SHORT $LN5@array_exte
$LN4@array_exte:
  00053	48 ff 05 50 00
	00 00		 inc	 QWORD PTR _Py_NoneStruct+80
$LN5@array_exte:

; 1090 :     return Py_None;

  0005a	48 8d 05 00 00
	00 00		 lea	 rax, OFFSET FLAT:_Py_NoneStruct

; 1091 : }

  00061	48 83 c4 38	 add	 rsp, 56			; 00000038H
  00065	c3		 ret	 0
array_extend ENDP
_TEXT	ENDS
PUBLIC	??_C@_09EEABNKNH@nO?3insert?$AA@		; `string'
;	COMDAT pdata
pdata	SEGMENT
$pdata$array_insert DD imagerel array_insert
	DD	imagerel array_insert+73
	DD	imagerel $unwind$array_insert
pdata	ENDS
;	COMDAT xdata
xdata	SEGMENT
$unwind$array_insert DD 020601H
	DD	030023206H
xdata	ENDS
;	COMDAT ??_C@_09EEABNKNH@nO?3insert?$AA@
CONST	SEGMENT
??_C@_09EEABNKNH@nO?3insert?$AA@ DB 'nO:insert', 00H	; `string'
; Function compile flags: /Ogtpy
CONST	ENDS
;	COMDAT array_insert
_TEXT	SEGMENT
self$ = 48
args$ = 56
v$ = 64
i$ = 72
array_insert PROC					; COMDAT

; 1100 : {

  00000	40 53		 push	 rbx
  00002	48 83 ec 20	 sub	 rsp, 32			; 00000020H
  00006	48 8b c2	 mov	 rax, rdx
  00009	48 8b d9	 mov	 rbx, rcx

; 1101 :     Py_ssize_t i;
; 1102 :     PyObject *v;
; 1103 :     if (!PyArg_ParseTuple(args, "nO:insert", &i, &v))

  0000c	4c 8d 4c 24 40	 lea	 r9, QWORD PTR v$[rsp]
  00011	48 8d 15 00 00
	00 00		 lea	 rdx, OFFSET FLAT:??_C@_09EEABNKNH@nO?3insert?$AA@
  00018	4c 8d 44 24 48	 lea	 r8, QWORD PTR i$[rsp]
  0001d	48 8b c8	 mov	 rcx, rax
  00020	e8 00 00 00 00	 call	 _PyArg_ParseTuple_SizeT
  00025	85 c0		 test	 eax, eax
  00027	75 08		 jne	 SHORT $LN1@array_inse

; 1104 :         return NULL;

  00029	33 c0		 xor	 eax, eax

; 1106 : }

  0002b	48 83 c4 20	 add	 rsp, 32			; 00000020H
  0002f	5b		 pop	 rbx
  00030	c3		 ret	 0
$LN1@array_inse:

; 1105 :     return ins(self, i, v);

  00031	4c 8b 44 24 40	 mov	 r8, QWORD PTR v$[rsp]
  00036	48 8b 54 24 48	 mov	 rdx, QWORD PTR i$[rsp]
  0003b	48 8b cb	 mov	 rcx, rbx
  0003e	e8 00 00 00 00	 call	 ins

; 1106 : }

  00043	48 83 c4 20	 add	 rsp, 32			; 00000020H
  00047	5b		 pop	 rbx
  00048	c3		 ret	 0
array_insert ENDP
_TEXT	ENDS
EXTRN	PyLong_FromVoidPtr:PROC
EXTRN	PyTuple_New:PROC
;	COMDAT pdata
pdata	SEGMENT
$pdata$array_buffer_info DD imagerel array_buffer_info
	DD	imagerel array_buffer_info+81
	DD	imagerel $unwind$array_buffer_info
pdata	ENDS
;	COMDAT xdata
xdata	SEGMENT
$unwind$array_buffer_info DD 040a01H
	DD	06340aH
	DD	07006320aH
; Function compile flags: /Ogtpy
xdata	ENDS
;	COMDAT array_buffer_info
_TEXT	SEGMENT
self$ = 48
unused$ = 56
array_buffer_info PROC					; COMDAT

; 1116 : {

  00000	48 89 5c 24 08	 mov	 QWORD PTR [rsp+8], rbx
  00005	57		 push	 rdi
  00006	48 83 ec 20	 sub	 rsp, 32			; 00000020H
  0000a	48 8b f9	 mov	 rdi, rcx

; 1117 :     PyObject* retval = NULL;
; 1118 :     retval = PyTuple_New(2);

  0000d	b9 02 00 00 00	 mov	 ecx, 2
  00012	e8 00 00 00 00	 call	 PyTuple_New
  00017	48 8b d8	 mov	 rbx, rax

; 1119 :     if (!retval)

  0001a	48 85 c0	 test	 rax, rax
  0001d	75 0b		 jne	 SHORT $LN1@array_buff

; 1126 : }

  0001f	48 8b 5c 24 30	 mov	 rbx, QWORD PTR [rsp+48]
  00024	48 83 c4 20	 add	 rsp, 32			; 00000020H
  00028	5f		 pop	 rdi
  00029	c3		 ret	 0
$LN1@array_buff:

; 1120 :         return NULL;
; 1121 : 
; 1122 :     PyTuple_SET_ITEM(retval, 0, PyLong_FromVoidPtr(self->ob_item));

  0002a	48 8b 4f 70	 mov	 rcx, QWORD PTR [rdi+112]
  0002e	e8 00 00 00 00	 call	 PyLong_FromVoidPtr
  00033	48 89 43 70	 mov	 QWORD PTR [rbx+112], rax

; 1123 :     PyTuple_SET_ITEM(retval, 1, PyLong_FromLong((long)(Py_SIZE(self))));

  00037	8b 4f 60	 mov	 ecx, DWORD PTR [rdi+96]
  0003a	e8 00 00 00 00	 call	 PyLong_FromLong
  0003f	48 89 43 78	 mov	 QWORD PTR [rbx+120], rax

; 1124 : 
; 1125 :     return retval;

  00043	48 8b c3	 mov	 rax, rbx

; 1126 : }

  00046	48 8b 5c 24 30	 mov	 rbx, QWORD PTR [rsp+48]
  0004b	48 83 c4 20	 add	 rsp, 32			; 00000020H
  0004f	5f		 pop	 rdi
  00050	c3		 ret	 0
array_buffer_info ENDP
; Function compile flags: /Ogtpy
_TEXT	ENDS
;	COMDAT array_append
_TEXT	SEGMENT
self$ = 8
v$ = 16
array_append PROC					; COMDAT

; 1140 :     return ins(self, Py_SIZE(self), v);

  00000	4c 8b c2	 mov	 r8, rdx
  00003	48 8b 51 60	 mov	 rdx, QWORD PTR [rcx+96]

; 1141 : }

  00007	e9 00 00 00 00	 jmp	 ins
array_append ENDP
_TEXT	ENDS
PUBLIC	??_C@_0CL@PDOKFCDD@don?8t?5know?5how?5to?5byteswap?5this?5@ ; `string'
EXTRN	PyExc_RuntimeError:QWORD
;	COMDAT pdata
; File c:\src\pyparallel\include\object.h
pdata	SEGMENT
$pdata$array_byteswap DD imagerel array_byteswap
	DD	imagerel array_byteswap+359
	DD	imagerel $unwind$array_byteswap
pdata	ENDS
;	COMDAT xdata
xdata	SEGMENT
$unwind$array_byteswap DD 010401H
	DD	06204H
xdata	ENDS
;	COMDAT ??_C@_0CL@PDOKFCDD@don?8t?5know?5how?5to?5byteswap?5this?5@
CONST	SEGMENT
??_C@_0CL@PDOKFCDD@don?8t?5know?5how?5to?5byteswap?5this?5@ DB 'don''t kn'
	DB	'ow how to byteswap this array type', 00H	; `string'
; Function compile flags: /Ogtpy
; File c:\src\pyparallel\modules\arraymodule.c
CONST	ENDS
;	COMDAT array_byteswap
_TEXT	SEGMENT
self$ = 64
unused$ = 72
array_byteswap PROC					; COMDAT

; 1151 : {

  00000	48 83 ec 38	 sub	 rsp, 56			; 00000038H

; 1152 :     char *p;
; 1153 :     Py_ssize_t i;
; 1154 : 
; 1155 :     switch (self->ob_descr->itemsize) {

  00004	48 8b 91 80 00
	00 00		 mov	 rdx, QWORD PTR [rcx+128]
  0000b	44 8b 42 04	 mov	 r8d, DWORD PTR [rdx+4]
  0000f	41 ff c8	 dec	 r8d
  00012	0f 84 fe 00 00
	00		 je	 $LN10@array_byte
  00018	41 ff c8	 dec	 r8d
  0001b	0f 84 cc 00 00
	00		 je	 $LN13@array_byte
  00021	41 83 e8 02	 sub	 r8d, 2
  00025	0f 84 86 00 00
	00		 je	 $LN9@array_byte
  0002b	41 83 f8 04	 cmp	 r8d, 4
  0002f	74 1a		 je	 SHORT $LN5@array_byte

; 1191 :     default:
; 1192 :         PyErr_SetString(PyExc_RuntimeError,
; 1193 :                    "don't know how to byteswap this array type");

  00031	48 8b 0d 00 00
	00 00		 mov	 rcx, QWORD PTR PyExc_RuntimeError
  00038	48 8d 15 00 00
	00 00		 lea	 rdx, OFFSET FLAT:??_C@_0CL@PDOKFCDD@don?8t?5know?5how?5to?5byteswap?5this?5@
  0003f	e8 00 00 00 00	 call	 PyErr_SetString

; 1194 :         return NULL;

  00044	33 c0		 xor	 eax, eax

; 1198 : }

  00046	48 83 c4 38	 add	 rsp, 56			; 00000038H
  0004a	c3		 ret	 0
$LN5@array_byte:

; 1175 :     case 8:
; 1176 :         for (p = self->ob_item, i = Py_SIZE(self); --i >= 0; p += 8) {

  0004b	4c 8b 59 60	 mov	 r11, QWORD PTR [rcx+96]
  0004f	4c 8b 51 70	 mov	 r10, QWORD PTR [rcx+112]
  00053	49 ff cb	 dec	 r11
  00056	0f 88 ba 00 00
	00		 js	 $LN10@array_byte
  0005c	0f 1f 40 00	 npad	 4
$LL4@array_byte:

; 1177 :             char p0 = p[0];
; 1178 :             char p1 = p[1];
; 1179 :             char p2 = p[2];
; 1180 :             char p3 = p[3];
; 1181 :             p[0] = p[7];

  00060	41 0f b6 42 07	 movzx	 eax, BYTE PTR [r10+7]
  00065	45 0f b6 0a	 movzx	 r9d, BYTE PTR [r10]
  00069	45 0f b6 42 01	 movzx	 r8d, BYTE PTR [r10+1]
  0006e	41 0f b6 52 02	 movzx	 edx, BYTE PTR [r10+2]
  00073	41 0f b6 4a 03	 movzx	 ecx, BYTE PTR [r10+3]
  00078	41 88 02	 mov	 BYTE PTR [r10], al

; 1182 :             p[1] = p[6];

  0007b	41 0f b6 42 06	 movzx	 eax, BYTE PTR [r10+6]

; 1183 :             p[2] = p[5];
; 1184 :             p[3] = p[4];
; 1185 :             p[4] = p3;
; 1186 :             p[5] = p2;
; 1187 :             p[6] = p1;
; 1188 :             p[7] = p0;

  00080	45 88 4a 07	 mov	 BYTE PTR [r10+7], r9b
  00084	45 88 42 06	 mov	 BYTE PTR [r10+6], r8b
  00088	41 88 42 01	 mov	 BYTE PTR [r10+1], al
  0008c	41 0f b6 42 05	 movzx	 eax, BYTE PTR [r10+5]
  00091	41 88 52 05	 mov	 BYTE PTR [r10+5], dl
  00095	41 88 42 02	 mov	 BYTE PTR [r10+2], al
  00099	41 0f b6 42 04	 movzx	 eax, BYTE PTR [r10+4]
  0009e	41 88 4a 04	 mov	 BYTE PTR [r10+4], cl
  000a2	41 88 42 03	 mov	 BYTE PTR [r10+3], al
  000a6	49 83 c2 08	 add	 r10, 8
  000aa	49 ff cb	 dec	 r11
  000ad	79 b1		 jns	 SHORT $LL4@array_byte

; 1189 :         }
; 1190 :         break;

  000af	eb 65		 jmp	 SHORT $LN10@array_byte
$LN9@array_byte:

; 1163 :         }
; 1164 :         break;
; 1165 :     case 4:
; 1166 :         for (p = self->ob_item, i = Py_SIZE(self); --i >= 0; p += 4) {

  000b1	4c 8b 49 60	 mov	 r9, QWORD PTR [rcx+96]
  000b5	4c 8b 41 70	 mov	 r8, QWORD PTR [rcx+112]
  000b9	49 ff c9	 dec	 r9
  000bc	78 58		 js	 SHORT $LN10@array_byte
  000be	66 90		 npad	 2
$LL8@array_byte:

; 1167 :             char p0 = p[0];
; 1168 :             char p1 = p[1];
; 1169 :             p[0] = p[3];

  000c0	41 0f b6 40 03	 movzx	 eax, BYTE PTR [r8+3]
  000c5	41 0f b6 10	 movzx	 edx, BYTE PTR [r8]
  000c9	41 0f b6 48 01	 movzx	 ecx, BYTE PTR [r8+1]
  000ce	41 88 00	 mov	 BYTE PTR [r8], al

; 1170 :             p[1] = p[2];

  000d1	41 0f b6 40 02	 movzx	 eax, BYTE PTR [r8+2]

; 1171 :             p[2] = p1;
; 1172 :             p[3] = p0;

  000d6	41 88 50 03	 mov	 BYTE PTR [r8+3], dl
  000da	41 88 48 02	 mov	 BYTE PTR [r8+2], cl
  000de	41 88 40 01	 mov	 BYTE PTR [r8+1], al
  000e2	49 83 c0 04	 add	 r8, 4
  000e6	49 ff c9	 dec	 r9
  000e9	79 d5		 jns	 SHORT $LL8@array_byte

; 1173 :         }
; 1174 :         break;

  000eb	eb 29		 jmp	 SHORT $LN10@array_byte
$LN13@array_byte:

; 1156 :     case 1:
; 1157 :         break;
; 1158 :     case 2:
; 1159 :         for (p = self->ob_item, i = Py_SIZE(self); --i >= 0; p += 2) {

  000ed	4c 8b 41 60	 mov	 r8, QWORD PTR [rcx+96]
  000f1	48 8b 51 70	 mov	 rdx, QWORD PTR [rcx+112]
  000f5	49 ff c8	 dec	 r8
  000f8	78 1c		 js	 SHORT $LN10@array_byte
  000fa	66 0f 1f 44 00
	00		 npad	 6
$LL12@array_byte:

; 1160 :             char p0 = p[0];

  00100	0f b6 0a	 movzx	 ecx, BYTE PTR [rdx]

; 1161 :             p[0] = p[1];

  00103	0f b6 42 01	 movzx	 eax, BYTE PTR [rdx+1]
  00107	48 83 c2 02	 add	 rdx, 2
  0010b	49 ff c8	 dec	 r8
  0010e	88 42 fe	 mov	 BYTE PTR [rdx-2], al

; 1162 :             p[1] = p0;

  00111	88 4a ff	 mov	 BYTE PTR [rdx-1], cl
  00114	79 ea		 jns	 SHORT $LL12@array_byte
$LN10@array_byte:

; 1195 :     }
; 1196 :     Py_INCREF(Py_None);

  00116	e8 00 00 00 00	 call	 _Py_PXCTX
  0011b	85 c0		 test	 eax, eax
  0011d	75 3c		 jne	 SHORT $LN20@array_byte
  0011f	4c 8d 0d 00 00
	00 00		 lea	 r9, OFFSET FLAT:_Py_NoneStruct
  00126	48 8d 15 00 00
	00 00		 lea	 rdx, OFFSET FLAT:??_C@_0CD@HDJFDCDP@c?3?2src?2pyparallel?2include?2object@
  0012d	48 8d 0d 00 00
	00 00		 lea	 rcx, OFFSET FLAT:??_C@_0L@DHGMCEID@_Py_IncRef?$AA@
  00134	41 b8 89 03 00
	00		 mov	 r8d, 905		; 00000389H
  0013a	c7 44 24 20 02
	00 00 00	 mov	 DWORD PTR [rsp+32], 2
  00142	e8 00 00 00 00	 call	 _PyParallel_Guard
  00147	85 c0		 test	 eax, eax
  00149	75 09		 jne	 SHORT $LN19@array_byte
  0014b	f6 05 20 00 00
	00 20		 test	 BYTE PTR _Py_NoneStruct+32, 32 ; 00000020H
  00152	74 07		 je	 SHORT $LN20@array_byte
$LN19@array_byte:
  00154	48 ff 05 50 00
	00 00		 inc	 QWORD PTR _Py_NoneStruct+80
$LN20@array_byte:

; 1197 :     return Py_None;

  0015b	48 8d 05 00 00
	00 00		 lea	 rax, OFFSET FLAT:_Py_NoneStruct

; 1198 : }

  00162	48 83 c4 38	 add	 rsp, 56			; 00000038H
  00166	c3		 ret	 0
array_byteswap ENDP
_TEXT	ENDS
;	COMDAT pdata
; File c:\src\pyparallel\include\object.h
pdata	SEGMENT
$pdata$array_reverse DD imagerel array_reverse
	DD	imagerel array_reverse+22
	DD	imagerel $unwind$array_reverse
pdata	ENDS
;	COMDAT pdata
pdata	SEGMENT
$pdata$0$array_reverse DD imagerel array_reverse+22
	DD	imagerel array_reverse+39
	DD	imagerel $chain$0$array_reverse
pdata	ENDS
;	COMDAT pdata
pdata	SEGMENT
$pdata$1$array_reverse DD imagerel array_reverse+39
	DD	imagerel array_reverse+129
	DD	imagerel $chain$1$array_reverse
pdata	ENDS
;	COMDAT pdata
pdata	SEGMENT
$pdata$2$array_reverse DD imagerel array_reverse+129
	DD	imagerel array_reverse+146
	DD	imagerel $chain$2$array_reverse
pdata	ENDS
;	COMDAT pdata
pdata	SEGMENT
$pdata$3$array_reverse DD imagerel array_reverse+146
	DD	imagerel array_reverse+237
	DD	imagerel $chain$3$array_reverse
pdata	ENDS
;	COMDAT xdata
xdata	SEGMENT
$chain$3$array_reverse DD 021H
	DD	imagerel array_reverse
	DD	imagerel array_reverse+22
	DD	imagerel $unwind$array_reverse
xdata	ENDS
;	COMDAT xdata
xdata	SEGMENT
$chain$2$array_reverse DD 021H
	DD	imagerel array_reverse+22
	DD	imagerel array_reverse+39
	DD	imagerel $chain$0$array_reverse
xdata	ENDS
;	COMDAT xdata
xdata	SEGMENT
$chain$1$array_reverse DD 020421H
	DD	0297404H
	DD	imagerel array_reverse+22
	DD	imagerel array_reverse+39
	DD	imagerel $chain$0$array_reverse
xdata	ENDS
;	COMDAT xdata
xdata	SEGMENT
$chain$0$array_reverse DD 020421H
	DD	0286404H
	DD	imagerel array_reverse
	DD	imagerel array_reverse+22
	DD	imagerel $unwind$array_reverse
xdata	ENDS
;	COMDAT xdata
xdata	SEGMENT
$unwind$array_reverse DD 030b01H
	DD	026010bH
	DD	03004H
; Function compile flags: /Ogtpy
; File c:\src\pyparallel\modules\arraymodule.c
xdata	ENDS
;	COMDAT array_reverse
_TEXT	SEGMENT
tmp$ = 48
self$ = 320
unused$ = 328
array_reverse PROC					; COMDAT

; 1208 : {

  00000	4c 8b dc	 mov	 r11, rsp
  00003	53		 push	 rbx
  00004	48 81 ec 30 01
	00 00		 sub	 rsp, 304		; 00000130H

; 1209 :     register Py_ssize_t itemsize = self->ob_descr->itemsize;

  0000b	48 8b 81 80 00
	00 00		 mov	 rax, QWORD PTR [rcx+128]

; 1210 :     register char *p, *q;
; 1211 :     /* little buffer to hold items while swapping */
; 1212 :     char tmp[256];      /* 8 is probably enough -- but why skimp */
; 1213 :     assert((size_t)itemsize <= sizeof(tmp));
; 1214 : 
; 1215 :     if (Py_SIZE(self) > 1) {

  00012	48 8b 59 60	 mov	 rbx, QWORD PTR [rcx+96]
  00016	49 89 73 08	 mov	 QWORD PTR [r11+8], rsi
  0001a	48 63 70 04	 movsxd	 rsi, DWORD PTR [rax+4]
  0001e	48 83 fb 01	 cmp	 rbx, 1
  00022	7e 5d		 jle	 SHORT $LN1@array_reve

; 1216 :         for (p = self->ob_item,
; 1217 :              q = self->ob_item + (Py_SIZE(self) - 1)*itemsize;
; 1218 :              p < q;
; 1219 :              p += itemsize, q -= itemsize) {

  00024	48 ff cb	 dec	 rbx
  00027	49 89 7b 10	 mov	 QWORD PTR [r11+16], rdi
  0002b	48 8b 79 70	 mov	 rdi, QWORD PTR [rcx+112]
  0002f	48 0f af de	 imul	 rbx, rsi
  00033	48 03 df	 add	 rbx, rdi
  00036	48 3b fb	 cmp	 rdi, rbx
  00039	73 3e		 jae	 SHORT $LN15@array_reve
  0003b	0f 1f 44 00 00	 npad	 5
$LL3@array_reve:

; 1220 :             /* memory areas guaranteed disjoint, so memcpy
; 1221 :              * is safe (& memmove may be slower).
; 1222 :              */
; 1223 :             memcpy(tmp, p, itemsize);

  00040	48 8d 4c 24 30	 lea	 rcx, QWORD PTR tmp$[rsp]
  00045	4c 8b c6	 mov	 r8, rsi
  00048	48 8b d7	 mov	 rdx, rdi
  0004b	e8 00 00 00 00	 call	 memcpy

; 1224 :             memcpy(p, q, itemsize);

  00050	4c 8b c6	 mov	 r8, rsi
  00053	48 8b d3	 mov	 rdx, rbx
  00056	48 8b cf	 mov	 rcx, rdi
  00059	e8 00 00 00 00	 call	 memcpy

; 1225 :             memcpy(q, tmp, itemsize);

  0005e	48 8d 54 24 30	 lea	 rdx, QWORD PTR tmp$[rsp]
  00063	4c 8b c6	 mov	 r8, rsi
  00066	48 8b cb	 mov	 rcx, rbx
  00069	e8 00 00 00 00	 call	 memcpy
  0006e	48 03 fe	 add	 rdi, rsi
  00071	48 2b de	 sub	 rbx, rsi
  00074	48 3b fb	 cmp	 rdi, rbx
  00077	72 c7		 jb	 SHORT $LL3@array_reve
$LN15@array_reve:
  00079	48 8b bc 24 48
	01 00 00	 mov	 rdi, QWORD PTR [rsp+328]
$LN1@array_reve:

; 1226 :         }
; 1227 :     }
; 1228 : 
; 1229 :     Py_INCREF(Py_None);

  00081	e8 00 00 00 00	 call	 _Py_PXCTX
  00086	48 8b b4 24 40
	01 00 00	 mov	 rsi, QWORD PTR [rsp+320]
  0008e	85 c0		 test	 eax, eax
  00090	75 4b		 jne	 SHORT $LN13@array_reve
  00092	48 8d 1d 00 00
	00 00		 lea	 rbx, OFFSET FLAT:_Py_NoneStruct
  00099	48 8d 15 00 00
	00 00		 lea	 rdx, OFFSET FLAT:??_C@_0CD@HDJFDCDP@c?3?2src?2pyparallel?2include?2object@
  000a0	48 8d 0d 00 00
	00 00		 lea	 rcx, OFFSET FLAT:??_C@_0L@DHGMCEID@_Py_IncRef?$AA@
  000a7	41 b8 89 03 00
	00		 mov	 r8d, 905		; 00000389H
  000ad	4c 8b cb	 mov	 r9, rbx
  000b0	c7 44 24 20 02
	00 00 00	 mov	 DWORD PTR [rsp+32], 2
  000b8	e8 00 00 00 00	 call	 _PyParallel_Guard
  000bd	85 c0		 test	 eax, eax
  000bf	75 09		 jne	 SHORT $LN7@array_reve
  000c1	f6 05 20 00 00
	00 20		 test	 BYTE PTR _Py_NoneStruct+32, 32 ; 00000020H
  000c8	74 07		 je	 SHORT $LN16@array_reve
$LN7@array_reve:
  000ca	48 ff 05 50 00
	00 00		 inc	 QWORD PTR _Py_NoneStruct+80
$LN16@array_reve:

; 1230 :     return Py_None;

  000d1	48 8b c3	 mov	 rax, rbx

; 1231 : }

  000d4	48 81 c4 30 01
	00 00		 add	 rsp, 304		; 00000130H
  000db	5b		 pop	 rbx
  000dc	c3		 ret	 0
$LN13@array_reve:

; 1230 :     return Py_None;

  000dd	48 8d 05 00 00
	00 00		 lea	 rax, OFFSET FLAT:_Py_NoneStruct

; 1231 : }

  000e4	48 81 c4 30 01
	00 00		 add	 rsp, 304		; 00000130H
  000eb	5b		 pop	 rbx
  000ec	c3		 ret	 0
array_reverse ENDP
_TEXT	ENDS
PUBLIC	??_C@_01MJMHLOMK@O?$AA@				; `string'
EXTRN	_PyObject_CallMethodId_SizeT:PROC
EXTRN	PyBytes_FromStringAndSize:PROC
EXTRN	_tls_index:DWORD
;	COMDAT pdata
; File c:\src\pyparallel\include\object.h
pdata	SEGMENT
$pdata$array_tofile DD imagerel array_tofile
	DD	imagerel array_tofile+367
	DD	imagerel $unwind$array_tofile
pdata	ENDS
;	COMDAT xdata
xdata	SEGMENT
$unwind$array_tofile DD 0c2101H
	DD	0f6421H
	DD	0e5421H
	DD	0c3421H
	DD	0f01d5221H
	DD	0d019e01bH
	DD	07015c017H
xdata	ENDS
;	COMDAT ??_C@_01MJMHLOMK@O?$AA@
CONST	SEGMENT
??_C@_01MJMHLOMK@O?$AA@ DB 'O', 00H			; `string'
; Function compile flags: /Ogtpy
; File c:\src\pyparallel\modules\arraymodule.c
CONST	ENDS
;	COMDAT array_tofile
_TEXT	SEGMENT
self$ = 96
f$ = 104
array_tofile PROC					; COMDAT

; 1306 : {

  00000	48 89 5c 24 08	 mov	 QWORD PTR [rsp+8], rbx
  00005	48 89 6c 24 18	 mov	 QWORD PTR [rsp+24], rbp
  0000a	48 89 74 24 20	 mov	 QWORD PTR [rsp+32], rsi
  0000f	48 89 54 24 10	 mov	 QWORD PTR [rsp+16], rdx
  00014	57		 push	 rdi
  00015	41 54		 push	 r12
  00017	41 55		 push	 r13
  00019	41 56		 push	 r14
  0001b	41 57		 push	 r15
  0001d	48 83 ec 30	 sub	 rsp, 48			; 00000030H

; 1307 :     Py_ssize_t nbytes = Py_SIZE(self) * self->ob_descr->itemsize;

  00021	48 8b 81 80 00
	00 00		 mov	 rax, QWORD PTR [rcx+128]
  00028	4c 8b 41 60	 mov	 r8, QWORD PTR [rcx+96]
  0002c	48 8b ea	 mov	 rbp, rdx
  0002f	4c 63 68 04	 movsxd	 r13, DWORD PTR [rax+4]
  00033	4c 8b f9	 mov	 r15, rcx
  00036	4d 0f af e8	 imul	 r13, r8

; 1308 :     /* Write 64K blocks at a time */
; 1309 :     /* XXX Make the block size settable */
; 1310 :     int BLOCKSIZE = 64*1024;
; 1311 :     Py_ssize_t nblocks = (nbytes + BLOCKSIZE - 1) / BLOCKSIZE;

  0003a	49 8d 85 ff ff
	00 00		 lea	 rax, QWORD PTR [r13+65535]
  00041	48 99		 cdq
  00043	0f b7 d2	 movzx	 edx, dx
  00046	48 03 c2	 add	 rax, rdx
  00049	48 c1 f8 10	 sar	 rax, 16
  0004d	4c 8b e0	 mov	 r12, rax

; 1312 :     Py_ssize_t i;
; 1313 : 
; 1314 :     if (Py_SIZE(self) == 0)

  00050	4d 85 c0	 test	 r8, r8
  00053	0f 84 a9 00 00
	00		 je	 $done$21437

; 1315 :         goto done;
; 1316 : 
; 1317 :     for (i = 0; i < nblocks; i++) {

  00059	33 db		 xor	 ebx, ebx
  0005b	48 85 c0	 test	 rax, rax
  0005e	0f 8e 9e 00 00
	00		 jle	 $done$21437
  00064	8b fb		 mov	 edi, ebx
  00066	49 8b f5	 mov	 rsi, r13
  00069	0f 1f 80 00 00
	00 00		 npad	 7
$LL6@array_tofi:

; 1318 :         char* ptr = self->ob_item + i*BLOCKSIZE;

  00070	49 8b 47 70	 mov	 rax, QWORD PTR [r15+112]

; 1319 :         Py_ssize_t size = BLOCKSIZE;
; 1320 :         PyObject *bytes, *res;
; 1321 :         _Py_IDENTIFIER(write);
; 1322 : 
; 1323 :         if (i*BLOCKSIZE + size > nbytes)

  00074	ba 00 00 01 00	 mov	 edx, 65536		; 00010000H
  00079	48 8d 0c 07	 lea	 rcx, QWORD PTR [rdi+rax]
  0007d	48 8d 87 00 00
	01 00		 lea	 rax, QWORD PTR [rdi+65536]
  00084	49 3b c5	 cmp	 rax, r13
  00087	48 0f 4f d6	 cmovg	 rdx, rsi

; 1324 :             size = nbytes - i*BLOCKSIZE;
; 1325 :         bytes = PyBytes_FromStringAndSize(ptr, size);

  0008b	e8 00 00 00 00	 call	 PyBytes_FromStringAndSize
  00090	4c 8b f0	 mov	 r14, rax

; 1326 :         if (bytes == NULL)

  00093	48 85 c0	 test	 rax, rax
  00096	0f 84 cf 00 00
	00		 je	 $LN15@array_tofi

; 1328 :         res = _PyObject_CallMethodId(f, &PyId_write, "O", bytes);

  0009c	44 8b 05 00 00
	00 00		 mov	 r8d, DWORD PTR _tls_index
  000a3	65 48 8b 0c 25
	58 00 00 00	 mov	 rcx, QWORD PTR gs:88
  000ac	ba 00 00 00 00	 mov	 edx, OFFSET FLAT:?PyId_write@?2??array_tofile@@9@9
  000b1	4a 03 14 c1	 add	 rdx, QWORD PTR [rcx+r8*8]
  000b5	4c 8d 05 00 00
	00 00		 lea	 r8, OFFSET FLAT:??_C@_01MJMHLOMK@O?$AA@
  000bc	4c 8b c8	 mov	 r9, rax
  000bf	48 8b cd	 mov	 rcx, rbp
  000c2	e8 00 00 00 00	 call	 _PyObject_CallMethodId_SizeT

; 1329 :         Py_DECREF(bytes);

  000c7	49 8b ce	 mov	 rcx, r14
  000ca	48 8b e8	 mov	 rbp, rax
  000cd	e8 00 00 00 00	 call	 _Py_DecRef

; 1330 :         if (res == NULL)

  000d2	48 85 ed	 test	 rbp, rbp
  000d5	0f 84 90 00 00
	00		 je	 $LN15@array_tofi

; 1331 :             return NULL;
; 1332 :         Py_DECREF(res); /* drop write result */

  000db	48 8b cd	 mov	 rcx, rbp
  000de	e8 00 00 00 00	 call	 _Py_DecRef
  000e3	48 8b 6c 24 68	 mov	 rbp, QWORD PTR f$[rsp]
  000e8	48 ff c3	 inc	 rbx
  000eb	48 81 c7 00 00
	01 00		 add	 rdi, 65536		; 00010000H
  000f2	48 81 ee 00 00
	01 00		 sub	 rsi, 65536		; 00010000H
  000f9	49 3b dc	 cmp	 rbx, r12
  000fc	0f 8c 6e ff ff
	ff		 jl	 $LL6@array_tofi
$done$21437:

; 1333 :     }
; 1334 : 
; 1335 :   done:
; 1336 :     Py_INCREF(Py_None);

  00102	e8 00 00 00 00	 call	 _Py_PXCTX
  00107	85 c0		 test	 eax, eax
  00109	75 3c		 jne	 SHORT $LN11@array_tofi
  0010b	4c 8d 0d 00 00
	00 00		 lea	 r9, OFFSET FLAT:_Py_NoneStruct
  00112	48 8d 15 00 00
	00 00		 lea	 rdx, OFFSET FLAT:??_C@_0CD@HDJFDCDP@c?3?2src?2pyparallel?2include?2object@
  00119	48 8d 0d 00 00
	00 00		 lea	 rcx, OFFSET FLAT:??_C@_0L@DHGMCEID@_Py_IncRef?$AA@
  00120	41 b8 89 03 00
	00		 mov	 r8d, 905		; 00000389H
  00126	c7 44 24 20 02
	00 00 00	 mov	 DWORD PTR [rsp+32], 2
  0012e	e8 00 00 00 00	 call	 _PyParallel_Guard
  00133	85 c0		 test	 eax, eax
  00135	75 09		 jne	 SHORT $LN10@array_tofi
  00137	f6 05 20 00 00
	00 20		 test	 BYTE PTR _Py_NoneStruct+32, 32 ; 00000020H
  0013e	74 07		 je	 SHORT $LN11@array_tofi
$LN10@array_tofi:
  00140	48 ff 05 50 00
	00 00		 inc	 QWORD PTR _Py_NoneStruct+80
$LN11@array_tofi:

; 1337 :     return Py_None;

  00147	48 8d 05 00 00
	00 00		 lea	 rax, OFFSET FLAT:_Py_NoneStruct
$LN8@array_tofi:

; 1338 : }

  0014e	48 8b 5c 24 60	 mov	 rbx, QWORD PTR [rsp+96]
  00153	48 8b 6c 24 70	 mov	 rbp, QWORD PTR [rsp+112]
  00158	48 8b 74 24 78	 mov	 rsi, QWORD PTR [rsp+120]
  0015d	48 83 c4 30	 add	 rsp, 48			; 00000030H
  00161	41 5f		 pop	 r15
  00163	41 5e		 pop	 r14
  00165	41 5d		 pop	 r13
  00167	41 5c		 pop	 r12
  00169	5f		 pop	 rdi
  0016a	c3		 ret	 0
$LN15@array_tofi:

; 1327 :             return NULL;

  0016b	33 c0		 xor	 eax, eax
  0016d	eb df		 jmp	 SHORT $LN8@array_tofi
array_tofile ENDP
_TEXT	ENDS
PUBLIC	??_C@_0BB@CKIPGAKP@arg?5must?5be?5list?$AA@	; `string'
EXTRN	PyList_GetItem:PROC
EXTRN	PyList_Size:PROC
;	COMDAT pdata
; File c:\src\pyparallel\include\object.h
pdata	SEGMENT
$pdata$array_fromlist DD imagerel array_fromlist
	DD	imagerel array_fromlist+64
	DD	imagerel $unwind$array_fromlist
pdata	ENDS
;	COMDAT pdata
pdata	SEGMENT
$pdata$2$array_fromlist DD imagerel array_fromlist+64
	DD	imagerel array_fromlist+280
	DD	imagerel $chain$2$array_fromlist
pdata	ENDS
;	COMDAT pdata
pdata	SEGMENT
$pdata$4$array_fromlist DD imagerel array_fromlist+280
	DD	imagerel array_fromlist+295
	DD	imagerel $chain$4$array_fromlist
pdata	ENDS
;	COMDAT xdata
xdata	SEGMENT
$chain$4$array_fromlist DD 060021H
	DD	0ac400H
	DD	097400H
	DD	083400H
	DD	imagerel array_fromlist
	DD	imagerel array_fromlist+64
	DD	imagerel $unwind$array_fromlist
xdata	ENDS
;	COMDAT xdata
xdata	SEGMENT
$chain$2$array_fromlist DD 061221H
	DD	0ac412H
	DD	09740dH
	DD	083405H
	DD	imagerel array_fromlist
	DD	imagerel array_fromlist+64
	DD	imagerel $unwind$array_fromlist
xdata	ENDS
;	COMDAT xdata
xdata	SEGMENT
$unwind$array_fromlist DD 040a01H
	DD	0b540aH
	DD	06006520aH
xdata	ENDS
;	COMDAT ??_C@_0BB@CKIPGAKP@arg?5must?5be?5list?$AA@
CONST	SEGMENT
??_C@_0BB@CKIPGAKP@arg?5must?5be?5list?$AA@ DB 'arg must be list', 00H ; `string'
; Function compile flags: /Ogtpy
; File c:\src\pyparallel\modules\arraymodule.c
CONST	ENDS
;	COMDAT array_fromlist
_TEXT	SEGMENT
self$ = 64
list$ = 72
array_fromlist PROC					; COMDAT

; 1348 : {

  00000	48 89 6c 24 20	 mov	 QWORD PTR [rsp+32], rbp
  00005	56		 push	 rsi
  00006	48 83 ec 30	 sub	 rsp, 48			; 00000030H

; 1349 :     Py_ssize_t n;
; 1350 : 
; 1351 :     if (!PyList_Check(list)) {

  0000a	48 8b 42 58	 mov	 rax, QWORD PTR [rdx+88]
  0000e	48 8b ea	 mov	 rbp, rdx
  00011	48 8b f1	 mov	 rsi, rcx
  00014	f7 80 00 01 00
	00 00 00 00 02	 test	 DWORD PTR [rax+256], 33554432 ; 02000000H
  0001e	75 20		 jne	 SHORT $LN7@array_from

; 1352 :         PyErr_SetString(PyExc_TypeError, "arg must be list");

  00020	48 8b 0d 00 00
	00 00		 mov	 rcx, QWORD PTR PyExc_TypeError
  00027	48 8d 15 00 00
	00 00		 lea	 rdx, OFFSET FLAT:??_C@_0BB@CKIPGAKP@arg?5must?5be?5list?$AA@
  0002e	e8 00 00 00 00	 call	 PyErr_SetString

; 1353 :         return NULL;

  00033	33 c0		 xor	 eax, eax

; 1372 : }

  00035	48 8b 6c 24 58	 mov	 rbp, QWORD PTR [rsp+88]
  0003a	48 83 c4 30	 add	 rsp, 48			; 00000030H
  0003e	5e		 pop	 rsi
  0003f	c3		 ret	 0
$LN7@array_from:
  00040	48 89 5c 24 40	 mov	 QWORD PTR [rsp+64], rbx

; 1354 :     }
; 1355 :     n = PyList_Size(list);

  00045	48 8b ca	 mov	 rcx, rdx
  00048	48 89 7c 24 48	 mov	 QWORD PTR [rsp+72], rdi
  0004d	4c 89 64 24 50	 mov	 QWORD PTR [rsp+80], r12
  00052	e8 00 00 00 00	 call	 PyList_Size
  00057	48 8b f8	 mov	 rdi, rax

; 1356 :     if (n > 0) {

  0005a	48 85 c0	 test	 rax, rax
  0005d	7e 53		 jle	 SHORT $LN2@array_from

; 1357 :         Py_ssize_t i, old_size;
; 1358 :         old_size = Py_SIZE(self);

  0005f	4c 8b 66 60	 mov	 r12, QWORD PTR [rsi+96]

; 1359 :         if (array_resize(self, old_size + n) == -1)

  00063	48 8b ce	 mov	 rcx, rsi
  00066	49 8d 14 04	 lea	 rdx, QWORD PTR [r12+rax]
  0006a	e8 00 00 00 00	 call	 array_resize
  0006f	83 f8 ff	 cmp	 eax, -1

; 1360 :             return NULL;

  00072	0f 84 ab 00 00
	00		 je	 $LN20@array_from

; 1361 :         for (i = 0; i < n; i++) {

  00078	33 db		 xor	 ebx, ebx
  0007a	48 85 ff	 test	 rdi, rdi
  0007d	7e 33		 jle	 SHORT $LN2@array_from
  0007f	90		 npad	 1
$LL4@array_from:

; 1362 :             PyObject *v = PyList_GetItem(list, i);

  00080	48 8b d3	 mov	 rdx, rbx
  00083	48 8b cd	 mov	 rcx, rbp
  00086	e8 00 00 00 00	 call	 PyList_GetItem

; 1363 :             if ((*self->ob_descr->setitem)(self,
; 1364 :                             Py_SIZE(self) - n + i, v) != 0) {

  0008b	48 8b 56 60	 mov	 rdx, QWORD PTR [rsi+96]
  0008f	4c 8b 8e 80 00
	00 00		 mov	 r9, QWORD PTR [rsi+128]
  00096	48 2b d7	 sub	 rdx, rdi
  00099	4c 8b c0	 mov	 r8, rax
  0009c	48 8b ce	 mov	 rcx, rsi
  0009f	48 03 d3	 add	 rdx, rbx
  000a2	41 ff 51 10	 call	 QWORD PTR [r9+16]
  000a6	85 c0		 test	 eax, eax
  000a8	75 6e		 jne	 SHORT $LN15@array_from

; 1361 :         for (i = 0; i < n; i++) {

  000aa	48 ff c3	 inc	 rbx
  000ad	48 3b df	 cmp	 rbx, rdi
  000b0	7c ce		 jl	 SHORT $LL4@array_from
$LN2@array_from:

; 1367 :             }
; 1368 :         }
; 1369 :     }
; 1370 :     Py_INCREF(Py_None);

  000b2	e8 00 00 00 00	 call	 _Py_PXCTX
  000b7	85 c0		 test	 eax, eax
  000b9	75 3c		 jne	 SHORT $LN11@array_from
  000bb	4c 8d 0d 00 00
	00 00		 lea	 r9, OFFSET FLAT:_Py_NoneStruct
  000c2	48 8d 15 00 00
	00 00		 lea	 rdx, OFFSET FLAT:??_C@_0CD@HDJFDCDP@c?3?2src?2pyparallel?2include?2object@
  000c9	48 8d 0d 00 00
	00 00		 lea	 rcx, OFFSET FLAT:??_C@_0L@DHGMCEID@_Py_IncRef?$AA@
  000d0	41 b8 89 03 00
	00		 mov	 r8d, 905		; 00000389H
  000d6	c7 44 24 20 02
	00 00 00	 mov	 DWORD PTR [rsp+32], 2
  000de	e8 00 00 00 00	 call	 _PyParallel_Guard
  000e3	85 c0		 test	 eax, eax
  000e5	75 09		 jne	 SHORT $LN10@array_from
  000e7	f6 05 20 00 00
	00 20		 test	 BYTE PTR _Py_NoneStruct+32, 32 ; 00000020H
  000ee	74 07		 je	 SHORT $LN11@array_from
$LN10@array_from:
  000f0	48 ff 05 50 00
	00 00		 inc	 QWORD PTR _Py_NoneStruct+80
$LN11@array_from:

; 1371 :     return Py_None;

  000f7	48 8d 05 00 00
	00 00		 lea	 rax, OFFSET FLAT:_Py_NoneStruct
$LN19@array_from:
  000fe	48 8b 7c 24 48	 mov	 rdi, QWORD PTR [rsp+72]
  00103	48 8b 5c 24 40	 mov	 rbx, QWORD PTR [rsp+64]
  00108	4c 8b 64 24 50	 mov	 r12, QWORD PTR [rsp+80]

; 1372 : }

  0010d	48 8b 6c 24 58	 mov	 rbp, QWORD PTR [rsp+88]
  00112	48 83 c4 30	 add	 rsp, 48			; 00000030H
  00116	5e		 pop	 rsi
  00117	c3		 ret	 0
$LN15@array_from:

; 1365 :                 array_resize(self, old_size);

  00118	49 8b d4	 mov	 rdx, r12
  0011b	48 8b ce	 mov	 rcx, rsi
  0011e	e8 00 00 00 00	 call	 array_resize
$LN20@array_from:

; 1366 :                 return NULL;

  00123	33 c0		 xor	 eax, eax
  00125	eb d7		 jmp	 SHORT $LN19@array_from
array_fromlist ENDP
_TEXT	ENDS
EXTRN	PyList_SetItem:PROC
EXTRN	PyList_New:PROC
;	COMDAT pdata
; File c:\src\pyparallel\include\object.h
pdata	SEGMENT
$pdata$array_tolist DD imagerel array_tolist
	DD	imagerel array_tolist+41
	DD	imagerel $unwind$array_tolist
pdata	ENDS
;	COMDAT pdata
pdata	SEGMENT
$pdata$0$array_tolist DD imagerel array_tolist+41
	DD	imagerel array_tolist+122
	DD	imagerel $chain$0$array_tolist
pdata	ENDS
;	COMDAT pdata
pdata	SEGMENT
$pdata$2$array_tolist DD imagerel array_tolist+122
	DD	imagerel array_tolist+219
	DD	imagerel $chain$2$array_tolist
pdata	ENDS
;	COMDAT pdata
pdata	SEGMENT
$pdata$4$array_tolist DD imagerel array_tolist+219
	DD	imagerel array_tolist+247
	DD	imagerel $chain$4$array_tolist
pdata	ENDS
;	COMDAT pdata
pdata	SEGMENT
$pdata$6$array_tolist DD imagerel array_tolist+247
	DD	imagerel array_tolist+273
	DD	imagerel $chain$6$array_tolist
pdata	ENDS
;	COMDAT xdata
xdata	SEGMENT
$chain$6$array_tolist DD 020021H
	DD	087400H
	DD	imagerel array_tolist
	DD	imagerel array_tolist+41
	DD	imagerel $unwind$array_tolist
xdata	ENDS
;	COMDAT xdata
xdata	SEGMENT
$chain$4$array_tolist DD 020021H
	DD	087400H
	DD	imagerel array_tolist
	DD	imagerel array_tolist+41
	DD	imagerel $unwind$array_tolist
xdata	ENDS
;	COMDAT xdata
xdata	SEGMENT
$chain$2$array_tolist DD 020021H
	DD	087400H
	DD	imagerel array_tolist
	DD	imagerel array_tolist+41
	DD	imagerel $unwind$array_tolist
xdata	ENDS
;	COMDAT xdata
xdata	SEGMENT
$chain$0$array_tolist DD 020521H
	DD	087405H
	DD	imagerel array_tolist
	DD	imagerel array_tolist+41
	DD	imagerel $unwind$array_tolist
xdata	ENDS
;	COMDAT xdata
xdata	SEGMENT
$unwind$array_tolist DD 040a01H
	DD	09340aH
	DD	06006520aH
; Function compile flags: /Ogtpy
; File c:\src\pyparallel\modules\arraymodule.c
xdata	ENDS
;	COMDAT array_tolist
_TEXT	SEGMENT
self$ = 64
unused$ = 72
array_tolist PROC					; COMDAT

; 1381 : {

  00000	48 89 5c 24 10	 mov	 QWORD PTR [rsp+16], rbx
  00005	56		 push	 rsi
  00006	48 83 ec 30	 sub	 rsp, 48			; 00000030H
  0000a	48 8b f1	 mov	 rsi, rcx

; 1382 :     PyObject *list = PyList_New(Py_SIZE(self));

  0000d	48 8b 49 60	 mov	 rcx, QWORD PTR [rcx+96]
  00011	e8 00 00 00 00	 call	 PyList_New
  00016	48 8b d8	 mov	 rbx, rax

; 1383 :     Py_ssize_t i;
; 1384 : 
; 1385 :     if (list == NULL)

  00019	48 85 c0	 test	 rax, rax
  0001c	75 0b		 jne	 SHORT $LN5@array_toli

; 1396 : }

  0001e	48 8b 5c 24 48	 mov	 rbx, QWORD PTR [rsp+72]
  00023	48 83 c4 30	 add	 rsp, 48			; 00000030H
  00027	5e		 pop	 rsi
  00028	c3		 ret	 0
$LN5@array_toli:
  00029	48 89 7c 24 40	 mov	 QWORD PTR [rsp+64], rdi

; 1386 :         return NULL;
; 1387 :     for (i = 0; i < Py_SIZE(self); i++) {

  0002e	33 ff		 xor	 edi, edi
  00030	48 39 7e 60	 cmp	 QWORD PTR [rsi+96], rdi
  00034	7e 31		 jle	 SHORT $LN2@array_toli
  00036	66 66 0f 1f 84
	00 00 00 00 00	 npad	 10
$LL4@array_toli:

; 1388 :         PyObject *v = getarrayitem((PyObject *)self, i);

  00040	48 8b d7	 mov	 rdx, rdi
  00043	48 8b ce	 mov	 rcx, rsi
  00046	e8 00 00 00 00	 call	 getarrayitem

; 1389 :         if (v == NULL) {

  0004b	48 85 c0	 test	 rax, rax
  0004e	74 2a		 je	 SHORT $LN20@array_toli

; 1392 :         }
; 1393 :         PyList_SetItem(list, i, v);

  00050	4c 8b c0	 mov	 r8, rax
  00053	48 8b d7	 mov	 rdx, rdi
  00056	48 8b cb	 mov	 rcx, rbx
  00059	e8 00 00 00 00	 call	 PyList_SetItem
  0005e	48 ff c7	 inc	 rdi
  00061	48 3b 7e 60	 cmp	 rdi, QWORD PTR [rsi+96]
  00065	7c d9		 jl	 SHORT $LL4@array_toli
$LN2@array_toli:

; 1394 :     }
; 1395 :     return list;

  00067	48 8b c3	 mov	 rax, rbx
  0006a	48 8b 7c 24 40	 mov	 rdi, QWORD PTR [rsp+64]

; 1396 : }

  0006f	48 8b 5c 24 48	 mov	 rbx, QWORD PTR [rsp+72]
  00074	48 83 c4 30	 add	 rsp, 48			; 00000030H
  00078	5e		 pop	 rsi
  00079	c3		 ret	 0
$LN20@array_toli:

; 1390 :             Py_DECREF(list);

  0007a	e8 00 00 00 00	 call	 _Py_PXCTX
  0007f	85 c0		 test	 eax, eax
  00081	75 7c		 jne	 SHORT $LN18@array_toli
  00083	48 8b 43 20	 mov	 rax, QWORD PTR [rbx+32]
  00087	a8 20		 test	 al, 32			; 00000020H
  00089	75 6c		 jne	 SHORT $LN12@array_toli
  0008b	84 c0		 test	 al, al
  0008d	78 68		 js	 SHORT $LN12@array_toli
  0008f	a8 02		 test	 al, 2
  00091	75 6c		 jne	 SHORT $LN18@array_toli
  00093	48 ff 4b 50	 dec	 QWORD PTR [rbx+80]
  00097	75 66		 jne	 SHORT $LN18@array_toli
  00099	48 8d 15 00 00
	00 00		 lea	 rdx, OFFSET FLAT:??_C@_0CD@HDJFDCDP@c?3?2src?2pyparallel?2include?2object@
  000a0	48 8d 0d 00 00
	00 00		 lea	 rcx, OFFSET FLAT:??_C@_0L@DMHMLFIA@_Py_DecRef?$AA@
  000a7	4c 8b cb	 mov	 r9, rbx
  000aa	41 b8 a4 03 00
	00		 mov	 r8d, 932		; 000003a4H
  000b0	c7 44 24 20 10
	00 00 00	 mov	 DWORD PTR [rsp+32], 16
  000b8	e8 00 00 00 00	 call	 _PyParallel_Guard
  000bd	48 8b cb	 mov	 rcx, rbx
  000c0	85 c0		 test	 eax, eax
  000c2	74 17		 je	 SHORT $LN17@array_toli
  000c4	e8 00 00 00 00	 call	 _Px_Dealloc
  000c9	48 8b 7c 24 40	 mov	 rdi, QWORD PTR [rsp+64]

; 1391 :             return NULL;

  000ce	33 c0		 xor	 eax, eax

; 1396 : }

  000d0	48 8b 5c 24 48	 mov	 rbx, QWORD PTR [rsp+72]
  000d5	48 83 c4 30	 add	 rsp, 48			; 00000030H
  000d9	5e		 pop	 rsi
  000da	c3		 ret	 0

; 1390 :             Py_DECREF(list);

$LN17@array_toli:
  000db	48 8b 43 58	 mov	 rax, QWORD PTR [rbx+88]
  000df	ff 90 88 00 00
	00		 call	 QWORD PTR [rax+136]
  000e5	48 8b 7c 24 40	 mov	 rdi, QWORD PTR [rsp+64]

; 1391 :             return NULL;

  000ea	33 c0		 xor	 eax, eax

; 1396 : }

  000ec	48 8b 5c 24 48	 mov	 rbx, QWORD PTR [rsp+72]
  000f1	48 83 c4 30	 add	 rsp, 48			; 00000030H
  000f5	5e		 pop	 rsi
  000f6	c3		 ret	 0

; 1390 :             Py_DECREF(list);

$LN12@array_toli:
  000f7	48 8b cb	 mov	 rcx, rbx
  000fa	e8 00 00 00 00	 call	 Px_DecRef
$LN18@array_toli:

; 1396 : }

  000ff	48 8b 7c 24 40	 mov	 rdi, QWORD PTR [rsp+64]
  00104	48 8b 5c 24 48	 mov	 rbx, QWORD PTR [rsp+72]
  00109	33 c0		 xor	 eax, eax
  0010b	48 83 c4 30	 add	 rsp, 48			; 00000030H
  0010f	5e		 pop	 rsi
  00110	c3		 ret	 0
array_tolist ENDP
_TEXT	ENDS
PUBLIC	??_C@_0CK@CCOBPACL@string?5length?5not?5a?5multiple?5of?5@ ; `string'
PUBLIC	??_C@_0CB@DDGOLKLL@string?1buffer?5of?5bytes?5required?4@ ; `string'
EXTRN	PyBuffer_Release:PROC
;	COMDAT pdata
; File c:\src\pyparallel\include\object.h
pdata	SEGMENT
$pdata$frombytes DD imagerel frombytes
	DD	imagerel frombytes+78
	DD	imagerel $unwind$frombytes
pdata	ENDS
;	COMDAT pdata
pdata	SEGMENT
$pdata$1$frombytes DD imagerel frombytes+78
	DD	imagerel frombytes+138
	DD	imagerel $chain$1$frombytes
pdata	ENDS
;	COMDAT pdata
pdata	SEGMENT
$pdata$2$frombytes DD imagerel frombytes+138
	DD	imagerel frombytes+338
	DD	imagerel $chain$2$frombytes
pdata	ENDS
;	COMDAT pdata
pdata	SEGMENT
$pdata$3$frombytes DD imagerel frombytes+338
	DD	imagerel frombytes+359
	DD	imagerel $chain$3$frombytes
pdata	ENDS
;	COMDAT pdata
pdata	SEGMENT
$pdata$5$frombytes DD imagerel frombytes+359
	DD	imagerel frombytes+374
	DD	imagerel $chain$5$frombytes
pdata	ENDS
;	COMDAT xdata
xdata	SEGMENT
$chain$5$frombytes DD 060021H
	DD	0ac400H
	DD	096400H
	DD	085400H
	DD	imagerel frombytes
	DD	imagerel frombytes+78
	DD	imagerel $unwind$frombytes
xdata	ENDS
;	COMDAT xdata
xdata	SEGMENT
$chain$3$frombytes DD 021H
	DD	imagerel frombytes+78
	DD	imagerel frombytes+138
	DD	imagerel $chain$1$frombytes
xdata	ENDS
;	COMDAT xdata
xdata	SEGMENT
$chain$2$frombytes DD 020521H
	DD	085405H
	DD	imagerel frombytes+78
	DD	imagerel frombytes+138
	DD	imagerel $chain$1$frombytes
xdata	ENDS
;	COMDAT xdata
xdata	SEGMENT
$chain$1$frombytes DD 040a21H
	DD	0ac40aH
	DD	096405H
	DD	imagerel frombytes
	DD	imagerel frombytes+78
	DD	imagerel $unwind$frombytes
xdata	ENDS
;	COMDAT xdata
xdata	SEGMENT
$unwind$frombytes DD 040a01H
	DD	0b340aH
	DD	07006520aH
xdata	ENDS
;	COMDAT ??_C@_0CK@CCOBPACL@string?5length?5not?5a?5multiple?5of?5@
CONST	SEGMENT
??_C@_0CK@CCOBPACL@string?5length?5not?5a?5multiple?5of?5@ DB 'string len'
	DB	'gth not a multiple of item size', 00H	; `string'
CONST	ENDS
;	COMDAT ??_C@_0CB@DDGOLKLL@string?1buffer?5of?5bytes?5required?4@
CONST	SEGMENT
??_C@_0CB@DDGOLKLL@string?1buffer?5of?5bytes?5required?4@ DB 'string/buff'
	DB	'er of bytes required.', 00H			; `string'
; Function compile flags: /Ogtpy
; File c:\src\pyparallel\modules\arraymodule.c
CONST	ENDS
;	COMDAT frombytes
_TEXT	SEGMENT
self$ = 64
buffer$ = 72
frombytes PROC						; COMDAT

; 1405 : {

  00000	48 89 5c 24 20	 mov	 QWORD PTR [rsp+32], rbx
  00005	57		 push	 rdi
  00006	48 83 ec 30	 sub	 rsp, 48			; 00000030H

; 1406 :     int itemsize = self->ob_descr->itemsize;
; 1407 :     Py_ssize_t n;
; 1408 :     if (buffer->itemsize != 1) {

  0000a	48 83 7a 18 01	 cmp	 QWORD PTR [rdx+24], 1
  0000f	48 8b 81 80 00
	00 00		 mov	 rax, QWORD PTR [rcx+128]
  00016	48 8b f9	 mov	 rdi, rcx
  00019	48 63 48 04	 movsxd	 rcx, DWORD PTR [rax+4]
  0001d	48 8b da	 mov	 rbx, rdx
  00020	74 28		 je	 SHORT $LN6@frombytes

; 1409 :         PyBuffer_Release(buffer);

  00022	48 8b ca	 mov	 rcx, rdx
  00025	e8 00 00 00 00	 call	 PyBuffer_Release

; 1410 :         PyErr_SetString(PyExc_TypeError, "string/buffer of bytes required.");

  0002a	48 8b 0d 00 00
	00 00		 mov	 rcx, QWORD PTR PyExc_TypeError
  00031	48 8d 15 00 00
	00 00		 lea	 rdx, OFFSET FLAT:??_C@_0CB@DDGOLKLL@string?1buffer?5of?5bytes?5required?4@
  00038	e8 00 00 00 00	 call	 PyErr_SetString

; 1411 :         return NULL;

  0003d	33 c0		 xor	 eax, eax

; 1438 : }

  0003f	48 8b 5c 24 58	 mov	 rbx, QWORD PTR [rsp+88]
  00044	48 83 c4 30	 add	 rsp, 48			; 00000030H
  00048	5f		 pop	 rdi
  00049	c3		 ret	 0
$LN6@frombytes:

; 1412 :     }
; 1413 :     n = buffer->len;
; 1414 :     if (n % itemsize != 0) {

  0004a	48 8b 42 10	 mov	 rax, QWORD PTR [rdx+16]
  0004e	48 89 74 24 48	 mov	 QWORD PTR [rsp+72], rsi
  00053	4c 89 64 24 50	 mov	 QWORD PTR [rsp+80], r12
  00058	48 99		 cdq
  0005a	4c 8b e1	 mov	 r12, rcx
  0005d	48 f7 f9	 idiv	 rcx
  00060	48 8b f0	 mov	 rsi, rax
  00063	48 85 d2	 test	 rdx, rdx
  00066	74 22		 je	 SHORT $LN5@frombytes

; 1415 :         PyBuffer_Release(buffer);

  00068	48 8b cb	 mov	 rcx, rbx
  0006b	e8 00 00 00 00	 call	 PyBuffer_Release

; 1416 :         PyErr_SetString(PyExc_ValueError,
; 1417 :                    "string length not a multiple of item size");

  00070	48 8b 0d 00 00
	00 00		 mov	 rcx, QWORD PTR PyExc_ValueError
  00077	48 8d 15 00 00
	00 00		 lea	 rdx, OFFSET FLAT:??_C@_0CK@CCOBPACL@string?5length?5not?5a?5multiple?5of?5@
  0007e	e8 00 00 00 00	 call	 PyErr_SetString

; 1418 :         return NULL;

  00083	33 c0		 xor	 eax, eax
  00085	e9 c8 00 00 00	 jmp	 $LN14@frombytes
$LN5@frombytes:
  0008a	48 89 6c 24 40	 mov	 QWORD PTR [rsp+64], rbp

; 1419 :     }
; 1420 :     n = n / itemsize;
; 1421 :     if (n > 0) {

  0008f	48 85 c0	 test	 rax, rax
  00092	7e 65		 jle	 SHORT $LN4@frombytes

; 1422 :         Py_ssize_t old_size = Py_SIZE(self);

  00094	48 8b 6f 60	 mov	 rbp, QWORD PTR [rdi+96]

; 1423 :         if ((n > PY_SSIZE_T_MAX - old_size) ||
; 1424 :             ((old_size + n) > PY_SSIZE_T_MAX / itemsize)) {

  00098	48 b8 ff ff ff
	ff ff ff ff 7f	 mov	 rax, 9223372036854775807 ; 7fffffffffffffffH
  000a2	48 8b c8	 mov	 rcx, rax
  000a5	48 2b cd	 sub	 rcx, rbp
  000a8	48 3b f1	 cmp	 rsi, rcx
  000ab	0f 8f b6 00 00
	00		 jg	 $LN2@frombytes
  000b1	48 99		 cdq
  000b3	48 8d 0c 2e	 lea	 rcx, QWORD PTR [rsi+rbp]
  000b7	49 f7 fc	 idiv	 r12
  000ba	48 3b c8	 cmp	 rcx, rax
  000bd	0f 8f a4 00 00
	00		 jg	 $LN2@frombytes

; 1427 :         }
; 1428 :         if (array_resize(self, old_size + n) == -1) {

  000c3	48 8b d1	 mov	 rdx, rcx
  000c6	48 8b cf	 mov	 rcx, rdi
  000c9	e8 00 00 00 00	 call	 array_resize
  000ce	83 f8 ff	 cmp	 eax, -1
  000d1	75 0c		 jne	 SHORT $LN1@frombytes

; 1429 :             PyBuffer_Release(buffer);

  000d3	48 8b cb	 mov	 rcx, rbx
  000d6	e8 00 00 00 00	 call	 PyBuffer_Release

; 1430 :             return NULL;

  000db	33 c0		 xor	 eax, eax
  000dd	eb 6e		 jmp	 SHORT $LN15@frombytes
$LN1@frombytes:

; 1431 :         }
; 1432 :         memcpy(self->ob_item + old_size * itemsize,
; 1433 :             buffer->buf, n * itemsize);

  000df	48 8b 13	 mov	 rdx, QWORD PTR [rbx]
  000e2	4d 8b c4	 mov	 r8, r12
  000e5	4c 0f af e5	 imul	 r12, rbp
  000e9	4c 03 67 70	 add	 r12, QWORD PTR [rdi+112]
  000ed	4c 0f af c6	 imul	 r8, rsi
  000f1	49 8b cc	 mov	 rcx, r12
  000f4	e8 00 00 00 00	 call	 memcpy
$LN4@frombytes:

; 1434 :     }
; 1435 :     PyBuffer_Release(buffer);

  000f9	48 8b cb	 mov	 rcx, rbx
  000fc	e8 00 00 00 00	 call	 PyBuffer_Release

; 1436 :     Py_INCREF(Py_None);

  00101	e8 00 00 00 00	 call	 _Py_PXCTX
  00106	85 c0		 test	 eax, eax
  00108	75 3c		 jne	 SHORT $LN10@frombytes
  0010a	4c 8d 0d 00 00
	00 00		 lea	 r9, OFFSET FLAT:_Py_NoneStruct
  00111	48 8d 15 00 00
	00 00		 lea	 rdx, OFFSET FLAT:??_C@_0CD@HDJFDCDP@c?3?2src?2pyparallel?2include?2object@
  00118	48 8d 0d 00 00
	00 00		 lea	 rcx, OFFSET FLAT:??_C@_0L@DHGMCEID@_Py_IncRef?$AA@
  0011f	41 b8 89 03 00
	00		 mov	 r8d, 905		; 00000389H
  00125	c7 44 24 20 02
	00 00 00	 mov	 DWORD PTR [rsp+32], 2
  0012d	e8 00 00 00 00	 call	 _PyParallel_Guard
  00132	85 c0		 test	 eax, eax
  00134	75 09		 jne	 SHORT $LN9@frombytes
  00136	f6 05 20 00 00
	00 20		 test	 BYTE PTR _Py_NoneStruct+32, 32 ; 00000020H
  0013d	74 07		 je	 SHORT $LN10@frombytes
$LN9@frombytes:
  0013f	48 ff 05 50 00
	00 00		 inc	 QWORD PTR _Py_NoneStruct+80
$LN10@frombytes:

; 1437 :     return Py_None;

  00146	48 8d 05 00 00
	00 00		 lea	 rax, OFFSET FLAT:_Py_NoneStruct
$LN15@frombytes:
  0014d	48 8b 6c 24 40	 mov	 rbp, QWORD PTR [rsp+64]
$LN14@frombytes:
  00152	48 8b 74 24 48	 mov	 rsi, QWORD PTR [rsp+72]
  00157	4c 8b 64 24 50	 mov	 r12, QWORD PTR [rsp+80]

; 1438 : }

  0015c	48 8b 5c 24 58	 mov	 rbx, QWORD PTR [rsp+88]
  00161	48 83 c4 30	 add	 rsp, 48			; 00000030H
  00165	5f		 pop	 rdi
  00166	c3		 ret	 0
$LN2@frombytes:

; 1425 :                 PyBuffer_Release(buffer);

  00167	48 8b cb	 mov	 rcx, rbx
  0016a	e8 00 00 00 00	 call	 PyBuffer_Release

; 1426 :                 return PyErr_NoMemory();

  0016f	e8 00 00 00 00	 call	 PyErr_NoMemory
  00174	eb d7		 jmp	 SHORT $LN15@frombytes
frombytes ENDP
_TEXT	ENDS
PUBLIC	??_C@_0O@KNGGIENM@s?$CK?3fromstring?$AA@	; `string'
PUBLIC	??_C@_0DF@BOBJEIFM@fromstring?$CI?$CJ?5is?5deprecated?4?5Use?5@ ; `string'
EXTRN	PyErr_WarnEx:PROC
EXTRN	PyExc_DeprecationWarning:QWORD
;	COMDAT pdata
pdata	SEGMENT
$pdata$array_fromstring DD imagerel array_fromstring
	DD	imagerel array_fromstring+112
	DD	imagerel $unwind$array_fromstring
pdata	ENDS
;	COMDAT xdata
xdata	SEGMENT
$unwind$array_fromstring DD 040a01H
	DD	010340aH
	DD	07006d20aH
xdata	ENDS
;	COMDAT ??_C@_0O@KNGGIENM@s?$CK?3fromstring?$AA@
CONST	SEGMENT
??_C@_0O@KNGGIENM@s?$CK?3fromstring?$AA@ DB 's*:fromstring', 00H ; `string'
CONST	ENDS
;	COMDAT ??_C@_0DF@BOBJEIFM@fromstring?$CI?$CJ?5is?5deprecated?4?5Use?5@
CONST	SEGMENT
??_C@_0DF@BOBJEIFM@fromstring?$CI?$CJ?5is?5deprecated?4?5Use?5@ DB 'froms'
	DB	'tring() is deprecated. Use frombytes() instead.', 00H ; `string'
; Function compile flags: /Ogtpy
CONST	ENDS
;	COMDAT array_fromstring
_TEXT	SEGMENT
buffer$ = 32
self$ = 128
args$ = 136
array_fromstring PROC					; COMDAT

; 1442 : {

  00000	48 89 5c 24 08	 mov	 QWORD PTR [rsp+8], rbx
  00005	57		 push	 rdi
  00006	48 83 ec 70	 sub	 rsp, 112		; 00000070H
  0000a	48 8b d9	 mov	 rbx, rcx

; 1443 :     Py_buffer buffer;
; 1444 :     if (PyErr_WarnEx(PyExc_DeprecationWarning,
; 1445 :             "fromstring() is deprecated. Use frombytes() instead.", 2) != 0)

  0000d	48 8b 0d 00 00
