; Listing generated by Microsoft (R) Optimizing Compiler Version 16.00.40219.01 

include listing.inc

INCLUDELIB MSVCRT
INCLUDELIB OLDNAMES

PUBLIC	??_C@_05MKDOIIA@False?$AA@			; `string'
PUBLIC	??_C@_04HPMIDMKH@True?$AA@			; `string'
PUBLIC	??_C@_04OHJIHAFH@None?$AA@			; `string'
_DATA	SEGMENT
FORBIDDEN DQ	FLAT:??_C@_04OHJIHAFH@None?$AA@
	DQ	FLAT:??_C@_04HPMIDMKH@True?$AA@
	DQ	FLAT:??_C@_05MKDOIIA@False?$AA@
	DQ	0000000000000000H
_DATA	ENDS
;	COMDAT ??_C@_05MKDOIIA@False?$AA@
CONST	SEGMENT
??_C@_05MKDOIIA@False?$AA@ DB 'False', 00H		; `string'
CONST	ENDS
;	COMDAT ??_C@_04HPMIDMKH@True?$AA@
CONST	SEGMENT
??_C@_04HPMIDMKH@True?$AA@ DB 'True', 00H		; `string'
CONST	ENDS
;	COMDAT ??_C@_04OHJIHAFH@None?$AA@
CONST	SEGMENT
??_C@_04OHJIHAFH@None?$AA@ DB 'None', 00H		; `string'
CONST	ENDS
PUBLIC	??_C@_0L@DHGMCEID@_Py_IncRef?$AA@		; `string'
PUBLIC	??_C@_0CD@HDJFDCDP@c?3?2src?2pyparallel?2include?2object@ ; `string'
PUBLIC	_Py_IncRef
EXTRN	_PyParallel_Guard:PROC
EXTRN	_Py_PXCTX:PROC
;	COMDAT pdata
; File c:\src\pyparallel\include\object.h
pdata	SEGMENT
$pdata$_Py_IncRef DD imagerel $LN5
	DD	imagerel $LN5+74
	DD	imagerel $unwind$_Py_IncRef
pdata	ENDS
;	COMDAT xdata
xdata	SEGMENT
$unwind$_Py_IncRef DD 020601H
	DD	030025206H
xdata	ENDS
;	COMDAT ??_C@_0L@DHGMCEID@_Py_IncRef?$AA@
CONST	SEGMENT
??_C@_0L@DHGMCEID@_Py_IncRef?$AA@ DB '_Py_IncRef', 00H	; `string'
CONST	ENDS
;	COMDAT ??_C@_0CD@HDJFDCDP@c?3?2src?2pyparallel?2include?2object@
CONST	SEGMENT
??_C@_0CD@HDJFDCDP@c?3?2src?2pyparallel?2include?2object@ DB 'c:\src\pypa'
	DB	'rallel\include\object.h', 00H		; `string'
; Function compile flags: /Ogtpy
CONST	ENDS
;	COMDAT _Py_IncRef
_TEXT	SEGMENT
op$ = 64
_Py_IncRef PROC						; COMDAT

; 904  : {

$LN5:
  00000	40 53		 push	 rbx
  00002	48 83 ec 30	 sub	 rsp, 48			; 00000030H
  00006	48 8b d9	 mov	 rbx, rcx

; 905  :     if ((!Py_PXCTX && (Py_ISPY(op) || Px_PERSISTED(op)))) {

  00009	e8 00 00 00 00	 call	 _Py_PXCTX
  0000e	85 c0		 test	 eax, eax
  00010	75 32		 jne	 SHORT $LN2@Py_IncRef
  00012	48 8d 15 00 00
	00 00		 lea	 rdx, OFFSET FLAT:??_C@_0CD@HDJFDCDP@c?3?2src?2pyparallel?2include?2object@
  00019	48 8d 0d 00 00
	00 00		 lea	 rcx, OFFSET FLAT:??_C@_0L@DHGMCEID@_Py_IncRef?$AA@
  00020	4c 8b cb	 mov	 r9, rbx
  00023	41 b8 89 03 00
	00		 mov	 r8d, 905		; 00000389H
  00029	c7 44 24 20 02
	00 00 00	 mov	 DWORD PTR [rsp+32], 2
  00031	e8 00 00 00 00	 call	 _PyParallel_Guard
  00036	85 c0		 test	 eax, eax
  00038	75 06		 jne	 SHORT $LN1@Py_IncRef
  0003a	f6 43 20 20	 test	 BYTE PTR [rbx+32], 32	; 00000020H
  0003e	74 04		 je	 SHORT $LN2@Py_IncRef
$LN1@Py_IncRef:

; 906  :         _Py_INC_REFTOTAL;
; 907  :         (((PyObject*)(op))->ob_refcnt++);

  00040	48 ff 43 50	 inc	 QWORD PTR [rbx+80]
$LN2@Py_IncRef:

; 908  :     }
; 909  : }

  00044	48 83 c4 30	 add	 rsp, 48			; 00000030H
  00048	5b		 pop	 rbx
  00049	c3		 ret	 0
_Py_IncRef ENDP
_TEXT	ENDS
PUBLIC	??_C@_0L@DMHMLFIA@_Py_DecRef?$AA@		; `string'
PUBLIC	_Py_DecRef
EXTRN	Px_DecRef:PROC
EXTRN	_Px_Dealloc:PROC
;	COMDAT pdata
pdata	SEGMENT
$pdata$_Py_DecRef DD imagerel $LN12
	DD	imagerel $LN12+123
	DD	imagerel $unwind$_Py_DecRef
pdata	ENDS
;	COMDAT xdata
xdata	SEGMENT
$unwind$_Py_DecRef DD 020601H
	DD	030025206H
xdata	ENDS
;	COMDAT ??_C@_0L@DMHMLFIA@_Py_DecRef?$AA@
CONST	SEGMENT
??_C@_0L@DMHMLFIA@_Py_DecRef?$AA@ DB '_Py_DecRef', 00H	; `string'
; Function compile flags: /Ogtpy
CONST	ENDS
;	COMDAT _Py_DecRef
_TEXT	SEGMENT
op$ = 64
_Py_DecRef PROC						; COMDAT

; 923  : {

$LN12:
  00000	40 53		 push	 rbx
  00002	48 83 ec 30	 sub	 rsp, 48			; 00000030H
  00006	48 8b d9	 mov	 rbx, rcx

; 924  :     if (!Py_PXCTX) {

  00009	e8 00 00 00 00	 call	 _Py_PXCTX
  0000e	85 c0		 test	 eax, eax
  00010	75 63		 jne	 SHORT $LN11@Py_DecRef

; 925  :         if (Px_PERSISTED(op) || Px_CLONED(op))

  00012	48 8b 43 20	 mov	 rax, QWORD PTR [rbx+32]
  00016	a8 20		 test	 al, 32			; 00000020H
  00018	75 53		 jne	 SHORT $LN5@Py_DecRef
  0001a	84 c0		 test	 al, al
  0001c	78 4f		 js	 SHORT $LN5@Py_DecRef

; 927  :         else if (!Px_ISPX(op)) {

  0001e	a8 02		 test	 al, 2
  00020	75 53		 jne	 SHORT $LN11@Py_DecRef

; 928  :             _Py_DEC_REFTOTAL;
; 929  :             if ((--((PyObject *)(op))->ob_refcnt) != 0) {

  00022	48 ff 4b 50	 dec	 QWORD PTR [rbx+80]
  00026	75 4d		 jne	 SHORT $LN11@Py_DecRef

; 930  :                 _Py_CHECK_REFCNT(op);
; 931  :             } else
; 932  :                 _Py_Dealloc((PyObject *)(op));

  00028	48 8d 15 00 00
	00 00		 lea	 rdx, OFFSET FLAT:??_C@_0CD@HDJFDCDP@c?3?2src?2pyparallel?2include?2object@
  0002f	48 8d 0d 00 00
	00 00		 lea	 rcx, OFFSET FLAT:??_C@_0L@DMHMLFIA@_Py_DecRef?$AA@
  00036	4c 8b cb	 mov	 r9, rbx
  00039	41 b8 a4 03 00
	00		 mov	 r8d, 932		; 000003a4H
  0003f	c7 44 24 20 10
	00 00 00	 mov	 DWORD PTR [rsp+32], 16
  00047	e8 00 00 00 00	 call	 _PyParallel_Guard
  0004c	48 8b cb	 mov	 rcx, rbx
  0004f	85 c0		 test	 eax, eax
  00051	74 0a		 je	 SHORT $LN10@Py_DecRef

; 933  :         }
; 934  :     }
; 935  : }

  00053	48 83 c4 30	 add	 rsp, 48			; 00000030H
  00057	5b		 pop	 rbx
  00058	e9 00 00 00 00	 jmp	 _Px_Dealloc
$LN10@Py_DecRef:

; 930  :                 _Py_CHECK_REFCNT(op);
; 931  :             } else
; 932  :                 _Py_Dealloc((PyObject *)(op));

  0005d	48 8b 43 58	 mov	 rax, QWORD PTR [rbx+88]

; 933  :         }
; 934  :     }
; 935  : }

  00061	48 83 c4 30	 add	 rsp, 48			; 00000030H
  00065	5b		 pop	 rbx
  00066	48 ff a0 88 00
	00 00		 rex_jmp QWORD PTR [rax+136]
$LN5@Py_DecRef:

; 926  :             Px_DECREF(op);

  0006d	48 8b cb	 mov	 rcx, rbx
  00070	e8 00 00 00 00	 call	 Px_DecRef
$LN11@Py_DecRef:

; 933  :         }
; 934  :     }
; 935  : }

  00075	48 83 c4 30	 add	 rsp, 48			; 00000030H
  00079	5b		 pop	 rbx
  0007a	c3		 ret	 0
_Py_DecRef ENDP
_TEXT	ENDS
PUBLIC	??_C@_0CB@FOMOKEA@comprehension?5with?5no?5generators@ ; `string'
EXTRN	PyErr_SetString:PROC
EXTRN	PyExc_ValueError:QWORD
;	COMDAT pdata
; File c:\src\pyparallel\python\ast.c
pdata	SEGMENT
$pdata$validate_comprehension DD imagerel validate_comprehension
	DD	imagerel validate_comprehension+28
	DD	imagerel $unwind$validate_comprehension
pdata	ENDS
;	COMDAT pdata
pdata	SEGMENT
$pdata$2$validate_comprehension DD imagerel validate_comprehension+28
	DD	imagerel validate_comprehension+147
	DD	imagerel $chain$2$validate_comprehension
pdata	ENDS
;	COMDAT pdata
pdata	SEGMENT
$pdata$4$validate_comprehension DD imagerel validate_comprehension+147
	DD	imagerel validate_comprehension+154
	DD	imagerel $chain$4$validate_comprehension
pdata	ENDS
;	COMDAT pdata
pdata	SEGMENT
$pdata$5$validate_comprehension DD imagerel validate_comprehension+154
	DD	imagerel validate_comprehension+181
	DD	imagerel $chain$5$validate_comprehension
pdata	ENDS
;	COMDAT xdata
xdata	SEGMENT
$chain$5$validate_comprehension DD 021H
	DD	imagerel validate_comprehension
	DD	imagerel validate_comprehension+28
	DD	imagerel $unwind$validate_comprehension
xdata	ENDS
;	COMDAT xdata
xdata	SEGMENT
$chain$4$validate_comprehension DD 060021H
	DD	087400H
	DD	075400H
	DD	063400H
	DD	imagerel validate_comprehension
	DD	imagerel validate_comprehension+28
	DD	imagerel $unwind$validate_comprehension
xdata	ENDS
;	COMDAT xdata
xdata	SEGMENT
$chain$2$validate_comprehension DD 061321H
	DD	075413H
	DD	08740aH
	DD	063405H
	DD	imagerel validate_comprehension
	DD	imagerel validate_comprehension+28
	DD	imagerel $unwind$validate_comprehension
xdata	ENDS
;	COMDAT xdata
xdata	SEGMENT
$unwind$validate_comprehension DD 020601H
	DD	060023206H
xdata	ENDS
;	COMDAT ??_C@_0CB@FOMOKEA@comprehension?5with?5no?5generators@
CONST	SEGMENT
??_C@_0CB@FOMOKEA@comprehension?5with?5no?5generators@ DB 'comprehension '
	DB	'with no generators', 00H			; `string'
; Function compile flags: /Ogtpy
CONST	ENDS
;	COMDAT validate_comprehension
_TEXT	SEGMENT
gens$ = 48
validate_comprehension PROC				; COMDAT

; 22   : {

  00000	40 56		 push	 rsi
  00002	48 83 ec 20	 sub	 rsp, 32			; 00000020H
  00006	48 8b f1	 mov	 rsi, rcx

; 23   :     int i;
; 24   :     if (!asdl_seq_LEN(gens)) {

  00009	48 85 c9	 test	 rcx, rcx
  0000c	0f 84 88 00 00
	00		 je	 $LN15@validate_c
  00012	48 83 39 00	 cmp	 QWORD PTR [rcx], 0
  00016	0f 84 7e 00 00
	00		 je	 $LN15@validate_c

; 27   :     }
; 28   :     for (i = 0; i < asdl_seq_LEN(gens); i++) {

  0001c	48 89 5c 24 30	 mov	 QWORD PTR [rsp+48], rbx
  00021	48 89 7c 24 40	 mov	 QWORD PTR [rsp+64], rdi
  00026	48 8d 79 08	 lea	 rdi, QWORD PTR [rcx+8]
  0002a	48 89 6c 24 38	 mov	 QWORD PTR [rsp+56], rbp
  0002f	33 db		 xor	 ebx, ebx
$LL5@validate_c:
  00031	48 63 c3	 movsxd	 rax, ebx
  00034	48 3b 06	 cmp	 rax, QWORD PTR [rsi]
  00037	7d 5a		 jge	 SHORT $LN3@validate_c

; 29   :         comprehension_ty comp = asdl_seq_GET(gens, i);

  00039	48 8b 2f	 mov	 rbp, QWORD PTR [rdi]

; 30   :         if (!validate_expr(comp->target, Store) ||
; 31   :             !validate_expr(comp->iter, Load) ||
; 32   :             !validate_exprs(comp->ifs, Load, 0))

  0003c	ba 02 00 00 00	 mov	 edx, 2
  00041	48 8b 4d 00	 mov	 rcx, QWORD PTR [rbp]
  00045	e8 00 00 00 00	 call	 validate_expr
  0004a	85 c0		 test	 eax, eax
  0004c	74 2e		 je	 SHORT $LN14@validate_c
  0004e	48 8b 4d 08	 mov	 rcx, QWORD PTR [rbp+8]
  00052	ba 01 00 00 00	 mov	 edx, 1
  00057	e8 00 00 00 00	 call	 validate_expr
  0005c	85 c0		 test	 eax, eax
  0005e	74 1c		 je	 SHORT $LN14@validate_c
  00060	48 8b 4d 10	 mov	 rcx, QWORD PTR [rbp+16]
  00064	45 33 c0	 xor	 r8d, r8d
  00067	41 8d 50 01	 lea	 edx, QWORD PTR [r8+1]
  0006b	e8 00 00 00 00	 call	 validate_exprs
  00070	85 c0		 test	 eax, eax
  00072	74 08		 je	 SHORT $LN14@validate_c

; 27   :     }
; 28   :     for (i = 0; i < asdl_seq_LEN(gens); i++) {

  00074	ff c3		 inc	 ebx
  00076	48 83 c7 08	 add	 rdi, 8
  0007a	eb b5		 jmp	 SHORT $LL5@validate_c
$LN14@validate_c:

; 33   :             return 0;

  0007c	33 c0		 xor	 eax, eax
$LN18@validate_c:
  0007e	48 8b 6c 24 38	 mov	 rbp, QWORD PTR [rsp+56]
  00083	48 8b 5c 24 30	 mov	 rbx, QWORD PTR [rsp+48]
  00088	48 8b 7c 24 40	 mov	 rdi, QWORD PTR [rsp+64]

; 36   : }

  0008d	48 83 c4 20	 add	 rsp, 32			; 00000020H
  00091	5e		 pop	 rsi
  00092	c3		 ret	 0
$LN3@validate_c:

; 34   :     }
; 35   :     return 1;

  00093	b8 01 00 00 00	 mov	 eax, 1
  00098	eb e4		 jmp	 SHORT $LN18@validate_c
$LN15@validate_c:

; 25   :         PyErr_SetString(PyExc_ValueError, "comprehension with no generators");

  0009a	48 8b 0d 00 00
	00 00		 mov	 rcx, QWORD PTR PyExc_ValueError
  000a1	48 8d 15 00 00
	00 00		 lea	 rdx, OFFSET FLAT:??_C@_0CB@FOMOKEA@comprehension?5with?5no?5generators@
  000a8	e8 00 00 00 00	 call	 PyErr_SetString

; 26   :         return 0;

  000ad	33 c0		 xor	 eax, eax

; 36   : }

  000af	48 83 c4 20	 add	 rsp, 32			; 00000020H
  000b3	5e		 pop	 rsi
  000b4	c3		 ret	 0
validate_comprehension ENDP
_TEXT	ENDS
;	COMDAT pdata
pdata	SEGMENT
$pdata$validate_keywords DD imagerel validate_keywords
	DD	imagerel validate_keywords+112
	DD	imagerel $unwind$validate_keywords
pdata	ENDS
;	COMDAT xdata
xdata	SEGMENT
$unwind$validate_keywords DD 060f01H
	DD	07640fH
	DD	06340fH
	DD	0700b320fH
; Function compile flags: /Ogtpy
xdata	ENDS
;	COMDAT validate_keywords
_TEXT	SEGMENT
keywords$ = 48
validate_keywords PROC					; COMDAT

; 65   : {

  00000	48 89 5c 24 08	 mov	 QWORD PTR [rsp+8], rbx
  00005	48 89 74 24 10	 mov	 QWORD PTR [rsp+16], rsi
  0000a	57		 push	 rdi
  0000b	48 83 ec 20	 sub	 rsp, 32			; 00000020H
  0000f	48 8b f1	 mov	 rsi, rcx

; 66   :     int i;
; 67   :     for (i = 0; i < asdl_seq_LEN(keywords); i++)

  00012	33 db		 xor	 ebx, ebx
  00014	48 8d 79 08	 lea	 rdi, QWORD PTR [rcx+8]
$LL4@validate_k:
  00018	48 85 f6	 test	 rsi, rsi
  0001b	75 04		 jne	 SHORT $LN7@validate_k
  0001d	33 d2		 xor	 edx, edx
  0001f	eb 03		 jmp	 SHORT $LN8@validate_k
$LN7@validate_k:
  00021	48 8b 16	 mov	 rdx, QWORD PTR [rsi]
$LN8@validate_k:
  00024	48 63 c3	 movsxd	 rax, ebx
  00027	48 3b c2	 cmp	 rax, rdx
  0002a	7d 2f		 jge	 SHORT $LN2@validate_k

; 68   :         if (!validate_expr(((keyword_ty)asdl_seq_GET(keywords, i))->value, Load))

  0002c	48 8b 0f	 mov	 rcx, QWORD PTR [rdi]
  0002f	ba 01 00 00 00	 mov	 edx, 1
  00034	48 8b 49 08	 mov	 rcx, QWORD PTR [rcx+8]
  00038	e8 00 00 00 00	 call	 validate_expr
  0003d	85 c0		 test	 eax, eax
  0003f	74 08		 je	 SHORT $LN10@validate_k

; 66   :     int i;
; 67   :     for (i = 0; i < asdl_seq_LEN(keywords); i++)

  00041	ff c3		 inc	 ebx
  00043	48 83 c7 08	 add	 rdi, 8
  00047	eb cf		 jmp	 SHORT $LL4@validate_k
$LN10@validate_k:

; 69   :             return 0;

  00049	33 c0		 xor	 eax, eax

; 70   :     return 1;
; 71   : }

  0004b	48 8b 5c 24 30	 mov	 rbx, QWORD PTR [rsp+48]
  00050	48 8b 74 24 38	 mov	 rsi, QWORD PTR [rsp+56]
  00055	48 83 c4 20	 add	 rsp, 32			; 00000020H
  00059	5f		 pop	 rdi
  0005a	c3		 ret	 0
$LN2@validate_k:
  0005b	48 8b 5c 24 30	 mov	 rbx, QWORD PTR [rsp+48]
  00060	48 8b 74 24 38	 mov	 rsi, QWORD PTR [rsp+56]
  00065	b8 01 00 00 00	 mov	 eax, 1
  0006a	48 83 c4 20	 add	 rsp, 32			; 00000020H
  0006e	5f		 pop	 rdi
  0006f	c3		 ret	 0
validate_keywords ENDP
_TEXT	ENDS
;	COMDAT pdata
pdata	SEGMENT
$pdata$validate_args DD imagerel validate_args
	DD	imagerel validate_args+117
	DD	imagerel $unwind$validate_args
pdata	ENDS
;	COMDAT xdata
xdata	SEGMENT
$unwind$validate_args DD 060f01H
	DD	07640fH
	DD	06340fH
	DD	0700b320fH
; Function compile flags: /Ogtpy
xdata	ENDS
;	COMDAT validate_args
_TEXT	SEGMENT
args$ = 48
validate_args PROC					; COMDAT

; 75   : {

  00000	48 89 5c 24 08	 mov	 QWORD PTR [rsp+8], rbx
  00005	48 89 74 24 10	 mov	 QWORD PTR [rsp+16], rsi
  0000a	57		 push	 rdi
  0000b	48 83 ec 20	 sub	 rsp, 32			; 00000020H
  0000f	48 8b f1	 mov	 rsi, rcx

; 76   :     int i;
; 77   :     for (i = 0; i < asdl_seq_LEN(args); i++) {

  00012	33 db		 xor	 ebx, ebx
  00014	48 8d 79 08	 lea	 rdi, QWORD PTR [rcx+8]
$LL4@validate_a:
  00018	48 85 f6	 test	 rsi, rsi
  0001b	75 04		 jne	 SHORT $LN7@validate_a
  0001d	33 d2		 xor	 edx, edx
  0001f	eb 03		 jmp	 SHORT $LN8@validate_a
$LN7@validate_a:
  00021	48 8b 16	 mov	 rdx, QWORD PTR [rsi]
$LN8@validate_a:
  00024	48 63 c3	 movsxd	 rax, ebx
  00027	48 3b c2	 cmp	 rax, rdx
  0002a	7d 34		 jge	 SHORT $LN2@validate_a

; 78   :         arg_ty arg = asdl_seq_GET(args, i);

  0002c	48 8b 07	 mov	 rax, QWORD PTR [rdi]

; 79   :         if (arg->annotation && !validate_expr(arg->annotation, Load))

  0002f	48 8b 48 08	 mov	 rcx, QWORD PTR [rax+8]
  00033	48 85 c9	 test	 rcx, rcx
  00036	74 0e		 je	 SHORT $LN3@validate_a
  00038	ba 01 00 00 00	 mov	 edx, 1
  0003d	e8 00 00 00 00	 call	 validate_expr
  00042	85 c0		 test	 eax, eax
  00044	74 08		 je	 SHORT $LN10@validate_a
$LN3@validate_a:

; 76   :     int i;
; 77   :     for (i = 0; i < asdl_seq_LEN(args); i++) {

  00046	ff c3		 inc	 ebx
  00048	48 83 c7 08	 add	 rdi, 8
  0004c	eb ca		 jmp	 SHORT $LL4@validate_a
$LN10@validate_a:

; 80   :             return 0;

  0004e	33 c0		 xor	 eax, eax

; 81   :     }
; 82   :     return 1;
; 83   : }

  00050	48 8b 5c 24 30	 mov	 rbx, QWORD PTR [rsp+48]
  00055	48 8b 74 24 38	 mov	 rsi, QWORD PTR [rsp+56]
  0005a	48 83 c4 20	 add	 rsp, 32			; 00000020H
  0005e	5f		 pop	 rdi
  0005f	c3		 ret	 0
$LN2@validate_a:
  00060	48 8b 5c 24 30	 mov	 rbx, QWORD PTR [rsp+48]
  00065	48 8b 74 24 38	 mov	 rsi, QWORD PTR [rsp+56]
  0006a	b8 01 00 00 00	 mov	 eax, 1
  0006f	48 83 c4 20	 add	 rsp, 32			; 00000020H
  00073	5f		 pop	 rdi
  00074	c3		 ret	 0
validate_args ENDP
_TEXT	ENDS
PUBLIC	??_C@_09GPGAJHPD@?$CIunknown?$CJ?$AA@		; `string'
PUBLIC	??_C@_05LOJBNELM@Param?$AA@			; `string'
PUBLIC	??_C@_08NAEMOJFF@AugStore?$AA@			; `string'
PUBLIC	??_C@_07GCIJHPCC@AugLoad?$AA@			; `string'
PUBLIC	??_C@_03ENJJMCOJ@Del?$AA@			; `string'
PUBLIC	??_C@_05OEMPKGID@Store?$AA@			; `string'
PUBLIC	??_C@_04IPBPFFEL@Load?$AA@			; `string'
EXTRN	__ImageBase:BYTE
;	COMDAT ??_C@_09GPGAJHPD@?$CIunknown?$CJ?$AA@
CONST	SEGMENT
??_C@_09GPGAJHPD@?$CIunknown?$CJ?$AA@ DB '(unknown)', 00H ; `string'
CONST	ENDS
;	COMDAT ??_C@_05LOJBNELM@Param?$AA@
CONST	SEGMENT
??_C@_05LOJBNELM@Param?$AA@ DB 'Param', 00H		; `string'
CONST	ENDS
;	COMDAT ??_C@_08NAEMOJFF@AugStore?$AA@
CONST	SEGMENT
??_C@_08NAEMOJFF@AugStore?$AA@ DB 'AugStore', 00H	; `string'
CONST	ENDS
;	COMDAT ??_C@_07GCIJHPCC@AugLoad?$AA@
CONST	SEGMENT
??_C@_07GCIJHPCC@AugLoad?$AA@ DB 'AugLoad', 00H		; `string'
CONST	ENDS
;	COMDAT ??_C@_03ENJJMCOJ@Del?$AA@
CONST	SEGMENT
??_C@_03ENJJMCOJ@Del?$AA@ DB 'Del', 00H			; `string'
CONST	ENDS
;	COMDAT ??_C@_05OEMPKGID@Store?$AA@
CONST	SEGMENT
??_C@_05OEMPKGID@Store?$AA@ DB 'Store', 00H		; `string'
CONST	ENDS
;	COMDAT ??_C@_04IPBPFFEL@Load?$AA@
CONST	SEGMENT
??_C@_04IPBPFFEL@Load?$AA@ DB 'Load', 00H		; `string'
; Function compile flags: /Ogtpy
CONST	ENDS
;	COMDAT expr_context_name
_TEXT	SEGMENT
ctx$ = 8
expr_context_name PROC					; COMDAT

; 88   :     switch (ctx) {

  00000	ff c9		 dec	 ecx
  00002	83 f9 05	 cmp	 ecx, 5
  00005	77 46		 ja	 SHORT $LN1@expr_conte
  00007	48 8d 15 00 00
	00 00		 lea	 rdx, OFFSET FLAT:__ImageBase
  0000e	48 63 c1	 movsxd	 rax, ecx
  00011	8b 8c 82 00 00
	00 00		 mov	 ecx, DWORD PTR $LN12@expr_conte[rdx+rax*4]
  00018	48 03 ca	 add	 rcx, rdx
  0001b	ff e1		 jmp	 rcx
$LN7@expr_conte:

; 89   :     case Load:
; 90   :         return "Load";

  0001d	48 8d 05 00 00
	00 00		 lea	 rax, OFFSET FLAT:??_C@_04IPBPFFEL@Load?$AA@

; 104  :     }
; 105  : }

  00024	c3		 ret	 0
$LN6@expr_conte:

; 91   :     case Store:
; 92   :         return "Store";

  00025	48 8d 05 00 00
	00 00		 lea	 rax, OFFSET FLAT:??_C@_05OEMPKGID@Store?$AA@

; 104  :     }
; 105  : }

  0002c	c3		 ret	 0
$LN5@expr_conte:

; 93   :     case Del:
; 94   :         return "Del";

  0002d	48 8d 05 00 00
	00 00		 lea	 rax, OFFSET FLAT:??_C@_03ENJJMCOJ@Del?$AA@

; 104  :     }
; 105  : }

  00034	c3		 ret	 0
$LN4@expr_conte:

; 95   :     case AugLoad:
; 96   :         return "AugLoad";

  00035	48 8d 05 00 00
	00 00		 lea	 rax, OFFSET FLAT:??_C@_07GCIJHPCC@AugLoad?$AA@

; 104  :     }
; 105  : }

  0003c	c3		 ret	 0
$LN3@expr_conte:

; 97   :     case AugStore:
; 98   :         return "AugStore";

  0003d	48 8d 05 00 00
	00 00		 lea	 rax, OFFSET FLAT:??_C@_08NAEMOJFF@AugStore?$AA@

; 104  :     }
; 105  : }

  00044	c3		 ret	 0
$LN2@expr_conte:

; 99   :     case Param:
; 100  :         return "Param";

  00045	48 8d 05 00 00
	00 00		 lea	 rax, OFFSET FLAT:??_C@_05LOJBNELM@Param?$AA@

; 104  :     }
; 105  : }

  0004c	c3		 ret	 0
$LN1@expr_conte:

; 101  :     default:
; 102  :         assert(0);
; 103  :         return "(unknown)";

  0004d	48 8d 05 00 00
	00 00		 lea	 rax, OFFSET FLAT:??_C@_09GPGAJHPD@?$CIunknown?$CJ?$AA@

; 104  :     }
; 105  : }

  00054	c3		 ret	 0
  00055	0f 1f 00	 npad	 3
$LN12@expr_conte:
  00058	00 00 00 00	 DD	 $LN7@expr_conte
  0005c	00 00 00 00	 DD	 $LN6@expr_conte
  00060	00 00 00 00	 DD	 $LN5@expr_conte
  00064	00 00 00 00	 DD	 $LN4@expr_conte
  00068	00 00 00 00	 DD	 $LN3@expr_conte
  0006c	00 00 00 00	 DD	 $LN2@expr_conte
expr_context_name ENDP
_TEXT	ENDS
PUBLIC	??_C@_0EB@KMIALOCA@length?5of?5kwonlyargs?5is?5not?5the?5@ ; `string'
PUBLIC	??_C@_0DA@BMNOANML@more?5positional?5defaults?5than?5ar@ ; `string'
PUBLIC	??_C@_0CK@OLHMKKCI@kwargannotation?5but?5no?5kwarg?5on?5@ ; `string'
PUBLIC	??_C@_0CM@FFNDHJIA@varargannotation?5but?5no?5vararg?5o@ ; `string'
;	COMDAT pdata
pdata	SEGMENT
$pdata$validate_arguments DD imagerel validate_arguments
	DD	imagerel validate_arguments+31
	DD	imagerel $unwind$validate_arguments
pdata	ENDS
;	COMDAT pdata
pdata	SEGMENT
$pdata$0$validate_arguments DD imagerel validate_arguments+31
	DD	imagerel validate_arguments+85
	DD	imagerel $chain$0$validate_arguments
pdata	ENDS
;	COMDAT pdata
pdata	SEGMENT
$pdata$2$validate_arguments DD imagerel validate_arguments+85
	DD	imagerel validate_arguments+165
	DD	imagerel $chain$2$validate_arguments
pdata	ENDS
;	COMDAT pdata
pdata	SEGMENT
$pdata$4$validate_arguments DD imagerel validate_arguments+165
	DD	imagerel validate_arguments+240
	DD	imagerel $chain$4$validate_arguments
pdata	ENDS
;	COMDAT pdata
pdata	SEGMENT
$pdata$6$validate_arguments DD imagerel validate_arguments+240
	DD	imagerel validate_arguments+305
	DD	imagerel $chain$6$validate_arguments
pdata	ENDS
;	COMDAT pdata
pdata	SEGMENT
$pdata$8$validate_arguments DD imagerel validate_arguments+305
	DD	imagerel validate_arguments+355
	DD	imagerel $chain$8$validate_arguments
pdata	ENDS
;	COMDAT xdata
xdata	SEGMENT
$chain$8$validate_arguments DD 020021H
	DD	067400H
	DD	imagerel validate_arguments
	DD	imagerel validate_arguments+31
	DD	imagerel $unwind$validate_arguments
xdata	ENDS
;	COMDAT xdata
xdata	SEGMENT
$chain$6$validate_arguments DD 020021H
	DD	067400H
	DD	imagerel validate_arguments
	DD	imagerel validate_arguments+31
	DD	imagerel $unwind$validate_arguments
xdata	ENDS
;	COMDAT xdata
xdata	SEGMENT
$chain$4$validate_arguments DD 020021H
	DD	067400H
	DD	imagerel validate_arguments
	DD	imagerel validate_arguments+31
	DD	imagerel $unwind$validate_arguments
xdata	ENDS
;	COMDAT xdata
xdata	SEGMENT
$chain$2$validate_arguments DD 020021H
	DD	067400H
	DD	imagerel validate_arguments
	DD	imagerel validate_arguments+31
	DD	imagerel $unwind$validate_arguments
xdata	ENDS
;	COMDAT xdata
xdata	SEGMENT
$chain$0$validate_arguments DD 020521H
	DD	067405H
	DD	imagerel validate_arguments
	DD	imagerel validate_arguments+31
	DD	imagerel $unwind$validate_arguments
xdata	ENDS
;	COMDAT xdata
xdata	SEGMENT
$unwind$validate_arguments DD 020601H
	DD	030023206H
xdata	ENDS
;	COMDAT ??_C@_0EB@KMIALOCA@length?5of?5kwonlyargs?5is?5not?5the?5@
CONST	SEGMENT
??_C@_0EB@KMIALOCA@length?5of?5kwonlyargs?5is?5not?5the?5@ DB 'length of '
	DB	'kwonlyargs is not the same as kw_defaults on arguments', 00H ; `string'
CONST	ENDS
;	COMDAT ??_C@_0DA@BMNOANML@more?5positional?5defaults?5than?5ar@
CONST	SEGMENT
??_C@_0DA@BMNOANML@more?5positional?5defaults?5than?5ar@ DB 'more positio'
	DB	'nal defaults than args on arguments', 00H	; `string'
CONST	ENDS
;	COMDAT ??_C@_0CK@OLHMKKCI@kwargannotation?5but?5no?5kwarg?5on?5@
CONST	SEGMENT
??_C@_0CK@OLHMKKCI@kwargannotation?5but?5no?5kwarg?5on?5@ DB 'kwargannota'
	DB	'tion but no kwarg on arguments', 00H	; `string'
CONST	ENDS
;	COMDAT ??_C@_0CM@FFNDHJIA@varargannotation?5but?5no?5vararg?5o@
CONST	SEGMENT
??_C@_0CM@FFNDHJIA@varargannotation?5but?5no?5vararg?5o@ DB 'varargannota'
	DB	'tion but no vararg on arguments', 00H	; `string'
; Function compile flags: /Ogtpy
CONST	ENDS
;	COMDAT validate_arguments
_TEXT	SEGMENT
args$ = 48
validate_arguments PROC					; COMDAT

; 109  : {

  00000	40 53		 push	 rbx
  00002	48 83 ec 20	 sub	 rsp, 32			; 00000020H
  00006	48 8b d9	 mov	 rbx, rcx

; 110  :     if (!validate_args(args->args))

  00009	48 8b 09	 mov	 rcx, QWORD PTR [rcx]
  0000c	e8 00 00 00 00	 call	 validate_args
  00011	85 c0		 test	 eax, eax
  00013	75 06		 jne	 SHORT $LN10@validate_a@2

; 140  : }

  00015	48 83 c4 20	 add	 rsp, 32			; 00000020H
  00019	5b		 pop	 rbx
  0001a	c3		 ret	 0
$LN10@validate_a@2:

; 111  :         return 0;
; 112  :     if (args->varargannotation) {

  0001b	48 8b 4b 10	 mov	 rcx, QWORD PTR [rbx+16]
  0001f	48 89 7c 24 30	 mov	 QWORD PTR [rsp+48], rdi
  00024	bf 01 00 00 00	 mov	 edi, 1
  00029	48 85 c9	 test	 rcx, rcx
  0002c	74 36		 je	 SHORT $LN7@validate_a@2

; 113  :         if (!args->vararg) {

  0002e	48 83 7b 08 00	 cmp	 QWORD PTR [rbx+8], 0
  00033	75 20		 jne	 SHORT $LN8@validate_a@2

; 114  :             PyErr_SetString(PyExc_ValueError, "varargannotation but no vararg on arguments");

  00035	48 8b 0d 00 00
	00 00		 mov	 rcx, QWORD PTR PyExc_ValueError
  0003c	48 8d 15 00 00
	00 00		 lea	 rdx, OFFSET FLAT:??_C@_0CM@FFNDHJIA@varargannotation?5but?5no?5vararg?5o@
  00043	e8 00 00 00 00	 call	 PyErr_SetString
  00048	48 8b 7c 24 30	 mov	 rdi, QWORD PTR [rsp+48]

; 115  :             return 0;

  0004d	33 c0		 xor	 eax, eax

; 140  : }

  0004f	48 83 c4 20	 add	 rsp, 32			; 00000020H
  00053	5b		 pop	 rbx
  00054	c3		 ret	 0
$LN8@validate_a@2:

; 116  :         }
; 117  :         if (!validate_expr(args->varargannotation, Load))

  00055	8b d7		 mov	 edx, edi
  00057	e8 00 00 00 00	 call	 validate_expr
  0005c	85 c0		 test	 eax, eax

; 118  :             return 0;

  0005e	0f 84 c0 00 00
	00		 je	 $LN24@validate_a@2
$LN7@validate_a@2:

; 119  :     }
; 120  :     if (!validate_args(args->kwonlyargs))

  00064	48 8b 4b 18	 mov	 rcx, QWORD PTR [rbx+24]
  00068	e8 00 00 00 00	 call	 validate_args
  0006d	85 c0		 test	 eax, eax

; 121  :         return 0;

  0006f	0f 84 af 00 00
	00		 je	 $LN24@validate_a@2

; 122  :     if (args->kwargannotation) {

  00075	48 8b 4b 28	 mov	 rcx, QWORD PTR [rbx+40]
  00079	48 85 c9	 test	 rcx, rcx
  0007c	74 32		 je	 SHORT $LN3@validate_a@2

; 123  :         if (!args->kwarg) {

  0007e	48 83 7b 20 00	 cmp	 QWORD PTR [rbx+32], 0
  00083	75 20		 jne	 SHORT $LN4@validate_a@2

; 124  :             PyErr_SetString(PyExc_ValueError, "kwargannotation but no kwarg on arguments");

  00085	48 8b 0d 00 00
	00 00		 mov	 rcx, QWORD PTR PyExc_ValueError
  0008c	48 8d 15 00 00
	00 00		 lea	 rdx, OFFSET FLAT:??_C@_0CK@OLHMKKCI@kwargannotation?5but?5no?5kwarg?5on?5@
  00093	e8 00 00 00 00	 call	 PyErr_SetString
  00098	48 8b 7c 24 30	 mov	 rdi, QWORD PTR [rsp+48]

; 125  :             return 0;

  0009d	33 c0		 xor	 eax, eax

; 140  : }

  0009f	48 83 c4 20	 add	 rsp, 32			; 00000020H
  000a3	5b		 pop	 rbx
  000a4	c3		 ret	 0
$LN4@validate_a@2:

; 126  :         }
; 127  :         if (!validate_expr(args->kwargannotation, Load))

  000a5	8b d7		 mov	 edx, edi
  000a7	e8 00 00 00 00	 call	 validate_expr
  000ac	85 c0		 test	 eax, eax

; 128  :             return 0;

  000ae	74 74		 je	 SHORT $LN24@validate_a@2
$LN3@validate_a@2:

; 129  :     }
; 130  :     if (asdl_seq_LEN(args->defaults) > asdl_seq_LEN(args->args)) {

  000b0	4c 8b 4b 30	 mov	 r9, QWORD PTR [rbx+48]
  000b4	4d 85 c9	 test	 r9, r9
  000b7	75 04		 jne	 SHORT $LN13@validate_a@2
  000b9	33 c0		 xor	 eax, eax
  000bb	eb 03		 jmp	 SHORT $LN14@validate_a@2
$LN13@validate_a@2:
  000bd	49 8b 01	 mov	 rax, QWORD PTR [r9]
$LN14@validate_a@2:
  000c0	48 8b 0b	 mov	 rcx, QWORD PTR [rbx]
  000c3	48 85 c9	 test	 rcx, rcx
  000c6	74 03		 je	 SHORT $LN16@validate_a@2
$LN15@validate_a@2:
  000c8	48 8b 09	 mov	 rcx, QWORD PTR [rcx]
$LN16@validate_a@2:
  000cb	48 3b c1	 cmp	 rax, rcx
  000ce	7e 20		 jle	 SHORT $LN2@validate_a@2

; 131  :         PyErr_SetString(PyExc_ValueError, "more positional defaults than args on arguments");

  000d0	48 8b 0d 00 00
	00 00		 mov	 rcx, QWORD PTR PyExc_ValueError
  000d7	48 8d 15 00 00
	00 00		 lea	 rdx, OFFSET FLAT:??_C@_0DA@BMNOANML@more?5positional?5defaults?5than?5ar@
  000de	e8 00 00 00 00	 call	 PyErr_SetString
  000e3	48 8b 7c 24 30	 mov	 rdi, QWORD PTR [rsp+48]

; 132  :         return 0;

  000e8	33 c0		 xor	 eax, eax

; 140  : }

  000ea	48 83 c4 20	 add	 rsp, 32			; 00000020H
  000ee	5b		 pop	 rbx
  000ef	c3		 ret	 0
$LN2@validate_a@2:

; 133  :     }
; 134  :     if (asdl_seq_LEN(args->kw_defaults) != asdl_seq_LEN(args->kwonlyargs)) {

  000f0	48 8b 43 38	 mov	 rax, QWORD PTR [rbx+56]
  000f4	48 85 c0	 test	 rax, rax
  000f7	75 04		 jne	 SHORT $LN17@validate_a@2
  000f9	33 c9		 xor	 ecx, ecx
  000fb	eb 03		 jmp	 SHORT $LN18@validate_a@2
$LN17@validate_a@2:
  000fd	48 8b 08	 mov	 rcx, QWORD PTR [rax]
$LN18@validate_a@2:
  00100	48 8b 43 18	 mov	 rax, QWORD PTR [rbx+24]
  00104	48 85 c0	 test	 rax, rax
  00107	74 03		 je	 SHORT $LN20@validate_a@2
$LN19@validate_a@2:
  00109	48 8b 00	 mov	 rax, QWORD PTR [rax]
$LN20@validate_a@2:
  0010c	48 3b c8	 cmp	 rcx, rax
  0010f	74 20		 je	 SHORT $LN1@validate_a@2

; 135  :         PyErr_SetString(PyExc_ValueError, "length of kwonlyargs is not the same as "
; 136  :                         "kw_defaults on arguments");

  00111	48 8b 0d 00 00
	00 00		 mov	 rcx, QWORD PTR PyExc_ValueError
  00118	48 8d 15 00 00
	00 00		 lea	 rdx, OFFSET FLAT:??_C@_0EB@KMIALOCA@length?5of?5kwonlyargs?5is?5not?5the?5@
  0011f	e8 00 00 00 00	 call	 PyErr_SetString
$LN24@validate_a@2:

; 137  :         return 0;

  00124	33 c0		 xor	 eax, eax
  00126	48 8b 7c 24 30	 mov	 rdi, QWORD PTR [rsp+48]

; 140  : }

  0012b	48 83 c4 20	 add	 rsp, 32			; 00000020H
  0012f	5b		 pop	 rbx
  00130	c3		 ret	 0
$LN1@validate_a@2:

; 138  :     }
; 139  :     return validate_exprs(args->defaults, Load, 0) && validate_exprs(args->kw_defaults, Load, 1);

  00131	45 33 c0	 xor	 r8d, r8d
  00134	8b d7		 mov	 edx, edi
  00136	49 8b c9	 mov	 rcx, r9
  00139	e8 00 00 00 00	 call	 validate_exprs
  0013e	85 c0		 test	 eax, eax
  00140	74 12		 je	 SHORT $LN21@validate_a@2
  00142	48 8b 4b 38	 mov	 rcx, QWORD PTR [rbx+56]
  00146	44 8b c7	 mov	 r8d, edi
  00149	8b d7		 mov	 edx, edi
  0014b	e8 00 00 00 00	 call	 validate_exprs
  00150	85 c0		 test	 eax, eax
  00152	75 02		 jne	 SHORT $LN22@validate_a@2
$LN21@validate_a@2:
  00154	33 ff		 xor	 edi, edi
$LN22@validate_a@2:
  00156	8b c7		 mov	 eax, edi
  00158	48 8b 7c 24 30	 mov	 rdi, QWORD PTR [rsp+48]

; 140  : }

  0015d	48 83 c4 20	 add	 rsp, 32			; 00000020H
  00161	5b		 pop	 rbx
  00162	c3		 ret	 0
validate_arguments ENDP
_TEXT	ENDS
PUBLIC	??_C@_0P@FFDKEMAL@empty?5?$CFs?5on?5?$CFs?$AA@	; `string'
EXTRN	PyErr_Format:PROC
;	COMDAT pdata
pdata	SEGMENT
$pdata$validate_nonempty_seq DD imagerel validate_nonempty_seq
	DD	imagerel validate_nonempty_seq+57
	DD	imagerel $unwind$validate_nonempty_seq
pdata	ENDS
;	COMDAT xdata
xdata	SEGMENT
$unwind$validate_nonempty_seq DD 010401H
	DD	04204H
xdata	ENDS
;	COMDAT ??_C@_0P@FFDKEMAL@empty?5?$CFs?5on?5?$CFs?$AA@
CONST	SEGMENT
??_C@_0P@FFDKEMAL@empty?5?$CFs?5on?5?$CFs?$AA@ DB 'empty %s on %s', 00H ; `string'
; Function compile flags: /Ogtpy
CONST	ENDS
;	COMDAT validate_nonempty_seq
_TEXT	SEGMENT
seq$ = 48
what$ = 56
owner$ = 64
validate_nonempty_seq PROC				; COMDAT

; 295  : {

  00000	48 83 ec 28	 sub	 rsp, 40			; 00000028H

; 296  :     if (asdl_seq_LEN(seq))

  00004	48 85 c9	 test	 rcx, rcx
  00007	74 10		 je	 SHORT $LN1@validate_n
  00009	48 83 39 00	 cmp	 QWORD PTR [rcx], 0
  0000d	74 0a		 je	 SHORT $LN1@validate_n

; 297  :         return 1;

  0000f	b8 01 00 00 00	 mov	 eax, 1

; 300  : }

  00014	48 83 c4 28	 add	 rsp, 40			; 00000028H
  00018	c3		 ret	 0
$LN1@validate_n:

; 298  :     PyErr_Format(PyExc_ValueError, "empty %s on %s", what, owner);

  00019	48 8b 0d 00 00
	00 00		 mov	 rcx, QWORD PTR PyExc_ValueError
  00020	4d 8b c8	 mov	 r9, r8
  00023	4c 8b c2	 mov	 r8, rdx
  00026	48 8d 15 00 00
	00 00		 lea	 rdx, OFFSET FLAT:??_C@_0P@FFDKEMAL@empty?5?$CFs?5on?5?$CFs?$AA@
  0002d	e8 00 00 00 00	 call	 PyErr_Format

; 299  :     return 0;

  00032	33 c0		 xor	 eax, eax

; 300  : }

  00034	48 83 c4 28	 add	 rsp, 40			; 00000028H
  00038	c3		 ret	 0
validate_nonempty_seq ENDP
_TEXT	ENDS
PUBLIC	??_C@_04IEJGKNJ@body?$AA@			; `string'
;	COMDAT pdata
pdata	SEGMENT
$pdata$validate_body DD imagerel validate_body
	DD	imagerel validate_body+59
	DD	imagerel $unwind$validate_body
pdata	ENDS
;	COMDAT xdata
xdata	SEGMENT
$unwind$validate_body DD 020601H
	DD	030023206H
xdata	ENDS
;	COMDAT ??_C@_04IEJGKNJ@body?$AA@
CONST	SEGMENT
??_C@_04IEJGKNJ@body?$AA@ DB 'body', 00H		; `string'
; Function compile flags: /Ogtpy
CONST	ENDS
;	COMDAT validate_body
_TEXT	SEGMENT
body$ = 48
owner$ = 56
validate_body PROC					; COMDAT

; 311  : {

  00000	40 53		 push	 rbx
  00002	48 83 ec 20	 sub	 rsp, 32			; 00000020H

; 312  :     return validate_nonempty_seq(body, "body", owner) && validate_stmts(body);

  00006	4c 8b c2	 mov	 r8, rdx
  00009	48 8d 15 00 00
	00 00		 lea	 rdx, OFFSET FLAT:??_C@_04IEJGKNJ@body?$AA@
  00010	48 8b d9	 mov	 rbx, rcx
  00013	e8 00 00 00 00	 call	 validate_nonempty_seq
  00018	85 c0		 test	 eax, eax
  0001a	74 17		 je	 SHORT $LN3@validate_b
  0001c	48 8b cb	 mov	 rcx, rbx
  0001f	e8 00 00 00 00	 call	 validate_stmts
  00024	85 c0		 test	 eax, eax
  00026	74 0b		 je	 SHORT $LN3@validate_b
  00028	b8 01 00 00 00	 mov	 eax, 1

; 313  : }

  0002d	48 83 c4 20	 add	 rsp, 32			; 00000020H
  00031	5b		 pop	 rbx
  00032	c3		 ret	 0
$LN3@validate_b:

; 312  :     return validate_nonempty_seq(body, "body", owner) && validate_stmts(body);

  00033	33 c0		 xor	 eax, eax

; 313  : }

  00035	48 83 c4 20	 add	 rsp, 32			; 00000020H
  00039	5b		 pop	 rbx
  0003a	c3		 ret	 0
validate_body ENDP
_TEXT	ENDS
PUBLIC	??_C@_0BD@KCNADAJK@init_normalization?$AA@	; `string'
PUBLIC	??_C@_0BA@DHFJPBFM@?4?4?2Python?2ast?4c?$AA@	; `string'
PUBLIC	??_C@_04IPKEFMHE@?$CIsN?$CJ?$AA@		; `string'
PUBLIC	??_C@_04MHPKJHMM@NFKC?$AA@			; `string'
PUBLIC	??_C@_09MMDNNKKJ@normalize?$AA@			; `string'
PUBLIC	??_C@_0M@JMEAHPBI@unicodedata?$AA@		; `string'
EXTRN	Py_BuildValue:PROC
EXTRN	_Py_NoneStruct:BYTE
EXTRN	PyObject_GetAttrString:PROC
EXTRN	PyImport_ImportModuleNoBlock:PROC
;	COMDAT pdata
pdata	SEGMENT
$pdata$init_normalization DD imagerel init_normalization
	DD	imagerel init_normalization+206
	DD	imagerel $unwind$init_normalization
pdata	ENDS
;	COMDAT xdata
xdata	SEGMENT
$unwind$init_normalization DD 040a01H
	DD	08340aH
	DD	07006520aH
xdata	ENDS
;	COMDAT ??_C@_0BD@KCNADAJK@init_normalization?$AA@
CONST	SEGMENT
??_C@_0BD@KCNADAJK@init_normalization?$AA@ DB 'init_normalization', 00H ; `string'
CONST	ENDS
;	COMDAT ??_C@_0BA@DHFJPBFM@?4?4?2Python?2ast?4c?$AA@
CONST	SEGMENT
??_C@_0BA@DHFJPBFM@?4?4?2Python?2ast?4c?$AA@ DB '..\Python\ast.c', 00H ; `string'
CONST	ENDS
;	COMDAT ??_C@_04IPKEFMHE@?$CIsN?$CJ?$AA@
CONST	SEGMENT
??_C@_04IPKEFMHE@?$CIsN?$CJ?$AA@ DB '(sN)', 00H		; `string'
CONST	ENDS
;	COMDAT ??_C@_04MHPKJHMM@NFKC?$AA@
CONST	SEGMENT
??_C@_04MHPKJHMM@NFKC?$AA@ DB 'NFKC', 00H		; `string'
CONST	ENDS
;	COMDAT ??_C@_09MMDNNKKJ@normalize?$AA@
CONST	SEGMENT
??_C@_09MMDNNKKJ@normalize?$AA@ DB 'normalize', 00H	; `string'
CONST	ENDS
;	COMDAT ??_C@_0M@JMEAHPBI@unicodedata?$AA@
CONST	SEGMENT
??_C@_0M@JMEAHPBI@unicodedata?$AA@ DB 'unicodedata', 00H ; `string'
; Function compile flags: /Ogtpy
CONST	ENDS
;	COMDAT init_normalization
_TEXT	SEGMENT
c$ = 64
init_normalization PROC					; COMDAT

; 529  : {

  00000	48 89 5c 24 08	 mov	 QWORD PTR [rsp+8], rbx
  00005	57		 push	 rdi
  00006	48 83 ec 30	 sub	 rsp, 48			; 00000030H
  0000a	48 8b d9	 mov	 rbx, rcx

; 530  :     PyObject *m = PyImport_ImportModuleNoBlock("unicodedata");

  0000d	48 8d 0d 00 00
	00 00		 lea	 rcx, OFFSET FLAT:??_C@_0M@JMEAHPBI@unicodedata?$AA@
  00014	e8 00 00 00 00	 call	 PyImport_ImportModuleNoBlock
  00019	48 8b f8	 mov	 rdi, rax

; 531  :     if (!m)

  0001c	48 85 c0	 test	 rax, rax

; 532  :         return 0;

  0001f	0f 84 84 00 00
	00		 je	 $LN3@init_norma

; 533  :     c->c_normalize = PyObject_GetAttrString(m, "normalize");

  00025	48 8d 15 00 00
	00 00		 lea	 rdx, OFFSET FLAT:??_C@_09MMDNNKKJ@normalize?$AA@
  0002c	48 8b c8	 mov	 rcx, rax
  0002f	e8 00 00 00 00	 call	 PyObject_GetAttrString

; 534  :     Py_DECREF(m);

  00034	48 8b cf	 mov	 rcx, rdi
  00037	48 89 43 18	 mov	 QWORD PTR [rbx+24], rax
  0003b	e8 00 00 00 00	 call	 _Py_DecRef

; 535  :     if (!c->c_normalize)

  00040	48 83 7b 18 00	 cmp	 QWORD PTR [rbx+24], 0

; 536  :         return 0;

  00045	74 62		 je	 SHORT $LN3@init_norma

; 537  :     c->c_normalize_args = Py_BuildValue("(sN)", "NFKC", Py_None);

  00047	4c 8d 05 00 00
	00 00		 lea	 r8, OFFSET FLAT:_Py_NoneStruct
  0004e	48 8d 15 00 00
	00 00		 lea	 rdx, OFFSET FLAT:??_C@_04MHPKJHMM@NFKC?$AA@
  00055	48 8d 0d 00 00
	00 00		 lea	 rcx, OFFSET FLAT:??_C@_04IPKEFMHE@?$CIsN?$CJ?$AA@
  0005c	e8 00 00 00 00	 call	 Py_BuildValue
  00061	48 89 43 20	 mov	 QWORD PTR [rbx+32], rax

; 538  :     if (!c->c_normalize_args) {

  00065	48 85 c0	 test	 rax, rax
  00068	75 4c		 jne	 SHORT $LN5@init_norma

; 539  :         Py_CLEAR(c->c_normalize);

  0006a	4c 8b 4b 18	 mov	 r9, QWORD PTR [rbx+24]
  0006e	4d 85 c9	 test	 r9, r9
  00071	74 36		 je	 SHORT $LN3@init_norma
  00073	48 8d 15 00 00
	00 00		 lea	 rdx, OFFSET FLAT:??_C@_0BA@DHFJPBFM@?4?4?2Python?2ast?4c?$AA@
  0007a	48 8d 0d 00 00
	00 00		 lea	 rcx, OFFSET FLAT:??_C@_0BD@KCNADAJK@init_normalization?$AA@
  00081	41 b8 1b 02 00
	00		 mov	 r8d, 539		; 0000021bH
  00087	c7 44 24 20 10
	00 00 00	 mov	 DWORD PTR [rsp+32], 16
  0008f	e8 00 00 00 00	 call	 _PyParallel_Guard
  00094	85 c0		 test	 eax, eax
  00096	75 11		 jne	 SHORT $LN3@init_norma
  00098	48 8b 4b 18	 mov	 rcx, QWORD PTR [rbx+24]
  0009c	48 c7 43 18 00
	00 00 00	 mov	 QWORD PTR [rbx+24], 0
  000a4	e8 00 00 00 00	 call	 _Py_DecRef
$LN3@init_norma:

; 540  :         return 0;

  000a9	33 c0		 xor	 eax, eax

; 541  :     }
; 542  :     PyTuple_SET_ITEM(c->c_normalize_args, 1, NULL);
; 543  :     return 1;
; 544  : }

  000ab	48 8b 5c 24 40	 mov	 rbx, QWORD PTR [rsp+64]
  000b0	48 83 c4 30	 add	 rsp, 48			; 00000030H
  000b4	5f		 pop	 rdi
  000b5	c3		 ret	 0
$LN5@init_norma:
  000b6	48 8b 5c 24 40	 mov	 rbx, QWORD PTR [rsp+64]
  000bb	48 c7 40 78 00
	00 00 00	 mov	 QWORD PTR [rax+120], 0
  000c3	b8 01 00 00 00	 mov	 eax, 1
  000c8	48 83 c4 30	 add	 rsp, 48			; 00000030H
  000cc	5f		 pop	 rdi
  000cd	c3		 ret	 0
init_normalization ENDP
_TEXT	ENDS
EXTRN	PyArena_AddPyObject:PROC
EXTRN	PyUnicode_InternInPlace:PROC
EXTRN	PyObject_Call:PROC
EXTRN	PyUnicode_DecodeUTF8:PROC
;	COMDAT pdata
pdata	SEGMENT
$pdata$new_identifier DD imagerel new_identifier
	DD	imagerel new_identifier+198
	DD	imagerel $unwind$new_identifier
pdata	ENDS
;	COMDAT xdata
xdata	SEGMENT
$unwind$new_identifier DD 040a01H
	DD	06340aH
	DD	07006320aH
; Function compile flags: /Ogtpy
xdata	ENDS
;	COMDAT new_identifier
_TEXT	SEGMENT
n$ = 48
c$ = 56
id$ = 64
new_identifier PROC					; COMDAT

; 548  : {

  00000	48 89 5c 24 08	 mov	 QWORD PTR [rsp+8], rbx
  00005	57		 push	 rdi
  00006	48 83 ec 20	 sub	 rsp, 32			; 00000020H
  0000a	4c 8b c9	 mov	 r9, rcx

; 549  :     PyObject *id = PyUnicode_DecodeUTF8(n, strlen(n), NULL);

  0000d	48 83 c9 ff	 or	 rcx, -1
  00011	33 c0		 xor	 eax, eax
  00013	49 8b f9	 mov	 rdi, r9
  00016	48 8b da	 mov	 rbx, rdx
  00019	45 33 c0	 xor	 r8d, r8d
  0001c	f2 ae		 repne scasb
  0001e	48 f7 d1	 not	 rcx
  00021	48 8d 51 ff	 lea	 rdx, QWORD PTR [rcx-1]
  00025	49 8b c9	 mov	 rcx, r9
  00028	e8 00 00 00 00	 call	 PyUnicode_DecodeUTF8
  0002d	48 8b d0	 mov	 rdx, rax
  00030	48 89 44 24 40	 mov	 QWORD PTR id$[rsp], rax

; 550  :     if (!id)

  00035	48 85 c0	 test	 rax, rax

; 551  :         return NULL;

  00038	74 23		 je	 SHORT $LN8@new_identi

; 552  :     /* PyUnicode_DecodeUTF8 should always return a ready string. */
; 553  :     assert(PyUnicode_IS_READY(id));
; 554  :     /* Check whether there are non-ASCII characters in the
; 555  :        identifier; if so, normalize to NFKC. */
; 556  :     if (!PyUnicode_IS_ASCII(id)) {

  0003a	f6 40 70 40	 test	 BYTE PTR [rax+112], 64	; 00000040H
  0003e	75 5e		 jne	 SHORT $LN3@new_identi

; 557  :         PyObject *id2;
; 558  :         if (!c->c_normalize && !init_normalization(c)) {

  00040	48 83 7b 18 00	 cmp	 QWORD PTR [rbx+24], 0
  00045	75 28		 jne	 SHORT $LN2@new_identi
  00047	48 8b cb	 mov	 rcx, rbx
  0004a	e8 00 00 00 00	 call	 init_normalization
  0004f	85 c0		 test	 eax, eax
  00051	75 17		 jne	 SHORT $LN7@new_identi

; 559  :             Py_DECREF(id);

  00053	48 8b 4c 24 40	 mov	 rcx, QWORD PTR id$[rsp]
  00058	e8 00 00 00 00	 call	 _Py_DecRef
$LN8@new_identi:

; 560  :             return NULL;

  0005d	33 c0		 xor	 eax, eax

; 572  : }

  0005f	48 8b 5c 24 30	 mov	 rbx, QWORD PTR [rsp+48]
  00064	48 83 c4 20	 add	 rsp, 32			; 00000020H
  00068	5f		 pop	 rdi
  00069	c3		 ret	 0
$LN7@new_identi:

; 560  :             return NULL;

  0006a	48 8b 54 24 40	 mov	 rdx, QWORD PTR id$[rsp]
$LN2@new_identi:

; 561  :         }
; 562  :         PyTuple_SET_ITEM(c->c_normalize_args, 1, id);

  0006f	48 8b 43 20	 mov	 rax, QWORD PTR [rbx+32]

; 563  :         id2 = PyObject_Call(c->c_normalize, c->c_normalize_args, NULL);

  00073	45 33 c0	 xor	 r8d, r8d
  00076	48 89 50 78	 mov	 QWORD PTR [rax+120], rdx
  0007a	48 8b 53 20	 mov	 rdx, QWORD PTR [rbx+32]
  0007e	48 8b 4b 18	 mov	 rcx, QWORD PTR [rbx+24]
  00082	e8 00 00 00 00	 call	 PyObject_Call

; 564  :         Py_DECREF(id);

  00087	48 8b 4c 24 40	 mov	 rcx, QWORD PTR id$[rsp]
  0008c	48 8b f8	 mov	 rdi, rax
  0008f	e8 00 00 00 00	 call	 _Py_DecRef

; 565  :         if (!id2)

  00094	48 85 ff	 test	 rdi, rdi

; 566  :             return NULL;

  00097	74 c4		 je	 SHORT $LN8@new_identi

; 567  :         id = id2;

  00099	48 89 7c 24 40	 mov	 QWORD PTR id$[rsp], rdi
$LN3@new_identi:

; 568  :     }
; 569  :     PyUnicode_InternInPlace(&id);

  0009e	48 8d 4c 24 40	 lea	 rcx, QWORD PTR id$[rsp]
  000a3	e8 00 00 00 00	 call	 PyUnicode_InternInPlace

; 570  :     PyArena_AddPyObject(c->c_arena, id);

  000a8	48 8b 54 24 40	 mov	 rdx, QWORD PTR id$[rsp]
  000ad	48 8b 4b 08	 mov	 rcx, QWORD PTR [rbx+8]
  000b1	e8 00 00 00 00	 call	 PyArena_AddPyObject

; 571  :     return id;

  000b6	48 8b 44 24 40	 mov	 rax, QWORD PTR id$[rsp]

; 572  : }

  000bb	48 8b 5c 24 30	 mov	 rbx, QWORD PTR [rsp+48]
  000c0	48 83 c4 20	 add	 rsp, 32			; 00000020H
  000c4	5f		 pop	 rdi
  000c5	c3		 ret	 0
new_identifier ENDP
_TEXT	ENDS
PUBLIC	??_C@_06EHNNKOPC@?$CINiiN?$CJ?$AA@		; `string'
EXTRN	PyErr_SetObject:PROC
EXTRN	PyExc_SyntaxError:QWORD
EXTRN	PyTuple_Pack:PROC
EXTRN	PyUnicode_FromString:PROC
EXTRN	PyUnicode_DecodeFSDefault:PROC
EXTRN	PyErr_ProgramText:PROC
;	COMDAT pdata
; File c:\src\pyparallel\include\object.h
pdata	SEGMENT
$pdata$ast_error DD imagerel ast_error
	DD	imagerel ast_error+369
	DD	imagerel $unwind$ast_error
pdata	ENDS
;	COMDAT xdata
xdata	SEGMENT
$unwind$ast_error DD 0a1a01H
	DD	0b741aH
	DD	0a641aH
	DD	09541aH
	DD	08341aH
	DD	0c016521aH
xdata	ENDS
;	COMDAT ??_C@_06EHNNKOPC@?$CINiiN?$CJ?$AA@
CONST	SEGMENT
??_C@_06EHNNKOPC@?$CINiiN?$CJ?$AA@ DB '(NiiN)', 00H	; `string'
; Function compile flags: /Ogtpy
; File c:\src\pyparallel\python\ast.c
CONST	ENDS
;	COMDAT ast_error
_TEXT	SEGMENT
c$ = 64
n$ = 72
errmsg$ = 80
ast_error PROC						; COMDAT

; 578  : {

  00000	48 89 5c 24 08	 mov	 QWORD PTR [rsp+8], rbx
  00005	48 89 6c 24 10	 mov	 QWORD PTR [rsp+16], rbp
  0000a	48 89 74 24 18	 mov	 QWORD PTR [rsp+24], rsi
  0000f	48 89 7c 24 20	 mov	 QWORD PTR [rsp+32], rdi
  00014	41 54		 push	 r12
  00016	48 83 ec 30	 sub	 rsp, 48			; 00000030H
  0001a	48 8b ea	 mov	 rbp, rdx

; 579  :     PyObject *value, *errstr, *loc, *tmp;
; 580  :     PyObject *filename_obj;
; 581  : 
; 582  :     loc = PyErr_ProgramText(c->c_filename, LINENO(n));

  0001d	8b 52 10	 mov	 edx, DWORD PTR [rdx+16]
  00020	48 8b f1	 mov	 rsi, rcx
  00023	48 8b 49 10	 mov	 rcx, QWORD PTR [rcx+16]
  00027	4d 8b e0	 mov	 r12, r8
  0002a	e8 00 00 00 00	 call	 PyErr_ProgramText

; 583  :     if (!loc) {

  0002f	48 8d 1d 00 00
	00 00		 lea	 rbx, OFFSET FLAT:_Py_NoneStruct
  00036	48 8b f8	 mov	 rdi, rax
  00039	48 85 c0	 test	 rax, rax
  0003c	75 44		 jne	 SHORT $LN7@ast_error

; 584  :         Py_INCREF(Py_None);

  0003e	e8 00 00 00 00	 call	 _Py_PXCTX
  00043	85 c0		 test	 eax, eax
  00045	75 38		 jne	 SHORT $LN11@ast_error
  00047	48 8d 15 00 00
	00 00		 lea	 rdx, OFFSET FLAT:??_C@_0CD@HDJFDCDP@c?3?2src?2pyparallel?2include?2object@
  0004e	48 8d 0d 00 00
	00 00		 lea	 rcx, OFFSET FLAT:??_C@_0L@DHGMCEID@_Py_IncRef?$AA@
  00055	4c 8b cb	 mov	 r9, rbx
  00058	41 b8 89 03 00
	00		 mov	 r8d, 905		; 00000389H
  0005e	c7 44 24 20 02
	00 00 00	 mov	 DWORD PTR [rsp+32], 2
  00066	e8 00 00 00 00	 call	 _PyParallel_Guard
  0006b	85 c0		 test	 eax, eax
  0006d	75 09		 jne	 SHORT $LN10@ast_error
  0006f	f6 05 20 00 00
	00 20		 test	 BYTE PTR _Py_NoneStruct+32, 32 ; 00000020H
  00076	74 07		 je	 SHORT $LN11@ast_error
$LN10@ast_error:
  00078	48 ff 05 50 00
	00 00		 inc	 QWORD PTR _Py_NoneStruct+80
$LN11@ast_error:

; 585  :         loc = Py_None;

  0007f	48 8b fb	 mov	 rdi, rbx
$LN7@ast_error:

; 586  :     }
; 587  :     if (c->c_filename) {

  00082	48 8b 4e 10	 mov	 rcx, QWORD PTR [rsi+16]
  00086	48 85 c9	 test	 rcx, rcx
  00089	74 15		 je	 SHORT $LN6@ast_error

; 588  :         filename_obj = PyUnicode_DecodeFSDefault(c->c_filename);

  0008b	e8 00 00 00 00	 call	 PyUnicode_DecodeFSDefault
  00090	48 8b d8	 mov	 rbx, rax

; 589  :         if (!filename_obj) {

  00093	48 85 c0	 test	 rax, rax
  00096	75 49		 jne	 SHORT $LN15@ast_error
$LN19@ast_error:

; 590  :             Py_DECREF(loc);

  00098	48 8b cf	 mov	 rcx, rdi

; 591  :             return 0;

  0009b	e9 af 00 00 00	 jmp	 $LN18@ast_error
$LN6@ast_error:

; 592  :         }
; 593  :     } else {
; 594  :         Py_INCREF(Py_None);

  000a0	e8 00 00 00 00	 call	 _Py_PXCTX
  000a5	85 c0		 test	 eax, eax
  000a7	75 38		 jne	 SHORT $LN15@ast_error
  000a9	48 8d 15 00 00
	00 00		 lea	 rdx, OFFSET FLAT:??_C@_0CD@HDJFDCDP@c?3?2src?2pyparallel?2include?2object@
  000b0	48 8d 0d 00 00
	00 00		 lea	 rcx, OFFSET FLAT:??_C@_0L@DHGMCEID@_Py_IncRef?$AA@
  000b7	4c 8b cb	 mov	 r9, rbx
  000ba	41 b8 89 03 00
	00		 mov	 r8d, 905		; 00000389H
  000c0	c7 44 24 20 02
	00 00 00	 mov	 DWORD PTR [rsp+32], 2
  000c8	e8 00 00 00 00	 call	 _PyParallel_Guard
  000cd	85 c0		 test	 eax, eax
  000cf	75 09		 jne	 SHORT $LN14@ast_error
  000d1	f6 05 20 00 00
	00 20		 test	 BYTE PTR _Py_NoneStruct+32, 32 ; 00000020H
  000d8	74 07		 je	 SHORT $LN15@ast_error
$LN14@ast_error:
  000da	48 ff 05 50 00
	00 00		 inc	 QWORD PTR _Py_NoneStruct+80
$LN15@ast_error:

; 595  :         filename_obj = Py_None;
; 596  :     }
; 597  :     tmp = Py_BuildValue("(NiiN)", filename_obj, LINENO(n), n->n_col_offset, loc);

  000e1	44 8b 4d 14	 mov	 r9d, DWORD PTR [rbp+20]
  000e5	44 8b 45 10	 mov	 r8d, DWORD PTR [rbp+16]
  000e9	48 8d 0d 00 00
	00 00		 lea	 rcx, OFFSET FLAT:??_C@_06EHNNKOPC@?$CINiiN?$CJ?$AA@
  000f0	48 8b d3	 mov	 rdx, rbx
  000f3	48 89 7c 24 20	 mov	 QWORD PTR [rsp+32], rdi
  000f8	e8 00 00 00 00	 call	 Py_BuildValue
  000fd	48 8b f8	 mov	 rdi, rax

; 598  :     if (!tmp)

  00100	48 85 c0	 test	 rax, rax

; 599  :         return 0;

  00103	74 4f		 je	 SHORT $LN1@ast_error

; 600  :     errstr = PyUnicode_FromString(errmsg);

  00105	49 8b cc	 mov	 rcx, r12
  00108	e8 00 00 00 00	 call	 PyUnicode_FromString
  0010d	48 8b f0	 mov	 rsi, rax

; 601  :     if (!errstr) {

  00110	48 85 c0	 test	 rax, rax

; 602  :         Py_DECREF(tmp);
; 603  :         return 0;

  00113	74 83		 je	 SHORT $LN19@ast_error

; 604  :     }
; 605  :     value = PyTuple_Pack(2, errstr, tmp);

  00115	4c 8b c7	 mov	 r8, rdi
  00118	48 8b d0	 mov	 rdx, rax
  0011b	b9 02 00 00 00	 mov	 ecx, 2
  00120	e8 00 00 00 00	 call	 PyTuple_Pack

; 606  :     Py_DECREF(errstr);

  00125	48 8b ce	 mov	 rcx, rsi
  00128	48 8b d8	 mov	 rbx, rax
  0012b	e8 00 00 00 00	 call	 _Py_DecRef

; 607  :     Py_DECREF(tmp);

  00130	48 8b cf	 mov	 rcx, rdi
  00133	e8 00 00 00 00	 call	 _Py_DecRef

; 608  :     if (value) {

  00138	48 85 db	 test	 rbx, rbx
  0013b	74 17		 je	 SHORT $LN1@ast_error

; 609  :         PyErr_SetObject(PyExc_SyntaxError, value);

  0013d	48 8b 0d 00 00
	00 00		 mov	 rcx, QWORD PTR PyExc_SyntaxError
  00144	48 8b d3	 mov	 rdx, rbx
  00147	e8 00 00 00 00	 call	 PyErr_SetObject

; 610  :         Py_DECREF(value);

  0014c	48 8b cb	 mov	 rcx, rbx
$LN18@ast_error:
  0014f	e8 00 00 00 00	 call	 _Py_DecRef
$LN1@ast_error:

; 611  :     }
; 612  :     return 0;
; 613  : }

  00154	48 8b 5c 24 40	 mov	 rbx, QWORD PTR [rsp+64]
  00159	48 8b 6c 24 48	 mov	 rbp, QWORD PTR [rsp+72]
  0015e	48 8b 74 24 50	 mov	 rsi, QWORD PTR [rsp+80]
  00163	48 8b 7c 24 58	 mov	 rdi, QWORD PTR [rsp+88]
  00168	33 c0		 xor	 eax, eax
  0016a	48 83 c4 30	 add	 rsp, 48			; 00000030H
  0016e	41 5c		 pop	 r12
  00170	c3		 ret	 0
ast_error ENDP
_TEXT	ENDS
PUBLIC	??_C@_0BL@JJDIMLMN@Non?9statement?5found?3?5?$CFd?5?$CFd?$AA@ ; `string'
EXTRN	Py_FatalError:PROC
EXTRN	__imp_sprintf:PROC
;	COMDAT pdata
pdata	SEGMENT
$pdata$num_stmts DD imagerel num_stmts
	DD	imagerel num_stmts+238
	DD	imagerel $unwind$num_stmts
pdata	ENDS
;	COMDAT pdata
pdata	SEGMENT
$pdata$0$num_stmts DD imagerel num_stmts+238
	DD	imagerel num_stmts+299
	DD	imagerel $chain$0$num_stmts
pdata	ENDS
;	COMDAT pdata
pdata	SEGMENT
$pdata$1$num_stmts DD imagerel num_stmts+299
	DD	imagerel num_stmts+406
	DD	imagerel $chain$1$num_stmts
pdata	ENDS
;	COMDAT xdata
xdata	SEGMENT
$chain$1$num_stmts DD 021H
	DD	imagerel num_stmts
	DD	imagerel num_stmts+238
	DD	imagerel $unwind$num_stmts
xdata	ENDS
;	COMDAT xdata
xdata	SEGMENT
$chain$0$num_stmts DD 020821H
	DD	0165408H
	DD	imagerel num_stmts
	DD	imagerel num_stmts+238
	DD	imagerel $unwind$num_stmts
xdata	ENDS
;	COMDAT xdata
xdata	SEGMENT
$unwind$num_stmts DD 071201H
	DD	0186412H
	DD	0173412H
	DD	0140112H
	DD	0700bH
xdata	ENDS
;	COMDAT ??_C@_0BL@JJDIMLMN@Non?9statement?5found?3?5?$CFd?5?$CFd?$AA@
CONST	SEGMENT
??_C@_0BL@JJDIMLMN@Non?9statement?5found?3?5?$CFd?5?$CFd?$AA@ DB 'Non-sta'
	DB	'tement found: %d %d', 00H			; `string'
; Function compile flags: /Ogtpy
CONST	ENDS
;	COMDAT num_stmts
_TEXT	SEGMENT
buf$22212 = 32
n$ = 176
num_stmts PROC						; COMDAT

; 631  : {

  00000	48 89 5c 24 10	 mov	 QWORD PTR [rsp+16], rbx
  00005	48 89 74 24 18	 mov	 QWORD PTR [rsp+24], rsi
  0000a	57		 push	 rdi
  0000b	48 81 ec a0 00
	00 00		 sub	 rsp, 160		; 000000a0H

; 632  :     int i, l;
; 633  :     node *ch;
; 634  : 
; 635  :     switch (TYPE(n)) {

  00012	0f bf 01	 movsx	 eax, WORD PTR [rcx]
  00015	48 8b d9	 mov	 rbx, rcx
  00018	2d 00 01 00 00	 sub	 eax, 256		; 00000100H
  0001d	83 f8 2d	 cmp	 eax, 45			; 0000002dH
  00020	77 47		 ja	 SHORT $LN5@num_stmts
  00022	48 8d 15 00 00
	00 00		 lea	 rdx, OFFSET FLAT:__ImageBase
  00029	0f 1f 80 00 00
	00 00		 npad	 7
$LL23@num_stmts:
  00030	48 98		 cdqe
  00032	0f b6 84 02 00
	00 00 00	 movzx	 eax, BYTE PTR $LN31@num_stmts[rdx+rax]
  0003a	8b 8c 82 00 00
	00 00		 mov	 ecx, DWORD PTR $LN32@num_stmts[rdx+rax*4]
  00041	48 03 ca	 add	 rcx, rdx
  00044	ff e1		 jmp	 rcx
$LN18@num_stmts:

; 636  :         case single_input:
; 637  :             if (TYPE(CHILD(n, 0)) == NEWLINE)

  00046	48 8b 5b 20	 mov	 rbx, QWORD PTR [rbx+32]
  0004a	66 83 3b 04	 cmp	 WORD PTR [rbx], 4
  0004e	74 3d		 je	 SHORT $LN27@num_stmts

; 638  :                 return 0;
; 639  :             else
; 640  :                 return num_stmts(CHILD(n, 0));

  00050	eb 0a		 jmp	 SHORT $LN28@num_stmts
$LN7@num_stmts:

; 655  :         case suite:
; 656  :             if (NCH(n) == 1)

  00052	83 7b 18 01	 cmp	 DWORD PTR [rbx+24], 1
  00056	75 4c		 jne	 SHORT $LN6@num_stmts
$LN10@num_stmts:

; 657  :                 return num_stmts(CHILD(n, 0));

  00058	48 8b 5b 20	 mov	 rbx, QWORD PTR [rbx+32]
$LN28@num_stmts:

; 632  :     int i, l;
; 633  :     node *ch;
; 634  : 
; 635  :     switch (TYPE(n)) {

  0005c	0f bf 03	 movsx	 eax, WORD PTR [rbx]
  0005f	2d 00 01 00 00	 sub	 eax, 256		; 00000100H
  00064	83 f8 2d	 cmp	 eax, 45			; 0000002dH
  00067	76 c7		 jbe	 SHORT $LL23@num_stmts
$LN5@num_stmts:

; 663  :             }
; 664  :         default: {
; 665  :             char buf[128];
; 666  : 
; 667  :             sprintf(buf, "Non-statement found: %d %d",
; 668  :                     TYPE(n), NCH(n));

  00069	44 0f bf 03	 movsx	 r8d, WORD PTR [rbx]
  0006d	44 8b 4b 18	 mov	 r9d, DWORD PTR [rbx+24]
  00071	48 8d 15 00 00
	00 00		 lea	 rdx, OFFSET FLAT:??_C@_0BL@JJDIMLMN@Non?9statement?5found?3?5?$CFd?5?$CFd?$AA@
  00078	48 8d 4c 24 20	 lea	 rcx, QWORD PTR buf$22212[rsp]
  0007d	ff 15 00 00 00
	00		 call	 QWORD PTR __imp_sprintf

; 669  :             Py_FatalError(buf);

  00083	48 8d 4c 24 20	 lea	 rcx, QWORD PTR buf$22212[rsp]
  00088	e8 00 00 00 00	 call	 Py_FatalError
$LN27@num_stmts:

; 670  :         }
; 671  :     }
; 672  :     assert(0);
; 673  :     return 0;

  0008d	33 c0		 xor	 eax, eax
$LN21@num_stmts:

; 674  : }

  0008f	4c 8d 9c 24 a0
	00 00 00	 lea	 r11, QWORD PTR [rsp+160]
  00097	49 8b 5b 18	 mov	 rbx, QWORD PTR [r11+24]
  0009b	49 8b 73 20	 mov	 rsi, QWORD PTR [r11+32]
  0009f	49 8b e3	 mov	 rsp, r11
  000a2	5f		 pop	 rdi
  000a3	c3		 ret	 0
$LN6@num_stmts:

; 658  :             else {
; 659  :                 l = 0;
; 660  :                 for (i = 2; i < (NCH(n) - 1); i++)

  000a4	8b 43 18	 mov	 eax, DWORD PTR [rbx+24]
  000a7	bf 02 00 00 00	 mov	 edi, 2
  000ac	33 f6		 xor	 esi, esi
  000ae	ff c8		 dec	 eax
  000b0	3b c7		 cmp	 eax, edi
  000b2	7e 2d		 jle	 SHORT $LN2@num_stmts
  000b4	66 66 66 66 0f
	1f 84 00 00 00
	00 00		 npad	 12
$LL4@num_stmts:

; 661  :                     l += num_stmts(CHILD(n, i));

  000c0	48 63 cf	 movsxd	 rcx, edi
  000c3	48 8d 14 89	 lea	 rdx, QWORD PTR [rcx+rcx*4]
  000c7	48 8b 4b 20	 mov	 rcx, QWORD PTR [rbx+32]
  000cb	48 8d 0c d1	 lea	 rcx, QWORD PTR [rcx+rdx*8]
  000cf	e8 00 00 00 00	 call	 num_stmts
  000d4	8b 4b 18	 mov	 ecx, DWORD PTR [rbx+24]
  000d7	ff c7		 inc	 edi
  000d9	ff c9		 dec	 ecx
  000db	03 f0		 add	 esi, eax
  000dd	3b f9		 cmp	 edi, ecx
  000df	7c df		 jl	 SHORT $LL4@num_stmts
$LN2@num_stmts:

; 662  :                 return l;

  000e1	8b c6		 mov	 eax, esi
  000e3	eb aa		 jmp	 SHORT $LN21@num_stmts
$LN16@num_stmts:

; 641  :         case file_input:
; 642  :             l = 0;

  000e5	33 f6		 xor	 esi, esi

; 643  :             for (i = 0; i < NCH(n); i++) {

  000e7	8b fe		 mov	 edi, esi
  000e9	39 73 18	 cmp	 DWORD PTR [rbx+24], esi
  000ec	7e 3d		 jle	 SHORT $LN12@num_stmts

; 641  :         case file_input:
; 642  :             l = 0;

  000ee	48 89 ac 24 b0
	00 00 00	 mov	 QWORD PTR [rsp+176], rbp
  000f6	ba 0c 01 00 00	 mov	 edx, 268		; 0000010cH
  000fb	8b ee		 mov	 ebp, esi
  000fd	0f 1f 00	 npad	 3
$LL14@num_stmts:

; 644  :                 ch = CHILD(n, i);

  00100	48 8b 4b 20	 mov	 rcx, QWORD PTR [rbx+32]
  00104	48 03 cd	 add	 rcx, rbp

; 645  :                 if (TYPE(ch) == stmt)

  00107	66 39 11	 cmp	 WORD PTR [rcx], dx
  0010a	75 0c		 jne	 SHORT $LN13@num_stmts

; 646  :                     l += num_stmts(ch);

  0010c	e8 00 00 00 00	 call	 num_stmts
  00111	ba 0c 01 00 00	 mov	 edx, 268		; 0000010cH
  00116	03 f0		 add	 esi, eax
$LN13@num_stmts:

; 643  :             for (i = 0; i < NCH(n); i++) {

  00118	ff c7		 inc	 edi
  0011a	48 83 c5 28	 add	 rbp, 40			; 00000028H
  0011e	3b 7b 18	 cmp	 edi, DWORD PTR [rbx+24]
  00121	7c dd		 jl	 SHORT $LL14@num_stmts
  00123	48 8b ac 24 b0
	00 00 00	 mov	 rbp, QWORD PTR [rsp+176]
$LN12@num_stmts:

; 647  :             }
; 648  :             return l;

  0012b	8b c6		 mov	 eax, esi
  0012d	e9 5d ff ff ff	 jmp	 $LN21@num_stmts
$LN9@num_stmts:

; 649  :         case stmt:
; 650  :             return num_stmts(CHILD(n, 0));
; 651  :         case compound_stmt:
; 652  :             return 1;

  00132	b8 01 00 00 00	 mov	 eax, 1
  00137	e9 53 ff ff ff	 jmp	 $LN21@num_stmts
$LN8@num_stmts:

; 653  :         case simple_stmt:
; 654  :             return NCH(n) / 2; /* Divide by 2 to remove count of semi-colons */

  0013c	8b 43 18	 mov	 eax, DWORD PTR [rbx+24]
  0013f	99		 cdq
  00140	2b c2		 sub	 eax, edx
  00142	d1 f8		 sar	 eax, 1
  00144	e9 46 ff ff ff	 jmp	 $LN21@num_stmts
  00149	0f 1f 00	 npad	 3
$LN32@num_stmts:

; 674  : }

  0014c	00 00 00 00	 DD	 $LN18@num_stmts
  00150	00 00 00 00	 DD	 $LN16@num_stmts
  00154	00 00 00 00	 DD	 $LN10@num_stmts
  00158	00 00 00 00	 DD	 $LN8@num_stmts
  0015c	00 00 00 00	 DD	 $LN9@num_stmts
  00160	00 00 00 00	 DD	 $LN7@num_stmts
  00164	00 00 00 00	 DD	 $LN5@num_stmts
$LN31@num_stmts:
  00168	00		 DB	 0
  00169	01		 DB	 1
  0016a	06		 DB	 6
  0016b	06		 DB	 6
  0016c	06		 DB	 6
  0016d	06		 DB	 6
  0016e	06		 DB	 6
  0016f	06		 DB	 6
  00170	06		 DB	 6
  00171	06		 DB	 6
  00172	06		 DB	 6
  00173	06		 DB	 6
  00174	02		 DB	 2
  00175	03		 DB	 3
  00176	06		 DB	 6
  00177	06		 DB	 6
  00178	06		 DB	 6
  00179	06		 DB	 6
  0017a	06		 DB	 6
  0017b	06		 DB	 6
  0017c	06		 DB	 6
  0017d	06		 DB	 6
  0017e	06		 DB	 6
  0017f	06		 DB	 6
  00180	06		 DB	 6
  00181	06		 DB	 6
  00182	06		 DB	 6
  00183	06		 DB	 6
  00184	06		 DB	 6
  00185	06		 DB	 6
  00186	06		 DB	 6
  00187	06		 DB	 6
  00188	06		 DB	 6
  00189	06		 DB	 6
  0018a	06		 DB	 6
  0018b	06		 DB	 6
  0018c	06		 DB	 6
  0018d	04		 DB	 4
  0018e	06		 DB	 6
  0018f	06		 DB	 6
  00190	06		 DB	 6
  00191	06		 DB	 6
  00192	06		 DB	 6
  00193	06		 DB	 6
  00194	06		 DB	 6
  00195	05		 DB	 5
num_stmts ENDP
; Function compile flags: /Ogtpy
_TEXT	ENDS
;	COMDAT get_operator
_TEXT	SEGMENT
n$ = 8
get_operator PROC					; COMDAT

; 810  :     switch (TYPE(n)) {

  00000	0f bf 01	 movsx	 eax, WORD PTR [rcx]
  00003	83 c0 f2	 add	 eax, -14
  00006	83 f8 21	 cmp	 eax, 33			; 00000021H
  00009	77 5f		 ja	 SHORT $LN1@get_operat
  0000b	48 8d 15 00 00
	00 00		 lea	 rdx, OFFSET FLAT:__ImageBase
  00012	48 98		 cdqe
  00014	0f b6 84 02 00
	00 00 00	 movzx	 eax, BYTE PTR $LN17@get_operat[rdx+rax]
  0001c	8b 8c 82 00 00
	00 00		 mov	 ecx, DWORD PTR $LN18@get_operat[rdx+rax*4]
  00023	48 03 ca	 add	 rcx, rdx
  00026	ff e1		 jmp	 rcx
$LN12@get_operat:

; 811  :         case VBAR:
; 812  :             return BitOr;

  00028	b8 09 00 00 00	 mov	 eax, 9

; 835  :     }
; 836  : }

  0002d	c3		 ret	 0
$LN11@get_operat:

; 813  :         case CIRCUMFLEX:
; 814  :             return BitXor;

  0002e	b8 0a 00 00 00	 mov	 eax, 10

; 835  :     }
; 836  : }

  00033	c3		 ret	 0
$LN10@get_operat:

; 815  :         case AMPER:
; 816  :             return BitAnd;

  00034	b8 0b 00 00 00	 mov	 eax, 11

; 835  :     }
; 836  : }

  00039	c3		 ret	 0
$LN9@get_operat:

; 817  :         case LEFTSHIFT:
; 818  :             return LShift;

  0003a	b8 07 00 00 00	 mov	 eax, 7

; 835  :     }
; 836  : }

  0003f	c3		 ret	 0
$LN8@get_operat:

; 819  :         case RIGHTSHIFT:
; 820  :             return RShift;

  00040	b8 08 00 00 00	 mov	 eax, 8

; 835  :     }
; 836  : }

  00045	c3		 ret	 0
$LN7@get_operat:

; 821  :         case PLUS:
; 822  :             return Add;

  00046	b8 01 00 00 00	 mov	 eax, 1

; 835  :     }
; 836  : }

  0004b	c3		 ret	 0
$LN6@get_operat:

; 823  :         case MINUS:
; 824  :             return Sub;

  0004c	b8 02 00 00 00	 mov	 eax, 2

; 835  :     }
; 836  : }

  00051	c3		 ret	 0
$LN5@get_operat:

; 825  :         case STAR:
; 826  :             return Mult;

  00052	b8 03 00 00 00	 mov	 eax, 3

; 835  :     }
; 836  : }

  00057	c3		 ret	 0
$LN4@get_operat:

; 827  :         case SLASH:
; 828  :             return Div;

  00058	b8 04 00 00 00	 mov	 eax, 4

; 835  :     }
; 836  : }

  0005d	c3		 ret	 0
$LN3@get_operat:

; 829  :         case DOUBLESLASH:
; 830  :             return FloorDiv;

  0005e	b8 0c 00 00 00	 mov	 eax, 12

; 835  :     }
; 836  : }

  00063	c3		 ret	 0
$LN2@get_operat:

; 831  :         case PERCENT:
; 832  :             return Mod;

  00064	b8 05 00 00 00	 mov	 eax, 5

; 835  :     }
; 836  : }

  00069	c3		 ret	 0
$LN1@get_operat:

; 833  :         default:
; 834  :             return (operator_ty)0;

  0006a	33 c0		 xor	 eax, eax

; 835  :     }
; 836  : }

  0006c	c3		 ret	 0
  0006d	0f 1f 00	 npad	 3
$LN18@get_operat:
  00070	00 00 00 00	 DD	 $LN7@get_operat
  00074	00 00 00 00	 DD	 $LN6@get_operat
  00078	00 00 00 00	 DD	 $LN5@get_operat
  0007c	00 00 00 00	 DD	 $LN4@get_operat
  00080	00 00 00 00	 DD	 $LN12@get_operat
  00084	00 00 00 00	 DD	 $LN10@get_operat
  00088	00 00 00 00	 DD	 $LN2@get_operat
  0008c	00 00 00 00	 DD	 $LN11@get_operat
  00090	00 00 00 00	 DD	 $LN9@get_operat
  00094	00 00 00 00	 DD	 $LN8@get_operat
  00098	00 00 00 00	 DD	 $LN3@get_operat
  0009c	00 00 00 00	 DD	 $LN1@get_operat
$LN17@get_operat:
  000a0	00		 DB	 0
  000a1	01		 DB	 1
  000a2	02		 DB	 2
  000a3	03		 DB	 3
  000a4	04		 DB	 4
  000a5	05		 DB	 5
  000a6	0b		 DB	 11
  000a7	0b		 DB	 11
  000a8	0b		 DB	 11
  000a9	0b		 DB	 11
  000aa	06		 DB	 6
  000ab	0b		 DB	 11
  000ac	0b		 DB	 11
  000ad	0b		 DB	 11
  000ae	0b		 DB	 11
  000af	0b		 DB	 11
  000b0	0b		 DB	 11
  000b1	0b		 DB	 11
  000b2	07		 DB	 7
  000b3	08		 DB	 8
  000b4	09		 DB	 9
  000b5	0b		 DB	 11
  000b6	0b		 DB	 11
  000b7	0b		 DB	 11
  000b8	0b		 DB	 11
  000b9	0b		 DB	 11
  000ba	0b		 DB	 11
  000bb	0b		 DB	 11
  000bc	0b		 DB	 11
  000bd	0b		 DB	 11
  000be	0b		 DB	 11
  000bf	0b		 DB	 11
  000c0	0b		 DB	 11
  000c1	0a		 DB	 10
get_operator ENDP
_TEXT	ENDS
PUBLIC	??_C@_0BG@DOGDIKCJ@assignment?5to?5keyword?$AA@	; `string'
PUBLIC	??_C@_09PMJCCPKK@__debug__?$AA@			; `string'
EXTRN	PyUnicode_CompareWithASCIIString:PROC
;	COMDAT pdata
pdata	SEGMENT
$pdata$forbidden_name DD imagerel forbidden_name
	DD	imagerel forbidden_name+145
	DD	imagerel $unwind$forbidden_name
pdata	ENDS
;	COMDAT xdata
xdata	SEGMENT
$unwind$forbidden_name DD 081401H
	DD	086414H
	DD	075414H
	DD	063414H
	DD	070103214H
xdata	ENDS
;	COMDAT ??_C@_0BG@DOGDIKCJ@assignment?5to?5keyword?$AA@
CONST	SEGMENT
??_C@_0BG@DOGDIKCJ@assignment?5to?5keyword?$AA@ DB 'assignment to keyword'
	DB	00H						; `string'
CONST	ENDS
;	COMDAT ??_C@_09PMJCCPKK@__debug__?$AA@
CONST	SEGMENT
??_C@_09PMJCCPKK@__debug__?$AA@ DB '__debug__', 00H	; `string'
; Function compile flags: /Ogtpy
CONST	ENDS
;	COMDAT forbidden_name
_TEXT	SEGMENT
c$ = 48
name$ = 56
n$ = 64
full_checks$ = 72
forbidden_name PROC					; COMDAT

; 847  : {

  00000	48 89 5c 24 08	 mov	 QWORD PTR [rsp+8], rbx
  00005	48 89 6c 24 10	 mov	 QWORD PTR [rsp+16], rbp
  0000a	48 89 74 24 18	 mov	 QWORD PTR [rsp+24], rsi
  0000f	57		 push	 rdi
  00010	48 83 ec 20	 sub	 rsp, 32			; 00000020H
  00014	48 8b fa	 mov	 rdi, rdx
  00017	48 8b e9	 mov	 rbp, rcx

; 848  :     assert(PyUnicode_Check(name));
; 849  :     if (PyUnicode_CompareWithASCIIString(name, "__debug__") == 0) {

  0001a	48 8d 15 00 00
	00 00		 lea	 rdx, OFFSET FLAT:??_C@_09PMJCCPKK@__debug__?$AA@
  00021	48 8b cf	 mov	 rcx, rdi
  00024	41 8b d9	 mov	 ebx, r9d
  00027	49 8b f0	 mov	 rsi, r8
  0002a	e8 00 00 00 00	 call	 PyUnicode_CompareWithASCIIString
  0002f	85 c0		 test	 eax, eax
  00031	75 19		 jne	 SHORT $LN6@forbidden_
$LN10@forbidden_:

; 850  :         ast_error(c, n, "assignment to keyword");

  00033	4c 8d 05 00 00
	00 00		 lea	 r8, OFFSET FLAT:??_C@_0BG@DOGDIKCJ@assignment?5to?5keyword?$AA@
  0003a	48 8b d6	 mov	 rdx, rsi
  0003d	48 8b cd	 mov	 rcx, rbp
  00040	e8 00 00 00 00	 call	 ast_error

; 851  :         return 1;

  00045	b8 01 00 00 00	 mov	 eax, 1
  0004a	eb 30		 jmp	 SHORT $LN7@forbidden_
$LN6@forbidden_:

; 852  :     }
; 853  :     if (full_checks) {

  0004c	85 db		 test	 ebx, ebx
  0004e	74 2a		 je	 SHORT $LN2@forbidden_

; 854  :         const char **p;
; 855  :         for (p = FORBIDDEN; *p; p++) {

  00050	48 83 3d 00 00
	00 00 00	 cmp	 QWORD PTR FORBIDDEN, 0
  00058	48 8d 1d 00 00
	00 00		 lea	 rbx, OFFSET FLAT:FORBIDDEN
  0005f	74 19		 je	 SHORT $LN2@forbidden_
$LL4@forbidden_:

; 856  :             if (PyUnicode_CompareWithASCIIString(name, *p) == 0) {

  00061	48 8b 13	 mov	 rdx, QWORD PTR [rbx]
  00064	48 8b cf	 mov	 rcx, rdi
  00067	e8 00 00 00 00	 call	 PyUnicode_CompareWithASCIIString
  0006c	85 c0		 test	 eax, eax
  0006e	74 c3		 je	 SHORT $LN10@forbidden_

; 854  :         const char **p;
; 855  :         for (p = FORBIDDEN; *p; p++) {

  00070	48 83 c3 08	 add	 rbx, 8
  00074	48 83 3b 00	 cmp	 QWORD PTR [rbx], 0
  00078	75 e7		 jne	 SHORT $LL4@forbidden_
$LN2@forbidden_:

; 857  :                 ast_error(c, n, "assignment to keyword");
; 858  :                 return 1;
; 859  :             }
; 860  :         }
; 861  :     }
; 862  :     return 0;

  0007a	33 c0		 xor	 eax, eax
$LN7@forbidden_:

; 863  : }

  0007c	48 8b 5c 24 30	 mov	 rbx, QWORD PTR [rsp+48]
  00081	48 8b 6c 24 38	 mov	 rbp, QWORD PTR [rsp+56]
  00086	48 8b 74 24 40	 mov	 rsi, QWORD PTR [rsp+64]
  0008b	48 83 c4 20	 add	 rsp, 32			; 00000020H
  0008f	5f		 pop	 rdi
  00090	c3		 ret	 0
forbidden_name ENDP
_TEXT	ENDS
PUBLIC	??_C@_0DB@BFFKDNIK@unexpected?5expression?5in?5assignm@ ; `string'
PUBLIC	??_C@_0M@PHBALMFF@can?8t?5?$CFs?5?$CFs?$AA@	; `string'
PUBLIC	??_C@_06FOBLBEIN@delete?$AA@			; `string'
PUBLIC	??_C@_09PFNDHGIG@assign?5to?$AA@		; `string'
PUBLIC	??_C@_0BH@JNJLIJED@conditional?5expression?$AA@	; `string'
PUBLIC	??_C@_0L@ECKICNFF@comparison?$AA@		; `string'
PUBLIC	??_C@_08KKBGFFMJ@Ellipsis?$AA@			; `string'
PUBLIC	??_C@_07IDLNMGBF@literal?$AA@			; `string'
PUBLIC	??_C@_0BD@MGEJOJHP@dict?5comprehension?$AA@	; `string'
PUBLIC	??_C@_0BC@GCKMFGBM@set?5comprehension?$AA@	; `string'
PUBLIC	??_C@_0BD@NILJGNIH@list?5comprehension?$AA@	; `string'
PUBLIC	??_C@_0BB@BIJIBHEI@yield?5expression?$AA@	; `string'
PUBLIC	??_C@_0BF@DBHAFLDO@generator?5expression?$AA@	; `string'
PUBLIC	??_C@_08LHJFAFGD@operator?$AA@			; `string'
PUBLIC	??_C@_0O@PKNENLIP@function?5call?$AA@		; `string'
PUBLIC	??_C@_06COJIGPIB@lambda?$AA@			; `string'
PUBLIC	??_C@_02HCKGKOFO@?$CI?$CJ?$AA@			; `string'
EXTRN	PyExc_SystemError:QWORD
EXTRN	PyOS_snprintf:PROC
;	COMDAT pdata
pdata	SEGMENT
$pdata$set_context DD imagerel set_context
	DD	imagerel set_context+636
	DD	imagerel $unwind$set_context
pdata	ENDS
;	COMDAT xdata
xdata	SEGMENT
$unwind$set_context DD 071901H
	DD	0313419H
	DD	02c0119H
	DD	060117012H
	DD	05010H
xdata	ENDS
;	COMDAT ??_C@_0DB@BFFKDNIK@unexpected?5expression?5in?5assignm@
CONST	SEGMENT
??_C@_0DB@BFFKDNIK@unexpected?5expression?5in?5assignm@ DB 'unexpected ex'
	DB	'pression in assignment %d (line %d)', 00H	; `string'
CONST	ENDS
;	COMDAT ??_C@_0M@PHBALMFF@can?8t?5?$CFs?5?$CFs?$AA@
CONST	SEGMENT
??_C@_0M@PHBALMFF@can?8t?5?$CFs?5?$CFs?$AA@ DB 'can''t %s %s', 00H ; `string'
CONST	ENDS
;	COMDAT ??_C@_06FOBLBEIN@delete?$AA@
CONST	SEGMENT
??_C@_06FOBLBEIN@delete?$AA@ DB 'delete', 00H		; `string'
CONST	ENDS
;	COMDAT ??_C@_09PFNDHGIG@assign?5to?$AA@
CONST	SEGMENT
??_C@_09PFNDHGIG@assign?5to?$AA@ DB 'assign to', 00H	; `string'
CONST	ENDS
;	COMDAT ??_C@_0BH@JNJLIJED@conditional?5expression?$AA@
CONST	SEGMENT
??_C@_0BH@JNJLIJED@conditional?5expression?$AA@ DB 'conditional expressio'
	DB	'n', 00H					; `string'
CONST	ENDS
;	COMDAT ??_C@_0L@ECKICNFF@comparison?$AA@
CONST	SEGMENT
??_C@_0L@ECKICNFF@comparison?$AA@ DB 'comparison', 00H	; `string'
CONST	ENDS
;	COMDAT ??_C@_08KKBGFFMJ@Ellipsis?$AA@
CONST	SEGMENT
??_C@_08KKBGFFMJ@Ellipsis?$AA@ DB 'Ellipsis', 00H	; `string'
CONST	ENDS
;	COMDAT ??_C@_07IDLNMGBF@literal?$AA@
CONST	SEGMENT
??_C@_07IDLNMGBF@literal?$AA@ DB 'literal', 00H		; `string'
CONST	ENDS
;	COMDAT ??_C@_0BD@MGEJOJHP@dict?5comprehension?$AA@
CONST	SEGMENT
??_C@_0BD@MGEJOJHP@dict?5comprehension?$AA@ DB 'dict comprehension', 00H ; `string'
CONST	ENDS
;	COMDAT ??_C@_0BC@GCKMFGBM@set?5comprehension?$AA@
CONST	SEGMENT
??_C@_0BC@GCKMFGBM@set?5comprehension?$AA@ DB 'set comprehension', 00H ; `string'
CONST	ENDS
;	COMDAT ??_C@_0BD@NILJGNIH@list?5comprehension?$AA@
CONST	SEGMENT
??_C@_0BD@NILJGNIH@list?5comprehension?$AA@ DB 'list comprehension', 00H ; `string'
CONST	ENDS
;	COMDAT ??_C@_0BB@BIJIBHEI@yield?5expression?$AA@
CONST	SEGMENT
??_C@_0BB@BIJIBHEI@yield?5expression?$AA@ DB 'yield expression', 00H ; `string'
CONST	ENDS
;	COMDAT ??_C@_0BF@DBHAFLDO@generator?5expression?$AA@
CONST	SEGMENT
??_C@_0BF@DBHAFLDO@generator?5expression?$AA@ DB 'generator expression', 00H ; `string'
CONST	ENDS
;	COMDAT ??_C@_08LHJFAFGD@operator?$AA@
CONST	SEGMENT
??_C@_08LHJFAFGD@operator?$AA@ DB 'operator', 00H	; `string'
CONST	ENDS
;	COMDAT ??_C@_0O@PKNENLIP@function?5call?$AA@
CONST	SEGMENT
??_C@_0O@PKNENLIP@function?5call?$AA@ DB 'function call', 00H ; `string'
CONST	ENDS
;	COMDAT ??_C@_06COJIGPIB@lambda?$AA@
CONST	SEGMENT
??_C@_06COJIGPIB@lambda?$AA@ DB 'lambda', 00H		; `string'
CONST	ENDS
;	COMDAT ??_C@_02HCKGKOFO@?$CI?$CJ?$AA@
CONST	SEGMENT
??_C@_02HCKGKOFO@?$CI?$CJ?$AA@ DB '()', 00H		; `string'
; Function compile flags: /Ogtpy
CONST	ENDS
;	COMDAT set_context
_TEXT	SEGMENT
buf$22393 = 48
c$ = 384
e$ = 392
ctx$ = 400
n$ = 408
set_context PROC					; COMDAT

; 874  : {

  00000	48 89 5c 24 10	 mov	 QWORD PTR [rsp+16], rbx
  00005	4c 89 4c 24 20	 mov	 QWORD PTR [rsp+32], r9
  0000a	48 89 4c 24 08	 mov	 QWORD PTR [rsp+8], rcx
  0000f	55		 push	 rbp
  00010	56		 push	 rsi
  00011	57		 push	 rdi
  00012	48 81 ec 60 01
	00 00		 sub	 rsp, 352		; 00000160H
  00019	41 8b f0	 mov	 esi, r8d

; 875  :     asdl_seq *s = NULL;
; 876  :     /* If a particular expression type can't be used for assign / delete,
; 877  :        set expr_name to its name and an error message will be generated.
; 878  :     */
; 879  :     const char* expr_name = NULL;
; 880  : 
; 881  :     /* The ast defines augmented store and load contexts, but the
; 882  :        implementation here doesn't actually use them.  The code may be
; 883  :        a little more complex than necessary as a result.  It also means
; 884  :        that expressions in an augmented assignment have a Store context.
; 885  :        Consider restructuring so that augmented assignment uses
; 886  :        set_context(), too.
; 887  :     */
; 888  :     assert(ctx != AugStore && ctx != AugLoad);
; 889  : 
; 890  :     switch (e->kind) {

  0001c	44 8b 02	 mov	 r8d, DWORD PTR [rdx]
  0001f	4d 8b d9	 mov	 r11, r9
  00022	41 8d 40 ff	 lea	 eax, DWORD PTR [r8-1]
  00026	48 8b da	 mov	 rbx, rdx
  00029	83 f8 18	 cmp	 eax, 24
  0002c	0f 87 b8 01 00
	00		 ja	 $LN7@set_contex
  00032	48 8d 15 00 00
	00 00		 lea	 rdx, OFFSET FLAT:__ImageBase
  00039	48 98		 cdqe
  0003b	44 8b 94 82 00
	00 00 00	 mov	 r10d, DWORD PTR $LN43@set_contex[rdx+rax*4]
  00043	4c 03 d2	 add	 r10, rdx
  00046	41 ff e2	 jmp	 r10
$LN31@set_contex:

; 891  :         case Attribute_kind:
; 892  :             e->v.Attribute.ctx = ctx;

  00049	89 73 18	 mov	 DWORD PTR [rbx+24], esi

; 893  :             if (ctx == Store && forbidden_name(c, e->v.Attribute.attr, n, 1))

  0004c	83 fe 02	 cmp	 esi, 2
  0004f	75 18		 jne	 SHORT $LN2@set_contex
  00051	48 8b 53 10	 mov	 rdx, QWORD PTR [rbx+16]
  00055	44 8d 4e ff	 lea	 r9d, QWORD PTR [rsi-1]
  00059	4d 8b c3	 mov	 r8, r11
  0005c	e8 00 00 00 00	 call	 forbidden_name
  00061	85 c0		 test	 eax, eax
  00063	0f 85 98 01 00
	00		 jne	 $LN44@set_contex
$LN2@set_contex:

; 991  :                 return 0;
; 992  :         }
; 993  :     }
; 994  :     return 1;

  00069	b8 01 00 00 00	 mov	 eax, 1
  0006e	e9 90 01 00 00	 jmp	 $LN34@set_contex
$LN29@set_contex:

; 894  :                 return 0;
; 895  :             break;
; 896  :         case Subscript_kind:
; 897  :             e->v.Subscript.ctx = ctx;

  00073	89 73 18	 mov	 DWORD PTR [rbx+24], esi

; 991  :                 return 0;
; 992  :         }
; 993  :     }
; 994  :     return 1;

  00076	b8 01 00 00 00	 mov	 eax, 1
  0007b	e9 83 01 00 00	 jmp	 $LN34@set_contex
$LN28@set_contex:

; 898  :             break;
; 899  :         case Starred_kind:
; 900  :             e->v.Starred.ctx = ctx;
; 901  :             if (!set_context(c, e->v.Starred.value, ctx, n))

  00080	48 8b 53 08	 mov	 rdx, QWORD PTR [rbx+8]
  00084	44 8b c6	 mov	 r8d, esi
  00087	89 73 10	 mov	 DWORD PTR [rbx+16], esi
  0008a	e8 00 00 00 00	 call	 set_context
  0008f	85 c0		 test	 eax, eax
  00091	75 d6		 jne	 SHORT $LN2@set_contex

; 902  :                 return 0;

  00093	e9 69 01 00 00	 jmp	 $LN44@set_contex
$LN26@set_contex:

; 903  :             break;
; 904  :         case Name_kind:
; 905  :             if (ctx == Store) {

  00098	83 fe 02	 cmp	 esi, 2
  0009b	75 18		 jne	 SHORT $LN24@set_contex

; 906  :                 if (forbidden_name(c, e->v.Name.id, n, 1))

  0009d	48 8b 53 08	 mov	 rdx, QWORD PTR [rbx+8]
  000a1	44 8d 4e ff	 lea	 r9d, QWORD PTR [rsi-1]
  000a5	4d 8b c3	 mov	 r8, r11
  000a8	e8 00 00 00 00	 call	 forbidden_name
  000ad	85 c0		 test	 eax, eax

; 907  :                     return 0; /* forbidden_name() calls ast_error() */

  000af	0f 85 4c 01 00
	00		 jne	 $LN44@set_contex
$LN24@set_contex:

; 908  :             }
; 909  :             e->v.Name.ctx = ctx;

  000b5	89 73 10	 mov	 DWORD PTR [rbx+16], esi

; 991  :                 return 0;
; 992  :         }
; 993  :     }
; 994  :     return 1;

  000b8	b8 01 00 00 00	 mov	 eax, 1
  000bd	e9 41 01 00 00	 jmp	 $LN34@set_contex
$LN23@set_contex:

; 910  :             break;
; 911  :         case List_kind:
; 912  :             e->v.List.ctx = ctx;
; 913  :             s = e->v.List.elts;

  000c2	48 8b 6b 08	 mov	 rbp, QWORD PTR [rbx+8]

; 914  :             break;

  000c6	eb 10		 jmp	 SHORT $LN45@set_contex
$LN22@set_contex:

; 915  :         case Tuple_kind:
; 916  :             if (asdl_seq_LEN(e->v.Tuple.elts))  {

  000c8	48 8b 6b 08	 mov	 rbp, QWORD PTR [rbx+8]
  000cc	48 85 ed	 test	 rbp, rbp
  000cf	74 5a		 je	 SHORT $LN21@set_contex
  000d1	48 83 7d 00 00	 cmp	 QWORD PTR [rbp], 0
  000d6	74 53		 je	 SHORT $LN21@set_contex
$LN45@set_contex:

; 917  :                 e->v.Tuple.ctx = ctx;

  000d8	89 73 10	 mov	 DWORD PTR [rbx+16], esi

; 981  :     }
; 982  : 
; 983  :     /* If the LHS is a list or tuple, we need to set the assignment
; 984  :        context for all the contained elements.
; 985  :     */
; 986  :     if (s) {

  000db	48 85 ed	 test	 rbp, rbp
  000de	74 89		 je	 SHORT $LN2@set_contex

; 987  :         int i;
; 988  : 
; 989  :         for (i = 0; i < asdl_seq_LEN(s); i++) {

  000e0	33 db		 xor	 ebx, ebx
  000e2	48 8d 7d 08	 lea	 rdi, QWORD PTR [rbp+8]
  000e6	66 66 0f 1f 84
	00 00 00 00 00	 npad	 10
$LL4@set_contex:
  000f0	48 63 c3	 movsxd	 rax, ebx
  000f3	48 3b 45 00	 cmp	 rax, QWORD PTR [rbp]
  000f7	0f 8d 6c ff ff
	ff		 jge	 $LN2@set_contex

; 990  :             if (!set_context(c, (expr_ty)asdl_seq_GET(s, i), ctx, n))

  000fd	48 8b 17	 mov	 rdx, QWORD PTR [rdi]
  00100	4d 8b cb	 mov	 r9, r11
  00103	44 8b c6	 mov	 r8d, esi
  00106	e8 00 00 00 00	 call	 set_context
  0010b	85 c0		 test	 eax, eax
  0010d	0f 84 ee 00 00
	00		 je	 $LN44@set_contex

; 987  :         int i;
; 988  : 
; 989  :         for (i = 0; i < asdl_seq_LEN(s); i++) {

  00113	4c 8b 9c 24 98
	01 00 00	 mov	 r11, QWORD PTR n$[rsp]
  0011b	48 8b 8c 24 80
	01 00 00	 mov	 rcx, QWORD PTR c$[rsp]
  00123	ff c3		 inc	 ebx
  00125	48 83 c7 08	 add	 rdi, 8
  00129	eb c5		 jmp	 SHORT $LL4@set_contex
$LN21@set_contex:

; 918  :                 s = e->v.Tuple.elts;
; 919  :             }
; 920  :             else {
; 921  :                 expr_name = "()";

  0012b	48 8d 05 00 00
	00 00		 lea	 rax, OFFSET FLAT:??_C@_02HCKGKOFO@?$CI?$CJ?$AA@

; 922  :             }
; 923  :             break;

  00132	eb 6a		 jmp	 SHORT $LN42@set_contex
$LN19@set_contex:

; 924  :         case Lambda_kind:
; 925  :             expr_name = "lambda";

  00134	48 8d 05 00 00
	00 00		 lea	 rax, OFFSET FLAT:??_C@_06COJIGPIB@lambda?$AA@

; 926  :             break;

  0013b	eb 61		 jmp	 SHORT $LN42@set_contex
$LN18@set_contex:

; 927  :         case Call_kind:
; 928  :             expr_name = "function call";

  0013d	48 8d 05 00 00
	00 00		 lea	 rax, OFFSET FLAT:??_C@_0O@PKNENLIP@function?5call?$AA@

; 929  :             break;

  00144	eb 58		 jmp	 SHORT $LN42@set_contex
$LN17@set_contex:

; 930  :         case BoolOp_kind:
; 931  :         case BinOp_kind:
; 932  :         case UnaryOp_kind:
; 933  :             expr_name = "operator";

  00146	48 8d 05 00 00
	00 00		 lea	 rax, OFFSET FLAT:??_C@_08LHJFAFGD@operator?$AA@

; 934  :             break;

  0014d	eb 4f		 jmp	 SHORT $LN42@set_contex
$LN16@set_contex:

; 935  :         case GeneratorExp_kind:
; 936  :             expr_name = "generator expression";

  0014f	48 8d 05 00 00
	00 00		 lea	 rax, OFFSET FLAT:??_C@_0BF@DBHAFLDO@generator?5expression?$AA@

; 937  :             break;

  00156	eb 46		 jmp	 SHORT $LN42@set_contex
$LN15@set_contex:

; 938  :         case Yield_kind:
; 939  :         case YieldFrom_kind:
; 940  :             expr_name = "yield expression";

  00158	48 8d 05 00 00
	00 00		 lea	 rax, OFFSET FLAT:??_C@_0BB@BIJIBHEI@yield?5expression?$AA@

; 941  :             break;

  0015f	eb 3d		 jmp	 SHORT $LN42@set_contex
$LN14@set_contex:

; 942  :         case ListComp_kind:
; 943  :             expr_name = "list comprehension";

  00161	48 8d 05 00 00
	00 00		 lea	 rax, OFFSET FLAT:??_C@_0BD@NILJGNIH@list?5comprehension?$AA@

; 944  :             break;

  00168	eb 34		 jmp	 SHORT $LN42@set_contex
$LN13@set_contex:

; 945  :         case SetComp_kind:
; 946  :             expr_name = "set comprehension";

  0016a	48 8d 05 00 00
	00 00		 lea	 rax, OFFSET FLAT:??_C@_0BC@GCKMFGBM@set?5comprehension?$AA@

; 947  :             break;

  00171	eb 2b		 jmp	 SHORT $LN42@set_contex
$LN12@set_contex:

; 948  :         case DictComp_kind:
; 949  :             expr_name = "dict comprehension";

  00173	48 8d 05 00 00
	00 00		 lea	 rax, OFFSET FLAT:??_C@_0BD@MGEJOJHP@dict?5comprehension?$AA@

; 950  :             break;

  0017a	eb 22		 jmp	 SHORT $LN42@set_contex
$LN11@set_contex:

; 951  :         case Dict_kind:
; 952  :         case Set_kind:
; 953  :         case Num_kind:
; 954  :         case Str_kind:
; 955  :         case Bytes_kind:
; 956  :             expr_name = "literal";

  0017c	48 8d 05 00 00
	00 00		 lea	 rax, OFFSET FLAT:??_C@_07IDLNMGBF@literal?$AA@

; 957  :             break;

  00183	eb 19		 jmp	 SHORT $LN42@set_contex
$LN10@set_contex:

; 958  :         case Ellipsis_kind:
; 959  :             expr_name = "Ellipsis";

  00185	48 8d 05 00 00
	00 00		 lea	 rax, OFFSET FLAT:??_C@_08KKBGFFMJ@Ellipsis?$AA@

; 960  :             break;

  0018c	eb 10		 jmp	 SHORT $LN42@set_contex
$LN9@set_contex:

; 961  :         case Compare_kind:
; 962  :             expr_name = "comparison";

  0018e	48 8d 05 00 00
	00 00		 lea	 rax, OFFSET FLAT:??_C@_0L@ECKICNFF@comparison?$AA@

; 963  :             break;

  00195	eb 07		 jmp	 SHORT $LN42@set_contex
$LN8@set_contex:

; 964  :         case IfExp_kind:
; 965  :             expr_name = "conditional expression";

  00197	48 8d 05 00 00
	00 00		 lea	 rax, OFFSET FLAT:??_C@_0BH@JNJLIJED@conditional?5expression?$AA@
$LN42@set_contex:

; 972  :     }
; 973  :     /* Check for error string set by switch */
; 974  :     if (expr_name) {
; 975  :         char buf[300];
; 976  :         PyOS_snprintf(buf, sizeof(buf),
; 977  :                       "can't %s %s",
; 978  :                       ctx == Store ? "assign to" : "delete",
; 979  :                       expr_name);

  0019e	48 8d 0d 00 00
	00 00		 lea	 rcx, OFFSET FLAT:??_C@_09PFNDHGIG@assign?5to?$AA@
  001a5	4c 8d 0d 00 00
	00 00		 lea	 r9, OFFSET FLAT:??_C@_06FOBLBEIN@delete?$AA@
  001ac	83 fe 02	 cmp	 esi, 2
  001af	4c 0f 44 c9	 cmove	 r9, rcx
  001b3	4c 8d 05 00 00
	00 00		 lea	 r8, OFFSET FLAT:??_C@_0M@PHBALMFF@can?8t?5?$CFs?5?$CFs?$AA@
  001ba	48 8d 4c 24 30	 lea	 rcx, QWORD PTR buf$22393[rsp]
  001bf	ba 2c 01 00 00	 mov	 edx, 300		; 0000012cH
  001c4	48 89 44 24 20	 mov	 QWORD PTR [rsp+32], rax
  001c9	e8 00 00 00 00	 call	 PyOS_snprintf

; 980  :         return ast_error(c, n, buf);

  001ce	48 8b 94 24 98
	01 00 00	 mov	 rdx, QWORD PTR n$[rsp]
  001d6	48 8b 8c 24 80
	01 00 00	 mov	 rcx, QWORD PTR c$[rsp]
  001de	4c 8d 44 24 30	 lea	 r8, QWORD PTR buf$22393[rsp]
  001e3	e8 00 00 00 00	 call	 ast_error
  001e8	eb 19		 jmp	 SHORT $LN34@set_contex
$LN7@set_contex:

; 966  :             break;
; 967  :         default:
; 968  :             PyErr_Format(PyExc_SystemError,
; 969  :                          "unexpected expression in assignment %d (line %d)",
; 970  :                          e->kind, e->lineno);

  001ea	44 8b 4b 30	 mov	 r9d, DWORD PTR [rbx+48]
  001ee	48 8b 0d 00 00
	00 00		 mov	 rcx, QWORD PTR PyExc_SystemError
  001f5	48 8d 15 00 00
	00 00		 lea	 rdx, OFFSET FLAT:??_C@_0DB@BFFKDNIK@unexpected?5expression?5in?5assignm@
  001fc	e8 00 00 00 00	 call	 PyErr_Format
$LN44@set_contex:

; 971  :             return 0;

  00201	33 c0		 xor	 eax, eax
$LN34@set_contex:

; 995  : }

  00203	48 8b 9c 24 88
	01 00 00	 mov	 rbx, QWORD PTR [rsp+392]
  0020b	48 81 c4 60 01
	00 00		 add	 rsp, 352		; 00000160H
  00212	5f		 pop	 rdi
  00213	5e		 pop	 rsi
  00214	5d		 pop	 rbp
  00215	c3		 ret	 0
  00216	66 90		 npad	 2
$LN43@set_contex:
  00218	00 00 00 00	 DD	 $LN17@set_contex
  0021c	00 00 00 00	 DD	 $LN17@set_contex
  00220	00 00 00 00	 DD	 $LN17@set_contex
  00224	00 00 00 00	 DD	 $LN19@set_contex
  00228	00 00 00 00	 DD	 $LN8@set_contex
  0022c	00 00 00 00	 DD	 $LN11@set_contex
  00230	00 00 00 00	 DD	 $LN11@set_contex
  00234	00 00 00 00	 DD	 $LN14@set_contex
  00238	00 00 00 00	 DD	 $LN13@set_contex
  0023c	00 00 00 00	 DD	 $LN12@set_contex
  00240	00 00 00 00	 DD	 $LN16@set_contex
  00244	00 00 00 00	 DD	 $LN15@set_contex
  00248	00 00 00 00	 DD	 $LN15@set_contex
  0024c	00 00 00 00	 DD	 $LN9@set_contex
  00250	00 00 00 00	 DD	 $LN18@set_contex
  00254	00 00 00 00	 DD	 $LN11@set_contex
  00258	00 00 00 00	 DD	 $LN11@set_contex
  0025c	00 00 00 00	 DD	 $LN11@set_contex
  00260	00 00 00 00	 DD	 $LN10@set_contex
  00264	00 00 00 00	 DD	 $LN31@set_contex
  00268	00 00 00 00	 DD	 $LN29@set_contex
  0026c	00 00 00 00	 DD	 $LN28@set_contex
  00270	00 00 00 00	 DD	 $LN26@set_contex
  00274	00 00 00 00	 DD	 $LN23@set_contex
  00278	00 00 00 00	 DD	 $LN22@set_contex
set_context ENDP
_TEXT	ENDS
PUBLIC	??_C@_0BG@BNGEDCBG@invalid?5augassign?3?5?$CFs?$AA@ ; `string'
;	COMDAT pdata
pdata	SEGMENT
$pdata$ast_for_augassign DD imagerel ast_for_augassign
	DD	imagerel ast_for_augassign+344
	DD	imagerel $unwind$ast_for_augassign
pdata	ENDS
;	COMDAT xdata
xdata	SEGMENT
$unwind$ast_for_augassign DD 010401H
	DD	04204H
xdata	ENDS
;	COMDAT ??_C@_0BG@BNGEDCBG@invalid?5augassign?3?5?$CFs?$AA@
CONST	SEGMENT
??_C@_0BG@BNGEDCBG@invalid?5augassign?3?5?$CFs?$AA@ DB 'invalid augassign'
	DB	': %s', 00H					; `string'
; Function compile flags: /Ogtpy
CONST	ENDS
;	COMDAT ast_for_augassign
_TEXT	SEGMENT
n$ = 48
ast_for_augassign PROC					; COMDAT

; 999  : {

  00000	48 83 ec 28	 sub	 rsp, 40			; 00000028H

; 1000 :     REQ(n, augassign);
; 1001 :     n = CHILD(n, 0);

  00004	48 8b 41 20	 mov	 rax, QWORD PTR [rcx+32]

; 1002 :     switch (STR(n)[0]) {

  00008	4c 8b 40 08	 mov	 r8, QWORD PTR [rax+8]
  0000c	41 0f be 00	 movsx	 eax, BYTE PTR [r8]
  00010	83 c0 db	 add	 eax, -37		; ffffffffffffffdbH
  00013	83 f8 57	 cmp	 eax, 87			; 00000057H
  00016	0f 87 9b 00 00
	00		 ja	 $LN2@ast_for_au
  0001c	48 8d 15 00 00
	00 00		 lea	 rdx, OFFSET FLAT:__ImageBase
  00023	48 98		 cdqe
  00025	0f b6 84 02 00
	00 00 00	 movzx	 eax, BYTE PTR $LN20@ast_for_au[rdx+rax]
  0002d	8b 8c 82 00 00
	00 00		 mov	 ecx, DWORD PTR $LN21@ast_for_au[rdx+rax*4]
  00034	48 03 ca	 add	 rcx, rdx
  00037	ff e1		 jmp	 rcx
$LN15@ast_for_au:

; 1003 :         case '+':
; 1004 :             return Add;

  00039	b8 01 00 00 00	 mov	 eax, 1

; 1032 :     }
; 1033 : }

  0003e	48 83 c4 28	 add	 rsp, 40			; 00000028H
  00042	c3		 ret	 0
$LN14@ast_for_au:

; 1005 :         case '-':
; 1006 :             return Sub;

  00043	b8 02 00 00 00	 mov	 eax, 2

; 1032 :     }
; 1033 : }

  00048	48 83 c4 28	 add	 rsp, 40			; 00000028H
  0004c	c3		 ret	 0
$LN13@ast_for_au:

; 1007 :         case '/':
; 1008 :             if (STR(n)[1] == '/')

  0004d	41 80 78 01 2f	 cmp	 BYTE PTR [r8+1], 47	; 0000002fH
  00052	b8 04 00 00 00	 mov	 eax, 4
  00057	b9 0c 00 00 00	 mov	 ecx, 12
  0005c	0f 44 c1	 cmove	 eax, ecx

; 1032 :     }
; 1033 : }

  0005f	48 83 c4 28	 add	 rsp, 40			; 00000028H
  00063	c3		 ret	 0
$LN11@ast_for_au:

; 1009 :                 return FloorDiv;
; 1010 :             else
; 1011 :                 return Div;
; 1012 :         case '%':
; 1013 :             return Mod;

  00064	b8 05 00 00 00	 mov	 eax, 5

; 1032 :     }
; 1033 : }

  00069	48 83 c4 28	 add	 rsp, 40			; 00000028H
  0006d	c3		 ret	 0
$LN9@ast_for_au:

; 1014 :         case '<':
; 1015 :             return LShift;

  0006e	b8 07 00 00 00	 mov	 eax, 7

; 1032 :     }
; 1033 : }

  00073	48 83 c4 28	 add	 rsp, 40			; 00000028H
  00077	c3		 ret	 0
$LN8@ast_for_au:

; 1016 :         case '>':
; 1017 :             return RShift;

  00078	b8 08 00 00 00	 mov	 eax, 8

; 1032 :     }
; 1033 : }

  0007d	48 83 c4 28	 add	 rsp, 40			; 00000028H
  00081	c3		 ret	 0
$LN7@ast_for_au:

; 1018 :         case '&':
; 1019 :             return BitAnd;

  00082	b8 0b 00 00 00	 mov	 eax, 11

; 1032 :     }
; 1033 : }

  00087	48 83 c4 28	 add	 rsp, 40			; 00000028H
  0008b	c3		 ret	 0
$LN6@ast_for_au:

; 1020 :         case '^':
; 1021 :             return BitXor;

  0008c	b8 0a 00 00 00	 mov	 eax, 10

; 1032 :     }
; 1033 : }

  00091	48 83 c4 28	 add	 rsp, 40			; 00000028H
  00095	c3		 ret	 0
$LN5@ast_for_au:

; 1022 :         case '|':
; 1023 :             return BitOr;

  00096	b8 09 00 00 00	 mov	 eax, 9

; 1032 :     }
; 1033 : }

  0009b	48 83 c4 28	 add	 rsp, 40			; 00000028H
  0009f	c3		 ret	 0
$LN4@ast_for_au:

; 1024 :         case '*':
; 1025 :             if (STR(n)[1] == '*')

  000a0	41 80 78 01 2a	 cmp	 BYTE PTR [r8+1], 42	; 0000002aH
  000a5	b8 03 00 00 00	 mov	 eax, 3
  000aa	b9 06 00 00 00	 mov	 ecx, 6
  000af	0f 44 c1	 cmove	 eax, ecx

; 1032 :     }
; 1033 : }

  000b2	48 83 c4 28	 add	 rsp, 40			; 00000028H
  000b6	c3		 ret	 0
$LN2@ast_for_au:

; 1026 :                 return Pow;
; 1027 :             else
; 1028 :                 return Mult;
; 1029 :         default:
; 1030 :             PyErr_Format(PyExc_SystemError, "invalid augassign: %s", STR(n));

  000b7	48 8b 0d 00 00
	00 00		 mov	 rcx, QWORD PTR PyExc_SystemError
  000be	48 8d 15 00 00
	00 00		 lea	 rdx, OFFSET FLAT:??_C@_0BG@BNGEDCBG@invalid?5augassign?3?5?$CFs?$AA@
  000c5	e8 00 00 00 00	 call	 PyErr_Format

; 1031 :             return (operator_ty)0;

  000ca	33 c0		 xor	 eax, eax

; 1032 :     }
; 1033 : }

  000cc	48 83 c4 28	 add	 rsp, 40			; 00000028H
  000d0	c3		 ret	 0
  000d1	0f 1f 00	 npad	 3
$LN21@ast_for_au:
  000d4	00 00 00 00	 DD	 $LN11@ast_for_au
  000d8	00 00 00 00	 DD	 $LN7@ast_for_au
  000dc	00 00 00 00	 DD	 $LN4@ast_for_au
  000e0	00 00 00 00	 DD	 $LN15@ast_for_au
  000e4	00 00 00 00	 DD	 $LN14@ast_for_au
  000e8	00 00 00 00	 DD	 $LN13@ast_for_au
  000ec	00 00 00 00	 DD	 $LN9@ast_for_au
  000f0	00 00 00 00	 DD	 $LN8@ast_for_au
  000f4	00 00 00 00	 DD	 $LN6@ast_for_au
  000f8	00 00 00 00	 DD	 $LN5@ast_for_au
  000fc	00 00 00 00	 DD	 $LN2@ast_for_au
$LN20@ast_for_au:
  00100	00		 DB	 0
  00101	01		 DB	 1
  00102	0a		 DB	 10
  00103	0a		 DB	 10
  00104	0a		 DB	 10
  00105	02		 DB	 2
  00106	03		 DB	 3
  00107	0a		 DB	 10
  00108	04		 DB	 4
  00109	0a		 DB	 10
  0010a	05		 DB	 5
  0010b	0a		 DB	 10
  0010c	0a		 DB	 10
  0010d	0a		 DB	 10
  0010e	0a		 DB	 10
  0010f	0a		 DB	 10
  00110	0a		 DB	 10
  00111	0a		 DB	 10
  00112	0a		 DB	 10
  00113	0a		 DB	 10
  00114	0a		 DB	 10
  00115	0a		 DB	 10
  00116	0a		 DB	 10
  00117	06		 DB	 6
  00118	0a		 DB	 10
  00119	07		 DB	 7
  0011a	0a		 DB	 10
  0011b	0a		 DB	 10
  0011c	0a		 DB	 10
  0011d	0a		 DB	 10
  0011e	0a		 DB	 10
  0011f	0a		 DB	 10
  00120	0a		 DB	 10
  00121	0a		 DB	 10
  00122	0a		 DB	 10
  00123	0a		 DB	 10
  00124	0a		 DB	 10
  00125	0a		 DB	 10
  00126	0a		 DB	 10
  00127	0a		 DB	 10
  00128	0a		 DB	 10
  00129	0a		 DB	 10
  0012a	0a		 DB	 10
  0012b	0a		 DB	 10
  0012c	0a		 DB	 10
  0012d	0a		 DB	 10
  0012e	0a		 DB	 10
  0012f	0a		 DB	 10
  00130	0a		 DB	 10
  00131	0a		 DB	 10
  00132	0a		 DB	 10
  00133	0a		 DB	 10
  00134	0a		 DB	 10
  00135	0a		 DB	 10
  00136	0a		 DB	 10
  00137	0a		 DB	 10
  00138	0a		 DB	 10
  00139	08		 DB	 8
  0013a	0a		 DB	 10
  0013b	0a		 DB	 10
  0013c	0a		 DB	 10
  0013d	0a		 DB	 10
  0013e	0a		 DB	 10
  0013f	0a		 DB	 10
  00140	0a		 DB	 10
  00141	0a		 DB	 10
  00142	0a		 DB	 10
  00143	0a		 DB	 10
  00144	0a		 DB	 10
  00145	0a		 DB	 10
  00146	0a		 DB	 10
  00147	0a		 DB	 10
  00148	0a		 DB	 10
  00149	0a		 DB	 10
  0014a	0a		 DB	 10
  0014b	0a		 DB	 10
  0014c	0a		 DB	 10
  0014d	0a		 DB	 10
  0014e	0a		 DB	 10
  0014f	0a		 DB	 10
  00150	0a		 DB	 10
  00151	0a		 DB	 10
  00152	0a		 DB	 10
  00153	0a		 DB	 10
  00154	0a		 DB	 10
  00155	0a		 DB	 10
  00156	0a		 DB	 10
  00157	09		 DB	 9
ast_for_augassign ENDP
_TEXT	ENDS
PUBLIC	??_C@_0CB@DJMGDDDJ@invalid?5comp_op?3?5has?5?$CFd?5children@ ; `string'
PUBLIC	??_C@_0BH@PIIGKMIP@invalid?5comp_op?3?5?$CFs?5?$CFs?$AA@ ; `string'
PUBLIC	??_C@_0BE@KEKDOHCG@invalid?5comp_op?3?5?$CFs?$AA@ ; `string'
PUBLIC	??_C@_02EDKKPMHH@is?$AA@			; `string'
PUBLIC	??_C@_02LMMGJAGL@in?$AA@			; `string'
;	COMDAT pdata
pdata	SEGMENT
$pdata$ast_for_comp_op DD imagerel ast_for_comp_op
	DD	imagerel ast_for_comp_op+502
	DD	imagerel $unwind$ast_for_comp_op
pdata	ENDS
;	COMDAT xdata
xdata	SEGMENT
$unwind$ast_for_comp_op DD 040a01H
	DD	06640aH
	DD	07006320aH
xdata	ENDS
;	COMDAT ??_C@_0CB@DJMGDDDJ@invalid?5comp_op?3?5has?5?$CFd?5children@
CONST	SEGMENT
??_C@_0CB@DJMGDDDJ@invalid?5comp_op?3?5has?5?$CFd?5children@ DB 'invalid '
	DB	'comp_op: has %d children', 00H		; `string'
CONST	ENDS
;	COMDAT ??_C@_0BH@PIIGKMIP@invalid?5comp_op?3?5?$CFs?5?$CFs?$AA@
CONST	SEGMENT
??_C@_0BH@PIIGKMIP@invalid?5comp_op?3?5?$CFs?5?$CFs?$AA@ DB 'invalid comp'
	DB	'_op: %s %s', 00H				; `string'
CONST	ENDS
;	COMDAT ??_C@_0BE@KEKDOHCG@invalid?5comp_op?3?5?$CFs?$AA@
CONST	SEGMENT
??_C@_0BE@KEKDOHCG@invalid?5comp_op?3?5?$CFs?$AA@ DB 'invalid comp_op: %s'
	DB	00H						; `string'
CONST	ENDS
;	COMDAT ??_C@_02EDKKPMHH@is?$AA@
CONST	SEGMENT
??_C@_02EDKKPMHH@is?$AA@ DB 'is', 00H			; `string'
CONST	ENDS
;	COMDAT ??_C@_02LMMGJAGL@in?$AA@
CONST	SEGMENT
??_C@_02LMMGJAGL@in?$AA@ DB 'in', 00H			; `string'
; Function compile flags: /Ogtpy
CONST	ENDS
;	COMDAT ast_for_comp_op
_TEXT	SEGMENT
n$ = 48
ast_for_comp_op PROC					; COMDAT

; 1037 : {

  00000	48 89 74 24 08	 mov	 QWORD PTR [rsp+8], rsi
  00005	57		 push	 rdi
  00006	48 83 ec 20	 sub	 rsp, 32			; 00000020H

; 1038 :     /* comp_op: '<'|'>'|'=='|'>='|'<='|'!='|'in'|'not' 'in'|'is'
; 1039 :                |'is' 'not'
; 1040 :     */
; 1041 :     REQ(n, comp_op);
; 1042 :     if (NCH(n) == 1) {

  0000a	44 8b 41 18	 mov	 r8d, DWORD PTR [rcx+24]
  0000e	41 83 f8 01	 cmp	 r8d, 1
  00012	0f 85 fe 00 00
	00		 jne	 $LN21@ast_for_co

; 1043 :         n = CHILD(n, 0);

  00018	4c 8b 41 20	 mov	 r8, QWORD PTR [rcx+32]

; 1044 :         switch (TYPE(n)) {

  0001c	41 0f bf 00	 movsx	 eax, WORD PTR [r8]
  00020	ff c8		 dec	 eax
  00022	83 f8 1d	 cmp	 eax, 29
  00025	0f 87 c7 00 00
	00		 ja	 $LN10@ast_for_co
  0002b	48 8d 15 00 00
	00 00		 lea	 rdx, OFFSET FLAT:__ImageBase
  00032	48 98		 cdqe
  00034	0f b6 84 02 00
	00 00 00	 movzx	 eax, BYTE PTR $LN24@ast_for_co[rdx+rax]
  0003c	8b 8c 82 00 00
	00 00		 mov	 ecx, DWORD PTR $LN25@ast_for_co[rdx+rax*4]
  00043	48 03 ca	 add	 rcx, rdx
  00046	ff e1		 jmp	 rcx
$LN18@ast_for_co:

; 1045 :             case LESS:
; 1046 :                 return Lt;

  00048	b8 03 00 00 00	 mov	 eax, 3

; 1085 : }

  0004d	48 8b 74 24 30	 mov	 rsi, QWORD PTR [rsp+48]
  00052	48 83 c4 20	 add	 rsp, 32			; 00000020H
  00056	5f		 pop	 rdi
  00057	c3		 ret	 0
$LN17@ast_for_co:

; 1047 :             case GREATER:
; 1048 :                 return Gt;

  00058	b8 05 00 00 00	 mov	 eax, 5

; 1085 : }

  0005d	48 8b 74 24 30	 mov	 rsi, QWORD PTR [rsp+48]
  00062	48 83 c4 20	 add	 rsp, 32			; 00000020H
  00066	5f		 pop	 rdi
  00067	c3		 ret	 0
$LN16@ast_for_co:

; 1049 :             case EQEQUAL:                       /* == */
; 1050 :                 return Eq;

  00068	b8 01 00 00 00	 mov	 eax, 1

; 1085 : }

  0006d	48 8b 74 24 30	 mov	 rsi, QWORD PTR [rsp+48]
  00072	48 83 c4 20	 add	 rsp, 32			; 00000020H
  00076	5f		 pop	 rdi
  00077	c3		 ret	 0
$LN15@ast_for_co:

; 1051 :             case LESSEQUAL:
; 1052 :                 return LtE;

  00078	b8 04 00 00 00	 mov	 eax, 4

; 1085 : }

  0007d	48 8b 74 24 30	 mov	 rsi, QWORD PTR [rsp+48]
  00082	48 83 c4 20	 add	 rsp, 32			; 00000020H
  00086	5f		 pop	 rdi
  00087	c3		 ret	 0
$LN14@ast_for_co:

; 1053 :             case GREATEREQUAL:
; 1054 :                 return GtE;

  00088	b8 06 00 00 00	 mov	 eax, 6

; 1085 : }

  0008d	48 8b 74 24 30	 mov	 rsi, QWORD PTR [rsp+48]
  00092	48 83 c4 20	 add	 rsp, 32			; 00000020H
  00096	5f		 pop	 rdi
  00097	c3		 ret	 0
$LN13@ast_for_co:

; 1055 :             case NOTEQUAL:
; 1056 :                 return NotEq;

  00098	b8 02 00 00 00	 mov	 eax, 2

; 1085 : }

  0009d	48 8b 74 24 30	 mov	 rsi, QWORD PTR [rsp+48]
  000a2	48 83 c4 20	 add	 rsp, 32			; 00000020H
  000a6	5f		 pop	 rdi
  000a7	c3		 ret	 0
$LN12@ast_for_co:

; 1057 :             case NAME:
; 1058 :                 if (strcmp(STR(n), "in") == 0)

  000a8	49 8b 40 08	 mov	 rax, QWORD PTR [r8+8]
  000ac	48 8d 3d 00 00
	00 00		 lea	 rdi, OFFSET FLAT:??_C@_02LMMGJAGL@in?$AA@
  000b3	b9 03 00 00 00	 mov	 ecx, 3
  000b8	48 8b f0	 mov	 rsi, rax
  000bb	f3 a6		 repe cmpsb
  000bd	75 10		 jne	 SHORT $LN11@ast_for_co

; 1059 :                     return In;

  000bf	b8 09 00 00 00	 mov	 eax, 9

; 1085 : }

  000c4	48 8b 74 24 30	 mov	 rsi, QWORD PTR [rsp+48]
  000c9	48 83 c4 20	 add	 rsp, 32			; 00000020H
  000cd	5f		 pop	 rdi
  000ce	c3		 ret	 0
$LN11@ast_for_co:

; 1060 :                 if (strcmp(STR(n), "is") == 0)

  000cf	48 8d 3d 00 00
	00 00		 lea	 rdi, OFFSET FLAT:??_C@_02EDKKPMHH@is?$AA@
  000d6	48 8b f0	 mov	 rsi, rax
  000d9	b9 03 00 00 00	 mov	 ecx, 3
  000de	f3 a6		 repe cmpsb
  000e0	75 10		 jne	 SHORT $LN10@ast_for_co

; 1061 :                     return Is;

  000e2	b8 07 00 00 00	 mov	 eax, 7

; 1085 : }

  000e7	48 8b 74 24 30	 mov	 rsi, QWORD PTR [rsp+48]
  000ec	48 83 c4 20	 add	 rsp, 32			; 00000020H
  000f0	5f		 pop	 rdi
  000f1	c3		 ret	 0
$LN10@ast_for_co:

; 1062 :             default:
; 1063 :                 PyErr_Format(PyExc_SystemError, "invalid comp_op: %s",
; 1064 :                              STR(n));

  000f2	4d 8b 40 08	 mov	 r8, QWORD PTR [r8+8]
  000f6	48 8b 0d 00 00
	00 00		 mov	 rcx, QWORD PTR PyExc_SystemError
  000fd	48 8d 15 00 00
	00 00		 lea	 rdx, OFFSET FLAT:??_C@_0BE@KEKDOHCG@invalid?5comp_op?3?5?$CFs?$AA@
  00104	e8 00 00 00 00	 call	 PyErr_Format

; 1084 :     return (cmpop_ty)0;

  00109	33 c0		 xor	 eax, eax

; 1085 : }

  0010b	48 8b 74 24 30	 mov	 rsi, QWORD PTR [rsp+48]
  00110	48 83 c4 20	 add	 rsp, 32			; 00000020H
  00114	5f		 pop	 rdi
  00115	c3		 ret	 0
$LN21@ast_for_co:

; 1065 :                 return (cmpop_ty)0;
; 1066 :         }
; 1067 :     }
; 1068 :     else if (NCH(n) == 2) {

  00116	41 83 f8 02	 cmp	 r8d, 2
  0011a	75 7c		 jne	 SHORT $LN5@ast_for_co

; 1069 :         /* handle "not in" and "is not" */
; 1070 :         switch (TYPE(CHILD(n, 0))) {

  0011c	4c 8b 41 20	 mov	 r8, QWORD PTR [rcx+32]
  00120	41 0f bf 08	 movsx	 ecx, WORD PTR [r8]
  00124	ff c9		 dec	 ecx
  00126	75 48		 jne	 SHORT $LN2@ast_for_co

; 1071 :             case NAME:
; 1072 :                 if (strcmp(STR(CHILD(n, 1)), "in") == 0)

  00128	49 8b 70 30	 mov	 rsi, QWORD PTR [r8+48]
  0012c	48 8d 3d 00 00
	00 00		 lea	 rdi, OFFSET FLAT:??_C@_02LMMGJAGL@in?$AA@
  00133	b9 03 00 00 00	 mov	 ecx, 3
  00138	f3 a6		 repe cmpsb
  0013a	75 10		 jne	 SHORT $LN3@ast_for_co

; 1073 :                     return NotIn;

  0013c	b8 0a 00 00 00	 mov	 eax, 10

; 1085 : }

  00141	48 8b 74 24 30	 mov	 rsi, QWORD PTR [rsp+48]
  00146	48 83 c4 20	 add	 rsp, 32			; 00000020H
  0014a	5f		 pop	 rdi
  0014b	c3		 ret	 0
$LN3@ast_for_co:

; 1074 :                 if (strcmp(STR(CHILD(n, 0)), "is") == 0)

  0014c	49 8b 70 08	 mov	 rsi, QWORD PTR [r8+8]
  00150	48 8d 3d 00 00
	00 00		 lea	 rdi, OFFSET FLAT:??_C@_02EDKKPMHH@is?$AA@
  00157	b9 03 00 00 00	 mov	 ecx, 3
  0015c	f3 a6		 repe cmpsb
  0015e	75 10		 jne	 SHORT $LN2@ast_for_co

; 1075 :                     return IsNot;

  00160	b8 08 00 00 00	 mov	 eax, 8

; 1085 : }

  00165	48 8b 74 24 30	 mov	 rsi, QWORD PTR [rsp+48]
  0016a	48 83 c4 20	 add	 rsp, 32			; 00000020H
  0016e	5f		 pop	 rdi
  0016f	c3		 ret	 0
$LN2@ast_for_co:

; 1076 :             default:
; 1077 :                 PyErr_Format(PyExc_SystemError, "invalid comp_op: %s %s",
; 1078 :                              STR(CHILD(n, 0)), STR(CHILD(n, 1)));

  00170	4d 8b 48 30	 mov	 r9, QWORD PTR [r8+48]
  00174	48 8b 0d 00 00
	00 00		 mov	 rcx, QWORD PTR PyExc_SystemError
  0017b	4d 8b 40 08	 mov	 r8, QWORD PTR [r8+8]
  0017f	48 8d 15 00 00
	00 00		 lea	 rdx, OFFSET FLAT:??_C@_0BH@PIIGKMIP@invalid?5comp_op?3?5?$CFs?5?$CFs?$AA@
  00186	e8 00 00 00 00	 call	 PyErr_Format

; 1084 :     return (cmpop_ty)0;

  0018b	33 c0		 xor	 eax, eax

; 1085 : }

  0018d	48 8b 74 24 30	 mov	 rsi, QWORD PTR [rsp+48]
  00192	48 83 c4 20	 add	 rsp, 32			; 00000020H
  00196	5f		 pop	 rdi
  00197	c3		 ret	 0
$LN5@ast_for_co:

; 1079 :                 return (cmpop_ty)0;
; 1080 :         }
; 1081 :     }
; 1082 :     PyErr_Format(PyExc_SystemError, "invalid comp_op: has %d children",
; 1083 :                  NCH(n));

  00198	48 8b 0d 00 00
	00 00		 mov	 rcx, QWORD PTR PyExc_SystemError
  0019f	48 8d 15 00 00
	00 00		 lea	 rdx, OFFSET FLAT:??_C@_0CB@DJMGDDDJ@invalid?5comp_op?3?5has?5?$CFd?5children@
  001a6	e8 00 00 00 00	 call	 PyErr_Format

; 1085 : }

  001ab	48 8b 74 24 30	 mov	 rsi, QWORD PTR [rsp+48]
  001b0	33 c0		 xor	 eax, eax
  001b2	48 83 c4 20	 add	 rsp, 32			; 00000020H
  001b6	5f		 pop	 rdi
  001b7	c3		 ret	 0
$LN25@ast_for_co:
  001b8	00 00 00 00	 DD	 $LN12@ast_for_co
  001bc	00 00 00 00	 DD	 $LN18@ast_for_co
  001c0	00 00 00 00	 DD	 $LN17@ast_for_co
  001c4	00 00 00 00	 DD	 $LN16@ast_for_co
  001c8	00 00 00 00	 DD	 $LN13@ast_for_co
  001cc	00 00 00 00	 DD	 $LN15@ast_for_co
  001d0	00 00 00 00	 DD	 $LN14@ast_for_co
  001d4	00 00 00 00	 DD	 $LN10@ast_for_co
$LN24@ast_for_co:
  001d8	00		 DB	 0
  001d9	07		 DB	 7
  001da	07		 DB	 7
  001db	07		 DB	 7
  001dc	07		 DB	 7
  001dd	07		 DB	 7
  001de	07		 DB	 7
  001df	07		 DB	 7
  001e0	07		 DB	 7
  001e1	07		 DB	 7
  001e2	07		 DB	 7
  001e3	07		 DB	 7
  001e4	07		 DB	 7
  001e5	07		 DB	 7
  001e6	07		 DB	 7
  001e7	07		 DB	 7
  001e8	07		 DB	 7
  001e9	07		 DB	 7
  001ea	07		 DB	 7
  001eb	01		 DB	 1
  001ec	02		 DB	 2
  001ed	07		 DB	 7
  001ee	07		 DB	 7
  001ef	07		 DB	 7
  001f0	07		 DB	 7
  001f1	07		 DB	 7
  001f2	03		 DB	 3
  001f3	04		 DB	 4
  001f4	05		 DB	 5
  001f5	06		 DB	 6
ast_for_comp_op ENDP
_TEXT	ENDS
EXTRN	asdl_seq_new:PROC
;	COMDAT pdata
pdata	SEGMENT
$pdata$seq_for_testlist DD imagerel seq_for_testlist
	DD	imagerel seq_for_testlist+67
	DD	imagerel $unwind$seq_for_testlist
pdata	ENDS
;	COMDAT pdata
pdata	SEGMENT
$pdata$0$seq_for_testlist DD imagerel seq_for_testlist+67
	DD	imagerel seq_for_testlist+158
	DD	imagerel $chain$0$seq_for_testlist
pdata	ENDS
;	COMDAT pdata
pdata	SEGMENT
$pdata$2$seq_for_testlist DD imagerel seq_for_testlist+158
	DD	imagerel seq_for_testlist+160
	DD	imagerel $chain$2$seq_for_testlist
pdata	ENDS
;	COMDAT xdata
xdata	SEGMENT
$chain$2$seq_for_testlist DD 020021H
	DD	063400H
	DD	imagerel seq_for_testlist
	DD	imagerel seq_for_testlist+67
	DD	imagerel $unwind$seq_for_testlist
xdata	ENDS
;	COMDAT xdata
xdata	SEGMENT
$chain$0$seq_for_testlist DD 020521H
	DD	063405H
	DD	imagerel seq_for_testlist
	DD	imagerel seq_for_testlist+67
	DD	imagerel $unwind$seq_for_testlist
xdata	ENDS
;	COMDAT xdata
xdata	SEGMENT
$unwind$seq_for_testlist DD 060f01H
	DD	08640fH
	DD	07540fH
	DD	0700b320fH
; Function compile flags: /Ogtpy
xdata	ENDS
;	COMDAT seq_for_testlist
_TEXT	SEGMENT
c$ = 48
n$ = 56
seq_for_testlist PROC					; COMDAT

; 1089 : {

  00000	48 89 6c 24 10	 mov	 QWORD PTR [rsp+16], rbp
  00005	48 89 74 24 18	 mov	 QWORD PTR [rsp+24], rsi
  0000a	57		 push	 rdi
  0000b	48 83 ec 20	 sub	 rsp, 32			; 00000020H

; 1090 :     /* testlist: test (',' test)* [',']
; 1091 :        testlist_star_expr: test|star_expr (',' test|star_expr)* [',']
; 1092 :     */
; 1093 :     asdl_seq *seq;
; 1094 :     expr_ty expression;
; 1095 :     int i;
; 1096 :     assert(TYPE(n) == testlist || TYPE(n) == testlist_star_expr || TYPE(n) == testlist_comp);
; 1097 : 
; 1098 :     seq = asdl_seq_new((NCH(n) + 1) / 2, c->c_arena);

  0000f	8b 42 18	 mov	 eax, DWORD PTR [rdx+24]
  00012	48 8b fa	 mov	 rdi, rdx
  00015	48 8b e9	 mov	 rbp, rcx
  00018	ff c0		 inc	 eax
  0001a	99		 cdq
  0001b	2b c2		 sub	 eax, edx
  0001d	48 8b 55 08	 mov	 rdx, QWORD PTR [rbp+8]
  00021	d1 f8		 sar	 eax, 1
  00023	48 63 c8	 movsxd	 rcx, eax
  00026	e8 00 00 00 00	 call	 asdl_seq_new
  0002b	48 8b f0	 mov	 rsi, rax

; 1099 :     if (!seq)

  0002e	48 85 c0	 test	 rax, rax
  00031	75 10		 jne	 SHORT $LN5@seq_for_te

; 1114 : }

  00033	48 8b 6c 24 38	 mov	 rbp, QWORD PTR [rsp+56]
  00038	48 8b 74 24 40	 mov	 rsi, QWORD PTR [rsp+64]
  0003d	48 83 c4 20	 add	 rsp, 32			; 00000020H
  00041	5f		 pop	 rdi
  00042	c3		 ret	 0
$LN5@seq_for_te:
  00043	48 89 5c 24 30	 mov	 QWORD PTR [rsp+48], rbx

; 1100 :         return NULL;
; 1101 : 
; 1102 :     for (i = 0; i < NCH(n); i += 2) {

  00048	33 db		 xor	 ebx, ebx
  0004a	39 5f 18	 cmp	 DWORD PTR [rdi+24], ebx
  0004d	7e 37		 jle	 SHORT $LN2@seq_for_te
  0004f	90		 npad	 1
$LL4@seq_for_te:

; 1103 :         const node *ch = CHILD(n, i);

  00050	48 63 c3	 movsxd	 rax, ebx
  00053	48 8d 0c 80	 lea	 rcx, QWORD PTR [rax+rax*4]
  00057	48 8b 47 20	 mov	 rax, QWORD PTR [rdi+32]
  0005b	48 8d 14 c8	 lea	 rdx, QWORD PTR [rax+rcx*8]

; 1104 :         assert(TYPE(ch) == test || TYPE(ch) == test_nocond || TYPE(ch) == star_expr);
; 1105 : 
; 1106 :         expression = ast_for_expr(c, ch);

  0005f	48 8b cd	 mov	 rcx, rbp
  00062	e8 00 00 00 00	 call	 ast_for_expr
  00067	4c 8b d8	 mov	 r11, rax

; 1107 :         if (!expression)

  0006a	48 85 c0	 test	 rax, rax
  0006d	74 2f		 je	 SHORT $LN9@seq_for_te

; 1109 : 
; 1110 :         assert(i / 2 < seq->size);
; 1111 :         asdl_seq_SET(seq, i / 2, expression);

  0006f	8b c3		 mov	 eax, ebx
  00071	83 c3 02	 add	 ebx, 2
  00074	99		 cdq
  00075	2b c2		 sub	 eax, edx
  00077	d1 f8		 sar	 eax, 1
  00079	48 63 c8	 movsxd	 rcx, eax
  0007c	4c 89 5c ce 08	 mov	 QWORD PTR [rsi+rcx*8+8], r11
  00081	3b 5f 18	 cmp	 ebx, DWORD PTR [rdi+24]
  00084	7c ca		 jl	 SHORT $LL4@seq_for_te
$LN2@seq_for_te:

; 1112 :     }
; 1113 :     return seq;

  00086	48 8b c6	 mov	 rax, rsi
$LN11@seq_for_te:
  00089	48 8b 5c 24 30	 mov	 rbx, QWORD PTR [rsp+48]

; 1114 : }

  0008e	48 8b 6c 24 38	 mov	 rbp, QWORD PTR [rsp+56]
  00093	48 8b 74 24 40	 mov	 rsi, QWORD PTR [rsp+64]
  00098	48 83 c4 20	 add	 rsp, 32			; 00000020H
  0009c	5f		 pop	 rdi
  0009d	c3		 ret	 0
$LN9@seq_for_te:

; 1108 :             return NULL;

  0009e	eb e9		 jmp	 SHORT $LN11@seq_for_te
seq_for_testlist ENDP
_TEXT	ENDS
EXTRN	_Py_arg:PROC
;	COMDAT pdata
pdata	SEGMENT
$pdata$ast_for_arg DD imagerel ast_for_arg
	DD	imagerel ast_for_arg+163
	DD	imagerel $unwind$ast_for_arg
pdata	ENDS
;	COMDAT xdata
xdata	SEGMENT
$unwind$ast_for_arg DD 0a1a01H
	DD	09741aH
	DD	08641aH
	DD	07541aH
	DD	06341aH
	DD	0c016321aH
; Function compile flags: /Ogtpy
xdata	ENDS
;	COMDAT ast_for_arg
_TEXT	SEGMENT
c$ = 48
n$ = 56
ast_for_arg PROC					; COMDAT

; 1118 : {

  00000	48 89 5c 24 08	 mov	 QWORD PTR [rsp+8], rbx
  00005	48 89 6c 24 10	 mov	 QWORD PTR [rsp+16], rbp
  0000a	48 89 74 24 18	 mov	 QWORD PTR [rsp+24], rsi
  0000f	48 89 7c 24 20	 mov	 QWORD PTR [rsp+32], rdi
  00014	41 54		 push	 r12
  00016	48 83 ec 20	 sub	 rsp, 32			; 00000020H

; 1119 :     identifier name;
; 1120 :     expr_ty annotation = NULL;
; 1121 :     node *ch;
; 1122 : 
; 1123 :     assert(TYPE(n) == tfpdef || TYPE(n) == vfpdef);
; 1124 :     ch = CHILD(n, 0);

  0001a	4c 8b 62 20	 mov	 r12, QWORD PTR [rdx+32]
  0001e	48 8b da	 mov	 rbx, rdx
  00021	48 8b f1	 mov	 rsi, rcx

; 1125 :     name = NEW_IDENTIFIER(ch);

  00024	48 8b d1	 mov	 rdx, rcx
  00027	49 8b 4c 24 08	 mov	 rcx, QWORD PTR [r12+8]
  0002c	33 ff		 xor	 edi, edi
  0002e	e8 00 00 00 00	 call	 new_identifier
  00033	48 8b e8	 mov	 rbp, rax

; 1126 :     if (!name)

  00036	48 85 c0	 test	 rax, rax
  00039	75 04		 jne	 SHORT $LN4@ast_for_ar
$LN7@ast_for_ar:

; 1127 :         return NULL;

  0003b	33 c0		 xor	 eax, eax
  0003d	eb 49		 jmp	 SHORT $LN5@ast_for_ar
$LN4@ast_for_ar:

; 1128 :     if (forbidden_name(c, name, ch, 0))

  0003f	45 33 c9	 xor	 r9d, r9d
  00042	4d 8b c4	 mov	 r8, r12
  00045	48 8b d0	 mov	 rdx, rax
  00048	48 8b ce	 mov	 rcx, rsi
  0004b	e8 00 00 00 00	 call	 forbidden_name
  00050	85 c0		 test	 eax, eax

; 1129 :         return NULL;

  00052	75 e7		 jne	 SHORT $LN7@ast_for_ar

; 1130 : 
; 1131 :     if (NCH(n) == 3 && TYPE(CHILD(n, 1)) == COLON) {

  00054	83 7b 18 03	 cmp	 DWORD PTR [rbx+24], 3
  00058	75 1f		 jne	 SHORT $LN1@ast_for_ar
  0005a	48 8b 53 20	 mov	 rdx, QWORD PTR [rbx+32]
  0005e	66 83 7a 28 0b	 cmp	 WORD PTR [rdx+40], 11
  00063	75 14		 jne	 SHORT $LN1@ast_for_ar

; 1132 :         annotation = ast_for_expr(c, CHILD(n, 2));

  00065	48 83 c2 50	 add	 rdx, 80			; 00000050H
  00069	48 8b ce	 mov	 rcx, rsi
  0006c	e8 00 00 00 00	 call	 ast_for_expr
  00071	48 8b f8	 mov	 rdi, rax

; 1133 :         if (!annotation)

  00074	48 85 c0	 test	 rax, rax

; 1134 :             return NULL;

  00077	74 c2		 je	 SHORT $LN7@ast_for_ar
$LN1@ast_for_ar:

; 1135 :     }
; 1136 : 
; 1137 :     return arg(name, annotation, c->c_arena);

  00079	4c 8b 46 08	 mov	 r8, QWORD PTR [rsi+8]
  0007d	48 8b d7	 mov	 rdx, rdi
  00080	48 8b cd	 mov	 rcx, rbp
  00083	e8 00 00 00 00	 call	 _Py_arg
$LN5@ast_for_ar:

; 1138 : }

  00088	48 8b 5c 24 30	 mov	 rbx, QWORD PTR [rsp+48]
  0008d	48 8b 6c 24 38	 mov	 rbp, QWORD PTR [rsp+56]
  00092	48 8b 74 24 40	 mov	 rsi, QWORD PTR [rsp+64]
  00097	48 8b 7c 24 48	 mov	 rdi, QWORD PTR [rsp+72]
  0009c	48 83 c4 20	 add	 rsp, 32			; 00000020H
  000a0	41 5c		 pop	 r12
  000a2	c3		 ret	 0
ast_for_arg ENDP
_TEXT	ENDS
PUBLIC	??_C@_0BA@JBKEEOMC@unexpected?5node?$AA@	; `string'
PUBLIC	??_C@_0CD@MPPDOCEK@named?5arguments?5must?5follow?5bare@ ; `string'
;	COMDAT pdata
pdata	SEGMENT
$pdata$handle_keywordonly_args DD imagerel handle_keywordonly_args
	DD	imagerel handle_keywordonly_args+539
	DD	imagerel $unwind$handle_keywordonly_args
pdata	ENDS
;	COMDAT xdata
xdata	SEGMENT
$unwind$handle_keywordonly_args DD 0106a01H
	DD	06f46aH
	DD	07e465H
	DD	08d460H
	DD	09c45bH
	DD	0a7456H
	DD	0b6451H
	DD	010544cH
	DD	0300bb20fH
xdata	ENDS
;	COMDAT ??_C@_0BA@JBKEEOMC@unexpected?5node?$AA@
CONST	SEGMENT
??_C@_0BA@JBKEEOMC@unexpected?5node?$AA@ DB 'unexpected node', 00H ; `string'
CONST	ENDS
;	COMDAT ??_C@_0CD@MPPDOCEK@named?5arguments?5must?5follow?5bare@
CONST	SEGMENT
??_C@_0CD@MPPDOCEK@named?5arguments?5must?5follow?5bare@ DB 'named argume'
	DB	'nts must follow bare *', 00H		; `string'
; Function compile flags: /Ogtpy
CONST	ENDS
;	COMDAT handle_keywordonly_args
_TEXT	SEGMENT
ch$1$ = 32
c$ = 112
n$ = 120
start$ = 128
kwonlyargs$ = 136
kwdefaults$ = 144
handle_keywordonly_args PROC				; COMDAT

; 1149 : {

  00000	48 89 54 24 10	 mov	 QWORD PTR [rsp+16], rdx
  00005	48 89 4c 24 08	 mov	 QWORD PTR [rsp+8], rcx
  0000a	53		 push	 rbx
  0000b	48 83 ec 60	 sub	 rsp, 96			; 00000060H
  0000f	4d 8b d9	 mov	 r11, r9
  00012	49 63 d8	 movsxd	 rbx, r8d
  00015	4c 8b d2	 mov	 r10, rdx
  00018	4c 8b c9	 mov	 r9, rcx

; 1150 :     PyObject *argname;
; 1151 :     node *ch;
; 1152 :     expr_ty expression, annotation;
; 1153 :     arg_ty arg;
; 1154 :     int i = start;
; 1155 :     int j = 0; /* index for kwdefaults and kwonlyargs */
; 1156 : 
; 1157 :     if (kwonlyargs == NULL) {

  0001b	4d 85 db	 test	 r11, r11
  0001e	75 21		 jne	 SHORT $LN20@handle_key

; 1158 :         ast_error(c, CHILD(n, start), "named arguments must follow bare *");

  00020	48 8b 42 20	 mov	 rax, QWORD PTR [rdx+32]
  00024	4c 8d 04 9b	 lea	 r8, QWORD PTR [rbx+rbx*4]
  00028	4a 8d 14 c0	 lea	 rdx, QWORD PTR [rax+r8*8]
  0002c	4c 8d 05 00 00
	00 00		 lea	 r8, OFFSET FLAT:??_C@_0CD@MPPDOCEK@named?5arguments?5must?5follow?5bare@
  00033	e8 00 00 00 00	 call	 ast_error

; 1159 :         return -1;

  00038	83 c8 ff	 or	 eax, -1

; 1208 : }

  0003b	48 83 c4 60	 add	 rsp, 96			; 00000060H
  0003f	5b		 pop	 rbx
  00040	c3		 ret	 0
$LN20@handle_key:

; 1160 :     }
; 1161 :     assert(kwdefaults != NULL);
; 1162 :     while (i < NCH(n)) {

  00041	8b 52 18	 mov	 edx, DWORD PTR [rdx+24]
  00044	48 89 ac 24 80
	00 00 00	 mov	 QWORD PTR [rsp+128], rbp
  0004c	48 89 74 24 58	 mov	 QWORD PTR [rsp+88], rsi
  00051	48 89 7c 24 50	 mov	 QWORD PTR [rsp+80], rdi
  00056	4c 89 64 24 48	 mov	 QWORD PTR [rsp+72], r12
  0005b	4c 89 6c 24 40	 mov	 QWORD PTR [rsp+64], r13
  00060	4c 89 74 24 38	 mov	 QWORD PTR [rsp+56], r14
  00065	4c 89 7c 24 30	 mov	 QWORD PTR [rsp+48], r15
  0006a	3b da		 cmp	 ebx, edx
  0006c	0f 8d 7b 01 00
	00		 jge	 $LN15@handle_key
  00072	48 8d 04 9b	 lea	 rax, QWORD PTR [rbx+rbx*4]
  00076	44 8d 7b 02	 lea	 r15d, DWORD PTR [rbx+2]
  0007a	44 8d 6b 01	 lea	 r13d, DWORD PTR [rbx+1]
  0007e	4c 8d 34 c5 00
	00 00 00	 lea	 r14, QWORD PTR [rax*8]
  00086	48 8b 84 24 90
	00 00 00	 mov	 rax, QWORD PTR kwdefaults$[rsp]
  0008e	4c 2b d8	 sub	 r11, rax
  00091	49 8d 6e 28	 lea	 rbp, QWORD PTR [r14+40]
  00095	48 8d 70 08	 lea	 rsi, QWORD PTR [rax+8]
  00099	4c 89 9c 24 88
	00 00 00	 mov	 QWORD PTR kwonlyargs$[rsp], r11
  000a1	66 66 66 66 66
	66 66 0f 1f 84
	00 00 00 00 00	 npad	 15
$LL16@handle_key:

; 1163 :         ch = CHILD(n, i);

  000b0	4d 8b 42 20	 mov	 r8, QWORD PTR [r10+32]

; 1164 :         switch (TYPE(ch)) {

  000b4	43 0f bf 0c 06	 movsx	 ecx, WORD PTR [r14+r8]
  000b9	83 e9 23	 sub	 ecx, 35			; 00000023H
  000bc	4b 8d 3c 06	 lea	 rdi, QWORD PTR [r14+r8]
  000c0	0f 84 27 01 00
	00		 je	 $LN15@handle_key
  000c6	81 e9 e6 00 00
	00		 sub	 ecx, 230		; 000000e6H
  000cc	74 09		 je	 SHORT $LN12@handle_key
  000ce	83 f9 02	 cmp	 ecx, 2
  000d1	0f 85 ff 00 00
	00		 jne	 $LN26@handle_key
$LN12@handle_key:

; 1165 :             case vfpdef:
; 1166 :             case tfpdef:
; 1167 :                 if (i + 1 < NCH(n) && TYPE(CHILD(n, i + 1)) == EQUAL) {

  000d7	44 3b ea	 cmp	 r13d, edx
  000da	7d 41		 jge	 SHORT $LN11@handle_key
  000dc	66 41 83 3c 28
	16		 cmp	 WORD PTR [r8+rbp], 22
  000e2	75 39		 jne	 SHORT $LN11@handle_key

; 1168 :                     expression = ast_for_expr(c, CHILD(n, i + 2));

  000e4	49 63 c7	 movsxd	 rax, r15d
  000e7	48 8d 0c 80	 lea	 rcx, QWORD PTR [rax+rax*4]
  000eb	49 8d 14 c8	 lea	 rdx, QWORD PTR [r8+rcx*8]
  000ef	49 8b c9	 mov	 rcx, r9
  000f2	e8 00 00 00 00	 call	 ast_for_expr

; 1169 :                     if (!expression)

  000f7	48 85 c0	 test	 rax, rax
  000fa	0f 84 e8 00 00
	00		 je	 $error$22543

; 1170 :                         goto error;
; 1171 :                     asdl_seq_SET(kwdefaults, j, expression);
; 1172 :                     i += 2; /* '=' and test */
; 1173 :                 }
; 1174 :                 else { /* setting NULL if no default value exists */

  00100	4c 8b 4c 24 70	 mov	 r9, QWORD PTR c$[rsp]
  00105	83 c3 02	 add	 ebx, 2
  00108	41 83 c5 02	 add	 r13d, 2
  0010c	41 83 c7 02	 add	 r15d, 2
  00110	49 83 c6 50	 add	 r14, 80			; 00000050H
  00114	48 89 06	 mov	 QWORD PTR [rsi], rax
  00117	48 83 c5 50	 add	 rbp, 80			; 00000050H
  0011b	eb 07		 jmp	 SHORT $LN9@handle_key
$LN11@handle_key:

; 1175 :                     asdl_seq_SET(kwdefaults, j, NULL);

  0011d	48 c7 06 00 00
	00 00		 mov	 QWORD PTR [rsi], 0
$LN9@handle_key:

; 1176 :                 }
; 1177 :                 if (NCH(ch) == 3) {

  00124	83 7f 18 03	 cmp	 DWORD PTR [rdi+24], 3
  00128	75 1e		 jne	 SHORT $LN8@handle_key

; 1178 :                     /* ch is NAME ':' test */
; 1179 :                     annotation = ast_for_expr(c, CHILD(ch, 2));

  0012a	48 8b 57 20	 mov	 rdx, QWORD PTR [rdi+32]
  0012e	49 8b c9	 mov	 rcx, r9
  00131	48 83 c2 50	 add	 rdx, 80			; 00000050H
  00135	e8 00 00 00 00	 call	 ast_for_expr
  0013a	4c 8b e0	 mov	 r12, rax

; 1180 :                     if (!annotation)

  0013d	48 85 c0	 test	 rax, rax
  00140	0f 84 a2 00 00
	00		 je	 $error$22543

; 1181 :                         goto error;
; 1182 :                 }
; 1183 :                 else {

  00146	eb 03		 jmp	 SHORT $LN6@handle_key
$LN8@handle_key:

; 1184 :                     annotation = NULL;

  00148	45 33 e4	 xor	 r12d, r12d
$LN6@handle_key:

; 1185 :                 }
; 1186 :                 ch = CHILD(ch, 0);

  0014b	48 8b 47 20	 mov	 rax, QWORD PTR [rdi+32]

; 1187 :                 argname = NEW_IDENTIFIER(ch);

  0014f	48 8b 54 24 70	 mov	 rdx, QWORD PTR c$[rsp]
  00154	48 8b 48 08	 mov	 rcx, QWORD PTR [rax+8]
  00158	48 89 44 24 20	 mov	 QWORD PTR ch$1$[rsp], rax
  0015d	e8 00 00 00 00	 call	 new_identifier
  00162	48 8b f8	 mov	 rdi, rax

; 1188 :                 if (!argname)

  00165	48 85 c0	 test	 rax, rax
  00168	74 7e		 je	 SHORT $error$22543

; 1189 :                     goto error;
; 1190 :                 if (forbidden_name(c, argname, ch, 0))

  0016a	4c 8b 44 24 20	 mov	 r8, QWORD PTR ch$1$[rsp]
  0016f	48 8b 4c 24 70	 mov	 rcx, QWORD PTR c$[rsp]
  00174	45 33 c9	 xor	 r9d, r9d
  00177	48 8b d0	 mov	 rdx, rax
  0017a	e8 00 00 00 00	 call	 forbidden_name
  0017f	85 c0		 test	 eax, eax
  00181	75 65		 jne	 SHORT $error$22543

; 1191 :                     goto error;
; 1192 :                 arg = arg(argname, annotation, c->c_arena);

  00183	48 8b 44 24 70	 mov	 rax, QWORD PTR c$[rsp]
  00188	49 8b d4	 mov	 rdx, r12
  0018b	48 8b cf	 mov	 rcx, rdi
  0018e	4c 8b 40 08	 mov	 r8, QWORD PTR [rax+8]
  00192	e8 00 00 00 00	 call	 _Py_arg

; 1193 :                 if (!arg)

  00197	48 85 c0	 test	 rax, rax
  0019a	74 4c		 je	 SHORT $error$22543

; 1194 :                     goto error;
; 1195 :                 asdl_seq_SET(kwonlyargs, j++, arg);

  0019c	48 8b 8c 24 88
	00 00 00	 mov	 rcx, QWORD PTR kwonlyargs$[rsp]
  001a4	4c 8b 54 24 78	 mov	 r10, QWORD PTR n$[rsp]

; 1196 :                 i += 2; /* the name and the comma */

  001a9	83 c3 02	 add	 ebx, 2
  001ac	48 89 04 31	 mov	 QWORD PTR [rcx+rsi], rax
  001b0	41 8b 52 18	 mov	 edx, DWORD PTR [r10+24]
  001b4	48 83 c6 08	 add	 rsi, 8
  001b8	41 83 c5 02	 add	 r13d, 2
  001bc	41 83 c7 02	 add	 r15d, 2
  001c0	49 83 c6 50	 add	 r14, 80			; 00000050H
  001c4	48 83 c5 50	 add	 rbp, 80			; 00000050H
  001c8	3b da		 cmp	 ebx, edx
  001ca	7d 21		 jge	 SHORT $LN15@handle_key

; 1160 :     }
; 1161 :     assert(kwdefaults != NULL);
; 1162 :     while (i < NCH(n)) {

  001cc	4c 8b 4c 24 70	 mov	 r9, QWORD PTR c$[rsp]
  001d1	e9 da fe ff ff	 jmp	 $LL16@handle_key
$LN26@handle_key:

; 1197 :                 break;
; 1198 :             case DOUBLESTAR:
; 1199 :                 return i;
; 1200 :             default:
; 1201 :                 ast_error(c, ch, "unexpected node");

  001d6	4c 8d 05 00 00
	00 00		 lea	 r8, OFFSET FLAT:??_C@_0BA@JBKEEOMC@unexpected?5node?$AA@
  001dd	48 8b d7	 mov	 rdx, rdi
  001e0	49 8b c9	 mov	 rcx, r9
  001e3	e8 00 00 00 00	 call	 ast_error
$error$22543:

; 1206 :  error:
; 1207 :     return -1;

  001e8	83 c8 ff	 or	 eax, -1
  001eb	eb 02		 jmp	 SHORT $LN34@handle_key
$LN15@handle_key:

; 1202 :                 goto error;
; 1203 :         }
; 1204 :     }
; 1205 :     return i;

  001ed	8b c3		 mov	 eax, ebx
$LN34@handle_key:
  001ef	4c 8b 74 24 38	 mov	 r14, QWORD PTR [rsp+56]
  001f4	4c 8b 6c 24 40	 mov	 r13, QWORD PTR [rsp+64]
  001f9	4c 8b 64 24 48	 mov	 r12, QWORD PTR [rsp+72]
  001fe	48 8b 7c 24 50	 mov	 rdi, QWORD PTR [rsp+80]
  00203	48 8b 74 24 58	 mov	 rsi, QWORD PTR [rsp+88]
  00208	48 8b ac 24 80
	00 00 00	 mov	 rbp, QWORD PTR [rsp+128]
  00210	4c 8b 7c 24 30	 mov	 r15, QWORD PTR [rsp+48]

; 1208 : }

  00215	48 83 c4 60	 add	 rsp, 96			; 00000060H
  00219	5b		 pop	 rbx
  0021a	c3		 ret	 0
handle_keywordonly_args ENDP
_TEXT	ENDS
PUBLIC	??_C@_0CO@BBDJNKDC@non?9default?5argument?5follows?5def@ ; `string'
PUBLIC	??_C@_0CI@EMEDAENJ@unexpected?5node?5in?5varargslist?3?5@ ; `string'
PUBLIC	??_C@_0BI@ENJBOKKG@more?5than?5255?5arguments?$AA@ ; `string'
EXTRN	_Py_arguments:PROC
;	COMDAT pdata
pdata	SEGMENT
$pdata$ast_for_arguments DD imagerel ast_for_arguments
	DD	imagerel ast_for_arguments+307
	DD	imagerel $unwind$ast_for_arguments
pdata	ENDS
;	COMDAT pdata
pdata	SEGMENT
$pdata$0$ast_for_arguments DD imagerel ast_for_arguments+307
	DD	imagerel ast_for_arguments+1322
	DD	imagerel $chain$0$ast_for_arguments
pdata	ENDS
;	COMDAT pdata
pdata	SEGMENT
$pdata$1$ast_for_arguments DD imagerel ast_for_arguments+1322
	DD	imagerel ast_for_arguments+1340
	DD	imagerel $chain$1$ast_for_arguments
pdata	ENDS
;	COMDAT xdata
xdata	SEGMENT
$chain$1$ast_for_arguments DD 021H
	DD	imagerel ast_for_arguments
	DD	imagerel ast_for_arguments+307
	DD	imagerel $unwind$ast_for_arguments
xdata	ENDS
;	COMDAT xdata
xdata	SEGMENT
$chain$0$ast_for_arguments DD 020821H
	DD	018e408H
	DD	imagerel ast_for_arguments
	DD	imagerel ast_for_arguments+307
	DD	imagerel $unwind$ast_for_arguments
xdata	ENDS
;	COMDAT xdata
xdata	SEGMENT
$unwind$ast_for_arguments DD 081201H
	DD	0f00bf212H
	DD	0c007d009H
	DD	060047005H
	DD	030025003H
xdata	ENDS
;	COMDAT ??_C@_0CO@BBDJNKDC@non?9default?5argument?5follows?5def@
CONST	SEGMENT
??_C@_0CO@BBDJNKDC@non?9default?5argument?5follows?5def@ DB 'non-default '
	DB	'argument follows default argument', 00H	; `string'
CONST	ENDS
;	COMDAT ??_C@_0CI@EMEDAENJ@unexpected?5node?5in?5varargslist?3?5@
CONST	SEGMENT
??_C@_0CI@EMEDAENJ@unexpected?5node?5in?5varargslist?3?5@ DB 'unexpected '
	DB	'node in varargslist: %d @ %d', 00H		; `string'
CONST	ENDS
;	COMDAT ??_C@_0BI@ENJBOKKG@more?5than?5255?5arguments?$AA@
CONST	SEGMENT
??_C@_0BI@ENJBOKKG@more?5than?5255?5arguments?$AA@ DB 'more than 255 argu'
	DB	'ments', 00H					; `string'
; Function compile flags: /Ogtpy
CONST	ENDS
;	COMDAT ast_for_arguments
_TEXT	SEGMENT
vararg$1$ = 80
posdefaults$1$ = 88
kwargannotation$1$ = 96
varargannotation$1$ = 104
posargs$1$ = 112
c$ = 192
kwdefaults$1$ = 200
n$ = 200
kwonlyargs$1$ = 208
kwarg$1$ = 216
ast_for_arguments PROC					; COMDAT

; 1214 : {

  00000	40 53		 push	 rbx
  00002	55		 push	 rbp
  00003	56		 push	 rsi
  00004	57		 push	 rdi
  00005	41 54		 push	 r12
  00007	41 55		 push	 r13
  00009	41 57		 push	 r15
  0000b	48 81 ec 80 00
	00 00		 sub	 rsp, 128		; 00000080H

; 1215 :     /* This function handles both typedargslist (function definition)
; 1216 :        and varargslist (lambda definition).
; 1217 : 
; 1218 :        parameters: '(' [typedargslist] ')'
; 1219 :        typedargslist: ((tfpdef ['=' test] ',')*
; 1220 :            ('*' [tfpdef] (',' tfpdef ['=' test])* [',' '**' tfpdef]
; 1221 :            | '**' tfpdef)
; 1222 :            | tfpdef ['=' test] (',' tfpdef ['=' test])* [','])
; 1223 :        tfpdef: NAME [':' test]
; 1224 :        varargslist: ((vfpdef ['=' test] ',')*
; 1225 :            ('*' [vfpdef] (',' vfpdef ['=' test])*  [',' '**' vfpdef]
; 1226 :            | '**' vfpdef)
; 1227 :            | vfpdef ['=' test] (',' vfpdef ['=' test])* [','])
; 1228 :        vfpdef: NAME
; 1229 :     */
; 1230 :     int i, j, k, nposargs = 0, nkwonlyargs = 0;

  00012	45 33 ed	 xor	 r13d, r13d

; 1231 :     int nposdefaults = 0, found_default = 0;
; 1232 :     asdl_seq *posargs, *posdefaults, *kwonlyargs, *kwdefaults;
; 1233 :     identifier vararg = NULL, kwarg = NULL;
; 1234 :     arg_ty arg;
; 1235 :     expr_ty varargannotation = NULL, kwargannotation = NULL;
; 1236 :     node *ch;
; 1237 : 
; 1238 :     if (TYPE(n) == parameters) {

  00015	b8 07 01 00 00	 mov	 eax, 263		; 00000107H
  0001a	48 8b ea	 mov	 rbp, rdx
  0001d	4c 8b e1	 mov	 r12, rcx
  00020	41 8b fd	 mov	 edi, r13d
  00023	41 8b dd	 mov	 ebx, r13d
  00026	41 8b f5	 mov	 esi, r13d
  00029	45 8b fd	 mov	 r15d, r13d
  0002c	4c 89 6c 24 50	 mov	 QWORD PTR vararg$1$[rsp], r13
  00031	4c 89 ac 24 d8
	00 00 00	 mov	 QWORD PTR kwarg$1$[rsp], r13
  00039	4c 89 6c 24 68	 mov	 QWORD PTR varargannotation$1$[rsp], r13
  0003e	4c 89 6c 24 60	 mov	 QWORD PTR kwargannotation$1$[rsp], r13
  00043	66 39 02	 cmp	 WORD PTR [rdx], ax
  00046	75 3f		 jne	 SHORT $LN51@ast_for_ar@2

; 1239 :         if (NCH(n) == 2) /* () as argument list */

  00048	83 7a 18 02	 cmp	 DWORD PTR [rdx+24], 2
  0004c	75 31		 jne	 SHORT $LN50@ast_for_ar@2

; 1240 :             return arguments(NULL, NULL, NULL, NULL, NULL, NULL, NULL,
; 1241 :                              NULL, c->c_arena);

  0004e	48 8b 41 08	 mov	 rax, QWORD PTR [rcx+8]
  00052	45 33 c9	 xor	 r9d, r9d
  00055	45 33 c0	 xor	 r8d, r8d
  00058	48 89 44 24 40	 mov	 QWORD PTR [rsp+64], rax
  0005d	4c 89 6c 24 38	 mov	 QWORD PTR [rsp+56], r13
  00062	4c 89 6c 24 30	 mov	 QWORD PTR [rsp+48], r13
  00067	33 d2		 xor	 edx, edx
  00069	33 c9		 xor	 ecx, ecx
  0006b	4c 89 6c 24 28	 mov	 QWORD PTR [rsp+40], r13
  00070	4c 89 6c 24 20	 mov	 QWORD PTR [rsp+32], r13
  00075	e8 00 00 00 00	 call	 _Py_arguments
  0007a	e9 ab 04 00 00	 jmp	 $LN52@ast_for_ar@2
$LN50@ast_for_ar@2:

; 1242 :         n = CHILD(n, 1);

  0007f	48 8b 6a 20	 mov	 rbp, QWORD PTR [rdx+32]
  00083	48 83 c5 28	 add	 rbp, 40			; 00000028H
$LN51@ast_for_ar@2:

; 1243 :     }
; 1244 :     assert(TYPE(n) == typedargslist || TYPE(n) == varargslist);
; 1245 : 
; 1246 :     /* First count the number of positional args & defaults.  The
; 1247 :        variable i is the loop index for this for loop and the next.
; 1248 :        The next loop picks up where the first leaves off.
; 1249 :     */
; 1250 :     for (i = 0; i < NCH(n); i++) {

  00087	44 8b 4d 18	 mov	 r9d, DWORD PTR [rbp+24]
  0008b	41 ba 0b 01 00
	00		 mov	 r10d, 267		; 0000010bH
  00091	41 8b d5	 mov	 edx, r13d
  00094	45 8d 5a fe	 lea	 r11d, QWORD PTR [r10-2]
  00098	45 85 c9	 test	 r9d, r9d
  0009b	7e 5a		 jle	 SHORT $LN45@ast_for_ar@2
  0009d	4c 8b 45 20	 mov	 r8, QWORD PTR [rbp+32]
  000a1	49 8b c8	 mov	 rcx, r8
$LL49@ast_for_ar@2:

; 1251 :         ch = CHILD(n, i);
; 1252 :         if (TYPE(ch) == STAR) {

  000a4	0f b7 01	 movzx	 eax, WORD PTR [rcx]
  000a7	66 83 f8 10	 cmp	 ax, 16
  000ab	74 29		 je	 SHORT $LN65@ast_for_ar@2

; 1259 :             }
; 1260 :             break;
; 1261 :         }
; 1262 :         if (TYPE(ch) == DOUBLESTAR) break;

  000ad	66 83 f8 23	 cmp	 ax, 35			; 00000023H
  000b1	74 44		 je	 SHORT $LN45@ast_for_ar@2

; 1263 :         if (TYPE(ch) == vfpdef || TYPE(ch) == tfpdef) nposargs++;

  000b3	66 41 3b c2	 cmp	 ax, r10w
  000b7	74 06		 je	 SHORT $LN41@ast_for_ar@2
  000b9	66 41 3b c3	 cmp	 ax, r11w
  000bd	75 02		 jne	 SHORT $LN42@ast_for_ar@2
$LN41@ast_for_ar@2:
  000bf	ff c7		 inc	 edi
$LN42@ast_for_ar@2:

; 1264 :         if (TYPE(ch) == EQUAL) nposdefaults++;

  000c1	66 83 f8 16	 cmp	 ax, 22
  000c5	75 02		 jne	 SHORT $LN48@ast_for_ar@2
  000c7	ff c6		 inc	 esi
$LN48@ast_for_ar@2:

; 1243 :     }
; 1244 :     assert(TYPE(n) == typedargslist || TYPE(n) == varargslist);
; 1245 : 
; 1246 :     /* First count the number of positional args & defaults.  The
; 1247 :        variable i is the loop index for this for loop and the next.
; 1248 :        The next loop picks up where the first leaves off.
; 1249 :     */
; 1250 :     for (i = 0; i < NCH(n); i++) {

  000c9	ff c2		 inc	 edx
  000cb	48 83 c1 28	 add	 rcx, 40			; 00000028H
  000cf	41 3b d1	 cmp	 edx, r9d
  000d2	7c d0		 jl	 SHORT $LL49@ast_for_ar@2

; 1364 :                         if (res == -1) return NULL;

  000d4	eb 21		 jmp	 SHORT $LN45@ast_for_ar@2
$LN65@ast_for_ar@2:

; 1253 :             /* skip star */
; 1254 :             i++;

  000d6	ff c2		 inc	 edx

; 1255 :             if (i < NCH(n) && /* skip argument following star */
; 1256 :                 (TYPE(CHILD(n, i)) == tfpdef ||
; 1257 :                  TYPE(CHILD(n, i)) == vfpdef)) {

  000d8	41 3b d1	 cmp	 edx, r9d
  000db	7d 1a		 jge	 SHORT $LN45@ast_for_ar@2
  000dd	48 63 c2	 movsxd	 rax, edx
  000e0	48 8d 0c 80	 lea	 rcx, QWORD PTR [rax+rax*4]
  000e4	41 0f b7 04 c8	 movzx	 eax, WORD PTR [r8+rcx*8]
  000e9	66 41 3b c3	 cmp	 ax, r11w
  000ed	74 06		 je	 SHORT $LN44@ast_for_ar@2
  000ef	66 41 3b c2	 cmp	 ax, r10w
  000f3	75 02		 jne	 SHORT $LN45@ast_for_ar@2
$LN44@ast_for_ar@2:

; 1258 :                 i++;

  000f5	ff c2		 inc	 edx
$LN45@ast_for_ar@2:
  000f7	48 63 c2	 movsxd	 rax, edx

; 1265 :     }
; 1266 :     /* count the number of keyword only args &
; 1267 :        defaults for keyword only args */
; 1268 :     for ( ; i < NCH(n); ++i) {

  000fa	41 3b d1	 cmp	 edx, r9d
  000fd	7d 34		 jge	 SHORT $LN88@ast_for_ar@2
  000ff	48 8d 0c 80	 lea	 rcx, QWORD PTR [rax+rax*4]
  00103	48 8b 45 20	 mov	 rax, QWORD PTR [rbp+32]
  00107	4c 8d 04 c8	 lea	 r8, QWORD PTR [rax+rcx*8]
  0010b	0f 1f 44 00 00	 npad	 5
$LL39@ast_for_ar@2:

; 1269 :         ch = CHILD(n, i);
; 1270 :         if (TYPE(ch) == DOUBLESTAR) break;

  00110	41 0f b7 00	 movzx	 eax, WORD PTR [r8]
  00114	66 83 f8 23	 cmp	 ax, 35			; 00000023H
  00118	74 19		 je	 SHORT $LN88@ast_for_ar@2

; 1271 :         if (TYPE(ch) == tfpdef || TYPE(ch) == vfpdef) nkwonlyargs++;

  0011a	66 41 3b c3	 cmp	 ax, r11w
  0011e	74 06		 je	 SHORT $LN34@ast_for_ar@2
  00120	66 41 3b c2	 cmp	 ax, r10w
  00124	75 02		 jne	 SHORT $LN38@ast_for_ar@2
$LN34@ast_for_ar@2:
  00126	ff c3		 inc	 ebx
$LN38@ast_for_ar@2:

; 1265 :     }
; 1266 :     /* count the number of keyword only args &
; 1267 :        defaults for keyword only args */
; 1268 :     for ( ; i < NCH(n); ++i) {

  00128	ff c2		 inc	 edx
  0012a	49 83 c0 28	 add	 r8, 40			; 00000028H
  0012e	41 3b d1	 cmp	 edx, r9d
  00131	7c dd		 jl	 SHORT $LL39@ast_for_ar@2
$LN88@ast_for_ar@2:
  00133	4c 89 b4 24 c0
	00 00 00	 mov	 QWORD PTR [rsp+192], r14

; 1272 :     }
; 1273 :     posargs = (nposargs ? asdl_seq_new(nposargs, c->c_arena) : NULL);

  0013b	85 ff		 test	 edi, edi
  0013d	74 1f		 je	 SHORT $LN54@ast_for_ar@2
  0013f	49 8b 54 24 08	 mov	 rdx, QWORD PTR [r12+8]
  00144	48 63 cf	 movsxd	 rcx, edi
  00147	e8 00 00 00 00	 call	 asdl_seq_new
  0014c	4c 8b f0	 mov	 r14, rax
  0014f	48 89 44 24 70	 mov	 QWORD PTR posargs$1$[rsp], rax

; 1274 :     if (!posargs && nposargs)

  00154	48 85 c0	 test	 rax, rax
  00157	75 0d		 jne	 SHORT $LN33@ast_for_ar@2

; 1275 :         return NULL;

  00159	e9 c4 03 00 00	 jmp	 $LN92@ast_for_ar@2
$LN54@ast_for_ar@2:

; 1272 :     }
; 1273 :     posargs = (nposargs ? asdl_seq_new(nposargs, c->c_arena) : NULL);

  0015e	4d 8b f5	 mov	 r14, r13
  00161	4c 89 6c 24 70	 mov	 QWORD PTR posargs$1$[rsp], r13
$LN33@ast_for_ar@2:

; 1276 :     kwonlyargs = (nkwonlyargs ?
; 1277 :                    asdl_seq_new(nkwonlyargs, c->c_arena) : NULL);

  00166	85 db		 test	 ebx, ebx
  00168	74 1f		 je	 SHORT $LN56@ast_for_ar@2
  0016a	49 8b 54 24 08	 mov	 rdx, QWORD PTR [r12+8]
  0016f	48 63 cb	 movsxd	 rcx, ebx
  00172	e8 00 00 00 00	 call	 asdl_seq_new
  00177	48 89 84 24 d0
	00 00 00	 mov	 QWORD PTR kwonlyargs$1$[rsp], rax

; 1278 :     if (!kwonlyargs && nkwonlyargs)

  0017f	48 85 c0	 test	 rax, rax
  00182	75 0d		 jne	 SHORT $LN32@ast_for_ar@2

; 1279 :         return NULL;

  00184	e9 99 03 00 00	 jmp	 $LN92@ast_for_ar@2
$LN56@ast_for_ar@2:

; 1276 :     kwonlyargs = (nkwonlyargs ?
; 1277 :                    asdl_seq_new(nkwonlyargs, c->c_arena) : NULL);

  00189	4c 89 ac 24 d0
	00 00 00	 mov	 QWORD PTR kwonlyargs$1$[rsp], r13
$LN32@ast_for_ar@2:

; 1280 :     posdefaults = (nposdefaults ?
; 1281 :                     asdl_seq_new(nposdefaults, c->c_arena) : NULL);

  00191	85 f6		 test	 esi, esi
  00193	74 1f		 je	 SHORT $LN58@ast_for_ar@2
  00195	49 8b 54 24 08	 mov	 rdx, QWORD PTR [r12+8]
  0019a	48 63 ce	 movsxd	 rcx, esi
  0019d	e8 00 00 00 00	 call	 asdl_seq_new
  001a2	48 8b f0	 mov	 rsi, rax
  001a5	48 89 44 24 58	 mov	 QWORD PTR posdefaults$1$[rsp], rax

; 1282 :     if (!posdefaults && nposdefaults)

  001aa	48 85 c0	 test	 rax, rax
  001ad	75 0d		 jne	 SHORT $LN31@ast_for_ar@2

; 1283 :         return NULL;

  001af	e9 6e 03 00 00	 jmp	 $LN92@ast_for_ar@2
$LN58@ast_for_ar@2:

; 1280 :     posdefaults = (nposdefaults ?
; 1281 :                     asdl_seq_new(nposdefaults, c->c_arena) : NULL);

  001b4	49 8b f5	 mov	 rsi, r13
  001b7	4c 89 6c 24 58	 mov	 QWORD PTR posdefaults$1$[rsp], r13
$LN31@ast_for_ar@2:

; 1284 :     /* The length of kwonlyargs and kwdefaults are same
; 1285 :        since we set NULL as default for keyword only argument w/o default
; 1286 :        - we have sequence data structure, but no dictionary */
; 1287 :     kwdefaults = (nkwonlyargs ?
; 1288 :                    asdl_seq_new(nkwonlyargs, c->c_arena) : NULL);

  001bc	85 db		 test	 ebx, ebx
  001be	74 22		 je	 SHORT $LN60@ast_for_ar@2
  001c0	49 8b 54 24 08	 mov	 rdx, QWORD PTR [r12+8]
  001c5	48 63 cb	 movsxd	 rcx, ebx
  001c8	e8 00 00 00 00	 call	 asdl_seq_new
  001cd	4c 8b c8	 mov	 r9, rax
  001d0	48 89 84 24 c8
	00 00 00	 mov	 QWORD PTR kwdefaults$1$[rsp], rax

; 1289 :     if (!kwdefaults && nkwonlyargs)

  001d8	48 85 c0	 test	 rax, rax
  001db	75 10		 jne	 SHORT $LN30@ast_for_ar@2

; 1290 :         return NULL;

  001dd	e9 40 03 00 00	 jmp	 $LN92@ast_for_ar@2
$LN60@ast_for_ar@2:

; 1284 :     /* The length of kwonlyargs and kwdefaults are same
; 1285 :        since we set NULL as default for keyword only argument w/o default
; 1286 :        - we have sequence data structure, but no dictionary */
; 1287 :     kwdefaults = (nkwonlyargs ?
; 1288 :                    asdl_seq_new(nkwonlyargs, c->c_arena) : NULL);

  001e2	4d 8b cd	 mov	 r9, r13
  001e5	4c 89 ac 24 c8
	00 00 00	 mov	 QWORD PTR kwdefaults$1$[rsp], r13
$LN30@ast_for_ar@2:

; 1291 : 
; 1292 :     if (nposargs + nkwonlyargs > 255) {

  001ed	8d 04 3b	 lea	 eax, DWORD PTR [rbx+rdi]
  001f0	3d ff 00 00 00	 cmp	 eax, 255		; 000000ffH
  001f5	7e 19		 jle	 SHORT $LN29@ast_for_ar@2

; 1293 :         ast_error(c, n, "more than 255 arguments");

  001f7	4c 8d 05 00 00
	00 00		 lea	 r8, OFFSET FLAT:??_C@_0BI@ENJBOKKG@more?5than?5255?5arguments?$AA@
  001fe	48 8b d5	 mov	 rdx, rbp
  00201	49 8b cc	 mov	 rcx, r12
  00204	e8 00 00 00 00	 call	 ast_error

; 1294 :         return NULL;

  00209	33 c0		 xor	 eax, eax
  0020b	e9 12 03 00 00	 jmp	 $LN92@ast_for_ar@2
$LN29@ast_for_ar@2:

; 1301 :     j = 0;  /* index for defaults */
; 1302 :     k = 0;  /* index for args */
; 1303 :     while (i < NCH(n)) {

  00210	8b 55 18	 mov	 edx, DWORD PTR [rbp+24]
  00213	41 8b dd	 mov	 ebx, r13d
  00216	85 d2		 test	 edx, edx
  00218	0f 8e b2 02 00
	00		 jle	 $LN89@ast_for_ar@2

; 1295 :     }
; 1296 : 
; 1297 :     /* tfpdef: NAME [':' test]
; 1298 :        vfpdef: NAME
; 1299 :     */
; 1300 :     i = 0;

  0021e	49 83 c6 08	 add	 r14, 8
  00222	4c 8d 7e 08	 lea	 r15, QWORD PTR [rsi+8]
  00226	66 66 0f 1f 84
	00 00 00 00 00	 npad	 10
$LL28@ast_for_ar@2:

; 1304 :         ch = CHILD(n, i);

  00230	48 8b 7d 20	 mov	 rdi, QWORD PTR [rbp+32]
  00234	4c 63 c3	 movsxd	 r8, ebx
  00237	4b 8d 04 80	 lea	 rax, QWORD PTR [r8+r8*4]

; 1305 :         switch (TYPE(ch)) {

  0023b	0f bf 0c c7	 movsx	 ecx, WORD PTR [rdi+rax*8]
  0023f	48 8d 34 c7	 lea	 rsi, QWORD PTR [rdi+rax*8]
  00243	83 e9 10	 sub	 ecx, 16
  00246	0f 84 1f 01 00
	00		 je	 $LN18@ast_for_ar@2
  0024c	83 e9 13	 sub	 ecx, 19
  0024f	0f 84 99 00 00
	00		 je	 $LN6@ast_for_ar@2
  00255	81 e9 e6 00 00
	00		 sub	 ecx, 230		; 000000e6H
  0025b	74 09		 je	 SHORT $LN24@ast_for_ar@2
  0025d	83 f9 02	 cmp	 ecx, 2
  00260	0f 85 0e 02 00
	00		 jne	 $LN86@ast_for_ar@2
$LN24@ast_for_ar@2:

; 1306 :             case tfpdef:
; 1307 :             case vfpdef:
; 1308 :                 /* XXX Need to worry about checking if TYPE(CHILD(n, i+1)) is
; 1309 :                    anything other than EQUAL or a comma? */
; 1310 :                 /* XXX Should NCH(n) check be made a separate check? */
; 1311 :                 if (i + 1 < NCH(n) && TYPE(CHILD(n, i + 1)) == EQUAL) {

  00266	8d 43 01	 lea	 eax, DWORD PTR [rbx+1]
  00269	3b c2		 cmp	 eax, edx
  0026b	7d 3a		 jge	 SHORT $LN23@ast_for_ar@2
  0026d	4b 8d 44 80 05	 lea	 rax, QWORD PTR [r8+r8*4+5]
  00272	66 83 3c c7 16	 cmp	 WORD PTR [rdi+rax*8], 22
  00277	75 2e		 jne	 SHORT $LN23@ast_for_ar@2

; 1312 :                     expr_ty expression = ast_for_expr(c, CHILD(n, i + 2));

  00279	83 c3 02	 add	 ebx, 2
  0027c	48 63 c3	 movsxd	 rax, ebx
  0027f	48 8d 0c 80	 lea	 rcx, QWORD PTR [rax+rax*4]
  00283	48 8d 14 cf	 lea	 rdx, QWORD PTR [rdi+rcx*8]
  00287	49 8b cc	 mov	 rcx, r12
  0028a	e8 00 00 00 00	 call	 ast_for_expr

; 1313 :                     if (!expression)

  0028f	48 85 c0	 test	 rax, rax
  00292	0f 84 34 02 00
	00		 je	 $LN76@ast_for_ar@2

; 1314 :                         return NULL;
; 1315 :                     assert(posdefaults != NULL);
; 1316 :                     asdl_seq_SET(posdefaults, j++, expression);

  00298	49 89 07	 mov	 QWORD PTR [r15], rax
  0029b	49 83 c7 08	 add	 r15, 8

; 1317 :                     i += 2;
; 1318 :                     found_default = 1;

  0029f	41 bd 01 00 00
	00		 mov	 r13d, 1
  002a5	eb 09		 jmp	 SHORT $LN20@ast_for_ar@2
$LN23@ast_for_ar@2:

; 1319 :                 }
; 1320 :                 else if (found_default) {

  002a7	45 85 ed	 test	 r13d, r13d
  002aa	0f 85 e5 01 00
	00		 jne	 $LN69@ast_for_ar@2
$LN20@ast_for_ar@2:

; 1324 :                 }
; 1325 :                 arg = ast_for_arg(c, ch);

  002b0	48 8b d6	 mov	 rdx, rsi
  002b3	49 8b cc	 mov	 rcx, r12
  002b6	e8 00 00 00 00	 call	 ast_for_arg

; 1326 :                 if (!arg)

  002bb	48 85 c0	 test	 rax, rax
  002be	0f 84 08 02 00
	00		 je	 $LN76@ast_for_ar@2

; 1327 :                     return NULL;
; 1328 :                 asdl_seq_SET(posargs, k++, arg);

  002c4	49 89 06	 mov	 QWORD PTR [r14], rax
  002c7	49 83 c6 08	 add	 r14, 8

; 1329 :                 i += 2; /* the name and the comma */

  002cb	83 c3 02	 add	 ebx, 2
$LN91@ast_for_ar@2:

; 1344 :                     i = res; /* res has new position to process */
; 1345 :                 }
; 1346 :                 else {

  002ce	48 8b bc 24 c8
	00 00 00	 mov	 rdi, QWORD PTR kwdefaults$1$[rsp]
$LN9@ast_for_ar@2:

; 1301 :     j = 0;  /* index for defaults */
; 1302 :     k = 0;  /* index for args */
; 1303 :     while (i < NCH(n)) {

  002d6	8b 55 18	 mov	 edx, DWORD PTR [rbp+24]
  002d9	3b da		 cmp	 ebx, edx
  002db	0f 8d ca 01 00
	00		 jge	 $LN87@ast_for_ar@2
  002e1	4c 8b 8c 24 c8
	00 00 00	 mov	 r9, QWORD PTR kwdefaults$1$[rsp]
  002e9	e9 42 ff ff ff	 jmp	 $LL28@ast_for_ar@2
$LN6@ast_for_ar@2:

; 1366 :                     }
; 1367 :                 }
; 1368 :                 break;
; 1369 :             case DOUBLESTAR:
; 1370 :                 ch = CHILD(n, i+1);  /* tfpdef */

  002ee	8d 43 01	 lea	 eax, DWORD PTR [rbx+1]

; 1371 :                 assert(TYPE(ch) == tfpdef || TYPE(ch) == vfpdef);
; 1372 :                 kwarg = NEW_IDENTIFIER(CHILD(ch, 0));

  002f1	49 8b d4	 mov	 rdx, r12
  002f4	48 63 c8	 movsxd	 rcx, eax
  002f7	48 8d 34 89	 lea	 rsi, QWORD PTR [rcx+rcx*4]
  002fb	48 8b 4c f7 20	 mov	 rcx, QWORD PTR [rdi+rsi*8+32]
  00300	48 8b 49 08	 mov	 rcx, QWORD PTR [rcx+8]
  00304	e8 00 00 00 00	 call	 new_identifier
  00309	48 89 84 24 d8
	00 00 00	 mov	 QWORD PTR kwarg$1$[rsp], rax

; 1373 :                 if (!kwarg)

  00311	48 85 c0	 test	 rax, rax
  00314	0f 84 b2 01 00
	00		 je	 $LN76@ast_for_ar@2

; 1374 :                     return NULL;
; 1375 :                 if (NCH(ch) > 1) {

  0031a	83 7c f7 18 01	 cmp	 DWORD PTR [rdi+rsi*8+24], 1
  0031f	7e 27		 jle	 SHORT $LN3@ast_for_ar@2

; 1376 :                     /* there is an annotation on the kwarg */
; 1377 :                     kwargannotation = ast_for_expr(c, CHILD(ch, 2));

  00321	48 8b 54 f7 20	 mov	 rdx, QWORD PTR [rdi+rsi*8+32]
  00326	49 8b cc	 mov	 rcx, r12
  00329	48 83 c2 50	 add	 rdx, 80			; 00000050H
  0032d	e8 00 00 00 00	 call	 ast_for_expr
  00332	48 89 44 24 60	 mov	 QWORD PTR kwargannotation$1$[rsp], rax

; 1378 :                     if (!kwargannotation)

  00337	48 85 c0	 test	 rax, rax
  0033a	0f 84 8c 01 00
	00		 je	 $LN76@ast_for_ar@2
  00340	48 8b 84 24 d8
	00 00 00	 mov	 rax, QWORD PTR kwarg$1$[rsp]
$LN3@ast_for_ar@2:

; 1379 :                         return NULL;
; 1380 :                 }
; 1381 :                 if (forbidden_name(c, kwarg, CHILD(ch, 0), 0))

  00348	4c 8b 44 f7 20	 mov	 r8, QWORD PTR [rdi+rsi*8+32]
  0034d	45 33 c9	 xor	 r9d, r9d
  00350	48 8b d0	 mov	 rdx, rax
  00353	49 8b cc	 mov	 rcx, r12
  00356	e8 00 00 00 00	 call	 forbidden_name
  0035b	85 c0		 test	 eax, eax
  0035d	0f 85 69 01 00
	00		 jne	 $LN76@ast_for_ar@2

; 1382 :                     return NULL;
; 1383 :                 i += 3;

  00363	83 c3 03	 add	 ebx, 3

; 1384 :                 break;

  00366	e9 63 ff ff ff	 jmp	 $LN91@ast_for_ar@2
$LN18@ast_for_ar@2:

; 1330 :                 break;
; 1331 :             case STAR:
; 1332 :                 if (i+1 >= NCH(n)) {

  0036b	8d 43 01	 lea	 eax, DWORD PTR [rbx+1]
  0036e	3b c2		 cmp	 eax, edx
  00370	0f 8d 3c 01 00
	00		 jge	 $LN74@ast_for_ar@2

; 1336 :                 }
; 1337 :                 ch = CHILD(n, i+1);  /* tfpdef or COMMA */

  00376	48 98		 cdqe
  00378	48 8d 34 80	 lea	 rsi, QWORD PTR [rax+rax*4]

; 1338 :                 if (TYPE(ch) == COMMA) {

  0037c	66 83 3c f7 0c	 cmp	 WORD PTR [rdi+rsi*8], 12
  00381	75 2c		 jne	 SHORT $LN16@ast_for_ar@2

; 1339 :                     int res = 0;
; 1340 :                     i += 2; /* now follows keyword only arguments */
; 1341 :                     res = handle_keywordonly_args(c, n, i,
; 1342 :                                                   kwonlyargs, kwdefaults);

  00383	4c 89 4c 24 20	 mov	 QWORD PTR [rsp+32], r9
  00388	4c 8b 8c 24 d0
	00 00 00	 mov	 r9, QWORD PTR kwonlyargs$1$[rsp]
  00390	44 8d 43 02	 lea	 r8d, DWORD PTR [rbx+2]
  00394	48 8b d5	 mov	 rdx, rbp
  00397	49 8b cc	 mov	 rcx, r12
  0039a	e8 00 00 00 00	 call	 handle_keywordonly_args
  0039f	8b d8		 mov	 ebx, eax

; 1343 :                     if (res == -1) return NULL;

  003a1	83 f8 ff	 cmp	 eax, -1
  003a4	0f 84 22 01 00
	00		 je	 $LN76@ast_for_ar@2

; 1344 :                     i = res; /* res has new position to process */
; 1345 :                 }
; 1346 :                 else {

  003aa	e9 1f ff ff ff	 jmp	 $LN91@ast_for_ar@2
$LN16@ast_for_ar@2:

; 1347 :                     vararg = NEW_IDENTIFIER(CHILD(ch, 0));

  003af	48 8b 4c f7 20	 mov	 rcx, QWORD PTR [rdi+rsi*8+32]
  003b4	49 8b d4	 mov	 rdx, r12
  003b7	48 8b 49 08	 mov	 rcx, QWORD PTR [rcx+8]
  003bb	e8 00 00 00 00	 call	 new_identifier
  003c0	48 89 44 24 50	 mov	 QWORD PTR vararg$1$[rsp], rax

; 1348 :                     if (!vararg)

  003c5	48 85 c0	 test	 rax, rax
  003c8	0f 84 fe 00 00
	00		 je	 $LN76@ast_for_ar@2

; 1349 :                         return NULL;
; 1350 :                     if (forbidden_name(c, vararg, CHILD(ch, 0), 0))

  003ce	4c 8b 44 f7 20	 mov	 r8, QWORD PTR [rdi+rsi*8+32]
  003d3	45 33 c9	 xor	 r9d, r9d
  003d6	48 8b d0	 mov	 rdx, rax
  003d9	49 8b cc	 mov	 rcx, r12
  003dc	e8 00 00 00 00	 call	 forbidden_name
  003e1	85 c0		 test	 eax, eax
  003e3	0f 85 e3 00 00
	00		 jne	 $LN76@ast_for_ar@2

; 1351 :                         return NULL;
; 1352 :                     if (NCH(ch) > 1) {

  003e9	83 7c f7 18 01	 cmp	 DWORD PTR [rdi+rsi*8+24], 1
  003ee	7e 1f		 jle	 SHORT $LN10@ast_for_ar@2

; 1353 :                         /* there is an annotation on the vararg */
; 1354 :                         varargannotation = ast_for_expr(c, CHILD(ch, 2));

  003f0	48 8b 54 f7 20	 mov	 rdx, QWORD PTR [rdi+rsi*8+32]
  003f5	49 8b cc	 mov	 rcx, r12
  003f8	48 83 c2 50	 add	 rdx, 80			; 00000050H
  003fc	e8 00 00 00 00	 call	 ast_for_expr
  00401	48 89 44 24 68	 mov	 QWORD PTR varargannotation$1$[rsp], rax

; 1355 :                         if (!varargannotation)

  00406	48 85 c0	 test	 rax, rax
  00409	0f 84 bd 00 00
	00		 je	 $LN76@ast_for_ar@2
$LN10@ast_for_ar@2:

; 1356 :                             return NULL;
; 1357 :                     }
; 1358 :                     i += 3;

  0040f	83 c3 03	 add	 ebx, 3

; 1359 :                     if (i < NCH(n) && (TYPE(CHILD(n, i)) == tfpdef
; 1360 :                                     || TYPE(CHILD(n, i)) == vfpdef)) {

  00412	3b 5d 18	 cmp	 ebx, DWORD PTR [rbp+24]
  00415	0f 8d b3 fe ff
	ff		 jge	 $LN91@ast_for_ar@2
  0041b	48 63 cb	 movsxd	 rcx, ebx
  0041e	b8 09 01 00 00	 mov	 eax, 265		; 00000109H
  00423	48 8d 14 89	 lea	 rdx, QWORD PTR [rcx+rcx*4]
  00427	48 8b 4d 20	 mov	 rcx, QWORD PTR [rbp+32]
  0042b	44 0f b7 04 d1	 movzx	 r8d, WORD PTR [rcx+rdx*8]
  00430	66 44 3b c0	 cmp	 r8w, ax
  00434	74 0f		 je	 SHORT $LN8@ast_for_ar@2
  00436	b8 0b 01 00 00	 mov	 eax, 267		; 0000010bH
  0043b	66 44 3b c0	 cmp	 r8w, ax
  0043f	0f 85 89 fe ff
	ff		 jne	 $LN91@ast_for_ar@2
$LN8@ast_for_ar@2:

; 1361 :                         int res = 0;
; 1362 :                         res = handle_keywordonly_args(c, n, i,
; 1363 :                                                       kwonlyargs, kwdefaults);

  00445	48 8b bc 24 c8
	00 00 00	 mov	 rdi, QWORD PTR kwdefaults$1$[rsp]
  0044d	4c 8b 8c 24 d0
	00 00 00	 mov	 r9, QWORD PTR kwonlyargs$1$[rsp]
  00455	44 8b c3	 mov	 r8d, ebx
  00458	48 8b d5	 mov	 rdx, rbp
  0045b	49 8b cc	 mov	 rcx, r12
  0045e	48 89 7c 24 20	 mov	 QWORD PTR [rsp+32], rdi
  00463	e8 00 00 00 00	 call	 handle_keywordonly_args
  00468	8b d8		 mov	 ebx, eax

; 1364 :                         if (res == -1) return NULL;

  0046a	83 f8 ff	 cmp	 eax, -1
  0046d	74 5d		 je	 SHORT $LN76@ast_for_ar@2

; 1365 :                         i = res; /* res has new position to process */

  0046f	e9 62 fe ff ff	 jmp	 $LN9@ast_for_ar@2
$LN86@ast_for_ar@2:

; 1385 :             default:
; 1386 :                 PyErr_Format(PyExc_SystemError,
; 1387 :                              "unexpected node in varargslist: %d @ %d",
; 1388 :                              TYPE(ch), i);

  00474	44 0f bf 06	 movsx	 r8d, WORD PTR [rsi]
  00478	48 8b 0d 00 00
	00 00		 mov	 rcx, QWORD PTR PyExc_SystemError
  0047f	48 8d 15 00 00
	00 00		 lea	 rdx, OFFSET FLAT:??_C@_0CI@EMEDAENJ@unexpected?5node?5in?5varargslist?3?5@
  00486	44 8b cb	 mov	 r9d, ebx
  00489	e8 00 00 00 00	 call	 PyErr_Format

; 1389 :                 return NULL;

  0048e	33 c0		 xor	 eax, eax
  00490	e9 8d 00 00 00	 jmp	 $LN92@ast_for_ar@2
$LN69@ast_for_ar@2:

; 1321 :                     ast_error(c, n,
; 1322 :                              "non-default argument follows default argument");

  00495	4c 8d 05 00 00
	00 00		 lea	 r8, OFFSET FLAT:??_C@_0CO@BBDJNKDC@non?9default?5argument?5follows?5def@
  0049c	48 8b d5	 mov	 rdx, rbp
  0049f	49 8b cc	 mov	 rcx, r12
  004a2	e8 00 00 00 00	 call	 ast_error

; 1323 :                     return NULL;

  004a7	33 c0		 xor	 eax, eax
  004a9	eb 77		 jmp	 SHORT $LN92@ast_for_ar@2
$LN87@ast_for_ar@2:

; 1364 :                         if (res == -1) return NULL;

  004ab	4c 8b 7c 24 50	 mov	 r15, QWORD PTR vararg$1$[rsp]
  004b0	eb 26		 jmp	 SHORT $LN27@ast_for_ar@2
$LN74@ast_for_ar@2:

; 1333 :                     ast_error(c, CHILD(n, i),
; 1334 :                         "named arguments must follow bare *");

  004b2	48 63 c3	 movsxd	 rax, ebx
  004b5	4c 8d 05 00 00
	00 00		 lea	 r8, OFFSET FLAT:??_C@_0CD@MPPDOCEK@named?5arguments?5must?5follow?5bare@
  004bc	48 8d 0c 80	 lea	 rcx, QWORD PTR [rax+rax*4]
  004c0	48 8d 14 cf	 lea	 rdx, QWORD PTR [rdi+rcx*8]
  004c4	49 8b cc	 mov	 rcx, r12
  004c7	e8 00 00 00 00	 call	 ast_error
$LN76@ast_for_ar@2:

; 1335 :                     return NULL;

  004cc	33 c0		 xor	 eax, eax
  004ce	eb 52		 jmp	 SHORT $LN92@ast_for_ar@2
$LN89@ast_for_ar@2:
  004d0	48 8b bc 24 c8
	00 00 00	 mov	 rdi, QWORD PTR kwdefaults$1$[rsp]
$LN27@ast_for_ar@2:

; 1390 :         }
; 1391 :     }
; 1392 :     return arguments(posargs, vararg, varargannotation, kwonlyargs, kwarg,
; 1393 :                     kwargannotation, posdefaults, kwdefaults, c->c_arena);

  004d8	49 8b 44 24 08	 mov	 rax, QWORD PTR [r12+8]
  004dd	4c 8b 8c 24 d0
	00 00 00	 mov	 r9, QWORD PTR kwonlyargs$1$[rsp]
  004e5	4c 8b 44 24 68	 mov	 r8, QWORD PTR varargannotation$1$[rsp]
  004ea	48 8b 4c 24 70	 mov	 rcx, QWORD PTR posargs$1$[rsp]
  004ef	48 89 44 24 40	 mov	 QWORD PTR [rsp+64], rax
  004f4	48 8b 44 24 58	 mov	 rax, QWORD PTR posdefaults$1$[rsp]
  004f9	48 89 7c 24 38	 mov	 QWORD PTR [rsp+56], rdi
  004fe	48 89 44 24 30	 mov	 QWORD PTR [rsp+48], rax
  00503	48 8b 44 24 60	 mov	 rax, QWORD PTR kwargannotation$1$[rsp]
  00508	48 89 44 24 28	 mov	 QWORD PTR [rsp+40], rax
  0050d	48 8b 84 24 d8
	00 00 00	 mov	 rax, QWORD PTR kwarg$1$[rsp]
  00515	49 8b d7	 mov	 rdx, r15
  00518	48 89 44 24 20	 mov	 QWORD PTR [rsp+32], rax
  0051d	e8 00 00 00 00	 call	 _Py_arguments
$LN92@ast_for_ar@2:
  00522	4c 8b b4 24 c0
	00 00 00	 mov	 r14, QWORD PTR [rsp+192]
$LN52@ast_for_ar@2:

; 1394 : }

  0052a	48 81 c4 80 00
	00 00		 add	 rsp, 128		; 00000080H
  00531	41 5f		 pop	 r15
  00533	41 5d		 pop	 r13
  00535	41 5c		 pop	 r12
  00537	5f		 pop	 rdi
  00538	5e		 pop	 rsi
  00539	5d		 pop	 rbp
  0053a	5b		 pop	 rbx
  0053b	c3		 ret	 0
ast_for_arguments ENDP
_TEXT	ENDS
EXTRN	_Py_Attribute:PROC
EXTRN	_Py_Name:PROC
;	COMDAT pdata
pdata	SEGMENT
$pdata$ast_for_dotted_name DD imagerel ast_for_dotted_name
	DD	imagerel ast_for_dotted_name+82
	DD	imagerel $unwind$ast_for_dotted_name
pdata	ENDS
;	COMDAT pdata
pdata	SEGMENT
$pdata$0$ast_for_dotted_name DD imagerel ast_for_dotted_name+82
	DD	imagerel ast_for_dotted_name+105
	DD	imagerel $chain$0$ast_for_dotted_name
pdata	ENDS
;	COMDAT pdata
pdata	SEGMENT
$pdata$2$ast_for_dotted_name DD imagerel ast_for_dotted_name+105
	DD	imagerel ast_for_dotted_name+219
	DD	imagerel $chain$2$ast_for_dotted_name
pdata	ENDS
;	COMDAT pdata
pdata	SEGMENT
$pdata$3$ast_for_dotted_name DD imagerel ast_for_dotted_name+219
	DD	imagerel ast_for_dotted_name+239
	DD	imagerel $chain$3$ast_for_dotted_name
pdata	ENDS
;	COMDAT pdata
pdata	SEGMENT
$pdata$5$ast_for_dotted_name DD imagerel ast_for_dotted_name+239
	DD	imagerel ast_for_dotted_name+243
	DD	imagerel $chain$5$ast_for_dotted_name
pdata	ENDS
;	COMDAT xdata
xdata	SEGMENT
$chain$5$ast_for_dotted_name DD 060021H
	DD	0cc400H
	DD	0b7400H
	DD	0a3400H
	DD	imagerel ast_for_dotted_name
	DD	imagerel ast_for_dotted_name+82
	DD	imagerel $unwind$ast_for_dotted_name
xdata	ENDS
;	COMDAT xdata
xdata	SEGMENT
$chain$3$ast_for_dotted_name DD 021H
	DD	imagerel ast_for_dotted_name+82
	DD	imagerel ast_for_dotted_name+105
	DD	imagerel $chain$0$ast_for_dotted_name
xdata	ENDS
;	COMDAT xdata
xdata	SEGMENT
$chain$2$ast_for_dotted_name DD 040f21H
	DD	0b740fH
	DD	0a3405H
	DD	imagerel ast_for_dotted_name+82
	DD	imagerel ast_for_dotted_name+105
	DD	imagerel $chain$0$ast_for_dotted_name
xdata	ENDS
;	COMDAT xdata
xdata	SEGMENT
$chain$0$ast_for_dotted_name DD 020521H
	DD	0cc405H
	DD	imagerel ast_for_dotted_name
	DD	imagerel ast_for_dotted_name+82
	DD	imagerel $unwind$ast_for_dotted_name
xdata	ENDS
;	COMDAT xdata
xdata	SEGMENT
$unwind$ast_for_dotted_name DD 060e01H
	DD	0d540eH
	DD	0e00a520eH
	DD	06006d008H
; Function compile flags: /Ogtpy
xdata	ENDS
;	COMDAT ast_for_dotted_name
_TEXT	SEGMENT
c$ = 80
n$ = 88
ast_for_dotted_name PROC				; COMDAT

; 1398 : {

  00000	48 89 6c 24 20	 mov	 QWORD PTR [rsp+32], rbp
  00005	56		 push	 rsi
  00006	41 55		 push	 r13
  00008	41 56		 push	 r14
  0000a	48 83 ec 30	 sub	 rsp, 48			; 00000030H

; 1399 :     expr_ty e;
; 1400 :     identifier id;
; 1401 :     int lineno, col_offset;
; 1402 :     int i;
; 1403 : 
; 1404 :     REQ(n, dotted_name);
; 1405 : 
; 1406 :     lineno = LINENO(n);

  0000e	44 8b 6a 10	 mov	 r13d, DWORD PTR [rdx+16]

; 1407 :     col_offset = n->n_col_offset;

  00012	44 8b 72 14	 mov	 r14d, DWORD PTR [rdx+20]
  00016	48 8b e9	 mov	 rbp, rcx

; 1408 : 
; 1409 :     id = NEW_IDENTIFIER(CHILD(n, 0));

  00019	48 8b 4a 20	 mov	 rcx, QWORD PTR [rdx+32]
  0001d	48 8b f2	 mov	 rsi, rdx
  00020	48 8b d5	 mov	 rdx, rbp
  00023	48 8b 49 08	 mov	 rcx, QWORD PTR [rcx+8]
  00027	e8 00 00 00 00	 call	 new_identifier
  0002c	48 8b c8	 mov	 rcx, rax

; 1410 :     if (!id)

  0002f	48 85 c0	 test	 rax, rax
  00032	75 0f		 jne	 SHORT $LN7@ast_for_do

; 1426 : }

  00034	48 8b 6c 24 68	 mov	 rbp, QWORD PTR [rsp+104]
  00039	48 83 c4 30	 add	 rsp, 48			; 00000030H
  0003d	41 5e		 pop	 r14
  0003f	41 5d		 pop	 r13
  00041	5e		 pop	 rsi
  00042	c3		 ret	 0
$LN7@ast_for_do:

; 1411 :         return NULL;
; 1412 :     e = Name(id, Load, lineno, col_offset, c->c_arena);

  00043	48 8b 45 08	 mov	 rax, QWORD PTR [rbp+8]
  00047	45 8b ce	 mov	 r9d, r14d
  0004a	45 8b c5	 mov	 r8d, r13d
  0004d	ba 01 00 00 00	 mov	 edx, 1
  00052	4c 89 64 24 60	 mov	 QWORD PTR [rsp+96], r12
  00057	48 89 44 24 20	 mov	 QWORD PTR [rsp+32], rax
  0005c	e8 00 00 00 00	 call	 _Py_Name
  00061	4c 8b e0	 mov	 r12, rax

; 1413 :     if (!e)

  00064	48 85 c0	 test	 rax, rax
  00067	74 72		 je	 SHORT $LN14@ast_for_do
$LN6@ast_for_do:
  00069	48 89 5c 24 50	 mov	 QWORD PTR [rsp+80], rbx

; 1414 :         return NULL;
; 1415 : 
; 1416 :     for (i = 2; i < NCH(n); i+=2) {

  0006e	bb 02 00 00 00	 mov	 ebx, 2
  00073	48 89 7c 24 58	 mov	 QWORD PTR [rsp+88], rdi
  00078	39 5e 18	 cmp	 DWORD PTR [rsi+24], ebx
  0007b	7e 51		 jle	 SHORT $LN3@ast_for_do
  0007d	bf 50 00 00 00	 mov	 edi, 80			; 00000050H
$LL5@ast_for_do:

; 1417 :         id = NEW_IDENTIFIER(CHILD(n, i));

  00082	48 8b 4e 20	 mov	 rcx, QWORD PTR [rsi+32]
  00086	48 8b d5	 mov	 rdx, rbp
  00089	48 8b 4c 39 08	 mov	 rcx, QWORD PTR [rcx+rdi+8]
  0008e	e8 00 00 00 00	 call	 new_identifier

; 1418 :         if (!id)

  00093	48 85 c0	 test	 rax, rax
  00096	74 57		 je	 SHORT $LN11@ast_for_do

; 1420 :         e = Attribute(e, id, Load, lineno, col_offset, c->c_arena);

  00098	48 8b 4d 08	 mov	 rcx, QWORD PTR [rbp+8]
  0009c	45 8b cd	 mov	 r9d, r13d
  0009f	41 b8 01 00 00
	00		 mov	 r8d, 1
  000a5	48 89 4c 24 28	 mov	 QWORD PTR [rsp+40], rcx
  000aa	49 8b cc	 mov	 rcx, r12
  000ad	48 8b d0	 mov	 rdx, rax
  000b0	44 89 74 24 20	 mov	 DWORD PTR [rsp+32], r14d
  000b5	e8 00 00 00 00	 call	 _Py_Attribute
  000ba	4c 8b e0	 mov	 r12, rax

; 1421 :         if (!e)

  000bd	48 85 c0	 test	 rax, rax
  000c0	74 2d		 je	 SHORT $LN11@ast_for_do

; 1414 :         return NULL;
; 1415 : 
; 1416 :     for (i = 2; i < NCH(n); i+=2) {

  000c2	83 c3 02	 add	 ebx, 2
  000c5	48 83 c7 50	 add	 rdi, 80			; 00000050H
  000c9	3b 5e 18	 cmp	 ebx, DWORD PTR [rsi+24]
  000cc	7c b4		 jl	 SHORT $LL5@ast_for_do
$LN3@ast_for_do:

; 1422 :             return NULL;
; 1423 :     }
; 1424 : 
; 1425 :     return e;

  000ce	49 8b c4	 mov	 rax, r12
$LN16@ast_for_do:
  000d1	48 8b 7c 24 58	 mov	 rdi, QWORD PTR [rsp+88]
  000d6	48 8b 5c 24 50	 mov	 rbx, QWORD PTR [rsp+80]
$LN14@ast_for_do:
  000db	4c 8b 64 24 60	 mov	 r12, QWORD PTR [rsp+96]

; 1426 : }

  000e0	48 8b 6c 24 68	 mov	 rbp, QWORD PTR [rsp+104]
  000e5	48 83 c4 30	 add	 rsp, 48			; 00000030H
  000e9	41 5e		 pop	 r14
  000eb	41 5d		 pop	 r13
  000ed	5e		 pop	 rsi
  000ee	c3		 ret	 0
$LN11@ast_for_do:

; 1419 :             return NULL;

  000ef	33 c0		 xor	 eax, eax
  000f1	eb de		 jmp	 SHORT $LN16@ast_for_do
ast_for_dotted_name ENDP
_TEXT	ENDS
EXTRN	_Py_Lambda:PROC
;	COMDAT pdata
pdata	SEGMENT
$pdata$ast_for_lambdef DD imagerel ast_for_lambdef
	DD	imagerel ast_for_lambdef+221
	DD	imagerel $unwind$ast_for_lambdef
pdata	ENDS
;	COMDAT xdata
xdata	SEGMENT
$unwind$ast_for_lambdef DD 061001H
	DD	0d6410H
	DD	0c3410H
	DD	0700c9210H
; Function compile flags: /Ogtpy
xdata	ENDS
;	COMDAT ast_for_lambdef
_TEXT	SEGMENT
c$ = 96
n$ = 104
ast_for_lambdef PROC					; COMDAT

; 1551 : {

  00000	4c 8b dc	 mov	 r11, rsp
  00003	49 89 5b 08	 mov	 QWORD PTR [r11+8], rbx
  00007	49 89 73 10	 mov	 QWORD PTR [r11+16], rsi
  0000b	57		 push	 rdi
  0000c	48 83 ec 50	 sub	 rsp, 80			; 00000050H

; 1552 :     /* lambdef: 'lambda' [varargslist] ':' test
; 1553 :        lambdef_nocond: 'lambda' [varargslist] ':' test_nocond */
; 1554 :     arguments_ty args;
; 1555 :     expr_ty expression;
; 1556 : 
; 1557 :     if (NCH(n) == 3) {

  00010	83 7a 18 03	 cmp	 DWORD PTR [rdx+24], 3
  00014	48 8b da	 mov	 rbx, rdx
  00017	48 8b f9	 mov	 rdi, rcx
  0001a	75 5b		 jne	 SHORT $LN6@ast_for_la

; 1558 :         args = arguments(NULL, NULL, NULL, NULL, NULL, NULL, NULL,
; 1559 :                          NULL, c->c_arena);

  0001c	48 8b 41 08	 mov	 rax, QWORD PTR [rcx+8]
  00020	45 33 c9	 xor	 r9d, r9d
  00023	45 33 c0	 xor	 r8d, r8d
  00026	49 89 43 e8	 mov	 QWORD PTR [r11-24], rax
  0002a	33 c0		 xor	 eax, eax
  0002c	33 d2		 xor	 edx, edx
  0002e	49 89 43 e0	 mov	 QWORD PTR [r11-32], rax
  00032	49 89 43 d8	 mov	 QWORD PTR [r11-40], rax
  00036	49 89 43 d0	 mov	 QWORD PTR [r11-48], rax
  0003a	33 c9		 xor	 ecx, ecx
  0003c	49 89 43 c8	 mov	 QWORD PTR [r11-56], rax
  00040	e8 00 00 00 00	 call	 _Py_arguments
  00045	48 8b f0	 mov	 rsi, rax

; 1560 :         if (!args)

  00048	48 85 c0	 test	 rax, rax

; 1561 :             return NULL;

  0004b	74 18		 je	 SHORT $LN9@ast_for_la

; 1562 :         expression = ast_for_expr(c, CHILD(n, 2));

  0004d	48 8b 53 20	 mov	 rdx, QWORD PTR [rbx+32]
  00051	48 8b cf	 mov	 rcx, rdi
  00054	48 83 c2 50	 add	 rdx, 80			; 00000050H
  00058	e8 00 00 00 00	 call	 ast_for_expr
  0005d	48 8b d0	 mov	 rdx, rax

; 1563 :         if (!expression)

  00060	48 85 c0	 test	 rax, rax
  00063	75 4f		 jne	 SHORT $LN1@ast_for_la
$LN9@ast_for_la:

; 1564 :             return NULL;

  00065	33 c0		 xor	 eax, eax

; 1576 : }

  00067	48 8b 5c 24 60	 mov	 rbx, QWORD PTR [rsp+96]
  0006c	48 8b 74 24 68	 mov	 rsi, QWORD PTR [rsp+104]
  00071	48 83 c4 50	 add	 rsp, 80			; 00000050H
  00075	5f		 pop	 rdi
  00076	c3		 ret	 0
$LN6@ast_for_la:

; 1565 :     }
; 1566 :     else {
; 1567 :         args = ast_for_arguments(c, CHILD(n, 1));

  00077	48 8b 52 20	 mov	 rdx, QWORD PTR [rdx+32]
  0007b	48 83 c2 28	 add	 rdx, 40			; 00000028H
  0007f	e8 00 00 00 00	 call	 ast_for_arguments
  00084	48 8b f0	 mov	 rsi, rax

; 1568 :         if (!args)

  00087	48 85 c0	 test	 rax, rax

; 1569 :             return NULL;

  0008a	74 d9		 je	 SHORT $LN9@ast_for_la

; 1570 :         expression = ast_for_expr(c, CHILD(n, 3));

  0008c	48 8b 53 20	 mov	 rdx, QWORD PTR [rbx+32]
  00090	48 8b cf	 mov	 rcx, rdi
  00093	48 83 c2 78	 add	 rdx, 120		; 00000078H
  00097	e8 00 00 00 00	 call	 ast_for_expr
  0009c	48 8b d0	 mov	 rdx, rax

; 1571 :         if (!expression)

  0009f	48 85 c0	 test	 rax, rax
  000a2	75 10		 jne	 SHORT $LN1@ast_for_la

; 1576 : }

  000a4	48 8b 5c 24 60	 mov	 rbx, QWORD PTR [rsp+96]
  000a9	48 8b 74 24 68	 mov	 rsi, QWORD PTR [rsp+104]
  000ae	48 83 c4 50	 add	 rsp, 80			; 00000050H
  000b2	5f		 pop	 rdi
  000b3	c3		 ret	 0
$LN1@ast_for_la:

; 1572 :             return NULL;
; 1573 :     }
; 1574 : 
; 1575 :     return Lambda(args, expression, LINENO(n), n->n_col_offset, c->c_arena);

  000b4	48 8b 47 08	 mov	 rax, QWORD PTR [rdi+8]
  000b8	44 8b 4b 14	 mov	 r9d, DWORD PTR [rbx+20]
  000bc	44 8b 43 10	 mov	 r8d, DWORD PTR [rbx+16]
  000c0	48 8b ce	 mov	 rcx, rsi
  000c3	48 89 44 24 20	 mov	 QWORD PTR [rsp+32], rax
  000c8	e8 00 00 00 00	 call	 _Py_Lambda

; 1576 : }

  000cd	48 8b 5c 24 60	 mov	 rbx, QWORD PTR [rsp+96]
  000d2	48 8b 74 24 68	 mov	 rsi, QWORD PTR [rsp+104]
  000d7	48 83 c4 50	 add	 rsp, 80			; 00000050H
  000db	5f		 pop	 rdi
  000dc	c3		 ret	 0
ast_for_lambdef ENDP
_TEXT	ENDS
EXTRN	_Py_IfExp:PROC
;	COMDAT pdata
pdata	SEGMENT
$pdata$ast_for_ifexpr DD imagerel ast_for_ifexpr
	DD	imagerel ast_for_ifexpr+166
	DD	imagerel $unwind$ast_for_ifexpr
pdata	ENDS
;	COMDAT xdata
xdata	SEGMENT
$unwind$ast_for_ifexpr DD 084201H
	DD	086442H
	DD	0a540fH
	DD	09340fH
	DD	0700b520fH
; Function compile flags: /Ogtpy
xdata	ENDS
;	COMDAT ast_for_ifexpr
_TEXT	SEGMENT
c$ = 64
n$ = 72
ast_for_ifexpr PROC					; COMDAT

; 1580 : {

  00000	48 89 5c 24 10	 mov	 QWORD PTR [rsp+16], rbx
  00005	48 89 6c 24 18	 mov	 QWORD PTR [rsp+24], rbp
  0000a	57		 push	 rdi
  0000b	48 83 ec 30	 sub	 rsp, 48			; 00000030H
  0000f	48 8b da	 mov	 rbx, rdx

; 1581 :     /* test: or_test 'if' or_test 'else' test */
; 1582 :     expr_ty expression, body, orelse;
; 1583 : 
; 1584 :     assert(NCH(n) == 5);
; 1585 :     body = ast_for_expr(c, CHILD(n, 0));

  00012	48 8b 52 20	 mov	 rdx, QWORD PTR [rdx+32]
  00016	48 8b f9	 mov	 rdi, rcx
  00019	e8 00 00 00 00	 call	 ast_for_expr
  0001e	48 8b e8	 mov	 rbp, rax

; 1586 :     if (!body)

  00021	48 85 c0	 test	 rax, rax
  00024	75 10		 jne	 SHORT $LN3@ast_for_if

; 1596 : }

  00026	48 8b 5c 24 48	 mov	 rbx, QWORD PTR [rsp+72]
  0002b	48 8b 6c 24 50	 mov	 rbp, QWORD PTR [rsp+80]
  00030	48 83 c4 30	 add	 rsp, 48			; 00000030H
  00034	5f		 pop	 rdi
  00035	c3		 ret	 0
$LN3@ast_for_if:

; 1587 :         return NULL;
; 1588 :     expression = ast_for_expr(c, CHILD(n, 2));

  00036	48 8b 53 20	 mov	 rdx, QWORD PTR [rbx+32]
  0003a	48 8b cf	 mov	 rcx, rdi
  0003d	48 89 74 24 40	 mov	 QWORD PTR [rsp+64], rsi
  00042	48 83 c2 50	 add	 rdx, 80			; 00000050H
  00046	e8 00 00 00 00	 call	 ast_for_expr
  0004b	48 8b f0	 mov	 rsi, rax

; 1589 :     if (!expression)

  0004e	48 85 c0	 test	 rax, rax

; 1590 :         return NULL;

  00051	74 1b		 je	 SHORT $LN7@ast_for_if

; 1591 :     orelse = ast_for_expr(c, CHILD(n, 4));

  00053	48 8b 53 20	 mov	 rdx, QWORD PTR [rbx+32]
  00057	48 8b cf	 mov	 rcx, rdi
  0005a	48 81 c2 a0 00
	00 00		 add	 rdx, 160		; 000000a0H
  00061	e8 00 00 00 00	 call	 ast_for_expr
  00066	4c 8b c0	 mov	 r8, rax

; 1592 :     if (!orelse)

  00069	48 85 c0	 test	 rax, rax
  0006c	75 04		 jne	 SHORT $LN1@ast_for_if
$LN7@ast_for_if:

; 1593 :         return NULL;

  0006e	33 c0		 xor	 eax, eax
  00070	eb 1f		 jmp	 SHORT $LN6@ast_for_if
$LN1@ast_for_if:

; 1594 :     return IfExp(expression, body, orelse, LINENO(n), n->n_col_offset,
; 1595 :                  c->c_arena);

  00072	48 8b 47 08	 mov	 rax, QWORD PTR [rdi+8]
  00076	44 8b 4b 10	 mov	 r9d, DWORD PTR [rbx+16]
  0007a	48 8b d5	 mov	 rdx, rbp
  0007d	48 89 44 24 28	 mov	 QWORD PTR [rsp+40], rax
  00082	8b 43 14	 mov	 eax, DWORD PTR [rbx+20]
  00085	48 8b ce	 mov	 rcx, rsi
  00088	89 44 24 20	 mov	 DWORD PTR [rsp+32], eax
  0008c	e8 00 00 00 00	 call	 _Py_IfExp
$LN6@ast_for_if:

; 1596 : }

  00091	48 8b 74 24 40	 mov	 rsi, QWORD PTR [rsp+64]
  00096	48 8b 5c 24 48	 mov	 rbx, QWORD PTR [rsp+72]
  0009b	48 8b 6c 24 50	 mov	 rbp, QWORD PTR [rsp+80]
  000a0	48 83 c4 30	 add	 rsp, 48			; 00000030H
  000a4	5f		 pop	 rdi
  000a5	c3		 ret	 0
ast_for_ifexpr ENDP
_TEXT	ENDS
PUBLIC	??_C@_0BP@PJBBHOMK@logic?5error?5in?5count_comp_fors?$AA@ ; `string'
;	COMDAT pdata
pdata	SEGMENT
$pdata$count_comp_fors DD imagerel count_comp_fors
	DD	imagerel count_comp_fors+123
	DD	imagerel $unwind$count_comp_fors
pdata	ENDS
;	COMDAT xdata
xdata	SEGMENT
$unwind$count_comp_fors DD 010401H
	DD	04204H
xdata	ENDS
;	COMDAT ??_C@_0BP@PJBBHOMK@logic?5error?5in?5count_comp_fors?$AA@
CONST	SEGMENT
??_C@_0BP@PJBBHOMK@logic?5error?5in?5count_comp_fors?$AA@ DB 'logic error'
	DB	' in count_comp_fors', 00H			; `string'
; Function compile flags: /Ogtpy
CONST	ENDS
;	COMDAT count_comp_fors
_TEXT	SEGMENT
n$ = 48
count_comp_fors PROC					; COMDAT

; 1606 : {

  00000	48 83 ec 28	 sub	 rsp, 40			; 00000028H

; 1611 :     REQ(n, comp_for);
; 1612 :     if (NCH(n) == 5)

  00004	83 79 18 05	 cmp	 DWORD PTR [rcx+24], 5
  00008	ba 01 00 00 00	 mov	 edx, 1
  0000d	75 4a		 jne	 SHORT $LN15@count_comp
  0000f	41 b9 4d 01 00
	00		 mov	 r9d, 333		; 0000014dH
  00015	45 8d 41 01	 lea	 r8d, QWORD PTR [r9+1]
  00019	0f 1f 80 00 00
	00 00		 npad	 7
$count_comp_for$22838:

; 1616 :   count_comp_iter:
; 1617 :     REQ(n, comp_iter);
; 1618 :     n = CHILD(n, 0);

  00020	48 8b 41 20	 mov	 rax, QWORD PTR [rcx+32]
  00024	48 8b 88 c0 00
	00 00		 mov	 rcx, QWORD PTR [rax+192]

; 1619 :     if (TYPE(n) == comp_for)

  0002b	0f b7 01	 movzx	 eax, WORD PTR [rcx]
  0002e	66 41 3b c1	 cmp	 ax, r9w
  00032	74 1d		 je	 SHORT $LN13@count_comp
$count_comp_iter$22842:

; 1620 :         goto count_comp_for;
; 1621 :     else if (TYPE(n) == comp_if) {

  00034	66 41 3b c0	 cmp	 ax, r8w
  00038	75 26		 jne	 SHORT $LN1@count_comp

; 1622 :         if (NCH(n) == 3) {

  0003a	83 79 18 03	 cmp	 DWORD PTR [rcx+24], 3
  0003e	75 19		 jne	 SHORT $LN15@count_comp

; 1616 :   count_comp_iter:
; 1617 :     REQ(n, comp_iter);
; 1618 :     n = CHILD(n, 0);

  00040	48 8b 41 20	 mov	 rax, QWORD PTR [rcx+32]
  00044	48 8b 48 70	 mov	 rcx, QWORD PTR [rax+112]

; 1619 :     if (TYPE(n) == comp_for)

  00048	0f b7 01	 movzx	 eax, WORD PTR [rcx]
  0004b	66 41 3b c1	 cmp	 ax, r9w
  0004f	75 e3		 jne	 SHORT $count_comp_iter$22842
$LN13@count_comp:

; 1607 :     int n_fors = 0;
; 1608 : 
; 1609 :   count_comp_for:
; 1610 :     n_fors++;

  00051	ff c2		 inc	 edx

; 1611 :     REQ(n, comp_for);
; 1612 :     if (NCH(n) == 5)

  00053	83 79 18 05	 cmp	 DWORD PTR [rcx+24], 5
  00057	74 c7		 je	 SHORT $count_comp_for$22838
$LN15@count_comp:

; 1613 :         n = CHILD(n, 4);
; 1614 :     else
; 1615 :         return n_fors;

  00059	8b c2		 mov	 eax, edx

; 1634 : }

  0005b	48 83 c4 28	 add	 rsp, 40			; 00000028H
  0005f	c3		 ret	 0
$LN1@count_comp:

; 1623 :             n = CHILD(n, 2);
; 1624 :             goto count_comp_iter;
; 1625 :         }
; 1626 :         else
; 1627 :             return n_fors;
; 1628 :     }
; 1629 : 
; 1630 :     /* Should never be reached */
; 1631 :     PyErr_SetString(PyExc_SystemError,
; 1632 :                     "logic error in count_comp_fors");

  00060	48 8b 0d 00 00
	00 00		 mov	 rcx, QWORD PTR PyExc_SystemError
  00067	48 8d 15 00 00
	00 00		 lea	 rdx, OFFSET FLAT:??_C@_0BP@PJBBHOMK@logic?5error?5in?5count_comp_fors?$AA@
  0006e	e8 00 00 00 00	 call	 PyErr_SetString

; 1633 :     return -1;

  00073	83 c8 ff	 or	 eax, -1

; 1634 : }

  00076	48 83 c4 28	 add	 rsp, 40			; 00000028H
  0007a	c3		 ret	 0
count_comp_fors ENDP
; Function compile flags: /Ogtpy
_TEXT	ENDS
;	COMDAT count_comp_ifs
_TEXT	SEGMENT
n$ = 8
count_comp_ifs PROC					; COMDAT

; 1644 :     int n_ifs = 0;
; 1645 : 
; 1646 :     while (1) {
; 1647 :         REQ(n, comp_iter);
; 1648 :         if (TYPE(CHILD(n, 0)) == comp_for)

  00000	48 8b 41 20	 mov	 rax, QWORD PTR [rcx+32]
  00004	b9 4d 01 00 00	 mov	 ecx, 333		; 0000014dH
  00009	33 d2		 xor	 edx, edx
  0000b	66 39 08	 cmp	 WORD PTR [rax], cx
  0000e	74 15		 je	 SHORT $LN9@count_comp@2
$LL4@count_comp@2:

; 1650 :         n = CHILD(n, 0);
; 1651 :         REQ(n, comp_if);
; 1652 :         n_ifs++;

  00010	ff c2		 inc	 edx

; 1653 :         if (NCH(n) == 2)

  00012	83 78 18 02	 cmp	 DWORD PTR [rax+24], 2
  00016	74 0d		 je	 SHORT $LN9@count_comp@2

; 1654 :             return n_ifs;
; 1655 :         n = CHILD(n, 2);

  00018	48 8b 40 20	 mov	 rax, QWORD PTR [rax+32]
  0001c	48 8b 40 70	 mov	 rax, QWORD PTR [rax+112]
  00020	66 39 08	 cmp	 WORD PTR [rax], cx
  00023	75 eb		 jne	 SHORT $LL4@count_comp@2
$LN9@count_comp@2:

; 1649 :             return n_ifs;

  00025	8b c2		 mov	 eax, edx

; 1656 :     }
; 1657 : }

  00027	c3		 ret	 0
count_comp_ifs ENDP
_TEXT	ENDS
EXTRN	_Py_Slice:PROC
EXTRN	_Py_Index:PROC
;	COMDAT pdata
pdata	SEGMENT
$pdata$ast_for_slice DD imagerel ast_for_slice
	DD	imagerel ast_for_slice+308
	DD	imagerel $unwind$ast_for_slice
pdata	ENDS
;	COMDAT xdata
xdata	SEGMENT
$unwind$ast_for_slice DD 0c1e01H
	DD	0b741eH
	DD	0a641eH
	DD	09541eH
	DD	08341eH
	DD	0e01a321eH
	DD	0c016d018H
; Function compile flags: /Ogtpy
xdata	ENDS
;	COMDAT ast_for_slice
_TEXT	SEGMENT
c$ = 64
n$ = 72
ast_for_slice PROC					; COMDAT

; 1969 : {

  00000	48 89 5c 24 08	 mov	 QWORD PTR [rsp+8], rbx
  00005	48 89 6c 24 10	 mov	 QWORD PTR [rsp+16], rbp
  0000a	48 89 74 24 18	 mov	 QWORD PTR [rsp+24], rsi
  0000f	48 89 7c 24 20	 mov	 QWORD PTR [rsp+32], rdi
  00014	41 54		 push	 r12
  00016	41 55		 push	 r13
  00018	41 56		 push	 r14
  0001a	48 83 ec 20	 sub	 rsp, 32			; 00000020H

; 1970 :     node *ch;
; 1971 :     expr_ty lower = NULL, upper = NULL, step = NULL;
; 1972 : 
; 1973 :     REQ(n, subscript);
; 1974 : 
; 1975 :     /*
; 1976 :        subscript: test | [test] ':' [test] [sliceop]
; 1977 :        sliceop: ':' [test]
; 1978 :     */
; 1979 :     ch = CHILD(n, 0);

  0001e	48 8b 5a 20	 mov	 rbx, QWORD PTR [rdx+32]
  00022	45 33 ed	 xor	 r13d, r13d

; 1980 :     if (NCH(n) == 1 && TYPE(ch) == test) {

  00025	83 7a 18 01	 cmp	 DWORD PTR [rdx+24], 1
  00029	45 8b e5	 mov	 r12d, r13d
  0002c	45 8b f5	 mov	 r14d, r13d
  0002f	48 8b f2	 mov	 rsi, rdx
  00032	48 8b f9	 mov	 rdi, rcx
  00035	bd 2e 01 00 00	 mov	 ebp, 302		; 0000012eH
  0003a	75 23		 jne	 SHORT $LN16@ast_for_sl
  0003c	66 39 2b	 cmp	 WORD PTR [rbx], bp
  0003f	75 33		 jne	 SHORT $LN13@ast_for_sl

; 1981 :         /* 'step' variable hold no significance in terms of being used over
; 1982 :            other vars */
; 1983 :         step = ast_for_expr(c, ch);

  00041	48 8b d3	 mov	 rdx, rbx
  00044	e8 00 00 00 00	 call	 ast_for_expr

; 1984 :         if (!step)

  00049	48 85 c0	 test	 rax, rax

; 1985 :             return NULL;

  0004c	74 4f		 je	 SHORT $LN19@ast_for_sl

; 1986 : 
; 1987 :         return Index(step, c->c_arena);

  0004e	48 8b 57 08	 mov	 rdx, QWORD PTR [rdi+8]
  00052	48 8b c8	 mov	 rcx, rax
  00055	e8 00 00 00 00	 call	 _Py_Index
  0005a	e9 b6 00 00 00	 jmp	 $LN17@ast_for_sl
$LN16@ast_for_sl:

; 1988 :     }
; 1989 : 
; 1990 :     if (TYPE(ch) == test) {

  0005f	66 39 2b	 cmp	 WORD PTR [rbx], bp
  00062	75 10		 jne	 SHORT $LN13@ast_for_sl

; 1991 :         lower = ast_for_expr(c, ch);

  00064	48 8b d3	 mov	 rdx, rbx
  00067	e8 00 00 00 00	 call	 ast_for_expr
  0006c	4c 8b e8	 mov	 r13, rax

; 1992 :         if (!lower)

  0006f	48 85 c0	 test	 rax, rax

; 1993 :             return NULL;

  00072	74 29		 je	 SHORT $LN19@ast_for_sl
$LN13@ast_for_sl:

; 1994 :     }
; 1995 : 
; 1996 :     /* If there's an upper bound it's in the second or third position. */
; 1997 :     if (TYPE(ch) == COLON) {

  00074	66 83 3b 0b	 cmp	 WORD PTR [rbx], 11
  00078	75 27		 jne	 SHORT $LN12@ast_for_sl

; 1998 :         if (NCH(n) > 1) {

  0007a	83 7e 18 01	 cmp	 DWORD PTR [rsi+24], 1
  0007e	7e 44		 jle	 SHORT $LN5@ast_for_sl

; 1999 :             node *n2 = CHILD(n, 1);

  00080	48 8b 56 20	 mov	 rdx, QWORD PTR [rsi+32]
  00084	48 83 c2 28	 add	 rdx, 40			; 00000028H

; 2000 : 
; 2001 :             if (TYPE(n2) == test) {

  00088	66 39 2a	 cmp	 WORD PTR [rdx], bp
  0008b	75 37		 jne	 SHORT $LN5@ast_for_sl

; 2002 :                 upper = ast_for_expr(c, n2);

  0008d	48 8b cf	 mov	 rcx, rdi
  00090	e8 00 00 00 00	 call	 ast_for_expr
  00095	4c 8b e0	 mov	 r12, rax

; 2003 :                 if (!upper)

  00098	48 85 c0	 test	 rax, rax
  0009b	75 27		 jne	 SHORT $LN5@ast_for_sl
$LN19@ast_for_sl:

; 2004 :                     return NULL;

  0009d	33 c0		 xor	 eax, eax
  0009f	eb 74		 jmp	 SHORT $LN17@ast_for_sl
$LN12@ast_for_sl:

; 2005 :             }
; 2006 :         }
; 2007 :     } else if (NCH(n) > 2) {

  000a1	83 7e 18 02	 cmp	 DWORD PTR [rsi+24], 2
  000a5	7e 1d		 jle	 SHORT $LN5@ast_for_sl

; 2008 :         node *n2 = CHILD(n, 2);

  000a7	48 8b 56 20	 mov	 rdx, QWORD PTR [rsi+32]
  000ab	48 83 c2 50	 add	 rdx, 80			; 00000050H

; 2009 : 
; 2010 :         if (TYPE(n2) == test) {

  000af	66 39 2a	 cmp	 WORD PTR [rdx], bp
  000b2	75 10		 jne	 SHORT $LN5@ast_for_sl

; 2011 :             upper = ast_for_expr(c, n2);

  000b4	48 8b cf	 mov	 rcx, rdi
  000b7	e8 00 00 00 00	 call	 ast_for_expr
  000bc	4c 8b e0	 mov	 r12, rax

; 2012 :             if (!upper)

  000bf	48 85 c0	 test	 rax, rax
  000c2	74 51		 je	 SHORT $LN17@ast_for_sl
$LN5@ast_for_sl:

; 2013 :                 return NULL;
; 2014 :         }
; 2015 :     }
; 2016 : 
; 2017 :     ch = CHILD(n, NCH(n) - 1);

  000c4	8b 46 18	 mov	 eax, DWORD PTR [rsi+24]

; 2018 :     if (TYPE(ch) == sliceop) {

  000c7	b9 45 01 00 00	 mov	 ecx, 325		; 00000145H
  000cc	ff c8		 dec	 eax
  000ce	48 98		 cdqe
  000d0	48 8d 14 80	 lea	 rdx, QWORD PTR [rax+rax*4]
  000d4	48 8b 46 20	 mov	 rax, QWORD PTR [rsi+32]
  000d8	66 39 0c d0	 cmp	 WORD PTR [rax+rdx*8], cx
  000dc	75 25		 jne	 SHORT $LN1@ast_for_sl

; 2019 :         if (NCH(ch) != 1) {

  000de	83 7c d0 18 01	 cmp	 DWORD PTR [rax+rdx*8+24], 1
  000e3	74 1e		 je	 SHORT $LN1@ast_for_sl

; 2020 :             ch = CHILD(ch, 1);

  000e5	48 8b 54 d0 20	 mov	 rdx, QWORD PTR [rax+rdx*8+32]
  000ea	48 83 c2 28	 add	 rdx, 40			; 00000028H

; 2021 :             if (TYPE(ch) == test) {

  000ee	66 39 2a	 cmp	 WORD PTR [rdx], bp
  000f1	75 10		 jne	 SHORT $LN1@ast_for_sl

; 2022 :                 step = ast_for_expr(c, ch);

  000f3	48 8b cf	 mov	 rcx, rdi
  000f6	e8 00 00 00 00	 call	 ast_for_expr
  000fb	4c 8b f0	 mov	 r14, rax

; 2023 :                 if (!step)

  000fe	48 85 c0	 test	 rax, rax

; 2024 :                     return NULL;

  00101	74 9a		 je	 SHORT $LN19@ast_for_sl
$LN1@ast_for_sl:

; 2025 :             }
; 2026 :         }
; 2027 :     }
; 2028 : 
; 2029 :     return Slice(lower, upper, step, c->c_arena);

  00103	4c 8b 4f 08	 mov	 r9, QWORD PTR [rdi+8]
  00107	4d 8b c6	 mov	 r8, r14
  0010a	49 8b d4	 mov	 rdx, r12
  0010d	49 8b cd	 mov	 rcx, r13
  00110	e8 00 00 00 00	 call	 _Py_Slice
$LN17@ast_for_sl:

; 2030 : }

  00115	48 8b 5c 24 40	 mov	 rbx, QWORD PTR [rsp+64]
  0011a	48 8b 6c 24 48	 mov	 rbp, QWORD PTR [rsp+72]
  0011f	48 8b 74 24 50	 mov	 rsi, QWORD PTR [rsp+80]
  00124	48 8b 7c 24 58	 mov	 rdi, QWORD PTR [rsp+88]
  00129	48 83 c4 20	 add	 rsp, 32			; 00000020H
  0012d	41 5e		 pop	 r14
  0012f	41 5d		 pop	 r13
  00131	41 5c		 pop	 r12
  00133	c3		 ret	 0
ast_for_slice ENDP
_TEXT	ENDS
EXTRN	_Py_BinOp:PROC
;	COMDAT pdata
pdata	SEGMENT
$pdata$ast_for_binop DD imagerel ast_for_binop
	DD	imagerel ast_for_binop+130
	DD	imagerel $unwind$ast_for_binop
pdata	ENDS
;	COMDAT pdata
pdata	SEGMENT
$pdata$4$ast_for_binop DD imagerel ast_for_binop+130
	DD	imagerel ast_for_binop+347
	DD	imagerel $chain$4$ast_for_binop
pdata	ENDS
;	COMDAT pdata
pdata	SEGMENT
$pdata$6$ast_for_binop DD imagerel ast_for_binop+347
	DD	imagerel ast_for_binop+351
	DD	imagerel $chain$6$ast_for_binop
pdata	ENDS
;	COMDAT xdata
xdata	SEGMENT
$chain$6$ast_for_binop DD 0a0021H
	DD	06f400H
	DD	07d400H
	DD	0fc400H
	DD	0e7400H
	DD	0c6400H
	DD	imagerel ast_for_binop
	DD	imagerel ast_for_binop+130
	DD	imagerel $unwind$ast_for_binop
xdata	ENDS
;	COMDAT xdata
xdata	SEGMENT
$chain$4$ast_for_binop DD 0a1c21H
	DD	06f41cH
	DD	07d416H
	DD	0fc411H
	DD	0e740aH
	DD	0c6405H
	DD	imagerel ast_for_binop
	DD	imagerel ast_for_binop+130
	DD	imagerel $unwind$ast_for_binop
xdata	ENDS
;	COMDAT xdata
xdata	SEGMENT
$unwind$ast_for_binop DD 040901H
	DD	0e0057209H
	DD	030025003H
; Function compile flags: /Ogtpy
xdata	ENDS
;	COMDAT ast_for_binop
_TEXT	SEGMENT
c$ = 96
result$1$ = 104
n$ = 104
ast_for_binop PROC					; COMDAT

; 2034 : {

  00000	40 53		 push	 rbx
  00002	55		 push	 rbp
  00003	41 56		 push	 r14
  00005	48 83 ec 40	 sub	 rsp, 64			; 00000040H
  00009	48 8b ea	 mov	 rbp, rdx

; 2035 :     /* Must account for a sequence of expressions.
; 2036 :        How should A op B op C by represented?
; 2037 :        BinOp(BinOp(A, op, B), op, C).
; 2038 :     */
; 2039 : 
; 2040 :     int i, nops;
; 2041 :     expr_ty expr1, expr2, result;
; 2042 :     operator_ty newoperator;
; 2043 : 
; 2044 :     expr1 = ast_for_expr(c, CHILD(n, 0));

  0000c	48 8b 52 20	 mov	 rdx, QWORD PTR [rdx+32]
  00010	4c 8b f1	 mov	 r14, rcx
  00013	e8 00 00 00 00	 call	 ast_for_expr
  00018	48 8b d8	 mov	 rbx, rax

; 2045 :     if (!expr1)

  0001b	48 85 c0	 test	 rax, rax
  0001e	75 0b		 jne	 SHORT $LN10@ast_for_bi
$LN23@ast_for_bi:

; 2046 :         return NULL;

  00020	33 c0		 xor	 eax, eax

; 2082 : }

  00022	48 83 c4 40	 add	 rsp, 64			; 00000040H
  00026	41 5e		 pop	 r14
  00028	5d		 pop	 rbp
  00029	5b		 pop	 rbx
  0002a	c3		 ret	 0
$LN10@ast_for_bi:

; 2047 : 
; 2048 :     expr2 = ast_for_expr(c, CHILD(n, 2));

  0002b	48 8b 55 20	 mov	 rdx, QWORD PTR [rbp+32]
  0002f	49 8b ce	 mov	 rcx, r14
  00032	48 83 c2 50	 add	 rdx, 80			; 00000050H
  00036	e8 00 00 00 00	 call	 ast_for_expr
  0003b	4c 8b c0	 mov	 r8, rax

; 2049 :     if (!expr2)

  0003e	48 85 c0	 test	 rax, rax

; 2050 :         return NULL;

  00041	74 dd		 je	 SHORT $LN23@ast_for_bi

; 2051 : 
; 2052 :     newoperator = get_operator(CHILD(n, 1));

  00043	48 8b 4d 20	 mov	 rcx, QWORD PTR [rbp+32]
  00047	48 83 c1 28	 add	 rcx, 40			; 00000028H
  0004b	e8 00 00 00 00	 call	 get_operator
  00050	8b d0		 mov	 edx, eax

; 2053 :     if (!newoperator)

  00052	85 c0		 test	 eax, eax

; 2054 :         return NULL;

  00054	74 ca		 je	 SHORT $LN23@ast_for_bi

; 2055 : 
; 2056 :     result = BinOp(expr1, newoperator, expr2, LINENO(n), n->n_col_offset,
; 2057 :                    c->c_arena);

  00056	49 8b 46 08	 mov	 rax, QWORD PTR [r14+8]
  0005a	44 8b 4d 10	 mov	 r9d, DWORD PTR [rbp+16]
  0005e	48 8b cb	 mov	 rcx, rbx
  00061	48 89 44 24 28	 mov	 QWORD PTR [rsp+40], rax
  00066	8b 45 14	 mov	 eax, DWORD PTR [rbp+20]
  00069	89 44 24 20	 mov	 DWORD PTR [rsp+32], eax
  0006d	e8 00 00 00 00	 call	 _Py_BinOp
  00072	48 8b c8	 mov	 rcx, rax
  00075	48 89 44 24 68	 mov	 QWORD PTR result$1$[rsp], rax

; 2058 :     if (!result)

  0007a	48 85 c0	 test	 rax, rax

; 2059 :         return NULL;

  0007d	74 a1		 je	 SHORT $LN23@ast_for_bi

; 2060 : 
; 2061 :     nops = (NCH(n) - 1) / 2;

  0007f	8b 45 18	 mov	 eax, DWORD PTR [rbp+24]
  00082	48 89 74 24 60	 mov	 QWORD PTR [rsp+96], rsi
  00087	48 89 7c 24 70	 mov	 QWORD PTR [rsp+112], rdi
  0008c	ff c8		 dec	 eax
  0008e	4c 89 64 24 78	 mov	 QWORD PTR [rsp+120], r12
  00093	4c 89 6c 24 38	 mov	 QWORD PTR [rsp+56], r13
  00098	99		 cdq
  00099	4c 89 7c 24 30	 mov	 QWORD PTR [rsp+48], r15

; 2062 :     for (i = 1; i < nops; i++) {

  0009e	bb 01 00 00 00	 mov	 ebx, 1
  000a3	2b c2		 sub	 eax, edx
  000a5	d1 f8		 sar	 eax, 1
  000a7	4c 63 f8	 movsxd	 r15, eax
  000aa	49 3b df	 cmp	 rbx, r15
  000ad	0f 8d 83 00 00
	00		 jge	 $LN4@ast_for_bi

; 2060 : 
; 2061 :     nops = (NCH(n) - 1) / 2;

  000b3	8d 73 03	 lea	 esi, QWORD PTR [rbx+3]
  000b6	bf 78 00 00 00	 mov	 edi, 120		; 00000078H
  000bb	0f 1f 44 00 00	 npad	 5
$LL6@ast_for_bi:

; 2063 :         expr_ty tmp_result, tmp;
; 2064 :         const node* next_oper = CHILD(n, i * 2 + 1);

  000c0	4c 8b 45 20	 mov	 r8, QWORD PTR [rbp+32]
  000c4	4e 8d 24 07	 lea	 r12, QWORD PTR [rdi+r8]

; 2065 : 
; 2066 :         newoperator = get_operator(next_oper);

  000c8	49 8b cc	 mov	 rcx, r12
  000cb	e8 00 00 00 00	 call	 get_operator
  000d0	44 8b e8	 mov	 r13d, eax

; 2067 :         if (!newoperator)

  000d3	85 c0		 test	 eax, eax
  000d5	0f 84 80 00 00
	00		 je	 $LN14@ast_for_bi

; 2069 : 
; 2070 :         tmp = ast_for_expr(c, CHILD(n, i * 2 + 2));

  000db	48 63 ce	 movsxd	 rcx, esi
  000de	48 8d 14 89	 lea	 rdx, QWORD PTR [rcx+rcx*4]
  000e2	49 8b ce	 mov	 rcx, r14
  000e5	49 8d 14 d0	 lea	 rdx, QWORD PTR [r8+rdx*8]
  000e9	e8 00 00 00 00	 call	 ast_for_expr

; 2071 :         if (!tmp)

  000ee	48 85 c0	 test	 rax, rax
  000f1	74 68		 je	 SHORT $LN14@ast_for_bi

; 2072 :             return NULL;
; 2073 : 
; 2074 :         tmp_result = BinOp(result, newoperator, tmp,
; 2075 :                            LINENO(next_oper), next_oper->n_col_offset,
; 2076 :                            c->c_arena);

  000f3	49 8b 4e 08	 mov	 rcx, QWORD PTR [r14+8]
  000f7	45 8b 4c 24 10	 mov	 r9d, DWORD PTR [r12+16]
  000fc	4c 8b c0	 mov	 r8, rax
  000ff	48 89 4c 24 28	 mov	 QWORD PTR [rsp+40], rcx
  00104	41 8b 4c 24 14	 mov	 ecx, DWORD PTR [r12+20]
  00109	41 8b d5	 mov	 edx, r13d
  0010c	89 4c 24 20	 mov	 DWORD PTR [rsp+32], ecx
  00110	48 8b 4c 24 68	 mov	 rcx, QWORD PTR result$1$[rsp]
  00115	e8 00 00 00 00	 call	 _Py_BinOp
  0011a	48 8b c8	 mov	 rcx, rax
  0011d	48 89 44 24 68	 mov	 QWORD PTR result$1$[rsp], rax

; 2077 :         if (!tmp_result)

  00122	48 85 c0	 test	 rax, rax
  00125	74 34		 je	 SHORT $LN14@ast_for_bi

; 2062 :     for (i = 1; i < nops; i++) {

  00127	48 ff c3	 inc	 rbx
  0012a	83 c6 02	 add	 esi, 2
  0012d	48 83 c7 50	 add	 rdi, 80			; 00000050H
  00131	49 3b df	 cmp	 rbx, r15
  00134	7c 8a		 jl	 SHORT $LL6@ast_for_bi
$LN4@ast_for_bi:

; 2078 :             return NULL;
; 2079 :         result = tmp_result;
; 2080 :     }
; 2081 :     return result;

  00136	48 8b c1	 mov	 rax, rcx
$LN22@ast_for_bi:
  00139	4c 8b 6c 24 38	 mov	 r13, QWORD PTR [rsp+56]
  0013e	4c 8b 64 24 78	 mov	 r12, QWORD PTR [rsp+120]
  00143	48 8b 7c 24 70	 mov	 rdi, QWORD PTR [rsp+112]
  00148	48 8b 74 24 60	 mov	 rsi, QWORD PTR [rsp+96]
  0014d	4c 8b 7c 24 30	 mov	 r15, QWORD PTR [rsp+48]

; 2082 : }

  00152	48 83 c4 40	 add	 rsp, 64			; 00000040H
  00156	41 5e		 pop	 r14
  00158	5d		 pop	 rbp
  00159	5b		 pop	 rbx
  0015a	c3		 ret	 0
$LN14@ast_for_bi:

; 2068 :             return NULL;

  0015b	33 c0		 xor	 eax, eax
  0015d	eb da		 jmp	 SHORT $LN22@ast_for_bi
ast_for_binop ENDP
_TEXT	ENDS
EXTRN	_Py_Tuple:PROC
EXTRN	_Py_ExtSlice:PROC
EXTRN	_Py_Subscript:PROC
EXTRN	_Py_Call:PROC
;	COMDAT pdata
pdata	SEGMENT
$pdata$ast_for_trailer DD imagerel ast_for_trailer
	DD	imagerel ast_for_trailer+288
	DD	imagerel $unwind$ast_for_trailer
pdata	ENDS
;	COMDAT pdata
pdata	SEGMENT
$pdata$1$ast_for_trailer DD imagerel ast_for_trailer+288
	DD	imagerel ast_for_trailer+335
	DD	imagerel $chain$1$ast_for_trailer
pdata	ENDS
;	COMDAT pdata
pdata	SEGMENT
$pdata$2$ast_for_trailer DD imagerel ast_for_trailer+335
	DD	imagerel ast_for_trailer+601
	DD	imagerel $chain$2$ast_for_trailer
pdata	ENDS
;	COMDAT pdata
pdata	SEGMENT
$pdata$3$ast_for_trailer DD imagerel ast_for_trailer+601
	DD	imagerel ast_for_trailer+625
	DD	imagerel $chain$3$ast_for_trailer
pdata	ENDS
;	COMDAT xdata
xdata	SEGMENT
$chain$3$ast_for_trailer DD 021H
	DD	imagerel ast_for_trailer+288
	DD	imagerel ast_for_trailer+335
	DD	imagerel $chain$1$ast_for_trailer
xdata	ENDS
;	COMDAT xdata
xdata	SEGMENT
$chain$2$ast_for_trailer DD 020521H
	DD	0dc405H
	DD	imagerel ast_for_trailer+288
	DD	imagerel ast_for_trailer+335
	DD	imagerel $chain$1$ast_for_trailer
xdata	ENDS
;	COMDAT xdata
xdata	SEGMENT
$chain$1$ast_for_trailer DD 040a21H
	DD	0ed40aH
	DD	0c5405H
	DD	imagerel ast_for_trailer
	DD	imagerel ast_for_trailer+288
	DD	imagerel $unwind$ast_for_trailer
xdata	ENDS
;	COMDAT xdata
xdata	SEGMENT
$unwind$ast_for_trailer DD 060d01H
	DD	0f340dH
	DD	0e009720dH
	DD	060067007H
; Function compile flags: /Ogtpy
xdata	ENDS
;	COMDAT ast_for_trailer
_TEXT	SEGMENT
c$ = 96
n$ = 104
left_expr$ = 112
ast_for_trailer PROC					; COMDAT

; 2086 : {

  00000	48 89 5c 24 20	 mov	 QWORD PTR [rsp+32], rbx
  00005	56		 push	 rsi
  00006	57		 push	 rdi
  00007	41 56		 push	 r14
  00009	48 83 ec 40	 sub	 rsp, 64			; 00000040H

; 2087 :     /* trailer: '(' [arglist] ')' | '[' subscriptlist ']' | '.' NAME
; 2088 :        subscriptlist: subscript (',' subscript)* [',']
; 2089 :        subscript: '.' '.' '.' | test | [test] ':' [test] [sliceop]
; 2090 :      */
; 2091 :     REQ(n, trailer);
; 2092 :     if (TYPE(CHILD(n, 0)) == LPAR) {

  0000d	48 8b 7a 20	 mov	 rdi, QWORD PTR [rdx+32]
  00011	4d 8b f0	 mov	 r14, r8
  00014	48 8b da	 mov	 rbx, rdx
  00017	0f b7 07	 movzx	 eax, WORD PTR [rdi]
  0001a	48 8b f1	 mov	 rsi, rcx
  0001d	66 83 f8 07	 cmp	 ax, 7
  00021	75 58		 jne	 SHORT $LN22@ast_for_tr

; 2093 :         if (NCH(n) == 2)

  00023	83 7a 18 02	 cmp	 DWORD PTR [rdx+24], 2
  00027	75 3c		 jne	 SHORT $LN21@ast_for_tr

; 2094 :             return Call(left_expr, NULL, NULL, NULL, NULL, LINENO(n),
; 2095 :                         n->n_col_offset, c->c_arena);

  00029	48 8b 41 08	 mov	 rax, QWORD PTR [rcx+8]
  0002d	33 db		 xor	 ebx, ebx
  0002f	45 33 c9	 xor	 r9d, r9d
  00032	48 89 44 24 38	 mov	 QWORD PTR [rsp+56], rax
  00037	8b 42 14	 mov	 eax, DWORD PTR [rdx+20]
  0003a	45 33 c0	 xor	 r8d, r8d
  0003d	89 44 24 30	 mov	 DWORD PTR [rsp+48], eax
  00041	8b 42 10	 mov	 eax, DWORD PTR [rdx+16]
  00044	33 d2		 xor	 edx, edx
  00046	89 44 24 28	 mov	 DWORD PTR [rsp+40], eax
  0004a	49 8b ce	 mov	 rcx, r14
  0004d	48 89 5c 24 20	 mov	 QWORD PTR [rsp+32], rbx
  00052	e8 00 00 00 00	 call	 _Py_Call

; 2156 :         }
; 2157 :     }
; 2158 : }

  00057	48 8b 5c 24 78	 mov	 rbx, QWORD PTR [rsp+120]
  0005c	48 83 c4 40	 add	 rsp, 64			; 00000040H
  00060	41 5e		 pop	 r14
  00062	5f		 pop	 rdi
  00063	5e		 pop	 rsi
  00064	c3		 ret	 0
$LN21@ast_for_tr:

; 2096 :         else
; 2097 :             return ast_for_call(c, CHILD(n, 1), left_expr);

  00065	48 8d 57 28	 lea	 rdx, QWORD PTR [rdi+40]

; 2156 :         }
; 2157 :     }
; 2158 : }

  00069	48 8b 5c 24 78	 mov	 rbx, QWORD PTR [rsp+120]
  0006e	48 83 c4 40	 add	 rsp, 64			; 00000040H
  00072	41 5e		 pop	 r14
  00074	5f		 pop	 rdi
  00075	5e		 pop	 rsi
  00076	e9 00 00 00 00	 jmp	 ast_for_call
$LN22@ast_for_tr:

; 2098 :     }
; 2099 :     else if (TYPE(CHILD(n, 0)) == DOT ) {

  0007b	66 83 f8 17	 cmp	 ax, 23
  0007f	75 54		 jne	 SHORT $LN18@ast_for_tr

; 2100 :         PyObject *attr_id = NEW_IDENTIFIER(CHILD(n, 1));

  00081	48 8b d1	 mov	 rdx, rcx
  00084	48 8b 4f 30	 mov	 rcx, QWORD PTR [rdi+48]
  00088	e8 00 00 00 00	 call	 new_identifier
  0008d	48 8b d0	 mov	 rdx, rax

; 2101 :         if (!attr_id)

  00090	48 85 c0	 test	 rax, rax
  00093	75 10		 jne	 SHORT $LN17@ast_for_tr
$LN38@ast_for_tr:

; 2102 :             return NULL;

  00095	33 c0		 xor	 eax, eax

; 2156 :         }
; 2157 :     }
; 2158 : }

  00097	48 8b 5c 24 78	 mov	 rbx, QWORD PTR [rsp+120]
  0009c	48 83 c4 40	 add	 rsp, 64			; 00000040H
  000a0	41 5e		 pop	 r14
  000a2	5f		 pop	 rdi
  000a3	5e		 pop	 rsi
  000a4	c3		 ret	 0
$LN17@ast_for_tr:

; 2103 :         return Attribute(left_expr, attr_id, Load,
; 2104 :                          LINENO(n), n->n_col_offset, c->c_arena);

  000a5	48 8b 46 08	 mov	 rax, QWORD PTR [rsi+8]
  000a9	44 8b 4b 10	 mov	 r9d, DWORD PTR [rbx+16]
  000ad	41 b8 01 00 00
	00		 mov	 r8d, 1
  000b3	48 89 44 24 28	 mov	 QWORD PTR [rsp+40], rax
  000b8	8b 43 14	 mov	 eax, DWORD PTR [rbx+20]
  000bb	49 8b ce	 mov	 rcx, r14
  000be	89 44 24 20	 mov	 DWORD PTR [rsp+32], eax
  000c2	e8 00 00 00 00	 call	 _Py_Attribute

; 2156 :         }
; 2157 :     }
; 2158 : }

  000c7	48 8b 5c 24 78	 mov	 rbx, QWORD PTR [rsp+120]
  000cc	48 83 c4 40	 add	 rsp, 64			; 00000040H
  000d0	41 5e		 pop	 r14
  000d2	5f		 pop	 rdi
  000d3	5e		 pop	 rsi
  000d4	c3		 ret	 0
$LN18@ast_for_tr:

; 2105 :     }
; 2106 :     else {
; 2107 :         REQ(CHILD(n, 0), LSQB);
; 2108 :         REQ(CHILD(n, 2), RSQB);
; 2109 :         n = CHILD(n, 1);
; 2110 :         if (NCH(n) == 1) {

  000d5	8b 47 40	 mov	 eax, DWORD PTR [rdi+64]
  000d8	83 f8 01	 cmp	 eax, 1
  000db	75 41		 jne	 SHORT $LN15@ast_for_tr

; 2111 :             slice_ty slc = ast_for_slice(c, CHILD(n, 0));

  000dd	48 8b 57 48	 mov	 rdx, QWORD PTR [rdi+72]
  000e1	e8 00 00 00 00	 call	 ast_for_slice
  000e6	48 8b d0	 mov	 rdx, rax

; 2112 :             if (!slc)

  000e9	48 85 c0	 test	 rax, rax

; 2113 :                 return NULL;

  000ec	74 a7		 je	 SHORT $LN38@ast_for_tr

; 2114 :             return Subscript(left_expr, slc, Load, LINENO(n), n->n_col_offset,
; 2115 :                              c->c_arena);

  000ee	48 8b 46 08	 mov	 rax, QWORD PTR [rsi+8]
  000f2	44 8b 4f 38	 mov	 r9d, DWORD PTR [rdi+56]
  000f6	41 b8 01 00 00
	00		 mov	 r8d, 1
  000fc	48 89 44 24 28	 mov	 QWORD PTR [rsp+40], rax
  00101	8b 47 3c	 mov	 eax, DWORD PTR [rdi+60]
  00104	49 8b ce	 mov	 rcx, r14
  00107	89 44 24 20	 mov	 DWORD PTR [rsp+32], eax
  0010b	e8 00 00 00 00	 call	 _Py_Subscript

; 2156 :         }
; 2157 :     }
; 2158 : }

  00110	48 8b 5c 24 78	 mov	 rbx, QWORD PTR [rsp+120]
  00115	48 83 c4 40	 add	 rsp, 64			; 00000040H
  00119	41 5e		 pop	 r14
  0011b	5f		 pop	 rdi
  0011c	5e		 pop	 rsi
  0011d	c3		 ret	 0
$LN15@ast_for_tr:

; 2116 :         }
; 2117 :         else {
; 2118 :             /* The grammar is ambiguous here. The ambiguity is resolved
; 2119 :                by treating the sequence as a tuple literal if there are
; 2120 :                no slice features.
; 2121 :             */
; 2122 :             int j;
; 2123 :             slice_ty slc;
; 2124 :             expr_ty e;
; 2125 :             int simple = 1;
; 2126 :             asdl_seq *slices, *elts;
; 2127 :             slices = asdl_seq_new((NCH(n) + 1) / 2, c->c_arena);

  0011e	ff c0		 inc	 eax
  00120	48 89 6c 24 60	 mov	 QWORD PTR [rsp+96], rbp
  00125	4c 89 6c 24 70	 mov	 QWORD PTR [rsp+112], r13
  0012a	99		 cdq
  0012b	41 bd 01 00 00
	00		 mov	 r13d, 1
  00131	2b c2		 sub	 eax, edx
  00133	48 8b 56 08	 mov	 rdx, QWORD PTR [rsi+8]
  00137	d1 f8		 sar	 eax, 1
  00139	48 63 c8	 movsxd	 rcx, eax
  0013c	e8 00 00 00 00	 call	 asdl_seq_new
  00141	48 8b e8	 mov	 rbp, rax

; 2128 :             if (!slices)

  00144	48 85 c0	 test	 rax, rax
  00147	0f 84 0c 01 00
	00		 je	 $LN34@ast_for_tr
$LN12@ast_for_tr:

; 2129 :                 return NULL;
; 2130 :             for (j = 0; j < NCH(n); j += 2) {

  0014d	33 db		 xor	 ebx, ebx
  0014f	4c 89 64 24 68	 mov	 QWORD PTR [rsp+104], r12
  00154	44 8b e3	 mov	 r12d, ebx
  00157	39 5f 40	 cmp	 DWORD PTR [rdi+64], ebx
  0015a	7e 5e		 jle	 SHORT $LN6@ast_for_tr
  0015c	0f 1f 40 00	 npad	 4
$LL11@ast_for_tr:

; 2131 :                 slc = ast_for_slice(c, CHILD(n, j));

  00160	49 63 c4	 movsxd	 rax, r12d
  00163	48 8d 0c 80	 lea	 rcx, QWORD PTR [rax+rax*4]
  00167	48 8b 47 48	 mov	 rax, QWORD PTR [rdi+72]
  0016b	48 8d 14 c8	 lea	 rdx, QWORD PTR [rax+rcx*8]
  0016f	48 8b ce	 mov	 rcx, rsi
  00172	e8 00 00 00 00	 call	 ast_for_slice
  00177	4c 8b d8	 mov	 r11, rax

; 2132 :                 if (!slc)

  0017a	48 85 c0	 test	 rax, rax
  0017d	0f 84 9d 00 00
	00		 je	 $LN37@ast_for_tr

; 2133 :                     return NULL;
; 2134 :                 if (slc->kind != Index_kind)

  00183	83 38 03	 cmp	 DWORD PTR [rax], 3

; 2135 :                     simple = 0;
; 2136 :                 asdl_seq_SET(slices, j / 2, slc);

  00186	41 8b c4	 mov	 eax, r12d
  00189	44 0f 45 eb	 cmovne	 r13d, ebx
  0018d	99		 cdq
  0018e	41 83 c4 02	 add	 r12d, 2
  00192	2b c2		 sub	 eax, edx
  00194	d1 f8		 sar	 eax, 1
  00196	48 63 c8	 movsxd	 rcx, eax
  00199	4c 89 5c cd 08	 mov	 QWORD PTR [rbp+rcx*8+8], r11
  0019e	44 3b 67 40	 cmp	 r12d, DWORD PTR [rdi+64]
  001a2	7c bc		 jl	 SHORT $LL11@ast_for_tr

; 2137 :             }
; 2138 :             if (!simple) {

  001a4	45 85 ed	 test	 r13d, r13d
  001a7	75 11		 jne	 SHORT $LN6@ast_for_tr

; 2139 :                 return Subscript(left_expr, ExtSlice(slices, c->c_arena),
; 2140 :                                  Load, LINENO(n), n->n_col_offset, c->c_arena);

  001a9	48 8b 5e 08	 mov	 rbx, QWORD PTR [rsi+8]
  001ad	48 8b cd	 mov	 rcx, rbp
  001b0	48 8b d3	 mov	 rdx, rbx
  001b3	e8 00 00 00 00	 call	 _Py_ExtSlice
  001b8	eb 79		 jmp	 SHORT $LN36@ast_for_tr
$LN6@ast_for_tr:

; 2141 :             }
; 2142 :             /* extract Index values and put them in a Tuple */
; 2143 :             elts = asdl_seq_new(asdl_seq_LEN(slices), c->c_arena);

  001ba	48 8b 56 08	 mov	 rdx, QWORD PTR [rsi+8]
  001be	48 8b 4d 00	 mov	 rcx, QWORD PTR [rbp]
  001c2	e8 00 00 00 00	 call	 asdl_seq_new
  001c7	4c 8b d8	 mov	 r11, rax

; 2144 :             if (!elts)

  001ca	48 85 c0	 test	 rax, rax

; 2145 :                 return NULL;

  001cd	74 51		 je	 SHORT $LN37@ast_for_tr

; 2146 :             for (j = 0; j < asdl_seq_LEN(slices); ++j) {

  001cf	4c 8b c5	 mov	 r8, rbp
  001d2	48 8d 50 08	 lea	 rdx, QWORD PTR [rax+8]
  001d6	4c 2b c0	 sub	 r8, rax
  001d9	0f 1f 80 00 00
	00 00		 npad	 7
$LL4@ast_for_tr:
  001e0	48 63 c3	 movsxd	 rax, ebx
  001e3	48 3b 45 00	 cmp	 rax, QWORD PTR [rbp]
  001e7	7d 14		 jge	 SHORT $LN2@ast_for_tr

; 2147 :                 slc = (slice_ty)asdl_seq_GET(slices, j);
; 2148 :                 assert(slc->kind == Index_kind  && slc->v.Index.value);
; 2149 :                 asdl_seq_SET(elts, j, slc->v.Index.value);

  001e9	49 8b 04 10	 mov	 rax, QWORD PTR [r8+rdx]
  001ed	ff c3		 inc	 ebx
  001ef	48 83 c2 08	 add	 rdx, 8
  001f3	48 8b 48 08	 mov	 rcx, QWORD PTR [rax+8]
  001f7	48 89 4a f8	 mov	 QWORD PTR [rdx-8], rcx
  001fb	eb e3		 jmp	 SHORT $LL4@ast_for_tr
$LN2@ast_for_tr:

; 2150 :             }
; 2151 :             e = Tuple(elts, Load, LINENO(n), n->n_col_offset, c->c_arena);

  001fd	48 8b 46 08	 mov	 rax, QWORD PTR [rsi+8]
  00201	44 8b 4f 3c	 mov	 r9d, DWORD PTR [rdi+60]
  00205	44 8b 47 38	 mov	 r8d, DWORD PTR [rdi+56]
  00209	ba 01 00 00 00	 mov	 edx, 1
  0020e	49 8b cb	 mov	 rcx, r11
  00211	48 89 44 24 20	 mov	 QWORD PTR [rsp+32], rax
  00216	e8 00 00 00 00	 call	 _Py_Tuple

; 2152 :             if (!e)

  0021b	48 85 c0	 test	 rax, rax
  0021e	75 04		 jne	 SHORT $LN1@ast_for_tr
$LN37@ast_for_tr:

; 2153 :                 return NULL;

  00220	33 c0		 xor	 eax, eax
  00222	eb 30		 jmp	 SHORT $LN35@ast_for_tr
$LN1@ast_for_tr:

; 2154 :             return Subscript(left_expr, Index(e, c->c_arena),
; 2155 :                              Load, LINENO(n), n->n_col_offset, c->c_arena);

  00224	48 8b 5e 08	 mov	 rbx, QWORD PTR [rsi+8]
  00228	48 8b c8	 mov	 rcx, rax
  0022b	48 8b d3	 mov	 rdx, rbx
  0022e	e8 00 00 00 00	 call	 _Py_Index
$LN36@ast_for_tr:
  00233	44 8b 4f 38	 mov	 r9d, DWORD PTR [rdi+56]
  00237	48 8b d0	 mov	 rdx, rax
  0023a	8b 47 3c	 mov	 eax, DWORD PTR [rdi+60]
  0023d	41 b8 01 00 00
	00		 mov	 r8d, 1
  00243	49 8b ce	 mov	 rcx, r14
  00246	48 89 5c 24 28	 mov	 QWORD PTR [rsp+40], rbx
  0024b	89 44 24 20	 mov	 DWORD PTR [rsp+32], eax
  0024f	e8 00 00 00 00	 call	 _Py_Subscript
$LN35@ast_for_tr:
  00254	4c 8b 64 24 68	 mov	 r12, QWORD PTR [rsp+104]
$LN34@ast_for_tr:
  00259	48 8b 6c 24 60	 mov	 rbp, QWORD PTR [rsp+96]
  0025e	4c 8b 6c 24 70	 mov	 r13, QWORD PTR [rsp+112]

; 2156 :         }
; 2157 :     }
; 2158 : }

  00263	48 8b 5c 24 78	 mov	 rbx, QWORD PTR [rsp+120]
  00268	48 83 c4 40	 add	 rsp, 64			; 00000040H
  0026c	41 5e		 pop	 r14
  0026e	5f		 pop	 rdi
  0026f	5e		 pop	 rsi
  00270	c3		 ret	 0
ast_for_trailer ENDP
_TEXT	ENDS
PUBLIC	??_C@_0BF@MFDCCJEE@unhandled?5factor?3?5?$CFd?$AA@ ; `string'
EXTRN	_Py_UnaryOp:PROC
;	COMDAT pdata
pdata	SEGMENT
$pdata$ast_for_factor DD imagerel ast_for_factor
	DD	imagerel ast_for_factor+146
	DD	imagerel $unwind$ast_for_factor
pdata	ENDS
;	COMDAT xdata
xdata	SEGMENT
$unwind$ast_for_factor DD 040a01H
	DD	08340aH
	DD	07006520aH
xdata	ENDS
;	COMDAT ??_C@_0BF@MFDCCJEE@unhandled?5factor?3?5?$CFd?$AA@
CONST	SEGMENT
??_C@_0BF@MFDCCJEE@unhandled?5factor?3?5?$CFd?$AA@ DB 'unhandled factor: '
	DB	'%d', 00H					; `string'
; Function compile flags: /Ogtpy
CONST	ENDS
;	COMDAT ast_for_factor
_TEXT	SEGMENT
c$ = 64
n$ = 72
ast_for_factor PROC					; COMDAT

; 2162 : {

  00000	48 89 5c 24 08	 mov	 QWORD PTR [rsp+8], rbx
  00005	57		 push	 rdi
  00006	48 83 ec 30	 sub	 rsp, 48			; 00000030H
  0000a	48 8b da	 mov	 rbx, rdx

; 2163 :     expr_ty expression;
; 2164 : 
; 2165 :     expression = ast_for_expr(c, CHILD(n, 1));

  0000d	48 8b 52 20	 mov	 rdx, QWORD PTR [rdx+32]
  00011	48 8b f9	 mov	 rdi, rcx
  00014	48 83 c2 28	 add	 rdx, 40			; 00000028H
  00018	e8 00 00 00 00	 call	 ast_for_expr
  0001d	48 8b d0	 mov	 rdx, rax

; 2166 :     if (!expression)

  00020	48 85 c0	 test	 rax, rax

; 2167 :         return NULL;

  00023	74 2c		 je	 SHORT $LN10@ast_for_fa

; 2168 : 
; 2169 :     switch (TYPE(CHILD(n, 0))) {

  00025	48 8b 43 20	 mov	 rax, QWORD PTR [rbx+32]
  00029	44 0f bf 00	 movsx	 r8d, WORD PTR [rax]
  0002d	41 8b c8	 mov	 ecx, r8d
  00030	83 e9 0e	 sub	 ecx, 14
  00033	74 37		 je	 SHORT $LN3@ast_for_fa
  00035	ff c9		 dec	 ecx
  00037	74 2c		 je	 SHORT $LN2@ast_for_fa
  00039	83 f9 10	 cmp	 ecx, 16
  0003c	74 20		 je	 SHORT $LN1@ast_for_fa

; 2179 :     }
; 2180 :     PyErr_Format(PyExc_SystemError, "unhandled factor: %d",
; 2181 :                  TYPE(CHILD(n, 0)));

  0003e	48 8b 0d 00 00
	00 00		 mov	 rcx, QWORD PTR PyExc_SystemError
  00045	48 8d 15 00 00
	00 00		 lea	 rdx, OFFSET FLAT:??_C@_0BF@MFDCCJEE@unhandled?5factor?3?5?$CFd?$AA@
  0004c	e8 00 00 00 00	 call	 PyErr_Format
$LN10@ast_for_fa:

; 2182 :     return NULL;

  00051	33 c0		 xor	 eax, eax

; 2183 : }

  00053	48 8b 5c 24 40	 mov	 rbx, QWORD PTR [rsp+64]
  00058	48 83 c4 30	 add	 rsp, 48			; 00000030H
  0005c	5f		 pop	 rdi
  0005d	c3		 ret	 0
$LN1@ast_for_fa:

; 2176 :         case TILDE:
; 2177 :             return UnaryOp(Invert, expression, LINENO(n),
; 2178 :                            n->n_col_offset, c->c_arena);

  0005e	b9 01 00 00 00	 mov	 ecx, 1
  00063	eb 0c		 jmp	 SHORT $LN9@ast_for_fa
$LN2@ast_for_fa:

; 2173 :         case MINUS:
; 2174 :             return UnaryOp(USub, expression, LINENO(n), n->n_col_offset,
; 2175 :                            c->c_arena);

  00065	b9 04 00 00 00	 mov	 ecx, 4
  0006a	eb 05		 jmp	 SHORT $LN9@ast_for_fa
$LN3@ast_for_fa:

; 2170 :         case PLUS:
; 2171 :             return UnaryOp(UAdd, expression, LINENO(n), n->n_col_offset,
; 2172 :                            c->c_arena);

  0006c	b9 03 00 00 00	 mov	 ecx, 3
$LN9@ast_for_fa:
  00071	48 8b 47 08	 mov	 rax, QWORD PTR [rdi+8]
  00075	44 8b 4b 14	 mov	 r9d, DWORD PTR [rbx+20]
  00079	44 8b 43 10	 mov	 r8d, DWORD PTR [rbx+16]
  0007d	48 89 44 24 20	 mov	 QWORD PTR [rsp+32], rax
  00082	e8 00 00 00 00	 call	 _Py_UnaryOp

; 2183 : }

  00087	48 8b 5c 24 40	 mov	 rbx, QWORD PTR [rsp+64]
  0008c	48 83 c4 30	 add	 rsp, 48			; 00000030H
  00090	5f		 pop	 rdi
  00091	c3		 ret	 0
ast_for_factor ENDP
_TEXT	ENDS
EXTRN	_Py_Starred:PROC
;	COMDAT pdata
pdata	SEGMENT
$pdata$ast_for_starred DD imagerel ast_for_starred
	DD	imagerel ast_for_starred+86
	DD	imagerel $unwind$ast_for_starred
pdata	ENDS
;	COMDAT xdata
xdata	SEGMENT
$unwind$ast_for_starred DD 040a01H
	DD	08340aH
	DD	07006520aH
; Function compile flags: /Ogtpy
xdata	ENDS
;	COMDAT ast_for_starred
_TEXT	SEGMENT
c$ = 64
n$ = 72
ast_for_starred PROC					; COMDAT

; 2223 : {

  00000	48 89 5c 24 08	 mov	 QWORD PTR [rsp+8], rbx
  00005	57		 push	 rdi
  00006	48 83 ec 30	 sub	 rsp, 48			; 00000030H
  0000a	48 8b da	 mov	 rbx, rdx

; 2224 :     expr_ty tmp;
; 2225 :     REQ(n, star_expr);
; 2226 : 
; 2227 :     tmp = ast_for_expr(c, CHILD(n, 1));

  0000d	48 8b 52 20	 mov	 rdx, QWORD PTR [rdx+32]
  00011	48 8b f9	 mov	 rdi, rcx
  00014	48 83 c2 28	 add	 rdx, 40			; 00000028H
  00018	e8 00 00 00 00	 call	 ast_for_expr
  0001d	48 8b c8	 mov	 rcx, rax

; 2228 :     if (!tmp)

  00020	48 85 c0	 test	 rax, rax
  00023	75 0b		 jne	 SHORT $LN1@ast_for_st

; 2233 : }

  00025	48 8b 5c 24 40	 mov	 rbx, QWORD PTR [rsp+64]
  0002a	48 83 c4 30	 add	 rsp, 48			; 00000030H
  0002e	5f		 pop	 rdi
  0002f	c3		 ret	 0
$LN1@ast_for_st:

; 2229 :         return NULL;
; 2230 : 
; 2231 :     /* The Load context is changed later. */
; 2232 :     return Starred(tmp, Load, LINENO(n), n->n_col_offset, c->c_arena);

  00030	48 8b 47 08	 mov	 rax, QWORD PTR [rdi+8]
  00034	44 8b 4b 14	 mov	 r9d, DWORD PTR [rbx+20]
  00038	44 8b 43 10	 mov	 r8d, DWORD PTR [rbx+16]
  0003c	ba 01 00 00 00	 mov	 edx, 1
  00041	48 89 44 24 20	 mov	 QWORD PTR [rsp+32], rax
  00046	e8 00 00 00 00	 call	 _Py_Starred

; 2233 : }

  0004b	48 8b 5c 24 40	 mov	 rbx, QWORD PTR [rsp+64]
  00050	48 83 c4 30	 add	 rsp, 48			; 00000030H
  00054	5f		 pop	 rdi
  00055	c3		 ret	 0
ast_for_starred ENDP
_TEXT	ENDS
;	COMDAT pdata
pdata	SEGMENT
$pdata$ast_for_testlist DD imagerel ast_for_testlist
	DD	imagerel ast_for_testlist+103
	DD	imagerel $unwind$ast_for_testlist
pdata	ENDS
;	COMDAT xdata
xdata	SEGMENT
$unwind$ast_for_testlist DD 040a01H
	DD	08340aH
	DD	07006520aH
; Function compile flags: /Ogtpy
xdata	ENDS
;	COMDAT ast_for_testlist
_TEXT	SEGMENT
c$ = 64
n$ = 72
ast_for_testlist PROC					; COMDAT

; 2536 : {

  00000	48 89 5c 24 08	 mov	 QWORD PTR [rsp+8], rbx
  00005	57		 push	 rdi
  00006	48 83 ec 30	 sub	 rsp, 48			; 00000030H

; 2537 :     /* testlist_comp: test (comp_for | (',' test)* [',']) */
; 2538 :     /* testlist: test (',' test)* [','] */
; 2539 :     assert(NCH(n) > 0);
; 2540 :     if (TYPE(n) == testlist_comp) {
; 2541 :         if (NCH(n) > 1)
; 2542 :             assert(TYPE(CHILD(n, 1)) != comp_for);
; 2543 :     }
; 2544 :     else {
; 2545 :         assert(TYPE(n) == testlist ||
; 2546 :                TYPE(n) == testlist_star_expr);
; 2547 :     }
; 2548 :     if (NCH(n) == 1)

  0000a	83 7a 18 01	 cmp	 DWORD PTR [rdx+24], 1
  0000e	48 8b da	 mov	 rbx, rdx
  00011	48 8b f9	 mov	 rdi, rcx
  00014	75 13		 jne	 SHORT $LN3@ast_for_te

; 2549 :         return ast_for_expr(c, CHILD(n, 0));

  00016	48 8b 52 20	 mov	 rdx, QWORD PTR [rdx+32]

; 2555 :     }
; 2556 : }

  0001a	48 8b 5c 24 40	 mov	 rbx, QWORD PTR [rsp+64]
  0001f	48 83 c4 30	 add	 rsp, 48			; 00000030H
  00023	5f		 pop	 rdi
  00024	e9 00 00 00 00	 jmp	 ast_for_expr
$LN3@ast_for_te:

; 2550 :     else {
; 2551 :         asdl_seq *tmp = seq_for_testlist(c, n);

  00029	e8 00 00 00 00	 call	 seq_for_testlist
  0002e	48 8b c8	 mov	 rcx, rax

; 2552 :         if (!tmp)

  00031	48 85 c0	 test	 rax, rax
  00034	75 0b		 jne	 SHORT $LN1@ast_for_te

; 2555 :     }
; 2556 : }

  00036	48 8b 5c 24 40	 mov	 rbx, QWORD PTR [rsp+64]
  0003b	48 83 c4 30	 add	 rsp, 48			; 00000030H
  0003f	5f		 pop	 rdi
  00040	c3		 ret	 0
$LN1@ast_for_te:

; 2553 :             return NULL;
; 2554 :         return Tuple(tmp, Load, LINENO(n), n->n_col_offset, c->c_arena);

  00041	48 8b 47 08	 mov	 rax, QWORD PTR [rdi+8]
  00045	44 8b 4b 14	 mov	 r9d, DWORD PTR [rbx+20]
  00049	44 8b 43 10	 mov	 r8d, DWORD PTR [rbx+16]
  0004d	ba 01 00 00 00	 mov	 edx, 1
  00052	48 89 44 24 20	 mov	 QWORD PTR [rsp+32], rax
  00057	e8 00 00 00 00	 call	 _Py_Tuple

; 2555 :     }
; 2556 : }

  0005c	48 8b 5c 24 40	 mov	 rbx, QWORD PTR [rsp+64]
  00061	48 83 c4 30	 add	 rsp, 48			; 00000030H
  00065	5f		 pop	 rdi
  00066	c3		 ret	 0
ast_for_testlist ENDP
_TEXT	ENDS
;	COMDAT pdata
pdata	SEGMENT
$pdata$ast_for_exprlist DD imagerel ast_for_exprlist
	DD	imagerel ast_for_exprlist+68
	DD	imagerel $unwind$ast_for_exprlist
pdata	ENDS
;	COMDAT pdata
pdata	SEGMENT
$pdata$1$ast_for_exprlist DD imagerel ast_for_exprlist+68
	DD	imagerel ast_for_exprlist+209
	DD	imagerel $chain$1$ast_for_exprlist
pdata	ENDS
;	COMDAT pdata
pdata	SEGMENT
$pdata$3$ast_for_exprlist DD imagerel ast_for_exprlist+209
	DD	imagerel ast_for_exprlist+213
	DD	imagerel $chain$3$ast_for_exprlist
pdata	ENDS
;	COMDAT xdata
xdata	SEGMENT
$chain$3$ast_for_exprlist DD 040021H
	DD	096400H
	DD	083400H
	DD	imagerel ast_for_exprlist
	DD	imagerel ast_for_exprlist+68
	DD	imagerel $unwind$ast_for_exprlist
xdata	ENDS
;	COMDAT xdata
xdata	SEGMENT
$chain$1$ast_for_exprlist DD 040c21H
	DD	09640cH
	DD	083405H
	DD	imagerel ast_for_exprlist
	DD	imagerel ast_for_exprlist+68
	DD	imagerel $unwind$ast_for_exprlist
xdata	ENDS
;	COMDAT xdata
xdata	SEGMENT
$unwind$ast_for_exprlist DD 060e01H
	DD	0a540eH
	DD	0d00a320eH
	DD	07006c008H
; Function compile flags: /Ogtpy
xdata	ENDS
;	COMDAT ast_for_exprlist
_TEXT	SEGMENT
c$ = 64
n$ = 72
context$ = 80
ast_for_exprlist PROC					; COMDAT

; 2657 : {

  00000	48 89 6c 24 18	 mov	 QWORD PTR [rsp+24], rbp
  00005	57		 push	 rdi
  00006	41 54		 push	 r12
  00008	41 55		 push	 r13
  0000a	48 83 ec 20	 sub	 rsp, 32			; 00000020H

; 2658 :     asdl_seq *seq;
; 2659 :     int i;
; 2660 :     expr_ty e;
; 2661 : 
; 2662 :     REQ(n, exprlist);
; 2663 : 
; 2664 :     seq = asdl_seq_new((NCH(n) + 1) / 2, c->c_arena);

  0000e	8b 42 18	 mov	 eax, DWORD PTR [rdx+24]
  00011	48 8b fa	 mov	 rdi, rdx
  00014	4c 8b e9	 mov	 r13, rcx
  00017	ff c0		 inc	 eax
  00019	45 8b e0	 mov	 r12d, r8d
  0001c	99		 cdq
  0001d	2b c2		 sub	 eax, edx
  0001f	49 8b 55 08	 mov	 rdx, QWORD PTR [r13+8]
  00023	d1 f8		 sar	 eax, 1
  00025	48 63 c8	 movsxd	 rcx, eax
  00028	e8 00 00 00 00	 call	 asdl_seq_new
  0002d	48 8b e8	 mov	 rbp, rax

; 2665 :     if (!seq)

  00030	48 85 c0	 test	 rax, rax
  00033	75 0f		 jne	 SHORT $LN6@ast_for_ex

; 2676 : }

  00035	48 8b 6c 24 50	 mov	 rbp, QWORD PTR [rsp+80]
  0003a	48 83 c4 20	 add	 rsp, 32			; 00000020H
  0003e	41 5d		 pop	 r13
  00040	41 5c		 pop	 r12
  00042	5f		 pop	 rdi
  00043	c3		 ret	 0
$LN6@ast_for_ex:
  00044	48 89 5c 24 40	 mov	 QWORD PTR [rsp+64], rbx

; 2666 :         return NULL;
; 2667 :     for (i = 0; i < NCH(n); i += 2) {

  00049	33 db		 xor	 ebx, ebx
  0004b	48 89 74 24 48	 mov	 QWORD PTR [rsp+72], rsi
  00050	39 5f 18	 cmp	 DWORD PTR [rdi+24], ebx
  00053	7e 60		 jle	 SHORT $LN3@ast_for_ex
  00055	66 66 66 0f 1f
	84 00 00 00 00
	00		 npad	 11
$LL5@ast_for_ex:

; 2668 :         e = ast_for_expr(c, CHILD(n, i));

  00060	48 63 c3	 movsxd	 rax, ebx
  00063	49 8b cd	 mov	 rcx, r13
  00066	48 8d 34 80	 lea	 rsi, QWORD PTR [rax+rax*4]
  0006a	48 8b 47 20	 mov	 rax, QWORD PTR [rdi+32]
  0006e	48 8d 14 f0	 lea	 rdx, QWORD PTR [rax+rsi*8]
  00072	e8 00 00 00 00	 call	 ast_for_expr
  00077	4c 8b d8	 mov	 r11, rax

; 2669 :         if (!e)

  0007a	48 85 c0	 test	 rax, rax
  0007d	74 52		 je	 SHORT $LN10@ast_for_ex

; 2671 :         asdl_seq_SET(seq, i / 2, e);

  0007f	8b c3		 mov	 eax, ebx
  00081	99		 cdq
  00082	2b c2		 sub	 eax, edx
  00084	d1 f8		 sar	 eax, 1
  00086	48 63 c8	 movsxd	 rcx, eax
  00089	4c 89 5c cd 08	 mov	 QWORD PTR [rbp+rcx*8+8], r11

; 2672 :         if (context && !set_context(c, e, context, CHILD(n, i)))

  0008e	45 85 e4	 test	 r12d, r12d
  00091	74 1a		 je	 SHORT $LN4@ast_for_ex
  00093	48 8b 4f 20	 mov	 rcx, QWORD PTR [rdi+32]
  00097	45 8b c4	 mov	 r8d, r12d
  0009a	49 8b d3	 mov	 rdx, r11
  0009d	4c 8d 0c f1	 lea	 r9, QWORD PTR [rcx+rsi*8]
  000a1	49 8b cd	 mov	 rcx, r13
  000a4	e8 00 00 00 00	 call	 set_context
  000a9	85 c0		 test	 eax, eax
  000ab	74 24		 je	 SHORT $LN10@ast_for_ex
$LN4@ast_for_ex:

; 2666 :         return NULL;
; 2667 :     for (i = 0; i < NCH(n); i += 2) {

  000ad	83 c3 02	 add	 ebx, 2
  000b0	3b 5f 18	 cmp	 ebx, DWORD PTR [rdi+24]
  000b3	7c ab		 jl	 SHORT $LL5@ast_for_ex
$LN3@ast_for_ex:

; 2673 :             return NULL;
; 2674 :     }
; 2675 :     return seq;

  000b5	48 8b c5	 mov	 rax, rbp
$LN15@ast_for_ex:
  000b8	48 8b 5c 24 40	 mov	 rbx, QWORD PTR [rsp+64]
  000bd	48 8b 74 24 48	 mov	 rsi, QWORD PTR [rsp+72]

; 2676 : }

  000c2	48 8b 6c 24 50	 mov	 rbp, QWORD PTR [rsp+80]
  000c7	48 83 c4 20	 add	 rsp, 32			; 00000020H
  000cb	41 5d		 pop	 r13
  000cd	41 5c		 pop	 r12
  000cf	5f		 pop	 rdi
  000d0	c3		 ret	 0
$LN10@ast_for_ex:

; 2670 :             return NULL;

  000d1	33 c0		 xor	 eax, eax
  000d3	eb e3		 jmp	 SHORT $LN15@ast_for_ex
ast_for_exprlist ENDP
_TEXT	ENDS
EXTRN	_Py_Delete:PROC
;	COMDAT pdata
pdata	SEGMENT
$pdata$ast_for_del_stmt DD imagerel ast_for_del_stmt
	DD	imagerel ast_for_del_stmt+80
	DD	imagerel $unwind$ast_for_del_stmt
pdata	ENDS
;	COMDAT xdata
xdata	SEGMENT
$unwind$ast_for_del_stmt DD 040a01H
	DD	06340aH
	DD	07006320aH
; Function compile flags: /Ogtpy
xdata	ENDS
;	COMDAT ast_for_del_stmt
_TEXT	SEGMENT
c$ = 48
n$ = 56
ast_for_del_stmt PROC					; COMDAT

; 2680 : {

  00000	48 89 5c 24 08	 mov	 QWORD PTR [rsp+8], rbx
  00005	57		 push	 rdi
  00006	48 83 ec 20	 sub	 rsp, 32			; 00000020H
  0000a	48 8b da	 mov	 rbx, rdx

; 2681 :     asdl_seq *expr_list;
; 2682 : 
; 2683 :     /* del_stmt: 'del' exprlist */
; 2684 :     REQ(n, del_stmt);
; 2685 : 
; 2686 :     expr_list = ast_for_exprlist(c, CHILD(n, 1), Del);

  0000d	48 8b 52 20	 mov	 rdx, QWORD PTR [rdx+32]
  00011	41 b8 03 00 00
	00		 mov	 r8d, 3
  00017	48 83 c2 28	 add	 rdx, 40			; 00000028H
  0001b	48 8b f9	 mov	 rdi, rcx
  0001e	e8 00 00 00 00	 call	 ast_for_exprlist

; 2687 :     if (!expr_list)

  00023	48 85 c0	 test	 rax, rax
  00026	75 0b		 jne	 SHORT $LN1@ast_for_de

; 2690 : }

  00028	48 8b 5c 24 30	 mov	 rbx, QWORD PTR [rsp+48]
  0002d	48 83 c4 20	 add	 rsp, 32			; 00000020H
  00031	5f		 pop	 rdi
  00032	c3		 ret	 0
$LN1@ast_for_de:

; 2688 :         return NULL;
; 2689 :     return Delete(expr_list, LINENO(n), n->n_col_offset, c->c_arena);

  00033	4c 8b 4f 08	 mov	 r9, QWORD PTR [rdi+8]
  00037	44 8b 43 14	 mov	 r8d, DWORD PTR [rbx+20]
  0003b	8b 53 10	 mov	 edx, DWORD PTR [rbx+16]
  0003e	48 8b c8	 mov	 rcx, rax

; 2690 : }

  00041	48 8b 5c 24 30	 mov	 rbx, QWORD PTR [rsp+48]
  00046	48 83 c4 20	 add	 rsp, 32			; 00000020H
  0004a	5f		 pop	 rdi
  0004b	e9 00 00 00 00	 jmp	 _Py_Delete
ast_for_del_stmt ENDP
_TEXT	ENDS
PUBLIC	??_C@_01NBENCBCI@?$CK?$AA@			; `string'
PUBLIC	??_C@_0BL@LEDBAIDM@unexpected?5import?5name?3?5?$CFd?$AA@ ; `string'
EXTRN	_Py_alias:PROC
EXTRN	PyUnicode_InternFromString:PROC
EXTRN	PyBytes_FromStringAndSize:PROC
;	COMDAT pdata
pdata	SEGMENT
$pdata$alias_for_import_name DD imagerel alias_for_import_name
	DD	imagerel alias_for_import_name+739
	DD	imagerel $unwind$alias_for_import_name
pdata	ENDS
;	COMDAT xdata
xdata	SEGMENT
$unwind$alias_for_import_name DD 061a01H
	DD	0a741aH
	DD	06008320cH
	DD	030065007H
xdata	ENDS
;	COMDAT ??_C@_01NBENCBCI@?$CK?$AA@
CONST	SEGMENT
??_C@_01NBENCBCI@?$CK?$AA@ DB '*', 00H			; `string'
CONST	ENDS
;	COMDAT ??_C@_0BL@LEDBAIDM@unexpected?5import?5name?3?5?$CFd?$AA@
CONST	SEGMENT
??_C@_0BL@LEDBAIDM@unexpected?5import?5name?3?5?$CFd?$AA@ DB 'unexpected '
	DB	'import name: %d', 00H			; `string'
; Function compile flags: /Ogtpy
CONST	ENDS
;	COMDAT alias_for_import_name
_TEXT	SEGMENT
c$ = 64
str$ = 72
n$ = 72
store$ = 80
alias_for_import_name PROC				; COMDAT

; 2756 : {

  00000	48 89 4c 24 08	 mov	 QWORD PTR [rsp+8], rcx
  00005	53		 push	 rbx
  00006	55		 push	 rbp
  00007	56		 push	 rsi
  00008	48 83 ec 20	 sub	 rsp, 32			; 00000020H
  0000c	41 8b e8	 mov	 ebp, r8d
  0000f	48 8b da	 mov	 rbx, rdx
  00012	48 8b f1	 mov	 rsi, rcx
  00015	48 89 7c 24 50	 mov	 QWORD PTR [rsp+80], rdi
  0001a	66 0f 1f 44 00
	00		 npad	 6
$loop$23593:

; 2757 :     /*
; 2758 :       import_as_name: NAME ['as' NAME]
; 2759 :       dotted_as_name: dotted_name ['as' NAME]
; 2760 :       dotted_name: NAME ('.' NAME)*
; 2761 :     */
; 2762 :     identifier str, name;
; 2763 : 
; 2764 :  loop:
; 2765 :     switch (TYPE(n)) {

  00020	0f bf 0b	 movsx	 ecx, WORD PTR [rbx]
  00023	83 e9 10	 sub	 ecx, 16
  00026	0f 84 7d 02 00
	00		 je	 $LN2@alias_for_
  0002c	81 e9 0d 01 00
	00		 sub	 ecx, 269		; 0000010dH
  00032	0f 84 e7 01 00
	00		 je	 $LN29@alias_for_
  00038	ff c9		 dec	 ecx
  0003a	75 6d		 jne	 SHORT $LN41@alias_for_

; 2785 :         }
; 2786 :         case dotted_as_name:
; 2787 :             if (NCH(n) == 1) {

  0003c	83 7b 18 01	 cmp	 DWORD PTR [rbx+24], 1
  00040	75 06		 jne	 SHORT $LN21@alias_for_

; 2788 :                 n = CHILD(n, 0);

  00042	48 8b 5b 20	 mov	 rbx, QWORD PTR [rbx+32]

; 2789 :                 goto loop;

  00046	eb d8		 jmp	 SHORT $loop$23593
$LN21@alias_for_:

; 2790 :             }
; 2791 :             else {
; 2792 :                 node *asname_node = CHILD(n, 2);

  00048	48 8b 53 20	 mov	 rdx, QWORD PTR [rbx+32]

; 2793 :                 alias_ty a = alias_for_import_name(c, CHILD(n, 0), 0);

  0004c	45 33 c0	 xor	 r8d, r8d
  0004f	48 8b ce	 mov	 rcx, rsi
  00052	48 8d 5a 50	 lea	 rbx, QWORD PTR [rdx+80]
  00056	e8 00 00 00 00	 call	 alias_for_import_name
  0005b	48 8b f8	 mov	 rdi, rax

; 2794 :                 if (!a)

  0005e	48 85 c0	 test	 rax, rax

; 2795 :                     return NULL;

  00061	0f 84 18 02 00
	00		 je	 $LN46@alias_for_

; 2796 :                 assert(!a->asname);
; 2797 :                 a->asname = NEW_IDENTIFIER(asname_node);

  00067	48 8b 4b 08	 mov	 rcx, QWORD PTR [rbx+8]
  0006b	48 8b d6	 mov	 rdx, rsi
  0006e	e8 00 00 00 00	 call	 new_identifier
  00073	48 89 47 08	 mov	 QWORD PTR [rdi+8], rax

; 2798 :                 if (!a->asname)

  00077	48 85 c0	 test	 rax, rax

; 2799 :                     return NULL;

  0007a	0f 84 ff 01 00
	00		 je	 $LN46@alias_for_

; 2800 :                 if (forbidden_name(c, a->asname, asname_node, 0))

  00080	45 33 c9	 xor	 r9d, r9d
  00083	4c 8b c3	 mov	 r8, rbx
  00086	48 8b d0	 mov	 rdx, rax
  00089	48 8b ce	 mov	 rcx, rsi
  0008c	e8 00 00 00 00	 call	 forbidden_name
  00091	33 f6		 xor	 esi, esi
  00093	85 c0		 test	 eax, eax
  00095	48 0f 45 fe	 cmovne	 rdi, rsi
  00099	48 8b c7	 mov	 rax, rdi
  0009c	48 8b 7c 24 50	 mov	 rdi, QWORD PTR [rsp+80]

; 2860 :             return NULL;
; 2861 :     }
; 2862 : 
; 2863 :     PyErr_SetString(PyExc_SystemError, "unhandled import name condition");
; 2864 :     return NULL;
; 2865 : }

  000a1	48 83 c4 20	 add	 rsp, 32			; 00000020H
  000a5	5e		 pop	 rsi
  000a6	5d		 pop	 rbp
  000a7	5b		 pop	 rbx
  000a8	c3		 ret	 0
$LN41@alias_for_:

; 2757 :     /*
; 2758 :       import_as_name: NAME ['as' NAME]
; 2759 :       dotted_as_name: dotted_name ['as' NAME]
; 2760 :       dotted_name: NAME ('.' NAME)*
; 2761 :     */
; 2762 :     identifier str, name;
; 2763 : 
; 2764 :  loop:
; 2765 :     switch (TYPE(n)) {

  000a9	83 f9 03	 cmp	 ecx, 3
  000ac	74 26		 je	 SHORT $LN16@alias_for_

; 2857 :         default:
; 2858 :             PyErr_Format(PyExc_SystemError,
; 2859 :                          "unexpected import name: %d", TYPE(n));

  000ae	44 0f bf 03	 movsx	 r8d, WORD PTR [rbx]
  000b2	48 8b 0d 00 00
	00 00		 mov	 rcx, QWORD PTR PyExc_SystemError
  000b9	48 8d 15 00 00
	00 00		 lea	 rdx, OFFSET FLAT:??_C@_0BL@LEDBAIDM@unexpected?5import?5name?3?5?$CFd?$AA@
  000c0	e8 00 00 00 00	 call	 PyErr_Format
  000c5	33 c0		 xor	 eax, eax
  000c7	48 8b 7c 24 50	 mov	 rdi, QWORD PTR [rsp+80]

; 2860 :             return NULL;
; 2861 :     }
; 2862 : 
; 2863 :     PyErr_SetString(PyExc_SystemError, "unhandled import name condition");
; 2864 :     return NULL;
; 2865 : }

  000cc	48 83 c4 20	 add	 rsp, 32			; 00000020H
  000d0	5e		 pop	 rsi
  000d1	5d		 pop	 rbp
  000d2	5b		 pop	 rbx
  000d3	c3		 ret	 0
$LN16@alias_for_:

; 2801 :                     return NULL;
; 2802 :                 return a;
; 2803 :             }
; 2804 :             break;
; 2805 :         case dotted_name:
; 2806 :             if (NCH(n) == 1) {

  000d4	8b 43 18	 mov	 eax, DWORD PTR [rbx+24]
  000d7	83 f8 01	 cmp	 eax, 1
  000da	75 41		 jne	 SHORT $LN15@alias_for_

; 2807 :                 node *name_node = CHILD(n, 0);

  000dc	48 8b 5b 20	 mov	 rbx, QWORD PTR [rbx+32]

; 2808 :                 name = NEW_IDENTIFIER(name_node);

  000e0	48 8b d6	 mov	 rdx, rsi
  000e3	48 8b 4b 08	 mov	 rcx, QWORD PTR [rbx+8]
  000e7	e8 00 00 00 00	 call	 new_identifier
  000ec	48 8b f8	 mov	 rdi, rax

; 2809 :                 if (!name)

  000ef	48 85 c0	 test	 rax, rax

; 2810 :                     return NULL;

  000f2	0f 84 87 01 00
	00		 je	 $LN46@alias_for_

; 2811 :                 if (store && forbidden_name(c, name, name_node, 0))

  000f8	85 ed		 test	 ebp, ebp
  000fa	74 19		 je	 SHORT $LN13@alias_for_
  000fc	45 33 c9	 xor	 r9d, r9d
  000ff	4c 8b c3	 mov	 r8, rbx
  00102	48 8b d0	 mov	 rdx, rax
  00105	48 8b ce	 mov	 rcx, rsi
  00108	e8 00 00 00 00	 call	 forbidden_name
  0010d	85 c0		 test	 eax, eax

; 2812 :                     return NULL;

  0010f	0f 85 6a 01 00
	00		 jne	 $LN46@alias_for_
$LN13@alias_for_:

; 2813 :                 return alias(name, NULL, c->c_arena);

  00115	48 8b cf	 mov	 rcx, rdi
  00118	e9 ae 01 00 00	 jmp	 $LN43@alias_for_
$LN15@alias_for_:

; 2814 :             }
; 2815 :             else {
; 2816 :                 /* Create a string of the form "a.b.c" */
; 2817 :                 int i;
; 2818 :                 size_t len;
; 2819 :                 char *s;
; 2820 :                 PyObject *uni;
; 2821 : 
; 2822 :                 len = 0;

  0011d	33 f6		 xor	 esi, esi
  0011f	44 8b c6	 mov	 r8d, esi

; 2823 :                 for (i = 0; i < NCH(n); i += 2)

  00122	85 c0		 test	 eax, eax
  00124	7e 34		 jle	 SHORT $LN9@alias_for_

; 2814 :             }
; 2815 :             else {
; 2816 :                 /* Create a string of the form "a.b.c" */
; 2817 :                 int i;
; 2818 :                 size_t len;
; 2819 :                 char *s;
; 2820 :                 PyObject *uni;
; 2821 : 
; 2822 :                 len = 0;

  00126	48 8b 53 20	 mov	 rdx, QWORD PTR [rbx+32]
  0012a	44 8d 48 ff	 lea	 r9d, DWORD PTR [rax-1]
  0012e	41 d1 e9	 shr	 r9d, 1
  00131	48 83 c2 08	 add	 rdx, 8
  00135	41 ff c1	 inc	 r9d
  00138	0f 1f 84 00 00
	00 00 00	 npad	 8
$LL11@alias_for_:

; 2824 :                     /* length of string plus one for the dot */
; 2825 :                     len += strlen(STR(CHILD(n, i))) + 1;

  00140	48 8b 3a	 mov	 rdi, QWORD PTR [rdx]
  00143	48 83 c9 ff	 or	 rcx, -1
  00147	33 c0		 xor	 eax, eax
  00149	f2 ae		 repne scasb
  0014b	48 83 c2 50	 add	 rdx, 80			; 00000050H
  0014f	48 f7 d1	 not	 rcx
  00152	4c 03 c1	 add	 r8, rcx
  00155	49 ff c9	 dec	 r9
  00158	75 e6		 jne	 SHORT $LL11@alias_for_
$LN9@alias_for_:

; 2826 :                 len--; /* the last name doesn't have a dot */

  0015a	49 8d 50 ff	 lea	 rdx, QWORD PTR [r8-1]

; 2827 :                 str = PyBytes_FromStringAndSize(NULL, len);

  0015e	33 c9		 xor	 ecx, ecx
  00160	e8 00 00 00 00	 call	 PyBytes_FromStringAndSize
  00165	48 89 44 24 48	 mov	 QWORD PTR str$[rsp], rax

; 2828 :                 if (!str)

  0016a	48 85 c0	 test	 rax, rax

; 2829 :                     return NULL;

  0016d	0f 84 0c 01 00
	00		 je	 $LN46@alias_for_

; 2830 :                 s = PyBytes_AS_STRING(str);

  00173	4c 8d 40 78	 lea	 r8, QWORD PTR [rax+120]

; 2831 :                 if (!s)

  00177	4d 85 c0	 test	 r8, r8

; 2832 :                     return NULL;

  0017a	0f 84 ff 00 00
	00		 je	 $LN46@alias_for_

; 2833 :                 for (i = 0; i < NCH(n); i += 2) {

  00180	39 73 18	 cmp	 DWORD PTR [rbx+24], esi
  00183	7e 50		 jle	 SHORT $LN4@alias_for_
  00185	4c 8b ce	 mov	 r9, rsi
  00188	0f 1f 84 00 00
	00 00 00	 npad	 8
$LL6@alias_for_:

; 2834 :                     char *sch = STR(CHILD(n, i));

  00190	48 8b 43 20	 mov	 rax, QWORD PTR [rbx+32]

; 2835 :                     strcpy(s, STR(CHILD(n, i)));

  00194	49 8b d0	 mov	 rdx, r8
  00197	4a 8b 7c 08 08	 mov	 rdi, QWORD PTR [rax+r9+8]
  0019c	48 8b cf	 mov	 rcx, rdi
  0019f	90		 npad	 1
$LL34@alias_for_:
  001a0	0f b6 01	 movzx	 eax, BYTE PTR [rcx]
  001a3	48 ff c2	 inc	 rdx
  001a6	48 ff c1	 inc	 rcx
  001a9	88 42 ff	 mov	 BYTE PTR [rdx-1], al
  001ac	84 c0		 test	 al, al
  001ae	75 f0		 jne	 SHORT $LL34@alias_for_

; 2836 :                     s += strlen(sch);

  001b0	48 83 c9 ff	 or	 rcx, -1
  001b4	33 c0		 xor	 eax, eax
  001b6	83 c6 02	 add	 esi, 2
  001b9	f2 ae		 repne scasb
  001bb	49 83 c1 50	 add	 r9, 80			; 00000050H
  001bf	48 f7 d1	 not	 rcx
  001c2	48 ff c9	 dec	 rcx
  001c5	4c 03 c1	 add	 r8, rcx

; 2837 :                     *s++ = '.';

  001c8	49 ff c0	 inc	 r8
  001cb	41 c6 40 ff 2e	 mov	 BYTE PTR [r8-1], 46	; 0000002eH
  001d0	3b 73 18	 cmp	 esi, DWORD PTR [rbx+24]
  001d3	7c bb		 jl	 SHORT $LL6@alias_for_
$LN4@alias_for_:

; 2838 :                 }
; 2839 :                 --s;
; 2840 :                 *s = '\0';

  001d5	41 c6 40 ff 00	 mov	 BYTE PTR [r8-1], 0

; 2841 :                 uni = PyUnicode_DecodeUTF8(PyBytes_AS_STRING(str),
; 2842 :                                            PyBytes_GET_SIZE(str),
; 2843 :                                            NULL);

  001da	48 8b 54 24 48	 mov	 rdx, QWORD PTR str$[rsp]
  001df	45 33 c0	 xor	 r8d, r8d
  001e2	48 8d 4a 78	 lea	 rcx, QWORD PTR [rdx+120]
  001e6	48 8b 52 60	 mov	 rdx, QWORD PTR [rdx+96]
  001ea	e8 00 00 00 00	 call	 PyUnicode_DecodeUTF8

; 2844 :                 Py_DECREF(str);

  001ef	48 8b 4c 24 48	 mov	 rcx, QWORD PTR str$[rsp]
  001f4	48 8b f8	 mov	 rdi, rax
  001f7	e8 00 00 00 00	 call	 _Py_DecRef

; 2845 :                 if (!uni)

  001fc	48 85 ff	 test	 rdi, rdi

; 2846 :                     return NULL;

  001ff	74 7e		 je	 SHORT $LN46@alias_for_

; 2847 :                 str = uni;
; 2848 :                 PyUnicode_InternInPlace(&str);

  00201	48 8d 4c 24 48	 lea	 rcx, QWORD PTR str$[rsp]
  00206	48 89 7c 24 48	 mov	 QWORD PTR str$[rsp], rdi
  0020b	e8 00 00 00 00	 call	 PyUnicode_InternInPlace

; 2849 :                 PyArena_AddPyObject(c->c_arena, str);

  00210	48 8b 54 24 48	 mov	 rdx, QWORD PTR str$[rsp]
  00215	48 8b 74 24 40	 mov	 rsi, QWORD PTR c$[rsp]

; 2850 :                 return alias(str, NULL, c->c_arena);

  0021a	e9 9e 00 00 00	 jmp	 $LN44@alias_for_
$LN29@alias_for_:

; 2766 :         case import_as_name: {
; 2767 :             node *name_node = CHILD(n, 0);

  0021f	48 8b 7b 20	 mov	 rdi, QWORD PTR [rbx+32]

; 2768 :             str = NULL;
; 2769 :             name = NEW_IDENTIFIER(name_node);

  00223	48 8b 54 24 40	 mov	 rdx, QWORD PTR c$[rsp]
  00228	33 f6		 xor	 esi, esi
  0022a	48 89 74 24 48	 mov	 QWORD PTR str$[rsp], rsi
  0022f	48 8b 4f 08	 mov	 rcx, QWORD PTR [rdi+8]
  00233	e8 00 00 00 00	 call	 new_identifier
  00238	48 8b f0	 mov	 rsi, rax

; 2770 :             if (!name)

  0023b	48 85 c0	 test	 rax, rax

; 2771 :                 return NULL;

  0023e	74 3f		 je	 SHORT $LN46@alias_for_

; 2772 :             if (NCH(n) == 3) {

  00240	83 7b 18 03	 cmp	 DWORD PTR [rbx+24], 3
  00244	75 48		 jne	 SHORT $LN27@alias_for_

; 2773 :                 node *str_node = CHILD(n, 2);

  00246	48 8b 7b 20	 mov	 rdi, QWORD PTR [rbx+32]

; 2774 :                 str = NEW_IDENTIFIER(str_node);

  0024a	48 8b 5c 24 40	 mov	 rbx, QWORD PTR c$[rsp]
  0024f	48 8b 4f 58	 mov	 rcx, QWORD PTR [rdi+88]
  00253	48 8b d3	 mov	 rdx, rbx
  00256	e8 00 00 00 00	 call	 new_identifier
  0025b	48 89 44 24 48	 mov	 QWORD PTR str$[rsp], rax

; 2775 :                 if (!str)

  00260	48 85 c0	 test	 rax, rax

; 2776 :                     return NULL;

  00263	74 1a		 je	 SHORT $LN46@alias_for_

; 2777 :                 if (store && forbidden_name(c, str, str_node, 0))

  00265	85 ed		 test	 ebp, ebp
  00267	74 34		 je	 SHORT $LN23@alias_for_
  00269	4c 8d 47 50	 lea	 r8, QWORD PTR [rdi+80]
$LN48@alias_for_:
  0026d	48 8b d0	 mov	 rdx, rax
  00270	45 33 c9	 xor	 r9d, r9d
  00273	48 8b cb	 mov	 rcx, rbx
  00276	e8 00 00 00 00	 call	 forbidden_name
  0027b	85 c0		 test	 eax, eax
  0027d	74 19		 je	 SHORT $LN42@alias_for_
$LN46@alias_for_:

; 2778 :                     return NULL;

  0027f	33 c0		 xor	 eax, eax
  00281	48 8b 7c 24 50	 mov	 rdi, QWORD PTR [rsp+80]

; 2860 :             return NULL;
; 2861 :     }
; 2862 : 
; 2863 :     PyErr_SetString(PyExc_SystemError, "unhandled import name condition");
; 2864 :     return NULL;
; 2865 : }

  00286	48 83 c4 20	 add	 rsp, 32			; 00000020H
  0028a	5e		 pop	 rsi
  0028b	5d		 pop	 rbp
  0028c	5b		 pop	 rbx
  0028d	c3		 ret	 0
$LN27@alias_for_:

; 2779 :             }
; 2780 :             else {
; 2781 :                 if (forbidden_name(c, name, name_node, 0))

  0028e	48 8b 5c 24 40	 mov	 rbx, QWORD PTR c$[rsp]
  00293	4c 8b c7	 mov	 r8, rdi

; 2782 :                     return NULL;

  00296	eb d5		 jmp	 SHORT $LN48@alias_for_
$LN42@alias_for_:
  00298	48 8b 44 24 48	 mov	 rax, QWORD PTR str$[rsp]
$LN23@alias_for_:

; 2783 :             }
; 2784 :             return alias(name, str, c->c_arena);

  0029d	4c 8b 43 08	 mov	 r8, QWORD PTR [rbx+8]
  002a1	48 8b d0	 mov	 rdx, rax
  002a4	48 8b ce	 mov	 rcx, rsi
  002a7	eb 28		 jmp	 SHORT $LN45@alias_for_
$LN2@alias_for_:

; 2851 :             }
; 2852 :             break;
; 2853 :         case STAR:
; 2854 :             str = PyUnicode_InternFromString("*");

  002a9	48 8d 0d 00 00
	00 00		 lea	 rcx, OFFSET FLAT:??_C@_01NBENCBCI@?$CK?$AA@
  002b0	e8 00 00 00 00	 call	 PyUnicode_InternFromString
  002b5	48 89 44 24 48	 mov	 QWORD PTR str$[rsp], rax

; 2855 :             PyArena_AddPyObject(c->c_arena, str);

  002ba	48 8b d0	 mov	 rdx, rax
$LN44@alias_for_:
  002bd	48 8b 4e 08	 mov	 rcx, QWORD PTR [rsi+8]
  002c1	e8 00 00 00 00	 call	 PyArena_AddPyObject

; 2856 :             return alias(str, NULL, c->c_arena);

  002c6	48 8b 4c 24 48	 mov	 rcx, QWORD PTR str$[rsp]
$LN43@alias_for_:
  002cb	4c 8b 46 08	 mov	 r8, QWORD PTR [rsi+8]
  002cf	33 d2		 xor	 edx, edx
$LN45@alias_for_:
  002d1	e8 00 00 00 00	 call	 _Py_alias
  002d6	48 8b 7c 24 50	 mov	 rdi, QWORD PTR [rsp+80]

; 2860 :             return NULL;
; 2861 :     }
; 2862 : 
; 2863 :     PyErr_SetString(PyExc_SystemError, "unhandled import name condition");
; 2864 :     return NULL;
; 2865 : }

  002db	48 83 c4 20	 add	 rsp, 32			; 00000020H
  002df	5e		 pop	 rsi
  002e0	5d		 pop	 rbp
  002e1	5b		 pop	 rbx
  002e2	c3		 ret	 0
alias_for_import_name ENDP
_TEXT	ENDS
PUBLIC	??_C@_0DD@FCJHOKGM@unknown?5import?5statement?3?5starts@ ; `string'
PUBLIC	??_C@_0DL@FACCMHDI@trailing?5comma?5not?5allowed?5witho@ ; `string'
PUBLIC	??_C@_0CE@KFALHAEB@Unexpected?5node?9type?5in?5from?9imp@ ; `string'
EXTRN	_Py_ImportFrom:PROC
EXTRN	_Py_Import:PROC
;	COMDAT pdata
pdata	SEGMENT
$pdata$ast_for_import_stmt DD imagerel ast_for_import_stmt
	DD	imagerel ast_for_import_stmt+225
	DD	imagerel $unwind$ast_for_import_stmt
pdata	ENDS
;	COMDAT pdata
pdata	SEGMENT
$pdata$0$ast_for_import_stmt DD imagerel ast_for_import_stmt+225
	DD	imagerel ast_for_import_stmt+392
	DD	imagerel $chain$0$ast_for_import_stmt
pdata	ENDS
;	COMDAT pdata
pdata	SEGMENT
$pdata$1$ast_for_import_stmt DD imagerel ast_for_import_stmt+392
	DD	imagerel ast_for_import_stmt+415
	DD	imagerel $chain$1$ast_for_import_stmt
pdata	ENDS
;	COMDAT pdata
pdata	SEGMENT
$pdata$2$ast_for_import_stmt DD imagerel ast_for_import_stmt+415
	DD	imagerel ast_for_import_stmt+671
	DD	imagerel $chain$2$ast_for_import_stmt
pdata	ENDS
;	COMDAT pdata
pdata	SEGMENT
$pdata$3$ast_for_import_stmt DD imagerel ast_for_import_stmt+671
	DD	imagerel ast_for_import_stmt+706
	DD	imagerel $chain$3$ast_for_import_stmt
pdata	ENDS
;	COMDAT xdata
xdata	SEGMENT
$chain$3$ast_for_import_stmt DD 021H
	DD	imagerel ast_for_import_stmt
	DD	imagerel ast_for_import_stmt+225
	DD	imagerel $unwind$ast_for_import_stmt
xdata	ENDS
;	COMDAT xdata
xdata	SEGMENT
$chain$2$ast_for_import_stmt DD 020021H
	DD	0ce400H
	DD	imagerel ast_for_import_stmt
	DD	imagerel ast_for_import_stmt+225
	DD	imagerel $unwind$ast_for_import_stmt
xdata	ENDS
;	COMDAT xdata
xdata	SEGMENT
$chain$1$ast_for_import_stmt DD 021H
	DD	imagerel ast_for_import_stmt
	DD	imagerel ast_for_import_stmt+225
	DD	imagerel $unwind$ast_for_import_stmt
xdata	ENDS
;	COMDAT xdata
xdata	SEGMENT
$chain$0$ast_for_import_stmt DD 020521H
	DD	0ce405H
	DD	imagerel ast_for_import_stmt
	DD	imagerel ast_for_import_stmt+225
	DD	imagerel $unwind$ast_for_import_stmt
xdata	ENDS
;	COMDAT xdata
xdata	SEGMENT
$unwind$ast_for_import_stmt DD 0a1601H
	DD	0f5416H
	DD	0e3416H
	DD	0f0125216H
	DD	0c00ed010H
	DD	0600b700cH
xdata	ENDS
;	COMDAT ??_C@_0DD@FCJHOKGM@unknown?5import?5statement?3?5starts@
CONST	SEGMENT
??_C@_0DD@FCJHOKGM@unknown?5import?5statement?3?5starts@ DB 'unknown impo'
	DB	'rt statement: starts with command ''%s''', 00H ; `string'
CONST	ENDS
;	COMDAT ??_C@_0DL@FACCMHDI@trailing?5comma?5not?5allowed?5witho@
CONST	SEGMENT
??_C@_0DL@FACCMHDI@trailing?5comma?5not?5allowed?5witho@ DB 'trailing com'
	DB	'ma not allowed without surrounding parentheses', 00H ; `string'
CONST	ENDS
;	COMDAT ??_C@_0CE@KFALHAEB@Unexpected?5node?9type?5in?5from?9imp@
CONST	SEGMENT
??_C@_0CE@KFALHAEB@Unexpected?5node?9type?5in?5from?9imp@ DB 'Unexpected '
	DB	'node-type in from-import', 00H		; `string'
; Function compile flags: /Ogtpy
CONST	ENDS
;	COMDAT ast_for_import_stmt
_TEXT	SEGMENT
c$ = 96
col_offset$1$ = 104
n$ = 104
ast_for_import_stmt PROC				; COMDAT

; 2869 : {

  00000	48 89 5c 24 18	 mov	 QWORD PTR [rsp+24], rbx
  00005	48 89 6c 24 20	 mov	 QWORD PTR [rsp+32], rbp
  0000a	56		 push	 rsi
  0000b	57		 push	 rdi
  0000c	41 54		 push	 r12
  0000e	41 55		 push	 r13
  00010	41 57		 push	 r15
  00012	48 83 ec 30	 sub	 rsp, 48			; 00000030H

; 2870 :     /*
; 2871 :       import_stmt: import_name | import_from
; 2872 :       import_name: 'import' dotted_as_names
; 2873 :       import_from: 'from' (('.' | '...')* dotted_name | ('.' | '...')+)
; 2874 :                    'import' ('*' | '(' import_as_names ')' | import_as_names)
; 2875 :     */
; 2876 :     int lineno;
; 2877 :     int col_offset;
; 2878 :     int i;
; 2879 :     asdl_seq *aliases;
; 2880 : 
; 2881 :     REQ(n, import_stmt);
; 2882 :     lineno = LINENO(n);
; 2883 :     col_offset = n->n_col_offset;
; 2884 :     n = CHILD(n, 0);

  00016	4c 8b 62 20	 mov	 r12, QWORD PTR [rdx+32]
  0001a	8b 6a 14	 mov	 ebp, DWORD PTR [rdx+20]
  0001d	44 8b 7a 10	 mov	 r15d, DWORD PTR [rdx+16]

; 2885 :     if (TYPE(n) == import_name) {

  00021	41 0f b7 04 24	 movzx	 eax, WORD PTR [r12]
  00026	4c 8b e9	 mov	 r13, rcx
  00029	b9 1b 01 00 00	 mov	 ecx, 283		; 0000011bH
  0002e	89 6c 24 68	 mov	 DWORD PTR col_offset$1$[rsp], ebp
  00032	66 3b c1	 cmp	 ax, cx
  00035	0f 85 8c 00 00
	00		 jne	 $LN33@ast_for_im

; 2886 :         n = CHILD(n, 1);

  0003b	49 8b 5c 24 20	 mov	 rbx, QWORD PTR [r12+32]

; 2887 :         REQ(n, dotted_as_names);
; 2888 :         aliases = asdl_seq_new((NCH(n) + 1) / 2, c->c_arena);

  00040	8b 43 40	 mov	 eax, DWORD PTR [rbx+64]
  00043	ff c0		 inc	 eax
  00045	99		 cdq
  00046	2b c2		 sub	 eax, edx
  00048	49 8b 55 08	 mov	 rdx, QWORD PTR [r13+8]
  0004c	d1 f8		 sar	 eax, 1
  0004e	48 63 c8	 movsxd	 rcx, eax
  00051	e8 00 00 00 00	 call	 asdl_seq_new
  00056	48 8b f8	 mov	 rdi, rax

; 2889 :         if (!aliases)

  00059	48 85 c0	 test	 rax, rax

; 2890 :                 return NULL;

  0005c	0f 84 59 02 00
	00		 je	 $LN39@ast_for_im

; 2891 :         for (i = 0; i < NCH(n); i += 2) {

  00062	33 f6		 xor	 esi, esi
  00064	39 73 40	 cmp	 DWORD PTR [rbx+64], esi
  00067	7e 47		 jle	 SHORT $LN29@ast_for_im
  00069	0f 1f 80 00 00
	00 00		 npad	 7
$LL31@ast_for_im:

; 2892 :             alias_ty import_alias = alias_for_import_name(c, CHILD(n, i), 1);

  00070	48 63 c6	 movsxd	 rax, esi
  00073	41 b8 01 00 00
	00		 mov	 r8d, 1
  00079	48 8d 0c 80	 lea	 rcx, QWORD PTR [rax+rax*4]
  0007d	48 8b 43 48	 mov	 rax, QWORD PTR [rbx+72]
  00081	48 8d 14 c8	 lea	 rdx, QWORD PTR [rax+rcx*8]
  00085	49 8b cd	 mov	 rcx, r13
  00088	e8 00 00 00 00	 call	 alias_for_import_name
  0008d	4c 8b d8	 mov	 r11, rax

; 2893 :             if (!import_alias)

  00090	48 85 c0	 test	 rax, rax
  00093	0f 84 22 02 00
	00		 je	 $LN39@ast_for_im

; 2894 :                 return NULL;
; 2895 :             asdl_seq_SET(aliases, i / 2, import_alias);

  00099	8b c6		 mov	 eax, esi
  0009b	83 c6 02	 add	 esi, 2
  0009e	99		 cdq
  0009f	2b c2		 sub	 eax, edx
  000a1	d1 f8		 sar	 eax, 1
  000a3	48 63 c8	 movsxd	 rcx, eax
  000a6	4c 89 5c cf 08	 mov	 QWORD PTR [rdi+rcx*8+8], r11
  000ab	3b 73 40	 cmp	 esi, DWORD PTR [rbx+64]
  000ae	7c c0		 jl	 SHORT $LL31@ast_for_im
$LN29@ast_for_im:

; 2896 :         }
; 2897 :         return Import(aliases, lineno, col_offset, c->c_arena);

  000b0	4d 8b 4d 08	 mov	 r9, QWORD PTR [r13+8]
  000b4	44 8b c5	 mov	 r8d, ebp
  000b7	41 8b d7	 mov	 edx, r15d
  000ba	48 8b cf	 mov	 rcx, rdi
  000bd	e8 00 00 00 00	 call	 _Py_Import
  000c2	e9 c1 00 00 00	 jmp	 $LN34@ast_for_im
$LN33@ast_for_im:

; 2898 :     }
; 2899 :     else if (TYPE(n) == import_from) {

  000c7	b9 1c 01 00 00	 mov	 ecx, 284		; 0000011cH
  000cc	66 3b c1	 cmp	 ax, cx
  000cf	0f 85 ca 01 00
	00		 jne	 $LN26@ast_for_im

; 2902 :         alias_ty mod = NULL;
; 2903 :         identifier modname = NULL;
; 2904 : 
; 2905 :        /* Count the number of dots (for relative imports) and check for the
; 2906 :           optional module name */
; 2907 :         for (idx = 1; idx < NCH(n); idx++) {

  000d5	41 8b 54 24 18	 mov	 edx, DWORD PTR [r12+24]
  000da	33 f6		 xor	 esi, esi
  000dc	bb 01 00 00 00	 mov	 ebx, 1
  000e1	4c 89 74 24 60	 mov	 QWORD PTR [rsp+96], r14
  000e6	8b ee		 mov	 ebp, esi
  000e8	44 8b f6	 mov	 r14d, esi
  000eb	3b d3		 cmp	 edx, ebx
  000ed	7e 59		 jle	 SHORT $LN41@ast_for_im

; 2900 :         int n_children;
; 2901 :         int idx, ndots = 0;

  000ef	4d 8b 44 24 20	 mov	 r8, QWORD PTR [r12+32]
  000f4	41 b9 21 01 00
	00		 mov	 r9d, 289		; 00000121H
  000fa	49 8d 48 28	 lea	 rcx, QWORD PTR [r8+40]
  000fe	66 90		 npad	 2
$LL25@ast_for_im:

; 2908 :             if (TYPE(CHILD(n, idx)) == dotted_name) {

  00100	0f b7 01	 movzx	 eax, WORD PTR [rcx]
  00103	66 41 3b c1	 cmp	 ax, r9w
  00107	74 1f		 je	 SHORT $LN40@ast_for_im

; 2913 :                 break;
; 2914 :             } else if (TYPE(CHILD(n, idx)) == ELLIPSIS) {

  00109	66 83 f8 33	 cmp	 ax, 51			; 00000033H
  0010d	75 05		 jne	 SHORT $LN19@ast_for_im

; 2915 :                 /* three consecutive dots are tokenized as one ELLIPSIS */
; 2916 :                 ndots += 3;

  0010f	83 c5 03	 add	 ebp, 3

; 2917 :                 continue;

  00112	eb 08		 jmp	 SHORT $LN24@ast_for_im
$LN19@ast_for_im:

; 2918 :             } else if (TYPE(CHILD(n, idx)) != DOT) {

  00114	66 83 f8 17	 cmp	 ax, 23
  00118	75 2e		 jne	 SHORT $LN41@ast_for_im

; 2919 :                 break;
; 2920 :             }
; 2921 :             ndots++;

  0011a	ff c5		 inc	 ebp
$LN24@ast_for_im:

; 2902 :         alias_ty mod = NULL;
; 2903 :         identifier modname = NULL;
; 2904 : 
; 2905 :        /* Count the number of dots (for relative imports) and check for the
; 2906 :           optional module name */
; 2907 :         for (idx = 1; idx < NCH(n); idx++) {

  0011c	ff c3		 inc	 ebx
  0011e	48 83 c1 28	 add	 rcx, 40			; 00000028H
  00122	3b da		 cmp	 ebx, edx
  00124	7c da		 jl	 SHORT $LL25@ast_for_im

; 2964 :                 if (!import_alias)

  00126	eb 20		 jmp	 SHORT $LN41@ast_for_im
$LN40@ast_for_im:

; 2909 :                 mod = alias_for_import_name(c, CHILD(n, idx), 0);

  00128	48 63 c3	 movsxd	 rax, ebx
  0012b	48 8d 0c 80	 lea	 rcx, QWORD PTR [rax+rax*4]
  0012f	49 8d 14 c8	 lea	 rdx, QWORD PTR [r8+rcx*8]
  00133	45 33 c0	 xor	 r8d, r8d
  00136	49 8b cd	 mov	 rcx, r13
  00139	e8 00 00 00 00	 call	 alias_for_import_name
  0013e	4c 8b f0	 mov	 r14, rax

; 2910 :                 if (!mod)

  00141	48 85 c0	 test	 rax, rax

; 2911 :                     return NULL;

  00144	74 3b		 je	 SHORT $LN42@ast_for_im

; 2912 :                 idx++;

  00146	ff c3		 inc	 ebx
$LN41@ast_for_im:

; 2922 :         }
; 2923 :         idx++; /* skip over the 'import' keyword */
; 2924 :         switch (TYPE(CHILD(n, idx))) {

  00148	49 8b 54 24 20	 mov	 rdx, QWORD PTR [r12+32]
  0014d	ff c3		 inc	 ebx
  0014f	48 63 c3	 movsxd	 rax, ebx
  00152	48 8d 0c 80	 lea	 rcx, QWORD PTR [rax+rax*4]
  00156	0f bf 04 ca	 movsx	 eax, WORD PTR [rdx+rcx*8]
  0015a	48 8d 3c ca	 lea	 rdi, QWORD PTR [rdx+rcx*8]
  0015e	83 f8 07	 cmp	 eax, 7
  00161	74 66		 je	 SHORT $LN13@ast_for_im
  00163	83 f8 10	 cmp	 eax, 16
  00166	74 5a		 je	 SHORT $LN14@ast_for_im
  00168	3d 1f 01 00 00	 cmp	 eax, 287		; 0000011fH
  0016d	74 30		 je	 SHORT $LN12@ast_for_im

; 2943 :             }
; 2944 :             break;
; 2945 :         default:
; 2946 :             ast_error(c, n, "Unexpected node-type in from-import");

  0016f	4c 8d 05 00 00
	00 00		 lea	 r8, OFFSET FLAT:??_C@_0CE@KFALHAEB@Unexpected?5node?9type?5in?5from?9imp@
  00176	49 8b d4	 mov	 rdx, r12
$LN48@ast_for_im:
  00179	49 8b cd	 mov	 rcx, r13
  0017c	e8 00 00 00 00	 call	 ast_error
$LN42@ast_for_im:

; 2947 :             return NULL;

  00181	33 c0		 xor	 eax, eax
$LN47@ast_for_im:
  00183	4c 8b 74 24 60	 mov	 r14, QWORD PTR [rsp+96]
$LN34@ast_for_im:

; 2978 : }

  00188	48 8b 5c 24 70	 mov	 rbx, QWORD PTR [rsp+112]
  0018d	48 8b 6c 24 78	 mov	 rbp, QWORD PTR [rsp+120]
  00192	48 83 c4 30	 add	 rsp, 48			; 00000030H
  00196	41 5f		 pop	 r15
  00198	41 5d		 pop	 r13
  0019a	41 5c		 pop	 r12
  0019c	5f		 pop	 rdi
  0019d	5e		 pop	 rsi
  0019e	c3		 ret	 0
$LN12@ast_for_im:

; 2934 :             break;
; 2935 :         case import_as_names:
; 2936 :             /* from ... import x, y, z */
; 2937 :             n = CHILD(n, idx);
; 2938 :             n_children = NCH(n);

  0019f	8b 4f 18	 mov	 ecx, DWORD PTR [rdi+24]

; 2939 :             if (n_children % 2 == 0) {

  001a2	8b c1		 mov	 eax, ecx
  001a4	25 01 00 00 80	 and	 eax, -2147483647	; ffffffff80000001H
  001a9	7d 07		 jge	 SHORT $LN46@ast_for_im
  001ab	ff c8		 dec	 eax
  001ad	83 c8 fe	 or	 eax, -2
  001b0	ff c0		 inc	 eax
$LN46@ast_for_im:
  001b2	85 c0		 test	 eax, eax
  001b4	75 25		 jne	 SHORT $LN15@ast_for_im

; 2940 :                 ast_error(c, n, "trailing comma not allowed without"
; 2941 :                              " surrounding parentheses");

  001b6	4c 8d 05 00 00
	00 00		 lea	 r8, OFFSET FLAT:??_C@_0DL@FACCMHDI@trailing?5comma?5not?5allowed?5witho@
  001bd	48 8b d7	 mov	 rdx, rdi

; 2942 :                 return NULL;

  001c0	eb b7		 jmp	 SHORT $LN48@ast_for_im
$LN14@ast_for_im:

; 2925 :         case STAR:
; 2926 :             /* from ... import * */
; 2927 :             n = CHILD(n, idx);
; 2928 :             n_children = 1;

  001c2	b9 01 00 00 00	 mov	 ecx, 1

; 2929 :             break;

  001c7	eb 12		 jmp	 SHORT $LN15@ast_for_im
$LN13@ast_for_im:

; 2930 :         case LPAR:
; 2931 :             /* from ... import (x, y, z) */
; 2932 :             n = CHILD(n, idx + 1);

  001c9	8d 43 01	 lea	 eax, DWORD PTR [rbx+1]
  001cc	48 63 c8	 movsxd	 rcx, eax
  001cf	48 8d 04 89	 lea	 rax, QWORD PTR [rcx+rcx*4]

; 2933 :             n_children = NCH(n);

  001d3	8b 4c c2 18	 mov	 ecx, DWORD PTR [rdx+rax*8+24]
  001d7	48 8d 3c c2	 lea	 rdi, QWORD PTR [rdx+rax*8]
$LN15@ast_for_im:

; 2948 :         }
; 2949 : 
; 2950 :         aliases = asdl_seq_new((n_children + 1) / 2, c->c_arena);

  001db	8d 41 01	 lea	 eax, DWORD PTR [rcx+1]
  001de	99		 cdq
  001df	2b c2		 sub	 eax, edx
  001e1	49 8b 55 08	 mov	 rdx, QWORD PTR [r13+8]
  001e5	d1 f8		 sar	 eax, 1
  001e7	48 63 c8	 movsxd	 rcx, eax
  001ea	e8 00 00 00 00	 call	 asdl_seq_new
  001ef	4c 8b e0	 mov	 r12, rax

; 2951 :         if (!aliases)

  001f2	48 85 c0	 test	 rax, rax

; 2952 :             return NULL;

  001f5	74 8a		 je	 SHORT $LN42@ast_for_im

; 2953 : 
; 2954 :         /* handle "from ... import *" special b/c there's no children */
; 2955 :         if (TYPE(n) == STAR) {

  001f7	66 83 3f 10	 cmp	 WORD PTR [rdi], 16
  001fb	75 21		 jne	 SHORT $LN8@ast_for_im

; 2956 :             alias_ty import_alias = alias_for_import_name(c, n, 1);

  001fd	41 b8 01 00 00
	00		 mov	 r8d, 1
  00203	48 8b d7	 mov	 rdx, rdi
  00206	49 8b cd	 mov	 rcx, r13
  00209	e8 00 00 00 00	 call	 alias_for_import_name

; 2957 :             if (!import_alias)

  0020e	48 85 c0	 test	 rax, rax

; 2958 :                 return NULL;

  00211	0f 84 6a ff ff
	ff		 je	 $LN42@ast_for_im

; 2959 :                 asdl_seq_SET(aliases, 0, import_alias);

  00217	49 89 44 24 08	 mov	 QWORD PTR [r12+8], rax

; 2960 :         }
; 2961 :         else {

  0021c	eb 52		 jmp	 SHORT $LN3@ast_for_im
$LN8@ast_for_im:

; 2962 :             for (i = 0; i < NCH(n); i += 2) {

  0021e	8b de		 mov	 ebx, esi
  00220	39 5f 18	 cmp	 DWORD PTR [rdi+24], ebx
  00223	7e 4b		 jle	 SHORT $LN3@ast_for_im
  00225	66 66 66 0f 1f
	84 00 00 00 00
	00		 npad	 11
$LL5@ast_for_im:

; 2963 :                 alias_ty import_alias = alias_for_import_name(c, CHILD(n, i), 1);

  00230	48 63 c3	 movsxd	 rax, ebx
  00233	41 b8 01 00 00
	00		 mov	 r8d, 1
  00239	48 8d 0c 80	 lea	 rcx, QWORD PTR [rax+rax*4]
  0023d	48 8b 47 20	 mov	 rax, QWORD PTR [rdi+32]
  00241	48 8d 14 c8	 lea	 rdx, QWORD PTR [rax+rcx*8]
  00245	49 8b cd	 mov	 rcx, r13
  00248	e8 00 00 00 00	 call	 alias_for_import_name
  0024d	4c 8b d8	 mov	 r11, rax

; 2964 :                 if (!import_alias)

  00250	48 85 c0	 test	 rax, rax
  00253	0f 84 28 ff ff
	ff		 je	 $LN42@ast_for_im

; 2965 :                     return NULL;
; 2966 :                     asdl_seq_SET(aliases, i / 2, import_alias);

  00259	8b c3		 mov	 eax, ebx
  0025b	83 c3 02	 add	 ebx, 2
  0025e	99		 cdq
  0025f	2b c2		 sub	 eax, edx
  00261	d1 f8		 sar	 eax, 1
  00263	48 63 c8	 movsxd	 rcx, eax
  00266	4d 89 5c cc 08	 mov	 QWORD PTR [r12+rcx*8+8], r11
  0026b	3b 5f 18	 cmp	 ebx, DWORD PTR [rdi+24]
  0026e	7c c0		 jl	 SHORT $LL5@ast_for_im
$LN3@ast_for_im:

; 2967 :             }
; 2968 :         }
; 2969 :         if (mod != NULL)

  00270	4d 85 f6	 test	 r14, r14
  00273	74 03		 je	 SHORT $LN1@ast_for_im

; 2970 :             modname = mod->name;

  00275	49 8b 36	 mov	 rsi, QWORD PTR [r14]
$LN1@ast_for_im:

; 2971 :         return ImportFrom(modname, aliases, ndots, lineno, col_offset,
; 2972 :                           c->c_arena);

  00278	49 8b 45 08	 mov	 rax, QWORD PTR [r13+8]
  0027c	45 8b cf	 mov	 r9d, r15d
  0027f	44 8b c5	 mov	 r8d, ebp
  00282	48 89 44 24 28	 mov	 QWORD PTR [rsp+40], rax
  00287	8b 44 24 68	 mov	 eax, DWORD PTR col_offset$1$[rsp]
  0028b	49 8b d4	 mov	 rdx, r12
  0028e	48 8b ce	 mov	 rcx, rsi
  00291	89 44 24 20	 mov	 DWORD PTR [rsp+32], eax
  00295	e8 00 00 00 00	 call	 _Py_ImportFrom
  0029a	e9 e4 fe ff ff	 jmp	 $LN47@ast_for_im
$LN26@ast_for_im:

; 2973 :     }
; 2974 :     PyErr_Format(PyExc_SystemError,
; 2975 :                  "unknown import statement: starts with command '%s'",
; 2976 :                  STR(CHILD(n, 0)));

  0029f	4d 8b 44 24 20	 mov	 r8, QWORD PTR [r12+32]
  002a4	48 8b 0d 00 00
	00 00		 mov	 rcx, QWORD PTR PyExc_SystemError
  002ab	48 8d 15 00 00
	00 00		 lea	 rdx, OFFSET FLAT:??_C@_0DD@FCJHOKGM@unknown?5import?5statement?3?5starts@
  002b2	4d 8b 40 08	 mov	 r8, QWORD PTR [r8+8]
  002b6	e8 00 00 00 00	 call	 PyErr_Format
$LN39@ast_for_im:

; 2977 :     return NULL;

  002bb	33 c0		 xor	 eax, eax
  002bd	e9 c6 fe ff ff	 jmp	 $LN34@ast_for_im
ast_for_import_stmt ENDP
_TEXT	ENDS
EXTRN	_Py_Global:PROC
;	COMDAT pdata
pdata	SEGMENT
$pdata$ast_for_global_stmt DD imagerel ast_for_global_stmt
	DD	imagerel ast_for_global_stmt+67
	DD	imagerel $unwind$ast_for_global_stmt
pdata	ENDS
;	COMDAT pdata
pdata	SEGMENT
$pdata$1$ast_for_global_stmt DD imagerel ast_for_global_stmt+67
	DD	imagerel ast_for_global_stmt+194
	DD	imagerel $chain$1$ast_for_global_stmt
pdata	ENDS
;	COMDAT pdata
pdata	SEGMENT
$pdata$3$ast_for_global_stmt DD imagerel ast_for_global_stmt+194
	DD	imagerel ast_for_global_stmt+196
	DD	imagerel $chain$3$ast_for_global_stmt
pdata	ENDS
;	COMDAT xdata
xdata	SEGMENT
$chain$3$ast_for_global_stmt DD 040021H
	DD	077400H
	DD	066400H
	DD	imagerel ast_for_global_stmt
	DD	imagerel ast_for_global_stmt+67
	DD	imagerel $unwind$ast_for_global_stmt
xdata	ENDS
;	COMDAT xdata
xdata	SEGMENT
$chain$1$ast_for_global_stmt DD 040f21H
	DD	07740fH
	DD	066405H
	DD	imagerel ast_for_global_stmt
	DD	imagerel ast_for_global_stmt+67
	DD	imagerel $unwind$ast_for_global_stmt
xdata	ENDS
;	COMDAT xdata
xdata	SEGMENT
$unwind$ast_for_global_stmt DD 061001H
	DD	095410H
	DD	083410H
	DD	0c00c3210H
; Function compile flags: /Ogtpy
xdata	ENDS
;	COMDAT ast_for_global_stmt
_TEXT	SEGMENT
c$ = 48
n$ = 56
ast_for_global_stmt PROC				; COMDAT

; 2982 : {

  00000	48 89 5c 24 18	 mov	 QWORD PTR [rsp+24], rbx
  00005	48 89 6c 24 20	 mov	 QWORD PTR [rsp+32], rbp
  0000a	41 54		 push	 r12
  0000c	48 83 ec 20	 sub	 rsp, 32			; 00000020H

; 2983 :     /* global_stmt: 'global' NAME (',' NAME)* */
; 2984 :     identifier name;
; 2985 :     asdl_seq *s;
; 2986 :     int i;
; 2987 : 
; 2988 :     REQ(n, global_stmt);
; 2989 :     s = asdl_seq_new(NCH(n) / 2, c->c_arena);

  00010	8b 42 18	 mov	 eax, DWORD PTR [rdx+24]
  00013	48 8b da	 mov	 rbx, rdx
  00016	48 8b e9	 mov	 rbp, rcx
  00019	99		 cdq
  0001a	2b c2		 sub	 eax, edx
  0001c	48 8b 55 08	 mov	 rdx, QWORD PTR [rbp+8]
  00020	d1 f8		 sar	 eax, 1
  00022	48 63 c8	 movsxd	 rcx, eax
  00025	e8 00 00 00 00	 call	 asdl_seq_new
  0002a	4c 8b e0	 mov	 r12, rax

; 2990 :     if (!s)

  0002d	48 85 c0	 test	 rax, rax
  00030	75 11		 jne	 SHORT $LN5@ast_for_gl

; 2999 : }

  00032	48 8b 5c 24 40	 mov	 rbx, QWORD PTR [rsp+64]
  00037	48 8b 6c 24 48	 mov	 rbp, QWORD PTR [rsp+72]
  0003c	48 83 c4 20	 add	 rsp, 32			; 00000020H
  00040	41 5c		 pop	 r12
  00042	c3		 ret	 0
$LN5@ast_for_gl:
  00043	48 89 74 24 30	 mov	 QWORD PTR [rsp+48], rsi

; 2991 :         return NULL;
; 2992 :     for (i = 1; i < NCH(n); i += 2) {

  00048	be 01 00 00 00	 mov	 esi, 1
  0004d	48 89 7c 24 38	 mov	 QWORD PTR [rsp+56], rdi
  00052	39 73 18	 cmp	 DWORD PTR [rbx+24], esi
  00055	7e 3d		 jle	 SHORT $LN2@ast_for_gl
  00057	bf 28 00 00 00	 mov	 edi, 40			; 00000028H
  0005c	0f 1f 40 00	 npad	 4
$LL4@ast_for_gl:

; 2993 :         name = NEW_IDENTIFIER(CHILD(n, i));

  00060	48 8b 4b 20	 mov	 rcx, QWORD PTR [rbx+32]
  00064	48 8b d5	 mov	 rdx, rbp
  00067	48 8b 4c 0f 08	 mov	 rcx, QWORD PTR [rdi+rcx+8]
  0006c	e8 00 00 00 00	 call	 new_identifier
  00071	4c 8b d8	 mov	 r11, rax

; 2994 :         if (!name)

  00074	48 85 c0	 test	 rax, rax
  00077	74 49		 je	 SHORT $LN9@ast_for_gl

; 2996 :         asdl_seq_SET(s, i / 2, name);

  00079	8b c6		 mov	 eax, esi
  0007b	83 c6 02	 add	 esi, 2
  0007e	48 83 c7 50	 add	 rdi, 80			; 00000050H
  00082	99		 cdq
  00083	2b c2		 sub	 eax, edx
  00085	d1 f8		 sar	 eax, 1
  00087	48 63 c8	 movsxd	 rcx, eax
  0008a	4d 89 5c cc 08	 mov	 QWORD PTR [r12+rcx*8+8], r11
  0008f	3b 73 18	 cmp	 esi, DWORD PTR [rbx+24]
  00092	7c cc		 jl	 SHORT $LL4@ast_for_gl
$LN2@ast_for_gl:

; 2997 :     }
; 2998 :     return Global(s, LINENO(n), n->n_col_offset, c->c_arena);

  00094	4c 8b 4d 08	 mov	 r9, QWORD PTR [rbp+8]
  00098	44 8b 43 14	 mov	 r8d, DWORD PTR [rbx+20]
  0009c	8b 53 10	 mov	 edx, DWORD PTR [rbx+16]
  0009f	49 8b cc	 mov	 rcx, r12
  000a2	e8 00 00 00 00	 call	 _Py_Global
$LN12@ast_for_gl:

; 2999 : }

  000a7	48 8b 74 24 30	 mov	 rsi, QWORD PTR [rsp+48]
  000ac	48 8b 7c 24 38	 mov	 rdi, QWORD PTR [rsp+56]
  000b1	48 8b 5c 24 40	 mov	 rbx, QWORD PTR [rsp+64]
  000b6	48 8b 6c 24 48	 mov	 rbp, QWORD PTR [rsp+72]
  000bb	48 83 c4 20	 add	 rsp, 32			; 00000020H
  000bf	41 5c		 pop	 r12
  000c1	c3		 ret	 0
$LN9@ast_for_gl:

; 2995 :             return NULL;

  000c2	eb e3		 jmp	 SHORT $LN12@ast_for_gl
ast_for_global_stmt ENDP
_TEXT	ENDS
EXTRN	_Py_Nonlocal:PROC
;	COMDAT pdata
pdata	SEGMENT
$pdata$ast_for_nonlocal_stmt DD imagerel ast_for_nonlocal_stmt
	DD	imagerel ast_for_nonlocal_stmt+67
	DD	imagerel $unwind$ast_for_nonlocal_stmt
pdata	ENDS
;	COMDAT pdata
pdata	SEGMENT
$pdata$1$ast_for_nonlocal_stmt DD imagerel ast_for_nonlocal_stmt+67
	DD	imagerel ast_for_nonlocal_stmt+194
	DD	imagerel $chain$1$ast_for_nonlocal_stmt
pdata	ENDS
;	COMDAT pdata
pdata	SEGMENT
$pdata$3$ast_for_nonlocal_stmt DD imagerel ast_for_nonlocal_stmt+194
	DD	imagerel ast_for_nonlocal_stmt+196
	DD	imagerel $chain$3$ast_for_nonlocal_stmt
pdata	ENDS
;	COMDAT xdata
xdata	SEGMENT
$chain$3$ast_for_nonlocal_stmt DD 040021H
	DD	077400H
	DD	066400H
	DD	imagerel ast_for_nonlocal_stmt
	DD	imagerel ast_for_nonlocal_stmt+67
	DD	imagerel $unwind$ast_for_nonlocal_stmt
xdata	ENDS
;	COMDAT xdata
xdata	SEGMENT
$chain$1$ast_for_nonlocal_stmt DD 040f21H
	DD	07740fH
	DD	066405H
	DD	imagerel ast_for_nonlocal_stmt
	DD	imagerel ast_for_nonlocal_stmt+67
	DD	imagerel $unwind$ast_for_nonlocal_stmt
xdata	ENDS
;	COMDAT xdata
xdata	SEGMENT
$unwind$ast_for_nonlocal_stmt DD 061001H
	DD	095410H
	DD	083410H
	DD	0c00c3210H
; Function compile flags: /Ogtpy
xdata	ENDS
;	COMDAT ast_for_nonlocal_stmt
_TEXT	SEGMENT
c$ = 48
n$ = 56
ast_for_nonlocal_stmt PROC				; COMDAT

; 3003 : {

  00000	48 89 5c 24 18	 mov	 QWORD PTR [rsp+24], rbx
