; Listing generated by Microsoft (R) Optimizing Compiler Version 16.00.40219.01 

include listing.inc

INCLUDELIB MSVCRT
INCLUDELIB OLDNAMES

PUBLIC	??_C@_0P@DKPNDJBA@bytes_iterator?$AA@		; `string'
PUBLIC	??_C@_0N@MOOGCAMH@__setstate__?$AA@		; `string'
PUBLIC	??_C@_0L@NNMACJIG@__reduce__?$AA@		; `string'
PUBLIC	??_C@_0BA@BJLPBKGK@__length_hint__?$AA@		; `string'
PUBLIC	??_C@_05FBJAGGIG@bytes?$AA@			; `string'
PUBLIC	??_C@_09PAJHGGFL@__bytes__?$AA@			; `string'
PUBLIC	??_C@_06OEKOLKIL@source?$AA@			; `string'
PUBLIC	??_C@_0L@HOGGIPGN@__sizeof__?$AA@		; `string'
PUBLIC	??_C@_05DMFNFMHA@zfill?$AA@			; `string'
PUBLIC	??_C@_05NECKJAMC@upper?$AA@			; `string'
PUBLIC	??_C@_09ODNGOEIO@translate?$AA@			; `string'
PUBLIC	??_C@_05PHLGJONK@title?$AA@			; `string'
PUBLIC	??_C@_08EDJLBCEI@swapcase?$AA@			; `string'
PUBLIC	??_C@_05GGNGIGHC@strip?$AA@			; `string'
PUBLIC	??_C@_0L@MPOGHCCL@startswith?$AA@		; `string'
PUBLIC	??_C@_0L@BCMGLLLC@splitlines?$AA@		; `string'
PUBLIC	??_C@_05EHPMMFBK@split?$AA@			; `string'
PUBLIC	??_C@_06DBIPDJKN@rstrip?$AA@			; `string'
PUBLIC	??_C@_06BAKFHKMF@rsplit?$AA@			; `string'
PUBLIC	??_C@_0L@KEEHLNKL@rpartition?$AA@		; `string'
PUBLIC	??_C@_05JKFAKHCP@rjust?$AA@			; `string'
PUBLIC	??_C@_06NCDOMFM@rindex?$AA@			; `string'
PUBLIC	??_C@_05BLFDIAHL@rfind?$AA@			; `string'
PUBLIC	??_C@_07CLEHDIEJ@replace?$AA@			; `string'
PUBLIC	??_C@_09IKAEIPAD@partition?$AA@			; `string'
PUBLIC	??_C@_09PBBLPCAA@maketrans?$AA@			; `string'
PUBLIC	??_C@_06GGONODO@lstrip?$AA@			; `string'
PUBLIC	??_C@_05IPJEPLHL@lower?$AA@			; `string'
PUBLIC	??_C@_05KDIMMEME@ljust?$AA@			; `string'
PUBLIC	??_C@_04DFGCDGNN@join?$AA@			; `string'
PUBLIC	??_C@_07BCOOJPCO@isupper?$AA@			; `string'
PUBLIC	??_C@_07DBHCJBDG@istitle?$AA@			; `string'
PUBLIC	??_C@_07CNBMLEON@isspace?$AA@			; `string'
PUBLIC	??_C@_07EJFAPEJH@islower?$AA@			; `string'
PUBLIC	??_C@_07CFBKIKCH@isdigit?$AA@			; `string'
PUBLIC	??_C@_07EGIOHHOB@isalpha?$AA@			; `string'
PUBLIC	??_C@_07EOADCIGC@isalnum?$AA@			; `string'
PUBLIC	??_C@_05FKHKFDID@index?$AA@			; `string'
PUBLIC	??_C@_07DIMGGDAC@fromhex?$AA@			; `string'
PUBLIC	??_C@_04CKFJHKAP@find?$AA@			; `string'
PUBLIC	??_C@_0L@DEOCELBD@expandtabs?$AA@		; `string'
PUBLIC	??_C@_08MLCMCPNP@endswith?$AA@			; `string'
PUBLIC	??_C@_06KPNAMAEI@decode?$AA@			; `string'
PUBLIC	??_C@_05IOMEMJEC@count?$AA@			; `string'
PUBLIC	??_C@_06BBLOAEEI@center?$AA@			; `string'
PUBLIC	??_C@_0L@NMODNBEH@capitalize?$AA@		; `string'
PUBLIC	??_C@_0P@BCBHENLA@__getnewargs__?$AA@		; `string'
PUBLIC	??_C@_08EMIAAFLA@keepends?$AA@			; `string'
PUBLIC	??_C@_06EOMHCNPI@errors?$AA@			; `string'
PUBLIC	??_C@_08MLPGAEIK@encoding?$AA@			; `string'
PUBLIC	??_C@_08HONNCIIN@maxsplit?$AA@			; `string'
PUBLIC	??_C@_03MGBCFPKM@sep?$AA@			; `string'
PUBLIC	??_C@_08NLCECJOD@?$HMO?3strip?$AA@		; `string'
PUBLIC	??_C@_09LGDKGINA@?$HMO?3rstrip?$AA@		; `string'
PUBLIC	??_C@_09IBNLIPED@?$HMO?3lstrip?$AA@		; `string'
PUBLIC	PyBytes_Type
PUBLIC	PyBytesIter_Type
EXTRN	PyObject_SelfIter:PROC
EXTRN	PyObject_Free:PROC
EXTRN	PyBaseObject_Type:BYTE
EXTRN	PyObject_GenericGetAttr:PROC
EXTRN	PyType_Type:BYTE
EXTRN	_Py_upper__doc__:BYTE
EXTRN	_Py_title__doc__:BYTE
EXTRN	_Py_swapcase__doc__:BYTE
EXTRN	_Py_maketrans__doc__:BYTE
EXTRN	_Py_lower__doc__:BYTE
EXTRN	_Py_isupper__doc__:BYTE
EXTRN	_Py_istitle__doc__:BYTE
EXTRN	_Py_isspace__doc__:BYTE
EXTRN	_Py_islower__doc__:BYTE
EXTRN	_Py_isdigit__doc__:BYTE
EXTRN	_Py_isalpha__doc__:BYTE
EXTRN	_Py_isalnum__doc__:BYTE
EXTRN	_Py_capitalize__doc__:BYTE
;	COMDAT ??_C@_0P@DKPNDJBA@bytes_iterator?$AA@
CONST	SEGMENT
??_C@_0P@DKPNDJBA@bytes_iterator?$AA@ DB 'bytes_iterator', 00H ; `string'
CONST	ENDS
;	COMDAT ??_C@_0N@MOOGCAMH@__setstate__?$AA@
CONST	SEGMENT
??_C@_0N@MOOGCAMH@__setstate__?$AA@ DB '__setstate__', 00H ; `string'
CONST	ENDS
;	COMDAT ??_C@_0L@NNMACJIG@__reduce__?$AA@
CONST	SEGMENT
??_C@_0L@NNMACJIG@__reduce__?$AA@ DB '__reduce__', 00H	; `string'
CONST	ENDS
;	COMDAT ??_C@_0BA@BJLPBKGK@__length_hint__?$AA@
CONST	SEGMENT
??_C@_0BA@BJLPBKGK@__length_hint__?$AA@ DB '__length_hint__', 00H ; `string'
CONST	ENDS
;	COMDAT ??_C@_05FBJAGGIG@bytes?$AA@
CONST	SEGMENT
??_C@_05FBJAGGIG@bytes?$AA@ DB 'bytes', 00H		; `string'
CONST	ENDS
_TLS	SEGMENT
?PyId___bytes__@?1??bytes_new@@9@9 DQ 0000000000000000H	; `bytes_new'::`2'::PyId___bytes__
	DQ	FLAT:??_C@_09PAJHGGFL@__bytes__?$AA@
	DQ	0000000000000000H
_TLS	ENDS
;	COMDAT ??_C@_09PAJHGGFL@__bytes__?$AA@
CONST	SEGMENT
??_C@_09PAJHGGFL@__bytes__?$AA@ DB '__bytes__', 00H	; `string'
CONST	ENDS
;	COMDAT ??_C@_06OEKOLKIL@source?$AA@
CONST	SEGMENT
??_C@_06OEKOLKIL@source?$AA@ DB 'source', 00H		; `string'
CONST	ENDS
;	COMDAT ??_C@_0L@HOGGIPGN@__sizeof__?$AA@
CONST	SEGMENT
??_C@_0L@HOGGIPGN@__sizeof__?$AA@ DB '__sizeof__', 00H	; `string'
CONST	ENDS
;	COMDAT ??_C@_05DMFNFMHA@zfill?$AA@
CONST	SEGMENT
??_C@_05DMFNFMHA@zfill?$AA@ DB 'zfill', 00H		; `string'
CONST	ENDS
;	COMDAT ??_C@_05NECKJAMC@upper?$AA@
CONST	SEGMENT
??_C@_05NECKJAMC@upper?$AA@ DB 'upper', 00H		; `string'
CONST	ENDS
;	COMDAT ??_C@_09ODNGOEIO@translate?$AA@
CONST	SEGMENT
??_C@_09ODNGOEIO@translate?$AA@ DB 'translate', 00H	; `string'
CONST	ENDS
;	COMDAT ??_C@_05PHLGJONK@title?$AA@
CONST	SEGMENT
??_C@_05PHLGJONK@title?$AA@ DB 'title', 00H		; `string'
CONST	ENDS
;	COMDAT ??_C@_08EDJLBCEI@swapcase?$AA@
CONST	SEGMENT
??_C@_08EDJLBCEI@swapcase?$AA@ DB 'swapcase', 00H	; `string'
CONST	ENDS
;	COMDAT ??_C@_05GGNGIGHC@strip?$AA@
CONST	SEGMENT
??_C@_05GGNGIGHC@strip?$AA@ DB 'strip', 00H		; `string'
CONST	ENDS
;	COMDAT ??_C@_0L@MPOGHCCL@startswith?$AA@
CONST	SEGMENT
??_C@_0L@MPOGHCCL@startswith?$AA@ DB 'startswith', 00H	; `string'
CONST	ENDS
;	COMDAT ??_C@_0L@BCMGLLLC@splitlines?$AA@
CONST	SEGMENT
??_C@_0L@BCMGLLLC@splitlines?$AA@ DB 'splitlines', 00H	; `string'
CONST	ENDS
;	COMDAT ??_C@_05EHPMMFBK@split?$AA@
CONST	SEGMENT
??_C@_05EHPMMFBK@split?$AA@ DB 'split', 00H		; `string'
CONST	ENDS
;	COMDAT ??_C@_06DBIPDJKN@rstrip?$AA@
CONST	SEGMENT
??_C@_06DBIPDJKN@rstrip?$AA@ DB 'rstrip', 00H		; `string'
CONST	ENDS
;	COMDAT ??_C@_06BAKFHKMF@rsplit?$AA@
CONST	SEGMENT
??_C@_06BAKFHKMF@rsplit?$AA@ DB 'rsplit', 00H		; `string'
CONST	ENDS
;	COMDAT ??_C@_0L@KEEHLNKL@rpartition?$AA@
CONST	SEGMENT
??_C@_0L@KEEHLNKL@rpartition?$AA@ DB 'rpartition', 00H	; `string'
CONST	ENDS
;	COMDAT ??_C@_05JKFAKHCP@rjust?$AA@
CONST	SEGMENT
??_C@_05JKFAKHCP@rjust?$AA@ DB 'rjust', 00H		; `string'
CONST	ENDS
;	COMDAT ??_C@_06NCDOMFM@rindex?$AA@
CONST	SEGMENT
??_C@_06NCDOMFM@rindex?$AA@ DB 'rindex', 00H		; `string'
CONST	ENDS
;	COMDAT ??_C@_05BLFDIAHL@rfind?$AA@
CONST	SEGMENT
??_C@_05BLFDIAHL@rfind?$AA@ DB 'rfind', 00H		; `string'
CONST	ENDS
;	COMDAT ??_C@_07CLEHDIEJ@replace?$AA@
CONST	SEGMENT
??_C@_07CLEHDIEJ@replace?$AA@ DB 'replace', 00H		; `string'
CONST	ENDS
;	COMDAT ??_C@_09IKAEIPAD@partition?$AA@
CONST	SEGMENT
??_C@_09IKAEIPAD@partition?$AA@ DB 'partition', 00H	; `string'
CONST	ENDS
;	COMDAT ??_C@_09PBBLPCAA@maketrans?$AA@
CONST	SEGMENT
??_C@_09PBBLPCAA@maketrans?$AA@ DB 'maketrans', 00H	; `string'
CONST	ENDS
;	COMDAT ??_C@_06GGONODO@lstrip?$AA@
CONST	SEGMENT
??_C@_06GGONODO@lstrip?$AA@ DB 'lstrip', 00H		; `string'
CONST	ENDS
;	COMDAT ??_C@_05IPJEPLHL@lower?$AA@
CONST	SEGMENT
??_C@_05IPJEPLHL@lower?$AA@ DB 'lower', 00H		; `string'
CONST	ENDS
;	COMDAT ??_C@_05KDIMMEME@ljust?$AA@
CONST	SEGMENT
??_C@_05KDIMMEME@ljust?$AA@ DB 'ljust', 00H		; `string'
CONST	ENDS
;	COMDAT ??_C@_04DFGCDGNN@join?$AA@
CONST	SEGMENT
??_C@_04DFGCDGNN@join?$AA@ DB 'join', 00H		; `string'
CONST	ENDS
;	COMDAT ??_C@_07BCOOJPCO@isupper?$AA@
CONST	SEGMENT
??_C@_07BCOOJPCO@isupper?$AA@ DB 'isupper', 00H		; `string'
CONST	ENDS
;	COMDAT ??_C@_07DBHCJBDG@istitle?$AA@
CONST	SEGMENT
??_C@_07DBHCJBDG@istitle?$AA@ DB 'istitle', 00H		; `string'
CONST	ENDS
;	COMDAT ??_C@_07CNBMLEON@isspace?$AA@
CONST	SEGMENT
??_C@_07CNBMLEON@isspace?$AA@ DB 'isspace', 00H		; `string'
CONST	ENDS
;	COMDAT ??_C@_07EJFAPEJH@islower?$AA@
CONST	SEGMENT
??_C@_07EJFAPEJH@islower?$AA@ DB 'islower', 00H		; `string'
CONST	ENDS
;	COMDAT ??_C@_07CFBKIKCH@isdigit?$AA@
CONST	SEGMENT
??_C@_07CFBKIKCH@isdigit?$AA@ DB 'isdigit', 00H		; `string'
CONST	ENDS
;	COMDAT ??_C@_07EGIOHHOB@isalpha?$AA@
CONST	SEGMENT
??_C@_07EGIOHHOB@isalpha?$AA@ DB 'isalpha', 00H		; `string'
CONST	ENDS
;	COMDAT ??_C@_07EOADCIGC@isalnum?$AA@
CONST	SEGMENT
??_C@_07EOADCIGC@isalnum?$AA@ DB 'isalnum', 00H		; `string'
CONST	ENDS
;	COMDAT ??_C@_05FKHKFDID@index?$AA@
CONST	SEGMENT
??_C@_05FKHKFDID@index?$AA@ DB 'index', 00H		; `string'
CONST	ENDS
;	COMDAT ??_C@_07DIMGGDAC@fromhex?$AA@
CONST	SEGMENT
??_C@_07DIMGGDAC@fromhex?$AA@ DB 'fromhex', 00H		; `string'
CONST	ENDS
;	COMDAT ??_C@_04CKFJHKAP@find?$AA@
CONST	SEGMENT
??_C@_04CKFJHKAP@find?$AA@ DB 'find', 00H		; `string'
CONST	ENDS
;	COMDAT ??_C@_0L@DEOCELBD@expandtabs?$AA@
CONST	SEGMENT
??_C@_0L@DEOCELBD@expandtabs?$AA@ DB 'expandtabs', 00H	; `string'
CONST	ENDS
;	COMDAT ??_C@_08MLCMCPNP@endswith?$AA@
CONST	SEGMENT
??_C@_08MLCMCPNP@endswith?$AA@ DB 'endswith', 00H	; `string'
CONST	ENDS
;	COMDAT ??_C@_06KPNAMAEI@decode?$AA@
CONST	SEGMENT
??_C@_06KPNAMAEI@decode?$AA@ DB 'decode', 00H		; `string'
CONST	ENDS
;	COMDAT ??_C@_05IOMEMJEC@count?$AA@
CONST	SEGMENT
??_C@_05IOMEMJEC@count?$AA@ DB 'count', 00H		; `string'
CONST	ENDS
;	COMDAT ??_C@_06BBLOAEEI@center?$AA@
CONST	SEGMENT
??_C@_06BBLOAEEI@center?$AA@ DB 'center', 00H		; `string'
CONST	ENDS
;	COMDAT ??_C@_0L@NMODNBEH@capitalize?$AA@
CONST	SEGMENT
??_C@_0L@NMODNBEH@capitalize?$AA@ DB 'capitalize', 00H	; `string'
CONST	ENDS
;	COMDAT ??_C@_0P@BCBHENLA@__getnewargs__?$AA@
CONST	SEGMENT
??_C@_0P@BCBHENLA@__getnewargs__?$AA@ DB '__getnewargs__', 00H ; `string'
CONST	ENDS
;	COMDAT ??_C@_08EMIAAFLA@keepends?$AA@
CONST	SEGMENT
??_C@_08EMIAAFLA@keepends?$AA@ DB 'keepends', 00H	; `string'
CONST	ENDS
;	COMDAT ??_C@_06EOMHCNPI@errors?$AA@
CONST	SEGMENT
??_C@_06EOMHCNPI@errors?$AA@ DB 'errors', 00H		; `string'
CONST	ENDS
;	COMDAT ??_C@_08MLPGAEIK@encoding?$AA@
CONST	SEGMENT
??_C@_08MLPGAEIK@encoding?$AA@ DB 'encoding', 00H	; `string'
CONST	ENDS
;	COMDAT ??_C@_08HONNCIIN@maxsplit?$AA@
CONST	SEGMENT
??_C@_08HONNCIIN@maxsplit?$AA@ DB 'maxsplit', 00H	; `string'
CONST	ENDS
;	COMDAT ??_C@_03MGBCFPKM@sep?$AA@
CONST	SEGMENT
??_C@_03MGBCFPKM@sep?$AA@ DB 'sep', 00H			; `string'
CONST	ENDS
;	COMDAT ??_C@_08NLCECJOD@?$HMO?3strip?$AA@
CONST	SEGMENT
??_C@_08NLCECJOD@?$HMO?3strip?$AA@ DB '|O:strip', 00H	; `string'
CONST	ENDS
;	COMDAT ??_C@_09LGDKGINA@?$HMO?3rstrip?$AA@
CONST	SEGMENT
??_C@_09LGDKGINA@?$HMO?3rstrip?$AA@ DB '|O:rstrip', 00H	; `string'
CONST	ENDS
;	COMDAT ??_C@_09IBNLIPED@?$HMO?3lstrip?$AA@
CONST	SEGMENT
??_C@_09IBNLIPED@?$HMO?3lstrip?$AA@ DB '|O:lstrip', 00H	; `string'
CONST	ENDS
_DATA	SEGMENT
expandtabs__doc__ DB 'B.expandtabs([tabsize]) -> copy of B', 0aH, 0aH, 'R'
	DB	'eturn a copy of B where all tab characters are expanded using'
	DB	' spaces.', 0aH, 'If tabsize is not given, a tab size of 8 cha'
	DB	'racters is assumed.', 00H
	ORG $+3
ljust__doc__ DB	'B.ljust(width[, fillchar]) -> copy of B', 0aH, 0aH, 'Ret'
	DB	'urn B left justified in a string of length width. Padding is', 0aH
	DB	'done using the specified fill character (default is a space).'
	DB	00H
	ORG $+9
rjust__doc__ DB	'B.rjust(width[, fillchar]) -> copy of B', 0aH, 0aH, 'Ret'
	DB	'urn B right justified in a string of length width. Padding is'
	DB	0aH, 'done using the specified fill character (default is a sp'
	DB	'ace)', 00H
	ORG $+9
center__doc__ DB 'B.center(width[, fillchar]) -> copy of B', 0aH, 0aH, 'R'
	DB	'eturn B centered in a string of length width.  Padding is', 0aH
	DB	'done using the specified fill character (default is a space).'
	DB	00H
	ORG $+13
zfill__doc__ DB	'B.zfill(width) -> copy of B', 0aH, 0aH, 'Pad a numeric s'
	DB	'tring B with zeros on the left, to fill a field', 0aH, 'of th'
	DB	'e specified width.  B is never truncated.', 00H
	ORG $+5
bytes_as_sequence DQ FLAT:bytes_length
	DQ	FLAT:bytes_concat
	DQ	FLAT:bytes_repeat
	DQ	FLAT:bytes_item
	DQ	0000000000000000H
	DQ	0000000000000000H
	DQ	0000000000000000H
	DQ	FLAT:bytes_contains
	ORG $+16
bytes_as_mapping DQ FLAT:bytes_length
	DQ	FLAT:bytes_subscript
	DQ	0000000000000000H
bytes_as_buffer DQ FLAT:bytes_buffer_getbuffer
	DQ	0000000000000000H
stripformat DQ	FLAT:??_C@_09IBNLIPED@?$HMO?3lstrip?$AA@
	DQ	FLAT:??_C@_09LGDKGINA@?$HMO?3rstrip?$AA@
	DQ	FLAT:??_C@_08NLCECJOD@?$HMO?3strip?$AA@
split__doc__ DB	'B.split(sep=None, maxsplit=-1) -> list of bytes', 0aH, 0aH
	DB	'Return a list of the sections in B, using sep as the delimite'
	DB	'r.', 0aH, 'If sep is not specified or is None, B is split on '
	DB	'ASCII whitespace', 0aH, 'characters (space, tab, return, newl'
	DB	'ine, formfeed, vertical tab).', 0aH, 'If maxsplit is given, a'
	DB	't most maxsplit splits are done.', 00H
	ORG $+2
?kwlist@?1??bytes_split@@9@9 DQ FLAT:??_C@_03MGBCFPKM@sep?$AA@ ; `bytes_split'::`2'::kwlist
	DQ	FLAT:??_C@_08HONNCIIN@maxsplit?$AA@
	DQ	0000000000000000H
	ORG $+8
partition__doc__ DB 'B.partition(sep) -> (head, sep, tail)', 0aH, 0aH, 'S'
	DB	'earch for the separator sep in B, and return the part before '
	DB	'it,', 0aH, 'the separator itself, and the part after it.  If '
	DB	'the separator is not', 0aH, 'found, returns B and two empty b'
	DB	'ytes objects.', 00H
	ORG $+3
rpartition__doc__ DB 'B.rpartition(sep) -> (head, sep, tail)', 0aH, 0aH, 'S'
	DB	'earch for the separator sep in B, starting at the end of B,', 0aH
	DB	'and return the part before it, the separator itself, and the', 0aH
	DB	'part after it.  If the separator is not found, returns two em'
	DB	'pty', 0aH, 'bytes objects and B.', 00H
	ORG $+8
rsplit__doc__ DB 'B.rsplit(sep=None, maxsplit=-1) -> list of bytes', 0aH, 0aH
	DB	'Return a list of the sections in B, using sep as the delimite'
	DB	'r,', 0aH, 'starting at the end of B and working to the front.'
	DB	0aH, 'If sep is not given, B is split on ASCII whitespace char'
	DB	'acters', 0aH, '(space, tab, return, newline, formfeed, vertic'
	DB	'al tab).', 0aH, 'If maxsplit is given, at most maxsplit split'
	DB	's are done.', 00H
	ORG $+5
?kwlist@?1??bytes_rsplit@@9@9 DQ FLAT:??_C@_03MGBCFPKM@sep?$AA@ ; `bytes_rsplit'::`2'::kwlist
	DQ	FLAT:??_C@_08HONNCIIN@maxsplit?$AA@
	DQ	0000000000000000H
join__doc__ DB	'B.join(iterable_of_bytes) -> bytes', 0aH, 0aH, 'Concaten'
	DB	'ate any number of bytes objects, with B in between each pair.'
	DB	0aH, 'Example: b''.''.join([b''ab'', b''pq'', b''rs'']) -> b'''
	DB	'ab.pq.rs''.', 00H
	ORG $+12
find__doc__ DB	'B.find(sub[, start[, end]]) -> int', 0aH, 0aH, 'Return t'
	DB	'he lowest index in B where substring sub is found,', 0aH, 'su'
	DB	'ch that sub is contained within B[start:end].  Optional', 0aH
	DB	'arguments start and end are interpreted as in slice notation.'
	DB	0aH, 0aH, 'Return -1 on failure.', 00H
	ORG $+2
index__doc__ DB	'B.index(sub[, start[, end]]) -> int', 0aH, 0aH, 'Like B.'
	DB	'find() but raise ValueError when the substring is not found.', 00H
	ORG $+7
rfind__doc__ DB	'B.rfind(sub[, start[, end]]) -> int', 0aH, 0aH, 'Return '
	DB	'the highest index in B where substring sub is found,', 0aH, 's'
	DB	'uch that sub is contained within B[start:end].  Optional', 0aH
	DB	'arguments start and end are interpreted as in slice notation.'
	DB	0aH, 0aH, 'Return -1 on failure.', 00H
rindex__doc__ DB 'B.rindex(sub[, start[, end]]) -> int', 0aH, 0aH, 'Like '
	DB	'B.rfind() but raise ValueError when the substring is not foun'
	DB	'd.', 00H
	ORG $+5
strip__doc__ DB	'B.strip([bytes]) -> bytes', 0aH, 0aH, 'Strip leading and'
	DB	' trailing bytes contained in the argument.', 0aH, 'If the arg'
	DB	'ument is omitted, strip leading and trailing ASCII whitespace'
	DB	'.', 00H
lstrip__doc__ DB 'B.lstrip([bytes]) -> bytes', 0aH, 0aH, 'Strip leading b'
	DB	'ytes contained in the argument.', 0aH, 'If the argument is om'
	DB	'itted, strip leading ASCII whitespace.', 00H
	ORG $+9
rstrip__doc__ DB 'B.rstrip([bytes]) -> bytes', 0aH, 0aH, 'Strip trailing '
	DB	'bytes contained in the argument.', 0aH, 'If the argument is o'
	DB	'mitted, strip trailing ASCII whitespace.', 00H
	ORG $+7
count__doc__ DB	'B.count(sub[, start[, end]]) -> int', 0aH, 0aH, 'Return '
	DB	'the number of non-overlapping occurrences of substring sub in'
	DB	0aH, 'string B[start:end].  Optional arguments start and end a'
	DB	're interpreted', 0aH, 'as in slice notation.', 00H
	ORG $+9
translate__doc__ DB 'B.translate(table[, deletechars]) -> bytes', 0aH, 0aH
	DB	'Return a copy of B, where all characters occurring in the', 0aH
	DB	'optional argument deletechars are removed, and the remaining', 0aH
	DB	'characters have been mapped through the given translation', 0aH
	DB	'table, which must be a bytes object of length 256.', 00H
replace__doc__ DB 'B.replace(old, new[, count]) -> bytes', 0aH, 0aH, 'Ret'
	DB	'urn a copy of B with all occurrences of subsection', 0aH, 'ol'
	DB	'd replaced by new.  If the optional argument count is', 0aH, 'g'
	DB	'iven, only first count occurances are replaced.', 00H
	ORG $+10
startswith__doc__ DB 'B.startswith(prefix[, start[, end]]) -> bool', 0aH, 0aH
	DB	'Return True if B starts with the specified prefix, False othe'
	DB	'rwise.', 0aH, 'With optional start, test B beginning at that '
	DB	'position.', 0aH, 'With optional end, stop comparing B at that'
	DB	' position.', 0aH, 'prefix can also be a tuple of bytes to try'
	DB	'.', 00H
	ORG $+4
endswith__doc__ DB 'B.endswith(suffix[, start[, end]]) -> bool', 0aH, 0aH
	DB	'Return True if B ends with the specified suffix, False otherw'
	DB	'ise.', 0aH, 'With optional start, test B beginning at that po'
	DB	'sition.', 0aH, 'With optional end, stop comparing B at that p'
	DB	'osition.', 0aH, 'suffix can also be a tuple of bytes to try.', 00H
	ORG $+8
decode__doc__ DB 'B.decode(encoding=''utf-8'', errors=''strict'') -> str', 0aH
	DB	0aH, 'Decode B using the codec registered for encoding. Defaul'
	DB	't encoding', 0aH, 'is ''utf-8''. errors may be given to set a'
	DB	' different error', 0aH, 'handling scheme.  Default is ''stric'
	DB	't'' meaning that encoding errors raise', 0aH, 'a UnicodeDecod'
	DB	'eError.  Other possible values are ''ignore'' and ''replace'''
	DB	0aH, 'as well as any other name registerd with codecs.register'
	DB	'_error that is', 0aH, 'able to handle UnicodeDecodeErrors.', 00H
	ORG $+4
?kwlist@?1??bytes_decode@@9@9 DQ FLAT:??_C@_08MLPGAEIK@encoding?$AA@ ; `bytes_decode'::`2'::kwlist
	DQ	FLAT:??_C@_06EOMHCNPI@errors?$AA@
	DQ	0000000000000000H
	ORG $+8
splitlines__doc__ DB 'B.splitlines([keepends]) -> list of lines', 0aH, 0aH
	DB	'Return a list of the lines in B, breaking at line boundaries.'
	DB	0aH, 'Line breaks are not included in the resulting list unles'
	DB	's keepends', 0aH, 'is given and true.', 00H
	ORG $+1
?kwlist@?1??bytes_splitlines@@9@9 DQ FLAT:??_C@_08EMIAAFLA@keepends?$AA@ ; `bytes_splitlines'::`2'::kwlist
	DQ	0000000000000000H
fromhex_doc DB	'bytes.fromhex(string) -> bytes', 0aH, 0aH, 'Create a byt'
	DB	'es object from a string of hexadecimal numbers.', 0aH, 'Space'
	DB	's between two numbers are accepted.', 0aH, 'Example: bytes.fr'
	DB	'omhex(''B9 01EF'') -> b''\xb9\x01\xef''.', 00H
	ORG $+5
sizeof__doc__ DB 'B.__sizeof__() -> size of B in memory, in bytes', 00H
bytes_methods DQ FLAT:??_C@_0P@BCBHENLA@__getnewargs__?$AA@
	DQ	FLAT:bytes_getnewargs
	DD	04H
	ORG $+4
	ORG $+8
	DQ	FLAT:??_C@_0L@NMODNBEH@capitalize?$AA@
	DQ	FLAT:stringlib_capitalize
	DD	04H
	ORG $+4
	DQ	FLAT:_Py_capitalize__doc__
	DQ	FLAT:??_C@_06BBLOAEEI@center?$AA@
	DQ	FLAT:stringlib_center
	DD	01H
	ORG $+4
	DQ	FLAT:center__doc__
	DQ	FLAT:??_C@_05IOMEMJEC@count?$AA@
	DQ	FLAT:bytes_count
	DD	01H
	ORG $+4
	DQ	FLAT:count__doc__
	DQ	FLAT:??_C@_06KPNAMAEI@decode?$AA@
	DQ	FLAT:bytes_decode
	DD	03H
	ORG $+4
	DQ	FLAT:decode__doc__
	DQ	FLAT:??_C@_08MLCMCPNP@endswith?$AA@
	DQ	FLAT:bytes_endswith
	DD	01H
	ORG $+4
	DQ	FLAT:endswith__doc__
	DQ	FLAT:??_C@_0L@DEOCELBD@expandtabs?$AA@
	DQ	FLAT:stringlib_expandtabs
	DD	01H
	ORG $+4
	DQ	FLAT:expandtabs__doc__
	DQ	FLAT:??_C@_04CKFJHKAP@find?$AA@
	DQ	FLAT:bytes_find
	DD	01H
	ORG $+4
	DQ	FLAT:find__doc__
	DQ	FLAT:??_C@_07DIMGGDAC@fromhex?$AA@
	DQ	FLAT:bytes_fromhex
	DD	011H
	ORG $+4
	DQ	FLAT:fromhex_doc
	DQ	FLAT:??_C@_05FKHKFDID@index?$AA@
	DQ	FLAT:bytes_index
	DD	01H
	ORG $+4
	DQ	FLAT:index__doc__
	DQ	FLAT:??_C@_07EOADCIGC@isalnum?$AA@
	DQ	FLAT:stringlib_isalnum
	DD	04H
	ORG $+4
	DQ	FLAT:_Py_isalnum__doc__
	DQ	FLAT:??_C@_07EGIOHHOB@isalpha?$AA@
	DQ	FLAT:stringlib_isalpha
	DD	04H
	ORG $+4
	DQ	FLAT:_Py_isalpha__doc__
	DQ	FLAT:??_C@_07CFBKIKCH@isdigit?$AA@
	DQ	FLAT:stringlib_isdigit
	DD	04H
	ORG $+4
	DQ	FLAT:_Py_isdigit__doc__
	DQ	FLAT:??_C@_07EJFAPEJH@islower?$AA@
	DQ	FLAT:stringlib_islower
	DD	04H
	ORG $+4
	DQ	FLAT:_Py_islower__doc__
	DQ	FLAT:??_C@_07CNBMLEON@isspace?$AA@
	DQ	FLAT:stringlib_isspace
	DD	04H
	ORG $+4
	DQ	FLAT:_Py_isspace__doc__
	DQ	FLAT:??_C@_07DBHCJBDG@istitle?$AA@
	DQ	FLAT:stringlib_istitle
	DD	04H
	ORG $+4
	DQ	FLAT:_Py_istitle__doc__
	DQ	FLAT:??_C@_07BCOOJPCO@isupper?$AA@
	DQ	FLAT:stringlib_isupper
	DD	04H
	ORG $+4
	DQ	FLAT:_Py_isupper__doc__
	DQ	FLAT:??_C@_04DFGCDGNN@join?$AA@
	DQ	FLAT:bytes_join
	DD	08H
	ORG $+4
	DQ	FLAT:join__doc__
	DQ	FLAT:??_C@_05KDIMMEME@ljust?$AA@
	DQ	FLAT:stringlib_ljust
	DD	01H
	ORG $+4
	DQ	FLAT:ljust__doc__
	DQ	FLAT:??_C@_05IPJEPLHL@lower?$AA@
	DQ	FLAT:stringlib_lower
	DD	04H
	ORG $+4
	DQ	FLAT:_Py_lower__doc__
	DQ	FLAT:??_C@_06GGONODO@lstrip?$AA@
	DQ	FLAT:bytes_lstrip
	DD	01H
	ORG $+4
	DQ	FLAT:lstrip__doc__
	DQ	FLAT:??_C@_09PBBLPCAA@maketrans?$AA@
	DQ	FLAT:bytes_maketrans
	DD	021H
	ORG $+4
	DQ	FLAT:_Py_maketrans__doc__
	DQ	FLAT:??_C@_09IKAEIPAD@partition?$AA@
	DQ	FLAT:bytes_partition
	DD	08H
	ORG $+4
	DQ	FLAT:partition__doc__
	DQ	FLAT:??_C@_07CLEHDIEJ@replace?$AA@
	DQ	FLAT:bytes_replace
	DD	01H
	ORG $+4
	DQ	FLAT:replace__doc__
	DQ	FLAT:??_C@_05BLFDIAHL@rfind?$AA@
	DQ	FLAT:bytes_rfind
	DD	01H
	ORG $+4
	DQ	FLAT:rfind__doc__
	DQ	FLAT:??_C@_06NCDOMFM@rindex?$AA@
	DQ	FLAT:bytes_rindex
	DD	01H
	ORG $+4
	DQ	FLAT:rindex__doc__
	DQ	FLAT:??_C@_05JKFAKHCP@rjust?$AA@
	DQ	FLAT:stringlib_rjust
	DD	01H
	ORG $+4
	DQ	FLAT:rjust__doc__
	DQ	FLAT:??_C@_0L@KEEHLNKL@rpartition?$AA@
	DQ	FLAT:bytes_rpartition
	DD	08H
	ORG $+4
	DQ	FLAT:rpartition__doc__
	DQ	FLAT:??_C@_06BAKFHKMF@rsplit?$AA@
	DQ	FLAT:bytes_rsplit
	DD	03H
	ORG $+4
	DQ	FLAT:rsplit__doc__
	DQ	FLAT:??_C@_06DBIPDJKN@rstrip?$AA@
	DQ	FLAT:bytes_rstrip
	DD	01H
	ORG $+4
	DQ	FLAT:rstrip__doc__
	DQ	FLAT:??_C@_05EHPMMFBK@split?$AA@
	DQ	FLAT:bytes_split
	DD	03H
	ORG $+4
	DQ	FLAT:split__doc__
	DQ	FLAT:??_C@_0L@BCMGLLLC@splitlines?$AA@
	DQ	FLAT:bytes_splitlines
	DD	03H
	ORG $+4
	DQ	FLAT:splitlines__doc__
	DQ	FLAT:??_C@_0L@MPOGHCCL@startswith?$AA@
	DQ	FLAT:bytes_startswith
	DD	01H
	ORG $+4
	DQ	FLAT:startswith__doc__
	DQ	FLAT:??_C@_05GGNGIGHC@strip?$AA@
	DQ	FLAT:bytes_strip
	DD	01H
	ORG $+4
	DQ	FLAT:strip__doc__
	DQ	FLAT:??_C@_08EDJLBCEI@swapcase?$AA@
	DQ	FLAT:stringlib_swapcase
	DD	04H
	ORG $+4
	DQ	FLAT:_Py_swapcase__doc__
	DQ	FLAT:??_C@_05PHLGJONK@title?$AA@
	DQ	FLAT:stringlib_title
	DD	04H
	ORG $+4
	DQ	FLAT:_Py_title__doc__
	DQ	FLAT:??_C@_09ODNGOEIO@translate?$AA@
	DQ	FLAT:bytes_translate
	DD	01H
	ORG $+4
	DQ	FLAT:translate__doc__
	DQ	FLAT:??_C@_05NECKJAMC@upper?$AA@
	DQ	FLAT:stringlib_upper
	DD	04H
	ORG $+4
	DQ	FLAT:_Py_upper__doc__
	DQ	FLAT:??_C@_05DMFNFMHA@zfill?$AA@
	DQ	FLAT:stringlib_zfill
	DD	01H
	ORG $+4
	DQ	FLAT:zfill__doc__
	DQ	FLAT:??_C@_0L@HOGGIPGN@__sizeof__?$AA@
	DQ	FLAT:bytes_sizeof
	DD	04H
	ORG $+4
	DQ	FLAT:sizeof__doc__
	DQ	0000000000000000H
	DQ	0000000000000000H
	ORG $+16
?kwlist@?1??bytes_new@@9@9 DQ FLAT:??_C@_06OEKOLKIL@source?$AA@ ; `bytes_new'::`2'::kwlist
	DQ	FLAT:??_C@_08MLPGAEIK@encoding?$AA@
	DQ	FLAT:??_C@_06EOMHCNPI@errors?$AA@
	DQ	0000000000000000H
bytes_doc DB	'bytes(iterable_of_ints) -> bytes', 0aH, 'bytes(string, e'
	DB	'ncoding[, errors]) -> bytes', 0aH, 'bytes(bytes_or_buffer) ->'
	DB	' immutable copy of bytes_or_buffer', 0aH, 'bytes(int) -> byte'
	DB	's object of size given by the parameter initialized with null'
	DB	' bytes', 0aH, 'bytes() -> empty bytes object', 0aH, 0aH, 'Con'
	DB	'struct an immutable array of bytes from:', 0aH, '  - an itera'
	DB	'ble yielding integers in range(256)', 0aH, '  - a text string'
	DB	' encoded using the specified encoding', 0aH, '  - any object '
	DB	'implementing the buffer API.', 0aH, '  - an integer', 00H
	ORG $+5
PyBytes_Type DQ	dead1234beef5678H
	DQ	dead1234beef5678H
	DQ	0000000000000000H
	ORG $+8
	DQ	0000000000000001H
	DQ	0000000000000000H
	DQ	0000000000000000H
	DQ	0000000000000000H
	DQ	dead1234beef5678H
	DQ	dead1234beef5678H
	DQ	0000000000000001H
	DQ	FLAT:PyType_Type
	DQ	0000000000000000H
	ORG $+8
	DQ	FLAT:??_C@_05FBJAGGIG@bytes?$AA@
	DQ	0000000000000079H
	DQ	0000000000000001H
	DQ	FLAT:bytes_dealloc
	DQ	0000000000000000H
	DQ	0000000000000000H
	DQ	0000000000000000H
	DQ	0000000000000000H
	DQ	FLAT:bytes_repr
	DQ	0000000000000000H
	DQ	FLAT:bytes_as_sequence
	DQ	FLAT:bytes_as_mapping
	DQ	FLAT:bytes_hash
	DQ	0000000000000000H
	DQ	FLAT:bytes_str
	DQ	FLAT:PyObject_GenericGetAttr
	DQ	0000000000000000H
	DQ	FLAT:bytes_as_buffer
	DD	08040400H
	ORG $+4
	DQ	FLAT:bytes_doc
	DQ	0000000000000000H
	DQ	0000000000000000H
	DQ	FLAT:bytes_richcompare
	DQ	0000000000000000H
	DQ	FLAT:bytes_iter
	DQ	0000000000000000H
	DQ	FLAT:bytes_methods
	DQ	0000000000000000H
	DQ	0000000000000000H
	DQ	FLAT:PyBaseObject_Type
	DQ	0000000000000000H
	DQ	0000000000000000H
	DQ	0000000000000000H
	DQ	0000000000000000H
	DQ	0000000000000000H
	DQ	0000000000000000H
	DQ	FLAT:bytes_new
	DQ	FLAT:PyObject_Free
	ORG $+64
length_hint_doc DB 'Private method returning an estimate of len(list(it))'
	DB	'.', 00H
	ORG $+1
reduce_doc DB	'Return state information for pickling.', 00H
	ORG $+1
setstate_doc DB	'Set state information for unpickling.', 00H
	ORG $+10
striter_methods DQ FLAT:??_C@_0BA@BJLPBKGK@__length_hint__?$AA@
	DQ	FLAT:striter_len
	DD	04H
	ORG $+4
	DQ	FLAT:length_hint_doc
	DQ	FLAT:??_C@_0L@NNMACJIG@__reduce__?$AA@
	DQ	FLAT:striter_reduce
	DD	04H
	ORG $+4
	DQ	FLAT:reduce_doc
	DQ	FLAT:??_C@_0N@MOOGCAMH@__setstate__?$AA@
	DQ	FLAT:striter_setstate
	DD	08H
	ORG $+4
	DQ	FLAT:setstate_doc
	DQ	0000000000000000H
	DQ	0000000000000000H
	ORG $+16
PyBytesIter_Type DQ dead1234beef5678H
	DQ	dead1234beef5678H
	DQ	0000000000000000H
	ORG $+8
	DQ	0000000000000001H
	DQ	0000000000000000H
	DQ	0000000000000000H
	DQ	0000000000000000H
	DQ	dead1234beef5678H
	DQ	dead1234beef5678H
	DQ	0000000000000001H
	DQ	FLAT:PyType_Type
	DQ	0000000000000000H
	ORG $+8
	DQ	FLAT:??_C@_0P@DKPNDJBA@bytes_iterator?$AA@
	DQ	0000000000000070H
	DQ	0000000000000000H
	DQ	FLAT:striter_dealloc
	DQ	0000000000000000H
	DQ	0000000000000000H
	DQ	0000000000000000H
	DQ	0000000000000000H
	DQ	0000000000000000H
	DQ	0000000000000000H
	DQ	0000000000000000H
	DQ	0000000000000000H
	DQ	0000000000000000H
	DQ	0000000000000000H
	DQ	0000000000000000H
	DQ	FLAT:PyObject_GenericGetAttr
	DQ	0000000000000000H
	DQ	0000000000000000H
	DD	044000H
	ORG $+4
	DQ	0000000000000000H
	DQ	FLAT:striter_traverse
	DQ	0000000000000000H
	DQ	0000000000000000H
	DQ	0000000000000000H
	DQ	FLAT:PyObject_SelfIter
	DQ	FLAT:striter_next
	DQ	FLAT:striter_methods
	DQ	0000000000000000H
	ORG $+144
_DATA	ENDS
PUBLIC	??_C@_0L@DHGMCEID@_Py_IncRef?$AA@		; `string'
PUBLIC	??_C@_0CD@HDJFDCDP@c?3?2src?2pyparallel?2include?2object@ ; `string'
PUBLIC	_Py_IncRef
EXTRN	_PyParallel_Guard:PROC
EXTRN	_Py_PXCTX:PROC
;	COMDAT pdata
; File c:\src\pyparallel\include\object.h
pdata	SEGMENT
$pdata$_Py_IncRef DD imagerel $LN5
	DD	imagerel $LN5+74
	DD	imagerel $unwind$_Py_IncRef
pdata	ENDS
;	COMDAT xdata
xdata	SEGMENT
$unwind$_Py_IncRef DD 020601H
	DD	030025206H
xdata	ENDS
;	COMDAT ??_C@_0L@DHGMCEID@_Py_IncRef?$AA@
CONST	SEGMENT
??_C@_0L@DHGMCEID@_Py_IncRef?$AA@ DB '_Py_IncRef', 00H	; `string'
CONST	ENDS
;	COMDAT ??_C@_0CD@HDJFDCDP@c?3?2src?2pyparallel?2include?2object@
CONST	SEGMENT
??_C@_0CD@HDJFDCDP@c?3?2src?2pyparallel?2include?2object@ DB 'c:\src\pypa'
	DB	'rallel\include\object.h', 00H		; `string'
; Function compile flags: /Ogtpy
CONST	ENDS
;	COMDAT _Py_IncRef
_TEXT	SEGMENT
op$ = 64
_Py_IncRef PROC						; COMDAT

; 904  : {

$LN5:
  00000	40 53		 push	 rbx
  00002	48 83 ec 30	 sub	 rsp, 48			; 00000030H
  00006	48 8b d9	 mov	 rbx, rcx

; 905  :     if ((!Py_PXCTX && (Py_ISPY(op) || Px_PERSISTED(op)))) {

  00009	e8 00 00 00 00	 call	 _Py_PXCTX
  0000e	85 c0		 test	 eax, eax
  00010	75 32		 jne	 SHORT $LN2@Py_IncRef
  00012	48 8d 15 00 00
	00 00		 lea	 rdx, OFFSET FLAT:??_C@_0CD@HDJFDCDP@c?3?2src?2pyparallel?2include?2object@
  00019	48 8d 0d 00 00
	00 00		 lea	 rcx, OFFSET FLAT:??_C@_0L@DHGMCEID@_Py_IncRef?$AA@
  00020	4c 8b cb	 mov	 r9, rbx
  00023	41 b8 89 03 00
	00		 mov	 r8d, 905		; 00000389H
  00029	c7 44 24 20 02
	00 00 00	 mov	 DWORD PTR [rsp+32], 2
  00031	e8 00 00 00 00	 call	 _PyParallel_Guard
  00036	85 c0		 test	 eax, eax
  00038	75 06		 jne	 SHORT $LN1@Py_IncRef
  0003a	f6 43 20 20	 test	 BYTE PTR [rbx+32], 32	; 00000020H
  0003e	74 04		 je	 SHORT $LN2@Py_IncRef
$LN1@Py_IncRef:

; 906  :         _Py_INC_REFTOTAL;
; 907  :         (((PyObject*)(op))->ob_refcnt++);

  00040	48 ff 43 50	 inc	 QWORD PTR [rbx+80]
$LN2@Py_IncRef:

; 908  :     }
; 909  : }

  00044	48 83 c4 30	 add	 rsp, 48			; 00000030H
  00048	5b		 pop	 rbx
  00049	c3		 ret	 0
_Py_IncRef ENDP
_TEXT	ENDS
PUBLIC	??_C@_0L@DMHMLFIA@_Py_DecRef?$AA@		; `string'
PUBLIC	_Py_DecRef
EXTRN	Px_DecRef:PROC
EXTRN	_Px_Dealloc:PROC
;	COMDAT pdata
pdata	SEGMENT
$pdata$_Py_DecRef DD imagerel $LN12
	DD	imagerel $LN12+123
	DD	imagerel $unwind$_Py_DecRef
pdata	ENDS
;	COMDAT xdata
xdata	SEGMENT
$unwind$_Py_DecRef DD 020601H
	DD	030025206H
xdata	ENDS
;	COMDAT ??_C@_0L@DMHMLFIA@_Py_DecRef?$AA@
CONST	SEGMENT
??_C@_0L@DMHMLFIA@_Py_DecRef?$AA@ DB '_Py_DecRef', 00H	; `string'
; Function compile flags: /Ogtpy
CONST	ENDS
;	COMDAT _Py_DecRef
_TEXT	SEGMENT
op$ = 64
_Py_DecRef PROC						; COMDAT

; 923  : {

$LN12:
  00000	40 53		 push	 rbx
  00002	48 83 ec 30	 sub	 rsp, 48			; 00000030H
  00006	48 8b d9	 mov	 rbx, rcx

; 924  :     if (!Py_PXCTX) {

  00009	e8 00 00 00 00	 call	 _Py_PXCTX
  0000e	85 c0		 test	 eax, eax
  00010	75 63		 jne	 SHORT $LN11@Py_DecRef

; 925  :         if (Px_PERSISTED(op) || Px_CLONED(op))

  00012	48 8b 43 20	 mov	 rax, QWORD PTR [rbx+32]
  00016	a8 20		 test	 al, 32			; 00000020H
  00018	75 53		 jne	 SHORT $LN5@Py_DecRef
  0001a	84 c0		 test	 al, al
  0001c	78 4f		 js	 SHORT $LN5@Py_DecRef

; 927  :         else if (!Px_ISPX(op)) {

  0001e	a8 02		 test	 al, 2
  00020	75 53		 jne	 SHORT $LN11@Py_DecRef

; 928  :             _Py_DEC_REFTOTAL;
; 929  :             if ((--((PyObject *)(op))->ob_refcnt) != 0) {

  00022	48 ff 4b 50	 dec	 QWORD PTR [rbx+80]
  00026	75 4d		 jne	 SHORT $LN11@Py_DecRef

; 930  :                 _Py_CHECK_REFCNT(op);
; 931  :             } else
; 932  :                 _Py_Dealloc((PyObject *)(op));

  00028	48 8d 15 00 00
	00 00		 lea	 rdx, OFFSET FLAT:??_C@_0CD@HDJFDCDP@c?3?2src?2pyparallel?2include?2object@
  0002f	48 8d 0d 00 00
	00 00		 lea	 rcx, OFFSET FLAT:??_C@_0L@DMHMLFIA@_Py_DecRef?$AA@
  00036	4c 8b cb	 mov	 r9, rbx
  00039	41 b8 a4 03 00
	00		 mov	 r8d, 932		; 000003a4H
  0003f	c7 44 24 20 10
	00 00 00	 mov	 DWORD PTR [rsp+32], 16
  00047	e8 00 00 00 00	 call	 _PyParallel_Guard
  0004c	48 8b cb	 mov	 rcx, rbx
  0004f	85 c0		 test	 eax, eax
  00051	74 0a		 je	 SHORT $LN10@Py_DecRef

; 933  :         }
; 934  :     }
; 935  : }

  00053	48 83 c4 30	 add	 rsp, 48			; 00000030H
  00057	5b		 pop	 rbx
  00058	e9 00 00 00 00	 jmp	 _Px_Dealloc
$LN10@Py_DecRef:

; 930  :                 _Py_CHECK_REFCNT(op);
; 931  :             } else
; 932  :                 _Py_Dealloc((PyObject *)(op));

  0005d	48 8b 43 58	 mov	 rax, QWORD PTR [rbx+88]

; 933  :         }
; 934  :     }
; 935  : }

  00061	48 83 c4 30	 add	 rsp, 48			; 00000030H
  00065	5b		 pop	 rbx
  00066	48 ff a0 88 00
	00 00		 rex_jmp QWORD PTR [rax+136]
$LN5@Py_DecRef:

; 926  :             Px_DECREF(op);

  0006d	48 8b cb	 mov	 rcx, rbx
  00070	e8 00 00 00 00	 call	 Px_DecRef
$LN11@Py_DecRef:

; 933  :         }
; 934  :     }
; 935  : }

  00075	48 83 c4 30	 add	 rsp, 48			; 00000030H
  00079	5b		 pop	 rbx
  0007a	c3		 ret	 0
_Py_DecRef ENDP
; Function compile flags: /Ogtpy
; File c:\src\pyparallel\include\objimpl.h
_TEXT	ENDS
;	COMDAT _PyObject_InitHead
_TEXT	SEGMENT
op$ = 8
_PyObject_InitHead PROC					; COMDAT

; 216  :     assert(Py_TYPE(op));
; 217  :     op->is_px = _Py_NOT_PARALLEL;

  00000	48 ba 78 56 ef
	be 34 12 ad de	 mov	 rdx, -2401243008567650696 ; dead1234beef5678H

; 218  :     op->px    = _Py_NOT_PARALLEL;
; 219  :     op->slist_entry.Next = NULL;

  0000a	33 c0		 xor	 eax, eax

; 220  :     op->px_flags  = Py_PXFLAGS_ISPY;

  0000c	48 c7 41 20 01
	00 00 00	 mov	 QWORD PTR [rcx+32], 1
  00014	48 89 11	 mov	 QWORD PTR [rcx], rdx
  00017	48 89 51 08	 mov	 QWORD PTR [rcx+8], rdx
  0001b	48 89 41 10	 mov	 QWORD PTR [rcx+16], rax

; 221  :     op->srw_lock  = NULL;

  0001f	48 89 41 28	 mov	 QWORD PTR [rcx+40], rax

; 222  :     op->event     = NULL;

  00023	48 89 41 30	 mov	 QWORD PTR [rcx+48], rax

; 223  :     op->orig_type = NULL;

  00027	48 89 41 38	 mov	 QWORD PTR [rcx+56], rax

; 224  : #ifdef Py_TRACE_REFS
; 225  :     op->_ob_next = NULL;
; 226  :     op->_ob_prev = NULL;
; 227  : #else
; 228  :     op->_ob_next = _Py_NOT_PARALLEL;

  0002b	48 89 51 40	 mov	 QWORD PTR [rcx+64], rdx

; 229  :     op->_ob_prev = _Py_NOT_PARALLEL;

  0002f	48 89 51 48	 mov	 QWORD PTR [rcx+72], rdx

; 230  : #endif
; 231  : }

  00033	c3		 ret	 0
_PyObject_InitHead ENDP
_TEXT	ENDS
PUBLIC	??_C@_0BC@PCKAICOI@PyObject_INIT_VAR?$AA@	; `string'
PUBLIC	??_C@_0CE@FGBBJFKA@c?3?2src?2pyparallel?2include?2objimp@ ; `string'
EXTRN	_Px_NewReference:PROC
EXTRN	_PxObject_InitVar:PROC
;	COMDAT pdata
pdata	SEGMENT
$pdata$PyObject_INIT_VAR DD imagerel PyObject_INIT_VAR
	DD	imagerel PyObject_INIT_VAR+215
	DD	imagerel $unwind$PyObject_INIT_VAR
pdata	ENDS
;	COMDAT xdata
xdata	SEGMENT
$unwind$PyObject_INIT_VAR DD 060f01H
	DD	09640fH
	DD	08340fH
	DD	0700b520fH
xdata	ENDS
;	COMDAT ??_C@_0BC@PCKAICOI@PyObject_INIT_VAR?$AA@
CONST	SEGMENT
??_C@_0BC@PCKAICOI@PyObject_INIT_VAR?$AA@ DB 'PyObject_INIT_VAR', 00H ; `string'
CONST	ENDS
;	COMDAT ??_C@_0CE@FGBBJFKA@c?3?2src?2pyparallel?2include?2objimp@
CONST	SEGMENT
??_C@_0CE@FGBBJFKA@c?3?2src?2pyparallel?2include?2objimp@ DB 'c:\src\pypa'
	DB	'rallel\include\objimpl.h', 00H		; `string'
; Function compile flags: /Ogtpy
CONST	ENDS
;	COMDAT PyObject_INIT_VAR
_TEXT	SEGMENT
op$ = 64
tp$ = 72
n$ = 80
PyObject_INIT_VAR PROC					; COMDAT

; 247  : {

  00000	48 89 5c 24 08	 mov	 QWORD PTR [rsp+8], rbx
  00005	48 89 74 24 10	 mov	 QWORD PTR [rsp+16], rsi
  0000a	57		 push	 rdi
  0000b	48 83 ec 30	 sub	 rsp, 48			; 00000030H
  0000f	49 8b f8	 mov	 rdi, r8
  00012	48 8b f2	 mov	 rsi, rdx
  00015	48 8b d9	 mov	 rbx, rcx

; 248  :     Px_RETURN(_PxObject_InitVar(op, tp, n))

  00018	e8 00 00 00 00	 call	 _Py_PXCTX
  0001d	85 c0		 test	 eax, eax
  0001f	74 1d		 je	 SHORT $LN1@PyObject_I
  00021	4c 8b c7	 mov	 r8, rdi
  00024	48 8b d6	 mov	 rdx, rsi
  00027	48 8b cb	 mov	 rcx, rbx

; 254  : }

  0002a	48 8b 5c 24 40	 mov	 rbx, QWORD PTR [rsp+64]
  0002f	48 8b 74 24 48	 mov	 rsi, QWORD PTR [rsp+72]
  00034	48 83 c4 30	 add	 rsp, 48			; 00000030H
  00038	5f		 pop	 rdi
  00039	e9 00 00 00 00	 jmp	 _PxObject_InitVar
$LN1@PyObject_I:

; 249  :     Py_SIZE(op) = n;
; 250  :     Py_TYPE(op) = tp;
; 251  :     _PyObject_InitHead((PyObject *)op);

  0003e	48 b9 78 56 ef
	be 34 12 ad de	 mov	 rcx, -2401243008567650696 ; dead1234beef5678H
  00048	33 c0		 xor	 eax, eax

; 252  :     _Py_NewReference((PyObject *)op);

  0004a	48 8d 15 00 00
	00 00		 lea	 rdx, OFFSET FLAT:??_C@_0CE@FGBBJFKA@c?3?2src?2pyparallel?2include?2objimp@
  00051	48 89 0b	 mov	 QWORD PTR [rbx], rcx
  00054	48 89 4b 08	 mov	 QWORD PTR [rbx+8], rcx
  00058	48 89 4b 40	 mov	 QWORD PTR [rbx+64], rcx
  0005c	48 89 4b 48	 mov	 QWORD PTR [rbx+72], rcx
  00060	48 8d 0d 00 00
	00 00		 lea	 rcx, OFFSET FLAT:??_C@_0BC@PCKAICOI@PyObject_INIT_VAR?$AA@
  00067	4c 8b cb	 mov	 r9, rbx
  0006a	41 b8 fc 00 00
	00		 mov	 r8d, 252		; 000000fcH
  00070	48 89 7b 60	 mov	 QWORD PTR [rbx+96], rdi
  00074	48 89 73 58	 mov	 QWORD PTR [rbx+88], rsi
  00078	48 89 43 10	 mov	 QWORD PTR [rbx+16], rax
  0007c	48 c7 43 20 01
	00 00 00	 mov	 QWORD PTR [rbx+32], 1
  00084	48 89 43 28	 mov	 QWORD PTR [rbx+40], rax
  00088	48 89 43 30	 mov	 QWORD PTR [rbx+48], rax
  0008c	48 89 43 38	 mov	 QWORD PTR [rbx+56], rax
  00090	c7 44 24 20 10
	00 00 00	 mov	 DWORD PTR [rsp+32], 16
  00098	e8 00 00 00 00	 call	 _PyParallel_Guard
  0009d	85 c0		 test	 eax, eax
  0009f	74 1b		 je	 SHORT $LN4@PyObject_I
  000a1	48 8b cb	 mov	 rcx, rbx
  000a4	e8 00 00 00 00	 call	 _Px_NewReference

; 253  :     return op;

  000a9	48 8b c3	 mov	 rax, rbx

; 254  : }

  000ac	48 8b 5c 24 40	 mov	 rbx, QWORD PTR [rsp+64]
  000b1	48 8b 74 24 48	 mov	 rsi, QWORD PTR [rsp+72]
  000b6	48 83 c4 30	 add	 rsp, 48			; 00000030H
  000ba	5f		 pop	 rdi
  000bb	c3		 ret	 0
$LN4@PyObject_I:
  000bc	48 8b 74 24 48	 mov	 rsi, QWORD PTR [rsp+72]
  000c1	48 c7 43 50 01
	00 00 00	 mov	 QWORD PTR [rbx+80], 1
  000c9	48 8b c3	 mov	 rax, rbx
  000cc	48 8b 5c 24 40	 mov	 rbx, QWORD PTR [rsp+64]
  000d1	48 83 c4 30	 add	 rsp, 48			; 00000030H
  000d5	5f		 pop	 rdi
  000d6	c3		 ret	 0
PyObject_INIT_VAR ENDP
_TEXT	ENDS
PUBLIC	??_C@_0CL@HMLNEJOC@Type?5?$CF?4100s?5doesn?8t?5support?5the?5@ ; `string'
EXTRN	PyErr_Format:PROC
EXTRN	PyExc_TypeError:QWORD
;	COMDAT pdata
; File c:\src\pyparallel\objects\bytesobject.c
pdata	SEGMENT
$pdata$_getbuffer DD imagerel _getbuffer
	DD	imagerel _getbuffer+86
	DD	imagerel $unwind$_getbuffer
pdata	ENDS
;	COMDAT xdata
xdata	SEGMENT
$unwind$_getbuffer DD 020601H
	DD	030023206H
xdata	ENDS
;	COMDAT ??_C@_0CL@HMLNEJOC@Type?5?$CF?4100s?5doesn?8t?5support?5the?5@
CONST	SEGMENT
??_C@_0CL@HMLNEJOC@Type?5?$CF?4100s?5doesn?8t?5support?5the?5@ DB 'Type %'
	DB	'.100s doesn''t support the buffer API', 00H	; `string'
; Function compile flags: /Ogtpy
CONST	ENDS
;	COMDAT _getbuffer
_TEXT	SEGMENT
obj$ = 48
view$ = 56
_getbuffer PROC						; COMDAT

; 12   : {

  00000	40 53		 push	 rbx
  00002	48 83 ec 20	 sub	 rsp, 32			; 00000020H

; 13   :     PyBufferProcs *buffer = Py_TYPE(obj)->tp_as_buffer;

  00006	4c 8b 41 58	 mov	 r8, QWORD PTR [rcx+88]
  0000a	48 8b da	 mov	 rbx, rdx
  0000d	49 8b 80 f8 00
	00 00		 mov	 rax, QWORD PTR [r8+248]

; 14   : 
; 15   :     if (buffer == NULL || buffer->bf_getbuffer == NULL)

  00014	48 85 c0	 test	 rax, rax
  00017	74 1c		 je	 SHORT $LN2@getbuffer
  00019	4c 8b 08	 mov	 r9, QWORD PTR [rax]
  0001c	4d 85 c9	 test	 r9, r9
  0001f	74 14		 je	 SHORT $LN2@getbuffer

; 21   :     }
; 22   : 
; 23   :     if (buffer->bf_getbuffer(obj, view, PyBUF_SIMPLE) < 0)

  00021	45 33 c0	 xor	 r8d, r8d
  00024	41 ff d1	 call	 r9
  00027	85 c0		 test	 eax, eax

; 24   :         return -1;

  00029	78 21		 js	 SHORT $LN6@getbuffer

; 25   :     return view->len;

  0002b	48 8b 43 10	 mov	 rax, QWORD PTR [rbx+16]

; 26   : }

  0002f	48 83 c4 20	 add	 rsp, 32			; 00000020H
  00033	5b		 pop	 rbx
  00034	c3		 ret	 0
$LN2@getbuffer:

; 16   :     {
; 17   :         PyErr_Format(PyExc_TypeError,
; 18   :                      "Type %.100s doesn't support the buffer API",
; 19   :                      Py_TYPE(obj)->tp_name);

  00035	4d 8b 40 70	 mov	 r8, QWORD PTR [r8+112]
  00039	48 8b 0d 00 00
	00 00		 mov	 rcx, QWORD PTR PyExc_TypeError
  00040	48 8d 15 00 00
	00 00		 lea	 rdx, OFFSET FLAT:??_C@_0CL@HMLNEJOC@Type?5?$CF?4100s?5doesn?8t?5support?5the?5@
  00047	e8 00 00 00 00	 call	 PyErr_Format
$LN6@getbuffer:

; 20   :         return -1;

  0004c	48 83 c8 ff	 or	 rax, -1

; 26   : }

  00050	48 83 c4 20	 add	 rsp, 32			; 00000020H
  00054	5b		 pop	 rbx
  00055	c3		 ret	 0
_getbuffer ENDP
_TEXT	ENDS
PUBLIC	??_C@_0BJ@GKFHPJMO@byte?5string?5is?5too?5large?$AA@ ; `string'
PUBLIC	??_C@_0DC@LEOKNIFE@Negative?5size?5passed?5to?5PyBytes_@ ; `string'
PUBLIC	PyBytes_FromStringAndSize
EXTRN	PyExc_OverflowError:QWORD
EXTRN	PyErr_NoMemory:PROC
EXTRN	PyObject_Malloc:PROC
EXTRN	PyErr_SetString:PROC
EXTRN	PyExc_SystemError:QWORD
EXTRN	memcpy:PROC
_BSS	SEGMENT
nullstring DQ	01H DUP (?)
characters DQ	0100H DUP (?)
_BSS	ENDS
;	COMDAT pdata
pdata	SEGMENT
$pdata$PyBytes_FromStringAndSize DD imagerel $LN26
	DD	imagerel $LN26+351
	DD	imagerel $unwind$PyBytes_FromStringAndSize
pdata	ENDS
;	COMDAT xdata
xdata	SEGMENT
$unwind$PyBytes_FromStringAndSize DD 083f01H
	DD	07743fH
	DD	06543aH
	DD	08340aH
	DD	06006320aH
xdata	ENDS
;	COMDAT ??_C@_0BJ@GKFHPJMO@byte?5string?5is?5too?5large?$AA@
CONST	SEGMENT
??_C@_0BJ@GKFHPJMO@byte?5string?5is?5too?5large?$AA@ DB 'byte string is t'
	DB	'oo large', 00H				; `string'
CONST	ENDS
;	COMDAT ??_C@_0DC@LEOKNIFE@Negative?5size?5passed?5to?5PyBytes_@
CONST	SEGMENT
??_C@_0DC@LEOKNIFE@Negative?5size?5passed?5to?5PyBytes_@ DB 'Negative siz'
	DB	'e passed to PyBytes_FromStringAndSize', 00H	; `string'
; Function compile flags: /Ogtpy
CONST	ENDS
;	COMDAT PyBytes_FromStringAndSize
_TEXT	SEGMENT
str$ = 48
size$ = 56
PyBytes_FromStringAndSize PROC				; COMDAT

; 67   : {

$LN26:
  00000	48 89 5c 24 18	 mov	 QWORD PTR [rsp+24], rbx
  00005	56		 push	 rsi
  00006	48 83 ec 20	 sub	 rsp, 32			; 00000020H
  0000a	48 8b da	 mov	 rbx, rdx
  0000d	48 8b f1	 mov	 rsi, rcx

; 68   :     register PyBytesObject *op;
; 69   :     if (size < 0) {

  00010	48 85 d2	 test	 rdx, rdx
  00013	79 20		 jns	 SHORT $LN18@PyBytes_Fr

; 70   :         PyErr_SetString(PyExc_SystemError,
; 71   :             "Negative size passed to PyBytes_FromStringAndSize");

  00015	48 8b 0d 00 00
	00 00		 mov	 rcx, QWORD PTR PyExc_SystemError
  0001c	48 8d 15 00 00
	00 00		 lea	 rdx, OFFSET FLAT:??_C@_0DC@LEOKNIFE@Negative?5size?5passed?5to?5PyBytes_@
  00023	e8 00 00 00 00	 call	 PyErr_SetString

; 72   :         return NULL;

  00028	33 c0		 xor	 eax, eax

; 120  : }

  0002a	48 8b 5c 24 40	 mov	 rbx, QWORD PTR [rsp+64]
  0002f	48 83 c4 20	 add	 rsp, 32			; 00000020H
  00033	5e		 pop	 rsi
  00034	c3		 ret	 0
$LN18@PyBytes_Fr:
  00035	48 89 6c 24 30	 mov	 QWORD PTR [rsp+48], rbp
  0003a	48 89 7c 24 38	 mov	 QWORD PTR [rsp+56], rdi

; 73   :     }
; 74   :     if (size == 0 && (op = nullstring) != NULL) {

  0003f	48 8d 2d 00 00
	00 00		 lea	 rbp, OFFSET FLAT:characters
  00046	48 85 d2	 test	 rdx, rdx
  00049	75 2b		 jne	 SHORT $LN17@PyBytes_Fr
  0004b	48 8b 3d 00 00
	00 00		 mov	 rdi, QWORD PTR nullstring
  00052	48 85 ff	 test	 rdi, rdi
  00055	0f 85 e4 00 00
	00		 jne	 $LN25@PyBytes_Fr
$LN15@PyBytes_Fr:

; 95   :     }
; 96   : 
; 97   :     /* Inline PyObject_NewVar */
; 98   :     op = (PyBytesObject *)PyObject_MALLOC(PyBytesObject_SIZE + size);

  0005b	48 8d 4a 79	 lea	 rcx, QWORD PTR [rdx+121]
  0005f	e8 00 00 00 00	 call	 PyObject_Malloc
  00064	48 8b f8	 mov	 rdi, rax

; 99   :     if (op == NULL)

  00067	48 85 c0	 test	 rax, rax
  0006a	75 50		 jne	 SHORT $LN14@PyBytes_Fr

; 100  :         return PyErr_NoMemory();

  0006c	e8 00 00 00 00	 call	 PyErr_NoMemory
  00071	e9 d4 00 00 00	 jmp	 $LN24@PyBytes_Fr
$LN17@PyBytes_Fr:

; 75   : #ifdef COUNT_ALLOCS
; 76   :         null_strings++;
; 77   : #endif
; 78   :         Py_INCREF(op);
; 79   :         return (PyObject *)op;
; 80   :     }
; 81   :     if (size == 1 && str != NULL &&
; 82   :         (op = characters[*str & UCHAR_MAX]) != NULL)

  00076	48 83 fa 01	 cmp	 rdx, 1
  0007a	75 17		 jne	 SHORT $LN16@PyBytes_Fr
  0007c	48 85 c9	 test	 rcx, rcx
  0007f	74 da		 je	 SHORT $LN15@PyBytes_Fr
  00081	0f b6 01	 movzx	 eax, BYTE PTR [rcx]
  00084	48 8b 7c c5 00	 mov	 rdi, QWORD PTR [rbp+rax*8]
  00089	48 85 ff	 test	 rdi, rdi
  0008c	74 cd		 je	 SHORT $LN15@PyBytes_Fr

; 83   :     {
; 84   : #ifdef COUNT_ALLOCS
; 85   :         one_strings++;
; 86   : #endif
; 87   :         Py_INCREF(op);
; 88   :         return (PyObject *)op;

  0008e	e9 ac 00 00 00	 jmp	 $LN25@PyBytes_Fr
$LN16@PyBytes_Fr:

; 89   :     }
; 90   : 
; 91   :     if (size > PY_SSIZE_T_MAX - PyBytesObject_SIZE) {

  00093	48 b8 86 ff ff
	ff ff ff ff 7f	 mov	 rax, 9223372036854775686 ; 7fffffffffffff86H
  0009d	48 3b d0	 cmp	 rdx, rax
  000a0	76 b9		 jbe	 SHORT $LN15@PyBytes_Fr

; 92   :         PyErr_SetString(PyExc_OverflowError,
; 93   :                         "byte string is too large");

  000a2	48 8b 0d 00 00
	00 00		 mov	 rcx, QWORD PTR PyExc_OverflowError
  000a9	48 8d 15 00 00
	00 00		 lea	 rdx, OFFSET FLAT:??_C@_0BJ@GKFHPJMO@byte?5string?5is?5too?5large?$AA@
  000b0	e8 00 00 00 00	 call	 PyErr_SetString

; 94   :         return NULL;

  000b5	33 c0		 xor	 eax, eax
  000b7	e9 8e 00 00 00	 jmp	 $LN24@PyBytes_Fr
$LN14@PyBytes_Fr:

; 101  :     PyObject_INIT_VAR((PyVarObject *)op, &PyBytes_Type, size);

  000bc	48 8d 15 00 00
	00 00		 lea	 rdx, OFFSET FLAT:PyBytes_Type
  000c3	4c 8b c3	 mov	 r8, rbx
  000c6	48 8b c8	 mov	 rcx, rax
  000c9	e8 00 00 00 00	 call	 PyObject_INIT_VAR

; 102  :     op->ob_shash = -1;

  000ce	48 c7 47 70 ff
	ff ff ff	 mov	 QWORD PTR [rdi+112], -1

; 103  :     if (str != NULL)

  000d6	48 85 f6	 test	 rsi, rsi
  000d9	74 35		 je	 SHORT $LN10@PyBytes_Fr

; 104  :         Py_MEMCPY(op->ob_sval, str, size);

  000db	48 8d 4f 78	 lea	 rcx, QWORD PTR [rdi+120]
  000df	48 83 fb 10	 cmp	 rbx, 16
  000e3	72 0d		 jb	 SHORT $LN9@PyBytes_Fr
  000e5	4c 8b c3	 mov	 r8, rbx
  000e8	48 8b d6	 mov	 rdx, rsi
  000eb	e8 00 00 00 00	 call	 memcpy
  000f0	eb 1e		 jmp	 SHORT $LN10@PyBytes_Fr
$LN9@PyBytes_Fr:
  000f2	48 85 db	 test	 rbx, rbx
  000f5	74 19		 je	 SHORT $LN10@PyBytes_Fr
  000f7	4c 8b c6	 mov	 r8, rsi
  000fa	48 8b d3	 mov	 rdx, rbx
  000fd	4c 2b c1	 sub	 r8, rcx
$LL7@PyBytes_Fr:
  00100	41 0f b6 04 08	 movzx	 eax, BYTE PTR [r8+rcx]
  00105	48 ff c1	 inc	 rcx
  00108	48 ff ca	 dec	 rdx
  0010b	88 41 ff	 mov	 BYTE PTR [rcx-1], al
  0010e	75 f0		 jne	 SHORT $LL7@PyBytes_Fr
$LN10@PyBytes_Fr:

; 105  :     op->ob_sval[size] = '\0';

  00110	c6 44 1f 78 00	 mov	 BYTE PTR [rdi+rbx+120], 0

; 106  : 
; 107  :     if (Py_PXCTX)

  00115	e8 00 00 00 00	 call	 _Py_PXCTX
  0011a	85 c0		 test	 eax, eax
  0011c	75 29		 jne	 SHORT $end$20339

; 108  :         goto end;
; 109  : 
; 110  :     /* share short strings */
; 111  :     if (size == 0) {

  0011e	48 85 db	 test	 rbx, rbx
  00121	75 09		 jne	 SHORT $LN3@PyBytes_Fr

; 112  :         nullstring = op;

  00123	48 89 3d 00 00
	00 00		 mov	 QWORD PTR nullstring, rdi

; 113  :         Py_INCREF(op);

  0012a	eb 13		 jmp	 SHORT $LN25@PyBytes_Fr
$LN3@PyBytes_Fr:

; 114  :     } else if (size == 1 && str != NULL) {

  0012c	48 83 fb 01	 cmp	 rbx, 1
  00130	75 15		 jne	 SHORT $end$20339
  00132	48 85 f6	 test	 rsi, rsi
  00135	74 10		 je	 SHORT $end$20339

; 115  :         characters[*str & UCHAR_MAX] = op;

  00137	0f b6 06	 movzx	 eax, BYTE PTR [rsi]
  0013a	48 89 7c c5 00	 mov	 QWORD PTR [rbp+rax*8], rdi
$LN25@PyBytes_Fr:

; 116  :         Py_INCREF(op);

  0013f	48 8b cf	 mov	 rcx, rdi
  00142	e8 00 00 00 00	 call	 _Py_IncRef
$end$20339:

; 117  :     }
; 118  : end:
; 119  :     return (PyObject *) op;

  00147	48 8b c7	 mov	 rax, rdi
$LN24@PyBytes_Fr:
  0014a	48 8b 6c 24 30	 mov	 rbp, QWORD PTR [rsp+48]
  0014f	48 8b 7c 24 38	 mov	 rdi, QWORD PTR [rsp+56]

; 120  : }

  00154	48 8b 5c 24 40	 mov	 rbx, QWORD PTR [rsp+64]
  00159	48 83 c4 20	 add	 rsp, 32			; 00000020H
  0015d	5e		 pop	 rsi
  0015e	c3		 ret	 0
PyBytes_FromStringAndSize ENDP
_TEXT	ENDS
PUBLIC	??_C@_0BI@CPOCIEOB@byte?5string?5is?5too?5long?$AA@ ; `string'
PUBLIC	PyBytes_FromString
;	COMDAT pdata
; File c:\src\pyparallel\include\object.h
pdata	SEGMENT
$pdata$PyBytes_FromString DD imagerel $LN35
	DD	imagerel $LN35+376
	DD	imagerel $unwind$PyBytes_FromString
pdata	ENDS
;	COMDAT xdata
xdata	SEGMENT
$unwind$PyBytes_FromString DD 085f01H
	DD	08545fH
	DD	0a640fH
	DD	09340fH
	DD	0700b520fH
xdata	ENDS
;	COMDAT ??_C@_0BI@CPOCIEOB@byte?5string?5is?5too?5long?$AA@
CONST	SEGMENT
??_C@_0BI@CPOCIEOB@byte?5string?5is?5too?5long?$AA@ DB 'byte string is to'
	DB	'o long', 00H				; `string'
; Function compile flags: /Ogtpy
; File c:\src\pyparallel\objects\bytesobject.c
CONST	ENDS
;	COMDAT PyBytes_FromString
_TEXT	SEGMENT
str$ = 64
PyBytes_FromString PROC					; COMDAT

; 124  : {

$LN35:
  00000	48 89 5c 24 10	 mov	 QWORD PTR [rsp+16], rbx
  00005	48 89 74 24 18	 mov	 QWORD PTR [rsp+24], rsi
  0000a	57		 push	 rdi
  0000b	48 83 ec 30	 sub	 rsp, 48			; 00000030H
  0000f	48 8b f1	 mov	 rsi, rcx

; 125  :     register size_t size;
; 126  :     register PyBytesObject *op;
; 127  : 
; 128  :     assert(str != NULL);
; 129  :     size = strlen(str);

  00012	48 83 c9 ff	 or	 rcx, -1
  00016	33 c0		 xor	 eax, eax
  00018	48 8b fe	 mov	 rdi, rsi
  0001b	f2 ae		 repne scasb

; 130  :     if (size > PY_SSIZE_T_MAX - PyBytesObject_SIZE) {

  0001d	48 b8 86 ff ff
	ff ff ff ff 7f	 mov	 rax, 9223372036854775686 ; 7fffffffffffff86H
  00027	48 f7 d1	 not	 rcx
  0002a	48 ff c9	 dec	 rcx
  0002d	48 8b d9	 mov	 rbx, rcx
  00030	48 3b c8	 cmp	 rcx, rax
  00033	76 25		 jbe	 SHORT $LN16@PyBytes_Fr@2

; 131  :         PyErr_SetString(PyExc_OverflowError,
; 132  :             "byte string is too long");

  00035	48 8b 0d 00 00
	00 00		 mov	 rcx, QWORD PTR PyExc_OverflowError
  0003c	48 8d 15 00 00
	00 00		 lea	 rdx, OFFSET FLAT:??_C@_0BI@CPOCIEOB@byte?5string?5is?5too?5long?$AA@
  00043	e8 00 00 00 00	 call	 PyErr_SetString

; 133  :         return NULL;

  00048	33 c0		 xor	 eax, eax

; 171  : }

  0004a	48 8b 5c 24 48	 mov	 rbx, QWORD PTR [rsp+72]
  0004f	48 8b 74 24 50	 mov	 rsi, QWORD PTR [rsp+80]
  00054	48 83 c4 30	 add	 rsp, 48			; 00000030H
  00058	5f		 pop	 rdi
  00059	c3		 ret	 0
$LN16@PyBytes_Fr@2:
  0005a	48 89 6c 24 40	 mov	 QWORD PTR [rsp+64], rbp

; 134  :     }
; 135  :     if (size == 0 && (op = nullstring) != NULL) {

  0005f	48 8d 2d 00 00
	00 00		 lea	 rbp, OFFSET FLAT:characters
  00066	48 85 c9	 test	 rcx, rcx
  00069	75 19		 jne	 SHORT $LN15@PyBytes_Fr@2
  0006b	48 8b 3d 00 00
	00 00		 mov	 rdi, QWORD PTR nullstring
$LN34@PyBytes_Fr@2:
  00072	48 85 ff	 test	 rdi, rdi
  00075	74 1d		 je	 SHORT $LN14@PyBytes_Fr@2

; 136  : #ifdef COUNT_ALLOCS
; 137  :         null_strings++;
; 138  : #endif
; 139  :         Py_INCREF(op);

  00077	48 8b cf	 mov	 rcx, rdi
  0007a	e8 00 00 00 00	 call	 _Py_IncRef

; 140  :         return (PyObject *)op;

  0007f	e9 dc 00 00 00	 jmp	 $end$20391
$LN15@PyBytes_Fr@2:

; 141  :     }
; 142  :     if (size == 1 && (op = characters[*str & UCHAR_MAX]) != NULL) {

  00084	48 83 f9 01	 cmp	 rcx, 1
  00088	75 0a		 jne	 SHORT $LN14@PyBytes_Fr@2
  0008a	0f b6 06	 movzx	 eax, BYTE PTR [rsi]
  0008d	48 8b 7c c5 00	 mov	 rdi, QWORD PTR [rbp+rax*8]

; 143  : #ifdef COUNT_ALLOCS
; 144  :         one_strings++;
; 145  : #endif
; 146  :         Py_INCREF(op);
; 147  :         return (PyObject *)op;

  00092	eb de		 jmp	 SHORT $LN34@PyBytes_Fr@2
$LN14@PyBytes_Fr@2:

; 148  :     }
; 149  : 
; 150  :     /* Inline PyObject_NewVar */
; 151  :     op = (PyBytesObject *)PyObject_MALLOC(PyBytesObject_SIZE + size);

  00094	48 83 c1 79	 add	 rcx, 121		; 00000079H
  00098	e8 00 00 00 00	 call	 PyObject_Malloc
  0009d	48 8b f8	 mov	 rdi, rax

; 152  :     if (op == NULL)

  000a0	48 85 c0	 test	 rax, rax
  000a3	75 0a		 jne	 SHORT $LN13@PyBytes_Fr@2

; 153  :         return PyErr_NoMemory();

  000a5	e8 00 00 00 00	 call	 PyErr_NoMemory
  000aa	e9 b4 00 00 00	 jmp	 $LN29@PyBytes_Fr@2
$LN13@PyBytes_Fr@2:

; 154  :     PyObject_INIT_VAR((PyVarObject *)op, &PyBytes_Type, size);

  000af	48 8d 15 00 00
	00 00		 lea	 rdx, OFFSET FLAT:PyBytes_Type
  000b6	4c 8b c3	 mov	 r8, rbx
  000b9	48 8b c8	 mov	 rcx, rax
  000bc	e8 00 00 00 00	 call	 PyObject_INIT_VAR

; 155  :     op->ob_shash = -1;
; 156  :     Py_MEMCPY(op->ob_sval, str, size+1);

  000c1	48 8d 53 01	 lea	 rdx, QWORD PTR [rbx+1]
  000c5	48 c7 47 70 ff
	ff ff ff	 mov	 QWORD PTR [rdi+112], -1
  000cd	48 8d 4f 78	 lea	 rcx, QWORD PTR [rdi+120]
  000d1	48 83 fa 10	 cmp	 rdx, 16
  000d5	72 0d		 jb	 SHORT $LN9@PyBytes_Fr@2
  000d7	4c 8b c2	 mov	 r8, rdx
  000da	48 8b d6	 mov	 rdx, rsi
  000dd	e8 00 00 00 00	 call	 memcpy
  000e2	eb 1c		 jmp	 SHORT $LN11@PyBytes_Fr@2
$LN9@PyBytes_Fr@2:
  000e4	48 85 d2	 test	 rdx, rdx
  000e7	74 17		 je	 SHORT $LN11@PyBytes_Fr@2
  000e9	4c 8b c6	 mov	 r8, rsi
  000ec	4c 2b c1	 sub	 r8, rcx
  000ef	90		 npad	 1
$LL7@PyBytes_Fr@2:
  000f0	41 0f b6 04 08	 movzx	 eax, BYTE PTR [r8+rcx]
  000f5	48 ff c1	 inc	 rcx
  000f8	48 ff ca	 dec	 rdx
  000fb	88 41 ff	 mov	 BYTE PTR [rcx-1], al
  000fe	75 f0		 jne	 SHORT $LL7@PyBytes_Fr@2
$LN11@PyBytes_Fr@2:

; 157  : 
; 158  :     if (Py_PXCTX)

  00100	e8 00 00 00 00	 call	 _Py_PXCTX
  00105	85 c0		 test	 eax, eax
  00107	75 57		 jne	 SHORT $end$20391

; 159  :         goto end;
; 160  : 
; 161  :     /* share short strings */
; 162  :     if (size == 0) {

  00109	48 85 db	 test	 rbx, rbx
  0010c	75 09		 jne	 SHORT $LN3@PyBytes_Fr@2

; 163  :         nullstring = op;

  0010e	48 89 3d 00 00
	00 00		 mov	 QWORD PTR nullstring, rdi

; 164  :         Py_INCREF(op);

  00115	eb 0e		 jmp	 SHORT $LN33@PyBytes_Fr@2
$LN3@PyBytes_Fr@2:

; 165  :     } else if (size == 1) {

  00117	48 83 fb 01	 cmp	 rbx, 1
  0011b	75 43		 jne	 SHORT $end$20391

; 166  :         characters[*str & UCHAR_MAX] = op;

  0011d	0f b6 06	 movzx	 eax, BYTE PTR [rsi]
  00120	48 89 7c c5 00	 mov	 QWORD PTR [rbp+rax*8], rdi
$LN33@PyBytes_Fr@2:

; 167  :         Py_INCREF(op);

  00125	e8 00 00 00 00	 call	 _Py_PXCTX
  0012a	85 c0		 test	 eax, eax
  0012c	75 32		 jne	 SHORT $end$20391
  0012e	48 8d 15 00 00
	00 00		 lea	 rdx, OFFSET FLAT:??_C@_0CD@HDJFDCDP@c?3?2src?2pyparallel?2include?2object@
  00135	48 8d 0d 00 00
	00 00		 lea	 rcx, OFFSET FLAT:??_C@_0L@DHGMCEID@_Py_IncRef?$AA@
  0013c	4c 8b cf	 mov	 r9, rdi
  0013f	41 b8 89 03 00
	00		 mov	 r8d, 905		; 00000389H
  00145	c7 44 24 20 02
	00 00 00	 mov	 DWORD PTR [rsp+32], 2
  0014d	e8 00 00 00 00	 call	 _PyParallel_Guard
  00152	85 c0		 test	 eax, eax
  00154	75 06		 jne	 SHORT $LN23@PyBytes_Fr@2
  00156	f6 47 20 20	 test	 BYTE PTR [rdi+32], 32	; 00000020H
  0015a	74 04		 je	 SHORT $end$20391
$LN23@PyBytes_Fr@2:
  0015c	48 ff 47 50	 inc	 QWORD PTR [rdi+80]
$end$20391:

; 168  :     }
; 169  : end:
; 170  :     return (PyObject *) op;

  00160	48 8b c7	 mov	 rax, rdi
$LN29@PyBytes_Fr@2:
  00163	48 8b 6c 24 40	 mov	 rbp, QWORD PTR [rsp+64]

; 171  : }

  00168	48 8b 5c 24 48	 mov	 rbx, QWORD PTR [rsp+72]
  0016d	48 8b 74 24 50	 mov	 rsi, QWORD PTR [rsp+80]
  00172	48 83 c4 30	 add	 rsp, 48			; 00000030H
  00176	5f		 pop	 rdi
  00177	c3		 ret	 0
PyBytes_FromString ENDP
; Function compile flags: /Ogtpy
_TEXT	ENDS
;	COMDAT bytes_dealloc
_TEXT	SEGMENT
op$ = 8
bytes_dealloc PROC					; COMDAT

; 381  :     Py_TYPE(op)->tp_free(op);

  00000	48 8b 41 58	 mov	 rax, QWORD PTR [rcx+88]

; 382  : }

  00004	48 ff a0 98 01
	00 00		 rex_jmp QWORD PTR [rax+408]
bytes_dealloc ENDP
_TEXT	ENDS
PUBLIC	??_C@_0BN@KABNEBGK@expected?5bytes?0?5?$CF?4200s?5found?$AA@ ; `string'
PUBLIC	PyBytes_Size
;	COMDAT pdata
pdata	SEGMENT
$pdata$PyBytes_Size DD imagerel $LN4
	DD	imagerel $LN4+62
	DD	imagerel $unwind$PyBytes_Size
pdata	ENDS
;	COMDAT xdata
xdata	SEGMENT
$unwind$PyBytes_Size DD 010401H
	DD	04204H
xdata	ENDS
;	COMDAT ??_C@_0BN@KABNEBGK@expected?5bytes?0?5?$CF?4200s?5found?$AA@
CONST	SEGMENT
??_C@_0BN@KABNEBGK@expected?5bytes?0?5?$CF?4200s?5found?$AA@ DB 'expected'
	DB	' bytes, %.200s found', 00H			; `string'
; Function compile flags: /Ogtpy
CONST	ENDS
;	COMDAT PyBytes_Size
_TEXT	SEGMENT
op$ = 48
PyBytes_Size PROC					; COMDAT

; 531  : {

$LN4:
  00000	48 83 ec 28	 sub	 rsp, 40			; 00000028H

; 532  :     if (!PyBytes_Check(op)) {

  00004	4c 8b 41 58	 mov	 r8, QWORD PTR [rcx+88]
  00008	41 f7 80 00 01
	00 00 00 00 00
	08		 test	 DWORD PTR [r8+256], 134217728 ; 08000000H
  00013	75 20		 jne	 SHORT $LN1@PyBytes_Si

; 533  :         PyErr_Format(PyExc_TypeError,
; 534  :              "expected bytes, %.200s found", Py_TYPE(op)->tp_name);

  00015	4d 8b 40 70	 mov	 r8, QWORD PTR [r8+112]
  00019	48 8b 0d 00 00
	00 00		 mov	 rcx, QWORD PTR PyExc_TypeError
  00020	48 8d 15 00 00
	00 00		 lea	 rdx, OFFSET FLAT:??_C@_0BN@KABNEBGK@expected?5bytes?0?5?$CF?4200s?5found?$AA@
  00027	e8 00 00 00 00	 call	 PyErr_Format

; 535  :         return -1;

  0002c	48 83 c8 ff	 or	 rax, -1

; 538  : }

  00030	48 83 c4 28	 add	 rsp, 40			; 00000028H
  00034	c3		 ret	 0
$LN1@PyBytes_Si:

; 536  :     }
; 537  :     return Py_SIZE(op);

  00035	48 8b 41 60	 mov	 rax, QWORD PTR [rcx+96]

; 538  : }

  00039	48 83 c4 28	 add	 rsp, 40			; 00000028H
  0003d	c3		 ret	 0
PyBytes_Size ENDP
_TEXT	ENDS
PUBLIC	PyBytes_AsString
;	COMDAT pdata
pdata	SEGMENT
$pdata$PyBytes_AsString DD imagerel $LN4
	DD	imagerel $LN4+60
	DD	imagerel $unwind$PyBytes_AsString
pdata	ENDS
;	COMDAT xdata
xdata	SEGMENT
$unwind$PyBytes_AsString DD 010401H
	DD	04204H
; Function compile flags: /Ogtpy
xdata	ENDS
;	COMDAT PyBytes_AsString
_TEXT	SEGMENT
op$ = 48
PyBytes_AsString PROC					; COMDAT

; 542  : {

$LN4:
  00000	48 83 ec 28	 sub	 rsp, 40			; 00000028H

; 543  :     if (!PyBytes_Check(op)) {

  00004	4c 8b 41 58	 mov	 r8, QWORD PTR [rcx+88]
  00008	41 f7 80 00 01
	00 00 00 00 00
	08		 test	 DWORD PTR [r8+256], 134217728 ; 08000000H
  00013	75 1e		 jne	 SHORT $LN1@PyBytes_As

; 544  :         PyErr_Format(PyExc_TypeError,
; 545  :              "expected bytes, %.200s found", Py_TYPE(op)->tp_name);

  00015	4d 8b 40 70	 mov	 r8, QWORD PTR [r8+112]
  00019	48 8b 0d 00 00
	00 00		 mov	 rcx, QWORD PTR PyExc_TypeError
  00020	48 8d 15 00 00
	00 00		 lea	 rdx, OFFSET FLAT:??_C@_0BN@KABNEBGK@expected?5bytes?0?5?$CF?4200s?5found?$AA@
  00027	e8 00 00 00 00	 call	 PyErr_Format

; 546  :         return NULL;

  0002c	33 c0		 xor	 eax, eax

; 549  : }

  0002e	48 83 c4 28	 add	 rsp, 40			; 00000028H
  00032	c3		 ret	 0
$LN1@PyBytes_As:

; 547  :     }
; 548  :     return ((PyBytesObject *)op)->ob_sval;

  00033	48 8d 41 78	 lea	 rax, QWORD PTR [rcx+120]

; 549  : }

  00037	48 83 c4 28	 add	 rsp, 40			; 00000028H
  0003b	c3		 ret	 0
PyBytes_AsString ENDP
_TEXT	ENDS
PUBLIC	??_C@_0BM@GADJCNIN@expected?5bytes?5with?5no?5null?$AA@ ; `string'
PUBLIC	??_C@_0BJ@IJCMIAIO@?4?4?2Objects?2bytesobject?4c?$AA@ ; `string'
PUBLIC	PyBytes_AsStringAndSize
EXTRN	_PyErr_BadInternalCall:PROC
;	COMDAT pdata
pdata	SEGMENT
$pdata$PyBytes_AsStringAndSize DD imagerel $LN9
	DD	imagerel $LN9+84
	DD	imagerel $unwind$PyBytes_AsStringAndSize
pdata	ENDS
;	COMDAT pdata
pdata	SEGMENT
$pdata$0$PyBytes_AsStringAndSize DD imagerel $LN9+84
	DD	imagerel $LN9+120
	DD	imagerel $chain$0$PyBytes_AsStringAndSize
pdata	ENDS
;	COMDAT pdata
pdata	SEGMENT
$pdata$2$PyBytes_AsStringAndSize DD imagerel $LN9+120
	DD	imagerel $LN9+172
	DD	imagerel $chain$2$PyBytes_AsStringAndSize
pdata	ENDS
;	COMDAT xdata
xdata	SEGMENT
$chain$2$PyBytes_AsStringAndSize DD 020021H
	DD	047400H
	DD	imagerel $LN9
	DD	imagerel $LN9+84
	DD	imagerel $unwind$PyBytes_AsStringAndSize
xdata	ENDS
;	COMDAT xdata
xdata	SEGMENT
$chain$0$PyBytes_AsStringAndSize DD 020521H
	DD	047405H
	DD	imagerel $LN9
	DD	imagerel $LN9+84
	DD	imagerel $unwind$PyBytes_AsStringAndSize
xdata	ENDS
;	COMDAT xdata
xdata	SEGMENT
$unwind$PyBytes_AsStringAndSize DD 010401H
	DD	04204H
xdata	ENDS
;	COMDAT ??_C@_0BM@GADJCNIN@expected?5bytes?5with?5no?5null?$AA@
CONST	SEGMENT
??_C@_0BM@GADJCNIN@expected?5bytes?5with?5no?5null?$AA@ DB 'expected byte'
	DB	's with no null', 00H			; `string'
CONST	ENDS
;	COMDAT ??_C@_0BJ@IJCMIAIO@?4?4?2Objects?2bytesobject?4c?$AA@
CONST	SEGMENT
??_C@_0BJ@IJCMIAIO@?4?4?2Objects?2bytesobject?4c?$AA@ DB '..\Objects\byte'
	DB	'sobject.c', 00H				; `string'
; Function compile flags: /Ogtpy
CONST	ENDS
;	COMDAT PyBytes_AsStringAndSize
_TEXT	SEGMENT
obj$ = 48
s$ = 56
len$ = 64
PyBytes_AsStringAndSize PROC				; COMDAT

; 555  : {

$LN9:
  00000	48 83 ec 28	 sub	 rsp, 40			; 00000028H
  00004	4c 8b c9	 mov	 r9, rcx

; 556  :     if (s == NULL) {

  00007	48 85 d2	 test	 rdx, rdx
  0000a	75 19		 jne	 SHORT $LN5@PyBytes_As@2

; 557  :         PyErr_BadInternalCall();

  0000c	48 8d 0d 00 00
	00 00		 lea	 rcx, OFFSET FLAT:??_C@_0BJ@IJCMIAIO@?4?4?2Objects?2bytesobject?4c?$AA@
  00013	ba 2d 02 00 00	 mov	 edx, 557		; 0000022dH
  00018	e8 00 00 00 00	 call	 _PyErr_BadInternalCall

; 558  :         return -1;

  0001d	83 c8 ff	 or	 eax, -1

; 576  : }

  00020	48 83 c4 28	 add	 rsp, 40			; 00000028H
  00024	c3		 ret	 0
$LN5@PyBytes_As@2:

; 559  :     }
; 560  : 
; 561  :     if (!PyBytes_Check(obj)) {

  00025	48 8b 41 58	 mov	 rax, QWORD PTR [rcx+88]
  00029	f7 80 00 01 00
	00 00 00 00 08	 test	 DWORD PTR [rax+256], 134217728 ; 08000000H
  00033	75 1f		 jne	 SHORT $LN4@PyBytes_As@2

; 562  :         PyErr_Format(PyExc_TypeError,
; 563  :              "expected bytes, %.200s found", Py_TYPE(obj)->tp_name);

  00035	4c 8b 40 70	 mov	 r8, QWORD PTR [rax+112]
  00039	48 8b 0d 00 00
	00 00		 mov	 rcx, QWORD PTR PyExc_TypeError
  00040	48 8d 15 00 00
	00 00		 lea	 rdx, OFFSET FLAT:??_C@_0BN@KABNEBGK@expected?5bytes?0?5?$CF?4200s?5found?$AA@
  00047	e8 00 00 00 00	 call	 PyErr_Format

; 564  :         return -1;

  0004c	83 c8 ff	 or	 eax, -1

; 576  : }

  0004f	48 83 c4 28	 add	 rsp, 40			; 00000028H
  00053	c3		 ret	 0
$LN4@PyBytes_As@2:
  00054	48 89 7c 24 20	 mov	 QWORD PTR [rsp+32], rdi

; 565  :     }
; 566  : 
; 567  :     *s = PyBytes_AS_STRING(obj);

  00059	48 8d 79 78	 lea	 rdi, QWORD PTR [rcx+120]
  0005d	48 89 3a	 mov	 QWORD PTR [rdx], rdi

; 568  :     if (len != NULL)

  00060	4d 85 c0	 test	 r8, r8
  00063	74 13		 je	 SHORT $LN3@PyBytes_As@2

; 569  :         *len = PyBytes_GET_SIZE(obj);

  00065	48 8b 41 60	 mov	 rax, QWORD PTR [rcx+96]
  00069	49 89 00	 mov	 QWORD PTR [r8], rax
$LN1@PyBytes_As@2:

; 574  :     }
; 575  :     return 0;

  0006c	33 c0		 xor	 eax, eax
  0006e	48 8b 7c 24 20	 mov	 rdi, QWORD PTR [rsp+32]

; 576  : }

  00073	48 83 c4 28	 add	 rsp, 40			; 00000028H
  00077	c3		 ret	 0
$LN3@PyBytes_As@2:

; 570  :     else if (strlen(*s) != (size_t)PyBytes_GET_SIZE(obj)) {

  00078	48 83 c9 ff	 or	 rcx, -1
  0007c	33 c0		 xor	 eax, eax
  0007e	f2 ae		 repne scasb
  00080	48 f7 d1	 not	 rcx
  00083	48 ff c9	 dec	 rcx
  00086	49 3b 49 60	 cmp	 rcx, QWORD PTR [r9+96]
  0008a	74 e0		 je	 SHORT $LN1@PyBytes_As@2

; 571  :         PyErr_SetString(PyExc_TypeError,
; 572  :                         "expected bytes with no null");

  0008c	48 8b 0d 00 00
	00 00		 mov	 rcx, QWORD PTR PyExc_TypeError
  00093	48 8d 15 00 00
	00 00		 lea	 rdx, OFFSET FLAT:??_C@_0BM@GADJCNIN@expected?5bytes?5with?5no?5null?$AA@
  0009a	e8 00 00 00 00	 call	 PyErr_SetString
  0009f	48 8b 7c 24 20	 mov	 rdi, QWORD PTR [rsp+32]

; 573  :         return -1;

  000a4	83 c8 ff	 or	 eax, -1

; 576  : }

  000a7	48 83 c4 28	 add	 rsp, 40			; 00000028H
  000ab	c3		 ret	 0
PyBytes_AsStringAndSize ENDP
_TEXT	ENDS
EXTRN	__imp_memchr:PROC
;	COMDAT pdata
; File c:\src\pyparallel\objects\stringlib\fastsearch.h
pdata	SEGMENT
$pdata$stringlib_fastsearch_memchr_1char DD imagerel stringlib_fastsearch_memchr_1char
	DD	imagerel stringlib_fastsearch_memchr_1char+72
	DD	imagerel $unwind$stringlib_fastsearch_memchr_1char
pdata	ENDS
;	COMDAT xdata
xdata	SEGMENT
$unwind$stringlib_fastsearch_memchr_1char DD 020601H
	DD	030023206H
; Function compile flags: /Ogtpy
xdata	ENDS
;	COMDAT stringlib_fastsearch_memchr_1char
_TEXT	SEGMENT
s$ = 48
n$ = 56
needle$ = 64
mode$ = 72
stringlib_fastsearch_memchr_1char PROC			; COMDAT

; 40   : {

  00000	40 53		 push	 rbx
  00002	48 83 ec 20	 sub	 rsp, 32			; 00000020H
  00006	41 0f b6 c0	 movzx	 eax, r8b
  0000a	48 8b d9	 mov	 rbx, rcx

; 41   :     if (mode == FAST_SEARCH) {

  0000d	41 83 f9 01	 cmp	 r9d, 1
  00011	75 2d		 jne	 SHORT $LN6@stringlib_

; 42   :         const STRINGLIB_CHAR *ptr = s;
; 43   :         const STRINGLIB_CHAR *e = s + n;

  00013	4c 8d 04 11	 lea	 r8, QWORD PTR [rcx+rdx]

; 44   :         while (ptr < e) {

  00017	49 3b c8	 cmp	 rcx, r8
  0001a	73 11		 jae	 SHORT $LN4@stringlib_

; 45   :             void *candidate = memchr((const void *) ptr, needle, (e - ptr) * sizeof(STRINGLIB_CHAR));

  0001c	4c 2b c1	 sub	 r8, rcx
  0001f	0f b6 d0	 movzx	 edx, al
  00022	ff 15 00 00 00
	00		 call	 QWORD PTR __imp_memchr

; 46   :             if (candidate == NULL)

  00028	48 85 c0	 test	 rax, rax
  0002b	75 0a		 jne	 SHORT $LN3@stringlib_
$LN4@stringlib_:

; 47   :                 return -1;

  0002d	48 83 c8 ff	 or	 rax, -1

; 78   :     }
; 79   : 
; 80   : #undef DO_MEMCHR
; 81   : }

  00031	48 83 c4 20	 add	 rsp, 32			; 00000020H
  00035	5b		 pop	 rbx
  00036	c3		 ret	 0
$LN3@stringlib_:

; 48   :             ptr = (const STRINGLIB_CHAR *) _Py_ALIGN_DOWN(candidate, sizeof(STRINGLIB_CHAR));
; 49   :             if (sizeof(STRINGLIB_CHAR) == 1 || *ptr == ch)
; 50   :                 return (ptr - s);

  00037	48 2b c3	 sub	 rax, rbx

; 78   :     }
; 79   : 
; 80   : #undef DO_MEMCHR
; 81   : }

  0003a	48 83 c4 20	 add	 rsp, 32			; 00000020H
  0003e	5b		 pop	 rbx
  0003f	c3		 ret	 0
$LN6@stringlib_:

; 51   :             /* False positive */
; 52   :             ptr++;
; 53   :         }
; 54   :         return -1;
; 55   :     }
; 56   : #ifdef HAVE_MEMRCHR
; 57   :     /* memrchr() is a GNU extension, available since glibc 2.1.91.
; 58   :        it doesn't seem as optimized as memchr(), but is still quite
; 59   :        faster than our hand-written loop in FASTSEARCH below */
; 60   :     else if (mode == FAST_RSEARCH) {
; 61   :         while (n > 0) {
; 62   :             const STRINGLIB_CHAR *found;
; 63   :             void *candidate = memrchr((const void *) s, needle, n * sizeof(STRINGLIB_CHAR));
; 64   :             if (candidate == NULL)
; 65   :                 return -1;
; 66   :             found = (const STRINGLIB_CHAR *) _Py_ALIGN_DOWN(candidate, sizeof(STRINGLIB_CHAR));
; 67   :             n = found - s;
; 68   :             if (sizeof(STRINGLIB_CHAR) == 1 || *found == ch)
; 69   :                 return n;
; 70   :             /* False positive */
; 71   :         }
; 72   :         return -1;
; 73   :     }
; 74   : #endif
; 75   :     else {
; 76   :         assert(0); /* Should never get here */
; 77   :         return 0;

  00040	33 c0		 xor	 eax, eax

; 78   :     }
; 79   : 
; 80   : #undef DO_MEMCHR
; 81   : }

  00042	48 83 c4 20	 add	 rsp, 32			; 00000020H
  00046	5b		 pop	 rbx
  00047	c3		 ret	 0
stringlib_fastsearch_memchr_1char ENDP
_TEXT	ENDS
;	COMDAT pdata
pdata	SEGMENT
$pdata$fastsearch DD imagerel fastsearch
	DD	imagerel fastsearch+346
	DD	imagerel $unwind$fastsearch
pdata	ENDS
;	COMDAT pdata
pdata	SEGMENT
$pdata$2$fastsearch DD imagerel fastsearch+346
	DD	imagerel fastsearch+977
	DD	imagerel $chain$2$fastsearch
pdata	ENDS
;	COMDAT pdata
pdata	SEGMENT
$pdata$3$fastsearch DD imagerel fastsearch+977
	DD	imagerel fastsearch+991
	DD	imagerel $chain$3$fastsearch
pdata	ENDS
;	COMDAT pdata
pdata	SEGMENT
$pdata$4$fastsearch DD imagerel fastsearch+991
	DD	imagerel fastsearch+996
	DD	imagerel $chain$4$fastsearch
pdata	ENDS
;	COMDAT xdata
xdata	SEGMENT
$chain$4$fastsearch DD 060021H
	DD	067400H
	DD	076400H
	DD	0e5400H
	DD	imagerel fastsearch
	DD	imagerel fastsearch+346
	DD	imagerel $unwind$fastsearch
xdata	ENDS
;	COMDAT xdata
xdata	SEGMENT
$chain$3$fastsearch DD 021H
	DD	imagerel fastsearch
	DD	imagerel fastsearch+346
	DD	imagerel $unwind$fastsearch
xdata	ENDS
;	COMDAT xdata
xdata	SEGMENT
$chain$2$fastsearch DD 061321H
	DD	067413H
	DD	07640aH
	DD	0e5405H
	DD	imagerel fastsearch
	DD	imagerel fastsearch+346
	DD	imagerel $unwind$fastsearch
xdata	ENDS
;	COMDAT xdata
xdata	SEGMENT
$unwind$fastsearch DD 061201H
	DD	0f00e7212H
	DD	0d00ae00cH
	DD	03006c008H
; Function compile flags: /Ogtpy
xdata	ENDS
;	COMDAT fastsearch
_TEXT	SEGMENT
s$ = 112
mask$1$ = 120
n$ = 120
p$ = 128
skip$1$ = 136
m$ = 136
maxcount$ = 144
mode$ = 152
fastsearch PROC						; COMDAT

; 87   : {

  00000	4c 89 44 24 18	 mov	 QWORD PTR [rsp+24], r8
  00005	53		 push	 rbx
  00006	41 54		 push	 r12
  00008	41 55		 push	 r13
  0000a	41 56		 push	 r14
  0000c	41 57		 push	 r15
  0000e	48 83 ec 40	 sub	 rsp, 64			; 00000040H
  00012	4d 8b e9	 mov	 r13, r9

; 88   :     unsigned long mask;
; 89   :     Py_ssize_t skip, count = 0;

  00015	45 33 db	 xor	 r11d, r11d

; 90   :     Py_ssize_t i, j, mlast, w;
; 91   : 
; 92   :     w = n - m;

  00018	4c 8b d2	 mov	 r10, rdx
  0001b	4d 2b d5	 sub	 r10, r13
  0001e	4d 8b f8	 mov	 r15, r8
  00021	48 8b d9	 mov	 rbx, rcx
  00024	45 8b cb	 mov	 r9d, r11d

; 93   : 
; 94   :     if (w < 0 || (mode == FAST_COUNT && maxcount == 0))

  00027	0f 88 1b 01 00
	00		 js	 $LN41@fastsearch
  0002d	44 8b b4 24 98
	00 00 00	 mov	 r14d, DWORD PTR mode$[rsp]
  00035	4c 8b a4 24 90
	00 00 00	 mov	 r12, QWORD PTR maxcount$[rsp]
  0003d	45 85 f6	 test	 r14d, r14d
  00040	75 09		 jne	 SHORT $LN61@fastsearch
  00042	4d 85 e4	 test	 r12, r12
  00045	0f 84 fd 00 00
	00		 je	 $LN41@fastsearch
$LN61@fastsearch:

; 95   :         return -1;
; 96   : 
; 97   :     /* look for special cases */
; 98   :     if (m <= 1) {

  0004b	49 83 fd 01	 cmp	 r13, 1
  0004f	0f 8f 05 01 00
	00		 jg	 $LN59@fastsearch

; 99   :         if (m <= 0)

  00055	4d 85 ed	 test	 r13, r13

; 100  :             return -1;

  00058	0f 8e ea 00 00
	00		 jle	 $LN41@fastsearch

; 101  :         /* use special case for 1-character strings */
; 102  :         if (n > 10 && (mode == FAST_SEARCH
; 103  : #ifdef HAVE_MEMRCHR
; 104  :                     || mode == FAST_RSEARCH
; 105  : #endif
; 106  :                     )) {

  0005e	48 83 fa 0a	 cmp	 rdx, 10
  00062	7e 3a		 jle	 SHORT $LN57@fastsearch
  00064	41 83 fe 01	 cmp	 r14d, 1
  00068	75 34		 jne	 SHORT $LN57@fastsearch

; 107  :             /* use memchr if we can choose a needle without two many likely
; 108  :                false positives */
; 109  :             unsigned char needle;
; 110  :             needle = p[0] & 0xff;
; 111  : #if STRINGLIB_SIZEOF_CHAR > 1
; 112  :             /* If looking for a multiple of 256, we'd have too
; 113  :                many false positives looking for the '\0' byte in UCS2
; 114  :                and UCS4 representations. */
; 115  :             if (needle != 0)
; 116  : #endif
; 117  :                 return STRINGLIB(fastsearch_memchr_1char)
; 118  :                        (s, n, p[0], needle, maxcount, mode);

  0006a	4c 8d 04 11	 lea	 r8, QWORD PTR [rcx+rdx]
  0006e	49 3b c8	 cmp	 rcx, r8
  00071	0f 83 d1 00 00
	00		 jae	 $LN41@fastsearch
  00077	41 0f b6 17	 movzx	 edx, BYTE PTR [r15]
  0007b	4c 2b c1	 sub	 r8, rcx
  0007e	ff 15 00 00 00
	00		 call	 QWORD PTR __imp_memchr
  00084	48 85 c0	 test	 rax, rax
  00087	0f 84 bb 00 00
	00		 je	 $LN41@fastsearch
  0008d	48 2b c3	 sub	 rax, rbx

; 223  : }

  00090	48 83 c4 40	 add	 rsp, 64			; 00000040H
  00094	41 5f		 pop	 r15
  00096	41 5e		 pop	 r14
  00098	41 5d		 pop	 r13
  0009a	41 5c		 pop	 r12
  0009c	5b		 pop	 rbx
  0009d	c3		 ret	 0
$LN57@fastsearch:

; 119  :         }
; 120  :         if (mode == FAST_COUNT) {

  0009e	45 85 f6	 test	 r14d, r14d
  000a1	75 45		 jne	 SHORT $LN56@fastsearch

; 121  :             for (i = 0; i < n; i++)

  000a3	48 85 d2	 test	 rdx, rdx
  000a6	7e 1e		 jle	 SHORT $LN99@fastsearch
  000a8	41 0f b6 00	 movzx	 eax, BYTE PTR [r8]
  000ac	0f 1f 40 00	 npad	 4
$LL55@fastsearch:

; 122  :                 if (s[i] == p[0]) {

  000b0	41 38 04 0b	 cmp	 BYTE PTR [r11+rcx], al
  000b4	75 08		 jne	 SHORT $LN54@fastsearch

; 123  :                     count++;

  000b6	49 ff c1	 inc	 r9

; 124  :                     if (count == maxcount)

  000b9	4d 3b cc	 cmp	 r9, r12
  000bc	74 19		 je	 SHORT $LN81@fastsearch
$LN54@fastsearch:

; 121  :             for (i = 0; i < n; i++)

  000be	49 ff c3	 inc	 r11
  000c1	4c 3b da	 cmp	 r11, rdx
  000c4	7c ea		 jl	 SHORT $LL55@fastsearch
$LN99@fastsearch:

; 126  :                 }
; 127  :             return count;

  000c6	49 8b c1	 mov	 rax, r9

; 223  : }

  000c9	48 83 c4 40	 add	 rsp, 64			; 00000040H
  000cd	41 5f		 pop	 r15
  000cf	41 5e		 pop	 r14
  000d1	41 5d		 pop	 r13
  000d3	41 5c		 pop	 r12
  000d5	5b		 pop	 rbx
  000d6	c3		 ret	 0
$LN81@fastsearch:

; 125  :                         return maxcount;

  000d7	49 8b c4	 mov	 rax, r12

; 223  : }

  000da	48 83 c4 40	 add	 rsp, 64			; 00000040H
  000de	41 5f		 pop	 r15
  000e0	41 5e		 pop	 r14
  000e2	41 5d		 pop	 r13
  000e4	41 5c		 pop	 r12
  000e6	5b		 pop	 rbx
  000e7	c3		 ret	 0
$LN56@fastsearch:

; 128  :         } else if (mode == FAST_SEARCH) {

  000e8	41 83 fe 01	 cmp	 r14d, 1
  000ec	75 3a		 jne	 SHORT $LN49@fastsearch

; 129  :             for (i = 0; i < n; i++)

  000ee	48 85 d2	 test	 rdx, rdx
  000f1	7e 55		 jle	 SHORT $LN41@fastsearch
  000f3	41 0f b6 00	 movzx	 eax, BYTE PTR [r8]
$LL48@fastsearch:

; 130  :                 if (s[i] == p[0])

  000f7	41 38 04 0b	 cmp	 BYTE PTR [r11+rcx], al
  000fb	74 1a		 je	 SHORT $LN82@fastsearch

; 129  :             for (i = 0; i < n; i++)

  000fd	49 ff c3	 inc	 r11
  00100	4c 3b da	 cmp	 r11, rdx
  00103	7c f2		 jl	 SHORT $LL48@fastsearch

; 135  :                     return i;
; 136  :         }
; 137  :         return -1;

  00105	48 83 c8 ff	 or	 rax, -1

; 223  : }

  00109	48 83 c4 40	 add	 rsp, 64			; 00000040H
  0010d	41 5f		 pop	 r15
  0010f	41 5e		 pop	 r14
  00111	41 5d		 pop	 r13
  00113	41 5c		 pop	 r12
  00115	5b		 pop	 rbx
  00116	c3		 ret	 0
$LN82@fastsearch:

; 131  :                     return i;

  00117	49 8b c3	 mov	 rax, r11

; 223  : }

  0011a	48 83 c4 40	 add	 rsp, 64			; 00000040H
  0011e	41 5f		 pop	 r15
  00120	41 5e		 pop	 r14
  00122	41 5d		 pop	 r13
  00124	41 5c		 pop	 r12
  00126	5b		 pop	 rbx
  00127	c3		 ret	 0
$LN49@fastsearch:

; 132  :         } else {    /* FAST_RSEARCH */
; 133  :             for (i = n - 1; i > -1; i--)

  00128	48 8d 42 ff	 lea	 rax, QWORD PTR [rdx-1]
  0012c	48 83 f8 ff	 cmp	 rax, -1
  00130	7e 16		 jle	 SHORT $LN41@fastsearch
  00132	41 0f b6 08	 movzx	 ecx, BYTE PTR [r8]
$LL43@fastsearch:

; 134  :                 if (s[i] == p[0])

  00136	38 0c 18	 cmp	 BYTE PTR [rax+rbx], cl
  00139	0f 84 92 02 00
	00		 je	 $LN62@fastsearch

; 132  :         } else {    /* FAST_RSEARCH */
; 133  :             for (i = n - 1; i > -1; i--)

  0013f	48 ff c8	 dec	 rax
  00142	48 83 f8 ff	 cmp	 rax, -1
  00146	7f ee		 jg	 SHORT $LL43@fastsearch
$LN41@fastsearch:

; 135  :                     return i;
; 136  :         }
; 137  :         return -1;

  00148	48 83 c8 ff	 or	 rax, -1

; 223  : }

  0014c	48 83 c4 40	 add	 rsp, 64			; 00000040H
  00150	41 5f		 pop	 r15
  00152	41 5e		 pop	 r14
  00154	41 5d		 pop	 r13
  00156	41 5c		 pop	 r12
  00158	5b		 pop	 rbx
  00159	c3		 ret	 0
$LN59@fastsearch:
  0015a	48 89 6c 24 70	 mov	 QWORD PTR [rsp+112], rbp
  0015f	48 89 74 24 38	 mov	 QWORD PTR [rsp+56], rsi

; 138  :     }
; 139  : 
; 140  :     mlast = m - 1;
; 141  :     skip = mlast - 1;
; 142  :     mask = 0;
; 143  : 
; 144  :     if (mode != FAST_RSEARCH) {

  00164	48 83 cd ff	 or	 rbp, -1
  00168	48 89 7c 24 30	 mov	 QWORD PTR [rsp+48], rdi
  0016d	49 8d 7d ff	 lea	 rdi, QWORD PTR [r13-1]
  00171	45 8b c3	 mov	 r8d, r11d
  00174	48 8d 47 ff	 lea	 rax, QWORD PTR [rdi-1]

; 145  : 
; 146  :         /* create compressed boyer-moore delta 1 table */
; 147  : 
; 148  :         /* process pattern[:-1] */
; 149  :         for (i = 0; i < mlast; i++) {

  00178	8d 75 02	 lea	 esi, QWORD PTR [rbp+2]
  0017b	48 89 84 24 88
	00 00 00	 mov	 QWORD PTR skip$1$[rsp], rax
  00183	41 83 fe 02	 cmp	 r14d, 2
  00187	0f 84 5b 01 00
	00		 je	 $LN39@fastsearch
  0018d	48 85 ff	 test	 rdi, rdi
  00190	7e 75		 jle	 SHORT $LN36@fastsearch
  00192	46 0f b6 3c 3f	 movzx	 r15d, BYTE PTR [rdi+r15]
  00197	48 8b ac 24 80
	00 00 00	 mov	 rbp, QWORD PTR p$[rsp]
  0019f	4c 8d 4f ff	 lea	 r9, QWORD PTR [rdi-1]
  001a3	4c 8b f7	 mov	 r14, rdi
  001a6	4d 8b e1	 mov	 r12, r9
  001a9	41 8b fb	 mov	 edi, r11d
  001ac	0f 1f 40 00	 npad	 4
$LL38@fastsearch:

; 150  :             STRINGLIB_BLOOM_ADD(mask, p[i]);

  001b0	44 0f be 45 00	 movsx	 r8d, BYTE PTR [rbp]
  001b5	8b d6		 mov	 edx, esi
  001b7	41 8b c8	 mov	 ecx, r8d
  001ba	83 e1 1f	 and	 ecx, 31
  001bd	d3 e2		 shl	 edx, cl
  001bf	0b fa		 or	 edi, edx

; 151  :             if (p[i] == p[mlast])

  001c1	45 3a c7	 cmp	 r8b, r15b
  001c4	4d 0f 44 cc	 cmove	 r9, r12
  001c8	48 ff c5	 inc	 rbp
  001cb	49 ff cc	 dec	 r12
  001ce	49 ff ce	 dec	 r14
  001d1	75 dd		 jne	 SHORT $LL38@fastsearch
  001d3	4c 8b a4 24 90
	00 00 00	 mov	 r12, QWORD PTR maxcount$[rsp]
  001db	44 8b b4 24 98
	00 00 00	 mov	 r14d, DWORD PTR mode$[rsp]
  001e3	4c 8b bc 24 80
	00 00 00	 mov	 r15, QWORD PTR p$[rsp]
  001eb	89 7c 24 78	 mov	 DWORD PTR mask$1$[rsp], edi
  001ef	4c 89 8c 24 88
	00 00 00	 mov	 QWORD PTR skip$1$[rsp], r9
  001f7	48 83 cd ff	 or	 rbp, -1
  001fb	44 8b 44 24 78	 mov	 r8d, DWORD PTR mask$1$[rsp]
  00200	4d 8b cb	 mov	 r9, r11
  00203	49 8d 7d ff	 lea	 rdi, QWORD PTR [r13-1]
$LN36@fastsearch:

; 152  :                 skip = mlast - i - 1;
; 153  :         }
; 154  :         /* process pattern[-1] outside the loop */
; 155  :         STRINGLIB_BLOOM_ADD(mask, p[mlast]);

  00207	42 0f be 04 3f	 movsx	 eax, BYTE PTR [rdi+r15]

; 156  : 
; 157  :         for (i = 0; i <= w; i++) {

  0020c	49 8b d3	 mov	 rdx, r11
  0020f	83 e0 1f	 and	 eax, 31
  00212	0f b6 c8	 movzx	 ecx, al
  00215	d3 e6		 shl	 esi, cl
  00217	44 0b c6	 or	 r8d, esi
  0021a	44 89 44 24 78	 mov	 DWORD PTR mask$1$[rsp], r8d
  0021f	4d 85 d2	 test	 r10, r10
  00222	0f 88 9f 00 00
	00		 js	 $LN100@fastsearch
  00228	48 8b b4 24 80
	00 00 00	 mov	 rsi, QWORD PTR p$[rsp]
  00230	4e 8d 3c 2b	 lea	 r15, QWORD PTR [rbx+r13]
$LN108@fastsearch:
  00234	42 0f b6 44 2e
	ff		 movzx	 eax, BYTE PTR [rsi+r13-1]

; 158  :             /* note: using mlast in the skip path slows things down on x86 */
; 159  :             if (s[i+m-1] == p[m-1]) {

  0023a	41 38 44 17 ff	 cmp	 BYTE PTR [r15+rdx-1], al
  0023f	75 69		 jne	 SHORT $LN31@fastsearch

; 160  :                 /* candidate match */
; 161  :                 for (j = 0; j < mlast; j++)

  00241	4d 8b c3	 mov	 r8, r11
  00244	48 85 ff	 test	 rdi, rdi
  00247	7e 28		 jle	 SHORT $LN84@fastsearch
  00249	48 8b c2	 mov	 rax, rdx
  0024c	48 8b ce	 mov	 rcx, rsi
  0024f	48 2b c6	 sub	 rax, rsi
  00252	48 8d 34 18	 lea	 rsi, QWORD PTR [rax+rbx]
$LL30@fastsearch:

; 162  :                     if (s[i+j] != p[j])

  00256	0f b6 01	 movzx	 eax, BYTE PTR [rcx]
  00259	38 04 0e	 cmp	 BYTE PTR [rsi+rcx], al
  0025c	75 0b		 jne	 SHORT $LN102@fastsearch

; 160  :                 /* candidate match */
; 161  :                 for (j = 0; j < mlast; j++)

  0025e	49 ff c0	 inc	 r8
  00261	48 ff c1	 inc	 rcx
  00264	4c 3b c7	 cmp	 r8, rdi
  00267	7c ed		 jl	 SHORT $LL30@fastsearch
$LN102@fastsearch:
  00269	48 8b b4 24 80
	00 00 00	 mov	 rsi, QWORD PTR p$[rsp]
$LN84@fastsearch:

; 163  :                         break;
; 164  :                 if (j == mlast) {

  00271	4c 3b c7	 cmp	 r8, rdi
  00274	75 17		 jne	 SHORT $LN26@fastsearch

; 165  :                     /* got a match! */
; 166  :                     if (mode != FAST_COUNT)

  00276	45 85 f6	 test	 r14d, r14d
  00279	75 65		 jne	 SHORT $LN85@fastsearch

; 168  :                     count++;

  0027b	49 ff c1	 inc	 r9

; 169  :                     if (count == maxcount)

  0027e	4d 3b cc	 cmp	 r9, r12
  00281	74 55		 je	 SHORT $LN86@fastsearch

; 171  :                     i = i + mlast;
; 172  :                     continue;

  00283	44 8b 44 24 78	 mov	 r8d, DWORD PTR mask$1$[rsp]
  00288	48 03 d7	 add	 rdx, rdi
  0028b	eb 2e		 jmp	 SHORT $LN33@fastsearch
$LN26@fastsearch:

; 173  :                 }
; 174  :                 /* miss: check if next character is part of pattern */
; 175  :                 if (!STRINGLIB_BLOOM(mask, s[i+m]))

  0028d	41 0f be 04 17	 movsx	 eax, BYTE PTR [r15+rdx]
  00292	44 8b 44 24 78	 mov	 r8d, DWORD PTR mask$1$[rsp]
  00297	83 e0 1f	 and	 eax, 31
  0029a	41 0f a3 c0	 bt	 r8d, eax

; 176  :                     i = i + m;
; 177  :                 else

  0029e	73 18		 jae	 SHORT $LN107@fastsearch

; 178  :                     i = i + skip;

  002a0	48 03 94 24 88
	00 00 00	 add	 rdx, QWORD PTR skip$1$[rsp]

; 179  :             } else {

  002a8	eb 11		 jmp	 SHORT $LN33@fastsearch
$LN31@fastsearch:

; 180  :                 /* skip: check if next character is part of pattern */
; 181  :                 if (!STRINGLIB_BLOOM(mask, s[i+m]))

  002aa	41 0f be 04 17	 movsx	 eax, BYTE PTR [r15+rdx]
  002af	83 e0 1f	 and	 eax, 31
  002b2	41 0f a3 c0	 bt	 r8d, eax
  002b6	72 03		 jb	 SHORT $LN33@fastsearch
$LN107@fastsearch:

; 182  :                     i = i + m;

  002b8	49 03 d5	 add	 rdx, r13
$LN33@fastsearch:

; 156  : 
; 157  :         for (i = 0; i <= w; i++) {

  002bb	48 ff c2	 inc	 rdx
  002be	49 3b d2	 cmp	 rdx, r10
  002c1	0f 8e 6d ff ff
	ff		 jle	 $LN108@fastsearch
$LN100@fastsearch:

; 216  :             }
; 217  :         }
; 218  :     }
; 219  : 
; 220  :     if (mode != FAST_COUNT)

  002c7	45 85 f6	 test	 r14d, r14d
  002ca	0f 85 ef 00 00
	00		 jne	 $LN101@fastsearch

; 222  :     return count;

  002d0	49 8b c1	 mov	 rax, r9
  002d3	e9 ea 00 00 00	 jmp	 $LN106@fastsearch
$LN86@fastsearch:

; 170  :                         return maxcount;

  002d8	49 8b c4	 mov	 rax, r12
  002db	e9 e2 00 00 00	 jmp	 $LN106@fastsearch
$LN85@fastsearch:

; 167  :                         return i;

  002e0	48 8b c2	 mov	 rax, rdx
  002e3	e9 da 00 00 00	 jmp	 $LN106@fastsearch
$LN39@fastsearch:

; 183  :             }
; 184  :         }
; 185  :     } else {    /* FAST_RSEARCH */
; 186  : 
; 187  :         /* create compressed boyer-moore delta 1 table */
; 188  : 
; 189  :         /* process pattern[0] outside the loop */
; 190  :         STRINGLIB_BLOOM_ADD(mask, p[0]);

  002e8	45 0f be 37	 movsx	 r14d, BYTE PTR [r15]
  002ec	44 8b e6	 mov	 r12d, esi
  002ef	41 8b ce	 mov	 ecx, r14d
  002f2	83 e1 1f	 and	 ecx, 31
  002f5	41 d3 e4	 shl	 r12d, cl

; 191  :         /* process pattern[:0:-1] */
; 192  :         for (i = mlast; i > 0; i--) {

  002f8	48 85 ff	 test	 rdi, rdi
  002fb	7e 41		 jle	 SHORT $LN16@fastsearch
  002fd	4e 8d 0c 3f	 lea	 r9, QWORD PTR [rdi+r15]
  00301	49 2b ef	 sub	 rbp, r15
  00304	4c 8b df	 mov	 r11, rdi
  00307	66 0f 1f 84 00
	00 00 00 00	 npad	 9
$LL18@fastsearch:

; 193  :             STRINGLIB_BLOOM_ADD(mask, p[i]);

  00310	45 0f be 01	 movsx	 r8d, BYTE PTR [r9]
  00314	8b d6		 mov	 edx, esi
  00316	41 8b c8	 mov	 ecx, r8d
  00319	83 e1 1f	 and	 ecx, 31
  0031c	d3 e2		 shl	 edx, cl
  0031e	44 0b e2	 or	 r12d, edx

; 194  :             if (p[i] == p[0])

  00321	45 3a c6	 cmp	 r8b, r14b
  00324	75 0c		 jne	 SHORT $LN17@fastsearch

; 195  :                 skip = i - 1;

  00326	49 8d 04 29	 lea	 rax, QWORD PTR [r9+rbp]
  0032a	48 89 84 24 88
	00 00 00	 mov	 QWORD PTR skip$1$[rsp], rax
$LN17@fastsearch:

; 191  :         /* process pattern[:0:-1] */
; 192  :         for (i = mlast; i > 0; i--) {

  00332	49 ff c9	 dec	 r9
  00335	49 ff cb	 dec	 r11
  00338	75 d6		 jne	 SHORT $LL18@fastsearch
  0033a	48 83 cd ff	 or	 rbp, -1
$LN16@fastsearch:

; 196  :         }
; 197  : 
; 198  :         for (i = w; i >= 0; i--) {

  0033e	4d 8b c2	 mov	 r8, r10
  00341	4d 2b c7	 sub	 r8, r15
  00344	4c 03 c3	 add	 r8, rbx
$LL14@fastsearch:

; 199  :             if (s[i] == p[0]) {

  00347	45 38 34 1a	 cmp	 BYTE PTR [r10+rbx], r14b
  0034b	75 50		 jne	 SHORT $LN11@fastsearch

; 200  :                 /* candidate match */
; 201  :                 for (j = mlast; j > 0; j--)

  0034d	48 8b d7	 mov	 rdx, rdi
  00350	48 85 ff	 test	 rdi, rdi
  00353	7e 1f		 jle	 SHORT $LN103@fastsearch
  00355	4a 8d 0c 3f	 lea	 rcx, QWORD PTR [rdi+r15]
  00359	0f 1f 80 00 00
	00 00		 npad	 7
$LL10@fastsearch:

; 202  :                     if (s[i+j] != p[j])

  00360	0f b6 01	 movzx	 eax, BYTE PTR [rcx]
  00363	41 38 04 08	 cmp	 BYTE PTR [r8+rcx], al
  00367	75 0b		 jne	 SHORT $LN103@fastsearch

; 200  :                 /* candidate match */
; 201  :                 for (j = mlast; j > 0; j--)

  00369	48 ff ca	 dec	 rdx
  0036c	48 ff c9	 dec	 rcx
  0036f	48 85 d2	 test	 rdx, rdx
  00372	7f ec		 jg	 SHORT $LL10@fastsearch
$LN103@fastsearch:

; 203  :                         break;
; 204  :                 if (j == 0)

  00374	48 85 d2	 test	 rdx, rdx
  00377	74 66		 je	 SHORT $LN88@fastsearch

; 207  :                 /* miss: check if previous character is part of pattern */
; 208  :                 if (i > 0 && !STRINGLIB_BLOOM(mask, s[i-1]))

  00379	4d 85 d2	 test	 r10, r10
  0037c	7e 0f		 jle	 SHORT $LN5@fastsearch
  0037e	41 0f be 44 1a
	ff		 movsx	 eax, BYTE PTR [r10+rbx-1]
  00384	83 e0 1f	 and	 eax, 31
  00387	41 0f a3 c4	 bt	 r12d, eax

; 209  :                     i = i - m;
; 210  :                 else

  0038b	73 24		 jae	 SHORT $LN109@fastsearch
$LN5@fastsearch:

; 211  :                     i = i - skip;

  0038d	48 8b 94 24 88
	00 00 00	 mov	 rdx, QWORD PTR skip$1$[rsp]
  00395	4c 2b d2	 sub	 r10, rdx
  00398	4c 2b c2	 sub	 r8, rdx

; 212  :             } else {

  0039b	eb 1a		 jmp	 SHORT $LN13@fastsearch
$LN11@fastsearch:

; 213  :                 /* skip: check if previous character is part of pattern */
; 214  :                 if (i > 0 && !STRINGLIB_BLOOM(mask, s[i-1]))

  0039d	4d 85 d2	 test	 r10, r10
  003a0	7e 15		 jle	 SHORT $LN13@fastsearch
  003a2	41 0f be 44 1a
	ff		 movsx	 eax, BYTE PTR [r10+rbx-1]
  003a8	83 e0 1f	 and	 eax, 31
  003ab	41 0f a3 c4	 bt	 r12d, eax
  003af	72 06		 jb	 SHORT $LN13@fastsearch
$LN109@fastsearch:

; 215  :                     i = i - m;

  003b1	4d 2b d5	 sub	 r10, r13
  003b4	4d 2b c5	 sub	 r8, r13
$LN13@fastsearch:

; 196  :         }
; 197  : 
; 198  :         for (i = w; i >= 0; i--) {

  003b7	49 ff c8	 dec	 r8
  003ba	49 ff ca	 dec	 r10
  003bd	79 88		 jns	 SHORT $LL14@fastsearch
$LN101@fastsearch:

; 221  :         return -1;

  003bf	48 8b c5	 mov	 rax, rbp
$LN106@fastsearch:
  003c2	48 8b 74 24 38	 mov	 rsi, QWORD PTR [rsp+56]
  003c7	48 8b 6c 24 70	 mov	 rbp, QWORD PTR [rsp+112]
  003cc	48 8b 7c 24 30	 mov	 rdi, QWORD PTR [rsp+48]
$LN62@fastsearch:

; 223  : }

  003d1	48 83 c4 40	 add	 rsp, 64			; 00000040H
  003d5	41 5f		 pop	 r15
  003d7	41 5e		 pop	 r14
  003d9	41 5d		 pop	 r13
  003db	41 5c		 pop	 r12
  003dd	5b		 pop	 rbx
  003de	c3		 ret	 0
$LN88@fastsearch:

; 205  :                     /* got a match! */
; 206  :                     return i;

  003df	49 8b c2	 mov	 rax, r10
  003e2	eb de		 jmp	 SHORT $LN106@fastsearch
fastsearch ENDP
_TEXT	ENDS
;	COMDAT pdata
; File c:\src\pyparallel\objects\stringlib\count.h
pdata	SEGMENT
$pdata$stringlib_count DD imagerel stringlib_count
	DD	imagerel stringlib_count+40
	DD	imagerel $unwind$stringlib_count
pdata	ENDS
;	COMDAT pdata
pdata	SEGMENT
$pdata$0$stringlib_count DD imagerel stringlib_count+40
	DD	imagerel stringlib_count+73
	DD	imagerel $chain$0$stringlib_count
pdata	ENDS
;	COMDAT pdata
pdata	SEGMENT
$pdata$1$stringlib_count DD imagerel stringlib_count+73
	DD	imagerel stringlib_count+78
	DD	imagerel $chain$1$stringlib_count
pdata	ENDS
;	COMDAT xdata
xdata	SEGMENT
$chain$1$stringlib_count DD 021H
	DD	imagerel stringlib_count
	DD	imagerel stringlib_count+40
	DD	imagerel $unwind$stringlib_count
xdata	ENDS
;	COMDAT xdata
xdata	SEGMENT
$chain$0$stringlib_count DD 020521H
	DD	063405H
	DD	imagerel stringlib_count
	DD	imagerel stringlib_count+40
	DD	imagerel $unwind$stringlib_count
xdata	ENDS
;	COMDAT xdata
xdata	SEGMENT
$unwind$stringlib_count DD 010401H
	DD	06204H
; Function compile flags: /Ogtpy
xdata	ENDS
;	COMDAT stringlib_count
_TEXT	SEGMENT
str$ = 64
str_len$ = 72
sub$ = 80
sub_len$ = 88
maxcount$ = 96
stringlib_count PROC					; COMDAT

; 11   : {

  00000	48 83 ec 38	 sub	 rsp, 56			; 00000038H

; 12   :     Py_ssize_t count;
; 13   : 
; 14   :     if (str_len < 0)

  00004	48 85 d2	 test	 rdx, rdx
  00007	79 07		 jns	 SHORT $LN3@stringlib_@2

; 15   :         return 0; /* start > len(str) */

  00009	33 c0		 xor	 eax, eax

; 22   :         return 0; /* no match */
; 23   : 
; 24   :     return count;
; 25   : }

  0000b	48 83 c4 38	 add	 rsp, 56			; 00000038H
  0000f	c3		 ret	 0
$LN3@stringlib_@2:

; 16   :     if (sub_len == 0)
; 17   :         return (str_len < maxcount) ? str_len + 1 : maxcount;

  00010	48 8b 44 24 60	 mov	 rax, QWORD PTR maxcount$[rsp]
  00015	4d 85 c9	 test	 r9, r9
  00018	75 0e		 jne	 SHORT $LN2@stringlib_@2
  0001a	48 3b d0	 cmp	 rdx, rax
  0001d	7d 2a		 jge	 SHORT $LN1@stringlib_@2
  0001f	48 8d 42 01	 lea	 rax, QWORD PTR [rdx+1]

; 22   :         return 0; /* no match */
; 23   : 
; 24   :     return count;
; 25   : }

  00023	48 83 c4 38	 add	 rsp, 56			; 00000038H
  00027	c3		 ret	 0
$LN2@stringlib_@2:
  00028	48 89 5c 24 30	 mov	 QWORD PTR [rsp+48], rbx

; 18   : 
; 19   :     count = FASTSEARCH(str, str_len, sub, sub_len, maxcount, FAST_COUNT);

  0002d	33 db		 xor	 ebx, ebx
  0002f	89 5c 24 28	 mov	 DWORD PTR [rsp+40], ebx
  00033	48 89 44 24 20	 mov	 QWORD PTR [rsp+32], rax
  00038	e8 00 00 00 00	 call	 fastsearch

; 20   : 
; 21   :     if (count < 0)

  0003d	48 85 c0	 test	 rax, rax
  00040	48 0f 48 c3	 cmovs	 rax, rbx
  00044	48 8b 5c 24 30	 mov	 rbx, QWORD PTR [rsp+48]
$LN1@stringlib_@2:

; 22   :         return 0; /* no match */
; 23   : 
; 24   :     return count;
; 25   : }

  00049	48 83 c4 38	 add	 rsp, 56			; 00000038H
  0004d	c3		 ret	 0
stringlib_count ENDP
_TEXT	ENDS
;	COMDAT pdata
; File c:\src\pyparallel\objects\stringlib\fastsearch.h
pdata	SEGMENT
$pdata$stringlib_find DD imagerel stringlib_find
	DD	imagerel stringlib_find+58
	DD	imagerel $unwind$stringlib_find
pdata	ENDS
;	COMDAT pdata
pdata	SEGMENT
$pdata$4$stringlib_find DD imagerel stringlib_find+58
	DD	imagerel stringlib_find+235
	DD	imagerel $chain$4$stringlib_find
pdata	ENDS
;	COMDAT pdata
pdata	SEGMENT
$pdata$6$stringlib_find DD imagerel stringlib_find+235
	DD	imagerel stringlib_find+513
	DD	imagerel $chain$6$stringlib_find
pdata	ENDS
;	COMDAT xdata
xdata	SEGMENT
$chain$6$stringlib_find DD 0a0021H
	DD	06f400H
	DD	07d400H
	DD	0fc400H
	DD	0e6400H
	DD	0c5400H
	DD	imagerel stringlib_find
	DD	imagerel stringlib_find+58
	DD	imagerel $unwind$stringlib_find
xdata	ENDS
;	COMDAT xdata
xdata	SEGMENT
$chain$4$stringlib_find DD 0a1c21H
	DD	06f41cH
	DD	07d417H
	DD	0fc40fH
	DD	0e640aH
	DD	0c5405H
	DD	imagerel stringlib_find
	DD	imagerel stringlib_find+58
	DD	imagerel $unwind$stringlib_find
xdata	ENDS
;	COMDAT xdata
xdata	SEGMENT
$unwind$stringlib_find DD 040901H
	DD	0e0057209H
	DD	030027003H
; Function compile flags: /Ogtpy
; File c:\src\pyparallel\objects\stringlib\find.h
xdata	ENDS
;	COMDAT stringlib_find
_TEXT	SEGMENT
w$1$ = 32
str$ = 96
skip$1$ = 104
str_len$ = 104
sub$ = 112
sub_len$ = 120
offset$ = 128
stringlib_find PROC					; COMDAT

; 11   : {

  00000	40 53		 push	 rbx
  00002	57		 push	 rdi
  00003	41 56		 push	 r14
  00005	48 83 ec 40	 sub	 rsp, 64			; 00000040H
  00009	49 8b d9	 mov	 rbx, r9
  0000c	4d 8b f0	 mov	 r14, r8
  0000f	48 8b f9	 mov	 rdi, rcx

; 12   :     Py_ssize_t pos;
; 13   : 
; 14   :     if (str_len < 0)

  00012	48 85 d2	 test	 rdx, rdx
  00015	79 0d		 jns	 SHORT $LN3@stringlib_@3

; 15   :         return -1;

  00017	48 83 c8 ff	 or	 rax, -1

; 25   : }

  0001b	48 83 c4 40	 add	 rsp, 64			; 00000040H
  0001f	41 5e		 pop	 r14
  00021	5f		 pop	 rdi
  00022	5b		 pop	 rbx
  00023	c3		 ret	 0
$LN3@stringlib_@3:

; 16   :     if (sub_len == 0)

  00024	48 85 db	 test	 rbx, rbx
  00027	75 11		 jne	 SHORT $LN2@stringlib_@3

; 17   :         return offset;

  00029	48 8b 84 24 80
	00 00 00	 mov	 rax, QWORD PTR offset$[rsp]

; 25   : }

  00031	48 83 c4 40	 add	 rsp, 64			; 00000040H
  00035	41 5e		 pop	 r14
  00037	5f		 pop	 rdi
  00038	5b		 pop	 rbx
  00039	c3		 ret	 0
$LN2@stringlib_@3:
  0003a	48 89 6c 24 60	 mov	 QWORD PTR [rsp+96], rbp
  0003f	48 89 74 24 70	 mov	 QWORD PTR [rsp+112], rsi
  00044	4c 89 64 24 78	 mov	 QWORD PTR [rsp+120], r12

; 18   : 
; 19   :     pos = FASTSEARCH(str, str_len, sub, sub_len, -1, FAST_SEARCH);

  00049	48 8b ea	 mov	 rbp, rdx
  0004c	4c 89 6c 24 38	 mov	 QWORD PTR [rsp+56], r13
  00051	4c 89 7c 24 30	 mov	 QWORD PTR [rsp+48], r15
  00056	48 2b eb	 sub	 rbp, rbx
  00059	48 89 6c 24 20	 mov	 QWORD PTR w$1$[rsp], rbp
  0005e	78 62		 js	 SHORT $LN65@stringlib_@3
  00060	48 83 fb 01	 cmp	 rbx, 1
  00064	0f 8f 81 00 00
	00		 jg	 $LN64@stringlib_@3
  0006a	48 85 db	 test	 rbx, rbx
  0006d	7e 53		 jle	 SHORT $LN65@stringlib_@3
  0006f	48 83 fa 0a	 cmp	 rdx, 10
  00073	7e 2f		 jle	 SHORT $LN62@stringlib_@3
  00075	4c 8d 04 11	 lea	 r8, QWORD PTR [rcx+rdx]
  00079	49 3b c8	 cmp	 rcx, r8
  0007c	73 15		 jae	 SHORT $LN72@stringlib_@3
  0007e	41 0f b6 16	 movzx	 edx, BYTE PTR [r14]
  00082	4c 2b c1	 sub	 r8, rcx
  00085	ff 15 00 00 00
	00		 call	 QWORD PTR __imp_memchr
  0008b	4c 8b c8	 mov	 r9, rax
  0008e	48 85 c0	 test	 rax, rax
  00091	75 09		 jne	 SHORT $LN71@stringlib_@3
$LN72@stringlib_@3:
  00093	49 83 c9 ff	 or	 r9, -1
  00097	e9 4f 01 00 00	 jmp	 $LN67@stringlib_@3
$LN71@stringlib_@3:
  0009c	4c 2b cf	 sub	 r9, rdi
  0009f	e9 47 01 00 00	 jmp	 $LN67@stringlib_@3
$LN62@stringlib_@3:
  000a4	45 33 c9	 xor	 r9d, r9d
  000a7	48 85 d2	 test	 rdx, rdx
  000aa	7e 16		 jle	 SHORT $LN65@stringlib_@3
  000ac	41 0f b6 00	 movzx	 eax, BYTE PTR [r8]
$LL53@stringlib_@3:
  000b0	41 38 04 09	 cmp	 BYTE PTR [r9+rcx], al
  000b4	0f 84 31 01 00
	00		 je	 $LN67@stringlib_@3
  000ba	49 ff c1	 inc	 r9
  000bd	4c 3b ca	 cmp	 r9, rdx
  000c0	7c ee		 jl	 SHORT $LL53@stringlib_@3
$LN65@stringlib_@3:
  000c2	49 83 c9 ff	 or	 r9, -1
$LN1@stringlib_@3:
  000c6	4c 8b 7c 24 30	 mov	 r15, QWORD PTR [rsp+48]
  000cb	4c 8b 6c 24 38	 mov	 r13, QWORD PTR [rsp+56]
  000d0	4c 8b 64 24 78	 mov	 r12, QWORD PTR [rsp+120]
  000d5	48 8b 74 24 70	 mov	 rsi, QWORD PTR [rsp+112]
  000da	48 8b 6c 24 60	 mov	 rbp, QWORD PTR [rsp+96]

; 23   : 
; 24   :     return pos;

  000df	49 8b c1	 mov	 rax, r9

; 25   : }

  000e2	48 83 c4 40	 add	 rsp, 64			; 00000040H
  000e6	41 5e		 pop	 r14
  000e8	5f		 pop	 rdi
  000e9	5b		 pop	 rbx
  000ea	c3		 ret	 0

; 18   : 
; 19   :     pos = FASTSEARCH(str, str_len, sub, sub_len, -1, FAST_SEARCH);

$LN64@stringlib_@3:
  000eb	4d 8d 51 ff	 lea	 r10, QWORD PTR [r9-1]
  000ef	45 33 c9	 xor	 r9d, r9d
  000f2	4d 8d 62 ff	 lea	 r12, QWORD PTR [r10-1]
  000f6	45 8b f9	 mov	 r15d, r9d
  000f9	45 8d 59 01	 lea	 r11d, QWORD PTR [r9+1]
  000fd	4d 85 d2	 test	 r10, r10
  00100	7e 55		 jle	 SHORT $LN41@stringlib_@3
  00102	47 0f b6 2c 02	 movzx	 r13d, BYTE PTR [r10+r8]
  00107	49 8b ec	 mov	 rbp, r12
  0010a	4d 8b e2	 mov	 r12, r10
  0010d	4c 8b d5	 mov	 r10, rbp
  00110	49 8b f0	 mov	 rsi, r8
  00113	66 66 66 66 66
	0f 1f 84 00 00
	00 00 00	 npad	 13
$LL43@stringlib_@3:
  00120	44 0f be 06	 movsx	 r8d, BYTE PTR [rsi]
  00124	41 8b d3	 mov	 edx, r11d
  00127	41 8b c8	 mov	 ecx, r8d
  0012a	83 e1 1f	 and	 ecx, 31
  0012d	d3 e2		 shl	 edx, cl
  0012f	44 0b fa	 or	 r15d, edx
  00132	45 3a c5	 cmp	 r8b, r13b
  00135	4c 0f 44 d5	 cmove	 r10, rbp
  00139	48 ff c6	 inc	 rsi
  0013c	48 ff cd	 dec	 rbp
  0013f	49 ff cc	 dec	 r12
  00142	75 dc		 jne	 SHORT $LL43@stringlib_@3
  00144	48 8b 6c 24 20	 mov	 rbp, QWORD PTR w$1$[rsp]
  00149	4c 89 54 24 68	 mov	 QWORD PTR skip$1$[rsp], r10
  0014e	4c 8d 53 ff	 lea	 r10, QWORD PTR [rbx-1]
  00152	4c 8b 64 24 68	 mov	 r12, QWORD PTR skip$1$[rsp]
$LN41@stringlib_@3:
  00157	43 0f be 0c 32	 movsx	 ecx, BYTE PTR [r10+r14]
  0015c	49 8b d1	 mov	 rdx, r9
  0015f	83 e1 1f	 and	 ecx, 31
  00162	41 d3 e3	 shl	 r11d, cl
  00165	45 0b fb	 or	 r15d, r11d
  00168	48 85 ed	 test	 rbp, rbp
  0016b	0f 88 51 ff ff
	ff		 js	 $LN65@stringlib_@3
  00171	45 0f b6 6c 1e
	ff		 movzx	 r13d, BYTE PTR [r14+rbx-1]
  00177	48 8d 34 1f	 lea	 rsi, QWORD PTR [rdi+rbx]
  0017b	0f 1f 44 00 00	 npad	 5
$LL39@stringlib_@3:
  00180	44 38 6c 16 ff	 cmp	 BYTE PTR [rsi+rdx-1], r13b
  00185	75 44		 jne	 SHORT $LN36@stringlib_@3
  00187	4d 8b c1	 mov	 r8, r9
  0018a	4d 85 d2	 test	 r10, r10
  0018d	7e 25		 jle	 SHORT $LN89@stringlib_@3
  0018f	4c 8b da	 mov	 r11, rdx
  00192	49 8b ce	 mov	 rcx, r14
  00195	4d 2b de	 sub	 r11, r14
  00198	4c 03 df	 add	 r11, rdi
  0019b	0f 1f 44 00 00	 npad	 5
$LL35@stringlib_@3:
  001a0	0f b6 01	 movzx	 eax, BYTE PTR [rcx]
  001a3	41 38 04 0b	 cmp	 BYTE PTR [r11+rcx], al
  001a7	75 0b		 jne	 SHORT $LN89@stringlib_@3
  001a9	49 ff c0	 inc	 r8
  001ac	48 ff c1	 inc	 rcx
  001af	4d 3b c2	 cmp	 r8, r10
  001b2	7c ec		 jl	 SHORT $LL35@stringlib_@3
$LN89@stringlib_@3:
  001b4	4d 3b c2	 cmp	 r8, r10
  001b7	74 2f		 je	 SHORT $LN83@stringlib_@3
  001b9	0f be 04 16	 movsx	 eax, BYTE PTR [rsi+rdx]
  001bd	83 e0 1f	 and	 eax, 31
  001c0	41 0f a3 c7	 bt	 r15d, eax
  001c4	73 12		 jae	 SHORT $LN90@stringlib_@3
  001c6	49 03 d4	 add	 rdx, r12
  001c9	eb 10		 jmp	 SHORT $LN38@stringlib_@3
$LN36@stringlib_@3:
  001cb	0f be 04 16	 movsx	 eax, BYTE PTR [rsi+rdx]
  001cf	83 e0 1f	 and	 eax, 31
  001d2	41 0f a3 c7	 bt	 r15d, eax
  001d6	72 03		 jb	 SHORT $LN38@stringlib_@3
$LN90@stringlib_@3:
  001d8	48 03 d3	 add	 rdx, rbx
$LN38@stringlib_@3:
  001db	48 ff c2	 inc	 rdx
  001de	48 3b d5	 cmp	 rdx, rbp
  001e1	7e 9d		 jle	 SHORT $LL39@stringlib_@3
  001e3	e9 da fe ff ff	 jmp	 $LN65@stringlib_@3
$LN83@stringlib_@3:
  001e8	4c 8b ca	 mov	 r9, rdx
$LN67@stringlib_@3:

; 20   : 
; 21   :     if (pos >= 0)

  001eb	4d 85 c9	 test	 r9, r9
  001ee	0f 88 d2 fe ff
	ff		 js	 $LN1@stringlib_@3

; 22   :         pos += offset;

  001f4	4c 03 8c 24 80
	00 00 00	 add	 r9, QWORD PTR offset$[rsp]
  001fc	e9 c5 fe ff ff	 jmp	 $LN1@stringlib_@3
stringlib_find ENDP
_TEXT	ENDS
;	COMDAT pdata
; File c:\src\pyparallel\objects\stringlib\fastsearch.h
pdata	SEGMENT
$pdata$stringlib_rfind DD imagerel stringlib_rfind
	DD	imagerel stringlib_rfind+58
	DD	imagerel $unwind$stringlib_rfind
pdata	ENDS
;	COMDAT pdata
pdata	SEGMENT
$pdata$2$stringlib_rfind DD imagerel stringlib_rfind+58
	DD	imagerel stringlib_rfind+161
	DD	imagerel $chain$2$stringlib_rfind
pdata	ENDS
;	COMDAT pdata
pdata	SEGMENT
$pdata$4$stringlib_rfind DD imagerel stringlib_rfind+161
	DD	imagerel stringlib_rfind+198
	DD	imagerel $chain$4$stringlib_rfind
pdata	ENDS
;	COMDAT pdata
pdata	SEGMENT
$pdata$6$stringlib_rfind DD imagerel stringlib_rfind+198
	DD	imagerel stringlib_rfind+280
	DD	imagerel $chain$6$stringlib_rfind
pdata	ENDS
;	COMDAT pdata
pdata	SEGMENT
$pdata$7$stringlib_rfind DD imagerel stringlib_rfind+280
	DD	imagerel stringlib_rfind+425
	DD	imagerel $chain$7$stringlib_rfind
pdata	ENDS
;	COMDAT xdata
xdata	SEGMENT
$chain$7$stringlib_rfind DD 021H
	DD	imagerel stringlib_rfind+161
	DD	imagerel stringlib_rfind+198
	DD	imagerel $chain$4$stringlib_rfind
xdata	ENDS
;	COMDAT xdata
xdata	SEGMENT
$chain$6$stringlib_rfind DD 040d21H
	DD	07740dH
	DD	066405H
	DD	imagerel stringlib_rfind+161
	DD	imagerel stringlib_rfind+198
	DD	imagerel $chain$4$stringlib_rfind
xdata	ENDS
;	COMDAT xdata
xdata	SEGMENT
$chain$4$stringlib_rfind DD 060021H
	DD	0e400H
	DD	01d400H
	DD	08c400H
	DD	imagerel stringlib_rfind
	DD	imagerel stringlib_rfind+58
	DD	imagerel $unwind$stringlib_rfind
xdata	ENDS
;	COMDAT xdata
xdata	SEGMENT
$chain$2$stringlib_rfind DD 061421H
	DD	0e414H
	DD	01d40dH
	DD	08c405H
	DD	imagerel stringlib_rfind
	DD	imagerel stringlib_rfind+58
	DD	imagerel $unwind$stringlib_rfind
xdata	ENDS
;	COMDAT xdata
xdata	SEGMENT
$unwind$stringlib_rfind DD 040901H
	DD	0f0051209H
	DD	030025003H
; Function compile flags: /Ogtpy
; File c:\src\pyparallel\objects\stringlib\find.h
xdata	ENDS
;	COMDAT stringlib_rfind
_TEXT	SEGMENT
str$ = 48
str_len$ = 56
sub$ = 64
sub_len$ = 72
offset$ = 80
stringlib_rfind PROC					; COMDAT

; 31   : {

  00000	40 53		 push	 rbx
  00002	55		 push	 rbp
  00003	41 57		 push	 r15
  00005	48 83 ec 10	 sub	 rsp, 16
  00009	49 8b d9	 mov	 rbx, r9
  0000c	4d 8b f8	 mov	 r15, r8
  0000f	48 8b e9	 mov	 rbp, rcx

; 32   :     Py_ssize_t pos;
; 33   : 
; 34   :     if (str_len < 0)

  00012	48 85 d2	 test	 rdx, rdx
  00015	79 0d		 jns	 SHORT $LN3@stringlib_@4

; 35   :         return -1;

  00017	48 83 c8 ff	 or	 rax, -1

; 45   : }

  0001b	48 83 c4 10	 add	 rsp, 16
  0001f	41 5f		 pop	 r15
  00021	5d		 pop	 rbp
  00022	5b		 pop	 rbx
  00023	c3		 ret	 0
$LN3@stringlib_@4:

; 36   :     if (sub_len == 0)

  00024	48 85 db	 test	 rbx, rbx
  00027	75 11		 jne	 SHORT $LN2@stringlib_@4

; 37   :         return str_len + offset;

  00029	48 8b 44 24 50	 mov	 rax, QWORD PTR offset$[rsp]
  0002e	48 03 c2	 add	 rax, rdx

; 45   : }

  00031	48 83 c4 10	 add	 rsp, 16
  00035	41 5f		 pop	 r15
  00037	5d		 pop	 rbp
  00038	5b		 pop	 rbx
  00039	c3		 ret	 0
$LN2@stringlib_@4:
  0003a	4c 89 64 24 40	 mov	 QWORD PTR [rsp+64], r12

; 38   : 
; 39   :     pos = FASTSEARCH(str, str_len, sub, sub_len, -1, FAST_RSEARCH);

  0003f	4c 8b ca	 mov	 r9, rdx
  00042	4c 89 6c 24 08	 mov	 QWORD PTR [rsp+8], r13
  00047	4c 2b cb	 sub	 r9, rbx
  0004a	4c 89 34 24	 mov	 QWORD PTR [rsp], r14
  0004e	78 33		 js	 SHORT $LN65@stringlib_@4
  00050	48 83 fb 01	 cmp	 rbx, 1
  00054	7f 4b		 jg	 SHORT $LN64@stringlib_@4
  00056	48 85 db	 test	 rbx, rbx
  00059	7e 28		 jle	 SHORT $LN65@stringlib_@4
  0005b	4c 8d 4a ff	 lea	 r9, QWORD PTR [rdx-1]
  0005f	49 83 f9 ff	 cmp	 r9, -1
  00063	7e 1e		 jle	 SHORT $LN65@stringlib_@4
  00065	41 0f b6 00	 movzx	 eax, BYTE PTR [r8]
  00069	0f 1f 80 00 00
	00 00		 npad	 7
$LL48@stringlib_@4:
  00070	41 38 04 09	 cmp	 BYTE PTR [r9+rcx], al
  00074	0f 84 15 01 00
	00		 je	 $LN83@stringlib_@4
  0007a	49 ff c9	 dec	 r9
  0007d	49 83 f9 ff	 cmp	 r9, -1
  00081	7f ed		 jg	 SHORT $LL48@stringlib_@4
$LN65@stringlib_@4:
  00083	49 83 ca ff	 or	 r10, -1
$LN1@stringlib_@4:
  00087	4c 8b 34 24	 mov	 r14, QWORD PTR [rsp]
  0008b	4c 8b 6c 24 08	 mov	 r13, QWORD PTR [rsp+8]
  00090	4c 8b 64 24 40	 mov	 r12, QWORD PTR [rsp+64]

; 43   : 
; 44   :     return pos;

  00095	49 8b c2	 mov	 rax, r10

; 45   : }

  00098	48 83 c4 10	 add	 rsp, 16
  0009c	41 5f		 pop	 r15
  0009e	5d		 pop	 rbp
  0009f	5b		 pop	 rbx
  000a0	c3		 ret	 0

; 38   : 
; 39   :     pos = FASTSEARCH(str, str_len, sub, sub_len, -1, FAST_RSEARCH);

$LN64@stringlib_@4:
  000a1	45 0f be 18	 movsx	 r11d, BYTE PTR [r8]
  000a5	4c 8d 63 ff	 lea	 r12, QWORD PTR [rbx-1]
  000a9	41 be 01 00 00
	00		 mov	 r14d, 1
  000af	41 8b cb	 mov	 ecx, r11d
  000b2	49 83 ca ff	 or	 r10, -1
  000b6	4d 8d 6c 24 ff	 lea	 r13, QWORD PTR [r12-1]
  000bb	83 e1 1f	 and	 ecx, 31
  000be	41 d3 e6	 shl	 r14d, cl
  000c1	4d 85 e4	 test	 r12, r12
  000c4	7e 52		 jle	 SHORT $LN21@stringlib_@4
  000c6	48 89 74 24 30	 mov	 QWORD PTR [rsp+48], rsi
  000cb	49 8b f2	 mov	 rsi, r10
  000ce	48 89 7c 24 38	 mov	 QWORD PTR [rsp+56], rdi
  000d3	4f 8d 1c 04	 lea	 r11, QWORD PTR [r12+r8]
  000d7	49 8b fc	 mov	 rdi, r12
  000da	45 0f b6 20	 movzx	 r12d, BYTE PTR [r8]
  000de	49 2b f0	 sub	 rsi, r8
$LL23@stringlib_@4:
  000e1	45 0f be 03	 movsx	 r8d, BYTE PTR [r11]
  000e5	ba 01 00 00 00	 mov	 edx, 1
  000ea	41 8b c8	 mov	 ecx, r8d
  000ed	83 e1 1f	 and	 ecx, 31
  000f0	d3 e2		 shl	 edx, cl
  000f2	44 0b f2	 or	 r14d, edx
  000f5	45 3a c4	 cmp	 r8b, r12b
  000f8	75 04		 jne	 SHORT $LN22@stringlib_@4
  000fa	4e 8d 2c 1e	 lea	 r13, QWORD PTR [rsi+r11]
$LN22@stringlib_@4:
  000fe	49 ff cb	 dec	 r11
  00101	48 ff cf	 dec	 rdi
  00104	75 db		 jne	 SHORT $LL23@stringlib_@4
  00106	45 0f b6 1f	 movzx	 r11d, BYTE PTR [r15]
  0010a	48 8b 7c 24 38	 mov	 rdi, QWORD PTR [rsp+56]
  0010f	48 8b 74 24 30	 mov	 rsi, QWORD PTR [rsp+48]
  00114	4c 8d 63 ff	 lea	 r12, QWORD PTR [rbx-1]
$LN21@stringlib_@4:
  00118	4d 8b c1	 mov	 r8, r9
  0011b	4d 2b c7	 sub	 r8, r15
  0011e	4c 03 c5	 add	 r8, rbp
$LL19@stringlib_@4:
  00121	45 38 1c 29	 cmp	 BYTE PTR [r9+rbp], r11b
  00125	75 41		 jne	 SHORT $LN16@stringlib_@4
  00127	49 8b d4	 mov	 rdx, r12
  0012a	4d 85 e4	 test	 r12, r12
  0012d	7e 18		 jle	 SHORT $LN89@stringlib_@4
  0012f	4b 8d 0c 3c	 lea	 rcx, QWORD PTR [r12+r15]
$LL15@stringlib_@4:
  00133	0f b6 01	 movzx	 eax, BYTE PTR [rcx]
  00136	41 38 04 08	 cmp	 BYTE PTR [r8+rcx], al
  0013a	75 0b		 jne	 SHORT $LN89@stringlib_@4
  0013c	48 ff ca	 dec	 rdx
  0013f	48 ff c9	 dec	 rcx
  00142	48 85 d2	 test	 rdx, rdx
  00145	7f ec		 jg	 SHORT $LL15@stringlib_@4
$LN89@stringlib_@4:
  00147	48 85 d2	 test	 rdx, rdx
  0014a	74 43		 je	 SHORT $LN83@stringlib_@4
  0014c	4d 85 c9	 test	 r9, r9
  0014f	7e 0f		 jle	 SHORT $LN10@stringlib_@4
  00151	41 0f be 44 29
	ff		 movsx	 eax, BYTE PTR [r9+rbp-1]
  00157	83 e0 1f	 and	 eax, 31
  0015a	41 0f a3 c6	 bt	 r14d, eax
  0015e	73 1c		 jae	 SHORT $LN90@stringlib_@4
$LN10@stringlib_@4:
  00160	4d 2b cd	 sub	 r9, r13
  00163	4d 2b c5	 sub	 r8, r13
  00166	eb 1a		 jmp	 SHORT $LN18@stringlib_@4
$LN16@stringlib_@4:
  00168	4d 85 c9	 test	 r9, r9
  0016b	7e 15		 jle	 SHORT $LN18@stringlib_@4
  0016d	41 0f be 44 29
	ff		 movsx	 eax, BYTE PTR [r9+rbp-1]
  00173	83 e0 1f	 and	 eax, 31
  00176	41 0f a3 c6	 bt	 r14d, eax
  0017a	72 06		 jb	 SHORT $LN18@stringlib_@4
$LN90@stringlib_@4:
  0017c	4c 2b cb	 sub	 r9, rbx
  0017f	4c 2b c3	 sub	 r8, rbx
$LN18@stringlib_@4:
  00182	49 ff c8	 dec	 r8
  00185	49 ff c9	 dec	 r9
  00188	79 97		 jns	 SHORT $LL19@stringlib_@4
  0018a	e9 f8 fe ff ff	 jmp	 $LN1@stringlib_@4
$LN83@stringlib_@4:
  0018f	4d 8b d1	 mov	 r10, r9

; 40   : 
; 41   :     if (pos >= 0)

  00192	4d 85 c9	 test	 r9, r9
  00195	0f 88 ec fe ff
	ff		 js	 $LN1@stringlib_@4

; 42   :         pos += offset;

  0019b	48 8b 44 24 50	 mov	 rax, QWORD PTR offset$[rsp]
  001a0	4d 8d 14 01	 lea	 r10, QWORD PTR [r9+rax]
  001a4	e9 de fe ff ff	 jmp	 $LN1@stringlib_@4
stringlib_rfind ENDP
_TEXT	ENDS
;	COMDAT pdata
pdata	SEGMENT
$pdata$stringlib_find_slice DD imagerel stringlib_find_slice
	DD	imagerel stringlib_find_slice+75
	DD	imagerel $unwind$stringlib_find_slice
pdata	ENDS
;	COMDAT xdata
xdata	SEGMENT
$unwind$stringlib_find_slice DD 010401H
	DD	06204H
; Function compile flags: /Ogtpy
xdata	ENDS
;	COMDAT stringlib_find_slice
_TEXT	SEGMENT
str$ = 64
str_len$ = 72
sub$ = 80
sub_len$ = 88
start$ = 96
end$ = 104
stringlib_find_slice PROC				; COMDAT

; 66   : {

  00000	48 83 ec 38	 sub	 rsp, 56			; 00000038H
  00004	4c 8b d2	 mov	 r10, rdx

; 67   :     ADJUST_INDICES(start, end, str_len);

  00007	48 8b 54 24 68	 mov	 rdx, QWORD PTR end$[rsp]
  0000c	45 33 db	 xor	 r11d, r11d
  0000f	49 3b d2	 cmp	 rdx, r10
  00012	7e 05		 jle	 SHORT $LN6@stringlib_@5
  00014	49 8b d2	 mov	 rdx, r10
  00017	eb 0c		 jmp	 SHORT $LN3@stringlib_@5
$LN6@stringlib_@5:
  00019	48 85 d2	 test	 rdx, rdx
  0001c	79 07		 jns	 SHORT $LN3@stringlib_@5
  0001e	49 03 d2	 add	 rdx, r10
  00021	49 0f 48 d3	 cmovs	 rdx, r11
$LN3@stringlib_@5:
  00025	48 8b 44 24 60	 mov	 rax, QWORD PTR start$[rsp]
  0002a	48 85 c0	 test	 rax, rax
  0002d	79 07		 jns	 SHORT $LN1@stringlib_@5
  0002f	49 03 c2	 add	 rax, r10
  00032	49 0f 48 c3	 cmovs	 rax, r11
$LN1@stringlib_@5:

; 68   :     return STRINGLIB(find)(str + start, end - start, sub, sub_len, start);

  00036	48 2b d0	 sub	 rdx, rax
  00039	48 03 c8	 add	 rcx, rax
  0003c	48 89 44 24 20	 mov	 QWORD PTR [rsp+32], rax
  00041	e8 00 00 00 00	 call	 stringlib_find

; 69   : }

  00046	48 83 c4 38	 add	 rsp, 56			; 00000038H
  0004a	c3		 ret	 0
stringlib_find_slice ENDP
_TEXT	ENDS
;	COMDAT pdata
pdata	SEGMENT
$pdata$stringlib_rfind_slice DD imagerel stringlib_rfind_slice
	DD	imagerel stringlib_rfind_slice+75
	DD	imagerel $unwind$stringlib_rfind_slice
pdata	ENDS
;	COMDAT xdata
xdata	SEGMENT
$unwind$stringlib_rfind_slice DD 010401H
	DD	06204H
; Function compile flags: /Ogtpy
xdata	ENDS
;	COMDAT stringlib_rfind_slice
_TEXT	SEGMENT
str$ = 64
str_len$ = 72
sub$ = 80
sub_len$ = 88
start$ = 96
end$ = 104
stringlib_rfind_slice PROC				; COMDAT

; 75   : {

  00000	48 83 ec 38	 sub	 rsp, 56			; 00000038H
  00004	4c 8b d2	 mov	 r10, rdx

; 76   :     ADJUST_INDICES(start, end, str_len);

  00007	48 8b 54 24 68	 mov	 rdx, QWORD PTR end$[rsp]
  0000c	45 33 db	 xor	 r11d, r11d
  0000f	49 3b d2	 cmp	 rdx, r10
  00012	7e 05		 jle	 SHORT $LN6@stringlib_@6
  00014	49 8b d2	 mov	 rdx, r10
  00017	eb 0c		 jmp	 SHORT $LN3@stringlib_@6
$LN6@stringlib_@6:
  00019	48 85 d2	 test	 rdx, rdx
  0001c	79 07		 jns	 SHORT $LN3@stringlib_@6
  0001e	49 03 d2	 add	 rdx, r10
  00021	49 0f 48 d3	 cmovs	 rdx, r11
$LN3@stringlib_@6:
  00025	48 8b 44 24 60	 mov	 rax, QWORD PTR start$[rsp]
  0002a	48 85 c0	 test	 rax, rax
  0002d	79 07		 jns	 SHORT $LN1@stringlib_@6
  0002f	49 03 c2	 add	 rax, r10
  00032	49 0f 48 c3	 cmovs	 rax, r11
$LN1@stringlib_@6:

; 77   :     return STRINGLIB(rfind)(str + start, end - start, sub, sub_len, start);

  00036	48 2b d0	 sub	 rdx, rax
  00039	48 03 c8	 add	 rcx, rax
  0003c	48 89 44 24 20	 mov	 QWORD PTR [rsp+32], rax
  00041	e8 00 00 00 00	 call	 stringlib_rfind

; 78   : }

  00046	48 83 c4 38	 add	 rsp, 56			; 00000038H
  0004a	c3		 ret	 0
stringlib_rfind_slice ENDP
_TEXT	ENDS
PUBLIC	??_C@_05BBAJLHME@O?$HMOO?3?$AA@			; `string'
EXTRN	_PyEval_SliceIndex:PROC
EXTRN	_PyArg_ParseTuple_SizeT:PROC
EXTRN	__imp_strncpy:PROC
EXTRN	_Py_NoneStruct:BYTE
;	COMDAT pdata
pdata	SEGMENT
$pdata$stringlib_parse_args_finds DD imagerel stringlib_parse_args_finds
	DD	imagerel stringlib_parse_args_finds+307
	DD	imagerel $unwind$stringlib_parse_args_finds
pdata	ENDS
;	COMDAT xdata
xdata	SEGMENT
$unwind$stringlib_parse_args_finds DD 0b2001H
	DD	0187420H
	DD	0176420H
	DD	0163420H
	DD	0120120H
	DD	0c012d014H
	DD	05010H
xdata	ENDS
;	COMDAT ??_C@_05BBAJLHME@O?$HMOO?3?$AA@
CONST	SEGMENT
??_C@_05BBAJLHME@O?$HMOO?3?$AA@ DB 'O|OO:', 00H		; `string'
; Function compile flags: /Ogtpy
CONST	ENDS
;	COMDAT stringlib_parse_args_finds
_TEXT	SEGMENT
tmp_start$ = 48
tmp_end$ = 56
obj_end$ = 64
obj_start$ = 72
tmp_subobj$ = 80
format$ = 88
function_name$ = 176
args$ = 184
subobj$ = 192
start$ = 200
end$ = 208
stringlib_parse_args_finds PROC				; COMDAT

; 108  : {

  00000	48 89 5c 24 08	 mov	 QWORD PTR [rsp+8], rbx
  00005	48 89 74 24 10	 mov	 QWORD PTR [rsp+16], rsi
  0000a	48 89 7c 24 18	 mov	 QWORD PTR [rsp+24], rdi
  0000f	55		 push	 rbp
  00010	41 54		 push	 r12
  00012	41 55		 push	 r13
  00014	48 8d 6c 24 c1	 lea	 rbp, QWORD PTR [rsp-63]
  00019	48 81 ec 90 00
	00 00		 sub	 rsp, 144		; 00000090H

; 109  :     PyObject *tmp_subobj;
; 110  :     Py_ssize_t tmp_start = 0;
; 111  :     Py_ssize_t tmp_end = PY_SSIZE_T_MAX;

  00020	48 b8 ff ff ff
	ff ff ff ff 7f	 mov	 rax, 9223372036854775807 ; 7fffffffffffffffH
  0002a	4d 8b e0	 mov	 r12, r8
  0002d	48 8b da	 mov	 rbx, rdx
  00030	48 8b d1	 mov	 rdx, rcx

; 112  :     PyObject *obj_start=Py_None, *obj_end=Py_None;
; 113  :     char format[FORMAT_BUFFER_SIZE] = "O|OO:";
; 114  :     size_t len = strlen(format);

  00033	48 83 c9 ff	 or	 rcx, -1
  00037	48 89 45 e7	 mov	 QWORD PTR tmp_end$[rbp-81], rax
  0003b	8b 05 00 00 00
	00		 mov	 eax, DWORD PTR ??_C@_05BBAJLHME@O?$HMOO?3?$AA@
  00041	4c 8d 2d 00 00
	00 00		 lea	 r13, OFFSET FLAT:_Py_NoneStruct
  00048	48 8d 7d 07	 lea	 rdi, QWORD PTR format$[rbp-81]
  0004c	89 45 07	 mov	 DWORD PTR format$[rbp-81], eax
  0004f	0f b7 05 04 00
	00 00		 movzx	 eax, WORD PTR ??_C@_05BBAJLHME@O?$HMOO?3?$AA@+4

; 115  : 
; 116  :     strncpy(format + len, function_name, FORMAT_BUFFER_SIZE - len - 1);

  00056	41 b8 31 00 00
	00		 mov	 r8d, 49			; 00000031H
  0005c	66 89 45 0b	 mov	 WORD PTR format$[rbp-77], ax
  00060	33 c0		 xor	 eax, eax
  00062	49 8b f1	 mov	 rsi, r9
  00065	48 89 45 0d	 mov	 QWORD PTR format$[rbp-75], rax
  00069	48 89 45 15	 mov	 QWORD PTR format$[rbp-67], rax
  0006d	48 89 45 1d	 mov	 QWORD PTR format$[rbp-59], rax
  00071	48 89 45 25	 mov	 QWORD PTR format$[rbp-51], rax
  00075	48 89 45 2d	 mov	 QWORD PTR format$[rbp-43], rax
  00079	89 45 35	 mov	 DWORD PTR format$[rbp-35], eax
  0007c	f2 ae		 repne scasb
  0007e	48 c7 45 df 00
	00 00 00	 mov	 QWORD PTR tmp_start$[rbp-81], 0
  00086	4c 89 6d f7	 mov	 QWORD PTR obj_start$[rbp-81], r13
  0008a	48 f7 d1	 not	 rcx
  0008d	4c 89 6d ef	 mov	 QWORD PTR obj_end$[rbp-81], r13
  00091	48 ff c9	 dec	 rcx
  00094	4c 2b c1	 sub	 r8, rcx
  00097	48 8d 4c 0d 07	 lea	 rcx, QWORD PTR format$[rbp+rcx-81]
  0009c	ff 15 00 00 00
	00		 call	 QWORD PTR __imp_strncpy

; 117  :     format[FORMAT_BUFFER_SIZE - 1] = '\0';
; 118  : 
; 119  :     if (!PyArg_ParseTuple(args, format, &tmp_subobj, &obj_start, &obj_end))

  000a2	48 8d 45 ef	 lea	 rax, QWORD PTR obj_end$[rbp-81]
  000a6	4c 8d 4d f7	 lea	 r9, QWORD PTR obj_start$[rbp-81]
  000aa	4c 8d 45 ff	 lea	 r8, QWORD PTR tmp_subobj$[rbp-81]
  000ae	48 8d 55 07	 lea	 rdx, QWORD PTR format$[rbp-81]
  000b2	48 8b cb	 mov	 rcx, rbx
  000b5	48 89 44 24 20	 mov	 QWORD PTR [rsp+32], rax
  000ba	c6 45 38 00	 mov	 BYTE PTR format$[rbp-32], 0
  000be	e8 00 00 00 00	 call	 _PyArg_ParseTuple_SizeT
  000c3	85 c0		 test	 eax, eax
  000c5	75 04		 jne	 SHORT $LN5@stringlib_@7
$LN8@stringlib_@7:

; 120  :         return 0;

  000c7	33 c0		 xor	 eax, eax
  000c9	eb 4b		 jmp	 SHORT $LN6@stringlib_@7
$LN5@stringlib_@7:

; 121  : 
; 122  :     /* To support None in "start" and "end" arguments, meaning
; 123  :        the same as if they were not passed.
; 124  :     */
; 125  :     if (obj_start != Py_None)

  000cb	48 8b 4d f7	 mov	 rcx, QWORD PTR obj_start$[rbp-81]
  000cf	49 3b cd	 cmp	 rcx, r13
  000d2	74 0d		 je	 SHORT $LN3@stringlib_@7

; 126  :         if (!_PyEval_SliceIndex(obj_start, &tmp_start))

  000d4	48 8d 55 df	 lea	 rdx, QWORD PTR tmp_start$[rbp-81]
  000d8	e8 00 00 00 00	 call	 _PyEval_SliceIndex
  000dd	85 c0		 test	 eax, eax

; 127  :             return 0;

  000df	74 e6		 je	 SHORT $LN8@stringlib_@7
$LN3@stringlib_@7:

; 128  :     if (obj_end != Py_None)

  000e1	48 8b 4d ef	 mov	 rcx, QWORD PTR obj_end$[rbp-81]
  000e5	49 3b cd	 cmp	 rcx, r13
  000e8	74 0d		 je	 SHORT $LN1@stringlib_@7

; 129  :         if (!_PyEval_SliceIndex(obj_end, &tmp_end))

  000ea	48 8d 55 e7	 lea	 rdx, QWORD PTR tmp_end$[rbp-81]
  000ee	e8 00 00 00 00	 call	 _PyEval_SliceIndex
  000f3	85 c0		 test	 eax, eax

; 130  :             return 0;

  000f5	74 d0		 je	 SHORT $LN8@stringlib_@7
$LN1@stringlib_@7:

; 131  : 
; 132  :     *start = tmp_start;

  000f7	48 8b 45 df	 mov	 rax, QWORD PTR tmp_start$[rbp-81]

; 133  :     *end = tmp_end;

  000fb	48 8b 4d 7f	 mov	 rcx, QWORD PTR end$[rbp-81]
  000ff	48 89 06	 mov	 QWORD PTR [rsi], rax
  00102	48 8b 45 e7	 mov	 rax, QWORD PTR tmp_end$[rbp-81]
  00106	48 89 01	 mov	 QWORD PTR [rcx], rax

; 134  :     *subobj = tmp_subobj;

  00109	48 8b 45 ff	 mov	 rax, QWORD PTR tmp_subobj$[rbp-81]
  0010d	49 89 04 24	 mov	 QWORD PTR [r12], rax

; 135  :     return 1;

  00111	b8 01 00 00 00	 mov	 eax, 1
$LN6@stringlib_@7:

; 136  : }

  00116	4c 8d 9c 24 90
	00 00 00	 lea	 r11, QWORD PTR [rsp+144]
  0011e	49 8b 5b 20	 mov	 rbx, QWORD PTR [r11+32]
  00122	49 8b 73 28	 mov	 rsi, QWORD PTR [r11+40]
  00126	49 8b 7b 30	 mov	 rdi, QWORD PTR [r11+48]
  0012a	49 8b e3	 mov	 rsp, r11
  0012d	41 5d		 pop	 r13
  0012f	41 5c		 pop	 r12
  00131	5d		 pop	 rbp
  00132	c3		 ret	 0
stringlib_parse_args_finds ENDP
_TEXT	ENDS
PUBLIC	??_C@_0BO@NJOIMFKH@byte?5must?5be?5in?5range?$CI0?0?5256?$CJ?$AA@ ; `string'
EXTRN	PyExc_ValueError:QWORD
EXTRN	PyErr_Clear:PROC
EXTRN	PyErr_GivenExceptionMatches:PROC
EXTRN	PyErr_Occurred:PROC
EXTRN	PyNumber_AsSsize_t:PROC
EXTRN	PyNumber_Check:PROC
;	COMDAT pdata
pdata	SEGMENT
$pdata$stringlib_parse_args_finds_byte DD imagerel stringlib_parse_args_finds_byte
	DD	imagerel stringlib_parse_args_finds_byte+56
	DD	imagerel $unwind$stringlib_parse_args_finds_byte
pdata	ENDS
;	COMDAT pdata
pdata	SEGMENT
$pdata$0$stringlib_parse_args_finds_byte DD imagerel stringlib_parse_args_finds_byte+56
	DD	imagerel stringlib_parse_args_finds_byte+157
	DD	imagerel $chain$0$stringlib_parse_args_finds_byte
pdata	ENDS
;	COMDAT pdata
pdata	SEGMENT
$pdata$2$stringlib_parse_args_finds_byte DD imagerel stringlib_parse_args_finds_byte+157
	DD	imagerel stringlib_parse_args_finds_byte+195
	DD	imagerel $chain$2$stringlib_parse_args_finds_byte
pdata	ENDS
;	COMDAT pdata
pdata	SEGMENT
$pdata$4$stringlib_parse_args_finds_byte DD imagerel stringlib_parse_args_finds_byte+195
	DD	imagerel stringlib_parse_args_finds_byte+232
	DD	imagerel $chain$4$stringlib_parse_args_finds_byte
pdata	ENDS
;	COMDAT xdata
xdata	SEGMENT
$chain$4$stringlib_parse_args_finds_byte DD 020021H
	DD	0a3400H
	DD	imagerel stringlib_parse_args_finds_byte
	DD	imagerel stringlib_parse_args_finds_byte+56
	DD	imagerel $unwind$stringlib_parse_args_finds_byte
xdata	ENDS
;	COMDAT xdata
xdata	SEGMENT
$chain$2$stringlib_parse_args_finds_byte DD 020021H
	DD	0a3400H
	DD	imagerel stringlib_parse_args_finds_byte
	DD	imagerel stringlib_parse_args_finds_byte+56
	DD	imagerel $unwind$stringlib_parse_args_finds_byte
xdata	ENDS
;	COMDAT xdata
xdata	SEGMENT
$chain$0$stringlib_parse_args_finds_byte DD 020521H
	DD	0a3405H
	DD	imagerel stringlib_parse_args_finds_byte
	DD	imagerel stringlib_parse_args_finds_byte+56
	DD	imagerel $unwind$stringlib_parse_args_finds_byte
xdata	ENDS
;	COMDAT xdata
xdata	SEGMENT
$unwind$stringlib_parse_args_finds_byte DD 040a01H
	DD	0b640aH
	DD	07006720aH
xdata	ENDS
;	COMDAT ??_C@_0BO@NJOIMFKH@byte?5must?5be?5in?5range?$CI0?0?5256?$CJ?$AA@
CONST	SEGMENT
??_C@_0BO@NJOIMFKH@byte?5must?5be?5in?5range?$CI0?0?5256?$CJ?$AA@ DB 'byt'
	DB	'e must be in range(0, 256)', 00H		; `string'
; Function compile flags: /Ogtpy
CONST	ENDS
;	COMDAT stringlib_parse_args_finds_byte
_TEXT	SEGMENT
tmp_subobj$ = 48
function_name$ = 80
args$ = 88
subobj$ = 96
byte$ = 104
start$ = 112
end$ = 120
stringlib_parse_args_finds_byte PROC			; COMDAT

; 186  : {

  00000	48 89 74 24 10	 mov	 QWORD PTR [rsp+16], rsi
  00005	57		 push	 rdi
  00006	48 83 ec 40	 sub	 rsp, 64			; 00000040H

; 187  :     PyObject *tmp_subobj;
; 188  :     Py_ssize_t ival;
; 189  :     PyObject *err;
; 190  : 
; 191  :     if(!STRINGLIB(parse_args_finds)(function_name, args, &tmp_subobj,
; 192  :                                     start, end))

  0000a	48 8b 44 24 78	 mov	 rax, QWORD PTR end$[rsp]
  0000f	49 8b f1	 mov	 rsi, r9
  00012	4c 8b 4c 24 70	 mov	 r9, QWORD PTR start$[rsp]
  00017	49 8b f8	 mov	 rdi, r8
  0001a	4c 8d 44 24 30	 lea	 r8, QWORD PTR tmp_subobj$[rsp]
  0001f	48 89 44 24 20	 mov	 QWORD PTR [rsp+32], rax
  00024	e8 00 00 00 00	 call	 stringlib_parse_args_finds
  00029	85 c0		 test	 eax, eax
  0002b	75 0b		 jne	 SHORT $LN6@stringlib_@8

; 218  : }

  0002d	48 8b 74 24 58	 mov	 rsi, QWORD PTR [rsp+88]
  00032	48 83 c4 40	 add	 rsp, 64			; 00000040H
  00036	5f		 pop	 rdi
  00037	c3		 ret	 0
$LN6@stringlib_@8:
  00038	48 89 5c 24 50	 mov	 QWORD PTR [rsp+80], rbx

; 193  :         return 0;
; 194  : 
; 195  :     if (!PyNumber_Check(tmp_subobj)) {

  0003d	48 8b 5c 24 30	 mov	 rbx, QWORD PTR tmp_subobj$[rsp]
  00042	48 8b cb	 mov	 rcx, rbx
  00045	e8 00 00 00 00	 call	 PyNumber_Check
  0004a	85 c0		 test	 eax, eax

; 196  :         *subobj = tmp_subobj;
; 197  :         return 1;

  0004c	74 37		 je	 SHORT $LN10@stringlib_@8

; 198  :     }
; 199  : 
; 200  :     ival = PyNumber_AsSsize_t(tmp_subobj, PyExc_OverflowError);

  0004e	48 8b 15 00 00
	00 00		 mov	 rdx, QWORD PTR PyExc_OverflowError
  00055	48 8b cb	 mov	 rcx, rbx
  00058	e8 00 00 00 00	 call	 PyNumber_AsSsize_t

; 201  :     if (ival == -1) {

  0005d	48 83 f8 ff	 cmp	 rax, -1
  00061	75 3a		 jne	 SHORT $LN3@stringlib_@8

; 202  :         err = PyErr_Occurred();

  00063	e8 00 00 00 00	 call	 PyErr_Occurred

; 203  :         if (err && !PyErr_GivenExceptionMatches(err, PyExc_OverflowError)) {

  00068	48 85 c0	 test	 rax, rax
  0006b	74 56		 je	 SHORT $LN1@stringlib_@8
  0006d	48 8b 15 00 00
	00 00		 mov	 rdx, QWORD PTR PyExc_OverflowError
  00074	48 8b c8	 mov	 rcx, rax
  00077	e8 00 00 00 00	 call	 PyErr_GivenExceptionMatches
  0007c	85 c0		 test	 eax, eax
  0007e	75 43		 jne	 SHORT $LN1@stringlib_@8

; 204  :             PyErr_Clear();

  00080	e8 00 00 00 00	 call	 PyErr_Clear
$LN10@stringlib_@8:

; 205  :             *subobj = tmp_subobj;

  00085	48 89 1f	 mov	 QWORD PTR [rdi], rbx
  00088	48 8b 5c 24 50	 mov	 rbx, QWORD PTR [rsp+80]

; 206  :             return 1;

  0008d	b8 01 00 00 00	 mov	 eax, 1

; 218  : }

  00092	48 8b 74 24 58	 mov	 rsi, QWORD PTR [rsp+88]
  00097	48 83 c4 40	 add	 rsp, 64			; 00000040H
  0009b	5f		 pop	 rdi
  0009c	c3		 ret	 0
$LN3@stringlib_@8:

; 207  :         }
; 208  :     }
; 209  : 
; 210  :     if (ival < 0 || ival > 255) {

  0009d	48 3d ff 00 00
	00		 cmp	 rax, 255		; 000000ffH
  000a3	77 1e		 ja	 SHORT $LN1@stringlib_@8

; 212  :         return 0;
; 213  :     }
; 214  : 
; 215  :     *subobj = NULL;

  000a5	48 8b 5c 24 50	 mov	 rbx, QWORD PTR [rsp+80]
  000aa	48 c7 07 00 00
	00 00		 mov	 QWORD PTR [rdi], 0

; 216  :     *byte = (char)ival;

  000b1	88 06		 mov	 BYTE PTR [rsi], al

; 217  :     return 1;

  000b3	b8 01 00 00 00	 mov	 eax, 1

; 218  : }

  000b8	48 8b 74 24 58	 mov	 rsi, QWORD PTR [rsp+88]
  000bd	48 83 c4 40	 add	 rsp, 64			; 00000040H
  000c1	5f		 pop	 rdi
  000c2	c3		 ret	 0
$LN1@stringlib_@8:

; 211  :         PyErr_SetString(PyExc_ValueError, "byte must be in range(0, 256)");

  000c3	48 8b 0d 00 00
	00 00		 mov	 rcx, QWORD PTR PyExc_ValueError
  000ca	48 8d 15 00 00
	00 00		 lea	 rdx, OFFSET FLAT:??_C@_0BO@NJOIMFKH@byte?5must?5be?5in?5range?$CI0?0?5256?$CJ?$AA@
  000d1	e8 00 00 00 00	 call	 PyErr_SetString
  000d6	48 8b 5c 24 50	 mov	 rbx, QWORD PTR [rsp+80]

; 218  : }

  000db	48 8b 74 24 58	 mov	 rsi, QWORD PTR [rsp+88]
  000e0	33 c0		 xor	 eax, eax
  000e2	48 83 c4 40	 add	 rsp, 64			; 00000040H
  000e6	5f		 pop	 rdi
  000e7	c3		 ret	 0
stringlib_parse_args_finds_byte ENDP
_TEXT	ENDS
PUBLIC	??_C@_0BA@JDENDMBF@empty?5separator?$AA@	; `string'
EXTRN	PyTuple_New:PROC
;	COMDAT pdata
; File c:\src\pyparallel\objects\stringlib\fastsearch.h
pdata	SEGMENT
$pdata$stringlib_partition DD imagerel stringlib_partition
	DD	imagerel stringlib_partition+81
	DD	imagerel $unwind$stringlib_partition
pdata	ENDS
;	COMDAT pdata
pdata	SEGMENT
$pdata$0$stringlib_partition DD imagerel stringlib_partition+81
	DD	imagerel stringlib_partition+116
	DD	imagerel $chain$0$stringlib_partition
pdata	ENDS
;	COMDAT pdata
pdata	SEGMENT
$pdata$5$stringlib_partition DD imagerel stringlib_partition+116
	DD	imagerel stringlib_partition+361
	DD	imagerel $chain$5$stringlib_partition
pdata	ENDS
;	COMDAT pdata
pdata	SEGMENT
$pdata$7$stringlib_partition DD imagerel stringlib_partition+361
	DD	imagerel stringlib_partition+736
	DD	imagerel $chain$7$stringlib_partition
pdata	ENDS
;	COMDAT xdata
xdata	SEGMENT
$chain$7$stringlib_partition DD 080021H
	DD	08f400H
	DD	096400H
	DD	0a5400H
	DD	0113400H
	DD	imagerel stringlib_partition
	DD	imagerel stringlib_partition+81
	DD	imagerel $unwind$stringlib_partition
xdata	ENDS
;	COMDAT xdata
xdata	SEGMENT
$chain$5$stringlib_partition DD 081221H
	DD	096412H
	DD	0a540dH
	DD	0113408H
	DD	08f400H
	DD	imagerel stringlib_partition
	DD	imagerel stringlib_partition+81
	DD	imagerel $unwind$stringlib_partition
xdata	ENDS
;	COMDAT xdata
xdata	SEGMENT
$chain$0$stringlib_partition DD 020521H
	DD	08f405H
	DD	imagerel stringlib_partition
	DD	imagerel stringlib_partition+81
	DD	imagerel $unwind$stringlib_partition
xdata	ENDS
;	COMDAT xdata
xdata	SEGMENT
$unwind$stringlib_partition DD 051501H
	DD	0e011a215H
	DD	0c00dd00fH
	DD	0700bH
xdata	ENDS
;	COMDAT ??_C@_0BA@JDENDMBF@empty?5separator?$AA@
CONST	SEGMENT
??_C@_0BA@JDENDMBF@empty?5separator?$AA@ DB 'empty separator', 00H ; `string'
; Function compile flags: /Ogtpy
; File c:\src\pyparallel\objects\stringlib\partition.h
CONST	ENDS
;	COMDAT stringlib_partition
_TEXT	SEGMENT
mask$1$ = 32
skip$1$ = 40
mlast$1$ = 48
w$1$ = 56
str_obj$ = 128
str$ = 136
str_len$ = 144
sep_obj$ = 152
sep$ = 160
sep_len$ = 168
stringlib_partition PROC				; COMDAT

; 12   : {

  00000	4c 89 4c 24 20	 mov	 QWORD PTR [rsp+32], r9
  00005	48 89 4c 24 08	 mov	 QWORD PTR [rsp+8], rcx
  0000a	57		 push	 rdi
  0000b	41 54		 push	 r12
  0000d	41 55		 push	 r13
  0000f	41 56		 push	 r14
  00011	48 83 ec 58	 sub	 rsp, 88			; 00000058H

; 13   :     PyObject* out;
; 14   :     Py_ssize_t pos;
; 15   : 
; 16   :     if (sep_len == 0) {

  00015	4c 8b ac 24 a8
	00 00 00	 mov	 r13, QWORD PTR sep_len$[rsp]
  0001d	49 8b f9	 mov	 rdi, r9
  00020	4d 8b f0	 mov	 r14, r8
  00023	4c 8b e2	 mov	 r12, rdx
  00026	4d 85 ed	 test	 r13, r13
  00029	75 21		 jne	 SHORT $LN4@stringlib_@9

; 17   :         PyErr_SetString(PyExc_ValueError, "empty separator");

  0002b	48 8b 0d 00 00
	00 00		 mov	 rcx, QWORD PTR PyExc_ValueError
  00032	48 8d 15 00 00
	00 00		 lea	 rdx, OFFSET FLAT:??_C@_0BA@JDENDMBF@empty?5separator?$AA@
  00039	e8 00 00 00 00	 call	 PyErr_SetString

; 18   :         return NULL;

  0003e	33 c0		 xor	 eax, eax

; 52   :     }
; 53   : 
; 54   :     return out;
; 55   : }

  00040	48 83 c4 58	 add	 rsp, 88			; 00000058H
  00044	41 5e		 pop	 r14
  00046	41 5d		 pop	 r13
  00048	41 5c		 pop	 r12
  0004a	5f		 pop	 rdi
  0004b	c3		 ret	 0
$LN4@stringlib_@9:

; 19   :     }
; 20   : 
; 21   :     out = PyTuple_New(3);

  0004c	b9 03 00 00 00	 mov	 ecx, 3
  00051	4c 89 7c 24 40	 mov	 QWORD PTR [rsp+64], r15
  00056	e8 00 00 00 00	 call	 PyTuple_New
  0005b	4c 8b f8	 mov	 r15, rax

; 22   :     if (!out)

  0005e	48 85 c0	 test	 rax, rax
  00061	75 11		 jne	 SHORT $LN3@stringlib_@9
  00063	4c 8b 7c 24 40	 mov	 r15, QWORD PTR [rsp+64]

; 52   :     }
; 53   : 
; 54   :     return out;
; 55   : }

  00068	48 83 c4 58	 add	 rsp, 88			; 00000058H
  0006c	41 5e		 pop	 r14
  0006e	41 5d		 pop	 r13
  00070	41 5c		 pop	 r12
  00072	5f		 pop	 rdi
  00073	c3		 ret	 0
$LN3@stringlib_@9:
  00074	48 89 9c 24 88
	00 00 00	 mov	 QWORD PTR [rsp+136], rbx
  0007c	48 89 6c 24 50	 mov	 QWORD PTR [rsp+80], rbp
  00081	48 89 74 24 48	 mov	 QWORD PTR [rsp+72], rsi

; 23   :         return NULL;
; 24   : 
; 25   :     pos = FASTSEARCH(str, str_len, sep, sep_len, -1, FAST_SEARCH);

  00086	49 8b f6	 mov	 rsi, r14
  00089	49 2b f5	 sub	 rsi, r13
  0008c	48 89 74 24 38	 mov	 QWORD PTR w$1$[rsp], rsi
  00091	78 72		 js	 SHORT $LN90@stringlib_@9
  00093	49 83 fd 01	 cmp	 r13, 1
  00097	0f 8f cc 00 00
	00		 jg	 $LN65@stringlib_@9
  0009d	4d 85 ed	 test	 r13, r13
  000a0	7e 63		 jle	 SHORT $LN90@stringlib_@9
  000a2	49 83 fe 0a	 cmp	 r14, 10
  000a6	7e 39		 jle	 SHORT $LN63@stringlib_@9
  000a8	48 8b 84 24 a0
	00 00 00	 mov	 rax, QWORD PTR sep$[rsp]
  000b0	4f 8d 04 34	 lea	 r8, QWORD PTR [r12+r14]
  000b4	4d 3b e0	 cmp	 r12, r8
  000b7	73 17		 jae	 SHORT $LN73@stringlib_@9
  000b9	0f b6 10	 movzx	 edx, BYTE PTR [rax]
  000bc	4d 2b c4	 sub	 r8, r12
  000bf	49 8b cc	 mov	 rcx, r12
  000c2	ff 15 00 00 00
	00		 call	 QWORD PTR __imp_memchr
  000c8	48 8b d8	 mov	 rbx, rax
  000cb	48 85 c0	 test	 rax, rax
  000ce	75 09		 jne	 SHORT $LN72@stringlib_@9
$LN73@stringlib_@9:
  000d0	48 83 cb ff	 or	 rbx, -1
  000d4	e9 ad 01 00 00	 jmp	 $LN68@stringlib_@9
$LN72@stringlib_@9:
  000d9	49 2b dc	 sub	 rbx, r12
  000dc	e9 a5 01 00 00	 jmp	 $LN68@stringlib_@9
$LN63@stringlib_@9:
  000e1	33 db		 xor	 ebx, ebx
  000e3	4d 85 f6	 test	 r14, r14
  000e6	7e 1d		 jle	 SHORT $LN90@stringlib_@9
  000e8	48 8b 84 24 a0
	00 00 00	 mov	 rax, QWORD PTR sep$[rsp]
  000f0	0f b6 08	 movzx	 ecx, BYTE PTR [rax]
$LL54@stringlib_@9:
  000f3	42 38 0c 23	 cmp	 BYTE PTR [rbx+r12], cl
  000f7	0f 84 89 01 00
	00		 je	 $LN68@stringlib_@9
  000fd	48 ff c3	 inc	 rbx
  00100	49 3b de	 cmp	 rbx, r14
  00103	7c ee		 jl	 SHORT $LL54@stringlib_@9
$LN90@stringlib_@9:

; 28   : #if STRINGLIB_MUTABLE
; 29   :         PyTuple_SET_ITEM(out, 0, STRINGLIB_NEW(str, str_len));
; 30   :         PyTuple_SET_ITEM(out, 1, STRINGLIB_NEW(NULL, 0));
; 31   :         PyTuple_SET_ITEM(out, 2, STRINGLIB_NEW(NULL, 0));
; 32   : #else
; 33   :         Py_INCREF(str_obj);

  00105	48 8b 9c 24 80
	00 00 00	 mov	 rbx, QWORD PTR str_obj$[rsp]
  0010d	48 8b cb	 mov	 rcx, rbx
  00110	e8 00 00 00 00	 call	 _Py_IncRef

; 34   :         PyTuple_SET_ITEM(out, 0, (PyObject*) str_obj);
; 35   :         Py_INCREF(STRINGLIB_EMPTY);

  00115	48 8b 0d 00 00
	00 00		 mov	 rcx, QWORD PTR nullstring
  0011c	49 89 5f 70	 mov	 QWORD PTR [r15+112], rbx
  00120	e8 00 00 00 00	 call	 _Py_IncRef

; 36   :         PyTuple_SET_ITEM(out, 1, (PyObject*) STRINGLIB_EMPTY);

  00125	48 8b 0d 00 00
	00 00		 mov	 rcx, QWORD PTR nullstring
  0012c	49 89 4f 78	 mov	 QWORD PTR [r15+120], rcx

; 37   :         Py_INCREF(STRINGLIB_EMPTY);

  00130	e8 00 00 00 00	 call	 _Py_IncRef

; 38   :         PyTuple_SET_ITEM(out, 2, (PyObject*) STRINGLIB_EMPTY);

  00135	4c 8b 1d 00 00
	00 00		 mov	 r11, QWORD PTR nullstring
  0013c	4d 89 9f 80 00
	00 00		 mov	 QWORD PTR [r15+128], r11
$LN1@stringlib_@9:

; 39   : #endif
; 40   :         return out;

  00143	49 8b c7	 mov	 rax, r15
$LN95@stringlib_@9:
  00146	48 8b 74 24 48	 mov	 rsi, QWORD PTR [rsp+72]
  0014b	48 8b 6c 24 50	 mov	 rbp, QWORD PTR [rsp+80]
  00150	48 8b 9c 24 88
	00 00 00	 mov	 rbx, QWORD PTR [rsp+136]
  00158	4c 8b 7c 24 40	 mov	 r15, QWORD PTR [rsp+64]

; 52   :     }
; 53   : 
; 54   :     return out;
; 55   : }

  0015d	48 83 c4 58	 add	 rsp, 88			; 00000058H
  00161	41 5e		 pop	 r14
  00163	41 5d		 pop	 r13
  00165	41 5c		 pop	 r12
  00167	5f		 pop	 rdi
  00168	c3		 ret	 0

; 23   :         return NULL;
; 24   : 
; 25   :     pos = FASTSEARCH(str, str_len, sep, sep_len, -1, FAST_SEARCH);

$LN65@stringlib_@9:
  00169	4d 8d 4d ff	 lea	 r9, QWORD PTR [r13-1]
  0016d	33 db		 xor	 ebx, ebx
  0016f	49 8d 41 ff	 lea	 rax, QWORD PTR [r9-1]
  00173	4c 89 4c 24 30	 mov	 QWORD PTR mlast$1$[rsp], r9
  00178	8b fb		 mov	 edi, ebx
  0017a	44 8d 53 01	 lea	 r10d, QWORD PTR [rbx+1]
  0017e	48 89 44 24 28	 mov	 QWORD PTR skip$1$[rsp], rax
  00183	4d 85 c9	 test	 r9, r9
  00186	7e 5d		 jle	 SHORT $LN42@stringlib_@9
  00188	4c 8b 9c 24 a0
	00 00 00	 mov	 r11, QWORD PTR sep$[rsp]
  00190	49 8b f1	 mov	 rsi, r9
  00193	48 8b f8	 mov	 rdi, rax
  00196	43 0f b6 2c 19	 movzx	 ebp, BYTE PTR [r9+r11]
  0019b	4c 8b c8	 mov	 r9, rax
  0019e	44 8b eb	 mov	 r13d, ebx
$LL44@stringlib_@9:
  001a1	45 0f be 03	 movsx	 r8d, BYTE PTR [r11]
  001a5	41 8b d2	 mov	 edx, r10d
  001a8	41 8b c8	 mov	 ecx, r8d
  001ab	83 e1 1f	 and	 ecx, 31
  001ae	d3 e2		 shl	 edx, cl
  001b0	44 0b ea	 or	 r13d, edx
  001b3	44 3a c5	 cmp	 r8b, bpl
  001b6	4c 0f 44 cf	 cmove	 r9, rdi
  001ba	49 ff c3	 inc	 r11
  001bd	48 ff cf	 dec	 rdi
  001c0	48 ff ce	 dec	 rsi
  001c3	75 dc		 jne	 SHORT $LL44@stringlib_@9
  001c5	48 8b 74 24 38	 mov	 rsi, QWORD PTR w$1$[rsp]
  001ca	44 89 6c 24 20	 mov	 DWORD PTR mask$1$[rsp], r13d
  001cf	4c 8b ac 24 a8
	00 00 00	 mov	 r13, QWORD PTR sep_len$[rsp]
  001d7	8b 7c 24 20	 mov	 edi, DWORD PTR mask$1$[rsp]
  001db	4c 89 4c 24 28	 mov	 QWORD PTR skip$1$[rsp], r9
  001e0	4c 8b 4c 24 30	 mov	 r9, QWORD PTR mlast$1$[rsp]
$LN42@stringlib_@9:
  001e5	48 8b ac 24 a0
	00 00 00	 mov	 rbp, QWORD PTR sep$[rsp]
  001ed	48 8b d3	 mov	 rdx, rbx
  001f0	41 0f be 04 29	 movsx	 eax, BYTE PTR [r9+rbp]
  001f5	83 e0 1f	 and	 eax, 31
  001f8	0f b6 c8	 movzx	 ecx, al
  001fb	41 d3 e2	 shl	 r10d, cl
  001fe	41 0b fa	 or	 edi, r10d
  00201	48 85 f6	 test	 rsi, rsi
  00204	0f 88 fb fe ff
	ff		 js	 $LN90@stringlib_@9
  0020a	4f 8d 1c 2c	 lea	 r11, QWORD PTR [r12+r13]
$LN97@stringlib_@9:
  0020e	41 0f b6 44 2d
	ff		 movzx	 eax, BYTE PTR [r13+rbp-1]
  00214	41 38 44 13 ff	 cmp	 BYTE PTR [r11+rdx-1], al
  00219	75 42		 jne	 SHORT $LN37@stringlib_@9
  0021b	4c 8b c3	 mov	 r8, rbx
  0021e	4d 85 c9	 test	 r9, r9
  00221	7e 21		 jle	 SHORT $LN91@stringlib_@9
  00223	4c 8b d2	 mov	 r10, rdx
  00226	48 8b cd	 mov	 rcx, rbp
  00229	4c 2b d5	 sub	 r10, rbp
  0022c	4d 03 d4	 add	 r10, r12
  0022f	90		 npad	 1
$LL36@stringlib_@9:
  00230	0f b6 01	 movzx	 eax, BYTE PTR [rcx]
  00233	41 38 04 0a	 cmp	 BYTE PTR [r10+rcx], al
  00237	75 0b		 jne	 SHORT $LN91@stringlib_@9
  00239	49 ff c0	 inc	 r8
  0023c	48 ff c1	 inc	 rcx
  0023f	4d 3b c1	 cmp	 r8, r9
  00242	7c ec		 jl	 SHORT $LL36@stringlib_@9
$LN91@stringlib_@9:
  00244	4d 3b c1	 cmp	 r8, r9
  00247	74 32		 je	 SHORT $LN84@stringlib_@9
  00249	41 0f be 04 13	 movsx	 eax, BYTE PTR [r11+rdx]
  0024e	83 e0 1f	 and	 eax, 31
  00251	0f a3 c7	 bt	 edi, eax
  00254	73 14		 jae	 SHORT $LN96@stringlib_@9
  00256	48 03 54 24 28	 add	 rdx, QWORD PTR skip$1$[rsp]
  0025b	eb 10		 jmp	 SHORT $LN39@stringlib_@9
$LN37@stringlib_@9:
  0025d	41 0f be 04 13	 movsx	 eax, BYTE PTR [r11+rdx]
  00262	83 e0 1f	 and	 eax, 31
  00265	0f a3 c7	 bt	 edi, eax
  00268	72 03		 jb	 SHORT $LN39@stringlib_@9
$LN96@stringlib_@9:
  0026a	49 03 d5	 add	 rdx, r13
$LN39@stringlib_@9:
  0026d	48 ff c2	 inc	 rdx
  00270	48 3b d6	 cmp	 rdx, rsi
  00273	0f 8f 8c fe ff
	ff		 jg	 $LN90@stringlib_@9
  00279	eb 93		 jmp	 SHORT $LN97@stringlib_@9
$LN84@stringlib_@9:
  0027b	48 8b bc 24 98
	00 00 00	 mov	 rdi, QWORD PTR sep_obj$[rsp]
  00283	48 8b da	 mov	 rbx, rdx
$LN68@stringlib_@9:

; 26   : 
; 27   :     if (pos < 0) {

  00286	48 85 db	 test	 rbx, rbx
  00289	0f 88 76 fe ff
	ff		 js	 $LN90@stringlib_@9

; 41   :     }
; 42   : 
; 43   :     PyTuple_SET_ITEM(out, 0, STRINGLIB_NEW(str, pos));

  0028f	48 8b d3	 mov	 rdx, rbx
  00292	49 8b cc	 mov	 rcx, r12
  00295	e8 00 00 00 00	 call	 PyBytes_FromStringAndSize

; 44   :     Py_INCREF(sep_obj);

  0029a	48 8b cf	 mov	 rcx, rdi
  0029d	49 89 47 70	 mov	 QWORD PTR [r15+112], rax
  002a1	e8 00 00 00 00	 call	 _Py_IncRef

; 45   :     PyTuple_SET_ITEM(out, 1, sep_obj);
; 46   :     pos += sep_len;

  002a6	49 03 dd	 add	 rbx, r13

; 47   :     PyTuple_SET_ITEM(out, 2, STRINGLIB_NEW(str + pos, str_len - pos));

  002a9	4c 2b f3	 sub	 r14, rbx
  002ac	4a 8d 0c 23	 lea	 rcx, QWORD PTR [rbx+r12]
  002b0	49 89 7f 78	 mov	 QWORD PTR [r15+120], rdi
  002b4	49 8b d6	 mov	 rdx, r14
  002b7	e8 00 00 00 00	 call	 PyBytes_FromStringAndSize
  002bc	49 89 87 80 00
	00 00		 mov	 QWORD PTR [r15+128], rax

; 48   : 
; 49   :     if (PyErr_Occurred()) {

  002c3	e8 00 00 00 00	 call	 PyErr_Occurred
  002c8	48 85 c0	 test	 rax, rax
  002cb	0f 84 72 fe ff
	ff		 je	 $LN1@stringlib_@9

; 50   :         Py_DECREF(out);

  002d1	49 8b cf	 mov	 rcx, r15
  002d4	e8 00 00 00 00	 call	 _Py_DecRef

; 51   :         return NULL;

  002d9	33 c0		 xor	 eax, eax
  002db	e9 66 fe ff ff	 jmp	 $LN95@stringlib_@9
stringlib_partition ENDP
_TEXT	ENDS
;	COMDAT pdata
; File c:\src\pyparallel\objects\stringlib\fastsearch.h
pdata	SEGMENT
$pdata$stringlib_rpartition DD imagerel stringlib_rpartition
	DD	imagerel stringlib_rpartition+82
	DD	imagerel $unwind$stringlib_rpartition
pdata	ENDS
;	COMDAT pdata
pdata	SEGMENT
$pdata$0$stringlib_rpartition DD imagerel stringlib_rpartition+82
	DD	imagerel stringlib_rpartition+115
	DD	imagerel $chain$0$stringlib_rpartition
pdata	ENDS
;	COMDAT pdata
pdata	SEGMENT
$pdata$5$stringlib_rpartition DD imagerel stringlib_rpartition+115
	DD	imagerel stringlib_rpartition+289
	DD	imagerel $chain$5$stringlib_rpartition
pdata	ENDS
;	COMDAT pdata
pdata	SEGMENT
$pdata$7$stringlib_rpartition DD imagerel stringlib_rpartition+289
	DD	imagerel stringlib_rpartition+626
	DD	imagerel $chain$7$stringlib_rpartition
pdata	ENDS
;	COMDAT xdata
xdata	SEGMENT
$chain$7$stringlib_rpartition DD 080021H
	DD	04f400H
	DD	05e400H
	DD	06c400H
	DD	0d3400H
	DD	imagerel stringlib_rpartition
	DD	imagerel stringlib_rpartition+82
	DD	imagerel $unwind$stringlib_rpartition
xdata	ENDS
;	COMDAT xdata
xdata	SEGMENT
$chain$5$stringlib_rpartition DD 081521H
	DD	04f415H
	DD	05e40dH
	DD	0d3405H
	DD	06c400H
	DD	imagerel stringlib_rpartition
	DD	imagerel stringlib_rpartition+82
	DD	imagerel $unwind$stringlib_rpartition
xdata	ENDS
;	COMDAT xdata
xdata	SEGMENT
$chain$0$stringlib_rpartition DD 020521H
	DD	06c405H
	DD	imagerel stringlib_rpartition
	DD	imagerel stringlib_rpartition+82
	DD	imagerel $unwind$stringlib_rpartition
xdata	ENDS
;	COMDAT xdata
xdata	SEGMENT
$unwind$stringlib_rpartition DD 051801H
	DD	0d0146218H
	DD	060117012H
	DD	05010H
; Function compile flags: /Ogtpy
; File c:\src\pyparallel\objects\stringlib\partition.h
xdata	ENDS
;	COMDAT stringlib_rpartition
_TEXT	SEGMENT
str_obj$ = 96
str$ = 104
str_len$ = 112
sep_obj$ = 120
sep$ = 128
sep_len$ = 136
stringlib_rpartition PROC				; COMDAT

; 62   : {

  00000	4c 89 4c 24 20	 mov	 QWORD PTR [rsp+32], r9
  00005	4c 89 44 24 18	 mov	 QWORD PTR [rsp+24], r8
  0000a	48 89 4c 24 08	 mov	 QWORD PTR [rsp+8], rcx
  0000f	55		 push	 rbp
  00010	56		 push	 rsi
  00011	57		 push	 rdi
  00012	41 55		 push	 r13
  00014	48 83 ec 38	 sub	 rsp, 56			; 00000038H

; 63   :     PyObject* out;
; 64   :     Py_ssize_t pos;
; 65   : 
; 66   :     if (sep_len == 0) {

  00018	48 8b bc 24 88
	00 00 00	 mov	 rdi, QWORD PTR sep_len$[rsp]
  00020	4d 8b e9	 mov	 r13, r9
  00023	49 8b e8	 mov	 rbp, r8
  00026	48 8b f2	 mov	 rsi, rdx
  00029	48 85 ff	 test	 rdi, rdi
  0002c	75 1f		 jne	 SHORT $LN4@stringlib_@10

; 67   :         PyErr_SetString(PyExc_ValueError, "empty separator");

  0002e	48 8b 0d 00 00
	00 00		 mov	 rcx, QWORD PTR PyExc_ValueError
  00035	48 8d 15 00 00
	00 00		 lea	 rdx, OFFSET FLAT:??_C@_0BA@JDENDMBF@empty?5separator?$AA@
  0003c	e8 00 00 00 00	 call	 PyErr_SetString

; 68   :         return NULL;

  00041	33 c0		 xor	 eax, eax

; 102  :     }
; 103  : 
; 104  :     return out;
; 105  : }

  00043	48 83 c4 38	 add	 rsp, 56			; 00000038H
  00047	41 5d		 pop	 r13
  00049	5f		 pop	 rdi
  0004a	5e		 pop	 rsi
  0004b	5d		 pop	 rbp
  0004c	c3		 ret	 0
$LN4@stringlib_@10:

; 69   :     }
; 70   : 
; 71   :     out = PyTuple_New(3);

  0004d	b9 03 00 00 00	 mov	 ecx, 3
  00052	4c 89 64 24 30	 mov	 QWORD PTR [rsp+48], r12
  00057	e8 00 00 00 00	 call	 PyTuple_New
  0005c	4c 8b e0	 mov	 r12, rax

; 72   :     if (!out)

  0005f	48 85 c0	 test	 rax, rax
  00062	75 0f		 jne	 SHORT $LN3@stringlib_@10
  00064	4c 8b 64 24 30	 mov	 r12, QWORD PTR [rsp+48]

; 102  :     }
; 103  : 
; 104  :     return out;
; 105  : }

  00069	48 83 c4 38	 add	 rsp, 56			; 00000038H
  0006d	41 5d		 pop	 r13
  0006f	5f		 pop	 rdi
  00070	5e		 pop	 rsi
  00071	5d		 pop	 rbp
  00072	c3		 ret	 0
$LN3@stringlib_@10:
  00073	48 89 5c 24 68	 mov	 QWORD PTR [rsp+104], rbx

; 73   :         return NULL;
; 74   : 
; 75   :     pos = FASTSEARCH(str, str_len, sep, sep_len, -1, FAST_RSEARCH);

  00078	48 8b dd	 mov	 rbx, rbp
  0007b	4c 89 74 24 28	 mov	 QWORD PTR [rsp+40], r14
  00080	48 2b df	 sub	 rbx, rdi
  00083	4c 89 7c 24 20	 mov	 QWORD PTR [rsp+32], r15
  00088	78 38		 js	 SHORT $LN90@stringlib_@10
  0008a	48 83 ff 01	 cmp	 rdi, 1
  0008e	0f 8f 8d 00 00
	00		 jg	 $LN65@stringlib_@10
  00094	48 85 ff	 test	 rdi, rdi
  00097	7e 29		 jle	 SHORT $LN90@stringlib_@10
  00099	48 8d 5d ff	 lea	 rbx, QWORD PTR [rbp-1]
  0009d	48 83 fb ff	 cmp	 rbx, -1
  000a1	7e 1f		 jle	 SHORT $LN90@stringlib_@10
  000a3	48 8b 84 24 80
	00 00 00	 mov	 rax, QWORD PTR sep$[rsp]
  000ab	0f b6 08	 movzx	 ecx, BYTE PTR [rax]
  000ae	66 90		 npad	 2
$LL49@stringlib_@10:
  000b0	38 0c 33	 cmp	 BYTE PTR [rbx+rsi], cl
  000b3	0f 84 5b 01 00
	00		 je	 $LN68@stringlib_@10
  000b9	48 ff cb	 dec	 rbx
  000bc	48 83 fb ff	 cmp	 rbx, -1
  000c0	7f ee		 jg	 SHORT $LL49@stringlib_@10
$LN90@stringlib_@10:

; 78   : #if STRINGLIB_MUTABLE
; 79   :         PyTuple_SET_ITEM(out, 0, STRINGLIB_NEW(NULL, 0));
; 80   :         PyTuple_SET_ITEM(out, 1, STRINGLIB_NEW(NULL, 0));
; 81   :         PyTuple_SET_ITEM(out, 2, STRINGLIB_NEW(str, str_len));
; 82   : #else
; 83   :         Py_INCREF(STRINGLIB_EMPTY);

  000c2	48 8b 0d 00 00
	00 00		 mov	 rcx, QWORD PTR nullstring
  000c9	e8 00 00 00 00	 call	 _Py_IncRef

; 84   :         PyTuple_SET_ITEM(out, 0, (PyObject*) STRINGLIB_EMPTY);

  000ce	48 8b 0d 00 00
	00 00		 mov	 rcx, QWORD PTR nullstring
  000d5	49 89 4c 24 70	 mov	 QWORD PTR [r12+112], rcx

; 85   :         Py_INCREF(STRINGLIB_EMPTY);

  000da	e8 00 00 00 00	 call	 _Py_IncRef

; 86   :         PyTuple_SET_ITEM(out, 1, (PyObject*) STRINGLIB_EMPTY);

  000df	4c 8b 1d 00 00
	00 00		 mov	 r11, QWORD PTR nullstring

; 87   :         Py_INCREF(str_obj);

  000e6	48 8b 5c 24 60	 mov	 rbx, QWORD PTR str_obj$[rsp]
  000eb	4d 89 5c 24 78	 mov	 QWORD PTR [r12+120], r11
  000f0	48 8b cb	 mov	 rcx, rbx
  000f3	e8 00 00 00 00	 call	 _Py_IncRef

; 88   :         PyTuple_SET_ITEM(out, 2, (PyObject*) str_obj);

  000f8	49 89 9c 24 80
	00 00 00	 mov	 QWORD PTR [r12+128], rbx
$LN1@stringlib_@10:

; 89   : #endif
; 90   :         return out;

  00100	49 8b c4	 mov	 rax, r12
$LN96@stringlib_@10:
  00103	4c 8b 74 24 28	 mov	 r14, QWORD PTR [rsp+40]
  00108	48 8b 5c 24 68	 mov	 rbx, QWORD PTR [rsp+104]
  0010d	4c 8b 7c 24 20	 mov	 r15, QWORD PTR [rsp+32]
  00112	4c 8b 64 24 30	 mov	 r12, QWORD PTR [rsp+48]

; 102  :     }
; 103  : 
; 104  :     return out;
; 105  : }

  00117	48 83 c4 38	 add	 rsp, 56			; 00000038H
  0011b	41 5d		 pop	 r13
  0011d	5f		 pop	 rdi
  0011e	5e		 pop	 rsi
  0011f	5d		 pop	 rbp
  00120	c3		 ret	 0

; 73   :         return NULL;
; 74   : 
; 75   :     pos = FASTSEARCH(str, str_len, sep, sep_len, -1, FAST_RSEARCH);

$LN65@stringlib_@10:
  00121	4c 8b 94 24 80
	00 00 00	 mov	 r10, QWORD PTR sep$[rsp]
  00129	48 8d 6f ff	 lea	 rbp, QWORD PTR [rdi-1]
  0012d	41 be 01 00 00
	00		 mov	 r14d, 1
  00133	45 0f be 3a	 movsx	 r15d, BYTE PTR [r10]
  00137	4c 8d 6d ff	 lea	 r13, QWORD PTR [rbp-1]
  0013b	41 8b cf	 mov	 ecx, r15d
  0013e	83 e1 1f	 and	 ecx, 31
  00141	41 d3 e6	 shl	 r14d, cl
  00144	48 85 ed	 test	 rbp, rbp
  00147	7e 44		 jle	 SHORT $LN22@stringlib_@10
  00149	49 83 cb ff	 or	 r11, -1
  0014d	4d 8d 0c 2a	 lea	 r9, QWORD PTR [r10+rbp]
  00151	4d 2b da	 sub	 r11, r10
  00154	4c 8b d5	 mov	 r10, rbp
  00157	66 0f 1f 84 00
	00 00 00 00	 npad	 9
$LL24@stringlib_@10:
  00160	45 0f be 01	 movsx	 r8d, BYTE PTR [r9]
  00164	ba 01 00 00 00	 mov	 edx, 1
  00169	41 8b c8	 mov	 ecx, r8d
  0016c	83 e1 1f	 and	 ecx, 31
  0016f	d3 e2		 shl	 edx, cl
  00171	44 0b f2	 or	 r14d, edx
  00174	45 3a c7	 cmp	 r8b, r15b
  00177	75 04		 jne	 SHORT $LN23@stringlib_@10
  00179	4f 8d 2c 0b	 lea	 r13, QWORD PTR [r11+r9]
$LN23@stringlib_@10:
  0017d	49 ff c9	 dec	 r9
  00180	49 ff ca	 dec	 r10
  00183	75 db		 jne	 SHORT $LL24@stringlib_@10
  00185	4c 8b 94 24 80
	00 00 00	 mov	 r10, QWORD PTR sep$[rsp]
$LN22@stringlib_@10:
  0018d	4c 8b c3	 mov	 r8, rbx
  00190	4d 2b c2	 sub	 r8, r10
  00193	4c 03 c6	 add	 r8, rsi
$LL20@stringlib_@10:
  00196	44 38 3c 33	 cmp	 BYTE PTR [rbx+rsi], r15b
  0019a	75 48		 jne	 SHORT $LN17@stringlib_@10
  0019c	48 8b d5	 mov	 rdx, rbp
  0019f	48 85 ed	 test	 rbp, rbp
  001a2	7e 20		 jle	 SHORT $LN91@stringlib_@10
  001a4	49 8d 0c 2a	 lea	 rcx, QWORD PTR [r10+rbp]
  001a8	0f 1f 84 00 00
	00 00 00	 npad	 8
$LL16@stringlib_@10:
  001b0	0f b6 01	 movzx	 eax, BYTE PTR [rcx]
  001b3	41 38 04 08	 cmp	 BYTE PTR [r8+rcx], al
  001b7	75 0b		 jne	 SHORT $LN91@stringlib_@10
  001b9	48 ff ca	 dec	 rdx
  001bc	48 ff c9	 dec	 rcx
  001bf	48 85 d2	 test	 rdx, rdx
  001c2	7f ec		 jg	 SHORT $LL16@stringlib_@10
$LN91@stringlib_@10:
  001c4	48 85 d2	 test	 rdx, rdx
  001c7	74 41		 je	 SHORT $LN92@stringlib_@10
  001c9	48 85 db	 test	 rbx, rbx
  001cc	7e 0e		 jle	 SHORT $LN11@stringlib_@10
  001ce	0f be 44 33 ff	 movsx	 eax, BYTE PTR [rbx+rsi-1]
  001d3	83 e0 1f	 and	 eax, 31
  001d6	41 0f a3 c6	 bt	 r14d, eax
  001da	73 1b		 jae	 SHORT $LN97@stringlib_@10
$LN11@stringlib_@10:
  001dc	49 2b dd	 sub	 rbx, r13
  001df	4d 2b c5	 sub	 r8, r13
  001e2	eb 19		 jmp	 SHORT $LN19@stringlib_@10
$LN17@stringlib_@10:
  001e4	48 85 db	 test	 rbx, rbx
  001e7	7e 14		 jle	 SHORT $LN19@stringlib_@10
  001e9	0f be 44 33 ff	 movsx	 eax, BYTE PTR [rbx+rsi-1]
  001ee	83 e0 1f	 and	 eax, 31
  001f1	41 0f a3 c6	 bt	 r14d, eax
  001f5	72 06		 jb	 SHORT $LN19@stringlib_@10
$LN97@stringlib_@10:
  001f7	48 2b df	 sub	 rbx, rdi
  001fa	4c 2b c7	 sub	 r8, rdi
$LN19@stringlib_@10:
  001fd	49 ff c8	 dec	 r8
  00200	48 ff cb	 dec	 rbx
  00203	79 91		 jns	 SHORT $LL20@stringlib_@10
  00205	e9 b8 fe ff ff	 jmp	 $LN90@stringlib_@10
$LN92@stringlib_@10:

; 62   : {

  0020a	48 8b 6c 24 70	 mov	 rbp, QWORD PTR str_len$[rsp]
  0020f	4c 8b 6c 24 78	 mov	 r13, QWORD PTR sep_obj$[rsp]

; 73   :         return NULL;
; 74   : 
; 75   :     pos = FASTSEARCH(str, str_len, sep, sep_len, -1, FAST_RSEARCH);

$LN68@stringlib_@10:

; 76   : 
; 77   :     if (pos < 0) {

  00214	48 85 db	 test	 rbx, rbx
  00217	0f 88 a5 fe ff
	ff		 js	 $LN90@stringlib_@10

; 91   :     }
; 92   : 
; 93   :     PyTuple_SET_ITEM(out, 0, STRINGLIB_NEW(str, pos));

  0021d	48 8b d3	 mov	 rdx, rbx
  00220	48 8b ce	 mov	 rcx, rsi
  00223	e8 00 00 00 00	 call	 PyBytes_FromStringAndSize

; 94   :     Py_INCREF(sep_obj);

  00228	49 8b cd	 mov	 rcx, r13
  0022b	49 89 44 24 70	 mov	 QWORD PTR [r12+112], rax
  00230	e8 00 00 00 00	 call	 _Py_IncRef

; 95   :     PyTuple_SET_ITEM(out, 1, sep_obj);
; 96   :     pos += sep_len;

  00235	48 8d 04 3b	 lea	 rax, QWORD PTR [rbx+rdi]

; 97   :     PyTuple_SET_ITEM(out, 2, STRINGLIB_NEW(str + pos, str_len - pos));

  00239	48 2b e8	 sub	 rbp, rax
  0023c	48 8d 0c 30	 lea	 rcx, QWORD PTR [rax+rsi]
  00240	4d 89 6c 24 78	 mov	 QWORD PTR [r12+120], r13
  00245	48 8b d5	 mov	 rdx, rbp
  00248	e8 00 00 00 00	 call	 PyBytes_FromStringAndSize
  0024d	49 89 84 24 80
	00 00 00	 mov	 QWORD PTR [r12+128], rax

; 98   : 
; 99   :     if (PyErr_Occurred()) {

  00255	e8 00 00 00 00	 call	 PyErr_Occurred
  0025a	48 85 c0	 test	 rax, rax
  0025d	0f 84 9d fe ff
	ff		 je	 $LN1@stringlib_@10

; 100  :         Py_DECREF(out);

  00263	49 8b cc	 mov	 rcx, r12
  00266	e8 00 00 00 00	 call	 _Py_DecRef

; 101  :         return NULL;

  0026b	33 c0		 xor	 eax, eax
  0026d	e9 91 fe ff ff	 jmp	 $LN96@stringlib_@10
stringlib_rpartition ENDP
_TEXT	ENDS
EXTRN	PyList_Append:PROC
EXTRN	_Py_ctype_table:BYTE
EXTRN	PyList_New:PROC
;	COMDAT pdata
; File c:\src\pyparallel\include\object.h
pdata	SEGMENT
$pdata$stringlib_split_whitespace DD imagerel stringlib_split_whitespace
	DD	imagerel stringlib_split_whitespace+580
	DD	imagerel $unwind$stringlib_split_whitespace
pdata	ENDS
;	COMDAT xdata
xdata	SEGMENT
$unwind$stringlib_split_whitespace DD 0c5a01H
	DD	0d645aH
	DD	0c3455H
	DD	0e5412H
	DD	0f00e5212H
	DD	0d00ae00cH
	DD	07006c008H
; Function compile flags: /Ogtpy
; File c:\src\pyparallel\objects\stringlib\split.h
xdata	ENDS
;	COMDAT stringlib_split_whitespace
_TEXT	SEGMENT
str_obj$ = 96
str$ = 104
str_len$ = 112
maxcount$ = 120
stringlib_split_whitespace PROC				; COMDAT

; 57   : {

  00000	48 89 6c 24 18	 mov	 QWORD PTR [rsp+24], rbp
  00005	57		 push	 rdi
  00006	41 54		 push	 r12
  00008	41 55		 push	 r13
  0000a	41 56		 push	 r14
  0000c	41 57		 push	 r15
  0000e	48 83 ec 30	 sub	 rsp, 48			; 00000030H

; 58   :     Py_ssize_t i, j, count=0;

  00012	45 33 e4	 xor	 r12d, r12d
  00015	4c 8b f9	 mov	 r15, rcx
  00018	4d 8b f1	 mov	 r14, r9
  0001b	49 8b f8	 mov	 rdi, r8
  0001e	48 8b ea	 mov	 rbp, rdx

; 59   :     PyObject *list = PyList_New(PREALLOC_SIZE(maxcount));

  00021	41 8d 4c 24 0c	 lea	 ecx, QWORD PTR [r12+12]
  00026	49 83 f9 0c	 cmp	 r9, 12
  0002a	7d 04		 jge	 SHORT $LN27@stringlib_@11
  0002c	49 8d 49 01	 lea	 rcx, QWORD PTR [r9+1]
$LN27@stringlib_@11:
  00030	e8 00 00 00 00	 call	 PyList_New
  00035	4c 8b e8	 mov	 r13, rax

; 60   :     PyObject *sub;
; 61   : 
; 62   :     if (list == NULL)

  00038	48 85 c0	 test	 rax, rax
  0003b	75 13		 jne	 SHORT $LN23@stringlib_@11

; 99   : }

  0003d	48 8b 6c 24 70	 mov	 rbp, QWORD PTR [rsp+112]
  00042	48 83 c4 30	 add	 rsp, 48			; 00000030H
  00046	41 5f		 pop	 r15
  00048	41 5e		 pop	 r14
  0004a	41 5d		 pop	 r13
  0004c	41 5c		 pop	 r12
  0004e	5f		 pop	 rdi
  0004f	c3		 ret	 0
$LN23@stringlib_@11:
  00050	48 89 5c 24 60	 mov	 QWORD PTR [rsp+96], rbx
  00055	48 89 74 24 68	 mov	 QWORD PTR [rsp+104], rsi

; 63   :         return NULL;
; 64   : 
; 65   :     i = j = 0;

  0005a	49 8b dc	 mov	 rbx, r12
$LN63@stringlib_@11:

; 66   :     while (maxcount-- > 0) {

  0005d	48 8d 15 00 00
	00 00		 lea	 rdx, OFFSET FLAT:_Py_ctype_table
  00064	4d 85 f6	 test	 r14, r14
  00067	0f 8e 35 01 00
	00		 jle	 $LN49@stringlib_@11
  0006d	49 ff ce	 dec	 r14
  00070	4c 8d 05 00 00
	00 00		 lea	 r8, OFFSET FLAT:PyBytes_Type

; 67   :         while (i < str_len && STRINGLIB_ISSPACE(str[i]))

  00077	48 3b df	 cmp	 rbx, rdi
  0007a	7d 19		 jge	 SHORT $LN59@stringlib_@11
  0007c	0f 1f 40 00	 npad	 4
$LL20@stringlib_@11:
  00080	0f b6 04 2b	 movzx	 eax, BYTE PTR [rbx+rbp]
  00084	f6 04 82 08	 test	 BYTE PTR [rdx+rax*4], 8
  00088	74 08		 je	 SHORT $LN55@stringlib_@11

; 68   :             i++;

  0008a	48 ff c3	 inc	 rbx
  0008d	48 3b df	 cmp	 rbx, rdi
  00090	7c ee		 jl	 SHORT $LL20@stringlib_@11
$LN55@stringlib_@11:

; 69   :         if (i == str_len) break;

  00092	48 3b df	 cmp	 rbx, rdi
$LN59@stringlib_@11:
  00095	0f 84 07 01 00
	00		 je	 $LN49@stringlib_@11

; 70   :         j = i; i++;

  0009b	48 8b cb	 mov	 rcx, rbx
  0009e	48 ff c3	 inc	 rbx

; 71   :         while (i < str_len && !STRINGLIB_ISSPACE(str[i]))

  000a1	48 3b df	 cmp	 rbx, rdi
  000a4	7d 12		 jge	 SHORT $LN56@stringlib_@11
$LL17@stringlib_@11:
  000a6	0f b6 04 2b	 movzx	 eax, BYTE PTR [rbx+rbp]
  000aa	f6 04 82 08	 test	 BYTE PTR [rdx+rax*4], 8
  000ae	75 08		 jne	 SHORT $LN56@stringlib_@11

; 72   :             i++;

  000b0	48 ff c3	 inc	 rbx
  000b3	48 3b df	 cmp	 rbx, rdi
  000b6	7c ee		 jl	 SHORT $LL17@stringlib_@11
$LN56@stringlib_@11:

; 73   : #ifndef STRINGLIB_MUTABLE
; 74   :         if (j == 0 && i == str_len && STRINGLIB_CHECK_EXACT(str_obj)) {

  000b8	48 85 c9	 test	 rcx, rcx
  000bb	75 0f		 jne	 SHORT $LN15@stringlib_@11
  000bd	48 3b df	 cmp	 rbx, rdi
  000c0	75 0a		 jne	 SHORT $LN15@stringlib_@11
  000c2	4d 39 47 58	 cmp	 QWORD PTR [r15+88], r8
  000c6	0f 84 bd 00 00
	00		 je	 $LN44@stringlib_@11
$LN15@stringlib_@11:

; 80   :         }
; 81   : #endif
; 82   :         SPLIT_ADD(str, j, i);

  000cc	48 8b d3	 mov	 rdx, rbx
  000cf	48 2b d1	 sub	 rdx, rcx
  000d2	48 03 cd	 add	 rcx, rbp
  000d5	e8 00 00 00 00	 call	 PyBytes_FromStringAndSize
  000da	48 8b f0	 mov	 rsi, rax
  000dd	48 85 c0	 test	 rax, rax
  000e0	0f 84 14 01 00
	00		 je	 $onError$21253
  000e6	49 83 fc 0c	 cmp	 r12, 12
  000ea	7d 11		 jge	 SHORT $LN13@stringlib_@11
  000ec	49 8b 4d 70	 mov	 rcx, QWORD PTR [r13+112]
  000f0	49 ff c4	 inc	 r12
  000f3	4a 89 44 e1 f8	 mov	 QWORD PTR [rcx+r12*8-8], rax
  000f8	e9 60 ff ff ff	 jmp	 $LN63@stringlib_@11
$LN13@stringlib_@11:
  000fd	48 8b d0	 mov	 rdx, rax
  00100	49 8b cd	 mov	 rcx, r13
  00103	e8 00 00 00 00	 call	 PyList_Append
  00108	85 c0		 test	 eax, eax
  0010a	0f 85 e2 00 00
	00		 jne	 $LN46@stringlib_@11
  00110	e8 00 00 00 00	 call	 _Py_PXCTX
  00115	85 c0		 test	 eax, eax
  00117	75 68		 jne	 SHORT $LN38@stringlib_@11
  00119	48 8b 46 20	 mov	 rax, QWORD PTR [rsi+32]
  0011d	a8 20		 test	 al, 32			; 00000020H
  0011f	75 58		 jne	 SHORT $LN32@stringlib_@11
  00121	84 c0		 test	 al, al
  00123	78 54		 js	 SHORT $LN32@stringlib_@11
  00125	a8 02		 test	 al, 2
  00127	75 58		 jne	 SHORT $LN38@stringlib_@11
  00129	48 ff 4e 50	 dec	 QWORD PTR [rsi+80]
  0012d	75 52		 jne	 SHORT $LN38@stringlib_@11
  0012f	48 8d 15 00 00
	00 00		 lea	 rdx, OFFSET FLAT:??_C@_0CD@HDJFDCDP@c?3?2src?2pyparallel?2include?2object@
  00136	48 8d 0d 00 00
	00 00		 lea	 rcx, OFFSET FLAT:??_C@_0L@DMHMLFIA@_Py_DecRef?$AA@
  0013d	4c 8b ce	 mov	 r9, rsi
  00140	41 b8 a4 03 00
	00		 mov	 r8d, 932		; 000003a4H
  00146	c7 44 24 20 10
	00 00 00	 mov	 DWORD PTR [rsp+32], 16
  0014e	e8 00 00 00 00	 call	 _PyParallel_Guard
  00153	48 8b ce	 mov	 rcx, rsi
  00156	85 c0		 test	 eax, eax
  00158	74 0d		 je	 SHORT $LN37@stringlib_@11
  0015a	e8 00 00 00 00	 call	 _Px_Dealloc
  0015f	49 ff c4	 inc	 r12
  00162	e9 f6 fe ff ff	 jmp	 $LN63@stringlib_@11
$LN37@stringlib_@11:
  00167	48 8b 46 58	 mov	 rax, QWORD PTR [rsi+88]
  0016b	ff 90 88 00 00
	00		 call	 QWORD PTR [rax+136]
  00171	49 ff c4	 inc	 r12
  00174	e9 e4 fe ff ff	 jmp	 $LN63@stringlib_@11
$LN32@stringlib_@11:
  00179	48 8b ce	 mov	 rcx, rsi
  0017c	e8 00 00 00 00	 call	 Px_DecRef
$LN38@stringlib_@11:
  00181	49 ff c4	 inc	 r12

; 66   :     while (maxcount-- > 0) {

  00184	e9 d4 fe ff ff	 jmp	 $LN63@stringlib_@11
$LN44@stringlib_@11:

; 75   :             /* No whitespace in str_obj, so just use it as list[0] */
; 76   :             Py_INCREF(str_obj);

  00189	49 8b cf	 mov	 rcx, r15
  0018c	e8 00 00 00 00	 call	 _Py_IncRef

; 77   :             PyList_SET_ITEM(list, 0, (PyObject *)str_obj);

  00191	4d 8b 5d 70	 mov	 r11, QWORD PTR [r13+112]

; 78   :             count++;

  00195	49 ff c4	 inc	 r12
  00198	4d 89 3b	 mov	 QWORD PTR [r11], r15

; 79   :             break;

  0019b	48 8d 15 00 00
	00 00		 lea	 rdx, OFFSET FLAT:_Py_ctype_table
$LN49@stringlib_@11:

; 83   :     }
; 84   : 
; 85   :     if (i < str_len) {

  001a2	48 3b df	 cmp	 rbx, rdi
  001a5	7d 79		 jge	 SHORT $LN6@stringlib_@11
  001a7	66 0f 1f 84 00
	00 00 00 00	 npad	 9
$LL8@stringlib_@11:

; 86   :         /* Only occurs when maxcount was reached */
; 87   :         /* Skip any remaining whitespace and copy to end of string */
; 88   :         while (i < str_len && STRINGLIB_ISSPACE(str[i]))

  001b0	0f b6 04 2b	 movzx	 eax, BYTE PTR [rbx+rbp]
  001b4	f6 04 82 08	 test	 BYTE PTR [rdx+rax*4], 8
  001b8	74 08		 je	 SHORT $LN7@stringlib_@11

; 89   :             i++;

  001ba	48 ff c3	 inc	 rbx
  001bd	48 3b df	 cmp	 rbx, rdi
  001c0	7c ee		 jl	 SHORT $LL8@stringlib_@11
$LN7@stringlib_@11:

; 90   :         if (i != str_len)

  001c2	48 3b df	 cmp	 rbx, rdi
  001c5	74 59		 je	 SHORT $LN6@stringlib_@11

; 91   :             SPLIT_ADD(str, i, str_len);

  001c7	48 2b fb	 sub	 rdi, rbx
  001ca	48 8d 0c 2b	 lea	 rcx, QWORD PTR [rbx+rbp]
  001ce	48 8b d7	 mov	 rdx, rdi
  001d1	e8 00 00 00 00	 call	 PyBytes_FromStringAndSize
  001d6	48 8b d8	 mov	 rbx, rax
  001d9	48 85 c0	 test	 rax, rax
  001dc	74 1c		 je	 SHORT $onError$21253
  001de	49 83 fc 0c	 cmp	 r12, 12
  001e2	7d 22		 jge	 SHORT $LN4@stringlib_@11
  001e4	49 8b 4d 70	 mov	 rcx, QWORD PTR [r13+112]
  001e8	49 ff c4	 inc	 r12
  001eb	4a 89 44 e1 f8	 mov	 QWORD PTR [rcx+r12*8-8], rax
  001f0	eb 2e		 jmp	 SHORT $LN6@stringlib_@11
$LN46@stringlib_@11:

; 80   :         }
; 81   : #endif
; 82   :         SPLIT_ADD(str, j, i);

  001f2	48 8b ce	 mov	 rcx, rsi
$LN61@stringlib_@11:
  001f5	e8 00 00 00 00	 call	 _Py_DecRef
$onError$21253:

; 95   : 
; 96   :   onError:
; 97   :     Py_DECREF(list);

  001fa	49 8b cd	 mov	 rcx, r13
  001fd	e8 00 00 00 00	 call	 _Py_DecRef

; 98   :     return NULL;

  00202	33 c0		 xor	 eax, eax
  00204	eb 21		 jmp	 SHORT $LN58@stringlib_@11
$LN4@stringlib_@11:

; 91   :             SPLIT_ADD(str, i, str_len);

  00206	48 8b d0	 mov	 rdx, rax
  00209	49 8b cd	 mov	 rcx, r13
  0020c	e8 00 00 00 00	 call	 PyList_Append
  00211	48 8b cb	 mov	 rcx, rbx
  00214	85 c0		 test	 eax, eax
  00216	75 dd		 jne	 SHORT $LN61@stringlib_@11
  00218	e8 00 00 00 00	 call	 _Py_DecRef
  0021d	49 ff c4	 inc	 r12
$LN6@stringlib_@11:

; 92   :     }
; 93   :     FIX_PREALLOC_SIZE(list);

  00220	4d 89 65 60	 mov	 QWORD PTR [r13+96], r12

; 94   :     return list;

  00224	49 8b c5	 mov	 rax, r13
$LN58@stringlib_@11:

; 99   : }

  00227	48 8b 5c 24 60	 mov	 rbx, QWORD PTR [rsp+96]
  0022c	48 8b 74 24 68	 mov	 rsi, QWORD PTR [rsp+104]
  00231	48 8b 6c 24 70	 mov	 rbp, QWORD PTR [rsp+112]
  00236	48 83 c4 30	 add	 rsp, 48			; 00000030H
  0023a	41 5f		 pop	 r15
  0023c	41 5e		 pop	 r14
  0023e	41 5d		 pop	 r13
  00240	41 5c		 pop	 r12
  00242	5f		 pop	 rdi
  00243	c3		 ret	 0
stringlib_split_whitespace ENDP
_TEXT	ENDS
;	COMDAT pdata
; File c:\src\pyparallel\include\object.h
pdata	SEGMENT
$pdata$stringlib_split_char DD imagerel stringlib_split_char
	DD	imagerel stringlib_split_char+81
	DD	imagerel $unwind$stringlib_split_char
pdata	ENDS
;	COMDAT pdata
pdata	SEGMENT
$pdata$0$stringlib_split_char DD imagerel stringlib_split_char+81
	DD	imagerel stringlib_split_char+330
	DD	imagerel $chain$0$stringlib_split_char
pdata	ENDS
;	COMDAT pdata
pdata	SEGMENT
$pdata$1$stringlib_split_char DD imagerel stringlib_split_char+330
	DD	imagerel stringlib_split_char+354
	DD	imagerel $chain$1$stringlib_split_char
pdata	ENDS
;	COMDAT pdata
pdata	SEGMENT
$pdata$2$stringlib_split_char DD imagerel stringlib_split_char+354
	DD	imagerel stringlib_split_char+555
	DD	imagerel $chain$2$stringlib_split_char
pdata	ENDS
;	COMDAT xdata
xdata	SEGMENT
$chain$2$stringlib_split_char DD 020021H
	DD	0d3400H
	DD	imagerel stringlib_split_char
	DD	imagerel stringlib_split_char+81
	DD	imagerel $unwind$stringlib_split_char
xdata	ENDS
;	COMDAT xdata
xdata	SEGMENT
$chain$1$stringlib_split_char DD 021H
	DD	imagerel stringlib_split_char
	DD	imagerel stringlib_split_char+81
	DD	imagerel $unwind$stringlib_split_char
xdata	ENDS
;	COMDAT xdata
xdata	SEGMENT
$chain$0$stringlib_split_char DD 020521H
	DD	0d3405H
	DD	imagerel stringlib_split_char
	DD	imagerel stringlib_split_char+81
	DD	imagerel $unwind$stringlib_split_char
xdata	ENDS
;	COMDAT xdata
xdata	SEGMENT
$unwind$stringlib_split_char DD 0a1c01H
	DD	0f641cH
	DD	0e541cH
	DD	0f018521cH
	DD	0d014e016H
	DD	07010c012H
; Function compile flags: /Ogtpy
; File c:\src\pyparallel\objects\stringlib\split.h
xdata	ENDS
;	COMDAT stringlib_split_char
_TEXT	SEGMENT
str_obj$ = 96
str$ = 104
str_len$ = 112
ch$ = 120
maxcount$ = 128
stringlib_split_char PROC				; COMDAT

; 106  : {

  00000	48 89 6c 24 18	 mov	 QWORD PTR [rsp+24], rbp
  00005	48 89 74 24 20	 mov	 QWORD PTR [rsp+32], rsi
  0000a	48 89 4c 24 08	 mov	 QWORD PTR [rsp+8], rcx
  0000f	57		 push	 rdi
  00010	41 54		 push	 r12
  00012	41 55		 push	 r13
  00014	41 56		 push	 r14
  00016	41 57		 push	 r15
  00018	48 83 ec 30	 sub	 rsp, 48			; 00000030H

; 107  :     Py_ssize_t i, j, count=0;
; 108  :     PyObject *list = PyList_New(PREALLOC_SIZE(maxcount));

  0001c	4c 8b bc 24 80
	00 00 00	 mov	 r15, QWORD PTR maxcount$[rsp]
  00024	33 f6		 xor	 esi, esi
  00026	4c 8b e1	 mov	 r12, rcx
  00029	45 0f b6 f1	 movzx	 r14d, r9b
  0002d	49 8b f8	 mov	 rdi, r8
  00030	4c 8b ea	 mov	 r13, rdx
  00033	8d 4e 0c	 lea	 ecx, QWORD PTR [rsi+12]
  00036	49 83 ff 0c	 cmp	 r15, 12
  0003a	7d 04		 jge	 SHORT $LN24@stringlib_@12
  0003c	49 8d 4f 01	 lea	 rcx, QWORD PTR [r15+1]
$LN24@stringlib_@12:
  00040	e8 00 00 00 00	 call	 PyList_New
  00045	48 8b e8	 mov	 rbp, rax

; 109  :     PyObject *sub;
; 110  : 
; 111  :     if (list == NULL)

  00048	48 85 c0	 test	 rax, rax
  0004b	0f 84 f9 00 00
	00		 je	 $LN21@stringlib_@12
$LN20@stringlib_@12:
  00051	48 89 5c 24 68	 mov	 QWORD PTR [rsp+104], rbx

; 112  :         return NULL;
; 113  : 
; 114  :     i = j = 0;

  00056	48 8b ce	 mov	 rcx, rsi
  00059	48 8b de	 mov	 rbx, rsi

; 115  :     while ((j < str_len) && (maxcount-- > 0)) {

  0005c	48 85 ff	 test	 rdi, rdi
  0005f	0f 8e 81 00 00
	00		 jle	 $LN48@stringlib_@12
$LL19@stringlib_@12:
  00065	49 8b c7	 mov	 rax, r15
  00068	49 ff cf	 dec	 r15
  0006b	48 85 c0	 test	 rax, rax
  0006e	7e 68		 jle	 SHORT $LN18@stringlib_@12

; 116  :         for(; j < str_len; j++) {

  00070	48 3b df	 cmp	 rbx, rdi
  00073	7d 63		 jge	 SHORT $LN18@stringlib_@12
$LL17@stringlib_@12:

; 117  :             /* I found that using memchr makes no difference */
; 118  :             if (str[j] == ch) {

  00075	46 38 34 2b	 cmp	 BYTE PTR [rbx+r13], r14b
  00079	74 0a		 je	 SHORT $LN42@stringlib_@12

; 116  :         for(; j < str_len; j++) {

  0007b	48 ff c3	 inc	 rbx
  0007e	48 3b df	 cmp	 rbx, rdi
  00081	7c f2		 jl	 SHORT $LL17@stringlib_@12
  00083	eb 53		 jmp	 SHORT $LN18@stringlib_@12
$LN42@stringlib_@12:

; 119  :                 SPLIT_ADD(str, i, j);

  00085	48 8b d3	 mov	 rdx, rbx
  00088	48 2b d1	 sub	 rdx, rcx
  0008b	49 03 cd	 add	 rcx, r13
  0008e	e8 00 00 00 00	 call	 PyBytes_FromStringAndSize
  00093	4c 8b e0	 mov	 r12, rax
  00096	48 85 c0	 test	 rax, rax
  00099	0f 84 09 01 00
	00		 je	 $onError$21308
  0009f	48 83 fe 0c	 cmp	 rsi, 12
  000a3	7d 0a		 jge	 SHORT $LN12@stringlib_@12
  000a5	48 8b 4d 70	 mov	 rcx, QWORD PTR [rbp+112]
  000a9	48 89 04 f1	 mov	 QWORD PTR [rcx+rsi*8], rax
  000ad	eb 1b		 jmp	 SHORT $LN9@stringlib_@12
$LN12@stringlib_@12:
  000af	48 8b d0	 mov	 rdx, rax
  000b2	48 8b cd	 mov	 rcx, rbp
  000b5	e8 00 00 00 00	 call	 PyList_Append
  000ba	49 8b cc	 mov	 rcx, r12
  000bd	85 c0		 test	 eax, eax
  000bf	0f 85 de 00 00
	00		 jne	 $LN44@stringlib_@12
  000c5	e8 00 00 00 00	 call	 _Py_DecRef
$LN9@stringlib_@12:

; 120  :                 i = j = j + 1;

  000ca	48 ff c3	 inc	 rbx
  000cd	48 ff c6	 inc	 rsi
  000d0	48 8b cb	 mov	 rcx, rbx
  000d3	48 3b df	 cmp	 rbx, rdi
  000d6	7c 8d		 jl	 SHORT $LL19@stringlib_@12
$LN18@stringlib_@12:

; 121  :                 break;
; 122  :             }
; 123  :         }
; 124  :     }
; 125  : #ifndef STRINGLIB_MUTABLE
; 126  :     if (count == 0 && STRINGLIB_CHECK_EXACT(str_obj)) {

  000d8	48 85 f6	 test	 rsi, rsi
  000db	0f 85 81 00 00
	00		 jne	 $LN8@stringlib_@12
  000e1	4c 8b 64 24 60	 mov	 r12, QWORD PTR str_obj$[rsp]
$LN48@stringlib_@12:
  000e6	48 8d 05 00 00
	00 00		 lea	 rax, OFFSET FLAT:PyBytes_Type
  000ed	49 39 44 24 58	 cmp	 QWORD PTR [r12+88], rax
  000f2	75 6e		 jne	 SHORT $LN8@stringlib_@12

; 127  :         /* ch not in str_obj, so just use str_obj as list[0] */
; 128  :         Py_INCREF(str_obj);

  000f4	e8 00 00 00 00	 call	 _Py_PXCTX
  000f9	85 c0		 test	 eax, eax
  000fb	75 35		 jne	 SHORT $LN26@stringlib_@12
  000fd	48 8d 15 00 00
	00 00		 lea	 rdx, OFFSET FLAT:??_C@_0CD@HDJFDCDP@c?3?2src?2pyparallel?2include?2object@
  00104	48 8d 0d 00 00
	00 00		 lea	 rcx, OFFSET FLAT:??_C@_0L@DHGMCEID@_Py_IncRef?$AA@
  0010b	4d 8b cc	 mov	 r9, r12
  0010e	41 b8 89 03 00
	00		 mov	 r8d, 905		; 00000389H
  00114	c7 44 24 20 02
	00 00 00	 mov	 DWORD PTR [rsp+32], 2
  0011c	e8 00 00 00 00	 call	 _PyParallel_Guard
  00121	85 c0		 test	 eax, eax
  00123	75 08		 jne	 SHORT $LN25@stringlib_@12
  00125	41 f6 44 24 20
	20		 test	 BYTE PTR [r12+32], 32	; 00000020H
  0012b	74 05		 je	 SHORT $LN26@stringlib_@12
$LN25@stringlib_@12:
  0012d	49 ff 44 24 50	 inc	 QWORD PTR [r12+80]
$LN26@stringlib_@12:

; 129  :         PyList_SET_ITEM(list, 0, (PyObject *)str_obj);

  00132	48 8b 45 70	 mov	 rax, QWORD PTR [rbp+112]

; 130  :         count++;

  00136	be 01 00 00 00	 mov	 esi, 1
  0013b	4c 89 20	 mov	 QWORD PTR [rax], r12
$LN6@stringlib_@12:

; 135  :     }
; 136  :     FIX_PREALLOC_SIZE(list);

  0013e	48 89 75 60	 mov	 QWORD PTR [rbp+96], rsi

; 137  :     return list;

  00142	48 8b c5	 mov	 rax, rbp
$LN49@stringlib_@12:
  00145	48 8b 5c 24 68	 mov	 rbx, QWORD PTR [rsp+104]
$LN21@stringlib_@12:

; 142  : }

  0014a	48 8b 6c 24 70	 mov	 rbp, QWORD PTR [rsp+112]
  0014f	48 8b 74 24 78	 mov	 rsi, QWORD PTR [rsp+120]
  00154	48 83 c4 30	 add	 rsp, 48			; 00000030H
  00158	41 5f		 pop	 r15
  0015a	41 5e		 pop	 r14
  0015c	41 5d		 pop	 r13
  0015e	41 5c		 pop	 r12
  00160	5f		 pop	 rdi
  00161	c3		 ret	 0
$LN8@stringlib_@12:

; 131  :     } else
; 132  : #endif
; 133  :     if (i <= str_len) {

  00162	48 3b cf	 cmp	 rcx, rdi
  00165	7f d7		 jg	 SHORT $LN6@stringlib_@12

; 134  :         SPLIT_ADD(str, i, str_len);

  00167	48 2b f9	 sub	 rdi, rcx
  0016a	49 03 cd	 add	 rcx, r13
  0016d	48 8b d7	 mov	 rdx, rdi
  00170	e8 00 00 00 00	 call	 PyBytes_FromStringAndSize
  00175	48 8b d8	 mov	 rbx, rax
  00178	48 85 c0	 test	 rax, rax
  0017b	74 2b		 je	 SHORT $onError$21308
  0017d	48 83 fe 0c	 cmp	 rsi, 12
  00181	7d 0e		 jge	 SHORT $LN4@stringlib_@12
  00183	48 8b 4d 70	 mov	 rcx, QWORD PTR [rbp+112]
  00187	48 ff c6	 inc	 rsi
  0018a	48 89 44 f1 f8	 mov	 QWORD PTR [rcx+rsi*8-8], rax
  0018f	eb ad		 jmp	 SHORT $LN6@stringlib_@12
$LN4@stringlib_@12:
  00191	48 8b d0	 mov	 rdx, rax
  00194	48 8b cd	 mov	 rcx, rbp
  00197	e8 00 00 00 00	 call	 PyList_Append
  0019c	48 8b cb	 mov	 rcx, rbx
  0019f	85 c0		 test	 eax, eax
  001a1	74 5b		 je	 SHORT $LN2@stringlib_@12
$LN44@stringlib_@12:
  001a3	e8 00 00 00 00	 call	 _Py_DecRef
$onError$21308:

; 138  : 
; 139  :   onError:
; 140  :     Py_DECREF(list);

  001a8	e8 00 00 00 00	 call	 _Py_PXCTX
  001ad	85 c0		 test	 eax, eax
  001af	75 73		 jne	 SHORT $LN39@stringlib_@12
  001b1	48 8b 45 20	 mov	 rax, QWORD PTR [rbp+32]
  001b5	a8 20		 test	 al, 32			; 00000020H
  001b7	75 63		 jne	 SHORT $LN33@stringlib_@12
  001b9	84 c0		 test	 al, al
  001bb	78 5f		 js	 SHORT $LN33@stringlib_@12
  001bd	a8 02		 test	 al, 2
  001bf	75 63		 jne	 SHORT $LN39@stringlib_@12
  001c1	48 ff 4d 50	 dec	 QWORD PTR [rbp+80]
  001c5	75 5d		 jne	 SHORT $LN39@stringlib_@12
  001c7	48 8d 15 00 00
	00 00		 lea	 rdx, OFFSET FLAT:??_C@_0CD@HDJFDCDP@c?3?2src?2pyparallel?2include?2object@
  001ce	48 8d 0d 00 00
	00 00		 lea	 rcx, OFFSET FLAT:??_C@_0L@DMHMLFIA@_Py_DecRef?$AA@
  001d5	4c 8b cd	 mov	 r9, rbp
  001d8	41 b8 a4 03 00
	00		 mov	 r8d, 932		; 000003a4H
  001de	c7 44 24 20 10
	00 00 00	 mov	 DWORD PTR [rsp+32], 16
  001e6	e8 00 00 00 00	 call	 _PyParallel_Guard
  001eb	48 8b cd	 mov	 rcx, rbp
  001ee	85 c0		 test	 eax, eax
  001f0	74 19		 je	 SHORT $LN38@stringlib_@12
  001f2	e8 00 00 00 00	 call	 _Px_Dealloc

; 141  :     return NULL;

  001f7	33 c0		 xor	 eax, eax
  001f9	e9 47 ff ff ff	 jmp	 $LN49@stringlib_@12
$LN2@stringlib_@12:

; 134  :         SPLIT_ADD(str, i, str_len);

  001fe	e8 00 00 00 00	 call	 _Py_DecRef
  00203	48 ff c6	 inc	 rsi
  00206	e9 33 ff ff ff	 jmp	 $LN6@stringlib_@12

; 138  : 
; 139  :   onError:
; 140  :     Py_DECREF(list);

$LN38@stringlib_@12:
  0020b	48 8b 45 58	 mov	 rax, QWORD PTR [rbp+88]
  0020f	ff 90 88 00 00
	00		 call	 QWORD PTR [rax+136]

; 141  :     return NULL;

  00215	33 c0		 xor	 eax, eax
  00217	e9 29 ff ff ff	 jmp	 $LN49@stringlib_@12

; 138  : 
; 139  :   onError:
; 140  :     Py_DECREF(list);

$LN33@stringlib_@12:
  0021c	48 8b cd	 mov	 rcx, rbp
  0021f	e8 00 00 00 00	 call	 Px_DecRef
$LN39@stringlib_@12:

; 141  :     return NULL;

  00224	33 c0		 xor	 eax, eax
  00226	e9 1a ff ff ff	 jmp	 $LN49@stringlib_@12
stringlib_split_char ENDP
_TEXT	ENDS
;	COMDAT pdata
; File c:\src\pyparallel\objects\stringlib\fastsearch.h
pdata	SEGMENT
$pdata$stringlib_split DD imagerel stringlib_split
	DD	imagerel stringlib_split+132
	DD	imagerel $unwind$stringlib_split
pdata	ENDS
;	COMDAT pdata
pdata	SEGMENT
$pdata$1$stringlib_split DD imagerel stringlib_split+132
	DD	imagerel stringlib_split+190
	DD	imagerel $chain$1$stringlib_split
pdata	ENDS
;	COMDAT pdata
pdata	SEGMENT
$pdata$2$stringlib_split DD imagerel stringlib_split+190
	DD	imagerel stringlib_split+824
	DD	imagerel $chain$2$stringlib_split
pdata	ENDS
;	COMDAT pdata
pdata	SEGMENT
$pdata$3$stringlib_split DD imagerel stringlib_split+824
	DD	imagerel stringlib_split+847
	DD	imagerel $chain$3$stringlib_split
pdata	ENDS
;	COMDAT pdata
pdata	SEGMENT
$pdata$5$stringlib_split DD imagerel stringlib_split+847
	DD	imagerel stringlib_split+960
	DD	imagerel $chain$5$stringlib_split
pdata	ENDS
;	COMDAT xdata
xdata	SEGMENT
$chain$5$stringlib_split DD 060021H
	DD	0ad400H
	DD	0b7400H
	DD	0153400H
	DD	imagerel stringlib_split
	DD	imagerel stringlib_split+132
	DD	imagerel $unwind$stringlib_split
xdata	ENDS
;	COMDAT xdata
xdata	SEGMENT
$chain$3$stringlib_split DD 021H
	DD	imagerel stringlib_split+132
	DD	imagerel stringlib_split+190
	DD	imagerel $chain$1$stringlib_split
xdata	ENDS
;	COMDAT xdata
xdata	SEGMENT
$chain$2$stringlib_split DD 020821H
	DD	0153408H
	DD	imagerel stringlib_split+132
	DD	imagerel stringlib_split+190
	DD	imagerel $chain$1$stringlib_split
xdata	ENDS
;	COMDAT xdata
xdata	SEGMENT
$chain$1$stringlib_split DD 041721H
	DD	0ad417H
	DD	0b7405H
	DD	imagerel stringlib_split
	DD	imagerel stringlib_split+132
	DD	imagerel $unwind$stringlib_split
xdata	ENDS
;	COMDAT xdata
xdata	SEGMENT
$unwind$stringlib_split DD 061b01H
	DD	0f017b21bH
	DD	0c013e015H
	DD	050106011H
; Function compile flags: /Ogtpy
; File c:\src\pyparallel\objects\stringlib\split.h
xdata	ENDS
;	COMDAT stringlib_split
_TEXT	SEGMENT
count$1$ = 48
i$1$ = 56
maxcount$1$ = 64
str_obj$ = 144
str$ = 152
str_len$ = 160
sep$ = 168
list$1$ = 176
sep_len$ = 176
maxcount$ = 184
stringlib_split PROC					; COMDAT

; 149  : {

  00000	4c 89 44 24 18	 mov	 QWORD PTR [rsp+24], r8
  00005	48 89 54 24 10	 mov	 QWORD PTR [rsp+16], rdx
  0000a	48 89 4c 24 08	 mov	 QWORD PTR [rsp+8], rcx
  0000f	55		 push	 rbp
  00010	56		 push	 rsi
  00011	41 54		 push	 r12
  00013	41 56		 push	 r14
  00015	41 57		 push	 r15
  00017	48 83 ec 60	 sub	 rsp, 96			; 00000060H

; 150  :     Py_ssize_t i, j, pos, count=0;
; 151  :     PyObject *list, *sub;
; 152  : 
; 153  :     if (sep_len == 0) {

  0001b	48 8b b4 24 b0
	00 00 00	 mov	 rsi, QWORD PTR sep_len$[rsp]
  00023	45 33 e4	 xor	 r12d, r12d
  00026	4d 8b f9	 mov	 r15, r9
  00029	49 8b e8	 mov	 rbp, r8
  0002c	4c 8b f2	 mov	 r14, rdx
  0002f	4c 89 64 24 30	 mov	 QWORD PTR count$1$[rsp], r12
  00034	48 85 f6	 test	 rsi, rsi
  00037	75 22		 jne	 SHORT $LN19@stringlib_@13

; 154  :         PyErr_SetString(PyExc_ValueError, "empty separator");

  00039	48 8b 0d 00 00
	00 00		 mov	 rcx, QWORD PTR PyExc_ValueError
  00040	48 8d 15 00 00
	00 00		 lea	 rdx, OFFSET FLAT:??_C@_0BA@JDENDMBF@empty?5separator?$AA@
  00047	e8 00 00 00 00	 call	 PyErr_SetString

; 155  :         return NULL;

  0004c	33 c0		 xor	 eax, eax

; 190  : }

  0004e	48 83 c4 60	 add	 rsp, 96			; 00000060H
  00052	41 5f		 pop	 r15
  00054	41 5e		 pop	 r14
  00056	41 5c		 pop	 r12
  00058	5e		 pop	 rsi
  00059	5d		 pop	 rbp
  0005a	c3		 ret	 0
$LN19@stringlib_@13:

; 156  :     }
; 157  :     else if (sep_len == 1)

  0005b	48 83 fe 01	 cmp	 rsi, 1
  0005f	75 23		 jne	 SHORT $LN17@stringlib_@13

; 158  :         return STRINGLIB(split_char)(str_obj, str, str_len, sep[0], maxcount);

  00061	48 8b 84 24 b8
	00 00 00	 mov	 rax, QWORD PTR maxcount$[rsp]
  00069	45 0f b6 09	 movzx	 r9d, BYTE PTR [r9]
  0006d	48 89 44 24 20	 mov	 QWORD PTR [rsp+32], rax
  00072	e8 00 00 00 00	 call	 stringlib_split_char

; 190  : }

  00077	48 83 c4 60	 add	 rsp, 96			; 00000060H
  0007b	41 5f		 pop	 r15
  0007d	41 5e		 pop	 r14
  0007f	41 5c		 pop	 r12
  00081	5e		 pop	 rsi
  00082	5d		 pop	 rbp
  00083	c3		 ret	 0
$LN17@stringlib_@13:
  00084	48 89 7c 24 58	 mov	 QWORD PTR [rsp+88], rdi

; 159  : 
; 160  :     list = PyList_New(PREALLOC_SIZE(maxcount));

  00089	48 8b bc 24 b8
	00 00 00	 mov	 rdi, QWORD PTR maxcount$[rsp]
  00091	b9 0c 00 00 00	 mov	 ecx, 12
  00096	4c 89 6c 24 50	 mov	 QWORD PTR [rsp+80], r13
  0009b	48 83 ff 0c	 cmp	 rdi, 12
  0009f	7d 04		 jge	 SHORT $LN23@stringlib_@13
  000a1	48 8d 4f 01	 lea	 rcx, QWORD PTR [rdi+1]
$LN23@stringlib_@13:
  000a5	e8 00 00 00 00	 call	 PyList_New
  000aa	4c 8b e8	 mov	 r13, rax
  000ad	48 89 84 24 b0
	00 00 00	 mov	 QWORD PTR list$1$[rsp], rax

; 161  :     if (list == NULL)

  000b5	48 85 c0	 test	 rax, rax
  000b8	0f 84 7a 02 00
	00		 je	 $LN122@stringlib_@13
$LN16@stringlib_@13:
  000be	48 89 9c 24 a8
	00 00 00	 mov	 QWORD PTR [rsp+168], rbx

; 162  :         return NULL;
; 163  : 
; 164  :     i = j = 0;

  000c6	33 db		 xor	 ebx, ebx
  000c8	48 89 5c 24 38	 mov	 QWORD PTR i$1$[rsp], rbx

; 165  :     while (maxcount-- > 0) {

  000cd	48 85 ff	 test	 rdi, rdi
  000d0	0f 8e 85 01 00
	00		 jle	 $LN112@stringlib_@13
  000d6	66 66 0f 1f 84
	00 00 00 00 00	 npad	 10
$LL15@stringlib_@13:

; 166  :         pos = FASTSEARCH(str+i, str_len-i, sep, sep_len, -1, FAST_SEARCH);

  000e0	48 8b c5	 mov	 rax, rbp
  000e3	4a 8d 2c 33	 lea	 rbp, QWORD PTR [rbx+r14]
  000e7	48 ff cf	 dec	 rdi
  000ea	48 2b c3	 sub	 rax, rbx
  000ed	48 89 7c 24 40	 mov	 QWORD PTR maxcount$1$[rsp], rdi
  000f2	4c 8b f0	 mov	 r14, rax
  000f5	4c 2b f6	 sub	 r14, rsi
  000f8	0f 88 4c 01 00
	00		 js	 $LN110@stringlib_@13
  000fe	48 83 fe 01	 cmp	 rsi, 1
  00102	7f 68		 jg	 SHORT $LN82@stringlib_@13
  00104	48 85 f6	 test	 rsi, rsi
  00107	0f 8e 3d 01 00
	00		 jle	 $LN110@stringlib_@13
  0010d	48 83 f8 0a	 cmp	 rax, 10
  00111	7e 32		 jle	 SHORT $LN80@stringlib_@13
  00113	4c 8d 04 28	 lea	 r8, QWORD PTR [rax+rbp]
  00117	49 3b e8	 cmp	 rbp, r8
  0011a	73 18		 jae	 SHORT $LN90@stringlib_@13
  0011c	41 0f b6 17	 movzx	 edx, BYTE PTR [r15]
  00120	4c 2b c5	 sub	 r8, rbp
  00123	48 8b cd	 mov	 rcx, rbp
  00126	ff 15 00 00 00
	00		 call	 QWORD PTR __imp_memchr
  0012c	4c 8b d8	 mov	 r11, rax
  0012f	48 85 c0	 test	 rax, rax
  00132	75 09		 jne	 SHORT $LN89@stringlib_@13
$LN90@stringlib_@13:
  00134	49 83 cb ff	 or	 r11, -1
  00138	e9 65 01 00 00	 jmp	 $LN85@stringlib_@13
$LN89@stringlib_@13:
  0013d	4c 2b dd	 sub	 r11, rbp
  00140	e9 5d 01 00 00	 jmp	 $LN85@stringlib_@13
$LN80@stringlib_@13:
  00145	45 33 db	 xor	 r11d, r11d
  00148	48 85 c0	 test	 rax, rax
  0014b	0f 8e f9 00 00
	00		 jle	 $LN110@stringlib_@13
  00151	41 0f b6 0f	 movzx	 ecx, BYTE PTR [r15]
$LL71@stringlib_@13:
  00155	41 38 0c 2b	 cmp	 BYTE PTR [r11+rbp], cl
  00159	0f 84 43 01 00
	00		 je	 $LN85@stringlib_@13
  0015f	49 ff c3	 inc	 r11
  00162	4c 3b d8	 cmp	 r11, rax
  00165	7c ee		 jl	 SHORT $LL71@stringlib_@13
  00167	e9 de 00 00 00	 jmp	 $LN110@stringlib_@13
$LN82@stringlib_@13:
  0016c	48 8d 7e ff	 lea	 rdi, QWORD PTR [rsi-1]
  00170	45 33 e4	 xor	 r12d, r12d
  00173	4c 8d 6f ff	 lea	 r13, QWORD PTR [rdi-1]
  00177	48 85 ff	 test	 rdi, rdi
  0017a	7e 3f		 jle	 SHORT $LN59@stringlib_@13
  0017c	42 0f b6 1c 3f	 movzx	 ebx, BYTE PTR [rdi+r15]
  00181	4d 8b cf	 mov	 r9, r15
  00184	4d 8b d5	 mov	 r10, r13
  00187	4c 8b df	 mov	 r11, rdi
  0018a	66 0f 1f 44 00
	00		 npad	 6
$LL61@stringlib_@13:
  00190	45 0f be 01	 movsx	 r8d, BYTE PTR [r9]
  00194	ba 01 00 00 00	 mov	 edx, 1
  00199	41 8b c8	 mov	 ecx, r8d
  0019c	83 e1 1f	 and	 ecx, 31
  0019f	d3 e2		 shl	 edx, cl
  001a1	44 0b e2	 or	 r12d, edx
  001a4	44 3a c3	 cmp	 r8b, bl
  001a7	4d 0f 44 ea	 cmove	 r13, r10
  001ab	49 ff c1	 inc	 r9
  001ae	49 ff ca	 dec	 r10
  001b1	49 ff cb	 dec	 r11
  001b4	75 da		 jne	 SHORT $LL61@stringlib_@13
  001b6	48 8b 5c 24 38	 mov	 rbx, QWORD PTR i$1$[rsp]
$LN59@stringlib_@13:
  001bb	42 0f be 0c 3f	 movsx	 ecx, BYTE PTR [rdi+r15]
  001c0	ba 01 00 00 00	 mov	 edx, 1
  001c5	45 33 db	 xor	 r11d, r11d
  001c8	83 e1 1f	 and	 ecx, 31
  001cb	d3 e2		 shl	 edx, cl
  001cd	44 0b e2	 or	 r12d, edx
  001d0	4d 85 f6	 test	 r14, r14
  001d3	78 70		 js	 SHORT $LN120@stringlib_@13
  001d5	45 0f b6 54 37
	ff		 movzx	 r10d, BYTE PTR [r15+rsi-1]
  001db	4c 8d 0c 2e	 lea	 r9, QWORD PTR [rsi+rbp]
  001df	90		 npad	 1
$LL57@stringlib_@13:
  001e0	47 38 54 19 ff	 cmp	 BYTE PTR [r9+r11-1], r10b
  001e5	75 45		 jne	 SHORT $LN54@stringlib_@13
  001e7	33 d2		 xor	 edx, edx
  001e9	48 85 ff	 test	 rdi, rdi
  001ec	7e 26		 jle	 SHORT $LN118@stringlib_@13
  001ee	4c 8b c5	 mov	 r8, rbp
  001f1	49 8b cf	 mov	 rcx, r15
  001f4	4d 2b c7	 sub	 r8, r15
  001f7	4d 03 c3	 add	 r8, r11
  001fa	66 0f 1f 44 00
	00		 npad	 6
$LL53@stringlib_@13:
  00200	0f b6 01	 movzx	 eax, BYTE PTR [rcx]
  00203	41 38 04 08	 cmp	 BYTE PTR [r8+rcx], al
  00207	75 0b		 jne	 SHORT $LN118@stringlib_@13
  00209	48 ff c2	 inc	 rdx
  0020c	48 ff c1	 inc	 rcx
  0020f	48 3b d7	 cmp	 rdx, rdi
  00212	7c ec		 jl	 SHORT $LL53@stringlib_@13
$LN118@stringlib_@13:
  00214	48 3b d7	 cmp	 rdx, rdi
  00217	74 7c		 je	 SHORT $LN102@stringlib_@13
  00219	43 0f be 04 19	 movsx	 eax, BYTE PTR [r9+r11]
  0021e	83 e0 1f	 and	 eax, 31
  00221	41 0f a3 c4	 bt	 r12d, eax
  00225	73 13		 jae	 SHORT $LN124@stringlib_@13
  00227	4d 03 dd	 add	 r11, r13
  0022a	eb 11		 jmp	 SHORT $LN56@stringlib_@13
$LN54@stringlib_@13:
  0022c	43 0f be 04 19	 movsx	 eax, BYTE PTR [r9+r11]
  00231	83 e0 1f	 and	 eax, 31
  00234	41 0f a3 c4	 bt	 r12d, eax
  00238	72 03		 jb	 SHORT $LN56@stringlib_@13
$LN124@stringlib_@13:
  0023a	4c 03 de	 add	 r11, rsi
$LN56@stringlib_@13:
  0023d	49 ff c3	 inc	 r11
  00240	4d 3b de	 cmp	 r11, r14
  00243	7e 9b		 jle	 SHORT $LL57@stringlib_@13
$LN120@stringlib_@13:

; 170  :         SPLIT_ADD(str, i, j);

  00245	4c 8b 64 24 30	 mov	 r12, QWORD PTR count$1$[rsp]
$LN110@stringlib_@13:

; 172  :     }
; 173  : #ifndef STRINGLIB_MUTABLE
; 174  :     if (count == 0 && STRINGLIB_CHECK_EXACT(str_obj)) {

  0024a	4d 85 e4	 test	 r12, r12
  0024d	0f 85 fc 00 00
	00		 jne	 $LN7@stringlib_@13
  00253	4c 8b ac 24 b0
	00 00 00	 mov	 r13, QWORD PTR list$1$[rsp]
$LN112@stringlib_@13:
  0025b	48 8b bc 24 90
	00 00 00	 mov	 rdi, QWORD PTR str_obj$[rsp]
  00263	48 8d 05 00 00
	00 00		 lea	 rax, OFFSET FLAT:PyBytes_Type
  0026a	48 39 47 58	 cmp	 QWORD PTR [rdi+88], rax
  0026e	0f 85 db 00 00
	00		 jne	 $LN7@stringlib_@13

; 175  :         /* No match in str_obj, so just use it as list[0] */
; 176  :         Py_INCREF(str_obj);

  00274	48 8b cf	 mov	 rcx, rdi
  00277	e8 00 00 00 00	 call	 _Py_IncRef

; 177  :         PyList_SET_ITEM(list, 0, (PyObject *)str_obj);

  0027c	4d 8b 5d 70	 mov	 r11, QWORD PTR [r13+112]

; 178  :         count++;

  00280	41 bc 01 00 00
	00		 mov	 r12d, 1
  00286	49 89 3b	 mov	 QWORD PTR [r11], rdi

; 183  :     }
; 184  :     FIX_PREALLOC_SIZE(list);

  00289	4d 89 65 60	 mov	 QWORD PTR [r13+96], r12

; 185  :     return list;

  0028d	49 8b c5	 mov	 rax, r13
  00290	e9 9b 00 00 00	 jmp	 $LN123@stringlib_@13
$LN102@stringlib_@13:
  00295	4c 8b 64 24 30	 mov	 r12, QWORD PTR count$1$[rsp]
  0029a	4c 8b ac 24 b0
	00 00 00	 mov	 r13, QWORD PTR list$1$[rsp]

; 166  :         pos = FASTSEARCH(str+i, str_len-i, sep, sep_len, -1, FAST_SEARCH);

$LN85@stringlib_@13:

; 167  :         if (pos < 0)

  002a2	4d 85 db	 test	 r11, r11
  002a5	78 a3		 js	 SHORT $LN110@stringlib_@13

; 168  :             break;
; 169  :         j = i + pos;

  002a7	49 8d 3c 1b	 lea	 rdi, QWORD PTR [r11+rbx]

; 170  :         SPLIT_ADD(str, i, j);

  002ab	48 8b cd	 mov	 rcx, rbp
  002ae	48 8b d7	 mov	 rdx, rdi
  002b1	48 2b d3	 sub	 rdx, rbx
  002b4	e8 00 00 00 00	 call	 PyBytes_FromStringAndSize
  002b9	48 8b d8	 mov	 rbx, rax
  002bc	48 85 c0	 test	 rax, rax
  002bf	74 60		 je	 SHORT $onError$21368
  002c1	49 83 fc 0c	 cmp	 r12, 12
  002c5	7d 0a		 jge	 SHORT $LN11@stringlib_@13
  002c7	49 8b 4d 70	 mov	 rcx, QWORD PTR [r13+112]
  002cb	4a 89 04 e1	 mov	 QWORD PTR [rcx+r12*8], rax
  002cf	eb 17		 jmp	 SHORT $LN8@stringlib_@13
$LN11@stringlib_@13:
  002d1	48 8b d0	 mov	 rdx, rax
  002d4	49 8b cd	 mov	 rcx, r13
  002d7	e8 00 00 00 00	 call	 PyList_Append
  002dc	48 8b cb	 mov	 rcx, rbx
  002df	85 c0		 test	 eax, eax
  002e1	75 39		 jne	 SHORT $LN105@stringlib_@13
  002e3	e8 00 00 00 00	 call	 _Py_DecRef
$LN8@stringlib_@13:

; 171  :         i = j + sep_len;

  002e8	48 8d 1c 37	 lea	 rbx, QWORD PTR [rdi+rsi]
  002ec	48 8b 7c 24 40	 mov	 rdi, QWORD PTR maxcount$1$[rsp]
  002f1	49 ff c4	 inc	 r12
  002f4	4c 89 64 24 30	 mov	 QWORD PTR count$1$[rsp], r12
  002f9	48 89 5c 24 38	 mov	 QWORD PTR i$1$[rsp], rbx
  002fe	48 85 ff	 test	 rdi, rdi
  00301	0f 8e 43 ff ff
	ff		 jle	 $LN110@stringlib_@13

; 179  :     } else
; 180  : #endif
; 181  :     {
; 182  :         SPLIT_ADD(str, i, str_len);

  00307	48 8b ac 24 a0
	00 00 00	 mov	 rbp, QWORD PTR str_len$[rsp]
  0030f	4c 8b b4 24 98
	00 00 00	 mov	 r14, QWORD PTR str$[rsp]
  00317	e9 c4 fd ff ff	 jmp	 $LL15@stringlib_@13
$LN105@stringlib_@13:

; 170  :         SPLIT_ADD(str, i, j);

  0031c	e8 00 00 00 00	 call	 _Py_DecRef
$onError$21368:

; 186  : 
; 187  :   onError:
; 188  :     Py_DECREF(list);

  00321	48 8b 8c 24 b0
	00 00 00	 mov	 rcx, QWORD PTR list$1$[rsp]
  00329	e8 00 00 00 00	 call	 _Py_DecRef

; 189  :     return NULL;

  0032e	33 c0		 xor	 eax, eax
$LN123@stringlib_@13:
  00330	48 8b 9c 24 a8
	00 00 00	 mov	 rbx, QWORD PTR [rsp+168]
$LN122@stringlib_@13:
  00338	48 8b 7c 24 58	 mov	 rdi, QWORD PTR [rsp+88]
  0033d	4c 8b 6c 24 50	 mov	 r13, QWORD PTR [rsp+80]

; 190  : }

  00342	48 83 c4 60	 add	 rsp, 96			; 00000060H
  00346	41 5f		 pop	 r15
  00348	41 5e		 pop	 r14
  0034a	41 5c		 pop	 r12
  0034c	5e		 pop	 rsi
  0034d	5d		 pop	 rbp
  0034e	c3		 ret	 0
$LN7@stringlib_@13:

; 179  :     } else
; 180  : #endif
; 181  :     {
; 182  :         SPLIT_ADD(str, i, str_len);

  0034f	48 8b 84 24 98
	00 00 00	 mov	 rax, QWORD PTR str$[rsp]
  00357	48 8b 94 24 a0
	00 00 00	 mov	 rdx, QWORD PTR str_len$[rsp]
  0035f	48 8d 0c 03	 lea	 rcx, QWORD PTR [rbx+rax]
  00363	48 2b d3	 sub	 rdx, rbx
  00366	e8 00 00 00 00	 call	 PyBytes_FromStringAndSize
  0036b	48 8b d8	 mov	 rbx, rax
  0036e	48 85 c0	 test	 rax, rax
  00371	74 ae		 je	 SHORT $onError$21368
  00373	4c 8b ac 24 b0
	00 00 00	 mov	 r13, QWORD PTR list$1$[rsp]
  0037b	49 83 fc 0c	 cmp	 r12, 12
  0037f	7d 15		 jge	 SHORT $LN4@stringlib_@13
  00381	49 8b 4d 70	 mov	 rcx, QWORD PTR [r13+112]
  00385	49 ff c4	 inc	 r12
  00388	4a 89 44 e1 f8	 mov	 QWORD PTR [rcx+r12*8-8], rax

; 183  :     }
; 184  :     FIX_PREALLOC_SIZE(list);

  0038d	4d 89 65 60	 mov	 QWORD PTR [r13+96], r12

; 185  :     return list;

  00391	49 8b c5	 mov	 rax, r13
  00394	eb 9a		 jmp	 SHORT $LN123@stringlib_@13
$LN4@stringlib_@13:

; 179  :     } else
; 180  : #endif
; 181  :     {
; 182  :         SPLIT_ADD(str, i, str_len);

  00396	48 8b d0	 mov	 rdx, rax
  00399	49 8b cd	 mov	 rcx, r13
  0039c	e8 00 00 00 00	 call	 PyList_Append
  003a1	48 8b cb	 mov	 rcx, rbx
  003a4	85 c0		 test	 eax, eax
  003a6	0f 85 70 ff ff
	ff		 jne	 $LN105@stringlib_@13
  003ac	e8 00 00 00 00	 call	 _Py_DecRef
  003b1	49 ff c4	 inc	 r12

; 185  :     return list;

  003b4	49 8b c5	 mov	 rax, r13
  003b7	4d 89 65 60	 mov	 QWORD PTR [r13+96], r12
  003bb	e9 70 ff ff ff	 jmp	 $LN123@stringlib_@13
stringlib_split ENDP
_TEXT	ENDS
EXTRN	PyList_Reverse:PROC
;	COMDAT pdata
; File c:\src\pyparallel\include\object.h
pdata	SEGMENT
$pdata$stringlib_rsplit_whitespace DD imagerel stringlib_rsplit_whitespace
	DD	imagerel stringlib_rsplit_whitespace+585
	DD	imagerel $unwind$stringlib_rsplit_whitespace
pdata	ENDS
;	COMDAT xdata
xdata	SEGMENT
$unwind$stringlib_rsplit_whitespace DD 0c5501H
	DD	0df455H
	DD	0c7450H
	DD	0e3411H
	DD	0e00d5211H
	DD	0c009d00bH
	DD	050066007H
; Function compile flags: /Ogtpy
; File c:\src\pyparallel\objects\stringlib\split.h
xdata	ENDS
;	COMDAT stringlib_rsplit_whitespace
_TEXT	SEGMENT
str_obj$ = 96
str$ = 104
str_len$ = 112
maxcount$ = 120
stringlib_rsplit_whitespace PROC			; COMDAT

; 196  : {

  00000	48 89 5c 24 18	 mov	 QWORD PTR [rsp+24], rbx
  00005	55		 push	 rbp
  00006	56		 push	 rsi
  00007	41 54		 push	 r12
  00009	41 55		 push	 r13
  0000b	41 56		 push	 r14
  0000d	48 83 ec 30	 sub	 rsp, 48			; 00000030H

; 197  :     Py_ssize_t i, j, count=0;

  00011	33 ed		 xor	 ebp, ebp
  00013	4c 8b f1	 mov	 r14, rcx
  00016	4d 8b e9	 mov	 r13, r9
  00019	49 8b d8	 mov	 rbx, r8
  0001c	48 8b f2	 mov	 rsi, rdx

; 198  :     PyObject *list = PyList_New(PREALLOC_SIZE(maxcount));

  0001f	8d 4d 0c	 lea	 ecx, QWORD PTR [rbp+12]
  00022	49 83 f9 0c	 cmp	 r9, 12
  00026	7d 04		 jge	 SHORT $LN28@stringlib_@14
  00028	49 8d 49 01	 lea	 rcx, QWORD PTR [r9+1]
$LN28@stringlib_@14:
  0002c	e8 00 00 00 00	 call	 PyList_New
  00031	4c 8b e0	 mov	 r12, rax

; 199  :     PyObject *sub;
; 200  : 
; 201  :     if (list == NULL)

  00034	48 85 c0	 test	 rax, rax
  00037	75 12		 jne	 SHORT $LN24@stringlib_@14

; 240  : }

  00039	48 8b 5c 24 70	 mov	 rbx, QWORD PTR [rsp+112]
  0003e	48 83 c4 30	 add	 rsp, 48			; 00000030H
  00042	41 5e		 pop	 r14
  00044	41 5d		 pop	 r13
  00046	41 5c		 pop	 r12
  00048	5e		 pop	 rsi
  00049	5d		 pop	 rbp
  0004a	c3		 ret	 0
$LN24@stringlib_@14:
  0004b	48 89 7c 24 60	 mov	 QWORD PTR [rsp+96], rdi
  00050	4c 89 7c 24 68	 mov	 QWORD PTR [rsp+104], r15

; 202  :         return NULL;
; 203  : 
; 204  :     i = j = str_len - 1;

  00055	4c 8d 7b ff	 lea	 r15, QWORD PTR [rbx-1]
  00059	49 8b df	 mov	 rbx, r15
$LN62@stringlib_@14:

; 205  :     while (maxcount-- > 0) {

  0005c	48 8d 0d 00 00
	00 00		 lea	 rcx, OFFSET FLAT:_Py_ctype_table
  00063	4d 85 ed	 test	 r13, r13
  00066	0f 8e 33 01 00
	00		 jle	 $LN50@stringlib_@14
  0006c	49 ff cd	 dec	 r13
  0006f	4c 8d 05 00 00
	00 00		 lea	 r8, OFFSET FLAT:PyBytes_Type

; 206  :         while (i >= 0 && STRINGLIB_ISSPACE(str[i]))

  00076	48 85 db	 test	 rbx, rbx
  00079	0f 88 8e 01 00
	00		 js	 $LN7@stringlib_@14
  0007f	90		 npad	 1
$LL21@stringlib_@14:
  00080	0f b6 04 33	 movzx	 eax, BYTE PTR [rbx+rsi]
  00084	f6 04 81 08	 test	 BYTE PTR [rcx+rax*4], 8
  00088	74 0a		 je	 SHORT $LN20@stringlib_@14

; 207  :             i--;

  0008a	48 ff cb	 dec	 rbx

; 206  :         while (i >= 0 && STRINGLIB_ISSPACE(str[i]))

  0008d	79 f1		 jns	 SHORT $LL21@stringlib_@14
  0008f	e9 79 01 00 00	 jmp	 $LN7@stringlib_@14
$LN20@stringlib_@14:

; 208  :         if (i < 0) break;

  00094	48 85 db	 test	 rbx, rbx
  00097	0f 88 70 01 00
	00		 js	 $LN7@stringlib_@14

; 209  :         j = i; i--;

  0009d	48 8b d3	 mov	 rdx, rbx
  000a0	48 ff cb	 dec	 rbx

; 210  :         while (i >= 0 && !STRINGLIB_ISSPACE(str[i]))

  000a3	78 0f		 js	 SHORT $LN57@stringlib_@14
$LL18@stringlib_@14:
  000a5	0f b6 04 33	 movzx	 eax, BYTE PTR [rbx+rsi]
  000a9	f6 04 81 08	 test	 BYTE PTR [rcx+rax*4], 8
  000ad	75 05		 jne	 SHORT $LN57@stringlib_@14

; 211  :             i--;

  000af	48 ff cb	 dec	 rbx

; 210  :         while (i >= 0 && !STRINGLIB_ISSPACE(str[i]))

  000b2	79 f1		 jns	 SHORT $LL18@stringlib_@14
$LN57@stringlib_@14:

; 212  : #ifndef STRINGLIB_MUTABLE
; 213  :         if (j == str_len - 1 && i < 0 && STRINGLIB_CHECK_EXACT(str_obj)) {

  000b4	49 3b d7	 cmp	 rdx, r15
  000b7	75 0f		 jne	 SHORT $LN16@stringlib_@14
  000b9	48 85 db	 test	 rbx, rbx
  000bc	79 0a		 jns	 SHORT $LN16@stringlib_@14
  000be	4d 39 46 58	 cmp	 QWORD PTR [r14+88], r8
  000c2	0f 84 bd 00 00
	00		 je	 $LN45@stringlib_@14
$LN16@stringlib_@14:

; 219  :         }
; 220  : #endif
; 221  :         SPLIT_ADD(str, i + 1, j + 1);

  000c8	48 8d 4c 33 01	 lea	 rcx, QWORD PTR [rbx+rsi+1]
  000cd	48 2b d3	 sub	 rdx, rbx
  000d0	e8 00 00 00 00	 call	 PyBytes_FromStringAndSize
  000d5	48 8b f8	 mov	 rdi, rax
  000d8	48 85 c0	 test	 rax, rax
  000db	0f 84 3d 01 00
	00		 je	 $onError$21431
  000e1	48 83 fd 0c	 cmp	 rbp, 12
  000e5	7d 12		 jge	 SHORT $LN14@stringlib_@14
  000e7	49 8b 4c 24 70	 mov	 rcx, QWORD PTR [r12+112]
  000ec	48 ff c5	 inc	 rbp
  000ef	48 89 44 e9 f8	 mov	 QWORD PTR [rcx+rbp*8-8], rax
  000f4	e9 63 ff ff ff	 jmp	 $LN62@stringlib_@14
$LN14@stringlib_@14:
  000f9	48 8b d0	 mov	 rdx, rax
  000fc	49 8b cc	 mov	 rcx, r12
  000ff	e8 00 00 00 00	 call	 PyList_Append
  00104	85 c0		 test	 eax, eax
  00106	0f 85 a9 00 00
	00		 jne	 $LN47@stringlib_@14
  0010c	e8 00 00 00 00	 call	 _Py_PXCTX
  00111	85 c0		 test	 eax, eax
  00113	75 68		 jne	 SHORT $LN39@stringlib_@14
  00115	48 8b 47 20	 mov	 rax, QWORD PTR [rdi+32]
  00119	a8 20		 test	 al, 32			; 00000020H
  0011b	75 58		 jne	 SHORT $LN33@stringlib_@14
  0011d	84 c0		 test	 al, al
  0011f	78 54		 js	 SHORT $LN33@stringlib_@14
  00121	a8 02		 test	 al, 2
  00123	75 58		 jne	 SHORT $LN39@stringlib_@14
  00125	48 ff 4f 50	 dec	 QWORD PTR [rdi+80]
  00129	75 52		 jne	 SHORT $LN39@stringlib_@14
  0012b	48 8d 15 00 00
	00 00		 lea	 rdx, OFFSET FLAT:??_C@_0CD@HDJFDCDP@c?3?2src?2pyparallel?2include?2object@
  00132	48 8d 0d 00 00
	00 00		 lea	 rcx, OFFSET FLAT:??_C@_0L@DMHMLFIA@_Py_DecRef?$AA@
  00139	4c 8b cf	 mov	 r9, rdi
  0013c	41 b8 a4 03 00
	00		 mov	 r8d, 932		; 000003a4H
  00142	c7 44 24 20 10
	00 00 00	 mov	 DWORD PTR [rsp+32], 16
  0014a	e8 00 00 00 00	 call	 _PyParallel_Guard
  0014f	48 8b cf	 mov	 rcx, rdi
  00152	85 c0		 test	 eax, eax
  00154	74 0d		 je	 SHORT $LN38@stringlib_@14
  00156	e8 00 00 00 00	 call	 _Px_Dealloc
  0015b	48 ff c5	 inc	 rbp
  0015e	e9 f9 fe ff ff	 jmp	 $LN62@stringlib_@14
$LN38@stringlib_@14:
  00163	48 8b 47 58	 mov	 rax, QWORD PTR [rdi+88]
  00167	ff 90 88 00 00
	00		 call	 QWORD PTR [rax+136]
  0016d	48 ff c5	 inc	 rbp
  00170	e9 e7 fe ff ff	 jmp	 $LN62@stringlib_@14
$LN33@stringlib_@14:
  00175	48 8b cf	 mov	 rcx, rdi
  00178	e8 00 00 00 00	 call	 Px_DecRef
$LN39@stringlib_@14:
  0017d	48 ff c5	 inc	 rbp

; 205  :     while (maxcount-- > 0) {

  00180	e9 d7 fe ff ff	 jmp	 $LN62@stringlib_@14
$LN45@stringlib_@14:

; 214  :             /* No whitespace in str_obj, so just use it as list[0] */
; 215  :             Py_INCREF(str_obj);

  00185	49 8b ce	 mov	 rcx, r14
  00188	e8 00 00 00 00	 call	 _Py_IncRef

; 216  :             PyList_SET_ITEM(list, 0, (PyObject *)str_obj);

  0018d	4d 8b 5c 24 70	 mov	 r11, QWORD PTR [r12+112]

; 217  :             count++;

  00192	48 ff c5	 inc	 rbp
  00195	4d 89 33	 mov	 QWORD PTR [r11], r14

; 218  :             break;

  00198	48 8d 0d 00 00
	00 00		 lea	 rcx, OFFSET FLAT:_Py_ctype_table
$LN50@stringlib_@14:

; 222  :     }
; 223  : 
; 224  :     if (i >= 0) {

  0019f	48 85 db	 test	 rbx, rbx
  001a2	78 69		 js	 SHORT $LN7@stringlib_@14
$LL9@stringlib_@14:

; 225  :         /* Only occurs when maxcount was reached */
; 226  :         /* Skip any remaining whitespace and copy to beginning of string */
; 227  :         while (i >= 0 && STRINGLIB_ISSPACE(str[i]))

  001a4	0f b6 04 33	 movzx	 eax, BYTE PTR [rbx+rsi]
  001a8	f6 04 81 08	 test	 BYTE PTR [rcx+rax*4], 8
  001ac	74 1b		 je	 SHORT $LN8@stringlib_@14

; 228  :             i--;

  001ae	48 ff cb	 dec	 rbx

; 225  :         /* Only occurs when maxcount was reached */
; 226  :         /* Skip any remaining whitespace and copy to beginning of string */
; 227  :         while (i >= 0 && STRINGLIB_ISSPACE(str[i]))

  001b1	79 f1		 jns	 SHORT $LL9@stringlib_@14

; 229  :         if (i >= 0)

  001b3	eb 58		 jmp	 SHORT $LN7@stringlib_@14
$LN47@stringlib_@14:

; 219  :         }
; 220  : #endif
; 221  :         SPLIT_ADD(str, i + 1, j + 1);

  001b5	48 8b cf	 mov	 rcx, rdi
$LN63@stringlib_@14:
  001b8	e8 00 00 00 00	 call	 _Py_DecRef

; 236  : 
; 237  :   onError:
; 238  :     Py_DECREF(list);

  001bd	49 8b cc	 mov	 rcx, r12
  001c0	e8 00 00 00 00	 call	 _Py_DecRef

; 239  :     return NULL;

  001c5	33 c0		 xor	 eax, eax
  001c7	eb 64		 jmp	 SHORT $LN60@stringlib_@14
$LN8@stringlib_@14:

; 229  :         if (i >= 0)

  001c9	48 85 db	 test	 rbx, rbx
  001cc	78 3f		 js	 SHORT $LN7@stringlib_@14

; 230  :             SPLIT_ADD(str, 0, i + 1);

  001ce	48 8d 53 01	 lea	 rdx, QWORD PTR [rbx+1]
  001d2	48 8b ce	 mov	 rcx, rsi
  001d5	e8 00 00 00 00	 call	 PyBytes_FromStringAndSize
  001da	48 8b d8	 mov	 rbx, rax
  001dd	48 85 c0	 test	 rax, rax
  001e0	74 3c		 je	 SHORT $onError$21431
  001e2	48 83 fd 0c	 cmp	 rbp, 12
  001e6	7d 0b		 jge	 SHORT $LN5@stringlib_@14
  001e8	49 8b 4c 24 70	 mov	 rcx, QWORD PTR [r12+112]
  001ed	48 89 04 e9	 mov	 QWORD PTR [rcx+rbp*8], rax
  001f1	eb 17		 jmp	 SHORT $LN2@stringlib_@14
$LN5@stringlib_@14:
  001f3	48 8b d0	 mov	 rdx, rax
  001f6	49 8b cc	 mov	 rcx, r12
  001f9	e8 00 00 00 00	 call	 PyList_Append
  001fe	48 8b cb	 mov	 rcx, rbx
  00201	85 c0		 test	 eax, eax
  00203	75 b3		 jne	 SHORT $LN63@stringlib_@14
  00205	e8 00 00 00 00	 call	 _Py_DecRef
$LN2@stringlib_@14:
  0020a	48 ff c5	 inc	 rbp
$LN7@stringlib_@14:

; 231  :     }
; 232  :     FIX_PREALLOC_SIZE(list);
; 233  :     if (PyList_Reverse(list) < 0)

  0020d	49 8b cc	 mov	 rcx, r12
  00210	49 89 6c 24 60	 mov	 QWORD PTR [r12+96], rbp
  00215	e8 00 00 00 00	 call	 PyList_Reverse
  0021a	85 c0		 test	 eax, eax
  0021c	79 0c		 jns	 SHORT $LN1@stringlib_@14
$onError$21431:

; 236  : 
; 237  :   onError:
; 238  :     Py_DECREF(list);

  0021e	49 8b cc	 mov	 rcx, r12
  00221	e8 00 00 00 00	 call	 _Py_DecRef

; 239  :     return NULL;

  00226	33 c0		 xor	 eax, eax
  00228	eb 03		 jmp	 SHORT $LN60@stringlib_@14
$LN1@stringlib_@14:

; 234  :         goto onError;
; 235  :     return list;

  0022a	49 8b c4	 mov	 rax, r12
$LN60@stringlib_@14:
  0022d	48 8b 7c 24 60	 mov	 rdi, QWORD PTR [rsp+96]
  00232	4c 8b 7c 24 68	 mov	 r15, QWORD PTR [rsp+104]

; 240  : }

  00237	48 8b 5c 24 70	 mov	 rbx, QWORD PTR [rsp+112]
  0023c	48 83 c4 30	 add	 rsp, 48			; 00000030H
  00240	41 5e		 pop	 r14
  00242	41 5d		 pop	 r13
  00244	41 5c		 pop	 r12
  00246	5e		 pop	 rsi
  00247	5d		 pop	 rbp
  00248	c3		 ret	 0
stringlib_rsplit_whitespace ENDP
_TEXT	ENDS
;	COMDAT pdata
; File c:\src\pyparallel\include\object.h
pdata	SEGMENT
$pdata$stringlib_rsplit_char DD imagerel stringlib_rsplit_char
	DD	imagerel stringlib_rsplit_char+80
	DD	imagerel $unwind$stringlib_rsplit_char
pdata	ENDS
;	COMDAT pdata
pdata	SEGMENT
$pdata$0$stringlib_rsplit_char DD imagerel stringlib_rsplit_char+80
	DD	imagerel stringlib_rsplit_char+503
	DD	imagerel $chain$0$stringlib_rsplit_char
pdata	ENDS
;	COMDAT pdata
pdata	SEGMENT
$pdata$1$stringlib_rsplit_char DD imagerel stringlib_rsplit_char+503
	DD	imagerel stringlib_rsplit_char+527
	DD	imagerel $chain$1$stringlib_rsplit_char
pdata	ENDS
;	COMDAT xdata
xdata	SEGMENT
$chain$1$stringlib_rsplit_char DD 021H
	DD	imagerel stringlib_rsplit_char
	DD	imagerel stringlib_rsplit_char+80
	DD	imagerel $unwind$stringlib_rsplit_char
xdata	ENDS
;	COMDAT xdata
xdata	SEGMENT
$chain$0$stringlib_rsplit_char DD 020521H
	DD	0c5405H
	DD	imagerel stringlib_rsplit_char
	DD	imagerel stringlib_rsplit_char+80
	DD	imagerel $unwind$stringlib_rsplit_char
xdata	ENDS
;	COMDAT xdata
xdata	SEGMENT
$unwind$stringlib_rsplit_char DD 0a1701H
	DD	0e6417H
	DD	0d3417H
	DD	0f0135217H
	DD	0d00fe011H
	DD	0700bc00dH
; Function compile flags: /Ogtpy
; File c:\src\pyparallel\objects\stringlib\split.h
xdata	ENDS
;	COMDAT stringlib_rsplit_char
_TEXT	SEGMENT
str_obj$ = 96
str$ = 104
str_len$ = 112
ch$ = 120
maxcount$ = 128
stringlib_rsplit_char PROC				; COMDAT

; 247  : {

  00000	48 89 5c 24 10	 mov	 QWORD PTR [rsp+16], rbx
  00005	48 89 74 24 18	 mov	 QWORD PTR [rsp+24], rsi
  0000a	57		 push	 rdi
  0000b	41 54		 push	 r12
  0000d	41 55		 push	 r13
  0000f	41 56		 push	 r14
  00011	41 57		 push	 r15
  00013	48 83 ec 30	 sub	 rsp, 48			; 00000030H

; 248  :     Py_ssize_t i, j, count=0;
; 249  :     PyObject *list = PyList_New(PREALLOC_SIZE(maxcount));

  00017	4c 8b b4 24 80
	00 00 00	 mov	 r14, QWORD PTR maxcount$[rsp]
  0001f	33 f6		 xor	 esi, esi
  00021	4c 8b f9	 mov	 r15, rcx
  00024	45 0f b6 e9	 movzx	 r13d, r9b
  00028	49 8b d8	 mov	 rbx, r8
  0002b	4c 8b e2	 mov	 r12, rdx
  0002e	8d 4e 0c	 lea	 ecx, QWORD PTR [rsi+12]
  00031	49 83 fe 0c	 cmp	 r14, 12
  00035	7d 04		 jge	 SHORT $LN25@stringlib_@15
  00037	49 8d 4e 01	 lea	 rcx, QWORD PTR [r14+1]
$LN25@stringlib_@15:
  0003b	e8 00 00 00 00	 call	 PyList_New
  00040	48 8b f8	 mov	 rdi, rax

; 250  :     PyObject *sub;
; 251  : 
; 252  :     if (list == NULL)

  00043	48 85 c0	 test	 rax, rax
  00046	0f 84 ab 01 00
	00		 je	 $LN22@stringlib_@15
$LN21@stringlib_@15:

; 253  :         return NULL;
; 254  : 
; 255  :     i = j = str_len - 1;

  0004c	48 8d 53 ff	 lea	 rdx, QWORD PTR [rbx-1]
  00050	48 89 6c 24 60	 mov	 QWORD PTR [rsp+96], rbp
  00055	48 8b da	 mov	 rbx, rdx

; 256  :     while ((i >= 0) && (maxcount-- > 0)) {

  00058	48 85 d2	 test	 rdx, rdx
  0005b	78 74		 js	 SHORT $LN49@stringlib_@15
  0005d	0f 1f 00	 npad	 3
$LL20@stringlib_@15:
  00060	49 8b c6	 mov	 rax, r14
  00063	49 ff ce	 dec	 r14
  00066	48 85 c0	 test	 rax, rax
  00069	7e 61		 jle	 SHORT $LN19@stringlib_@15

; 257  :         for(; i >= 0; i--) {

  0006b	48 85 db	 test	 rbx, rbx
  0006e	78 5c		 js	 SHORT $LN19@stringlib_@15
$LL18@stringlib_@15:

; 258  :             if (str[i] == ch) {

  00070	46 38 2c 23	 cmp	 BYTE PTR [rbx+r12], r13b
  00074	74 07		 je	 SHORT $LN43@stringlib_@15

; 257  :         for(; i >= 0; i--) {

  00076	48 ff cb	 dec	 rbx
  00079	79 f5		 jns	 SHORT $LL18@stringlib_@15
  0007b	eb 4f		 jmp	 SHORT $LN19@stringlib_@15
$LN43@stringlib_@15:

; 259  :                 SPLIT_ADD(str, i + 1, j + 1);

  0007d	4a 8d 4c 23 01	 lea	 rcx, QWORD PTR [rbx+r12+1]
  00082	48 2b d3	 sub	 rdx, rbx
  00085	e8 00 00 00 00	 call	 PyBytes_FromStringAndSize
  0008a	48 8b e8	 mov	 rbp, rax
  0008d	48 85 c0	 test	 rax, rax
  00090	0f 84 ec 00 00
	00		 je	 $onError$21487
  00096	48 83 fe 0c	 cmp	 rsi, 12
  0009a	7d 0a		 jge	 SHORT $LN13@stringlib_@15
  0009c	48 8b 4f 70	 mov	 rcx, QWORD PTR [rdi+112]
  000a0	48 89 04 f1	 mov	 QWORD PTR [rcx+rsi*8], rax
  000a4	eb 1b		 jmp	 SHORT $LN10@stringlib_@15
$LN13@stringlib_@15:
  000a6	48 8b d0	 mov	 rdx, rax
  000a9	48 8b cf	 mov	 rcx, rdi
  000ac	e8 00 00 00 00	 call	 PyList_Append
  000b1	48 8b cd	 mov	 rcx, rbp
  000b4	85 c0		 test	 eax, eax
  000b6	0f 85 a7 00 00
	00		 jne	 $LN45@stringlib_@15
  000bc	e8 00 00 00 00	 call	 _Py_DecRef
$LN10@stringlib_@15:
  000c1	48 ff c6	 inc	 rsi

; 260  :                 j = i = i - 1;

  000c4	48 ff cb	 dec	 rbx
  000c7	48 8b d3	 mov	 rdx, rbx
  000ca	79 94		 jns	 SHORT $LL20@stringlib_@15
$LN19@stringlib_@15:

; 261  :                 break;
; 262  :             }
; 263  :         }
; 264  :     }
; 265  : #ifndef STRINGLIB_MUTABLE
; 266  :     if (count == 0 && STRINGLIB_CHECK_EXACT(str_obj)) {

  000cc	48 85 f6	 test	 rsi, rsi
  000cf	75 57		 jne	 SHORT $LN9@stringlib_@15
$LN49@stringlib_@15:
  000d1	48 8d 05 00 00
	00 00		 lea	 rax, OFFSET FLAT:PyBytes_Type
  000d8	49 39 47 58	 cmp	 QWORD PTR [r15+88], rax
  000dc	75 4a		 jne	 SHORT $LN9@stringlib_@15

; 267  :         /* ch not in str_obj, so just use str_obj as list[0] */
; 268  :         Py_INCREF(str_obj);

  000de	e8 00 00 00 00	 call	 _Py_PXCTX
  000e3	85 c0		 test	 eax, eax
  000e5	75 33		 jne	 SHORT $LN27@stringlib_@15
  000e7	48 8d 15 00 00
	00 00		 lea	 rdx, OFFSET FLAT:??_C@_0CD@HDJFDCDP@c?3?2src?2pyparallel?2include?2object@
  000ee	48 8d 0d 00 00
	00 00		 lea	 rcx, OFFSET FLAT:??_C@_0L@DHGMCEID@_Py_IncRef?$AA@
  000f5	4d 8b cf	 mov	 r9, r15
  000f8	41 b8 89 03 00
	00		 mov	 r8d, 905		; 00000389H
  000fe	c7 44 24 20 02
	00 00 00	 mov	 DWORD PTR [rsp+32], 2
  00106	e8 00 00 00 00	 call	 _PyParallel_Guard
  0010b	85 c0		 test	 eax, eax
  0010d	75 07		 jne	 SHORT $LN26@stringlib_@15
  0010f	41 f6 47 20 20	 test	 BYTE PTR [r15+32], 32	; 00000020H
  00114	74 04		 je	 SHORT $LN27@stringlib_@15
$LN26@stringlib_@15:
  00116	49 ff 47 50	 inc	 QWORD PTR [r15+80]
$LN27@stringlib_@15:

; 269  :         PyList_SET_ITEM(list, 0, (PyObject *)str_obj);

  0011a	48 8b 47 70	 mov	 rax, QWORD PTR [rdi+112]

; 270  :         count++;

  0011e	be 01 00 00 00	 mov	 esi, 1
  00123	4c 89 38	 mov	 QWORD PTR [rax], r15

; 271  :     } else

  00126	eb 4a		 jmp	 SHORT $LN7@stringlib_@15
$LN9@stringlib_@15:

; 272  : #endif
; 273  :     if (j >= -1) {

  00128	48 83 fa ff	 cmp	 rdx, -1
  0012c	7c 44		 jl	 SHORT $LN7@stringlib_@15

; 274  :         SPLIT_ADD(str, 0, j + 1);

  0012e	48 ff c2	 inc	 rdx
  00131	49 8b cc	 mov	 rcx, r12
  00134	e8 00 00 00 00	 call	 PyBytes_FromStringAndSize
  00139	48 8b d8	 mov	 rbx, rax
  0013c	48 85 c0	 test	 rax, rax
  0013f	74 41		 je	 SHORT $onError$21487
  00141	48 83 fe 0c	 cmp	 rsi, 12
  00145	7d 0a		 jge	 SHORT $LN5@stringlib_@15
  00147	48 8b 4f 70	 mov	 rcx, QWORD PTR [rdi+112]
  0014b	48 89 04 f1	 mov	 QWORD PTR [rcx+rsi*8], rax
  0014f	eb 1e		 jmp	 SHORT $LN2@stringlib_@15
$LN5@stringlib_@15:
  00151	48 8b d0	 mov	 rdx, rax
  00154	48 8b cf	 mov	 rcx, rdi
  00157	e8 00 00 00 00	 call	 PyList_Append
  0015c	48 8b cb	 mov	 rcx, rbx
  0015f	85 c0		 test	 eax, eax
  00161	74 07		 je	 SHORT $LN3@stringlib_@15
$LN45@stringlib_@15:
  00163	e8 00 00 00 00	 call	 _Py_DecRef
  00168	eb 18		 jmp	 SHORT $onError$21487
$LN3@stringlib_@15:
  0016a	e8 00 00 00 00	 call	 _Py_DecRef
$LN2@stringlib_@15:
  0016f	48 ff c6	 inc	 rsi
$LN7@stringlib_@15:

; 275  :     }
; 276  :     FIX_PREALLOC_SIZE(list);
; 277  :     if (PyList_Reverse(list) < 0)

  00172	48 8b cf	 mov	 rcx, rdi
  00175	48 89 77 60	 mov	 QWORD PTR [rdi+96], rsi
  00179	e8 00 00 00 00	 call	 PyList_Reverse
  0017e	85 c0		 test	 eax, eax
  00180	79 6d		 jns	 SHORT $LN1@stringlib_@15
$onError$21487:

; 280  : 
; 281  :   onError:
; 282  :     Py_DECREF(list);

  00182	e8 00 00 00 00	 call	 _Py_PXCTX
  00187	85 c0		 test	 eax, eax
  00189	75 60		 jne	 SHORT $LN40@stringlib_@15
  0018b	48 8b 47 20	 mov	 rax, QWORD PTR [rdi+32]
  0018f	a8 20		 test	 al, 32			; 00000020H
  00191	75 50		 jne	 SHORT $LN34@stringlib_@15
  00193	84 c0		 test	 al, al
  00195	78 4c		 js	 SHORT $LN34@stringlib_@15
  00197	a8 02		 test	 al, 2
  00199	75 50		 jne	 SHORT $LN40@stringlib_@15
  0019b	48 ff 4f 50	 dec	 QWORD PTR [rdi+80]
  0019f	75 4a		 jne	 SHORT $LN40@stringlib_@15
  001a1	48 8d 15 00 00
	00 00		 lea	 rdx, OFFSET FLAT:??_C@_0CD@HDJFDCDP@c?3?2src?2pyparallel?2include?2object@
  001a8	48 8d 0d 00 00
	00 00		 lea	 rcx, OFFSET FLAT:??_C@_0L@DMHMLFIA@_Py_DecRef?$AA@
  001af	4c 8b cf	 mov	 r9, rdi
  001b2	41 b8 a4 03 00
	00		 mov	 r8d, 932		; 000003a4H
  001b8	c7 44 24 20 10
	00 00 00	 mov	 DWORD PTR [rsp+32], 16
  001c0	e8 00 00 00 00	 call	 _PyParallel_Guard
  001c5	48 8b cf	 mov	 rcx, rdi
  001c8	85 c0		 test	 eax, eax
  001ca	74 09		 je	 SHORT $LN39@stringlib_@15
  001cc	e8 00 00 00 00	 call	 _Px_Dealloc

; 283  :     return NULL;

  001d1	33 c0		 xor	 eax, eax
  001d3	eb 1d		 jmp	 SHORT $LN50@stringlib_@15

; 280  : 
; 281  :   onError:
; 282  :     Py_DECREF(list);

$LN39@stringlib_@15:
  001d5	48 8b 47 58	 mov	 rax, QWORD PTR [rdi+88]
  001d9	ff 90 88 00 00
	00		 call	 QWORD PTR [rax+136]

; 283  :     return NULL;

  001df	33 c0		 xor	 eax, eax
  001e1	eb 0f		 jmp	 SHORT $LN50@stringlib_@15

; 280  : 
; 281  :   onError:
; 282  :     Py_DECREF(list);

$LN34@stringlib_@15:
  001e3	48 8b cf	 mov	 rcx, rdi
  001e6	e8 00 00 00 00	 call	 Px_DecRef
$LN40@stringlib_@15:

; 283  :     return NULL;

  001eb	33 c0		 xor	 eax, eax
  001ed	eb 03		 jmp	 SHORT $LN50@stringlib_@15
$LN1@stringlib_@15:

; 278  :         goto onError;
; 279  :     return list;

  001ef	48 8b c7	 mov	 rax, rdi
$LN50@stringlib_@15:
  001f2	48 8b 6c 24 60	 mov	 rbp, QWORD PTR [rsp+96]
$LN22@stringlib_@15:

; 284  : }

  001f7	48 8b 5c 24 68	 mov	 rbx, QWORD PTR [rsp+104]
  001fc	48 8b 74 24 70	 mov	 rsi, QWORD PTR [rsp+112]
  00201	48 83 c4 30	 add	 rsp, 48			; 00000030H
  00205	41 5f		 pop	 r15
  00207	41 5e		 pop	 r14
  00209	41 5d		 pop	 r13
  0020b	41 5c		 pop	 r12
  0020d	5f		 pop	 rdi
  0020e	c3		 ret	 0
stringlib_rsplit_char ENDP
_TEXT	ENDS
;	COMDAT pdata
; File c:\src\pyparallel\objects\stringlib\fastsearch.h
pdata	SEGMENT
$pdata$stringlib_rsplit DD imagerel stringlib_rsplit
	DD	imagerel stringlib_rsplit+130
	DD	imagerel $unwind$stringlib_rsplit
pdata	ENDS
;	COMDAT pdata
pdata	SEGMENT
$pdata$1$stringlib_rsplit DD imagerel stringlib_rsplit+130
	DD	imagerel stringlib_rsplit+744
	DD	imagerel $chain$1$stringlib_rsplit
pdata	ENDS
;	COMDAT pdata
pdata	SEGMENT
$pdata$3$stringlib_rsplit DD imagerel stringlib_rsplit+744
	DD	imagerel stringlib_rsplit+836
	DD	imagerel $chain$3$stringlib_rsplit
pdata	ENDS
;	COMDAT xdata
xdata	SEGMENT
$chain$3$stringlib_rsplit DD 040021H
	DD	08e400H
	DD	011d400H
	DD	imagerel stringlib_rsplit
	DD	imagerel stringlib_rsplit+130
	DD	imagerel $unwind$stringlib_rsplit
xdata	ENDS
;	COMDAT xdata
xdata	SEGMENT
$chain$1$stringlib_rsplit DD 040d21H
	DD	08e40dH
	DD	011d408H
	DD	imagerel stringlib_rsplit
	DD	imagerel stringlib_rsplit+130
	DD	imagerel $unwind$stringlib_rsplit
xdata	ENDS
;	COMDAT xdata
xdata	SEGMENT
$unwind$stringlib_rsplit DD 071601H
	DD	0f0128216H
	DD	0700ec010H
	DD	0500c600dH
	DD	0300bH
; Function compile flags: /Ogtpy
; File c:\src\pyparallel\objects\stringlib\split.h
xdata	ENDS
;	COMDAT stringlib_rsplit
_TEXT	SEGMENT
j$1$ = 48
maxcount$1$ = 56
str_obj$ = 128
str$ = 136
str_len$ = 144
sep$ = 152
list$1$ = 160
sep_len$ = 160
maxcount$ = 168
stringlib_rsplit PROC					; COMDAT

; 291  : {

  00000	4c 89 4c 24 20	 mov	 QWORD PTR [rsp+32], r9
  00005	48 89 4c 24 08	 mov	 QWORD PTR [rsp+8], rcx
  0000a	53		 push	 rbx
  0000b	55		 push	 rbp
  0000c	56		 push	 rsi
  0000d	57		 push	 rdi
  0000e	41 54		 push	 r12
  00010	41 57		 push	 r15
  00012	48 83 ec 48	 sub	 rsp, 72			; 00000048H

; 292  :     Py_ssize_t j, pos, count=0;
; 293  :     PyObject *list, *sub;
; 294  : 
; 295  :     if (sep_len == 0) {

  00016	48 8b b4 24 a0
	00 00 00	 mov	 rsi, QWORD PTR sep_len$[rsp]
  0001e	45 33 ff	 xor	 r15d, r15d
  00021	4d 8b e1	 mov	 r12, r9
  00024	49 8b f8	 mov	 rdi, r8
  00027	4c 89 44 24 30	 mov	 QWORD PTR j$1$[rsp], r8
  0002c	48 8b ea	 mov	 rbp, rdx
  0002f	48 8b d9	 mov	 rbx, rcx
  00032	48 85 f6	 test	 rsi, rsi
  00035	75 22		 jne	 SHORT $LN20@stringlib_@16

; 296  :         PyErr_SetString(PyExc_ValueError, "empty separator");

  00037	48 8b 0d 00 00
	00 00		 mov	 rcx, QWORD PTR PyExc_ValueError
  0003e	48 8d 15 00 00
	00 00		 lea	 rdx, OFFSET FLAT:??_C@_0BA@JDENDMBF@empty?5separator?$AA@
  00045	e8 00 00 00 00	 call	 PyErr_SetString

; 297  :         return NULL;

  0004a	33 c0		 xor	 eax, eax

; 333  : }

  0004c	48 83 c4 48	 add	 rsp, 72			; 00000048H
  00050	41 5f		 pop	 r15
  00052	41 5c		 pop	 r12
  00054	5f		 pop	 rdi
  00055	5e		 pop	 rsi
  00056	5d		 pop	 rbp
  00057	5b		 pop	 rbx
  00058	c3		 ret	 0
$LN20@stringlib_@16:

; 298  :     }
; 299  :     else if (sep_len == 1)

  00059	48 83 fe 01	 cmp	 rsi, 1
  0005d	75 23		 jne	 SHORT $LN18@stringlib_@16

; 300  :         return STRINGLIB(rsplit_char)(str_obj, str, str_len, sep[0], maxcount);

  0005f	48 8b 84 24 a8
	00 00 00	 mov	 rax, QWORD PTR maxcount$[rsp]
  00067	45 0f b6 09	 movzx	 r9d, BYTE PTR [r9]
  0006b	48 89 44 24 20	 mov	 QWORD PTR [rsp+32], rax
  00070	e8 00 00 00 00	 call	 stringlib_rsplit_char

; 333  : }

  00075	48 83 c4 48	 add	 rsp, 72			; 00000048H
  00079	41 5f		 pop	 r15
  0007b	41 5c		 pop	 r12
  0007d	5f		 pop	 rdi
  0007e	5e		 pop	 rsi
  0007f	5d		 pop	 rbp
  00080	5b		 pop	 rbx
  00081	c3		 ret	 0
$LN18@stringlib_@16:
  00082	4c 89 ac 24 88
	00 00 00	 mov	 QWORD PTR [rsp+136], r13
  0008a	4c 89 74 24 40	 mov	 QWORD PTR [rsp+64], r14

; 301  : 
; 302  :     list = PyList_New(PREALLOC_SIZE(maxcount));

  0008f	4c 8b b4 24 a8
	00 00 00	 mov	 r14, QWORD PTR maxcount$[rsp]
  00097	b9 0c 00 00 00	 mov	 ecx, 12
  0009c	49 83 fe 0c	 cmp	 r14, 12
  000a0	7d 04		 jge	 SHORT $LN24@stringlib_@16
  000a2	49 8d 4e 01	 lea	 rcx, QWORD PTR [r14+1]
$LN24@stringlib_@16:
  000a6	e8 00 00 00 00	 call	 PyList_New
  000ab	4c 8b e8	 mov	 r13, rax
  000ae	48 89 84 24 a0
	00 00 00	 mov	 QWORD PTR list$1$[rsp], rax

; 303  :     if (list == NULL)

  000b6	48 85 c0	 test	 rax, rax

; 304  :         return NULL;

  000b9	0f 84 0d 02 00
	00		 je	 $LN123@stringlib_@16

; 305  : 
; 306  :     j = str_len;
; 307  :     while (maxcount-- > 0) {

  000bf	4d 85 f6	 test	 r14, r14
  000c2	7e 67		 jle	 SHORT $LN113@stringlib_@16
  000c4	66 66 66 66 0f
	1f 84 00 00 00
	00 00		 npad	 12
$LL16@stringlib_@16:
  000d0	49 ff ce	 dec	 r14

; 308  :         pos = FASTSEARCH(str, j, sep, sep_len, -1, FAST_RSEARCH);

  000d3	48 8b df	 mov	 rbx, rdi
  000d6	48 2b de	 sub	 rbx, rsi
  000d9	4c 89 74 24 38	 mov	 QWORD PTR maxcount$1$[rsp], r14
  000de	78 32		 js	 SHORT $LN111@stringlib_@16
  000e0	48 83 fe 01	 cmp	 rsi, 1
  000e4	7f 70		 jg	 SHORT $LN83@stringlib_@16
  000e6	48 85 f6	 test	 rsi, rsi
  000e9	7e 27		 jle	 SHORT $LN111@stringlib_@16
  000eb	48 8d 5f ff	 lea	 rbx, QWORD PTR [rdi-1]
  000ef	48 83 fb ff	 cmp	 rbx, -1
  000f3	7e 1d		 jle	 SHORT $LN111@stringlib_@16
  000f5	41 0f b6 04 24	 movzx	 eax, BYTE PTR [r12]
  000fa	66 0f 1f 44 00
	00		 npad	 6
$LL67@stringlib_@16:
  00100	38 04 2b	 cmp	 BYTE PTR [rbx+rbp], al
  00103	0f 84 4b 01 00
	00		 je	 $LN103@stringlib_@16
  00109	48 ff cb	 dec	 rbx
  0010c	48 83 fb ff	 cmp	 rbx, -1
  00110	7f ee		 jg	 SHORT $LL67@stringlib_@16
$LN111@stringlib_@16:

; 313  :     }
; 314  : #ifndef STRINGLIB_MUTABLE
; 315  :     if (count == 0 && STRINGLIB_CHECK_EXACT(str_obj)) {

  00112	4d 85 ff	 test	 r15, r15
  00115	0f 85 cd 01 00
	00		 jne	 $LN8@stringlib_@16
  0011b	4c 8b ac 24 a0
	00 00 00	 mov	 r13, QWORD PTR list$1$[rsp]
  00123	48 8b 9c 24 80
	00 00 00	 mov	 rbx, QWORD PTR str_obj$[rsp]
$LN113@stringlib_@16:
  0012b	48 8d 05 00 00
	00 00		 lea	 rax, OFFSET FLAT:PyBytes_Type
  00132	48 39 43 58	 cmp	 QWORD PTR [rbx+88], rax
  00136	0f 85 ac 01 00
	00		 jne	 $LN8@stringlib_@16

; 316  :         /* No match in str_obj, so just use it as list[0] */
; 317  :         Py_INCREF(str_obj);

  0013c	48 8b cb	 mov	 rcx, rbx
  0013f	e8 00 00 00 00	 call	 _Py_IncRef

; 318  :         PyList_SET_ITEM(list, 0, (PyObject *)str_obj);

  00144	4d 8b 5d 70	 mov	 r11, QWORD PTR [r13+112]

; 319  :         count++;

  00148	41 bf 01 00 00
	00		 mov	 r15d, 1
  0014e	49 89 1b	 mov	 QWORD PTR [r11], rbx

; 320  :     } else

  00151	e9 d9 01 00 00	 jmp	 $LN7@stringlib_@16

; 308  :         pos = FASTSEARCH(str, j, sep, sep_len, -1, FAST_RSEARCH);

$LN83@stringlib_@16:
  00156	4c 8b 94 24 98
	00 00 00	 mov	 r10, QWORD PTR sep$[rsp]
  0015e	48 8d 7e ff	 lea	 rdi, QWORD PTR [rsi-1]
  00162	41 bd 01 00 00
	00		 mov	 r13d, 1
  00168	45 0f be 32	 movsx	 r14d, BYTE PTR [r10]
  0016c	4c 8d 67 ff	 lea	 r12, QWORD PTR [rdi-1]
  00170	41 8b ce	 mov	 ecx, r14d
  00173	83 e1 1f	 and	 ecx, 31
  00176	41 d3 e5	 shl	 r13d, cl
  00179	48 85 ff	 test	 rdi, rdi
  0017c	7e 3f		 jle	 SHORT $LN40@stringlib_@16
  0017e	49 83 cb ff	 or	 r11, -1
  00182	4e 8d 0c 17	 lea	 r9, QWORD PTR [rdi+r10]
  00186	4d 2b da	 sub	 r11, r10
  00189	4c 8b d7	 mov	 r10, rdi
  0018c	0f 1f 40 00	 npad	 4
$LL42@stringlib_@16:
  00190	45 0f be 01	 movsx	 r8d, BYTE PTR [r9]
  00194	ba 01 00 00 00	 mov	 edx, 1
  00199	41 8b c8	 mov	 ecx, r8d
  0019c	83 e1 1f	 and	 ecx, 31
  0019f	d3 e2		 shl	 edx, cl
  001a1	44 0b ea	 or	 r13d, edx
  001a4	45 3a c6	 cmp	 r8b, r14b
  001a7	75 04		 jne	 SHORT $LN41@stringlib_@16
  001a9	4f 8d 24 0b	 lea	 r12, QWORD PTR [r11+r9]
$LN41@stringlib_@16:
  001ad	49 ff c9	 dec	 r9
  001b0	49 ff ca	 dec	 r10
  001b3	75 db		 jne	 SHORT $LL42@stringlib_@16
  001b5	4c 8b 94 24 98
	00 00 00	 mov	 r10, QWORD PTR sep$[rsp]
$LN40@stringlib_@16:
  001bd	4c 8b c3	 mov	 r8, rbx
  001c0	4d 2b c2	 sub	 r8, r10
  001c3	4c 03 c5	 add	 r8, rbp
$LL38@stringlib_@16:
  001c6	44 38 34 2b	 cmp	 BYTE PTR [rbx+rbp], r14b
  001ca	75 48		 jne	 SHORT $LN35@stringlib_@16
  001cc	48 8b d7	 mov	 rdx, rdi
  001cf	48 85 ff	 test	 rdi, rdi
  001d2	7e 20		 jle	 SHORT $LN119@stringlib_@16
  001d4	4a 8d 0c 17	 lea	 rcx, QWORD PTR [rdi+r10]
  001d8	0f 1f 84 00 00
	00 00 00	 npad	 8
$LL34@stringlib_@16:
  001e0	0f b6 01	 movzx	 eax, BYTE PTR [rcx]
  001e3	41 38 04 08	 cmp	 BYTE PTR [r8+rcx], al
  001e7	75 0b		 jne	 SHORT $LN119@stringlib_@16
  001e9	48 ff ca	 dec	 rdx
  001ec	48 ff c9	 dec	 rcx
  001ef	48 85 d2	 test	 rdx, rdx
  001f2	7f ec		 jg	 SHORT $LL34@stringlib_@16
$LN119@stringlib_@16:
  001f4	48 85 d2	 test	 rdx, rdx
  001f7	74 41		 je	 SHORT $LN120@stringlib_@16
  001f9	48 85 db	 test	 rbx, rbx
  001fc	7e 0e		 jle	 SHORT $LN29@stringlib_@16
  001fe	0f be 44 2b ff	 movsx	 eax, BYTE PTR [rbx+rbp-1]
  00203	83 e0 1f	 and	 eax, 31
  00206	41 0f a3 c5	 bt	 r13d, eax
  0020a	73 1b		 jae	 SHORT $LN124@stringlib_@16
$LN29@stringlib_@16:
  0020c	49 2b dc	 sub	 rbx, r12
  0020f	4d 2b c4	 sub	 r8, r12
  00212	eb 19		 jmp	 SHORT $LN37@stringlib_@16
$LN35@stringlib_@16:
  00214	48 85 db	 test	 rbx, rbx
  00217	7e 14		 jle	 SHORT $LN37@stringlib_@16
  00219	0f be 44 2b ff	 movsx	 eax, BYTE PTR [rbx+rbp-1]
  0021e	83 e0 1f	 and	 eax, 31
  00221	41 0f a3 c5	 bt	 r13d, eax
  00225	72 06		 jb	 SHORT $LN37@stringlib_@16
$LN124@stringlib_@16:
  00227	48 2b de	 sub	 rbx, rsi
  0022a	4c 2b c6	 sub	 r8, rsi
$LN37@stringlib_@16:
  0022d	49 ff c8	 dec	 r8
  00230	48 ff cb	 dec	 rbx
  00233	79 91		 jns	 SHORT $LL38@stringlib_@16
  00235	e9 d8 fe ff ff	 jmp	 $LN111@stringlib_@16
$LN120@stringlib_@16:

; 312  :         j = pos;

  0023a	48 8b 7c 24 30	 mov	 rdi, QWORD PTR j$1$[rsp]
  0023f	4c 8b a4 24 98
	00 00 00	 mov	 r12, QWORD PTR sep$[rsp]
  00247	4c 8b ac 24 a0
	00 00 00	 mov	 r13, QWORD PTR list$1$[rsp]
  0024f	4c 8b 74 24 38	 mov	 r14, QWORD PTR maxcount$1$[rsp]
$LN103@stringlib_@16:

; 309  :         if (pos < 0)

  00254	48 85 db	 test	 rbx, rbx
  00257	0f 88 b5 fe ff
	ff		 js	 $LN111@stringlib_@16

; 310  :             break;
; 311  :         SPLIT_ADD(str, pos + sep_len, j);

  0025d	48 2b fb	 sub	 rdi, rbx
  00260	48 8d 0c 2b	 lea	 rcx, QWORD PTR [rbx+rbp]
  00264	48 2b fe	 sub	 rdi, rsi
  00267	48 03 ce	 add	 rcx, rsi
  0026a	48 8b d7	 mov	 rdx, rdi
  0026d	e8 00 00 00 00	 call	 PyBytes_FromStringAndSize
  00272	48 8b f8	 mov	 rdi, rax
  00275	48 85 c0	 test	 rax, rax
  00278	74 45		 je	 SHORT $onError$21547
  0027a	49 83 ff 0c	 cmp	 r15, 12
  0027e	7d 0a		 jge	 SHORT $LN12@stringlib_@16
  00280	49 8b 4d 70	 mov	 rcx, QWORD PTR [r13+112]
  00284	4a 89 04 f9	 mov	 QWORD PTR [rcx+r15*8], rax
  00288	eb 17		 jmp	 SHORT $LN9@stringlib_@16
$LN12@stringlib_@16:
  0028a	48 8b d0	 mov	 rdx, rax
  0028d	49 8b cd	 mov	 rcx, r13
  00290	e8 00 00 00 00	 call	 PyList_Append
  00295	48 8b cf	 mov	 rcx, rdi
  00298	85 c0		 test	 eax, eax
  0029a	75 1e		 jne	 SHORT $LN106@stringlib_@16
  0029c	e8 00 00 00 00	 call	 _Py_DecRef
$LN9@stringlib_@16:
  002a1	49 ff c7	 inc	 r15

; 312  :         j = pos;

  002a4	48 8b fb	 mov	 rdi, rbx
  002a7	48 89 5c 24 30	 mov	 QWORD PTR j$1$[rsp], rbx
  002ac	4d 85 f6	 test	 r14, r14
  002af	0f 8f 1b fe ff
	ff		 jg	 $LL16@stringlib_@16

; 324  :     }
; 325  :     FIX_PREALLOC_SIZE(list);
; 326  :     if (PyList_Reverse(list) < 0)

  002b5	e9 58 fe ff ff	 jmp	 $LN111@stringlib_@16
$LN106@stringlib_@16:

; 310  :             break;
; 311  :         SPLIT_ADD(str, pos + sep_len, j);

  002ba	e8 00 00 00 00	 call	 _Py_DecRef
$onError$21547:

; 329  : 
; 330  :   onError:
; 331  :     Py_DECREF(list);

  002bf	48 8b 8c 24 a0
	00 00 00	 mov	 rcx, QWORD PTR list$1$[rsp]
  002c7	e8 00 00 00 00	 call	 _Py_DecRef
$LN123@stringlib_@16:

; 332  :     return NULL;

  002cc	33 c0		 xor	 eax, eax
$LN122@stringlib_@16:
  002ce	4c 8b ac 24 88
	00 00 00	 mov	 r13, QWORD PTR [rsp+136]
  002d6	4c 8b 74 24 40	 mov	 r14, QWORD PTR [rsp+64]

; 333  : }

  002db	48 83 c4 48	 add	 rsp, 72			; 00000048H
  002df	41 5f		 pop	 r15
  002e1	41 5c		 pop	 r12
  002e3	5f		 pop	 rdi
  002e4	5e		 pop	 rsi
  002e5	5d		 pop	 rbp
  002e6	5b		 pop	 rbx
  002e7	c3		 ret	 0
$LN8@stringlib_@16:

; 321  : #endif
; 322  :     {
; 323  :         SPLIT_ADD(str, 0, j);

  002e8	48 8b 54 24 30	 mov	 rdx, QWORD PTR j$1$[rsp]
  002ed	48 8b cd	 mov	 rcx, rbp
  002f0	e8 00 00 00 00	 call	 PyBytes_FromStringAndSize
  002f5	48 8b d8	 mov	 rbx, rax
  002f8	48 85 c0	 test	 rax, rax
  002fb	74 c2		 je	 SHORT $onError$21547
  002fd	4c 8b ac 24 a0
	00 00 00	 mov	 r13, QWORD PTR list$1$[rsp]
  00305	49 83 ff 0c	 cmp	 r15, 12
  00309	7d 0a		 jge	 SHORT $LN5@stringlib_@16
  0030b	49 8b 4d 70	 mov	 rcx, QWORD PTR [r13+112]
  0030f	4a 89 04 f9	 mov	 QWORD PTR [rcx+r15*8], rax
  00313	eb 17		 jmp	 SHORT $LN2@stringlib_@16
$LN5@stringlib_@16:
  00315	48 8b d0	 mov	 rdx, rax
  00318	49 8b cd	 mov	 rcx, r13
  0031b	e8 00 00 00 00	 call	 PyList_Append
  00320	48 8b cb	 mov	 rcx, rbx
  00323	85 c0		 test	 eax, eax
  00325	75 93		 jne	 SHORT $LN106@stringlib_@16
  00327	e8 00 00 00 00	 call	 _Py_DecRef
$LN2@stringlib_@16:
  0032c	49 ff c7	 inc	 r15
$LN7@stringlib_@16:

; 324  :     }
; 325  :     FIX_PREALLOC_SIZE(list);
; 326  :     if (PyList_Reverse(list) < 0)

  0032f	49 8b cd	 mov	 rcx, r13
  00332	4d 89 7d 60	 mov	 QWORD PTR [r13+96], r15
  00336	e8 00 00 00 00	 call	 PyList_Reverse
  0033b	85 c0		 test	 eax, eax
  0033d	78 80		 js	 SHORT $onError$21547

; 327  :         goto onError;
; 328  :     return list;

  0033f	49 8b c5	 mov	 rax, r13
  00342	eb 8a		 jmp	 SHORT $LN122@stringlib_@16
stringlib_rsplit ENDP
_TEXT	ENDS
;	COMDAT pdata
; File c:\src\pyparallel\include\object.h
pdata	SEGMENT
$pdata$stringlib_splitlines DD imagerel stringlib_splitlines
	DD	imagerel stringlib_splitlines+53
	DD	imagerel $unwind$stringlib_splitlines
pdata	ENDS
;	COMDAT pdata
pdata	SEGMENT
$pdata$2$stringlib_splitlines DD imagerel stringlib_splitlines+53
	DD	imagerel stringlib_splitlines+368
	DD	imagerel $chain$2$stringlib_splitlines
pdata	ENDS
;	COMDAT pdata
pdata	SEGMENT
$pdata$4$stringlib_splitlines DD imagerel stringlib_splitlines+368
	DD	imagerel stringlib_splitlines+405
	DD	imagerel $chain$4$stringlib_splitlines
pdata	ENDS
;	COMDAT xdata
xdata	SEGMENT
$chain$4$stringlib_splitlines DD 060021H
	DD	0ef400H
	DD	0d7400H
	DD	0c3400H
	DD	imagerel stringlib_splitlines
	DD	imagerel stringlib_splitlines+53
	DD	imagerel $unwind$stringlib_splitlines
xdata	ENDS
;	COMDAT xdata
xdata	SEGMENT
$chain$2$stringlib_splitlines DD 061121H
	DD	0ef411H
	DD	0d740cH
	DD	0c3405H
	DD	imagerel stringlib_splitlines
	DD	imagerel stringlib_splitlines+53
	DD	imagerel $unwind$stringlib_splitlines
xdata	ENDS
;	COMDAT xdata
xdata	SEGMENT
$unwind$stringlib_splitlines DD 060d01H
	DD	0e009520dH
	DD	0c005d007H
	DD	050026003H
; Function compile flags: /Ogtpy
; File c:\src\pyparallel\objects\stringlib\split.h
xdata	ENDS
;	COMDAT stringlib_splitlines
_TEXT	SEGMENT
str_obj$ = 96
str$ = 104
str_len$ = 112
keepends$ = 120
stringlib_splitlines PROC				; COMDAT

; 339  : {

  00000	40 55		 push	 rbp
  00002	56		 push	 rsi
  00003	41 54		 push	 r12
  00005	41 55		 push	 r13
  00007	41 56		 push	 r14
  00009	48 83 ec 30	 sub	 rsp, 48			; 00000030H
  0000d	4c 8b e9	 mov	 r13, rcx

; 340  :     /* This does not use the preallocated list because splitlines is
; 341  :        usually run with hundreds of newlines.  The overhead of
; 342  :        switching between PyList_SET_ITEM and append causes about a
; 343  :        2-3% slowdown for that common case.  A smarter implementation
; 344  :        could move the if check out, so the SET_ITEMs are done first
; 345  :        and the appends only done when the prealloc buffer is full.
; 346  :        That's too much work for little gain.*/
; 347  : 
; 348  :     register Py_ssize_t i;
; 349  :     register Py_ssize_t j;
; 350  :     PyObject *list = PyList_New(0);

  00010	33 c9		 xor	 ecx, ecx
  00012	45 8b f1	 mov	 r14d, r9d
  00015	49 8b f0	 mov	 rsi, r8
  00018	48 8b ea	 mov	 rbp, rdx
  0001b	e8 00 00 00 00	 call	 PyList_New
  00020	4c 8b e0	 mov	 r12, rax

; 351  :     PyObject *sub;
; 352  : 
; 353  :     if (list == NULL)

  00023	48 85 c0	 test	 rax, rax
  00026	75 0d		 jne	 SHORT $LN14@stringlib_@17

; 389  : }

  00028	48 83 c4 30	 add	 rsp, 48			; 00000030H
  0002c	41 5e		 pop	 r14
  0002e	41 5d		 pop	 r13
  00030	41 5c		 pop	 r12
  00032	5e		 pop	 rsi
  00033	5d		 pop	 rbp
  00034	c3		 ret	 0
$LN14@stringlib_@17:
  00035	48 89 5c 24 60	 mov	 QWORD PTR [rsp+96], rbx

; 354  :         return NULL;
; 355  : 
; 356  :     for (i = j = 0; i < str_len; ) {

  0003a	33 c9		 xor	 ecx, ecx
  0003c	48 89 7c 24 68	 mov	 QWORD PTR [rsp+104], rdi
  00041	4c 89 7c 24 70	 mov	 QWORD PTR [rsp+112], r15
  00046	8b d9		 mov	 ebx, ecx
  00048	48 85 f6	 test	 rsi, rsi
  0004b	0f 8e 00 01 00
	00		 jle	 $LN12@stringlib_@17
  00051	4c 8d 3d 00 00
	00 00		 lea	 r15, OFFSET FLAT:PyBytes_Type

; 357  :         Py_ssize_t eol;
; 358  : 
; 359  :         /* Find a line and append it */
; 360  :         while (i < str_len && !STRINGLIB_ISLINEBREAK(str[i]))

  00058	48 3b ce	 cmp	 rcx, rsi
  0005b	7d 17		 jge	 SHORT $LN36@stringlib_@17
  0005d	0f 1f 00	 npad	 3
$LL11@stringlib_@17:
  00060	0f b6 04 2b	 movzx	 eax, BYTE PTR [rbx+rbp]
  00064	3c 0a		 cmp	 al, 10
  00066	74 0c		 je	 SHORT $LN36@stringlib_@17
  00068	3c 0d		 cmp	 al, 13
  0006a	74 08		 je	 SHORT $LN36@stringlib_@17

; 361  :             i++;

  0006c	48 ff c3	 inc	 rbx
  0006f	48 3b de	 cmp	 rbx, rsi
  00072	7c ec		 jl	 SHORT $LL11@stringlib_@17
$LN36@stringlib_@17:

; 362  : 
; 363  :         /* Skip the line break reading CRLF as one line break */
; 364  :         eol = i;

  00074	48 8b d3	 mov	 rdx, rbx

; 365  :         if (i < str_len) {

  00077	48 3b de	 cmp	 rbx, rsi
  0007a	7d 26		 jge	 SHORT $LN6@stringlib_@17

; 366  :             if (str[i] == '\r' && i + 1 < str_len && str[i+1] == '\n')

  0007c	80 3c 2b 0d	 cmp	 BYTE PTR [rbx+rbp], 13
  00080	75 16		 jne	 SHORT $LN8@stringlib_@17
  00082	48 8d 43 01	 lea	 rax, QWORD PTR [rbx+1]
  00086	48 3b c6	 cmp	 rax, rsi
  00089	7d 0d		 jge	 SHORT $LN8@stringlib_@17
  0008b	80 7c 2b 01 0a	 cmp	 BYTE PTR [rbx+rbp+1], 10
  00090	75 06		 jne	 SHORT $LN8@stringlib_@17

; 367  :                 i += 2;

  00092	48 83 c3 02	 add	 rbx, 2

; 368  :             else

  00096	eb 03		 jmp	 SHORT $LN7@stringlib_@17
$LN8@stringlib_@17:

; 369  :                 i++;

  00098	48 ff c3	 inc	 rbx
$LN7@stringlib_@17:

; 370  :             if (keepends)

  0009b	45 85 f6	 test	 r14d, r14d
  0009e	48 0f 45 d3	 cmovne	 rdx, rbx
$LN6@stringlib_@17:

; 371  :                 eol = i;
; 372  :         }
; 373  : #ifndef STRINGLIB_MUTABLE
; 374  :         if (j == 0 && eol == str_len && STRINGLIB_CHECK_EXACT(str_obj)) {

  000a2	48 85 c9	 test	 rcx, rcx
  000a5	75 0f		 jne	 SHORT $LN5@stringlib_@17
  000a7	48 3b d6	 cmp	 rdx, rsi
  000aa	75 0a		 jne	 SHORT $LN5@stringlib_@17
  000ac	4d 39 7d 58	 cmp	 QWORD PTR [r13+88], r15
  000b0	0f 84 ba 00 00
	00		 je	 $LN30@stringlib_@17
$LN5@stringlib_@17:

; 379  :         }
; 380  : #endif
; 381  :         SPLIT_APPEND(str, j, eol);

  000b6	48 2b d1	 sub	 rdx, rcx
  000b9	48 03 cd	 add	 rcx, rbp
  000bc	e8 00 00 00 00	 call	 PyBytes_FromStringAndSize
  000c1	48 8b f8	 mov	 rdi, rax
  000c4	48 85 c0	 test	 rax, rax
  000c7	0f 84 bc 00 00
	00		 je	 $onError$21605
  000cd	48 8b d0	 mov	 rdx, rax
  000d0	49 8b cc	 mov	 rcx, r12
  000d3	e8 00 00 00 00	 call	 PyList_Append
  000d8	85 c0		 test	 eax, eax
  000da	0f 85 a1 00 00
	00		 jne	 $LN32@stringlib_@17
  000e0	e8 00 00 00 00	 call	 _Py_PXCTX
  000e5	85 c0		 test	 eax, eax
  000e7	75 5c		 jne	 SHORT $LN27@stringlib_@17
  000e9	48 8b 47 20	 mov	 rax, QWORD PTR [rdi+32]
  000ed	a8 20		 test	 al, 32			; 00000020H
  000ef	75 4c		 jne	 SHORT $LN21@stringlib_@17
  000f1	84 c0		 test	 al, al
  000f3	78 48		 js	 SHORT $LN21@stringlib_@17
  000f5	a8 02		 test	 al, 2
  000f7	75 4c		 jne	 SHORT $LN27@stringlib_@17
  000f9	48 ff 4f 50	 dec	 QWORD PTR [rdi+80]
  000fd	75 46		 jne	 SHORT $LN27@stringlib_@17
  000ff	48 8d 15 00 00
	00 00		 lea	 rdx, OFFSET FLAT:??_C@_0CD@HDJFDCDP@c?3?2src?2pyparallel?2include?2object@
  00106	48 8d 0d 00 00
	00 00		 lea	 rcx, OFFSET FLAT:??_C@_0L@DMHMLFIA@_Py_DecRef?$AA@
  0010d	4c 8b cf	 mov	 r9, rdi
  00110	41 b8 a4 03 00
	00		 mov	 r8d, 932		; 000003a4H
  00116	c7 44 24 20 10
	00 00 00	 mov	 DWORD PTR [rsp+32], 16
  0011e	e8 00 00 00 00	 call	 _PyParallel_Guard
  00123	48 8b cf	 mov	 rcx, rdi
  00126	85 c0		 test	 eax, eax
  00128	74 07		 je	 SHORT $LN26@stringlib_@17
  0012a	e8 00 00 00 00	 call	 _Px_Dealloc
  0012f	eb 14		 jmp	 SHORT $LN27@stringlib_@17
$LN26@stringlib_@17:
  00131	48 8b 47 58	 mov	 rax, QWORD PTR [rdi+88]
  00135	ff 90 88 00 00
	00		 call	 QWORD PTR [rax+136]
  0013b	eb 08		 jmp	 SHORT $LN27@stringlib_@17
$LN21@stringlib_@17:
  0013d	48 8b cf	 mov	 rcx, rdi
  00140	e8 00 00 00 00	 call	 Px_DecRef
$LN27@stringlib_@17:

; 382  :         j = i;

  00145	48 8b cb	 mov	 rcx, rbx
  00148	48 3b de	 cmp	 rbx, rsi
  0014b	0f 8c 0f ff ff
	ff		 jl	 $LL11@stringlib_@17
$LN12@stringlib_@17:

; 383  :     }
; 384  :     return list;

  00151	49 8b c4	 mov	 rax, r12
$LN39@stringlib_@17:
  00154	48 8b 7c 24 68	 mov	 rdi, QWORD PTR [rsp+104]
  00159	48 8b 5c 24 60	 mov	 rbx, QWORD PTR [rsp+96]
  0015e	4c 8b 7c 24 70	 mov	 r15, QWORD PTR [rsp+112]

; 389  : }

  00163	48 83 c4 30	 add	 rsp, 48			; 00000030H
  00167	41 5e		 pop	 r14
  00169	41 5d		 pop	 r13
  0016b	41 5c		 pop	 r12
  0016d	5e		 pop	 rsi
  0016e	5d		 pop	 rbp
  0016f	c3		 ret	 0
$LN30@stringlib_@17:

; 375  :             /* No linebreak in str_obj, so just use it as list[0] */
; 376  :             if (PyList_Append(list, str_obj))

  00170	49 8b d5	 mov	 rdx, r13
  00173	49 8b cc	 mov	 rcx, r12
  00176	e8 00 00 00 00	 call	 PyList_Append
  0017b	85 c0		 test	 eax, eax
  0017d	75 0a		 jne	 SHORT $onError$21605

; 377  :                 goto onError;
; 378  :             break;

  0017f	eb d0		 jmp	 SHORT $LN12@stringlib_@17
$LN32@stringlib_@17:

; 379  :         }
; 380  : #endif
; 381  :         SPLIT_APPEND(str, j, eol);

  00181	48 8b cf	 mov	 rcx, rdi
  00184	e8 00 00 00 00	 call	 _Py_DecRef
$onError$21605:

; 385  : 
; 386  :   onError:
; 387  :     Py_DECREF(list);

  00189	49 8b cc	 mov	 rcx, r12
  0018c	e8 00 00 00 00	 call	 _Py_DecRef

; 388  :     return NULL;

  00191	33 c0		 xor	 eax, eax
  00193	eb bf		 jmp	 SHORT $LN39@stringlib_@17
stringlib_splitlines ENDP
_TEXT	ENDS
EXTRN	_Py_bytes_isspace:PROC
; Function compile flags: /Ogtpy
; File c:\src\pyparallel\objects\stringlib\ctype.h
;	COMDAT stringlib_isspace
_TEXT	SEGMENT
self$ = 8
stringlib_isspace PROC					; COMDAT

; 9    :     return _Py_bytes_isspace(STRINGLIB_STR(self), STRINGLIB_LEN(self));

  00000	48 8b 51 60	 mov	 rdx, QWORD PTR [rcx+96]
  00004	48 83 c1 78	 add	 rcx, 120		; 00000078H

; 10   : }

  00008	e9 00 00 00 00	 jmp	 _Py_bytes_isspace
stringlib_isspace ENDP
_TEXT	ENDS
EXTRN	_Py_bytes_isalpha:PROC
; Function compile flags: /Ogtpy
;	COMDAT stringlib_isalpha
_TEXT	SEGMENT
self$ = 8
stringlib_isalpha PROC					; COMDAT

; 15   :     return _Py_bytes_isalpha(STRINGLIB_STR(self), STRINGLIB_LEN(self));

  00000	48 8b 51 60	 mov	 rdx, QWORD PTR [rcx+96]
  00004	48 83 c1 78	 add	 rcx, 120		; 00000078H

; 16   : }

  00008	e9 00 00 00 00	 jmp	 _Py_bytes_isalpha
stringlib_isalpha ENDP
_TEXT	ENDS
EXTRN	_Py_bytes_isalnum:PROC
; Function compile flags: /Ogtpy
;	COMDAT stringlib_isalnum
_TEXT	SEGMENT
self$ = 8
stringlib_isalnum PROC					; COMDAT

; 21   :     return _Py_bytes_isalnum(STRINGLIB_STR(self), STRINGLIB_LEN(self));

  00000	48 8b 51 60	 mov	 rdx, QWORD PTR [rcx+96]
  00004	48 83 c1 78	 add	 rcx, 120		; 00000078H

; 22   : }

  00008	e9 00 00 00 00	 jmp	 _Py_bytes_isalnum
stringlib_isalnum ENDP
_TEXT	ENDS
EXTRN	_Py_bytes_isdigit:PROC
; Function compile flags: /Ogtpy
;	COMDAT stringlib_isdigit
_TEXT	SEGMENT
self$ = 8
stringlib_isdigit PROC					; COMDAT

; 27   :     return _Py_bytes_isdigit(STRINGLIB_STR(self), STRINGLIB_LEN(self));

  00000	48 8b 51 60	 mov	 rdx, QWORD PTR [rcx+96]
  00004	48 83 c1 78	 add	 rcx, 120		; 00000078H

; 28   : }

  00008	e9 00 00 00 00	 jmp	 _Py_bytes_isdigit
stringlib_isdigit ENDP
_TEXT	ENDS
EXTRN	_Py_bytes_islower:PROC
; Function compile flags: /Ogtpy
;	COMDAT stringlib_islower
_TEXT	SEGMENT
self$ = 8
stringlib_islower PROC					; COMDAT

; 33   :     return _Py_bytes_islower(STRINGLIB_STR(self), STRINGLIB_LEN(self));

  00000	48 8b 51 60	 mov	 rdx, QWORD PTR [rcx+96]
  00004	48 83 c1 78	 add	 rcx, 120		; 00000078H

; 34   : }

  00008	e9 00 00 00 00	 jmp	 _Py_bytes_islower
stringlib_islower ENDP
_TEXT	ENDS
EXTRN	_Py_bytes_isupper:PROC
; Function compile flags: /Ogtpy
;	COMDAT stringlib_isupper
_TEXT	SEGMENT
self$ = 8
stringlib_isupper PROC					; COMDAT

; 39   :     return _Py_bytes_isupper(STRINGLIB_STR(self), STRINGLIB_LEN(self));

  00000	48 8b 51 60	 mov	 rdx, QWORD PTR [rcx+96]
  00004	48 83 c1 78	 add	 rcx, 120		; 00000078H

; 40   : }

  00008	e9 00 00 00 00	 jmp	 _Py_bytes_isupper
stringlib_isupper ENDP
_TEXT	ENDS
EXTRN	_Py_bytes_istitle:PROC
; Function compile flags: /Ogtpy
;	COMDAT stringlib_istitle
_TEXT	SEGMENT
self$ = 8
stringlib_istitle PROC					; COMDAT

; 45   :     return _Py_bytes_istitle(STRINGLIB_STR(self), STRINGLIB_LEN(self));

  00000	48 8b 51 60	 mov	 rdx, QWORD PTR [rcx+96]
  00004	48 83 c1 78	 add	 rcx, 120		; 00000078H

; 46   : }

  00008	e9 00 00 00 00	 jmp	 _Py_bytes_istitle
stringlib_istitle ENDP
_TEXT	ENDS
EXTRN	_Py_bytes_lower:PROC
;	COMDAT pdata
pdata	SEGMENT
$pdata$stringlib_lower DD imagerel stringlib_lower
	DD	imagerel stringlib_lower+74
	DD	imagerel $unwind$stringlib_lower
pdata	ENDS
;	COMDAT xdata
xdata	SEGMENT
$unwind$stringlib_lower DD 040a01H
	DD	06340aH
	DD	07006320aH
; Function compile flags: /Ogtpy
xdata	ENDS
;	COMDAT stringlib_lower
_TEXT	SEGMENT
self$ = 48
stringlib_lower PROC					; COMDAT

; 53   : {

  00000	48 89 5c 24 08	 mov	 QWORD PTR [rsp+8], rbx
  00005	57		 push	 rdi
  00006	48 83 ec 20	 sub	 rsp, 32			; 00000020H

; 54   :     PyObject* newobj;
; 55   :     newobj = STRINGLIB_NEW(NULL, STRINGLIB_LEN(self));

  0000a	48 8b 51 60	 mov	 rdx, QWORD PTR [rcx+96]
  0000e	48 8b d9	 mov	 rbx, rcx
  00011	33 c9		 xor	 ecx, ecx
  00013	e8 00 00 00 00	 call	 PyBytes_FromStringAndSize
  00018	48 8b f8	 mov	 rdi, rax

; 56   :     if (!newobj)

  0001b	48 85 c0	 test	 rax, rax
  0001e	75 0b		 jne	 SHORT $LN1@stringlib_@18

; 60   :     return newobj;
; 61   : }

  00020	48 8b 5c 24 30	 mov	 rbx, QWORD PTR [rsp+48]
  00025	48 83 c4 20	 add	 rsp, 32			; 00000020H
  00029	5f		 pop	 rdi
  0002a	c3		 ret	 0
$LN1@stringlib_@18:

; 57   :             return NULL;
; 58   :     _Py_bytes_lower(STRINGLIB_STR(newobj), STRINGLIB_STR(self),
; 59   :                  STRINGLIB_LEN(self));

  0002b	4c 8b 43 60	 mov	 r8, QWORD PTR [rbx+96]
  0002f	48 8d 53 78	 lea	 rdx, QWORD PTR [rbx+120]
  00033	48 8d 48 78	 lea	 rcx, QWORD PTR [rax+120]
  00037	e8 00 00 00 00	 call	 _Py_bytes_lower

; 60   :     return newobj;
; 61   : }

  0003c	48 8b 5c 24 30	 mov	 rbx, QWORD PTR [rsp+48]
  00041	48 8b c7	 mov	 rax, rdi
  00044	48 83 c4 20	 add	 rsp, 32			; 00000020H
  00048	5f		 pop	 rdi
  00049	c3		 ret	 0
stringlib_lower ENDP
_TEXT	ENDS
EXTRN	_Py_bytes_upper:PROC
;	COMDAT pdata
pdata	SEGMENT
$pdata$stringlib_upper DD imagerel stringlib_upper
	DD	imagerel stringlib_upper+74
	DD	imagerel $unwind$stringlib_upper
pdata	ENDS
;	COMDAT xdata
xdata	SEGMENT
$unwind$stringlib_upper DD 040a01H
	DD	06340aH
	DD	07006320aH
; Function compile flags: /Ogtpy
xdata	ENDS
;	COMDAT stringlib_upper
_TEXT	SEGMENT
self$ = 48
stringlib_upper PROC					; COMDAT

; 65   : {

  00000	48 89 5c 24 08	 mov	 QWORD PTR [rsp+8], rbx
  00005	57		 push	 rdi
  00006	48 83 ec 20	 sub	 rsp, 32			; 00000020H

; 66   :     PyObject* newobj;
; 67   :     newobj = STRINGLIB_NEW(NULL, STRINGLIB_LEN(self));

  0000a	48 8b 51 60	 mov	 rdx, QWORD PTR [rcx+96]
  0000e	48 8b d9	 mov	 rbx, rcx
  00011	33 c9		 xor	 ecx, ecx
  00013	e8 00 00 00 00	 call	 PyBytes_FromStringAndSize
  00018	48 8b f8	 mov	 rdi, rax

; 68   :     if (!newobj)

  0001b	48 85 c0	 test	 rax, rax
  0001e	75 0b		 jne	 SHORT $LN1@stringlib_@19

; 72   :     return newobj;
; 73   : }

  00020	48 8b 5c 24 30	 mov	 rbx, QWORD PTR [rsp+48]
  00025	48 83 c4 20	 add	 rsp, 32			; 00000020H
  00029	5f		 pop	 rdi
  0002a	c3		 ret	 0
$LN1@stringlib_@19:

; 69   :             return NULL;
; 70   :     _Py_bytes_upper(STRINGLIB_STR(newobj), STRINGLIB_STR(self),
; 71   :                  STRINGLIB_LEN(self));

  0002b	4c 8b 43 60	 mov	 r8, QWORD PTR [rbx+96]
  0002f	48 8d 53 78	 lea	 rdx, QWORD PTR [rbx+120]
  00033	48 8d 48 78	 lea	 rcx, QWORD PTR [rax+120]
  00037	e8 00 00 00 00	 call	 _Py_bytes_upper

; 72   :     return newobj;
; 73   : }

  0003c	48 8b 5c 24 30	 mov	 rbx, QWORD PTR [rsp+48]
  00041	48 8b c7	 mov	 rax, rdi
  00044	48 83 c4 20	 add	 rsp, 32			; 00000020H
  00048	5f		 pop	 rdi
  00049	c3		 ret	 0
stringlib_upper ENDP
_TEXT	ENDS
EXTRN	_Py_bytes_title:PROC
;	COMDAT pdata
pdata	SEGMENT
$pdata$stringlib_title DD imagerel stringlib_title
	DD	imagerel stringlib_title+74
	DD	imagerel $unwind$stringlib_title
pdata	ENDS
;	COMDAT xdata
xdata	SEGMENT
$unwind$stringlib_title DD 040a01H
	DD	06340aH
	DD	07006320aH
; Function compile flags: /Ogtpy
xdata	ENDS
;	COMDAT stringlib_title
_TEXT	SEGMENT
self$ = 48
stringlib_title PROC					; COMDAT

; 77   : {

  00000	48 89 5c 24 08	 mov	 QWORD PTR [rsp+8], rbx
  00005	57		 push	 rdi
  00006	48 83 ec 20	 sub	 rsp, 32			; 00000020H

; 78   :     PyObject* newobj;
; 79   :     newobj = STRINGLIB_NEW(NULL, STRINGLIB_LEN(self));

  0000a	48 8b 51 60	 mov	 rdx, QWORD PTR [rcx+96]
  0000e	48 8b d9	 mov	 rbx, rcx
  00011	33 c9		 xor	 ecx, ecx
  00013	e8 00 00 00 00	 call	 PyBytes_FromStringAndSize
  00018	48 8b f8	 mov	 rdi, rax

; 80   :     if (!newobj)

  0001b	48 85 c0	 test	 rax, rax
  0001e	75 0b		 jne	 SHORT $LN1@stringlib_@20

; 84   :     return newobj;
; 85   : }

  00020	48 8b 5c 24 30	 mov	 rbx, QWORD PTR [rsp+48]
  00025	48 83 c4 20	 add	 rsp, 32			; 00000020H
  00029	5f		 pop	 rdi
  0002a	c3		 ret	 0
$LN1@stringlib_@20:

; 81   :             return NULL;
; 82   :     _Py_bytes_title(STRINGLIB_STR(newobj), STRINGLIB_STR(self),
; 83   :                  STRINGLIB_LEN(self));

  0002b	4c 8b 43 60	 mov	 r8, QWORD PTR [rbx+96]
  0002f	48 8d 53 78	 lea	 rdx, QWORD PTR [rbx+120]
  00033	48 8d 48 78	 lea	 rcx, QWORD PTR [rax+120]
  00037	e8 00 00 00 00	 call	 _Py_bytes_title

; 84   :     return newobj;
; 85   : }

  0003c	48 8b 5c 24 30	 mov	 rbx, QWORD PTR [rsp+48]
  00041	48 8b c7	 mov	 rax, rdi
  00044	48 83 c4 20	 add	 rsp, 32			; 00000020H
  00048	5f		 pop	 rdi
  00049	c3		 ret	 0
stringlib_title ENDP
_TEXT	ENDS
EXTRN	_Py_bytes_capitalize:PROC
;	COMDAT pdata
pdata	SEGMENT
$pdata$stringlib_capitalize DD imagerel stringlib_capitalize
	DD	imagerel stringlib_capitalize+74
	DD	imagerel $unwind$stringlib_capitalize
pdata	ENDS
;	COMDAT xdata
xdata	SEGMENT
$unwind$stringlib_capitalize DD 040a01H
	DD	06340aH
	DD	07006320aH
; Function compile flags: /Ogtpy
xdata	ENDS
;	COMDAT stringlib_capitalize
_TEXT	SEGMENT
self$ = 48
stringlib_capitalize PROC				; COMDAT

; 89   : {

  00000	48 89 5c 24 08	 mov	 QWORD PTR [rsp+8], rbx
  00005	57		 push	 rdi
  00006	48 83 ec 20	 sub	 rsp, 32			; 00000020H

; 90   :     PyObject* newobj;
; 91   :     newobj = STRINGLIB_NEW(NULL, STRINGLIB_LEN(self));

  0000a	48 8b 51 60	 mov	 rdx, QWORD PTR [rcx+96]
  0000e	48 8b d9	 mov	 rbx, rcx
  00011	33 c9		 xor	 ecx, ecx
  00013	e8 00 00 00 00	 call	 PyBytes_FromStringAndSize
  00018	48 8b f8	 mov	 rdi, rax

; 92   :     if (!newobj)

  0001b	48 85 c0	 test	 rax, rax
  0001e	75 0b		 jne	 SHORT $LN1@stringlib_@21

; 96   :     return newobj;
; 97   : }

  00020	48 8b 5c 24 30	 mov	 rbx, QWORD PTR [rsp+48]
  00025	48 83 c4 20	 add	 rsp, 32			; 00000020H
  00029	5f		 pop	 rdi
  0002a	c3		 ret	 0
$LN1@stringlib_@21:

; 93   :             return NULL;
; 94   :     _Py_bytes_capitalize(STRINGLIB_STR(newobj), STRINGLIB_STR(self),
; 95   :                       STRINGLIB_LEN(self));

  0002b	4c 8b 43 60	 mov	 r8, QWORD PTR [rbx+96]
  0002f	48 8d 53 78	 lea	 rdx, QWORD PTR [rbx+120]
  00033	48 8d 48 78	 lea	 rcx, QWORD PTR [rax+120]
  00037	e8 00 00 00 00	 call	 _Py_bytes_capitalize

; 96   :     return newobj;
; 97   : }

  0003c	48 8b 5c 24 30	 mov	 rbx, QWORD PTR [rsp+48]
  00041	48 8b c7	 mov	 rax, rdi
  00044	48 83 c4 20	 add	 rsp, 32			; 00000020H
  00048	5f		 pop	 rdi
  00049	c3		 ret	 0
stringlib_capitalize ENDP
_TEXT	ENDS
EXTRN	_Py_bytes_swapcase:PROC
;	COMDAT pdata
pdata	SEGMENT
$pdata$stringlib_swapcase DD imagerel stringlib_swapcase
	DD	imagerel stringlib_swapcase+74
	DD	imagerel $unwind$stringlib_swapcase
pdata	ENDS
;	COMDAT xdata
xdata	SEGMENT
$unwind$stringlib_swapcase DD 040a01H
	DD	06340aH
	DD	07006320aH
; Function compile flags: /Ogtpy
xdata	ENDS
;	COMDAT stringlib_swapcase
_TEXT	SEGMENT
self$ = 48
stringlib_swapcase PROC					; COMDAT

; 101  : {

  00000	48 89 5c 24 08	 mov	 QWORD PTR [rsp+8], rbx
  00005	57		 push	 rdi
  00006	48 83 ec 20	 sub	 rsp, 32			; 00000020H

; 102  :     PyObject* newobj;
; 103  :     newobj = STRINGLIB_NEW(NULL, STRINGLIB_LEN(self));

  0000a	48 8b 51 60	 mov	 rdx, QWORD PTR [rcx+96]
  0000e	48 8b d9	 mov	 rbx, rcx
  00011	33 c9		 xor	 ecx, ecx
  00013	e8 00 00 00 00	 call	 PyBytes_FromStringAndSize
  00018	48 8b f8	 mov	 rdi, rax

; 104  :     if (!newobj)

  0001b	48 85 c0	 test	 rax, rax
  0001e	75 0b		 jne	 SHORT $LN1@stringlib_@22

; 108  :     return newobj;
; 109  : }

  00020	48 8b 5c 24 30	 mov	 rbx, QWORD PTR [rsp+48]
  00025	48 83 c4 20	 add	 rsp, 32			; 00000020H
  00029	5f		 pop	 rdi
  0002a	c3		 ret	 0
$LN1@stringlib_@22:

; 105  :             return NULL;
; 106  :     _Py_bytes_swapcase(STRINGLIB_STR(newobj), STRINGLIB_STR(self),
; 107  :                     STRINGLIB_LEN(self));

  0002b	4c 8b 43 60	 mov	 r8, QWORD PTR [rbx+96]
  0002f	48 8d 53 78	 lea	 rdx, QWORD PTR [rbx+120]
  00033	48 8d 48 78	 lea	 rcx, QWORD PTR [rax+120]
  00037	e8 00 00 00 00	 call	 _Py_bytes_swapcase

; 108  :     return newobj;
; 109  : }

  0003c	48 8b 5c 24 30	 mov	 rbx, QWORD PTR [rsp+48]
  00041	48 8b c7	 mov	 rax, rdi
  00044	48 83 c4 20	 add	 rsp, 32			; 00000020H
  00048	5f		 pop	 rdi
  00049	c3		 ret	 0
stringlib_swapcase ENDP
_TEXT	ENDS
PUBLIC	??_C@_0BD@OLBJEGKI@result?5is?5too?5long?$AA@	; `string'
PUBLIC	??_C@_0O@DJDMKPID@?$HMi?3expandtabs?$AA@	; `string'
EXTRN	memset:PROC
;	COMDAT pdata
; File c:\src\pyparallel\objects\stringlib\transmogrify.h
pdata	SEGMENT
$pdata$stringlib_expandtabs DD imagerel stringlib_expandtabs
	DD	imagerel stringlib_expandtabs+56
	DD	imagerel $unwind$stringlib_expandtabs
pdata	ENDS
;	COMDAT pdata
pdata	SEGMENT
$pdata$1$stringlib_expandtabs DD imagerel stringlib_expandtabs+56
	DD	imagerel stringlib_expandtabs+215
	DD	imagerel $chain$1$stringlib_expandtabs
pdata	ENDS
;	COMDAT pdata
pdata	SEGMENT
$pdata$4$stringlib_expandtabs DD imagerel stringlib_expandtabs+215
	DD	imagerel stringlib_expandtabs+235
	DD	imagerel $chain$4$stringlib_expandtabs
pdata	ENDS
;	COMDAT pdata
pdata	SEGMENT
$pdata$5$stringlib_expandtabs DD imagerel stringlib_expandtabs+235
	DD	imagerel stringlib_expandtabs+251
	DD	imagerel $chain$5$stringlib_expandtabs
pdata	ENDS
;	COMDAT pdata
pdata	SEGMENT
$pdata$6$stringlib_expandtabs DD imagerel stringlib_expandtabs+251
	DD	imagerel stringlib_expandtabs+346
	DD	imagerel $chain$6$stringlib_expandtabs
pdata	ENDS
;	COMDAT pdata
pdata	SEGMENT
$pdata$7$stringlib_expandtabs DD imagerel stringlib_expandtabs+346
	DD	imagerel stringlib_expandtabs+354
	DD	imagerel $chain$7$stringlib_expandtabs
pdata	ENDS
;	COMDAT pdata
pdata	SEGMENT
$pdata$8$stringlib_expandtabs DD imagerel stringlib_expandtabs+354
	DD	imagerel stringlib_expandtabs+375
	DD	imagerel $chain$8$stringlib_expandtabs
pdata	ENDS
;	COMDAT xdata
xdata	SEGMENT
$chain$8$stringlib_expandtabs DD 021H
	DD	imagerel stringlib_expandtabs+215
	DD	imagerel stringlib_expandtabs+235
	DD	imagerel $chain$4$stringlib_expandtabs
xdata	ENDS
;	COMDAT xdata
xdata	SEGMENT
$chain$7$stringlib_expandtabs DD 021H
	DD	imagerel stringlib_expandtabs+235
	DD	imagerel stringlib_expandtabs+251
	DD	imagerel $chain$5$stringlib_expandtabs
xdata	ENDS
;	COMDAT xdata
xdata	SEGMENT
$chain$6$stringlib_expandtabs DD 020521H
	DD	095405H
	DD	imagerel stringlib_expandtabs+235
	DD	imagerel stringlib_expandtabs+251
	DD	imagerel $chain$5$stringlib_expandtabs
xdata	ENDS
;	COMDAT xdata
xdata	SEGMENT
$chain$5$stringlib_expandtabs DD 020521H
	DD	0b6405H
	DD	imagerel stringlib_expandtabs+215
	DD	imagerel stringlib_expandtabs+235
	DD	imagerel $chain$4$stringlib_expandtabs
xdata	ENDS
;	COMDAT xdata
xdata	SEGMENT
$chain$4$stringlib_expandtabs DD 060721H
	DD	04d407H
	DD	05c400H
	DD	083400H
	DD	imagerel stringlib_expandtabs
	DD	imagerel stringlib_expandtabs+56
	DD	imagerel $unwind$stringlib_expandtabs
xdata	ENDS
;	COMDAT xdata
xdata	SEGMENT
$chain$1$stringlib_expandtabs DD 040a21H
	DD	05c40aH
	DD	083405H
	DD	imagerel stringlib_expandtabs
	DD	imagerel stringlib_expandtabs+56
	DD	imagerel $unwind$stringlib_expandtabs
xdata	ENDS
;	COMDAT xdata
xdata	SEGMENT
$unwind$stringlib_expandtabs DD 020601H
	DD	070025206H
xdata	ENDS
;	COMDAT ??_C@_0BD@OLBJEGKI@result?5is?5too?5long?$AA@
CONST	SEGMENT
??_C@_0BD@OLBJEGKI@result?5is?5too?5long?$AA@ DB 'result is too long', 00H ; `string'
CONST	ENDS
;	COMDAT ??_C@_0O@DJDMKPID@?$HMi?3expandtabs?$AA@
CONST	SEGMENT
??_C@_0O@DJDMKPID@?$HMi?3expandtabs?$AA@ DB '|i:expandtabs', 00H ; `string'
; Function compile flags: /Ogtpy
CONST	ENDS
;	COMDAT stringlib_expandtabs
_TEXT	SEGMENT
self$ = 64
args$ = 72
tabsize$ = 80
stringlib_expandtabs PROC				; COMDAT

; 15   : {

  00000	40 57		 push	 rdi
  00002	48 83 ec 30	 sub	 rsp, 48			; 00000030H
  00006	48 8b c2	 mov	 rax, rdx
  00009	48 8b f9	 mov	 rdi, rcx

; 16   :     const char *e, *p;
; 17   :     char *q;
; 18   :     size_t i, j;
; 19   :     PyObject *u;
; 20   :     int tabsize = 8;
; 21   : 
; 22   :     if (!PyArg_ParseTuple(args, "|i:expandtabs", &tabsize))

  0000c	4c 8d 44 24 50	 lea	 r8, QWORD PTR tabsize$[rsp]
  00011	48 8d 15 00 00
	00 00		 lea	 rdx, OFFSET FLAT:??_C@_0O@DJDMKPID@?$HMi?3expandtabs?$AA@
  00018	48 8b c8	 mov	 rcx, rax
  0001b	c7 44 24 50 08
	00 00 00	 mov	 DWORD PTR tabsize$[rsp], 8
  00023	e8 00 00 00 00	 call	 _PyArg_ParseTuple_SizeT
  00028	85 c0		 test	 eax, eax
  0002a	75 08		 jne	 SHORT $LN23@stringlib_@23

; 23   :         return NULL;

  0002c	33 c0		 xor	 eax, eax

; 82   : }

  0002e	48 83 c4 30	 add	 rsp, 48			; 00000030H
  00032	5f		 pop	 rdi
  00033	c3		 ret	 0
$LN23@stringlib_@23:

; 24   : 
; 25   :     /* First pass: determine size of output string */
; 26   :     i = j = 0;
; 27   :     e = STRINGLIB_STR(self) + STRINGLIB_LEN(self);

  00034	48 8b 47 60	 mov	 rax, QWORD PTR [rdi+96]
  00038	48 89 5c 24 40	 mov	 QWORD PTR [rsp+64], rbx
  0003d	4c 89 64 24 28	 mov	 QWORD PTR [rsp+40], r12
  00042	4c 8d 64 38 78	 lea	 r12, QWORD PTR [rax+rdi+120]

; 28   :     for (p = STRINGLIB_STR(self); p < e; p++)

  00047	48 83 c7 78	 add	 rdi, 120		; 00000078H
  0004b	45 33 c9	 xor	 r9d, r9d
  0004e	45 33 d2	 xor	 r10d, r10d
  00051	48 bb ff ff ff
	ff ff ff ff 7f	 mov	 rbx, 9223372036854775807 ; 7fffffffffffffffH
  0005b	4c 8b c7	 mov	 r8, rdi
  0005e	49 3b fc	 cmp	 rdi, r12
  00061	73 46		 jae	 SHORT $LN20@stringlib_@23
  00063	4c 63 5c 24 50	 movsxd	 r11, DWORD PTR tabsize$[rsp]
$LL22@stringlib_@23:

; 29   :         if (*p == '\t') {

  00068	41 0f b6 00	 movzx	 eax, BYTE PTR [r8]
  0006c	3c 09		 cmp	 al, 9
  0006e	75 1b		 jne	 SHORT $LN19@stringlib_@23

; 30   :             if (tabsize > 0) {

  00070	45 85 db	 test	 r11d, r11d
  00073	7e 2c		 jle	 SHORT $LN21@stringlib_@23

; 31   :                 j += tabsize - (j % tabsize);

  00075	33 d2		 xor	 edx, edx
  00077	49 8b c1	 mov	 rax, r9
  0007a	49 8b cb	 mov	 rcx, r11
  0007d	49 f7 f3	 div	 r11
  00080	48 2b ca	 sub	 rcx, rdx
  00083	4c 03 c9	 add	 r9, rcx

; 32   :                 if (j > PY_SSIZE_T_MAX) {

  00086	4c 3b cb	 cmp	 r9, rbx

; 33   :                     PyErr_SetString(PyExc_OverflowError,
; 34   :                                     "result is too long");
; 35   :                     return NULL;
; 36   :                 }
; 37   :             }
; 38   :         }
; 39   :         else {

  00089	eb 14		 jmp	 SHORT $LN40@stringlib_@23
$LN19@stringlib_@23:

; 40   :             j++;

  0008b	49 ff c1	 inc	 r9

; 41   :             if (*p == '\n' || *p == '\r') {

  0008e	3c 0a		 cmp	 al, 10
  00090	74 04		 je	 SHORT $LN14@stringlib_@23
  00092	3c 0d		 cmp	 al, 13
  00094	75 0b		 jne	 SHORT $LN21@stringlib_@23
$LN14@stringlib_@23:

; 42   :                 i += j;

  00096	4d 03 d1	 add	 r10, r9

; 43   :                 j = 0;

  00099	45 33 c9	 xor	 r9d, r9d

; 44   :                 if (i > PY_SSIZE_T_MAX) {

  0009c	4c 3b d3	 cmp	 r10, rbx
$LN40@stringlib_@23:
  0009f	77 11		 ja	 SHORT $LN30@stringlib_@23
$LN21@stringlib_@23:

; 28   :     for (p = STRINGLIB_STR(self); p < e; p++)

  000a1	49 ff c0	 inc	 r8
  000a4	4d 3b c4	 cmp	 r8, r12
