; Listing generated by Microsoft (R) Optimizing Compiler Version 16.00.40219.01 

include listing.inc

INCLUDELIB MSVCRT
INCLUDELIB OLDNAMES

PUBLIC	??_C@_08GHPJPHKJ@?$DMlocals?$DO?$AA@		; `string'
PUBLIC	??_C@_01LFCBOECM@?4?$AA@			; `string'
PUBLIC	Py_OptimizeFlag
_BSS	SEGMENT
Py_OptimizeFlag DD 01H DUP (?)
	ALIGN	8

?assertion_error@?1??compiler_assert@@9@9 DQ 01H DUP (?) ; `compiler_assert'::`2'::assertion_error
_BSS	ENDS
CONST	SEGMENT
?LOOP_ERROR_MSG@?1??compiler_continue@@9@9 DB '''continue'' not properly '
	DB	'in loop', 00H				; `compiler_continue'::`2'::LOOP_ERROR_MSG
?IN_FINALLY_ERROR_MSG@?1??compiler_continue@@9@9 DB '''continue'' not sup'
	DB	'ported inside ''finally'' clause', 00H	; `compiler_continue'::`2'::IN_FINALLY_ERROR_MSG
CONST	ENDS
;	COMDAT ??_C@_08GHPJPHKJ@?$DMlocals?$DO?$AA@
CONST	SEGMENT
??_C@_08GHPJPHKJ@?$DMlocals?$DO?$AA@ DB '<locals>', 00H	; `string'
CONST	ENDS
_TLS	SEGMENT
?locals@?1??compiler_scope_qualname@@9@9 DQ 0000000000000000H ; `compiler_scope_qualname'::`2'::locals
	DQ	FLAT:??_C@_08GHPJPHKJ@?$DMlocals?$DO?$AA@
	DQ	0000000000000000H
?dot@?1??compiler_scope_qualname@@9@9 DQ 0000000000000000H ; `compiler_scope_qualname'::`2'::dot
	DQ	FLAT:??_C@_01LFCBOECM@?4?$AA@
	DQ	0000000000000000H
_TLS	ENDS
;	COMDAT ??_C@_01LFCBOECM@?4?$AA@
CONST	SEGMENT
??_C@_01LFCBOECM@?4?$AA@ DB '.', 00H			; `string'
CONST	ENDS
PUBLIC	??_C@_0L@DHGMCEID@_Py_IncRef?$AA@		; `string'
PUBLIC	??_C@_0CD@HDJFDCDP@c?3?2src?2pyparallel?2include?2object@ ; `string'
PUBLIC	_Py_IncRef
EXTRN	_PyParallel_Guard:PROC
EXTRN	_Py_PXCTX:PROC
;	COMDAT pdata
; File c:\src\pyparallel\include\object.h
pdata	SEGMENT
$pdata$_Py_IncRef DD imagerel $LN5
	DD	imagerel $LN5+74
	DD	imagerel $unwind$_Py_IncRef
pdata	ENDS
;	COMDAT xdata
xdata	SEGMENT
$unwind$_Py_IncRef DD 020601H
	DD	030025206H
xdata	ENDS
;	COMDAT ??_C@_0L@DHGMCEID@_Py_IncRef?$AA@
CONST	SEGMENT
??_C@_0L@DHGMCEID@_Py_IncRef?$AA@ DB '_Py_IncRef', 00H	; `string'
CONST	ENDS
;	COMDAT ??_C@_0CD@HDJFDCDP@c?3?2src?2pyparallel?2include?2object@
CONST	SEGMENT
??_C@_0CD@HDJFDCDP@c?3?2src?2pyparallel?2include?2object@ DB 'c:\src\pypa'
	DB	'rallel\include\object.h', 00H		; `string'
; Function compile flags: /Ogtpy
CONST	ENDS
;	COMDAT _Py_IncRef
_TEXT	SEGMENT
op$ = 64
_Py_IncRef PROC						; COMDAT

; 904  : {

$LN5:
  00000	40 53		 push	 rbx
  00002	48 83 ec 30	 sub	 rsp, 48			; 00000030H
  00006	48 8b d9	 mov	 rbx, rcx

; 905  :     if ((!Py_PXCTX && (Py_ISPY(op) || Px_PERSISTED(op)))) {

  00009	e8 00 00 00 00	 call	 _Py_PXCTX
  0000e	85 c0		 test	 eax, eax
  00010	75 32		 jne	 SHORT $LN2@Py_IncRef
  00012	48 8d 15 00 00
	00 00		 lea	 rdx, OFFSET FLAT:??_C@_0CD@HDJFDCDP@c?3?2src?2pyparallel?2include?2object@
  00019	48 8d 0d 00 00
	00 00		 lea	 rcx, OFFSET FLAT:??_C@_0L@DHGMCEID@_Py_IncRef?$AA@
  00020	4c 8b cb	 mov	 r9, rbx
  00023	41 b8 89 03 00
	00		 mov	 r8d, 905		; 00000389H
  00029	c7 44 24 20 02
	00 00 00	 mov	 DWORD PTR [rsp+32], 2
  00031	e8 00 00 00 00	 call	 _PyParallel_Guard
  00036	85 c0		 test	 eax, eax
  00038	75 06		 jne	 SHORT $LN1@Py_IncRef
  0003a	f6 43 20 20	 test	 BYTE PTR [rbx+32], 32	; 00000020H
  0003e	74 04		 je	 SHORT $LN2@Py_IncRef
$LN1@Py_IncRef:

; 906  :         _Py_INC_REFTOTAL;
; 907  :         (((PyObject*)(op))->ob_refcnt++);

  00040	48 ff 43 50	 inc	 QWORD PTR [rbx+80]
$LN2@Py_IncRef:

; 908  :     }
; 909  : }

  00044	48 83 c4 30	 add	 rsp, 48			; 00000030H
  00048	5b		 pop	 rbx
  00049	c3		 ret	 0
_Py_IncRef ENDP
_TEXT	ENDS
PUBLIC	??_C@_0L@DMHMLFIA@_Py_DecRef?$AA@		; `string'
PUBLIC	_Py_DecRef
EXTRN	Px_DecRef:PROC
EXTRN	_Px_Dealloc:PROC
;	COMDAT pdata
pdata	SEGMENT
$pdata$_Py_DecRef DD imagerel $LN12
	DD	imagerel $LN12+123
	DD	imagerel $unwind$_Py_DecRef
pdata	ENDS
;	COMDAT xdata
xdata	SEGMENT
$unwind$_Py_DecRef DD 020601H
	DD	030025206H
xdata	ENDS
;	COMDAT ??_C@_0L@DMHMLFIA@_Py_DecRef?$AA@
CONST	SEGMENT
??_C@_0L@DMHMLFIA@_Py_DecRef?$AA@ DB '_Py_DecRef', 00H	; `string'
; Function compile flags: /Ogtpy
CONST	ENDS
;	COMDAT _Py_DecRef
_TEXT	SEGMENT
op$ = 64
_Py_DecRef PROC						; COMDAT

; 923  : {

$LN12:
  00000	40 53		 push	 rbx
  00002	48 83 ec 30	 sub	 rsp, 48			; 00000030H
  00006	48 8b d9	 mov	 rbx, rcx

; 924  :     if (!Py_PXCTX) {

  00009	e8 00 00 00 00	 call	 _Py_PXCTX
  0000e	85 c0		 test	 eax, eax
  00010	75 63		 jne	 SHORT $LN11@Py_DecRef

; 925  :         if (Px_PERSISTED(op) || Px_CLONED(op))

  00012	48 8b 43 20	 mov	 rax, QWORD PTR [rbx+32]
  00016	a8 20		 test	 al, 32			; 00000020H
  00018	75 53		 jne	 SHORT $LN5@Py_DecRef
  0001a	84 c0		 test	 al, al
  0001c	78 4f		 js	 SHORT $LN5@Py_DecRef

; 927  :         else if (!Px_ISPX(op)) {

  0001e	a8 02		 test	 al, 2
  00020	75 53		 jne	 SHORT $LN11@Py_DecRef

; 928  :             _Py_DEC_REFTOTAL;
; 929  :             if ((--((PyObject *)(op))->ob_refcnt) != 0) {

  00022	48 ff 4b 50	 dec	 QWORD PTR [rbx+80]
  00026	75 4d		 jne	 SHORT $LN11@Py_DecRef

; 930  :                 _Py_CHECK_REFCNT(op);
; 931  :             } else
; 932  :                 _Py_Dealloc((PyObject *)(op));

  00028	48 8d 15 00 00
	00 00		 lea	 rdx, OFFSET FLAT:??_C@_0CD@HDJFDCDP@c?3?2src?2pyparallel?2include?2object@
  0002f	48 8d 0d 00 00
	00 00		 lea	 rcx, OFFSET FLAT:??_C@_0L@DMHMLFIA@_Py_DecRef?$AA@
  00036	4c 8b cb	 mov	 r9, rbx
  00039	41 b8 a4 03 00
	00		 mov	 r8d, 932		; 000003a4H
  0003f	c7 44 24 20 10
	00 00 00	 mov	 DWORD PTR [rsp+32], 16
  00047	e8 00 00 00 00	 call	 _PyParallel_Guard
  0004c	48 8b cb	 mov	 rcx, rbx
  0004f	85 c0		 test	 eax, eax
  00051	74 0a		 je	 SHORT $LN10@Py_DecRef

; 933  :         }
; 934  :     }
; 935  : }

  00053	48 83 c4 30	 add	 rsp, 48			; 00000030H
  00057	5b		 pop	 rbx
  00058	e9 00 00 00 00	 jmp	 _Px_Dealloc
$LN10@Py_DecRef:

; 930  :                 _Py_CHECK_REFCNT(op);
; 931  :             } else
; 932  :                 _Py_Dealloc((PyObject *)(op));

  0005d	48 8b 43 58	 mov	 rax, QWORD PTR [rbx+88]

; 933  :         }
; 934  :     }
; 935  : }

  00061	48 83 c4 30	 add	 rsp, 48			; 00000030H
  00065	5b		 pop	 rbx
  00066	48 ff a0 88 00
	00 00		 rex_jmp QWORD PTR [rax+136]
$LN5@Py_DecRef:

; 926  :             Px_DECREF(op);

  0006d	48 8b cb	 mov	 rcx, rbx
  00070	e8 00 00 00 00	 call	 Px_DecRef
$LN11@Py_DecRef:

; 933  :         }
; 934  :     }
; 935  : }

  00075	48 83 c4 30	 add	 rsp, 48			; 00000030H
  00079	5b		 pop	 rbx
  0007a	c3		 ret	 0
_Py_DecRef ENDP
_TEXT	ENDS
PUBLIC	??_C@_0CL@FMJEBAFL@private?5identifier?5too?5large?5to?5@ ; `string'
PUBLIC	_Py_Mangle
EXTRN	PyUnicode_CopyCharacters:PROC
EXTRN	PyUnicode_New:PROC
EXTRN	PyErr_SetString:PROC
EXTRN	PyExc_OverflowError:QWORD
EXTRN	PyUnicode_FindChar:PROC
;	COMDAT pdata
pdata	SEGMENT
$pdata$_Py_Mangle DD imagerel $LN139
	DD	imagerel $LN139+373
	DD	imagerel $unwind$_Py_Mangle
pdata	ENDS
;	COMDAT pdata
pdata	SEGMENT
$pdata$1$_Py_Mangle DD imagerel $LN139+373
	DD	imagerel $LN139+786
	DD	imagerel $chain$1$_Py_Mangle
pdata	ENDS
;	COMDAT pdata
pdata	SEGMENT
$pdata$4$_Py_Mangle DD imagerel $LN139+786
	DD	imagerel $LN139+1041
	DD	imagerel $chain$4$_Py_Mangle
pdata	ENDS
;	COMDAT pdata
pdata	SEGMENT
$pdata$5$_Py_Mangle DD imagerel $LN139+1041
	DD	imagerel $LN139+1444
	DD	imagerel $chain$5$_Py_Mangle
pdata	ENDS
;	COMDAT pdata
pdata	SEGMENT
$pdata$6$_Py_Mangle DD imagerel $LN139+1444
	DD	imagerel $LN139+1466
	DD	imagerel $chain$6$_Py_Mangle
pdata	ENDS
;	COMDAT pdata
pdata	SEGMENT
$pdata$8$_Py_Mangle DD imagerel $LN139+1466
	DD	imagerel $LN139+1471
	DD	imagerel $chain$8$_Py_Mangle
pdata	ENDS
;	COMDAT pdata
pdata	SEGMENT
$pdata$9$_Py_Mangle DD imagerel $LN139+1471
	DD	imagerel $LN139+1540
	DD	imagerel $chain$9$_Py_Mangle
pdata	ENDS
;	COMDAT xdata
xdata	SEGMENT
$chain$9$_Py_Mangle DD 021H
	DD	imagerel $LN139
	DD	imagerel $LN139+373
	DD	imagerel $unwind$_Py_Mangle
xdata	ENDS
;	COMDAT xdata
xdata	SEGMENT
$chain$8$_Py_Mangle DD 080021H
	DD	06d400H
	DD	0cc400H
	DD	0b7400H
	DD	0a5400H
	DD	imagerel $LN139
	DD	imagerel $LN139+373
	DD	imagerel $unwind$_Py_Mangle
xdata	ENDS
;	COMDAT xdata
xdata	SEGMENT
$chain$6$_Py_Mangle DD 021H
	DD	imagerel $LN139+786
	DD	imagerel $LN139+1041
	DD	imagerel $chain$4$_Py_Mangle
xdata	ENDS
;	COMDAT xdata
xdata	SEGMENT
$chain$5$_Py_Mangle DD 020521H
	DD	0b7405H
	DD	imagerel $LN139+786
	DD	imagerel $LN139+1041
	DD	imagerel $chain$4$_Py_Mangle
xdata	ENDS
;	COMDAT xdata
xdata	SEGMENT
$chain$4$_Py_Mangle DD 060821H
	DD	0a5408H
	DD	06d400H
	DD	0cc400H
	DD	imagerel $LN139
	DD	imagerel $LN139+373
	DD	imagerel $unwind$_Py_Mangle
xdata	ENDS
;	COMDAT xdata
xdata	SEGMENT
$chain$1$_Py_Mangle DD 040e21H
	DD	06d40eH
	DD	0cc405H
	DD	imagerel $LN139
	DD	imagerel $LN139+373
	DD	imagerel $unwind$_Py_Mangle
xdata	ENDS
;	COMDAT xdata
xdata	SEGMENT
$unwind$_Py_Mangle DD 030701H
	DD	060036207H
	DD	03002H
xdata	ENDS
;	COMDAT ??_C@_0CL@FMJEBAFL@private?5identifier?5too?5large?5to?5@
CONST	SEGMENT
??_C@_0CL@FMJEBAFL@private?5identifier?5too?5large?5to?5@ DB 'private ide'
	DB	'ntifier too large to be mangled', 00H	; `string'
; Function compile flags: /Ogtpy
; File c:\src\pyparallel\python\compile.c
CONST	ENDS
;	COMDAT _Py_Mangle
_TEXT	SEGMENT
privateobj$ = 80
ident$ = 88
_Py_Mangle PROC						; COMDAT

; 212  : {

$LN139:
  00000	40 53		 push	 rbx
  00002	56		 push	 rsi
  00003	48 83 ec 38	 sub	 rsp, 56			; 00000038H
  00007	48 8b da	 mov	 rbx, rdx
  0000a	48 8b f1	 mov	 rsi, rcx

; 213  :     /* Name mangling: __private becomes _classname__private.
; 214  :        This is independent from how the name is used. */
; 215  :     PyObject *result;
; 216  :     size_t nlen, plen, ipriv;
; 217  :     Py_UCS4 maxchar;
; 218  :     if (privateobj == NULL || !PyUnicode_Check(privateobj) ||
; 219  :         PyUnicode_READ_CHAR(ident, 0) != '_' ||
; 220  :         PyUnicode_READ_CHAR(ident, 1) != '_') {

  0000d	48 85 c9	 test	 rcx, rcx
  00010	0f 84 a9 05 00
	00		 je	 $LN20@Py_Mangle
  00016	48 8b 41 58	 mov	 rax, QWORD PTR [rcx+88]
  0001a	f7 80 00 01 00
	00 00 00 00 10	 test	 DWORD PTR [rax+256], 268435456 ; 10000000H
  00024	0f 84 95 05 00
	00		 je	 $LN20@Py_Mangle
  0002a	8b 4a 70	 mov	 ecx, DWORD PTR [rdx+112]
  0002d	8b d1		 mov	 edx, ecx
  0002f	8b c1		 mov	 eax, ecx
  00031	c1 ea 02	 shr	 edx, 2
  00034	c1 e8 05	 shr	 eax, 5
  00037	83 e2 07	 and	 edx, 7
  0003a	83 fa 01	 cmp	 edx, 1
  0003d	75 30		 jne	 SHORT $LN38@Py_Mangle
  0003f	23 c2		 and	 eax, edx
  00041	74 1f		 je	 SHORT $LN26@Py_Mangle
  00043	f6 c1 40	 test	 cl, 64			; 00000040H
  00046	74 0d		 je	 SHORT $LN24@Py_Mangle
  00048	4c 8d 83 80 00
	00 00		 lea	 r8, QWORD PTR [rbx+128]
  0004f	45 0f b6 08	 movzx	 r9d, BYTE PTR [r8]
  00053	eb 76		 jmp	 SHORT $LN37@Py_Mangle
$LN24@Py_Mangle:
  00055	4c 8d 83 a0 00
	00 00		 lea	 r8, QWORD PTR [rbx+160]
  0005c	45 0f b6 08	 movzx	 r9d, BYTE PTR [r8]
  00060	eb 69		 jmp	 SHORT $LN37@Py_Mangle
$LN26@Py_Mangle:
  00062	4c 8b 83 a0 00
	00 00		 mov	 r8, QWORD PTR [rbx+160]
  00069	45 0f b6 08	 movzx	 r9d, BYTE PTR [r8]
  0006d	eb 5c		 jmp	 SHORT $LN37@Py_Mangle
$LN38@Py_Mangle:
  0006f	83 fa 02	 cmp	 edx, 2
  00072	75 31		 jne	 SHORT $LN36@Py_Mangle
  00074	83 e0 01	 and	 eax, 1
  00077	74 1f		 je	 SHORT $LN30@Py_Mangle
  00079	f6 c1 40	 test	 cl, 64			; 00000040H
  0007c	74 0d		 je	 SHORT $LN28@Py_Mangle
  0007e	4c 8d 83 80 00
	00 00		 lea	 r8, QWORD PTR [rbx+128]
  00085	45 0f b7 08	 movzx	 r9d, WORD PTR [r8]
  00089	eb 40		 jmp	 SHORT $LN37@Py_Mangle
$LN28@Py_Mangle:
  0008b	4c 8d 83 a0 00
	00 00		 lea	 r8, QWORD PTR [rbx+160]
  00092	45 0f b7 08	 movzx	 r9d, WORD PTR [r8]
  00096	eb 33		 jmp	 SHORT $LN37@Py_Mangle
$LN30@Py_Mangle:
  00098	4c 8b 83 a0 00
	00 00		 mov	 r8, QWORD PTR [rbx+160]
  0009f	45 0f b7 08	 movzx	 r9d, WORD PTR [r8]
  000a3	eb 26		 jmp	 SHORT $LN37@Py_Mangle
$LN36@Py_Mangle:
  000a5	83 e0 01	 and	 eax, 1
  000a8	74 17		 je	 SHORT $LN34@Py_Mangle
  000aa	f6 c1 40	 test	 cl, 64			; 00000040H
  000ad	74 09		 je	 SHORT $LN32@Py_Mangle
  000af	4c 8d 83 80 00
	00 00		 lea	 r8, QWORD PTR [rbx+128]
  000b6	eb 10		 jmp	 SHORT $LN35@Py_Mangle
$LN32@Py_Mangle:
  000b8	4c 8d 83 a0 00
	00 00		 lea	 r8, QWORD PTR [rbx+160]
  000bf	eb 07		 jmp	 SHORT $LN35@Py_Mangle
$LN34@Py_Mangle:
  000c1	4c 8b 83 a0 00
	00 00		 mov	 r8, QWORD PTR [rbx+160]
$LN35@Py_Mangle:
  000c8	45 8b 08	 mov	 r9d, DWORD PTR [r8]
$LN37@Py_Mangle:
  000cb	41 83 f9 5f	 cmp	 r9d, 95			; 0000005fH
  000cf	0f 85 ea 04 00
	00		 jne	 $LN20@Py_Mangle
  000d5	83 fa 01	 cmp	 edx, 1
  000d8	75 33		 jne	 SHORT $LN54@Py_Mangle
  000da	85 c0		 test	 eax, eax
  000dc	74 21		 je	 SHORT $LN42@Py_Mangle
  000de	f6 c1 40	 test	 cl, 64			; 00000040H
  000e1	74 0e		 je	 SHORT $LN40@Py_Mangle
  000e3	4c 8d 83 80 00
	00 00		 lea	 r8, QWORD PTR [rbx+128]
  000ea	45 0f b6 48 01	 movzx	 r9d, BYTE PTR [r8+1]
  000ef	eb 7a		 jmp	 SHORT $LN53@Py_Mangle
$LN40@Py_Mangle:
  000f1	4c 8d 83 a0 00
	00 00		 lea	 r8, QWORD PTR [rbx+160]
  000f8	45 0f b6 48 01	 movzx	 r9d, BYTE PTR [r8+1]
  000fd	eb 6c		 jmp	 SHORT $LN53@Py_Mangle
$LN42@Py_Mangle:
  000ff	4c 8b 83 a0 00
	00 00		 mov	 r8, QWORD PTR [rbx+160]
  00106	45 0f b6 48 01	 movzx	 r9d, BYTE PTR [r8+1]
  0010b	eb 5e		 jmp	 SHORT $LN53@Py_Mangle
$LN54@Py_Mangle:
  0010d	83 fa 02	 cmp	 edx, 2
  00110	75 33		 jne	 SHORT $LN52@Py_Mangle
  00112	85 c0		 test	 eax, eax
  00114	74 21		 je	 SHORT $LN46@Py_Mangle
  00116	f6 c1 40	 test	 cl, 64			; 00000040H
  00119	74 0e		 je	 SHORT $LN44@Py_Mangle
  0011b	4c 8d 83 80 00
	00 00		 lea	 r8, QWORD PTR [rbx+128]
  00122	45 0f b7 48 02	 movzx	 r9d, WORD PTR [r8+2]
  00127	eb 42		 jmp	 SHORT $LN53@Py_Mangle
$LN44@Py_Mangle:
  00129	4c 8d 83 a0 00
	00 00		 lea	 r8, QWORD PTR [rbx+160]
  00130	45 0f b7 48 02	 movzx	 r9d, WORD PTR [r8+2]
  00135	eb 34		 jmp	 SHORT $LN53@Py_Mangle
$LN46@Py_Mangle:
  00137	4c 8b 83 a0 00
	00 00		 mov	 r8, QWORD PTR [rbx+160]
  0013e	45 0f b7 48 02	 movzx	 r9d, WORD PTR [r8+2]
  00143	eb 26		 jmp	 SHORT $LN53@Py_Mangle
$LN52@Py_Mangle:
  00145	85 c0		 test	 eax, eax
  00147	74 17		 je	 SHORT $LN50@Py_Mangle
  00149	f6 c1 40	 test	 cl, 64			; 00000040H
  0014c	74 09		 je	 SHORT $LN48@Py_Mangle
  0014e	4c 8d 83 80 00
	00 00		 lea	 r8, QWORD PTR [rbx+128]
  00155	eb 10		 jmp	 SHORT $LN51@Py_Mangle
$LN48@Py_Mangle:
  00157	4c 8d 83 a0 00
	00 00		 lea	 r8, QWORD PTR [rbx+160]
  0015e	eb 07		 jmp	 SHORT $LN51@Py_Mangle
$LN50@Py_Mangle:
  00160	4c 8b 83 a0 00
	00 00		 mov	 r8, QWORD PTR [rbx+160]
$LN51@Py_Mangle:
  00167	45 8b 48 04	 mov	 r9d, DWORD PTR [r8+4]
$LN53@Py_Mangle:
  0016b	41 83 f9 5f	 cmp	 r9d, 95			; 0000005fH
  0016f	0f 85 4a 04 00
	00		 jne	 $LN20@Py_Mangle

; 223  :     }
; 224  :     nlen = PyUnicode_GET_LENGTH(ident);

  00175	4c 89 64 24 60	 mov	 QWORD PTR [rsp+96], r12
  0017a	4c 8b 63 60	 mov	 r12, QWORD PTR [rbx+96]
  0017e	4c 89 6c 24 30	 mov	 QWORD PTR [rsp+48], r13

; 225  :     plen = PyUnicode_GET_LENGTH(privateobj);

  00183	4c 8b 6e 60	 mov	 r13, QWORD PTR [rsi+96]

; 226  :     /* Don't mangle __id__ or names with dots.
; 227  : 
; 228  :        The only time a name with a dot can occur is when
; 229  :        we are compiling an import statement that has a
; 230  :        package name.
; 231  : 
; 232  :        TODO(jhylton): Decide whether we want to support
; 233  :        mangling of the module name, e.g. __M.X.
; 234  :     */
; 235  :     if ((PyUnicode_READ_CHAR(ident, nlen-1) == '_' &&
; 236  :          PyUnicode_READ_CHAR(ident, nlen-2) == '_') ||
; 237  :         PyUnicode_FindChar(ident, '.', 0, nlen, 1) != -1) {

  00187	83 fa 01	 cmp	 edx, 1
  0018a	75 39		 jne	 SHORT $LN70@Py_Mangle
  0018c	85 c0		 test	 eax, eax
  0018e	74 26		 je	 SHORT $LN58@Py_Mangle
  00190	f6 c1 40	 test	 cl, 64			; 00000040H
  00193	74 12		 je	 SHORT $LN56@Py_Mangle
  00195	46 0f b6 4c 23
	7f		 movzx	 r9d, BYTE PTR [rbx+r12+127]
  0019b	4c 8d 83 80 00
	00 00		 lea	 r8, QWORD PTR [rbx+128]
  001a2	e9 80 00 00 00	 jmp	 $LN69@Py_Mangle
$LN56@Py_Mangle:
  001a7	4c 8d 83 a0 00
	00 00		 lea	 r8, QWORD PTR [rbx+160]
  001ae	47 0f b6 4c 20
	ff		 movzx	 r9d, BYTE PTR [r8+r12-1]
  001b4	eb 71		 jmp	 SHORT $LN69@Py_Mangle
$LN58@Py_Mangle:
  001b6	4c 8b 83 a0 00
	00 00		 mov	 r8, QWORD PTR [rbx+160]
  001bd	47 0f b6 4c 20
	ff		 movzx	 r9d, BYTE PTR [r8+r12-1]
  001c3	eb 62		 jmp	 SHORT $LN69@Py_Mangle
$LN70@Py_Mangle:
  001c5	83 fa 02	 cmp	 edx, 2
  001c8	75 36		 jne	 SHORT $LN68@Py_Mangle
  001ca	85 c0		 test	 eax, eax
  001cc	74 23		 je	 SHORT $LN62@Py_Mangle
  001ce	f6 c1 40	 test	 cl, 64			; 00000040H
  001d1	74 0f		 je	 SHORT $LN60@Py_Mangle
  001d3	46 0f b7 4c 63
	7e		 movzx	 r9d, WORD PTR [rbx+r12*2+126]
  001d9	4c 8d 83 80 00
	00 00		 lea	 r8, QWORD PTR [rbx+128]
  001e0	eb 45		 jmp	 SHORT $LN69@Py_Mangle
$LN60@Py_Mangle:
  001e2	4c 8d 83 a0 00
	00 00		 lea	 r8, QWORD PTR [rbx+160]
  001e9	47 0f b7 4c 60
	fe		 movzx	 r9d, WORD PTR [r8+r12*2-2]
  001ef	eb 36		 jmp	 SHORT $LN69@Py_Mangle
$LN62@Py_Mangle:
  001f1	4c 8b 83 a0 00
	00 00		 mov	 r8, QWORD PTR [rbx+160]
  001f8	47 0f b7 4c 60
	fe		 movzx	 r9d, WORD PTR [r8+r12*2-2]
  001fe	eb 27		 jmp	 SHORT $LN69@Py_Mangle
$LN68@Py_Mangle:
  00200	85 c0		 test	 eax, eax
  00202	74 17		 je	 SHORT $LN66@Py_Mangle
  00204	f6 c1 40	 test	 cl, 64			; 00000040H
  00207	74 09		 je	 SHORT $LN64@Py_Mangle
  00209	4c 8d 83 80 00
	00 00		 lea	 r8, QWORD PTR [rbx+128]
  00210	eb 10		 jmp	 SHORT $LN67@Py_Mangle
$LN64@Py_Mangle:
  00212	4c 8d 83 a0 00
	00 00		 lea	 r8, QWORD PTR [rbx+160]
  00219	eb 07		 jmp	 SHORT $LN67@Py_Mangle
$LN66@Py_Mangle:
  0021b	4c 8b 83 a0 00
	00 00		 mov	 r8, QWORD PTR [rbx+160]
$LN67@Py_Mangle:
  00222	47 8b 4c a0 fc	 mov	 r9d, DWORD PTR [r8+r12*4-4]
$LN69@Py_Mangle:
  00227	41 83 f9 5f	 cmp	 r9d, 95			; 0000005fH
  0022b	0f 85 a5 00 00
	00		 jne	 $LN17@Py_Mangle
  00231	83 fa 01	 cmp	 edx, 1
  00234	75 39		 jne	 SHORT $LN86@Py_Mangle
  00236	85 c0		 test	 eax, eax
  00238	74 26		 je	 SHORT $LN74@Py_Mangle
  0023a	f6 c1 40	 test	 cl, 64			; 00000040H
  0023d	74 12		 je	 SHORT $LN72@Py_Mangle
  0023f	42 0f b6 4c 23
	7e		 movzx	 ecx, BYTE PTR [rbx+r12+126]
  00245	48 8d 83 80 00
	00 00		 lea	 rax, QWORD PTR [rbx+128]
  0024c	e9 80 00 00 00	 jmp	 $LN85@Py_Mangle
$LN72@Py_Mangle:
  00251	48 8d 83 a0 00
	00 00		 lea	 rax, QWORD PTR [rbx+160]
  00258	42 0f b6 4c 20
	fe		 movzx	 ecx, BYTE PTR [rax+r12-2]
  0025e	eb 71		 jmp	 SHORT $LN85@Py_Mangle
$LN74@Py_Mangle:
  00260	48 8b 83 a0 00
	00 00		 mov	 rax, QWORD PTR [rbx+160]
  00267	42 0f b6 4c 20
	fe		 movzx	 ecx, BYTE PTR [rax+r12-2]
  0026d	eb 62		 jmp	 SHORT $LN85@Py_Mangle
$LN86@Py_Mangle:
  0026f	83 fa 02	 cmp	 edx, 2
  00272	75 36		 jne	 SHORT $LN84@Py_Mangle
  00274	85 c0		 test	 eax, eax
  00276	74 23		 je	 SHORT $LN78@Py_Mangle
  00278	f6 c1 40	 test	 cl, 64			; 00000040H
  0027b	74 0f		 je	 SHORT $LN76@Py_Mangle
  0027d	42 0f b7 4c 63
	7c		 movzx	 ecx, WORD PTR [rbx+r12*2+124]
  00283	48 8d 83 80 00
	00 00		 lea	 rax, QWORD PTR [rbx+128]
  0028a	eb 45		 jmp	 SHORT $LN85@Py_Mangle
$LN76@Py_Mangle:
  0028c	48 8d 83 a0 00
	00 00		 lea	 rax, QWORD PTR [rbx+160]
  00293	42 0f b7 4c 60
	fc		 movzx	 ecx, WORD PTR [rax+r12*2-4]
  00299	eb 36		 jmp	 SHORT $LN85@Py_Mangle
$LN78@Py_Mangle:
  0029b	48 8b 83 a0 00
	00 00		 mov	 rax, QWORD PTR [rbx+160]
  002a2	42 0f b7 4c 60
	fc		 movzx	 ecx, WORD PTR [rax+r12*2-4]
  002a8	eb 27		 jmp	 SHORT $LN85@Py_Mangle
$LN84@Py_Mangle:
  002aa	85 c0		 test	 eax, eax
  002ac	74 17		 je	 SHORT $LN82@Py_Mangle
  002ae	f6 c1 40	 test	 cl, 64			; 00000040H
  002b1	74 09		 je	 SHORT $LN80@Py_Mangle
  002b3	48 8d 83 80 00
	00 00		 lea	 rax, QWORD PTR [rbx+128]
  002ba	eb 10		 jmp	 SHORT $LN83@Py_Mangle
$LN80@Py_Mangle:
  002bc	48 8d 83 a0 00
	00 00		 lea	 rax, QWORD PTR [rbx+160]
  002c3	eb 07		 jmp	 SHORT $LN83@Py_Mangle
$LN82@Py_Mangle:
  002c5	48 8b 83 a0 00
	00 00		 mov	 rax, QWORD PTR [rbx+160]
$LN83@Py_Mangle:
  002cc	42 8b 4c a0 f8	 mov	 ecx, DWORD PTR [rax+r12*4-8]
$LN85@Py_Mangle:
  002d1	83 f9 5f	 cmp	 ecx, 95			; 0000005fH
  002d4	74 20		 je	 SHORT $LN18@Py_Mangle
$LN17@Py_Mangle:
  002d6	45 33 c0	 xor	 r8d, r8d
  002d9	4d 8b cc	 mov	 r9, r12
  002dc	48 8b cb	 mov	 rcx, rbx
  002df	41 8d 50 2e	 lea	 edx, QWORD PTR [r8+46]
  002e3	c7 44 24 20 01
	00 00 00	 mov	 DWORD PTR [rsp+32], 1
  002eb	e8 00 00 00 00	 call	 PyUnicode_FindChar
  002f0	48 83 f8 ff	 cmp	 rax, -1
  002f4	74 1c		 je	 SHORT $LN19@Py_Mangle
$LN18@Py_Mangle:

; 238  :         Py_INCREF(ident);

  002f6	48 8b cb	 mov	 rcx, rbx
  002f9	e8 00 00 00 00	 call	 _Py_IncRef
  002fe	4c 8b 64 24 60	 mov	 r12, QWORD PTR [rsp+96]
  00303	4c 8b 6c 24 30	 mov	 r13, QWORD PTR [rsp+48]

; 239  :         return ident; /* Don't mangle __whatever__ */

  00308	48 8b c3	 mov	 rax, rbx

; 276  : }

  0030b	48 83 c4 38	 add	 rsp, 56			; 00000038H
  0030f	5e		 pop	 rsi
  00310	5b		 pop	 rbx
  00311	c3		 ret	 0
$LN19@Py_Mangle:

; 240  :     }
; 241  :     /* Strip leading underscores from class name */
; 242  :     ipriv = 0;

  00312	8b 56 70	 mov	 edx, DWORD PTR [rsi+112]
  00315	48 89 6c 24 50	 mov	 QWORD PTR [rsp+80], rbp
  0031a	33 ed		 xor	 ebp, ebp
  0031c	44 8b c2	 mov	 r8d, edx
  0031f	41 c1 e8 02	 shr	 r8d, 2
  00323	41 83 e0 07	 and	 r8d, 7
$LL16@Py_Mangle:

; 243  :     while (PyUnicode_READ_CHAR(privateobj, ipriv) == '_')

  00327	41 83 f8 01	 cmp	 r8d, 1
  0032b	75 31		 jne	 SHORT $LN102@Py_Mangle
  0032d	f6 c2 20	 test	 dl, 32			; 00000020H
  00330	74 1f		 je	 SHORT $LN90@Py_Mangle
  00332	f6 c2 40	 test	 dl, 64			; 00000040H
  00335	74 0d		 je	 SHORT $LN88@Py_Mangle
  00337	48 8d 86 80 00
	00 00		 lea	 rax, QWORD PTR [rsi+128]
  0033e	0f b6 0c 28	 movzx	 ecx, BYTE PTR [rax+rbp]
  00342	eb 77		 jmp	 SHORT $LN101@Py_Mangle
$LN88@Py_Mangle:
  00344	48 8d 86 a0 00
	00 00		 lea	 rax, QWORD PTR [rsi+160]
  0034b	0f b6 0c 28	 movzx	 ecx, BYTE PTR [rax+rbp]
  0034f	eb 6a		 jmp	 SHORT $LN101@Py_Mangle
$LN90@Py_Mangle:
  00351	48 8b 86 a0 00
	00 00		 mov	 rax, QWORD PTR [rsi+160]
  00358	0f b6 0c 28	 movzx	 ecx, BYTE PTR [rax+rbp]
  0035c	eb 5d		 jmp	 SHORT $LN101@Py_Mangle
$LN102@Py_Mangle:
  0035e	41 83 f8 02	 cmp	 r8d, 2
  00362	75 31		 jne	 SHORT $LN100@Py_Mangle
  00364	f6 c2 20	 test	 dl, 32			; 00000020H
  00367	74 1f		 je	 SHORT $LN94@Py_Mangle
  00369	f6 c2 40	 test	 dl, 64			; 00000040H
  0036c	74 0d		 je	 SHORT $LN92@Py_Mangle
  0036e	48 8d 86 80 00
	00 00		 lea	 rax, QWORD PTR [rsi+128]
  00375	0f b7 0c 68	 movzx	 ecx, WORD PTR [rax+rbp*2]
  00379	eb 40		 jmp	 SHORT $LN101@Py_Mangle
$LN92@Py_Mangle:
  0037b	48 8d 86 a0 00
	00 00		 lea	 rax, QWORD PTR [rsi+160]
  00382	0f b7 0c 68	 movzx	 ecx, WORD PTR [rax+rbp*2]
  00386	eb 33		 jmp	 SHORT $LN101@Py_Mangle
$LN94@Py_Mangle:
  00388	48 8b 86 a0 00
	00 00		 mov	 rax, QWORD PTR [rsi+160]
  0038f	0f b7 0c 68	 movzx	 ecx, WORD PTR [rax+rbp*2]
  00393	eb 26		 jmp	 SHORT $LN101@Py_Mangle
$LN100@Py_Mangle:
  00395	f6 c2 20	 test	 dl, 32			; 00000020H
  00398	74 17		 je	 SHORT $LN98@Py_Mangle
  0039a	f6 c2 40	 test	 dl, 64			; 00000040H
  0039d	74 09		 je	 SHORT $LN96@Py_Mangle
  0039f	48 8d 86 80 00
	00 00		 lea	 rax, QWORD PTR [rsi+128]
  003a6	eb 10		 jmp	 SHORT $LN99@Py_Mangle
$LN96@Py_Mangle:
  003a8	48 8d 86 a0 00
	00 00		 lea	 rax, QWORD PTR [rsi+160]
  003af	eb 07		 jmp	 SHORT $LN99@Py_Mangle
$LN98@Py_Mangle:
  003b1	48 8b 86 a0 00
	00 00		 mov	 rax, QWORD PTR [rsi+160]
$LN99@Py_Mangle:
  003b8	8b 0c a8	 mov	 ecx, DWORD PTR [rax+rbp*4]
$LN101@Py_Mangle:
  003bb	83 f9 5f	 cmp	 ecx, 95			; 0000005fH
  003be	75 08		 jne	 SHORT $LN15@Py_Mangle

; 244  :         ipriv++;

  003c0	48 ff c5	 inc	 rbp
  003c3	e9 5f ff ff ff	 jmp	 $LL16@Py_Mangle
$LN15@Py_Mangle:

; 245  :     if (ipriv == plen) {

  003c8	49 3b ed	 cmp	 rbp, r13
  003cb	75 10		 jne	 SHORT $LN14@Py_Mangle

; 246  :         Py_INCREF(ident);

  003cd	48 8b cb	 mov	 rcx, rbx
  003d0	e8 00 00 00 00	 call	 _Py_IncRef

; 247  :         return ident; /* Don't mangle if class is just underscores */

  003d5	48 8b c3	 mov	 rax, rbx
  003d8	e9 c7 01 00 00	 jmp	 $LN135@Py_Mangle
$LN14@Py_Mangle:

; 248  :     }
; 249  :     plen -= ipriv;

  003dd	4c 2b ed	 sub	 r13, rbp

; 250  : 
; 251  :     if (plen + nlen >= PY_SSIZE_T_MAX - 1) {

  003e0	48 b8 fe ff ff
	ff ff ff ff 7f	 mov	 rax, 9223372036854775806 ; 7ffffffffffffffeH
  003ea	4f 8d 4c 25 00	 lea	 r9, QWORD PTR [r13+r12]
  003ef	4c 3b c8	 cmp	 r9, rax
  003f2	72 1a		 jb	 SHORT $LN13@Py_Mangle

; 252  :         PyErr_SetString(PyExc_OverflowError,
; 253  :                         "private identifier too large to be mangled");

  003f4	48 8b 0d 00 00
	00 00		 mov	 rcx, QWORD PTR PyExc_OverflowError
  003fb	48 8d 15 00 00
	00 00		 lea	 rdx, OFFSET FLAT:??_C@_0CL@FMJEBAFL@private?5identifier?5too?5large?5to?5@
  00402	e8 00 00 00 00	 call	 PyErr_SetString

; 254  :         return NULL;

  00407	33 c0		 xor	 eax, eax
  00409	e9 96 01 00 00	 jmp	 $LN135@Py_Mangle
$LN13@Py_Mangle:

; 255  :     }
; 256  : 
; 257  :     maxchar = PyUnicode_MAX_CHAR_VALUE(ident);

  0040e	8b 4b 70	 mov	 ecx, DWORD PTR [rbx+112]
  00411	48 89 7c 24 58	 mov	 QWORD PTR [rsp+88], rdi
  00416	41 ba ff ff 00
	00		 mov	 r10d, 65535		; 0000ffffH
  0041c	f6 c1 40	 test	 cl, 64			; 00000040H
  0041f	74 07		 je	 SHORT $LN106@Py_Mangle
  00421	b8 7f 00 00 00	 mov	 eax, 127		; 0000007fH
  00426	eb 1e		 jmp	 SHORT $LN105@Py_Mangle
$LN106@Py_Mangle:
  00428	c1 e9 02	 shr	 ecx, 2
  0042b	83 e1 07	 and	 ecx, 7
  0042e	83 f9 01	 cmp	 ecx, 1
  00431	75 07		 jne	 SHORT $LN104@Py_Mangle
  00433	b8 ff 00 00 00	 mov	 eax, 255		; 000000ffH
  00438	eb 0c		 jmp	 SHORT $LN105@Py_Mangle
$LN104@Py_Mangle:
  0043a	b8 ff ff 10 00	 mov	 eax, 1114111		; 0010ffffH
  0043f	83 f9 02	 cmp	 ecx, 2
  00442	41 0f 44 c2	 cmove	 eax, r10d
$LN105@Py_Mangle:

; 258  :     if (PyUnicode_MAX_CHAR_VALUE(privateobj) > maxchar)

  00446	c1 ea 06	 shr	 edx, 6
  00449	83 e2 01	 and	 edx, 1
  0044c	74 07		 je	 SHORT $LN110@Py_Mangle
  0044e	b9 7f 00 00 00	 mov	 ecx, 127		; 0000007fH
  00453	eb 1a		 jmp	 SHORT $LN109@Py_Mangle
$LN110@Py_Mangle:
  00455	41 83 f8 01	 cmp	 r8d, 1
  00459	75 07		 jne	 SHORT $LN108@Py_Mangle
  0045b	b9 ff 00 00 00	 mov	 ecx, 255		; 000000ffH
  00460	eb 0d		 jmp	 SHORT $LN109@Py_Mangle
$LN108@Py_Mangle:
  00462	b9 ff ff 10 00	 mov	 ecx, 1114111		; 0010ffffH
  00467	41 83 f8 02	 cmp	 r8d, 2
  0046b	41 0f 44 ca	 cmove	 ecx, r10d
$LN109@Py_Mangle:
  0046f	3b c8		 cmp	 ecx, eax
  00471	76 25		 jbe	 SHORT $LN113@Py_Mangle

; 259  :         maxchar = PyUnicode_MAX_CHAR_VALUE(privateobj);

  00473	85 d2		 test	 edx, edx
  00475	74 07		 je	 SHORT $LN114@Py_Mangle
  00477	b8 7f 00 00 00	 mov	 eax, 127		; 0000007fH
  0047c	eb 1a		 jmp	 SHORT $LN113@Py_Mangle
$LN114@Py_Mangle:
  0047e	41 83 f8 01	 cmp	 r8d, 1
  00482	75 07		 jne	 SHORT $LN112@Py_Mangle
  00484	b8 ff 00 00 00	 mov	 eax, 255		; 000000ffH
  00489	eb 0d		 jmp	 SHORT $LN113@Py_Mangle
$LN112@Py_Mangle:
  0048b	b8 ff ff 10 00	 mov	 eax, 1114111		; 0010ffffH
  00490	41 83 f8 02	 cmp	 r8d, 2
  00494	41 0f 44 c2	 cmove	 eax, r10d
$LN113@Py_Mangle:

; 260  : 
; 261  :     result = PyUnicode_New(1 + nlen + plen, maxchar);

  00498	49 8d 49 01	 lea	 rcx, QWORD PTR [r9+1]
  0049c	8b d0		 mov	 edx, eax
  0049e	e8 00 00 00 00	 call	 PyUnicode_New
  004a3	48 8b f8	 mov	 rdi, rax

; 262  :     if (!result)

  004a6	48 85 c0	 test	 rax, rax

; 263  :         return 0;

  004a9	0f 84 ee 00 00
	00		 je	 $LN138@Py_Mangle

; 264  :     /* ident = "_" + priv[ipriv:] + ident # i.e. 1+plen+nlen bytes */
; 265  :     PyUnicode_WRITE(PyUnicode_KIND(result), PyUnicode_DATA(result), 0, '_');

  004af	8b 40 70	 mov	 eax, DWORD PTR [rax+112]
  004b2	8b c8		 mov	 ecx, eax
  004b4	c1 e9 02	 shr	 ecx, 2
  004b7	83 e1 07	 and	 ecx, 7
  004ba	ff c9		 dec	 ecx
  004bc	74 7a		 je	 SHORT $LN5@Py_Mangle
  004be	ff c9		 dec	 ecx
  004c0	74 3b		 je	 SHORT $LN4@Py_Mangle
  004c2	a8 20		 test	 al, 32			; 00000020H
  004c4	74 27		 je	 SHORT $LN126@Py_Mangle
  004c6	a8 40		 test	 al, 64			; 00000040H
  004c8	74 13		 je	 SHORT $LN124@Py_Mangle
  004ca	48 8d 87 80 00
	00 00		 lea	 rax, QWORD PTR [rdi+128]
  004d1	b9 5f 00 00 00	 mov	 ecx, 95			; 0000005fH
  004d6	89 08		 mov	 DWORD PTR [rax], ecx
  004d8	e9 7f 00 00 00	 jmp	 $LN9@Py_Mangle
$LN124@Py_Mangle:
  004dd	48 8d 87 a0 00
	00 00		 lea	 rax, QWORD PTR [rdi+160]
  004e4	b9 5f 00 00 00	 mov	 ecx, 95			; 0000005fH
  004e9	89 08		 mov	 DWORD PTR [rax], ecx
  004eb	eb 6f		 jmp	 SHORT $LN9@Py_Mangle
$LN126@Py_Mangle:
  004ed	48 8b 87 a0 00
	00 00		 mov	 rax, QWORD PTR [rdi+160]
  004f4	b9 5f 00 00 00	 mov	 ecx, 95			; 0000005fH
  004f9	89 08		 mov	 DWORD PTR [rax], ecx
  004fb	eb 5f		 jmp	 SHORT $LN9@Py_Mangle
$LN4@Py_Mangle:
  004fd	a8 20		 test	 al, 32			; 00000020H
  004ff	74 26		 je	 SHORT $LN122@Py_Mangle
  00501	a8 40		 test	 al, 64			; 00000040H
  00503	74 11		 je	 SHORT $LN120@Py_Mangle
  00505	48 8d 87 80 00
	00 00		 lea	 rax, QWORD PTR [rdi+128]
  0050c	b9 5f 00 00 00	 mov	 ecx, 95			; 0000005fH
  00511	66 89 08	 mov	 WORD PTR [rax], cx
  00514	eb 46		 jmp	 SHORT $LN9@Py_Mangle
$LN120@Py_Mangle:
  00516	48 8d 87 a0 00
	00 00		 lea	 rax, QWORD PTR [rdi+160]
  0051d	b9 5f 00 00 00	 mov	 ecx, 95			; 0000005fH
  00522	66 89 08	 mov	 WORD PTR [rax], cx
  00525	eb 35		 jmp	 SHORT $LN9@Py_Mangle
$LN122@Py_Mangle:
  00527	48 8b 87 a0 00
	00 00		 mov	 rax, QWORD PTR [rdi+160]
  0052e	b9 5f 00 00 00	 mov	 ecx, 95			; 0000005fH
  00533	66 89 08	 mov	 WORD PTR [rax], cx
  00536	eb 24		 jmp	 SHORT $LN9@Py_Mangle
$LN5@Py_Mangle:
  00538	a8 20		 test	 al, 32			; 00000020H
  0053a	74 16		 je	 SHORT $LN118@Py_Mangle
  0053c	a8 40		 test	 al, 64			; 00000040H
  0053e	74 09		 je	 SHORT $LN116@Py_Mangle
  00540	48 8d 87 80 00
	00 00		 lea	 rax, QWORD PTR [rdi+128]
  00547	eb 10		 jmp	 SHORT $LN119@Py_Mangle
$LN116@Py_Mangle:
  00549	48 8d 87 a0 00
	00 00		 lea	 rax, QWORD PTR [rdi+160]
  00550	eb 07		 jmp	 SHORT $LN119@Py_Mangle
$LN118@Py_Mangle:
  00552	48 8b 87 a0 00
	00 00		 mov	 rax, QWORD PTR [rdi+160]
$LN119@Py_Mangle:
  00559	c6 00 5f	 mov	 BYTE PTR [rax], 95	; 0000005fH
$LN9@Py_Mangle:

; 266  :     if (PyUnicode_CopyCharacters(result, 1, privateobj, ipriv, plen) < 0) {

  0055c	4c 8b cd	 mov	 r9, rbp
  0055f	4c 8b c6	 mov	 r8, rsi
  00562	ba 01 00 00 00	 mov	 edx, 1
  00567	48 8b cf	 mov	 rcx, rdi
  0056a	4c 89 6c 24 20	 mov	 QWORD PTR [rsp+32], r13
  0056f	e8 00 00 00 00	 call	 PyUnicode_CopyCharacters

; 267  :         Py_DECREF(result);

  00574	48 8b cf	 mov	 rcx, rdi
  00577	48 85 c0	 test	 rax, rax

; 268  :         return NULL;

  0057a	78 1c		 js	 SHORT $LN137@Py_Mangle

; 269  :     }
; 270  :     if (PyUnicode_CopyCharacters(result, plen+1, ident, 0, nlen) < 0) {

  0057c	49 8d 55 01	 lea	 rdx, QWORD PTR [r13+1]
  00580	45 33 c9	 xor	 r9d, r9d
  00583	4c 8b c3	 mov	 r8, rbx
  00586	4c 89 64 24 20	 mov	 QWORD PTR [rsp+32], r12
  0058b	e8 00 00 00 00	 call	 PyUnicode_CopyCharacters
  00590	48 85 c0	 test	 rax, rax
  00593	79 25		 jns	 SHORT $LN1@Py_Mangle

; 271  :         Py_DECREF(result);

  00595	48 8b cf	 mov	 rcx, rdi
$LN137@Py_Mangle:
  00598	e8 00 00 00 00	 call	 _Py_DecRef
$LN138@Py_Mangle:

; 272  :         return NULL;

  0059d	33 c0		 xor	 eax, eax
$LN136@Py_Mangle:
  0059f	48 8b 7c 24 58	 mov	 rdi, QWORD PTR [rsp+88]
$LN135@Py_Mangle:
  005a4	48 8b 6c 24 50	 mov	 rbp, QWORD PTR [rsp+80]
  005a9	4c 8b 64 24 60	 mov	 r12, QWORD PTR [rsp+96]
  005ae	4c 8b 6c 24 30	 mov	 r13, QWORD PTR [rsp+48]

; 276  : }

  005b3	48 83 c4 38	 add	 rsp, 56			; 00000038H
  005b7	5e		 pop	 rsi
  005b8	5b		 pop	 rbx
  005b9	c3		 ret	 0
$LN1@Py_Mangle:

; 273  :     }
; 274  :     assert(_PyUnicode_CheckConsistency(result, 1));
; 275  :     return result;

  005ba	48 8b c7	 mov	 rax, rdi
  005bd	eb e0		 jmp	 SHORT $LN136@Py_Mangle
$LN20@Py_Mangle:

; 221  :         Py_INCREF(ident);

  005bf	e8 00 00 00 00	 call	 _Py_PXCTX
  005c4	85 c0		 test	 eax, eax
  005c6	75 32		 jne	 SHORT $LN129@Py_Mangle
  005c8	48 8d 15 00 00
	00 00		 lea	 rdx, OFFSET FLAT:??_C@_0CD@HDJFDCDP@c?3?2src?2pyparallel?2include?2object@
  005cf	48 8d 0d 00 00
	00 00		 lea	 rcx, OFFSET FLAT:??_C@_0L@DHGMCEID@_Py_IncRef?$AA@
  005d6	4c 8b cb	 mov	 r9, rbx
  005d9	41 b8 89 03 00
	00		 mov	 r8d, 905		; 00000389H
  005df	c7 44 24 20 02
	00 00 00	 mov	 DWORD PTR [rsp+32], 2
  005e7	e8 00 00 00 00	 call	 _PyParallel_Guard
  005ec	85 c0		 test	 eax, eax
  005ee	75 06		 jne	 SHORT $LN128@Py_Mangle
  005f0	f6 43 20 20	 test	 BYTE PTR [rbx+32], 32	; 00000020H
  005f4	74 04		 je	 SHORT $LN129@Py_Mangle
$LN128@Py_Mangle:
  005f6	48 ff 43 50	 inc	 QWORD PTR [rbx+80]
$LN129@Py_Mangle:

; 222  :         return ident;

  005fa	48 8b c3	 mov	 rax, rbx

; 276  : }

  005fd	48 83 c4 38	 add	 rsp, 56			; 00000038H
  00601	5e		 pop	 rsi
  00602	5b		 pop	 rbx
  00603	c3		 ret	 0
_Py_Mangle ENDP
_TEXT	ENDS
EXTRN	PyList_New:PROC
EXTRN	memset:PROC
;	COMDAT pdata
pdata	SEGMENT
$pdata$compiler_init DD imagerel compiler_init
	DD	imagerel compiler_init+47
	DD	imagerel $unwind$compiler_init
pdata	ENDS
;	COMDAT xdata
xdata	SEGMENT
$unwind$compiler_init DD 020601H
	DD	030023206H
; Function compile flags: /Ogtpy
xdata	ENDS
;	COMDAT compiler_init
_TEXT	SEGMENT
c$ = 48
compiler_init PROC					; COMDAT

; 280  : {

  00000	40 53		 push	 rbx
  00002	48 83 ec 20	 sub	 rsp, 32			; 00000020H

; 281  :     memset(c, 0, sizeof(struct compiler));

  00006	33 d2		 xor	 edx, edx
  00008	48 8b d9	 mov	 rbx, rcx
  0000b	44 8d 42 50	 lea	 r8d, QWORD PTR [rdx+80]
  0000f	e8 00 00 00 00	 call	 memset

; 282  : 
; 283  :     c->c_stack = PyList_New(0);

  00014	33 c9		 xor	 ecx, ecx
  00016	e8 00 00 00 00	 call	 PyList_New

; 284  :     if (!c->c_stack)

  0001b	33 c9		 xor	 ecx, ecx
  0001d	48 85 c0	 test	 rax, rax
  00020	48 89 43 40	 mov	 QWORD PTR [rbx+64], rax
  00024	0f 95 c1	 setne	 cl
  00027	8b c1		 mov	 eax, ecx

; 285  :         return 0;
; 286  : 
; 287  :     return 1;
; 288  : }

  00029	48 83 c4 20	 add	 rsp, 32			; 00000020H
  0002d	5b		 pop	 rbx
  0002e	c3		 ret	 0
compiler_init ENDP
_TEXT	ENDS
EXTRN	PyObject_Free:PROC
EXTRN	PySymtable_Free:PROC
;	COMDAT pdata
pdata	SEGMENT
$pdata$compiler_free DD imagerel compiler_free
	DD	imagerel compiler_free+65
	DD	imagerel $unwind$compiler_free
pdata	ENDS
;	COMDAT xdata
xdata	SEGMENT
$unwind$compiler_free DD 020601H
	DD	030023206H
; Function compile flags: /Ogtpy
xdata	ENDS
;	COMDAT compiler_free
_TEXT	SEGMENT
c$ = 48
compiler_free PROC					; COMDAT

; 358  : {

  00000	40 53		 push	 rbx
  00002	48 83 ec 20	 sub	 rsp, 32			; 00000020H
  00006	48 8b d9	 mov	 rbx, rcx

; 359  :     if (c->c_st)

  00009	48 8b 49 10	 mov	 rcx, QWORD PTR [rcx+16]
  0000d	48 85 c9	 test	 rcx, rcx
  00010	74 05		 je	 SHORT $LN3@compiler_f

; 360  :         PySymtable_Free(c->c_st);

  00012	e8 00 00 00 00	 call	 PySymtable_Free
$LN3@compiler_f:

; 361  :     if (c->c_future)

  00017	48 8b 4b 18	 mov	 rcx, QWORD PTR [rbx+24]
  0001b	48 85 c9	 test	 rcx, rcx
  0001e	74 05		 je	 SHORT $LN2@compiler_f

; 362  :         PyObject_Free(c->c_future);

  00020	e8 00 00 00 00	 call	 PyObject_Free
$LN2@compiler_f:

; 363  :     if (c->c_filename_obj)

  00025	48 8b 4b 08	 mov	 rcx, QWORD PTR [rbx+8]
  00029	48 85 c9	 test	 rcx, rcx
  0002c	74 05		 je	 SHORT $LN1@compiler_f

; 364  :         Py_DECREF(c->c_filename_obj);

  0002e	e8 00 00 00 00	 call	 _Py_DecRef
$LN1@compiler_f:

; 365  :     Py_DECREF(c->c_stack);

  00033	48 8b 4b 40	 mov	 rcx, QWORD PTR [rbx+64]

; 366  : }

  00037	48 83 c4 20	 add	 rsp, 32			; 00000020H
  0003b	5b		 pop	 rbx
  0003c	e9 00 00 00 00	 jmp	 _Py_DecRef
compiler_free ENDP
_TEXT	ENDS
EXTRN	PyDict_SetItem:PROC
EXTRN	PyTuple_Pack:PROC
EXTRN	PyLong_FromLong:PROC
EXTRN	PyList_Size:PROC
EXTRN	PyDict_New:PROC
;	COMDAT pdata
; File c:\src\pyparallel\include\object.h
pdata	SEGMENT
$pdata$list2dict DD imagerel list2dict
	DD	imagerel list2dict+32
	DD	imagerel $unwind$list2dict
pdata	ENDS
;	COMDAT pdata
pdata	SEGMENT
$pdata$3$list2dict DD imagerel list2dict+32
	DD	imagerel list2dict+196
	DD	imagerel $chain$3$list2dict
pdata	ENDS
;	COMDAT pdata
pdata	SEGMENT
$pdata$5$list2dict DD imagerel list2dict+196
	DD	imagerel list2dict+438
	DD	imagerel $chain$5$list2dict
pdata	ENDS
;	COMDAT xdata
xdata	SEGMENT
$chain$5$list2dict DD 080021H
	DD	06c400H
	DD	0c7400H
	DD	0b6400H
	DD	0a5400H
	DD	imagerel list2dict
	DD	imagerel list2dict+32
	DD	imagerel $unwind$list2dict
xdata	ENDS
;	COMDAT xdata
xdata	SEGMENT
$chain$3$list2dict DD 081721H
	DD	06c417H
	DD	0c7412H
	DD	0b640aH
	DD	0a5405H
	DD	imagerel list2dict
	DD	imagerel list2dict+32
	DD	imagerel $unwind$list2dict
xdata	ENDS
;	COMDAT xdata
xdata	SEGMENT
$unwind$list2dict DD 030801H
	DD	0d0046208H
	DD	03002H
; Function compile flags: /Ogtpy
; File c:\src\pyparallel\python\compile.c
xdata	ENDS
;	COMDAT list2dict
_TEXT	SEGMENT
list$ = 80
list2dict PROC						; COMDAT

; 370  : {

  00000	40 53		 push	 rbx
  00002	41 55		 push	 r13
  00004	48 83 ec 38	 sub	 rsp, 56			; 00000038H
  00008	4c 8b e9	 mov	 r13, rcx

; 371  :     Py_ssize_t i, n;
; 372  :     PyObject *v, *k;
; 373  :     PyObject *dict = PyDict_New();

  0000b	e8 00 00 00 00	 call	 PyDict_New
  00010	48 8b d8	 mov	 rbx, rax

; 374  :     if (!dict) return NULL;

  00013	48 85 c0	 test	 rax, rax
  00016	75 08		 jne	 SHORT $LN11@list2dict

; 395  : }

  00018	48 83 c4 38	 add	 rsp, 56			; 00000038H
  0001c	41 5d		 pop	 r13
  0001e	5b		 pop	 rbx
  0001f	c3		 ret	 0
$LN11@list2dict:
  00020	48 89 6c 24 50	 mov	 QWORD PTR [rsp+80], rbp
  00025	48 89 74 24 58	 mov	 QWORD PTR [rsp+88], rsi

; 375  : 
; 376  :     n = PyList_Size(list);

  0002a	49 8b cd	 mov	 rcx, r13
  0002d	48 89 7c 24 60	 mov	 QWORD PTR [rsp+96], rdi
  00032	4c 89 64 24 30	 mov	 QWORD PTR [rsp+48], r12
  00037	e8 00 00 00 00	 call	 PyList_Size

; 377  :     for (i = 0; i < n; i++) {

  0003c	33 f6		 xor	 esi, esi
  0003e	4c 8b e0	 mov	 r12, rax
  00041	48 85 c0	 test	 rax, rax
  00044	7e 5f		 jle	 SHORT $LN8@list2dict
$LL10@list2dict:

; 378  :         v = PyLong_FromLong(i);

  00046	8b ce		 mov	 ecx, esi
  00048	e8 00 00 00 00	 call	 PyLong_FromLong
  0004d	48 8b e8	 mov	 rbp, rax

; 379  :         if (!v) {

  00050	48 85 c0	 test	 rax, rax
  00053	0f 84 e7 00 00
	00		 je	 $LN37@list2dict

; 382  :         }
; 383  :         k = PyList_GET_ITEM(list, i);

  00059	49 8b 4d 70	 mov	 rcx, QWORD PTR [r13+112]
  0005d	48 8b 14 f1	 mov	 rdx, QWORD PTR [rcx+rsi*8]

; 384  :         k = PyTuple_Pack(2, k, k->ob_type);

  00061	b9 02 00 00 00	 mov	 ecx, 2
  00066	4c 8b 42 58	 mov	 r8, QWORD PTR [rdx+88]
  0006a	e8 00 00 00 00	 call	 PyTuple_Pack
  0006f	48 8b f8	 mov	 rdi, rax

; 385  :         if (k == NULL || PyDict_SetItem(dict, k, v) < 0) {

  00072	48 85 c0	 test	 rax, rax
  00075	0f 84 ae 00 00
	00		 je	 $LN3@list2dict
  0007b	4c 8b c5	 mov	 r8, rbp
  0007e	48 8b d0	 mov	 rdx, rax
  00081	48 8b cb	 mov	 rcx, rbx
  00084	e8 00 00 00 00	 call	 PyDict_SetItem
  00089	85 c0		 test	 eax, eax
  0008b	78 37		 js	 SHORT $LN4@list2dict

; 390  :         }
; 391  :         Py_DECREF(k);

  0008d	48 8b cf	 mov	 rcx, rdi
  00090	e8 00 00 00 00	 call	 _Py_DecRef

; 392  :         Py_DECREF(v);

  00095	48 8b cd	 mov	 rcx, rbp
  00098	e8 00 00 00 00	 call	 _Py_DecRef
  0009d	48 ff c6	 inc	 rsi
  000a0	49 3b f4	 cmp	 rsi, r12
  000a3	7c a1		 jl	 SHORT $LL10@list2dict
$LN8@list2dict:

; 393  :     }
; 394  :     return dict;

  000a5	48 8b c3	 mov	 rax, rbx
$LN43@list2dict:
  000a8	48 8b 7c 24 60	 mov	 rdi, QWORD PTR [rsp+96]
  000ad	48 8b 74 24 58	 mov	 rsi, QWORD PTR [rsp+88]
  000b2	48 8b 6c 24 50	 mov	 rbp, QWORD PTR [rsp+80]
  000b7	4c 8b 64 24 30	 mov	 r12, QWORD PTR [rsp+48]

; 395  : }

  000bc	48 83 c4 38	 add	 rsp, 56			; 00000038H
  000c0	41 5d		 pop	 r13
  000c2	5b		 pop	 rbx
  000c3	c3		 ret	 0
$LN4@list2dict:

; 386  :             Py_XDECREF(k);

  000c4	e8 00 00 00 00	 call	 _Py_PXCTX
  000c9	85 c0		 test	 eax, eax
  000cb	75 5c		 jne	 SHORT $LN3@list2dict
  000cd	48 8b 47 20	 mov	 rax, QWORD PTR [rdi+32]
  000d1	a8 20		 test	 al, 32			; 00000020H
  000d3	75 4c		 jne	 SHORT $LN29@list2dict
  000d5	84 c0		 test	 al, al
  000d7	78 48		 js	 SHORT $LN29@list2dict
  000d9	a8 02		 test	 al, 2
  000db	75 4c		 jne	 SHORT $LN3@list2dict
  000dd	48 ff 4f 50	 dec	 QWORD PTR [rdi+80]
  000e1	75 46		 jne	 SHORT $LN3@list2dict
  000e3	48 8d 15 00 00
	00 00		 lea	 rdx, OFFSET FLAT:??_C@_0CD@HDJFDCDP@c?3?2src?2pyparallel?2include?2object@
  000ea	48 8d 0d 00 00
	00 00		 lea	 rcx, OFFSET FLAT:??_C@_0L@DMHMLFIA@_Py_DecRef?$AA@
  000f1	4c 8b cf	 mov	 r9, rdi
  000f4	41 b8 a4 03 00
	00		 mov	 r8d, 932		; 000003a4H
  000fa	c7 44 24 20 10
	00 00 00	 mov	 DWORD PTR [rsp+32], 16
  00102	e8 00 00 00 00	 call	 _PyParallel_Guard
  00107	48 8b cf	 mov	 rcx, rdi
  0010a	85 c0		 test	 eax, eax
  0010c	74 07		 je	 SHORT $LN34@list2dict
  0010e	e8 00 00 00 00	 call	 _Px_Dealloc
  00113	eb 14		 jmp	 SHORT $LN3@list2dict
$LN34@list2dict:
  00115	48 8b 47 58	 mov	 rax, QWORD PTR [rdi+88]
  00119	ff 90 88 00 00
	00		 call	 QWORD PTR [rax+136]
  0011f	eb 08		 jmp	 SHORT $LN3@list2dict
$LN29@list2dict:
  00121	48 8b cf	 mov	 rcx, rdi
  00124	e8 00 00 00 00	 call	 Px_DecRef
$LN3@list2dict:

; 387  :             Py_DECREF(v);

  00129	48 8b cd	 mov	 rcx, rbp
  0012c	e8 00 00 00 00	 call	 _Py_DecRef

; 388  :             Py_DECREF(dict);

  00131	48 8b cb	 mov	 rcx, rbx
  00134	e8 00 00 00 00	 call	 _Py_DecRef

; 389  :             return NULL;

  00139	33 c0		 xor	 eax, eax
  0013b	e9 68 ff ff ff	 jmp	 $LN43@list2dict
$LN37@list2dict:

; 380  :             Py_DECREF(dict);

  00140	e8 00 00 00 00	 call	 _Py_PXCTX
  00145	85 c0		 test	 eax, eax
  00147	75 66		 jne	 SHORT $LN24@list2dict
  00149	48 8b 43 20	 mov	 rax, QWORD PTR [rbx+32]
  0014d	a8 20		 test	 al, 32			; 00000020H
  0014f	75 56		 jne	 SHORT $LN18@list2dict
  00151	84 c0		 test	 al, al
  00153	78 52		 js	 SHORT $LN18@list2dict
  00155	a8 02		 test	 al, 2
  00157	75 56		 jne	 SHORT $LN24@list2dict
  00159	48 ff 4b 50	 dec	 QWORD PTR [rbx+80]
  0015d	75 50		 jne	 SHORT $LN24@list2dict
  0015f	48 8d 15 00 00
	00 00		 lea	 rdx, OFFSET FLAT:??_C@_0CD@HDJFDCDP@c?3?2src?2pyparallel?2include?2object@
  00166	48 8d 0d 00 00
	00 00		 lea	 rcx, OFFSET FLAT:??_C@_0L@DMHMLFIA@_Py_DecRef?$AA@
  0016d	4c 8b cb	 mov	 r9, rbx
  00170	41 b8 a4 03 00
	00		 mov	 r8d, 932		; 000003a4H
  00176	c7 44 24 20 10
	00 00 00	 mov	 DWORD PTR [rsp+32], 16
  0017e	e8 00 00 00 00	 call	 _PyParallel_Guard
  00183	48 8b cb	 mov	 rcx, rbx
  00186	85 c0		 test	 eax, eax
  00188	74 0c		 je	 SHORT $LN23@list2dict
  0018a	e8 00 00 00 00	 call	 _Px_Dealloc

; 381  :             return NULL;

  0018f	33 c0		 xor	 eax, eax
  00191	e9 12 ff ff ff	 jmp	 $LN43@list2dict

; 380  :             Py_DECREF(dict);

$LN23@list2dict:
  00196	48 8b 43 58	 mov	 rax, QWORD PTR [rbx+88]
  0019a	ff 90 88 00 00
	00		 call	 QWORD PTR [rax+136]

; 381  :             return NULL;

  001a0	33 c0		 xor	 eax, eax
  001a2	e9 01 ff ff ff	 jmp	 $LN43@list2dict

; 380  :             Py_DECREF(dict);

$LN18@list2dict:
  001a7	48 8b cb	 mov	 rcx, rbx
  001aa	e8 00 00 00 00	 call	 Px_DecRef
$LN24@list2dict:

; 381  :             return NULL;

  001af	33 c0		 xor	 eax, eax
  001b1	e9 f2 fe ff ff	 jmp	 $LN43@list2dict
list2dict ENDP
_TEXT	ENDS
EXTRN	PyLong_AsLong:PROC
EXTRN	PyDict_GetItem:PROC
EXTRN	PyList_Sort:PROC
EXTRN	PyDict_Keys:PROC
;	COMDAT pdata
pdata	SEGMENT
$pdata$dictbytype DD imagerel dictbytype
	DD	imagerel dictbytype+57
	DD	imagerel $unwind$dictbytype
pdata	ENDS
;	COMDAT pdata
pdata	SEGMENT
$pdata$0$dictbytype DD imagerel dictbytype+57
	DD	imagerel dictbytype+114
	DD	imagerel $chain$0$dictbytype
pdata	ENDS
;	COMDAT pdata
pdata	SEGMENT
$pdata$5$dictbytype DD imagerel dictbytype+114
	DD	imagerel dictbytype+332
	DD	imagerel $chain$5$dictbytype
pdata	ENDS
;	COMDAT pdata
pdata	SEGMENT
$pdata$7$dictbytype DD imagerel dictbytype+332
	DD	imagerel dictbytype+393
	DD	imagerel $chain$7$dictbytype
pdata	ENDS
;	COMDAT xdata
xdata	SEGMENT
$chain$7$dictbytype DD 080021H
	DD	04e400H
	DD	056400H
	DD	065400H
	DD	0e3400H
	DD	imagerel dictbytype
	DD	imagerel dictbytype+57
	DD	imagerel $unwind$dictbytype
xdata	ENDS
;	COMDAT xdata
xdata	SEGMENT
$chain$5$dictbytype DD 080f21H
	DD	04e40fH
	DD	05640aH
	DD	0e3405H
	DD	065400H
	DD	imagerel dictbytype
	DD	imagerel dictbytype+57
	DD	imagerel $unwind$dictbytype
xdata	ENDS
;	COMDAT xdata
xdata	SEGMENT
$chain$0$dictbytype DD 020521H
	DD	065405H
	DD	imagerel dictbytype
	DD	imagerel dictbytype+57
	DD	imagerel $unwind$dictbytype
xdata	ENDS
;	COMDAT xdata
xdata	SEGMENT
$unwind$dictbytype DD 051401H
	DD	0f0106214H
	DD	0c00cd00eH
	DD	0700aH
; Function compile flags: /Ogtpy
xdata	ENDS
;	COMDAT dictbytype
_TEXT	SEGMENT
src$ = 96
scope_type$ = 104
flag$ = 112
offset$ = 120
dictbytype PROC						; COMDAT

; 407  : {

  00000	89 54 24 10	 mov	 DWORD PTR [rsp+16], edx
  00004	48 89 4c 24 08	 mov	 QWORD PTR [rsp+8], rcx
  00009	57		 push	 rdi
  0000a	41 54		 push	 r12
  0000c	41 55		 push	 r13
  0000e	41 57		 push	 r15
  00010	48 83 ec 38	 sub	 rsp, 56			; 00000038H
  00014	45 8b f8	 mov	 r15d, r8d
  00017	48 8b f9	 mov	 rdi, rcx

; 408  :     Py_ssize_t i = offset, scope, num_keys, key_i;

  0001a	4d 63 e9	 movsxd	 r13, r9d

; 409  :     PyObject *k, *v, *dest = PyDict_New();

  0001d	e8 00 00 00 00	 call	 PyDict_New
  00022	4c 8b e0	 mov	 r12, rax

; 410  :     PyObject *sorted_keys;
; 411  : 
; 412  :     assert(offset >= 0);
; 413  :     if (dest == NULL)

  00025	48 85 c0	 test	 rax, rax
  00028	75 0c		 jne	 SHORT $LN15@dictbytype

; 461  : }

  0002a	48 83 c4 38	 add	 rsp, 56			; 00000038H
  0002e	41 5f		 pop	 r15
  00030	41 5d		 pop	 r13
  00032	41 5c		 pop	 r12
  00034	5f		 pop	 rdi
  00035	c3		 ret	 0
$LN15@dictbytype:

; 414  :         return NULL;
; 415  : 
; 416  :     /* Sort the keys so that we have a deterministic order on the indexes
; 417  :        saved in the returned dictionary.  These indexes are used as indexes
; 418  :        into the free and cell var storage.  Therefore if they aren't
; 419  :        deterministic, then the generated bytecode is not deterministic.
; 420  :     */
; 421  :     sorted_keys = PyDict_Keys(src);

  00036	48 8b cf	 mov	 rcx, rdi
  00039	48 89 6c 24 30	 mov	 QWORD PTR [rsp+48], rbp
  0003e	e8 00 00 00 00	 call	 PyDict_Keys
  00043	48 8b e8	 mov	 rbp, rax

; 422  :     if (sorted_keys == NULL)

  00046	48 85 c0	 test	 rax, rax

; 423  :         return NULL;

  00049	74 14		 je	 SHORT $LN26@dictbytype

; 424  :     if (PyList_Sort(sorted_keys) != 0) {

  0004b	48 8b c8	 mov	 rcx, rax
  0004e	e8 00 00 00 00	 call	 PyList_Sort
  00053	85 c0		 test	 eax, eax
  00055	74 1b		 je	 SHORT $LN13@dictbytype

; 425  :         Py_DECREF(sorted_keys);

  00057	48 8b cd	 mov	 rcx, rbp
  0005a	e8 00 00 00 00	 call	 _Py_DecRef
$LN26@dictbytype:

; 426  :         return NULL;

  0005f	33 c0		 xor	 eax, eax
  00061	48 8b 6c 24 30	 mov	 rbp, QWORD PTR [rsp+48]

; 461  : }

  00066	48 83 c4 38	 add	 rsp, 56			; 00000038H
  0006a	41 5f		 pop	 r15
  0006c	41 5d		 pop	 r13
  0006e	41 5c		 pop	 r12
  00070	5f		 pop	 rdi
  00071	c3		 ret	 0
$LN13@dictbytype:
  00072	48 89 5c 24 70	 mov	 QWORD PTR [rsp+112], rbx
  00077	48 89 74 24 28	 mov	 QWORD PTR [rsp+40], rsi
  0007c	4c 89 74 24 20	 mov	 QWORD PTR [rsp+32], r14

; 427  :     }
; 428  :     num_keys = PyList_GET_SIZE(sorted_keys);

  00081	4c 8b 75 60	 mov	 r14, QWORD PTR [rbp+96]

; 429  : 
; 430  :     for (key_i = 0; key_i < num_keys; key_i++) {

  00085	33 f6		 xor	 esi, esi
  00087	4d 85 f6	 test	 r14, r14
  0008a	0f 8e 91 00 00
	00		 jle	 $LN10@dictbytype
$LL12@dictbytype:

; 431  :         /* XXX this should probably be a macro in symtable.h */
; 432  :         long vi;
; 433  :         k = PyList_GET_ITEM(sorted_keys, key_i);

  00090	48 8b 45 70	 mov	 rax, QWORD PTR [rbp+112]

; 434  :         v = PyDict_GetItem(src, k);

  00094	48 8b cf	 mov	 rcx, rdi
  00097	48 8b 1c f0	 mov	 rbx, QWORD PTR [rax+rsi*8]
  0009b	48 8b d3	 mov	 rdx, rbx
  0009e	e8 00 00 00 00	 call	 PyDict_GetItem

; 435  :         assert(PyLong_Check(v));
; 436  :         vi = PyLong_AS_LONG(v);

  000a3	48 8b c8	 mov	 rcx, rax
  000a6	e8 00 00 00 00	 call	 PyLong_AsLong

; 437  :         scope = (vi >> SCOPE_OFFSET) & SCOPE_MASK;
; 438  : 
; 439  :         if (scope == scope_type || vi & flag) {

  000ab	8b c8		 mov	 ecx, eax
  000ad	c1 f9 0b	 sar	 ecx, 11
  000b0	83 e1 0f	 and	 ecx, 15
  000b3	3b 4c 24 68	 cmp	 ecx, DWORD PTR scope_type$[rsp]
  000b7	74 05		 je	 SHORT $LN8@dictbytype
  000b9	41 85 c7	 test	 eax, r15d
  000bc	74 57		 je	 SHORT $LN11@dictbytype
$LN8@dictbytype:

; 440  :             PyObject *tuple, *item = PyLong_FromLong(i);

  000be	41 8b cd	 mov	 ecx, r13d
  000c1	e8 00 00 00 00	 call	 PyLong_FromLong
  000c6	48 8b f8	 mov	 rdi, rax

; 441  :             if (item == NULL) {

  000c9	48 85 c0	 test	 rax, rax
  000cc	0f 84 a3 00 00
	00		 je	 $LN19@dictbytype

; 445  :             }
; 446  :             i++;
; 447  :             tuple = PyTuple_Pack(2, k, k->ob_type);

  000d2	4c 8b 43 58	 mov	 r8, QWORD PTR [rbx+88]
  000d6	48 8b d3	 mov	 rdx, rbx
  000d9	b9 02 00 00 00	 mov	 ecx, 2
  000de	49 ff c5	 inc	 r13
  000e1	e8 00 00 00 00	 call	 PyTuple_Pack
  000e6	48 8b d8	 mov	 rbx, rax

; 448  :             if (!tuple || PyDict_SetItem(dest, tuple, item) < 0) {

  000e9	48 85 c0	 test	 rax, rax
  000ec	74 5e		 je	 SHORT $LN20@dictbytype
  000ee	4c 8b c7	 mov	 r8, rdi
  000f1	48 8b d0	 mov	 rdx, rax
  000f4	49 8b cc	 mov	 rcx, r12
  000f7	e8 00 00 00 00	 call	 PyDict_SetItem
  000fc	85 c0		 test	 eax, eax
  000fe	78 4c		 js	 SHORT $LN20@dictbytype

; 454  :             }
; 455  :             Py_DECREF(item);

  00100	48 8b cf	 mov	 rcx, rdi
  00103	e8 00 00 00 00	 call	 _Py_DecRef

; 456  :             Py_DECREF(tuple);

  00108	48 8b cb	 mov	 rcx, rbx
  0010b	e8 00 00 00 00	 call	 _Py_DecRef
  00110	48 8b 7c 24 60	 mov	 rdi, QWORD PTR src$[rsp]
$LN11@dictbytype:

; 429  : 
; 430  :     for (key_i = 0; key_i < num_keys; key_i++) {

  00115	48 ff c6	 inc	 rsi
  00118	49 3b f6	 cmp	 rsi, r14
  0011b	0f 8c 6f ff ff
	ff		 jl	 $LL12@dictbytype
$LN10@dictbytype:

; 457  :         }
; 458  :     }
; 459  :     Py_DECREF(sorted_keys);

  00121	48 8b cd	 mov	 rcx, rbp
  00124	e8 00 00 00 00	 call	 _Py_DecRef

; 460  :     return dest;

  00129	49 8b c4	 mov	 rax, r12
$LN25@dictbytype:
  0012c	48 8b 74 24 28	 mov	 rsi, QWORD PTR [rsp+40]
  00131	48 8b 5c 24 70	 mov	 rbx, QWORD PTR [rsp+112]
  00136	4c 8b 74 24 20	 mov	 r14, QWORD PTR [rsp+32]
  0013b	48 8b 6c 24 30	 mov	 rbp, QWORD PTR [rsp+48]

; 461  : }

  00140	48 83 c4 38	 add	 rsp, 56			; 00000038H
  00144	41 5f		 pop	 r15
  00146	41 5d		 pop	 r13
  00148	41 5c		 pop	 r12
  0014a	5f		 pop	 rdi
  0014b	c3		 ret	 0
$LN20@dictbytype:

; 449  :                 Py_DECREF(sorted_keys);

  0014c	48 8b cd	 mov	 rcx, rbp
  0014f	e8 00 00 00 00	 call	 _Py_DecRef

; 450  :                 Py_DECREF(item);

  00154	48 8b cf	 mov	 rcx, rdi
  00157	e8 00 00 00 00	 call	 _Py_DecRef

; 451  :                 Py_DECREF(dest);

  0015c	49 8b cc	 mov	 rcx, r12
  0015f	e8 00 00 00 00	 call	 _Py_DecRef

; 452  :                 Py_XDECREF(tuple);

  00164	48 85 db	 test	 rbx, rbx
  00167	74 08		 je	 SHORT $LN3@dictbytype
  00169	48 8b cb	 mov	 rcx, rbx
  0016c	e8 00 00 00 00	 call	 _Py_DecRef
$LN3@dictbytype:

; 453  :                 return NULL;

  00171	33 c0		 xor	 eax, eax
  00173	eb b7		 jmp	 SHORT $LN25@dictbytype
$LN19@dictbytype:

; 442  :                 Py_DECREF(sorted_keys);

  00175	48 8b cd	 mov	 rcx, rbp
  00178	e8 00 00 00 00	 call	 _Py_DecRef

; 443  :                 Py_DECREF(dest);

  0017d	49 8b cc	 mov	 rcx, r12
  00180	e8 00 00 00 00	 call	 _Py_DecRef

; 444  :                 return NULL;

  00185	33 c0		 xor	 eax, eax
  00187	eb a3		 jmp	 SHORT $LN25@dictbytype
dictbytype ENDP
; Function compile flags: /Ogtpy
_TEXT	ENDS
;	COMDAT compiler_unit_check
_TEXT	SEGMENT
u$ = 8
compiler_unit_check PROC				; COMDAT

; 466  :     basicblock *block;
; 467  :     for (block = u->u_blocks; block != NULL; block = block->b_list) {

  00000	48 8b 41 58	 mov	 rax, QWORD PTR [rcx+88]
  00004	48 85 c0	 test	 rax, rax
  00007	74 0f		 je	 SHORT $LN3@compiler_u
  00009	0f 1f 80 00 00
	00 00		 npad	 7
$LL5@compiler_u:
  00010	48 8b 00	 mov	 rax, QWORD PTR [rax]
  00013	48 85 c0	 test	 rax, rax
  00016	75 f8		 jne	 SHORT $LL5@compiler_u
$LN3@compiler_u:

; 468  :         assert((void *)block != (void *)0xcbcbcbcb);
; 469  :         assert((void *)block != (void *)0xfbfbfbfb);
; 470  :         assert((void *)block != (void *)0xdbdbdbdb);
; 471  :         if (block->b_instr != NULL) {
; 472  :             assert(block->b_ialloc > 0);
; 473  :             assert(block->b_iused > 0);
; 474  :             assert(block->b_ialloc >= block->b_iused);
; 475  :         }
; 476  :         else {
; 477  :             assert (block->b_iused == 0);
; 478  :             assert (block->b_ialloc == 0);
; 479  :         }
; 480  :     }
; 481  : }

  00018	f3 c3		 fatret	 0
compiler_unit_check ENDP
_TEXT	ENDS
PUBLIC	??_C@_0BD@MPGDIPMH@compiler_unit_free?$AA@	; `string'
PUBLIC	??_C@_0BE@DFKENOMI@?4?4?2Python?2compile?4c?$AA@ ; `string'
;	COMDAT pdata
; File c:\src\pyparallel\include\object.h
pdata	SEGMENT
$pdata$compiler_unit_free DD imagerel compiler_unit_free
	DD	imagerel compiler_unit_free+1518
	DD	imagerel $unwind$compiler_unit_free
pdata	ENDS
;	COMDAT xdata
xdata	SEGMENT
$unwind$compiler_unit_free DD 060f01H
	DD	09640fH
	DD	08340fH
	DD	0700b520fH
xdata	ENDS
;	COMDAT ??_C@_0BD@MPGDIPMH@compiler_unit_free?$AA@
CONST	SEGMENT
??_C@_0BD@MPGDIPMH@compiler_unit_free?$AA@ DB 'compiler_unit_free', 00H ; `string'
CONST	ENDS
;	COMDAT ??_C@_0BE@DFKENOMI@?4?4?2Python?2compile?4c?$AA@
CONST	SEGMENT
??_C@_0BE@DFKENOMI@?4?4?2Python?2compile?4c?$AA@ DB '..\Python\compile.c', 00H ; `string'
; Function compile flags: /Ogtpy
; File c:\src\pyparallel\python\compile.c
CONST	ENDS
;	COMDAT compiler_unit_free
_TEXT	SEGMENT
u$ = 64
compiler_unit_free PROC					; COMDAT

; 485  : {

  00000	48 89 5c 24 08	 mov	 QWORD PTR [rsp+8], rbx
  00005	48 89 74 24 10	 mov	 QWORD PTR [rsp+16], rsi
  0000a	57		 push	 rdi
  0000b	48 83 ec 30	 sub	 rsp, 48			; 00000030H

; 486  :     basicblock *b, *next;
; 487  : 
; 488  :     compiler_unit_check(u);
; 489  :     b = u->u_blocks;

  0000f	48 8b 79 58	 mov	 rdi, QWORD PTR [rcx+88]
  00013	48 8b f1	 mov	 rsi, rcx

; 490  :     while (b != NULL) {

  00016	48 85 ff	 test	 rdi, rdi
  00019	74 26		 je	 SHORT $LN36@compiler_u@2
  0001b	0f 1f 44 00 00	 npad	 5
$LL39@compiler_u@2:

; 491  :         if (b->b_instr)

  00020	48 8b 4f 10	 mov	 rcx, QWORD PTR [rdi+16]
  00024	48 85 c9	 test	 rcx, rcx
  00027	74 05		 je	 SHORT $LN37@compiler_u@2

; 492  :             PyObject_Free((void *)b->b_instr);

  00029	e8 00 00 00 00	 call	 PyObject_Free
$LN37@compiler_u@2:

; 493  :         next = b->b_list;

  0002e	48 8b 1f	 mov	 rbx, QWORD PTR [rdi]

; 494  :         PyObject_Free((void *)b);

  00031	48 8b cf	 mov	 rcx, rdi
  00034	e8 00 00 00 00	 call	 PyObject_Free

; 495  :         b = next;

  00039	48 8b fb	 mov	 rdi, rbx
  0003c	48 85 db	 test	 rbx, rbx
  0003f	75 df		 jne	 SHORT $LL39@compiler_u@2
$LN36@compiler_u@2:

; 496  :     }
; 497  :     Py_CLEAR(u->u_ste);

  00041	4c 8b 0e	 mov	 r9, QWORD PTR [rsi]
  00044	33 ff		 xor	 edi, edi
  00046	4d 85 c9	 test	 r9, r9
  00049	0f 84 90 00 00
	00		 je	 $LN35@compiler_u@2
  0004f	48 8d 15 00 00
	00 00		 lea	 rdx, OFFSET FLAT:??_C@_0BE@DFKENOMI@?4?4?2Python?2compile?4c?$AA@
  00056	48 8d 0d 00 00
	00 00		 lea	 rcx, OFFSET FLAT:??_C@_0BD@MPGDIPMH@compiler_unit_free?$AA@
  0005d	41 b8 f1 01 00
	00		 mov	 r8d, 497		; 000001f1H
  00063	c7 44 24 20 10
	00 00 00	 mov	 DWORD PTR [rsp+32], 16
  0006b	e8 00 00 00 00	 call	 _PyParallel_Guard
  00070	85 c0		 test	 eax, eax
  00072	75 6b		 jne	 SHORT $LN35@compiler_u@2
  00074	48 8b 1e	 mov	 rbx, QWORD PTR [rsi]
  00077	48 89 3e	 mov	 QWORD PTR [rsi], rdi
  0007a	e8 00 00 00 00	 call	 _Py_PXCTX
  0007f	85 c0		 test	 eax, eax
  00081	75 5c		 jne	 SHORT $LN35@compiler_u@2
  00083	48 8b 43 20	 mov	 rax, QWORD PTR [rbx+32]
  00087	a8 20		 test	 al, 32			; 00000020H
  00089	75 4c		 jne	 SHORT $LN46@compiler_u@2
  0008b	84 c0		 test	 al, al
  0008d	78 48		 js	 SHORT $LN46@compiler_u@2
  0008f	a8 02		 test	 al, 2
  00091	75 4c		 jne	 SHORT $LN35@compiler_u@2
  00093	48 ff 4b 50	 dec	 QWORD PTR [rbx+80]
  00097	75 46		 jne	 SHORT $LN35@compiler_u@2
  00099	48 8d 15 00 00
	00 00		 lea	 rdx, OFFSET FLAT:??_C@_0CD@HDJFDCDP@c?3?2src?2pyparallel?2include?2object@
  000a0	48 8d 0d 00 00
	00 00		 lea	 rcx, OFFSET FLAT:??_C@_0L@DMHMLFIA@_Py_DecRef?$AA@
  000a7	4c 8b cb	 mov	 r9, rbx
  000aa	41 b8 a4 03 00
	00		 mov	 r8d, 932		; 000003a4H
  000b0	c7 44 24 20 10
	00 00 00	 mov	 DWORD PTR [rsp+32], 16
  000b8	e8 00 00 00 00	 call	 _PyParallel_Guard
  000bd	48 8b cb	 mov	 rcx, rbx
  000c0	85 c0		 test	 eax, eax
  000c2	74 07		 je	 SHORT $LN51@compiler_u@2
  000c4	e8 00 00 00 00	 call	 _Px_Dealloc
  000c9	eb 14		 jmp	 SHORT $LN35@compiler_u@2
$LN51@compiler_u@2:
  000cb	48 8b 43 58	 mov	 rax, QWORD PTR [rbx+88]
  000cf	ff 90 88 00 00
	00		 call	 QWORD PTR [rax+136]
  000d5	eb 08		 jmp	 SHORT $LN35@compiler_u@2
$LN46@compiler_u@2:
  000d7	48 8b cb	 mov	 rcx, rbx
  000da	e8 00 00 00 00	 call	 Px_DecRef
$LN35@compiler_u@2:

; 498  :     Py_CLEAR(u->u_name);

  000df	4c 8b 4e 08	 mov	 r9, QWORD PTR [rsi+8]
  000e3	4d 85 c9	 test	 r9, r9
  000e6	0f 84 92 00 00
	00		 je	 $LN31@compiler_u@2
  000ec	48 8d 15 00 00
	00 00		 lea	 rdx, OFFSET FLAT:??_C@_0BE@DFKENOMI@?4?4?2Python?2compile?4c?$AA@
  000f3	48 8d 0d 00 00
	00 00		 lea	 rcx, OFFSET FLAT:??_C@_0BD@MPGDIPMH@compiler_unit_free?$AA@
  000fa	41 b8 f2 01 00
	00		 mov	 r8d, 498		; 000001f2H
  00100	c7 44 24 20 10
	00 00 00	 mov	 DWORD PTR [rsp+32], 16
  00108	e8 00 00 00 00	 call	 _PyParallel_Guard
  0010d	85 c0		 test	 eax, eax
  0010f	75 6d		 jne	 SHORT $LN31@compiler_u@2
  00111	48 8b 5e 08	 mov	 rbx, QWORD PTR [rsi+8]
  00115	48 89 7e 08	 mov	 QWORD PTR [rsi+8], rdi
  00119	e8 00 00 00 00	 call	 _Py_PXCTX
  0011e	85 c0		 test	 eax, eax
  00120	75 5c		 jne	 SHORT $LN31@compiler_u@2
  00122	48 8b 43 20	 mov	 rax, QWORD PTR [rbx+32]
  00126	a8 20		 test	 al, 32			; 00000020H
  00128	75 4c		 jne	 SHORT $LN57@compiler_u@2
  0012a	84 c0		 test	 al, al
  0012c	78 48		 js	 SHORT $LN57@compiler_u@2
  0012e	a8 02		 test	 al, 2
  00130	75 4c		 jne	 SHORT $LN31@compiler_u@2
  00132	48 ff 4b 50	 dec	 QWORD PTR [rbx+80]
  00136	75 46		 jne	 SHORT $LN31@compiler_u@2
  00138	48 8d 15 00 00
	00 00		 lea	 rdx, OFFSET FLAT:??_C@_0CD@HDJFDCDP@c?3?2src?2pyparallel?2include?2object@
  0013f	48 8d 0d 00 00
	00 00		 lea	 rcx, OFFSET FLAT:??_C@_0L@DMHMLFIA@_Py_DecRef?$AA@
  00146	4c 8b cb	 mov	 r9, rbx
  00149	41 b8 a4 03 00
	00		 mov	 r8d, 932		; 000003a4H
  0014f	c7 44 24 20 10
	00 00 00	 mov	 DWORD PTR [rsp+32], 16
  00157	e8 00 00 00 00	 call	 _PyParallel_Guard
  0015c	48 8b cb	 mov	 rcx, rbx
  0015f	85 c0		 test	 eax, eax
  00161	74 07		 je	 SHORT $LN62@compiler_u@2
  00163	e8 00 00 00 00	 call	 _Px_Dealloc
  00168	eb 14		 jmp	 SHORT $LN31@compiler_u@2
$LN62@compiler_u@2:
  0016a	48 8b 43 58	 mov	 rax, QWORD PTR [rbx+88]
  0016e	ff 90 88 00 00
	00		 call	 QWORD PTR [rax+136]
  00174	eb 08		 jmp	 SHORT $LN31@compiler_u@2
$LN57@compiler_u@2:
  00176	48 8b cb	 mov	 rcx, rbx
  00179	e8 00 00 00 00	 call	 Px_DecRef
$LN31@compiler_u@2:

; 499  :     Py_CLEAR(u->u_qualname);

  0017e	4c 8b 4e 10	 mov	 r9, QWORD PTR [rsi+16]
  00182	4d 85 c9	 test	 r9, r9
  00185	0f 84 92 00 00
	00		 je	 $LN27@compiler_u@2
  0018b	48 8d 15 00 00
	00 00		 lea	 rdx, OFFSET FLAT:??_C@_0BE@DFKENOMI@?4?4?2Python?2compile?4c?$AA@
  00192	48 8d 0d 00 00
	00 00		 lea	 rcx, OFFSET FLAT:??_C@_0BD@MPGDIPMH@compiler_unit_free?$AA@
  00199	41 b8 f3 01 00
	00		 mov	 r8d, 499		; 000001f3H
  0019f	c7 44 24 20 10
	00 00 00	 mov	 DWORD PTR [rsp+32], 16
  001a7	e8 00 00 00 00	 call	 _PyParallel_Guard
  001ac	85 c0		 test	 eax, eax
  001ae	75 6d		 jne	 SHORT $LN27@compiler_u@2
  001b0	48 8b 5e 10	 mov	 rbx, QWORD PTR [rsi+16]
  001b4	48 89 7e 10	 mov	 QWORD PTR [rsi+16], rdi
  001b8	e8 00 00 00 00	 call	 _Py_PXCTX
  001bd	85 c0		 test	 eax, eax
  001bf	75 5c		 jne	 SHORT $LN27@compiler_u@2
  001c1	48 8b 43 20	 mov	 rax, QWORD PTR [rbx+32]
  001c5	a8 20		 test	 al, 32			; 00000020H
  001c7	75 4c		 jne	 SHORT $LN68@compiler_u@2
  001c9	84 c0		 test	 al, al
  001cb	78 48		 js	 SHORT $LN68@compiler_u@2
  001cd	a8 02		 test	 al, 2
  001cf	75 4c		 jne	 SHORT $LN27@compiler_u@2
  001d1	48 ff 4b 50	 dec	 QWORD PTR [rbx+80]
  001d5	75 46		 jne	 SHORT $LN27@compiler_u@2
  001d7	48 8d 15 00 00
	00 00		 lea	 rdx, OFFSET FLAT:??_C@_0CD@HDJFDCDP@c?3?2src?2pyparallel?2include?2object@
  001de	48 8d 0d 00 00
	00 00		 lea	 rcx, OFFSET FLAT:??_C@_0L@DMHMLFIA@_Py_DecRef?$AA@
  001e5	4c 8b cb	 mov	 r9, rbx
  001e8	41 b8 a4 03 00
	00		 mov	 r8d, 932		; 000003a4H
  001ee	c7 44 24 20 10
	00 00 00	 mov	 DWORD PTR [rsp+32], 16
  001f6	e8 00 00 00 00	 call	 _PyParallel_Guard
  001fb	48 8b cb	 mov	 rcx, rbx
  001fe	85 c0		 test	 eax, eax
  00200	74 07		 je	 SHORT $LN73@compiler_u@2
  00202	e8 00 00 00 00	 call	 _Px_Dealloc
  00207	eb 14		 jmp	 SHORT $LN27@compiler_u@2
$LN73@compiler_u@2:
  00209	48 8b 43 58	 mov	 rax, QWORD PTR [rbx+88]
  0020d	ff 90 88 00 00
	00		 call	 QWORD PTR [rax+136]
  00213	eb 08		 jmp	 SHORT $LN27@compiler_u@2
$LN68@compiler_u@2:
  00215	48 8b cb	 mov	 rcx, rbx
  00218	e8 00 00 00 00	 call	 Px_DecRef
$LN27@compiler_u@2:

; 500  :     Py_CLEAR(u->u_consts);

  0021d	4c 8b 4e 20	 mov	 r9, QWORD PTR [rsi+32]
  00221	4d 85 c9	 test	 r9, r9
  00224	0f 84 92 00 00
	00		 je	 $LN23@compiler_u@2
  0022a	48 8d 15 00 00
	00 00		 lea	 rdx, OFFSET FLAT:??_C@_0BE@DFKENOMI@?4?4?2Python?2compile?4c?$AA@
  00231	48 8d 0d 00 00
	00 00		 lea	 rcx, OFFSET FLAT:??_C@_0BD@MPGDIPMH@compiler_unit_free?$AA@
  00238	41 b8 f4 01 00
	00		 mov	 r8d, 500		; 000001f4H
  0023e	c7 44 24 20 10
	00 00 00	 mov	 DWORD PTR [rsp+32], 16
  00246	e8 00 00 00 00	 call	 _PyParallel_Guard
  0024b	85 c0		 test	 eax, eax
  0024d	75 6d		 jne	 SHORT $LN23@compiler_u@2
  0024f	48 8b 5e 20	 mov	 rbx, QWORD PTR [rsi+32]
  00253	48 89 7e 20	 mov	 QWORD PTR [rsi+32], rdi
  00257	e8 00 00 00 00	 call	 _Py_PXCTX
  0025c	85 c0		 test	 eax, eax
  0025e	75 5c		 jne	 SHORT $LN23@compiler_u@2
  00260	48 8b 43 20	 mov	 rax, QWORD PTR [rbx+32]
  00264	a8 20		 test	 al, 32			; 00000020H
  00266	75 4c		 jne	 SHORT $LN79@compiler_u@2
  00268	84 c0		 test	 al, al
  0026a	78 48		 js	 SHORT $LN79@compiler_u@2
  0026c	a8 02		 test	 al, 2
  0026e	75 4c		 jne	 SHORT $LN23@compiler_u@2
  00270	48 ff 4b 50	 dec	 QWORD PTR [rbx+80]
  00274	75 46		 jne	 SHORT $LN23@compiler_u@2
  00276	48 8d 15 00 00
	00 00		 lea	 rdx, OFFSET FLAT:??_C@_0CD@HDJFDCDP@c?3?2src?2pyparallel?2include?2object@
  0027d	48 8d 0d 00 00
	00 00		 lea	 rcx, OFFSET FLAT:??_C@_0L@DMHMLFIA@_Py_DecRef?$AA@
  00284	4c 8b cb	 mov	 r9, rbx
  00287	41 b8 a4 03 00
	00		 mov	 r8d, 932		; 000003a4H
  0028d	c7 44 24 20 10
	00 00 00	 mov	 DWORD PTR [rsp+32], 16
  00295	e8 00 00 00 00	 call	 _PyParallel_Guard
  0029a	48 8b cb	 mov	 rcx, rbx
  0029d	85 c0		 test	 eax, eax
  0029f	74 07		 je	 SHORT $LN84@compiler_u@2
  002a1	e8 00 00 00 00	 call	 _Px_Dealloc
  002a6	eb 14		 jmp	 SHORT $LN23@compiler_u@2
$LN84@compiler_u@2:
  002a8	48 8b 43 58	 mov	 rax, QWORD PTR [rbx+88]
  002ac	ff 90 88 00 00
	00		 call	 QWORD PTR [rax+136]
  002b2	eb 08		 jmp	 SHORT $LN23@compiler_u@2
$LN79@compiler_u@2:
  002b4	48 8b cb	 mov	 rcx, rbx
  002b7	e8 00 00 00 00	 call	 Px_DecRef
$LN23@compiler_u@2:

; 501  :     Py_CLEAR(u->u_names);

  002bc	4c 8b 4e 28	 mov	 r9, QWORD PTR [rsi+40]
  002c0	4d 85 c9	 test	 r9, r9
  002c3	0f 84 92 00 00
	00		 je	 $LN19@compiler_u@2
  002c9	48 8d 15 00 00
	00 00		 lea	 rdx, OFFSET FLAT:??_C@_0BE@DFKENOMI@?4?4?2Python?2compile?4c?$AA@
  002d0	48 8d 0d 00 00
	00 00		 lea	 rcx, OFFSET FLAT:??_C@_0BD@MPGDIPMH@compiler_unit_free?$AA@
  002d7	41 b8 f5 01 00
	00		 mov	 r8d, 501		; 000001f5H
  002dd	c7 44 24 20 10
	00 00 00	 mov	 DWORD PTR [rsp+32], 16
  002e5	e8 00 00 00 00	 call	 _PyParallel_Guard
  002ea	85 c0		 test	 eax, eax
  002ec	75 6d		 jne	 SHORT $LN19@compiler_u@2
  002ee	48 8b 5e 28	 mov	 rbx, QWORD PTR [rsi+40]
  002f2	48 89 7e 28	 mov	 QWORD PTR [rsi+40], rdi
  002f6	e8 00 00 00 00	 call	 _Py_PXCTX
  002fb	85 c0		 test	 eax, eax
  002fd	75 5c		 jne	 SHORT $LN19@compiler_u@2
  002ff	48 8b 43 20	 mov	 rax, QWORD PTR [rbx+32]
  00303	a8 20		 test	 al, 32			; 00000020H
  00305	75 4c		 jne	 SHORT $LN90@compiler_u@2
  00307	84 c0		 test	 al, al
  00309	78 48		 js	 SHORT $LN90@compiler_u@2
  0030b	a8 02		 test	 al, 2
  0030d	75 4c		 jne	 SHORT $LN19@compiler_u@2
  0030f	48 ff 4b 50	 dec	 QWORD PTR [rbx+80]
  00313	75 46		 jne	 SHORT $LN19@compiler_u@2
  00315	48 8d 15 00 00
	00 00		 lea	 rdx, OFFSET FLAT:??_C@_0CD@HDJFDCDP@c?3?2src?2pyparallel?2include?2object@
  0031c	48 8d 0d 00 00
	00 00		 lea	 rcx, OFFSET FLAT:??_C@_0L@DMHMLFIA@_Py_DecRef?$AA@
  00323	4c 8b cb	 mov	 r9, rbx
  00326	41 b8 a4 03 00
	00		 mov	 r8d, 932		; 000003a4H
  0032c	c7 44 24 20 10
	00 00 00	 mov	 DWORD PTR [rsp+32], 16
  00334	e8 00 00 00 00	 call	 _PyParallel_Guard
  00339	48 8b cb	 mov	 rcx, rbx
  0033c	85 c0		 test	 eax, eax
  0033e	74 07		 je	 SHORT $LN95@compiler_u@2
  00340	e8 00 00 00 00	 call	 _Px_Dealloc
  00345	eb 14		 jmp	 SHORT $LN19@compiler_u@2
$LN95@compiler_u@2:
  00347	48 8b 43 58	 mov	 rax, QWORD PTR [rbx+88]
  0034b	ff 90 88 00 00
	00		 call	 QWORD PTR [rax+136]
  00351	eb 08		 jmp	 SHORT $LN19@compiler_u@2
$LN90@compiler_u@2:
  00353	48 8b cb	 mov	 rcx, rbx
  00356	e8 00 00 00 00	 call	 Px_DecRef
$LN19@compiler_u@2:

; 502  :     Py_CLEAR(u->u_varnames);

  0035b	4c 8b 4e 30	 mov	 r9, QWORD PTR [rsi+48]
  0035f	4d 85 c9	 test	 r9, r9
  00362	0f 84 92 00 00
	00		 je	 $LN15@compiler_u@2
  00368	48 8d 15 00 00
	00 00		 lea	 rdx, OFFSET FLAT:??_C@_0BE@DFKENOMI@?4?4?2Python?2compile?4c?$AA@
  0036f	48 8d 0d 00 00
	00 00		 lea	 rcx, OFFSET FLAT:??_C@_0BD@MPGDIPMH@compiler_unit_free?$AA@
  00376	41 b8 f6 01 00
	00		 mov	 r8d, 502		; 000001f6H
  0037c	c7 44 24 20 10
	00 00 00	 mov	 DWORD PTR [rsp+32], 16
  00384	e8 00 00 00 00	 call	 _PyParallel_Guard
  00389	85 c0		 test	 eax, eax
  0038b	75 6d		 jne	 SHORT $LN15@compiler_u@2
  0038d	48 8b 5e 30	 mov	 rbx, QWORD PTR [rsi+48]
  00391	48 89 7e 30	 mov	 QWORD PTR [rsi+48], rdi
  00395	e8 00 00 00 00	 call	 _Py_PXCTX
  0039a	85 c0		 test	 eax, eax
  0039c	75 5c		 jne	 SHORT $LN15@compiler_u@2
  0039e	48 8b 43 20	 mov	 rax, QWORD PTR [rbx+32]
  003a2	a8 20		 test	 al, 32			; 00000020H
  003a4	75 4c		 jne	 SHORT $LN101@compiler_u@2
  003a6	84 c0		 test	 al, al
  003a8	78 48		 js	 SHORT $LN101@compiler_u@2
  003aa	a8 02		 test	 al, 2
  003ac	75 4c		 jne	 SHORT $LN15@compiler_u@2
  003ae	48 ff 4b 50	 dec	 QWORD PTR [rbx+80]
  003b2	75 46		 jne	 SHORT $LN15@compiler_u@2
  003b4	48 8d 15 00 00
	00 00		 lea	 rdx, OFFSET FLAT:??_C@_0CD@HDJFDCDP@c?3?2src?2pyparallel?2include?2object@
  003bb	48 8d 0d 00 00
	00 00		 lea	 rcx, OFFSET FLAT:??_C@_0L@DMHMLFIA@_Py_DecRef?$AA@
  003c2	4c 8b cb	 mov	 r9, rbx
  003c5	41 b8 a4 03 00
	00		 mov	 r8d, 932		; 000003a4H
  003cb	c7 44 24 20 10
	00 00 00	 mov	 DWORD PTR [rsp+32], 16
  003d3	e8 00 00 00 00	 call	 _PyParallel_Guard
  003d8	48 8b cb	 mov	 rcx, rbx
  003db	85 c0		 test	 eax, eax
  003dd	74 07		 je	 SHORT $LN106@compiler_u@2
  003df	e8 00 00 00 00	 call	 _Px_Dealloc
  003e4	eb 14		 jmp	 SHORT $LN15@compiler_u@2
$LN106@compiler_u@2:
  003e6	48 8b 43 58	 mov	 rax, QWORD PTR [rbx+88]
  003ea	ff 90 88 00 00
	00		 call	 QWORD PTR [rax+136]
  003f0	eb 08		 jmp	 SHORT $LN15@compiler_u@2
$LN101@compiler_u@2:
  003f2	48 8b cb	 mov	 rcx, rbx
  003f5	e8 00 00 00 00	 call	 Px_DecRef
$LN15@compiler_u@2:

; 503  :     Py_CLEAR(u->u_freevars);

  003fa	4c 8b 4e 40	 mov	 r9, QWORD PTR [rsi+64]
  003fe	4d 85 c9	 test	 r9, r9
  00401	0f 84 92 00 00
	00		 je	 $LN11@compiler_u@2
  00407	48 8d 15 00 00
	00 00		 lea	 rdx, OFFSET FLAT:??_C@_0BE@DFKENOMI@?4?4?2Python?2compile?4c?$AA@
  0040e	48 8d 0d 00 00
	00 00		 lea	 rcx, OFFSET FLAT:??_C@_0BD@MPGDIPMH@compiler_unit_free?$AA@
  00415	41 b8 f7 01 00
	00		 mov	 r8d, 503		; 000001f7H
  0041b	c7 44 24 20 10
	00 00 00	 mov	 DWORD PTR [rsp+32], 16
  00423	e8 00 00 00 00	 call	 _PyParallel_Guard
  00428	85 c0		 test	 eax, eax
  0042a	75 6d		 jne	 SHORT $LN11@compiler_u@2
  0042c	48 8b 5e 40	 mov	 rbx, QWORD PTR [rsi+64]
  00430	48 89 7e 40	 mov	 QWORD PTR [rsi+64], rdi
  00434	e8 00 00 00 00	 call	 _Py_PXCTX
  00439	85 c0		 test	 eax, eax
  0043b	75 5c		 jne	 SHORT $LN11@compiler_u@2
  0043d	48 8b 43 20	 mov	 rax, QWORD PTR [rbx+32]
  00441	a8 20		 test	 al, 32			; 00000020H
  00443	75 4c		 jne	 SHORT $LN112@compiler_u@2
  00445	84 c0		 test	 al, al
  00447	78 48		 js	 SHORT $LN112@compiler_u@2
  00449	a8 02		 test	 al, 2
  0044b	75 4c		 jne	 SHORT $LN11@compiler_u@2
  0044d	48 ff 4b 50	 dec	 QWORD PTR [rbx+80]
  00451	75 46		 jne	 SHORT $LN11@compiler_u@2
  00453	48 8d 15 00 00
	00 00		 lea	 rdx, OFFSET FLAT:??_C@_0CD@HDJFDCDP@c?3?2src?2pyparallel?2include?2object@
  0045a	48 8d 0d 00 00
	00 00		 lea	 rcx, OFFSET FLAT:??_C@_0L@DMHMLFIA@_Py_DecRef?$AA@
  00461	4c 8b cb	 mov	 r9, rbx
  00464	41 b8 a4 03 00
	00		 mov	 r8d, 932		; 000003a4H
  0046a	c7 44 24 20 10
	00 00 00	 mov	 DWORD PTR [rsp+32], 16
  00472	e8 00 00 00 00	 call	 _PyParallel_Guard
  00477	48 8b cb	 mov	 rcx, rbx
  0047a	85 c0		 test	 eax, eax
  0047c	74 07		 je	 SHORT $LN117@compiler_u@2
  0047e	e8 00 00 00 00	 call	 _Px_Dealloc
  00483	eb 14		 jmp	 SHORT $LN11@compiler_u@2
$LN117@compiler_u@2:
  00485	48 8b 43 58	 mov	 rax, QWORD PTR [rbx+88]
  00489	ff 90 88 00 00
	00		 call	 QWORD PTR [rax+136]
  0048f	eb 08		 jmp	 SHORT $LN11@compiler_u@2
$LN112@compiler_u@2:
  00491	48 8b cb	 mov	 rcx, rbx
  00494	e8 00 00 00 00	 call	 Px_DecRef
$LN11@compiler_u@2:

; 504  :     Py_CLEAR(u->u_cellvars);

  00499	4c 8b 4e 38	 mov	 r9, QWORD PTR [rsi+56]
  0049d	4d 85 c9	 test	 r9, r9
  004a0	0f 84 92 00 00
	00		 je	 $LN7@compiler_u@2
  004a6	48 8d 15 00 00
	00 00		 lea	 rdx, OFFSET FLAT:??_C@_0BE@DFKENOMI@?4?4?2Python?2compile?4c?$AA@
  004ad	48 8d 0d 00 00
	00 00		 lea	 rcx, OFFSET FLAT:??_C@_0BD@MPGDIPMH@compiler_unit_free?$AA@
  004b4	41 b8 f8 01 00
	00		 mov	 r8d, 504		; 000001f8H
  004ba	c7 44 24 20 10
	00 00 00	 mov	 DWORD PTR [rsp+32], 16
  004c2	e8 00 00 00 00	 call	 _PyParallel_Guard
  004c7	85 c0		 test	 eax, eax
  004c9	75 6d		 jne	 SHORT $LN7@compiler_u@2
  004cb	48 8b 5e 38	 mov	 rbx, QWORD PTR [rsi+56]
  004cf	48 89 7e 38	 mov	 QWORD PTR [rsi+56], rdi
  004d3	e8 00 00 00 00	 call	 _Py_PXCTX
  004d8	85 c0		 test	 eax, eax
  004da	75 5c		 jne	 SHORT $LN7@compiler_u@2
  004dc	48 8b 43 20	 mov	 rax, QWORD PTR [rbx+32]
  004e0	a8 20		 test	 al, 32			; 00000020H
  004e2	75 4c		 jne	 SHORT $LN123@compiler_u@2
  004e4	84 c0		 test	 al, al
  004e6	78 48		 js	 SHORT $LN123@compiler_u@2
  004e8	a8 02		 test	 al, 2
  004ea	75 4c		 jne	 SHORT $LN7@compiler_u@2
  004ec	48 ff 4b 50	 dec	 QWORD PTR [rbx+80]
  004f0	75 46		 jne	 SHORT $LN7@compiler_u@2
  004f2	48 8d 15 00 00
	00 00		 lea	 rdx, OFFSET FLAT:??_C@_0CD@HDJFDCDP@c?3?2src?2pyparallel?2include?2object@
  004f9	48 8d 0d 00 00
	00 00		 lea	 rcx, OFFSET FLAT:??_C@_0L@DMHMLFIA@_Py_DecRef?$AA@
  00500	4c 8b cb	 mov	 r9, rbx
  00503	41 b8 a4 03 00
	00		 mov	 r8d, 932		; 000003a4H
  00509	c7 44 24 20 10
	00 00 00	 mov	 DWORD PTR [rsp+32], 16
  00511	e8 00 00 00 00	 call	 _PyParallel_Guard
  00516	48 8b cb	 mov	 rcx, rbx
  00519	85 c0		 test	 eax, eax
  0051b	74 07		 je	 SHORT $LN128@compiler_u@2
  0051d	e8 00 00 00 00	 call	 _Px_Dealloc
  00522	eb 14		 jmp	 SHORT $LN7@compiler_u@2
$LN128@compiler_u@2:
  00524	48 8b 43 58	 mov	 rax, QWORD PTR [rbx+88]
  00528	ff 90 88 00 00
	00		 call	 QWORD PTR [rax+136]
  0052e	eb 08		 jmp	 SHORT $LN7@compiler_u@2
$LN123@compiler_u@2:
  00530	48 8b cb	 mov	 rcx, rbx
  00533	e8 00 00 00 00	 call	 Px_DecRef
$LN7@compiler_u@2:

; 505  :     Py_CLEAR(u->u_private);

  00538	4c 8b 4e 48	 mov	 r9, QWORD PTR [rsi+72]
  0053c	4d 85 c9	 test	 r9, r9
  0053f	0f 84 92 00 00
	00		 je	 $LN3@compiler_u@2
  00545	48 8d 15 00 00
	00 00		 lea	 rdx, OFFSET FLAT:??_C@_0BE@DFKENOMI@?4?4?2Python?2compile?4c?$AA@
  0054c	48 8d 0d 00 00
	00 00		 lea	 rcx, OFFSET FLAT:??_C@_0BD@MPGDIPMH@compiler_unit_free?$AA@
  00553	41 b8 f9 01 00
	00		 mov	 r8d, 505		; 000001f9H
  00559	c7 44 24 20 10
	00 00 00	 mov	 DWORD PTR [rsp+32], 16
  00561	e8 00 00 00 00	 call	 _PyParallel_Guard
  00566	85 c0		 test	 eax, eax
  00568	75 6d		 jne	 SHORT $LN3@compiler_u@2
  0056a	48 8b 5e 48	 mov	 rbx, QWORD PTR [rsi+72]
  0056e	48 89 7e 48	 mov	 QWORD PTR [rsi+72], rdi
  00572	e8 00 00 00 00	 call	 _Py_PXCTX
  00577	85 c0		 test	 eax, eax
  00579	75 5c		 jne	 SHORT $LN3@compiler_u@2
  0057b	48 8b 43 20	 mov	 rax, QWORD PTR [rbx+32]
  0057f	a8 20		 test	 al, 32			; 00000020H
  00581	75 4c		 jne	 SHORT $LN134@compiler_u@2
  00583	84 c0		 test	 al, al
  00585	78 48		 js	 SHORT $LN134@compiler_u@2
  00587	a8 02		 test	 al, 2
  00589	75 4c		 jne	 SHORT $LN3@compiler_u@2
  0058b	48 ff 4b 50	 dec	 QWORD PTR [rbx+80]
  0058f	75 46		 jne	 SHORT $LN3@compiler_u@2
  00591	48 8d 15 00 00
	00 00		 lea	 rdx, OFFSET FLAT:??_C@_0CD@HDJFDCDP@c?3?2src?2pyparallel?2include?2object@
  00598	48 8d 0d 00 00
	00 00		 lea	 rcx, OFFSET FLAT:??_C@_0L@DMHMLFIA@_Py_DecRef?$AA@
  0059f	4c 8b cb	 mov	 r9, rbx
  005a2	41 b8 a4 03 00
	00		 mov	 r8d, 932		; 000003a4H
  005a8	c7 44 24 20 10
	00 00 00	 mov	 DWORD PTR [rsp+32], 16
  005b0	e8 00 00 00 00	 call	 _PyParallel_Guard
  005b5	48 8b cb	 mov	 rcx, rbx
  005b8	85 c0		 test	 eax, eax
  005ba	74 07		 je	 SHORT $LN139@compiler_u@2
  005bc	e8 00 00 00 00	 call	 _Px_Dealloc
  005c1	eb 14		 jmp	 SHORT $LN3@compiler_u@2
$LN139@compiler_u@2:
  005c3	48 8b 43 58	 mov	 rax, QWORD PTR [rbx+88]
  005c7	ff 90 88 00 00
	00		 call	 QWORD PTR [rax+136]
  005cd	eb 08		 jmp	 SHORT $LN3@compiler_u@2
$LN134@compiler_u@2:
  005cf	48 8b cb	 mov	 rcx, rbx
  005d2	e8 00 00 00 00	 call	 Px_DecRef
$LN3@compiler_u@2:

; 506  :     PyObject_Free(u);

  005d7	48 8b ce	 mov	 rcx, rsi

; 507  : }

  005da	48 8b 5c 24 40	 mov	 rbx, QWORD PTR [rsp+64]
  005df	48 8b 74 24 48	 mov	 rsi, QWORD PTR [rsp+72]
  005e4	48 83 c4 30	 add	 rsp, 48			; 00000030H
  005e8	5f		 pop	 rdi
  005e9	e9 00 00 00 00	 jmp	 PyObject_Free
compiler_unit_free ENDP
_TEXT	ENDS
PUBLIC	??_C@_0BG@CJOLMGIJ@compiler_exit_scope?$CI?$CJ?$AA@ ; `string'
PUBLIC	??_C@_0BI@JJFPLBCE@compile?4c?5compiler?5unit?$AA@ ; `string'
EXTRN	Py_FatalError:PROC
EXTRN	PySequence_DelItem:PROC
EXTRN	PyCapsule_GetPointer:PROC
;	COMDAT pdata
pdata	SEGMENT
$pdata$compiler_exit_scope DD imagerel compiler_exit_scope
	DD	imagerel compiler_exit_scope+32
	DD	imagerel $unwind$compiler_exit_scope
pdata	ENDS
;	COMDAT pdata
pdata	SEGMENT
$pdata$0$compiler_exit_scope DD imagerel compiler_exit_scope+32
	DD	imagerel compiler_exit_scope+85
	DD	imagerel $chain$0$compiler_exit_scope
pdata	ENDS
;	COMDAT pdata
pdata	SEGMENT
$pdata$1$compiler_exit_scope DD imagerel compiler_exit_scope+85
	DD	imagerel compiler_exit_scope+116
	DD	imagerel $chain$1$compiler_exit_scope
pdata	ENDS
;	COMDAT xdata
xdata	SEGMENT
$chain$1$compiler_exit_scope DD 021H
	DD	imagerel compiler_exit_scope
	DD	imagerel compiler_exit_scope+32
	DD	imagerel $unwind$compiler_exit_scope
xdata	ENDS
;	COMDAT xdata
xdata	SEGMENT
$chain$0$compiler_exit_scope DD 020521H
	DD	063405H
	DD	imagerel compiler_exit_scope
	DD	imagerel compiler_exit_scope+32
	DD	imagerel $unwind$compiler_exit_scope
xdata	ENDS
;	COMDAT xdata
xdata	SEGMENT
$unwind$compiler_exit_scope DD 020601H
	DD	070023206H
xdata	ENDS
;	COMDAT ??_C@_0BG@CJOLMGIJ@compiler_exit_scope?$CI?$CJ?$AA@
CONST	SEGMENT
??_C@_0BG@CJOLMGIJ@compiler_exit_scope?$CI?$CJ?$AA@ DB 'compiler_exit_sco'
	DB	'pe()', 00H					; `string'
CONST	ENDS
;	COMDAT ??_C@_0BI@JJFPLBCE@compile?4c?5compiler?5unit?$AA@
CONST	SEGMENT
??_C@_0BI@JJFPLBCE@compile?4c?5compiler?5unit?$AA@ DB 'compile.c compiler'
	DB	' unit', 00H					; `string'
; Function compile flags: /Ogtpy
CONST	ENDS
;	COMDAT compiler_exit_scope
_TEXT	SEGMENT
c$ = 48
compiler_exit_scope PROC				; COMDAT

; 588  : {

  00000	40 57		 push	 rdi
  00002	48 83 ec 20	 sub	 rsp, 32			; 00000020H

; 589  :     int n;
; 590  :     PyObject *capsule;
; 591  : 
; 592  :     c->c_nestlevel--;

  00006	ff 49 30	 dec	 DWORD PTR [rcx+48]
  00009	48 8b f9	 mov	 rdi, rcx

; 593  :     compiler_unit_free(c->u);

  0000c	48 8b 49 38	 mov	 rcx, QWORD PTR [rcx+56]
  00010	e8 00 00 00 00	 call	 compiler_unit_free

; 594  :     /* Restore c->u to the parent unit. */
; 595  :     n = PyList_GET_SIZE(c->c_stack) - 1;

  00015	48 8b 4f 40	 mov	 rcx, QWORD PTR [rdi+64]
  00019	8b 41 60	 mov	 eax, DWORD PTR [rcx+96]
  0001c	ff c8		 dec	 eax

; 596  :     if (n >= 0) {

  0001e	78 46		 js	 SHORT $LN3@compiler_e

; 597  :         capsule = PyList_GET_ITEM(c->c_stack, n);

  00020	48 89 5c 24 30	 mov	 QWORD PTR [rsp+48], rbx
  00025	48 63 d8	 movsxd	 rbx, eax
  00028	48 8b 41 70	 mov	 rax, QWORD PTR [rcx+112]

; 598  :         c->u = (struct compiler_unit *)PyCapsule_GetPointer(capsule, COMPILER_CAPSULE_NAME_COMPILER_UNIT);

  0002c	48 8b 0c d8	 mov	 rcx, QWORD PTR [rax+rbx*8]
  00030	48 8d 15 00 00
	00 00		 lea	 rdx, OFFSET FLAT:??_C@_0BI@JJFPLBCE@compile?4c?5compiler?5unit?$AA@
  00037	e8 00 00 00 00	 call	 PyCapsule_GetPointer

; 599  :         assert(c->u);
; 600  :         /* we are deleting from a list so this really shouldn't fail */
; 601  :         if (PySequence_DelItem(c->c_stack, n) < 0)

  0003c	48 8b 4f 40	 mov	 rcx, QWORD PTR [rdi+64]
  00040	48 8b d3	 mov	 rdx, rbx
  00043	48 89 47 38	 mov	 QWORD PTR [rdi+56], rax
  00047	e8 00 00 00 00	 call	 PySequence_DelItem
  0004c	48 8b 5c 24 30	 mov	 rbx, QWORD PTR [rsp+48]
  00051	85 c0		 test	 eax, eax
  00053	79 19		 jns	 SHORT $LN1@compiler_e

; 602  :             Py_FatalError("compiler_exit_scope()");

  00055	48 8d 0d 00 00
	00 00		 lea	 rcx, OFFSET FLAT:??_C@_0BG@CJOLMGIJ@compiler_exit_scope?$CI?$CJ?$AA@

; 607  : 
; 608  : }

  0005c	48 83 c4 20	 add	 rsp, 32			; 00000020H
  00060	5f		 pop	 rdi
  00061	e9 00 00 00 00	 jmp	 Py_FatalError
$LN3@compiler_e:

; 603  :         compiler_unit_check(c->u);
; 604  :     }
; 605  :     else
; 606  :         c->u = NULL;

  00066	48 c7 47 38 00
	00 00 00	 mov	 QWORD PTR [rdi+56], 0
$LN1@compiler_e:

; 607  : 
; 608  : }

  0006e	48 83 c4 20	 add	 rsp, 32			; 00000020H
  00072	5f		 pop	 rdi
  00073	c3		 ret	 0
compiler_exit_scope ENDP
_TEXT	ENDS
EXTRN	PyUnicode_Join:PROC
EXTRN	_PyUnicode_FromId:PROC
EXTRN	PyList_Append:PROC
EXTRN	_tls_index:DWORD
;	COMDAT pdata
; File c:\src\pyparallel\include\object.h
pdata	SEGMENT
$pdata$compiler_scope_qualname DD imagerel compiler_scope_qualname
	DD	imagerel compiler_scope_qualname+569
	DD	imagerel $unwind$compiler_scope_qualname
pdata	ENDS
;	COMDAT xdata
xdata	SEGMENT
$unwind$compiler_scope_qualname DD 0c9f01H
	DD	0de49fH
	DD	0cd491H
	DD	0b6488H
	DD	0a5483H
	DD	0c0055209H
	DD	030027003H
; Function compile flags: /Ogtpy
; File c:\src\pyparallel\python\compile.c
xdata	ENDS
;	COMDAT compiler_scope_qualname
_TEXT	SEGMENT
c$ = 80
compiler_scope_qualname PROC				; COMDAT

; 612  : {

  00000	40 53		 push	 rbx
  00002	57		 push	 rdi
  00003	41 54		 push	 r12
  00005	48 83 ec 30	 sub	 rsp, 48			; 00000030H

; 613  :     Py_ssize_t stack_size, i;
; 614  :     _Py_static_string(dot, ".");
; 615  :     _Py_static_string(locals, "<locals>");
; 616  :     struct compiler_unit *u;
; 617  :     PyObject *capsule, *name, *seq, *dot_str, *locals_str;
; 618  : 
; 619  :     u = c->u;

  00009	48 8b 79 38	 mov	 rdi, QWORD PTR [rcx+56]
  0000d	4c 8b e1	 mov	 r12, rcx

; 620  :     if (u->u_qualname != NULL) {

  00010	48 8b 5f 10	 mov	 rbx, QWORD PTR [rdi+16]
  00014	48 85 db	 test	 rbx, rbx
  00017	74 48		 je	 SHORT $LN20@compiler_s

; 621  :         Py_INCREF(u->u_qualname);

  00019	e8 00 00 00 00	 call	 _Py_PXCTX
  0001e	85 c0		 test	 eax, eax
  00020	75 32		 jne	 SHORT $LN24@compiler_s
  00022	48 8d 15 00 00
	00 00		 lea	 rdx, OFFSET FLAT:??_C@_0CD@HDJFDCDP@c?3?2src?2pyparallel?2include?2object@
  00029	48 8d 0d 00 00
	00 00		 lea	 rcx, OFFSET FLAT:??_C@_0L@DHGMCEID@_Py_IncRef?$AA@
  00030	4c 8b cb	 mov	 r9, rbx
  00033	41 b8 89 03 00
	00		 mov	 r8d, 905		; 00000389H
  00039	c7 44 24 20 02
	00 00 00	 mov	 DWORD PTR [rsp+32], 2
  00041	e8 00 00 00 00	 call	 _PyParallel_Guard
  00046	85 c0		 test	 eax, eax
  00048	75 06		 jne	 SHORT $LN23@compiler_s
  0004a	f6 43 20 20	 test	 BYTE PTR [rbx+32], 32	; 00000020H
  0004e	74 04		 je	 SHORT $LN24@compiler_s
$LN23@compiler_s:
  00050	48 ff 43 50	 inc	 QWORD PTR [rbx+80]
$LN24@compiler_s:

; 622  :         return u->u_qualname;

  00054	48 8b 47 10	 mov	 rax, QWORD PTR [rdi+16]

; 661  : }

  00058	48 83 c4 30	 add	 rsp, 48			; 00000030H
  0005c	41 5c		 pop	 r12
  0005e	5f		 pop	 rdi
  0005f	5b		 pop	 rbx
  00060	c3		 ret	 0
$LN20@compiler_s:

; 623  :     }
; 624  : 
; 625  :     seq = PyList_New(0);

  00061	33 c9		 xor	 ecx, ecx
  00063	e8 00 00 00 00	 call	 PyList_New
  00068	48 8b d8	 mov	 rbx, rax

; 626  :     if (seq == NULL)

  0006b	48 85 c0	 test	 rax, rax
  0006e	75 09		 jne	 SHORT $LN19@compiler_s

; 661  : }

  00070	48 83 c4 30	 add	 rsp, 48			; 00000030H
  00074	41 5c		 pop	 r12
  00076	5f		 pop	 rdi
  00077	5b		 pop	 rbx
  00078	c3		 ret	 0
$LN19@compiler_s:

; 627  :         return NULL;
; 628  : 
; 629  :     stack_size = PyList_GET_SIZE(c->c_stack);

  00079	49 8b 44 24 40	 mov	 rax, QWORD PTR [r12+64]
  0007e	48 89 6c 24 50	 mov	 QWORD PTR [rsp+80], rbp
  00083	48 89 74 24 58	 mov	 QWORD PTR [rsp+88], rsi
  00088	48 8b 68 60	 mov	 rbp, QWORD PTR [rax+96]
  0008c	4c 89 6c 24 60	 mov	 QWORD PTR [rsp+96], r13

; 630  :     for (i = 0; i < stack_size; i++) {

  00091	44 8b 2d 00 00
	00 00		 mov	 r13d, DWORD PTR _tls_index
  00098	33 ff		 xor	 edi, edi
  0009a	4c 89 74 24 68	 mov	 QWORD PTR [rsp+104], r14
  0009f	48 85 ed	 test	 rbp, rbp
  000a2	0f 8e 7d 00 00
	00		 jle	 $LN16@compiler_s
  000a8	41 be 00 00 00
	00		 mov	 r14d, OFFSET FLAT:?locals@?1??compiler_scope_qualname@@9@9
  000ae	66 90		 npad	 2
$LL18@compiler_s:

; 631  :         capsule = PyList_GET_ITEM(c->c_stack, i);

  000b0	49 8b 44 24 40	 mov	 rax, QWORD PTR [r12+64]

; 632  :         u = (struct compiler_unit *)PyCapsule_GetPointer(capsule, COMPILER_CAPSULE_NAME_COMPILER_UNIT);

  000b5	48 8d 15 00 00
	00 00		 lea	 rdx, OFFSET FLAT:??_C@_0BI@JJFPLBCE@compile?4c?5compiler?5unit?$AA@
  000bc	48 8b 48 70	 mov	 rcx, QWORD PTR [rax+112]
  000c0	48 8b 0c f9	 mov	 rcx, QWORD PTR [rcx+rdi*8]
  000c4	e8 00 00 00 00	 call	 PyCapsule_GetPointer
  000c9	48 8b f0	 mov	 rsi, rax

; 633  :         assert(u);
; 634  :         if (u->u_scope_type == COMPILER_SCOPE_MODULE)

  000cc	83 78 18 00	 cmp	 DWORD PTR [rax+24], 0
  000d0	74 4b		 je	 SHORT $LN17@compiler_s

; 635  :             continue;
; 636  :         if (PyList_Append(seq, u->u_name))

  000d2	48 8b 50 08	 mov	 rdx, QWORD PTR [rax+8]
  000d6	48 8b cb	 mov	 rcx, rbx
  000d9	e8 00 00 00 00	 call	 PyList_Append
  000de	85 c0		 test	 eax, eax
  000e0	0f 85 cf 00 00
	00		 jne	 $_error$22397

; 637  :             goto _error;
; 638  :         if (u->u_scope_type == COMPILER_SCOPE_FUNCTION) {

  000e6	83 7e 18 02	 cmp	 DWORD PTR [rsi+24], 2
  000ea	75 31		 jne	 SHORT $LN17@compiler_s

; 639  :             locals_str = _PyUnicode_FromId(&locals);

  000ec	65 48 8b 04 25
	58 00 00 00	 mov	 rax, QWORD PTR gs:88
  000f5	41 8b ce	 mov	 ecx, r14d
  000f8	4a 03 0c e8	 add	 rcx, QWORD PTR [rax+r13*8]
  000fc	e8 00 00 00 00	 call	 _PyUnicode_FromId

; 640  :             if (locals_str == NULL)

  00101	48 85 c0	 test	 rax, rax
  00104	0f 84 ab 00 00
	00		 je	 $_error$22397

; 641  :                 goto _error;
; 642  :             if (PyList_Append(seq, locals_str))

  0010a	48 8b d0	 mov	 rdx, rax
  0010d	48 8b cb	 mov	 rcx, rbx
  00110	e8 00 00 00 00	 call	 PyList_Append
  00115	85 c0		 test	 eax, eax
  00117	0f 85 98 00 00
	00		 jne	 $_error$22397
$LN17@compiler_s:

; 630  :     for (i = 0; i < stack_size; i++) {

  0011d	48 ff c7	 inc	 rdi
  00120	48 3b fd	 cmp	 rdi, rbp
  00123	7c 8b		 jl	 SHORT $LL18@compiler_s
$LN16@compiler_s:

; 643  :                 goto _error;
; 644  :         }
; 645  :     }
; 646  :     u = c->u;

  00125	49 8b 74 24 38	 mov	 rsi, QWORD PTR [r12+56]

; 647  :     if (PyList_Append(seq, u->u_name))

  0012a	48 8b cb	 mov	 rcx, rbx
  0012d	48 8b 56 08	 mov	 rdx, QWORD PTR [rsi+8]
  00131	e8 00 00 00 00	 call	 PyList_Append
  00136	85 c0		 test	 eax, eax
  00138	75 7b		 jne	 SHORT $_error$22397

; 648  :         goto _error;
; 649  :     dot_str = _PyUnicode_FromId(&dot);

  0013a	65 48 8b 04 25
	58 00 00 00	 mov	 rax, QWORD PTR gs:88
  00143	b9 00 00 00 00	 mov	 ecx, OFFSET FLAT:?dot@?1??compiler_scope_qualname@@9@9
  00148	4a 03 0c e8	 add	 rcx, QWORD PTR [rax+r13*8]
  0014c	e8 00 00 00 00	 call	 _PyUnicode_FromId

; 650  :     if (dot_str == NULL)

  00151	48 85 c0	 test	 rax, rax
  00154	74 5f		 je	 SHORT $_error$22397

; 651  :         goto _error;
; 652  :     name = PyUnicode_Join(dot_str, seq);

  00156	48 8b d3	 mov	 rdx, rbx
  00159	48 8b c8	 mov	 rcx, rax
  0015c	e8 00 00 00 00	 call	 PyUnicode_Join

; 653  :     Py_DECREF(seq);

  00161	48 8b cb	 mov	 rcx, rbx
  00164	48 8b f8	 mov	 rdi, rax
  00167	e8 00 00 00 00	 call	 _Py_DecRef

; 654  :     u->u_qualname = name;

  0016c	48 89 7e 10	 mov	 QWORD PTR [rsi+16], rdi

; 655  :     Py_XINCREF(name);

  00170	48 85 ff	 test	 rdi, rdi
  00173	74 3b		 je	 SHORT $LN7@compiler_s
  00175	e8 00 00 00 00	 call	 _Py_PXCTX
  0017a	85 c0		 test	 eax, eax
  0017c	75 32		 jne	 SHORT $LN7@compiler_s
  0017e	48 8d 15 00 00
	00 00		 lea	 rdx, OFFSET FLAT:??_C@_0CD@HDJFDCDP@c?3?2src?2pyparallel?2include?2object@
  00185	48 8d 0d 00 00
	00 00		 lea	 rcx, OFFSET FLAT:??_C@_0L@DHGMCEID@_Py_IncRef?$AA@
  0018c	4c 8b cf	 mov	 r9, rdi
  0018f	41 b8 89 03 00
	00		 mov	 r8d, 905		; 00000389H
  00195	c7 44 24 20 02
	00 00 00	 mov	 DWORD PTR [rsp+32], 2
  0019d	e8 00 00 00 00	 call	 _PyParallel_Guard
  001a2	85 c0		 test	 eax, eax
  001a4	75 06		 jne	 SHORT $LN27@compiler_s
  001a6	f6 47 20 20	 test	 BYTE PTR [rdi+32], 32	; 00000020H
  001aa	74 04		 je	 SHORT $LN7@compiler_s
$LN27@compiler_s:
  001ac	48 ff 47 50	 inc	 QWORD PTR [rdi+80]
$LN7@compiler_s:

; 656  :     return name;

  001b0	48 8b c7	 mov	 rax, rdi
  001b3	eb 67		 jmp	 SHORT $LN50@compiler_s
$_error$22397:

; 657  : 
; 658  : _error:
; 659  :     Py_XDECREF(seq);

  001b5	e8 00 00 00 00	 call	 _Py_PXCTX
  001ba	85 c0		 test	 eax, eax
  001bc	75 5c		 jne	 SHORT $LN3@compiler_s
  001be	48 8b 43 20	 mov	 rax, QWORD PTR [rbx+32]
  001c2	a8 20		 test	 al, 32			; 00000020H
  001c4	75 4c		 jne	 SHORT $LN35@compiler_s
  001c6	84 c0		 test	 al, al
  001c8	78 48		 js	 SHORT $LN35@compiler_s
  001ca	a8 02		 test	 al, 2
  001cc	75 4c		 jne	 SHORT $LN3@compiler_s
  001ce	48 ff 4b 50	 dec	 QWORD PTR [rbx+80]
  001d2	75 46		 jne	 SHORT $LN3@compiler_s
  001d4	48 8d 15 00 00
	00 00		 lea	 rdx, OFFSET FLAT:??_C@_0CD@HDJFDCDP@c?3?2src?2pyparallel?2include?2object@
  001db	48 8d 0d 00 00
	00 00		 lea	 rcx, OFFSET FLAT:??_C@_0L@DMHMLFIA@_Py_DecRef?$AA@
  001e2	4c 8b cb	 mov	 r9, rbx
  001e5	41 b8 a4 03 00
	00		 mov	 r8d, 932		; 000003a4H
  001eb	c7 44 24 20 10
	00 00 00	 mov	 DWORD PTR [rsp+32], 16
  001f3	e8 00 00 00 00	 call	 _PyParallel_Guard
  001f8	48 8b cb	 mov	 rcx, rbx
  001fb	85 c0		 test	 eax, eax
  001fd	74 07		 je	 SHORT $LN40@compiler_s
  001ff	e8 00 00 00 00	 call	 _Px_Dealloc
  00204	eb 14		 jmp	 SHORT $LN3@compiler_s
$LN40@compiler_s:
  00206	48 8b 43 58	 mov	 rax, QWORD PTR [rbx+88]
  0020a	ff 90 88 00 00
	00		 call	 QWORD PTR [rax+136]
  00210	eb 08		 jmp	 SHORT $LN3@compiler_s
$LN35@compiler_s:
  00212	48 8b cb	 mov	 rcx, rbx
  00215	e8 00 00 00 00	 call	 Px_DecRef
$LN3@compiler_s:

; 660  :     return NULL;

  0021a	33 c0		 xor	 eax, eax
$LN50@compiler_s:
  0021c	4c 8b 6c 24 60	 mov	 r13, QWORD PTR [rsp+96]
  00221	48 8b 74 24 58	 mov	 rsi, QWORD PTR [rsp+88]
  00226	48 8b 6c 24 50	 mov	 rbp, QWORD PTR [rsp+80]
  0022b	4c 8b 74 24 68	 mov	 r14, QWORD PTR [rsp+104]

; 661  : }

  00230	48 83 c4 30	 add	 rsp, 48			; 00000030H
  00234	41 5c		 pop	 r12
  00236	5f		 pop	 rdi
  00237	5b		 pop	 rbx
  00238	c3		 ret	 0
compiler_scope_qualname ENDP
_TEXT	ENDS
EXTRN	PyErr_NoMemory:PROC
EXTRN	PyObject_Malloc:PROC
;	COMDAT pdata
pdata	SEGMENT
$pdata$compiler_new_block DD imagerel compiler_new_block
	DD	imagerel compiler_new_block+86
	DD	imagerel $unwind$compiler_new_block
pdata	ENDS
;	COMDAT xdata
xdata	SEGMENT
$unwind$compiler_new_block DD 020601H
	DD	030023206H
; Function compile flags: /Ogtpy
xdata	ENDS
;	COMDAT compiler_new_block
_TEXT	SEGMENT
c$ = 48
compiler_new_block PROC					; COMDAT

; 669  : {

  00000	40 53		 push	 rbx
  00002	48 83 ec 20	 sub	 rsp, 32			; 00000020H

; 670  :     basicblock *b;
; 671  :     struct compiler_unit *u;
; 672  : 
; 673  :     u = c->u;

  00006	48 8b 59 38	 mov	 rbx, QWORD PTR [rcx+56]

; 674  :     b = (basicblock *)PyObject_Malloc(sizeof(basicblock));

  0000a	b9 30 00 00 00	 mov	 ecx, 48			; 00000030H
  0000f	e8 00 00 00 00	 call	 PyObject_Malloc
  00014	4c 8b d8	 mov	 r11, rax

; 675  :     if (b == NULL) {

  00017	48 85 c0	 test	 rax, rax
  0001a	75 0d		 jne	 SHORT $LN1@compiler_n

; 676  :         PyErr_NoMemory();

  0001c	e8 00 00 00 00	 call	 PyErr_NoMemory

; 677  :         return NULL;

  00021	33 c0		 xor	 eax, eax

; 684  : }

  00023	48 83 c4 20	 add	 rsp, 32			; 00000020H
  00027	5b		 pop	 rbx
  00028	c3		 ret	 0
$LN1@compiler_n:

; 678  :     }
; 679  :     memset((void *)b, 0, sizeof(basicblock));

  00029	33 c0		 xor	 eax, eax
  0002b	49 89 03	 mov	 QWORD PTR [r11], rax
  0002e	49 89 43 08	 mov	 QWORD PTR [r11+8], rax
  00032	49 89 43 10	 mov	 QWORD PTR [r11+16], rax
  00036	49 89 43 18	 mov	 QWORD PTR [r11+24], rax
  0003a	49 89 43 20	 mov	 QWORD PTR [r11+32], rax
  0003e	49 89 43 28	 mov	 QWORD PTR [r11+40], rax

; 680  :     /* Extend the singly linked list of blocks with new block. */
; 681  :     b->b_list = u->u_blocks;

  00042	48 8b 43 58	 mov	 rax, QWORD PTR [rbx+88]
  00046	49 89 03	 mov	 QWORD PTR [r11], rax

; 682  :     u->u_blocks = b;

  00049	4c 89 5b 58	 mov	 QWORD PTR [rbx+88], r11

; 683  :     return b;

  0004d	49 8b c3	 mov	 rax, r11

; 684  : }

  00050	48 83 c4 20	 add	 rsp, 32			; 00000020H
  00054	5b		 pop	 rbx
  00055	c3		 ret	 0
compiler_new_block ENDP
_TEXT	ENDS
;	COMDAT pdata
pdata	SEGMENT
$pdata$compiler_use_new_block DD imagerel compiler_use_new_block
	DD	imagerel compiler_use_new_block+45
	DD	imagerel $unwind$compiler_use_new_block
pdata	ENDS
;	COMDAT xdata
xdata	SEGMENT
$unwind$compiler_use_new_block DD 020601H
	DD	030023206H
; Function compile flags: /Ogtpy
xdata	ENDS
;	COMDAT compiler_use_new_block
_TEXT	SEGMENT
c$ = 48
compiler_use_new_block PROC				; COMDAT

; 688  : {

  00000	40 53		 push	 rbx
  00002	48 83 ec 20	 sub	 rsp, 32			; 00000020H
  00006	48 8b d9	 mov	 rbx, rcx

; 689  :     basicblock *block = compiler_new_block(c);

  00009	e8 00 00 00 00	 call	 compiler_new_block
  0000e	4c 8b d8	 mov	 r11, rax

; 690  :     if (block == NULL)

  00011	48 85 c0	 test	 rax, rax
  00014	75 06		 jne	 SHORT $LN1@compiler_u@3

; 694  : }

  00016	48 83 c4 20	 add	 rsp, 32			; 00000020H
  0001a	5b		 pop	 rbx
  0001b	c3		 ret	 0
$LN1@compiler_u@3:

; 691  :         return NULL;
; 692  :     c->u->u_curblock = block;

  0001c	48 8b 43 38	 mov	 rax, QWORD PTR [rbx+56]
  00020	4c 89 58 60	 mov	 QWORD PTR [rax+96], r11

; 693  :     return block;

  00024	49 8b c3	 mov	 rax, r11

; 694  : }

  00027	48 83 c4 20	 add	 rsp, 32			; 00000020H
  0002b	5b		 pop	 rbx
  0002c	c3		 ret	 0
compiler_use_new_block ENDP
_TEXT	ENDS
;	COMDAT pdata
pdata	SEGMENT
$pdata$compiler_next_block DD imagerel compiler_next_block
	DD	imagerel compiler_next_block+57
	DD	imagerel $unwind$compiler_next_block
pdata	ENDS
;	COMDAT xdata
xdata	SEGMENT
$unwind$compiler_next_block DD 020601H
	DD	030023206H
; Function compile flags: /Ogtpy
xdata	ENDS
;	COMDAT compiler_next_block
_TEXT	SEGMENT
c$ = 48
compiler_next_block PROC				; COMDAT

; 698  : {

  00000	40 53		 push	 rbx
  00002	48 83 ec 20	 sub	 rsp, 32			; 00000020H
  00006	48 8b d9	 mov	 rbx, rcx

; 699  :     basicblock *block = compiler_new_block(c);

  00009	e8 00 00 00 00	 call	 compiler_new_block
  0000e	4c 8b d8	 mov	 r11, rax

; 700  :     if (block == NULL)

  00011	48 85 c0	 test	 rax, rax
  00014	75 06		 jne	 SHORT $LN1@compiler_n@2

; 705  : }

  00016	48 83 c4 20	 add	 rsp, 32			; 00000020H
  0001a	5b		 pop	 rbx
  0001b	c3		 ret	 0
$LN1@compiler_n@2:

; 701  :         return NULL;
; 702  :     c->u->u_curblock->b_next = block;

  0001c	48 8b 43 38	 mov	 rax, QWORD PTR [rbx+56]
  00020	48 8b 48 60	 mov	 rcx, QWORD PTR [rax+96]
  00024	4c 89 59 18	 mov	 QWORD PTR [rcx+24], r11

; 703  :     c->u->u_curblock = block;

  00028	48 8b 43 38	 mov	 rax, QWORD PTR [rbx+56]
  0002c	4c 89 58 60	 mov	 QWORD PTR [rax+96], r11

; 704  :     return block;

  00030	49 8b c3	 mov	 rax, r11

; 705  : }

  00033	48 83 c4 20	 add	 rsp, 32			; 00000020H
  00037	5b		 pop	 rbx
  00038	c3		 ret	 0
compiler_next_block ENDP
; Function compile flags: /Ogtpy
_TEXT	ENDS
;	COMDAT compiler_use_next_block
_TEXT	SEGMENT
c$ = 8
block$ = 16
compiler_use_next_block PROC				; COMDAT

; 710  :     assert(block != NULL);
; 711  :     c->u->u_curblock->b_next = block;

  00000	48 8b 41 38	 mov	 rax, QWORD PTR [rcx+56]
  00004	4c 8b 40 60	 mov	 r8, QWORD PTR [rax+96]
  00008	49 89 50 18	 mov	 QWORD PTR [r8+24], rdx

; 712  :     c->u->u_curblock = block;

  0000c	48 8b 41 38	 mov	 rax, QWORD PTR [rcx+56]
  00010	48 89 50 60	 mov	 QWORD PTR [rax+96], rdx

; 713  :     return block;

  00014	48 8b c2	 mov	 rax, rdx

; 714  : }

  00017	c3		 ret	 0
compiler_use_next_block ENDP
_TEXT	ENDS
EXTRN	PyObject_Realloc:PROC
;	COMDAT pdata
pdata	SEGMENT
$pdata$compiler_next_instr DD imagerel compiler_next_instr
	DD	imagerel compiler_next_instr+192
	DD	imagerel $unwind$compiler_next_instr
pdata	ENDS
;	COMDAT xdata
xdata	SEGMENT
$unwind$compiler_next_instr DD 060f01H
	DD	07640fH
	DD	06340fH
	DD	0700b320fH
; Function compile flags: /Ogtpy
xdata	ENDS
;	COMDAT compiler_next_instr
_TEXT	SEGMENT
b$ = 48
compiler_next_instr PROC				; COMDAT

; 723  : {

  00000	48 89 5c 24 08	 mov	 QWORD PTR [rsp+8], rbx
  00005	48 89 74 24 10	 mov	 QWORD PTR [rsp+16], rsi
  0000a	57		 push	 rdi
  0000b	48 83 ec 20	 sub	 rsp, 32			; 00000020H
  0000f	48 8b d9	 mov	 rbx, rcx

; 724  :     assert(b != NULL);
; 725  :     if (b->b_instr == NULL) {

  00012	48 8b 49 10	 mov	 rcx, QWORD PTR [rcx+16]
  00016	48 85 c9	 test	 rcx, rcx
  00019	75 3d		 jne	 SHORT $LN7@compiler_n@3

; 726  :         b->b_instr = (struct instr *)PyObject_Malloc(
; 727  :                          sizeof(struct instr) * DEFAULT_BLOCK_SIZE);

  0001b	b9 00 02 00 00	 mov	 ecx, 512		; 00000200H
  00020	e8 00 00 00 00	 call	 PyObject_Malloc
  00025	48 89 43 10	 mov	 QWORD PTR [rbx+16], rax

; 728  :         if (b->b_instr == NULL) {

  00029	48 85 c0	 test	 rax, rax
  0002c	75 18		 jne	 SHORT $LN6@compiler_n@3
$LN11@compiler_n@3:

; 729  :             PyErr_NoMemory();

  0002e	e8 00 00 00 00	 call	 PyErr_NoMemory

; 730  :             return -1;

  00033	83 c8 ff	 or	 eax, -1

; 762  : }

  00036	48 8b 5c 24 30	 mov	 rbx, QWORD PTR [rsp+48]
  0003b	48 8b 74 24 38	 mov	 rsi, QWORD PTR [rsp+56]
  00040	48 83 c4 20	 add	 rsp, 32			; 00000020H
  00044	5f		 pop	 rdi
  00045	c3		 ret	 0
$LN6@compiler_n@3:

; 731  :         }
; 732  :         b->b_ialloc = DEFAULT_BLOCK_SIZE;

  00046	c7 43 0c 10 00
	00 00		 mov	 DWORD PTR [rbx+12], 16

; 733  :         memset((char *)b->b_instr, 0,
; 734  :                sizeof(struct instr) * DEFAULT_BLOCK_SIZE);

  0004d	41 b8 00 02 00
	00		 mov	 r8d, 512		; 00000200H
  00053	48 8b c8	 mov	 rcx, rax
  00056	eb 48		 jmp	 SHORT $LN10@compiler_n@3
$LN7@compiler_n@3:

; 735  :     }
; 736  :     else if (b->b_iused == b->b_ialloc) {

  00058	48 63 43 0c	 movsxd	 rax, DWORD PTR [rbx+12]
  0005c	39 43 08	 cmp	 DWORD PTR [rbx+8], eax
  0005f	75 46		 jne	 SHORT $LN4@compiler_n@3

; 737  :         struct instr *tmp;
; 738  :         size_t oldsize, newsize;
; 739  :         oldsize = b->b_ialloc * sizeof(struct instr);

  00061	48 8b f8	 mov	 rdi, rax

; 740  :         newsize = oldsize << 1;
; 741  : 
; 742  :         if (oldsize > (PY_SIZE_MAX >> 1)) {

  00064	48 ba ff ff ff
	ff ff ff ff 7f	 mov	 rdx, 9223372036854775807 ; 7fffffffffffffffH
  0006e	48 c1 e7 05	 shl	 rdi, 5
  00072	48 8d 34 3f	 lea	 rsi, QWORD PTR [rdi+rdi]
  00076	48 3b fa	 cmp	 rdi, rdx

; 743  :             PyErr_NoMemory();
; 744  :             return -1;

  00079	77 b3		 ja	 SHORT $LN11@compiler_n@3

; 745  :         }
; 746  : 
; 747  :         if (newsize == 0) {

  0007b	48 85 f6	 test	 rsi, rsi

; 748  :             PyErr_NoMemory();
; 749  :             return -1;

  0007e	74 ae		 je	 SHORT $LN11@compiler_n@3

; 750  :         }
; 751  :         b->b_ialloc <<= 1;

  00080	03 c0		 add	 eax, eax

; 752  :         tmp = (struct instr *)PyObject_Realloc(
; 753  :                                         (void *)b->b_instr, newsize);

  00082	48 8b d6	 mov	 rdx, rsi
  00085	89 43 0c	 mov	 DWORD PTR [rbx+12], eax
  00088	e8 00 00 00 00	 call	 PyObject_Realloc

; 754  :         if (tmp == NULL) {

  0008d	48 85 c0	 test	 rax, rax

; 755  :             PyErr_NoMemory();
; 756  :             return -1;

  00090	74 9c		 je	 SHORT $LN11@compiler_n@3

; 757  :         }
; 758  :         b->b_instr = tmp;
; 759  :         memset((char *)b->b_instr + oldsize, 0, newsize - oldsize);

  00092	48 2b f7	 sub	 rsi, rdi
  00095	48 89 43 10	 mov	 QWORD PTR [rbx+16], rax
  00099	48 8d 0c 38	 lea	 rcx, QWORD PTR [rax+rdi]
  0009d	4c 8b c6	 mov	 r8, rsi
$LN10@compiler_n@3:
  000a0	33 d2		 xor	 edx, edx
  000a2	e8 00 00 00 00	 call	 memset
$LN4@compiler_n@3:

; 760  :     }
; 761  :     return b->b_iused++;

  000a7	8b 43 08	 mov	 eax, DWORD PTR [rbx+8]

; 762  : }

  000aa	48 8b 74 24 38	 mov	 rsi, QWORD PTR [rsp+56]
  000af	8d 48 01	 lea	 ecx, DWORD PTR [rax+1]
  000b2	89 4b 08	 mov	 DWORD PTR [rbx+8], ecx
  000b5	48 8b 5c 24 30	 mov	 rbx, QWORD PTR [rsp+48]
  000ba	48 83 c4 20	 add	 rsp, 32			; 00000020H
  000be	5f		 pop	 rdi
  000bf	c3		 ret	 0
compiler_next_instr ENDP
; Function compile flags: /Ogtpy
_TEXT	ENDS
;	COMDAT compiler_set_lineno
_TEXT	SEGMENT
c$ = 8
off$ = 16
compiler_set_lineno PROC				; COMDAT

; 779  :     basicblock *b;
; 780  :     if (c->u->u_lineno_set)

  00000	48 8b 41 38	 mov	 rax, QWORD PTR [rcx+56]
  00004	83 b8 bc 01 00
	00 00		 cmp	 DWORD PTR [rax+444], 0
  0000b	75 27		 jne	 SHORT $LN2@compiler_s@2

; 781  :         return;
; 782  :     c->u->u_lineno_set = 1;

  0000d	c7 80 bc 01 00
	00 01 00 00 00	 mov	 DWORD PTR [rax+444], 1

; 783  :     b = c->u->u_curblock;
; 784  :     b->b_instr[off].i_lineno = c->u->u_lineno;

  00017	48 8b 41 38	 mov	 rax, QWORD PTR [rcx+56]
  0001b	48 63 d2	 movsxd	 rdx, edx
  0001e	48 8b 48 60	 mov	 rcx, QWORD PTR [rax+96]
  00022	8b 80 b4 01 00
	00		 mov	 eax, DWORD PTR [rax+436]
  00028	48 c1 e2 05	 shl	 rdx, 5
  0002c	48 8b 49 10	 mov	 rcx, QWORD PTR [rcx+16]
  00030	89 44 11 18	 mov	 DWORD PTR [rcx+rdx+24], eax
$LN2@compiler_s@2:

; 785  : }

  00034	f3 c3		 fatret	 0
compiler_set_lineno ENDP
_TEXT	ENDS
PUBLIC	??_C@_0BG@MPCMOCCE@opcode_stack_effect?$CI?$CJ?$AA@ ; `string'
PUBLIC	??_C@_0N@BJFJDAMA@opcode?5?$DN?5?$CFd?6?$AA@	; `string'
EXTRN	__imp_fprintf:PROC
EXTRN	__imp___iob_func:PROC
EXTRN	__ImageBase:BYTE
;	COMDAT pdata
pdata	SEGMENT
$pdata$opcode_stack_effect DD imagerel opcode_stack_effect
	DD	imagerel opcode_stack_effect+755
	DD	imagerel $unwind$opcode_stack_effect
pdata	ENDS
;	COMDAT xdata
xdata	SEGMENT
$unwind$opcode_stack_effect DD 020601H
	DD	030023206H
xdata	ENDS
;	COMDAT ??_C@_0BG@MPCMOCCE@opcode_stack_effect?$CI?$CJ?$AA@
CONST	SEGMENT
??_C@_0BG@MPCMOCCE@opcode_stack_effect?$CI?$CJ?$AA@ DB 'opcode_stack_effe'
	DB	'ct()', 00H					; `string'
CONST	ENDS
;	COMDAT ??_C@_0N@BJFJDAMA@opcode?5?$DN?5?$CFd?6?$AA@
CONST	SEGMENT
??_C@_0N@BJFJDAMA@opcode?5?$DN?5?$CFd?6?$AA@ DB 'opcode = %d', 0aH, 00H ; `string'
; Function compile flags: /Ogtpy
CONST	ENDS
;	COMDAT opcode_stack_effect
_TEXT	SEGMENT
opcode$ = 48
oparg$ = 56
opcode_stack_effect PROC				; COMDAT

; 789  : {

  00000	40 53		 push	 rbx
  00002	48 83 ec 20	 sub	 rsp, 32			; 00000020H

; 790  :     switch (opcode) {

  00006	8d 41 ff	 lea	 eax, DWORD PTR [rcx-1]
  00009	44 8b ca	 mov	 r9d, edx
  0000c	8b d9		 mov	 ebx, ecx
  0000e	3d 92 00 00 00	 cmp	 eax, 146		; 00000092H
  00013	0f 87 ca 01 00
	00		 ja	 $LN1@opcode_sta
  00019	48 8d 0d 00 00
	00 00		 lea	 rcx, OFFSET FLAT:__ImageBase
  00020	48 98		 cdqe
  00022	0f b6 84 01 00
	00 00 00	 movzx	 eax, BYTE PTR $LN80@opcode_sta[rcx+rax]
  0002a	44 8b 84 81 00
	00 00 00	 mov	 r8d, DWORD PTR $LN81@opcode_sta[rcx+rax*4]
  00032	4c 03 c1	 add	 r8, rcx
  00035	41 ff e0	 jmp	 r8
$LN70@opcode_sta:

; 791  :         case POP_TOP:
; 792  :             return -1;

  00038	83 c8 ff	 or	 eax, -1

; 984  : }

  0003b	48 83 c4 20	 add	 rsp, 32			; 00000020H
  0003f	5b		 pop	 rbx
  00040	c3		 ret	 0
$LN68@opcode_sta:

; 793  :         case ROT_TWO:
; 794  :         case ROT_THREE:
; 795  :             return 0;
; 796  :         case DUP_TOP:
; 797  :             return 1;

  00041	b8 01 00 00 00	 mov	 eax, 1

; 984  : }

  00046	48 83 c4 20	 add	 rsp, 32			; 00000020H
  0004a	5b		 pop	 rbx
  0004b	c3		 ret	 0
$LN67@opcode_sta:

; 798  :         case DUP_TOP_TWO:
; 799  :             return 2;

  0004c	b8 02 00 00 00	 mov	 eax, 2

; 984  : }

  00051	48 83 c4 20	 add	 rsp, 32			; 00000020H
  00055	5b		 pop	 rbx
  00056	c3		 ret	 0
$LN64@opcode_sta:

; 800  : 
; 801  :         case UNARY_POSITIVE:
; 802  :         case UNARY_NEGATIVE:
; 803  :         case UNARY_NOT:
; 804  :         case UNARY_INVERT:
; 805  :             return 0;
; 806  : 
; 807  :         case SET_ADD:
; 808  :         case LIST_APPEND:
; 809  :             return -1;
; 810  :         case MAP_ADD:
; 811  :             return -2;

  00057	b8 fe ff ff ff	 mov	 eax, -2

; 984  : }

  0005c	48 83 c4 20	 add	 rsp, 32			; 00000020H
  00060	5b		 pop	 rbx
  00061	c3		 ret	 0
$LN60@opcode_sta:

; 812  : 
; 813  :         case BINARY_POWER:
; 814  :         case BINARY_MULTIPLY:
; 815  :         case BINARY_MODULO:
; 816  :         case BINARY_ADD:
; 817  :         case BINARY_SUBTRACT:
; 818  :         case BINARY_SUBSCR:
; 819  :         case BINARY_FLOOR_DIVIDE:
; 820  :         case BINARY_TRUE_DIVIDE:
; 821  :             return -1;
; 822  :         case INPLACE_FLOOR_DIVIDE:
; 823  :         case INPLACE_TRUE_DIVIDE:
; 824  :             return -1;
; 825  : 
; 826  :         case INPLACE_ADD:
; 827  :         case INPLACE_SUBTRACT:
; 828  :         case INPLACE_MULTIPLY:
; 829  :         case INPLACE_MODULO:
; 830  :             return -1;
; 831  :         case STORE_SUBSCR:
; 832  :             return -3;

  00062	b8 fd ff ff ff	 mov	 eax, -3

; 984  : }

  00067	48 83 c4 20	 add	 rsp, 32			; 00000020H
  0006b	5b		 pop	 rbx
  0006c	c3		 ret	 0
$LN50@opcode_sta:

; 833  :         case STORE_MAP:
; 834  :             return -2;
; 835  :         case DELETE_SUBSCR:
; 836  :             return -2;
; 837  : 
; 838  :         case BINARY_LSHIFT:
; 839  :         case BINARY_RSHIFT:
; 840  :         case BINARY_AND:
; 841  :         case BINARY_XOR:
; 842  :         case BINARY_OR:
; 843  :             return -1;
; 844  :         case INPLACE_POWER:
; 845  :             return -1;
; 846  :         case GET_ITER:
; 847  :             return 0;
; 848  : 
; 849  :         case PRINT_EXPR:
; 850  :             return -1;
; 851  :         case LOAD_BUILD_CLASS:
; 852  :             return 1;
; 853  :         case INPLACE_LSHIFT:
; 854  :         case INPLACE_RSHIFT:
; 855  :         case INPLACE_AND:
; 856  :         case INPLACE_XOR:
; 857  :         case INPLACE_OR:
; 858  :             return -1;
; 859  :         case BREAK_LOOP:
; 860  :             return 0;
; 861  :         case SETUP_WITH:
; 862  :             return 7;

  0006d	b8 07 00 00 00	 mov	 eax, 7

; 984  : }

  00072	48 83 c4 20	 add	 rsp, 32			; 00000020H
  00076	5b		 pop	 rbx
  00077	c3		 ret	 0
$LN38@opcode_sta:

; 863  :         case WITH_CLEANUP:
; 864  :             return -1; /* XXX Sometimes more */
; 865  :         case STORE_LOCALS:
; 866  :             return -1;
; 867  :         case RETURN_VALUE:
; 868  :             return -1;
; 869  :         case IMPORT_STAR:
; 870  :             return -1;
; 871  :         case YIELD_VALUE:
; 872  :             return 0;
; 873  :         case YIELD_FROM:
; 874  :             return -1;
; 875  :         case POP_BLOCK:
; 876  :             return 0;
; 877  :         case POP_EXCEPT:
; 878  :             return 0;  /* -3 except if bad bytecode */
; 879  :         case END_FINALLY:
; 880  :             return -1; /* or -2 or -3 if exception occurred */
; 881  : 
; 882  :         case STORE_NAME:
; 883  :             return -1;
; 884  :         case DELETE_NAME:
; 885  :             return 0;
; 886  :         case UNPACK_SEQUENCE:
; 887  :             return oparg-1;

  00078	8d 42 ff	 lea	 eax, DWORD PTR [rdx-1]

; 984  : }

  0007b	48 83 c4 20	 add	 rsp, 32			; 00000020H
  0007f	5b		 pop	 rbx
  00080	c3		 ret	 0
$LN37@opcode_sta:

; 888  :         case UNPACK_EX:
; 889  :             return (oparg&0xFF) + (oparg>>8);

  00081	0f b6 c2	 movzx	 eax, dl
  00084	41 c1 f9 08	 sar	 r9d, 8
  00088	41 03 c1	 add	 eax, r9d

; 984  : }

  0008b	48 83 c4 20	 add	 rsp, 32			; 00000020H
  0008f	5b		 pop	 rbx
  00090	c3		 ret	 0
$LN29@opcode_sta:

; 890  :         case FOR_ITER:
; 891  :             return 1; /* or -1, at end of iterator */
; 892  : 
; 893  :         case STORE_ATTR:
; 894  :             return -2;
; 895  :         case DELETE_ATTR:
; 896  :             return -1;
; 897  :         case STORE_GLOBAL:
; 898  :             return -1;
; 899  :         case DELETE_GLOBAL:
; 900  :             return 0;
; 901  :         case LOAD_CONST:
; 902  :             return 1;
; 903  :         case LOAD_NAME:
; 904  :             return 1;
; 905  :         case BUILD_TUPLE:
; 906  :         case BUILD_LIST:
; 907  :         case BUILD_SET:
; 908  :             return 1-oparg;

  00091	b8 01 00 00 00	 mov	 eax, 1
  00096	2b c2		 sub	 eax, edx

; 984  : }

  00098	48 83 c4 20	 add	 rsp, 32			; 00000020H
  0009c	5b		 pop	 rbx
  0009d	c3		 ret	 0
$LN18@opcode_sta:

; 909  :         case BUILD_MAP:
; 910  :             return 1;
; 911  :         case LOAD_ATTR:
; 912  :             return 0;
; 913  :         case COMPARE_OP:
; 914  :             return -1;
; 915  :         case IMPORT_NAME:
; 916  :             return -1;
; 917  :         case IMPORT_FROM:
; 918  :             return 1;
; 919  : 
; 920  :         case JUMP_FORWARD:
; 921  :         case JUMP_IF_TRUE_OR_POP:  /* -1 if jump not taken */
; 922  :         case JUMP_IF_FALSE_OR_POP:  /*  "" */
; 923  :         case JUMP_ABSOLUTE:
; 924  :             return 0;
; 925  : 
; 926  :         case POP_JUMP_IF_FALSE:
; 927  :         case POP_JUMP_IF_TRUE:
; 928  :             return -1;
; 929  : 
; 930  :         case LOAD_GLOBAL:
; 931  :             return 1;
; 932  : 
; 933  :         case CONTINUE_LOOP:
; 934  :             return 0;
; 935  :         case SETUP_LOOP:
; 936  :             return 0;
; 937  :         case SETUP_EXCEPT:
; 938  :         case SETUP_FINALLY:
; 939  :             return 6; /* can push 3 values for the new exception

  0009e	b8 06 00 00 00	 mov	 eax, 6

; 984  : }

  000a3	48 83 c4 20	 add	 rsp, 32			; 00000020H
  000a7	5b		 pop	 rbx
  000a8	c3		 ret	 0
$LN14@opcode_sta:

; 940  :                 + 3 others for the previous exception state */
; 941  : 
; 942  :         case LOAD_FAST:
; 943  :             return 1;
; 944  :         case STORE_FAST:
; 945  :             return -1;
; 946  :         case DELETE_FAST:
; 947  :             return 0;
; 948  : 
; 949  :         case RAISE_VARARGS:
; 950  :             return -oparg;

  000a9	41 f7 d9	 neg	 r9d
  000ac	41 8b c1	 mov	 eax, r9d

; 984  : }

  000af	48 83 c4 20	 add	 rsp, 32			; 00000020H
  000b3	5b		 pop	 rbx
  000b4	c3		 ret	 0
$LN13@opcode_sta:

; 951  : #define NARGS(o) (((o) % 256) + 2*(((o) / 256) % 256))
; 952  :         case CALL_FUNCTION:
; 953  :             return -NARGS(oparg);

  000b5	8b c2		 mov	 eax, edx
  000b7	99		 cdq
  000b8	0f b6 d2	 movzx	 edx, dl
  000bb	03 c2		 add	 eax, edx
  000bd	8b c8		 mov	 ecx, eax
  000bf	0f b6 c0	 movzx	 eax, al
  000c2	c1 f9 08	 sar	 ecx, 8
  000c5	2b c2		 sub	 eax, edx
  000c7	81 e1 ff 00 00
	80		 and	 ecx, -2147483393	; ffffffff800000ffH
  000cd	7d 0a		 jge	 SHORT $LN79@opcode_sta
  000cf	ff c9		 dec	 ecx
  000d1	81 c9 00 ff ff
	ff		 or	 ecx, -256		; ffffffffffffff00H
  000d7	ff c1		 inc	 ecx
$LN79@opcode_sta:
  000d9	03 c9		 add	 ecx, ecx
  000db	f7 d8		 neg	 eax
  000dd	2b c1		 sub	 eax, ecx

; 984  : }

  000df	48 83 c4 20	 add	 rsp, 32			; 00000020H
  000e3	5b		 pop	 rbx
  000e4	c3		 ret	 0
$LN12@opcode_sta:

; 954  :         case CALL_FUNCTION_VAR:
; 955  :         case CALL_FUNCTION_KW:
; 956  :             return -NARGS(oparg)-1;

  000e5	8b c2		 mov	 eax, edx
  000e7	99		 cdq
  000e8	0f b6 d2	 movzx	 edx, dl
  000eb	03 c2		 add	 eax, edx
  000ed	8b c8		 mov	 ecx, eax
  000ef	0f b6 c0	 movzx	 eax, al
  000f2	2b c2		 sub	 eax, edx
  000f4	c1 f9 08	 sar	 ecx, 8
  000f7	81 e1 ff 00 00
	80		 and	 ecx, -2147483393	; ffffffff800000ffH
  000fd	8b d0		 mov	 edx, eax
  000ff	7d 0a		 jge	 SHORT $LN78@opcode_sta
  00101	ff c9		 dec	 ecx
  00103	81 c9 00 ff ff
	ff		 or	 ecx, -256		; ffffffffffffff00H
  00109	ff c1		 inc	 ecx
$LN78@opcode_sta:
  0010b	03 c9		 add	 ecx, ecx
  0010d	83 c8 ff	 or	 eax, -1
  00110	2b c1		 sub	 eax, ecx
  00112	2b c2		 sub	 eax, edx

; 984  : }

  00114	48 83 c4 20	 add	 rsp, 32			; 00000020H
  00118	5b		 pop	 rbx
  00119	c3		 ret	 0
$LN11@opcode_sta:

; 957  :         case CALL_FUNCTION_VAR_KW:
; 958  :             return -NARGS(oparg)-2;

  0011a	8b c2		 mov	 eax, edx
  0011c	99		 cdq
  0011d	0f b6 d2	 movzx	 edx, dl
  00120	03 c2		 add	 eax, edx
  00122	8b c8		 mov	 ecx, eax
  00124	0f b6 c0	 movzx	 eax, al
  00127	c1 f9 08	 sar	 ecx, 8
  0012a	2b c2		 sub	 eax, edx
  0012c	81 e1 ff 00 00
	80		 and	 ecx, -2147483393	; ffffffff800000ffH
  00132	7d 0a		 jge	 SHORT $LN77@opcode_sta
  00134	ff c9		 dec	 ecx
  00136	81 c9 00 ff ff
	ff		 or	 ecx, -256		; ffffffffffffff00H
  0013c	ff c1		 inc	 ecx
$LN77@opcode_sta:
  0013e	8d 4c 09 02	 lea	 ecx, DWORD PTR [rcx+rcx+2]
  00142	f7 d8		 neg	 eax
  00144	2b c1		 sub	 eax, ecx

; 984  : }

  00146	48 83 c4 20	 add	 rsp, 32			; 00000020H
  0014a	5b		 pop	 rbx
  0014b	c3		 ret	 0
$LN10@opcode_sta:

; 959  :         case MAKE_FUNCTION:
; 960  :             return -1 -NARGS(oparg) - ((oparg >> 16) & 0xffff);

  0014c	8b c2		 mov	 eax, edx
  0014e	99		 cdq
  0014f	0f b6 d2	 movzx	 edx, dl
  00152	03 c2		 add	 eax, edx
  00154	44 8b c0	 mov	 r8d, eax
  00157	0f b6 c0	 movzx	 eax, al
  0015a	41 c1 f8 08	 sar	 r8d, 8
  0015e	2b c2		 sub	 eax, edx
  00160	41 81 e0 ff 00
	00 80		 and	 r8d, -2147483393	; ffffffff800000ffH
  00167	7d 0d		 jge	 SHORT $LN76@opcode_sta
  00169	41 ff c8	 dec	 r8d
  0016c	41 81 c8 00 ff
	ff ff		 or	 r8d, -256		; ffffffffffffff00H
  00173	41 ff c0	 inc	 r8d
$LN76@opcode_sta:
  00176	41 f7 d8	 neg	 r8d
  00179	41 c1 f9 10	 sar	 r9d, 16
  0017d	45 03 c0	 add	 r8d, r8d
  00180	41 0f b7 c9	 movzx	 ecx, r9w
  00184	44 2b c1	 sub	 r8d, ecx
  00187	44 2b c0	 sub	 r8d, eax
  0018a	41 8d 40 ff	 lea	 eax, DWORD PTR [r8-1]

; 984  : }

  0018e	48 83 c4 20	 add	 rsp, 32			; 00000020H
  00192	5b		 pop	 rbx
  00193	c3		 ret	 0
$LN9@opcode_sta:

; 961  :         case MAKE_CLOSURE:
; 962  :             return -2 - NARGS(oparg) - ((oparg >> 16) & 0xffff);

  00194	8b c2		 mov	 eax, edx
  00196	99		 cdq
  00197	0f b6 d2	 movzx	 edx, dl
  0019a	03 c2		 add	 eax, edx
  0019c	8b c8		 mov	 ecx, eax
  0019e	0f b6 c0	 movzx	 eax, al
  001a1	2b c2		 sub	 eax, edx
  001a3	c1 f9 08	 sar	 ecx, 8
  001a6	81 e1 ff 00 00
	80		 and	 ecx, -2147483393	; ffffffff800000ffH
  001ac	8b d0		 mov	 edx, eax
  001ae	7d 0a		 jge	 SHORT $LN75@opcode_sta
  001b0	ff c9		 dec	 ecx
  001b2	81 c9 00 ff ff
	ff		 or	 ecx, -256		; ffffffffffffff00H
  001b8	ff c1		 inc	 ecx
$LN75@opcode_sta:
  001ba	41 c1 f9 10	 sar	 r9d, 16
  001be	8d 4c 09 02	 lea	 ecx, DWORD PTR [rcx+rcx+2]
  001c2	41 0f b7 c1	 movzx	 eax, r9w
  001c6	f7 d8		 neg	 eax
  001c8	2b c1		 sub	 eax, ecx
  001ca	2b c2		 sub	 eax, edx

; 984  : }

  001cc	48 83 c4 20	 add	 rsp, 32			; 00000020H
  001d0	5b		 pop	 rbx
  001d1	c3		 ret	 0
$LN8@opcode_sta:

; 963  : #undef NARGS
; 964  :         case BUILD_SLICE:
; 965  :             if (oparg == 3)

  001d2	33 c0		 xor	 eax, eax
  001d4	83 fa 03	 cmp	 edx, 3
  001d7	0f 95 c0	 setne	 al
  001da	83 c0 fe	 add	 eax, -2

; 984  : }

  001dd	48 83 c4 20	 add	 rsp, 32			; 00000020H
  001e1	5b		 pop	 rbx
  001e2	c3		 ret	 0
$LN1@opcode_sta:

; 966  :                 return -2;
; 967  :             else
; 968  :                 return -1;
; 969  : 
; 970  :         case LOAD_CLOSURE:
; 971  :             return 1;
; 972  :         case LOAD_DEREF:
; 973  :             return 1;
; 974  :         case STORE_DEREF:
; 975  :             return -1;
; 976  :         case DELETE_DEREF:
; 977  :             return 0;
; 978  :         default:
; 979  :             fprintf(stderr, "opcode = %d\n", opcode);

  001e3	ff 15 00 00 00
	00		 call	 QWORD PTR __imp___iob_func
  001e9	48 8d 15 00 00
	00 00		 lea	 rdx, OFFSET FLAT:??_C@_0N@BJFJDAMA@opcode?5?$DN?5?$CFd?6?$AA@
  001f0	44 8b c3	 mov	 r8d, ebx
  001f3	48 8d 48 60	 lea	 rcx, QWORD PTR [rax+96]
  001f7	ff 15 00 00 00
	00		 call	 QWORD PTR __imp_fprintf

; 980  :             Py_FatalError("opcode_stack_effect()");

  001fd	48 8d 0d 00 00
	00 00		 lea	 rcx, OFFSET FLAT:??_C@_0BG@MPCMOCCE@opcode_stack_effect?$CI?$CJ?$AA@
  00204	e8 00 00 00 00	 call	 Py_FatalError
$LN69@opcode_sta:

; 981  : 
; 982  :     }
; 983  :     return 0; /* not reachable */

  00209	33 c0		 xor	 eax, eax

; 984  : }

  0020b	48 83 c4 20	 add	 rsp, 32			; 00000020H
  0020f	5b		 pop	 rbx
  00210	c3		 ret	 0
  00211	0f 1f 00	 npad	 3
$LN81@opcode_sta:
  00214	00 00 00 00	 DD	 $LN70@opcode_sta
  00218	00 00 00 00	 DD	 $LN69@opcode_sta
  0021c	00 00 00 00	 DD	 $LN68@opcode_sta
  00220	00 00 00 00	 DD	 $LN67@opcode_sta
  00224	00 00 00 00	 DD	 $LN64@opcode_sta
  00228	00 00 00 00	 DD	 $LN60@opcode_sta
  0022c	00 00 00 00	 DD	 $LN38@opcode_sta
  00230	00 00 00 00	 DD	 $LN37@opcode_sta
  00234	00 00 00 00	 DD	 $LN29@opcode_sta
  00238	00 00 00 00	 DD	 $LN18@opcode_sta
  0023c	00 00 00 00	 DD	 $LN14@opcode_sta
  00240	00 00 00 00	 DD	 $LN13@opcode_sta
  00244	00 00 00 00	 DD	 $LN10@opcode_sta
  00248	00 00 00 00	 DD	 $LN8@opcode_sta
  0024c	00 00 00 00	 DD	 $LN9@opcode_sta
  00250	00 00 00 00	 DD	 $LN12@opcode_sta
  00254	00 00 00 00	 DD	 $LN11@opcode_sta
  00258	00 00 00 00	 DD	 $LN50@opcode_sta
  0025c	00 00 00 00	 DD	 $LN1@opcode_sta
$LN80@opcode_sta:
  00260	00		 DB	 0
  00261	01		 DB	 1
  00262	01		 DB	 1
  00263	02		 DB	 2
  00264	03		 DB	 3
  00265	12		 DB	 18
  00266	12		 DB	 18
  00267	12		 DB	 18
  00268	12		 DB	 18
  00269	01		 DB	 1
  0026a	01		 DB	 1
  0026b	01		 DB	 1
  0026c	12		 DB	 18
  0026d	12		 DB	 18
  0026e	01		 DB	 1
  0026f	12		 DB	 18
  00270	12		 DB	 18
  00271	12		 DB	 18
  00272	00		 DB	 0
  00273	00		 DB	 0
  00274	12		 DB	 18
  00275	00		 DB	 0
  00276	00		 DB	 0
  00277	00		 DB	 0
  00278	00		 DB	 0
  00279	00		 DB	 0
  0027a	00		 DB	 0
  0027b	00		 DB	 0
  0027c	00		 DB	 0
  0027d	12		 DB	 18
  0027e	12		 DB	 18
  0027f	12		 DB	 18
  00280	12		 DB	 18
  00281	12		 DB	 18
  00282	12		 DB	 18
  00283	12		 DB	 18
  00284	12		 DB	 18
  00285	12		 DB	 18
  00286	12		 DB	 18
  00287	12		 DB	 18
  00288	12		 DB	 18
  00289	12		 DB	 18
  0028a	12		 DB	 18
  0028b	12		 DB	 18
  0028c	12		 DB	 18
  0028d	12		 DB	 18
  0028e	12		 DB	 18
  0028f	12		 DB	 18
  00290	12		 DB	 18
  00291	12		 DB	 18
  00292	12		 DB	 18
  00293	12		 DB	 18
  00294	12		 DB	 18
  00295	04		 DB	 4
  00296	00		 DB	 0
  00297	00		 DB	 0
  00298	00		 DB	 0
  00299	12		 DB	 18
  0029a	00		 DB	 0
  0029b	05		 DB	 5
  0029c	04		 DB	 4
  0029d	00		 DB	 0
  0029e	00		 DB	 0
  0029f	00		 DB	 0
  002a0	00		 DB	 0
  002a1	00		 DB	 0
  002a2	00		 DB	 0
  002a3	01		 DB	 1
  002a4	00		 DB	 0
  002a5	00		 DB	 0
  002a6	02		 DB	 2
  002a7	00		 DB	 0
  002a8	12		 DB	 18
  002a9	12		 DB	 18
  002aa	00		 DB	 0
  002ab	00		 DB	 0
  002ac	00		 DB	 0
  002ad	00		 DB	 0
  002ae	00		 DB	 0
  002af	01		 DB	 1
  002b0	00		 DB	 0
  002b1	12		 DB	 18
  002b2	00		 DB	 0
  002b3	00		 DB	 0
  002b4	12		 DB	 18
  002b5	01		 DB	 1
  002b6	01		 DB	 1
  002b7	00		 DB	 0
  002b8	01		 DB	 1
  002b9	00		 DB	 0
  002ba	01		 DB	 1
  002bb	06		 DB	 6
  002bc	02		 DB	 2
  002bd	07		 DB	 7
  002be	04		 DB	 4
  002bf	00		 DB	 0
  002c0	00		 DB	 0
  002c1	01		 DB	 1
  002c2	12		 DB	 18
  002c3	02		 DB	 2
  002c4	02		 DB	 2
  002c5	08		 DB	 8
  002c6	08		 DB	 8
  002c7	08		 DB	 8
  002c8	02		 DB	 2
  002c9	01		 DB	 1
  002ca	00		 DB	 0
  002cb	00		 DB	 0
  002cc	02		 DB	 2
  002cd	01		 DB	 1
  002ce	01		 DB	 1
  002cf	01		 DB	 1
  002d0	01		 DB	 1
  002d1	00		 DB	 0
  002d2	00		 DB	 0
  002d3	02		 DB	 2
  002d4	12		 DB	 18
  002d5	12		 DB	 18
  002d6	01		 DB	 1
  002d7	01		 DB	 1
  002d8	09		 DB	 9
  002d9	09		 DB	 9
  002da	12		 DB	 18
  002db	02		 DB	 2
  002dc	00		 DB	 0
  002dd	01		 DB	 1
  002de	12		 DB	 18
  002df	12		 DB	 18
  002e0	12		 DB	 18
  002e1	0a		 DB	 10
  002e2	0b		 DB	 11
  002e3	0c		 DB	 12
  002e4	0d		 DB	 13
  002e5	0e		 DB	 14
  002e6	02		 DB	 2
  002e7	02		 DB	 2
  002e8	00		 DB	 0
  002e9	01		 DB	 1
  002ea	12		 DB	 18
  002eb	0f		 DB	 15
  002ec	0f		 DB	 15
  002ed	10		 DB	 16
  002ee	11		 DB	 17
  002ef	12		 DB	 18
  002f0	00		 DB	 0
  002f1	00		 DB	 0
  002f2	04		 DB	 4
opcode_stack_effect ENDP
_TEXT	ENDS
;	COMDAT pdata
pdata	SEGMENT
$pdata$compiler_addop DD imagerel compiler_addop
	DD	imagerel compiler_addop+107
	DD	imagerel $unwind$compiler_addop
pdata	ENDS
;	COMDAT xdata
xdata	SEGMENT
$unwind$compiler_addop DD 040a01H
	DD	06340aH
	DD	07006320aH
; Function compile flags: /Ogtpy
xdata	ENDS
;	COMDAT compiler_addop
_TEXT	SEGMENT
c$ = 48
opcode$ = 56
compiler_addop PROC					; COMDAT

; 992  : {

  00000	48 89 5c 24 08	 mov	 QWORD PTR [rsp+8], rbx
  00005	57		 push	 rdi
  00006	48 83 ec 20	 sub	 rsp, 32			; 00000020H
  0000a	48 8b d9	 mov	 rbx, rcx

; 993  :     basicblock *b;
; 994  :     struct instr *i;
; 995  :     int off;
; 996  :     off = compiler_next_instr(c, c->u->u_curblock);

  0000d	48 8b 49 38	 mov	 rcx, QWORD PTR [rcx+56]
  00011	8b fa		 mov	 edi, edx
  00013	48 8b 49 60	 mov	 rcx, QWORD PTR [rcx+96]
  00017	e8 00 00 00 00	 call	 compiler_next_instr
  0001c	48 63 d0	 movsxd	 rdx, eax

; 997  :     if (off < 0)

  0001f	85 c0		 test	 eax, eax
  00021	79 0d		 jns	 SHORT $LN2@compiler_a

; 998  :         return 0;

  00023	33 c0		 xor	 eax, eax

; 1006 :     return 1;
; 1007 : }

  00025	48 8b 5c 24 30	 mov	 rbx, QWORD PTR [rsp+48]
  0002a	48 83 c4 20	 add	 rsp, 32			; 00000020H
  0002e	5f		 pop	 rdi
  0002f	c3		 ret	 0
$LN2@compiler_a:

; 999  :     b = c->u->u_curblock;

  00030	48 8b 43 38	 mov	 rax, QWORD PTR [rbx+56]
  00034	48 8b 48 60	 mov	 rcx, QWORD PTR [rax+96]

; 1000 :     i = &b->b_instr[off];

  00038	48 8b c2	 mov	 rax, rdx
  0003b	48 c1 e0 05	 shl	 rax, 5
  0003f	48 03 41 10	 add	 rax, QWORD PTR [rcx+16]

; 1001 :     i->i_opcode = opcode;
; 1002 :     i->i_hasarg = 0;

  00043	83 20 fb	 and	 DWORD PTR [rax], -5	; fffffffbH
  00046	40 88 78 04	 mov	 BYTE PTR [rax+4], dil

; 1003 :     if (opcode == RETURN_VALUE)

  0004a	83 ff 53	 cmp	 edi, 83			; 00000053H
  0004d	75 04		 jne	 SHORT $LN1@compiler_a

; 1004 :         b->b_return = 1;

  0004f	83 49 20 02	 or	 DWORD PTR [rcx+32], 2
$LN1@compiler_a:

; 1005 :     compiler_set_lineno(c, off);

  00053	48 8b cb	 mov	 rcx, rbx
  00056	e8 00 00 00 00	 call	 compiler_set_lineno

; 1006 :     return 1;
; 1007 : }

  0005b	48 8b 5c 24 30	 mov	 rbx, QWORD PTR [rsp+48]
  00060	b8 01 00 00 00	 mov	 eax, 1
  00065	48 83 c4 20	 add	 rsp, 32			; 00000020H
  00069	5f		 pop	 rdi
  0006a	c3		 ret	 0
compiler_addop ENDP
_TEXT	ENDS
PUBLIC	__real@3ff0000000000000
EXTRN	PyDict_Size:PROC
EXTRN	PyErr_Occurred:PROC
EXTRN	_Py_NoneStruct:BYTE
EXTRN	__imp__copysign:PROC
EXTRN	PyComplex_AsCComplex:PROC
EXTRN	PyComplex_Type:BYTE
EXTRN	PyType_IsSubtype:PROC
EXTRN	PyFloat_Type:BYTE
EXTRN	_fltused:DWORD
;	COMDAT pdata
pdata	SEGMENT
$pdata$compiler_add_o DD imagerel compiler_add_o
	DD	imagerel compiler_add_o+37
	DD	imagerel $unwind$compiler_add_o
pdata	ENDS
;	COMDAT pdata
pdata	SEGMENT
$pdata$0$compiler_add_o DD imagerel compiler_add_o+37
	DD	imagerel compiler_add_o+373
	DD	imagerel $chain$0$compiler_add_o
pdata	ENDS
;	COMDAT pdata
pdata	SEGMENT
$pdata$1$compiler_add_o DD imagerel compiler_add_o+373
	DD	imagerel compiler_add_o+532
	DD	imagerel $chain$1$compiler_add_o
pdata	ENDS
;	COMDAT xdata
xdata	SEGMENT
$chain$1$compiler_add_o DD 021H
	DD	imagerel compiler_add_o
	DD	imagerel compiler_add_o+37
	DD	imagerel $unwind$compiler_add_o
xdata	ENDS
;	COMDAT xdata
xdata	SEGMENT
$chain$0$compiler_add_o DD 020521H
	DD	056805H
	DD	imagerel compiler_add_o
	DD	imagerel compiler_add_o+37
	DD	imagerel $unwind$compiler_add_o
xdata	ENDS
;	COMDAT xdata
xdata	SEGMENT
$unwind$compiler_add_o DD 081401H
	DD	0106414H
	DD	0f5414H
	DD	0e3414H
	DD	07010b214H
xdata	ENDS
;	COMDAT __real@3ff0000000000000
CONST	SEGMENT
__real@3ff0000000000000 DQ 03ff0000000000000r	; 1
; Function compile flags: /Ogtpy
CONST	ENDS
;	COMDAT compiler_add_o
_TEXT	SEGMENT
z$22603 = 48
$T26094 = 64
dict$ = 112
o$ = 120
compiler_add_o PROC					; COMDAT

; 1011 : {

  00000	48 89 5c 24 08	 mov	 QWORD PTR [rsp+8], rbx
  00005	48 89 6c 24 10	 mov	 QWORD PTR [rsp+16], rbp
  0000a	48 89 74 24 18	 mov	 QWORD PTR [rsp+24], rsi
  0000f	57		 push	 rdi
  00010	48 83 ec 60	 sub	 rsp, 96			; 00000060H
  00014	48 8b e9	 mov	 rbp, rcx

; 1012 :     PyObject *t, *v;
; 1013 :     Py_ssize_t arg;
; 1014 :     double d;
; 1015 : 
; 1016 :     /* necessary to make sure types aren't coerced (e.g., float and complex) */
; 1017 :     /* _and_ to distinguish 0.0 from -0.0 e.g. on IEEE platforms */
; 1018 :     if (PyFloat_Check(o)) {

  00017	48 8b 4a 58	 mov	 rcx, QWORD PTR [rdx+88]
  0001b	48 8b da	 mov	 rbx, rdx
  0001e	48 8d 15 00 00
	00 00		 lea	 rdx, OFFSET FLAT:PyFloat_Type
  00025	0f 29 74 24 50	 movaps	 XMMWORD PTR [rsp+80], xmm6
  0002a	48 3b ca	 cmp	 rcx, rdx
  0002d	0f 84 e5 00 00
	00		 je	 $LN19@compiler_a@2
  00033	e8 00 00 00 00	 call	 PyType_IsSubtype
  00038	85 c0		 test	 eax, eax
  0003a	0f 85 d8 00 00
	00		 jne	 $LN19@compiler_a@2

; 1027 :     }
; 1028 :     else if (PyComplex_Check(o)) {

  00040	48 8b 4b 58	 mov	 rcx, QWORD PTR [rbx+88]
  00044	48 8d 15 00 00
	00 00		 lea	 rdx, OFFSET FLAT:PyComplex_Type
  0004b	48 3b ca	 cmp	 rcx, rdx
  0004e	74 0d		 je	 SHORT $LN14@compiler_a@2
  00050	e8 00 00 00 00	 call	 PyType_IsSubtype
  00055	85 c0		 test	 eax, eax

; 1044 :         }
; 1045 :         else if (real_negzero) {
; 1046 :             t = PyTuple_Pack(3, o, o->ob_type, Py_None);
; 1047 :         }
; 1048 :         else {
; 1049 :             t = PyTuple_Pack(2, o, o->ob_type);
; 1050 :         }
; 1051 :     }
; 1052 :     else {
; 1053 :         t = PyTuple_Pack(2, o, o->ob_type);

  00057	0f 84 fa 00 00
	00		 je	 $LN18@compiler_a@2
$LN14@compiler_a@2:

; 1029 :         Py_complex z;
; 1030 :         int real_negzero, imag_negzero;
; 1031 :         /* For the complex case we must make complex(x, 0.)
; 1032 :            different from complex(x, -0.) and complex(0., y)
; 1033 :            different from complex(-0., y), for any x and y.
; 1034 :            All four complex zeros must be distinguished.*/
; 1035 :         z = PyComplex_AsCComplex(o);

  0005d	48 8d 4c 24 40	 lea	 rcx, QWORD PTR $T26094[rsp]
  00062	48 8b d3	 mov	 rdx, rbx
  00065	e8 00 00 00 00	 call	 PyComplex_AsCComplex

; 1036 :         real_negzero = z.real == 0.0 && copysign(1.0, z.real) < 0.0;

  0006a	bf 01 00 00 00	 mov	 edi, 1
  0006f	48 8b 08	 mov	 rcx, QWORD PTR [rax]
  00072	48 8b 40 08	 mov	 rax, QWORD PTR [rax+8]
  00076	66 0f 57 f6	 xorpd	 xmm6, xmm6
  0007a	48 89 4c 24 30	 mov	 QWORD PTR z$22603[rsp], rcx
  0007f	48 89 44 24 38	 mov	 QWORD PTR z$22603[rsp+8], rax
  00084	f2 0f 10 4c 24
	30		 movsdx	 xmm1, QWORD PTR z$22603[rsp]
  0008a	66 0f 2e ce	 ucomisd xmm1, xmm6
  0008e	7a 1a		 jp	 SHORT $LN23@compiler_a@2
  00090	75 18		 jne	 SHORT $LN23@compiler_a@2
  00092	f2 0f 10 05 00
	00 00 00	 movsdx	 xmm0, QWORD PTR __real@3ff0000000000000
  0009a	ff 15 00 00 00
	00		 call	 QWORD PTR __imp__copysign
  000a0	66 0f 2f f0	 comisd	 xmm6, xmm0
  000a4	76 04		 jbe	 SHORT $LN23@compiler_a@2
  000a6	8b f7		 mov	 esi, edi
  000a8	eb 02		 jmp	 SHORT $LN24@compiler_a@2
$LN23@compiler_a@2:
  000aa	33 f6		 xor	 esi, esi
$LN24@compiler_a@2:

; 1037 :         imag_negzero = z.imag == 0.0 && copysign(1.0, z.imag) < 0.0;

  000ac	f2 0f 10 4c 24
	38		 movsdx	 xmm1, QWORD PTR z$22603[rsp+8]
  000b2	66 0f 2e ce	 ucomisd xmm1, xmm6
  000b6	7a 16		 jp	 SHORT $LN25@compiler_a@2
  000b8	75 14		 jne	 SHORT $LN25@compiler_a@2
  000ba	f2 0f 10 05 00
	00 00 00	 movsdx	 xmm0, QWORD PTR __real@3ff0000000000000
  000c2	ff 15 00 00 00
	00		 call	 QWORD PTR __imp__copysign
  000c8	66 0f 2f f0	 comisd	 xmm6, xmm0
  000cc	77 02		 ja	 SHORT $LN26@compiler_a@2
$LN25@compiler_a@2:
  000ce	33 ff		 xor	 edi, edi
$LN26@compiler_a@2:

; 1038 :         if (real_negzero && imag_negzero) {
; 1039 :             t = PyTuple_Pack(5, o, o->ob_type,
; 1040 :                              Py_None, Py_None, Py_None);

  000d0	4c 8b 43 58	 mov	 r8, QWORD PTR [rbx+88]
  000d4	48 8b d3	 mov	 rdx, rbx
  000d7	85 f6		 test	 esi, esi
  000d9	74 21		 je	 SHORT $LN13@compiler_a@2
  000db	4c 8d 0d 00 00
	00 00		 lea	 r9, OFFSET FLAT:_Py_NoneStruct
  000e2	85 ff		 test	 edi, edi
  000e4	74 65		 je	 SHORT $LN11@compiler_a@2
  000e6	4c 89 4c 24 28	 mov	 QWORD PTR [rsp+40], r9
  000eb	b9 05 00 00 00	 mov	 ecx, 5
  000f0	4c 89 4c 24 20	 mov	 QWORD PTR [rsp+32], r9
  000f5	e8 00 00 00 00	 call	 PyTuple_Pack
  000fa	eb 6c		 jmp	 SHORT $LN27@compiler_a@2
$LN13@compiler_a@2:

; 1041 :         }
; 1042 :         else if (imag_negzero) {

  000fc	85 ff		 test	 edi, edi
  000fe	74 5e		 je	 SHORT $LN9@compiler_a@2

; 1043 :             t = PyTuple_Pack(4, o, o->ob_type, Py_None, Py_None);

  00100	4c 8d 0d 00 00
	00 00		 lea	 r9, OFFSET FLAT:_Py_NoneStruct
  00107	b9 04 00 00 00	 mov	 ecx, 4
  0010c	4c 89 4c 24 20	 mov	 QWORD PTR [rsp+32], r9
  00111	e8 00 00 00 00	 call	 PyTuple_Pack
  00116	eb 50		 jmp	 SHORT $LN27@compiler_a@2
$LN19@compiler_a@2:

; 1019 :         d = PyFloat_AS_DOUBLE(o);

  00118	f2 0f 10 4b 60	 movsdx	 xmm1, QWORD PTR [rbx+96]

; 1020 :         /* all we need is to make the tuple different in either the 0.0
; 1021 :          * or -0.0 case from all others, just to avoid the "coercion".
; 1022 :          */
; 1023 :         if (d == 0.0 && copysign(1.0, d) < 0.0)

  0011d	66 0f 57 f6	 xorpd	 xmm6, xmm6
  00121	66 0f 2e ce	 ucomisd xmm1, xmm6
  00125	7a 30		 jp	 SHORT $LN18@compiler_a@2
  00127	75 2e		 jne	 SHORT $LN18@compiler_a@2
  00129	f2 0f 10 05 00
	00 00 00	 movsdx	 xmm0, QWORD PTR __real@3ff0000000000000
  00131	ff 15 00 00 00
	00		 call	 QWORD PTR __imp__copysign
  00137	66 0f 2f f0	 comisd	 xmm6, xmm0
  0013b	76 1a		 jbe	 SHORT $LN18@compiler_a@2

; 1024 :             t = PyTuple_Pack(3, o, o->ob_type, Py_None);

  0013d	4c 8b 43 58	 mov	 r8, QWORD PTR [rbx+88]
  00141	4c 8d 0d 00 00
	00 00		 lea	 r9, OFFSET FLAT:_Py_NoneStruct
  00148	48 8b d3	 mov	 rdx, rbx
$LN11@compiler_a@2:
  0014b	b9 03 00 00 00	 mov	 ecx, 3
  00150	e8 00 00 00 00	 call	 PyTuple_Pack

; 1025 :         else

  00155	eb 11		 jmp	 SHORT $LN27@compiler_a@2
$LN18@compiler_a@2:

; 1026 :             t = PyTuple_Pack(2, o, o->ob_type);

  00157	4c 8b 43 58	 mov	 r8, QWORD PTR [rbx+88]
  0015b	48 8b d3	 mov	 rdx, rbx
$LN9@compiler_a@2:
  0015e	b9 02 00 00 00	 mov	 ecx, 2
  00163	e8 00 00 00 00	 call	 PyTuple_Pack
$LN27@compiler_a@2:
  00168	0f 28 74 24 50	 movaps	 xmm6, XMMWORD PTR [rsp+80]
  0016d	48 8b d8	 mov	 rbx, rax

; 1054 :     }
; 1055 :     if (t == NULL)

  00170	48 85 c0	 test	 rax, rax

; 1056 :         return -1;

  00173	74 3c		 je	 SHORT $LN28@compiler_a@2

; 1057 : 
; 1058 :     v = PyDict_GetItem(dict, t);

  00175	48 8b d0	 mov	 rdx, rax
  00178	48 8b cd	 mov	 rcx, rbp
  0017b	e8 00 00 00 00	 call	 PyDict_GetItem

; 1059 :     if (!v) {

  00180	48 85 c0	 test	 rax, rax
  00183	75 62		 jne	 SHORT $LN5@compiler_a@2

; 1060 :         if (PyErr_Occurred())

  00185	e8 00 00 00 00	 call	 PyErr_Occurred
  0018a	48 85 c0	 test	 rax, rax

; 1061 :             return -1;

  0018d	75 22		 jne	 SHORT $LN28@compiler_a@2

; 1062 :         arg = PyDict_Size(dict);

  0018f	48 8b cd	 mov	 rcx, rbp
  00192	e8 00 00 00 00	 call	 PyDict_Size

; 1063 :         v = PyLong_FromLong(arg);

  00197	8b c8		 mov	 ecx, eax
  00199	48 8b f0	 mov	 rsi, rax
  0019c	e8 00 00 00 00	 call	 PyLong_FromLong
  001a1	48 8b f8	 mov	 rdi, rax

; 1064 :         if (!v) {

  001a4	48 85 c0	 test	 rax, rax
  001a7	75 0d		 jne	 SHORT $LN3@compiler_a@2

; 1065 :             Py_DECREF(t);

  001a9	48 8b cb	 mov	 rcx, rbx
  001ac	e8 00 00 00 00	 call	 _Py_DecRef
$LN28@compiler_a@2:

; 1066 :             return -1;

  001b1	83 c8 ff	 or	 eax, -1
  001b4	eb 46		 jmp	 SHORT $LN21@compiler_a@2
$LN3@compiler_a@2:

; 1067 :         }
; 1068 :         if (PyDict_SetItem(dict, t, v) < 0) {

  001b6	4c 8b c0	 mov	 r8, rax
  001b9	48 8b d3	 mov	 rdx, rbx
  001bc	48 8b cd	 mov	 rcx, rbp
  001bf	e8 00 00 00 00	 call	 PyDict_SetItem
  001c4	85 c0		 test	 eax, eax
  001c6	79 15		 jns	 SHORT $LN2@compiler_a@2

; 1069 :             Py_DECREF(t);

  001c8	48 8b cb	 mov	 rcx, rbx
  001cb	e8 00 00 00 00	 call	 _Py_DecRef

; 1070 :             Py_DECREF(v);

  001d0	48 8b cf	 mov	 rcx, rdi
  001d3	e8 00 00 00 00	 call	 _Py_DecRef

; 1071 :             return -1;

  001d8	83 c8 ff	 or	 eax, -1
  001db	eb 1f		 jmp	 SHORT $LN21@compiler_a@2
$LN2@compiler_a@2:

; 1072 :         }
; 1073 :         Py_DECREF(v);

  001dd	48 8b cf	 mov	 rcx, rdi
  001e0	e8 00 00 00 00	 call	 _Py_DecRef

; 1074 :     }
; 1075 :     else

  001e5	eb 0b		 jmp	 SHORT $LN1@compiler_a@2
$LN5@compiler_a@2:

; 1076 :         arg = PyLong_AsLong(v);

  001e7	48 8b c8	 mov	 rcx, rax
  001ea	e8 00 00 00 00	 call	 PyLong_AsLong
  001ef	48 63 f0	 movsxd	 rsi, eax
$LN1@compiler_a@2:

; 1077 :     Py_DECREF(t);

  001f2	48 8b cb	 mov	 rcx, rbx
  001f5	e8 00 00 00 00	 call	 _Py_DecRef

; 1078 :     return arg;

  001fa	8b c6		 mov	 eax, esi
$LN21@compiler_a@2:

; 1079 : }

  001fc	48 8b 5c 24 70	 mov	 rbx, QWORD PTR [rsp+112]
  00201	48 8b 6c 24 78	 mov	 rbp, QWORD PTR [rsp+120]
  00206	48 8b b4 24 80
	00 00 00	 mov	 rsi, QWORD PTR [rsp+128]
  0020e	48 83 c4 60	 add	 rsp, 96			; 00000060H
  00212	5f		 pop	 rdi
  00213	c3		 ret	 0
compiler_add_o ENDP
_TEXT	ENDS
;	COMDAT pdata
pdata	SEGMENT
$pdata$compiler_addop_i DD imagerel compiler_addop_i
	DD	imagerel compiler_addop_i+119
	DD	imagerel $unwind$compiler_addop_i
pdata	ENDS
;	COMDAT xdata
xdata	SEGMENT
$unwind$compiler_addop_i DD 060f01H
	DD	07640fH
	DD	06340fH
	DD	0700b320fH
; Function compile flags: /Ogtpy
xdata	ENDS
;	COMDAT compiler_addop_i
_TEXT	SEGMENT
c$ = 48
opcode$ = 56
oparg$ = 64
compiler_addop_i PROC					; COMDAT

; 1112 : {

  00000	48 89 5c 24 08	 mov	 QWORD PTR [rsp+8], rbx
  00005	48 89 74 24 10	 mov	 QWORD PTR [rsp+16], rsi
  0000a	57		 push	 rdi
  0000b	48 83 ec 20	 sub	 rsp, 32			; 00000020H
  0000f	48 8b d9	 mov	 rbx, rcx

; 1113 :     struct instr *i;
; 1114 :     int off;
; 1115 :     off = compiler_next_instr(c, c->u->u_curblock);

  00012	48 8b 49 38	 mov	 rcx, QWORD PTR [rcx+56]
  00016	41 8b f8	 mov	 edi, r8d
  00019	48 8b 49 60	 mov	 rcx, QWORD PTR [rcx+96]
  0001d	8b f2		 mov	 esi, edx
  0001f	e8 00 00 00 00	 call	 compiler_next_instr
  00024	48 63 d0	 movsxd	 rdx, eax

; 1116 :     if (off < 0)

  00027	85 c0		 test	 eax, eax
  00029	79 12		 jns	 SHORT $LN1@compiler_a@3

; 1117 :         return 0;

  0002b	33 c0		 xor	 eax, eax

; 1123 :     return 1;
; 1124 : }

  0002d	48 8b 5c 24 30	 mov	 rbx, QWORD PTR [rsp+48]
  00032	48 8b 74 24 38	 mov	 rsi, QWORD PTR [rsp+56]
  00037	48 83 c4 20	 add	 rsp, 32			; 00000020H
  0003b	5f		 pop	 rdi
  0003c	c3		 ret	 0
$LN1@compiler_a@3:

; 1118 :     i = &c->u->u_curblock->b_instr[off];

  0003d	48 8b 43 38	 mov	 rax, QWORD PTR [rbx+56]
  00041	48 8b 48 60	 mov	 rcx, QWORD PTR [rax+96]
  00045	48 8b c2	 mov	 rax, rdx
  00048	48 c1 e0 05	 shl	 rax, 5
  0004c	48 03 41 10	 add	 rax, QWORD PTR [rcx+16]

; 1119 :     i->i_opcode = opcode;
; 1120 :     i->i_oparg = oparg;
; 1121 :     i->i_hasarg = 1;
; 1122 :     compiler_set_lineno(c, off);

  00050	48 8b cb	 mov	 rcx, rbx
  00053	83 08 04	 or	 DWORD PTR [rax], 4
  00056	40 88 70 04	 mov	 BYTE PTR [rax+4], sil
  0005a	89 78 08	 mov	 DWORD PTR [rax+8], edi
  0005d	e8 00 00 00 00	 call	 compiler_set_lineno

; 1123 :     return 1;
; 1124 : }

  00062	48 8b 5c 24 30	 mov	 rbx, QWORD PTR [rsp+48]
  00067	48 8b 74 24 38	 mov	 rsi, QWORD PTR [rsp+56]
  0006c	b8 01 00 00 00	 mov	 eax, 1
  00071	48 83 c4 20	 add	 rsp, 32			; 00000020H
  00075	5f		 pop	 rdi
  00076	c3		 ret	 0
compiler_addop_i ENDP
_TEXT	ENDS
;	COMDAT pdata
pdata	SEGMENT
$pdata$compiler_addop_j DD imagerel compiler_addop_j
	DD	imagerel compiler_addop_j+138
	DD	imagerel $unwind$compiler_addop_j
pdata	ENDS
;	COMDAT xdata
xdata	SEGMENT
$unwind$compiler_addop_j DD 081401H
	DD	086414H
	DD	075414H
	DD	063414H
	DD	070103214H
; Function compile flags: /Ogtpy
xdata	ENDS
;	COMDAT compiler_addop_j
_TEXT	SEGMENT
c$ = 48
opcode$ = 56
b$ = 64
absolute$ = 72
compiler_addop_j PROC					; COMDAT

; 1128 : {

  00000	48 89 5c 24 08	 mov	 QWORD PTR [rsp+8], rbx
  00005	48 89 6c 24 10	 mov	 QWORD PTR [rsp+16], rbp
  0000a	48 89 74 24 18	 mov	 QWORD PTR [rsp+24], rsi
  0000f	57		 push	 rdi
  00010	48 83 ec 20	 sub	 rsp, 32			; 00000020H
  00014	48 8b d9	 mov	 rbx, rcx

; 1129 :     struct instr *i;
; 1130 :     int off;
; 1131 : 
; 1132 :     assert(b != NULL);
; 1133 :     off = compiler_next_instr(c, c->u->u_curblock);

  00017	48 8b 49 38	 mov	 rcx, QWORD PTR [rcx+56]
  0001b	41 8b f9	 mov	 edi, r9d
  0001e	48 8b 49 60	 mov	 rcx, QWORD PTR [rcx+96]
  00022	49 8b f0	 mov	 rsi, r8
  00025	8b ea		 mov	 ebp, edx
  00027	e8 00 00 00 00	 call	 compiler_next_instr
  0002c	4c 63 d8	 movsxd	 r11, eax

; 1134 :     if (off < 0)

  0002f	85 c0		 test	 eax, eax
  00031	79 04		 jns	 SHORT $LN3@compiler_a@4

; 1135 :         return 0;

  00033	33 c0		 xor	 eax, eax
  00035	eb 3e		 jmp	 SHORT $LN4@compiler_a@4
$LN3@compiler_a@4:

; 1136 :     i = &c->u->u_curblock->b_instr[off];

  00037	48 8b 43 38	 mov	 rax, QWORD PTR [rbx+56]
  0003b	49 8b d3	 mov	 rdx, r11
  0003e	48 8b 48 60	 mov	 rcx, QWORD PTR [rax+96]
  00042	48 c1 e2 05	 shl	 rdx, 5
  00046	48 03 51 10	 add	 rdx, QWORD PTR [rcx+16]

; 1137 :     i->i_opcode = opcode;
; 1138 :     i->i_target = b;
; 1139 :     i->i_hasarg = 1;

  0004a	83 0a 04	 or	 DWORD PTR [rdx], 4
  0004d	8b 02		 mov	 eax, DWORD PTR [rdx]
  0004f	40 88 6a 04	 mov	 BYTE PTR [rdx+4], bpl
  00053	48 89 72 10	 mov	 QWORD PTR [rdx+16], rsi

; 1140 :     if (absolute)

  00057	85 ff		 test	 edi, edi
  00059	74 05		 je	 SHORT $LN2@compiler_a@4

; 1141 :         i->i_jabs = 1;

  0005b	83 c8 01	 or	 eax, 1

; 1142 :     else

  0005e	eb 03		 jmp	 SHORT $LN6@compiler_a@4
$LN2@compiler_a@4:

; 1143 :         i->i_jrel = 1;

  00060	83 c8 02	 or	 eax, 2
$LN6@compiler_a@4:
  00063	89 02		 mov	 DWORD PTR [rdx], eax

; 1144 :     compiler_set_lineno(c, off);

  00065	48 8b cb	 mov	 rcx, rbx
  00068	41 8b d3	 mov	 edx, r11d
  0006b	e8 00 00 00 00	 call	 compiler_set_lineno

; 1145 :     return 1;

  00070	b8 01 00 00 00	 mov	 eax, 1
$LN4@compiler_a@4:

; 1146 : }

  00075	48 8b 5c 24 30	 mov	 rbx, QWORD PTR [rsp+48]
  0007a	48 8b 6c 24 38	 mov	 rbp, QWORD PTR [rsp+56]
  0007f	48 8b 74 24 40	 mov	 rsi, QWORD PTR [rsp+64]
  00084	48 83 c4 20	 add	 rsp, 32			; 00000020H
  00088	5f		 pop	 rdi
  00089	c3		 ret	 0
compiler_addop_j ENDP
; Function compile flags: /Ogtpy
_TEXT	ENDS
;	COMDAT compiler_isdocstring
_TEXT	SEGMENT
s$ = 8
compiler_isdocstring PROC				; COMDAT

; 1252 :     if (s->kind != Expr_kind)
; 1253 :         return 0;

  00000	33 c0		 xor	 eax, eax
  00002	83 39 12	 cmp	 DWORD PTR [rcx], 18
  00005	75 0a		 jne	 SHORT $LN2@compiler_i

; 1254 :     return s->v.Expr.value->kind == Str_kind;

  00007	48 8b 49 08	 mov	 rcx, QWORD PTR [rcx+8]
  0000b	83 39 11	 cmp	 DWORD PTR [rcx], 17
  0000e	0f 94 c0	 sete	 al
$LN2@compiler_i:

; 1255 : }

  00011	f3 c3		 fatret	 0
compiler_isdocstring ENDP
_TEXT	ENDS
PUBLIC	??_C@_0FA@EGMNBIBK@unknown?5scope?5for?5?$CF?4100s?5in?5?$CF?410@ ; `string'
EXTRN	PyOS_snprintf:PROC
EXTRN	PyUnicode_AsUTF8:PROC
EXTRN	PyObject_Repr:PROC
EXTRN	PyST_GetScope:PROC
;	COMDAT pdata
pdata	SEGMENT
$pdata$get_ref_type DD imagerel get_ref_type
	DD	imagerel get_ref_type+46
	DD	imagerel $unwind$get_ref_type
pdata	ENDS
;	COMDAT pdata
pdata	SEGMENT
$pdata$2$get_ref_type DD imagerel get_ref_type+46
	DD	imagerel get_ref_type+277
	DD	imagerel $chain$2$get_ref_type
pdata	ENDS
;	COMDAT pdata
pdata	SEGMENT
$pdata$3$get_ref_type DD imagerel get_ref_type+277
	DD	imagerel get_ref_type+290
	DD	imagerel $chain$3$get_ref_type
pdata	ENDS
;	COMDAT xdata
xdata	SEGMENT
$chain$3$get_ref_type DD 021H
	DD	imagerel get_ref_type
	DD	imagerel get_ref_type+46
	DD	imagerel $unwind$get_ref_type
xdata	ENDS
;	COMDAT xdata
xdata	SEGMENT
$chain$2$get_ref_type DD 061c21H
	DD	03c741cH
	DD	03b6410H
	DD	03a3408H
	DD	imagerel get_ref_type
	DD	imagerel get_ref_type+46
	DD	imagerel $unwind$get_ref_type
xdata	ENDS
;	COMDAT xdata
xdata	SEGMENT
$unwind$get_ref_type DD 050d01H
	DD	036010dH
	DD	0c004d006H
	DD	05002H
xdata	ENDS
;	COMDAT ??_C@_0FA@EGMNBIBK@unknown?5scope?5for?5?$CF?4100s?5in?5?$CF?410@
CONST	SEGMENT
??_C@_0FA@EGMNBIBK@unknown?5scope?5for?5?$CF?4100s?5in?5?$CF?410@ DB 'unk'
	DB	'nown scope for %.100s in %.100s(%s) in %s', 0aH, 'symbols: %s'
	DB	0aH, 'locals: %s', 0aH, 'globals: %s', 00H	; `string'
; Function compile flags: /Ogtpy
CONST	ENDS
;	COMDAT get_ref_type
_TEXT	SEGMENT
buf$22760 = 80
c$ = 464
name$ = 472
get_ref_type PROC					; COMDAT

; 1332 : {

  00000	40 55		 push	 rbp
  00002	41 54		 push	 r12
  00004	41 55		 push	 r13
  00006	48 81 ec b0 01
	00 00		 sub	 rsp, 432		; 000001b0H
  0000d	4c 8b e1	 mov	 r12, rcx

; 1333 :     int scope = PyST_GetScope(c->u->u_ste, name);

  00010	48 8b 49 38	 mov	 rcx, QWORD PTR [rcx+56]
  00014	4c 8b ea	 mov	 r13, rdx
  00017	48 8b 09	 mov	 rcx, QWORD PTR [rcx]
  0001a	e8 00 00 00 00	 call	 PyST_GetScope
  0001f	8b e8		 mov	 ebp, eax

; 1334 :     if (scope == 0) {

  00021	85 c0		 test	 eax, eax
  00023	0f 85 ec 00 00
	00		 jne	 $LN1@get_ref_ty

; 1335 :         char buf[350];
; 1336 :         PyOS_snprintf(buf, sizeof(buf),
; 1337 :                       "unknown scope for %.100s in %.100s(%s) in %s\n"
; 1338 :                       "symbols: %s\nlocals: %s\nglobals: %s",
; 1339 :                       PyBytes_AS_STRING(name),
; 1340 :                       PyBytes_AS_STRING(c->u->u_name),
; 1341 :                       PyObject_REPR(c->u->u_ste->ste_id),
; 1342 :                       c->c_filename,
; 1343 :                       PyObject_REPR(c->u->u_ste->ste_symbols),
; 1344 :                       PyObject_REPR(c->u->u_varnames),
; 1345 :                       PyObject_REPR(c->u->u_names)
; 1346 :         );

  00029	49 8b 4c 24 38	 mov	 rcx, QWORD PTR [r12+56]
  0002e	48 89 9c 24 d0
	01 00 00	 mov	 QWORD PTR [rsp+464], rbx
  00036	48 89 b4 24 d8
	01 00 00	 mov	 QWORD PTR [rsp+472], rsi
  0003e	48 8b 49 28	 mov	 rcx, QWORD PTR [rcx+40]
  00042	48 89 bc 24 e0
	01 00 00	 mov	 QWORD PTR [rsp+480], rdi
  0004a	e8 00 00 00 00	 call	 PyObject_Repr
  0004f	48 8b c8	 mov	 rcx, rax
  00052	e8 00 00 00 00	 call	 PyUnicode_AsUTF8
  00057	49 8b 4c 24 38	 mov	 rcx, QWORD PTR [r12+56]
  0005c	48 8b 49 30	 mov	 rcx, QWORD PTR [rcx+48]
  00060	48 8b f0	 mov	 rsi, rax
  00063	e8 00 00 00 00	 call	 PyObject_Repr
  00068	48 8b c8	 mov	 rcx, rax
  0006b	e8 00 00 00 00	 call	 PyUnicode_AsUTF8
  00070	49 8b 4c 24 38	 mov	 rcx, QWORD PTR [r12+56]
  00075	48 8b 09	 mov	 rcx, QWORD PTR [rcx]
  00078	48 8b f8	 mov	 rdi, rax
  0007b	48 8b 49 68	 mov	 rcx, QWORD PTR [rcx+104]
  0007f	e8 00 00 00 00	 call	 PyObject_Repr
  00084	48 8b c8	 mov	 rcx, rax
  00087	e8 00 00 00 00	 call	 PyUnicode_AsUTF8
  0008c	49 8b 4c 24 38	 mov	 rcx, QWORD PTR [r12+56]
  00091	48 8b 09	 mov	 rcx, QWORD PTR [rcx]
  00094	48 8b d8	 mov	 rbx, rax
  00097	48 8b 49 60	 mov	 rcx, QWORD PTR [rcx+96]
  0009b	e8 00 00 00 00	 call	 PyObject_Repr
  000a0	48 8b c8	 mov	 rcx, rax
  000a3	e8 00 00 00 00	 call	 PyUnicode_AsUTF8
  000a8	49 8b 4c 24 38	 mov	 rcx, QWORD PTR [r12+56]
  000ad	48 89 74 24 48	 mov	 QWORD PTR [rsp+72], rsi
  000b2	48 8b 51 08	 mov	 rdx, QWORD PTR [rcx+8]
  000b6	49 8b 0c 24	 mov	 rcx, QWORD PTR [r12]
  000ba	48 89 7c 24 40	 mov	 QWORD PTR [rsp+64], rdi
  000bf	48 83 c2 78	 add	 rdx, 120		; 00000078H
  000c3	48 89 5c 24 38	 mov	 QWORD PTR [rsp+56], rbx
  000c8	48 89 4c 24 30	 mov	 QWORD PTR [rsp+48], rcx
  000cd	48 89 44 24 28	 mov	 QWORD PTR [rsp+40], rax
  000d2	48 89 54 24 20	 mov	 QWORD PTR [rsp+32], rdx
  000d7	48 8d 4c 24 50	 lea	 rcx, QWORD PTR buf$22760[rsp]
  000dc	4d 8d 4d 78	 lea	 r9, QWORD PTR [r13+120]
  000e0	4c 8d 05 00 00
	00 00		 lea	 r8, OFFSET FLAT:??_C@_0FA@EGMNBIBK@unknown?5scope?5for?5?$CF?4100s?5in?5?$CF?410@
  000e7	ba 5e 01 00 00	 mov	 edx, 350		; 0000015eH
  000ec	e8 00 00 00 00	 call	 PyOS_snprintf

; 1347 :         Py_FatalError(buf);

  000f1	48 8d 4c 24 50	 lea	 rcx, QWORD PTR buf$22760[rsp]
  000f6	e8 00 00 00 00	 call	 Py_FatalError
  000fb	48 8b bc 24 e0
	01 00 00	 mov	 rdi, QWORD PTR [rsp+480]
  00103	48 8b b4 24 d8
	01 00 00	 mov	 rsi, QWORD PTR [rsp+472]
  0010b	48 8b 9c 24 d0
	01 00 00	 mov	 rbx, QWORD PTR [rsp+464]

; 1348 :     }
; 1349 : 
; 1350 :     return scope;

  00113	8b c5		 mov	 eax, ebp
$LN1@get_ref_ty:

; 1351 : }

  00115	48 81 c4 b0 01
	00 00		 add	 rsp, 432		; 000001b0H
  0011c	41 5d		 pop	 r13
  0011e	41 5c		 pop	 r12
  00120	5d		 pop	 rbp
  00121	c3		 ret	 0
get_ref_type ENDP
_TEXT	ENDS
;	COMDAT pdata
pdata	SEGMENT
$pdata$compiler_lookup_arg DD imagerel compiler_lookup_arg
	DD	imagerel compiler_lookup_arg+94
	DD	imagerel $unwind$compiler_lookup_arg
pdata	ENDS
;	COMDAT xdata
xdata	SEGMENT
$unwind$compiler_lookup_arg DD 040a01H
	DD	06340aH
	DD	07006320aH
; Function compile flags: /Ogtpy
xdata	ENDS
;	COMDAT compiler_lookup_arg
_TEXT	SEGMENT
dict$ = 48
name$ = 56
compiler_lookup_arg PROC				; COMDAT

; 1355 : {

  00000	48 89 5c 24 08	 mov	 QWORD PTR [rsp+8], rbx
  00005	57		 push	 rdi
  00006	48 83 ec 20	 sub	 rsp, 32			; 00000020H

; 1356 :     PyObject *k, *v;
; 1357 :     k = PyTuple_Pack(2, name, name->ob_type);

  0000a	4c 8b 42 58	 mov	 r8, QWORD PTR [rdx+88]
  0000e	48 8b d9	 mov	 rbx, rcx
  00011	b9 02 00 00 00	 mov	 ecx, 2
  00016	e8 00 00 00 00	 call	 PyTuple_Pack
  0001b	48 8b f8	 mov	 rdi, rax

; 1358 :     if (k == NULL)

  0001e	48 85 c0	 test	 rax, rax
  00021	75 0e		 jne	 SHORT $LN2@compiler_l
$LN5@compiler_l:

; 1359 :         return -1;

  00023	83 c8 ff	 or	 eax, -1

; 1365 : }

  00026	48 8b 5c 24 30	 mov	 rbx, QWORD PTR [rsp+48]
  0002b	48 83 c4 20	 add	 rsp, 32			; 00000020H
  0002f	5f		 pop	 rdi
  00030	c3		 ret	 0
$LN2@compiler_l:

; 1360 :     v = PyDict_GetItem(dict, k);

  00031	48 8b d0	 mov	 rdx, rax
  00034	48 8b cb	 mov	 rcx, rbx
  00037	e8 00 00 00 00	 call	 PyDict_GetItem

; 1361 :     Py_DECREF(k);

  0003c	48 8b cf	 mov	 rcx, rdi
  0003f	48 8b d8	 mov	 rbx, rax
  00042	e8 00 00 00 00	 call	 _Py_DecRef

; 1362 :     if (v == NULL)

  00047	48 85 db	 test	 rbx, rbx

; 1363 :         return -1;

  0004a	74 d7		 je	 SHORT $LN5@compiler_l

; 1364 :     return PyLong_AS_LONG(v);

  0004c	48 8b cb	 mov	 rcx, rbx

; 1365 : }

  0004f	48 8b 5c 24 30	 mov	 rbx, QWORD PTR [rsp+48]
  00054	48 83 c4 20	 add	 rsp, 32			; 00000020H
  00058	5f		 pop	 rdi
  00059	e9 00 00 00 00	 jmp	 PyLong_AsLong
compiler_lookup_arg ENDP
_TEXT	ENDS
;	COMDAT pdata
pdata	SEGMENT
$pdata$compiler_ifexp DD imagerel compiler_ifexp
	DD	imagerel compiler_ifexp+215
	DD	imagerel $unwind$compiler_ifexp
pdata	ENDS
;	COMDAT xdata
xdata	SEGMENT
$unwind$compiler_ifexp DD 083a01H
	DD	06643aH
	DD	08540fH
	DD	07340fH
	DD	0700b320fH
; Function compile flags: /Ogtpy
xdata	ENDS
;	COMDAT compiler_ifexp
_TEXT	SEGMENT
c$ = 48
e$ = 56
compiler_ifexp PROC					; COMDAT

; 1764 : {

  00000	48 89 5c 24 10	 mov	 QWORD PTR [rsp+16], rbx
  00005	48 89 6c 24 18	 mov	 QWORD PTR [rsp+24], rbp
  0000a	57		 push	 rdi
  0000b	48 83 ec 20	 sub	 rsp, 32			; 00000020H
  0000f	48 8b ea	 mov	 rbp, rdx
  00012	48 8b d9	 mov	 rbx, rcx

; 1765 :     basicblock *end, *next;
; 1766 : 
; 1767 :     assert(e->kind == IfExp_kind);
; 1768 :     end = compiler_new_block(c);

  00015	e8 00 00 00 00	 call	 compiler_new_block
  0001a	48 8b f8	 mov	 rdi, rax

; 1769 :     if (end == NULL)

  0001d	48 85 c0	 test	 rax, rax
  00020	75 10		 jne	 SHORT $LN7@compiler_i@2

; 1782 : }

  00022	48 8b 5c 24 38	 mov	 rbx, QWORD PTR [rsp+56]
  00027	48 8b 6c 24 40	 mov	 rbp, QWORD PTR [rsp+64]
  0002c	48 83 c4 20	 add	 rsp, 32			; 00000020H
  00030	5f		 pop	 rdi
  00031	c3		 ret	 0
$LN7@compiler_i@2:

; 1770 :         return 0;
; 1771 :     next = compiler_new_block(c);

  00032	48 8b cb	 mov	 rcx, rbx
  00035	48 89 74 24 30	 mov	 QWORD PTR [rsp+48], rsi
  0003a	e8 00 00 00 00	 call	 compiler_new_block
  0003f	48 8b f0	 mov	 rsi, rax

; 1772 :     if (next == NULL)

  00042	48 85 c0	 test	 rax, rax

; 1773 :         return 0;

  00045	74 67		 je	 SHORT $LN11@compiler_i@2

; 1774 :     VISIT(c, expr, e->v.IfExp.test);

  00047	48 8b 55 08	 mov	 rdx, QWORD PTR [rbp+8]
  0004b	48 8b cb	 mov	 rcx, rbx
  0004e	e8 00 00 00 00	 call	 compiler_visit_expr
  00053	85 c0		 test	 eax, eax
  00055	74 57		 je	 SHORT $LN11@compiler_i@2

; 1775 :     ADDOP_JABS(c, POP_JUMP_IF_FALSE, next);

  00057	41 b9 01 00 00
	00		 mov	 r9d, 1
  0005d	4c 8b c6	 mov	 r8, rsi
  00060	48 8b cb	 mov	 rcx, rbx
  00063	41 8d 51 71	 lea	 edx, QWORD PTR [r9+113]
  00067	e8 00 00 00 00	 call	 compiler_addop_j
  0006c	85 c0		 test	 eax, eax
  0006e	74 3e		 je	 SHORT $LN11@compiler_i@2

; 1776 :     VISIT(c, expr, e->v.IfExp.body);

  00070	48 8b 55 10	 mov	 rdx, QWORD PTR [rbp+16]
  00074	48 8b cb	 mov	 rcx, rbx
  00077	e8 00 00 00 00	 call	 compiler_visit_expr
  0007c	85 c0		 test	 eax, eax
  0007e	74 2e		 je	 SHORT $LN11@compiler_i@2

; 1777 :     ADDOP_JREL(c, JUMP_FORWARD, end);

  00080	45 33 c9	 xor	 r9d, r9d
  00083	4c 8b c7	 mov	 r8, rdi
  00086	48 8b cb	 mov	 rcx, rbx
  00089	41 8d 51 6e	 lea	 edx, QWORD PTR [r9+110]
  0008d	e8 00 00 00 00	 call	 compiler_addop_j
  00092	85 c0		 test	 eax, eax
  00094	74 18		 je	 SHORT $LN11@compiler_i@2

; 1778 :     compiler_use_next_block(c, next);

  00096	48 8b d6	 mov	 rdx, rsi
  00099	48 8b cb	 mov	 rcx, rbx
  0009c	e8 00 00 00 00	 call	 compiler_use_next_block

; 1779 :     VISIT(c, expr, e->v.IfExp.orelse);

  000a1	48 8b 55 18	 mov	 rdx, QWORD PTR [rbp+24]
  000a5	e8 00 00 00 00	 call	 compiler_visit_expr
  000aa	85 c0		 test	 eax, eax
  000ac	75 04		 jne	 SHORT $LN1@compiler_i@2
$LN11@compiler_i@2:
  000ae	33 c0		 xor	 eax, eax
  000b0	eb 10		 jmp	 SHORT $LN10@compiler_i@2
$LN1@compiler_i@2:

; 1780 :     compiler_use_next_block(c, end);

  000b2	48 8b d7	 mov	 rdx, rdi
  000b5	48 8b cb	 mov	 rcx, rbx
  000b8	e8 00 00 00 00	 call	 compiler_use_next_block

; 1781 :     return 1;

  000bd	b8 01 00 00 00	 mov	 eax, 1
$LN10@compiler_i@2:

; 1782 : }

  000c2	48 8b 74 24 30	 mov	 rsi, QWORD PTR [rsp+48]
  000c7	48 8b 5c 24 38	 mov	 rbx, QWORD PTR [rsp+56]
  000cc	48 8b 6c 24 40	 mov	 rbp, QWORD PTR [rsp+64]
  000d1	48 83 c4 20	 add	 rsp, 32			; 00000020H
  000d5	5f		 pop	 rdi
  000d6	c3		 ret	 0
compiler_ifexp ENDP
_TEXT	ENDS
PUBLIC	??_C@_0CD@LCCMHKOH@unary?5op?5?$CFd?5should?5not?5be?5possib@ ; `string'
EXTRN	PyErr_Format:PROC
EXTRN	PyExc_SystemError:QWORD
;	COMDAT pdata
pdata	SEGMENT
$pdata$unaryop DD imagerel unaryop
	DD	imagerel unaryop+91
	DD	imagerel $unwind$unaryop
pdata	ENDS
;	COMDAT xdata
xdata	SEGMENT
$unwind$unaryop DD 010401H
	DD	04204H
xdata	ENDS
;	COMDAT ??_C@_0CD@LCCMHKOH@unary?5op?5?$CFd?5should?5not?5be?5possib@
CONST	SEGMENT
??_C@_0CD@LCCMHKOH@unary?5op?5?$CFd?5should?5not?5be?5possib@ DB 'unary o'
	DB	'p %d should not be possible', 00H		; `string'
; Function compile flags: /Ogtpy
CONST	ENDS
;	COMDAT unaryop
_TEXT	SEGMENT
op$ = 48
unaryop	PROC						; COMDAT

; 2511 : {

  00000	48 83 ec 28	 sub	 rsp, 40			; 00000028H

; 2512 :     switch (op) {

  00004	8b d1		 mov	 edx, ecx
  00006	ff ca		 dec	 edx
  00008	74 47		 je	 SHORT $LN5@unaryop
  0000a	ff ca		 dec	 edx
  0000c	74 39		 je	 SHORT $LN4@unaryop
  0000e	ff ca		 dec	 edx
  00010	74 2b		 je	 SHORT $LN3@unaryop
  00012	ff ca		 dec	 edx
  00014	74 1d		 je	 SHORT $LN2@unaryop

; 2521 :     default:
; 2522 :         PyErr_Format(PyExc_SystemError,
; 2523 :             "unary op %d should not be possible", op);

  00016	44 8b c1	 mov	 r8d, ecx
  00019	48 8b 0d 00 00
	00 00		 mov	 rcx, QWORD PTR PyExc_SystemError
  00020	48 8d 15 00 00
	00 00		 lea	 rdx, OFFSET FLAT:??_C@_0CD@LCCMHKOH@unary?5op?5?$CFd?5should?5not?5be?5possib@
  00027	e8 00 00 00 00	 call	 PyErr_Format

; 2524 :         return 0;

  0002c	33 c0		 xor	 eax, eax

; 2525 :     }
; 2526 : }

  0002e	48 83 c4 28	 add	 rsp, 40			; 00000028H
  00032	c3		 ret	 0
$LN2@unaryop:

; 2519 :     case USub:
; 2520 :         return UNARY_NEGATIVE;

  00033	b8 0b 00 00 00	 mov	 eax, 11

; 2525 :     }
; 2526 : }

  00038	48 83 c4 28	 add	 rsp, 40			; 00000028H
  0003c	c3		 ret	 0
$LN3@unaryop:

; 2517 :     case UAdd:
; 2518 :         return UNARY_POSITIVE;

  0003d	b8 0a 00 00 00	 mov	 eax, 10

; 2525 :     }
; 2526 : }

  00042	48 83 c4 28	 add	 rsp, 40			; 00000028H
  00046	c3		 ret	 0
$LN4@unaryop:

; 2515 :     case Not:
; 2516 :         return UNARY_NOT;

  00047	b8 0c 00 00 00	 mov	 eax, 12

; 2525 :     }
; 2526 : }

  0004c	48 83 c4 28	 add	 rsp, 40			; 00000028H
  00050	c3		 ret	 0
$LN5@unaryop:

; 2513 :     case Invert:
; 2514 :         return UNARY_INVERT;

  00051	b8 0f 00 00 00	 mov	 eax, 15

; 2525 :     }
; 2526 : }

  00056	48 83 c4 28	 add	 rsp, 40			; 00000028H
  0005a	c3		 ret	 0
unaryop	ENDP
_TEXT	ENDS
PUBLIC	??_C@_0CE@HMDMBIJ@binary?5op?5?$CFd?5should?5not?5be?5possi@ ; `string'
;	COMDAT pdata
pdata	SEGMENT
$pdata$binop DD	imagerel binop
	DD	imagerel binop+236
	DD	imagerel $unwind$binop
pdata	ENDS
;	COMDAT xdata
xdata	SEGMENT
$unwind$binop DD 010401H
	DD	04204H
xdata	ENDS
;	COMDAT ??_C@_0CE@HMDMBIJ@binary?5op?5?$CFd?5should?5not?5be?5possi@
CONST	SEGMENT
??_C@_0CE@HMDMBIJ@binary?5op?5?$CFd?5should?5not?5be?5possi@ DB 'binary o'
	DB	'p %d should not be possible', 00H		; `string'
; Function compile flags: /Ogtpy
CONST	ENDS
;	COMDAT binop
_TEXT	SEGMENT
op$ = 48
binop	PROC						; COMDAT

; 2530 : {

  00000	48 83 ec 28	 sub	 rsp, 40			; 00000028H

; 2531 :     switch (op) {

  00004	8d 41 ff	 lea	 eax, DWORD PTR [rcx-1]
  00007	83 f8 0b	 cmp	 eax, 11
  0000a	0f 87 8e 00 00
	00		 ja	 $LN1@binop
  00010	4c 8d 05 00 00
	00 00		 lea	 r8, OFFSET FLAT:__ImageBase
  00017	48 98		 cdqe
  00019	41 8b 94 80 00
	00 00 00	 mov	 edx, DWORD PTR $LN18@binop[r8+rax*4]
  00021	49 03 d0	 add	 rdx, r8
  00024	ff e2		 jmp	 rdx
$LN13@binop:

; 2532 :     case Add:
; 2533 :         return BINARY_ADD;

  00026	b8 17 00 00 00	 mov	 eax, 23

; 2560 :     }
; 2561 : }

  0002b	48 83 c4 28	 add	 rsp, 40			; 00000028H
  0002f	c3		 ret	 0
$LN12@binop:

; 2534 :     case Sub:
; 2535 :         return BINARY_SUBTRACT;

  00030	b8 18 00 00 00	 mov	 eax, 24

; 2560 :     }
; 2561 : }

  00035	48 83 c4 28	 add	 rsp, 40			; 00000028H
  00039	c3		 ret	 0
$LN11@binop:

; 2536 :     case Mult:
; 2537 :         return BINARY_MULTIPLY;

  0003a	b8 14 00 00 00	 mov	 eax, 20

; 2560 :     }
; 2561 : }

  0003f	48 83 c4 28	 add	 rsp, 40			; 00000028H
  00043	c3		 ret	 0
$LN10@binop:

; 2538 :     case Div:
; 2539 :         return BINARY_TRUE_DIVIDE;

  00044	b8 1b 00 00 00	 mov	 eax, 27

; 2560 :     }
; 2561 : }

  00049	48 83 c4 28	 add	 rsp, 40			; 00000028H
  0004d	c3		 ret	 0
$LN9@binop:

; 2540 :     case Mod:
; 2541 :         return BINARY_MODULO;

  0004e	b8 16 00 00 00	 mov	 eax, 22

; 2560 :     }
; 2561 : }

  00053	48 83 c4 28	 add	 rsp, 40			; 00000028H
  00057	c3		 ret	 0
$LN8@binop:

; 2542 :     case Pow:
; 2543 :         return BINARY_POWER;

  00058	b8 13 00 00 00	 mov	 eax, 19

; 2560 :     }
; 2561 : }

  0005d	48 83 c4 28	 add	 rsp, 40			; 00000028H
  00061	c3		 ret	 0
$LN7@binop:

; 2544 :     case LShift:
; 2545 :         return BINARY_LSHIFT;

  00062	b8 3e 00 00 00	 mov	 eax, 62			; 0000003eH

; 2560 :     }
; 2561 : }

  00067	48 83 c4 28	 add	 rsp, 40			; 00000028H
  0006b	c3		 ret	 0
$LN6@binop:

; 2546 :     case RShift:
; 2547 :         return BINARY_RSHIFT;

  0006c	b8 3f 00 00 00	 mov	 eax, 63			; 0000003fH

; 2560 :     }
; 2561 : }

  00071	48 83 c4 28	 add	 rsp, 40			; 00000028H
  00075	c3		 ret	 0
$LN5@binop:

; 2548 :     case BitOr:
; 2549 :         return BINARY_OR;

  00076	b8 42 00 00 00	 mov	 eax, 66			; 00000042H

; 2560 :     }
; 2561 : }

  0007b	48 83 c4 28	 add	 rsp, 40			; 00000028H
  0007f	c3		 ret	 0
$LN4@binop:

; 2550 :     case BitXor:
; 2551 :         return BINARY_XOR;

  00080	b8 41 00 00 00	 mov	 eax, 65			; 00000041H

; 2560 :     }
; 2561 : }

  00085	48 83 c4 28	 add	 rsp, 40			; 00000028H
  00089	c3		 ret	 0
$LN3@binop:

; 2552 :     case BitAnd:
; 2553 :         return BINARY_AND;

  0008a	b8 40 00 00 00	 mov	 eax, 64			; 00000040H

; 2560 :     }
; 2561 : }

  0008f	48 83 c4 28	 add	 rsp, 40			; 00000028H
  00093	c3		 ret	 0
$LN2@binop:

; 2554 :     case FloorDiv:
; 2555 :         return BINARY_FLOOR_DIVIDE;

  00094	b8 1a 00 00 00	 mov	 eax, 26

; 2560 :     }
; 2561 : }

  00099	48 83 c4 28	 add	 rsp, 40			; 00000028H
  0009d	c3		 ret	 0
$LN1@binop:

; 2556 :     default:
; 2557 :         PyErr_Format(PyExc_SystemError,
; 2558 :             "binary op %d should not be possible", op);

  0009e	44 8b c1	 mov	 r8d, ecx
  000a1	48 8b 0d 00 00
	00 00		 mov	 rcx, QWORD PTR PyExc_SystemError
  000a8	48 8d 15 00 00
	00 00		 lea	 rdx, OFFSET FLAT:??_C@_0CE@HMDMBIJ@binary?5op?5?$CFd?5should?5not?5be?5possi@
  000af	e8 00 00 00 00	 call	 PyErr_Format

; 2559 :         return 0;

  000b4	33 c0		 xor	 eax, eax

; 2560 :     }
; 2561 : }

  000b6	48 83 c4 28	 add	 rsp, 40			; 00000028H
  000ba	c3		 ret	 0
  000bb	90		 npad	 1
$LN18@binop:
  000bc	00 00 00 00	 DD	 $LN13@binop
  000c0	00 00 00 00	 DD	 $LN12@binop
  000c4	00 00 00 00	 DD	 $LN11@binop
  000c8	00 00 00 00	 DD	 $LN10@binop
  000cc	00 00 00 00	 DD	 $LN9@binop
  000d0	00 00 00 00	 DD	 $LN8@binop
  000d4	00 00 00 00	 DD	 $LN7@binop
  000d8	00 00 00 00	 DD	 $LN6@binop
  000dc	00 00 00 00	 DD	 $LN5@binop
  000e0	00 00 00 00	 DD	 $LN4@binop
  000e4	00 00 00 00	 DD	 $LN3@binop
  000e8	00 00 00 00	 DD	 $LN2@binop
binop	ENDP
; Function compile flags: /Ogtpy
_TEXT	ENDS
;	COMDAT cmpop
_TEXT	SEGMENT
op$ = 8
cmpop	PROC						; COMDAT

; 2566 :     switch (op) {

  00000	ff c9		 dec	 ecx
  00002	83 f9 09	 cmp	 ecx, 9
  00005	77 4f		 ja	 SHORT $LN1@cmpop
  00007	48 8d 15 00 00
	00 00		 lea	 rdx, OFFSET FLAT:__ImageBase
  0000e	48 63 c1	 movsxd	 rax, ecx
  00011	8b 8c 82 00 00
	00 00		 mov	 ecx, DWORD PTR $LN16@cmpop[rdx+rax*4]
  00018	48 03 ca	 add	 rcx, rdx
  0001b	ff e1		 jmp	 rcx
$LN11@cmpop:

; 2567 :     case Eq:
; 2568 :         return PyCmp_EQ;

  0001d	b8 02 00 00 00	 mov	 eax, 2

; 2589 :     }
; 2590 : }

  00022	c3		 ret	 0
$LN10@cmpop:

; 2569 :     case NotEq:
; 2570 :         return PyCmp_NE;

  00023	b8 03 00 00 00	 mov	 eax, 3

; 2589 :     }
; 2590 : }

  00028	c3		 ret	 0
$LN9@cmpop:

; 2571 :     case Lt:
; 2572 :         return PyCmp_LT;

  00029	33 c0		 xor	 eax, eax

; 2589 :     }
; 2590 : }

  0002b	c3		 ret	 0
$LN8@cmpop:

; 2573 :     case LtE:
; 2574 :         return PyCmp_LE;

  0002c	b8 01 00 00 00	 mov	 eax, 1

; 2589 :     }
; 2590 : }

  00031	c3		 ret	 0
$LN7@cmpop:

; 2575 :     case Gt:
; 2576 :         return PyCmp_GT;

  00032	b8 04 00 00 00	 mov	 eax, 4

; 2589 :     }
; 2590 : }

  00037	c3		 ret	 0
$LN6@cmpop:

; 2577 :     case GtE:
; 2578 :         return PyCmp_GE;

  00038	b8 05 00 00 00	 mov	 eax, 5

; 2589 :     }
; 2590 : }

  0003d	c3		 ret	 0
$LN5@cmpop:

; 2579 :     case Is:
; 2580 :         return PyCmp_IS;

  0003e	b8 08 00 00 00	 mov	 eax, 8

; 2589 :     }
; 2590 : }

  00043	c3		 ret	 0
$LN4@cmpop:

; 2581 :     case IsNot:
; 2582 :         return PyCmp_IS_NOT;

  00044	b8 09 00 00 00	 mov	 eax, 9

; 2589 :     }
; 2590 : }

  00049	c3		 ret	 0
$LN3@cmpop:

; 2583 :     case In:
; 2584 :         return PyCmp_IN;

  0004a	b8 06 00 00 00	 mov	 eax, 6

; 2589 :     }
; 2590 : }

  0004f	c3		 ret	 0
$LN2@cmpop:

; 2585 :     case NotIn:
; 2586 :         return PyCmp_NOT_IN;

  00050	b8 07 00 00 00	 mov	 eax, 7

; 2589 :     }
; 2590 : }

  00055	c3		 ret	 0
$LN1@cmpop:

; 2587 :     default:
; 2588 :         return PyCmp_BAD;

  00056	b8 0b 00 00 00	 mov	 eax, 11

; 2589 :     }
; 2590 : }

  0005b	c3		 ret	 0
$LN16@cmpop:
  0005c	00 00 00 00	 DD	 $LN11@cmpop
  00060	00 00 00 00	 DD	 $LN10@cmpop
  00064	00 00 00 00	 DD	 $LN9@cmpop
  00068	00 00 00 00	 DD	 $LN8@cmpop
  0006c	00 00 00 00	 DD	 $LN7@cmpop
  00070	00 00 00 00	 DD	 $LN6@cmpop
  00074	00 00 00 00	 DD	 $LN5@cmpop
  00078	00 00 00 00	 DD	 $LN4@cmpop
  0007c	00 00 00 00	 DD	 $LN3@cmpop
  00080	00 00 00 00	 DD	 $LN2@cmpop
cmpop	ENDP
_TEXT	ENDS
PUBLIC	??_C@_0CM@LKMPPKN@inplace?5binary?5op?5?$CFd?5should?5not?5@ ; `string'
;	COMDAT pdata
pdata	SEGMENT
$pdata$inplace_binop DD imagerel inplace_binop
	DD	imagerel inplace_binop+236
	DD	imagerel $unwind$inplace_binop
pdata	ENDS
;	COMDAT xdata
xdata	SEGMENT
$unwind$inplace_binop DD 010401H
	DD	04204H
xdata	ENDS
;	COMDAT ??_C@_0CM@LKMPPKN@inplace?5binary?5op?5?$CFd?5should?5not?5@
CONST	SEGMENT
??_C@_0CM@LKMPPKN@inplace?5binary?5op?5?$CFd?5should?5not?5@ DB 'inplace '
	DB	'binary op %d should not be possible', 00H	; `string'
; Function compile flags: /Ogtpy
CONST	ENDS
;	COMDAT inplace_binop
_TEXT	SEGMENT
op$ = 48
inplace_binop PROC					; COMDAT

; 2594 : {

  00000	48 83 ec 28	 sub	 rsp, 40			; 00000028H

; 2595 :     switch (op) {

  00004	8d 41 ff	 lea	 eax, DWORD PTR [rcx-1]
  00007	83 f8 0b	 cmp	 eax, 11
  0000a	0f 87 8e 00 00
	00		 ja	 $LN1@inplace_bi
  00010	4c 8d 05 00 00
	00 00		 lea	 r8, OFFSET FLAT:__ImageBase
  00017	48 98		 cdqe
  00019	41 8b 94 80 00
	00 00 00	 mov	 edx, DWORD PTR $LN18@inplace_bi[r8+rax*4]
  00021	49 03 d0	 add	 rdx, r8
  00024	ff e2		 jmp	 rdx
$LN13@inplace_bi:

; 2596 :     case Add:
; 2597 :         return INPLACE_ADD;

  00026	b8 37 00 00 00	 mov	 eax, 55			; 00000037H

; 2624 :     }
; 2625 : }

  0002b	48 83 c4 28	 add	 rsp, 40			; 00000028H
  0002f	c3		 ret	 0
$LN12@inplace_bi:

; 2598 :     case Sub:
; 2599 :         return INPLACE_SUBTRACT;

  00030	b8 38 00 00 00	 mov	 eax, 56			; 00000038H

; 2624 :     }
; 2625 : }

  00035	48 83 c4 28	 add	 rsp, 40			; 00000028H
  00039	c3		 ret	 0
$LN11@inplace_bi:

; 2600 :     case Mult:
; 2601 :         return INPLACE_MULTIPLY;

  0003a	b8 39 00 00 00	 mov	 eax, 57			; 00000039H

; 2624 :     }
; 2625 : }

  0003f	48 83 c4 28	 add	 rsp, 40			; 00000028H
  00043	c3		 ret	 0
$LN10@inplace_bi:

; 2602 :     case Div:
; 2603 :         return INPLACE_TRUE_DIVIDE;

  00044	b8 1d 00 00 00	 mov	 eax, 29

; 2624 :     }
; 2625 : }

  00049	48 83 c4 28	 add	 rsp, 40			; 00000028H
  0004d	c3		 ret	 0
$LN9@inplace_bi:

; 2604 :     case Mod:
; 2605 :         return INPLACE_MODULO;

  0004e	b8 3b 00 00 00	 mov	 eax, 59			; 0000003bH

; 2624 :     }
; 2625 : }

  00053	48 83 c4 28	 add	 rsp, 40			; 00000028H
  00057	c3		 ret	 0
$LN8@inplace_bi:

; 2606 :     case Pow:
; 2607 :         return INPLACE_POWER;

  00058	b8 43 00 00 00	 mov	 eax, 67			; 00000043H

; 2624 :     }
; 2625 : }

  0005d	48 83 c4 28	 add	 rsp, 40			; 00000028H
  00061	c3		 ret	 0
$LN7@inplace_bi:

; 2608 :     case LShift:
; 2609 :         return INPLACE_LSHIFT;

  00062	b8 4b 00 00 00	 mov	 eax, 75			; 0000004bH

; 2624 :     }
; 2625 : }

  00067	48 83 c4 28	 add	 rsp, 40			; 00000028H
  0006b	c3		 ret	 0
$LN6@inplace_bi:

; 2610 :     case RShift:
; 2611 :         return INPLACE_RSHIFT;

  0006c	b8 4c 00 00 00	 mov	 eax, 76			; 0000004cH

; 2624 :     }
; 2625 : }

  00071	48 83 c4 28	 add	 rsp, 40			; 00000028H
  00075	c3		 ret	 0
$LN5@inplace_bi:

; 2612 :     case BitOr:
; 2613 :         return INPLACE_OR;

  00076	b8 4f 00 00 00	 mov	 eax, 79			; 0000004fH

; 2624 :     }
; 2625 : }

  0007b	48 83 c4 28	 add	 rsp, 40			; 00000028H
  0007f	c3		 ret	 0
$LN4@inplace_bi:

; 2614 :     case BitXor:
; 2615 :         return INPLACE_XOR;

  00080	b8 4e 00 00 00	 mov	 eax, 78			; 0000004eH

; 2624 :     }
; 2625 : }

  00085	48 83 c4 28	 add	 rsp, 40			; 00000028H
  00089	c3		 ret	 0
$LN3@inplace_bi:

; 2616 :     case BitAnd:
; 2617 :         return INPLACE_AND;

  0008a	b8 4d 00 00 00	 mov	 eax, 77			; 0000004dH

; 2624 :     }
; 2625 : }

  0008f	48 83 c4 28	 add	 rsp, 40			; 00000028H
  00093	c3		 ret	 0
$LN2@inplace_bi:

; 2618 :     case FloorDiv:
; 2619 :         return INPLACE_FLOOR_DIVIDE;

  00094	b8 1c 00 00 00	 mov	 eax, 28

; 2624 :     }
; 2625 : }

  00099	48 83 c4 28	 add	 rsp, 40			; 00000028H
  0009d	c3		 ret	 0
$LN1@inplace_bi:

; 2620 :     default:
; 2621 :         PyErr_Format(PyExc_SystemError,
; 2622 :             "inplace binary op %d should not be possible", op);

  0009e	44 8b c1	 mov	 r8d, ecx
  000a1	48 8b 0d 00 00
	00 00		 mov	 rcx, QWORD PTR PyExc_SystemError
  000a8	48 8d 15 00 00
	00 00		 lea	 rdx, OFFSET FLAT:??_C@_0CM@LKMPPKN@inplace?5binary?5op?5?$CFd?5should?5not?5@
  000af	e8 00 00 00 00	 call	 PyErr_Format

; 2623 :         return 0;

  000b4	33 c0		 xor	 eax, eax

; 2624 :     }
; 2625 : }

  000b6	48 83 c4 28	 add	 rsp, 40			; 00000028H
  000ba	c3		 ret	 0
  000bb	90		 npad	 1
$LN18@inplace_bi:
  000bc	00 00 00 00	 DD	 $LN13@inplace_bi
  000c0	00 00 00 00	 DD	 $LN12@inplace_bi
  000c4	00 00 00 00	 DD	 $LN11@inplace_bi
  000c8	00 00 00 00	 DD	 $LN10@inplace_bi
  000cc	00 00 00 00	 DD	 $LN9@inplace_bi
  000d0	00 00 00 00	 DD	 $LN8@inplace_bi
  000d4	00 00 00 00	 DD	 $LN7@inplace_bi
  000d8	00 00 00 00	 DD	 $LN6@inplace_bi
  000dc	00 00 00 00	 DD	 $LN5@inplace_bi
  000e0	00 00 00 00	 DD	 $LN4@inplace_bi
  000e4	00 00 00 00	 DD	 $LN3@inplace_bi
  000e8	00 00 00 00	 DD	 $LN2@inplace_bi
inplace_binop ENDP
_TEXT	ENDS
;	COMDAT pdata
pdata	SEGMENT
$pdata$compiler_boolop DD imagerel compiler_boolop
	DD	imagerel compiler_boolop+55
	DD	imagerel $unwind$compiler_boolop
pdata	ENDS
;	COMDAT pdata
pdata	SEGMENT
$pdata$1$compiler_boolop DD imagerel compiler_boolop+55
	DD	imagerel compiler_boolop+195
	DD	imagerel $chain$1$compiler_boolop
pdata	ENDS
;	COMDAT pdata
pdata	SEGMENT
$pdata$2$compiler_boolop DD imagerel compiler_boolop+195
	DD	imagerel compiler_boolop+215
	DD	imagerel $chain$2$compiler_boolop
pdata	ENDS
;	COMDAT xdata
xdata	SEGMENT
$chain$2$compiler_boolop DD 021H
	DD	imagerel compiler_boolop
	DD	imagerel compiler_boolop+55
	DD	imagerel $unwind$compiler_boolop
xdata	ENDS
;	COMDAT xdata
xdata	SEGMENT
$chain$1$compiler_boolop DD 040a21H
	DD	09c40aH
	DD	085405H
	DD	imagerel compiler_boolop
	DD	imagerel compiler_boolop+55
	DD	imagerel $unwind$compiler_boolop
xdata	ENDS
;	COMDAT xdata
xdata	SEGMENT
$unwind$compiler_boolop DD 081301H
	DD	0b6413H
	DD	0a3413H
	DD	0e00f3213H
	DD	0700bd00dH
; Function compile flags: /Ogtpy
xdata	ENDS
;	COMDAT compiler_boolop
_TEXT	SEGMENT
c$ = 64
e$ = 72
compiler_boolop PROC					; COMDAT

; 2748 : {

  00000	48 89 5c 24 18	 mov	 QWORD PTR [rsp+24], rbx
  00005	48 89 74 24 20	 mov	 QWORD PTR [rsp+32], rsi
  0000a	57		 push	 rdi
  0000b	41 55		 push	 r13
  0000d	41 56		 push	 r14
  0000f	48 83 ec 20	 sub	 rsp, 32			; 00000020H

; 2749 :     basicblock *end;
; 2750 :     int jumpi, i, n;
; 2751 :     asdl_seq *s;
; 2752 : 
; 2753 :     assert(e->kind == BoolOp_kind);
; 2754 :     if (e->v.BoolOp.op == And)

  00013	33 db		 xor	 ebx, ebx
  00015	83 7a 08 01	 cmp	 DWORD PTR [rdx+8], 1
  00019	48 8b fa	 mov	 rdi, rdx
  0001c	44 8b eb	 mov	 r13d, ebx
  0001f	41 0f 95 c5	 setne	 r13b
  00023	48 8b f1	 mov	 rsi, rcx

; 2755 :         jumpi = JUMP_IF_FALSE_OR_POP;
; 2756 :     else
; 2757 :         jumpi = JUMP_IF_TRUE_OR_POP;
; 2758 :     end = compiler_new_block(c);

  00026	e8 00 00 00 00	 call	 compiler_new_block
  0002b	4c 8b f0	 mov	 r14, rax

; 2759 :     if (end == NULL)

  0002e	48 85 c0	 test	 rax, rax
  00031	0f 84 8c 00 00
	00		 je	 $LN10@compiler_b
$LN7@compiler_b:
  00037	48 89 6c 24 40	 mov	 QWORD PTR [rsp+64], rbp
  0003c	4c 89 64 24 48	 mov	 QWORD PTR [rsp+72], r12

; 2760 :         return 0;
; 2761 :     s = e->v.BoolOp.values;

  00041	4c 8b 67 10	 mov	 r12, QWORD PTR [rdi+16]

; 2762 :     n = asdl_seq_LEN(s) - 1;

  00045	48 8b c3	 mov	 rax, rbx
  00048	4d 85 e4	 test	 r12, r12
  0004b	74 04		 je	 SHORT $LN13@compiler_b
  0004d	49 8b 04 24	 mov	 rax, QWORD PTR [r12]
$LN13@compiler_b:
  00051	ff c8		 dec	 eax

; 2763 :     assert(n >= 0);
; 2764 :     for (i = 0; i < n; ++i) {

  00053	48 63 e8	 movsxd	 rbp, eax
  00056	85 c0		 test	 eax, eax
  00058	7e 3a		 jle	 SHORT $LN4@compiler_b

; 2762 :     n = asdl_seq_LEN(s) - 1;

  0005a	49 8d 7c 24 08	 lea	 rdi, QWORD PTR [r12+8]
  0005f	90		 npad	 1
$LL6@compiler_b:

; 2765 :         VISIT(c, expr, (expr_ty)asdl_seq_GET(s, i));

  00060	48 8b 17	 mov	 rdx, QWORD PTR [rdi]
  00063	48 8b ce	 mov	 rcx, rsi
  00066	e8 00 00 00 00	 call	 compiler_visit_expr
  0006b	85 c0		 test	 eax, eax
  0006d	74 36		 je	 SHORT $LN15@compiler_b

; 2766 :         ADDOP_JABS(c, jumpi, end);

  0006f	41 8d 55 6f	 lea	 edx, DWORD PTR [r13+111]
  00073	41 b9 01 00 00
	00		 mov	 r9d, 1
  00079	4d 8b c6	 mov	 r8, r14
  0007c	48 8b ce	 mov	 rcx, rsi
  0007f	e8 00 00 00 00	 call	 compiler_addop_j
  00084	85 c0		 test	 eax, eax
  00086	74 1d		 je	 SHORT $LN15@compiler_b

; 2763 :     assert(n >= 0);
; 2764 :     for (i = 0; i < n; ++i) {

  00088	48 ff c3	 inc	 rbx
  0008b	48 83 c7 08	 add	 rdi, 8
  0008f	48 3b dd	 cmp	 rbx, rbp
  00092	7c cc		 jl	 SHORT $LL6@compiler_b
$LN4@compiler_b:

; 2767 :     }
; 2768 :     VISIT(c, expr, (expr_ty)asdl_seq_GET(s, n));

  00094	49 8b 54 ec 08	 mov	 rdx, QWORD PTR [r12+rbp*8+8]
  00099	48 8b ce	 mov	 rcx, rsi
  0009c	e8 00 00 00 00	 call	 compiler_visit_expr
  000a1	85 c0		 test	 eax, eax
  000a3	75 04		 jne	 SHORT $LN1@compiler_b
$LN15@compiler_b:
  000a5	33 c0		 xor	 eax, eax
  000a7	eb 10		 jmp	 SHORT $LN19@compiler_b
$LN1@compiler_b:

; 2769 :     compiler_use_next_block(c, end);

  000a9	49 8b d6	 mov	 rdx, r14
  000ac	48 8b ce	 mov	 rcx, rsi
  000af	e8 00 00 00 00	 call	 compiler_use_next_block

; 2770 :     return 1;

  000b4	b8 01 00 00 00	 mov	 eax, 1
$LN19@compiler_b:
  000b9	48 8b 6c 24 40	 mov	 rbp, QWORD PTR [rsp+64]
  000be	4c 8b 64 24 48	 mov	 r12, QWORD PTR [rsp+72]
$LN10@compiler_b:

; 2771 : }

  000c3	48 8b 5c 24 50	 mov	 rbx, QWORD PTR [rsp+80]
  000c8	48 8b 74 24 58	 mov	 rsi, QWORD PTR [rsp+88]
  000cd	48 83 c4 20	 add	 rsp, 32			; 00000020H
  000d1	41 5e		 pop	 r14
  000d3	41 5d		 pop	 r13
  000d5	5f		 pop	 rdi
  000d6	c3		 ret	 0
compiler_boolop ENDP
_TEXT	ENDS
;	COMDAT pdata
pdata	SEGMENT
$pdata$compiler_compare DD imagerel compiler_compare
	DD	imagerel compiler_compare+47
	DD	imagerel $unwind$compiler_compare
pdata	ENDS
;	COMDAT pdata
pdata	SEGMENT
$pdata$0$compiler_compare DD imagerel compiler_compare+47
	DD	imagerel compiler_compare+64
	DD	imagerel $chain$0$compiler_compare
pdata	ENDS
;	COMDAT pdata
pdata	SEGMENT
$pdata$3$compiler_compare DD imagerel compiler_compare+64
	DD	imagerel compiler_compare+420
	DD	imagerel $chain$3$compiler_compare
pdata	ENDS
;	COMDAT pdata
pdata	SEGMENT
$pdata$4$compiler_compare DD imagerel compiler_compare+420
	DD	imagerel compiler_compare+489
	DD	imagerel $chain$4$compiler_compare
pdata	ENDS
;	COMDAT pdata
pdata	SEGMENT
$pdata$6$compiler_compare DD imagerel compiler_compare+489
	DD	imagerel compiler_compare+535
	DD	imagerel $chain$6$compiler_compare
pdata	ENDS
;	COMDAT xdata
xdata	SEGMENT
$chain$6$compiler_compare DD 080021H
	DD	0bd400H
	DD	0a7400H
	DD	096400H
	DD	085400H
	DD	imagerel compiler_compare
	DD	imagerel compiler_compare+47
	DD	imagerel $unwind$compiler_compare
xdata	ENDS
;	COMDAT xdata
xdata	SEGMENT
$chain$4$compiler_compare DD 021H
	DD	imagerel compiler_compare+47
	DD	imagerel compiler_compare+64
	DD	imagerel $chain$0$compiler_compare
xdata	ENDS
;	COMDAT xdata
xdata	SEGMENT
$chain$3$compiler_compare DD 061421H
	DD	0bd414H
	DD	0a740aH
	DD	096405H
	DD	imagerel compiler_compare+47
	DD	imagerel compiler_compare+64
	DD	imagerel $chain$0$compiler_compare
xdata	ENDS
;	COMDAT xdata
xdata	SEGMENT
$chain$0$compiler_compare DD 020521H
	DD	085405H
	DD	imagerel compiler_compare
	DD	imagerel compiler_compare+47
	DD	imagerel $unwind$compiler_compare
xdata	ENDS
;	COMDAT xdata
xdata	SEGMENT
$unwind$compiler_compare DD 040a01H
	DD	0e006320aH
	DD	03002c004H
; Function compile flags: /Ogtpy
xdata	ENDS
;	COMDAT compiler_compare
_TEXT	SEGMENT
c$ = 64
e$ = 72
compiler_compare PROC					; COMDAT

; 2841 : {

  00000	40 53		 push	 rbx
  00002	41 54		 push	 r12
  00004	41 56		 push	 r14
  00006	48 83 ec 20	 sub	 rsp, 32			; 00000020H
  0000a	4c 8b e2	 mov	 r12, rdx

; 2842 :     int i, n;
; 2843 :     basicblock *cleanup = NULL;
; 2844 : 
; 2845 :     /* XXX the logic can be cleaned up for 1 or multiple comparisons */
; 2846 :     VISIT(c, expr, e->v.Compare.left);

  0000d	48 8b 52 08	 mov	 rdx, QWORD PTR [rdx+8]
  00011	48 8b d9	 mov	 rbx, rcx
  00014	45 33 f6	 xor	 r14d, r14d
  00017	e8 00 00 00 00	 call	 compiler_visit_expr
  0001c	85 c0		 test	 eax, eax
  0001e	75 0a		 jne	 SHORT $LN21@compiler_c

; 2882 : }

  00020	48 83 c4 20	 add	 rsp, 32			; 00000020H
  00024	41 5e		 pop	 r14
  00026	41 5c		 pop	 r12
  00028	5b		 pop	 rbx
  00029	c3		 ret	 0
$LN21@compiler_c:

; 2847 :     n = asdl_seq_LEN(e->v.Compare.ops);

  0002a	49 8b 44 24 10	 mov	 rax, QWORD PTR [r12+16]
  0002f	48 89 6c 24 40	 mov	 QWORD PTR [rsp+64], rbp
  00034	48 85 c0	 test	 rax, rax
  00037	0f 85 67 01 00
	00		 jne	 $LN24@compiler_c
  0003d	41 8b ee	 mov	 ebp, r14d
$LN18@compiler_c:
  00040	48 89 74 24 48	 mov	 QWORD PTR [rsp+72], rsi
  00045	48 89 7c 24 50	 mov	 QWORD PTR [rsp+80], rdi

; 2855 :     }
; 2856 :     for (i = 1; i < n; i++) {

  0004a	be 01 00 00 00	 mov	 esi, 1
  0004f	4c 89 6c 24 58	 mov	 QWORD PTR [rsp+88], r13
  00054	4c 63 ed	 movsxd	 r13, ebp
  00057	8b fe		 mov	 edi, esi
  00059	49 3b f5	 cmp	 rsi, r13
  0005c	0f 8d ad 00 00
	00		 jge	 $LN15@compiler_c
$LL17@compiler_c:

; 2857 :         ADDOP(c, DUP_TOP);

  00062	ba 04 00 00 00	 mov	 edx, 4
  00067	48 8b cb	 mov	 rcx, rbx
  0006a	e8 00 00 00 00	 call	 compiler_addop
  0006f	85 c0		 test	 eax, eax
  00071	0f 84 29 01 00
	00		 je	 $LN39@compiler_c

; 2858 :         ADDOP(c, ROT_THREE);

  00077	ba 03 00 00 00	 mov	 edx, 3
  0007c	48 8b cb	 mov	 rcx, rbx
  0007f	e8 00 00 00 00	 call	 compiler_addop
  00084	85 c0		 test	 eax, eax
  00086	0f 84 14 01 00
	00		 je	 $LN39@compiler_c

; 2859 :         ADDOP_I(c, COMPARE_OP,
; 2860 :             cmpop((cmpop_ty)(asdl_seq_GET(
; 2861 :                                       e->v.Compare.ops, i - 1))));

  0008c	49 8b 44 24 10	 mov	 rax, QWORD PTR [r12+16]
  00091	8b 4c b8 04	 mov	 ecx, DWORD PTR [rax+rdi*4+4]
  00095	e8 00 00 00 00	 call	 cmpop
  0009a	ba 6b 00 00 00	 mov	 edx, 107		; 0000006bH
  0009f	48 8b cb	 mov	 rcx, rbx
  000a2	44 8b c0	 mov	 r8d, eax
  000a5	e8 00 00 00 00	 call	 compiler_addop_i
  000aa	85 c0		 test	 eax, eax
  000ac	0f 84 ee 00 00
	00		 je	 $LN39@compiler_c

; 2862 :         ADDOP_JABS(c, JUMP_IF_FALSE_OR_POP, cleanup);

  000b2	41 b9 01 00 00
	00		 mov	 r9d, 1
  000b8	4d 8b c6	 mov	 r8, r14
  000bb	48 8b cb	 mov	 rcx, rbx
  000be	41 8d 51 6e	 lea	 edx, QWORD PTR [r9+110]
  000c2	e8 00 00 00 00	 call	 compiler_addop_j
  000c7	85 c0		 test	 eax, eax
  000c9	0f 84 d1 00 00
	00		 je	 $LN39@compiler_c

; 2863 :         NEXT_BLOCK(c);

  000cf	48 8b cb	 mov	 rcx, rbx
  000d2	e8 00 00 00 00	 call	 compiler_next_block
  000d7	48 85 c0	 test	 rax, rax
  000da	0f 84 c0 00 00
	00		 je	 $LN39@compiler_c

; 2864 :         if (i < (n - 1))

  000e0	8d 45 ff	 lea	 eax, DWORD PTR [rbp-1]
  000e3	3b f0		 cmp	 esi, eax
  000e5	7d 1a		 jge	 SHORT $LN16@compiler_c

; 2865 :             VISIT(c, expr,
; 2866 :                 (expr_ty)asdl_seq_GET(e->v.Compare.comparators, i));

  000e7	49 8b 54 24 18	 mov	 rdx, QWORD PTR [r12+24]
  000ec	48 8b cb	 mov	 rcx, rbx
  000ef	48 8b 54 fa 08	 mov	 rdx, QWORD PTR [rdx+rdi*8+8]
  000f4	e8 00 00 00 00	 call	 compiler_visit_expr
  000f9	85 c0		 test	 eax, eax
  000fb	0f 84 9f 00 00
	00		 je	 $LN39@compiler_c
$LN16@compiler_c:

; 2855 :     }
; 2856 :     for (i = 1; i < n; i++) {

  00101	48 ff c7	 inc	 rdi
  00104	ff c6		 inc	 esi
  00106	49 3b fd	 cmp	 rdi, r13
  00109	0f 8c 53 ff ff
	ff		 jl	 $LL17@compiler_c
$LN15@compiler_c:

; 2867 :     }
; 2868 :     VISIT(c, expr, (expr_ty)asdl_seq_GET(e->v.Compare.comparators, n - 1));

  0010f	49 8b 54 24 18	 mov	 rdx, QWORD PTR [r12+24]
  00114	48 8b cb	 mov	 rcx, rbx
  00117	4a 8b 14 ea	 mov	 rdx, QWORD PTR [rdx+r13*8]
  0011b	e8 00 00 00 00	 call	 compiler_visit_expr
  00120	85 c0		 test	 eax, eax
  00122	74 7c		 je	 SHORT $LN39@compiler_c

; 2869 :     ADDOP_I(c, COMPARE_OP,
; 2870 :            cmpop((cmpop_ty)(asdl_seq_GET(e->v.Compare.ops, n - 1))));

  00124	49 8b 44 24 10	 mov	 rax, QWORD PTR [r12+16]
  00129	42 8b 4c a8 04	 mov	 ecx, DWORD PTR [rax+r13*4+4]
  0012e	e8 00 00 00 00	 call	 cmpop
  00133	ba 6b 00 00 00	 mov	 edx, 107		; 0000006bH
  00138	48 8b cb	 mov	 rcx, rbx
  0013b	44 8b c0	 mov	 r8d, eax
  0013e	e8 00 00 00 00	 call	 compiler_addop_i
  00143	85 c0		 test	 eax, eax
  00145	74 59		 je	 SHORT $LN39@compiler_c

; 2871 :     if (n > 1) {

  00147	83 fd 01	 cmp	 ebp, 1
  0014a	0f 8e a4 00 00
	00		 jle	 $LN5@compiler_c

; 2872 :         basicblock *end = compiler_new_block(c);

  00150	48 8b cb	 mov	 rcx, rbx
  00153	e8 00 00 00 00	 call	 compiler_new_block
  00158	48 8b f8	 mov	 rdi, rax

; 2873 :         if (end == NULL)

  0015b	48 85 c0	 test	 rax, rax

; 2874 :             return 0;

  0015e	74 40		 je	 SHORT $LN39@compiler_c

; 2875 :         ADDOP_JREL(c, JUMP_FORWARD, end);

  00160	45 33 c9	 xor	 r9d, r9d
  00163	4c 8b c0	 mov	 r8, rax
  00166	48 8b cb	 mov	 rcx, rbx
  00169	41 8d 51 6e	 lea	 edx, QWORD PTR [r9+110]
  0016d	e8 00 00 00 00	 call	 compiler_addop_j
  00172	85 c0		 test	 eax, eax
  00174	74 2a		 je	 SHORT $LN39@compiler_c

; 2876 :         compiler_use_next_block(c, cleanup);

  00176	49 8b d6	 mov	 rdx, r14
  00179	48 8b cb	 mov	 rcx, rbx
  0017c	e8 00 00 00 00	 call	 compiler_use_next_block

; 2877 :         ADDOP(c, ROT_TWO);

  00181	ba 02 00 00 00	 mov	 edx, 2
  00186	e8 00 00 00 00	 call	 compiler_addop
  0018b	85 c0		 test	 eax, eax
  0018d	74 11		 je	 SHORT $LN39@compiler_c

; 2878 :         ADDOP(c, POP_TOP);

  0018f	ba 01 00 00 00	 mov	 edx, 1
  00194	48 8b cb	 mov	 rcx, rbx
  00197	e8 00 00 00 00	 call	 compiler_addop
  0019c	85 c0		 test	 eax, eax
  0019e	75 49		 jne	 SHORT $LN1@compiler_c
$LN39@compiler_c:
  001a0	33 c0		 xor	 eax, eax
  001a2	eb 55		 jmp	 SHORT $LN38@compiler_c
$LN24@compiler_c:

; 2847 :     n = asdl_seq_LEN(e->v.Compare.ops);

  001a4	8b 28		 mov	 ebp, DWORD PTR [rax]

; 2848 :     assert(n > 0);
; 2849 :     if (n > 1) {

  001a6	83 fd 01	 cmp	 ebp, 1
  001a9	0f 8e 91 fe ff
	ff		 jle	 $LN18@compiler_c

; 2850 :         cleanup = compiler_new_block(c);

  001af	48 8b cb	 mov	 rcx, rbx
  001b2	e8 00 00 00 00	 call	 compiler_new_block
  001b7	4c 8b f0	 mov	 r14, rax

; 2851 :         if (cleanup == NULL)

  001ba	48 85 c0	 test	 rax, rax

; 2852 :             return 0;

  001bd	74 19		 je	 SHORT $LN40@compiler_c

; 2853 :         VISIT(c, expr,
; 2854 :             (expr_ty)asdl_seq_GET(e->v.Compare.comparators, 0));

  001bf	49 8b 54 24 18	 mov	 rdx, QWORD PTR [r12+24]
  001c4	48 8b cb	 mov	 rcx, rbx
  001c7	48 8b 52 08	 mov	 rdx, QWORD PTR [rdx+8]
  001cb	e8 00 00 00 00	 call	 compiler_visit_expr
  001d0	85 c0		 test	 eax, eax
  001d2	0f 85 68 fe ff
	ff		 jne	 $LN18@compiler_c
$LN40@compiler_c:
  001d8	33 c0		 xor	 eax, eax
  001da	48 8b 6c 24 40	 mov	 rbp, QWORD PTR [rsp+64]

; 2882 : }

  001df	48 83 c4 20	 add	 rsp, 32			; 00000020H
  001e3	41 5e		 pop	 r14
  001e5	41 5c		 pop	 r12
  001e7	5b		 pop	 rbx
  001e8	c3		 ret	 0
$LN1@compiler_c:

; 2879 :         compiler_use_next_block(c, end);

  001e9	48 8b d7	 mov	 rdx, rdi
  001ec	48 8b cb	 mov	 rcx, rbx
  001ef	e8 00 00 00 00	 call	 compiler_use_next_block
$LN5@compiler_c:

; 2880 :     }
; 2881 :     return 1;

  001f4	b8 01 00 00 00	 mov	 eax, 1
$LN38@compiler_c:
  001f9	48 8b 7c 24 50	 mov	 rdi, QWORD PTR [rsp+80]
  001fe	48 8b 74 24 48	 mov	 rsi, QWORD PTR [rsp+72]
  00203	4c 8b 6c 24 58	 mov	 r13, QWORD PTR [rsp+88]
  00208	48 8b 6c 24 40	 mov	 rbp, QWORD PTR [rsp+64]

; 2882 : }

  0020d	48 83 c4 20	 add	 rsp, 32			; 00000020H
  00211	41 5e		 pop	 r14
  00213	41 5c		 pop	 r12
  00215	5b		 pop	 rbx
  00216	c3		 ret	 0
compiler_compare ENDP
_TEXT	ENDS
;	COMDAT pdata
pdata	SEGMENT
$pdata$compiler_comprehension_generator DD imagerel compiler_comprehension_generator
	DD	imagerel compiler_comprehension_generator+817
	DD	imagerel $unwind$compiler_comprehension_generator
pdata	ENDS
;	COMDAT xdata
xdata	SEGMENT
$unwind$compiler_comprehension_generator DD 061b01H
	DD	0e341bH
	DD	07017921bH
	DD	050156016H
; Function compile flags: /Ogtpy
xdata	ENDS
;	COMDAT compiler_comprehension_generator
_TEXT	SEGMENT
start$1$ = 48
skip$1$ = 56
if_cleanup$1$ = 64
anchor$1$ = 72
c$ = 112
generators$ = 120
gen_index$ = 128
elt$ = 136
val$ = 144
type$ = 152
compiler_comprehension_generator PROC			; COMDAT

; 2957 : {

  00000	48 89 5c 24 08	 mov	 QWORD PTR [rsp+8], rbx
  00005	4c 89 4c 24 20	 mov	 QWORD PTR [rsp+32], r9
  0000a	44 89 44 24 18	 mov	 DWORD PTR [rsp+24], r8d
  0000f	48 89 54 24 10	 mov	 QWORD PTR [rsp+16], rdx
  00014	55		 push	 rbp
  00015	56		 push	 rsi
  00016	57		 push	 rdi
  00017	48 83 ec 50	 sub	 rsp, 80			; 00000050H
  0001b	49 63 f8	 movsxd	 rdi, r8d
  0001e	48 8b ea	 mov	 rbp, rdx
  00021	48 8b d9	 mov	 rbx, rcx

; 2958 :     /* generate code for the iterator, then each of the ifs,
; 2959 :        and then write to the element */
; 2960 : 
; 2961 :     comprehension_ty gen;
; 2962 :     basicblock *start, *anchor, *skip, *if_cleanup;
; 2963 :     int i, n;
; 2964 : 
; 2965 :     start = compiler_new_block(c);

  00024	e8 00 00 00 00	 call	 compiler_new_block

; 2966 :     skip = compiler_new_block(c);

  00029	48 8b cb	 mov	 rcx, rbx
  0002c	48 89 44 24 30	 mov	 QWORD PTR start$1$[rsp], rax
  00031	e8 00 00 00 00	 call	 compiler_new_block

; 2967 :     if_cleanup = compiler_new_block(c);

  00036	48 8b cb	 mov	 rcx, rbx
  00039	48 89 44 24 38	 mov	 QWORD PTR skip$1$[rsp], rax
  0003e	e8 00 00 00 00	 call	 compiler_new_block

; 2968 :     anchor = compiler_new_block(c);

  00043	48 8b cb	 mov	 rcx, rbx
  00046	48 8b f0	 mov	 rsi, rax
  00049	48 89 44 24 40	 mov	 QWORD PTR if_cleanup$1$[rsp], rax
  0004e	e8 00 00 00 00	 call	 compiler_new_block

; 2969 : 
; 2970 :     if (start == NULL || skip == NULL || if_cleanup == NULL ||
; 2971 :         anchor == NULL)

  00053	48 83 7c 24 30
	00		 cmp	 QWORD PTR start$1$[rsp], 0
  00059	48 89 44 24 48	 mov	 QWORD PTR anchor$1$[rsp], rax
  0005e	74 38		 je	 SHORT $LN36@compiler_c@2
  00060	48 83 7c 24 38
	00		 cmp	 QWORD PTR skip$1$[rsp], 0
  00066	74 30		 je	 SHORT $LN36@compiler_c@2
  00068	48 85 f6	 test	 rsi, rsi
  0006b	74 2b		 je	 SHORT $LN36@compiler_c@2
  0006d	48 85 c0	 test	 rax, rax
  00070	74 26		 je	 SHORT $LN36@compiler_c@2

; 2973 : 
; 2974 :     gen = (comprehension_ty)asdl_seq_GET(generators, gen_index);

  00072	48 8b 6c fd 08	 mov	 rbp, QWORD PTR [rbp+rdi*8+8]

; 2975 : 
; 2976 :     if (gen_index == 0) {
; 2977 :         /* Receive outermost iter as an implicit argument */
; 2978 :         c->u->u_argcount = 1;
; 2979 :         ADDOP_I(c, LOAD_FAST, 0);

  00077	48 8b cb	 mov	 rcx, rbx
  0007a	85 ff		 test	 edi, edi
  0007c	75 29		 jne	 SHORT $LN35@compiler_c@2
  0007e	48 8b 43 38	 mov	 rax, QWORD PTR [rbx+56]
  00082	8d 57 7c	 lea	 edx, QWORD PTR [rdi+124]
  00085	45 33 c0	 xor	 r8d, r8d
  00088	c7 40 50 01 00
	00 00		 mov	 DWORD PTR [rax+80], 1
  0008f	e8 00 00 00 00	 call	 compiler_addop_i
  00094	85 c0		 test	 eax, eax
  00096	75 2d		 jne	 SHORT $LN31@compiler_c@2
$LN36@compiler_c@2:

; 2972 :         return 0;

  00098	33 c0		 xor	 eax, eax

; 3039 : 
; 3040 :     return 1;
; 3041 : }

  0009a	48 8b 5c 24 70	 mov	 rbx, QWORD PTR [rsp+112]
  0009f	48 83 c4 50	 add	 rsp, 80			; 00000050H
  000a3	5f		 pop	 rdi
  000a4	5e		 pop	 rsi
  000a5	5d		 pop	 rbp
  000a6	c3		 ret	 0
$LN35@compiler_c@2:

; 2980 :     }
; 2981 :     else {
; 2982 :         /* Sub-iter - calculate on the fly */
; 2983 :         VISIT(c, expr, gen->iter);

  000a7	48 8b 55 08	 mov	 rdx, QWORD PTR [rbp+8]
  000ab	e8 00 00 00 00	 call	 compiler_visit_expr
  000b0	85 c0		 test	 eax, eax
  000b2	74 e4		 je	 SHORT $LN36@compiler_c@2

; 2984 :         ADDOP(c, GET_ITER);

  000b4	ba 44 00 00 00	 mov	 edx, 68			; 00000044H
  000b9	48 8b cb	 mov	 rcx, rbx
  000bc	e8 00 00 00 00	 call	 compiler_addop
  000c1	85 c0		 test	 eax, eax
  000c3	74 d3		 je	 SHORT $LN36@compiler_c@2
$LN31@compiler_c@2:

; 2985 :     }
; 2986 :     compiler_use_next_block(c, start);

  000c5	48 8b 54 24 30	 mov	 rdx, QWORD PTR start$1$[rsp]
  000ca	48 8b cb	 mov	 rcx, rbx
  000cd	e8 00 00 00 00	 call	 compiler_use_next_block

; 2987 :     ADDOP_JREL(c, FOR_ITER, anchor);

  000d2	4c 8b 44 24 48	 mov	 r8, QWORD PTR anchor$1$[rsp]
  000d7	45 33 c9	 xor	 r9d, r9d
  000da	41 8d 51 5d	 lea	 edx, QWORD PTR [r9+93]
  000de	e8 00 00 00 00	 call	 compiler_addop_j
  000e3	85 c0		 test	 eax, eax
  000e5	74 b1		 je	 SHORT $LN36@compiler_c@2

; 2988 :     NEXT_BLOCK(c);

  000e7	48 8b cb	 mov	 rcx, rbx
  000ea	e8 00 00 00 00	 call	 compiler_next_block
  000ef	48 85 c0	 test	 rax, rax
  000f2	74 a4		 je	 SHORT $LN36@compiler_c@2

; 2989 :     VISIT(c, expr, gen->target);

  000f4	48 8b 55 00	 mov	 rdx, QWORD PTR [rbp]
  000f8	48 8b cb	 mov	 rcx, rbx
  000fb	e8 00 00 00 00	 call	 compiler_visit_expr
  00100	85 c0		 test	 eax, eax
  00102	74 94		 je	 SHORT $LN36@compiler_c@2

; 2990 : 
; 2991 :     /* XXX this needs to be cleaned up...a lot! */
; 2992 :     n = asdl_seq_LEN(gen->ifs);

  00104	48 8b 45 10	 mov	 rax, QWORD PTR [rbp+16]
  00108	33 c9		 xor	 ecx, ecx
  0010a	48 85 c0	 test	 rax, rax
  0010d	75 04		 jne	 SHORT $LN40@compiler_c@2
  0010f	8b c1		 mov	 eax, ecx
  00111	eb 02		 jmp	 SHORT $LN41@compiler_c@2
$LN40@compiler_c@2:
  00113	8b 00		 mov	 eax, DWORD PTR [rax]
$LN41@compiler_c@2:

; 2993 :     for (i = 0; i < n; i++) {

  00115	48 8b f9	 mov	 rdi, rcx
  00118	48 63 f0	 movsxd	 rsi, eax
  0011b	85 c0		 test	 eax, eax
  0011d	7e 54		 jle	 SHORT $LN25@compiler_c@2
  0011f	90		 npad	 1
$LL27@compiler_c@2:

; 2994 :         expr_ty e = (expr_ty)asdl_seq_GET(gen->ifs, i);

  00120	48 8b 45 10	 mov	 rax, QWORD PTR [rbp+16]

; 2995 :         VISIT(c, expr, e);

  00124	48 8b cb	 mov	 rcx, rbx
  00127	48 8b 54 f8 08	 mov	 rdx, QWORD PTR [rax+rdi*8+8]
  0012c	e8 00 00 00 00	 call	 compiler_visit_expr
  00131	85 c0		 test	 eax, eax
  00133	0f 84 5f ff ff
	ff		 je	 $LN36@compiler_c@2

; 2996 :         ADDOP_JABS(c, POP_JUMP_IF_FALSE, if_cleanup);

  00139	4c 8b 44 24 40	 mov	 r8, QWORD PTR if_cleanup$1$[rsp]
  0013e	41 b9 01 00 00
	00		 mov	 r9d, 1
  00144	48 8b cb	 mov	 rcx, rbx
  00147	41 8d 51 71	 lea	 edx, QWORD PTR [r9+113]
  0014b	e8 00 00 00 00	 call	 compiler_addop_j
  00150	85 c0		 test	 eax, eax
  00152	0f 84 40 ff ff
	ff		 je	 $LN36@compiler_c@2

; 2997 :         NEXT_BLOCK(c);

  00158	48 8b cb	 mov	 rcx, rbx
  0015b	e8 00 00 00 00	 call	 compiler_next_block
  00160	48 85 c0	 test	 rax, rax
  00163	0f 84 2f ff ff
	ff		 je	 $LN36@compiler_c@2

; 2993 :     for (i = 0; i < n; i++) {

  00169	48 ff c7	 inc	 rdi
  0016c	48 3b fe	 cmp	 rdi, rsi
  0016f	7c af		 jl	 SHORT $LL27@compiler_c@2

; 2997 :         NEXT_BLOCK(c);

  00171	33 c9		 xor	 ecx, ecx
$LN25@compiler_c@2:

; 2998 :     }
; 2999 : 
; 3000 :     if (++gen_index < asdl_seq_LEN(generators))

  00173	48 8b 54 24 78	 mov	 rdx, QWORD PTR generators$[rsp]
  00178	48 8b c1	 mov	 rax, rcx
  0017b	48 85 d2	 test	 rdx, rdx
  0017e	74 03		 je	 SHORT $LN43@compiler_c@2
  00180	48 8b 02	 mov	 rax, QWORD PTR [rdx]
$LN43@compiler_c@2:
  00183	8b 8c 24 80 00
	00 00		 mov	 ecx, DWORD PTR gen_index$[rsp]
  0018a	8b bc 24 98 00
	00 00		 mov	 edi, DWORD PTR type$[rsp]
  00191	48 8b ac 24 90
	00 00 00	 mov	 rbp, QWORD PTR val$[rsp]
  00199	ff c1		 inc	 ecx
  0019b	48 63 f1	 movsxd	 rsi, ecx
  0019e	89 8c 24 80 00
	00 00		 mov	 DWORD PTR gen_index$[rsp], ecx
  001a5	48 3b f0	 cmp	 rsi, rax
  001a8	7d 29		 jge	 SHORT $LN20@compiler_c@2

; 3001 :         if (!compiler_comprehension_generator(c,
; 3002 :                                               generators, gen_index,
; 3003 :                                               elt, val, type))

  001aa	4c 8b 8c 24 88
	00 00 00	 mov	 r9, QWORD PTR elt$[rsp]
  001b2	44 8b c1	 mov	 r8d, ecx
  001b5	48 8b cb	 mov	 rcx, rbx
  001b8	89 7c 24 28	 mov	 DWORD PTR [rsp+40], edi
  001bc	48 89 6c 24 20	 mov	 QWORD PTR [rsp+32], rbp
  001c1	e8 00 00 00 00	 call	 compiler_comprehension_generator
  001c6	85 c0		 test	 eax, eax

; 3004 :         return 0;

  001c8	0f 84 ca fe ff
	ff		 je	 $LN36@compiler_c@2

; 2957 : {

  001ce	48 8b 54 24 78	 mov	 rdx, QWORD PTR generators$[rsp]
$LN20@compiler_c@2:

; 3005 : 
; 3006 :     /* only append after the last for generator */
; 3007 :     if (gen_index >= asdl_seq_LEN(generators)) {

  001d3	48 85 d2	 test	 rdx, rdx
  001d6	75 04		 jne	 SHORT $LN44@compiler_c@2
  001d8	33 c0		 xor	 eax, eax
  001da	eb 03		 jmp	 SHORT $LN45@compiler_c@2
$LN44@compiler_c@2:
  001dc	48 8b 02	 mov	 rax, QWORD PTR [rdx]
$LN45@compiler_c@2:
  001df	48 3b f0	 cmp	 rsi, rax
  001e2	0f 8c 01 01 00
	00		 jl	 $LN19@compiler_c@2

; 3008 :         /* comprehension specific code */
; 3009 :         switch (type) {

  001e8	85 ff		 test	 edi, edi
  001ea	0f 84 aa 00 00
	00		 je	 $LN16@compiler_c@2
  001f0	ff cf		 dec	 edi
  001f2	0f 84 83 00 00
	00		 je	 $LN12@compiler_c@2
  001f8	ff cf		 dec	 edi
  001fa	74 60		 je	 SHORT $LN9@compiler_c@2
  001fc	ff cf		 dec	 edi

; 3029 :             break;
; 3030 :         default:
; 3031 :             return 0;

  001fe	0f 85 94 fe ff
	ff		 jne	 $LN36@compiler_c@2

; 3022 :             break;
; 3023 :         case COMP_DICTCOMP:
; 3024 :             /* With 'd[k] = v', v is evaluated before k, so we do
; 3025 :                the same. */
; 3026 :             VISIT(c, expr, val);

  00204	48 8b d5	 mov	 rdx, rbp
  00207	48 8b cb	 mov	 rcx, rbx
  0020a	e8 00 00 00 00	 call	 compiler_visit_expr
  0020f	85 c0		 test	 eax, eax
  00211	0f 84 81 fe ff
	ff		 je	 $LN36@compiler_c@2

; 3027 :             VISIT(c, expr, elt);

  00217	48 8b 94 24 88
	00 00 00	 mov	 rdx, QWORD PTR elt$[rsp]
  0021f	48 8b cb	 mov	 rcx, rbx
  00222	e8 00 00 00 00	 call	 compiler_visit_expr
  00227	85 c0		 test	 eax, eax
  00229	0f 84 69 fe ff
	ff		 je	 $LN36@compiler_c@2

; 3028 :             ADDOP_I(c, MAP_ADD, gen_index + 1);

  0022f	ba 93 00 00 00	 mov	 edx, 147		; 00000093H
$LN53@compiler_c@2:
  00234	44 8b 84 24 80
	00 00 00	 mov	 r8d, DWORD PTR gen_index$[rsp]
  0023c	48 8b cb	 mov	 rcx, rbx
  0023f	41 ff c0	 inc	 r8d
  00242	e8 00 00 00 00	 call	 compiler_addop_i
  00247	85 c0		 test	 eax, eax
  00249	0f 85 8d 00 00
	00		 jne	 $LN13@compiler_c@2

; 3039 : 
; 3040 :     return 1;
; 3041 : }

  0024f	48 8b 5c 24 70	 mov	 rbx, QWORD PTR [rsp+112]
  00254	48 83 c4 50	 add	 rsp, 80			; 00000050H
  00258	5f		 pop	 rdi
  00259	5e		 pop	 rsi
  0025a	5d		 pop	 rbp
  0025b	c3		 ret	 0
$LN9@compiler_c@2:

; 3018 :             break;
; 3019 :         case COMP_SETCOMP:
; 3020 :             VISIT(c, expr, elt);

  0025c	48 8b 94 24 88
	00 00 00	 mov	 rdx, QWORD PTR elt$[rsp]
  00264	48 8b cb	 mov	 rcx, rbx
  00267	e8 00 00 00 00	 call	 compiler_visit_expr
  0026c	85 c0		 test	 eax, eax
  0026e	0f 84 24 fe ff
	ff		 je	 $LN36@compiler_c@2

; 3021 :             ADDOP_I(c, SET_ADD, gen_index + 1);

  00274	ba 92 00 00 00	 mov	 edx, 146		; 00000092H
  00279	eb b9		 jmp	 SHORT $LN53@compiler_c@2
$LN12@compiler_c@2:

; 3014 :             break;
; 3015 :         case COMP_LISTCOMP:
; 3016 :             VISIT(c, expr, elt);

  0027b	48 8b 94 24 88
	00 00 00	 mov	 rdx, QWORD PTR elt$[rsp]
  00283	48 8b cb	 mov	 rcx, rbx
  00286	e8 00 00 00 00	 call	 compiler_visit_expr
  0028b	85 c0		 test	 eax, eax
  0028d	0f 84 05 fe ff
	ff		 je	 $LN36@compiler_c@2

; 3017 :             ADDOP_I(c, LIST_APPEND, gen_index + 1);

  00293	ba 91 00 00 00	 mov	 edx, 145		; 00000091H
  00298	eb 9a		 jmp	 SHORT $LN53@compiler_c@2
$LN16@compiler_c@2:

; 3010 :         case COMP_GENEXP:
; 3011 :             VISIT(c, expr, elt);

  0029a	48 8b 94 24 88
	00 00 00	 mov	 rdx, QWORD PTR elt$[rsp]
  002a2	48 8b cb	 mov	 rcx, rbx
  002a5	e8 00 00 00 00	 call	 compiler_visit_expr
  002aa	85 c0		 test	 eax, eax
  002ac	0f 84 e6 fd ff
	ff		 je	 $LN36@compiler_c@2

; 3012 :             ADDOP(c, YIELD_VALUE);

  002b2	ba 56 00 00 00	 mov	 edx, 86			; 00000056H
  002b7	48 8b cb	 mov	 rcx, rbx
  002ba	e8 00 00 00 00	 call	 compiler_addop
  002bf	85 c0		 test	 eax, eax
  002c1	0f 84 d1 fd ff
	ff		 je	 $LN36@compiler_c@2

; 3013 :             ADDOP(c, POP_TOP);

  002c7	ba 01 00 00 00	 mov	 edx, 1
  002cc	48 8b cb	 mov	 rcx, rbx
  002cf	e8 00 00 00 00	 call	 compiler_addop
  002d4	85 c0		 test	 eax, eax
  002d6	0f 84 bc fd ff
	ff		 je	 $LN36@compiler_c@2
$LN13@compiler_c@2:

; 3032 :         }
; 3033 : 
; 3034 :         compiler_use_next_block(c, skip);

  002dc	48 8b 54 24 38	 mov	 rdx, QWORD PTR skip$1$[rsp]
  002e1	48 8b cb	 mov	 rcx, rbx
  002e4	e8 00 00 00 00	 call	 compiler_use_next_block
$LN19@compiler_c@2:

; 3035 :     }
; 3036 :     compiler_use_next_block(c, if_cleanup);

  002e9	48 8b 54 24 40	 mov	 rdx, QWORD PTR if_cleanup$1$[rsp]
  002ee	48 8b cb	 mov	 rcx, rbx
  002f1	e8 00 00 00 00	 call	 compiler_use_next_block

; 3037 :     ADDOP_JABS(c, JUMP_ABSOLUTE, start);

  002f6	4c 8b 44 24 30	 mov	 r8, QWORD PTR start$1$[rsp]
  002fb	41 b9 01 00 00
	00		 mov	 r9d, 1
  00301	41 8d 51 70	 lea	 edx, QWORD PTR [r9+112]
  00305	e8 00 00 00 00	 call	 compiler_addop_j
  0030a	85 c0		 test	 eax, eax
  0030c	0f 84 86 fd ff
	ff		 je	 $LN36@compiler_c@2

; 3038 :     compiler_use_next_block(c, anchor);

  00312	48 8b 54 24 48	 mov	 rdx, QWORD PTR anchor$1$[rsp]
  00317	48 8b cb	 mov	 rcx, rbx
  0031a	e8 00 00 00 00	 call	 compiler_use_next_block

; 3039 : 
; 3040 :     return 1;
; 3041 : }

  0031f	48 8b 5c 24 70	 mov	 rbx, QWORD PTR [rsp+112]
  00324	b8 01 00 00 00	 mov	 eax, 1
  00329	48 83 c4 50	 add	 rsp, 80			; 00000050H
  0032d	5f		 pop	 rdi
  0032e	5e		 pop	 rsi
  0032f	5d		 pop	 rbp
  00330	c3		 ret	 0
compiler_comprehension_generator ENDP
_TEXT	ENDS
PUBLIC	??_C@_09PMJCCPKK@__debug__?$AA@			; `string'
PUBLIC	??_C@_04OHJIHAFH@None?$AA@			; `string'
PUBLIC	??_C@_05MKDOIIA@False?$AA@			; `string'
PUBLIC	??_C@_04HPMIDMKH@True?$AA@			; `string'
EXTRN	PyObject_IsTrue:PROC
;	COMDAT pdata
pdata	SEGMENT
$pdata$expr_constant DD imagerel expr_constant
	DD	imagerel expr_constant+37
	DD	imagerel $unwind$expr_constant
pdata	ENDS
;	COMDAT pdata
pdata	SEGMENT
$pdata$1$expr_constant DD imagerel expr_constant+37
	DD	imagerel expr_constant+105
	DD	imagerel $chain$1$expr_constant
pdata	ENDS
;	COMDAT pdata
pdata	SEGMENT
$pdata$3$expr_constant DD imagerel expr_constant+105
	DD	imagerel expr_constant+161
	DD	imagerel $chain$3$expr_constant
pdata	ENDS
;	COMDAT pdata
pdata	SEGMENT
$pdata$5$expr_constant DD imagerel expr_constant+161
	DD	imagerel expr_constant+204
	DD	imagerel $chain$5$expr_constant
pdata	ENDS
;	COMDAT pdata
pdata	SEGMENT
$pdata$7$expr_constant DD imagerel expr_constant+204
	DD	imagerel expr_constant+223
	DD	imagerel $chain$7$expr_constant
pdata	ENDS
;	COMDAT pdata
pdata	SEGMENT
$pdata$8$expr_constant DD imagerel expr_constant+223
	DD	imagerel expr_constant+248
	DD	imagerel $chain$8$expr_constant
pdata	ENDS
;	COMDAT xdata
xdata	SEGMENT
$chain$8$expr_constant DD 021H
	DD	imagerel expr_constant
	DD	imagerel expr_constant+37
	DD	imagerel $unwind$expr_constant
xdata	ENDS
;	COMDAT xdata
xdata	SEGMENT
$chain$7$expr_constant DD 040021H
	DD	077400H
	DD	066400H
	DD	imagerel expr_constant
	DD	imagerel expr_constant+37
	DD	imagerel $unwind$expr_constant
xdata	ENDS
;	COMDAT xdata
xdata	SEGMENT
$chain$5$expr_constant DD 040021H
	DD	077400H
	DD	066400H
	DD	imagerel expr_constant
	DD	imagerel expr_constant+37
	DD	imagerel $unwind$expr_constant
xdata	ENDS
;	COMDAT xdata
xdata	SEGMENT
$chain$3$expr_constant DD 040021H
	DD	077400H
	DD	066400H
	DD	imagerel expr_constant
	DD	imagerel expr_constant+37
	DD	imagerel $unwind$expr_constant
xdata	ENDS
;	COMDAT xdata
xdata	SEGMENT
$chain$1$expr_constant DD 040a21H
	DD	07740aH
	DD	066405H
	DD	imagerel expr_constant
	DD	imagerel expr_constant+37
	DD	imagerel $unwind$expr_constant
xdata	ENDS
;	COMDAT xdata
xdata	SEGMENT
$unwind$expr_constant DD 020601H
	DD	030023206H
xdata	ENDS
;	COMDAT ??_C@_09PMJCCPKK@__debug__?$AA@
CONST	SEGMENT
??_C@_09PMJCCPKK@__debug__?$AA@ DB '__debug__', 00H	; `string'
CONST	ENDS
;	COMDAT ??_C@_04OHJIHAFH@None?$AA@
CONST	SEGMENT
??_C@_04OHJIHAFH@None?$AA@ DB 'None', 00H		; `string'
CONST	ENDS
;	COMDAT ??_C@_05MKDOIIA@False?$AA@
CONST	SEGMENT
??_C@_05MKDOIIA@False?$AA@ DB 'False', 00H		; `string'
CONST	ENDS
;	COMDAT ??_C@_04HPMIDMKH@True?$AA@
CONST	SEGMENT
??_C@_04HPMIDMKH@True?$AA@ DB 'True', 00H		; `string'
; Function compile flags: /Ogtpy
CONST	ENDS
;	COMDAT expr_constant
_TEXT	SEGMENT
c$ = 48
e$ = 56
expr_constant PROC					; COMDAT

; 3188 : {

  00000	40 53		 push	 rbx
  00002	48 83 ec 20	 sub	 rsp, 32			; 00000020H

; 3189 :     char *id;
; 3190 :     switch (e->kind) {

  00006	8b 02		 mov	 eax, DWORD PTR [rdx]
  00008	48 8b d9	 mov	 rbx, rcx
  0000b	83 e8 10	 sub	 eax, 16
  0000e	0f 84 d6 00 00
	00		 je	 $LN7@expr_const
  00014	ff c8		 dec	 eax
  00016	0f 84 ce 00 00
	00		 je	 $LN7@expr_const
  0001c	83 e8 02	 sub	 eax, 2
  0001f	0f 84 ba 00 00
	00		 je	 $LN9@expr_const
  00025	48 89 74 24 30	 mov	 QWORD PTR [rsp+48], rsi
  0002a	48 89 7c 24 38	 mov	 QWORD PTR [rsp+56], rdi
  0002f	83 f8 04	 cmp	 eax, 4
  00032	0f 85 94 00 00
	00		 jne	 $LN2@expr_const

; 3197 :     case Name_kind:
; 3198 :         /* optimize away names that can't be reassigned */
; 3199 :         id = PyUnicode_AsUTF8(e->v.Name.id);

  00038	48 8b 4a 08	 mov	 rcx, QWORD PTR [rdx+8]
  0003c	e8 00 00 00 00	 call	 PyUnicode_AsUTF8

; 3200 :         if (strcmp(id, "True") == 0) return 1;

  00041	48 8d 3d 00 00
	00 00		 lea	 rdi, OFFSET FLAT:??_C@_04HPMIDMKH@True?$AA@
  00048	b9 05 00 00 00	 mov	 ecx, 5
  0004d	48 8b f0	 mov	 rsi, rax
  00050	f3 a6		 repe cmpsb
  00052	75 15		 jne	 SHORT $LN5@expr_const
  00054	48 8b 74 24 30	 mov	 rsi, QWORD PTR [rsp+48]
  00059	48 8b 7c 24 38	 mov	 rdi, QWORD PTR [rsp+56]
  0005e	b8 01 00 00 00	 mov	 eax, 1

; 3208 :     }
; 3209 : }

  00063	48 83 c4 20	 add	 rsp, 32			; 00000020H
  00067	5b		 pop	 rbx
  00068	c3		 ret	 0
$LN5@expr_const:

; 3201 :         if (strcmp(id, "False") == 0) return 0;

  00069	48 8d 3d 00 00
	00 00		 lea	 rdi, OFFSET FLAT:??_C@_05MKDOIIA@False?$AA@
  00070	48 8b f0	 mov	 rsi, rax
  00073	b9 06 00 00 00	 mov	 ecx, 6
  00078	f3 a6		 repe cmpsb
  0007a	74 13		 je	 SHORT $LN16@expr_const

; 3202 :         if (strcmp(id, "None") == 0) return 0;

  0007c	48 8d 3d 00 00
	00 00		 lea	 rdi, OFFSET FLAT:??_C@_04OHJIHAFH@None?$AA@
  00083	48 8b f0	 mov	 rsi, rax
  00086	b9 05 00 00 00	 mov	 ecx, 5
  0008b	f3 a6		 repe cmpsb
  0008d	75 12		 jne	 SHORT $LN3@expr_const
$LN16@expr_const:
  0008f	48 8b 74 24 30	 mov	 rsi, QWORD PTR [rsp+48]
  00094	48 8b 7c 24 38	 mov	 rdi, QWORD PTR [rsp+56]
  00099	33 c0		 xor	 eax, eax

; 3208 :     }
; 3209 : }

  0009b	48 83 c4 20	 add	 rsp, 32			; 00000020H
  0009f	5b		 pop	 rbx
  000a0	c3		 ret	 0
$LN3@expr_const:

; 3203 :         if (strcmp(id, "__debug__") == 0)

  000a1	48 8d 3d 00 00
	00 00		 lea	 rdi, OFFSET FLAT:??_C@_09PMJCCPKK@__debug__?$AA@
  000a8	48 8b f0	 mov	 rsi, rax
  000ab	b9 0a 00 00 00	 mov	 ecx, 10
  000b0	f3 a6		 repe cmpsb
  000b2	75 18		 jne	 SHORT $LN2@expr_const

; 3204 :             return ! c->c_optimize;

  000b4	48 8b 74 24 30	 mov	 rsi, QWORD PTR [rsp+48]
  000b9	48 8b 7c 24 38	 mov	 rdi, QWORD PTR [rsp+56]
  000be	33 c0		 xor	 eax, eax
  000c0	39 43 28	 cmp	 DWORD PTR [rbx+40], eax
  000c3	0f 94 c0	 sete	 al

; 3208 :     }
; 3209 : }

  000c6	48 83 c4 20	 add	 rsp, 32			; 00000020H
  000ca	5b		 pop	 rbx
  000cb	c3		 ret	 0
$LN2@expr_const:
  000cc	48 8b 74 24 30	 mov	 rsi, QWORD PTR [rsp+48]
  000d1	48 8b 7c 24 38	 mov	 rdi, QWORD PTR [rsp+56]

; 3205 :         /* fall through */
; 3206 :     default:
; 3207 :         return -1;

  000d6	83 c8 ff	 or	 eax, -1

; 3208 :     }
; 3209 : }

  000d9	48 83 c4 20	 add	 rsp, 32			; 00000020H
  000dd	5b		 pop	 rbx
  000de	c3		 ret	 0
$LN9@expr_const:

; 3191 :     case Ellipsis_kind:
; 3192 :         return 1;

  000df	b8 01 00 00 00	 mov	 eax, 1

; 3208 :     }
; 3209 : }

  000e4	48 83 c4 20	 add	 rsp, 32			; 00000020H
  000e8	5b		 pop	 rbx
  000e9	c3		 ret	 0
$LN7@expr_const:

; 3193 :     case Num_kind:
; 3194 :         return PyObject_IsTrue(e->v.Num.n);
; 3195 :     case Str_kind:
; 3196 :         return PyObject_IsTrue(e->v.Str.s);

  000ea	48 8b 4a 08	 mov	 rcx, QWORD PTR [rdx+8]

; 3208 :     }
; 3209 : }

  000ee	48 83 c4 20	 add	 rsp, 32			; 00000020H
  000f2	5b		 pop	 rbx
  000f3	e9 00 00 00 00	 jmp	 PyObject_IsTrue
expr_constant ENDP
_TEXT	ENDS
PUBLIC	??_C@_0CC@LMOHMEG@too?5many?5statically?5nested?5block@ ; `string'
;	COMDAT pdata
pdata	SEGMENT
$pdata$compiler_push_fblock DD imagerel compiler_push_fblock
	DD	imagerel compiler_push_fblock+81
	DD	imagerel $unwind$compiler_push_fblock
pdata	ENDS
;	COMDAT xdata
xdata	SEGMENT
$unwind$compiler_push_fblock DD 010401H
	DD	04204H
xdata	ENDS
;	COMDAT ??_C@_0CC@LMOHMEG@too?5many?5statically?5nested?5block@
CONST	SEGMENT
??_C@_0CC@LMOHMEG@too?5many?5statically?5nested?5block@ DB 'too many stat'
	DB	'ically nested blocks', 00H			; `string'
; Function compile flags: /Ogtpy
CONST	ENDS
;	COMDAT compiler_push_fblock
_TEXT	SEGMENT
c$ = 48
t$ = 56
b$ = 64
compiler_push_fblock PROC				; COMDAT

; 3507 : {

  00000	48 83 ec 28	 sub	 rsp, 40			; 00000028H

; 3508 :     struct fblockinfo *f;
; 3509 :     if (c->u->u_nfblocks >= CO_MAXBLOCKS) {

  00004	48 8b 41 38	 mov	 rax, QWORD PTR [rcx+56]
  00008	44 8b ca	 mov	 r9d, edx
  0000b	83 78 68 14	 cmp	 DWORD PTR [rax+104], 20
  0000f	7c 1a		 jl	 SHORT $LN1@compiler_p

; 3510 :         PyErr_SetString(PyExc_SystemError,
; 3511 :                         "too many statically nested blocks");

  00011	48 8b 0d 00 00
	00 00		 mov	 rcx, QWORD PTR PyExc_SystemError
  00018	48 8d 15 00 00
	00 00		 lea	 rdx, OFFSET FLAT:??_C@_0CC@LMOHMEG@too?5many?5statically?5nested?5block@
  0001f	e8 00 00 00 00	 call	 PyErr_SetString

; 3512 :         return 0;

  00024	33 c0		 xor	 eax, eax

; 3518 : }

  00026	48 83 c4 28	 add	 rsp, 40			; 00000028H
  0002a	c3		 ret	 0
$LN1@compiler_p:

; 3513 :     }
; 3514 :     f = &c->u->u_fblock[c->u->u_nfblocks++];

  0002b	48 8b d0	 mov	 rdx, rax
  0002e	48 63 40 68	 movsxd	 rax, DWORD PTR [rax+104]
  00032	48 8d 48 07	 lea	 rcx, QWORD PTR [rax+7]
  00036	48 03 c9	 add	 rcx, rcx
  00039	ff c0		 inc	 eax
  0003b	89 42 68	 mov	 DWORD PTR [rdx+104], eax

; 3515 :     f->fb_type = t;

  0003e	44 89 0c ca	 mov	 DWORD PTR [rdx+rcx*8], r9d

; 3516 :     f->fb_block = b;

  00042	4c 89 44 ca 08	 mov	 QWORD PTR [rdx+rcx*8+8], r8

; 3517 :     return 1;

  00047	b8 01 00 00 00	 mov	 eax, 1

; 3518 : }

  0004c	48 83 c4 28	 add	 rsp, 40			; 00000028H
  00050	c3		 ret	 0
compiler_push_fblock ENDP
; Function compile flags: /Ogtpy
_TEXT	ENDS
;	COMDAT compiler_pop_fblock
_TEXT	SEGMENT
c$ = 8
compiler_pop_fblock PROC				; COMDAT

; 3523 :     struct compiler_unit *u = c->u;

  00000	48 8b 41 38	 mov	 rax, QWORD PTR [rcx+56]

; 3524 :     assert(u->u_nfblocks > 0);
; 3525 :     u->u_nfblocks--;

  00004	ff 48 68	 dec	 DWORD PTR [rax+104]

; 3526 :     assert(u->u_fblock[u->u_nfblocks].fb_type == t);
; 3527 :     assert(u->u_fblock[u->u_nfblocks].fb_block == b);
; 3528 : }

  00007	c3		 ret	 0
compiler_pop_fblock ENDP
; Function compile flags: /Ogtpy
_TEXT	ENDS
;	COMDAT compiler_in_loop
_TEXT	SEGMENT
c$ = 8
compiler_in_loop PROC					; COMDAT

; 3532 :     int i;
; 3533 :     struct compiler_unit *u = c->u;

  00000	48 8b 41 38	 mov	 rax, QWORD PTR [rcx+56]

; 3534 :     for (i = 0; i < u->u_nfblocks; ++i) {

  00004	33 c9		 xor	 ecx, ecx
  00006	8b 50 68	 mov	 edx, DWORD PTR [rax+104]
  00009	85 d2		 test	 edx, edx
  0000b	7e 13		 jle	 SHORT $LN2@compiler_i@3

; 3532 :     int i;
; 3533 :     struct compiler_unit *u = c->u;

  0000d	48 83 c0 70	 add	 rax, 112		; 00000070H
$LL4@compiler_i@3:

; 3535 :         if (u->u_fblock[i].fb_type == LOOP)

  00011	83 38 00	 cmp	 DWORD PTR [rax], 0
  00014	74 0d		 je	 SHORT $LN8@compiler_i@3

; 3534 :     for (i = 0; i < u->u_nfblocks; ++i) {

  00016	ff c1		 inc	 ecx
  00018	48 83 c0 10	 add	 rax, 16
  0001c	3b ca		 cmp	 ecx, edx
  0001e	7c f1		 jl	 SHORT $LL4@compiler_i@3
$LN2@compiler_i@3:

; 3537 :     }
; 3538 :     return 0;

  00020	33 c0		 xor	 eax, eax

; 3539 : }

  00022	c3		 ret	 0
$LN8@compiler_i@3:

; 3536 :             return 1;

  00023	b8 01 00 00 00	 mov	 eax, 1

; 3539 : }

  00028	c3		 ret	 0
compiler_in_loop ENDP
_TEXT	ENDS
PUBLIC	??_C@_04PDGOHJMJ@?$CIzO?$CJ?$AA@		; `string'
PUBLIC	??_C@_06INEDBHGA@?$CIOiiO?$CJ?$AA@		; `string'
EXTRN	PyErr_SetObject:PROC
EXTRN	PyExc_SyntaxError:QWORD
EXTRN	Py_BuildValue:PROC
EXTRN	PyErr_ProgramText:PROC
;	COMDAT pdata
; File c:\src\pyparallel\include\object.h
pdata	SEGMENT
$pdata$compiler_error DD imagerel compiler_error
	DD	imagerel compiler_error+457
	DD	imagerel $unwind$compiler_error
pdata	ENDS
;	COMDAT xdata
xdata	SEGMENT
$unwind$compiler_error DD 081401H
	DD	0a6414H
	DD	095414H
	DD	083414H
	DD	070105214H
xdata	ENDS
;	COMDAT ??_C@_04PDGOHJMJ@?$CIzO?$CJ?$AA@
CONST	SEGMENT
??_C@_04PDGOHJMJ@?$CIzO?$CJ?$AA@ DB '(zO)', 00H		; `string'
CONST	ENDS
;	COMDAT ??_C@_06INEDBHGA@?$CIOiiO?$CJ?$AA@
CONST	SEGMENT
??_C@_06INEDBHGA@?$CIOiiO?$CJ?$AA@ DB '(OiiO)', 00H	; `string'
; Function compile flags: /Ogtpy
; File c:\src\pyparallel\python\compile.c
CONST	ENDS
;	COMDAT compiler_error
_TEXT	SEGMENT
c$ = 64
errstr$ = 72
compiler_error PROC					; COMDAT

; 3546 : {

  00000	48 89 5c 24 08	 mov	 QWORD PTR [rsp+8], rbx
  00005	48 89 6c 24 10	 mov	 QWORD PTR [rsp+16], rbp
  0000a	48 89 74 24 18	 mov	 QWORD PTR [rsp+24], rsi
  0000f	57		 push	 rdi
  00010	48 83 ec 30	 sub	 rsp, 48			; 00000030H

; 3547 :     PyObject *loc;
; 3548 :     PyObject *u = NULL, *v = NULL;
; 3549 : 
; 3550 :     loc = PyErr_ProgramText(c->c_filename, c->u->u_lineno);

  00014	48 8b 41 38	 mov	 rax, QWORD PTR [rcx+56]
  00018	48 8b ea	 mov	 rbp, rdx
  0001b	48 8b f9	 mov	 rdi, rcx
  0001e	48 8b 09	 mov	 rcx, QWORD PTR [rcx]
  00021	8b 90 b4 01 00
	00		 mov	 edx, DWORD PTR [rax+436]
  00027	33 db		 xor	 ebx, ebx
  00029	e8 00 00 00 00	 call	 PyErr_ProgramText
  0002e	48 8b f0	 mov	 rsi, rax

; 3551 :     if (!loc) {

  00031	48 85 c0	 test	 rax, rax
  00034	75 48		 jne	 SHORT $LN15@compiler_e@2

; 3552 :         Py_INCREF(Py_None);

  00036	e8 00 00 00 00	 call	 _Py_PXCTX
  0003b	48 8d 35 00 00
	00 00		 lea	 rsi, OFFSET FLAT:_Py_NoneStruct
  00042	85 c0		 test	 eax, eax
  00044	75 38		 jne	 SHORT $LN15@compiler_e@2
  00046	48 8d 15 00 00
	00 00		 lea	 rdx, OFFSET FLAT:??_C@_0CD@HDJFDCDP@c?3?2src?2pyparallel?2include?2object@
  0004d	48 8d 0d 00 00
	00 00		 lea	 rcx, OFFSET FLAT:??_C@_0L@DHGMCEID@_Py_IncRef?$AA@
  00054	4c 8b ce	 mov	 r9, rsi
  00057	41 b8 89 03 00
	00		 mov	 r8d, 905		; 00000389H
  0005d	c7 44 24 20 02
	00 00 00	 mov	 DWORD PTR [rsp+32], 2
  00065	e8 00 00 00 00	 call	 _PyParallel_Guard
  0006a	85 c0		 test	 eax, eax
  0006c	75 09		 jne	 SHORT $LN14@compiler_e@2
  0006e	f6 05 20 00 00
	00 20		 test	 BYTE PTR _Py_NoneStruct+32, 32 ; 00000020H
  00075	74 07		 je	 SHORT $LN15@compiler_e@2
$LN14@compiler_e@2:
  00077	48 ff 05 50 00
	00 00		 inc	 QWORD PTR _Py_NoneStruct+80
$LN15@compiler_e@2:

; 3553 :         loc = Py_None;
; 3554 :     }
; 3555 :     u = Py_BuildValue("(OiiO)", c->c_filename_obj, c->u->u_lineno,
; 3556 :                       c->u->u_col_offset, loc);

  0007e	48 8b 47 38	 mov	 rax, QWORD PTR [rdi+56]
  00082	48 8b 57 08	 mov	 rdx, QWORD PTR [rdi+8]
  00086	48 8d 0d 00 00
	00 00		 lea	 rcx, OFFSET FLAT:??_C@_06INEDBHGA@?$CIOiiO?$CJ?$AA@
  0008d	44 8b 88 b8 01
	00 00		 mov	 r9d, DWORD PTR [rax+440]
  00094	44 8b 80 b4 01
	00 00		 mov	 r8d, DWORD PTR [rax+436]
  0009b	48 89 74 24 20	 mov	 QWORD PTR [rsp+32], rsi
  000a0	e8 00 00 00 00	 call	 Py_BuildValue
  000a5	48 8b f8	 mov	 rdi, rax

; 3557 :     if (!u)

  000a8	48 85 c0	 test	 rax, rax
  000ab	74 29		 je	 SHORT $exit$24545

; 3558 :         goto exit;
; 3559 :     v = Py_BuildValue("(zO)", errstr, u);

  000ad	48 8d 0d 00 00
	00 00		 lea	 rcx, OFFSET FLAT:??_C@_04PDGOHJMJ@?$CIzO?$CJ?$AA@
  000b4	4c 8b c0	 mov	 r8, rax
  000b7	48 8b d5	 mov	 rdx, rbp
  000ba	e8 00 00 00 00	 call	 Py_BuildValue
  000bf	48 8b d8	 mov	 rbx, rax

; 3560 :     if (!v)

  000c2	48 85 c0	 test	 rax, rax
  000c5	74 0f		 je	 SHORT $exit$24545

; 3561 :         goto exit;
; 3562 :     PyErr_SetObject(PyExc_SyntaxError, v);

  000c7	48 8b 0d 00 00
	00 00		 mov	 rcx, QWORD PTR PyExc_SyntaxError
  000ce	48 8b d0	 mov	 rdx, rax
  000d1	e8 00 00 00 00	 call	 PyErr_SetObject
$exit$24545:

; 3563 :  exit:
; 3564 :     Py_DECREF(loc);

  000d6	48 8b ce	 mov	 rcx, rsi
  000d9	e8 00 00 00 00	 call	 _Py_DecRef

; 3565 :     Py_XDECREF(u);

  000de	48 85 ff	 test	 rdi, rdi
  000e1	74 65		 je	 SHORT $LN7@compiler_e@2
  000e3	e8 00 00 00 00	 call	 _Py_PXCTX
  000e8	85 c0		 test	 eax, eax
  000ea	75 5c		 jne	 SHORT $LN7@compiler_e@2
  000ec	48 8b 47 20	 mov	 rax, QWORD PTR [rdi+32]
  000f0	a8 20		 test	 al, 32			; 00000020H
  000f2	75 4c		 jne	 SHORT $LN22@compiler_e@2
  000f4	84 c0		 test	 al, al
  000f6	78 48		 js	 SHORT $LN22@compiler_e@2
  000f8	a8 02		 test	 al, 2
  000fa	75 4c		 jne	 SHORT $LN7@compiler_e@2
  000fc	48 ff 4f 50	 dec	 QWORD PTR [rdi+80]
  00100	75 46		 jne	 SHORT $LN7@compiler_e@2
  00102	48 8d 15 00 00
	00 00		 lea	 rdx, OFFSET FLAT:??_C@_0CD@HDJFDCDP@c?3?2src?2pyparallel?2include?2object@
  00109	48 8d 0d 00 00
	00 00		 lea	 rcx, OFFSET FLAT:??_C@_0L@DMHMLFIA@_Py_DecRef?$AA@
  00110	4c 8b cf	 mov	 r9, rdi
  00113	41 b8 a4 03 00
	00		 mov	 r8d, 932		; 000003a4H
  00119	c7 44 24 20 10
	00 00 00	 mov	 DWORD PTR [rsp+32], 16
  00121	e8 00 00 00 00	 call	 _PyParallel_Guard
  00126	48 8b cf	 mov	 rcx, rdi
  00129	85 c0		 test	 eax, eax
  0012b	74 07		 je	 SHORT $LN27@compiler_e@2
  0012d	e8 00 00 00 00	 call	 _Px_Dealloc
  00132	eb 14		 jmp	 SHORT $LN7@compiler_e@2
$LN27@compiler_e@2:
  00134	48 8b 47 58	 mov	 rax, QWORD PTR [rdi+88]
  00138	ff 90 88 00 00
	00		 call	 QWORD PTR [rax+136]
  0013e	eb 08		 jmp	 SHORT $LN7@compiler_e@2
$LN22@compiler_e@2:
  00140	48 8b cf	 mov	 rcx, rdi
  00143	e8 00 00 00 00	 call	 Px_DecRef
$LN7@compiler_e@2:

; 3566 :     Py_XDECREF(v);

  00148	48 85 db	 test	 rbx, rbx
  0014b	74 65		 je	 SHORT $LN42@compiler_e@2
  0014d	e8 00 00 00 00	 call	 _Py_PXCTX
  00152	85 c0		 test	 eax, eax
  00154	75 5c		 jne	 SHORT $LN42@compiler_e@2
  00156	48 8b 43 20	 mov	 rax, QWORD PTR [rbx+32]
  0015a	a8 20		 test	 al, 32			; 00000020H
  0015c	75 4c		 jne	 SHORT $LN33@compiler_e@2
  0015e	84 c0		 test	 al, al
  00160	78 48		 js	 SHORT $LN33@compiler_e@2
  00162	a8 02		 test	 al, 2
  00164	75 4c		 jne	 SHORT $LN42@compiler_e@2
  00166	48 ff 4b 50	 dec	 QWORD PTR [rbx+80]
  0016a	75 46		 jne	 SHORT $LN42@compiler_e@2
  0016c	48 8d 15 00 00
	00 00		 lea	 rdx, OFFSET FLAT:??_C@_0CD@HDJFDCDP@c?3?2src?2pyparallel?2include?2object@
  00173	48 8d 0d 00 00
	00 00		 lea	 rcx, OFFSET FLAT:??_C@_0L@DMHMLFIA@_Py_DecRef?$AA@
  0017a	4c 8b cb	 mov	 r9, rbx
  0017d	41 b8 a4 03 00
	00		 mov	 r8d, 932		; 000003a4H
  00183	c7 44 24 20 10
	00 00 00	 mov	 DWORD PTR [rsp+32], 16
  0018b	e8 00 00 00 00	 call	 _PyParallel_Guard
  00190	48 8b cb	 mov	 rcx, rbx
  00193	85 c0		 test	 eax, eax
  00195	74 07		 je	 SHORT $LN38@compiler_e@2
  00197	e8 00 00 00 00	 call	 _Px_Dealloc
  0019c	eb 14		 jmp	 SHORT $LN42@compiler_e@2
$LN38@compiler_e@2:
  0019e	48 8b 43 58	 mov	 rax, QWORD PTR [rbx+88]
  001a2	ff 90 88 00 00
	00		 call	 QWORD PTR [rax+136]
  001a8	eb 08		 jmp	 SHORT $LN42@compiler_e@2
$LN33@compiler_e@2:
  001aa	48 8b cb	 mov	 rcx, rbx
  001ad	e8 00 00 00 00	 call	 Px_DecRef
$LN42@compiler_e@2:

; 3567 :     return 0;
; 3568 : }

  001b2	48 8b 5c 24 40	 mov	 rbx, QWORD PTR [rsp+64]
  001b7	48 8b 6c 24 48	 mov	 rbp, QWORD PTR [rsp+72]
  001bc	48 8b 74 24 50	 mov	 rsi, QWORD PTR [rsp+80]
  001c1	33 c0		 xor	 eax, eax
  001c3	48 83 c4 30	 add	 rsp, 48			; 00000030H
  001c7	5f		 pop	 rdi
  001c8	c3		 ret	 0
compiler_error ENDP
_TEXT	ENDS
PUBLIC	??_C@_0CB@GFGBAOAN@invalid?5?$CFs?5kind?5?$CFd?5in?5subscript?6@ ; `string'
;	COMDAT pdata
pdata	SEGMENT
$pdata$compiler_handle_subscr DD imagerel compiler_handle_subscr
	DD	imagerel compiler_handle_subscr+236
	DD	imagerel $unwind$compiler_handle_subscr
pdata	ENDS
;	COMDAT xdata
xdata	SEGMENT
$unwind$compiler_handle_subscr DD 060f01H
	DD	07640fH
	DD	06340fH
	DD	0700b320fH
xdata	ENDS
;	COMDAT ??_C@_0CB@GFGBAOAN@invalid?5?$CFs?5kind?5?$CFd?5in?5subscript?6@
CONST	SEGMENT
??_C@_0CB@GFGBAOAN@invalid?5?$CFs?5kind?5?$CFd?5in?5subscript?6@ DB 'inva'
	DB	'lid %s kind %d in subscript', 0aH, 00H	; `string'
; Function compile flags: /Ogtpy
CONST	ENDS
;	COMDAT compiler_handle_subscr
_TEXT	SEGMENT
c$ = 48
kind$ = 56
ctx$ = 64
compiler_handle_subscr PROC				; COMDAT

; 3573 : {

  00000	48 89 5c 24 08	 mov	 QWORD PTR [rsp+8], rbx
  00005	48 89 74 24 10	 mov	 QWORD PTR [rsp+16], rsi
  0000a	57		 push	 rdi
  0000b	48 83 ec 20	 sub	 rsp, 32			; 00000020H

; 3574 :     int op = 0;

  0000f	33 f6		 xor	 esi, esi

; 3575 : 
; 3576 :     /* XXX this code is duplicated */
; 3577 :     switch (ctx) {

  00011	41 8d 40 ff	 lea	 eax, DWORD PTR [r8-1]
  00015	48 8b f9	 mov	 rdi, rcx
  00018	8b de		 mov	 ebx, esi
  0001a	83 f8 05	 cmp	 eax, 5
  0001d	77 1c		 ja	 SHORT $LN11@compiler_h
  0001f	48 8d 0d 00 00
	00 00		 lea	 rcx, OFFSET FLAT:__ImageBase
  00026	48 98		 cdqe
  00028	44 8b 8c 81 00
	00 00 00	 mov	 r9d, DWORD PTR $LN15@compiler_h[rcx+rax*4]
  00030	4c 03 c9	 add	 r9, rcx
  00033	41 ff e1	 jmp	 r9
$LN10@compiler_h:

; 3578 :         case AugLoad: /* fall through to Load */
; 3579 :         case Load:    op = BINARY_SUBSCR; break;

  00036	bb 19 00 00 00	 mov	 ebx, 25
$LN11@compiler_h:

; 3588 :     }
; 3589 :     if (ctx == AugLoad) {

  0003b	41 83 f8 04	 cmp	 r8d, 4
  0003f	75 59		 jne	 SHORT $LN6@compiler_h

; 3590 :         ADDOP(c, DUP_TOP_TWO);

  00041	41 8d 50 01	 lea	 edx, QWORD PTR [r8+1]
  00045	48 8b cf	 mov	 rcx, rdi
  00048	e8 00 00 00 00	 call	 compiler_addop
  0004d	85 c0		 test	 eax, eax
  0004f	75 5f		 jne	 SHORT $LN2@compiler_h

; 3596 :     return 1;
; 3597 : }

  00051	48 8b 5c 24 30	 mov	 rbx, QWORD PTR [rsp+48]
  00056	48 8b 74 24 38	 mov	 rsi, QWORD PTR [rsp+56]
  0005b	48 83 c4 20	 add	 rsp, 32			; 00000020H
  0005f	5f		 pop	 rdi
  00060	c3		 ret	 0
$LN9@compiler_h:

; 3580 :         case AugStore:/* fall through to Store */
; 3581 :         case Store:   op = STORE_SUBSCR; break;

  00061	bb 3c 00 00 00	 mov	 ebx, 60			; 0000003cH
  00066	eb d3		 jmp	 SHORT $LN11@compiler_h
$LN8@compiler_h:

; 3582 :         case Del:     op = DELETE_SUBSCR; break;

  00068	bb 3d 00 00 00	 mov	 ebx, 61			; 0000003dH
  0006d	eb cc		 jmp	 SHORT $LN11@compiler_h
$LN7@compiler_h:

; 3583 :         case Param:
; 3584 :             PyErr_Format(PyExc_SystemError,
; 3585 :                          "invalid %s kind %d in subscript\n",
; 3586 :                          kind, ctx);

  0006f	48 8b 0d 00 00
	00 00		 mov	 rcx, QWORD PTR PyExc_SystemError
  00076	45 8b c8	 mov	 r9d, r8d
  00079	4c 8b c2	 mov	 r8, rdx
  0007c	48 8d 15 00 00
	00 00		 lea	 rdx, OFFSET FLAT:??_C@_0CB@GFGBAOAN@invalid?5?$CFs?5kind?5?$CFd?5in?5subscript?6@
  00083	e8 00 00 00 00	 call	 PyErr_Format
$LN16@compiler_h:

; 3587 :             return 0;

  00088	33 c0		 xor	 eax, eax

; 3596 :     return 1;
; 3597 : }

  0008a	48 8b 5c 24 30	 mov	 rbx, QWORD PTR [rsp+48]
  0008f	48 8b 74 24 38	 mov	 rsi, QWORD PTR [rsp+56]
  00094	48 83 c4 20	 add	 rsp, 32			; 00000020H
  00098	5f		 pop	 rdi
  00099	c3		 ret	 0
$LN6@compiler_h:

; 3591 :     }
; 3592 :     else if (ctx == AugStore) {

  0009a	41 83 f8 05	 cmp	 r8d, 5
  0009e	75 10		 jne	 SHORT $LN2@compiler_h

; 3593 :         ADDOP(c, ROT_THREE);

  000a0	41 8d 50 fe	 lea	 edx, QWORD PTR [r8-2]
  000a4	48 8b cf	 mov	 rcx, rdi
  000a7	e8 00 00 00 00	 call	 compiler_addop
  000ac	85 c0		 test	 eax, eax
  000ae	74 d8		 je	 SHORT $LN16@compiler_h
$LN2@compiler_h:

; 3594 :     }
; 3595 :     ADDOP(c, op);

  000b0	8b d3		 mov	 edx, ebx
  000b2	48 8b cf	 mov	 rcx, rdi
  000b5	e8 00 00 00 00	 call	 compiler_addop

; 3596 :     return 1;
; 3597 : }

  000ba	48 8b 5c 24 30	 mov	 rbx, QWORD PTR [rsp+48]
  000bf	85 c0		 test	 eax, eax
  000c1	40 0f 95 c6	 setne	 sil
  000c5	8b c6		 mov	 eax, esi
  000c7	48 8b 74 24 38	 mov	 rsi, QWORD PTR [rsp+56]
  000cc	48 83 c4 20	 add	 rsp, 32			; 00000020H
  000d0	5f		 pop	 rdi
  000d1	c3		 ret	 0
  000d2	66 90		 npad	 2
$LN15@compiler_h:
  000d4	00 00 00 00	 DD	 $LN10@compiler_h
  000d8	00 00 00 00	 DD	 $LN9@compiler_h
  000dc	00 00 00 00	 DD	 $LN8@compiler_h
  000e0	00 00 00 00	 DD	 $LN10@compiler_h
  000e4	00 00 00 00	 DD	 $LN9@compiler_h
  000e8	00 00 00 00	 DD	 $LN7@compiler_h
compiler_handle_subscr ENDP
_TEXT	ENDS
;	COMDAT pdata
pdata	SEGMENT
$pdata$dfs DD	imagerel dfs
	DD	imagerel dfs+31
	DD	imagerel $unwind$dfs
pdata	ENDS
;	COMDAT pdata
pdata	SEGMENT
$pdata$0$dfs DD	imagerel dfs+31
	DD	imagerel dfs+65
	DD	imagerel $chain$0$dfs
pdata	ENDS
;	COMDAT pdata
pdata	SEGMENT
$pdata$1$dfs DD	imagerel dfs+65
	DD	imagerel dfs+129
	DD	imagerel $chain$1$dfs
pdata	ENDS
;	COMDAT pdata
pdata	SEGMENT
$pdata$2$dfs DD	imagerel dfs+129
	DD	imagerel dfs+149
	DD	imagerel $chain$2$dfs
pdata	ENDS
;	COMDAT pdata
pdata	SEGMENT
$pdata$3$dfs DD	imagerel dfs+149
	DD	imagerel dfs+160
	DD	imagerel $chain$3$dfs
pdata	ENDS
;	COMDAT xdata
xdata	SEGMENT
$chain$3$dfs DD	021H
	DD	imagerel dfs
	DD	imagerel dfs+31
	DD	imagerel $unwind$dfs
xdata	ENDS
;	COMDAT xdata
xdata	SEGMENT
$chain$2$dfs DD	021H
	DD	imagerel dfs+31
	DD	imagerel dfs+65
	DD	imagerel $chain$0$dfs
xdata	ENDS
;	COMDAT xdata
xdata	SEGMENT
$chain$1$dfs DD	020521H
	DD	087405H
	DD	imagerel dfs+31
	DD	imagerel dfs+65
	DD	imagerel $chain$0$dfs
xdata	ENDS
;	COMDAT xdata
xdata	SEGMENT
$chain$0$dfs DD	020521H
	DD	073405H
	DD	imagerel dfs
	DD	imagerel dfs+31
	DD	imagerel $unwind$dfs
xdata	ENDS
;	COMDAT xdata
xdata	SEGMENT
$unwind$dfs DD	040f01H
	DD	09540fH
	DD	0600b320fH
; Function compile flags: /Ogtpy
xdata	ENDS
;	COMDAT dfs
_TEXT	SEGMENT
c$ = 48
b$ = 56
a$ = 64
dfs	PROC						; COMDAT

; 3707 : {

  00000	48 89 6c 24 20	 mov	 QWORD PTR [rsp+32], rbp
  00005	48 89 4c 24 08	 mov	 QWORD PTR [rsp+8], rcx
  0000a	56		 push	 rsi
  0000b	48 83 ec 20	 sub	 rsp, 32			; 00000020H

; 3708 :     int i;
; 3709 :     struct instr *instr = NULL;
; 3710 : 
; 3711 :     if (b->b_seen)

  0000f	8b 42 20	 mov	 eax, DWORD PTR [rdx+32]
  00012	49 8b e8	 mov	 rbp, r8
  00015	48 8b f2	 mov	 rsi, rdx
  00018	a8 01		 test	 al, 1
  0001a	75 79		 jne	 SHORT $LN8@dfs

; 3712 :         return;
; 3713 :     b->b_seen = 1;

  0001c	83 c8 01	 or	 eax, 1
  0001f	48 89 5c 24 38	 mov	 QWORD PTR [rsp+56], rbx
  00024	89 42 20	 mov	 DWORD PTR [rdx+32], eax

; 3714 :     if (b->b_next != NULL)

  00027	48 8b 52 18	 mov	 rdx, QWORD PTR [rdx+24]
  0002b	48 85 d2	 test	 rdx, rdx
  0002e	74 0a		 je	 SHORT $LN6@dfs

; 3715 :         dfs(c, b->b_next, a);

  00030	e8 00 00 00 00	 call	 dfs
  00035	48 8b 4c 24 30	 mov	 rcx, QWORD PTR c$[rsp]
$LN6@dfs:

; 3716 :     for (i = 0; i < b->b_iused; i++) {

  0003a	33 db		 xor	 ebx, ebx
  0003c	39 5e 08	 cmp	 DWORD PTR [rsi+8], ebx
  0003f	7e 40		 jle	 SHORT $LN3@dfs
  00041	48 89 7c 24 40	 mov	 QWORD PTR [rsp+64], rdi
  00046	8b fb		 mov	 edi, ebx
  00048	0f 1f 84 00 00
	00 00 00	 npad	 8
$LL5@dfs:

; 3717 :         instr = &b->b_instr[i];

  00050	48 8b 56 10	 mov	 rdx, QWORD PTR [rsi+16]

; 3718 :         if (instr->i_jrel || instr->i_jabs)

  00054	8b 04 17	 mov	 eax, DWORD PTR [rdi+rdx]
  00057	a8 02		 test	 al, 2
  00059	75 04		 jne	 SHORT $LN1@dfs
  0005b	a8 01		 test	 al, 1
  0005d	74 0d		 je	 SHORT $LN4@dfs
$LN1@dfs:

; 3719 :             dfs(c, instr->i_target, a);

  0005f	48 8b 54 17 10	 mov	 rdx, QWORD PTR [rdi+rdx+16]
  00064	4c 8b c5	 mov	 r8, rbp
  00067	e8 00 00 00 00	 call	 dfs
$LN4@dfs:

; 3716 :     for (i = 0; i < b->b_iused; i++) {

  0006c	48 8b 4c 24 30	 mov	 rcx, QWORD PTR c$[rsp]
  00071	ff c3		 inc	 ebx
  00073	48 83 c7 20	 add	 rdi, 32			; 00000020H
  00077	3b 5e 08	 cmp	 ebx, DWORD PTR [rsi+8]
  0007a	7c d4		 jl	 SHORT $LL5@dfs
  0007c	48 8b 7c 24 40	 mov	 rdi, QWORD PTR [rsp+64]
$LN3@dfs:

; 3720 :     }
; 3721 :     a->a_postorder[a->a_nblocks++] = b;

  00081	48 63 4d 0c	 movsxd	 rcx, DWORD PTR [rbp+12]
  00085	48 8b 45 10	 mov	 rax, QWORD PTR [rbp+16]
  00089	48 8b 5c 24 38	 mov	 rbx, QWORD PTR [rsp+56]
  0008e	48 89 34 c8	 mov	 QWORD PTR [rax+rcx*8], rsi
  00092	ff 45 0c	 inc	 DWORD PTR [rbp+12]
$LN8@dfs:

; 3722 : }

  00095	48 8b 6c 24 48	 mov	 rbp, QWORD PTR [rsp+72]
  0009a	48 83 c4 20	 add	 rsp, 32			; 00000020H
  0009e	5e		 pop	 rsi
  0009f	c3		 ret	 0
dfs	ENDP
_TEXT	ENDS
;	COMDAT pdata
pdata	SEGMENT
$pdata$stackdepth_walk DD imagerel stackdepth_walk
	DD	imagerel stackdepth_walk+45
	DD	imagerel $unwind$stackdepth_walk
pdata	ENDS
;	COMDAT pdata
pdata	SEGMENT
$pdata$0$stackdepth_walk DD imagerel stackdepth_walk+45
	DD	imagerel stackdepth_walk+262
	DD	imagerel $chain$0$stackdepth_walk
pdata	ENDS
;	COMDAT pdata
pdata	SEGMENT
$pdata$1$stackdepth_walk DD imagerel stackdepth_walk+262
	DD	imagerel stackdepth_walk+272
	DD	imagerel $chain$1$stackdepth_walk
pdata	ENDS
;	COMDAT xdata
xdata	SEGMENT
$chain$1$stackdepth_walk DD 021H
	DD	imagerel stackdepth_walk
	DD	imagerel stackdepth_walk+45
	DD	imagerel $unwind$stackdepth_walk
xdata	ENDS
;	COMDAT xdata
xdata	SEGMENT
$chain$0$stackdepth_walk DD 020521H
	DD	0c7405H
	DD	imagerel stackdepth_walk
	DD	imagerel stackdepth_walk+45
	DD	imagerel $unwind$stackdepth_walk
xdata	ENDS
;	COMDAT xdata
xdata	SEGMENT
$unwind$stackdepth_walk DD 040c01H
	DD	06008520cH
	DD	030065007H
; Function compile flags: /Ogtpy
xdata	ENDS
;	COMDAT stackdepth_walk
_TEXT	SEGMENT
tv261 = 32
c$ = 80
tv285 = 88
b$ = 88
depth$ = 96
maxdepth$ = 104
stackdepth_walk PROC					; COMDAT

; 3726 : {

  00000	48 89 4c 24 08	 mov	 QWORD PTR [rsp+8], rcx
  00005	53		 push	 rbx
  00006	55		 push	 rbp
  00007	56		 push	 rsi
  00008	48 83 ec 30	 sub	 rsp, 48			; 00000030H

; 3727 :     int i, target_depth;
; 3728 :     struct instr *instr;
; 3729 :     if (b->b_seen || b->b_startdepth >= depth)

  0000c	8b 42 20	 mov	 eax, DWORD PTR [rdx+32]
  0000f	41 8b d9	 mov	 ebx, r9d
  00012	41 8b f0	 mov	 esi, r8d
  00015	48 8b ea	 mov	 rbp, rdx
  00018	a8 01		 test	 al, 1
  0001a	0f 85 e6 00 00
	00		 jne	 $LN15@stackdepth
  00020	44 39 42 24	 cmp	 DWORD PTR [rdx+36], r8d
  00024	0f 8d dc 00 00
	00		 jge	 $LN15@stackdepth

; 3731 :     b->b_seen = 1;

  0002a	83 c8 01	 or	 eax, 1
  0002d	48 89 7c 24 60	 mov	 QWORD PTR [rsp+96], rdi

; 3732 :     b->b_startdepth = depth;
; 3733 :     for (i = 0; i < b->b_iused; i++) {

  00032	33 ff		 xor	 edi, edi
  00034	89 42 20	 mov	 DWORD PTR [rdx+32], eax
  00037	44 89 42 24	 mov	 DWORD PTR [rdx+36], r8d
  0003b	48 89 7c 24 20	 mov	 QWORD PTR tv261[rsp], rdi
  00040	39 7a 08	 cmp	 DWORD PTR [rdx+8], edi
  00043	0f 8e 9e 00 00
	00		 jle	 $LN12@stackdepth
  00049	0f 1f 80 00 00
	00 00		 npad	 7
$LL14@stackdepth:

; 3734 :         instr = &b->b_instr[i];

  00050	48 8b 45 10	 mov	 rax, QWORD PTR [rbp+16]
  00054	48 89 44 24 58	 mov	 QWORD PTR tv285[rsp], rax

; 3735 :         depth += opcode_stack_effect(instr->i_opcode, instr->i_oparg);

  00059	0f b6 4c 07 04	 movzx	 ecx, BYTE PTR [rdi+rax+4]
  0005e	8b 54 07 08	 mov	 edx, DWORD PTR [rdi+rax+8]
  00062	e8 00 00 00 00	 call	 opcode_stack_effect

; 3736 :         if (depth > maxdepth)
; 3737 :             maxdepth = depth;
; 3738 :         assert(depth >= 0); /* invalid code or bug in stackdepth() */
; 3739 :         if (instr->i_jrel || instr->i_jabs) {

  00067	48 8b 4c 24 58	 mov	 rcx, QWORD PTR tv285[rsp]
  0006c	03 f0		 add	 esi, eax
  0006e	8b 04 0f	 mov	 eax, DWORD PTR [rdi+rcx]
  00071	3b f3		 cmp	 esi, ebx
  00073	0f 4f de	 cmovg	 ebx, esi
  00076	a8 02		 test	 al, 2
  00078	75 04		 jne	 SHORT $LN9@stackdepth
  0007a	a8 01		 test	 al, 1
  0007c	74 4b		 je	 SHORT $LN13@stackdepth
$LN9@stackdepth:

; 3740 :             target_depth = depth;
; 3741 :             if (instr->i_opcode == FOR_ITER) {

  0007e	0f b6 44 0f 04	 movzx	 eax, BYTE PTR [rdi+rcx+4]
  00083	44 8b c6	 mov	 r8d, esi
  00086	3c 5d		 cmp	 al, 93			; 0000005dH
  00088	75 06		 jne	 SHORT $LN8@stackdepth

; 3742 :                 target_depth = depth-2;

  0008a	44 8d 46 fe	 lea	 r8d, DWORD PTR [rsi-2]

; 3743 :             } else if (instr->i_opcode == SETUP_FINALLY ||

  0008e	eb 13		 jmp	 SHORT $LN4@stackdepth
$LN8@stackdepth:

; 3744 :                        instr->i_opcode == SETUP_EXCEPT) {

  00090	3c 7a		 cmp	 al, 122			; 0000007aH
  00092	74 04		 je	 SHORT $LN5@stackdepth
  00094	3c 79		 cmp	 al, 121			; 00000079H
  00096	75 0b		 jne	 SHORT $LN4@stackdepth
$LN5@stackdepth:

; 3745 :                 target_depth = depth+3;

  00098	44 8d 46 03	 lea	 r8d, DWORD PTR [rsi+3]

; 3746 :                 if (target_depth > maxdepth)

  0009c	44 3b c3	 cmp	 r8d, ebx
  0009f	41 0f 4f d8	 cmovg	 ebx, r8d
$LN4@stackdepth:

; 3747 :                     maxdepth = target_depth;
; 3748 :             }
; 3749 :             maxdepth = stackdepth_walk(c, instr->i_target,
; 3750 :                                        target_depth, maxdepth);

  000a3	48 8b 54 0f 10	 mov	 rdx, QWORD PTR [rdi+rcx+16]
  000a8	48 8b 4c 24 50	 mov	 rcx, QWORD PTR c$[rsp]
  000ad	44 8b cb	 mov	 r9d, ebx
  000b0	e8 00 00 00 00	 call	 stackdepth_walk
  000b5	8b d8		 mov	 ebx, eax

; 3751 :             if (instr->i_opcode == JUMP_ABSOLUTE ||
; 3752 :                 instr->i_opcode == JUMP_FORWARD) {

  000b7	48 8b 44 24 58	 mov	 rax, QWORD PTR tv285[rsp]
  000bc	0f b6 44 07 04	 movzx	 eax, BYTE PTR [rdi+rax+4]
  000c1	3c 71		 cmp	 al, 113			; 00000071H
  000c3	74 38		 je	 SHORT $out$24714
  000c5	3c 6e		 cmp	 al, 110			; 0000006eH
  000c7	74 34		 je	 SHORT $out$24714
$LN13@stackdepth:

; 3732 :     b->b_startdepth = depth;
; 3733 :     for (i = 0; i < b->b_iused; i++) {

  000c9	48 8b 44 24 20	 mov	 rax, QWORD PTR tv261[rsp]
  000ce	48 83 c7 20	 add	 rdi, 32			; 00000020H
  000d2	ff c0		 inc	 eax
  000d4	48 89 44 24 20	 mov	 QWORD PTR tv261[rsp], rax
  000d9	3b 45 08	 cmp	 eax, DWORD PTR [rbp+8]
  000dc	0f 8c 6e ff ff
	ff		 jl	 $LL14@stackdepth
  000e2	48 8b 4c 24 50	 mov	 rcx, QWORD PTR c$[rsp]
$LN12@stackdepth:

; 3753 :                 goto out; /* remaining code is dead */
; 3754 :             }
; 3755 :         }
; 3756 :     }
; 3757 :     if (b->b_next)

  000e7	48 8b 55 18	 mov	 rdx, QWORD PTR [rbp+24]
  000eb	48 85 d2	 test	 rdx, rdx
  000ee	74 0d		 je	 SHORT $out$24714

; 3758 :         maxdepth = stackdepth_walk(c, b->b_next, depth, maxdepth);

  000f0	44 8b cb	 mov	 r9d, ebx
  000f3	44 8b c6	 mov	 r8d, esi
  000f6	e8 00 00 00 00	 call	 stackdepth_walk
  000fb	8b d8		 mov	 ebx, eax
$out$24714:

; 3759 : out:
; 3760 :     b->b_seen = 0;

  000fd	83 65 20 fe	 and	 DWORD PTR [rbp+32], -2	; fffffffeH
  00101	48 8b 7c 24 60	 mov	 rdi, QWORD PTR [rsp+96]
$LN15@stackdepth:

; 3730 :         return maxdepth;

  00106	8b c3		 mov	 eax, ebx

; 3761 :     return maxdepth;
; 3762 : }

  00108	48 83 c4 30	 add	 rsp, 48			; 00000030H
  0010c	5e		 pop	 rsi
  0010d	5d		 pop	 rbp
  0010e	5b		 pop	 rbx
  0010f	c3		 ret	 0
stackdepth_walk ENDP
; Function compile flags: /Ogtpy
_TEXT	ENDS
;	COMDAT stackdepth
_TEXT	SEGMENT
c$ = 8
stackdepth PROC						; COMDAT

; 3770 :     basicblock *b, *entryblock;
; 3771 :     entryblock = NULL;
; 3772 :     for (b = c->u->u_blocks; b != NULL; b = b->b_list) {

  00000	48 8b 41 38	 mov	 rax, QWORD PTR [rcx+56]
  00004	4c 8b 40 58	 mov	 r8, QWORD PTR [rax+88]
  00008	4d 85 c0	 test	 r8, r8
  0000b	74 28		 je	 SHORT $LN9@stackdepth@2
  0000d	0f 1f 00	 npad	 3
$LL4@stackdepth@2:

; 3773 :         b->b_seen = 0;

  00010	41 83 60 20 fe	 and	 DWORD PTR [r8+32], -2	; fffffffeH

; 3774 :         b->b_startdepth = INT_MIN;

  00015	41 c7 40 24 00
	00 00 80	 mov	 DWORD PTR [r8+36], -2147483648 ; ffffffff80000000H

; 3775 :         entryblock = b;

  0001d	49 8b d0	 mov	 rdx, r8
  00020	4d 8b 00	 mov	 r8, QWORD PTR [r8]
  00023	4d 85 c0	 test	 r8, r8
  00026	75 e8		 jne	 SHORT $LL4@stackdepth@2

; 3776 :     }
; 3777 :     if (!entryblock)

  00028	48 85 d2	 test	 rdx, rdx
  0002b	74 08		 je	 SHORT $LN9@stackdepth@2

; 3779 :     return stackdepth_walk(c, entryblock, 0, 0);

  0002d	45 33 c9	 xor	 r9d, r9d

; 3780 : }

  00030	e9 00 00 00 00	 jmp	 stackdepth_walk
$LN9@stackdepth@2:

; 3778 :         return 0;

  00035	33 c0		 xor	 eax, eax

; 3780 : }

  00037	c3		 ret	 0
stackdepth ENDP
_TEXT	ENDS
EXTRN	PyBytes_FromStringAndSize:PROC
;	COMDAT pdata
pdata	SEGMENT
$pdata$assemble_init DD imagerel assemble_init
	DD	imagerel assemble_init+156
	DD	imagerel $unwind$assemble_init
pdata	ENDS
;	COMDAT xdata
xdata	SEGMENT
$unwind$assemble_init DD 040a01H
	DD	06340aH
	DD	07006320aH
; Function compile flags: /Ogtpy
xdata	ENDS
;	COMDAT assemble_init
_TEXT	SEGMENT
a$ = 48
nblocks$ = 56
firstlineno$ = 64
assemble_init PROC					; COMDAT

; 3784 : {

  00000	48 89 5c 24 08	 mov	 QWORD PTR [rsp+8], rbx
  00005	57		 push	 rdi
  00006	48 83 ec 20	 sub	 rsp, 32			; 00000020H

; 3785 :     memset(a, 0, sizeof(struct assembler));

  0000a	33 c0		 xor	 eax, eax
  0000c	48 63 fa	 movsxd	 rdi, edx
  0000f	48 8b d9	 mov	 rbx, rcx
  00012	48 89 01	 mov	 QWORD PTR [rcx], rax
  00015	48 89 41 08	 mov	 QWORD PTR [rcx+8], rax
  00019	48 89 41 10	 mov	 QWORD PTR [rcx+16], rax
  0001d	48 89 41 18	 mov	 QWORD PTR [rcx+24], rax
  00021	48 89 41 20	 mov	 QWORD PTR [rcx+32], rax
  00025	48 89 41 28	 mov	 QWORD PTR [rcx+40], rax

; 3786 :     a->a_lineno = firstlineno;

  00029	44 89 41 24	 mov	 DWORD PTR [rcx+36], r8d

; 3787 :     a->a_bytecode = PyBytes_FromStringAndSize(NULL, DEFAULT_CODE_SIZE);

  0002d	ba 80 00 00 00	 mov	 edx, 128		; 00000080H
  00032	33 c9		 xor	 ecx, ecx
  00034	e8 00 00 00 00	 call	 PyBytes_FromStringAndSize
  00039	48 89 03	 mov	 QWORD PTR [rbx], rax

; 3788 :     if (!a->a_bytecode)

  0003c	48 85 c0	 test	 rax, rax

; 3789 :         return 0;

  0003f	74 2c		 je	 SHORT $LN7@assemble_i

; 3790 :     a->a_lnotab = PyBytes_FromStringAndSize(NULL, DEFAULT_LNOTAB_SIZE);

  00041	ba 10 00 00 00	 mov	 edx, 16
  00046	33 c9		 xor	 ecx, ecx
  00048	e8 00 00 00 00	 call	 PyBytes_FromStringAndSize
  0004d	48 89 43 18	 mov	 QWORD PTR [rbx+24], rax

; 3791 :     if (!a->a_lnotab)

  00051	48 85 c0	 test	 rax, rax

; 3792 :         return 0;

  00054	74 17		 je	 SHORT $LN7@assemble_i

; 3793 :     if (nblocks > PY_SIZE_MAX / sizeof(basicblock *)) {

  00056	48 b8 ff ff ff
	ff ff ff ff 1f	 mov	 rax, 2305843009213693951 ; 1fffffffffffffffH
  00060	48 8b cf	 mov	 rcx, rdi
  00063	48 3b f8	 cmp	 rdi, rax
  00066	76 12		 jbe	 SHORT $LN2@assemble_i
$LN8@assemble_i:

; 3794 :         PyErr_NoMemory();

  00068	e8 00 00 00 00	 call	 PyErr_NoMemory
$LN7@assemble_i:

; 3795 :         return 0;

  0006d	33 c0		 xor	 eax, eax

; 3804 : }

  0006f	48 8b 5c 24 30	 mov	 rbx, QWORD PTR [rsp+48]
  00074	48 83 c4 20	 add	 rsp, 32			; 00000020H
  00078	5f		 pop	 rdi
  00079	c3		 ret	 0
$LN2@assemble_i:

; 3796 :     }
; 3797 :     a->a_postorder = (basicblock **)PyObject_Malloc(
; 3798 :                                         sizeof(basicblock *) * nblocks);

  0007a	48 c1 e1 03	 shl	 rcx, 3
  0007e	e8 00 00 00 00	 call	 PyObject_Malloc
  00083	48 89 43 10	 mov	 QWORD PTR [rbx+16], rax

; 3799 :     if (!a->a_postorder) {

  00087	48 85 c0	 test	 rax, rax

; 3800 :         PyErr_NoMemory();
; 3801 :         return 0;

  0008a	74 dc		 je	 SHORT $LN8@assemble_i

; 3802 :     }
; 3803 :     return 1;

  0008c	b8 01 00 00 00	 mov	 eax, 1

; 3804 : }

  00091	48 8b 5c 24 30	 mov	 rbx, QWORD PTR [rsp+48]
  00096	48 83 c4 20	 add	 rsp, 32			; 00000020H
  0009a	5f		 pop	 rdi
  0009b	c3		 ret	 0
assemble_init ENDP
_TEXT	ENDS
;	COMDAT pdata
; File c:\src\pyparallel\include\object.h
pdata	SEGMENT
$pdata$assemble_free DD imagerel assemble_free
	DD	imagerel assemble_free+257
	DD	imagerel $unwind$assemble_free
pdata	ENDS
;	COMDAT xdata
xdata	SEGMENT
$unwind$assemble_free DD 040a01H
	DD	08340aH
	DD	07006520aH
; Function compile flags: /Ogtpy
; File c:\src\pyparallel\python\compile.c
xdata	ENDS
;	COMDAT assemble_free
_TEXT	SEGMENT
a$ = 64
assemble_free PROC					; COMDAT

; 3808 : {

  00000	48 89 5c 24 08	 mov	 QWORD PTR [rsp+8], rbx
  00005	57		 push	 rdi
  00006	48 83 ec 30	 sub	 rsp, 48			; 00000030H

; 3809 :     Py_XDECREF(a->a_bytecode);

  0000a	48 8b 19	 mov	 rbx, QWORD PTR [rcx]
  0000d	48 8b f9	 mov	 rdi, rcx
  00010	48 85 db	 test	 rbx, rbx
  00013	74 65		 je	 SHORT $LN8@assemble_f
  00015	e8 00 00 00 00	 call	 _Py_PXCTX
  0001a	85 c0		 test	 eax, eax
  0001c	75 5c		 jne	 SHORT $LN8@assemble_f
  0001e	48 8b 43 20	 mov	 rax, QWORD PTR [rbx+32]
  00022	a8 20		 test	 al, 32			; 00000020H
  00024	75 4c		 jne	 SHORT $LN16@assemble_f
  00026	84 c0		 test	 al, al
  00028	78 48		 js	 SHORT $LN16@assemble_f
  0002a	a8 02		 test	 al, 2
  0002c	75 4c		 jne	 SHORT $LN8@assemble_f
  0002e	48 ff 4b 50	 dec	 QWORD PTR [rbx+80]
  00032	75 46		 jne	 SHORT $LN8@assemble_f
  00034	48 8d 15 00 00
	00 00		 lea	 rdx, OFFSET FLAT:??_C@_0CD@HDJFDCDP@c?3?2src?2pyparallel?2include?2object@
  0003b	48 8d 0d 00 00
	00 00		 lea	 rcx, OFFSET FLAT:??_C@_0L@DMHMLFIA@_Py_DecRef?$AA@
  00042	4c 8b cb	 mov	 r9, rbx
  00045	41 b8 a4 03 00
	00		 mov	 r8d, 932		; 000003a4H
  0004b	c7 44 24 20 10
	00 00 00	 mov	 DWORD PTR [rsp+32], 16
  00053	e8 00 00 00 00	 call	 _PyParallel_Guard
  00058	48 8b cb	 mov	 rcx, rbx
  0005b	85 c0		 test	 eax, eax
  0005d	74 07		 je	 SHORT $LN21@assemble_f
  0005f	e8 00 00 00 00	 call	 _Px_Dealloc
  00064	eb 14		 jmp	 SHORT $LN8@assemble_f
$LN21@assemble_f:
  00066	48 8b 43 58	 mov	 rax, QWORD PTR [rbx+88]
  0006a	ff 90 88 00 00
	00		 call	 QWORD PTR [rax+136]
  00070	eb 08		 jmp	 SHORT $LN8@assemble_f
$LN16@assemble_f:
  00072	48 8b cb	 mov	 rcx, rbx
  00075	e8 00 00 00 00	 call	 Px_DecRef
$LN8@assemble_f:

; 3810 :     Py_XDECREF(a->a_lnotab);

  0007a	48 8b 5f 18	 mov	 rbx, QWORD PTR [rdi+24]
  0007e	48 85 db	 test	 rbx, rbx
  00081	74 65		 je	 SHORT $LN4@assemble_f
  00083	e8 00 00 00 00	 call	 _Py_PXCTX
  00088	85 c0		 test	 eax, eax
  0008a	75 5c		 jne	 SHORT $LN4@assemble_f
  0008c	48 8b 43 20	 mov	 rax, QWORD PTR [rbx+32]
  00090	a8 20		 test	 al, 32			; 00000020H
  00092	75 4c		 jne	 SHORT $LN27@assemble_f
  00094	84 c0		 test	 al, al
  00096	78 48		 js	 SHORT $LN27@assemble_f
  00098	a8 02		 test	 al, 2
  0009a	75 4c		 jne	 SHORT $LN4@assemble_f
  0009c	48 ff 4b 50	 dec	 QWORD PTR [rbx+80]
  000a0	75 46		 jne	 SHORT $LN4@assemble_f
  000a2	48 8d 15 00 00
	00 00		 lea	 rdx, OFFSET FLAT:??_C@_0CD@HDJFDCDP@c?3?2src?2pyparallel?2include?2object@
  000a9	48 8d 0d 00 00
	00 00		 lea	 rcx, OFFSET FLAT:??_C@_0L@DMHMLFIA@_Py_DecRef?$AA@
  000b0	4c 8b cb	 mov	 r9, rbx
  000b3	41 b8 a4 03 00
	00		 mov	 r8d, 932		; 000003a4H
  000b9	c7 44 24 20 10
	00 00 00	 mov	 DWORD PTR [rsp+32], 16
  000c1	e8 00 00 00 00	 call	 _PyParallel_Guard
  000c6	48 8b cb	 mov	 rcx, rbx
  000c9	85 c0		 test	 eax, eax
  000cb	74 07		 je	 SHORT $LN32@assemble_f
  000cd	e8 00 00 00 00	 call	 _Px_Dealloc
  000d2	eb 14		 jmp	 SHORT $LN4@assemble_f
$LN32@assemble_f:
  000d4	48 8b 43 58	 mov	 rax, QWORD PTR [rbx+88]
  000d8	ff 90 88 00 00
	00		 call	 QWORD PTR [rax+136]
  000de	eb 08		 jmp	 SHORT $LN4@assemble_f
$LN27@assemble_f:
  000e0	48 8b cb	 mov	 rcx, rbx
  000e3	e8 00 00 00 00	 call	 Px_DecRef
$LN4@assemble_f:

; 3811 :     if (a->a_postorder)

  000e8	48 8b 4f 10	 mov	 rcx, QWORD PTR [rdi+16]
  000ec	48 85 c9	 test	 rcx, rcx
  000ef	74 05		 je	 SHORT $LN1@assemble_f

; 3812 :         PyObject_Free(a->a_postorder);

  000f1	e8 00 00 00 00	 call	 PyObject_Free
$LN1@assemble_f:

; 3813 : }

  000f6	48 8b 5c 24 40	 mov	 rbx, QWORD PTR [rsp+64]
  000fb	48 83 c4 30	 add	 rsp, 48			; 00000030H
  000ff	5f		 pop	 rdi
  00100	c3		 ret	 0
assemble_free ENDP
; Function compile flags: /Ogtpy
_TEXT	ENDS
;	COMDAT instrsize
_TEXT	SEGMENT
instr$ = 8
instrsize PROC						; COMDAT

; 3820 :     if (!instr->i_hasarg)

  00000	f6 01 04	 test	 BYTE PTR [rcx], 4
  00003	75 06		 jne	 SHORT $LN2@instrsize

; 3821 :         return 1;               /* 1 byte for the opcode*/

  00005	b8 01 00 00 00	 mov	 eax, 1

; 3823 :         return 6;               /* 1 (opcode) + 1 (EXTENDED_ARG opcode) + 2 (oparg) + 2(oparg extended) */
; 3824 :     return 3;                   /* 1 (opcode) + 2 (oparg) */
; 3825 : }

  0000a	c3		 ret	 0
$LN2@instrsize:

; 3822 :     if (instr->i_oparg > 0xffff)

  0000b	81 79 08 ff ff
	00 00		 cmp	 DWORD PTR [rcx+8], 65535 ; 0000ffffH
  00012	b8 03 00 00 00	 mov	 eax, 3
  00017	ba 06 00 00 00	 mov	 edx, 6
  0001c	0f 4f c2	 cmovg	 eax, edx

; 3823 :         return 6;               /* 1 (opcode) + 1 (EXTENDED_ARG opcode) + 2 (oparg) + 2(oparg extended) */
; 3824 :     return 3;                   /* 1 (opcode) + 2 (oparg) */
; 3825 : }

  0001f	c3		 ret	 0
instrsize ENDP
_TEXT	ENDS
;	COMDAT pdata
pdata	SEGMENT
$pdata$blocksize DD imagerel blocksize
	DD	imagerel blocksize+46
	DD	imagerel $unwind$blocksize
pdata	ENDS
;	COMDAT xdata
xdata	SEGMENT
$unwind$blocksize DD 010401H
	DD	04204H
; Function compile flags: /Ogtpy
xdata	ENDS
;	COMDAT blocksize
_TEXT	SEGMENT
b$ = 48
blocksize PROC						; COMDAT

; 3829 : {

  00000	48 83 ec 28	 sub	 rsp, 40			; 00000028H

; 3832 : 
; 3833 :     for (i = 0; i < b->b_iused; i++)

  00004	8b 41 08	 mov	 eax, DWORD PTR [rcx+8]
  00007	45 33 c0	 xor	 r8d, r8d
  0000a	85 c0		 test	 eax, eax
  0000c	7e 18		 jle	 SHORT $LN8@blocksize

; 3830 :     int i;
; 3831 :     int size = 0;

  0000e	48 8b 49 10	 mov	 rcx, QWORD PTR [rcx+16]
  00012	44 8b c8	 mov	 r9d, eax
$LL3@blocksize:

; 3834 :         size += instrsize(&b->b_instr[i]);

  00015	e8 00 00 00 00	 call	 instrsize
  0001a	48 83 c1 20	 add	 rcx, 32			; 00000020H
  0001e	44 03 c0	 add	 r8d, eax
  00021	49 ff c9	 dec	 r9
  00024	75 ef		 jne	 SHORT $LL3@blocksize
$LN8@blocksize:

; 3835 :     return size;

  00026	41 8b c0	 mov	 eax, r8d

; 3836 : }

  00029	48 83 c4 28	 add	 rsp, 40			; 00000028H
  0002d	c3		 ret	 0
blocksize ENDP
_TEXT	ENDS
EXTRN	_PyBytes_Resize:PROC
;	COMDAT pdata
pdata	SEGMENT
$pdata$assemble_lnotab DD imagerel assemble_lnotab
	DD	imagerel assemble_lnotab+505
	DD	imagerel $unwind$assemble_lnotab
pdata	ENDS
;	COMDAT xdata
xdata	SEGMENT
$unwind$assemble_lnotab DD 0c1e01H
	DD	0b741eH
	DD	0a641eH
	DD	09541eH
	DD	08341eH
	DD	0e01a321eH
	DD	0c016d018H
; Function compile flags: /Ogtpy
xdata	ENDS
;	COMDAT assemble_lnotab
_TEXT	SEGMENT
a$ = 64
i$ = 72
assemble_lnotab PROC					; COMDAT

; 3844 : {

  00000	48 89 5c 24 08	 mov	 QWORD PTR [rsp+8], rbx
  00005	48 89 6c 24 10	 mov	 QWORD PTR [rsp+16], rbp
  0000a	48 89 74 24 18	 mov	 QWORD PTR [rsp+24], rsi
  0000f	48 89 7c 24 20	 mov	 QWORD PTR [rsp+32], rdi
  00014	41 54		 push	 r12
  00016	41 55		 push	 r13
  00018	41 56		 push	 r14
  0001a	48 83 ec 20	 sub	 rsp, 32			; 00000020H

; 3845 :     int d_bytecode, d_lineno;
; 3846 :     int len;
; 3847 :     unsigned char *lnotab;
; 3848 : 
; 3849 :     d_bytecode = a->a_offset - a->a_lineno_off;

  0001e	8b 79 08	 mov	 edi, DWORD PTR [rcx+8]

; 3850 :     d_lineno = i->i_lineno - a->a_lineno;

  00021	8b 72 18	 mov	 esi, DWORD PTR [rdx+24]
  00024	4c 8b f2	 mov	 r14, rdx
  00027	2b 79 28	 sub	 edi, DWORD PTR [rcx+40]
  0002a	2b 71 24	 sub	 esi, DWORD PTR [rcx+36]
  0002d	48 8b d9	 mov	 rbx, rcx

; 3851 : 
; 3852 :     assert(d_bytecode >= 0);
; 3853 :     assert(d_lineno >= 0);
; 3854 : 
; 3855 :     if(d_bytecode == 0 && d_lineno == 0)

  00030	85 ff		 test	 edi, edi
  00032	75 0d		 jne	 SHORT $LN25@assemble_l
  00034	85 f6		 test	 esi, esi
  00036	0f 85 9e 00 00
	00		 jne	 $LN24@assemble_l

; 3856 :         return 1;

  0003c	e9 94 01 00 00	 jmp	 $LN32@assemble_l
$LN25@assemble_l:

; 3857 : 
; 3858 :     if (d_bytecode > 255) {

  00041	81 ff ff 00 00
	00		 cmp	 edi, 255		; 000000ffH
  00047	0f 8e 8d 00 00
	00		 jle	 $LN24@assemble_l

; 3859 :         int j, nbytes, ncodes = d_bytecode / 255;

  0004d	b8 81 80 80 80	 mov	 eax, -2139062143	; ffffffff80808081H
  00052	f7 ef		 imul	 edi
  00054	8d 2c 17	 lea	 ebp, DWORD PTR [rdi+rdx]
  00057	c1 fd 07	 sar	 ebp, 7
  0005a	8b c5		 mov	 eax, ebp
  0005c	c1 e8 1f	 shr	 eax, 31
  0005f	03 e8		 add	 ebp, eax

; 3860 :         nbytes = a->a_lnotab_off + 2 * ncodes;

  00061	8b 41 20	 mov	 eax, DWORD PTR [rcx+32]
  00064	44 8d 6c 2d 00	 lea	 r13d, DWORD PTR [rbp+rbp]
  00069	41 8d 4c 05 00	 lea	 ecx, DWORD PTR [r13+rax]

; 3861 :         len = PyBytes_GET_SIZE(a->a_lnotab);

  0006e	48 8b 43 18	 mov	 rax, QWORD PTR [rbx+24]
  00072	8b 40 60	 mov	 eax, DWORD PTR [rax+96]

; 3862 :         if (nbytes >= len) {

  00075	3b c8		 cmp	 ecx, eax
  00077	7c 31		 jl	 SHORT $LN18@assemble_l

; 3863 :             if ((len <= INT_MAX / 2) && (len * 2 < nbytes))

  00079	3d ff ff ff 3f	 cmp	 eax, 1073741823		; 3fffffffH
  0007e	7f 1e		 jg	 SHORT $LN20@assemble_l
  00080	03 c0		 add	 eax, eax
  00082	3b c1		 cmp	 eax, ecx
  00084	0f 4c c1	 cmovl	 eax, ecx

; 3870 :             }
; 3871 :             if (_PyBytes_Resize(&a->a_lnotab, len) < 0)

  00087	48 8d 4b 18	 lea	 rcx, QWORD PTR [rbx+24]
  0008b	48 63 d0	 movsxd	 rdx, eax
  0008e	e8 00 00 00 00	 call	 _PyBytes_Resize
  00093	85 c0		 test	 eax, eax
  00095	79 13		 jns	 SHORT $LN18@assemble_l

; 3872 :                 return 0;

  00097	33 c0		 xor	 eax, eax
  00099	e9 3c 01 00 00	 jmp	 $LN26@assemble_l
$LN20@assemble_l:

; 3864 :                 len = nbytes;
; 3865 :             else if (len <= INT_MAX / 2)
; 3866 :                 len *= 2;
; 3867 :             else {
; 3868 :                 PyErr_NoMemory();

  0009e	e8 00 00 00 00	 call	 PyErr_NoMemory
$LN34@assemble_l:

; 3869 :                 return 0;

  000a3	33 c0		 xor	 eax, eax
  000a5	e9 30 01 00 00	 jmp	 $LN26@assemble_l
$LN18@assemble_l:

; 3873 :         }
; 3874 :         lnotab = (unsigned char *)
; 3875 :                    PyBytes_AS_STRING(a->a_lnotab) + a->a_lnotab_off;

  000aa	48 63 4b 20	 movsxd	 rcx, DWORD PTR [rbx+32]
  000ae	48 8b 43 18	 mov	 rax, QWORD PTR [rbx+24]
  000b2	48 8d 54 01 78	 lea	 rdx, QWORD PTR [rcx+rax+120]

; 3876 :         for (j = 0; j < ncodes; j++) {

  000b7	85 ed		 test	 ebp, ebp
  000b9	7e 13		 jle	 SHORT $LN15@assemble_l

; 3873 :         }
; 3874 :         lnotab = (unsigned char *)
; 3875 :                    PyBytes_AS_STRING(a->a_lnotab) + a->a_lnotab_off;

  000bb	8b cd		 mov	 ecx, ebp
  000bd	0f 1f 00	 npad	 3
$LL17@assemble_l:

; 3877 :             *lnotab++ = 255;

  000c0	66 c7 02 ff 00	 mov	 WORD PTR [rdx], 255	; 000000ffH

; 3878 :             *lnotab++ = 0;

  000c5	48 83 c2 02	 add	 rdx, 2
  000c9	48 ff c9	 dec	 rcx
  000cc	75 f2		 jne	 SHORT $LL17@assemble_l
$LN15@assemble_l:

; 3879 :         }
; 3880 :         d_bytecode -= ncodes * 255;

  000ce	69 ed 01 ff ff
	ff		 imul	 ebp, -255		; ffffffffffffff01H
  000d4	03 fd		 add	 edi, ebp

; 3881 :         a->a_lnotab_off += ncodes * 2;

  000d6	44 01 6b 20	 add	 DWORD PTR [rbx+32], r13d
$LN24@assemble_l:

; 3882 :     }
; 3883 :     assert(d_bytecode <= 255);
; 3884 :     if (d_lineno > 255) {

  000da	81 fe ff 00 00
	00		 cmp	 esi, 255		; 000000ffH
  000e0	0f 8e 94 00 00
	00		 jle	 $LN14@assemble_l

; 3885 :         int j, nbytes, ncodes = d_lineno / 255;

  000e6	b8 81 80 80 80	 mov	 eax, -2139062143	; ffffffff80808081H
  000eb	f7 ee		 imul	 esi
  000ed	8d 2c 16	 lea	 ebp, DWORD PTR [rsi+rdx]
  000f0	c1 fd 07	 sar	 ebp, 7
  000f3	8b c5		 mov	 eax, ebp
  000f5	c1 e8 1f	 shr	 eax, 31
  000f8	03 e8		 add	 ebp, eax

; 3886 :         nbytes = a->a_lnotab_off + 2 * ncodes;

  000fa	8b 43 20	 mov	 eax, DWORD PTR [rbx+32]
  000fd	44 8d 6c 2d 00	 lea	 r13d, DWORD PTR [rbp+rbp]
  00102	41 8d 4c 05 00	 lea	 ecx, DWORD PTR [r13+rax]

; 3887 :         len = PyBytes_GET_SIZE(a->a_lnotab);

  00107	48 8b 43 18	 mov	 rax, QWORD PTR [rbx+24]
  0010b	8b 40 60	 mov	 eax, DWORD PTR [rax+96]

; 3888 :         if (nbytes >= len) {

  0010e	3b c8		 cmp	 ecx, eax
  00110	7c 22		 jl	 SHORT $LN8@assemble_l

; 3889 :             if ((len <= INT_MAX / 2) && len * 2 < nbytes)

  00112	3d ff ff ff 3f	 cmp	 eax, 1073741823		; 3fffffffH
  00117	7f 85		 jg	 SHORT $LN20@assemble_l
  00119	03 c0		 add	 eax, eax
  0011b	3b c1		 cmp	 eax, ecx
  0011d	0f 4c c1	 cmovl	 eax, ecx

; 3890 :                 len = nbytes;
; 3891 :             else if (len <= INT_MAX / 2)
; 3892 :                 len *= 2;
; 3893 :             else {
; 3894 :                 PyErr_NoMemory();
; 3895 :                 return 0;
; 3896 :             }
