; Listing generated by Microsoft (R) Optimizing Compiler Version 16.00.40219.01 

include listing.inc

INCLUDELIB MSVCRT
INCLUDELIB OLDNAMES

PUBLIC	??_C@_0BB@CKNECNBG@?$DMdummy?5key?$DO?5type?$AA@ ; `string'
PUBLIC	??_C@_0M@JJEDNKGI@dict_values?$AA@		; `string'
PUBLIC	??_C@_0L@KKKCFCKM@dict_items?$AA@		; `string'
PUBLIC	??_C@_09DCAKNFLJ@dict_keys?$AA@			; `string'
PUBLIC	??_C@_0L@EMANFHEK@isdisjoint?$AA@		; `string'
PUBLIC	??_C@_0BM@OJODNHLP@symmetric_difference_update?$AA@ ; `string'
PUBLIC	??_C@_0BE@EMPOGGNJ@intersection_update?$AA@	; `string'
PUBLIC	??_C@_0BC@LNEPHBNC@difference_update?$AA@	; `string'
PUBLIC	??_C@_0BC@HJGBEDCD@dict_itemiterator?$AA@	; `string'
PUBLIC	??_C@_0BD@EEPKNHCO@dict_valueiterator?$AA@	; `string'
PUBLIC	??_C@_0BB@HHJBMJDG@dict_keyiterator?$AA@	; `string'
PUBLIC	??_C@_0L@NNMACJIG@__reduce__?$AA@		; `string'
PUBLIC	??_C@_0BA@BJLPBKGK@__length_hint__?$AA@		; `string'
PUBLIC	??_C@_04BCIDKIGN@dict?$AA@			; `string'
PUBLIC	PyDict_Contains
PUBLIC	??_C@_04COAGEIMF@copy?$AA@			; `string'
PUBLIC	??_C@_05MEHLAELG@clear?$AA@			; `string'
PUBLIC	??_C@_08KMEGJNJN@fromkeys?$AA@			; `string'
PUBLIC	??_C@_06HDLLMMEJ@update?$AA@			; `string'
PUBLIC	??_C@_06GEKOPAHD@values?$AA@			; `string'
PUBLIC	??_C@_05CFHBDDLG@items?$AA@			; `string'
PUBLIC	??_C@_07KOGBLOBN@popitem?$AA@			; `string'
PUBLIC	??_C@_03NJDAHFJE@pop?$AA@			; `string'
PUBLIC	??_C@_0L@MIJGIGKN@setdefault?$AA@		; `string'
PUBLIC	??_C@_03HNAFFKGA@get?$AA@			; `string'
PUBLIC	??_C@_0L@HOGGIPGN@__sizeof__?$AA@		; `string'
PUBLIC	??_C@_0M@GAJGCIJD@__getitem__?$AA@		; `string'
PUBLIC	??_C@_0N@MCIOADFH@__contains__?$AA@		; `string'
PUBLIC	??_C@_04IEPFDAGF@keys?$AA@			; `string'
PUBLIC	??_C@_0M@PPMOEBOH@__missing__?$AA@		; `string'
PUBLIC	PyDict_Type
PUBLIC	PyDictIterKey_Type
PUBLIC	PyDictIterValue_Type
PUBLIC	PyDictIterItem_Type
PUBLIC	PyDictKeys_Type
PUBLIC	PyDictItems_Type
PUBLIC	PyDictValues_Type
EXTRN	PyObject_SelfIter:PROC
EXTRN	PyObject_GC_Del:PROC
EXTRN	PyType_GenericAlloc:PROC
EXTRN	PyObject_GenericGetAttr:PROC
EXTRN	PyObject_HashNotImplemented:PROC
EXTRN	PyType_Type:BYTE
_BSS	SEGMENT
numfree	DD	01H DUP (?)
	ALIGN	8

empty_values DQ	01H DUP (?)
dictvalues_methods DB 020H DUP (?)
_BSS	ENDS
;	COMDAT ??_C@_0BB@CKNECNBG@?$DMdummy?5key?$DO?5type?$AA@
CONST	SEGMENT
??_C@_0BB@CKNECNBG@?$DMdummy?5key?$DO?5type?$AA@ DB '<dummy key> type', 00H ; `string'
CONST	ENDS
;	COMDAT ??_C@_0M@JJEDNKGI@dict_values?$AA@
CONST	SEGMENT
??_C@_0M@JJEDNKGI@dict_values?$AA@ DB 'dict_values', 00H ; `string'
CONST	ENDS
;	COMDAT ??_C@_0L@KKKCFCKM@dict_items?$AA@
CONST	SEGMENT
??_C@_0L@KKKCFCKM@dict_items?$AA@ DB 'dict_items', 00H	; `string'
CONST	ENDS
;	COMDAT ??_C@_09DCAKNFLJ@dict_keys?$AA@
CONST	SEGMENT
??_C@_09DCAKNFLJ@dict_keys?$AA@ DB 'dict_keys', 00H	; `string'
CONST	ENDS
;	COMDAT ??_C@_0L@EMANFHEK@isdisjoint?$AA@
CONST	SEGMENT
??_C@_0L@EMANFHEK@isdisjoint?$AA@ DB 'isdisjoint', 00H	; `string'
CONST	ENDS
;	COMDAT ??_C@_0BM@OJODNHLP@symmetric_difference_update?$AA@
CONST	SEGMENT
??_C@_0BM@OJODNHLP@symmetric_difference_update?$AA@ DB 'symmetric_differe'
	DB	'nce_update', 00H				; `string'
CONST	ENDS
;	COMDAT ??_C@_0BE@EMPOGGNJ@intersection_update?$AA@
CONST	SEGMENT
??_C@_0BE@EMPOGGNJ@intersection_update?$AA@ DB 'intersection_update', 00H ; `string'
CONST	ENDS
;	COMDAT ??_C@_0BC@LNEPHBNC@difference_update?$AA@
CONST	SEGMENT
??_C@_0BC@LNEPHBNC@difference_update?$AA@ DB 'difference_update', 00H ; `string'
CONST	ENDS
;	COMDAT ??_C@_0BC@HJGBEDCD@dict_itemiterator?$AA@
CONST	SEGMENT
??_C@_0BC@HJGBEDCD@dict_itemiterator?$AA@ DB 'dict_itemiterator', 00H ; `string'
CONST	ENDS
;	COMDAT ??_C@_0BD@EEPKNHCO@dict_valueiterator?$AA@
CONST	SEGMENT
??_C@_0BD@EEPKNHCO@dict_valueiterator?$AA@ DB 'dict_valueiterator', 00H ; `string'
CONST	ENDS
;	COMDAT ??_C@_0BB@HHJBMJDG@dict_keyiterator?$AA@
CONST	SEGMENT
??_C@_0BB@HHJBMJDG@dict_keyiterator?$AA@ DB 'dict_keyiterator', 00H ; `string'
CONST	ENDS
;	COMDAT ??_C@_0L@NNMACJIG@__reduce__?$AA@
CONST	SEGMENT
??_C@_0L@NNMACJIG@__reduce__?$AA@ DB '__reduce__', 00H	; `string'
CONST	ENDS
;	COMDAT ??_C@_0BA@BJLPBKGK@__length_hint__?$AA@
CONST	SEGMENT
??_C@_0BA@BJLPBKGK@__length_hint__?$AA@ DB '__length_hint__', 00H ; `string'
CONST	ENDS
;	COMDAT ??_C@_04BCIDKIGN@dict?$AA@
CONST	SEGMENT
??_C@_04BCIDKIGN@dict?$AA@ DB 'dict', 00H		; `string'
CONST	ENDS
;	COMDAT ??_C@_04COAGEIMF@copy?$AA@
CONST	SEGMENT
??_C@_04COAGEIMF@copy?$AA@ DB 'copy', 00H		; `string'
CONST	ENDS
;	COMDAT ??_C@_05MEHLAELG@clear?$AA@
CONST	SEGMENT
??_C@_05MEHLAELG@clear?$AA@ DB 'clear', 00H		; `string'
CONST	ENDS
;	COMDAT ??_C@_08KMEGJNJN@fromkeys?$AA@
CONST	SEGMENT
??_C@_08KMEGJNJN@fromkeys?$AA@ DB 'fromkeys', 00H	; `string'
CONST	ENDS
;	COMDAT ??_C@_06HDLLMMEJ@update?$AA@
CONST	SEGMENT
??_C@_06HDLLMMEJ@update?$AA@ DB 'update', 00H		; `string'
CONST	ENDS
;	COMDAT ??_C@_06GEKOPAHD@values?$AA@
CONST	SEGMENT
??_C@_06GEKOPAHD@values?$AA@ DB 'values', 00H		; `string'
CONST	ENDS
;	COMDAT ??_C@_05CFHBDDLG@items?$AA@
CONST	SEGMENT
??_C@_05CFHBDDLG@items?$AA@ DB 'items', 00H		; `string'
CONST	ENDS
;	COMDAT ??_C@_07KOGBLOBN@popitem?$AA@
CONST	SEGMENT
??_C@_07KOGBLOBN@popitem?$AA@ DB 'popitem', 00H		; `string'
CONST	ENDS
;	COMDAT ??_C@_03NJDAHFJE@pop?$AA@
CONST	SEGMENT
??_C@_03NJDAHFJE@pop?$AA@ DB 'pop', 00H			; `string'
CONST	ENDS
;	COMDAT ??_C@_0L@MIJGIGKN@setdefault?$AA@
CONST	SEGMENT
??_C@_0L@MIJGIGKN@setdefault?$AA@ DB 'setdefault', 00H	; `string'
CONST	ENDS
;	COMDAT ??_C@_03HNAFFKGA@get?$AA@
CONST	SEGMENT
??_C@_03HNAFFKGA@get?$AA@ DB 'get', 00H			; `string'
CONST	ENDS
;	COMDAT ??_C@_0L@HOGGIPGN@__sizeof__?$AA@
CONST	SEGMENT
??_C@_0L@HOGGIPGN@__sizeof__?$AA@ DB '__sizeof__', 00H	; `string'
CONST	ENDS
;	COMDAT ??_C@_0M@GAJGCIJD@__getitem__?$AA@
CONST	SEGMENT
??_C@_0M@GAJGCIJD@__getitem__?$AA@ DB '__getitem__', 00H ; `string'
CONST	ENDS
;	COMDAT ??_C@_0N@MCIOADFH@__contains__?$AA@
CONST	SEGMENT
??_C@_0N@MCIOADFH@__contains__?$AA@ DB '__contains__', 00H ; `string'
CONST	ENDS
;	COMDAT ??_C@_04IEPFDAGF@keys?$AA@
CONST	SEGMENT
??_C@_04IEPFDAGF@keys?$AA@ DB 'keys', 00H		; `string'
CONST	ENDS
_TLS	SEGMENT
?PyId_symmetric_difference_update@?1??dictviews_xor@@9@9 DQ 0000000000000000H ; `dictviews_xor'::`2'::PyId_symmetric_difference_update
	DQ	FLAT:??_C@_0BM@OJODNHLP@symmetric_difference_update?$AA@
	DQ	0000000000000000H
?PyId_update@?1??dictviews_or@@9@9 DQ 0000000000000000H	; `dictviews_or'::`2'::PyId_update
	DQ	FLAT:??_C@_06HDLLMMEJ@update?$AA@
	DQ	0000000000000000H
?PyId_intersection_update@?1??dictviews_and@@9@9 DQ 0000000000000000H ; `dictviews_and'::`2'::PyId_intersection_update
	DQ	FLAT:??_C@_0BE@EMPOGGNJ@intersection_update?$AA@
	DQ	0000000000000000H
?PyId_difference_update@?1??dictviews_sub@@9@9 DQ 0000000000000000H ; `dictviews_sub'::`2'::PyId_difference_update
	DQ	FLAT:??_C@_0BC@LNEPHBNC@difference_update?$AA@
	DQ	0000000000000000H
?PyId_keys@?2??dict_update_common@@9@9 DQ 0000000000000000H ; `dict_update_common'::`3'::PyId_keys
	DQ	FLAT:??_C@_04IEPFDAGF@keys?$AA@
	DQ	0000000000000000H
?PyId___missing__@?4??dict_subscript@@9@9 DQ 0000000000000000H ; `dict_subscript'::`5'::PyId___missing__
	DQ	FLAT:??_C@_0M@PPMOEBOH@__missing__?$AA@
	DQ	0000000000000000H
_TLS	ENDS
;	COMDAT ??_C@_0M@PPMOEBOH@__missing__?$AA@
CONST	SEGMENT
??_C@_0M@PPMOEBOH@__missing__?$AA@ DB '__missing__', 00H ; `string'
CONST	ENDS
_DATA	SEGMENT
empty_keys_struct DQ 0000000000000002H
	DQ	0000000000000001H
	DQ	FLAT:lookdict_split
	DQ	0000000000000000H
	DQ	0000000000000000H
	DQ	0000000000000000H
	DQ	0000000000000000H
dict_as_mapping DQ FLAT:dict_length
	DQ	FLAT:dict_subscript
	DQ	FLAT:dict_ass_sub
contains__doc__ DB 'D.__contains__(k) -> True if D has a key k, else Fals'
	DB	'e', 00H
	ORG $+1
getitem__doc__ DB 'x.__getitem__(y) <==> x[y]', 00H
	ORG $+5
sizeof__doc__ DB 'D.__sizeof__() -> size of D in memory, in bytes', 00H
get__doc__ DB	'D.get(k[,d]) -> D[k] if k in D, else d.  d defaults to N'
	DB	'one.', 00H
	ORG $+11
setdefault_doc__ DB 'D.setdefault(k[,d]) -> D.get(k,d), also set D[k]=d i'
	DB	'f k not in D', 00H
	ORG $+15
pop__doc__ DB	'D.pop(k[,d]) -> v, remove specified key and return the c'
	DB	'orresponding value.', 0aH, 'If key is not found, d is returne'
	DB	'd if given, otherwise KeyError is raised', 00H
	ORG $+10
popitem__doc__ DB 'D.popitem() -> (k, v), remove and return some (key, va'
	DB	'lue) pair as a', 0aH, '2-tuple; but raise KeyError if D is em'
	DB	'pty.', 00H
update__doc__ DB 'D.update([E, ]**F) -> None.  Update D from dict/iterabl'
	DB	'e E and F.', 0aH, 'If E present and has a .keys() method, doe'
	DB	's:     for k in E: D[k] = E[k]', 0aH, 'If E present and lacks'
	DB	' .keys() method, does:     for (k, v) in E: D[k] = v', 0aH, 'I'
	DB	'n either case, this is followed by: for k in F: D[k] = F[k]', 00H
	ORG $+13
fromkeys__doc__ DB 'dict.fromkeys(S[,v]) -> New dict with keys from S and'
	DB	' values equal to v.', 0aH, 'v defaults to None.', 00H
	ORG $+3
clear__doc__ DB	'D.clear() -> None.  Remove all items from D.', 00H
	ORG $+3
copy__doc__ DB	'D.copy() -> a shallow copy of D', 00H
keys__doc__ DB	'D.keys() -> a set-like object providing a view on D''s k'
	DB	'eys', 00H
	ORG $+5
items__doc__ DB	'D.items() -> a set-like object providing a view on D''s '
	DB	'items', 00H
	ORG $+3
values__doc__ DB 'D.values() -> an object providing a view on D''s values'
	DB	00H
	ORG $+9
mapp_methods DQ	FLAT:??_C@_0N@MCIOADFH@__contains__?$AA@
	DQ	FLAT:dict_contains
	DD	048H
	ORG $+4
	DQ	FLAT:contains__doc__
	DQ	FLAT:??_C@_0M@GAJGCIJD@__getitem__?$AA@
	DQ	FLAT:dict_subscript
	DD	048H
	ORG $+4
	DQ	FLAT:getitem__doc__
	DQ	FLAT:??_C@_0L@HOGGIPGN@__sizeof__?$AA@
	DQ	FLAT:dict_sizeof
	DD	04H
	ORG $+4
	DQ	FLAT:sizeof__doc__
	DQ	FLAT:??_C@_03HNAFFKGA@get?$AA@
	DQ	FLAT:dict_get
	DD	01H
	ORG $+4
	DQ	FLAT:get__doc__
	DQ	FLAT:??_C@_0L@MIJGIGKN@setdefault?$AA@
	DQ	FLAT:dict_setdefault
	DD	01H
	ORG $+4
	DQ	FLAT:setdefault_doc__
	DQ	FLAT:??_C@_03NJDAHFJE@pop?$AA@
	DQ	FLAT:dict_pop
	DD	01H
	ORG $+4
	DQ	FLAT:pop__doc__
	DQ	FLAT:??_C@_07KOGBLOBN@popitem?$AA@
	DQ	FLAT:dict_popitem
	DD	04H
	ORG $+4
	DQ	FLAT:popitem__doc__
	DQ	FLAT:??_C@_04IEPFDAGF@keys?$AA@
	DQ	FLAT:dictkeys_new
	DD	04H
	ORG $+4
	DQ	FLAT:keys__doc__
	DQ	FLAT:??_C@_05CFHBDDLG@items?$AA@
	DQ	FLAT:dictitems_new
	DD	04H
	ORG $+4
	DQ	FLAT:items__doc__
	DQ	FLAT:??_C@_06GEKOPAHD@values?$AA@
	DQ	FLAT:dictvalues_new
	DD	04H
	ORG $+4
	DQ	FLAT:values__doc__
	DQ	FLAT:??_C@_06HDLLMMEJ@update?$AA@
	DQ	FLAT:dict_update
	DD	03H
	ORG $+4
	DQ	FLAT:update__doc__
	DQ	FLAT:??_C@_08KMEGJNJN@fromkeys?$AA@
	DQ	FLAT:dict_fromkeys
	DD	011H
	ORG $+4
	DQ	FLAT:fromkeys__doc__
	DQ	FLAT:??_C@_05MEHLAELG@clear?$AA@
	DQ	FLAT:dict_clear
	DD	04H
	ORG $+4
	DQ	FLAT:clear__doc__
	DQ	FLAT:??_C@_04COAGEIMF@copy?$AA@
	DQ	FLAT:dict_copy
	DD	04H
	ORG $+4
	DQ	FLAT:copy__doc__
	DQ	0000000000000000H
	DQ	0000000000000000H
	ORG $+16
dict_as_sequence DQ 0000000000000000H
	DQ	0000000000000000H
	DQ	0000000000000000H
	DQ	0000000000000000H
	DQ	0000000000000000H
	DQ	0000000000000000H
	DQ	0000000000000000H
	DQ	FLAT:PyDict_Contains
	DQ	0000000000000000H
	DQ	0000000000000000H
dictionary_doc DB 'dict() -> new empty dictionary', 0aH, 'dict(mapping) -'
	DB	'> new dictionary initialized from a mapping object''s', 0aH, ' '
	DB	'   (key, value) pairs', 0aH, 'dict(iterable) -> new dictionar'
	DB	'y initialized as if via:', 0aH, '    d = {}', 0aH, '    for k'
	DB	', v in iterable:', 0aH, '        d[k] = v', 0aH, 'dict(**kwar'
	DB	'gs) -> new dictionary initialized with the name=value pairs', 0aH
	DB	'    in the keyword argument list.  For example:  dict(one=1, '
	DB	'two=2)', 00H
	ORG $+13
PyDict_Type DQ	dead1234beef5678H
	DQ	dead1234beef5678H
	DQ	0000000000000000H
	ORG $+8
	DQ	0000000000000001H
	DQ	0000000000000000H
	DQ	0000000000000000H
	DQ	0000000000000000H
	DQ	dead1234beef5678H
	DQ	dead1234beef5678H
	DQ	0000000000000001H
	DQ	FLAT:PyType_Type
	DQ	0000000000000000H
	ORG $+8
	DQ	FLAT:??_C@_04BCIDKIGN@dict?$AA@
	DQ	0000000000000080H
	DQ	0000000000000000H
	DQ	FLAT:dict_dealloc
	DQ	0000000000000000H
	DQ	0000000000000000H
	DQ	0000000000000000H
	DQ	0000000000000000H
	DQ	FLAT:dict_repr
	DQ	0000000000000000H
	DQ	FLAT:dict_as_sequence
	DQ	FLAT:dict_as_mapping
	DQ	FLAT:PyObject_HashNotImplemented
	DQ	0000000000000000H
	DQ	0000000000000000H
	DQ	FLAT:PyObject_GenericGetAttr
	DQ	0000000000000000H
	DQ	0000000000000000H
	DD	020044400H
	ORG $+4
	DQ	FLAT:dictionary_doc
	DQ	FLAT:dict_traverse
	DQ	FLAT:dict_tp_clear
	DQ	FLAT:dict_richcompare
	DQ	0000000000000000H
	DQ	FLAT:dict_iter
	DQ	0000000000000000H
	DQ	FLAT:mapp_methods
	DQ	0000000000000000H
	DQ	0000000000000000H
	DQ	0000000000000000H
	DQ	0000000000000000H
	DQ	0000000000000000H
	DQ	0000000000000000H
	DQ	0000000000000000H
	DQ	FLAT:dict_init
	DQ	FLAT:PyType_GenericAlloc
	DQ	FLAT:dict_new
	DQ	FLAT:PyObject_GC_Del
	ORG $+64
length_hint_doc DB 'Private method returning an estimate of len(list(it))'
	DB	'.', 00H
	ORG $+1
reduce_doc DB	'Return state information for pickling.', 00H
	ORG $+1
dictiter_methods DQ FLAT:??_C@_0BA@BJLPBKGK@__length_hint__?$AA@
	DQ	FLAT:dictiter_len
	DD	04H
	ORG $+4
	DQ	FLAT:length_hint_doc
	DQ	FLAT:??_C@_0L@NNMACJIG@__reduce__?$AA@
	DQ	FLAT:dictiter_reduce
	DD	04H
	ORG $+4
	DQ	FLAT:reduce_doc
	DQ	0000000000000000H
	DQ	0000000000000000H
	ORG $+16
PyDictIterKey_Type DQ dead1234beef5678H
	DQ	dead1234beef5678H
	DQ	0000000000000000H
	ORG $+8
	DQ	0000000000000001H
	DQ	0000000000000000H
	DQ	0000000000000000H
	DQ	0000000000000000H
	DQ	dead1234beef5678H
	DQ	dead1234beef5678H
	DQ	0000000000000001H
	DQ	FLAT:PyType_Type
	DQ	0000000000000000H
	ORG $+8
	DQ	FLAT:??_C@_0BB@HHJBMJDG@dict_keyiterator?$AA@
	DQ	0000000000000090H
	DQ	0000000000000000H
	DQ	FLAT:dictiter_dealloc
	DQ	0000000000000000H
	DQ	0000000000000000H
	DQ	0000000000000000H
	DQ	0000000000000000H
	DQ	0000000000000000H
	DQ	0000000000000000H
	DQ	0000000000000000H
	DQ	0000000000000000H
	DQ	0000000000000000H
	DQ	0000000000000000H
	DQ	0000000000000000H
	DQ	FLAT:PyObject_GenericGetAttr
	DQ	0000000000000000H
	DQ	0000000000000000H
	DD	044000H
	ORG $+4
	DQ	0000000000000000H
	DQ	FLAT:dictiter_traverse
	DQ	0000000000000000H
	DQ	0000000000000000H
	DQ	0000000000000000H
	DQ	FLAT:PyObject_SelfIter
	DQ	FLAT:dictiter_iternextkey
	DQ	FLAT:dictiter_methods
	DQ	0000000000000000H
	ORG $+144
PyDictIterValue_Type DQ dead1234beef5678H
	DQ	dead1234beef5678H
	DQ	0000000000000000H
	ORG $+8
	DQ	0000000000000001H
	DQ	0000000000000000H
	DQ	0000000000000000H
	DQ	0000000000000000H
	DQ	dead1234beef5678H
	DQ	dead1234beef5678H
	DQ	0000000000000001H
	DQ	FLAT:PyType_Type
	DQ	0000000000000000H
	ORG $+8
	DQ	FLAT:??_C@_0BD@EEPKNHCO@dict_valueiterator?$AA@
	DQ	0000000000000090H
	DQ	0000000000000000H
	DQ	FLAT:dictiter_dealloc
	DQ	0000000000000000H
	DQ	0000000000000000H
	DQ	0000000000000000H
	DQ	0000000000000000H
	DQ	0000000000000000H
	DQ	0000000000000000H
	DQ	0000000000000000H
	DQ	0000000000000000H
	DQ	0000000000000000H
	DQ	0000000000000000H
	DQ	0000000000000000H
	DQ	FLAT:PyObject_GenericGetAttr
	DQ	0000000000000000H
	DQ	0000000000000000H
	DD	044000H
	ORG $+4
	DQ	0000000000000000H
	DQ	FLAT:dictiter_traverse
	DQ	0000000000000000H
	DQ	0000000000000000H
	DQ	0000000000000000H
	DQ	FLAT:PyObject_SelfIter
	DQ	FLAT:dictiter_iternextvalue
	DQ	FLAT:dictiter_methods
	DQ	0000000000000000H
	ORG $+144
PyDictIterItem_Type DQ dead1234beef5678H
	DQ	dead1234beef5678H
	DQ	0000000000000000H
	ORG $+8
	DQ	0000000000000001H
	DQ	0000000000000000H
	DQ	0000000000000000H
	DQ	0000000000000000H
	DQ	dead1234beef5678H
	DQ	dead1234beef5678H
	DQ	0000000000000001H
	DQ	FLAT:PyType_Type
	DQ	0000000000000000H
	ORG $+8
	DQ	FLAT:??_C@_0BC@HJGBEDCD@dict_itemiterator?$AA@
	DQ	0000000000000090H
	DQ	0000000000000000H
	DQ	FLAT:dictiter_dealloc
	DQ	0000000000000000H
	DQ	0000000000000000H
	DQ	0000000000000000H
	DQ	0000000000000000H
	DQ	0000000000000000H
	DQ	0000000000000000H
	DQ	0000000000000000H
	DQ	0000000000000000H
	DQ	0000000000000000H
	DQ	0000000000000000H
	DQ	0000000000000000H
	DQ	FLAT:PyObject_GenericGetAttr
	DQ	0000000000000000H
	DQ	0000000000000000H
	DD	044000H
	ORG $+4
	DQ	0000000000000000H
	DQ	FLAT:dictiter_traverse
	DQ	0000000000000000H
	DQ	0000000000000000H
	DQ	0000000000000000H
	DQ	FLAT:PyObject_SelfIter
	DQ	FLAT:dictiter_iternextitem
	DQ	FLAT:dictiter_methods
	DQ	0000000000000000H
	ORG $+144
dictkeys_as_sequence DQ FLAT:dictview_len
	DQ	0000000000000000H
	DQ	0000000000000000H
	DQ	0000000000000000H
	DQ	0000000000000000H
	DQ	0000000000000000H
	DQ	0000000000000000H
	DQ	FLAT:dictkeys_contains
	ORG $+16
dictviews_as_number DQ 0000000000000000H
	DQ	FLAT:dictviews_sub
	DQ	0000000000000000H
	DQ	0000000000000000H
	DQ	0000000000000000H
	DQ	0000000000000000H
	DQ	0000000000000000H
	DQ	0000000000000000H
	DQ	0000000000000000H
	DQ	0000000000000000H
	DQ	0000000000000000H
	DQ	0000000000000000H
	DQ	0000000000000000H
	DQ	FLAT:dictviews_and
	DQ	FLAT:dictviews_xor
	DQ	FLAT:dictviews_or
	ORG $+144
isdisjoint_doc DB 'Return True if the view and the given iterable have a '
	DB	'null intersection.', 00H
	ORG $+7
dictkeys_methods DQ FLAT:??_C@_0L@EMANFHEK@isdisjoint?$AA@
	DQ	FLAT:dictviews_isdisjoint
	DD	08H
	ORG $+4
	DQ	FLAT:isdisjoint_doc
	DQ	0000000000000000H
	DQ	0000000000000000H
	ORG $+16
PyDictKeys_Type DQ dead1234beef5678H
	DQ	dead1234beef5678H
	DQ	0000000000000000H
	ORG $+8
	DQ	0000000000000001H
	DQ	0000000000000000H
	DQ	0000000000000000H
	DQ	0000000000000000H
	DQ	dead1234beef5678H
	DQ	dead1234beef5678H
	DQ	0000000000000001H
	DQ	FLAT:PyType_Type
	DQ	0000000000000000H
	ORG $+8
	DQ	FLAT:??_C@_09DCAKNFLJ@dict_keys?$AA@
	DQ	0000000000000070H
	DQ	0000000000000000H
	DQ	FLAT:dictview_dealloc
	DQ	0000000000000000H
	DQ	0000000000000000H
	DQ	0000000000000000H
	DQ	0000000000000000H
	DQ	FLAT:dictview_repr
	DQ	FLAT:dictviews_as_number
	DQ	FLAT:dictkeys_as_sequence
	DQ	0000000000000000H
	DQ	0000000000000000H
	DQ	0000000000000000H
	DQ	0000000000000000H
	DQ	FLAT:PyObject_GenericGetAttr
	DQ	0000000000000000H
	DQ	0000000000000000H
	DD	044000H
	ORG $+4
	DQ	0000000000000000H
	DQ	FLAT:dictview_traverse
	DQ	0000000000000000H
	DQ	FLAT:dictview_richcompare
	DQ	0000000000000000H
	DQ	FLAT:dictkeys_iter
	DQ	0000000000000000H
	DQ	FLAT:dictkeys_methods
	DQ	0000000000000000H
	ORG $+144
dictitems_as_sequence DQ FLAT:dictview_len
	DQ	0000000000000000H
	DQ	0000000000000000H
	DQ	0000000000000000H
	DQ	0000000000000000H
	DQ	0000000000000000H
	DQ	0000000000000000H
	DQ	FLAT:dictitems_contains
	ORG $+16
dictitems_methods DQ FLAT:??_C@_0L@EMANFHEK@isdisjoint?$AA@
	DQ	FLAT:dictviews_isdisjoint
	DD	08H
	ORG $+4
	DQ	FLAT:isdisjoint_doc
	DQ	0000000000000000H
	DQ	0000000000000000H
	ORG $+16
PyDictItems_Type DQ dead1234beef5678H
	DQ	dead1234beef5678H
	DQ	0000000000000000H
	ORG $+8
	DQ	0000000000000001H
	DQ	0000000000000000H
	DQ	0000000000000000H
	DQ	0000000000000000H
	DQ	dead1234beef5678H
	DQ	dead1234beef5678H
	DQ	0000000000000001H
	DQ	FLAT:PyType_Type
	DQ	0000000000000000H
	ORG $+8
	DQ	FLAT:??_C@_0L@KKKCFCKM@dict_items?$AA@
	DQ	0000000000000070H
	DQ	0000000000000000H
	DQ	FLAT:dictview_dealloc
	DQ	0000000000000000H
	DQ	0000000000000000H
	DQ	0000000000000000H
	DQ	0000000000000000H
	DQ	FLAT:dictview_repr
	DQ	FLAT:dictviews_as_number
	DQ	FLAT:dictitems_as_sequence
	DQ	0000000000000000H
	DQ	0000000000000000H
	DQ	0000000000000000H
	DQ	0000000000000000H
	DQ	FLAT:PyObject_GenericGetAttr
	DQ	0000000000000000H
	DQ	0000000000000000H
	DD	044000H
	ORG $+4
	DQ	0000000000000000H
	DQ	FLAT:dictview_traverse
	DQ	0000000000000000H
	DQ	FLAT:dictview_richcompare
	DQ	0000000000000000H
	DQ	FLAT:dictitems_iter
	DQ	0000000000000000H
	DQ	FLAT:dictitems_methods
	DQ	0000000000000000H
	ORG $+144
dictvalues_as_sequence DQ FLAT:dictview_len
	DQ	0000000000000000H
	DQ	0000000000000000H
	DQ	0000000000000000H
	DQ	0000000000000000H
	DQ	0000000000000000H
	DQ	0000000000000000H
	DQ	0000000000000000H
	ORG $+16
PyDictValues_Type DQ dead1234beef5678H
	DQ	dead1234beef5678H
	DQ	0000000000000000H
	ORG $+8
	DQ	0000000000000001H
	DQ	0000000000000000H
	DQ	0000000000000000H
	DQ	0000000000000000H
	DQ	dead1234beef5678H
	DQ	dead1234beef5678H
	DQ	0000000000000001H
	DQ	FLAT:PyType_Type
	DQ	0000000000000000H
	ORG $+8
	DQ	FLAT:??_C@_0M@JJEDNKGI@dict_values?$AA@
	DQ	0000000000000070H
	DQ	0000000000000000H
	DQ	FLAT:dictview_dealloc
	DQ	0000000000000000H
	DQ	0000000000000000H
	DQ	0000000000000000H
	DQ	0000000000000000H
	DQ	FLAT:dictview_repr
	DQ	0000000000000000H
	DQ	FLAT:dictvalues_as_sequence
	DQ	0000000000000000H
	DQ	0000000000000000H
	DQ	0000000000000000H
	DQ	0000000000000000H
	DQ	FLAT:PyObject_GenericGetAttr
	DQ	0000000000000000H
	DQ	0000000000000000H
	DD	044000H
	ORG $+4
	DQ	0000000000000000H
	DQ	FLAT:dictview_traverse
	DQ	0000000000000000H
	DQ	0000000000000000H
	DQ	0000000000000000H
	DQ	FLAT:dictvalues_iter
	DQ	0000000000000000H
	DQ	FLAT:dictvalues_methods
	DQ	0000000000000000H
	ORG $+144
PyDictDummy_Type DQ dead1234beef5678H
	DQ	dead1234beef5678H
	DQ	0000000000000000H
	ORG $+8
	DQ	0000000000000001H
	DQ	0000000000000000H
	DQ	0000000000000000H
	DQ	0000000000000000H
	DQ	dead1234beef5678H
	DQ	dead1234beef5678H
	DQ	0000000000000001H
	DQ	FLAT:PyType_Type
	DQ	0000000000000000H
	ORG $+8
	DQ	FLAT:??_C@_0BB@CKNECNBG@?$DMdummy?5key?$DO?5type?$AA@
	DQ	0000000000000000H
	DQ	0000000000000000H
	DQ	FLAT:dummy_dealloc
	DQ	0000000000000000H
	DQ	0000000000000000H
	DQ	0000000000000000H
	DQ	0000000000000000H
	DQ	FLAT:dummy_repr
	DQ	0000000000000000H
	DQ	0000000000000000H
	DQ	0000000000000000H
	DQ	0000000000000000H
	DQ	0000000000000000H
	DQ	0000000000000000H
	DQ	0000000000000000H
	DQ	0000000000000000H
	DQ	0000000000000000H
	DD	040000H
	ORG $+4
	ORG $+216
_dummy_struct DQ dead1234beef5678H
	DQ	dead1234beef5678H
	DQ	0000000000000000H
	ORG $+8
	DQ	0000000000000001H
	DQ	0000000000000000H
	DQ	0000000000000000H
	DQ	0000000000000000H
	DQ	dead1234beef5678H
	DQ	dead1234beef5678H
	DQ	0000000000000002H
	DQ	FLAT:PyDictDummy_Type
_DATA	ENDS
PUBLIC	??_C@_0L@DHGMCEID@_Py_IncRef?$AA@		; `string'
PUBLIC	??_C@_0CD@HDJFDCDP@c?3?2src?2pyparallel?2include?2object@ ; `string'
PUBLIC	_Py_IncRef
EXTRN	_PyParallel_Guard:PROC
EXTRN	_Py_PXCTX:PROC
;	COMDAT pdata
; File c:\src\pyparallel\include\object.h
pdata	SEGMENT
$pdata$_Py_IncRef DD imagerel $LN5
	DD	imagerel $LN5+74
	DD	imagerel $unwind$_Py_IncRef
pdata	ENDS
;	COMDAT xdata
xdata	SEGMENT
$unwind$_Py_IncRef DD 020601H
	DD	030025206H
xdata	ENDS
;	COMDAT ??_C@_0L@DHGMCEID@_Py_IncRef?$AA@
CONST	SEGMENT
??_C@_0L@DHGMCEID@_Py_IncRef?$AA@ DB '_Py_IncRef', 00H	; `string'
CONST	ENDS
;	COMDAT ??_C@_0CD@HDJFDCDP@c?3?2src?2pyparallel?2include?2object@
CONST	SEGMENT
??_C@_0CD@HDJFDCDP@c?3?2src?2pyparallel?2include?2object@ DB 'c:\src\pypa'
	DB	'rallel\include\object.h', 00H		; `string'
; Function compile flags: /Ogtpy
CONST	ENDS
;	COMDAT _Py_IncRef
_TEXT	SEGMENT
op$ = 64
_Py_IncRef PROC						; COMDAT

; 904  : {

$LN5:
  00000	40 53		 push	 rbx
  00002	48 83 ec 30	 sub	 rsp, 48			; 00000030H
  00006	48 8b d9	 mov	 rbx, rcx

; 905  :     if ((!Py_PXCTX && (Py_ISPY(op) || Px_PERSISTED(op)))) {

  00009	e8 00 00 00 00	 call	 _Py_PXCTX
  0000e	85 c0		 test	 eax, eax
  00010	75 32		 jne	 SHORT $LN2@Py_IncRef
  00012	48 8d 15 00 00
	00 00		 lea	 rdx, OFFSET FLAT:??_C@_0CD@HDJFDCDP@c?3?2src?2pyparallel?2include?2object@
  00019	48 8d 0d 00 00
	00 00		 lea	 rcx, OFFSET FLAT:??_C@_0L@DHGMCEID@_Py_IncRef?$AA@
  00020	4c 8b cb	 mov	 r9, rbx
  00023	41 b8 89 03 00
	00		 mov	 r8d, 905		; 00000389H
  00029	c7 44 24 20 02
	00 00 00	 mov	 DWORD PTR [rsp+32], 2
  00031	e8 00 00 00 00	 call	 _PyParallel_Guard
  00036	85 c0		 test	 eax, eax
  00038	75 06		 jne	 SHORT $LN1@Py_IncRef
  0003a	f6 43 20 20	 test	 BYTE PTR [rbx+32], 32	; 00000020H
  0003e	74 04		 je	 SHORT $LN2@Py_IncRef
$LN1@Py_IncRef:

; 906  :         _Py_INC_REFTOTAL;
; 907  :         (((PyObject*)(op))->ob_refcnt++);

  00040	48 ff 43 50	 inc	 QWORD PTR [rbx+80]
$LN2@Py_IncRef:

; 908  :     }
; 909  : }

  00044	48 83 c4 30	 add	 rsp, 48			; 00000030H
  00048	5b		 pop	 rbx
  00049	c3		 ret	 0
_Py_IncRef ENDP
_TEXT	ENDS
PUBLIC	??_C@_0L@DMHMLFIA@_Py_DecRef?$AA@		; `string'
PUBLIC	_Py_DecRef
EXTRN	Px_DecRef:PROC
EXTRN	_Px_Dealloc:PROC
;	COMDAT pdata
pdata	SEGMENT
$pdata$_Py_DecRef DD imagerel $LN12
	DD	imagerel $LN12+123
	DD	imagerel $unwind$_Py_DecRef
pdata	ENDS
;	COMDAT xdata
xdata	SEGMENT
$unwind$_Py_DecRef DD 020601H
	DD	030025206H
xdata	ENDS
;	COMDAT ??_C@_0L@DMHMLFIA@_Py_DecRef?$AA@
CONST	SEGMENT
??_C@_0L@DMHMLFIA@_Py_DecRef?$AA@ DB '_Py_DecRef', 00H	; `string'
; Function compile flags: /Ogtpy
CONST	ENDS
;	COMDAT _Py_DecRef
_TEXT	SEGMENT
op$ = 64
_Py_DecRef PROC						; COMDAT

; 923  : {

$LN12:
  00000	40 53		 push	 rbx
  00002	48 83 ec 30	 sub	 rsp, 48			; 00000030H
  00006	48 8b d9	 mov	 rbx, rcx

; 924  :     if (!Py_PXCTX) {

  00009	e8 00 00 00 00	 call	 _Py_PXCTX
  0000e	85 c0		 test	 eax, eax
  00010	75 63		 jne	 SHORT $LN11@Py_DecRef

; 925  :         if (Px_PERSISTED(op) || Px_CLONED(op))

  00012	48 8b 43 20	 mov	 rax, QWORD PTR [rbx+32]
  00016	a8 20		 test	 al, 32			; 00000020H
  00018	75 53		 jne	 SHORT $LN5@Py_DecRef
  0001a	84 c0		 test	 al, al
  0001c	78 4f		 js	 SHORT $LN5@Py_DecRef

; 927  :         else if (!Px_ISPX(op)) {

  0001e	a8 02		 test	 al, 2
  00020	75 53		 jne	 SHORT $LN11@Py_DecRef

; 928  :             _Py_DEC_REFTOTAL;
; 929  :             if ((--((PyObject *)(op))->ob_refcnt) != 0) {

  00022	48 ff 4b 50	 dec	 QWORD PTR [rbx+80]
  00026	75 4d		 jne	 SHORT $LN11@Py_DecRef

; 930  :                 _Py_CHECK_REFCNT(op);
; 931  :             } else
; 932  :                 _Py_Dealloc((PyObject *)(op));

  00028	48 8d 15 00 00
	00 00		 lea	 rdx, OFFSET FLAT:??_C@_0CD@HDJFDCDP@c?3?2src?2pyparallel?2include?2object@
  0002f	48 8d 0d 00 00
	00 00		 lea	 rcx, OFFSET FLAT:??_C@_0L@DMHMLFIA@_Py_DecRef?$AA@
  00036	4c 8b cb	 mov	 r9, rbx
  00039	41 b8 a4 03 00
	00		 mov	 r8d, 932		; 000003a4H
  0003f	c7 44 24 20 10
	00 00 00	 mov	 DWORD PTR [rsp+32], 16
  00047	e8 00 00 00 00	 call	 _PyParallel_Guard
  0004c	48 8b cb	 mov	 rcx, rbx
  0004f	85 c0		 test	 eax, eax
  00051	74 0a		 je	 SHORT $LN10@Py_DecRef

; 933  :         }
; 934  :     }
; 935  : }

  00053	48 83 c4 30	 add	 rsp, 48			; 00000030H
  00057	5b		 pop	 rbx
  00058	e9 00 00 00 00	 jmp	 _Px_Dealloc
$LN10@Py_DecRef:

; 930  :                 _Py_CHECK_REFCNT(op);
; 931  :             } else
; 932  :                 _Py_Dealloc((PyObject *)(op));

  0005d	48 8b 43 58	 mov	 rax, QWORD PTR [rbx+88]

; 933  :         }
; 934  :     }
; 935  : }

  00061	48 83 c4 30	 add	 rsp, 48			; 00000030H
  00065	5b		 pop	 rbx
  00066	48 ff a0 88 00
	00 00		 rex_jmp QWORD PTR [rax+136]
$LN5@Py_DecRef:

; 926  :             Px_DECREF(op);

  0006d	48 8b cb	 mov	 rcx, rbx
  00070	e8 00 00 00 00	 call	 Px_DecRef
$LN11@Py_DecRef:

; 933  :         }
; 934  :     }
; 935  : }

  00075	48 83 c4 30	 add	 rsp, 48			; 00000030H
  00079	5b		 pop	 rbx
  0007a	c3		 ret	 0
_Py_DecRef ENDP
_TEXT	ENDS
EXTRN	_PyUnicode_Ready:PROC
EXTRN	memcmp:PROC
;	COMDAT pdata
; File c:\src\pyparallel\objects\stringlib\eq.h
pdata	SEGMENT
$pdata$unicode_eq DD imagerel unicode_eq
	DD	imagerel unicode_eq+219
	DD	imagerel $unwind$unicode_eq
pdata	ENDS
;	COMDAT xdata
xdata	SEGMENT
$unwind$unicode_eq DD 040a01H
	DD	06340aH
	DD	07006320aH
; Function compile flags: /Ogtpy
xdata	ENDS
;	COMDAT unicode_eq
_TEXT	SEGMENT
aa$ = 48
bb$ = 56
unicode_eq PROC						; COMDAT

; 8    : {

  00000	48 89 5c 24 08	 mov	 QWORD PTR [rsp+8], rbx
  00005	57		 push	 rdi
  00006	48 83 ec 20	 sub	 rsp, 32			; 00000020H

; 9    :     register PyUnicodeObject *a = (PyUnicodeObject *)aa;
; 10   :     register PyUnicodeObject *b = (PyUnicodeObject *)bb;
; 11   : 
; 12   :     if (PyUnicode_READY(a) == -1 || PyUnicode_READY(b) == -1) {

  0000a	f6 41 70 80	 test	 BYTE PTR [rcx+112], 128	; 00000080H
  0000e	48 8b da	 mov	 rbx, rdx
  00011	48 8b f9	 mov	 rdi, rcx
  00014	75 0a		 jne	 SHORT $LN20@unicode_eq
  00016	e8 00 00 00 00	 call	 _PyUnicode_Ready
  0001b	83 f8 ff	 cmp	 eax, -1
  0001e	74 1d		 je	 SHORT $LN22@unicode_eq
$LN20@unicode_eq:
  00020	f6 43 70 80	 test	 BYTE PTR [rbx+112], 128	; 00000080H
  00024	75 0d		 jne	 SHORT $LN21@unicode_eq
  00026	48 8b cb	 mov	 rcx, rbx
  00029	e8 00 00 00 00	 call	 _PyUnicode_Ready
  0002e	83 f8 ff	 cmp	 eax, -1

; 13   :         assert(0 && "unicode_eq ready fail");
; 14   :         return 0;

  00031	74 0a		 je	 SHORT $LN22@unicode_eq
$LN21@unicode_eq:

; 15   :     }
; 16   : 
; 17   :     if (PyUnicode_GET_LENGTH(a) != PyUnicode_GET_LENGTH(b))

  00033	4c 8b 4f 60	 mov	 r9, QWORD PTR [rdi+96]
  00037	4c 3b 4b 60	 cmp	 r9, QWORD PTR [rbx+96]
  0003b	74 0d		 je	 SHORT $LN3@unicode_eq
$LN22@unicode_eq:

; 18   :         return 0;

  0003d	33 c0		 xor	 eax, eax

; 25   : }

  0003f	48 8b 5c 24 30	 mov	 rbx, QWORD PTR [rsp+48]
  00044	48 83 c4 20	 add	 rsp, 32			; 00000020H
  00048	5f		 pop	 rdi
  00049	c3		 ret	 0
$LN3@unicode_eq:

; 19   :     if (PyUnicode_GET_LENGTH(a) == 0)

  0004a	4d 85 c9	 test	 r9, r9
  0004d	75 0f		 jne	 SHORT $LN2@unicode_eq

; 20   :         return 1;

  0004f	41 8d 41 01	 lea	 eax, QWORD PTR [r9+1]

; 25   : }

  00053	48 8b 5c 24 30	 mov	 rbx, QWORD PTR [rsp+48]
  00058	48 83 c4 20	 add	 rsp, 32			; 00000020H
  0005c	5f		 pop	 rdi
  0005d	c3		 ret	 0
$LN2@unicode_eq:

; 21   :     if (PyUnicode_KIND(a) != PyUnicode_KIND(b))

  0005e	8b 4b 70	 mov	 ecx, DWORD PTR [rbx+112]
  00061	44 8b 47 70	 mov	 r8d, DWORD PTR [rdi+112]
  00065	8b c1		 mov	 eax, ecx
  00067	41 33 c0	 xor	 eax, r8d
  0006a	a8 1c		 test	 al, 28

; 22   :         return 0;

  0006c	75 cf		 jne	 SHORT $LN22@unicode_eq

; 23   :     return memcmp(PyUnicode_1BYTE_DATA(a), PyUnicode_1BYTE_DATA(b),
; 24   :                   PyUnicode_GET_LENGTH(a) * PyUnicode_KIND(a)) == 0;

  0006e	f6 c1 20	 test	 cl, 32			; 00000020H
  00071	74 17		 je	 SHORT $LN14@unicode_eq
  00073	f6 c1 40	 test	 cl, 64			; 00000040H
  00076	74 09		 je	 SHORT $LN12@unicode_eq
  00078	48 8d 93 80 00
	00 00		 lea	 rdx, QWORD PTR [rbx+128]
  0007f	eb 10		 jmp	 SHORT $LN15@unicode_eq
$LN12@unicode_eq:
  00081	48 8d 93 a0 00
	00 00		 lea	 rdx, QWORD PTR [rbx+160]
  00088	eb 07		 jmp	 SHORT $LN15@unicode_eq
$LN14@unicode_eq:
  0008a	48 8b 93 a0 00
	00 00		 mov	 rdx, QWORD PTR [rbx+160]
$LN15@unicode_eq:
  00091	41 f6 c0 20	 test	 r8b, 32			; 00000020H
  00095	74 18		 je	 SHORT $LN18@unicode_eq
  00097	41 f6 c0 40	 test	 r8b, 64			; 00000040H
  0009b	74 09		 je	 SHORT $LN16@unicode_eq
  0009d	48 8d 8f 80 00
	00 00		 lea	 rcx, QWORD PTR [rdi+128]
  000a4	eb 10		 jmp	 SHORT $LN19@unicode_eq
$LN16@unicode_eq:
  000a6	48 8d 8f a0 00
	00 00		 lea	 rcx, QWORD PTR [rdi+160]
  000ad	eb 07		 jmp	 SHORT $LN19@unicode_eq
$LN18@unicode_eq:
  000af	48 8b 8f a0 00
	00 00		 mov	 rcx, QWORD PTR [rdi+160]
$LN19@unicode_eq:
  000b6	49 c1 e8 02	 shr	 r8, 2
  000ba	41 83 e0 07	 and	 r8d, 7
  000be	4d 0f af c1	 imul	 r8, r9
  000c2	e8 00 00 00 00	 call	 memcmp

; 25   : }

  000c7	48 8b 5c 24 30	 mov	 rbx, QWORD PTR [rsp+48]
  000cc	33 c9		 xor	 ecx, ecx
  000ce	85 c0		 test	 eax, eax
  000d0	0f 94 c1	 sete	 cl
  000d3	8b c1		 mov	 eax, ecx
  000d5	48 83 c4 20	 add	 rsp, 32			; 00000020H
  000d9	5f		 pop	 rdi
  000da	c3		 ret	 0
unicode_eq ENDP
_TEXT	ENDS
EXTRN	PyErr_SetObject:PROC
EXTRN	PyExc_KeyError:QWORD
EXTRN	PyTuple_Pack:PROC
;	COMDAT pdata
; File c:\src\pyparallel\objects\dictobject.c
pdata	SEGMENT
$pdata$set_key_error DD imagerel set_key_error
	DD	imagerel set_key_error+56
	DD	imagerel $unwind$set_key_error
pdata	ENDS
;	COMDAT xdata
xdata	SEGMENT
$unwind$set_key_error DD 020601H
	DD	030023206H
; Function compile flags: /Ogtpy
xdata	ENDS
;	COMDAT set_key_error
_TEXT	SEGMENT
arg$ = 48
set_key_error PROC					; COMDAT

; 103  : {

  00000	40 53		 push	 rbx
  00002	48 83 ec 20	 sub	 rsp, 32			; 00000020H

; 104  :     PyObject *tup;
; 105  :     tup = PyTuple_Pack(1, arg);

  00006	48 8b d1	 mov	 rdx, rcx
  00009	b9 01 00 00 00	 mov	 ecx, 1
  0000e	e8 00 00 00 00	 call	 PyTuple_Pack
  00013	48 8b d8	 mov	 rbx, rax

; 106  :     if (!tup)

  00016	48 85 c0	 test	 rax, rax
  00019	74 17		 je	 SHORT $LN2@set_key_er

; 107  :         return; /* caller will expect error to be set anyway */
; 108  :     PyErr_SetObject(PyExc_KeyError, tup);

  0001b	48 8b 0d 00 00
	00 00		 mov	 rcx, QWORD PTR PyExc_KeyError
  00022	48 8b d0	 mov	 rdx, rax
  00025	e8 00 00 00 00	 call	 PyErr_SetObject

; 109  :     Py_DECREF(tup);

  0002a	48 8b cb	 mov	 rcx, rbx
  0002d	e8 00 00 00 00	 call	 _Py_DecRef
$LN2@set_key_er:

; 110  : }

  00032	48 83 c4 20	 add	 rsp, 32			; 00000020H
  00036	5b		 pop	 rbx
  00037	c3		 ret	 0
set_key_error ENDP
_TEXT	ENDS
PUBLIC	PyDict_ClearFreeList
_BSS	SEGMENT
free_list DQ	050H DUP (?)
_BSS	ENDS
;	COMDAT pdata
pdata	SEGMENT
$pdata$PyDict_ClearFreeList DD imagerel $LN8
	DD	imagerel $LN8+39
	DD	imagerel $unwind$PyDict_ClearFreeList
pdata	ENDS
;	COMDAT pdata
pdata	SEGMENT
$pdata$0$PyDict_ClearFreeList DD imagerel $LN8+39
	DD	imagerel $LN8+99
	DD	imagerel $chain$0$PyDict_ClearFreeList
pdata	ENDS
;	COMDAT pdata
pdata	SEGMENT
$pdata$1$PyDict_ClearFreeList DD imagerel $LN8+99
	DD	imagerel $LN8+107
	DD	imagerel $chain$1$PyDict_ClearFreeList
pdata	ENDS
;	COMDAT xdata
xdata	SEGMENT
$chain$1$PyDict_ClearFreeList DD 021H
	DD	imagerel $LN8
	DD	imagerel $LN8+39
	DD	imagerel $unwind$PyDict_ClearFreeList
xdata	ENDS
;	COMDAT xdata
xdata	SEGMENT
$chain$0$PyDict_ClearFreeList DD 020521H
	DD	067405H
	DD	imagerel $LN8
	DD	imagerel $LN8+39
	DD	imagerel $unwind$PyDict_ClearFreeList
xdata	ENDS
;	COMDAT xdata
xdata	SEGMENT
$unwind$PyDict_ClearFreeList DD 020601H
	DD	030023206H
; Function compile flags: /Ogtpy
xdata	ENDS
;	COMDAT PyDict_ClearFreeList
_TEXT	SEGMENT
PyDict_ClearFreeList PROC				; COMDAT

; 247  : {

$LN8:
  00000	40 53		 push	 rbx
  00002	48 83 ec 20	 sub	 rsp, 32			; 00000020H

; 248  :     PyDictObject *op;
; 249  :     int ret = numfree;

  00006	8b 1d 00 00 00
	00		 mov	 ebx, DWORD PTR numfree

; 250  :     if (Py_PXCTX)

  0000c	e8 00 00 00 00	 call	 _Py_PXCTX
  00011	85 c0		 test	 eax, eax
  00013	74 08		 je	 SHORT $LN6@PyDict_Cle

; 251  :         return 0;

  00015	33 c0		 xor	 eax, eax

; 259  : }

  00017	48 83 c4 20	 add	 rsp, 32			; 00000020H
  0001b	5b		 pop	 rbx
  0001c	c3		 ret	 0
$LN6@PyDict_Cle:

; 252  : 
; 253  :     while (numfree) {

  0001d	8b 0d 00 00 00
	00		 mov	 ecx, DWORD PTR numfree
  00023	85 c9		 test	 ecx, ecx
  00025	74 3c		 je	 SHORT $LN1@PyDict_Cle
  00027	48 89 7c 24 30	 mov	 QWORD PTR [rsp+48], rdi
  0002c	48 8d 3d 00 00
	00 00		 lea	 rdi, OFFSET FLAT:free_list
  00033	66 66 66 66 66
	0f 1f 84 00 00
	00 00 00	 npad	 13
$LL2@PyDict_Cle:

; 254  :         op = free_list[--numfree];

  00040	ff c9		 dec	 ecx
  00042	89 0d 00 00 00
	00		 mov	 DWORD PTR numfree, ecx

; 255  :         assert(PyDict_CheckExact(op));
; 256  :         PyObject_GC_Del(op);

  00048	48 63 c9	 movsxd	 rcx, ecx
  0004b	48 8b 0c cf	 mov	 rcx, QWORD PTR [rdi+rcx*8]
  0004f	e8 00 00 00 00	 call	 PyObject_GC_Del
  00054	8b 0d 00 00 00
	00		 mov	 ecx, DWORD PTR numfree
  0005a	85 c9		 test	 ecx, ecx
  0005c	75 e2		 jne	 SHORT $LL2@PyDict_Cle
  0005e	48 8b 7c 24 30	 mov	 rdi, QWORD PTR [rsp+48]
$LN1@PyDict_Cle:

; 257  :     }
; 258  :     return ret;

  00063	8b c3		 mov	 eax, ebx

; 259  : }

  00065	48 83 c4 20	 add	 rsp, 32			; 00000020H
  00069	5b		 pop	 rbx
  0006a	c3		 ret	 0
PyDict_ClearFreeList ENDP
_TEXT	ENDS
PUBLIC	??_C@_0BC@KBCHCIKN@free?5PyDictObject?$AA@	; `string'
PUBLIC	_PyDict_DebugMallocStats
EXTRN	_PyDebugAllocatorStats:PROC
;	COMDAT ??_C@_0BC@KBCHCIKN@free?5PyDictObject?$AA@
CONST	SEGMENT
??_C@_0BC@KBCHCIKN@free?5PyDictObject?$AA@ DB 'free PyDictObject', 00H ; `string'
; Function compile flags: /Ogtpy
CONST	ENDS
;	COMDAT _PyDict_DebugMallocStats
_TEXT	SEGMENT
out$ = 8
_PyDict_DebugMallocStats PROC				; COMDAT

; 265  :     _PyDebugAllocatorStats(out,
; 266  :                            "free PyDictObject", numfree, sizeof(PyDictObject));

  00000	44 8b 05 00 00
	00 00		 mov	 r8d, DWORD PTR numfree
  00007	48 8d 15 00 00
	00 00		 lea	 rdx, OFFSET FLAT:??_C@_0BC@KBCHCIKN@free?5PyDictObject?$AA@
  0000e	41 b9 80 00 00
	00		 mov	 r9d, 128		; 00000080H

; 267  : }

  00014	e9 00 00 00 00	 jmp	 _PyDebugAllocatorStats
_PyDict_DebugMallocStats ENDP
_TEXT	ENDS
PUBLIC	PyDict_Fini
; Function compile flags: /Ogtpy
;	COMDAT PyDict_Fini
_TEXT	SEGMENT
PyDict_Fini PROC					; COMDAT

; 273  :     PyDict_ClearFreeList();
; 274  : }

  00000	e9 00 00 00 00	 jmp	 PyDict_ClearFreeList
PyDict_Fini ENDP
_TEXT	ENDS
EXTRN	__imp_free:PROC
EXTRN	_PxMem_Free:PROC
;	COMDAT pdata
; File c:\src\pyparallel\include\object.h
pdata	SEGMENT
$pdata$free_keys_object DD imagerel free_keys_object
	DD	imagerel free_keys_object+6
	DD	imagerel $unwind$free_keys_object
pdata	ENDS
;	COMDAT pdata
pdata	SEGMENT
$pdata$0$free_keys_object DD imagerel free_keys_object+6
	DD	imagerel free_keys_object+27
	DD	imagerel $chain$0$free_keys_object
pdata	ENDS
;	COMDAT pdata
pdata	SEGMENT
$pdata$2$free_keys_object DD imagerel free_keys_object+27
	DD	imagerel free_keys_object+290
	DD	imagerel $chain$2$free_keys_object
pdata	ENDS
;	COMDAT pdata
pdata	SEGMENT
$pdata$3$free_keys_object DD imagerel free_keys_object+290
	DD	imagerel free_keys_object+307
	DD	imagerel $chain$3$free_keys_object
pdata	ENDS
;	COMDAT pdata
pdata	SEGMENT
$pdata$4$free_keys_object DD imagerel free_keys_object+307
	DD	imagerel free_keys_object+329
	DD	imagerel $chain$4$free_keys_object
pdata	ENDS
;	COMDAT xdata
xdata	SEGMENT
$chain$4$free_keys_object DD 021H
	DD	imagerel free_keys_object
	DD	imagerel free_keys_object+6
	DD	imagerel $unwind$free_keys_object
xdata	ENDS
;	COMDAT xdata
xdata	SEGMENT
$chain$3$free_keys_object DD 021H
	DD	imagerel free_keys_object+6
	DD	imagerel free_keys_object+27
	DD	imagerel $chain$0$free_keys_object
xdata	ENDS
;	COMDAT xdata
xdata	SEGMENT
$chain$2$free_keys_object DD 040a21H
	DD	0a740aH
	DD	083405H
	DD	imagerel free_keys_object+6
	DD	imagerel free_keys_object+27
	DD	imagerel $chain$0$free_keys_object
xdata	ENDS
;	COMDAT xdata
xdata	SEGMENT
$chain$0$free_keys_object DD 020521H
	DD	096405H
	DD	imagerel free_keys_object
	DD	imagerel free_keys_object+6
	DD	imagerel $unwind$free_keys_object
xdata	ENDS
;	COMDAT xdata
xdata	SEGMENT
$unwind$free_keys_object DD 020601H
	DD	050025206H
; Function compile flags: /Ogtpy
; File c:\src\pyparallel\objects\dictobject.c
xdata	ENDS
;	COMDAT free_keys_object
_TEXT	SEGMENT
keys$ = 64
free_keys_object PROC					; COMDAT

; 376  : {

  00000	40 55		 push	 rbp
  00002	48 83 ec 30	 sub	 rsp, 48			; 00000030H
  00006	48 89 74 24 48	 mov	 QWORD PTR [rsp+72], rsi

; 378  :     Py_ssize_t i, n;
; 379  :     for (i = 0, n = DK_SIZE(keys); i < n; i++) {

  0000b	48 8b 71 08	 mov	 rsi, QWORD PTR [rcx+8]
  0000f	48 8b e9	 mov	 rbp, rcx
  00012	48 85 f6	 test	 rsi, rsi
  00015	0f 8e 07 01 00
	00		 jle	 $LN9@free_keys_

; 377  :     PyDictKeyEntry *entries = &keys->dk_entries[0];

  0001b	48 89 5c 24 40	 mov	 QWORD PTR [rsp+64], rbx
  00020	48 89 7c 24 50	 mov	 QWORD PTR [rsp+80], rdi
  00025	48 8d 79 30	 lea	 rdi, QWORD PTR [rcx+48]
  00029	0f 1f 80 00 00
	00 00		 npad	 7
$LL11@free_keys_:

; 380  :         Py_XDECREF(entries[i].me_key);

  00030	48 8b 5f f8	 mov	 rbx, QWORD PTR [rdi-8]
  00034	48 85 db	 test	 rbx, rbx
  00037	74 65		 je	 SHORT $LN7@free_keys_
  00039	e8 00 00 00 00	 call	 _Py_PXCTX
  0003e	85 c0		 test	 eax, eax
  00040	75 5c		 jne	 SHORT $LN7@free_keys_
  00042	48 8b 43 20	 mov	 rax, QWORD PTR [rbx+32]
  00046	a8 20		 test	 al, 32			; 00000020H
  00048	75 4c		 jne	 SHORT $LN20@free_keys_
  0004a	84 c0		 test	 al, al
  0004c	78 48		 js	 SHORT $LN20@free_keys_
  0004e	a8 02		 test	 al, 2
  00050	75 4c		 jne	 SHORT $LN7@free_keys_
  00052	48 ff 4b 50	 dec	 QWORD PTR [rbx+80]
  00056	75 46		 jne	 SHORT $LN7@free_keys_
  00058	48 8d 15 00 00
	00 00		 lea	 rdx, OFFSET FLAT:??_C@_0CD@HDJFDCDP@c?3?2src?2pyparallel?2include?2object@
  0005f	48 8d 0d 00 00
	00 00		 lea	 rcx, OFFSET FLAT:??_C@_0L@DMHMLFIA@_Py_DecRef?$AA@
  00066	4c 8b cb	 mov	 r9, rbx
  00069	41 b8 a4 03 00
	00		 mov	 r8d, 932		; 000003a4H
  0006f	c7 44 24 20 10
	00 00 00	 mov	 DWORD PTR [rsp+32], 16
  00077	e8 00 00 00 00	 call	 _PyParallel_Guard
  0007c	48 8b cb	 mov	 rcx, rbx
  0007f	85 c0		 test	 eax, eax
  00081	74 07		 je	 SHORT $LN25@free_keys_
  00083	e8 00 00 00 00	 call	 _Px_Dealloc
  00088	eb 14		 jmp	 SHORT $LN7@free_keys_
$LN25@free_keys_:
  0008a	48 8b 43 58	 mov	 rax, QWORD PTR [rbx+88]
  0008e	ff 90 88 00 00
	00		 call	 QWORD PTR [rax+136]
  00094	eb 08		 jmp	 SHORT $LN7@free_keys_
$LN20@free_keys_:
  00096	48 8b cb	 mov	 rcx, rbx
  00099	e8 00 00 00 00	 call	 Px_DecRef
$LN7@free_keys_:

; 381  :         Py_XDECREF(entries[i].me_value);

  0009e	48 8b 1f	 mov	 rbx, QWORD PTR [rdi]
  000a1	48 85 db	 test	 rbx, rbx
  000a4	74 65		 je	 SHORT $LN3@free_keys_
  000a6	e8 00 00 00 00	 call	 _Py_PXCTX
  000ab	85 c0		 test	 eax, eax
  000ad	75 5c		 jne	 SHORT $LN3@free_keys_
  000af	48 8b 43 20	 mov	 rax, QWORD PTR [rbx+32]
  000b3	a8 20		 test	 al, 32			; 00000020H
  000b5	75 4c		 jne	 SHORT $LN31@free_keys_
  000b7	84 c0		 test	 al, al
  000b9	78 48		 js	 SHORT $LN31@free_keys_
  000bb	a8 02		 test	 al, 2
  000bd	75 4c		 jne	 SHORT $LN3@free_keys_
  000bf	48 ff 4b 50	 dec	 QWORD PTR [rbx+80]
  000c3	75 46		 jne	 SHORT $LN3@free_keys_
  000c5	48 8d 15 00 00
	00 00		 lea	 rdx, OFFSET FLAT:??_C@_0CD@HDJFDCDP@c?3?2src?2pyparallel?2include?2object@
  000cc	48 8d 0d 00 00
	00 00		 lea	 rcx, OFFSET FLAT:??_C@_0L@DMHMLFIA@_Py_DecRef?$AA@
  000d3	4c 8b cb	 mov	 r9, rbx
  000d6	41 b8 a4 03 00
	00		 mov	 r8d, 932		; 000003a4H
  000dc	c7 44 24 20 10
	00 00 00	 mov	 DWORD PTR [rsp+32], 16
  000e4	e8 00 00 00 00	 call	 _PyParallel_Guard
  000e9	48 8b cb	 mov	 rcx, rbx
  000ec	85 c0		 test	 eax, eax
  000ee	74 07		 je	 SHORT $LN36@free_keys_
  000f0	e8 00 00 00 00	 call	 _Px_Dealloc
  000f5	eb 14		 jmp	 SHORT $LN3@free_keys_
$LN36@free_keys_:
  000f7	48 8b 43 58	 mov	 rax, QWORD PTR [rbx+88]
  000fb	ff 90 88 00 00
	00		 call	 QWORD PTR [rax+136]
  00101	eb 08		 jmp	 SHORT $LN3@free_keys_
$LN31@free_keys_:
  00103	48 8b cb	 mov	 rcx, rbx
  00106	e8 00 00 00 00	 call	 Px_DecRef
$LN3@free_keys_:

; 378  :     Py_ssize_t i, n;
; 379  :     for (i = 0, n = DK_SIZE(keys); i < n; i++) {

  0010b	48 83 c7 18	 add	 rdi, 24
  0010f	48 ff ce	 dec	 rsi
  00112	0f 85 18 ff ff
	ff		 jne	 $LL11@free_keys_
  00118	48 8b 7c 24 50	 mov	 rdi, QWORD PTR [rsp+80]
  0011d	48 8b 5c 24 40	 mov	 rbx, QWORD PTR [rsp+64]
$LN9@free_keys_:

; 382  :     }
; 383  :     PyMem_FREE(keys);

  00122	e8 00 00 00 00	 call	 _Py_PXCTX
  00127	48 8b 74 24 48	 mov	 rsi, QWORD PTR [rsp+72]
  0012c	48 8b cd	 mov	 rcx, rbp
  0012f	85 c0		 test	 eax, eax
  00131	74 0a		 je	 SHORT $LN14@free_keys_

; 384  : }

  00133	48 83 c4 30	 add	 rsp, 48			; 00000030H
  00137	5d		 pop	 rbp
  00138	e9 00 00 00 00	 jmp	 _PxMem_Free
$LN14@free_keys_:
  0013d	48 83 c4 30	 add	 rsp, 48			; 00000030H
  00141	5d		 pop	 rbp
  00142	48 ff 25 00 00
	00 00		 rex_jmp QWORD PTR __imp_free
free_keys_object ENDP
_TEXT	ENDS
PUBLIC	??_C@_08OKBFOLLA@new_dict?$AA@			; `string'
PUBLIC	??_C@_0BI@LNHGAPGK@?4?4?2Objects?2dictobject?4c?$AA@ ; `string'
EXTRN	_PyObject_GC_New:PROC
EXTRN	_PxObject_New:PROC
EXTRN	_Px_NewReference:PROC
;	COMDAT pdata
pdata	SEGMENT
$pdata$new_dict DD imagerel new_dict
	DD	imagerel new_dict+262
	DD	imagerel $unwind$new_dict
pdata	ENDS
;	COMDAT xdata
xdata	SEGMENT
$unwind$new_dict DD 060f01H
	DD	09640fH
	DD	08340fH
	DD	0700b520fH
xdata	ENDS
;	COMDAT ??_C@_08OKBFOLLA@new_dict?$AA@
CONST	SEGMENT
??_C@_08OKBFOLLA@new_dict?$AA@ DB 'new_dict', 00H	; `string'
CONST	ENDS
;	COMDAT ??_C@_0BI@LNHGAPGK@?4?4?2Objects?2dictobject?4c?$AA@
CONST	SEGMENT
??_C@_0BI@LNHGAPGK@?4?4?2Objects?2dictobject?4c?$AA@ DB '..\Objects\dicto'
	DB	'bject.c', 00H				; `string'
; Function compile flags: /Ogtpy
CONST	ENDS
;	COMDAT new_dict
_TEXT	SEGMENT
keys$ = 64
values$ = 72
new_dict PROC						; COMDAT

; 393  : {

  00000	48 89 5c 24 08	 mov	 QWORD PTR [rsp+8], rbx
  00005	48 89 74 24 10	 mov	 QWORD PTR [rsp+16], rsi
  0000a	57		 push	 rdi
  0000b	48 83 ec 30	 sub	 rsp, 48			; 00000030H
  0000f	48 8b f2	 mov	 rsi, rdx
  00012	48 8b f9	 mov	 rdi, rcx

; 394  :     PyDictObject *mp;
; 395  : 
; 396  :     if (!Py_PXCTX && numfree) {

  00015	e8 00 00 00 00	 call	 _Py_PXCTX
  0001a	85 c0		 test	 eax, eax
  0001c	75 7c		 jne	 SHORT $LN4@new_dict
  0001e	8b 05 00 00 00
	00		 mov	 eax, DWORD PTR numfree
  00024	85 c0		 test	 eax, eax
  00026	74 72		 je	 SHORT $LN4@new_dict

; 397  :         mp = free_list[--numfree];

  00028	ff c8		 dec	 eax
  0002a	48 8d 1d 00 00
	00 00		 lea	 rbx, OFFSET FLAT:free_list

; 398  :         assert (mp != NULL);
; 399  :         assert (Py_TYPE(mp) == &PyDict_Type);
; 400  :         _Py_NewReference((PyObject *)mp);

  00031	48 8d 15 00 00
	00 00		 lea	 rdx, OFFSET FLAT:??_C@_0BI@LNHGAPGK@?4?4?2Objects?2dictobject?4c?$AA@
  00038	89 05 00 00 00
	00		 mov	 DWORD PTR numfree, eax
  0003e	48 98		 cdqe
  00040	48 8d 0d 00 00
	00 00		 lea	 rcx, OFFSET FLAT:??_C@_08OKBFOLLA@new_dict?$AA@
  00047	48 8b 1c c3	 mov	 rbx, QWORD PTR [rbx+rax*8]
  0004b	41 b8 90 01 00
	00		 mov	 r8d, 400		; 00000190H
  00051	c7 44 24 20 10
	00 00 00	 mov	 DWORD PTR [rsp+32], 16
  00059	4c 8b cb	 mov	 r9, rbx
  0005c	e8 00 00 00 00	 call	 _PyParallel_Guard
  00061	85 c0		 test	 eax, eax
  00063	74 2b		 je	 SHORT $LN7@new_dict
  00065	48 8b cb	 mov	 rcx, rbx
  00068	e8 00 00 00 00	 call	 _Px_NewReference
$LN2@new_dict:

; 408  :         }
; 409  :     }
; 410  :     mp->ma_keys = keys;

  0006d	48 89 7b 68	 mov	 QWORD PTR [rbx+104], rdi

; 411  :     mp->ma_values = values;

  00071	48 89 73 70	 mov	 QWORD PTR [rbx+112], rsi

; 412  :     mp->ma_used = 0;

  00075	48 c7 43 60 00
	00 00 00	 mov	 QWORD PTR [rbx+96], 0

; 413  :     return (PyObject *)mp;

  0007d	48 8b c3	 mov	 rax, rbx

; 414  : }

  00080	48 8b 5c 24 40	 mov	 rbx, QWORD PTR [rsp+64]
  00085	48 8b 74 24 48	 mov	 rsi, QWORD PTR [rsp+72]
  0008a	48 83 c4 30	 add	 rsp, 48			; 00000030H
  0008e	5f		 pop	 rdi
  0008f	c3		 ret	 0
$LN7@new_dict:

; 398  :         assert (mp != NULL);
; 399  :         assert (Py_TYPE(mp) == &PyDict_Type);
; 400  :         _Py_NewReference((PyObject *)mp);

  00090	48 c7 43 50 01
	00 00 00	 mov	 QWORD PTR [rbx+80], 1

; 401  :     }
; 402  :     else {

  00098	eb d3		 jmp	 SHORT $LN2@new_dict
$LN4@new_dict:

; 403  :         mp = PyObject_GC_New(PyDictObject, &PyDict_Type);

  0009a	e8 00 00 00 00	 call	 _Py_PXCTX
  0009f	48 8d 0d 00 00
	00 00		 lea	 rcx, OFFSET FLAT:PyDict_Type
  000a6	85 c0		 test	 eax, eax
  000a8	74 07		 je	 SHORT $LN9@new_dict
  000aa	e8 00 00 00 00	 call	 _PxObject_New
  000af	eb 05		 jmp	 SHORT $LN13@new_dict
$LN9@new_dict:
  000b1	e8 00 00 00 00	 call	 _PyObject_GC_New
$LN13@new_dict:
  000b6	48 8b d8	 mov	 rbx, rax

; 404  :         if (mp == NULL) {

  000b9	48 85 c0	 test	 rax, rax
  000bc	75 af		 jne	 SHORT $LN2@new_dict

; 405  :             DK_DECREF(keys);

  000be	48 ff 0f	 dec	 QWORD PTR [rdi]
  000c1	75 08		 jne	 SHORT $LN1@new_dict
  000c3	48 8b cf	 mov	 rcx, rdi
  000c6	e8 00 00 00 00	 call	 free_keys_object
$LN1@new_dict:

; 406  :             free_values(values);

  000cb	e8 00 00 00 00	 call	 _Py_PXCTX
  000d0	48 8b ce	 mov	 rcx, rsi
  000d3	85 c0		 test	 eax, eax
  000d5	74 17		 je	 SHORT $LN11@new_dict
  000d7	e8 00 00 00 00	 call	 _PxMem_Free

; 407  :             return NULL;

  000dc	33 c0		 xor	 eax, eax

; 414  : }

  000de	48 8b 5c 24 40	 mov	 rbx, QWORD PTR [rsp+64]
  000e3	48 8b 74 24 48	 mov	 rsi, QWORD PTR [rsp+72]
  000e8	48 83 c4 30	 add	 rsp, 48			; 00000030H
  000ec	5f		 pop	 rdi
  000ed	c3		 ret	 0
$LN11@new_dict:

; 406  :             free_values(values);

  000ee	ff 15 00 00 00
	00		 call	 QWORD PTR __imp_free

; 414  : }

  000f4	48 8b 5c 24 40	 mov	 rbx, QWORD PTR [rsp+64]
  000f9	48 8b 74 24 48	 mov	 rsi, QWORD PTR [rsp+72]
  000fe	33 c0		 xor	 eax, eax
  00100	48 83 c4 30	 add	 rsp, 48			; 00000030H
  00104	5f		 pop	 rdi
  00105	c3		 ret	 0
new_dict ENDP
_TEXT	ENDS
EXTRN	PyErr_NoMemory:PROC
EXTRN	__imp_malloc:PROC
EXTRN	_PxMem_Malloc:PROC
EXTRN	memset:PROC
;	COMDAT pdata
pdata	SEGMENT
$pdata$new_dict_with_shared_keys DD imagerel new_dict_with_shared_keys
	DD	imagerel new_dict_with_shared_keys+191
	DD	imagerel $unwind$new_dict_with_shared_keys
pdata	ENDS
;	COMDAT xdata
xdata	SEGMENT
$unwind$new_dict_with_shared_keys DD 060f01H
	DD	07640fH
	DD	06340fH
	DD	0700b320fH
; Function compile flags: /Ogtpy
xdata	ENDS
;	COMDAT new_dict_with_shared_keys
_TEXT	SEGMENT
keys$ = 48
new_dict_with_shared_keys PROC				; COMDAT

; 419  : {

  00000	48 89 5c 24 08	 mov	 QWORD PTR [rsp+8], rbx
  00005	48 89 74 24 10	 mov	 QWORD PTR [rsp+16], rsi
  0000a	57		 push	 rdi
  0000b	48 83 ec 20	 sub	 rsp, 32			; 00000020H

; 420  :     PyObject **values;
; 421  :     Py_ssize_t i, size;
; 422  : 
; 423  :     size = DK_SIZE(keys);

  0000f	48 8b 79 08	 mov	 rdi, QWORD PTR [rcx+8]

; 424  :     values = new_values(size);

  00013	48 b8 ff ff ff
	ff ff ff ff 0f	 mov	 rax, 1152921504606846975 ; 0fffffffffffffffH
  0001d	48 8b d9	 mov	 rbx, rcx
  00020	48 3b f8	 cmp	 rdi, rax
  00023	77 79		 ja	 SHORT $LN18@new_dict_w
  00025	e8 00 00 00 00	 call	 _Py_PXCTX
  0002a	85 c0		 test	 eax, eax
  0002c	74 0f		 je	 SHORT $LN12@new_dict_w
  0002e	48 8d 0c fd 00
	00 00 00	 lea	 rcx, QWORD PTR [rdi*8]
  00036	e8 00 00 00 00	 call	 _PxMem_Malloc
  0003b	eb 29		 jmp	 SHORT $LN19@new_dict_w
$LN12@new_dict_w:
  0003d	48 8d 04 fd 00
	00 00 00	 lea	 rax, QWORD PTR [rdi*8]
  00045	48 b9 ff ff ff
	ff ff ff ff 7f	 mov	 rcx, 9223372036854775807 ; 7fffffffffffffffH
  0004f	48 3b c1	 cmp	 rax, rcx
  00052	77 4a		 ja	 SHORT $LN18@new_dict_w
  00054	48 85 c0	 test	 rax, rax
  00057	b9 01 00 00 00	 mov	 ecx, 1
  0005c	48 0f 45 c8	 cmovne	 rcx, rax
  00060	ff 15 00 00 00
	00		 call	 QWORD PTR __imp_malloc
$LN19@new_dict_w:
  00066	48 8b f0	 mov	 rsi, rax

; 425  :     if (values == NULL) {

  00069	48 85 c0	 test	 rax, rax
  0006c	74 30		 je	 SHORT $LN18@new_dict_w

; 427  :         return PyErr_NoMemory();
; 428  :     }
; 429  :     for (i = 0; i < size; i++) {

  0006e	48 85 ff	 test	 rdi, rdi
  00071	7e 11		 jle	 SHORT $LN3@new_dict_w
  00073	48 c1 e7 03	 shl	 rdi, 3
  00077	33 d2		 xor	 edx, edx
  00079	48 8b c8	 mov	 rcx, rax
  0007c	4c 8b c7	 mov	 r8, rdi
  0007f	e8 00 00 00 00	 call	 memset
$LN3@new_dict_w:

; 430  :         values[i] = NULL;
; 431  :     }
; 432  :     return new_dict(keys, values);

  00084	48 8b d6	 mov	 rdx, rsi
  00087	48 8b cb	 mov	 rcx, rbx

; 433  : }

  0008a	48 8b 5c 24 30	 mov	 rbx, QWORD PTR [rsp+48]
  0008f	48 8b 74 24 38	 mov	 rsi, QWORD PTR [rsp+56]
  00094	48 83 c4 20	 add	 rsp, 32			; 00000020H
  00098	5f		 pop	 rdi
  00099	e9 00 00 00 00	 jmp	 new_dict
$LN18@new_dict_w:

; 426  :         DK_DECREF(keys);

  0009e	48 ff 0b	 dec	 QWORD PTR [rbx]
  000a1	75 08		 jne	 SHORT $LN4@new_dict_w
  000a3	48 8b cb	 mov	 rcx, rbx
  000a6	e8 00 00 00 00	 call	 free_keys_object
$LN4@new_dict_w:

; 433  : }

  000ab	48 8b 5c 24 30	 mov	 rbx, QWORD PTR [rsp+48]
  000b0	48 8b 74 24 38	 mov	 rsi, QWORD PTR [rsp+56]
  000b5	48 83 c4 20	 add	 rsp, 32			; 00000020H
  000b9	5f		 pop	 rdi
  000ba	e9 00 00 00 00	 jmp	 PyErr_NoMemory
new_dict_with_shared_keys ENDP
_TEXT	ENDS
EXTRN	PyObject_RichCompareBool:PROC
;	COMDAT pdata
; File c:\src\pyparallel\include\object.h
pdata	SEGMENT
$pdata$lookdict DD imagerel lookdict
	DD	imagerel lookdict+764
	DD	imagerel $unwind$lookdict
pdata	ENDS
;	COMDAT xdata
xdata	SEGMENT
$unwind$lookdict DD 0a1e01H
	DD	011341eH
	DD	0f01a721eH
	DD	0d016e018H
	DD	07012c014H
	DD	050106011H
; Function compile flags: /Ogtpy
; File c:\src\pyparallel\objects\dictobject.c
xdata	ENDS
;	COMDAT lookdict
_TEXT	SEGMENT
mask$1$ = 48
mp$ = 128
key$ = 136
i$1$ = 144
hash$ = 144
value_addr$ = 152
lookdict PROC						; COMDAT

; 469  : {

  00000	4c 8b dc	 mov	 r11, rsp
  00003	49 89 5b 10	 mov	 QWORD PTR [r11+16], rbx
  00007	4d 89 4b 20	 mov	 QWORD PTR [r11+32], r9
  0000b	49 89 4b 08	 mov	 QWORD PTR [r11+8], rcx
  0000f	55		 push	 rbp
  00010	56		 push	 rsi
  00011	57		 push	 rdi
  00012	41 54		 push	 r12
  00014	41 55		 push	 r13
  00016	41 56		 push	 r14
  00018	41 57		 push	 r15
  0001a	48 83 ec 40	 sub	 rsp, 64			; 00000040H

; 470  :     register size_t i;
; 471  :     register size_t perturb;
; 472  :     register PyDictKeyEntry *freeslot;
; 473  :     register size_t mask;
; 474  :     PyDictKeyEntry *ep0;
; 475  :     register PyDictKeyEntry *ep;
; 476  :     register int cmp;
; 477  :     PyObject *startkey;
; 478  : 
; 479  : top:
; 480  :     mask = DK_MASK(mp->ma_keys);

  0001e	48 8b 41 68	 mov	 rax, QWORD PTR [rcx+104]
  00022	4c 8b ea	 mov	 r13, rdx
  00025	4d 8b e1	 mov	 r12, r9
  00028	48 8b 50 08	 mov	 rdx, QWORD PTR [rax+8]

; 481  :     ep0 = &mp->ma_keys->dk_entries[0];

  0002c	4c 8d 78 20	 lea	 r15, QWORD PTR [rax+32]
  00030	4d 8b f0	 mov	 r14, r8
  00033	48 ff ca	 dec	 rdx

; 482  :     i = (size_t)hash & mask;

  00036	48 8b ca	 mov	 rcx, rdx
  00039	48 89 54 24 30	 mov	 QWORD PTR mask$1$[rsp], rdx
  0003e	49 23 c8	 and	 rcx, r8
  00041	48 89 8c 24 90
	00 00 00	 mov	 QWORD PTR i$1$[rsp], rcx

; 483  :     ep = &ep0[i];

  00049	48 8d 04 49	 lea	 rax, QWORD PTR [rcx+rcx*2]

; 484  :     if (ep->me_key == NULL || ep->me_key == key) {

  0004d	49 8b 5c c7 08	 mov	 rbx, QWORD PTR [r15+rax*8+8]
  00052	49 8d 3c c7	 lea	 rdi, QWORD PTR [r15+rax*8]
  00056	48 85 db	 test	 rbx, rbx
  00059	0f 84 15 02 00
	00		 je	 $LN22@lookdict
  0005f	49 8b 6b 08	 mov	 rbp, QWORD PTR [r11+8]
$LN52@lookdict:
  00063	4c 8d 05 00 00
	00 00		 lea	 r8, OFFSET FLAT:_dummy_struct
  0006a	66 0f 1f 44 00
	00		 npad	 6
$top$20484:
  00070	49 3b dd	 cmp	 rbx, r13
  00073	0f 84 f3 01 00
	00		 je	 $LN49@lookdict

; 487  :     }
; 488  :     if (ep->me_key == dummy)

  00079	49 3b d8	 cmp	 rbx, r8
  0007c	0f 84 a0 00 00
	00		 je	 $LN20@lookdict

; 489  :         freeslot = ep;
; 490  :     else {
; 491  :         if (ep->me_hash == hash) {

  00082	4c 39 37	 cmp	 QWORD PTR [rdi], r14
  00085	0f 85 95 00 00
	00		 jne	 $LN15@lookdict

; 492  :             startkey = ep->me_key;
; 493  :             Py_INCREF(startkey);

  0008b	e8 00 00 00 00	 call	 _Py_PXCTX
  00090	85 c0		 test	 eax, eax
  00092	75 32		 jne	 SHORT $LN27@lookdict
  00094	48 8d 15 00 00
	00 00		 lea	 rdx, OFFSET FLAT:??_C@_0CD@HDJFDCDP@c?3?2src?2pyparallel?2include?2object@
  0009b	48 8d 0d 00 00
	00 00		 lea	 rcx, OFFSET FLAT:??_C@_0L@DHGMCEID@_Py_IncRef?$AA@
  000a2	4c 8b cb	 mov	 r9, rbx
  000a5	41 b8 89 03 00
	00		 mov	 r8d, 905		; 00000389H
  000ab	c7 44 24 20 02
	00 00 00	 mov	 DWORD PTR [rsp+32], 2
  000b3	e8 00 00 00 00	 call	 _PyParallel_Guard
  000b8	85 c0		 test	 eax, eax
  000ba	75 06		 jne	 SHORT $LN26@lookdict
  000bc	f6 43 20 20	 test	 BYTE PTR [rbx+32], 32	; 00000020H
  000c0	74 04		 je	 SHORT $LN27@lookdict
$LN26@lookdict:
  000c2	48 ff 43 50	 inc	 QWORD PTR [rbx+80]
$LN27@lookdict:

; 494  :             cmp = PyObject_RichCompareBool(startkey, key, Py_EQ);

  000c6	41 b8 02 00 00
	00		 mov	 r8d, 2
  000cc	49 8b d5	 mov	 rdx, r13
  000cf	48 8b cb	 mov	 rcx, rbx
  000d2	e8 00 00 00 00	 call	 PyObject_RichCompareBool

; 495  :             Py_DECREF(startkey);

  000d7	48 8b cb	 mov	 rcx, rbx
  000da	8b f0		 mov	 esi, eax
  000dc	e8 00 00 00 00	 call	 _Py_DecRef

; 496  :             if (cmp < 0)

  000e1	85 f6		 test	 esi, esi
  000e3	0f 88 e2 01 00
	00		 js	 $LN43@lookdict

; 497  :                 return NULL;
; 498  :             if (ep0 == mp->ma_keys->dk_entries && ep->me_key == startkey) {

  000e9	48 8b 4d 68	 mov	 rcx, QWORD PTR [rbp+104]
  000ed	48 83 c1 20	 add	 rcx, 32			; 00000020H
  000f1	4c 3b f9	 cmp	 r15, rcx
  000f4	0f 85 3a 01 00
	00		 jne	 $LN5@lookdict
  000fa	48 39 5f 08	 cmp	 QWORD PTR [rdi+8], rbx
  000fe	0f 85 30 01 00
	00		 jne	 $LN5@lookdict

; 499  :                 if (cmp > 0) {

  00104	85 f6		 test	 esi, esi
  00106	0f 8f 8b 01 00
	00		 jg	 $LN44@lookdict
  0010c	48 8b 8c 24 90
	00 00 00	 mov	 rcx, QWORD PTR i$1$[rsp]
  00114	48 8b 54 24 30	 mov	 rdx, QWORD PTR mask$1$[rsp]
  00119	4c 8d 05 00 00
	00 00		 lea	 r8, OFFSET FLAT:_dummy_struct
$LN15@lookdict:

; 502  :                 }
; 503  :             }
; 504  :             else {
; 505  :                 /* The dict was mutated, restart */
; 506  :                 goto top;
; 507  :             }
; 508  :         }
; 509  :         freeslot = NULL;

  00120	33 ff		 xor	 edi, edi
$LN20@lookdict:

; 510  :     }
; 511  : 
; 512  :     /* In the loop, me_key == dummy is by far (factor of 100s) the
; 513  :        least likely outcome, so test for that last. */
; 514  :     for (perturb = hash; ; perturb >>= PERTURB_SHIFT) {

  00122	4d 8b e6	 mov	 r12, r14
  00125	66 66 66 0f 1f
	84 00 00 00 00
	00		 npad	 11
$LL14@lookdict:

; 515  :         i = (i << 2) + i + perturb + 1;

  00130	49 8d 04 8c	 lea	 rax, QWORD PTR [r12+rcx*4]
  00134	48 8d 4c 01 01	 lea	 rcx, QWORD PTR [rcx+rax+1]

; 516  :         ep = &ep0[i & mask];

  00139	48 8b c1	 mov	 rax, rcx
  0013c	48 89 8c 24 90
	00 00 00	 mov	 QWORD PTR i$1$[rsp], rcx
  00144	48 23 c2	 and	 rax, rdx
  00147	48 8d 04 40	 lea	 rax, QWORD PTR [rax+rax*2]

; 517  :         if (ep->me_key == NULL) {

  0014b	49 8b 5c c7 08	 mov	 rbx, QWORD PTR [r15+rax*8+8]
  00150	49 8d 2c c7	 lea	 rbp, QWORD PTR [r15+rax*8]
  00154	48 85 db	 test	 rbx, rbx
  00157	0f 84 72 01 00
	00		 je	 $LN38@lookdict

; 524  :             }
; 525  :         }
; 526  :         if (ep->me_key == key) {

  0015d	49 3b dd	 cmp	 rbx, r13
  00160	0f 84 6e 01 00
	00		 je	 $LN39@lookdict

; 527  :             *value_addr = &ep->me_value;
; 528  :             return ep;
; 529  :         }
; 530  :         if (ep->me_hash == hash && ep->me_key != dummy) {

  00166	4c 39 75 00	 cmp	 QWORD PTR [rbp], r14
  0016a	0f 85 a7 00 00
	00		 jne	 $LN7@lookdict
  00170	49 3b d8	 cmp	 rbx, r8
  00173	0f 84 a3 00 00
	00		 je	 $LN51@lookdict

; 531  :             startkey = ep->me_key;
; 532  :             Py_INCREF(startkey);

  00179	e8 00 00 00 00	 call	 _Py_PXCTX
  0017e	85 c0		 test	 eax, eax
  00180	75 32		 jne	 SHORT $LN31@lookdict
  00182	48 8d 15 00 00
	00 00		 lea	 rdx, OFFSET FLAT:??_C@_0CD@HDJFDCDP@c?3?2src?2pyparallel?2include?2object@
  00189	48 8d 0d 00 00
	00 00		 lea	 rcx, OFFSET FLAT:??_C@_0L@DHGMCEID@_Py_IncRef?$AA@
  00190	4c 8b cb	 mov	 r9, rbx
  00193	41 b8 89 03 00
	00		 mov	 r8d, 905		; 00000389H
  00199	c7 44 24 20 02
	00 00 00	 mov	 DWORD PTR [rsp+32], 2
  001a1	e8 00 00 00 00	 call	 _PyParallel_Guard
  001a6	85 c0		 test	 eax, eax
  001a8	75 06		 jne	 SHORT $LN30@lookdict
  001aa	f6 43 20 20	 test	 BYTE PTR [rbx+32], 32	; 00000020H
  001ae	74 04		 je	 SHORT $LN31@lookdict
$LN30@lookdict:
  001b0	48 ff 43 50	 inc	 QWORD PTR [rbx+80]
$LN31@lookdict:

; 533  :             cmp = PyObject_RichCompareBool(startkey, key, Py_EQ);

  001b4	41 b8 02 00 00
	00		 mov	 r8d, 2
  001ba	49 8b d5	 mov	 rdx, r13
  001bd	48 8b cb	 mov	 rcx, rbx
  001c0	e8 00 00 00 00	 call	 PyObject_RichCompareBool

; 534  :             Py_DECREF(startkey);

  001c5	48 8b cb	 mov	 rcx, rbx
  001c8	8b f0		 mov	 esi, eax
  001ca	e8 00 00 00 00	 call	 _Py_DecRef

; 535  :             if (cmp < 0) {

  001cf	85 f6		 test	 esi, esi
  001d1	0f 88 e5 00 00
	00		 js	 $LN40@lookdict

; 538  :             }
; 539  :             if (ep0 == mp->ma_keys->dk_entries && ep->me_key == startkey) {

  001d7	48 8b 84 24 80
	00 00 00	 mov	 rax, QWORD PTR mp$[rsp]
  001df	48 8b 40 68	 mov	 rax, QWORD PTR [rax+104]
  001e3	48 83 c0 20	 add	 rax, 32			; 00000020H
  001e7	4c 3b f8	 cmp	 r15, rax
  001ea	75 40		 jne	 SHORT $LN48@lookdict
  001ec	48 39 5d 08	 cmp	 QWORD PTR [rbp+8], rbx
  001f0	75 3a		 jne	 SHORT $LN48@lookdict

; 540  :                 if (cmp > 0) {

  001f2	85 f6		 test	 esi, esi
  001f4	0f 8f ae 00 00
	00		 jg	 $LN41@lookdict

; 543  :                 }
; 544  :             }
; 545  :             else {
; 546  :                 /* The dict was mutated, restart */
; 547  :                 goto top;
; 548  :             }

  001fa	48 8b 8c 24 90
	00 00 00	 mov	 rcx, QWORD PTR i$1$[rsp]
  00202	48 8b 54 24 30	 mov	 rdx, QWORD PTR mask$1$[rsp]
  00207	4c 8d 05 00 00
	00 00		 lea	 r8, OFFSET FLAT:_dummy_struct
  0020e	49 c1 ec 05	 shr	 r12, 5
  00212	e9 19 ff ff ff	 jmp	 $LL14@lookdict
$LN7@lookdict:

; 549  :         }
; 550  :         else if (ep->me_key == dummy && freeslot == NULL)

  00217	49 3b d8	 cmp	 rbx, r8
  0021a	75 07		 jne	 SHORT $LN13@lookdict
$LN51@lookdict:
  0021c	48 85 ff	 test	 rdi, rdi
  0021f	48 0f 44 fd	 cmove	 rdi, rbp
$LN13@lookdict:

; 510  :     }
; 511  : 
; 512  :     /* In the loop, me_key == dummy is by far (factor of 100s) the
; 513  :        least likely outcome, so test for that last. */
; 514  :     for (perturb = hash; ; perturb >>= PERTURB_SHIFT) {

  00223	49 c1 ec 05	 shr	 r12, 5
  00227	e9 04 ff ff ff	 jmp	 $LL14@lookdict
$LN48@lookdict:

; 543  :                 }
; 544  :             }
; 545  :             else {
; 546  :                 /* The dict was mutated, restart */
; 547  :                 goto top;
; 548  :             }

  0022c	48 8b ac 24 80
	00 00 00	 mov	 rbp, QWORD PTR mp$[rsp]
$LN5@lookdict:

; 470  :     register size_t i;
; 471  :     register size_t perturb;
; 472  :     register PyDictKeyEntry *freeslot;
; 473  :     register size_t mask;
; 474  :     PyDictKeyEntry *ep0;
; 475  :     register PyDictKeyEntry *ep;
; 476  :     register int cmp;
; 477  :     PyObject *startkey;
; 478  : 
; 479  : top:
; 480  :     mask = DK_MASK(mp->ma_keys);

  00234	48 8b 45 68	 mov	 rax, QWORD PTR [rbp+104]
  00238	48 8b 50 08	 mov	 rdx, QWORD PTR [rax+8]

; 481  :     ep0 = &mp->ma_keys->dk_entries[0];

  0023c	4c 8d 78 20	 lea	 r15, QWORD PTR [rax+32]
  00240	48 ff ca	 dec	 rdx

; 482  :     i = (size_t)hash & mask;

  00243	48 8b ca	 mov	 rcx, rdx
  00246	48 89 54 24 30	 mov	 QWORD PTR mask$1$[rsp], rdx
  0024b	49 23 ce	 and	 rcx, r14
  0024e	48 89 8c 24 90
	00 00 00	 mov	 QWORD PTR i$1$[rsp], rcx

; 483  :     ep = &ep0[i];

  00256	48 8d 04 49	 lea	 rax, QWORD PTR [rcx+rcx*2]

; 484  :     if (ep->me_key == NULL || ep->me_key == key) {

  0025a	49 8b 5c c7 08	 mov	 rbx, QWORD PTR [r15+rax*8+8]
  0025f	49 8d 3c c7	 lea	 rdi, QWORD PTR [r15+rax*8]
  00263	48 85 db	 test	 rbx, rbx
  00266	0f 85 f7 fd ff
	ff		 jne	 $LN52@lookdict
$LN49@lookdict:

; 469  : {

  0026c	4c 8b a4 24 98
	00 00 00	 mov	 r12, QWORD PTR value_addr$[rsp]
$LN22@lookdict:

; 485  :         *value_addr = &ep->me_value;

  00274	48 8d 47 10	 lea	 rax, QWORD PTR [rdi+16]
  00278	49 89 04 24	 mov	 QWORD PTR [r12], rax
$LN53@lookdict:

; 486  :         return ep;

  0027c	48 8b c7	 mov	 rax, rdi
$LN24@lookdict:

; 551  :             freeslot = ep;
; 552  :     }
; 553  :     assert(0);          /* NOT REACHED */
; 554  :     return 0;
; 555  : }

  0027f	48 8b 9c 24 88
	00 00 00	 mov	 rbx, QWORD PTR [rsp+136]
  00287	48 83 c4 40	 add	 rsp, 64			; 00000040H
  0028b	41 5f		 pop	 r15
  0028d	41 5e		 pop	 r14
  0028f	41 5d		 pop	 r13
  00291	41 5c		 pop	 r12
  00293	5f		 pop	 rdi
  00294	5e		 pop	 rsi
  00295	5d		 pop	 rbp
  00296	c3		 ret	 0
$LN44@lookdict:

; 500  :                     *value_addr = &ep->me_value;

  00297	48 8b 94 24 98
	00 00 00	 mov	 rdx, QWORD PTR value_addr$[rsp]
  0029f	48 8d 47 10	 lea	 rax, QWORD PTR [rdi+16]
  002a3	48 89 02	 mov	 QWORD PTR [rdx], rax

; 501  :                     return ep;

  002a6	eb d4		 jmp	 SHORT $LN53@lookdict
$LN41@lookdict:

; 521  :             } else {
; 522  :                 *value_addr = &freeslot->me_value;

  002a8	48 8b 94 24 98
	00 00 00	 mov	 rdx, QWORD PTR value_addr$[rsp]

; 541  :                     *value_addr = &ep->me_value;

  002b0	48 8d 4d 10	 lea	 rcx, QWORD PTR [rbp+16]

; 542  :                     return ep;

  002b4	48 8b c5	 mov	 rax, rbp
  002b7	48 89 0a	 mov	 QWORD PTR [rdx], rcx
  002ba	eb c3		 jmp	 SHORT $LN24@lookdict
$LN40@lookdict:

; 536  :                 *value_addr = NULL;

  002bc	48 8b 94 24 98
	00 00 00	 mov	 rdx, QWORD PTR value_addr$[rsp]
  002c4	48 c7 02 00 00
	00 00		 mov	 QWORD PTR [rdx], 0
$LN43@lookdict:

; 537  :                 return NULL;

  002cb	33 c0		 xor	 eax, eax
  002cd	eb b0		 jmp	 SHORT $LN24@lookdict
$LN38@lookdict:

; 518  :             if (freeslot == NULL) {

  002cf	48 85 ff	 test	 rdi, rdi
  002d2	75 14		 jne	 SHORT $LN10@lookdict
$LN39@lookdict:

; 519  :                 *value_addr = &ep->me_value;

  002d4	48 8b 94 24 98
	00 00 00	 mov	 rdx, QWORD PTR value_addr$[rsp]
  002dc	48 8d 45 10	 lea	 rax, QWORD PTR [rbp+16]
  002e0	48 89 02	 mov	 QWORD PTR [rdx], rax

; 520  :                 return ep;

  002e3	48 8b c5	 mov	 rax, rbp
  002e6	eb 97		 jmp	 SHORT $LN24@lookdict
$LN10@lookdict:

; 521  :             } else {
; 522  :                 *value_addr = &freeslot->me_value;

  002e8	48 8b 94 24 98
	00 00 00	 mov	 rdx, QWORD PTR value_addr$[rsp]
  002f0	48 8d 4f 10	 lea	 rcx, QWORD PTR [rdi+16]

; 523  :                 return freeslot;

  002f4	48 8b c7	 mov	 rax, rdi
  002f7	48 89 0a	 mov	 QWORD PTR [rdx], rcx
  002fa	eb 83		 jmp	 SHORT $LN24@lookdict
lookdict ENDP
_TEXT	ENDS
EXTRN	PyUnicode_Type:BYTE
;	COMDAT pdata
pdata	SEGMENT
$pdata$lookdict_unicode DD imagerel lookdict_unicode
	DD	imagerel lookdict_unicode+77
	DD	imagerel $unwind$lookdict_unicode
pdata	ENDS
;	COMDAT pdata
pdata	SEGMENT
$pdata$1$lookdict_unicode DD imagerel lookdict_unicode+77
	DD	imagerel lookdict_unicode+182
	DD	imagerel $chain$1$lookdict_unicode
pdata	ENDS
;	COMDAT pdata
pdata	SEGMENT
$pdata$2$lookdict_unicode DD imagerel lookdict_unicode+182
	DD	imagerel lookdict_unicode+347
	DD	imagerel $chain$2$lookdict_unicode
pdata	ENDS
;	COMDAT pdata
pdata	SEGMENT
$pdata$3$lookdict_unicode DD imagerel lookdict_unicode+347
	DD	imagerel lookdict_unicode+370
	DD	imagerel $chain$3$lookdict_unicode
pdata	ENDS
;	COMDAT pdata
pdata	SEGMENT
$pdata$5$lookdict_unicode DD imagerel lookdict_unicode+370
	DD	imagerel lookdict_unicode+391
	DD	imagerel $chain$5$lookdict_unicode
pdata	ENDS
;	COMDAT pdata
pdata	SEGMENT
$pdata$6$lookdict_unicode DD imagerel lookdict_unicode+391
	DD	imagerel lookdict_unicode+403
	DD	imagerel $chain$6$lookdict_unicode
pdata	ENDS
;	COMDAT xdata
xdata	SEGMENT
$chain$6$lookdict_unicode DD 040021H
	DD	0c7400H
	DD	0b3400H
	DD	imagerel lookdict_unicode
	DD	imagerel lookdict_unicode+77
	DD	imagerel $unwind$lookdict_unicode
xdata	ENDS
;	COMDAT xdata
xdata	SEGMENT
$chain$5$lookdict_unicode DD 060021H
	DD	0de400H
	DD	0c7400H
	DD	0b3400H
	DD	imagerel lookdict_unicode
	DD	imagerel lookdict_unicode+77
	DD	imagerel $unwind$lookdict_unicode
xdata	ENDS
;	COMDAT xdata
xdata	SEGMENT
$chain$3$lookdict_unicode DD 021H
	DD	imagerel lookdict_unicode+77
	DD	imagerel lookdict_unicode+182
	DD	imagerel $chain$1$lookdict_unicode
xdata	ENDS
;	COMDAT xdata
xdata	SEGMENT
$chain$2$lookdict_unicode DD 020521H
	DD	0de405H
	DD	imagerel lookdict_unicode+77
	DD	imagerel lookdict_unicode+182
	DD	imagerel $chain$1$lookdict_unicode
xdata	ENDS
;	COMDAT xdata
xdata	SEGMENT
$chain$1$lookdict_unicode DD 040a21H
	DD	0c740aH
	DD	0b3405H
	DD	imagerel lookdict_unicode
	DD	imagerel lookdict_unicode+77
	DD	imagerel $unwind$lookdict_unicode
xdata	ENDS
;	COMDAT xdata
xdata	SEGMENT
$unwind$lookdict_unicode DD 060d01H
	DD	0f009320dH
	DD	0c005d007H
	DD	050026003H
; Function compile flags: /Ogtpy
xdata	ENDS
;	COMDAT lookdict_unicode
_TEXT	SEGMENT
perturb$1$ = 80
mp$ = 80
key$ = 88
hash$ = 96
value_addr$ = 104
lookdict_unicode PROC					; COMDAT

; 561  : {

  00000	40 55		 push	 rbp
  00002	56		 push	 rsi
  00003	41 54		 push	 r12
  00005	41 55		 push	 r13
  00007	41 57		 push	 r15
  00009	48 83 ec 20	 sub	 rsp, 32			; 00000020H

; 562  :     register size_t i;
; 563  :     register size_t perturb;
; 564  :     register PyDictKeyEntry *freeslot;
; 565  :     register size_t mask = DK_MASK(mp->ma_keys);

  0000d	4c 8b 79 68	 mov	 r15, QWORD PTR [rcx+104]

; 566  :     PyDictKeyEntry *ep0 = &mp->ma_keys->dk_entries[0];
; 567  :     register PyDictKeyEntry *ep;
; 568  : 
; 569  :     /* Make sure this function doesn't have to handle non-unicode keys,
; 570  :        including subclasses of str; e.g., one reason to subclass
; 571  :        unicodes is to override __eq__, and for speed we don't cater to
; 572  :        that here. */
; 573  :     if (!PyUnicode_CheckExact(key)) {

  00011	48 8d 05 00 00
	00 00		 lea	 rax, OFFSET FLAT:PyUnicode_Type
  00018	49 8b f1	 mov	 rsi, r9
  0001b	4d 8b 6f 08	 mov	 r13, QWORD PTR [r15+8]
  0001f	4d 8b e0	 mov	 r12, r8
  00022	48 8b ea	 mov	 rbp, rdx
  00025	49 ff cd	 dec	 r13
  00028	48 39 42 58	 cmp	 QWORD PTR [rdx+88], rax
  0002c	74 1f		 je	 SHORT $LN15@lookdict_u

; 574  :         mp->ma_keys->dk_lookup = lookdict;

  0002e	48 8d 15 00 00
	00 00		 lea	 rdx, OFFSET FLAT:lookdict
  00035	49 89 57 10	 mov	 QWORD PTR [r15+16], rdx

; 575  :         return lookdict(mp, key, hash, value_addr);

  00039	48 8b d5	 mov	 rdx, rbp

; 615  :             freeslot = ep;
; 616  :     }
; 617  :     assert(0);          /* NOT REACHED */
; 618  :     return 0;
; 619  : }

  0003c	48 83 c4 20	 add	 rsp, 32			; 00000020H
  00040	41 5f		 pop	 r15
  00042	41 5d		 pop	 r13
  00044	41 5c		 pop	 r12
  00046	5e		 pop	 rsi
  00047	5d		 pop	 rbp
  00048	e9 00 00 00 00	 jmp	 lookdict
$LN15@lookdict_u:
  0004d	48 89 5c 24 58	 mov	 QWORD PTR [rsp+88], rbx
  00052	48 89 7c 24 60	 mov	 QWORD PTR [rsp+96], rdi

; 576  :     }
; 577  :     i = (size_t)hash & mask;

  00057	49 8b fd	 mov	 rdi, r13
  0005a	49 23 f8	 and	 rdi, r8

; 578  :     ep = &ep0[i];

  0005d	48 8d 04 7f	 lea	 rax, QWORD PTR [rdi+rdi*2]

; 579  :     if (ep->me_key == NULL || ep->me_key == key) {

  00061	49 8b 4c c7 28	 mov	 rcx, QWORD PTR [r15+rax*8+40]
  00066	49 8d 5c c7 20	 lea	 rbx, QWORD PTR [r15+rax*8+32]
  0006b	48 85 c9	 test	 rcx, rcx
  0006e	0f 84 13 01 00
	00		 je	 $LN13@lookdict_u
  00074	48 3b ca	 cmp	 rcx, rdx
  00077	0f 84 0a 01 00
	00		 je	 $LN13@lookdict_u

; 582  :     }
; 583  :     if (ep->me_key == dummy)

  0007d	48 8d 15 00 00
	00 00		 lea	 rdx, OFFSET FLAT:_dummy_struct
  00084	48 3b ca	 cmp	 rcx, rdx
  00087	74 29		 je	 SHORT $LN11@lookdict_u

; 584  :         freeslot = ep;
; 585  :     else {
; 586  :         if (ep->me_hash == hash && unicode_eq(ep->me_key, key)) {

  00089	4c 39 03	 cmp	 QWORD PTR [rbx], r8
  0008c	75 22		 jne	 SHORT $LN10@lookdict_u
  0008e	48 8b d5	 mov	 rdx, rbp
  00091	e8 00 00 00 00	 call	 unicode_eq
  00096	85 c0		 test	 eax, eax
  00098	74 0f		 je	 SHORT $LN23@lookdict_u

; 587  :             *value_addr = &ep->me_value;

  0009a	48 8d 43 10	 lea	 rax, QWORD PTR [rbx+16]
  0009e	48 89 06	 mov	 QWORD PTR [rsi], rax

; 588  :             return ep;

  000a1	48 8b c3	 mov	 rax, rbx
  000a4	e9 b2 00 00 00	 jmp	 $LN25@lookdict_u
$LN23@lookdict_u:

; 591  :     }
; 592  : 
; 593  :     /* In the loop, me_key == dummy is by far (factor of 100s) the
; 594  :        least likely outcome, so test for that last. */
; 595  :     for (perturb = hash; ; perturb >>= PERTURB_SHIFT) {

  000a9	48 8d 15 00 00
	00 00		 lea	 rdx, OFFSET FLAT:_dummy_struct
$LN10@lookdict_u:

; 589  :         }
; 590  :         freeslot = NULL;

  000b0	33 db		 xor	 ebx, ebx
$LN11@lookdict_u:

; 596  :         i = (i << 2) + i + perturb + 1;

  000b2	49 8d 04 bc	 lea	 rax, QWORD PTR [r12+rdi*4]
  000b6	4c 89 74 24 68	 mov	 QWORD PTR [rsp+104], r14
  000bb	49 8b cc	 mov	 rcx, r12
  000be	4c 8d 74 07 01	 lea	 r14, QWORD PTR [rdi+rax+1]
  000c3	48 89 4c 24 50	 mov	 QWORD PTR perturb$1$[rsp], rcx

; 597  :         ep = &ep0[i & mask];

  000c8	49 8b c6	 mov	 rax, r14
  000cb	49 23 c5	 and	 rax, r13
  000ce	48 8d 04 40	 lea	 rax, QWORD PTR [rax+rax*2]
  000d2	49 8d 7c c7 20	 lea	 rdi, QWORD PTR [r15+rax*8+32]

; 598  :         if (ep->me_key == NULL) {

  000d7	49 8b 44 c7 28	 mov	 rax, QWORD PTR [r15+rax*8+40]
  000dc	48 85 c0	 test	 rax, rax
  000df	74 66		 je	 SHORT $LN19@lookdict_u
$LL9@lookdict_u:

; 605  :             }
; 606  :         }
; 607  :         if (ep->me_key == key
; 608  :             || (ep->me_hash == hash
; 609  :             && ep->me_key != dummy
; 610  :             && unicode_eq(ep->me_key, key))) {

  000e1	48 3b c5	 cmp	 rax, rbp
  000e4	0f 84 88 00 00
	00		 je	 $LN20@lookdict_u
  000ea	4c 39 27	 cmp	 QWORD PTR [rdi], r12
  000ed	75 20		 jne	 SHORT $LN3@lookdict_u
  000ef	48 3b c2	 cmp	 rax, rdx
  000f2	74 21		 je	 SHORT $LN22@lookdict_u
  000f4	48 8b d5	 mov	 rdx, rbp
  000f7	48 8b c8	 mov	 rcx, rax
  000fa	e8 00 00 00 00	 call	 unicode_eq
  000ff	85 c0		 test	 eax, eax
  00101	75 6f		 jne	 SHORT $LN20@lookdict_u
  00103	48 8b 4c 24 50	 mov	 rcx, QWORD PTR perturb$1$[rsp]
  00108	48 8d 15 00 00
	00 00		 lea	 rdx, OFFSET FLAT:_dummy_struct
$LN3@lookdict_u:

; 613  :         }
; 614  :         if (ep->me_key == dummy && freeslot == NULL)

  0010f	48 39 57 08	 cmp	 QWORD PTR [rdi+8], rdx
  00113	75 07		 jne	 SHORT $LN8@lookdict_u
$LN22@lookdict_u:
  00115	48 85 db	 test	 rbx, rbx
  00118	48 0f 44 df	 cmove	 rbx, rdi
$LN8@lookdict_u:

; 591  :     }
; 592  : 
; 593  :     /* In the loop, me_key == dummy is by far (factor of 100s) the
; 594  :        least likely outcome, so test for that last. */
; 595  :     for (perturb = hash; ; perturb >>= PERTURB_SHIFT) {

  0011c	48 c1 e9 05	 shr	 rcx, 5
  00120	48 89 4c 24 50	 mov	 QWORD PTR perturb$1$[rsp], rcx

; 596  :         i = (i << 2) + i + perturb + 1;

  00125	4a 8d 04 b1	 lea	 rax, QWORD PTR [rcx+r14*4]
  00129	4d 8d 74 06 01	 lea	 r14, QWORD PTR [r14+rax+1]

; 597  :         ep = &ep0[i & mask];

  0012e	49 8b c6	 mov	 rax, r14
  00131	49 23 c5	 and	 rax, r13
  00134	48 8d 04 40	 lea	 rax, QWORD PTR [rax+rax*2]
  00138	49 8d 7c c7 20	 lea	 rdi, QWORD PTR [r15+rax*8+32]

; 598  :         if (ep->me_key == NULL) {

  0013d	49 8b 44 c7 28	 mov	 rax, QWORD PTR [r15+rax*8+40]
  00142	48 85 c0	 test	 rax, rax
  00145	75 9a		 jne	 SHORT $LL9@lookdict_u
$LN19@lookdict_u:

; 599  :             if (freeslot == NULL) {

  00147	48 85 db	 test	 rbx, rbx
  0014a	75 2f		 jne	 SHORT $LN5@lookdict_u

; 600  :                 *value_addr = &ep->me_value;

  0014c	48 8d 47 10	 lea	 rax, QWORD PTR [rdi+16]
  00150	48 89 06	 mov	 QWORD PTR [rsi], rax
$LN27@lookdict_u:

; 612  :             return ep;

  00153	48 8b c7	 mov	 rax, rdi
$LN26@lookdict_u:
  00156	4c 8b 74 24 68	 mov	 r14, QWORD PTR [rsp+104]
$LN25@lookdict_u:
  0015b	48 8b 5c 24 58	 mov	 rbx, QWORD PTR [rsp+88]
  00160	48 8b 7c 24 60	 mov	 rdi, QWORD PTR [rsp+96]

; 615  :             freeslot = ep;
; 616  :     }
; 617  :     assert(0);          /* NOT REACHED */
; 618  :     return 0;
; 619  : }

  00165	48 83 c4 20	 add	 rsp, 32			; 00000020H
  00169	41 5f		 pop	 r15
  0016b	41 5d		 pop	 r13
  0016d	41 5c		 pop	 r12
  0016f	5e		 pop	 rsi
  00170	5d		 pop	 rbp
  00171	c3		 ret	 0
$LN20@lookdict_u:

; 611  :             *value_addr = &ep->me_value;

  00172	48 8d 4f 10	 lea	 rcx, QWORD PTR [rdi+16]
  00176	48 89 0e	 mov	 QWORD PTR [rsi], rcx

; 612  :             return ep;

  00179	eb d8		 jmp	 SHORT $LN27@lookdict_u
$LN5@lookdict_u:

; 601  :                 return ep;
; 602  :             } else {
; 603  :                 *value_addr = &freeslot->me_value;

  0017b	48 8d 4b 10	 lea	 rcx, QWORD PTR [rbx+16]

; 604  :                 return freeslot;

  0017f	48 8b c3	 mov	 rax, rbx
  00182	48 89 0e	 mov	 QWORD PTR [rsi], rcx
  00185	eb cf		 jmp	 SHORT $LN26@lookdict_u
$LN13@lookdict_u:

; 580  :         *value_addr = &ep->me_value;

  00187	48 8d 43 10	 lea	 rax, QWORD PTR [rbx+16]
  0018b	49 89 01	 mov	 QWORD PTR [r9], rax

; 581  :         return ep;

  0018e	48 8b c3	 mov	 rax, rbx
  00191	eb c8		 jmp	 SHORT $LN25@lookdict_u
lookdict_unicode ENDP
_TEXT	ENDS
;	COMDAT pdata
pdata	SEGMENT
$pdata$lookdict_unicode_nodummy DD imagerel lookdict_unicode_nodummy
	DD	imagerel lookdict_unicode_nodummy+140
	DD	imagerel $unwind$lookdict_unicode_nodummy
pdata	ENDS
;	COMDAT pdata
pdata	SEGMENT
$pdata$2$lookdict_unicode_nodummy DD imagerel lookdict_unicode_nodummy+140
	DD	imagerel lookdict_unicode_nodummy+247
	DD	imagerel $chain$2$lookdict_unicode_nodummy
pdata	ENDS
;	COMDAT pdata
pdata	SEGMENT
$pdata$3$lookdict_unicode_nodummy DD imagerel lookdict_unicode_nodummy+247
	DD	imagerel lookdict_unicode_nodummy+281
	DD	imagerel $chain$3$lookdict_unicode_nodummy
pdata	ENDS
;	COMDAT xdata
xdata	SEGMENT
$chain$3$lookdict_unicode_nodummy DD 021H
	DD	imagerel lookdict_unicode_nodummy
	DD	imagerel lookdict_unicode_nodummy+140
	DD	imagerel $unwind$lookdict_unicode_nodummy
xdata	ENDS
;	COMDAT xdata
xdata	SEGMENT
$chain$2$lookdict_unicode_nodummy DD 020521H
	DD	0cd405H
	DD	imagerel lookdict_unicode_nodummy
	DD	imagerel lookdict_unicode_nodummy+140
	DD	imagerel $unwind$lookdict_unicode_nodummy
xdata	ENDS
;	COMDAT xdata
xdata	SEGMENT
$unwind$lookdict_unicode_nodummy DD 0a5701H
	DD	0b5457H
	DD	0a3452H
	DD	0f009320dH
	DD	0c005e007H
	DD	060027003H
; Function compile flags: /Ogtpy
xdata	ENDS
;	COMDAT lookdict_unicode_nodummy
_TEXT	SEGMENT
mp$ = 80
key$ = 88
hash$ = 96
value_addr$ = 104
lookdict_unicode_nodummy PROC				; COMDAT

; 626  : {

  00000	40 56		 push	 rsi
  00002	57		 push	 rdi
  00003	41 54		 push	 r12
  00005	41 56		 push	 r14
  00007	41 57		 push	 r15
  00009	48 83 ec 20	 sub	 rsp, 32			; 00000020H

; 627  :     register size_t i;
; 628  :     register size_t perturb;
; 629  :     register size_t mask = DK_MASK(mp->ma_keys);

  0000d	4c 8b 79 68	 mov	 r15, QWORD PTR [rcx+104]

; 630  :     PyDictKeyEntry *ep0 = &mp->ma_keys->dk_entries[0];
; 631  :     register PyDictKeyEntry *ep;
; 632  : 
; 633  :     /* Make sure this function doesn't have to handle non-unicode keys,
; 634  :        including subclasses of str; e.g., one reason to subclass
; 635  :        unicodes is to override __eq__, and for speed we don't cater to
; 636  :        that here. */
; 637  :     if (!PyUnicode_CheckExact(key)) {

  00011	48 8d 05 00 00
	00 00		 lea	 rax, OFFSET FLAT:PyUnicode_Type
  00018	4d 8b e1	 mov	 r12, r9
  0001b	4d 8b 77 08	 mov	 r14, QWORD PTR [r15+8]
  0001f	49 8b f0	 mov	 rsi, r8
  00022	48 8b fa	 mov	 rdi, rdx
  00025	49 ff ce	 dec	 r14
  00028	48 39 42 58	 cmp	 QWORD PTR [rdx+88], rax
  0002c	74 1f		 je	 SHORT $LN8@lookdict_u@2

; 638  :         mp->ma_keys->dk_lookup = lookdict;

  0002e	48 8d 15 00 00
	00 00		 lea	 rdx, OFFSET FLAT:lookdict
  00035	49 89 57 10	 mov	 QWORD PTR [r15+16], rdx

; 639  :         return lookdict(mp, key, hash, value_addr);

  00039	48 8b d7	 mov	 rdx, rdi

; 655  :             *value_addr = &ep->me_value;
; 656  :             return ep;
; 657  :         }
; 658  :     }
; 659  :     assert(0);          /* NOT REACHED */
; 660  :     return 0;
; 661  : }

  0003c	48 83 c4 20	 add	 rsp, 32			; 00000020H
  00040	41 5f		 pop	 r15
  00042	41 5e		 pop	 r14
  00044	41 5c		 pop	 r12
  00046	5f		 pop	 rdi
  00047	5e		 pop	 rsi
  00048	e9 00 00 00 00	 jmp	 lookdict
$LN8@lookdict_u@2:
  0004d	48 89 5c 24 50	 mov	 QWORD PTR [rsp+80], rbx
  00052	48 89 6c 24 58	 mov	 QWORD PTR [rsp+88], rbp

; 640  :     }
; 641  :     i = (size_t)hash & mask;

  00057	49 8b ee	 mov	 rbp, r14
  0005a	49 23 e8	 and	 rbp, r8

; 642  :     ep = &ep0[i];

  0005d	48 8d 44 6d 00	 lea	 rax, QWORD PTR [rbp+rbp*2]

; 643  :     assert(ep->me_key == NULL || PyUnicode_CheckExact(ep->me_key));
; 644  :     if (ep->me_key == NULL || ep->me_key == key ||
; 645  :         (ep->me_hash == hash && unicode_eq(ep->me_key, key))) {

  00062	49 8b 4c c7 28	 mov	 rcx, QWORD PTR [r15+rax*8+40]
  00067	49 8d 5c c7 20	 lea	 rbx, QWORD PTR [r15+rax*8+32]
  0006c	48 85 c9	 test	 rcx, rcx
  0006f	0f 84 82 00 00
	00		 je	 $LN6@lookdict_u@2
  00075	48 3b ca	 cmp	 rcx, rdx
  00078	74 7d		 je	 SHORT $LN6@lookdict_u@2
  0007a	4c 39 03	 cmp	 QWORD PTR [rbx], r8
  0007d	75 09		 jne	 SHORT $LN7@lookdict_u@2
  0007f	e8 00 00 00 00	 call	 unicode_eq
  00084	85 c0		 test	 eax, eax
  00086	75 6f		 jne	 SHORT $LN6@lookdict_u@2
$LN7@lookdict_u@2:

; 650  :         i = (i << 2) + i + perturb + 1;

  00088	48 8d 04 ae	 lea	 rax, QWORD PTR [rsi+rbp*4]
  0008c	4c 89 6c 24 60	 mov	 QWORD PTR [rsp+96], r13
  00091	4c 8b ee	 mov	 r13, rsi
  00094	48 8d 6c 28 01	 lea	 rbp, QWORD PTR [rax+rbp+1]

; 651  :         ep = &ep0[i & mask];

  00099	48 8b c5	 mov	 rax, rbp
  0009c	49 23 c6	 and	 rax, r14
  0009f	48 8d 04 40	 lea	 rax, QWORD PTR [rax+rax*2]
  000a3	49 8d 5c c7 20	 lea	 rbx, QWORD PTR [r15+rax*8+32]

; 652  :         assert(ep->me_key == NULL || PyUnicode_CheckExact(ep->me_key));
; 653  :         if (ep->me_key == NULL || ep->me_key == key ||
; 654  :             (ep->me_hash == hash && unicode_eq(ep->me_key, key))) {

  000a8	49 8b 44 c7 28	 mov	 rax, QWORD PTR [r15+rax*8+40]
  000ad	48 85 c0	 test	 rax, rax
  000b0	74 40		 je	 SHORT $LN14@lookdict_u@2
$LL5@lookdict_u@2:
  000b2	48 3b c7	 cmp	 rax, rdi
  000b5	74 3b		 je	 SHORT $LN14@lookdict_u@2
  000b7	48 39 33	 cmp	 QWORD PTR [rbx], rsi
  000ba	75 0f		 jne	 SHORT $LN4@lookdict_u@2
  000bc	48 8b d7	 mov	 rdx, rdi
  000bf	48 8b c8	 mov	 rcx, rax
  000c2	e8 00 00 00 00	 call	 unicode_eq
  000c7	85 c0		 test	 eax, eax
  000c9	75 27		 jne	 SHORT $LN14@lookdict_u@2
$LN4@lookdict_u@2:

; 648  :     }
; 649  :     for (perturb = hash; ; perturb >>= PERTURB_SHIFT) {

  000cb	49 c1 ed 05	 shr	 r13, 5

; 650  :         i = (i << 2) + i + perturb + 1;

  000cf	49 8d 44 ad 00	 lea	 rax, QWORD PTR [r13+rbp*4]
  000d4	48 8d 6c 28 01	 lea	 rbp, QWORD PTR [rax+rbp+1]

; 651  :         ep = &ep0[i & mask];

  000d9	48 8b c5	 mov	 rax, rbp
  000dc	49 23 c6	 and	 rax, r14
  000df	48 8d 04 40	 lea	 rax, QWORD PTR [rax+rax*2]
  000e3	49 8d 5c c7 20	 lea	 rbx, QWORD PTR [r15+rax*8+32]

; 652  :         assert(ep->me_key == NULL || PyUnicode_CheckExact(ep->me_key));
; 653  :         if (ep->me_key == NULL || ep->me_key == key ||
; 654  :             (ep->me_hash == hash && unicode_eq(ep->me_key, key))) {

  000e8	49 8b 44 c7 28	 mov	 rax, QWORD PTR [r15+rax*8+40]
  000ed	48 85 c0	 test	 rax, rax
  000f0	75 c0		 jne	 SHORT $LL5@lookdict_u@2
$LN14@lookdict_u@2:
  000f2	4c 8b 6c 24 60	 mov	 r13, QWORD PTR [rsp+96]
$LN6@lookdict_u@2:
  000f7	48 8b 6c 24 58	 mov	 rbp, QWORD PTR [rsp+88]

; 646  :         *value_addr = &ep->me_value;

  000fc	48 8d 4b 10	 lea	 rcx, QWORD PTR [rbx+16]

; 647  :         return ep;

  00100	48 8b c3	 mov	 rax, rbx
  00103	48 8b 5c 24 50	 mov	 rbx, QWORD PTR [rsp+80]
  00108	49 89 0c 24	 mov	 QWORD PTR [r12], rcx

; 655  :             *value_addr = &ep->me_value;
; 656  :             return ep;
; 657  :         }
; 658  :     }
; 659  :     assert(0);          /* NOT REACHED */
; 660  :     return 0;
; 661  : }

  0010c	48 83 c4 20	 add	 rsp, 32			; 00000020H
  00110	41 5f		 pop	 r15
  00112	41 5e		 pop	 r14
  00114	41 5c		 pop	 r12
  00116	5f		 pop	 rdi
  00117	5e		 pop	 rsi
  00118	c3		 ret	 0
lookdict_unicode_nodummy ENDP
_TEXT	ENDS
;	COMDAT pdata
pdata	SEGMENT
$pdata$lookdict_split DD imagerel lookdict_split
	DD	imagerel lookdict_split+368
	DD	imagerel $unwind$lookdict_split
pdata	ENDS
;	COMDAT xdata
xdata	SEGMENT
$unwind$lookdict_split DD 0c9701H
	DD	0b7497H
	DD	0a348fH
	DD	0c5417H
	DD	0f0133217H
	DD	0d00fe011H
	DD	0600bc00dH
; Function compile flags: /Ogtpy
xdata	ENDS
;	COMDAT lookdict_split
_TEXT	SEGMENT
mp$ = 80
key$ = 88
hash$ = 96
value_addr$ = 104
lookdict_split PROC					; COMDAT

; 671  : {

  00000	48 89 6c 24 18	 mov	 QWORD PTR [rsp+24], rbp
  00005	4c 89 4c 24 20	 mov	 QWORD PTR [rsp+32], r9
  0000a	56		 push	 rsi
  0000b	41 54		 push	 r12
  0000d	41 55		 push	 r13
  0000f	41 56		 push	 r14
  00011	41 57		 push	 r15
  00013	48 83 ec 20	 sub	 rsp, 32			; 00000020H

; 672  :     register size_t i;
; 673  :     register size_t perturb;
; 674  :     register size_t mask = DK_MASK(mp->ma_keys);

  00017	48 8b 41 68	 mov	 rax, QWORD PTR [rcx+104]
  0001b	4d 8b e9	 mov	 r13, r9
  0001e	49 8b e8	 mov	 rbp, r8
  00021	4c 8b 60 08	 mov	 r12, QWORD PTR [rax+8]

; 675  :     PyDictKeyEntry *ep0 = &mp->ma_keys->dk_entries[0];

  00025	4c 8d 70 20	 lea	 r14, QWORD PTR [rax+32]

; 676  :     register PyDictKeyEntry *ep;
; 677  : 
; 678  :     if (!PyUnicode_CheckExact(key)) {

  00029	48 8d 05 00 00
	00 00		 lea	 rax, OFFSET FLAT:PyUnicode_Type
  00030	49 ff cc	 dec	 r12
  00033	48 8b f2	 mov	 rsi, rdx
  00036	4c 8b f9	 mov	 r15, rcx
  00039	48 39 42 58	 cmp	 QWORD PTR [rdx+88], rax
  0003d	74 4b		 je	 SHORT $LN8@lookdict_s

; 679  :         ep = lookdict(mp, key, hash, value_addr);

  0003f	e8 00 00 00 00	 call	 lookdict

; 680  :         /* lookdict expects a combined-table, so fix value_addr */
; 681  :         i = ep - ep0;

  00044	48 8b c8	 mov	 rcx, rax
  00047	4c 8b d8	 mov	 r11, rax
  0004a	48 b8 ab aa aa
	aa aa aa aa 2a	 mov	 rax, 3074457345618258603 ; 2aaaaaaaaaaaaaabH
  00054	49 2b ce	 sub	 rcx, r14
  00057	48 f7 e9	 imul	 rcx

; 682  :         *value_addr = &mp->ma_values[i];
; 683  :         return ep;

  0005a	49 8b c3	 mov	 rax, r11
  0005d	48 c1 fa 02	 sar	 rdx, 2
  00061	48 8b ca	 mov	 rcx, rdx
  00064	48 c1 e9 3f	 shr	 rcx, 63			; 0000003fH
  00068	48 03 d1	 add	 rdx, rcx
  0006b	49 8b 4f 70	 mov	 rcx, QWORD PTR [r15+112]
  0006f	48 8d 14 d1	 lea	 rdx, QWORD PTR [rcx+rdx*8]
  00073	49 89 55 00	 mov	 QWORD PTR [r13], rdx

; 701  :         }
; 702  :     }
; 703  :     assert(0);          /* NOT REACHED */
; 704  :     return 0;
; 705  : }

  00077	48 8b 6c 24 60	 mov	 rbp, QWORD PTR [rsp+96]
  0007c	48 83 c4 20	 add	 rsp, 32			; 00000020H
  00080	41 5f		 pop	 r15
  00082	41 5e		 pop	 r14
  00084	41 5d		 pop	 r13
  00086	41 5c		 pop	 r12
  00088	5e		 pop	 rsi
  00089	c3		 ret	 0
$LN8@lookdict_s:
  0008a	48 89 5c 24 50	 mov	 QWORD PTR [rsp+80], rbx

; 684  :     }
; 685  :     i = (size_t)hash & mask;

  0008f	49 8b dc	 mov	 rbx, r12
  00092	48 89 7c 24 58	 mov	 QWORD PTR [rsp+88], rdi
  00097	49 23 d8	 and	 rbx, r8

; 686  :     ep = &ep0[i];

  0009a	48 8d 04 5b	 lea	 rax, QWORD PTR [rbx+rbx*2]

; 687  :     assert(ep->me_key == NULL || PyUnicode_CheckExact(ep->me_key));
; 688  :     if (ep->me_key == NULL || ep->me_key == key ||
; 689  :         (ep->me_hash == hash && unicode_eq(ep->me_key, key))) {

  0009e	49 8b 4c c6 08	 mov	 rcx, QWORD PTR [r14+rax*8+8]
  000a3	49 8d 3c c6	 lea	 rdi, QWORD PTR [r14+rax*8]
  000a7	48 85 c9	 test	 rcx, rcx
  000aa	0f 84 94 00 00
	00		 je	 $LN6@lookdict_s
  000b0	48 3b ca	 cmp	 rcx, rdx
  000b3	0f 84 8b 00 00
	00		 je	 $LN6@lookdict_s
  000b9	4c 39 07	 cmp	 QWORD PTR [rdi], r8
  000bc	75 09		 jne	 SHORT $LN7@lookdict_s
  000be	e8 00 00 00 00	 call	 unicode_eq
  000c3	85 c0		 test	 eax, eax
  000c5	75 7d		 jne	 SHORT $LN6@lookdict_s
$LN7@lookdict_s:

; 694  :         i = (i << 2) + i + perturb + 1;

  000c7	48 8d 44 9d 00	 lea	 rax, QWORD PTR [rbp+rbx*4]
  000cc	4c 8b ed	 mov	 r13, rbp
  000cf	48 8d 5c 03 01	 lea	 rbx, QWORD PTR [rbx+rax+1]

; 695  :         ep = &ep0[i & mask];

  000d4	48 8b c3	 mov	 rax, rbx
  000d7	49 23 c4	 and	 rax, r12
  000da	48 8d 04 40	 lea	 rax, QWORD PTR [rax+rax*2]
  000de	49 8d 3c c6	 lea	 rdi, QWORD PTR [r14+rax*8]

; 696  :         assert(ep->me_key == NULL || PyUnicode_CheckExact(ep->me_key));
; 697  :         if (ep->me_key == NULL || ep->me_key == key ||
; 698  :             (ep->me_hash == hash && unicode_eq(ep->me_key, key))) {

  000e2	49 8b 44 c6 08	 mov	 rax, QWORD PTR [r14+rax*8+8]
  000e7	48 85 c0	 test	 rax, rax
  000ea	74 43		 je	 SHORT $LN14@lookdict_s
  000ec	0f 1f 40 00	 npad	 4
$LL5@lookdict_s:
  000f0	48 3b c6	 cmp	 rax, rsi
  000f3	74 3a		 je	 SHORT $LN14@lookdict_s
  000f5	48 39 2f	 cmp	 QWORD PTR [rdi], rbp
  000f8	75 0f		 jne	 SHORT $LN4@lookdict_s
  000fa	48 8b d6	 mov	 rdx, rsi
  000fd	48 8b c8	 mov	 rcx, rax
  00100	e8 00 00 00 00	 call	 unicode_eq
  00105	85 c0		 test	 eax, eax
  00107	75 26		 jne	 SHORT $LN14@lookdict_s
$LN4@lookdict_s:

; 691  :         return ep;
; 692  :     }
; 693  :     for (perturb = hash; ; perturb >>= PERTURB_SHIFT) {

  00109	49 c1 ed 05	 shr	 r13, 5

; 694  :         i = (i << 2) + i + perturb + 1;

  0010d	49 8d 44 9d 00	 lea	 rax, QWORD PTR [r13+rbx*4]
  00112	48 8d 5c 03 01	 lea	 rbx, QWORD PTR [rbx+rax+1]

; 695  :         ep = &ep0[i & mask];

  00117	48 8b c3	 mov	 rax, rbx
  0011a	49 23 c4	 and	 rax, r12
  0011d	48 8d 04 40	 lea	 rax, QWORD PTR [rax+rax*2]
  00121	49 8d 3c c6	 lea	 rdi, QWORD PTR [r14+rax*8]

; 696  :         assert(ep->me_key == NULL || PyUnicode_CheckExact(ep->me_key));
; 697  :         if (ep->me_key == NULL || ep->me_key == key ||
; 698  :             (ep->me_hash == hash && unicode_eq(ep->me_key, key))) {

  00125	49 8b 44 c6 08	 mov	 rax, QWORD PTR [r14+rax*8+8]
  0012a	48 85 c0	 test	 rax, rax
  0012d	75 c1		 jne	 SHORT $LL5@lookdict_s
$LN14@lookdict_s:

; 699  :             *value_addr = &mp->ma_values[i & mask];

  0012f	49 8b 4f 70	 mov	 rcx, QWORD PTR [r15+112]
  00133	48 8b 44 24 68	 mov	 rax, QWORD PTR value_addr$[rsp]
  00138	49 23 dc	 and	 rbx, r12
  0013b	48 8d 14 d9	 lea	 rdx, QWORD PTR [rcx+rbx*8]
  0013f	48 89 10	 mov	 QWORD PTR [rax], rdx

; 700  :             return ep;

  00142	eb 0c		 jmp	 SHORT $LN17@lookdict_s
$LN6@lookdict_s:

; 690  :         *value_addr = &mp->ma_values[i];

  00144	49 8b 4f 70	 mov	 rcx, QWORD PTR [r15+112]
  00148	48 8d 14 d9	 lea	 rdx, QWORD PTR [rcx+rbx*8]
  0014c	49 89 55 00	 mov	 QWORD PTR [r13], rdx
$LN17@lookdict_s:

; 701  :         }
; 702  :     }
; 703  :     assert(0);          /* NOT REACHED */
; 704  :     return 0;
; 705  : }

  00150	48 8b 5c 24 50	 mov	 rbx, QWORD PTR [rsp+80]
  00155	48 8b 6c 24 60	 mov	 rbp, QWORD PTR [rsp+96]
  0015a	48 8b c7	 mov	 rax, rdi
  0015d	48 8b 7c 24 58	 mov	 rdi, QWORD PTR [rsp+88]
  00162	48 83 c4 20	 add	 rsp, 32			; 00000020H
  00166	41 5f		 pop	 r15
  00168	41 5e		 pop	 r14
  0016a	41 5d		 pop	 r13
  0016c	41 5c		 pop	 r12
  0016e	5e		 pop	 rsi
  0016f	c3		 ret	 0
lookdict_split ENDP
_TEXT	ENDS
PUBLIC	??_C@_0BF@OFCLJMII@_PyDict_MaybeUntrack?$AA@	; `string'
PUBLIC	_PyDict_MaybeUntrack
EXTRN	PyTuple_Type:BYTE
;	COMDAT pdata
pdata	SEGMENT
$pdata$_PyDict_MaybeUntrack DD imagerel $LN94
	DD	imagerel $LN94+147
	DD	imagerel $unwind$_PyDict_MaybeUntrack
pdata	ENDS
;	COMDAT pdata
pdata	SEGMENT
$pdata$4$_PyDict_MaybeUntrack DD imagerel $LN94+147
	DD	imagerel $LN94+1238
	DD	imagerel $chain$4$_PyDict_MaybeUntrack
pdata	ENDS
;	COMDAT pdata
pdata	SEGMENT
$pdata$5$_PyDict_MaybeUntrack DD imagerel $LN94+1238
	DD	imagerel $LN94+1244
	DD	imagerel $chain$5$_PyDict_MaybeUntrack
pdata	ENDS
;	COMDAT xdata
xdata	SEGMENT
$chain$5$_PyDict_MaybeUntrack DD 021H
	DD	imagerel $LN94
	DD	imagerel $LN94+147
	DD	imagerel $unwind$_PyDict_MaybeUntrack
xdata	ENDS
;	COMDAT xdata
xdata	SEGMENT
$chain$4$_PyDict_MaybeUntrack DD 0a2121H
	DD	06d421H
	DD	07c418H
	DD	0d740fH
	DD	0c640aH
	DD	0b3405H
	DD	imagerel $LN94
	DD	imagerel $LN94+147
	DD	imagerel $unwind$_PyDict_MaybeUntrack
xdata	ENDS
;	COMDAT xdata
xdata	SEGMENT
$unwind$_PyDict_MaybeUntrack DD 020601H
	DD	050027206H
xdata	ENDS
;	COMDAT ??_C@_0BF@OFCLJMII@_PyDict_MaybeUntrack?$AA@
CONST	SEGMENT
??_C@_0BF@OFCLJMII@_PyDict_MaybeUntrack?$AA@ DB '_PyDict_MaybeUntrack', 00H ; `string'
; Function compile flags: /Ogtpy
CONST	ENDS
;	COMDAT _PyDict_MaybeUntrack
_TEXT	SEGMENT
tv288 = 80
tv219 = 80
tv150 = 80
op$ = 80
_PyDict_MaybeUntrack PROC				; COMDAT

; 734  : {

$LN94:
  00000	40 55		 push	 rbp
  00002	48 83 ec 40	 sub	 rsp, 64			; 00000040H

; 735  :     PyDictObject *mp;
; 736  :     PyObject *value;
; 737  :     Py_ssize_t i, size;
; 738  : 
; 739  :     if (!PyDict_CheckExact(op) || !_PyObject_GC_IS_TRACKED(op))

  00006	48 8d 05 00 00
	00 00		 lea	 rax, OFFSET FLAT:PyDict_Type
  0000d	48 8b e9	 mov	 rbp, rcx
  00010	48 39 41 58	 cmp	 QWORD PTR [rcx+88], rax
  00014	74 0a		 je	 SHORT $LN18@PyDict_May
  00016	48 39 41 38	 cmp	 QWORD PTR [rcx+56], rax
  0001a	0f 85 b6 04 00
	00		 jne	 $LN1@PyDict_May
$LN18@PyDict_May:
  00020	4c 8b c9	 mov	 r9, rcx
  00023	48 8d 15 00 00
	00 00		 lea	 rdx, OFFSET FLAT:??_C@_0BI@LNHGAPGK@?4?4?2Objects?2dictobject?4c?$AA@
  0002a	48 8d 0d 00 00
	00 00		 lea	 rcx, OFFSET FLAT:??_C@_0BF@OFCLJMII@_PyDict_MaybeUntrack?$AA@
  00031	41 b8 e3 02 00
	00		 mov	 r8d, 739		; 000002e3H
  00037	c7 44 24 20 10
	00 00 00	 mov	 DWORD PTR [rsp+32], 16
  0003f	e8 00 00 00 00	 call	 _PyParallel_Guard
  00044	85 c0		 test	 eax, eax
  00046	0f 85 8a 04 00
	00		 jne	 $LN1@PyDict_May
  0004c	48 8d 15 00 00
	00 00		 lea	 rdx, OFFSET FLAT:??_C@_0BI@LNHGAPGK@?4?4?2Objects?2dictobject?4c?$AA@
  00053	48 8d 0d 00 00
	00 00		 lea	 rcx, OFFSET FLAT:??_C@_0BF@OFCLJMII@_PyDict_MaybeUntrack?$AA@
  0005a	4c 8b cd	 mov	 r9, rbp
  0005d	41 b8 e3 02 00
	00		 mov	 r8d, 739		; 000002e3H
  00063	c7 44 24 20 10
	00 00 00	 mov	 DWORD PTR [rsp+32], 16
  0006b	e8 00 00 00 00	 call	 _PyParallel_Guard
  00070	85 c0		 test	 eax, eax
  00072	74 04		 je	 SHORT $LN23@PyDict_May
  00074	33 c9		 xor	 ecx, ecx
  00076	eb 04		 jmp	 SHORT $LN24@PyDict_May
$LN23@PyDict_May:
  00078	48 8d 4d e8	 lea	 rcx, QWORD PTR [rbp-24]
$LN24@PyDict_May:
  0007c	33 c0		 xor	 eax, eax
  0007e	48 83 79 10 fe	 cmp	 QWORD PTR [rcx+16], -2
  00083	0f 95 c0	 setne	 al
  00086	85 c0		 test	 eax, eax

; 740  :         return;

  00088	0f 84 48 04 00
	00		 je	 $LN1@PyDict_May

; 741  : 
; 742  :     mp = (PyDictObject *) op;
; 743  :     size = DK_SIZE(mp->ma_keys);
; 744  :     if (_PyDict_HasSplitTable(mp)) {

  0008e	48 83 7d 70 00	 cmp	 QWORD PTR [rbp+112], 0
  00093	48 89 5c 24 58	 mov	 QWORD PTR [rsp+88], rbx
  00098	48 89 74 24 60	 mov	 QWORD PTR [rsp+96], rsi
  0009d	48 89 7c 24 68	 mov	 QWORD PTR [rsp+104], rdi
  000a2	48 8b 7d 68	 mov	 rdi, QWORD PTR [rbp+104]
  000a6	4c 89 64 24 38	 mov	 QWORD PTR [rsp+56], r12
  000ab	4c 8b 67 08	 mov	 r12, QWORD PTR [rdi+8]
  000af	4c 89 6c 24 30	 mov	 QWORD PTR [rsp+48], r13
  000b4	0f 84 3c 01 00
	00		 je	 $LN17@PyDict_May

; 745  :         for (i = 0; i < size; i++) {

  000ba	33 ff		 xor	 edi, edi
  000bc	4d 85 e4	 test	 r12, r12
  000bf	0f 8e 7c 03 00
	00		 jle	 $LN8@PyDict_May
  000c5	4c 8d 2d 00 00
	00 00		 lea	 r13, OFFSET FLAT:PyTuple_Type
  000cc	0f 1f 40 00	 npad	 4
$LL16@PyDict_May:

; 746  :             if ((value = mp->ma_values[i]) == NULL)

  000d0	48 8b 45 70	 mov	 rax, QWORD PTR [rbp+112]
  000d4	48 8b 1c f8	 mov	 rbx, QWORD PTR [rax+rdi*8]
  000d8	48 85 db	 test	 rbx, rbx
  000db	0f 84 04 01 00
	00		 je	 $LN15@PyDict_May

; 747  :                 continue;
; 748  :             if (_PyObject_GC_MAY_BE_TRACKED(value)) {

  000e1	48 8d 15 00 00
	00 00		 lea	 rdx, OFFSET FLAT:??_C@_0BI@LNHGAPGK@?4?4?2Objects?2dictobject?4c?$AA@
  000e8	48 8d 0d 00 00
	00 00		 lea	 rcx, OFFSET FLAT:??_C@_0BF@OFCLJMII@_PyDict_MaybeUntrack?$AA@
  000ef	4c 8b cb	 mov	 r9, rbx
  000f2	41 b8 ec 02 00
	00		 mov	 r8d, 748		; 000002ecH
  000f8	c7 44 24 20 10
	00 00 00	 mov	 DWORD PTR [rsp+32], 16
  00100	e8 00 00 00 00	 call	 _PyParallel_Guard
  00105	85 c0		 test	 eax, eax
  00107	0f 85 d8 00 00
	00		 jne	 $LN15@PyDict_May
  0010d	48 8d 15 00 00
	00 00		 lea	 rdx, OFFSET FLAT:??_C@_0BI@LNHGAPGK@?4?4?2Objects?2dictobject?4c?$AA@
  00114	48 8d 0d 00 00
	00 00		 lea	 rcx, OFFSET FLAT:??_C@_0BF@OFCLJMII@_PyDict_MaybeUntrack?$AA@
  0011b	4c 8b cb	 mov	 r9, rbx
  0011e	41 b8 ec 02 00
	00		 mov	 r8d, 748		; 000002ecH
  00124	c7 44 24 20 10
	00 00 00	 mov	 DWORD PTR [rsp+32], 16
  0012c	e8 00 00 00 00	 call	 _PyParallel_Guard
  00131	85 c0		 test	 eax, eax
  00133	0f 85 ac 00 00
	00		 jne	 $LN15@PyDict_May
  00139	e8 00 00 00 00	 call	 _Py_PXCTX
  0013e	85 c0		 test	 eax, eax
  00140	0f 85 9f 00 00
	00		 jne	 $LN15@PyDict_May
  00146	48 8b 4b 58	 mov	 rcx, QWORD PTR [rbx+88]
  0014a	8b 81 00 01 00
	00		 mov	 eax, DWORD PTR [rcx+256]
  00150	c1 e8 0e	 shr	 eax, 14
  00153	83 e0 01	 and	 eax, 1
  00156	0f 84 89 00 00
	00		 je	 $LN15@PyDict_May
  0015c	48 8b 81 a0 01
	00 00		 mov	 rax, QWORD PTR [rcx+416]
  00163	48 85 c0	 test	 rax, rax
  00166	74 09		 je	 SHORT $LN83@PyDict_May
  00168	48 8b cb	 mov	 rcx, rbx
  0016b	ff d0		 call	 rax
  0016d	85 c0		 test	 eax, eax
  0016f	74 74		 je	 SHORT $LN15@PyDict_May
$LN83@PyDict_May:
  00171	4c 39 6b 58	 cmp	 QWORD PTR [rbx+88], r13
  00175	0f 85 42 03 00
	00		 jne	 $LN93@PyDict_May
  0017b	48 8d 15 00 00
	00 00		 lea	 rdx, OFFSET FLAT:??_C@_0BI@LNHGAPGK@?4?4?2Objects?2dictobject?4c?$AA@
  00182	48 8d 0d 00 00
	00 00		 lea	 rcx, OFFSET FLAT:??_C@_0BF@OFCLJMII@_PyDict_MaybeUntrack?$AA@
  00189	4c 8b cb	 mov	 r9, rbx
  0018c	41 b8 ec 02 00
	00		 mov	 r8d, 748		; 000002ecH
  00192	c7 44 24 20 10
	00 00 00	 mov	 DWORD PTR [rsp+32], 16
  0019a	e8 00 00 00 00	 call	 _PyParallel_Guard
  0019f	85 c0		 test	 eax, eax
  001a1	75 42		 jne	 SHORT $LN15@PyDict_May
  001a3	48 8d 15 00 00
	00 00		 lea	 rdx, OFFSET FLAT:??_C@_0BI@LNHGAPGK@?4?4?2Objects?2dictobject?4c?$AA@
  001aa	48 8d 0d 00 00
	00 00		 lea	 rcx, OFFSET FLAT:??_C@_0BF@OFCLJMII@_PyDict_MaybeUntrack?$AA@
  001b1	4c 8b cb	 mov	 r9, rbx
  001b4	41 b8 ec 02 00
	00		 mov	 r8d, 748		; 000002ecH
  001ba	c7 44 24 20 10
	00 00 00	 mov	 DWORD PTR [rsp+32], 16
  001c2	e8 00 00 00 00	 call	 _PyParallel_Guard
  001c7	85 c0		 test	 eax, eax
  001c9	74 04		 je	 SHORT $LN34@PyDict_May
  001cb	33 db		 xor	 ebx, ebx
  001cd	eb 04		 jmp	 SHORT $LN35@PyDict_May
$LN34@PyDict_May:
  001cf	48 83 c3 e8	 add	 rbx, -24
$LN35@PyDict_May:
  001d3	33 c0		 xor	 eax, eax
  001d5	48 83 7b 10 fe	 cmp	 QWORD PTR [rbx+16], -2
  001da	0f 95 c0	 setne	 al
  001dd	85 c0		 test	 eax, eax
  001df	0f 85 d8 02 00
	00		 jne	 $LN93@PyDict_May
$LN15@PyDict_May:

; 745  :         for (i = 0; i < size; i++) {

  001e5	48 ff c7	 inc	 rdi
  001e8	49 3b fc	 cmp	 rdi, r12
  001eb	0f 8c df fe ff
	ff		 jl	 $LL16@PyDict_May
  001f1	e9 4b 02 00 00	 jmp	 $LN8@PyDict_May
$LN17@PyDict_May:

; 757  :         for (i = 0; i < size; i++) {

  001f6	33 f6		 xor	 esi, esi
  001f8	4d 85 e4	 test	 r12, r12
  001fb	0f 8e 40 02 00
	00		 jle	 $LN8@PyDict_May

; 749  :                 assert(!_PyObject_GC_MAY_BE_TRACKED(
; 750  :                     mp->ma_keys->dk_entries[i].me_key));
; 751  :                 return;
; 752  :             }
; 753  :         }
; 754  :     }
; 755  :     else {
; 756  :         PyDictKeyEntry *ep0 = &mp->ma_keys->dk_entries[0];

  00201	48 83 c7 28	 add	 rdi, 40			; 00000028H
  00205	4c 8d 2d 00 00
	00 00		 lea	 r13, OFFSET FLAT:PyTuple_Type
  0020c	0f 1f 40 00	 npad	 4
$LL10@PyDict_May:

; 758  :             if ((value = ep0[i].me_value) == NULL)

  00210	48 8b 5f 08	 mov	 rbx, QWORD PTR [rdi+8]
  00214	48 85 db	 test	 rbx, rbx
  00217	0f 84 14 02 00
	00		 je	 $LN9@PyDict_May

; 759  :                 continue;
; 760  :             if (_PyObject_GC_MAY_BE_TRACKED(value) ||
; 761  :                 _PyObject_GC_MAY_BE_TRACKED(ep0[i].me_key))

  0021d	48 8d 15 00 00
	00 00		 lea	 rdx, OFFSET FLAT:??_C@_0BI@LNHGAPGK@?4?4?2Objects?2dictobject?4c?$AA@
  00224	48 8d 0d 00 00
	00 00		 lea	 rcx, OFFSET FLAT:??_C@_0BF@OFCLJMII@_PyDict_MaybeUntrack?$AA@
  0022b	4c 8b cb	 mov	 r9, rbx
  0022e	41 b8 f8 02 00
	00		 mov	 r8d, 760		; 000002f8H
  00234	c7 44 24 20 10
	00 00 00	 mov	 DWORD PTR [rsp+32], 16
  0023c	e8 00 00 00 00	 call	 _PyParallel_Guard
  00241	85 c0		 test	 eax, eax
  00243	0f 85 d8 00 00
	00		 jne	 $LN55@PyDict_May
  00249	48 8d 15 00 00
	00 00		 lea	 rdx, OFFSET FLAT:??_C@_0BI@LNHGAPGK@?4?4?2Objects?2dictobject?4c?$AA@
  00250	48 8d 0d 00 00
	00 00		 lea	 rcx, OFFSET FLAT:??_C@_0BF@OFCLJMII@_PyDict_MaybeUntrack?$AA@
  00257	4c 8b cb	 mov	 r9, rbx
  0025a	41 b8 f8 02 00
	00		 mov	 r8d, 760		; 000002f8H
  00260	c7 44 24 20 10
	00 00 00	 mov	 DWORD PTR [rsp+32], 16
  00268	e8 00 00 00 00	 call	 _PyParallel_Guard
  0026d	85 c0		 test	 eax, eax
  0026f	0f 85 ac 00 00
	00		 jne	 $LN55@PyDict_May
  00275	e8 00 00 00 00	 call	 _Py_PXCTX
  0027a	85 c0		 test	 eax, eax
  0027c	0f 85 9f 00 00
	00		 jne	 $LN55@PyDict_May
  00282	48 8b 4b 58	 mov	 rcx, QWORD PTR [rbx+88]
  00286	8b 81 00 01 00
	00		 mov	 eax, DWORD PTR [rcx+256]
  0028c	c1 e8 0e	 shr	 eax, 14
  0028f	83 e0 01	 and	 eax, 1
  00292	0f 84 89 00 00
	00		 je	 $LN55@PyDict_May
  00298	48 8b 81 a0 01
	00 00		 mov	 rax, QWORD PTR [rcx+416]
  0029f	48 85 c0	 test	 rax, rax
  002a2	74 09		 je	 SHORT $LN85@PyDict_May
  002a4	48 8b cb	 mov	 rcx, rbx
  002a7	ff d0		 call	 rax
  002a9	85 c0		 test	 eax, eax
  002ab	74 74		 je	 SHORT $LN55@PyDict_May
$LN85@PyDict_May:
  002ad	4c 39 6b 58	 cmp	 QWORD PTR [rbx+88], r13
  002b1	0f 85 06 02 00
	00		 jne	 $LN93@PyDict_May
  002b7	48 8d 15 00 00
	00 00		 lea	 rdx, OFFSET FLAT:??_C@_0BI@LNHGAPGK@?4?4?2Objects?2dictobject?4c?$AA@
  002be	48 8d 0d 00 00
	00 00		 lea	 rcx, OFFSET FLAT:??_C@_0BF@OFCLJMII@_PyDict_MaybeUntrack?$AA@
  002c5	4c 8b cb	 mov	 r9, rbx
  002c8	41 b8 f8 02 00
	00		 mov	 r8d, 760		; 000002f8H
  002ce	c7 44 24 20 10
	00 00 00	 mov	 DWORD PTR [rsp+32], 16
  002d6	e8 00 00 00 00	 call	 _PyParallel_Guard
  002db	85 c0		 test	 eax, eax
  002dd	75 42		 jne	 SHORT $LN55@PyDict_May
  002df	48 8d 15 00 00
	00 00		 lea	 rdx, OFFSET FLAT:??_C@_0BI@LNHGAPGK@?4?4?2Objects?2dictobject?4c?$AA@
  002e6	48 8d 0d 00 00
	00 00		 lea	 rcx, OFFSET FLAT:??_C@_0BF@OFCLJMII@_PyDict_MaybeUntrack?$AA@
  002ed	4c 8b cb	 mov	 r9, rbx
  002f0	41 b8 f8 02 00
	00		 mov	 r8d, 760		; 000002f8H
  002f6	c7 44 24 20 10
	00 00 00	 mov	 DWORD PTR [rsp+32], 16
  002fe	e8 00 00 00 00	 call	 _PyParallel_Guard
  00303	85 c0		 test	 eax, eax
  00305	74 04		 je	 SHORT $LN50@PyDict_May
  00307	33 db		 xor	 ebx, ebx
  00309	eb 04		 jmp	 SHORT $LN51@PyDict_May
$LN50@PyDict_May:
  0030b	48 83 c3 e8	 add	 rbx, -24
$LN51@PyDict_May:
  0030f	33 c0		 xor	 eax, eax
  00311	48 83 7b 10 fe	 cmp	 QWORD PTR [rbx+16], -2
  00316	0f 95 c0	 setne	 al
  00319	85 c0		 test	 eax, eax
  0031b	0f 85 9c 01 00
	00		 jne	 $LN93@PyDict_May
$LN55@PyDict_May:
  00321	4c 8b 0f	 mov	 r9, QWORD PTR [rdi]
  00324	48 8d 15 00 00
	00 00		 lea	 rdx, OFFSET FLAT:??_C@_0BI@LNHGAPGK@?4?4?2Objects?2dictobject?4c?$AA@
  0032b	48 8d 0d 00 00
	00 00		 lea	 rcx, OFFSET FLAT:??_C@_0BF@OFCLJMII@_PyDict_MaybeUntrack?$AA@
  00332	41 b8 f9 02 00
	00		 mov	 r8d, 761		; 000002f9H
  00338	c7 44 24 20 10
	00 00 00	 mov	 DWORD PTR [rsp+32], 16
  00340	e8 00 00 00 00	 call	 _PyParallel_Guard
  00345	85 c0		 test	 eax, eax
  00347	0f 85 e4 00 00
	00		 jne	 $LN9@PyDict_May
  0034d	4c 8b 0f	 mov	 r9, QWORD PTR [rdi]
  00350	48 8d 15 00 00
	00 00		 lea	 rdx, OFFSET FLAT:??_C@_0BI@LNHGAPGK@?4?4?2Objects?2dictobject?4c?$AA@
  00357	48 8d 0d 00 00
	00 00		 lea	 rcx, OFFSET FLAT:??_C@_0BF@OFCLJMII@_PyDict_MaybeUntrack?$AA@
  0035e	41 b8 f9 02 00
	00		 mov	 r8d, 761		; 000002f9H
  00364	c7 44 24 20 10
	00 00 00	 mov	 DWORD PTR [rsp+32], 16
  0036c	e8 00 00 00 00	 call	 _PyParallel_Guard
  00371	85 c0		 test	 eax, eax
  00373	0f 85 b8 00 00
	00		 jne	 $LN9@PyDict_May
  00379	e8 00 00 00 00	 call	 _Py_PXCTX
  0037e	85 c0		 test	 eax, eax
  00380	0f 85 ab 00 00
	00		 jne	 $LN9@PyDict_May
  00386	48 8b 07	 mov	 rax, QWORD PTR [rdi]
  00389	48 8b 48 58	 mov	 rcx, QWORD PTR [rax+88]
  0038d	8b 81 00 01 00
	00		 mov	 eax, DWORD PTR [rcx+256]
  00393	c1 e8 0e	 shr	 eax, 14
  00396	83 e0 01	 and	 eax, 1
  00399	0f 84 92 00 00
	00		 je	 $LN9@PyDict_May
  0039f	48 83 b9 a0 01
	00 00 00	 cmp	 QWORD PTR [rcx+416], 0
  003a7	74 11		 je	 SHORT $LN86@PyDict_May
  003a9	48 8b 0f	 mov	 rcx, QWORD PTR [rdi]
  003ac	48 8b 41 58	 mov	 rax, QWORD PTR [rcx+88]
  003b0	ff 90 a0 01 00
	00		 call	 QWORD PTR [rax+416]
  003b6	85 c0		 test	 eax, eax
  003b8	74 77		 je	 SHORT $LN9@PyDict_May
$LN86@PyDict_May:
  003ba	4c 8b 0f	 mov	 r9, QWORD PTR [rdi]
  003bd	4d 39 69 58	 cmp	 QWORD PTR [r9+88], r13
  003c1	0f 85 f6 00 00
	00		 jne	 $LN93@PyDict_May
  003c7	48 8d 15 00 00
	00 00		 lea	 rdx, OFFSET FLAT:??_C@_0BI@LNHGAPGK@?4?4?2Objects?2dictobject?4c?$AA@
  003ce	48 8d 0d 00 00
	00 00		 lea	 rcx, OFFSET FLAT:??_C@_0BF@OFCLJMII@_PyDict_MaybeUntrack?$AA@
  003d5	41 b8 f9 02 00
	00		 mov	 r8d, 761		; 000002f9H
  003db	c7 44 24 20 10
	00 00 00	 mov	 DWORD PTR [rsp+32], 16
  003e3	e8 00 00 00 00	 call	 _PyParallel_Guard
  003e8	85 c0		 test	 eax, eax
  003ea	75 45		 jne	 SHORT $LN9@PyDict_May
  003ec	4c 8b 0f	 mov	 r9, QWORD PTR [rdi]
  003ef	48 8d 15 00 00
	00 00		 lea	 rdx, OFFSET FLAT:??_C@_0BI@LNHGAPGK@?4?4?2Objects?2dictobject?4c?$AA@
  003f6	48 8d 0d 00 00
	00 00		 lea	 rcx, OFFSET FLAT:??_C@_0BF@OFCLJMII@_PyDict_MaybeUntrack?$AA@
  003fd	41 b8 f9 02 00
	00		 mov	 r8d, 761		; 000002f9H
  00403	c7 44 24 20 10
	00 00 00	 mov	 DWORD PTR [rsp+32], 16
  0040b	e8 00 00 00 00	 call	 _PyParallel_Guard
  00410	85 c0		 test	 eax, eax
  00412	74 04		 je	 SHORT $LN66@PyDict_May
  00414	33 c9		 xor	 ecx, ecx
  00416	eb 07		 jmp	 SHORT $LN67@PyDict_May
$LN66@PyDict_May:
  00418	48 8b 0f	 mov	 rcx, QWORD PTR [rdi]
  0041b	48 83 e9 18	 sub	 rcx, 24
$LN67@PyDict_May:
  0041f	33 c0		 xor	 eax, eax
  00421	48 83 79 10 fe	 cmp	 QWORD PTR [rcx+16], -2
  00426	0f 95 c0	 setne	 al
  00429	85 c0		 test	 eax, eax
  0042b	0f 85 8c 00 00
	00		 jne	 $LN93@PyDict_May
$LN9@PyDict_May:

; 757  :         for (i = 0; i < size; i++) {

  00431	48 ff c6	 inc	 rsi
  00434	48 83 c7 18	 add	 rdi, 24
  00438	49 3b f4	 cmp	 rsi, r12
  0043b	0f 8c cf fd ff
	ff		 jl	 $LL10@PyDict_May
$LN8@PyDict_May:

; 762  :                 return;
; 763  :         }
; 764  :     }
; 765  :     _PyObject_GC_UNTRACK(op);

  00441	48 8d 15 00 00
	00 00		 lea	 rdx, OFFSET FLAT:??_C@_0BI@LNHGAPGK@?4?4?2Objects?2dictobject?4c?$AA@
  00448	48 8d 0d 00 00
	00 00		 lea	 rcx, OFFSET FLAT:??_C@_0BF@OFCLJMII@_PyDict_MaybeUntrack?$AA@
  0044f	4c 8b cd	 mov	 r9, rbp
  00452	41 b8 fd 02 00
	00		 mov	 r8d, 765		; 000002fdH
  00458	c7 44 24 20 10
	00 00 00	 mov	 DWORD PTR [rsp+32], 16
  00460	e8 00 00 00 00	 call	 _PyParallel_Guard
  00465	85 c0		 test	 eax, eax
  00467	75 54		 jne	 SHORT $LN93@PyDict_May
  00469	48 8d 15 00 00
	00 00		 lea	 rdx, OFFSET FLAT:??_C@_0BI@LNHGAPGK@?4?4?2Objects?2dictobject?4c?$AA@
  00470	48 8d 0d 00 00
	00 00		 lea	 rcx, OFFSET FLAT:??_C@_0BF@OFCLJMII@_PyDict_MaybeUntrack?$AA@
  00477	4c 8b cd	 mov	 r9, rbp
  0047a	41 b8 fd 02 00
	00		 mov	 r8d, 765		; 000002fdH
  00480	c7 44 24 20 10
	00 00 00	 mov	 DWORD PTR [rsp+32], 16
  00488	e8 00 00 00 00	 call	 _PyParallel_Guard
  0048d	85 c0		 test	 eax, eax
  0048f	74 04		 je	 SHORT $LN75@PyDict_May
  00491	33 d2		 xor	 edx, edx
  00493	eb 04		 jmp	 SHORT $LN76@PyDict_May
$LN75@PyDict_May:
  00495	48 8d 55 e8	 lea	 rdx, QWORD PTR [rbp-24]
$LN76@PyDict_May:
  00499	48 8b 02	 mov	 rax, QWORD PTR [rdx]
  0049c	48 8b 4a 08	 mov	 rcx, QWORD PTR [rdx+8]
  004a0	48 c7 42 10 fe
	ff ff ff	 mov	 QWORD PTR [rdx+16], -2
  004a8	48 89 01	 mov	 QWORD PTR [rcx], rax
  004ab	48 8b 0a	 mov	 rcx, QWORD PTR [rdx]
  004ae	48 8b 42 08	 mov	 rax, QWORD PTR [rdx+8]
  004b2	48 89 41 08	 mov	 QWORD PTR [rcx+8], rax
  004b6	48 c7 02 00 00
	00 00		 mov	 QWORD PTR [rdx], 0
$LN93@PyDict_May:
  004bd	4c 8b 64 24 38	 mov	 r12, QWORD PTR [rsp+56]
  004c2	48 8b 7c 24 68	 mov	 rdi, QWORD PTR [rsp+104]
  004c7	48 8b 74 24 60	 mov	 rsi, QWORD PTR [rsp+96]
  004cc	48 8b 5c 24 58	 mov	 rbx, QWORD PTR [rsp+88]
  004d1	4c 8b 6c 24 30	 mov	 r13, QWORD PTR [rsp+48]
$LN1@PyDict_May:

; 766  : }

  004d6	48 83 c4 40	 add	 rsp, 64			; 00000040H
  004da	5d		 pop	 rbp
  004db	c3		 ret	 0
_PyDict_MaybeUntrack ENDP
_TEXT	ENDS
;	COMDAT pdata
pdata	SEGMENT
$pdata$find_empty_slot DD imagerel find_empty_slot
	DD	imagerel find_empty_slot+160
	DD	imagerel $unwind$find_empty_slot
pdata	ENDS
;	COMDAT xdata
xdata	SEGMENT
$unwind$find_empty_slot DD 020501H
	DD	013405H
; Function compile flags: /Ogtpy
xdata	ENDS
;	COMDAT find_empty_slot
_TEXT	SEGMENT
mp$ = 8
key$ = 16
hash$ = 24
value_addr$ = 32
find_empty_slot PROC					; COMDAT

; 774  : {

  00000	48 89 5c 24 08	 mov	 QWORD PTR [rsp+8], rbx

; 775  :     size_t i;
; 776  :     size_t perturb;
; 777  :     size_t mask = DK_MASK(mp->ma_keys);

  00005	4c 8b 59 68	 mov	 r11, QWORD PTR [rcx+104]

; 778  :     PyDictKeyEntry *ep0 = &mp->ma_keys->dk_entries[0];
; 779  :     PyDictKeyEntry *ep;
; 780  : 
; 781  :     assert(key != NULL);
; 782  :     if (!PyUnicode_CheckExact(key))

  00009	48 8d 05 00 00
	00 00		 lea	 rax, OFFSET FLAT:PyUnicode_Type
  00010	48 8b d9	 mov	 rbx, rcx
  00013	4d 8b 53 08	 mov	 r10, QWORD PTR [r11+8]
  00017	49 ff ca	 dec	 r10
  0001a	48 39 42 58	 cmp	 QWORD PTR [rdx+88], rax
  0001e	74 0b		 je	 SHORT $LN6@find_empty

; 783  :         mp->ma_keys->dk_lookup = lookdict;

  00020	48 8d 0d 00 00
	00 00		 lea	 rcx, OFFSET FLAT:lookdict
  00027	49 89 4b 10	 mov	 QWORD PTR [r11+16], rcx
$LN6@find_empty:

; 784  :     i = hash & mask;

  0002b	49 8b ca	 mov	 rcx, r10
  0002e	49 23 c8	 and	 rcx, r8

; 785  :     ep = &ep0[i];

  00031	48 8d 04 49	 lea	 rax, QWORD PTR [rcx+rcx*2]

; 786  :     for (perturb = hash; ep->me_key != NULL; perturb >>= PERTURB_SHIFT) {

  00035	49 83 7c c3 28
	00		 cmp	 QWORD PTR [r11+rax*8+40], 0
  0003b	49 8d 54 c3 20	 lea	 rdx, QWORD PTR [r11+rax*8+32]
  00040	74 32		 je	 SHORT $LN3@find_empty
  00042	66 66 66 66 66
	66 0f 1f 84 00
	00 00 00 00	 npad	 14
$LL5@find_empty:

; 787  :         i = (i << 2) + i + perturb + 1;

  00050	49 8d 04 88	 lea	 rax, QWORD PTR [r8+rcx*4]
  00054	49 c1 e8 05	 shr	 r8, 5
  00058	48 8d 4c 01 01	 lea	 rcx, QWORD PTR [rcx+rax+1]

; 788  :         ep = &ep0[i & mask];

  0005d	48 8b c1	 mov	 rax, rcx
  00060	49 23 c2	 and	 rax, r10
  00063	48 8d 04 40	 lea	 rax, QWORD PTR [rax+rax*2]
  00067	49 83 7c c3 28
	00		 cmp	 QWORD PTR [r11+rax*8+40], 0
  0006d	49 8d 54 c3 20	 lea	 rdx, QWORD PTR [r11+rax*8+32]
  00072	75 dc		 jne	 SHORT $LL5@find_empty
$LN3@find_empty:

; 789  :     }
; 790  :     assert(ep->me_value == NULL);
; 791  :     if (mp->ma_values)

  00074	48 8b 43 70	 mov	 rax, QWORD PTR [rbx+112]
  00078	48 85 c0	 test	 rax, rax
  0007b	74 13		 je	 SHORT $LN2@find_empty

; 792  :         *value_addr = &mp->ma_values[i & mask];

  0007d	49 23 ca	 and	 rcx, r10
  00080	48 8d 0c c8	 lea	 rcx, QWORD PTR [rax+rcx*8]

; 793  :     else
; 794  :         *value_addr = &ep->me_value;
; 795  :     return ep;

  00084	48 8b c2	 mov	 rax, rdx
  00087	49 89 09	 mov	 QWORD PTR [r9], rcx

; 796  : }

  0008a	48 8b 5c 24 08	 mov	 rbx, QWORD PTR [rsp+8]
  0008f	c3		 ret	 0
$LN2@find_empty:
  00090	48 8b 5c 24 08	 mov	 rbx, QWORD PTR [rsp+8]
  00095	48 8d 42 10	 lea	 rax, QWORD PTR [rdx+16]
  00099	49 89 01	 mov	 QWORD PTR [r9], rax
  0009c	48 8b c2	 mov	 rax, rdx
  0009f	c3		 ret	 0
find_empty_slot ENDP
_TEXT	ENDS
;	COMDAT pdata
pdata	SEGMENT
$pdata$insertdict_clean DD imagerel insertdict_clean
	DD	imagerel insertdict_clean+122
	DD	imagerel $unwind$insertdict_clean
pdata	ENDS
;	COMDAT xdata
xdata	SEGMENT
$unwind$insertdict_clean DD 040a01H
	DD	02740aH
	DD	013405H
; Function compile flags: /Ogtpy
xdata	ENDS
;	COMDAT insertdict_clean
_TEXT	SEGMENT
mp$ = 8
key$ = 16
hash$ = 24
value$ = 32
insertdict_clean PROC					; COMDAT

; 886  : {

  00000	48 89 5c 24 08	 mov	 QWORD PTR [rsp+8], rbx
  00005	48 89 7c 24 10	 mov	 QWORD PTR [rsp+16], rdi
  0000a	48 8b fa	 mov	 rdi, rdx

; 887  :     size_t i;
; 888  :     size_t perturb;
; 889  :     PyDictKeysObject *k = mp->ma_keys;

  0000d	48 8b 51 68	 mov	 rdx, QWORD PTR [rcx+104]
  00011	49 8b d9	 mov	 rbx, r9

; 890  :     size_t mask = (size_t)DK_SIZE(k)-1;

  00014	4c 8b 5a 08	 mov	 r11, QWORD PTR [rdx+8]
  00018	4d 8b c8	 mov	 r9, r8
  0001b	49 ff cb	 dec	 r11

; 891  :     PyDictKeyEntry *ep0 = &k->dk_entries[0];
; 892  :     PyDictKeyEntry *ep;
; 893  : 
; 894  :     assert(k->dk_lookup != NULL);
; 895  :     assert(value != NULL);
; 896  :     assert(key != NULL);
; 897  :     assert(key != dummy);
; 898  :     assert(PyUnicode_CheckExact(key) || k->dk_lookup == lookdict);
; 899  :     i = hash & mask;

  0001e	4d 8b d3	 mov	 r10, r11
  00021	4d 23 d0	 and	 r10, r8

; 900  :     ep = &ep0[i];

  00024	4b 8d 04 52	 lea	 rax, QWORD PTR [r10+r10*2]

; 901  :     for (perturb = hash; ep->me_key != NULL; perturb >>= PERTURB_SHIFT) {

  00028	48 83 7c c2 28
	00		 cmp	 QWORD PTR [rdx+rax*8+40], 0
  0002e	48 8d 4c c2 20	 lea	 rcx, QWORD PTR [rdx+rax*8+32]
  00033	74 2f		 je	 SHORT $LN1@insertdict
  00035	66 66 66 0f 1f
	84 00 00 00 00
	00		 npad	 11
$LL3@insertdict:

; 902  :         i = (i << 2) + i + perturb + 1;

  00040	4b 8d 04 90	 lea	 rax, QWORD PTR [r8+r10*4]
  00044	49 c1 e8 05	 shr	 r8, 5
  00048	4d 8d 54 02 01	 lea	 r10, QWORD PTR [r10+rax+1]

; 903  :         ep = &ep0[i & mask];

  0004d	49 8b c2	 mov	 rax, r10
  00050	49 23 c3	 and	 rax, r11
  00053	48 8d 04 40	 lea	 rax, QWORD PTR [rax+rax*2]
  00057	48 83 7c c2 28
	00		 cmp	 QWORD PTR [rdx+rax*8+40], 0
  0005d	48 8d 4c c2 20	 lea	 rcx, QWORD PTR [rdx+rax*8+32]
  00062	75 dc		 jne	 SHORT $LL3@insertdict
$LN1@insertdict:

; 904  :     }
; 905  :     assert(ep->me_value == NULL);
; 906  :     ep->me_key = key;

  00064	48 89 79 08	 mov	 QWORD PTR [rcx+8], rdi

; 907  :     ep->me_hash = hash;
; 908  :     ep->me_value = value;
; 909  : }

  00068	48 8b 7c 24 10	 mov	 rdi, QWORD PTR [rsp+16]
  0006d	48 89 59 10	 mov	 QWORD PTR [rcx+16], rbx
  00071	48 8b 5c 24 08	 mov	 rbx, QWORD PTR [rsp+8]
  00076	4c 89 09	 mov	 QWORD PTR [rcx], r9
  00079	c3		 ret	 0
insertdict_clean ENDP
_TEXT	ENDS
PUBLIC	PyDict_GetItem
EXTRN	PyErr_Clear:PROC
EXTRN	PyErr_Restore:PROC
EXTRN	PyErr_Fetch:PROC
EXTRN	_PyThreadState_Current:QWORD
EXTRN	PyObject_Hash:PROC
;	COMDAT pdata
pdata	SEGMENT
$pdata$PyDict_GetItem DD imagerel $LN13
	DD	imagerel $LN13+45
	DD	imagerel $unwind$PyDict_GetItem
pdata	ENDS
;	COMDAT pdata
pdata	SEGMENT
$pdata$0$PyDict_GetItem DD imagerel $LN13+45
	DD	imagerel $LN13+190
	DD	imagerel $chain$0$PyDict_GetItem
pdata	ENDS
;	COMDAT pdata
pdata	SEGMENT
$pdata$2$PyDict_GetItem DD imagerel $LN13+190
	DD	imagerel $LN13+235
	DD	imagerel $chain$2$PyDict_GetItem
pdata	ENDS
;	COMDAT pdata
pdata	SEGMENT
$pdata$4$PyDict_GetItem DD imagerel $LN13+235
	DD	imagerel $LN13+255
	DD	imagerel $chain$4$PyDict_GetItem
pdata	ENDS
;	COMDAT xdata
xdata	SEGMENT
$chain$4$PyDict_GetItem DD 020021H
	DD	063400H
	DD	imagerel $LN13
	DD	imagerel $LN13+45
	DD	imagerel $unwind$PyDict_GetItem
xdata	ENDS
;	COMDAT xdata
xdata	SEGMENT
$chain$2$PyDict_GetItem DD 020021H
	DD	063400H
	DD	imagerel $LN13
	DD	imagerel $LN13+45
	DD	imagerel $unwind$PyDict_GetItem
xdata	ENDS
;	COMDAT xdata
xdata	SEGMENT
$chain$0$PyDict_GetItem DD 020521H
	DD	063405H
	DD	imagerel $LN13
	DD	imagerel $LN13+45
	DD	imagerel $unwind$PyDict_GetItem
xdata	ENDS
;	COMDAT xdata
xdata	SEGMENT
$unwind$PyDict_GetItem DD 030701H
	DD	070036207H
	DD	06002H
; Function compile flags: /Ogtpy
xdata	ENDS
;	COMDAT PyDict_GetItem
_TEXT	SEGMENT
err_type$20971 = 32
value_addr$ = 80
op$ = 80
key$ = 88
err_tb$20973 = 96
err_value$20972 = 104
PyDict_GetItem PROC					; COMDAT

; 1080 : {

$LN13:
  00000	40 56		 push	 rsi
  00002	57		 push	 rdi
  00003	48 83 ec 38	 sub	 rsp, 56			; 00000038H

; 1081 :     Py_hash_t hash;
; 1082 :     PyDictObject *mp = (PyDictObject *)op;
; 1083 :     PyDictKeyEntry *ep;
; 1084 :     PyThreadState *tstate;
; 1085 :     PyObject **value_addr;
; 1086 : 
; 1087 :     if (!PyDict_Check(op))

  00007	48 8b 41 58	 mov	 rax, QWORD PTR [rcx+88]
  0000b	48 8b fa	 mov	 rdi, rdx
  0000e	48 8b f1	 mov	 rsi, rcx
  00011	f7 80 00 01 00
	00 00 00 00 20	 test	 DWORD PTR [rax+256], 536870912 ; 20000000H
  0001b	75 09		 jne	 SHORT $LN8@PyDict_Get

; 1088 :         return NULL;

  0001d	33 c0		 xor	 eax, eax

; 1125 : }

  0001f	48 83 c4 38	 add	 rsp, 56			; 00000038H
  00023	5f		 pop	 rdi
  00024	5e		 pop	 rsi
  00025	c3		 ret	 0
$LN8@PyDict_Get:

; 1089 : 
; 1090 :     if (!PyUnicode_CheckExact(key) ||
; 1091 :         (hash = ((PyASCIIObject *) key)->hash) == -1)

  00026	48 8d 05 00 00
	00 00		 lea	 rax, OFFSET FLAT:PyUnicode_Type
  0002d	48 89 5c 24 30	 mov	 QWORD PTR [rsp+48], rbx
  00032	48 39 42 58	 cmp	 QWORD PTR [rdx+88], rax
  00036	75 0a		 jne	 SHORT $LN6@PyDict_Get
  00038	48 8b 5a 68	 mov	 rbx, QWORD PTR [rdx+104]
  0003c	48 83 fb ff	 cmp	 rbx, -1
  00040	75 15		 jne	 SHORT $LN5@PyDict_Get
$LN6@PyDict_Get:

; 1092 :     {
; 1093 :         hash = PyObject_Hash(key);

  00042	48 8b ca	 mov	 rcx, rdx
  00045	e8 00 00 00 00	 call	 PyObject_Hash
  0004a	48 8b d8	 mov	 rbx, rax

; 1094 :         if (hash == -1) {

  0004d	48 83 f8 ff	 cmp	 rax, -1

; 1095 :             PyErr_Clear();
; 1096 :             return NULL;

  00051	0f 84 81 00 00
	00		 je	 $LN12@PyDict_Get
$LN5@PyDict_Get:

; 1097 :         }
; 1098 :     }
; 1099 : 
; 1100 :     /* We can arrive here with a NULL tstate during initialization: try
; 1101 :        running "python -Wi" for an example related to string interning.
; 1102 :        Let's just hope that no exception occurs then...  This must be
; 1103 :        _PyThreadState_Current and not PyThreadState_GET() because in debug
; 1104 :        mode, the latter complains if tstate is NULL. */
; 1105 :     tstate = (PyThreadState*)_Py_atomic_load_relaxed(
; 1106 :         &_PyThreadState_Current);

  00057	48 8b 05 00 00
	00 00		 mov	 rax, QWORD PTR _PyThreadState_Current

; 1107 :     if (tstate != NULL && tstate->curexc_type != NULL) {

  0005e	48 85 c0	 test	 rax, rax
  00061	74 5b		 je	 SHORT $LN4@PyDict_Get
  00063	48 83 78 48 00	 cmp	 QWORD PTR [rax+72], 0
  00068	74 54		 je	 SHORT $LN4@PyDict_Get

; 1108 :         /* preserve the existing exception */
; 1109 :         PyObject *err_type, *err_value, *err_tb;
; 1110 :         PyErr_Fetch(&err_type, &err_value, &err_tb);

  0006a	4c 8d 44 24 60	 lea	 r8, QWORD PTR err_tb$20973[rsp]
  0006f	48 8d 54 24 68	 lea	 rdx, QWORD PTR err_value$20972[rsp]
  00074	48 8d 4c 24 20	 lea	 rcx, QWORD PTR err_type$20971[rsp]
  00079	e8 00 00 00 00	 call	 PyErr_Fetch

; 1111 :         ep = (mp->ma_keys->dk_lookup)(mp, key, hash, &value_addr);

  0007e	4c 8b 5e 68	 mov	 r11, QWORD PTR [rsi+104]
  00082	4c 8d 4c 24 50	 lea	 r9, QWORD PTR value_addr$[rsp]
  00087	4c 8b c3	 mov	 r8, rbx
  0008a	48 8b d7	 mov	 rdx, rdi
  0008d	48 8b ce	 mov	 rcx, rsi
  00090	41 ff 53 10	 call	 QWORD PTR [r11+16]

; 1112 :         /* ignore errors */
; 1113 :         PyErr_Restore(err_type, err_value, err_tb);

  00094	4c 8b 44 24 60	 mov	 r8, QWORD PTR err_tb$20973[rsp]
  00099	48 8b 54 24 68	 mov	 rdx, QWORD PTR err_value$20972[rsp]
  0009e	48 8b 4c 24 20	 mov	 rcx, QWORD PTR err_type$20971[rsp]
  000a3	48 8b d8	 mov	 rbx, rax
  000a6	e8 00 00 00 00	 call	 PyErr_Restore

; 1114 :         if (ep == NULL)

  000ab	48 85 db	 test	 rbx, rbx
  000ae	75 3b		 jne	 SHORT $LN1@PyDict_Get

; 1115 :             return NULL;

  000b0	33 c0		 xor	 eax, eax
  000b2	48 8b 5c 24 30	 mov	 rbx, QWORD PTR [rsp+48]

; 1125 : }

  000b7	48 83 c4 38	 add	 rsp, 56			; 00000038H
  000bb	5f		 pop	 rdi
  000bc	5e		 pop	 rsi
  000bd	c3		 ret	 0
$LN4@PyDict_Get:

; 1116 :     }
; 1117 :     else {
; 1118 :         ep = (mp->ma_keys->dk_lookup)(mp, key, hash, &value_addr);

  000be	48 8b 46 68	 mov	 rax, QWORD PTR [rsi+104]
  000c2	4c 8d 4c 24 50	 lea	 r9, QWORD PTR value_addr$[rsp]
  000c7	4c 8b c3	 mov	 r8, rbx
  000ca	48 8b d7	 mov	 rdx, rdi
  000cd	48 8b ce	 mov	 rcx, rsi
  000d0	ff 50 10	 call	 QWORD PTR [rax+16]

; 1119 :         if (ep == NULL) {

  000d3	48 85 c0	 test	 rax, rax
  000d6	75 13		 jne	 SHORT $LN1@PyDict_Get
$LN12@PyDict_Get:

; 1120 :             PyErr_Clear();

  000d8	e8 00 00 00 00	 call	 PyErr_Clear
  000dd	48 8b 5c 24 30	 mov	 rbx, QWORD PTR [rsp+48]

; 1121 :             return NULL;

  000e2	33 c0		 xor	 eax, eax

; 1125 : }

  000e4	48 83 c4 38	 add	 rsp, 56			; 00000038H
  000e8	5f		 pop	 rdi
  000e9	5e		 pop	 rsi
  000ea	c3		 ret	 0
$LN1@PyDict_Get:

; 1122 :         }
; 1123 :     }
; 1124 :     return *value_addr;

  000eb	48 8b 44 24 50	 mov	 rax, QWORD PTR value_addr$[rsp]
  000f0	48 8b 5c 24 30	 mov	 rbx, QWORD PTR [rsp+48]
  000f5	48 8b 00	 mov	 rax, QWORD PTR [rax]

; 1125 : }

  000f8	48 83 c4 38	 add	 rsp, 56			; 00000038H
  000fc	5f		 pop	 rdi
  000fd	5e		 pop	 rsi
  000fe	c3		 ret	 0
PyDict_GetItem ENDP
_TEXT	ENDS
PUBLIC	PyDict_GetItemWithError
EXTRN	_PyErr_BadInternalCall:PROC
;	COMDAT pdata
pdata	SEGMENT
$pdata$PyDict_GetItemWithError DD imagerel $LN9
	DD	imagerel $LN9+144
	DD	imagerel $unwind$PyDict_GetItemWithError
pdata	ENDS
;	COMDAT xdata
xdata	SEGMENT
$unwind$PyDict_GetItemWithError DD 040a01H
	DD	07340aH
	DD	07006320aH
; Function compile flags: /Ogtpy
xdata	ENDS
;	COMDAT PyDict_GetItemWithError
_TEXT	SEGMENT
value_addr$ = 48
op$ = 48
key$ = 56
PyDict_GetItemWithError PROC				; COMDAT

; 1133 : {

$LN9:
  00000	48 89 5c 24 10	 mov	 QWORD PTR [rsp+16], rbx
  00005	57		 push	 rdi
  00006	48 83 ec 20	 sub	 rsp, 32			; 00000020H

; 1134 :     Py_hash_t hash;
; 1135 :     PyDictObject*mp = (PyDictObject *)op;
; 1136 :     PyDictKeyEntry *ep;
; 1137 :     PyObject **value_addr;
; 1138 : 
; 1139 :     if (!PyDict_Check(op)) {

  0000a	48 8b 41 58	 mov	 rax, QWORD PTR [rcx+88]
  0000e	48 8b da	 mov	 rbx, rdx
  00011	48 8b f9	 mov	 rdi, rcx
  00014	f7 80 00 01 00
	00 00 00 00 20	 test	 DWORD PTR [rax+256], 536870912 ; 20000000H
  0001e	75 1e		 jne	 SHORT $LN5@PyDict_Get@2

; 1140 :         PyErr_BadInternalCall();

  00020	48 8d 0d 00 00
	00 00		 lea	 rcx, OFFSET FLAT:??_C@_0BI@LNHGAPGK@?4?4?2Objects?2dictobject?4c?$AA@
  00027	ba 74 04 00 00	 mov	 edx, 1140		; 00000474H
  0002c	e8 00 00 00 00	 call	 _PyErr_BadInternalCall
$LN8@PyDict_Get@2:

; 1141 :         return NULL;

  00031	33 c0		 xor	 eax, eax

; 1157 : }

  00033	48 8b 5c 24 38	 mov	 rbx, QWORD PTR [rsp+56]
  00038	48 83 c4 20	 add	 rsp, 32			; 00000020H
  0003c	5f		 pop	 rdi
  0003d	c3		 ret	 0
$LN5@PyDict_Get@2:

; 1142 :     }
; 1143 : 
; 1144 :     if (!PyUnicode_CheckExact(key) ||
; 1145 :         (hash = ((PyASCIIObject *) key)->hash) == -1)

  0003e	48 8d 05 00 00
	00 00		 lea	 rax, OFFSET FLAT:PyUnicode_Type
  00045	48 39 42 58	 cmp	 QWORD PTR [rdx+88], rax
  00049	75 0a		 jne	 SHORT $LN3@PyDict_Get@2
  0004b	4c 8b 42 68	 mov	 r8, QWORD PTR [rdx+104]
  0004f	49 83 f8 ff	 cmp	 r8, -1
  00053	75 11		 jne	 SHORT $LN2@PyDict_Get@2
$LN3@PyDict_Get@2:

; 1146 :     {
; 1147 :         hash = PyObject_Hash(key);

  00055	48 8b ca	 mov	 rcx, rdx
  00058	e8 00 00 00 00	 call	 PyObject_Hash
  0005d	4c 8b c0	 mov	 r8, rax

; 1148 :         if (hash == -1) {

  00060	48 83 f8 ff	 cmp	 rax, -1

; 1149 :             return NULL;

  00064	74 cb		 je	 SHORT $LN8@PyDict_Get@2
$LN2@PyDict_Get@2:

; 1150 :         }
; 1151 :     }
; 1152 : 
; 1153 :     ep = (mp->ma_keys->dk_lookup)(mp, key, hash, &value_addr);

  00066	48 8b 47 68	 mov	 rax, QWORD PTR [rdi+104]
  0006a	4c 8d 4c 24 30	 lea	 r9, QWORD PTR value_addr$[rsp]
  0006f	48 8b d3	 mov	 rdx, rbx
  00072	48 8b cf	 mov	 rcx, rdi
  00075	ff 50 10	 call	 QWORD PTR [rax+16]

; 1154 :     if (ep == NULL)

  00078	48 85 c0	 test	 rax, rax

; 1155 :         return NULL;

  0007b	74 b4		 je	 SHORT $LN8@PyDict_Get@2

; 1156 :     return *value_addr;

  0007d	48 8b 44 24 30	 mov	 rax, QWORD PTR value_addr$[rsp]

; 1157 : }

  00082	48 8b 5c 24 38	 mov	 rbx, QWORD PTR [rsp+56]
  00087	48 8b 00	 mov	 rax, QWORD PTR [rax]
  0008a	48 83 c4 20	 add	 rsp, 32			; 00000020H
  0008e	5f		 pop	 rdi
  0008f	c3		 ret	 0
PyDict_GetItemWithError ENDP
_TEXT	ENDS
PUBLIC	_PyDict_GetItemIdWithError
EXTRN	_PyUnicode_FromId:PROC
;	COMDAT pdata
pdata	SEGMENT
$pdata$_PyDict_GetItemIdWithError DD imagerel $LN4
	DD	imagerel $LN4+44
	DD	imagerel $unwind$_PyDict_GetItemIdWithError
pdata	ENDS
;	COMDAT xdata
xdata	SEGMENT
$unwind$_PyDict_GetItemIdWithError DD 020601H
	DD	030023206H
; Function compile flags: /Ogtpy
xdata	ENDS
;	COMDAT _PyDict_GetItemIdWithError
_TEXT	SEGMENT
dp$ = 48
key$ = 56
_PyDict_GetItemIdWithError PROC				; COMDAT

; 1161 : {

$LN4:
  00000	40 53		 push	 rbx
  00002	48 83 ec 20	 sub	 rsp, 32			; 00000020H
  00006	48 8b d9	 mov	 rbx, rcx

; 1162 :     PyObject *kv;
; 1163 :     kv = _PyUnicode_FromId(key); /* borrowed */

  00009	48 8b ca	 mov	 rcx, rdx
  0000c	e8 00 00 00 00	 call	 _PyUnicode_FromId

; 1164 :     if (kv == NULL)

  00011	48 85 c0	 test	 rax, rax
  00014	75 06		 jne	 SHORT $LN1@PyDict_Get@3

; 1167 : }

  00016	48 83 c4 20	 add	 rsp, 32			; 00000020H
  0001a	5b		 pop	 rbx
  0001b	c3		 ret	 0
$LN1@PyDict_Get@3:

; 1165 :         return NULL;
; 1166 :     return PyDict_GetItemWithError(dp, kv);

  0001c	48 8b d0	 mov	 rdx, rax
  0001f	48 8b cb	 mov	 rcx, rbx

; 1167 : }

  00022	48 83 c4 20	 add	 rsp, 32			; 00000020H
  00026	5b		 pop	 rbx
  00027	e9 00 00 00 00	 jmp	 PyDict_GetItemWithError
_PyDict_GetItemIdWithError ENDP
_TEXT	ENDS
PUBLIC	_PyDict_LoadGlobal
EXTRN	PyErr_Occurred:PROC
;	COMDAT pdata
pdata	SEGMENT
$pdata$_PyDict_LoadGlobal DD imagerel $LN11
	DD	imagerel $LN11+198
	DD	imagerel $unwind$_PyDict_LoadGlobal
pdata	ENDS
;	COMDAT xdata
xdata	SEGMENT
$unwind$_PyDict_LoadGlobal DD 060f01H
	DD	07640fH
	DD	06340fH
	DD	0700b320fH
; Function compile flags: /Ogtpy
xdata	ENDS
;	COMDAT _PyDict_LoadGlobal
_TEXT	SEGMENT
globals$ = 48
builtins$ = 56
value_addr$21022 = 64
key$ = 64
_PyDict_LoadGlobal PROC					; COMDAT

; 1174 : {

$LN11:
  00000	48 89 5c 24 08	 mov	 QWORD PTR [rsp+8], rbx
  00005	48 89 74 24 10	 mov	 QWORD PTR [rsp+16], rsi
  0000a	57		 push	 rdi
  0000b	48 83 ec 20	 sub	 rsp, 32			; 00000020H

; 1175 :     PyObject *x;
; 1176 :     if (PyUnicode_CheckExact(key)) {

  0000f	48 8d 05 00 00
	00 00		 lea	 rax, OFFSET FLAT:PyUnicode_Type
  00016	49 8b d8	 mov	 rbx, r8
  00019	48 8b f2	 mov	 rsi, rdx
  0001c	49 39 40 58	 cmp	 QWORD PTR [r8+88], rax
  00020	75 72		 jne	 SHORT $LN6@PyDict_Loa

; 1177 :         PyObject **value_addr;
; 1178 :         Py_hash_t hash = ((PyASCIIObject *)key)->hash;

  00022	49 8b 78 68	 mov	 rdi, QWORD PTR [r8+104]

; 1179 :         if (hash != -1) {

  00026	48 83 ff ff	 cmp	 rdi, -1
  0002a	74 68		 je	 SHORT $LN6@PyDict_Loa

; 1180 :             PyDictKeyEntry *e;
; 1181 :             e = globals->ma_keys->dk_lookup(globals, key, hash, &value_addr);

  0002c	48 8b 41 68	 mov	 rax, QWORD PTR [rcx+104]
  00030	4c 8d 4c 24 40	 lea	 r9, QWORD PTR value_addr$21022[rsp]
  00035	4c 8b c7	 mov	 r8, rdi
  00038	48 8b d3	 mov	 rdx, rbx
  0003b	ff 50 10	 call	 QWORD PTR [rax+16]

; 1182 :             if (e == NULL) {

  0003e	48 85 c0	 test	 rax, rax
  00041	75 12		 jne	 SHORT $LN5@PyDict_Loa
$LN10@PyDict_Loa:

; 1183 :                 return NULL;

  00043	33 c0		 xor	 eax, eax

; 1202 : }

  00045	48 8b 5c 24 30	 mov	 rbx, QWORD PTR [rsp+48]
  0004a	48 8b 74 24 38	 mov	 rsi, QWORD PTR [rsp+56]
  0004f	48 83 c4 20	 add	 rsp, 32			; 00000020H
  00053	5f		 pop	 rdi
  00054	c3		 ret	 0
$LN5@PyDict_Loa:

; 1184 :             }
; 1185 :             x = *value_addr;

  00055	48 8b 44 24 40	 mov	 rax, QWORD PTR value_addr$21022[rsp]
  0005a	48 8b 00	 mov	 rax, QWORD PTR [rax]

; 1186 :             if (x != NULL)

  0005d	48 85 c0	 test	 rax, rax

; 1187 :                 return x;

  00060	75 54		 jne	 SHORT $LN8@PyDict_Loa

; 1188 :             e = builtins->ma_keys->dk_lookup(builtins, key, hash, &value_addr);

  00062	48 8b 46 68	 mov	 rax, QWORD PTR [rsi+104]
  00066	4c 8d 4c 24 40	 lea	 r9, QWORD PTR value_addr$21022[rsp]
  0006b	4c 8b c7	 mov	 r8, rdi
  0006e	48 8b d3	 mov	 rdx, rbx
  00071	48 8b ce	 mov	 rcx, rsi
  00074	ff 50 10	 call	 QWORD PTR [rax+16]

; 1189 :             if (e == NULL) {

  00077	48 85 c0	 test	 rax, rax

; 1190 :                 return NULL;

  0007a	74 c7		 je	 SHORT $LN10@PyDict_Loa

; 1191 :             }
; 1192 :             x = *value_addr;
; 1193 :             return x;

  0007c	48 8b 44 24 40	 mov	 rax, QWORD PTR value_addr$21022[rsp]
  00081	48 8b 00	 mov	 rax, QWORD PTR [rax]

; 1202 : }

  00084	48 8b 5c 24 30	 mov	 rbx, QWORD PTR [rsp+48]
  00089	48 8b 74 24 38	 mov	 rsi, QWORD PTR [rsp+56]
  0008e	48 83 c4 20	 add	 rsp, 32			; 00000020H
  00092	5f		 pop	 rdi
  00093	c3		 ret	 0
$LN6@PyDict_Loa:

; 1194 :         }
; 1195 :     }
; 1196 :     x = PyDict_GetItemWithError((PyObject *)globals, key);

  00094	48 8b d3	 mov	 rdx, rbx
  00097	e8 00 00 00 00	 call	 PyDict_GetItemWithError

; 1197 :     if (x != NULL)

  0009c	48 85 c0	 test	 rax, rax

; 1198 :         return x;

  0009f	75 15		 jne	 SHORT $LN8@PyDict_Loa

; 1199 :     if (PyErr_Occurred())

  000a1	e8 00 00 00 00	 call	 PyErr_Occurred
  000a6	48 85 c0	 test	 rax, rax

; 1200 :         return NULL;

  000a9	75 98		 jne	 SHORT $LN10@PyDict_Loa

; 1201 :     return PyDict_GetItemWithError((PyObject *)builtins, key);

  000ab	48 8b d3	 mov	 rdx, rbx
  000ae	48 8b ce	 mov	 rcx, rsi
  000b1	e8 00 00 00 00	 call	 PyDict_GetItemWithError
$LN8@PyDict_Loa:

; 1202 : }

  000b6	48 8b 5c 24 30	 mov	 rbx, QWORD PTR [rsp+48]
  000bb	48 8b 74 24 38	 mov	 rsi, QWORD PTR [rsp+56]
  000c0	48 83 c4 20	 add	 rsp, 32			; 00000020H
  000c4	5f		 pop	 rdi
  000c5	c3		 ret	 0
_PyDict_LoadGlobal ENDP
_TEXT	ENDS
PUBLIC	PyDict_DelItem
;	COMDAT pdata
; File c:\src\pyparallel\include\object.h
pdata	SEGMENT
$pdata$PyDict_DelItem DD imagerel $LN18
	DD	imagerel $LN18+118
	DD	imagerel $unwind$PyDict_DelItem
pdata	ENDS
;	COMDAT pdata
pdata	SEGMENT
$pdata$0$PyDict_DelItem DD imagerel $LN18+118
	DD	imagerel $LN18+172
	DD	imagerel $chain$0$PyDict_DelItem
pdata	ENDS
;	COMDAT pdata
pdata	SEGMENT
$pdata$2$PyDict_DelItem DD imagerel $LN18+172
	DD	imagerel $LN18+204
	DD	imagerel $chain$2$PyDict_DelItem
pdata	ENDS
;	COMDAT pdata
pdata	SEGMENT
$pdata$3$PyDict_DelItem DD imagerel $LN18+204
	DD	imagerel $LN18+319
	DD	imagerel $chain$3$PyDict_DelItem
pdata	ENDS
;	COMDAT pdata
pdata	SEGMENT
$pdata$4$PyDict_DelItem DD imagerel $LN18+319
	DD	imagerel $LN18+345
	DD	imagerel $chain$4$PyDict_DelItem
pdata	ENDS
;	COMDAT xdata
xdata	SEGMENT
$chain$4$PyDict_DelItem DD 021H
	DD	imagerel $LN18+172
	DD	imagerel $LN18+204
	DD	imagerel $chain$2$PyDict_DelItem
xdata	ENDS
;	COMDAT xdata
xdata	SEGMENT
$chain$3$PyDict_DelItem DD 020521H
	DD	095405H
	DD	imagerel $LN18+172
	DD	imagerel $LN18+204
	DD	imagerel $chain$2$PyDict_DelItem
xdata	ENDS
;	COMDAT xdata
xdata	SEGMENT
$chain$2$PyDict_DelItem DD 020021H
	DD	0a6400H
	DD	imagerel $LN18
	DD	imagerel $LN18+118
	DD	imagerel $unwind$PyDict_DelItem
xdata	ENDS
;	COMDAT xdata
xdata	SEGMENT
$chain$0$PyDict_DelItem DD 020521H
	DD	0a6405H
	DD	imagerel $LN18
	DD	imagerel $LN18+118
	DD	imagerel $unwind$PyDict_DelItem
xdata	ENDS
;	COMDAT xdata
xdata	SEGMENT
$unwind$PyDict_DelItem DD 040a01H
	DD	0b340aH
	DD	07006520aH
; Function compile flags: /Ogtpy
; File c:\src\pyparallel\objects\dictobject.c
xdata	ENDS
;	COMDAT PyDict_DelItem
_TEXT	SEGMENT
value_addr$ = 64
op$ = 64
key$ = 72
PyDict_DelItem PROC					; COMDAT

; 1244 : {

$LN18:
  00000	48 89 5c 24 20	 mov	 QWORD PTR [rsp+32], rbx
  00005	57		 push	 rdi
  00006	48 83 ec 30	 sub	 rsp, 48			; 00000030H

; 1245 :     PyDictObject *mp;
; 1246 :     Py_hash_t hash;
; 1247 :     PyDictKeyEntry *ep;
; 1248 :     PyObject *old_key, *old_value;
; 1249 :     PyObject **value_addr;
; 1250 : 
; 1251 :     if (!PyDict_Check(op)) {

  0000a	48 8b 41 58	 mov	 rax, QWORD PTR [rcx+88]
  0000e	48 8b da	 mov	 rbx, rdx
  00011	48 8b f9	 mov	 rdi, rcx
  00014	f7 80 00 01 00
	00 00 00 00 20	 test	 DWORD PTR [rax+256], 536870912 ; 20000000H
  0001e	75 1f		 jne	 SHORT $LN8@PyDict_Del

; 1252 :         PyErr_BadInternalCall();

  00020	48 8d 0d 00 00
	00 00		 lea	 rcx, OFFSET FLAT:??_C@_0BI@LNHGAPGK@?4?4?2Objects?2dictobject?4c?$AA@
  00027	ba e4 04 00 00	 mov	 edx, 1252		; 000004e4H
  0002c	e8 00 00 00 00	 call	 _PyErr_BadInternalCall
$LN17@PyDict_Del:

; 1253 :         return -1;

  00031	83 c8 ff	 or	 eax, -1

; 1291 :     return 0;
; 1292 : }

  00034	48 8b 5c 24 58	 mov	 rbx, QWORD PTR [rsp+88]
  00039	48 83 c4 30	 add	 rsp, 48			; 00000030H
  0003d	5f		 pop	 rdi
  0003e	c3		 ret	 0
$LN8@PyDict_Del:

; 1254 :     }
; 1255 :     assert(key);
; 1256 : 
; 1257 :     /*
; 1258 :     if (Px_CHECK_PROTECTION(op, key, NULL))
; 1259 :         return -1;
; 1260 :     */
; 1261 : 
; 1262 :     if (!PyUnicode_CheckExact(key) ||
; 1263 :         (hash = ((PyASCIIObject *) key)->hash) == -1) {

  0003f	48 8d 05 00 00
	00 00		 lea	 rax, OFFSET FLAT:PyUnicode_Type
  00046	48 39 42 58	 cmp	 QWORD PTR [rdx+88], rax
  0004a	75 0a		 jne	 SHORT $LN6@PyDict_Del
  0004c	4c 8b 42 68	 mov	 r8, QWORD PTR [rdx+104]
  00050	49 83 f8 ff	 cmp	 r8, -1
  00054	75 11		 jne	 SHORT $LN5@PyDict_Del
$LN6@PyDict_Del:

; 1264 :         hash = PyObject_Hash(key);

  00056	48 8b ca	 mov	 rcx, rdx
  00059	e8 00 00 00 00	 call	 PyObject_Hash
  0005e	4c 8b c0	 mov	 r8, rax

; 1265 :         if (hash == -1)

  00061	48 83 f8 ff	 cmp	 rax, -1

; 1266 :             return -1;

  00065	74 ca		 je	 SHORT $LN17@PyDict_Del
$LN5@PyDict_Del:

; 1267 :     }
; 1268 :     mp = (PyDictObject *)op;
; 1269 :     ep = (mp->ma_keys->dk_lookup)(mp, key, hash, &value_addr);

  00067	48 8b 47 68	 mov	 rax, QWORD PTR [rdi+104]
  0006b	4c 8d 4c 24 40	 lea	 r9, QWORD PTR value_addr$[rsp]
  00070	48 8b d3	 mov	 rdx, rbx
  00073	48 8b cf	 mov	 rcx, rdi
  00076	48 89 74 24 50	 mov	 QWORD PTR [rsp+80], rsi
  0007b	ff 50 10	 call	 QWORD PTR [rax+16]
  0007e	48 8b f0	 mov	 rsi, rax

; 1270 :     if (ep == NULL)

  00081	48 85 c0	 test	 rax, rax

; 1271 :         return -1;

  00084	74 13		 je	 SHORT $LN16@PyDict_Del

; 1272 :     if (*value_addr == NULL) {

  00086	48 8b 44 24 40	 mov	 rax, QWORD PTR value_addr$[rsp]
  0008b	48 83 38 00	 cmp	 QWORD PTR [rax], 0
  0008f	75 1b		 jne	 SHORT $LN3@PyDict_Del

; 1273 :         set_key_error(key);

  00091	48 8b cb	 mov	 rcx, rbx
  00094	e8 00 00 00 00	 call	 set_key_error
$LN16@PyDict_Del:

; 1274 :         return -1;

  00099	83 c8 ff	 or	 eax, -1
  0009c	48 8b 74 24 50	 mov	 rsi, QWORD PTR [rsp+80]

; 1291 :     return 0;
; 1292 : }

  000a1	48 8b 5c 24 58	 mov	 rbx, QWORD PTR [rsp+88]
  000a6	48 83 c4 30	 add	 rsp, 48			; 00000030H
  000aa	5f		 pop	 rdi
  000ab	c3		 ret	 0
$LN3@PyDict_Del:

; 1275 :     }
; 1276 :     old_value = *value_addr;

  000ac	48 8b 18	 mov	 rbx, QWORD PTR [rax]

; 1277 :     /*
; 1278 :     if (Px_ASSIGNMENT_ERROR(op, old_value))
; 1279 :         return -1;
; 1280 :     */
; 1281 :     *value_addr = NULL;

  000af	48 c7 00 00 00
	00 00		 mov	 QWORD PTR [rax], 0

; 1282 :     mp->ma_used--;

  000b6	48 ff 4f 60	 dec	 QWORD PTR [rdi+96]

; 1283 :     if (!_PyDict_HasSplitTable(mp)) {

  000ba	48 83 7f 70 00	 cmp	 QWORD PTR [rdi+112], 0
  000bf	75 7e		 jne	 SHORT $LN2@PyDict_Del

; 1284 :         ENSURE_ALLOWS_DELETIONS(mp);

  000c1	48 8b 47 68	 mov	 rax, QWORD PTR [rdi+104]
  000c5	48 8d 0d 00 00
	00 00		 lea	 rcx, OFFSET FLAT:lookdict_unicode_nodummy
  000cc	48 89 6c 24 48	 mov	 QWORD PTR [rsp+72], rbp
  000d1	48 39 48 10	 cmp	 QWORD PTR [rax+16], rcx
  000d5	75 0b		 jne	 SHORT $LN1@PyDict_Del
  000d7	48 8d 0d 00 00
	00 00		 lea	 rcx, OFFSET FLAT:lookdict_unicode
  000de	48 89 48 10	 mov	 QWORD PTR [rax+16], rcx
$LN1@PyDict_Del:

; 1285 :         old_key = ep->me_key;

  000e2	48 8b 7e 08	 mov	 rdi, QWORD PTR [rsi+8]

; 1286 :         Py_INCREF(dummy);

  000e6	e8 00 00 00 00	 call	 _Py_PXCTX
  000eb	48 8d 2d 00 00
	00 00		 lea	 rbp, OFFSET FLAT:_dummy_struct
  000f2	85 c0		 test	 eax, eax
  000f4	75 38		 jne	 SHORT $LN12@PyDict_Del
  000f6	48 8d 15 00 00
	00 00		 lea	 rdx, OFFSET FLAT:??_C@_0CD@HDJFDCDP@c?3?2src?2pyparallel?2include?2object@
  000fd	48 8d 0d 00 00
	00 00		 lea	 rcx, OFFSET FLAT:??_C@_0L@DHGMCEID@_Py_IncRef?$AA@
  00104	4c 8b cd	 mov	 r9, rbp
  00107	41 b8 89 03 00
	00		 mov	 r8d, 905		; 00000389H
  0010d	c7 44 24 20 02
	00 00 00	 mov	 DWORD PTR [rsp+32], 2
  00115	e8 00 00 00 00	 call	 _PyParallel_Guard
  0011a	85 c0		 test	 eax, eax
  0011c	75 09		 jne	 SHORT $LN11@PyDict_Del
  0011e	f6 05 20 00 00
	00 20		 test	 BYTE PTR _dummy_struct+32, 32 ; 00000020H
  00125	74 07		 je	 SHORT $LN12@PyDict_Del
$LN11@PyDict_Del:
  00127	48 ff 05 50 00
	00 00		 inc	 QWORD PTR _dummy_struct+80
$LN12@PyDict_Del:

; 1287 :         ep->me_key = dummy;
; 1288 :         Py_DECREF(old_key);

  0012e	48 8b cf	 mov	 rcx, rdi
  00131	48 89 6e 08	 mov	 QWORD PTR [rsi+8], rbp
  00135	e8 00 00 00 00	 call	 _Py_DecRef
  0013a	48 8b 6c 24 48	 mov	 rbp, QWORD PTR [rsp+72]
$LN2@PyDict_Del:

; 1289 :     }
; 1290 :     Py_DECREF(old_value);

  0013f	48 8b cb	 mov	 rcx, rbx
  00142	e8 00 00 00 00	 call	 _Py_DecRef
  00147	48 8b 74 24 50	 mov	 rsi, QWORD PTR [rsp+80]

; 1291 :     return 0;
; 1292 : }

  0014c	48 8b 5c 24 58	 mov	 rbx, QWORD PTR [rsp+88]
  00151	33 c0		 xor	 eax, eax
  00153	48 83 c4 30	 add	 rsp, 48			; 00000030H
  00157	5f		 pop	 rdi
  00158	c3		 ret	 0
PyDict_DelItem ENDP
_TEXT	ENDS
PUBLIC	??_C@_0N@BOACJEDH@PyDict_Clear?$AA@		; `string'
PUBLIC	??_C@_0DG@NJAOCDNF@parallel?5thread?5attempted?5to?5cle@ ; `string'
PUBLIC	PyDict_Clear
EXTRN	Py_FatalError:PROC
;	COMDAT pdata
pdata	SEGMENT
$pdata$PyDict_Clear DD imagerel $LN25
	DD	imagerel $LN25+56
	DD	imagerel $unwind$PyDict_Clear
pdata	ENDS
;	COMDAT pdata
pdata	SEGMENT
$pdata$1$PyDict_Clear DD imagerel $LN25+56
	DD	imagerel $LN25+104
	DD	imagerel $chain$1$PyDict_Clear
pdata	ENDS
;	COMDAT pdata
pdata	SEGMENT
$pdata$2$PyDict_Clear DD imagerel $LN25+104
	DD	imagerel $LN25+129
	DD	imagerel $chain$2$PyDict_Clear
pdata	ENDS
;	COMDAT pdata
pdata	SEGMENT
$pdata$3$PyDict_Clear DD imagerel $LN25+129
	DD	imagerel $LN25+230
	DD	imagerel $chain$3$PyDict_Clear
pdata	ENDS
;	COMDAT pdata
pdata	SEGMENT
$pdata$4$PyDict_Clear DD imagerel $LN25+230
	DD	imagerel $LN25+261
	DD	imagerel $chain$4$PyDict_Clear
pdata	ENDS
;	COMDAT pdata
pdata	SEGMENT
$pdata$5$PyDict_Clear DD imagerel $LN25+261
	DD	imagerel $LN25+271
	DD	imagerel $chain$5$PyDict_Clear
pdata	ENDS
;	COMDAT pdata
pdata	SEGMENT
$pdata$6$PyDict_Clear DD imagerel $LN25+271
	DD	imagerel $LN25+277
	DD	imagerel $chain$6$PyDict_Clear
pdata	ENDS
;	COMDAT xdata
xdata	SEGMENT
$chain$6$PyDict_Clear DD 021H
	DD	imagerel $LN25
	DD	imagerel $LN25+56
	DD	imagerel $unwind$PyDict_Clear
xdata	ENDS
;	COMDAT xdata
xdata	SEGMENT
$chain$5$PyDict_Clear DD 021H
	DD	imagerel $LN25+56
	DD	imagerel $LN25+104
	DD	imagerel $chain$1$PyDict_Clear
xdata	ENDS
;	COMDAT xdata
xdata	SEGMENT
$chain$4$PyDict_Clear DD 021H
	DD	imagerel $LN25+104
	DD	imagerel $LN25+129
	DD	imagerel $chain$2$PyDict_Clear
xdata	ENDS
;	COMDAT xdata
xdata	SEGMENT
$chain$3$PyDict_Clear DD 020521H
	DD	085405H
	DD	imagerel $LN25+104
	DD	imagerel $LN25+129
	DD	imagerel $chain$2$PyDict_Clear
xdata	ENDS
;	COMDAT xdata
xdata	SEGMENT
$chain$2$PyDict_Clear DD 020521H
	DD	0bc405H
	DD	imagerel $LN25+56
	DD	imagerel $LN25+104
	DD	imagerel $chain$1$PyDict_Clear
xdata	ENDS
;	COMDAT xdata
xdata	SEGMENT
$chain$1$PyDict_Clear DD 040e21H
	DD	0a740eH
	DD	096405H
	DD	imagerel $LN25
	DD	imagerel $LN25+56
	DD	imagerel $unwind$PyDict_Clear
xdata	ENDS
;	COMDAT xdata
xdata	SEGMENT
$unwind$PyDict_Clear DD 020601H
	DD	030025206H
xdata	ENDS
;	COMDAT ??_C@_0N@BOACJEDH@PyDict_Clear?$AA@
CONST	SEGMENT
??_C@_0N@BOACJEDH@PyDict_Clear?$AA@ DB 'PyDict_Clear', 00H ; `string'
CONST	ENDS
;	COMDAT ??_C@_0DG@NJAOCDNF@parallel?5thread?5attempted?5to?5cle@
CONST	SEGMENT
??_C@_0DG@NJAOCDNF@parallel?5thread?5attempted?5to?5cle@ DB 'parallel thr'
	DB	'ead attempted to clear a main thread dict', 00H ; `string'
; Function compile flags: /Ogtpy
CONST	ENDS
;	COMDAT PyDict_Clear
_TEXT	SEGMENT
op$ = 64
PyDict_Clear PROC					; COMDAT

; 1296 : {

$LN25:
  00000	40 53		 push	 rbx
  00002	48 83 ec 30	 sub	 rsp, 48			; 00000030H
  00006	48 8b d9	 mov	 rbx, rcx

; 1297 :     PyDictObject *mp;
; 1298 :     PyDictKeysObject *oldkeys;
; 1299 :     PyObject **oldvalues;
; 1300 :     Py_ssize_t i, n;
; 1301 : 
; 1302 : #ifdef WITH_PARALLEL
; 1303 :     if (Py_PXCTX && Px_ISPY(op))

  00009	e8 00 00 00 00	 call	 _Py_PXCTX
  0000e	85 c0		 test	 eax, eax
  00010	74 12		 je	 SHORT $LN14@PyDict_Cle@2
  00012	f6 43 20 01	 test	 BYTE PTR [rbx+32], 1
  00016	74 0c		 je	 SHORT $LN14@PyDict_Cle@2

; 1304 :         Py_FatalError("parallel thread attempted to clear a main thread dict");

  00018	48 8d 0d 00 00
	00 00		 lea	 rcx, OFFSET FLAT:??_C@_0DG@NJAOCDNF@parallel?5thread?5attempted?5to?5cle@
  0001f	e8 00 00 00 00	 call	 Py_FatalError
$LN14@PyDict_Cle@2:

; 1305 : #endif
; 1306 : 
; 1307 :     if (!PyDict_Check(op))

  00024	48 8b 43 58	 mov	 rax, QWORD PTR [rbx+88]
  00028	f7 80 00 01 00
	00 00 00 00 20	 test	 DWORD PTR [rax+256], 536870912 ; 20000000H
  00032	0f 84 d7 00 00
	00		 je	 $LN1@PyDict_Cle@2

; 1308 :         return;
; 1309 : 
; 1310 :     mp = ((PyDictObject *)op);
; 1311 :     oldkeys = mp->ma_keys;

  00038	48 89 74 24 48	 mov	 QWORD PTR [rsp+72], rsi
  0003d	48 8b 73 68	 mov	 rsi, QWORD PTR [rbx+104]
  00041	48 89 7c 24 50	 mov	 QWORD PTR [rsp+80], rdi

; 1312 :     oldvalues = mp->ma_values;

  00046	48 8b 7b 70	 mov	 rdi, QWORD PTR [rbx+112]

; 1313 :     if (oldvalues == empty_values)

  0004a	48 8d 0d 00 00
	00 00		 lea	 rcx, OFFSET FLAT:empty_values
  00051	48 3b f9	 cmp	 rdi, rcx
  00054	0f 84 ab 00 00
	00		 je	 $LN22@PyDict_Cle@2

; 1314 :         return;
; 1315 :     /* Empty the dict... */
; 1316 :     DK_INCREF(Py_EMPTY_KEYS);

  0005a	48 ff 05 00 00
	00 00		 inc	 QWORD PTR empty_keys_struct

; 1317 :     mp->ma_keys = Py_EMPTY_KEYS;

  00061	48 8d 05 00 00
	00 00		 lea	 rax, OFFSET FLAT:empty_keys_struct
  00068	4c 89 64 24 58	 mov	 QWORD PTR [rsp+88], r12

; 1318 :     mp->ma_values = empty_values;
; 1319 :     mp->ma_used = 0;

  0006d	45 33 e4	 xor	 r12d, r12d
  00070	48 89 43 68	 mov	 QWORD PTR [rbx+104], rax
  00074	48 89 4b 70	 mov	 QWORD PTR [rbx+112], rcx
  00078	4c 89 63 60	 mov	 QWORD PTR [rbx+96], r12

; 1320 :     /* ...then clear the keys and values */
; 1321 :     if (oldvalues != NULL) {

  0007c	48 85 ff	 test	 rdi, rdi
  0007f	74 72		 je	 SHORT $LN11@PyDict_Cle@2

; 1322 :         n = DK_SIZE(oldkeys);

  00081	48 89 6c 24 40	 mov	 QWORD PTR [rsp+64], rbp
  00086	48 8b 6e 08	 mov	 rbp, QWORD PTR [rsi+8]

; 1323 :         for (i = 0; i < n; i++)

  0008a	41 8b dc	 mov	 ebx, r12d
  0008d	48 85 ed	 test	 rbp, rbp
  00090	7e 43		 jle	 SHORT $LN8@PyDict_Cle@2
$LL10@PyDict_Cle@2:
  00092	4c 8b 0c df	 mov	 r9, QWORD PTR [rdi+rbx*8]

; 1324 :             Py_CLEAR(oldvalues[i]);

  00096	4d 85 c9	 test	 r9, r9
  00099	74 32		 je	 SHORT $LN6@PyDict_Cle@2
  0009b	48 8d 15 00 00
	00 00		 lea	 rdx, OFFSET FLAT:??_C@_0BI@LNHGAPGK@?4?4?2Objects?2dictobject?4c?$AA@
  000a2	48 8d 0d 00 00
	00 00		 lea	 rcx, OFFSET FLAT:??_C@_0N@BOACJEDH@PyDict_Clear?$AA@
  000a9	41 b8 2c 05 00
	00		 mov	 r8d, 1324		; 0000052cH
  000af	c7 44 24 20 10
	00 00 00	 mov	 DWORD PTR [rsp+32], 16
  000b7	e8 00 00 00 00	 call	 _PyParallel_Guard
  000bc	85 c0		 test	 eax, eax
  000be	75 0d		 jne	 SHORT $LN6@PyDict_Cle@2
  000c0	48 8b 0c df	 mov	 rcx, QWORD PTR [rdi+rbx*8]
  000c4	4c 89 24 df	 mov	 QWORD PTR [rdi+rbx*8], r12
  000c8	e8 00 00 00 00	 call	 _Py_DecRef
$LN6@PyDict_Cle@2:

; 1323 :         for (i = 0; i < n; i++)

  000cd	48 ff c3	 inc	 rbx
  000d0	48 3b dd	 cmp	 rbx, rbp
  000d3	7c bd		 jl	 SHORT $LL10@PyDict_Cle@2
$LN8@PyDict_Cle@2:

; 1325 :         free_values(oldvalues);

  000d5	e8 00 00 00 00	 call	 _Py_PXCTX
  000da	48 8b 6c 24 40	 mov	 rbp, QWORD PTR [rsp+64]
  000df	48 8b cf	 mov	 rcx, rdi
  000e2	85 c0		 test	 eax, eax
  000e4	74 07		 je	 SHORT $LN17@PyDict_Cle@2
  000e6	e8 00 00 00 00	 call	 _PxMem_Free
  000eb	eb 06		 jmp	 SHORT $LN11@PyDict_Cle@2
$LN17@PyDict_Cle@2:
  000ed	ff 15 00 00 00
	00		 call	 QWORD PTR __imp_free
$LN11@PyDict_Cle@2:

; 1326 :         DK_DECREF(oldkeys);
; 1327 :     }
; 1328 :     else {
; 1329 :        assert(oldkeys->dk_refcnt == 1);
; 1330 :        DK_DECREF(oldkeys);

  000f3	48 ff 0e	 dec	 QWORD PTR [rsi]
  000f6	75 08		 jne	 SHORT $LN23@PyDict_Cle@2
  000f8	48 8b ce	 mov	 rcx, rsi
  000fb	e8 00 00 00 00	 call	 free_keys_object
$LN23@PyDict_Cle@2:
  00100	4c 8b 64 24 58	 mov	 r12, QWORD PTR [rsp+88]
$LN22@PyDict_Cle@2:
  00105	48 8b 74 24 48	 mov	 rsi, QWORD PTR [rsp+72]
  0010a	48 8b 7c 24 50	 mov	 rdi, QWORD PTR [rsp+80]
$LN1@PyDict_Cle@2:

; 1331 :     }
; 1332 : }

  0010f	48 83 c4 30	 add	 rsp, 48			; 00000030H
  00113	5b		 pop	 rbx
  00114	c3		 ret	 0
PyDict_Clear ENDP
; Function compile flags: /Ogtpy
_TEXT	ENDS
;	COMDAT dict_next
_TEXT	SEGMENT
op$ = 8
i$ = 16
pvalue$ = 24
dict_next PROC						; COMDAT

; 1340 :     Py_ssize_t mask, offset;
; 1341 :     PyDictObject *mp;
; 1342 :     PyObject **value_ptr;
; 1343 : 
; 1344 : 
; 1345 :     if (!PyDict_Check(op))

  00000	48 8b 41 58	 mov	 rax, QWORD PTR [rcx+88]
  00004	4d 8b d8	 mov	 r11, r8
  00007	4c 8b d1	 mov	 r10, rcx
  0000a	f7 80 00 01 00
	00 00 00 00 20	 test	 DWORD PTR [rax+256], 536870912 ; 20000000H

; 1346 :         return -1;

  00014	74 4e		 je	 SHORT $LN13@dict_next

; 1347 :     mp = (PyDictObject *)op;
; 1348 :     if (i < 0)

  00016	48 85 d2	 test	 rdx, rdx

; 1349 :         return -1;

  00019	78 49		 js	 SHORT $LN13@dict_next

; 1350 :     if (mp->ma_values) {

  0001b	48 8b 41 70	 mov	 rax, QWORD PTR [rcx+112]
  0001f	48 85 c0	 test	 rax, rax
  00022	74 0c		 je	 SHORT $LN6@dict_next

; 1351 :         value_ptr = &mp->ma_values[i];

  00024	48 8d 0c d0	 lea	 rcx, QWORD PTR [rax+rdx*8]

; 1352 :         offset = sizeof(PyObject *);

  00028	41 b9 08 00 00
	00		 mov	 r9d, 8

; 1353 :     }
; 1354 :     else {

  0002e	eb 13		 jmp	 SHORT $LN5@dict_next
$LN6@dict_next:

; 1355 :         value_ptr = &mp->ma_keys->dk_entries[i].me_value;

  00030	49 8b 42 68	 mov	 rax, QWORD PTR [r10+104]
  00034	48 8d 4c 52 06	 lea	 rcx, QWORD PTR [rdx+rdx*2+6]

; 1356 :         offset = sizeof(PyDictKeyEntry);

  00039	41 b9 18 00 00
	00		 mov	 r9d, 24
  0003f	48 8d 0c c8	 lea	 rcx, QWORD PTR [rax+rcx*8]
$LN5@dict_next:

; 1357 :     }
; 1358 :     mask = DK_MASK(mp->ma_keys);

  00043	49 8b 42 68	 mov	 rax, QWORD PTR [r10+104]
  00047	4c 8b 40 08	 mov	 r8, QWORD PTR [rax+8]
  0004b	49 ff c8	 dec	 r8

; 1359 :     while (i <= mask && *value_ptr == NULL) {

  0004e	49 3b d0	 cmp	 rdx, r8
  00051	7f 11		 jg	 SHORT $LN13@dict_next
$LL4@dict_next:
  00053	48 83 39 00	 cmp	 QWORD PTR [rcx], 0
  00057	75 10		 jne	 SHORT $LN3@dict_next

; 1360 :         value_ptr = (PyObject **)(((char *)value_ptr) + offset);
; 1361 :         i++;

  00059	48 ff c2	 inc	 rdx
  0005c	49 03 c9	 add	 rcx, r9
  0005f	49 3b d0	 cmp	 rdx, r8
  00062	7e ef		 jle	 SHORT $LL4@dict_next
$LN13@dict_next:

; 1364 :         return -1;

  00064	48 83 c8 ff	 or	 rax, -1

; 1368 : }

  00068	c3		 ret	 0
$LN3@dict_next:

; 1362 :     }
; 1363 :     if (i > mask)

  00069	49 3b d0	 cmp	 rdx, r8
  0006c	7f f6		 jg	 SHORT $LN13@dict_next

; 1365 :     if (pvalue)

  0006e	4d 85 db	 test	 r11, r11
  00071	74 06		 je	 SHORT $LN1@dict_next

; 1366 :         *pvalue = *value_ptr;

  00073	48 8b 01	 mov	 rax, QWORD PTR [rcx]
  00076	49 89 03	 mov	 QWORD PTR [r11], rax
$LN1@dict_next:

; 1367 :     return i;

  00079	48 8b c2	 mov	 rax, rdx

; 1368 : }

  0007c	c3		 ret	 0
dict_next ENDP
_TEXT	ENDS
PUBLIC	PyDict_Next
;	COMDAT pdata
pdata	SEGMENT
$pdata$PyDict_Next DD imagerel $LN5
	DD	imagerel $LN5+109
	DD	imagerel $unwind$PyDict_Next
pdata	ENDS
;	COMDAT xdata
xdata	SEGMENT
$unwind$PyDict_Next DD 060f01H
	DD	07640fH
	DD	06340fH
	DD	0700b320fH
; Function compile flags: /Ogtpy
xdata	ENDS
;	COMDAT PyDict_Next
_TEXT	SEGMENT
op$ = 48
ppos$ = 56
pkey$ = 64
pvalue$ = 72
PyDict_Next PROC					; COMDAT

; 1387 : {

$LN5:
  00000	48 89 5c 24 08	 mov	 QWORD PTR [rsp+8], rbx
  00005	48 89 74 24 10	 mov	 QWORD PTR [rsp+16], rsi
  0000a	57		 push	 rdi
  0000b	48 83 ec 20	 sub	 rsp, 32			; 00000020H
  0000f	48 8b fa	 mov	 rdi, rdx

; 1388 :     PyDictObject *mp;
; 1389 :     Py_ssize_t i = dict_next(op, *ppos, pvalue);

  00012	48 8b 12	 mov	 rdx, QWORD PTR [rdx]
  00015	49 8b d8	 mov	 rbx, r8
  00018	4d 8b c1	 mov	 r8, r9
  0001b	48 8b f1	 mov	 rsi, rcx
  0001e	e8 00 00 00 00	 call	 dict_next
  00023	4c 8b d8	 mov	 r11, rax

; 1390 :     if (i < 0)

  00026	48 85 c0	 test	 rax, rax
  00029	79 12		 jns	 SHORT $LN2@PyDict_Nex

; 1391 :         return 0;

  0002b	33 c0		 xor	 eax, eax

; 1396 :     return 1;
; 1397 : }

  0002d	48 8b 5c 24 30	 mov	 rbx, QWORD PTR [rsp+48]
  00032	48 8b 74 24 38	 mov	 rsi, QWORD PTR [rsp+56]
  00037	48 83 c4 20	 add	 rsp, 32			; 00000020H
  0003b	5f		 pop	 rdi
  0003c	c3		 ret	 0
$LN2@PyDict_Nex:

; 1392 :     mp = (PyDictObject *)op;
; 1393 :     *ppos = i+1;

  0003d	48 ff c0	 inc	 rax
  00040	48 89 07	 mov	 QWORD PTR [rdi], rax

; 1394 :     if (pkey)

  00043	48 85 db	 test	 rbx, rbx
  00046	74 10		 je	 SHORT $LN1@PyDict_Nex

; 1395 :         *pkey = mp->ma_keys->dk_entries[i].me_key;

  00048	48 8b 46 68	 mov	 rax, QWORD PTR [rsi+104]
  0004c	4b 8d 0c 5b	 lea	 rcx, QWORD PTR [r11+r11*2]
  00050	48 8b 4c c8 28	 mov	 rcx, QWORD PTR [rax+rcx*8+40]
  00055	48 89 0b	 mov	 QWORD PTR [rbx], rcx
$LN1@PyDict_Nex:

; 1396 :     return 1;
; 1397 : }

  00058	48 8b 5c 24 30	 mov	 rbx, QWORD PTR [rsp+48]
  0005d	48 8b 74 24 38	 mov	 rsi, QWORD PTR [rsp+56]
  00062	b8 01 00 00 00	 mov	 eax, 1
  00067	48 83 c4 20	 add	 rsp, 32			; 00000020H
  0006b	5f		 pop	 rdi
  0006c	c3		 ret	 0
PyDict_Next ENDP
_TEXT	ENDS
PUBLIC	_PyDict_Next
;	COMDAT pdata
pdata	SEGMENT
$pdata$_PyDict_Next DD imagerel $LN5
	DD	imagerel $LN5+126
	DD	imagerel $unwind$_PyDict_Next
pdata	ENDS
;	COMDAT xdata
xdata	SEGMENT
$unwind$_PyDict_Next DD 060f01H
	DD	07640fH
	DD	06340fH
	DD	0700b320fH
; Function compile flags: /Ogtpy
xdata	ENDS
;	COMDAT _PyDict_Next
_TEXT	SEGMENT
op$ = 48
ppos$ = 56
pkey$ = 64
pvalue$ = 72
phash$ = 80
_PyDict_Next PROC					; COMDAT

; 1405 : {

$LN5:
  00000	48 89 5c 24 08	 mov	 QWORD PTR [rsp+8], rbx
  00005	48 89 74 24 10	 mov	 QWORD PTR [rsp+16], rsi
  0000a	57		 push	 rdi
  0000b	48 83 ec 20	 sub	 rsp, 32			; 00000020H
  0000f	48 8b f2	 mov	 rsi, rdx

; 1406 :     PyDictObject *mp;
; 1407 :     Py_ssize_t i = dict_next(op, *ppos, pvalue);

  00012	48 8b 12	 mov	 rdx, QWORD PTR [rdx]
  00015	49 8b f8	 mov	 rdi, r8
  00018	4d 8b c1	 mov	 r8, r9
  0001b	48 8b d9	 mov	 rbx, rcx
  0001e	e8 00 00 00 00	 call	 dict_next
  00023	4c 8b d8	 mov	 r11, rax

; 1408 :     if (i < 0)

  00026	48 85 c0	 test	 rax, rax
  00029	79 12		 jns	 SHORT $LN2@PyDict_Nex@2

; 1409 :         return 0;

  0002b	33 c0		 xor	 eax, eax

; 1415 :     return 1;
; 1416 : }

  0002d	48 8b 5c 24 30	 mov	 rbx, QWORD PTR [rsp+48]
  00032	48 8b 74 24 38	 mov	 rsi, QWORD PTR [rsp+56]
  00037	48 83 c4 20	 add	 rsp, 32			; 00000020H
  0003b	5f		 pop	 rdi
  0003c	c3		 ret	 0
$LN2@PyDict_Nex@2:

; 1410 :     mp = (PyDictObject *)op;
; 1411 :     *ppos = i+1;

  0003d	48 ff c0	 inc	 rax

; 1412 :     *phash = mp->ma_keys->dk_entries[i].me_hash;

  00040	4b 8d 14 5b	 lea	 rdx, QWORD PTR [r11+r11*2]
  00044	48 89 06	 mov	 QWORD PTR [rsi], rax
  00047	48 8b 43 68	 mov	 rax, QWORD PTR [rbx+104]
  0004b	48 8b 4c d0 20	 mov	 rcx, QWORD PTR [rax+rdx*8+32]
  00050	48 8b 44 24 50	 mov	 rax, QWORD PTR phash$[rsp]
  00055	48 89 08	 mov	 QWORD PTR [rax], rcx

; 1413 :     if (pkey)

  00058	48 85 ff	 test	 rdi, rdi
  0005b	74 0c		 je	 SHORT $LN1@PyDict_Nex@2

; 1414 :         *pkey = mp->ma_keys->dk_entries[i].me_key;

  0005d	48 8b 43 68	 mov	 rax, QWORD PTR [rbx+104]
  00061	48 8b 4c d0 28	 mov	 rcx, QWORD PTR [rax+rdx*8+40]
  00066	48 89 0f	 mov	 QWORD PTR [rdi], rcx
$LN1@PyDict_Nex@2:

; 1415 :     return 1;
; 1416 : }

  00069	48 8b 5c 24 30	 mov	 rbx, QWORD PTR [rsp+48]
  0006e	48 8b 74 24 38	 mov	 rsi, QWORD PTR [rsp+56]
  00073	b8 01 00 00 00	 mov	 eax, 1
  00078	48 83 c4 20	 add	 rsp, 32			; 00000020H
  0007c	5f		 pop	 rdi
  0007d	c3		 ret	 0
_PyDict_Next ENDP
_TEXT	ENDS
PUBLIC	??_C@_0N@HOKLHDCC@dict_dealloc?$AA@		; `string'
EXTRN	_PyTrash_thread_deposit_object:PROC
EXTRN	_PyTrash_thread_destroy_chain:PROC
EXTRN	_PyParallel_GetThreadState:PROC
EXTRN	PyObject_GC_UnTrack:PROC
EXTRN	_PyParallel_ContextGuardFailure:PROC
;	COMDAT pdata
; File c:\src\pyparallel\include\object.h
pdata	SEGMENT
$pdata$dict_dealloc DD imagerel dict_dealloc
	DD	imagerel dict_dealloc+148
	DD	imagerel $unwind$dict_dealloc
pdata	ENDS
;	COMDAT pdata
pdata	SEGMENT
$pdata$1$dict_dealloc DD imagerel dict_dealloc+148
	DD	imagerel dict_dealloc+173
	DD	imagerel $chain$1$dict_dealloc
pdata	ENDS
;	COMDAT pdata
pdata	SEGMENT
$pdata$2$dict_dealloc DD imagerel dict_dealloc+173
	DD	imagerel dict_dealloc+302
	DD	imagerel $chain$2$dict_dealloc
pdata	ENDS
;	COMDAT pdata
pdata	SEGMENT
$pdata$3$dict_dealloc DD imagerel dict_dealloc+302
	DD	imagerel dict_dealloc+324
	DD	imagerel $chain$3$dict_dealloc
pdata	ENDS
;	COMDAT pdata
pdata	SEGMENT
$pdata$4$dict_dealloc DD imagerel dict_dealloc+324
	DD	imagerel dict_dealloc+477
	DD	imagerel $chain$4$dict_dealloc
pdata	ENDS
;	COMDAT xdata
xdata	SEGMENT
$chain$4$dict_dealloc DD 021H
	DD	imagerel dict_dealloc
	DD	imagerel dict_dealloc+148
	DD	imagerel $unwind$dict_dealloc
xdata	ENDS
;	COMDAT xdata
xdata	SEGMENT
$chain$3$dict_dealloc DD 021H
	DD	imagerel dict_dealloc+148
	DD	imagerel dict_dealloc+173
	DD	imagerel $chain$1$dict_dealloc
xdata	ENDS
;	COMDAT xdata
xdata	SEGMENT
$chain$2$dict_dealloc DD 020521H
	DD	0a3405H
	DD	imagerel dict_dealloc+148
	DD	imagerel dict_dealloc+173
	DD	imagerel $chain$1$dict_dealloc
xdata	ENDS
;	COMDAT xdata
xdata	SEGMENT
$chain$1$dict_dealloc DD 040a21H
	DD	0ce40aH
	DD	0b7405H
	DD	imagerel dict_dealloc
	DD	imagerel dict_dealloc+148
	DD	imagerel $unwind$dict_dealloc
xdata	ENDS
;	COMDAT xdata
xdata	SEGMENT
$unwind$dict_dealloc DD 060e01H
	DD	0d540eH
	DD	0d00a520eH
	DD	06006c008H
xdata	ENDS
;	COMDAT ??_C@_0N@HOKLHDCC@dict_dealloc?$AA@
CONST	SEGMENT
??_C@_0N@HOKLHDCC@dict_dealloc?$AA@ DB 'dict_dealloc', 00H ; `string'
; Function compile flags: /Ogtpy
; File c:\src\pyparallel\objects\dictobject.c
CONST	ENDS
;	COMDAT dict_dealloc
_TEXT	SEGMENT
mp$ = 80
dict_dealloc PROC					; COMDAT

; 1422 : {

  00000	48 89 6c 24 20	 mov	 QWORD PTR [rsp+32], rbp
  00005	56		 push	 rsi
  00006	41 54		 push	 r12
  00008	41 55		 push	 r13
  0000a	48 83 ec 30	 sub	 rsp, 48			; 00000030H

; 1423 :     PyObject **values = mp->ma_values;

  0000e	4c 8b 69 70	 mov	 r13, QWORD PTR [rcx+112]

; 1424 :     PyDictKeysObject *keys = mp->ma_keys;

  00012	4c 8b 61 68	 mov	 r12, QWORD PTR [rcx+104]
  00016	48 8b f1	 mov	 rsi, rcx

; 1425 :     Py_ssize_t i, n;
; 1426 :     Py_GUARD

  00019	e8 00 00 00 00	 call	 _Py_PXCTX
  0001e	85 c0		 test	 eax, eax
  00020	74 1c		 je	 SHORT $LN21@dict_deall
  00022	48 8d 15 00 00
	00 00		 lea	 rdx, OFFSET FLAT:??_C@_0BI@LNHGAPGK@?4?4?2Objects?2dictobject?4c?$AA@
  00029	48 8d 0d 00 00
	00 00		 lea	 rcx, OFFSET FLAT:??_C@_0N@HOKLHDCC@dict_dealloc?$AA@
  00030	45 33 c9	 xor	 r9d, r9d
  00033	41 b8 92 05 00
	00		 mov	 r8d, 1426		; 00000592H
  00039	e8 00 00 00 00	 call	 _PyParallel_ContextGuardFailure
$LN21@dict_deall:

; 1427 :     PyObject_GC_UnTrack(mp);

  0003e	48 8b ce	 mov	 rcx, rsi
  00041	e8 00 00 00 00	 call	 PyObject_GC_UnTrack

; 1428 :     Py_TRASHCAN_SAFE_BEGIN(mp)

  00046	e8 00 00 00 00	 call	 _Py_PXCTX
  0004b	85 c0		 test	 eax, eax
  0004d	74 0a		 je	 SHORT $LN24@dict_deall
  0004f	e8 00 00 00 00	 call	 _PyParallel_GetThreadState
  00054	48 8b e8	 mov	 rbp, rax
  00057	eb 07		 jmp	 SHORT $LN25@dict_deall
$LN24@dict_deall:
  00059	48 8b 2d 00 00
	00 00		 mov	 rbp, QWORD PTR _PyThreadState_Current
$LN25@dict_deall:
  00060	8b 85 94 00 00
	00		 mov	 eax, DWORD PTR [rbp+148]
  00066	83 f8 32	 cmp	 eax, 50			; 00000032H
  00069	0f 8d 57 01 00
	00		 jge	 $LN17@dict_deall
  0006f	ff c0		 inc	 eax
  00071	89 85 94 00 00
	00		 mov	 DWORD PTR [rbp+148], eax

; 1429 :     if (values != NULL) {

  00077	4d 85 ed	 test	 r13, r13
  0007a	0f 84 d1 00 00
	00		 je	 $LN16@dict_deall

; 1430 :         if (values != empty_values) {

  00080	48 8d 05 00 00
	00 00		 lea	 rax, OFFSET FLAT:empty_values
  00087	4c 3b e8	 cmp	 r13, rax
  0008a	0f 84 c1 00 00
	00		 je	 $LN16@dict_deall

; 1431 :             for (i = 0, n = DK_SIZE(mp->ma_keys); i < n; i++) {

  00090	48 8b 46 68	 mov	 rax, QWORD PTR [rsi+104]
  00094	48 89 7c 24 58	 mov	 QWORD PTR [rsp+88], rdi
  00099	4c 89 74 24 60	 mov	 QWORD PTR [rsp+96], r14
  0009e	4c 8b 70 08	 mov	 r14, QWORD PTR [rax+8]
  000a2	33 ff		 xor	 edi, edi
  000a4	4d 85 f6	 test	 r14, r14
  000a7	0f 8e 81 00 00
	00		 jle	 $LN12@dict_deall
  000ad	48 89 5c 24 50	 mov	 QWORD PTR [rsp+80], rbx
$LL14@dict_deall:
  000b2	49 8b 5c fd 00	 mov	 rbx, QWORD PTR [r13+rdi*8]

; 1432 :                 Py_XDECREF(values[i]);

  000b7	48 85 db	 test	 rbx, rbx
  000ba	74 65		 je	 SHORT $LN10@dict_deall
  000bc	e8 00 00 00 00	 call	 _Py_PXCTX
  000c1	85 c0		 test	 eax, eax
  000c3	75 5c		 jne	 SHORT $LN10@dict_deall
  000c5	48 8b 43 20	 mov	 rax, QWORD PTR [rbx+32]
  000c9	a8 20		 test	 al, 32			; 00000020H
  000cb	75 4c		 jne	 SHORT $LN32@dict_deall
  000cd	84 c0		 test	 al, al
  000cf	78 48		 js	 SHORT $LN32@dict_deall
  000d1	a8 02		 test	 al, 2
  000d3	75 4c		 jne	 SHORT $LN10@dict_deall
  000d5	48 ff 4b 50	 dec	 QWORD PTR [rbx+80]
  000d9	75 46		 jne	 SHORT $LN10@dict_deall
  000db	48 8d 15 00 00
	00 00		 lea	 rdx, OFFSET FLAT:??_C@_0CD@HDJFDCDP@c?3?2src?2pyparallel?2include?2object@
  000e2	48 8d 0d 00 00
	00 00		 lea	 rcx, OFFSET FLAT:??_C@_0L@DMHMLFIA@_Py_DecRef?$AA@
  000e9	4c 8b cb	 mov	 r9, rbx
  000ec	41 b8 a4 03 00
	00		 mov	 r8d, 932		; 000003a4H
  000f2	c7 44 24 20 10
	00 00 00	 mov	 DWORD PTR [rsp+32], 16
  000fa	e8 00 00 00 00	 call	 _PyParallel_Guard
  000ff	48 8b cb	 mov	 rcx, rbx
  00102	85 c0		 test	 eax, eax
  00104	74 07		 je	 SHORT $LN37@dict_deall
  00106	e8 00 00 00 00	 call	 _Px_Dealloc
  0010b	eb 14		 jmp	 SHORT $LN10@dict_deall
$LN37@dict_deall:
  0010d	48 8b 43 58	 mov	 rax, QWORD PTR [rbx+88]
  00111	ff 90 88 00 00
	00		 call	 QWORD PTR [rax+136]
  00117	eb 08		 jmp	 SHORT $LN10@dict_deall
$LN32@dict_deall:
  00119	48 8b cb	 mov	 rcx, rbx
  0011c	e8 00 00 00 00	 call	 Px_DecRef
$LN10@dict_deall:

; 1431 :             for (i = 0, n = DK_SIZE(mp->ma_keys); i < n; i++) {

  00121	48 ff c7	 inc	 rdi
  00124	49 3b fe	 cmp	 rdi, r14
  00127	7c 89		 jl	 SHORT $LL14@dict_deall
  00129	48 8b 5c 24 50	 mov	 rbx, QWORD PTR [rsp+80]
$LN12@dict_deall:

; 1433 :             }
; 1434 :             free_values(values);

  0012e	e8 00 00 00 00	 call	 _Py_PXCTX
  00133	4c 8b 74 24 60	 mov	 r14, QWORD PTR [rsp+96]
  00138	48 8b 7c 24 58	 mov	 rdi, QWORD PTR [rsp+88]
  0013d	49 8b cd	 mov	 rcx, r13
  00140	85 c0		 test	 eax, eax
  00142	74 07		 je	 SHORT $LN26@dict_deall
  00144	e8 00 00 00 00	 call	 _PxMem_Free
  00149	eb 06		 jmp	 SHORT $LN16@dict_deall
$LN26@dict_deall:
  0014b	ff 15 00 00 00
	00		 call	 QWORD PTR __imp_free
$LN16@dict_deall:

; 1435 :         }
; 1436 :         DK_DECREF(keys);
; 1437 :     }
; 1438 :     else {
; 1439 :         assert(keys->dk_refcnt == 1);
; 1440 :         DK_DECREF(keys);

  00151	49 ff 0c 24	 dec	 QWORD PTR [r12]
  00155	75 08		 jne	 SHORT $LN5@dict_deall
  00157	49 8b cc	 mov	 rcx, r12
  0015a	e8 00 00 00 00	 call	 free_keys_object
$LN5@dict_deall:

; 1441 :     }
; 1442 :     if (numfree < PyDict_MAXFREELIST && Py_TYPE(mp) == &PyDict_Type)

  0015f	48 63 0d 00 00
	00 00		 movsxd	 rcx, DWORD PTR numfree
  00166	83 f9 50	 cmp	 ecx, 80			; 00000050H
  00169	7d 22		 jge	 SHORT $LN4@dict_deall
  0016b	48 8d 05 00 00
	00 00		 lea	 rax, OFFSET FLAT:PyDict_Type
  00172	48 39 46 58	 cmp	 QWORD PTR [rsi+88], rax
  00176	75 15		 jne	 SHORT $LN4@dict_deall

; 1443 :         free_list[numfree++] = mp;

  00178	48 8d 15 00 00
	00 00		 lea	 rdx, OFFSET FLAT:free_list
  0017f	48 89 34 ca	 mov	 QWORD PTR [rdx+rcx*8], rsi
  00183	ff c1		 inc	 ecx
  00185	89 0d 00 00 00
	00		 mov	 DWORD PTR numfree, ecx

; 1444 :     else

  0018b	eb 0d		 jmp	 SHORT $LN3@dict_deall
$LN4@dict_deall:

; 1445 :         Py_TYPE(mp)->tp_free((PyObject *)mp);

  0018d	48 8b 46 58	 mov	 rax, QWORD PTR [rsi+88]
  00191	48 8b ce	 mov	 rcx, rsi
  00194	ff 90 98 01 00
	00		 call	 QWORD PTR [rax+408]
$LN3@dict_deall:

; 1446 :     Py_TRASHCAN_SAFE_END(mp)

  0019a	ff 8d 94 00 00
	00		 dec	 DWORD PTR [rbp+148]
  001a0	48 83 bd 98 00
	00 00 00	 cmp	 QWORD PTR [rbp+152], 0
  001a8	74 24		 je	 SHORT $LN19@dict_deall
  001aa	83 bd 94 00 00
	00 00		 cmp	 DWORD PTR [rbp+148], 0
  001b1	7f 1b		 jg	 SHORT $LN19@dict_deall

; 1447 : }

  001b3	48 8b 6c 24 68	 mov	 rbp, QWORD PTR [rsp+104]
  001b8	48 83 c4 30	 add	 rsp, 48			; 00000030H
  001bc	41 5d		 pop	 r13
  001be	41 5c		 pop	 r12
  001c0	5e		 pop	 rsi
  001c1	e9 00 00 00 00	 jmp	 _PyTrash_thread_destroy_chain
$LN17@dict_deall:

; 1446 :     Py_TRASHCAN_SAFE_END(mp)

  001c6	48 8b ce	 mov	 rcx, rsi
  001c9	e8 00 00 00 00	 call	 _PyTrash_thread_deposit_object
$LN19@dict_deall:

; 1447 : }

  001ce	48 8b 6c 24 68	 mov	 rbp, QWORD PTR [rsp+104]
  001d3	48 83 c4 30	 add	 rsp, 48			; 00000030H
  001d7	41 5d		 pop	 r13
  001d9	41 5c		 pop	 r12
  001db	5e		 pop	 rsi
  001dc	c3		 ret	 0
dict_dealloc ENDP
_TEXT	ENDS
PUBLIC	??_C@_02KEGNLNML@?0?5?$AA@			; `string'
PUBLIC	??_C@_01CELHOKLL@?$HN?$AA@			; `string'
PUBLIC	??_C@_01HCONENDN@?$HL?$AA@			; `string'
PUBLIC	??_C@_02LMMGGCAJ@?3?5?$AA@			; `string'
PUBLIC	??_C@_02MCILKGOH@?$HL?$HN?$AA@			; `string'
PUBLIC	??_C@_05LJIGIGGH@?$HL?4?4?4?$HN?$AA@		; `string'
EXTRN	Py_ReprLeave:PROC
EXTRN	PyUnicode_Join:PROC
EXTRN	PyList_Append:PROC
EXTRN	PyUnicode_AppendAndDel:PROC
EXTRN	PyUnicode_Append:PROC
EXTRN	PyObject_Repr:PROC
EXTRN	PyList_New:PROC
EXTRN	PyUnicode_FromString:PROC
EXTRN	Py_ReprEnter:PROC
;	COMDAT pdata
; File c:\src\pyparallel\include\object.h
pdata	SEGMENT
$pdata$dict_repr DD imagerel dict_repr
	DD	imagerel dict_repr+87
	DD	imagerel $unwind$dict_repr
pdata	ENDS
;	COMDAT pdata
pdata	SEGMENT
$pdata$0$dict_repr DD imagerel dict_repr+87
	DD	imagerel dict_repr+116
	DD	imagerel $chain$0$dict_repr
pdata	ENDS
;	COMDAT pdata
pdata	SEGMENT
$pdata$1$dict_repr DD imagerel dict_repr+116
	DD	imagerel dict_repr+153
	DD	imagerel $chain$1$dict_repr
pdata	ENDS
;	COMDAT pdata
pdata	SEGMENT
$pdata$3$dict_repr DD imagerel dict_repr+153
	DD	imagerel dict_repr+623
	DD	imagerel $chain$3$dict_repr
pdata	ENDS
;	COMDAT pdata
pdata	SEGMENT
$pdata$4$dict_repr DD imagerel dict_repr+623
	DD	imagerel dict_repr+838
	DD	imagerel $chain$4$dict_repr
pdata	ENDS
;	COMDAT pdata
pdata	SEGMENT
$pdata$5$dict_repr DD imagerel dict_repr+838
	DD	imagerel dict_repr+843
	DD	imagerel $chain$5$dict_repr
pdata	ENDS
;	COMDAT pdata
pdata	SEGMENT
$pdata$6$dict_repr DD imagerel dict_repr+843
	DD	imagerel dict_repr+864
	DD	imagerel $chain$6$dict_repr
pdata	ENDS
;	COMDAT xdata
xdata	SEGMENT
$chain$6$dict_repr DD 021H
	DD	imagerel dict_repr
	DD	imagerel dict_repr+87
	DD	imagerel $unwind$dict_repr
xdata	ENDS
;	COMDAT xdata
xdata	SEGMENT
$chain$5$dict_repr DD 021H
	DD	imagerel dict_repr+87
	DD	imagerel dict_repr+116
	DD	imagerel $chain$0$dict_repr
xdata	ENDS
;	COMDAT xdata
xdata	SEGMENT
$chain$4$dict_repr DD 021H
	DD	imagerel dict_repr+116
	DD	imagerel dict_repr+153
	DD	imagerel $chain$1$dict_repr
xdata	ENDS
;	COMDAT xdata
xdata	SEGMENT
$chain$3$dict_repr DD 040e21H
	DD	09740eH
	DD	0b3405H
	DD	imagerel dict_repr+116
	DD	imagerel dict_repr+153
	DD	imagerel $chain$1$dict_repr
xdata	ENDS
;	COMDAT xdata
xdata	SEGMENT
$chain$1$dict_repr DD 020521H
	DD	08c405H
	DD	imagerel dict_repr+87
	DD	imagerel dict_repr+116
	DD	imagerel $chain$0$dict_repr
xdata	ENDS
;	COMDAT xdata
xdata	SEGMENT
$chain$0$dict_repr DD 020521H
	DD	0a6405H
	DD	imagerel dict_repr
	DD	imagerel dict_repr+87
	DD	imagerel $unwind$dict_repr
xdata	ENDS
;	COMDAT xdata
xdata	SEGMENT
$unwind$dict_repr DD 040d01H
	DD	0e006b20dH
	DD	05002d004H
xdata	ENDS
;	COMDAT ??_C@_02KEGNLNML@?0?5?$AA@
CONST	SEGMENT
??_C@_02KEGNLNML@?0?5?$AA@ DB ', ', 00H			; `string'
CONST	ENDS
;	COMDAT ??_C@_01CELHOKLL@?$HN?$AA@
CONST	SEGMENT
??_C@_01CELHOKLL@?$HN?$AA@ DB '}', 00H			; `string'
CONST	ENDS
;	COMDAT ??_C@_01HCONENDN@?$HL?$AA@
CONST	SEGMENT
??_C@_01HCONENDN@?$HL?$AA@ DB '{', 00H			; `string'
CONST	ENDS
;	COMDAT ??_C@_02LMMGGCAJ@?3?5?$AA@
CONST	SEGMENT
??_C@_02LMMGGCAJ@?3?5?$AA@ DB ': ', 00H			; `string'
CONST	ENDS
;	COMDAT ??_C@_02MCILKGOH@?$HL?$HN?$AA@
CONST	SEGMENT
??_C@_02MCILKGOH@?$HL?$HN?$AA@ DB '{}', 00H		; `string'
CONST	ENDS
;	COMDAT ??_C@_05LJIGIGGH@?$HL?4?4?4?$HN?$AA@
CONST	SEGMENT
??_C@_05LJIGIGGH@?$HL?4?4?4?$HN?$AA@ DB '{...}', 00H	; `string'
; Function compile flags: /Ogtpy
; File c:\src\pyparallel\objects\dictobject.c
CONST	ENDS
;	COMDAT dict_repr
_TEXT	SEGMENT
key$ = 48
i$ = 56
mp$ = 128
s$ = 136
temp$ = 144
value$ = 152
dict_repr PROC						; COMDAT

; 1452 : {

  00000	40 55		 push	 rbp
  00002	41 55		 push	 r13
  00004	41 56		 push	 r14
  00006	48 8b ec	 mov	 rbp, rsp
  00009	48 83 ec 60	 sub	 rsp, 96			; 00000060H
  0000d	4c 8b e9	 mov	 r13, rcx

; 1453 :     Py_ssize_t i;
; 1454 :     PyObject *s, *temp, *colon = NULL;
; 1455 :     PyObject *pieces = NULL, *result = NULL;

  00010	45 33 f6	 xor	 r14d, r14d

; 1456 :     PyObject *key, *value;
; 1457 : 
; 1458 :     i = Py_ReprEnter((PyObject *)mp);

  00013	e8 00 00 00 00	 call	 Py_ReprEnter

; 1459 :     if (i != 0) {

  00018	85 c0		 test	 eax, eax
  0001a	74 1f		 je	 SHORT $LN21@dict_repr

; 1460 :         return i > 0 ? PyUnicode_FromString("{...}") : NULL;

  0001c	0f 8e 31 03 00
	00		 jle	 $LN24@dict_repr
  00022	48 8d 0d 00 00
	00 00		 lea	 rcx, OFFSET FLAT:??_C@_05LJIGIGGH@?$HL?4?4?4?$HN?$AA@
  00029	e8 00 00 00 00	 call	 PyUnicode_FromString
  0002e	4c 8b f0	 mov	 r14, rax

; 1529 : }

  00031	48 83 c4 60	 add	 rsp, 96			; 00000060H
  00035	41 5e		 pop	 r14
  00037	41 5d		 pop	 r13
  00039	5d		 pop	 rbp
  0003a	c3		 ret	 0
$LN21@dict_repr:

; 1461 :     }
; 1462 : 
; 1463 :     if (mp->ma_used == 0) {

  0003b	4d 39 75 60	 cmp	 QWORD PTR [r13+96], r14
  0003f	75 14		 jne	 SHORT $LN20@dict_repr

; 1464 :         result = PyUnicode_FromString("{}");

  00041	48 8d 0d 00 00
	00 00		 lea	 rcx, OFFSET FLAT:??_C@_02MCILKGOH@?$HL?$HN?$AA@
  00048	e8 00 00 00 00	 call	 PyUnicode_FromString
  0004d	4c 8b f0	 mov	 r14, rax

; 1465 :         goto Done;

  00050	e9 f6 02 00 00	 jmp	 $LN3@dict_repr
$LN20@dict_repr:

; 1466 :     }
; 1467 : 
; 1468 :     pieces = PyList_New(0);

  00055	33 c9		 xor	 ecx, ecx
  00057	48 89 74 24 50	 mov	 QWORD PTR [rsp+80], rsi
  0005c	e8 00 00 00 00	 call	 PyList_New
  00061	48 8b f0	 mov	 rsi, rax

; 1469 :     if (pieces == NULL)

  00064	48 85 c0	 test	 rax, rax
  00067	0f 84 d9 02 00
	00		 je	 $LN59@dict_repr

; 1470 :         goto Done;
; 1471 : 
; 1472 :     colon = PyUnicode_FromString(": ");

  0006d	48 8d 0d 00 00
	00 00		 lea	 rcx, OFFSET FLAT:??_C@_02LMMGGCAJ@?3?5?$AA@
  00074	4c 89 64 24 40	 mov	 QWORD PTR [rsp+64], r12
  00079	e8 00 00 00 00	 call	 PyUnicode_FromString
  0007e	4c 8b e0	 mov	 r12, rax

; 1473 :     if (colon == NULL)

  00081	48 85 c0	 test	 rax, rax
  00084	0f 84 e5 01 00
	00		 je	 $Done$21242

; 1474 :         goto Done;
; 1475 : 
; 1476 :     /* Do repr() on each key+value pair, and insert ": " between them.
; 1477 :        Note that repr may mutate the dict. */
; 1478 :     i = 0;
; 1479 :     while (PyDict_Next((PyObject *)mp, &i, &key, &value)) {

  0008a	4c 8d 4d 38	 lea	 r9, QWORD PTR value$[rbp-96]
  0008e	4c 8d 45 d0	 lea	 r8, QWORD PTR key$[rbp-96]
  00092	48 8d 55 d8	 lea	 rdx, QWORD PTR i$[rbp-96]
  00096	49 8b cd	 mov	 rcx, r13
  00099	48 89 5c 24 58	 mov	 QWORD PTR [rsp+88], rbx
  0009e	4c 89 75 d8	 mov	 QWORD PTR i$[rbp-96], r14
  000a2	48 89 7c 24 48	 mov	 QWORD PTR [rsp+72], rdi
  000a7	e8 00 00 00 00	 call	 PyDict_Next
  000ac	85 c0		 test	 eax, eax
  000ae	0f 84 fe 00 00
	00		 je	 $LN16@dict_repr
$LL17@dict_repr:

; 1480 :         int status;
; 1481 :         /* Prevent repr from deleting key or value during key format. */
; 1482 :         Py_INCREF(key);

  000b4	e8 00 00 00 00	 call	 _Py_PXCTX
  000b9	48 8b 7d d0	 mov	 rdi, QWORD PTR key$[rbp-96]
  000bd	85 c0		 test	 eax, eax
  000bf	75 32		 jne	 SHORT $LN27@dict_repr
  000c1	48 8d 15 00 00
	00 00		 lea	 rdx, OFFSET FLAT:??_C@_0CD@HDJFDCDP@c?3?2src?2pyparallel?2include?2object@
  000c8	48 8d 0d 00 00
	00 00		 lea	 rcx, OFFSET FLAT:??_C@_0L@DHGMCEID@_Py_IncRef?$AA@
  000cf	4c 8b cf	 mov	 r9, rdi
  000d2	41 b8 89 03 00
	00		 mov	 r8d, 905		; 00000389H
  000d8	c7 44 24 20 02
	00 00 00	 mov	 DWORD PTR [rsp+32], 2
  000e0	e8 00 00 00 00	 call	 _PyParallel_Guard
  000e5	85 c0		 test	 eax, eax
  000e7	75 06		 jne	 SHORT $LN26@dict_repr
  000e9	f6 47 20 20	 test	 BYTE PTR [rdi+32], 32	; 00000020H
  000ed	74 04		 je	 SHORT $LN27@dict_repr
$LN26@dict_repr:
  000ef	48 ff 47 50	 inc	 QWORD PTR [rdi+80]
$LN27@dict_repr:

; 1483 :         Py_INCREF(value);

  000f3	e8 00 00 00 00	 call	 _Py_PXCTX
  000f8	48 8b 5d 38	 mov	 rbx, QWORD PTR value$[rbp-96]
  000fc	85 c0		 test	 eax, eax
  000fe	75 32		 jne	 SHORT $LN31@dict_repr
  00100	48 8d 15 00 00
	00 00		 lea	 rdx, OFFSET FLAT:??_C@_0CD@HDJFDCDP@c?3?2src?2pyparallel?2include?2object@
  00107	48 8d 0d 00 00
	00 00		 lea	 rcx, OFFSET FLAT:??_C@_0L@DHGMCEID@_Py_IncRef?$AA@
  0010e	4c 8b cb	 mov	 r9, rbx
  00111	41 b8 89 03 00
	00		 mov	 r8d, 905		; 00000389H
  00117	c7 44 24 20 02
	00 00 00	 mov	 DWORD PTR [rsp+32], 2
  0011f	e8 00 00 00 00	 call	 _PyParallel_Guard
  00124	85 c0		 test	 eax, eax
  00126	75 06		 jne	 SHORT $LN30@dict_repr
  00128	f6 43 20 20	 test	 BYTE PTR [rbx+32], 32	; 00000020H
  0012c	74 04		 je	 SHORT $LN31@dict_repr
$LN30@dict_repr:
  0012e	48 ff 43 50	 inc	 QWORD PTR [rbx+80]
$LN31@dict_repr:

; 1484 :         s = PyObject_Repr(key);

  00132	48 8b cf	 mov	 rcx, rdi
  00135	e8 00 00 00 00	 call	 PyObject_Repr

; 1485 :         PyUnicode_Append(&s, colon);

  0013a	48 8d 4d 28	 lea	 rcx, QWORD PTR s$[rbp-96]
  0013e	49 8b d4	 mov	 rdx, r12
  00141	48 89 45 28	 mov	 QWORD PTR s$[rbp-96], rax
  00145	e8 00 00 00 00	 call	 PyUnicode_Append

; 1486 :         PyUnicode_AppendAndDel(&s, PyObject_Repr(value));

  0014a	48 8b cb	 mov	 rcx, rbx
  0014d	e8 00 00 00 00	 call	 PyObject_Repr
  00152	48 8d 4d 28	 lea	 rcx, QWORD PTR s$[rbp-96]
  00156	48 8b d0	 mov	 rdx, rax
  00159	e8 00 00 00 00	 call	 PyUnicode_AppendAndDel

; 1487 :         Py_DECREF(key);

  0015e	48 8b cf	 mov	 rcx, rdi
  00161	e8 00 00 00 00	 call	 _Py_DecRef

; 1488 :         Py_DECREF(value);

  00166	48 8b cb	 mov	 rcx, rbx
  00169	e8 00 00 00 00	 call	 _Py_DecRef

; 1489 :         if (s == NULL)

  0016e	48 8b 55 28	 mov	 rdx, QWORD PTR s$[rbp-96]
  00172	48 85 d2	 test	 rdx, rdx
  00175	0f 84 ea 00 00
	00		 je	 $LN62@dict_repr

; 1490 :             goto Done;
; 1491 :         status = PyList_Append(pieces, s);

  0017b	48 8b ce	 mov	 rcx, rsi
  0017e	e8 00 00 00 00	 call	 PyList_Append

; 1492 :         Py_DECREF(s);  /* append created a new ref */

  00183	48 8b 4d 28	 mov	 rcx, QWORD PTR s$[rbp-96]
  00187	8b d8		 mov	 ebx, eax
  00189	e8 00 00 00 00	 call	 _Py_DecRef

; 1493 :         if (status < 0)

  0018e	85 db		 test	 ebx, ebx
  00190	0f 88 cf 00 00
	00		 js	 $LN62@dict_repr

; 1474 :         goto Done;
; 1475 : 
; 1476 :     /* Do repr() on each key+value pair, and insert ": " between them.
; 1477 :        Note that repr may mutate the dict. */
; 1478 :     i = 0;
; 1479 :     while (PyDict_Next((PyObject *)mp, &i, &key, &value)) {

  00196	4c 8d 4d 38	 lea	 r9, QWORD PTR value$[rbp-96]
  0019a	4c 8d 45 d0	 lea	 r8, QWORD PTR key$[rbp-96]
  0019e	48 8d 55 d8	 lea	 rdx, QWORD PTR i$[rbp-96]
  001a2	49 8b cd	 mov	 rcx, r13
  001a5	e8 00 00 00 00	 call	 PyDict_Next
  001aa	85 c0		 test	 eax, eax
  001ac	0f 85 02 ff ff
	ff		 jne	 $LL17@dict_repr
$LN16@dict_repr:

; 1494 :             goto Done;
; 1495 :     }
; 1496 : 
; 1497 :     /* Add "{}" decorations to the first and last items. */
; 1498 :     assert(PyList_GET_SIZE(pieces) > 0);
; 1499 :     s = PyUnicode_FromString("{");

  001b2	48 8d 0d 00 00
	00 00		 lea	 rcx, OFFSET FLAT:??_C@_01HCONENDN@?$HL?$AA@
  001b9	e8 00 00 00 00	 call	 PyUnicode_FromString
  001be	48 89 45 28	 mov	 QWORD PTR s$[rbp-96], rax

; 1500 :     if (s == NULL)

  001c2	48 85 c0	 test	 rax, rax
  001c5	0f 84 9a 00 00
	00		 je	 $LN62@dict_repr

; 1501 :         goto Done;
; 1502 :     temp = PyList_GET_ITEM(pieces, 0);

  001cb	48 8b 46 70	 mov	 rax, QWORD PTR [rsi+112]

; 1503 :     PyUnicode_AppendAndDel(&s, temp);

  001cf	48 8d 4d 28	 lea	 rcx, QWORD PTR s$[rbp-96]
  001d3	48 8b 10	 mov	 rdx, QWORD PTR [rax]
  001d6	48 89 55 30	 mov	 QWORD PTR temp$[rbp-96], rdx
  001da	e8 00 00 00 00	 call	 PyUnicode_AppendAndDel

; 1504 :     PyList_SET_ITEM(pieces, 0, s);

  001df	4c 8b 5e 70	 mov	 r11, QWORD PTR [rsi+112]
  001e3	48 8b 45 28	 mov	 rax, QWORD PTR s$[rbp-96]
  001e7	49 89 03	 mov	 QWORD PTR [r11], rax

; 1505 :     if (s == NULL)

  001ea	4c 39 75 28	 cmp	 QWORD PTR s$[rbp-96], r14
  001ee	74 75		 je	 SHORT $LN62@dict_repr

; 1506 :         goto Done;
; 1507 : 
; 1508 :     s = PyUnicode_FromString("}");

  001f0	48 8d 0d 00 00
	00 00		 lea	 rcx, OFFSET FLAT:??_C@_01CELHOKLL@?$HN?$AA@
  001f7	e8 00 00 00 00	 call	 PyUnicode_FromString
  001fc	48 89 45 28	 mov	 QWORD PTR s$[rbp-96], rax

; 1509 :     if (s == NULL)

  00200	48 85 c0	 test	 rax, rax
  00203	74 60		 je	 SHORT $LN62@dict_repr

; 1510 :         goto Done;
; 1511 :     temp = PyList_GET_ITEM(pieces, PyList_GET_SIZE(pieces) - 1);

  00205	48 8b 4e 70	 mov	 rcx, QWORD PTR [rsi+112]
  00209	48 8b 56 60	 mov	 rdx, QWORD PTR [rsi+96]
  0020d	48 8b 54 d1 f8	 mov	 rdx, QWORD PTR [rcx+rdx*8-8]

; 1512 :     PyUnicode_AppendAndDel(&temp, s);

  00212	48 8d 4d 30	 lea	 rcx, QWORD PTR temp$[rbp-96]
  00216	48 89 55 30	 mov	 QWORD PTR temp$[rbp-96], rdx
  0021a	48 8b d0	 mov	 rdx, rax
  0021d	e8 00 00 00 00	 call	 PyUnicode_AppendAndDel

; 1513 :     PyList_SET_ITEM(pieces, PyList_GET_SIZE(pieces) - 1, temp);

  00222	4c 8b 5e 60	 mov	 r11, QWORD PTR [rsi+96]
  00226	48 8b 4e 70	 mov	 rcx, QWORD PTR [rsi+112]
  0022a	48 8b 45 30	 mov	 rax, QWORD PTR temp$[rbp-96]
  0022e	4a 89 44 d9 f8	 mov	 QWORD PTR [rcx+r11*8-8], rax

; 1514 :     if (temp == NULL)

  00233	4c 39 75 30	 cmp	 QWORD PTR temp$[rbp-96], r14
  00237	74 2c		 je	 SHORT $LN62@dict_repr

; 1515 :         goto Done;
; 1516 : 
; 1517 :     /* Paste them all together with ", " between. */
; 1518 :     s = PyUnicode_FromString(", ");

  00239	48 8d 0d 00 00
	00 00		 lea	 rcx, OFFSET FLAT:??_C@_02KEGNLNML@?0?5?$AA@
  00240	e8 00 00 00 00	 call	 PyUnicode_FromString
  00245	48 89 45 28	 mov	 QWORD PTR s$[rbp-96], rax

; 1519 :     if (s == NULL)

  00249	48 85 c0	 test	 rax, rax
  0024c	74 17		 je	 SHORT $LN62@dict_repr

; 1520 :         goto Done;
; 1521 :     result = PyUnicode_Join(s, pieces);

  0024e	48 8b d6	 mov	 rdx, rsi
  00251	48 8b c8	 mov	 rcx, rax
  00254	e8 00 00 00 00	 call	 PyUnicode_Join

; 1522 :     Py_DECREF(s);

  00259	48 8b 4d 28	 mov	 rcx, QWORD PTR s$[rbp-96]
  0025d	4c 8b f0	 mov	 r14, rax
  00260	e8 00 00 00 00	 call	 _Py_DecRef
$LN62@dict_repr:
  00265	48 8b 7c 24 48	 mov	 rdi, QWORD PTR [rsp+72]
  0026a	48 8b 5c 24 58	 mov	 rbx, QWORD PTR [rsp+88]
$Done$21242:

; 1523 : 
; 1524 : Done:
; 1525 :     Py_XDECREF(pieces);

  0026f	e8 00 00 00 00	 call	 _Py_PXCTX
  00274	85 c0		 test	 eax, eax
  00276	75 5c		 jne	 SHORT $LN7@dict_repr
  00278	48 8b 46 20	 mov	 rax, QWORD PTR [rsi+32]
  0027c	a8 20		 test	 al, 32			; 00000020H
  0027e	75 4c		 jne	 SHORT $LN38@dict_repr
  00280	84 c0		 test	 al, al
  00282	78 48		 js	 SHORT $LN38@dict_repr
  00284	a8 02		 test	 al, 2
  00286	75 4c		 jne	 SHORT $LN7@dict_repr
  00288	48 ff 4e 50	 dec	 QWORD PTR [rsi+80]
  0028c	75 46		 jne	 SHORT $LN7@dict_repr
  0028e	48 8d 15 00 00
	00 00		 lea	 rdx, OFFSET FLAT:??_C@_0CD@HDJFDCDP@c?3?2src?2pyparallel?2include?2object@
  00295	48 8d 0d 00 00
	00 00		 lea	 rcx, OFFSET FLAT:??_C@_0L@DMHMLFIA@_Py_DecRef?$AA@
  0029c	4c 8b ce	 mov	 r9, rsi
  0029f	41 b8 a4 03 00
	00		 mov	 r8d, 932		; 000003a4H
  002a5	c7 44 24 20 10
	00 00 00	 mov	 DWORD PTR [rsp+32], 16
  002ad	e8 00 00 00 00	 call	 _PyParallel_Guard
  002b2	48 8b ce	 mov	 rcx, rsi
  002b5	85 c0		 test	 eax, eax
  002b7	74 07		 je	 SHORT $LN43@dict_repr
  002b9	e8 00 00 00 00	 call	 _Px_Dealloc
  002be	eb 14		 jmp	 SHORT $LN7@dict_repr
$LN43@dict_repr:
  002c0	48 8b 46 58	 mov	 rax, QWORD PTR [rsi+88]
  002c4	ff 90 88 00 00
	00		 call	 QWORD PTR [rax+136]
  002ca	eb 08		 jmp	 SHORT $LN7@dict_repr
$LN38@dict_repr:
  002cc	48 8b ce	 mov	 rcx, rsi
  002cf	e8 00 00 00 00	 call	 Px_DecRef
$LN7@dict_repr:

; 1526 :     Py_XDECREF(colon);

  002d4	4d 85 e4	 test	 r12, r12
  002d7	74 68		 je	 SHORT $LN60@dict_repr
  002d9	e8 00 00 00 00	 call	 _Py_PXCTX
  002de	85 c0		 test	 eax, eax
  002e0	75 5f		 jne	 SHORT $LN60@dict_repr
  002e2	49 8b 44 24 20	 mov	 rax, QWORD PTR [r12+32]
  002e7	a8 20		 test	 al, 32			; 00000020H
  002e9	75 4e		 jne	 SHORT $LN49@dict_repr
  002eb	84 c0		 test	 al, al
  002ed	78 4a		 js	 SHORT $LN49@dict_repr
  002ef	a8 02		 test	 al, 2
  002f1	75 4e		 jne	 SHORT $LN60@dict_repr
  002f3	49 ff 4c 24 50	 dec	 QWORD PTR [r12+80]
  002f8	75 47		 jne	 SHORT $LN60@dict_repr
  002fa	48 8d 15 00 00
	00 00		 lea	 rdx, OFFSET FLAT:??_C@_0CD@HDJFDCDP@c?3?2src?2pyparallel?2include?2object@
  00301	48 8d 0d 00 00
	00 00		 lea	 rcx, OFFSET FLAT:??_C@_0L@DMHMLFIA@_Py_DecRef?$AA@
  00308	4d 8b cc	 mov	 r9, r12
  0030b	41 b8 a4 03 00
	00		 mov	 r8d, 932		; 000003a4H
  00311	c7 44 24 20 10
	00 00 00	 mov	 DWORD PTR [rsp+32], 16
  00319	e8 00 00 00 00	 call	 _PyParallel_Guard
  0031e	49 8b cc	 mov	 rcx, r12
  00321	85 c0		 test	 eax, eax
  00323	74 07		 je	 SHORT $LN54@dict_repr
  00325	e8 00 00 00 00	 call	 _Px_Dealloc
  0032a	eb 15		 jmp	 SHORT $LN60@dict_repr
$LN54@dict_repr:
  0032c	49 8b 44 24 58	 mov	 rax, QWORD PTR [r12+88]
  00331	ff 90 88 00 00
	00		 call	 QWORD PTR [rax+136]
  00337	eb 08		 jmp	 SHORT $LN60@dict_repr
$LN49@dict_repr:
  00339	49 8b cc	 mov	 rcx, r12
  0033c	e8 00 00 00 00	 call	 Px_DecRef
$LN60@dict_repr:
  00341	4c 8b 64 24 40	 mov	 r12, QWORD PTR [rsp+64]
$LN59@dict_repr:
  00346	48 8b 74 24 50	 mov	 rsi, QWORD PTR [rsp+80]
$LN3@dict_repr:

; 1527 :     Py_ReprLeave((PyObject *)mp);

  0034b	49 8b cd	 mov	 rcx, r13
  0034e	e8 00 00 00 00	 call	 Py_ReprLeave
$LN24@dict_repr:

; 1528 :     return result;

  00353	49 8b c6	 mov	 rax, r14

; 1529 : }

  00356	48 83 c4 60	 add	 rsp, 96			; 00000060H
  0035a	41 5e		 pop	 r14
  0035c	41 5d		 pop	 r13
  0035e	5d		 pop	 rbp
  0035f	c3		 ret	 0
dict_repr ENDP
; Function compile flags: /Ogtpy
_TEXT	ENDS
;	COMDAT dict_length
_TEXT	SEGMENT
mp$ = 8
dict_length PROC					; COMDAT

; 1534 :     return mp->ma_used;

  00000	48 8b 41 60	 mov	 rax, QWORD PTR [rcx+96]

; 1535 : }

  00004	c3		 ret	 0
dict_length ENDP
_TEXT	ENDS
EXTRN	PyObject_CallFunctionObjArgs:PROC
EXTRN	_PyObject_LookupSpecial:PROC
EXTRN	_tls_index:DWORD
;	COMDAT pdata
pdata	SEGMENT
$pdata$dict_subscript DD imagerel dict_subscript
	DD	imagerel dict_subscript+97
	DD	imagerel $unwind$dict_subscript
pdata	ENDS
;	COMDAT pdata
pdata	SEGMENT
$pdata$0$dict_subscript DD imagerel dict_subscript+97
	DD	imagerel dict_subscript+217
	DD	imagerel $chain$0$dict_subscript
pdata	ENDS
;	COMDAT pdata
pdata	SEGMENT
$pdata$2$dict_subscript DD imagerel dict_subscript+217
	DD	imagerel dict_subscript+253
	DD	imagerel $chain$2$dict_subscript
pdata	ENDS
;	COMDAT pdata
pdata	SEGMENT
$pdata$4$dict_subscript DD imagerel dict_subscript+253
	DD	imagerel dict_subscript+280
	DD	imagerel $chain$4$dict_subscript
pdata	ENDS
;	COMDAT xdata
xdata	SEGMENT
$chain$4$dict_subscript DD 020021H
	DD	067400H
	DD	imagerel dict_subscript
	DD	imagerel dict_subscript+97
	DD	imagerel $unwind$dict_subscript
xdata	ENDS
;	COMDAT xdata
xdata	SEGMENT
$chain$2$dict_subscript DD 020021H
	DD	067400H
	DD	imagerel dict_subscript
	DD	imagerel dict_subscript+97
	DD	imagerel $unwind$dict_subscript
xdata	ENDS
;	COMDAT xdata
xdata	SEGMENT
$chain$0$dict_subscript DD 020521H
	DD	067405H
	DD	imagerel dict_subscript
	DD	imagerel dict_subscript+97
	DD	imagerel $unwind$dict_subscript
xdata	ENDS
;	COMDAT xdata
xdata	SEGMENT
$unwind$dict_subscript DD 040a01H
	DD	08340aH
	DD	06006320aH
; Function compile flags: /Ogtpy
xdata	ENDS
;	COMDAT dict_subscript
_TEXT	SEGMENT
mp$ = 48
value_addr$ = 56
key$ = 56
dict_subscript PROC					; COMDAT

; 1539 : {

  00000	48 89 5c 24 18	 mov	 QWORD PTR [rsp+24], rbx
  00005	56		 push	 rsi
  00006	48 83 ec 20	 sub	 rsp, 32			; 00000020H

; 1540 :     PyObject *v;
; 1541 :     Py_hash_t hash;
; 1542 :     PyDictKeyEntry *ep;
; 1543 :     PyObject **value_addr;
; 1544 : 
; 1545 :     if (!PyUnicode_CheckExact(key) ||
; 1546 :         (hash = ((PyASCIIObject *) key)->hash) == -1) {

  0000a	48 8d 05 00 00
	00 00		 lea	 rax, OFFSET FLAT:PyUnicode_Type
  00011	48 8b da	 mov	 rbx, rdx
  00014	48 8b f1	 mov	 rsi, rcx
  00017	48 39 42 58	 cmp	 QWORD PTR [rdx+88], rax
  0001b	75 0a		 jne	 SHORT $LN9@dict_subsc
  0001d	4c 8b 42 68	 mov	 r8, QWORD PTR [rdx+104]
  00021	49 83 f8 ff	 cmp	 r8, -1
  00025	75 1e		 jne	 SHORT $LN8@dict_subsc
$LN9@dict_subsc:

; 1547 :         hash = PyObject_Hash(key);

  00027	48 8b ca	 mov	 rcx, rdx
  0002a	e8 00 00 00 00	 call	 PyObject_Hash
  0002f	4c 8b c0	 mov	 r8, rax

; 1548 :         if (hash == -1)

  00032	48 83 f8 ff	 cmp	 rax, -1
  00036	75 0d		 jne	 SHORT $LN8@dict_subsc
$LN15@dict_subsc:

; 1549 :             return NULL;

  00038	33 c0		 xor	 eax, eax

; 1575 :     return v;
; 1576 : }

  0003a	48 8b 5c 24 40	 mov	 rbx, QWORD PTR [rsp+64]
  0003f	48 83 c4 20	 add	 rsp, 32			; 00000020H
  00043	5e		 pop	 rsi
  00044	c3		 ret	 0
$LN8@dict_subsc:

; 1550 :     }
; 1551 :     ep = (mp->ma_keys->dk_lookup)(mp, key, hash, &value_addr);

  00045	48 8b 46 68	 mov	 rax, QWORD PTR [rsi+104]
  00049	4c 8d 4c 24 38	 lea	 r9, QWORD PTR value_addr$[rsp]
  0004e	48 8b d3	 mov	 rdx, rbx
  00051	48 8b ce	 mov	 rcx, rsi
  00054	ff 50 10	 call	 QWORD PTR [rax+16]

; 1552 :     if (ep == NULL)

  00057	48 85 c0	 test	 rax, rax

; 1553 :         return NULL;

  0005a	74 dc		 je	 SHORT $LN15@dict_subsc

; 1554 :     v = *value_addr;

  0005c	48 8b 44 24 38	 mov	 rax, QWORD PTR value_addr$[rsp]
  00061	48 89 7c 24 30	 mov	 QWORD PTR [rsp+48], rdi
  00066	48 8b 38	 mov	 rdi, QWORD PTR [rax]

; 1555 :     if (v == NULL) {

  00069	48 85 ff	 test	 rdi, rdi
  0006c	0f 85 8b 00 00
	00		 jne	 $LN6@dict_subsc

; 1556 :         if (!PyDict_CheckExact(mp)) {

  00072	48 8d 05 00 00
	00 00		 lea	 rax, OFFSET FLAT:PyDict_Type
  00079	48 39 46 58	 cmp	 QWORD PTR [rsi+88], rax
  0007d	74 64		 je	 SHORT $LN2@dict_subsc
  0007f	48 39 46 38	 cmp	 QWORD PTR [rsi+56], rax
  00083	74 5e		 je	 SHORT $LN2@dict_subsc

; 1557 :             /* Look up __missing__ method if we're a subclass. */
; 1558 :             PyObject *missing, *res;
; 1559 :             _Py_IDENTIFIER(__missing__);
; 1560 :             missing = _PyObject_LookupSpecial((PyObject *)mp, &PyId___missing__);

  00085	8b 0d 00 00 00
	00		 mov	 ecx, DWORD PTR _tls_index
  0008b	65 48 8b 04 25
	58 00 00 00	 mov	 rax, QWORD PTR gs:88
  00094	ba 00 00 00 00	 mov	 edx, OFFSET FLAT:?PyId___missing__@?4??dict_subscript@@9@9
  00099	48 03 14 c8	 add	 rdx, QWORD PTR [rax+rcx*8]
  0009d	48 8b ce	 mov	 rcx, rsi
  000a0	e8 00 00 00 00	 call	 _PyObject_LookupSpecial
  000a5	48 8b f8	 mov	 rdi, rax

; 1561 :             if (missing != NULL) {

  000a8	48 85 c0	 test	 rax, rax
  000ab	74 2c		 je	 SHORT $LN4@dict_subsc

; 1562 :                 res = PyObject_CallFunctionObjArgs(missing,
; 1563 :                                                    key, NULL);

  000ad	45 33 c0	 xor	 r8d, r8d
  000b0	48 8b d3	 mov	 rdx, rbx
  000b3	48 8b c8	 mov	 rcx, rax
  000b6	e8 00 00 00 00	 call	 PyObject_CallFunctionObjArgs

; 1564 :                 Py_DECREF(missing);

  000bb	48 8b cf	 mov	 rcx, rdi
  000be	48 8b d8	 mov	 rbx, rax
  000c1	e8 00 00 00 00	 call	 _Py_DecRef
  000c6	48 8b 7c 24 30	 mov	 rdi, QWORD PTR [rsp+48]

; 1565 :                 return res;

  000cb	48 8b c3	 mov	 rax, rbx

; 1575 :     return v;
; 1576 : }

  000ce	48 8b 5c 24 40	 mov	 rbx, QWORD PTR [rsp+64]
  000d3	48 83 c4 20	 add	 rsp, 32			; 00000020H
  000d7	5e		 pop	 rsi
  000d8	c3		 ret	 0
$LN4@dict_subsc:

; 1566 :             }
; 1567 :             else if (PyErr_Occurred())

  000d9	e8 00 00 00 00	 call	 PyErr_Occurred
  000de	48 85 c0	 test	 rax, rax

; 1568 :                 return NULL;

  000e1	75 08		 jne	 SHORT $LN14@dict_subsc
$LN2@dict_subsc:

; 1569 :         }
; 1570 :         set_key_error(key);

  000e3	48 8b cb	 mov	 rcx, rbx
  000e6	e8 00 00 00 00	 call	 set_key_error
$LN14@dict_subsc:

; 1571 :         return NULL;

  000eb	33 c0		 xor	 eax, eax
  000ed	48 8b 7c 24 30	 mov	 rdi, QWORD PTR [rsp+48]

; 1575 :     return v;
; 1576 : }

  000f2	48 8b 5c 24 40	 mov	 rbx, QWORD PTR [rsp+64]
  000f7	48 83 c4 20	 add	 rsp, 32			; 00000020H
  000fb	5e		 pop	 rsi
  000fc	c3		 ret	 0
$LN6@dict_subsc:

; 1572 :     }
; 1573 :     else
; 1574 :         Py_INCREF(v);

  000fd	48 8b cf	 mov	 rcx, rdi
  00100	e8 00 00 00 00	 call	 _Py_IncRef

; 1575 :     return v;
; 1576 : }

  00105	48 8b 5c 24 40	 mov	 rbx, QWORD PTR [rsp+64]
  0010a	48 8b c7	 mov	 rax, rdi
  0010d	48 8b 7c 24 30	 mov	 rdi, QWORD PTR [rsp+48]
  00112	48 83 c4 20	 add	 rsp, 32			; 00000020H
  00116	5e		 pop	 rsi
  00117	c3		 ret	 0
dict_subscript ENDP
_TEXT	ENDS
;	COMDAT pdata
; File c:\src\pyparallel\include\object.h
pdata	SEGMENT
$pdata$dict_keys DD imagerel dict_keys
	DD	imagerel dict_keys+235
	DD	imagerel $unwind$dict_keys
pdata	ENDS
;	COMDAT pdata
pdata	SEGMENT
$pdata$3$dict_keys DD imagerel dict_keys+235
	DD	imagerel dict_keys+346
	DD	imagerel $chain$3$dict_keys
pdata	ENDS
;	COMDAT pdata
pdata	SEGMENT
$pdata$4$dict_keys DD imagerel dict_keys+346
	DD	imagerel dict_keys+372
	DD	imagerel $chain$4$dict_keys
pdata	ENDS
;	COMDAT xdata
xdata	SEGMENT
$chain$4$dict_keys DD 021H
	DD	imagerel dict_keys
	DD	imagerel dict_keys+235
	DD	imagerel $unwind$dict_keys
xdata	ENDS
;	COMDAT xdata
xdata	SEGMENT
$chain$3$dict_keys DD 020521H
	DD	0cd405H
	DD	imagerel dict_keys
	DD	imagerel dict_keys+235
	DD	imagerel $unwind$dict_keys
xdata	ENDS
;	COMDAT xdata
xdata	SEGMENT
$unwind$dict_keys DD 0acf01H
	DD	0de4cfH
	DD	0bc4c6H
	DD	0a54b9H
	DD	070045208H
	DD	030026003H
; Function compile flags: /Ogtpy
; File c:\src\pyparallel\objects\dictobject.c
xdata	ENDS
;	COMDAT dict_keys
_TEXT	SEGMENT
mp$ = 80
dict_keys PROC						; COMDAT

; 1595 : {

  00000	40 53		 push	 rbx
  00002	56		 push	 rsi
  00003	57		 push	 rdi
  00004	48 83 ec 30	 sub	 rsp, 48			; 00000030H

; 1596 :     register PyObject *v;
; 1597 :     register Py_ssize_t i, j;
; 1598 :     PyDictKeyEntry *ep;
; 1599 :     Py_ssize_t size, n, offset;
; 1600 :     PyObject **value_ptr;
; 1601 : 
; 1602 :   again:
; 1603 :     n = mp->ma_used;

  00008	48 8b 79 60	 mov	 rdi, QWORD PTR [rcx+96]
  0000c	48 8b f1	 mov	 rsi, rcx

; 1604 :     v = PyList_New(n);

  0000f	48 8b cf	 mov	 rcx, rdi
  00012	e8 00 00 00 00	 call	 PyList_New
  00017	48 8b d8	 mov	 rbx, rax

; 1605 :     if (v == NULL)

  0001a	48 85 c0	 test	 rax, rax
  0001d	0f 84 87 00 00
	00		 je	 $LN28@dict_keys
$again$21366:

; 1607 :     if (n != mp->ma_used) {

  00023	48 3b 7e 60	 cmp	 rdi, QWORD PTR [rsi+96]
  00027	0f 84 87 00 00
	00		 je	 $LN7@dict_keys

; 1608 :         /* Durnit.  The allocations caused the dict to resize.
; 1609 :          * Just start over, this shouldn't normally happen.
; 1610 :          */
; 1611 :         Py_DECREF(v);

  0002d	e8 00 00 00 00	 call	 _Py_PXCTX
  00032	85 c0		 test	 eax, eax
  00034	75 5c		 jne	 SHORT $LN21@dict_keys
  00036	48 8b 43 20	 mov	 rax, QWORD PTR [rbx+32]
  0003a	a8 20		 test	 al, 32			; 00000020H
  0003c	75 4c		 jne	 SHORT $LN15@dict_keys
  0003e	84 c0		 test	 al, al
  00040	78 48		 js	 SHORT $LN15@dict_keys
  00042	a8 02		 test	 al, 2
  00044	75 4c		 jne	 SHORT $LN21@dict_keys
  00046	48 ff 4b 50	 dec	 QWORD PTR [rbx+80]
  0004a	75 46		 jne	 SHORT $LN21@dict_keys
  0004c	48 8d 15 00 00
	00 00		 lea	 rdx, OFFSET FLAT:??_C@_0CD@HDJFDCDP@c?3?2src?2pyparallel?2include?2object@
  00053	48 8d 0d 00 00
	00 00		 lea	 rcx, OFFSET FLAT:??_C@_0L@DMHMLFIA@_Py_DecRef?$AA@
  0005a	4c 8b cb	 mov	 r9, rbx
  0005d	41 b8 a4 03 00
	00		 mov	 r8d, 932		; 000003a4H
  00063	c7 44 24 20 10
	00 00 00	 mov	 DWORD PTR [rsp+32], 16
  0006b	e8 00 00 00 00	 call	 _PyParallel_Guard
  00070	48 8b cb	 mov	 rcx, rbx
  00073	85 c0		 test	 eax, eax
  00075	74 07		 je	 SHORT $LN20@dict_keys
  00077	e8 00 00 00 00	 call	 _Px_Dealloc
  0007c	eb 14		 jmp	 SHORT $LN21@dict_keys
$LN20@dict_keys:
  0007e	48 8b 43 58	 mov	 rax, QWORD PTR [rbx+88]
  00082	ff 90 88 00 00
	00		 call	 QWORD PTR [rax+136]
  00088	eb 08		 jmp	 SHORT $LN21@dict_keys
$LN15@dict_keys:
  0008a	48 8b cb	 mov	 rcx, rbx
  0008d	e8 00 00 00 00	 call	 Px_DecRef
$LN21@dict_keys:

; 1604 :     v = PyList_New(n);

  00092	48 8b 7e 60	 mov	 rdi, QWORD PTR [rsi+96]
  00096	48 8b cf	 mov	 rcx, rdi
  00099	e8 00 00 00 00	 call	 PyList_New
  0009e	48 8b d8	 mov	 rbx, rax

; 1605 :     if (v == NULL)

  000a1	48 85 c0	 test	 rax, rax
  000a4	0f 85 79 ff ff
	ff		 jne	 $again$21366
$LN28@dict_keys:

; 1606 :         return NULL;

  000aa	33 c0		 xor	 eax, eax

; 1635 : }

  000ac	48 83 c4 30	 add	 rsp, 48			; 00000030H
  000b0	5f		 pop	 rdi
  000b1	5e		 pop	 rsi
  000b2	5b		 pop	 rbx
  000b3	c3		 ret	 0
$LN7@dict_keys:
  000b4	48 89 6c 24 50	 mov	 QWORD PTR [rsp+80], rbp

; 1612 :         goto again;
; 1613 :     }
; 1614 :     ep = &mp->ma_keys->dk_entries[0];

  000b9	48 8b 6e 68	 mov	 rbp, QWORD PTR [rsi+104]

; 1615 :     size = DK_SIZE(mp->ma_keys);
; 1616 :     if (mp->ma_values) {

  000bd	48 8b 76 70	 mov	 rsi, QWORD PTR [rsi+112]
  000c1	4c 89 64 24 58	 mov	 QWORD PTR [rsp+88], r12
  000c6	4c 8b 65 08	 mov	 r12, QWORD PTR [rbp+8]
  000ca	4c 89 74 24 68	 mov	 QWORD PTR [rsp+104], r14
  000cf	48 85 f6	 test	 rsi, rsi
  000d2	74 08		 je	 SHORT $LN6@dict_keys

; 1617 :         value_ptr = mp->ma_values;
; 1618 :         offset = sizeof(PyObject *);

  000d4	41 be 08 00 00
	00		 mov	 r14d, 8

; 1619 :     }
; 1620 :     else {

  000da	eb 0a		 jmp	 SHORT $LN5@dict_keys
$LN6@dict_keys:

; 1621 :         value_ptr = &ep[0].me_value;

  000dc	48 8d 75 30	 lea	 rsi, QWORD PTR [rbp+48]

; 1622 :         offset = sizeof(PyDictKeyEntry);

  000e0	41 be 18 00 00
	00		 mov	 r14d, 24
$LN5@dict_keys:

; 1623 :     }
; 1624 :     for (i = 0, j = 0; i < size; i++) {

  000e6	4d 85 e4	 test	 r12, r12
  000e9	7e 6f		 jle	 SHORT $LN2@dict_keys
  000eb	4c 89 6c 24 60	 mov	 QWORD PTR [rsp+96], r13
  000f0	45 33 ed	 xor	 r13d, r13d
  000f3	48 83 c5 28	 add	 rbp, 40			; 00000028H
$LL4@dict_keys:

; 1625 :         if (*value_ptr != NULL) {

  000f7	48 83 3e 00	 cmp	 QWORD PTR [rsi], 0
  000fb	74 4c		 je	 SHORT $LN1@dict_keys

; 1626 :             PyObject *key = ep[i].me_key;

  000fd	48 8b 7d 00	 mov	 rdi, QWORD PTR [rbp]

; 1627 :             Py_INCREF(key);

  00101	e8 00 00 00 00	 call	 _Py_PXCTX
  00106	85 c0		 test	 eax, eax
  00108	75 32		 jne	 SHORT $LN23@dict_keys
  0010a	48 8d 15 00 00
	00 00		 lea	 rdx, OFFSET FLAT:??_C@_0CD@HDJFDCDP@c?3?2src?2pyparallel?2include?2object@
  00111	48 8d 0d 00 00
	00 00		 lea	 rcx, OFFSET FLAT:??_C@_0L@DHGMCEID@_Py_IncRef?$AA@
  00118	4c 8b cf	 mov	 r9, rdi
  0011b	41 b8 89 03 00
	00		 mov	 r8d, 905		; 00000389H
  00121	c7 44 24 20 02
	00 00 00	 mov	 DWORD PTR [rsp+32], 2
  00129	e8 00 00 00 00	 call	 _PyParallel_Guard
  0012e	85 c0		 test	 eax, eax
  00130	75 06		 jne	 SHORT $LN22@dict_keys
  00132	f6 47 20 20	 test	 BYTE PTR [rdi+32], 32	; 00000020H
  00136	74 04		 je	 SHORT $LN23@dict_keys
$LN22@dict_keys:
  00138	48 ff 47 50	 inc	 QWORD PTR [rdi+80]
$LN23@dict_keys:

; 1628 :             PyList_SET_ITEM(v, j, key);

  0013c	48 8b 43 70	 mov	 rax, QWORD PTR [rbx+112]

; 1629 :             j++;

  00140	49 83 c5 08	 add	 r13, 8
  00144	49 89 7c 05 f8	 mov	 QWORD PTR [r13+rax-8], rdi
$LN1@dict_keys:

; 1630 :         }
; 1631 :         value_ptr = (PyObject **)(((char *)value_ptr) + offset);

  00149	49 03 f6	 add	 rsi, r14
  0014c	48 83 c5 18	 add	 rbp, 24
  00150	49 ff cc	 dec	 r12
  00153	75 a2		 jne	 SHORT $LL4@dict_keys
  00155	4c 8b 6c 24 60	 mov	 r13, QWORD PTR [rsp+96]
$LN2@dict_keys:
  0015a	4c 8b 74 24 68	 mov	 r14, QWORD PTR [rsp+104]
  0015f	4c 8b 64 24 58	 mov	 r12, QWORD PTR [rsp+88]
  00164	48 8b 6c 24 50	 mov	 rbp, QWORD PTR [rsp+80]

; 1632 :     }
; 1633 :     assert(j == n);
; 1634 :     return v;

  00169	48 8b c3	 mov	 rax, rbx

; 1635 : }

  0016c	48 83 c4 30	 add	 rsp, 48			; 00000030H
  00170	5f		 pop	 rdi
  00171	5e		 pop	 rsi
  00172	5b		 pop	 rbx
  00173	c3		 ret	 0
dict_keys ENDP
_TEXT	ENDS
;	COMDAT pdata
; File c:\src\pyparallel\include\object.h
pdata	SEGMENT
$pdata$dict_values DD imagerel dict_values
	DD	imagerel dict_values+230
	DD	imagerel $unwind$dict_values
pdata	ENDS
;	COMDAT pdata
pdata	SEGMENT
$pdata$2$dict_values DD imagerel dict_values+230
	DD	imagerel dict_values+333
	DD	imagerel $chain$2$dict_values
pdata	ENDS
;	COMDAT pdata
pdata	SEGMENT
$pdata$3$dict_values DD imagerel dict_values+333
	DD	imagerel dict_values+354
	DD	imagerel $chain$3$dict_values
pdata	ENDS
;	COMDAT xdata
xdata	SEGMENT
$chain$3$dict_values DD 021H
	DD	imagerel dict_values
	DD	imagerel dict_values+230
	DD	imagerel $unwind$dict_values
xdata	ENDS
;	COMDAT xdata
xdata	SEGMENT
$chain$2$dict_values DD 020521H
	DD	0bc405H
	DD	imagerel dict_values
	DD	imagerel dict_values+230
	DD	imagerel $unwind$dict_values
xdata	ENDS
;	COMDAT xdata
xdata	SEGMENT
$unwind$dict_values DD 08ca01H
	DD	0cd4caH
	DD	0a54c1H
	DD	070045208H
	DD	030026003H
; Function compile flags: /Ogtpy
; File c:\src\pyparallel\objects\dictobject.c
xdata	ENDS
;	COMDAT dict_values
_TEXT	SEGMENT
mp$ = 80
dict_values PROC					; COMDAT

; 1639 : {

  00000	40 53		 push	 rbx
  00002	56		 push	 rsi
  00003	57		 push	 rdi
  00004	48 83 ec 30	 sub	 rsp, 48			; 00000030H

; 1640 :     register PyObject *v;
; 1641 :     register Py_ssize_t i, j;
; 1642 :     Py_ssize_t size, n, offset;
; 1643 :     PyObject **value_ptr;
; 1644 : 
; 1645 :   again:
; 1646 :     n = mp->ma_used;

  00008	48 8b 79 60	 mov	 rdi, QWORD PTR [rcx+96]
  0000c	48 8b f1	 mov	 rsi, rcx

; 1647 :     v = PyList_New(n);

  0000f	48 8b cf	 mov	 rcx, rdi
  00012	e8 00 00 00 00	 call	 PyList_New
  00017	48 8b d8	 mov	 rbx, rax

; 1648 :     if (v == NULL)

  0001a	48 85 c0	 test	 rax, rax
  0001d	0f 84 87 00 00
	00		 je	 $LN28@dict_value
$again$21398:

; 1650 :     if (n != mp->ma_used) {

  00023	48 3b 7e 60	 cmp	 rdi, QWORD PTR [rsi+96]
  00027	0f 84 87 00 00
	00		 je	 $LN7@dict_value

; 1651 :         /* Durnit.  The allocations caused the dict to resize.
; 1652 :          * Just start over, this shouldn't normally happen.
; 1653 :          */
; 1654 :         Py_DECREF(v);

  0002d	e8 00 00 00 00	 call	 _Py_PXCTX
  00032	85 c0		 test	 eax, eax
  00034	75 5c		 jne	 SHORT $LN21@dict_value
  00036	48 8b 43 20	 mov	 rax, QWORD PTR [rbx+32]
  0003a	a8 20		 test	 al, 32			; 00000020H
  0003c	75 4c		 jne	 SHORT $LN15@dict_value
  0003e	84 c0		 test	 al, al
  00040	78 48		 js	 SHORT $LN15@dict_value
  00042	a8 02		 test	 al, 2
  00044	75 4c		 jne	 SHORT $LN21@dict_value
  00046	48 ff 4b 50	 dec	 QWORD PTR [rbx+80]
  0004a	75 46		 jne	 SHORT $LN21@dict_value
  0004c	48 8d 15 00 00
	00 00		 lea	 rdx, OFFSET FLAT:??_C@_0CD@HDJFDCDP@c?3?2src?2pyparallel?2include?2object@
  00053	48 8d 0d 00 00
	00 00		 lea	 rcx, OFFSET FLAT:??_C@_0L@DMHMLFIA@_Py_DecRef?$AA@
  0005a	4c 8b cb	 mov	 r9, rbx
  0005d	41 b8 a4 03 00
	00		 mov	 r8d, 932		; 000003a4H
  00063	c7 44 24 20 10
	00 00 00	 mov	 DWORD PTR [rsp+32], 16
  0006b	e8 00 00 00 00	 call	 _PyParallel_Guard
  00070	48 8b cb	 mov	 rcx, rbx
  00073	85 c0		 test	 eax, eax
  00075	74 07		 je	 SHORT $LN20@dict_value
  00077	e8 00 00 00 00	 call	 _Px_Dealloc
  0007c	eb 14		 jmp	 SHORT $LN21@dict_value
$LN20@dict_value:
  0007e	48 8b 43 58	 mov	 rax, QWORD PTR [rbx+88]
  00082	ff 90 88 00 00
	00		 call	 QWORD PTR [rax+136]
  00088	eb 08		 jmp	 SHORT $LN21@dict_value
$LN15@dict_value:
  0008a	48 8b cb	 mov	 rcx, rbx
  0008d	e8 00 00 00 00	 call	 Px_DecRef
$LN21@dict_value:

; 1647 :     v = PyList_New(n);

  00092	48 8b 7e 60	 mov	 rdi, QWORD PTR [rsi+96]
  00096	48 8b cf	 mov	 rcx, rdi
  00099	e8 00 00 00 00	 call	 PyList_New
  0009e	48 8b d8	 mov	 rbx, rax

; 1648 :     if (v == NULL)

  000a1	48 85 c0	 test	 rax, rax
  000a4	0f 85 79 ff ff
	ff		 jne	 $again$21398
$LN28@dict_value:

; 1649 :         return NULL;

  000aa	33 c0		 xor	 eax, eax

; 1677 : }

  000ac	48 83 c4 30	 add	 rsp, 48			; 00000030H
  000b0	5f		 pop	 rdi
  000b1	5e		 pop	 rsi
  000b2	5b		 pop	 rbx
  000b3	c3		 ret	 0
$LN7@dict_value:

; 1655 :         goto again;
; 1656 :     }
; 1657 :     size = DK_SIZE(mp->ma_keys);

  000b4	48 8b 46 68	 mov	 rax, QWORD PTR [rsi+104]

; 1658 :     if (mp->ma_values) {

  000b8	48 8b 76 70	 mov	 rsi, QWORD PTR [rsi+112]
  000bc	48 89 6c 24 50	 mov	 QWORD PTR [rsp+80], rbp
  000c1	48 8b 68 08	 mov	 rbp, QWORD PTR [rax+8]
  000c5	4c 89 6c 24 60	 mov	 QWORD PTR [rsp+96], r13
  000ca	48 85 f6	 test	 rsi, rsi
  000cd	74 08		 je	 SHORT $LN6@dict_value

; 1659 :         value_ptr = mp->ma_values;
; 1660 :         offset = sizeof(PyObject *);

  000cf	41 bd 08 00 00
	00		 mov	 r13d, 8

; 1661 :     }
; 1662 :     else {

  000d5	eb 0a		 jmp	 SHORT $LN5@dict_value
$LN6@dict_value:

; 1663 :         value_ptr = &mp->ma_keys->dk_entries[0].me_value;

  000d7	48 8d 70 30	 lea	 rsi, QWORD PTR [rax+48]

; 1664 :         offset = sizeof(PyDictKeyEntry);

  000db	41 bd 18 00 00
	00		 mov	 r13d, 24
$LN5@dict_value:

; 1665 :     }
; 1666 :     for (i = 0, j = 0; i < size; i++) {

  000e1	48 85 ed	 test	 rbp, rbp
  000e4	7e 67		 jle	 SHORT $LN2@dict_value
  000e6	4c 89 64 24 58	 mov	 QWORD PTR [rsp+88], r12
  000eb	45 33 e4	 xor	 r12d, r12d
  000ee	66 90		 npad	 2
$LL4@dict_value:

; 1667 :         PyObject *value = *value_ptr;

  000f0	48 8b 3e	 mov	 rdi, QWORD PTR [rsi]

; 1668 :         value_ptr = (PyObject **)(((char *)value_ptr) + offset);

  000f3	49 03 f5	 add	 rsi, r13

; 1669 :         if (value != NULL) {

  000f6	48 85 ff	 test	 rdi, rdi
  000f9	74 48		 je	 SHORT $LN3@dict_value

; 1670 :             Py_INCREF(value);

  000fb	e8 00 00 00 00	 call	 _Py_PXCTX
  00100	85 c0		 test	 eax, eax
  00102	75 32		 jne	 SHORT $LN23@dict_value
  00104	48 8d 15 00 00
	00 00		 lea	 rdx, OFFSET FLAT:??_C@_0CD@HDJFDCDP@c?3?2src?2pyparallel?2include?2object@
  0010b	48 8d 0d 00 00
	00 00		 lea	 rcx, OFFSET FLAT:??_C@_0L@DHGMCEID@_Py_IncRef?$AA@
  00112	4c 8b cf	 mov	 r9, rdi
  00115	41 b8 89 03 00
	00		 mov	 r8d, 905		; 00000389H
  0011b	c7 44 24 20 02
	00 00 00	 mov	 DWORD PTR [rsp+32], 2
  00123	e8 00 00 00 00	 call	 _PyParallel_Guard
  00128	85 c0		 test	 eax, eax
  0012a	75 06		 jne	 SHORT $LN22@dict_value
  0012c	f6 47 20 20	 test	 BYTE PTR [rdi+32], 32	; 00000020H
  00130	74 04		 je	 SHORT $LN23@dict_value
$LN22@dict_value:
  00132	48 ff 47 50	 inc	 QWORD PTR [rdi+80]
$LN23@dict_value:

; 1671 :             PyList_SET_ITEM(v, j, value);

  00136	48 8b 43 70	 mov	 rax, QWORD PTR [rbx+112]

; 1672 :             j++;

  0013a	49 83 c4 08	 add	 r12, 8
  0013e	49 89 7c 04 f8	 mov	 QWORD PTR [r12+rax-8], rdi
$LN3@dict_value:

; 1665 :     }
; 1666 :     for (i = 0, j = 0; i < size; i++) {

  00143	48 ff cd	 dec	 rbp
  00146	75 a8		 jne	 SHORT $LL4@dict_value
  00148	4c 8b 64 24 58	 mov	 r12, QWORD PTR [rsp+88]
$LN2@dict_value:
  0014d	4c 8b 6c 24 60	 mov	 r13, QWORD PTR [rsp+96]
  00152	48 8b 6c 24 50	 mov	 rbp, QWORD PTR [rsp+80]

; 1673 :         }
; 1674 :     }
; 1675 :     assert(j == n);
; 1676 :     return v;

  00157	48 8b c3	 mov	 rax, rbx

; 1677 : }

  0015a	48 83 c4 30	 add	 rsp, 48			; 00000030H
  0015e	5f		 pop	 rdi
  0015f	5e		 pop	 rsi
  00160	5b		 pop	 rbx
  00161	c3		 ret	 0
dict_values ENDP
_TEXT	ENDS
EXTRN	PyTuple_New:PROC
;	COMDAT pdata
; File c:\src\pyparallel\include\object.h
pdata	SEGMENT
$pdata$dict_items DD imagerel dict_items
	DD	imagerel dict_items+378
	DD	imagerel $unwind$dict_items
pdata	ENDS
;	COMDAT pdata
pdata	SEGMENT
$pdata$1$dict_items DD imagerel dict_items+378
	DD	imagerel dict_items+424
	DD	imagerel $chain$1$dict_items
pdata	ENDS
;	COMDAT pdata
pdata	SEGMENT
$pdata$3$dict_items DD imagerel dict_items+424
	DD	imagerel dict_items+639
	DD	imagerel $chain$3$dict_items
pdata	ENDS
;	COMDAT pdata
pdata	SEGMENT
$pdata$4$dict_items DD imagerel dict_items+639
	DD	imagerel dict_items+661
	DD	imagerel $chain$4$dict_items
pdata	ENDS
;	COMDAT xdata
xdata	SEGMENT
$chain$4$dict_items DD 021H
	DD	imagerel dict_items+378
	DD	imagerel dict_items+424
	DD	imagerel $chain$1$dict_items
xdata	ENDS
;	COMDAT xdata
xdata	SEGMENT
$chain$3$dict_items DD 040e21H
	DD	0fe40eH
	DD	0dc405H
	DD	imagerel dict_items+378
	DD	imagerel dict_items+424
	DD	imagerel $chain$1$dict_items
xdata	ENDS
;	COMDAT xdata
xdata	SEGMENT
$chain$1$dict_items DD 040e21H
	DD	06f40eH
	DD	0ed405H
	DD	imagerel dict_items
	DD	imagerel dict_items+378
	DD	imagerel $unwind$dict_items
xdata	ENDS
;	COMDAT xdata
xdata	SEGMENT
$unwind$dict_items DD 050901H
	DD	070056209H
	DD	050036004H
	DD	03002H
; Function compile flags: /Ogtpy
; File c:\src\pyparallel\objects\dictobject.c
xdata	ENDS
;	COMDAT dict_items
_TEXT	SEGMENT
tv386 = 96
mp$ = 96
dict_items PROC						; COMDAT

; 1681 : {

  00000	40 53		 push	 rbx
  00002	55		 push	 rbp
  00003	56		 push	 rsi
  00004	57		 push	 rdi
  00005	48 83 ec 38	 sub	 rsp, 56			; 00000038H

; 1682 :     register PyObject *v;
; 1683 :     register Py_ssize_t i, j, n;
; 1684 :     Py_ssize_t size, offset;
; 1685 :     PyObject *item, *key;
; 1686 :     PyDictKeyEntry *ep;
; 1687 :     PyObject **value_ptr;
; 1688 : 
; 1689 :     /* Preallocate the list of tuples, to avoid allocations during
; 1690 :      * the loop over the items, which could trigger GC, which
; 1691 :      * could resize the dict. :-(
; 1692 :      */
; 1693 :   again:
; 1694 :     n = mp->ma_used;

  00009	48 8b 71 60	 mov	 rsi, QWORD PTR [rcx+96]
  0000d	48 8b e9	 mov	 rbp, rcx

; 1695 :     v = PyList_New(n);

  00010	48 8b ce	 mov	 rcx, rsi
  00013	e8 00 00 00 00	 call	 PyList_New
  00018	48 8b d8	 mov	 rbx, rax

; 1696 :     if (v == NULL)

  0001b	48 85 c0	 test	 rax, rax
  0001e	0f 84 1b 01 00
	00		 je	 $LN49@dict_items
  00024	33 c9		 xor	 ecx, ecx
  00026	48 89 4c 24 60	 mov	 QWORD PTR tv386[rsp], rcx
  0002b	0f 1f 44 00 00	 npad	 5
$again$21433:

; 1698 :     for (i = 0; i < n; i++) {

  00030	48 8b f9	 mov	 rdi, rcx
  00033	48 85 f6	 test	 rsi, rsi
  00036	7e 2e		 jle	 SHORT $LN9@dict_items
  00038	0f 1f 84 00 00
	00 00 00	 npad	 8
$LL11@dict_items:

; 1699 :         item = PyTuple_New(2);

  00040	b9 02 00 00 00	 mov	 ecx, 2
  00045	e8 00 00 00 00	 call	 PyTuple_New

; 1700 :         if (item == NULL) {

  0004a	48 85 c0	 test	 rax, rax
  0004d	0f 84 9d 00 00
	00		 je	 $LN48@dict_items

; 1702 :             return NULL;
; 1703 :         }
; 1704 :         PyList_SET_ITEM(v, i, item);

  00053	48 8b 4b 70	 mov	 rcx, QWORD PTR [rbx+112]
  00057	48 ff c7	 inc	 rdi
  0005a	48 89 44 f9 f8	 mov	 QWORD PTR [rcx+rdi*8-8], rax
  0005f	48 3b fe	 cmp	 rdi, rsi
  00062	7c dc		 jl	 SHORT $LL11@dict_items
  00064	33 c9		 xor	 ecx, ecx
$LN9@dict_items:

; 1705 :     }
; 1706 :     if (n != mp->ma_used) {

  00066	48 3b 75 60	 cmp	 rsi, QWORD PTR [rbp+96]
  0006a	0f 84 02 01 00
	00		 je	 $LN7@dict_items

; 1707 :         /* Durnit.  The allocations caused the dict to resize.
; 1708 :          * Just start over, this shouldn't normally happen.
; 1709 :          */
; 1710 :         Py_DECREF(v);

  00070	e8 00 00 00 00	 call	 _Py_PXCTX
  00075	85 c0		 test	 eax, eax
  00077	75 5c		 jne	 SHORT $LN36@dict_items
  00079	48 8b 43 20	 mov	 rax, QWORD PTR [rbx+32]
  0007d	a8 20		 test	 al, 32			; 00000020H
  0007f	75 4c		 jne	 SHORT $LN30@dict_items
  00081	84 c0		 test	 al, al
  00083	78 48		 js	 SHORT $LN30@dict_items
  00085	a8 02		 test	 al, 2
  00087	75 4c		 jne	 SHORT $LN36@dict_items
  00089	48 ff 4b 50	 dec	 QWORD PTR [rbx+80]
  0008d	75 46		 jne	 SHORT $LN36@dict_items
  0008f	48 8d 15 00 00
	00 00		 lea	 rdx, OFFSET FLAT:??_C@_0CD@HDJFDCDP@c?3?2src?2pyparallel?2include?2object@
  00096	48 8d 0d 00 00
	00 00		 lea	 rcx, OFFSET FLAT:??_C@_0L@DMHMLFIA@_Py_DecRef?$AA@
  0009d	4c 8b cb	 mov	 r9, rbx
  000a0	41 b8 a4 03 00
	00		 mov	 r8d, 932		; 000003a4H
  000a6	c7 44 24 20 10
	00 00 00	 mov	 DWORD PTR [rsp+32], 16
  000ae	e8 00 00 00 00	 call	 _PyParallel_Guard
  000b3	48 8b cb	 mov	 rcx, rbx
  000b6	85 c0		 test	 eax, eax
  000b8	74 07		 je	 SHORT $LN35@dict_items
  000ba	e8 00 00 00 00	 call	 _Px_Dealloc
  000bf	eb 14		 jmp	 SHORT $LN36@dict_items
$LN35@dict_items:
  000c1	48 8b 43 58	 mov	 rax, QWORD PTR [rbx+88]
  000c5	ff 90 88 00 00
	00		 call	 QWORD PTR [rax+136]
  000cb	eb 08		 jmp	 SHORT $LN36@dict_items
$LN30@dict_items:
  000cd	48 8b cb	 mov	 rcx, rbx
  000d0	e8 00 00 00 00	 call	 Px_DecRef
$LN36@dict_items:

; 1695 :     v = PyList_New(n);

  000d5	48 8b 75 60	 mov	 rsi, QWORD PTR [rbp+96]
  000d9	48 8b ce	 mov	 rcx, rsi
  000dc	e8 00 00 00 00	 call	 PyList_New
  000e1	48 8b d8	 mov	 rbx, rax

; 1696 :     if (v == NULL)

  000e4	48 85 c0	 test	 rax, rax
  000e7	74 56		 je	 SHORT $LN49@dict_items
  000e9	33 c9		 xor	 ecx, ecx
  000eb	e9 40 ff ff ff	 jmp	 $again$21433
$LN48@dict_items:

; 1701 :             Py_DECREF(v);

  000f0	e8 00 00 00 00	 call	 _Py_PXCTX
  000f5	85 c0		 test	 eax, eax
  000f7	75 46		 jne	 SHORT $LN49@dict_items
  000f9	48 8b 43 20	 mov	 rax, QWORD PTR [rbx+32]
  000fd	a8 20		 test	 al, 32			; 00000020H
  000ff	75 5e		 jne	 SHORT $LN19@dict_items
  00101	84 c0		 test	 al, al
  00103	78 5a		 js	 SHORT $LN19@dict_items
  00105	a8 02		 test	 al, 2
  00107	75 36		 jne	 SHORT $LN49@dict_items
  00109	48 ff 4b 50	 dec	 QWORD PTR [rbx+80]
  0010d	75 30		 jne	 SHORT $LN49@dict_items
  0010f	48 8d 15 00 00
	00 00		 lea	 rdx, OFFSET FLAT:??_C@_0CD@HDJFDCDP@c?3?2src?2pyparallel?2include?2object@
  00116	48 8d 0d 00 00
	00 00		 lea	 rcx, OFFSET FLAT:??_C@_0L@DMHMLFIA@_Py_DecRef?$AA@
  0011d	4c 8b cb	 mov	 r9, rbx
  00120	41 b8 a4 03 00
	00		 mov	 r8d, 932		; 000003a4H
  00126	c7 44 24 20 10
	00 00 00	 mov	 DWORD PTR [rsp+32], 16
  0012e	e8 00 00 00 00	 call	 _PyParallel_Guard
  00133	48 8b cb	 mov	 rcx, rbx
  00136	85 c0		 test	 eax, eax
  00138	74 10		 je	 SHORT $LN24@dict_items
  0013a	e8 00 00 00 00	 call	 _Px_Dealloc
$LN49@dict_items:

; 1697 :         return NULL;

  0013f	33 c0		 xor	 eax, eax

; 1739 : }

  00141	48 83 c4 38	 add	 rsp, 56			; 00000038H
  00145	5f		 pop	 rdi
  00146	5e		 pop	 rsi
  00147	5d		 pop	 rbp
  00148	5b		 pop	 rbx
  00149	c3		 ret	 0

; 1701 :             Py_DECREF(v);

$LN24@dict_items:
  0014a	48 8b 43 58	 mov	 rax, QWORD PTR [rbx+88]
  0014e	ff 90 88 00 00
	00		 call	 QWORD PTR [rax+136]
  00154	33 c0		 xor	 eax, eax

; 1739 : }

  00156	48 83 c4 38	 add	 rsp, 56			; 00000038H
  0015a	5f		 pop	 rdi
  0015b	5e		 pop	 rsi
  0015c	5d		 pop	 rbp
  0015d	5b		 pop	 rbx
  0015e	c3		 ret	 0

; 1701 :             Py_DECREF(v);

$LN19@dict_items:
  0015f	48 8b cb	 mov	 rcx, rbx
  00162	e8 00 00 00 00	 call	 Px_DecRef
  00167	33 c0		 xor	 eax, eax

; 1739 : }

  00169	48 83 c4 38	 add	 rsp, 56			; 00000038H
  0016d	5f		 pop	 rdi
  0016e	5e		 pop	 rsi
  0016f	5d		 pop	 rbp
  00170	5b		 pop	 rbx
  00171	c3		 ret	 0
$LN7@dict_items:

; 1711 :         goto again;
; 1712 :     }
; 1713 :     /* Nothing we do below makes any function calls. */
; 1714 :     ep = mp->ma_keys->dk_entries;

  00172	48 8b 45 68	 mov	 rax, QWORD PTR [rbp+104]

; 1715 :     size = DK_SIZE(mp->ma_keys);
; 1716 :     if (mp->ma_values) {

  00176	48 8b 6d 70	 mov	 rbp, QWORD PTR [rbp+112]
  0017a	4c 89 6c 24 70	 mov	 QWORD PTR [rsp+112], r13
  0017f	4c 8b 68 08	 mov	 r13, QWORD PTR [rax+8]
  00183	4c 89 7c 24 30	 mov	 QWORD PTR [rsp+48], r15
  00188	48 85 ed	 test	 rbp, rbp
  0018b	74 08		 je	 SHORT $LN6@dict_items

; 1717 :         value_ptr = mp->ma_values;
; 1718 :         offset = sizeof(PyObject *);

  0018d	41 bf 08 00 00
	00		 mov	 r15d, 8

; 1719 :     }
; 1720 :     else {

  00193	eb 0a		 jmp	 SHORT $LN5@dict_items
$LN6@dict_items:

; 1721 :         value_ptr = &ep[0].me_value;

  00195	48 8d 68 30	 lea	 rbp, QWORD PTR [rax+48]

; 1722 :         offset = sizeof(PyDictKeyEntry);

  00199	41 bf 18 00 00
	00		 mov	 r15d, 24
$LN5@dict_items:

; 1723 :     }
; 1724 :     for (i = 0, j = 0; i < size; i++) {

  0019f	4d 85 ed	 test	 r13, r13
  001a2	0f 8e d7 00 00
	00		 jle	 $LN2@dict_items
  001a8	4c 89 64 24 68	 mov	 QWORD PTR [rsp+104], r12
  001ad	4c 8d 60 28	 lea	 r12, QWORD PTR [rax+40]
  001b1	4c 89 74 24 78	 mov	 QWORD PTR [rsp+120], r14
  001b6	66 66 0f 1f 84
	00 00 00 00 00	 npad	 10
$LL4@dict_items:

; 1725 :         PyObject *value = *value_ptr;

  001c0	48 8b 7d 00	 mov	 rdi, QWORD PTR [rbp]

; 1726 :         value_ptr = (PyObject **)(((char *)value_ptr) + offset);

  001c4	49 03 ef	 add	 rbp, r15

; 1727 :         if (value != NULL) {

  001c7	48 85 ff	 test	 rdi, rdi
  001ca	0f 84 98 00 00
	00		 je	 $LN3@dict_items

; 1728 :             key = ep[i].me_key;
; 1729 :             item = PyList_GET_ITEM(v, j);

  001d0	48 8b 43 70	 mov	 rax, QWORD PTR [rbx+112]
  001d4	49 8b 34 24	 mov	 rsi, QWORD PTR [r12]
  001d8	4c 8b 34 01	 mov	 r14, QWORD PTR [rcx+rax]

; 1730 :             Py_INCREF(key);

  001dc	e8 00 00 00 00	 call	 _Py_PXCTX
  001e1	85 c0		 test	 eax, eax
  001e3	75 32		 jne	 SHORT $LN38@dict_items
  001e5	48 8d 15 00 00
	00 00		 lea	 rdx, OFFSET FLAT:??_C@_0CD@HDJFDCDP@c?3?2src?2pyparallel?2include?2object@
  001ec	48 8d 0d 00 00
	00 00		 lea	 rcx, OFFSET FLAT:??_C@_0L@DHGMCEID@_Py_IncRef?$AA@
  001f3	4c 8b ce	 mov	 r9, rsi
  001f6	41 b8 89 03 00
	00		 mov	 r8d, 905		; 00000389H
  001fc	c7 44 24 20 02
	00 00 00	 mov	 DWORD PTR [rsp+32], 2
  00204	e8 00 00 00 00	 call	 _PyParallel_Guard
  00209	85 c0		 test	 eax, eax
  0020b	75 06		 jne	 SHORT $LN37@dict_items
  0020d	f6 46 20 20	 test	 BYTE PTR [rsi+32], 32	; 00000020H
  00211	74 04		 je	 SHORT $LN38@dict_items
$LN37@dict_items:
  00213	48 ff 46 50	 inc	 QWORD PTR [rsi+80]
$LN38@dict_items:

; 1731 :             PyTuple_SET_ITEM(item, 0, key);

  00217	49 89 76 70	 mov	 QWORD PTR [r14+112], rsi

; 1732 :             Py_INCREF(value);

  0021b	e8 00 00 00 00	 call	 _Py_PXCTX
  00220	85 c0		 test	 eax, eax
  00222	75 32		 jne	 SHORT $LN42@dict_items
  00224	48 8d 15 00 00
	00 00		 lea	 rdx, OFFSET FLAT:??_C@_0CD@HDJFDCDP@c?3?2src?2pyparallel?2include?2object@
  0022b	48 8d 0d 00 00
	00 00		 lea	 rcx, OFFSET FLAT:??_C@_0L@DHGMCEID@_Py_IncRef?$AA@
  00232	4c 8b cf	 mov	 r9, rdi
  00235	41 b8 89 03 00
	00		 mov	 r8d, 905		; 00000389H
  0023b	c7 44 24 20 02
	00 00 00	 mov	 DWORD PTR [rsp+32], 2
  00243	e8 00 00 00 00	 call	 _PyParallel_Guard
  00248	85 c0		 test	 eax, eax
  0024a	75 06		 jne	 SHORT $LN41@dict_items
  0024c	f6 47 20 20	 test	 BYTE PTR [rdi+32], 32	; 00000020H
  00250	74 04		 je	 SHORT $LN42@dict_items
$LN41@dict_items:
  00252	48 ff 47 50	 inc	 QWORD PTR [rdi+80]
$LN42@dict_items:

; 1733 :             PyTuple_SET_ITEM(item, 1, value);
; 1734 :             j++;

  00256	48 8b 4c 24 60	 mov	 rcx, QWORD PTR tv386[rsp]
  0025b	49 89 7e 78	 mov	 QWORD PTR [r14+120], rdi
  0025f	48 83 c1 08	 add	 rcx, 8
  00263	48 89 4c 24 60	 mov	 QWORD PTR tv386[rsp], rcx
$LN3@dict_items:

; 1723 :     }
; 1724 :     for (i = 0, j = 0; i < size; i++) {

  00268	49 83 c4 18	 add	 r12, 24
  0026c	49 ff cd	 dec	 r13
  0026f	0f 85 4b ff ff
	ff		 jne	 $LL4@dict_items
  00275	4c 8b 74 24 78	 mov	 r14, QWORD PTR [rsp+120]
  0027a	4c 8b 64 24 68	 mov	 r12, QWORD PTR [rsp+104]
$LN2@dict_items:
  0027f	4c 8b 7c 24 30	 mov	 r15, QWORD PTR [rsp+48]
  00284	4c 8b 6c 24 70	 mov	 r13, QWORD PTR [rsp+112]

; 1735 :         }
; 1736 :     }
; 1737 :     assert(j == n);
; 1738 :     return v;

  00289	48 8b c3	 mov	 rax, rbx

; 1739 : }

  0028c	48 83 c4 38	 add	 rsp, 56			; 00000038H
  00290	5f		 pop	 rdi
  00291	5e		 pop	 rsi
  00292	5d		 pop	 rbp
  00293	5b		 pop	 rbx
  00294	c3		 ret	 0
dict_items ENDP
_TEXT	ENDS
PUBLIC	PyDict_Size
;	COMDAT pdata
pdata	SEGMENT
$pdata$PyDict_Size DD imagerel $LN5
	DD	imagerel $LN5+60
	DD	imagerel $unwind$PyDict_Size
pdata	ENDS
;	COMDAT xdata
xdata	SEGMENT
$unwind$PyDict_Size DD 010401H
	DD	04204H
; Function compile flags: /Ogtpy
xdata	ENDS
;	COMDAT PyDict_Size
_TEXT	SEGMENT
mp$ = 48
PyDict_Size PROC					; COMDAT

; 2119 : {

$LN5:
  00000	48 83 ec 28	 sub	 rsp, 40			; 00000028H

; 2120 :     if (mp == NULL || !PyDict_Check(mp)) {

  00004	48 85 c9	 test	 rcx, rcx
  00007	74 19		 je	 SHORT $LN1@PyDict_Siz
  00009	48 8b 41 58	 mov	 rax, QWORD PTR [rcx+88]
  0000d	f7 80 00 01 00
	00 00 00 00 20	 test	 DWORD PTR [rax+256], 536870912 ; 20000000H
  00017	74 09		 je	 SHORT $LN1@PyDict_Siz

; 2123 :     }
; 2124 : 
; 2125 :     return ((PyDictObject *)mp)->ma_used;

  00019	48 8b 41 60	 mov	 rax, QWORD PTR [rcx+96]

; 2126 : }

  0001d	48 83 c4 28	 add	 rsp, 40			; 00000028H
  00021	c3		 ret	 0
$LN1@PyDict_Siz:

; 2121 :         PyErr_BadInternalCall();

  00022	48 8d 0d 00 00
	00 00		 lea	 rcx, OFFSET FLAT:??_C@_0BI@LNHGAPGK@?4?4?2Objects?2dictobject?4c?$AA@
  00029	ba 49 08 00 00	 mov	 edx, 2121		; 00000849H
  0002e	e8 00 00 00 00	 call	 _PyErr_BadInternalCall

; 2122 :         return -1;

  00033	48 83 c8 ff	 or	 rax, -1

; 2126 : }

  00037	48 83 c4 28	 add	 rsp, 40			; 00000028H
  0003b	c3		 ret	 0
PyDict_Size ENDP
_TEXT	ENDS
PUBLIC	PyDict_Keys
;	COMDAT pdata
pdata	SEGMENT
$pdata$PyDict_Keys DD imagerel $LN5
	DD	imagerel $LN5+58
	DD	imagerel $unwind$PyDict_Keys
pdata	ENDS
;	COMDAT xdata
xdata	SEGMENT
$unwind$PyDict_Keys DD 010401H
	DD	04204H
; Function compile flags: /Ogtpy
xdata	ENDS
;	COMDAT PyDict_Keys
_TEXT	SEGMENT
mp$ = 48
PyDict_Keys PROC					; COMDAT

; 2130 : {

$LN5:
  00000	48 83 ec 28	 sub	 rsp, 40			; 00000028H

; 2131 :     if (mp == NULL || !PyDict_Check(mp)) {

  00004	48 85 c9	 test	 rcx, rcx
  00007	74 19		 je	 SHORT $LN1@PyDict_Key
  00009	48 8b 41 58	 mov	 rax, QWORD PTR [rcx+88]
  0000d	f7 80 00 01 00
	00 00 00 00 20	 test	 DWORD PTR [rax+256], 536870912 ; 20000000H
  00017	74 09		 je	 SHORT $LN1@PyDict_Key

; 2134 :     }
; 2135 : 
; 2136 :     return dict_keys((PyDictObject *)mp);
; 2137 : }

  00019	48 83 c4 28	 add	 rsp, 40			; 00000028H
  0001d	e9 00 00 00 00	 jmp	 dict_keys
$LN1@PyDict_Key:

; 2132 :         PyErr_BadInternalCall();

  00022	48 8d 0d 00 00
	00 00		 lea	 rcx, OFFSET FLAT:??_C@_0BI@LNHGAPGK@?4?4?2Objects?2dictobject?4c?$AA@
  00029	ba 54 08 00 00	 mov	 edx, 2132		; 00000854H
  0002e	e8 00 00 00 00	 call	 _PyErr_BadInternalCall

; 2133 :         return NULL;

  00033	33 c0		 xor	 eax, eax

; 2134 :     }
; 2135 : 
; 2136 :     return dict_keys((PyDictObject *)mp);
; 2137 : }

  00035	48 83 c4 28	 add	 rsp, 40			; 00000028H
  00039	c3		 ret	 0
PyDict_Keys ENDP
_TEXT	ENDS
PUBLIC	PyDict_Values
;	COMDAT pdata
pdata	SEGMENT
$pdata$PyDict_Values DD imagerel $LN5
	DD	imagerel $LN5+58
	DD	imagerel $unwind$PyDict_Values
pdata	ENDS
;	COMDAT xdata
xdata	SEGMENT
$unwind$PyDict_Values DD 010401H
	DD	04204H
; Function compile flags: /Ogtpy
xdata	ENDS
;	COMDAT PyDict_Values
_TEXT	SEGMENT
mp$ = 48
PyDict_Values PROC					; COMDAT

; 2141 : {

$LN5:
  00000	48 83 ec 28	 sub	 rsp, 40			; 00000028H

; 2142 :     if (mp == NULL || !PyDict_Check(mp)) {

  00004	48 85 c9	 test	 rcx, rcx
  00007	74 19		 je	 SHORT $LN1@PyDict_Val
  00009	48 8b 41 58	 mov	 rax, QWORD PTR [rcx+88]
  0000d	f7 80 00 01 00
	00 00 00 00 20	 test	 DWORD PTR [rax+256], 536870912 ; 20000000H
  00017	74 09		 je	 SHORT $LN1@PyDict_Val

; 2145 :     }
; 2146 : 
; 2147 :     return dict_values((PyDictObject *)mp);
; 2148 : }

  00019	48 83 c4 28	 add	 rsp, 40			; 00000028H
  0001d	e9 00 00 00 00	 jmp	 dict_values
$LN1@PyDict_Val:

; 2143 :         PyErr_BadInternalCall();

  00022	48 8d 0d 00 00
	00 00		 lea	 rcx, OFFSET FLAT:??_C@_0BI@LNHGAPGK@?4?4?2Objects?2dictobject?4c?$AA@
  00029	ba 5f 08 00 00	 mov	 edx, 2143		; 0000085fH
  0002e	e8 00 00 00 00	 call	 _PyErr_BadInternalCall

; 2144 :         return NULL;

  00033	33 c0		 xor	 eax, eax

; 2145 :     }
; 2146 : 
; 2147 :     return dict_values((PyDictObject *)mp);
; 2148 : }

  00035	48 83 c4 28	 add	 rsp, 40			; 00000028H
  00039	c3		 ret	 0
PyDict_Values ENDP
_TEXT	ENDS
PUBLIC	PyDict_Items
;	COMDAT pdata
pdata	SEGMENT
$pdata$PyDict_Items DD imagerel $LN5
	DD	imagerel $LN5+58
	DD	imagerel $unwind$PyDict_Items
pdata	ENDS
;	COMDAT xdata
xdata	SEGMENT
$unwind$PyDict_Items DD 010401H
	DD	04204H
; Function compile flags: /Ogtpy
xdata	ENDS
;	COMDAT PyDict_Items
_TEXT	SEGMENT
mp$ = 48
PyDict_Items PROC					; COMDAT

; 2152 : {

$LN5:
  00000	48 83 ec 28	 sub	 rsp, 40			; 00000028H

; 2153 :     if (mp == NULL || !PyDict_Check(mp)) {

  00004	48 85 c9	 test	 rcx, rcx
  00007	74 19		 je	 SHORT $LN1@PyDict_Ite
  00009	48 8b 41 58	 mov	 rax, QWORD PTR [rcx+88]
  0000d	f7 80 00 01 00
	00 00 00 00 20	 test	 DWORD PTR [rax+256], 536870912 ; 20000000H
  00017	74 09		 je	 SHORT $LN1@PyDict_Ite

; 2156 :     }
; 2157 : 
; 2158 :     return dict_items((PyDictObject *)mp);
; 2159 : }

  00019	48 83 c4 28	 add	 rsp, 40			; 00000028H
  0001d	e9 00 00 00 00	 jmp	 dict_items
$LN1@PyDict_Ite:

; 2154 :         PyErr_BadInternalCall();

  00022	48 8d 0d 00 00
	00 00		 lea	 rcx, OFFSET FLAT:??_C@_0BI@LNHGAPGK@?4?4?2Objects?2dictobject?4c?$AA@
  00029	ba 6a 08 00 00	 mov	 edx, 2154		; 0000086aH
  0002e	e8 00 00 00 00	 call	 _PyErr_BadInternalCall

; 2155 :         return NULL;

  00033	33 c0		 xor	 eax, eax

; 2156 :     }
; 2157 : 
; 2158 :     return dict_items((PyDictObject *)mp);
; 2159 : }

  00035	48 83 c4 28	 add	 rsp, 40			; 00000028H
  00039	c3		 ret	 0
PyDict_Items ENDP
_TEXT	ENDS
;	COMDAT pdata
; File c:\src\pyparallel\include\object.h
pdata	SEGMENT
$pdata$dict_equal DD imagerel dict_equal
	DD	imagerel dict_equal+39
	DD	imagerel $unwind$dict_equal
pdata	ENDS
;	COMDAT pdata
pdata	SEGMENT
$pdata$4$dict_equal DD imagerel dict_equal+39
	DD	imagerel dict_equal+350
	DD	imagerel $chain$4$dict_equal
pdata	ENDS
;	COMDAT pdata
pdata	SEGMENT
$pdata$6$dict_equal DD imagerel dict_equal+350
	DD	imagerel dict_equal+371
	DD	imagerel $chain$6$dict_equal
pdata	ENDS
;	COMDAT xdata
xdata	SEGMENT
$chain$6$dict_equal DD 0a0021H
	DD	06c400H
	DD	0d7400H
	DD	0c6400H
	DD	0b5400H
	DD	0a3400H
	DD	imagerel dict_equal
	DD	imagerel dict_equal+39
	DD	imagerel $unwind$dict_equal
xdata	ENDS
;	COMDAT xdata
xdata	SEGMENT
$chain$4$dict_equal DD 0a1b21H
	DD	06c41bH
	DD	0d7416H
	DD	0c640fH
	DD	0b540aH
	DD	0a3405H
	DD	imagerel dict_equal
	DD	imagerel dict_equal+39
	DD	imagerel $unwind$dict_equal
xdata	ENDS
;	COMDAT xdata
xdata	SEGMENT
$unwind$dict_equal DD 030801H
	DD	0e0046208H
	DD	0d002H
; Function compile flags: /Ogtpy
; File c:\src\pyparallel\objects\dictobject.c
xdata	ENDS
;	COMDAT dict_equal
_TEXT	SEGMENT
a$ = 80
b$ = 88
dict_equal PROC						; COMDAT

; 2167 : {

  00000	41 55		 push	 r13
  00002	41 56		 push	 r14
  00004	48 83 ec 38	 sub	 rsp, 56			; 00000038H

; 2168 :     Py_ssize_t i;
; 2169 : 
; 2170 : 
; 2171 :     if (a->ma_used != b->ma_used)

  00008	48 8b 42 60	 mov	 rax, QWORD PTR [rdx+96]
  0000c	4c 8b f2	 mov	 r14, rdx
  0000f	4c 8b e9	 mov	 r13, rcx
  00012	48 39 41 60	 cmp	 QWORD PTR [rcx+96], rax
  00016	74 0b		 je	 SHORT $LN10@dict_equal

; 2172 :         /* can't be equal if # of entries differ */
; 2173 :         return 0;

  00018	33 c0		 xor	 eax, eax

; 2206 : }

  0001a	48 83 c4 38	 add	 rsp, 56			; 00000038H
  0001e	41 5e		 pop	 r14
  00020	41 5d		 pop	 r13
  00022	c3		 ret	 0
$LN10@dict_equal:

; 2174 :     /* Same # of entries -- check all of 'em.  Exit early on any diff. */
; 2175 :     for (i = 0; i < DK_SIZE(a->ma_keys); i++) {

  00023	48 8b 41 68	 mov	 rax, QWORD PTR [rcx+104]
  00027	48 89 5c 24 50	 mov	 QWORD PTR [rsp+80], rbx
  0002c	48 89 6c 24 58	 mov	 QWORD PTR [rsp+88], rbp
  00031	48 89 74 24 60	 mov	 QWORD PTR [rsp+96], rsi
  00036	33 f6		 xor	 esi, esi
  00038	48 89 7c 24 68	 mov	 QWORD PTR [rsp+104], rdi
  0003d	4c 89 64 24 30	 mov	 QWORD PTR [rsp+48], r12
  00042	48 39 70 08	 cmp	 QWORD PTR [rax+8], rsi
  00046	0f 8e eb 00 00
	00		 jle	 $LN25@dict_equal
  0004c	8b ee		 mov	 ebp, esi
  0004e	66 90		 npad	 2
$LL9@dict_equal:

; 2176 :         PyDictKeyEntry *ep = &a->ma_keys->dk_entries[i];
; 2177 :         PyObject *aval;
; 2178 :         if (a->ma_values)

  00050	49 8b 5d 70	 mov	 rbx, QWORD PTR [r13+112]
  00054	48 85 db	 test	 rbx, rbx
  00057	74 06		 je	 SHORT $LN6@dict_equal

; 2179 :             aval = a->ma_values[i];

  00059	48 8b 1c f3	 mov	 rbx, QWORD PTR [rbx+rsi*8]

; 2180 :         else

  0005d	eb 05		 jmp	 SHORT $LN5@dict_equal
$LN6@dict_equal:

; 2181 :             aval = ep->me_value;

  0005f	48 8b 5c 28 30	 mov	 rbx, QWORD PTR [rax+rbp+48]
$LN5@dict_equal:

; 2182 :         if (aval != NULL) {

  00064	48 85 db	 test	 rbx, rbx
  00067	0f 84 b5 00 00
	00		 je	 $LN8@dict_equal

; 2183 :             int cmp;
; 2184 :             PyObject *bval;
; 2185 :             PyObject *key = ep->me_key;

  0006d	48 8b 7c 28 28	 mov	 rdi, QWORD PTR [rax+rbp+40]

; 2186 :             /* temporarily bump aval's refcount to ensure it stays
; 2187 :                alive until we're done with it */
; 2188 :             Py_INCREF(aval);

  00072	e8 00 00 00 00	 call	 _Py_PXCTX
  00077	85 c0		 test	 eax, eax
  00079	75 32		 jne	 SHORT $LN14@dict_equal
  0007b	48 8d 15 00 00
	00 00		 lea	 rdx, OFFSET FLAT:??_C@_0CD@HDJFDCDP@c?3?2src?2pyparallel?2include?2object@
  00082	48 8d 0d 00 00
	00 00		 lea	 rcx, OFFSET FLAT:??_C@_0L@DHGMCEID@_Py_IncRef?$AA@
  00089	4c 8b cb	 mov	 r9, rbx
  0008c	41 b8 89 03 00
	00		 mov	 r8d, 905		; 00000389H
  00092	c7 44 24 20 02
	00 00 00	 mov	 DWORD PTR [rsp+32], 2
  0009a	e8 00 00 00 00	 call	 _PyParallel_Guard
  0009f	85 c0		 test	 eax, eax
  000a1	75 06		 jne	 SHORT $LN13@dict_equal
  000a3	f6 43 20 20	 test	 BYTE PTR [rbx+32], 32	; 00000020H
  000a7	74 04		 je	 SHORT $LN14@dict_equal
$LN13@dict_equal:
  000a9	48 ff 43 50	 inc	 QWORD PTR [rbx+80]
$LN14@dict_equal:

; 2189 :             /* ditto for key */
; 2190 :             Py_INCREF(key);

  000ad	e8 00 00 00 00	 call	 _Py_PXCTX
  000b2	85 c0		 test	 eax, eax
  000b4	75 32		 jne	 SHORT $LN18@dict_equal
  000b6	48 8d 15 00 00
	00 00		 lea	 rdx, OFFSET FLAT:??_C@_0CD@HDJFDCDP@c?3?2src?2pyparallel?2include?2object@
  000bd	48 8d 0d 00 00
	00 00		 lea	 rcx, OFFSET FLAT:??_C@_0L@DHGMCEID@_Py_IncRef?$AA@
  000c4	4c 8b cf	 mov	 r9, rdi
  000c7	41 b8 89 03 00
	00		 mov	 r8d, 905		; 00000389H
  000cd	c7 44 24 20 02
	00 00 00	 mov	 DWORD PTR [rsp+32], 2
  000d5	e8 00 00 00 00	 call	 _PyParallel_Guard
  000da	85 c0		 test	 eax, eax
  000dc	75 06		 jne	 SHORT $LN17@dict_equal
  000de	f6 47 20 20	 test	 BYTE PTR [rdi+32], 32	; 00000020H
  000e2	74 04		 je	 SHORT $LN18@dict_equal
$LN17@dict_equal:
  000e4	48 ff 47 50	 inc	 QWORD PTR [rdi+80]
$LN18@dict_equal:

; 2191 :             bval = PyDict_GetItemWithError((PyObject *)b, key);

  000e8	48 8b d7	 mov	 rdx, rdi
  000eb	49 8b ce	 mov	 rcx, r14
  000ee	e8 00 00 00 00	 call	 PyDict_GetItemWithError

; 2192 :             Py_DECREF(key);

  000f3	48 8b cf	 mov	 rcx, rdi
  000f6	4c 8b e0	 mov	 r12, rax
  000f9	e8 00 00 00 00	 call	 _Py_DecRef

; 2198 :             }
; 2199 :             cmp = PyObject_RichCompareBool(aval, bval, Py_EQ);

  000fe	48 8b cb	 mov	 rcx, rbx
  00101	4d 85 e4	 test	 r12, r12
  00104	74 5c		 je	 SHORT $LN22@dict_equal
  00106	41 b8 02 00 00
	00		 mov	 r8d, 2
  0010c	49 8b d4	 mov	 rdx, r12
  0010f	e8 00 00 00 00	 call	 PyObject_RichCompareBool

; 2200 :             Py_DECREF(aval);

  00114	48 8b cb	 mov	 rcx, rbx
  00117	8b f8		 mov	 edi, eax
  00119	e8 00 00 00 00	 call	 _Py_DecRef

; 2201 :             if (cmp <= 0)  /* error or not equal */

  0011e	85 ff		 test	 edi, edi
  00120	7e 3c		 jle	 SHORT $LN23@dict_equal
$LN8@dict_equal:

; 2174 :     /* Same # of entries -- check all of 'em.  Exit early on any diff. */
; 2175 :     for (i = 0; i < DK_SIZE(a->ma_keys); i++) {

  00122	49 8b 45 68	 mov	 rax, QWORD PTR [r13+104]
  00126	48 ff c6	 inc	 rsi
  00129	48 83 c5 18	 add	 rbp, 24
  0012d	48 3b 70 08	 cmp	 rsi, QWORD PTR [rax+8]
  00131	0f 8c 19 ff ff
	ff		 jl	 $LL9@dict_equal
$LN25@dict_equal:

; 2203 :         }
; 2204 :     }
; 2205 :     return 1;

  00137	b8 01 00 00 00	 mov	 eax, 1
$LN30@dict_equal:
  0013c	48 8b 7c 24 68	 mov	 rdi, QWORD PTR [rsp+104]
  00141	48 8b 74 24 60	 mov	 rsi, QWORD PTR [rsp+96]
  00146	48 8b 6c 24 58	 mov	 rbp, QWORD PTR [rsp+88]
  0014b	48 8b 5c 24 50	 mov	 rbx, QWORD PTR [rsp+80]
  00150	4c 8b 64 24 30	 mov	 r12, QWORD PTR [rsp+48]

; 2206 : }

  00155	48 83 c4 38	 add	 rsp, 56			; 00000038H
  00159	41 5e		 pop	 r14
  0015b	41 5d		 pop	 r13
  0015d	c3		 ret	 0
$LN23@dict_equal:

; 2202 :                 return cmp;

  0015e	8b c7		 mov	 eax, edi
  00160	eb da		 jmp	 SHORT $LN30@dict_equal
$LN22@dict_equal:

; 2193 :             if (bval == NULL) {
; 2194 :                 Py_DECREF(aval);

  00162	e8 00 00 00 00	 call	 _Py_DecRef

; 2195 :                 if (PyErr_Occurred())

  00167	e8 00 00 00 00	 call	 PyErr_Occurred
  0016c	48 f7 d8	 neg	 rax
  0016f	1b c0		 sbb	 eax, eax

; 2196 :                     return -1;
; 2197 :                 return 0;

  00171	eb c9		 jmp	 SHORT $LN30@dict_equal
dict_equal ENDP
_TEXT	ENDS
EXTRN	_Py_NotImplementedStruct:BYTE
EXTRN	_Py_FalseStruct:BYTE
EXTRN	_Py_TrueStruct:BYTE
;	COMDAT pdata
; File c:\src\pyparallel\include\object.h
pdata	SEGMENT
$pdata$dict_richcompare DD imagerel dict_richcompare
	DD	imagerel dict_richcompare+177
	DD	imagerel $unwind$dict_richcompare
pdata	ENDS
;	COMDAT xdata
xdata	SEGMENT
$unwind$dict_richcompare DD 020601H
	DD	030025206H
; Function compile flags: /Ogtpy
; File c:\src\pyparallel\objects\dictobject.c
xdata	ENDS
;	COMDAT dict_richcompare
_TEXT	SEGMENT
v$ = 64
w$ = 72
op$ = 80
dict_richcompare PROC					; COMDAT

; 2210 : {

  00000	40 53		 push	 rbx
  00002	48 83 ec 30	 sub	 rsp, 48			; 00000030H

; 2211 :     int cmp;
; 2212 :     PyObject *res;
; 2213 : 
; 2214 :     if (!PyDict_Check(v) || !PyDict_Check(w)) {

  00006	48 8b 41 58	 mov	 rax, QWORD PTR [rcx+88]
  0000a	41 8b d8	 mov	 ebx, r8d
  0000d	f7 80 00 01 00
	00 00 00 00 20	 test	 DWORD PTR [rax+256], 536870912 ; 20000000H
  00017	74 4d		 je	 SHORT $LN6@dict_richc
  00019	48 8b 42 58	 mov	 rax, QWORD PTR [rdx+88]
  0001d	f7 80 00 01 00
	00 00 00 00 20	 test	 DWORD PTR [rax+256], 536870912 ; 20000000H
  00027	74 3d		 je	 SHORT $LN6@dict_richc

; 2216 :     }
; 2217 :     else if (op == Py_EQ || op == Py_NE) {

  00029	83 fb 02	 cmp	 ebx, 2
  0002c	74 05		 je	 SHORT $LN3@dict_richc
  0002e	83 fb 03	 cmp	 ebx, 3

; 2224 :         res = Py_NotImplemented;

  00031	75 33		 jne	 SHORT $LN6@dict_richc
$LN3@dict_richc:

; 2218 :         cmp = dict_equal((PyDictObject *)v, (PyDictObject *)w);

  00033	e8 00 00 00 00	 call	 dict_equal
  00038	44 8b d8	 mov	 r11d, eax

; 2219 :         if (cmp < 0)

  0003b	85 c0		 test	 eax, eax
  0003d	79 08		 jns	 SHORT $LN2@dict_richc

; 2220 :             return NULL;

  0003f	33 c0		 xor	 eax, eax

; 2227 : }

  00041	48 83 c4 30	 add	 rsp, 48			; 00000030H
  00045	5b		 pop	 rbx
  00046	c3		 ret	 0
$LN2@dict_richc:

; 2221 :         res = (cmp == (op == Py_EQ)) ? Py_True : Py_False;

  00047	33 c0		 xor	 eax, eax
  00049	83 fb 02	 cmp	 ebx, 2
  0004c	48 8d 0d 00 00
	00 00		 lea	 rcx, OFFSET FLAT:_Py_TrueStruct
  00053	0f 94 c0	 sete	 al
  00056	48 8d 1d 00 00
	00 00		 lea	 rbx, OFFSET FLAT:_Py_FalseStruct
  0005d	44 3b d8	 cmp	 r11d, eax
  00060	48 0f 44 d9	 cmove	 rbx, rcx

; 2222 :     }
; 2223 :     else

  00064	eb 07		 jmp	 SHORT $LN1@dict_richc
$LN6@dict_richc:

; 2215 :         res = Py_NotImplemented;

  00066	48 8d 1d 00 00
	00 00		 lea	 rbx, OFFSET FLAT:_Py_NotImplementedStruct
$LN1@dict_richc:

; 2225 :     Py_INCREF(res);

  0006d	e8 00 00 00 00	 call	 _Py_PXCTX
  00072	85 c0		 test	 eax, eax
  00074	75 32		 jne	 SHORT $LN11@dict_richc
  00076	48 8d 15 00 00
	00 00		 lea	 rdx, OFFSET FLAT:??_C@_0CD@HDJFDCDP@c?3?2src?2pyparallel?2include?2object@
  0007d	48 8d 0d 00 00
	00 00		 lea	 rcx, OFFSET FLAT:??_C@_0L@DHGMCEID@_Py_IncRef?$AA@
  00084	4c 8b cb	 mov	 r9, rbx
  00087	41 b8 89 03 00
	00		 mov	 r8d, 905		; 00000389H
  0008d	c7 44 24 20 02
	00 00 00	 mov	 DWORD PTR [rsp+32], 2
  00095	e8 00 00 00 00	 call	 _PyParallel_Guard
  0009a	85 c0		 test	 eax, eax
  0009c	75 06		 jne	 SHORT $LN10@dict_richc
  0009e	f6 43 20 20	 test	 BYTE PTR [rbx+32], 32	; 00000020H
  000a2	74 04		 je	 SHORT $LN11@dict_richc
$LN10@dict_richc:
  000a4	48 ff 43 50	 inc	 QWORD PTR [rbx+80]
$LN11@dict_richc:

; 2226 :     return res;

  000a8	48 8b c3	 mov	 rax, rbx

; 2227 : }

  000ab	48 83 c4 30	 add	 rsp, 48			; 00000030H
  000af	5b		 pop	 rbx
  000b0	c3		 ret	 0
dict_richcompare ENDP
_TEXT	ENDS
EXTRN	PyBool_FromLong:PROC
;	COMDAT pdata
pdata	SEGMENT
$pdata$dict_contains DD imagerel dict_contains
	DD	imagerel dict_contains+121
	DD	imagerel $unwind$dict_contains
pdata	ENDS
;	COMDAT xdata
xdata	SEGMENT
$unwind$dict_contains DD 040a01H
	DD	06340aH
	DD	07006320aH
; Function compile flags: /Ogtpy
xdata	ENDS
;	COMDAT dict_contains
_TEXT	SEGMENT
mp$ = 48
value_addr$ = 56
key$ = 56
dict_contains PROC					; COMDAT

; 2231 : {

  00000	48 89 5c 24 08	 mov	 QWORD PTR [rsp+8], rbx
  00005	57		 push	 rdi
  00006	48 83 ec 20	 sub	 rsp, 32			; 00000020H

; 2232 :     Py_hash_t hash;
; 2233 :     PyDictKeyEntry *ep;
; 2234 :     PyObject **value_addr;
; 2235 : 
; 2236 :     if (!PyUnicode_CheckExact(key) ||
; 2237 :         (hash = ((PyASCIIObject *) key)->hash) == -1) {

  0000a	48 8d 05 00 00
	00 00		 lea	 rax, OFFSET FLAT:PyUnicode_Type
  00011	48 8b da	 mov	 rbx, rdx
  00014	48 8b f9	 mov	 rdi, rcx
  00017	48 39 42 58	 cmp	 QWORD PTR [rdx+88], rax
  0001b	75 0a		 jne	 SHORT $LN3@dict_conta
  0001d	4c 8b 42 68	 mov	 r8, QWORD PTR [rdx+104]
  00021	49 83 f8 ff	 cmp	 r8, -1
  00025	75 1e		 jne	 SHORT $LN2@dict_conta
$LN3@dict_conta:

; 2238 :         hash = PyObject_Hash(key);

  00027	48 8b ca	 mov	 rcx, rdx
  0002a	e8 00 00 00 00	 call	 PyObject_Hash
  0002f	4c 8b c0	 mov	 r8, rax

; 2239 :         if (hash == -1)

  00032	48 83 f8 ff	 cmp	 rax, -1
  00036	75 0d		 jne	 SHORT $LN2@dict_conta
$LN7@dict_conta:

; 2240 :             return NULL;

  00038	33 c0		 xor	 eax, eax

; 2246 : }

  0003a	48 8b 5c 24 30	 mov	 rbx, QWORD PTR [rsp+48]
  0003f	48 83 c4 20	 add	 rsp, 32			; 00000020H
  00043	5f		 pop	 rdi
  00044	c3		 ret	 0
$LN2@dict_conta:

; 2241 :     }
; 2242 :     ep = (mp->ma_keys->dk_lookup)(mp, key, hash, &value_addr);

  00045	48 8b 47 68	 mov	 rax, QWORD PTR [rdi+104]
  00049	4c 8d 4c 24 38	 lea	 r9, QWORD PTR value_addr$[rsp]
  0004e	48 8b d3	 mov	 rdx, rbx
  00051	48 8b cf	 mov	 rcx, rdi
  00054	ff 50 10	 call	 QWORD PTR [rax+16]

; 2243 :     if (ep == NULL)

  00057	48 85 c0	 test	 rax, rax

; 2244 :         return NULL;

  0005a	74 dc		 je	 SHORT $LN7@dict_conta

; 2245 :     return PyBool_FromLong(*value_addr != NULL);

  0005c	48 8b 44 24 38	 mov	 rax, QWORD PTR value_addr$[rsp]
  00061	33 c9		 xor	 ecx, ecx
  00063	48 39 08	 cmp	 QWORD PTR [rax], rcx
  00066	0f 95 c1	 setne	 cl
  00069	e8 00 00 00 00	 call	 PyBool_FromLong

; 2246 : }

  0006e	48 8b 5c 24 30	 mov	 rbx, QWORD PTR [rsp+48]
  00073	48 83 c4 20	 add	 rsp, 32			; 00000020H
  00077	5f		 pop	 rdi
  00078	c3		 ret	 0
dict_contains ENDP
_TEXT	ENDS
EXTRN	PyArg_UnpackTuple:PROC
EXTRN	_Py_NoneStruct:BYTE
;	COMDAT pdata
pdata	SEGMENT
$pdata$dict_get DD imagerel dict_get
	DD	imagerel dict_get+185
	DD	imagerel $unwind$dict_get
pdata	ENDS
;	COMDAT xdata
xdata	SEGMENT
$unwind$dict_get DD 020601H
	DD	030027206H
; Function compile flags: /Ogtpy
xdata	ENDS
;	COMDAT dict_get
_TEXT	SEGMENT
value_addr$ = 48
mp$ = 80
args$ = 88
key$ = 96
failobj$ = 104
dict_get PROC						; COMDAT

; 2250 : {

  00000	40 53		 push	 rbx
  00002	48 83 ec 40	 sub	 rsp, 64			; 00000040H
  00006	48 8b d9	 mov	 rbx, rcx
  00009	48 8b c2	 mov	 rax, rdx

; 2251 :     PyObject *key;
; 2252 :     PyObject *failobj = Py_None;

  0000c	48 8d 0d 00 00
	00 00		 lea	 rcx, OFFSET FLAT:_Py_NoneStruct
  00013	48 89 4c 24 68	 mov	 QWORD PTR failobj$[rsp], rcx

; 2253 :     PyObject *val = NULL;
; 2254 :     Py_hash_t hash;
; 2255 :     PyDictKeyEntry *ep;
; 2256 :     PyObject **value_addr;
; 2257 : 
; 2258 :     if (!PyArg_UnpackTuple(args, "get", 1, 2, &key, &failobj))

  00018	48 8d 4c 24 68	 lea	 rcx, QWORD PTR failobj$[rsp]
  0001d	41 b9 02 00 00
	00		 mov	 r9d, 2
  00023	48 89 4c 24 28	 mov	 QWORD PTR [rsp+40], rcx
  00028	48 8d 4c 24 60	 lea	 rcx, QWORD PTR key$[rsp]
  0002d	45 8d 41 ff	 lea	 r8d, QWORD PTR [r9-1]
  00031	48 89 4c 24 20	 mov	 QWORD PTR [rsp+32], rcx
  00036	48 8d 15 00 00
	00 00		 lea	 rdx, OFFSET FLAT:??_C@_03HNAFFKGA@get?$AA@
  0003d	48 8b c8	 mov	 rcx, rax
  00040	e8 00 00 00 00	 call	 PyArg_UnpackTuple
  00045	85 c0		 test	 eax, eax
  00047	75 08		 jne	 SHORT $LN6@dict_get
$LN10@dict_get:

; 2259 :         return NULL;

  00049	33 c0		 xor	 eax, eax

; 2275 : }

  0004b	48 83 c4 40	 add	 rsp, 64			; 00000040H
  0004f	5b		 pop	 rbx
  00050	c3		 ret	 0
$LN6@dict_get:

; 2260 : 
; 2261 :     if (!PyUnicode_CheckExact(key) ||
; 2262 :         (hash = ((PyASCIIObject *) key)->hash) == -1) {

  00051	48 8b 54 24 60	 mov	 rdx, QWORD PTR key$[rsp]
  00056	48 8d 05 00 00
	00 00		 lea	 rax, OFFSET FLAT:PyUnicode_Type
  0005d	48 39 42 58	 cmp	 QWORD PTR [rdx+88], rax
  00061	75 0a		 jne	 SHORT $LN4@dict_get
  00063	4c 8b 42 68	 mov	 r8, QWORD PTR [rdx+104]
  00067	49 83 f8 ff	 cmp	 r8, -1
  0006b	75 16		 jne	 SHORT $LN3@dict_get
$LN4@dict_get:

; 2263 :         hash = PyObject_Hash(key);

  0006d	48 8b ca	 mov	 rcx, rdx
  00070	e8 00 00 00 00	 call	 PyObject_Hash
  00075	4c 8b c0	 mov	 r8, rax

; 2264 :         if (hash == -1)

  00078	48 83 f8 ff	 cmp	 rax, -1

; 2265 :             return NULL;

  0007c	74 cb		 je	 SHORT $LN10@dict_get
  0007e	48 8b 54 24 60	 mov	 rdx, QWORD PTR key$[rsp]
$LN3@dict_get:

; 2266 :     }
; 2267 :     ep = (mp->ma_keys->dk_lookup)(mp, key, hash, &value_addr);

  00083	48 8b 43 68	 mov	 rax, QWORD PTR [rbx+104]
  00087	4c 8d 4c 24 30	 lea	 r9, QWORD PTR value_addr$[rsp]
  0008c	48 8b cb	 mov	 rcx, rbx
  0008f	ff 50 10	 call	 QWORD PTR [rax+16]

; 2268 :     if (ep == NULL)

  00092	48 85 c0	 test	 rax, rax

; 2269 :         return NULL;

  00095	74 b2		 je	 SHORT $LN10@dict_get

; 2270 :     val = *value_addr;

  00097	48 8b 44 24 30	 mov	 rax, QWORD PTR value_addr$[rsp]
  0009c	48 8b 18	 mov	 rbx, QWORD PTR [rax]

; 2271 :     if (val == NULL)

  0009f	48 85 db	 test	 rbx, rbx
  000a2	48 0f 44 5c 24
	68		 cmove	 rbx, QWORD PTR failobj$[rsp]

; 2272 :         val = failobj;
; 2273 :     Py_INCREF(val);

  000a8	48 8b cb	 mov	 rcx, rbx
  000ab	e8 00 00 00 00	 call	 _Py_IncRef

; 2274 :     return val;

  000b0	48 8b c3	 mov	 rax, rbx

; 2275 : }

  000b3	48 83 c4 40	 add	 rsp, 64			; 00000040H
  000b7	5b		 pop	 rbx
  000b8	c3		 ret	 0
dict_get ENDP
_TEXT	ENDS
PUBLIC	??_C@_0L@ELKIGFKM@dict_clear?$AA@		; `string'
EXTRN	PyErr_SetString:PROC
EXTRN	PyExc_AssignmentError:QWORD
;	COMDAT pdata
; File c:\src\pyparallel\include\object.h
pdata	SEGMENT
$pdata$dict_clear DD imagerel dict_clear
	DD	imagerel dict_clear+175
	DD	imagerel $unwind$dict_clear
pdata	ENDS
;	COMDAT xdata
xdata	SEGMENT
$unwind$dict_clear DD 020601H
	DD	030025206H
xdata	ENDS
;	COMDAT ??_C@_0L@ELKIGFKM@dict_clear?$AA@
CONST	SEGMENT
??_C@_0L@ELKIGFKM@dict_clear?$AA@ DB 'dict_clear', 00H	; `string'
; Function compile flags: /Ogtpy
; File c:\src\pyparallel\objects\dictobject.c
CONST	ENDS
;	COMDAT dict_clear
_TEXT	SEGMENT
mp$ = 64
dict_clear PROC						; COMDAT

; 2329 : {

  00000	40 53		 push	 rbx
  00002	48 83 ec 30	 sub	 rsp, 48			; 00000030H
  00006	48 8b d9	 mov	 rbx, rcx

; 2330 : #ifdef WITH_PARALLEL
; 2331 :     if (Py_PXCTX && Py_ISPY(mp)) {

  00009	e8 00 00 00 00	 call	 _Py_PXCTX
  0000e	85 c0		 test	 eax, eax
  00010	74 43		 je	 SHORT $LN1@dict_clear
  00012	48 8d 15 00 00
	00 00		 lea	 rdx, OFFSET FLAT:??_C@_0BI@LNHGAPGK@?4?4?2Objects?2dictobject?4c?$AA@
  00019	48 8d 0d 00 00
	00 00		 lea	 rcx, OFFSET FLAT:??_C@_0L@ELKIGFKM@dict_clear?$AA@
  00020	4c 8b cb	 mov	 r9, rbx
  00023	41 b8 1b 09 00
	00		 mov	 r8d, 2331		; 0000091bH
  00029	c7 44 24 20 02
	00 00 00	 mov	 DWORD PTR [rsp+32], 2
  00031	e8 00 00 00 00	 call	 _PyParallel_Guard
  00036	85 c0		 test	 eax, eax
  00038	74 1b		 je	 SHORT $LN1@dict_clear

; 2332 :         PyErr_SetString(PyExc_AssignmentError,
; 2333 :                         "parallel thread attempted to clear "
; 2334 :                         "a main thread dict");

  0003a	48 8b 0d 00 00
	00 00		 mov	 rcx, QWORD PTR PyExc_AssignmentError
  00041	48 8d 15 00 00
	00 00		 lea	 rdx, OFFSET FLAT:??_C@_0DG@NJAOCDNF@parallel?5thread?5attempted?5to?5cle@
  00048	e8 00 00 00 00	 call	 PyErr_SetString

; 2335 :         return NULL;

  0004d	33 c0		 xor	 eax, eax

; 2340 : }

  0004f	48 83 c4 30	 add	 rsp, 48			; 00000030H
  00053	5b		 pop	 rbx
  00054	c3		 ret	 0
$LN1@dict_clear:

; 2336 :     }
; 2337 : #endif
; 2338 :     PyDict_Clear((PyObject *)mp);

  00055	48 8b cb	 mov	 rcx, rbx
  00058	e8 00 00 00 00	 call	 PyDict_Clear

; 2339 :     Py_RETURN_NONE;

  0005d	e8 00 00 00 00	 call	 _Py_PXCTX
  00062	85 c0		 test	 eax, eax
  00064	75 3c		 jne	 SHORT $LN5@dict_clear
  00066	4c 8d 0d 00 00
	00 00		 lea	 r9, OFFSET FLAT:_Py_NoneStruct
  0006d	48 8d 15 00 00
	00 00		 lea	 rdx, OFFSET FLAT:??_C@_0CD@HDJFDCDP@c?3?2src?2pyparallel?2include?2object@
  00074	48 8d 0d 00 00
	00 00		 lea	 rcx, OFFSET FLAT:??_C@_0L@DHGMCEID@_Py_IncRef?$AA@
  0007b	41 b8 89 03 00
	00		 mov	 r8d, 905		; 00000389H
  00081	c7 44 24 20 02
	00 00 00	 mov	 DWORD PTR [rsp+32], 2
  00089	e8 00 00 00 00	 call	 _PyParallel_Guard
  0008e	85 c0		 test	 eax, eax
  00090	75 09		 jne	 SHORT $LN4@dict_clear
  00092	f6 05 20 00 00
	00 20		 test	 BYTE PTR _Py_NoneStruct+32, 32 ; 00000020H
  00099	74 07		 je	 SHORT $LN5@dict_clear
$LN4@dict_clear:
  0009b	48 ff 05 50 00
	00 00		 inc	 QWORD PTR _Py_NoneStruct+80
$LN5@dict_clear:
  000a2	48 8d 05 00 00
	00 00		 lea	 rax, OFFSET FLAT:_Py_NoneStruct

; 2340 : }

  000a9	48 83 c4 30	 add	 rsp, 48			; 00000030H
  000ad	5b		 pop	 rbx
  000ae	c3		 ret	 0
dict_clear ENDP
_TEXT	ENDS
;	COMDAT pdata
; File c:\src\pyparallel\include\object.h
pdata	SEGMENT
$pdata$dict_pop DD imagerel dict_pop
	DD	imagerel dict_pop+181
	DD	imagerel $unwind$dict_pop
pdata	ENDS
;	COMDAT pdata
pdata	SEGMENT
$pdata$0$dict_pop DD imagerel dict_pop+181
	DD	imagerel dict_pop+209
	DD	imagerel $chain$0$dict_pop
pdata	ENDS
;	COMDAT pdata
pdata	SEGMENT
$pdata$3$dict_pop DD imagerel dict_pop+209
	DD	imagerel dict_pop+264
	DD	imagerel $chain$3$dict_pop
pdata	ENDS
;	COMDAT pdata
pdata	SEGMENT
$pdata$5$dict_pop DD imagerel dict_pop+264
	DD	imagerel dict_pop+293
	DD	imagerel $chain$5$dict_pop
pdata	ENDS
;	COMDAT pdata
pdata	SEGMENT
$pdata$7$dict_pop DD imagerel dict_pop+293
	DD	imagerel dict_pop+442
	DD	imagerel $chain$7$dict_pop
pdata	ENDS
;	COMDAT xdata
xdata	SEGMENT
$chain$7$dict_pop DD 040021H
	DD	087400H
	DD	0c6400H
	DD	imagerel dict_pop
	DD	imagerel dict_pop+181
	DD	imagerel $unwind$dict_pop
xdata	ENDS
;	COMDAT xdata
xdata	SEGMENT
$chain$5$dict_pop DD 040021H
	DD	087400H
	DD	0c6400H
	DD	imagerel dict_pop
	DD	imagerel dict_pop+181
	DD	imagerel $unwind$dict_pop
xdata	ENDS
;	COMDAT xdata
xdata	SEGMENT
$chain$3$dict_pop DD 040a21H
	DD	08740aH
	DD	0c6400H
	DD	imagerel dict_pop
	DD	imagerel dict_pop+181
	DD	imagerel $unwind$dict_pop
xdata	ENDS
;	COMDAT xdata
xdata	SEGMENT
$chain$0$dict_pop DD 020521H
	DD	0c6405H
	DD	imagerel dict_pop
	DD	imagerel dict_pop+181
	DD	imagerel $unwind$dict_pop
xdata	ENDS
;	COMDAT xdata
xdata	SEGMENT
$unwind$dict_pop DD 030701H
	DD	050038207H
	DD	03002H
; Function compile flags: /Ogtpy
; File c:\src\pyparallel\objects\dictobject.c
xdata	ENDS
;	COMDAT dict_pop
_TEXT	SEGMENT
value_addr$ = 48
mp$ = 96
args$ = 104
deflt$ = 112
key$ = 120
dict_pop PROC						; COMDAT

; 2344 : {

  00000	40 53		 push	 rbx
  00002	55		 push	 rbp
  00003	48 83 ec 48	 sub	 rsp, 72			; 00000048H
  00007	48 8b d9	 mov	 rbx, rcx

; 2345 :     Py_hash_t hash;
; 2346 :     PyObject *old_value, *old_key;
; 2347 :     PyObject *key, *deflt = NULL;

  0000a	33 ed		 xor	 ebp, ebp
  0000c	48 8b c2	 mov	 rax, rdx

; 2348 :     PyDictKeyEntry *ep;
; 2349 :     PyObject **value_addr;
; 2350 : 
; 2351 :     /*
; 2352 :     if (Px_CHECK_PROTECTION(mp, args, NULL))
; 2353 :         return NULL;
; 2354 :     */
; 2355 : 
; 2356 :     if(!PyArg_UnpackTuple(args, "pop", 1, 2, &key, &deflt))

  0000f	48 8d 4c 24 70	 lea	 rcx, QWORD PTR deflt$[rsp]
  00014	48 8d 15 00 00
	00 00		 lea	 rdx, OFFSET FLAT:??_C@_03NJDAHFJE@pop?$AA@
  0001b	44 8d 4d 02	 lea	 r9d, QWORD PTR [rbp+2]
  0001f	48 89 4c 24 28	 mov	 QWORD PTR [rsp+40], rcx
  00024	48 8d 4c 24 78	 lea	 rcx, QWORD PTR key$[rsp]
  00029	44 8d 45 01	 lea	 r8d, QWORD PTR [rbp+1]
  0002d	48 89 4c 24 20	 mov	 QWORD PTR [rsp+32], rcx
  00032	48 8b c8	 mov	 rcx, rax
  00035	48 89 6c 24 70	 mov	 QWORD PTR deflt$[rsp], rbp
  0003a	e8 00 00 00 00	 call	 PyArg_UnpackTuple
  0003f	85 c0		 test	 eax, eax

; 2357 :         return NULL;

  00041	74 2b		 je	 SHORT $LN21@dict_pop

; 2358 :     if (mp->ma_used == 0) {

  00043	48 39 6b 60	 cmp	 QWORD PTR [rbx+96], rbp
  00047	75 2e		 jne	 SHORT $LN10@dict_pop

; 2359 :         if (deflt) {

  00049	48 8b 4c 24 70	 mov	 rcx, QWORD PTR deflt$[rsp]
  0004e	48 85 c9	 test	 rcx, rcx
  00051	74 11		 je	 SHORT $LN9@dict_pop

; 2360 :             Py_INCREF(deflt);

  00053	e8 00 00 00 00	 call	 _Py_IncRef

; 2361 :             return deflt;

  00058	48 8b 44 24 70	 mov	 rax, QWORD PTR deflt$[rsp]

; 2394 : }

  0005d	48 83 c4 48	 add	 rsp, 72			; 00000048H
  00061	5d		 pop	 rbp
  00062	5b		 pop	 rbx
  00063	c3		 ret	 0
$LN9@dict_pop:

; 2362 :         }
; 2363 :         set_key_error(key);

  00064	48 8b 4c 24 78	 mov	 rcx, QWORD PTR key$[rsp]
  00069	e8 00 00 00 00	 call	 set_key_error
$LN21@dict_pop:

; 2364 :         return NULL;

  0006e	33 c0		 xor	 eax, eax

; 2394 : }

  00070	48 83 c4 48	 add	 rsp, 72			; 00000048H
  00074	5d		 pop	 rbp
  00075	5b		 pop	 rbx
  00076	c3		 ret	 0
$LN10@dict_pop:

; 2365 :     }
; 2366 :     if (!PyUnicode_CheckExact(key) ||
; 2367 :         (hash = ((PyASCIIObject *) key)->hash) == -1) {

  00077	48 8b 54 24 78	 mov	 rdx, QWORD PTR key$[rsp]
  0007c	48 8d 05 00 00
	00 00		 lea	 rax, OFFSET FLAT:PyUnicode_Type
  00083	48 39 42 58	 cmp	 QWORD PTR [rdx+88], rax
  00087	75 0a		 jne	 SHORT $LN7@dict_pop
  00089	4c 8b 42 68	 mov	 r8, QWORD PTR [rdx+104]
  0008d	49 83 f8 ff	 cmp	 r8, -1
  00091	75 16		 jne	 SHORT $LN6@dict_pop
$LN7@dict_pop:

; 2368 :         hash = PyObject_Hash(key);

  00093	48 8b ca	 mov	 rcx, rdx
  00096	e8 00 00 00 00	 call	 PyObject_Hash
  0009b	4c 8b c0	 mov	 r8, rax

; 2369 :         if (hash == -1)

  0009e	48 83 f8 ff	 cmp	 rax, -1

; 2370 :             return NULL;

  000a2	74 ca		 je	 SHORT $LN21@dict_pop
  000a4	48 8b 54 24 78	 mov	 rdx, QWORD PTR key$[rsp]
