; Listing generated by Microsoft (R) Optimizing Compiler Version 16.00.40219.01 

include listing.inc

INCLUDELIB MSVCRT
INCLUDELIB OLDNAMES

PUBLIC	??_C@_0CO@HPEHEBLP@Base?5class?5for?5warnings?5about?5re@ ; `string'
PUBLIC	??_C@_0BA@JIBLCGNF@ResourceWarning?$AA@		; `string'
PUBLIC	??_C@_0HM@KBKMDMHM@Base?5class?5for?5warnings?5about?5by@ ; `string'
PUBLIC	??_C@_0N@BILDEMAG@BytesWarning?$AA@		; `string'
PUBLIC	??_C@_0FP@BEMCLFNP@Base?5class?5for?5warnings?5about?5Un@ ; `string'
PUBLIC	??_C@_0P@DFBLGLPC@UnicodeWarning?$AA@		; `string'
PUBLIC	??_C@_0EC@CFAJPLKK@Base?5class?5for?5warnings?5about?5pr@ ; `string'
PUBLIC	??_C@_0O@MPAGLHE@ImportWarning?$AA@		; `string'
PUBLIC	??_C@_0FG@MEHAINOE@Base?5class?5for?5warnings?5about?5co@ ; `string'
PUBLIC	??_C@_0O@EAIEFLDH@FutureWarning?$AA@		; `string'
PUBLIC	??_C@_0DI@FBPEMJEN@Base?5class?5for?5warnings?5about?5du@ ; `string'
PUBLIC	??_C@_0P@JGMDIAML@RuntimeWarning?$AA@		; `string'
PUBLIC	??_C@_0CO@JDKAKEOK@Base?5class?5for?5warnings?5about?5du@ ; `string'
PUBLIC	??_C@_0O@IOJIPFFN@SyntaxWarning?$AA@		; `string'
PUBLIC	??_C@_0EP@NOKGBDGL@Base?5class?5for?5warnings?5about?5fe@ ; `string'
PUBLIC	??_C@_0BK@JDBEDOM@PendingDeprecationWarning?$AA@ ; `string'
PUBLIC	??_C@_0DD@DDNMECFD@Base?5class?5for?5warnings?5about?5de@ ; `string'
PUBLIC	??_C@_0BD@GIDNBIPD@DeprecationWarning?$AA@	; `string'
PUBLIC	??_C@_0DA@NAMNFIGL@Base?5class?5for?5warnings?5generate@ ; `string'
PUBLIC	??_C@_0M@JCLIHPLC@UserWarning?$AA@		; `string'
PUBLIC	??_C@_0CD@IHAAEPNP@Base?5class?5for?5warning?5categorie@ ; `string'
PUBLIC	??_C@_07KGMMFLDN@Warning?$AA@			; `string'
PUBLIC	??_C@_0O@GFOKIHDB@Buffer?5error?4?$AA@		; `string'
PUBLIC	??_C@_0M@IEEINKIE@BufferError?$AA@		; `string'
PUBLIC	??_C@_0P@ILLCNIIE@Out?5of?5memory?4?$AA@	; `string'
PUBLIC	??_C@_0M@HIBAKAFK@MemoryError?$AA@		; `string'
PUBLIC	??_C@_0DG@LICMCCGN@Async?5run?$CI?$CJ?5detected?5that?5there?5@ ; `string'
PUBLIC	??_C@_0BM@GCGOLDFN@AsyncRunNoActiveEventsError?$AA@ ; `string'
PUBLIC	??_C@_0CH@LDJJHMMC@Async?5run?$CI?$CJ?5called?5without?5any?5e@ ; `string'
PUBLIC	??_C@_0CB@DHCJJACB@AsyncRunCalledWithoutEventsError@ ; `string'
PUBLIC	??_C@_0BN@KHNEADKG@Base?5class?5for?5async?5errors?4?$AA@ ; `string'
PUBLIC	??_C@_0L@POMMPANG@AsyncError?$AA@		; `string'
PUBLIC	??_C@_0EN@KNPFPBJJ@Implicit?5access?5to?5nonlocal?5vari@ ; `string'
PUBLIC	??_C@_0CE@ONNHACJB@ParallelNonlocalVariableAccessEr@ ; `string'
PUBLIC	??_C@_0EL@PLHLDPCD@Implicit?5access?5to?5global?5variab@ ; `string'
PUBLIC	??_C@_0CC@HPLHCPKN@ParallelGlobalVariableAccessErro@ ; `string'
PUBLIC	??_C@_0DD@JGEGKCHH@Import?5not?5permitted?5from?5within@ ; `string'
PUBLIC	??_C@_0BE@FCGCAOGC@ParallelImportError?$AA@	; `string'
PUBLIC	??_C@_0DG@NPBGBDKP@Operation?5not?5permitted?5from?5wit@ ; `string'
PUBLIC	??_C@_0BF@HFKFAIAA@ParallelContextError?$AA@	; `string'
PUBLIC	??_C@_0DE@INBJNFAJ@Failed?5to?5initialize?5parallel?5co@ ; `string'
PUBLIC	??_C@_0CD@MNHCHPAI@ParallelContextInitializationErr@ ; `string'
PUBLIC	??_C@_0CK@IKBKELBP@Failed?5to?5initialize?5new?5paralle@ ; `string'
PUBLIC	??_C@_0CC@IAEHFMP@ParallelThreadInitializationErro@ ; `string'
PUBLIC	??_C@_0CA@NKCFMBPJ@Base?5class?5for?5parallel?5errors?4?$AA@ ; `string'
PUBLIC	??_C@_0O@GFKDNBOD@ParallelError?$AA@		; `string'
PUBLIC	??_C@_0CO@BODDBCMG@Weak?5ref?5proxy?5used?5after?5refere@ ; `string'
PUBLIC	??_C@_0P@NJFCDLEA@ReferenceError?$AA@		; `string'
PUBLIC	??_C@_0LA@PADCOJHH@Internal?5error?5in?5the?5Python?5int@ ; `string'
PUBLIC	??_C@_0M@MLMICFKM@SystemError?$AA@		; `string'
PUBLIC	??_C@_0DM@HNAOGMFP@Second?5argument?5to?5a?5division?5or@ ; `string'
PUBLIC	??_C@_0BC@JKCGANPD@ZeroDivisionError?$AA@	; `string'
PUBLIC	??_C@_0CE@DNDJACFH@Result?5too?5large?5to?5be?5represent@ ; `string'
PUBLIC	??_C@_0O@DAFOBLHH@OverflowError?$AA@		; `string'
PUBLIC	??_C@_0CB@CNKBBAIB@Floating?5point?5operation?5failed?4@ ; `string'
PUBLIC	??_C@_0BD@BMMMKAGK@FloatingPointError?$AA@	; `string'
PUBLIC	??_C@_0CC@PPOJNHHK@Base?5class?5for?5arithmetic?5errors@ ; `string'
PUBLIC	??_C@_0BA@HMBIHIEF@ArithmeticError?$AA@		; `string'
PUBLIC	??_C@_0BC@DHBLDLOI@Assertion?5failed?4?$AA@	; `string'
PUBLIC	??_C@_0P@ECLAGKMP@AssertionError?$AA@		; `string'
PUBLIC	??_C@_0BL@BOAAJAHA@Unicode?5translation?5error?4?$AA@ ; `string'
PUBLIC	??_C@_0BG@MKGFNNGN@UnicodeTranslateError?$AA@	; `string'
PUBLIC	??_C@_0BI@GHLGAONJ@Unicode?5decoding?5error?4?$AA@ ; `string'
PUBLIC	??_C@_0BD@EMOAOOII@UnicodeDecodeError?$AA@	; `string'
PUBLIC	??_C@_0BI@BHCKDJLG@Unicode?5encoding?5error?4?$AA@ ; `string'
PUBLIC	??_C@_0BD@PEGECFKD@UnicodeEncodeError?$AA@	; `string'
PUBLIC	??_C@_0BB@PLOKJKDH@exception?5reason?$AA@	; `string'
PUBLIC	??_C@_06CEHAOENB@reason?$AA@			; `string'
PUBLIC	??_C@_0O@ONMBNCFM@exception?5end?$AA@		; `string'
PUBLIC	??_C@_03JBJLGPFL@end?$AA@			; `string'
PUBLIC	??_C@_0BA@KKPENCDK@exception?5start?$AA@	; `string'
PUBLIC	??_C@_05FAGFPHJG@start?$AA@			; `string'
PUBLIC	??_C@_0BB@FLHDGNGM@exception?5object?$AA@	; `string'
PUBLIC	??_C@_06IEOJBDIK@object?$AA@			; `string'
PUBLIC	??_C@_0BD@HEGPNDEB@exception?5encoding?$AA@	; `string'
PUBLIC	??_C@_08MLPGAEIK@encoding?$AA@			; `string'
PUBLIC	??_C@_0BH@LFJEPFCJ@Unicode?5related?5error?4?$AA@ ; `string'
PUBLIC	??_C@_0N@HJMCMBLP@UnicodeError?$AA@		; `string'
PUBLIC	??_C@_0DA@PDIMAGJA@Inappropriate?5argument?5value?5?$CIof@ ; `string'
PUBLIC	??_C@_0L@POAMGPDC@ValueError?$AA@		; `string'
PUBLIC	??_C@_0BH@NGNBEPFN@Mapping?5key?5not?5found?4?$AA@ ; `string'
PUBLIC	??_C@_08OHPJJKKC@KeyError?$AA@			; `string'
PUBLIC	??_C@_0BN@MPIMOMNM@Sequence?5index?5out?5of?5range?4?$AA@ ; `string'
PUBLIC	??_C@_0L@PDGDGKIP@IndexError?$AA@		; `string'
PUBLIC	??_C@_0BO@OONBGEOC@Base?5class?5for?5lookup?5errors?4?$AA@ ; `string'
PUBLIC	??_C@_0M@MHFOHJEK@LookupError?$AA@		; `string'
PUBLIC	??_C@_0CF@GKBIKMOP@Improper?5mixture?5of?5spaces?5and?5t@ ; `string'
PUBLIC	??_C@_08HFBDNBMM@TabError?$AA@			; `string'
PUBLIC	??_C@_0BG@EODDEBDJ@Improper?5indentation?4?$AA@	; `string'
PUBLIC	??_C@_0BB@PAPDAKC@IndentationError?$AA@		; `string'
PUBLIC	??_C@_0BA@GFAEMOKB@Invalid?5syntax?4?$AA@	; `string'
PUBLIC	??_C@_0M@KIDEJCGH@SyntaxError?$AA@		; `string'
PUBLIC	??_C@_0BO@GMLCEMFL@exception?5print_file_and_line?$AA@ ; `string'
PUBLIC	??_C@_0BE@DKBHEDDB@print_file_and_line?$AA@	; `string'
PUBLIC	??_C@_0P@LGNOADNI@exception?5text?$AA@		; `string'
PUBLIC	??_C@_04CIMGMMMG@text?$AA@			; `string'
PUBLIC	??_C@_0BB@HEONLGIK@exception?5offset?$AA@	; `string'
PUBLIC	??_C@_06KLHHMIGM@offset?$AA@			; `string'
PUBLIC	??_C@_0BB@FEDCHJDL@exception?5lineno?$AA@	; `string'
PUBLIC	??_C@_06ILKIAHNN@lineno?$AA@			; `string'
PUBLIC	??_C@_0O@BHKGJJFD@exception?5msg?$AA@		; `string'
PUBLIC	??_C@_0BF@KBBDNFNN@Attribute?5not?5found?4?$AA@	; `string'
PUBLIC	??_C@_0P@OMMLLIOG@AttributeError?$AA@		; `string'
PUBLIC	??_C@_0DA@JDNAGEED@Local?5name?5referenced?5but?5not?5bo@ ; `string'
PUBLIC	??_C@_0BC@EJBPJIJA@UnboundLocalError?$AA@	; `string'
PUBLIC	??_C@_0BJ@CKADCLHL@Name?5not?5found?5globally?4?$AA@ ; `string'
PUBLIC	??_C@_09GENDEFL@NameError?$AA@			; `string'
PUBLIC	??_C@_0DA@PMFCDFAJ@Method?5or?5function?5hasn?8t?5been?5i@ ; `string'
PUBLIC	??_C@_0BE@NIHEKDAM@NotImplementedError?$AA@	; `string'
PUBLIC	??_C@_0BM@GMHHIONK@Unspecified?5run?9time?5error?4?$AA@ ; `string'
PUBLIC	??_C@_0N@PJCHGDKG@RuntimeError?$AA@		; `string'
PUBLIC	??_C@_0BJ@DBOMGJHD@Read?5beyond?5end?5of?5file?4?$AA@ ; `string'
PUBLIC	??_C@_08BJKGOKBF@EOFError?$AA@			; `string'
PUBLIC	??_C@_0BB@KIFGEFOB@Timeout?5expired?4?$AA@	; `string'
PUBLIC	??_C@_0N@BMLDFELP@TimeoutError?$AA@		; `string'
PUBLIC	??_C@_0BD@CDPGLGNA@Process?5not?5found?4?$AA@	; `string'
PUBLIC	??_C@_0BD@LBBCHOLB@ProcessLookupError?$AA@	; `string'
PUBLIC	??_C@_0BI@ICBFMNFH@Not?5enough?5permissions?4?$AA@ ; `string'
PUBLIC	??_C@_0BA@EGIOHDMA@PermissionError?$AA@		; `string'
PUBLIC	??_C@_0BH@DPFOMFFN@Interrupted?5by?5signal?4?$AA@ ; `string'
PUBLIC	??_C@_0BB@PFBGOELP@InterruptedError?$AA@	; `string'
PUBLIC	??_C@_0CF@MHLAOJGN@Operation?5only?5works?5on?5director@ ; `string'
PUBLIC	??_C@_0BD@BDDBNNNE@NotADirectoryError?$AA@	; `string'
PUBLIC	??_C@_0CH@PKAKIMKI@Operation?5doesn?8t?5work?5on?5direct@ ; `string'
PUBLIC	??_C@_0BC@EPPFJLG@IsADirectoryError?$AA@	; `string'
PUBLIC	??_C@_0BA@DOIDIGMK@File?5not?5found?4?$AA@	; `string'
PUBLIC	??_C@_0BC@IPPJKII@FileNotFoundError?$AA@	; `string'
PUBLIC	??_C@_0BF@PBMIGFNE@File?5already?5exists?4?$AA@	; `string'
PUBLIC	??_C@_0BA@FBEHCPFP@FileExistsError?$AA@		; `string'
PUBLIC	??_C@_0BC@PIBEPGML@Connection?5reset?4?$AA@	; `string'
PUBLIC	??_C@_0BF@KPCMAHCN@ConnectionResetError?$AA@	; `string'
PUBLIC	??_C@_0BE@PAAMHJLG@Connection?5refused?4?$AA@	; `string'
PUBLIC	??_C@_0BH@NFNMCF@ConnectionRefusedError?$AA@	; `string'
PUBLIC	??_C@_0BE@FFDJKHGA@Connection?5aborted?4?$AA@	; `string'
PUBLIC	??_C@_0BH@IAHALHIL@ConnectionAbortedError?$AA@	; `string'
PUBLIC	??_C@_0N@KCAMOIPH@Broken?5pipe?4?$AA@		; `string'
PUBLIC	??_C@_0BA@OKFJGAGB@BrokenPipeError?$AA@		; `string'
PUBLIC	??_C@_0BF@IOACMFNO@Child?5process?5error?4?$AA@	; `string'
PUBLIC	??_C@_0BC@LJAFFAPL@ChildProcessError?$AA@	; `string'
PUBLIC	??_C@_0BC@BCOONDMO@Connection?5error?4?$AA@	; `string'
PUBLIC	??_C@_0BA@FGMDNHAG@ConnectionError?$AA@		; `string'
PUBLIC	??_C@_0BL@LJLKLDJH@I?1O?5operation?5would?5block?4?$AA@ ; `string'
PUBLIC	??_C@_0BA@JGPGLFDG@BlockingIOError?$AA@		; `string'
PUBLIC	??_C@_0CD@BBOAKDDD@Base?5class?5for?5I?1O?5related?5error@ ; `string'
PUBLIC	??_C@_07DLGONEPD@OSError?$AA@			; `string'
PUBLIC	??_C@_0BD@MJNIBNKM@characters_written?$AA@	; `string'
PUBLIC	??_C@_0BF@EGKICGDH@Win32?5exception?5code?$AA@	; `string'
PUBLIC	??_C@_08NNIGBLFN@winerror?$AA@			; `string'
PUBLIC	??_C@_0BD@KPIAFJIH@exception?5filename?$AA@	; `string'
PUBLIC	??_C@_08BABJIOEM@filename?$AA@			; `string'
PUBLIC	??_C@_0BD@HIDDEPNK@exception?5strerror?$AA@	; `string'
PUBLIC	??_C@_08MHKKJIBB@strerror?$AA@			; `string'
PUBLIC	??_C@_0BF@CJFJGJAA@POSIX?5exception?5code?$AA@	; `string'
PUBLIC	??_C@_05PEAMIKEP@errno?$AA@			; `string'
PUBLIC	??_C@_0DI@HEBCIICE@Import?5can?8t?5find?5module?0?5or?5can@ ; `string'
PUBLIC	??_C@_0M@HCFCBBPI@ImportError?$AA@		; `string'
PUBLIC	??_C@_0M@EODBJGBC@module?5path?$AA@		; `string'
PUBLIC	??_C@_04LNEJFJGI@path?$AA@			; `string'
PUBLIC	??_C@_0M@DHLIFJED@module?5name?$AA@		; `string'
PUBLIC	??_C@_04MEMAJGDJ@name?$AA@			; `string'
PUBLIC	??_C@_0BC@KEEHBMNM@exception?5message?$AA@	; `string'
PUBLIC	??_C@_03GLPMCEFE@msg?$AA@			; `string'
PUBLIC	??_C@_0BN@MANALLKN@Program?5interrupted?5by?5user?4?$AA@ ; `string'
PUBLIC	??_C@_0BC@BACBBCED@KeyboardInterrupt?$AA@	; `string'
PUBLIC	??_C@_0CG@KDLBFKIC@Request?5to?5exit?5from?5the?5interpr@ ; `string'
PUBLIC	??_C@_0L@MBGFFHMP@SystemExit?$AA@		; `string'
PUBLIC	??_C@_0P@ENEGNBCK@exception?5code?$AA@		; `string'
PUBLIC	??_C@_04NDFOBODE@code?$AA@			; `string'
PUBLIC	??_C@_0BP@OCIPBJOC@Request?5that?5a?5generator?5exit?4?$AA@ ; `string'
PUBLIC	??_C@_0O@GBGLOLNB@GeneratorExit?$AA@		; `string'
PUBLIC	??_C@_0CJ@IGGDMNCD@Signal?5the?5end?5from?5iterator?4__n@ ; `string'
PUBLIC	??_C@_0O@LGLKOGMF@StopIteration?$AA@		; `string'
PUBLIC	??_C@_0BH@CEJBINIP@generator?5return?5value?$AA@ ; `string'
PUBLIC	??_C@_05MFEJDJP@value?$AA@			; `string'
PUBLIC	??_C@_0BN@GFNFLJFF@Inappropriate?5argument?5type?4?$AA@ ; `string'
PUBLIC	??_C@_09MGGHOBOJ@TypeError?$AA@			; `string'
PUBLIC	??_C@_0CP@EGCLOIMN@Common?5base?5class?5for?5all?5non?9ex@ ; `string'
PUBLIC	??_C@_09FBNMMHMJ@Exception?$AA@			; `string'
PUBLIC	??_C@_0CF@KACNFHAK@Common?5base?5class?5for?5all?5except@ ; `string'
PUBLIC	??_C@_0O@GCAIIPIB@BaseException?$AA@		; `string'
PUBLIC	??_C@_0BF@PLNDEDFH@__suppress_context__?$AA@	; `string'
PUBLIC	??_C@_0BA@IMECEBLM@exception?5cause?$AA@	; `string'
PUBLIC	??_C@_09DJICANKI@__cause__?$AA@			; `string'
PUBLIC	??_C@_0BC@NDBEMMPP@exception?5context?$AA@	; `string'
PUBLIC	??_C@_0M@GKMKEIIC@__context__?$AA@		; `string'
PUBLIC	??_C@_0O@IEBEOCOE@__traceback__?$AA@		; `string'
PUBLIC	??_C@_04BFDDMJJI@args?$AA@			; `string'
PUBLIC	??_C@_08IBFKALI@__dict__?$AA@			; `string'
PUBLIC	??_C@_0P@FLIOKJJK@with_traceback?$AA@		; `string'
PUBLIC	??_C@_0N@MOOGCAMH@__setstate__?$AA@		; `string'
PUBLIC	??_C@_0L@NNMACJIG@__reduce__?$AA@		; `string'
PUBLIC	PyExc_EnvironmentError
PUBLIC	PyExc_IOError
PUBLIC	PyExc_WindowsError
PUBLIC	PyExc_BaseException
PUBLIC	PyExc_Exception
PUBLIC	PyExc_TypeError
PUBLIC	PyExc_StopIteration
PUBLIC	PyExc_GeneratorExit
PUBLIC	PyExc_SystemExit
PUBLIC	PyExc_KeyboardInterrupt
PUBLIC	PyExc_ImportError
PUBLIC	PyExc_OSError
PUBLIC	PyExc_BlockingIOError
PUBLIC	PyExc_ConnectionError
PUBLIC	PyExc_ChildProcessError
PUBLIC	PyExc_BrokenPipeError
PUBLIC	PyExc_ConnectionAbortedError
PUBLIC	PyExc_ConnectionRefusedError
PUBLIC	PyExc_ConnectionResetError
PUBLIC	PyExc_FileExistsError
PUBLIC	PyExc_FileNotFoundError
PUBLIC	PyExc_IsADirectoryError
PUBLIC	PyExc_NotADirectoryError
PUBLIC	PyExc_InterruptedError
PUBLIC	PyExc_PermissionError
PUBLIC	PyExc_ProcessLookupError
PUBLIC	PyExc_TimeoutError
PUBLIC	PyExc_EOFError
PUBLIC	PyExc_RuntimeError
PUBLIC	PyExc_NotImplementedError
PUBLIC	PyExc_NameError
PUBLIC	PyExc_UnboundLocalError
PUBLIC	PyExc_AttributeError
PUBLIC	PyExc_SyntaxError
PUBLIC	PyExc_IndentationError
PUBLIC	PyExc_TabError
PUBLIC	PyExc_LookupError
PUBLIC	PyExc_IndexError
PUBLIC	PyExc_KeyError
PUBLIC	PyExc_ValueError
PUBLIC	PyExc_UnicodeError
PUBLIC	PyExc_UnicodeEncodeError
PUBLIC	PyExc_UnicodeDecodeError
PUBLIC	PyExc_UnicodeTranslateError
PUBLIC	PyExc_AssertionError
PUBLIC	PyExc_ArithmeticError
PUBLIC	PyExc_FloatingPointError
PUBLIC	PyExc_OverflowError
PUBLIC	PyExc_ZeroDivisionError
PUBLIC	PyExc_SystemError
PUBLIC	PyExc_ReferenceError
PUBLIC	PyExc_ParallelError
PUBLIC	PyExc_ParallelThreadInitializationError
PUBLIC	PyExc_ParallelContextInitializationError
PUBLIC	PyExc_ParallelContextError
PUBLIC	PyExc_ParallelImportError
PUBLIC	PyExc_ParallelGlobalVariableAccessError
PUBLIC	PyExc_ParallelNonlocalVariableAccessError
PUBLIC	PyExc_AsyncError
PUBLIC	PyExc_AsyncRunCalledWithoutEventsError
PUBLIC	PyExc_AsyncRunNoActiveEventsError
PUBLIC	PyExc_MemoryError
PUBLIC	PyExc_BufferError
PUBLIC	PyExc_Warning
PUBLIC	PyExc_UserWarning
PUBLIC	PyExc_DeprecationWarning
PUBLIC	PyExc_PendingDeprecationWarning
PUBLIC	PyExc_SyntaxWarning
PUBLIC	PyExc_RuntimeWarning
PUBLIC	PyExc_FutureWarning
PUBLIC	PyExc_ImportWarning
PUBLIC	PyExc_UnicodeWarning
PUBLIC	PyExc_BytesWarning
PUBLIC	PyExc_ResourceWarning
PUBLIC	PyExc_RecursionErrorInst
EXTRN	PyObject_GenericSetAttr:PROC
EXTRN	PyObject_GenericGetAttr:PROC
EXTRN	PyObject_GenericSetDict:PROC
EXTRN	PyObject_GenericGetDict:PROC
_BSS	SEGMENT
PyExc_EnvironmentError DQ 01H DUP (?)
PyExc_IOError DQ 01H DUP (?)
PyExc_WindowsError DQ 01H DUP (?)
errnomap DQ	01H DUP (?)
ImportError_methods DB 020H DUP (?)
memerrors_freelist DQ 01H DUP (?)
memerrors_numfree DD 01H DUP (?)
	ALIGN	8

PyExc_RecursionErrorInst DQ 01H DUP (?)
_BSS	ENDS
;	COMDAT ??_C@_0CO@HPEHEBLP@Base?5class?5for?5warnings?5about?5re@
CONST	SEGMENT
??_C@_0CO@HPEHEBLP@Base?5class?5for?5warnings?5about?5re@ DB 'Base class '
	DB	'for warnings about resource usage.', 00H	; `string'
CONST	ENDS
;	COMDAT ??_C@_0BA@JIBLCGNF@ResourceWarning?$AA@
CONST	SEGMENT
??_C@_0BA@JIBLCGNF@ResourceWarning?$AA@ DB 'ResourceWarning', 00H ; `string'
CONST	ENDS
;	COMDAT ??_C@_0HM@KBKMDMHM@Base?5class?5for?5warnings?5about?5by@
CONST	SEGMENT
??_C@_0HM@KBKMDMHM@Base?5class?5for?5warnings?5about?5by@ DB 'Base class '
	DB	'for warnings about bytes and buffer related problems, mostly', 0aH
	DB	'related to conversion from str or comparing to str.', 00H ; `string'
CONST	ENDS
;	COMDAT ??_C@_0N@BILDEMAG@BytesWarning?$AA@
CONST	SEGMENT
??_C@_0N@BILDEMAG@BytesWarning?$AA@ DB 'BytesWarning', 00H ; `string'
CONST	ENDS
;	COMDAT ??_C@_0FP@BEMCLFNP@Base?5class?5for?5warnings?5about?5Un@
CONST	SEGMENT
??_C@_0FP@BEMCLFNP@Base?5class?5for?5warnings?5about?5Un@ DB 'Base class '
	DB	'for warnings about Unicode related problems, mostly', 0aH, 'r'
	DB	'elated to conversion problems.', 00H	; `string'
CONST	ENDS
;	COMDAT ??_C@_0P@DFBLGLPC@UnicodeWarning?$AA@
CONST	SEGMENT
??_C@_0P@DFBLGLPC@UnicodeWarning?$AA@ DB 'UnicodeWarning', 00H ; `string'
CONST	ENDS
;	COMDAT ??_C@_0EC@CFAJPLKK@Base?5class?5for?5warnings?5about?5pr@
CONST	SEGMENT
??_C@_0EC@CFAJPLKK@Base?5class?5for?5warnings?5about?5pr@ DB 'Base class '
	DB	'for warnings about probable mistakes in module imports', 00H ; `string'
CONST	ENDS
;	COMDAT ??_C@_0O@MPAGLHE@ImportWarning?$AA@
CONST	SEGMENT
??_C@_0O@MPAGLHE@ImportWarning?$AA@ DB 'ImportWarning', 00H ; `string'
CONST	ENDS
;	COMDAT ??_C@_0FG@MEHAINOE@Base?5class?5for?5warnings?5about?5co@
CONST	SEGMENT
??_C@_0FG@MEHAINOE@Base?5class?5for?5warnings?5about?5co@ DB 'Base class '
	DB	'for warnings about constructs that will change semantically', 0aH
	DB	'in the future.', 00H			; `string'
CONST	ENDS
;	COMDAT ??_C@_0O@EAIEFLDH@FutureWarning?$AA@
CONST	SEGMENT
??_C@_0O@EAIEFLDH@FutureWarning?$AA@ DB 'FutureWarning', 00H ; `string'
CONST	ENDS
;	COMDAT ??_C@_0DI@FBPEMJEN@Base?5class?5for?5warnings?5about?5du@
CONST	SEGMENT
??_C@_0DI@FBPEMJEN@Base?5class?5for?5warnings?5about?5du@ DB 'Base class '
	DB	'for warnings about dubious runtime behavior.', 00H ; `string'
CONST	ENDS
;	COMDAT ??_C@_0P@JGMDIAML@RuntimeWarning?$AA@
CONST	SEGMENT
??_C@_0P@JGMDIAML@RuntimeWarning?$AA@ DB 'RuntimeWarning', 00H ; `string'
CONST	ENDS
;	COMDAT ??_C@_0CO@JDKAKEOK@Base?5class?5for?5warnings?5about?5du@
CONST	SEGMENT
??_C@_0CO@JDKAKEOK@Base?5class?5for?5warnings?5about?5du@ DB 'Base class '
	DB	'for warnings about dubious syntax.', 00H	; `string'
CONST	ENDS
;	COMDAT ??_C@_0O@IOJIPFFN@SyntaxWarning?$AA@
CONST	SEGMENT
??_C@_0O@IOJIPFFN@SyntaxWarning?$AA@ DB 'SyntaxWarning', 00H ; `string'
CONST	ENDS
;	COMDAT ??_C@_0EP@NOKGBDGL@Base?5class?5for?5warnings?5about?5fe@
CONST	SEGMENT
??_C@_0EP@NOKGBDGL@Base?5class?5for?5warnings?5about?5fe@ DB 'Base class '
	DB	'for warnings about features which will be deprecated', 0aH, 'i'
	DB	'n the future.', 00H				; `string'
CONST	ENDS
;	COMDAT ??_C@_0BK@JDBEDOM@PendingDeprecationWarning?$AA@
CONST	SEGMENT
??_C@_0BK@JDBEDOM@PendingDeprecationWarning?$AA@ DB 'PendingDeprecationWa'
	DB	'rning', 00H					; `string'
CONST	ENDS
;	COMDAT ??_C@_0DD@DDNMECFD@Base?5class?5for?5warnings?5about?5de@
CONST	SEGMENT
??_C@_0DD@DDNMECFD@Base?5class?5for?5warnings?5about?5de@ DB 'Base class '
	DB	'for warnings about deprecated features.', 00H ; `string'
CONST	ENDS
;	COMDAT ??_C@_0BD@GIDNBIPD@DeprecationWarning?$AA@
CONST	SEGMENT
??_C@_0BD@GIDNBIPD@DeprecationWarning?$AA@ DB 'DeprecationWarning', 00H ; `string'
CONST	ENDS
;	COMDAT ??_C@_0DA@NAMNFIGL@Base?5class?5for?5warnings?5generate@
CONST	SEGMENT
??_C@_0DA@NAMNFIGL@Base?5class?5for?5warnings?5generate@ DB 'Base class f'
	DB	'or warnings generated by user code.', 00H	; `string'
CONST	ENDS
;	COMDAT ??_C@_0M@JCLIHPLC@UserWarning?$AA@
CONST	SEGMENT
??_C@_0M@JCLIHPLC@UserWarning?$AA@ DB 'UserWarning', 00H ; `string'
CONST	ENDS
;	COMDAT ??_C@_0CD@IHAAEPNP@Base?5class?5for?5warning?5categorie@
CONST	SEGMENT
??_C@_0CD@IHAAEPNP@Base?5class?5for?5warning?5categorie@ DB 'Base class f'
	DB	'or warning categories.', 00H		; `string'
CONST	ENDS
;	COMDAT ??_C@_07KGMMFLDN@Warning?$AA@
CONST	SEGMENT
??_C@_07KGMMFLDN@Warning?$AA@ DB 'Warning', 00H		; `string'
CONST	ENDS
;	COMDAT ??_C@_0O@GFOKIHDB@Buffer?5error?4?$AA@
CONST	SEGMENT
??_C@_0O@GFOKIHDB@Buffer?5error?4?$AA@ DB 'Buffer error.', 00H ; `string'
CONST	ENDS
;	COMDAT ??_C@_0M@IEEINKIE@BufferError?$AA@
CONST	SEGMENT
??_C@_0M@IEEINKIE@BufferError?$AA@ DB 'BufferError', 00H ; `string'
CONST	ENDS
;	COMDAT ??_C@_0P@ILLCNIIE@Out?5of?5memory?4?$AA@
CONST	SEGMENT
??_C@_0P@ILLCNIIE@Out?5of?5memory?4?$AA@ DB 'Out of memory.', 00H ; `string'
CONST	ENDS
;	COMDAT ??_C@_0M@HIBAKAFK@MemoryError?$AA@
CONST	SEGMENT
??_C@_0M@HIBAKAFK@MemoryError?$AA@ DB 'MemoryError', 00H ; `string'
CONST	ENDS
;	COMDAT ??_C@_0DG@LICMCCGN@Async?5run?$CI?$CJ?5detected?5that?5there?5@
CONST	SEGMENT
??_C@_0DG@LICMCCGN@Async?5run?$CI?$CJ?5detected?5that?5there?5@ DB 'Async'
	DB	' run() detected that there are no active events.', 00H ; `string'
CONST	ENDS
;	COMDAT ??_C@_0BM@GCGOLDFN@AsyncRunNoActiveEventsError?$AA@
CONST	SEGMENT
??_C@_0BM@GCGOLDFN@AsyncRunNoActiveEventsError?$AA@ DB 'AsyncRunNoActiveE'
	DB	'ventsError', 00H				; `string'
CONST	ENDS
;	COMDAT ??_C@_0CH@LDJJHMMC@Async?5run?$CI?$CJ?5called?5without?5any?5e@
CONST	SEGMENT
??_C@_0CH@LDJJHMMC@Async?5run?$CI?$CJ?5called?5without?5any?5e@ DB 'Async'
	DB	' run() called without any events.', 00H	; `string'
CONST	ENDS
;	COMDAT ??_C@_0CB@DHCJJACB@AsyncRunCalledWithoutEventsError@
CONST	SEGMENT
??_C@_0CB@DHCJJACB@AsyncRunCalledWithoutEventsError@ DB 'AsyncRunCalledWi'
	DB	'thoutEventsError', 00H			; `string'
CONST	ENDS
;	COMDAT ??_C@_0BN@KHNEADKG@Base?5class?5for?5async?5errors?4?$AA@
CONST	SEGMENT
??_C@_0BN@KHNEADKG@Base?5class?5for?5async?5errors?4?$AA@ DB 'Base class '
	DB	'for async errors.', 00H			; `string'
CONST	ENDS
;	COMDAT ??_C@_0L@POMMPANG@AsyncError?$AA@
CONST	SEGMENT
??_C@_0L@POMMPANG@AsyncError?$AA@ DB 'AsyncError', 00H	; `string'
CONST	ENDS
;	COMDAT ??_C@_0EN@KNPFPBJJ@Implicit?5access?5to?5nonlocal?5vari@
CONST	SEGMENT
??_C@_0EN@KNPFPBJJ@Implicit?5access?5to?5nonlocal?5vari@ DB 'Implicit acc'
	DB	'ess to nonlocal variables not permitted within parallel conte'
	DB	'xt.', 00H					; `string'
CONST	ENDS
;	COMDAT ??_C@_0CE@ONNHACJB@ParallelNonlocalVariableAccessEr@
CONST	SEGMENT
??_C@_0CE@ONNHACJB@ParallelNonlocalVariableAccessEr@ DB 'ParallelNonlocal'
	DB	'VariableAccessError', 00H			; `string'
CONST	ENDS
;	COMDAT ??_C@_0EL@PLHLDPCD@Implicit?5access?5to?5global?5variab@
CONST	SEGMENT
??_C@_0EL@PLHLDPCD@Implicit?5access?5to?5global?5variab@ DB 'Implicit acc'
	DB	'ess to global variables not permitted within parallel context'
	DB	'.', 00H					; `string'
CONST	ENDS
;	COMDAT ??_C@_0CC@HPLHCPKN@ParallelGlobalVariableAccessErro@
CONST	SEGMENT
??_C@_0CC@HPLHCPKN@ParallelGlobalVariableAccessErro@ DB 'ParallelGlobalVa'
	DB	'riableAccessError', 00H			; `string'
CONST	ENDS
;	COMDAT ??_C@_0DD@JGEGKCHH@Import?5not?5permitted?5from?5within@
CONST	SEGMENT
??_C@_0DD@JGEGKCHH@Import?5not?5permitted?5from?5within@ DB 'Import not p'
	DB	'ermitted from within parallel context.', 00H ; `string'
CONST	ENDS
;	COMDAT ??_C@_0BE@FCGCAOGC@ParallelImportError?$AA@
CONST	SEGMENT
??_C@_0BE@FCGCAOGC@ParallelImportError?$AA@ DB 'ParallelImportError', 00H ; `string'
CONST	ENDS
;	COMDAT ??_C@_0DG@NPBGBDKP@Operation?5not?5permitted?5from?5wit@
CONST	SEGMENT
??_C@_0DG@NPBGBDKP@Operation?5not?5permitted?5from?5wit@ DB 'Operation no'
	DB	't permitted from within parallel context.', 00H ; `string'
CONST	ENDS
;	COMDAT ??_C@_0BF@HFKFAIAA@ParallelContextError?$AA@
CONST	SEGMENT
??_C@_0BF@HFKFAIAA@ParallelContextError?$AA@ DB 'ParallelContextError', 00H ; `string'
CONST	ENDS
;	COMDAT ??_C@_0DE@INBJNFAJ@Failed?5to?5initialize?5parallel?5co@
CONST	SEGMENT
??_C@_0DE@INBJNFAJ@Failed?5to?5initialize?5parallel?5co@ DB 'Failed to in'
	DB	'itialize parallel context for callback.', 00H ; `string'
CONST	ENDS
;	COMDAT ??_C@_0CD@MNHCHPAI@ParallelContextInitializationErr@
CONST	SEGMENT
??_C@_0CD@MNHCHPAI@ParallelContextInitializationErr@ DB 'ParallelContextI'
	DB	'nitializationError', 00H			; `string'
CONST	ENDS
;	COMDAT ??_C@_0CK@IKBKELBP@Failed?5to?5initialize?5new?5paralle@
CONST	SEGMENT
??_C@_0CK@IKBKELBP@Failed?5to?5initialize?5new?5paralle@ DB 'Failed to in'
	DB	'itialize new parallel thread.', 00H		; `string'
CONST	ENDS
;	COMDAT ??_C@_0CC@IAEHFMP@ParallelThreadInitializationErro@
CONST	SEGMENT
??_C@_0CC@IAEHFMP@ParallelThreadInitializationErro@ DB 'ParallelThreadIni'
	DB	'tializationError', 00H			; `string'
CONST	ENDS
;	COMDAT ??_C@_0CA@NKCFMBPJ@Base?5class?5for?5parallel?5errors?4?$AA@
CONST	SEGMENT
??_C@_0CA@NKCFMBPJ@Base?5class?5for?5parallel?5errors?4?$AA@ DB 'Base cla'
	DB	'ss for parallel errors.', 00H		; `string'
CONST	ENDS
;	COMDAT ??_C@_0O@GFKDNBOD@ParallelError?$AA@
CONST	SEGMENT
??_C@_0O@GFKDNBOD@ParallelError?$AA@ DB 'ParallelError', 00H ; `string'
CONST	ENDS
;	COMDAT ??_C@_0CO@BODDBCMG@Weak?5ref?5proxy?5used?5after?5refere@
CONST	SEGMENT
??_C@_0CO@BODDBCMG@Weak?5ref?5proxy?5used?5after?5refere@ DB 'Weak ref pr'
	DB	'oxy used after referent went away.', 00H	; `string'
CONST	ENDS
;	COMDAT ??_C@_0P@NJFCDLEA@ReferenceError?$AA@
CONST	SEGMENT
??_C@_0P@NJFCDLEA@ReferenceError?$AA@ DB 'ReferenceError', 00H ; `string'
CONST	ENDS
;	COMDAT ??_C@_0LA@PADCOJHH@Internal?5error?5in?5the?5Python?5int@
CONST	SEGMENT
??_C@_0LA@PADCOJHH@Internal?5error?5in?5the?5Python?5int@ DB 'Internal er'
	DB	'ror in the Python interpreter.', 0aH, 0aH, 'Please report thi'
	DB	's to the Python maintainer, along with the traceback,', 0aH, 't'
	DB	'he Python version, and the hardware/OS platform and version.', 00H ; `string'
CONST	ENDS
;	COMDAT ??_C@_0M@MLMICFKM@SystemError?$AA@
CONST	SEGMENT
??_C@_0M@MLMICFKM@SystemError?$AA@ DB 'SystemError', 00H ; `string'
CONST	ENDS
;	COMDAT ??_C@_0DM@HNAOGMFP@Second?5argument?5to?5a?5division?5or@
CONST	SEGMENT
??_C@_0DM@HNAOGMFP@Second?5argument?5to?5a?5division?5or@ DB 'Second argu'
	DB	'ment to a division or modulo operation was zero.', 00H ; `string'
CONST	ENDS
;	COMDAT ??_C@_0BC@JKCGANPD@ZeroDivisionError?$AA@
CONST	SEGMENT
??_C@_0BC@JKCGANPD@ZeroDivisionError?$AA@ DB 'ZeroDivisionError', 00H ; `string'
CONST	ENDS
;	COMDAT ??_C@_0CE@DNDJACFH@Result?5too?5large?5to?5be?5represent@
CONST	SEGMENT
??_C@_0CE@DNDJACFH@Result?5too?5large?5to?5be?5represent@ DB 'Result too '
	DB	'large to be represented.', 00H		; `string'
CONST	ENDS
;	COMDAT ??_C@_0O@DAFOBLHH@OverflowError?$AA@
CONST	SEGMENT
??_C@_0O@DAFOBLHH@OverflowError?$AA@ DB 'OverflowError', 00H ; `string'
CONST	ENDS
;	COMDAT ??_C@_0CB@CNKBBAIB@Floating?5point?5operation?5failed?4@
CONST	SEGMENT
??_C@_0CB@CNKBBAIB@Floating?5point?5operation?5failed?4@ DB 'Floating poi'
	DB	'nt operation failed.', 00H			; `string'
CONST	ENDS
;	COMDAT ??_C@_0BD@BMMMKAGK@FloatingPointError?$AA@
CONST	SEGMENT
??_C@_0BD@BMMMKAGK@FloatingPointError?$AA@ DB 'FloatingPointError', 00H ; `string'
CONST	ENDS
;	COMDAT ??_C@_0CC@PPOJNHHK@Base?5class?5for?5arithmetic?5errors@
CONST	SEGMENT
??_C@_0CC@PPOJNHHK@Base?5class?5for?5arithmetic?5errors@ DB 'Base class f'
	DB	'or arithmetic errors.', 00H			; `string'
CONST	ENDS
;	COMDAT ??_C@_0BA@HMBIHIEF@ArithmeticError?$AA@
CONST	SEGMENT
??_C@_0BA@HMBIHIEF@ArithmeticError?$AA@ DB 'ArithmeticError', 00H ; `string'
CONST	ENDS
;	COMDAT ??_C@_0BC@DHBLDLOI@Assertion?5failed?4?$AA@
CONST	SEGMENT
??_C@_0BC@DHBLDLOI@Assertion?5failed?4?$AA@ DB 'Assertion failed.', 00H ; `string'
CONST	ENDS
;	COMDAT ??_C@_0P@ECLAGKMP@AssertionError?$AA@
CONST	SEGMENT
??_C@_0P@ECLAGKMP@AssertionError?$AA@ DB 'AssertionError', 00H ; `string'
CONST	ENDS
;	COMDAT ??_C@_0BL@BOAAJAHA@Unicode?5translation?5error?4?$AA@
CONST	SEGMENT
??_C@_0BL@BOAAJAHA@Unicode?5translation?5error?4?$AA@ DB 'Unicode transla'
	DB	'tion error.', 00H				; `string'
CONST	ENDS
;	COMDAT ??_C@_0BG@MKGFNNGN@UnicodeTranslateError?$AA@
CONST	SEGMENT
??_C@_0BG@MKGFNNGN@UnicodeTranslateError?$AA@ DB 'UnicodeTranslateError', 00H ; `string'
CONST	ENDS
;	COMDAT ??_C@_0BI@GHLGAONJ@Unicode?5decoding?5error?4?$AA@
CONST	SEGMENT
??_C@_0BI@GHLGAONJ@Unicode?5decoding?5error?4?$AA@ DB 'Unicode decoding e'
	DB	'rror.', 00H					; `string'
CONST	ENDS
;	COMDAT ??_C@_0BD@EMOAOOII@UnicodeDecodeError?$AA@
CONST	SEGMENT
??_C@_0BD@EMOAOOII@UnicodeDecodeError?$AA@ DB 'UnicodeDecodeError', 00H ; `string'
CONST	ENDS
;	COMDAT ??_C@_0BI@BHCKDJLG@Unicode?5encoding?5error?4?$AA@
CONST	SEGMENT
??_C@_0BI@BHCKDJLG@Unicode?5encoding?5error?4?$AA@ DB 'Unicode encoding e'
	DB	'rror.', 00H					; `string'
CONST	ENDS
;	COMDAT ??_C@_0BD@PEGECFKD@UnicodeEncodeError?$AA@
CONST	SEGMENT
??_C@_0BD@PEGECFKD@UnicodeEncodeError?$AA@ DB 'UnicodeEncodeError', 00H ; `string'
CONST	ENDS
;	COMDAT ??_C@_0BB@PLOKJKDH@exception?5reason?$AA@
CONST	SEGMENT
??_C@_0BB@PLOKJKDH@exception?5reason?$AA@ DB 'exception reason', 00H ; `string'
CONST	ENDS
;	COMDAT ??_C@_06CEHAOENB@reason?$AA@
CONST	SEGMENT
??_C@_06CEHAOENB@reason?$AA@ DB 'reason', 00H		; `string'
CONST	ENDS
;	COMDAT ??_C@_0O@ONMBNCFM@exception?5end?$AA@
CONST	SEGMENT
??_C@_0O@ONMBNCFM@exception?5end?$AA@ DB 'exception end', 00H ; `string'
CONST	ENDS
;	COMDAT ??_C@_03JBJLGPFL@end?$AA@
CONST	SEGMENT
??_C@_03JBJLGPFL@end?$AA@ DB 'end', 00H			; `string'
CONST	ENDS
;	COMDAT ??_C@_0BA@KKPENCDK@exception?5start?$AA@
CONST	SEGMENT
??_C@_0BA@KKPENCDK@exception?5start?$AA@ DB 'exception start', 00H ; `string'
CONST	ENDS
;	COMDAT ??_C@_05FAGFPHJG@start?$AA@
CONST	SEGMENT
??_C@_05FAGFPHJG@start?$AA@ DB 'start', 00H		; `string'
CONST	ENDS
;	COMDAT ??_C@_0BB@FLHDGNGM@exception?5object?$AA@
CONST	SEGMENT
??_C@_0BB@FLHDGNGM@exception?5object?$AA@ DB 'exception object', 00H ; `string'
CONST	ENDS
;	COMDAT ??_C@_06IEOJBDIK@object?$AA@
CONST	SEGMENT
??_C@_06IEOJBDIK@object?$AA@ DB 'object', 00H		; `string'
CONST	ENDS
;	COMDAT ??_C@_0BD@HEGPNDEB@exception?5encoding?$AA@
CONST	SEGMENT
??_C@_0BD@HEGPNDEB@exception?5encoding?$AA@ DB 'exception encoding', 00H ; `string'
CONST	ENDS
;	COMDAT ??_C@_08MLPGAEIK@encoding?$AA@
CONST	SEGMENT
??_C@_08MLPGAEIK@encoding?$AA@ DB 'encoding', 00H	; `string'
CONST	ENDS
;	COMDAT ??_C@_0BH@LFJEPFCJ@Unicode?5related?5error?4?$AA@
CONST	SEGMENT
??_C@_0BH@LFJEPFCJ@Unicode?5related?5error?4?$AA@ DB 'Unicode related err'
	DB	'or.', 00H					; `string'
CONST	ENDS
;	COMDAT ??_C@_0N@HJMCMBLP@UnicodeError?$AA@
CONST	SEGMENT
??_C@_0N@HJMCMBLP@UnicodeError?$AA@ DB 'UnicodeError', 00H ; `string'
CONST	ENDS
;	COMDAT ??_C@_0DA@PDIMAGJA@Inappropriate?5argument?5value?5?$CIof@
CONST	SEGMENT
??_C@_0DA@PDIMAGJA@Inappropriate?5argument?5value?5?$CIof@ DB 'Inappropri'
	DB	'ate argument value (of correct type).', 00H	; `string'
CONST	ENDS
;	COMDAT ??_C@_0L@POAMGPDC@ValueError?$AA@
CONST	SEGMENT
??_C@_0L@POAMGPDC@ValueError?$AA@ DB 'ValueError', 00H	; `string'
CONST	ENDS
;	COMDAT ??_C@_0BH@NGNBEPFN@Mapping?5key?5not?5found?4?$AA@
CONST	SEGMENT
??_C@_0BH@NGNBEPFN@Mapping?5key?5not?5found?4?$AA@ DB 'Mapping key not fo'
	DB	'und.', 00H					; `string'
CONST	ENDS
;	COMDAT ??_C@_08OHPJJKKC@KeyError?$AA@
CONST	SEGMENT
??_C@_08OHPJJKKC@KeyError?$AA@ DB 'KeyError', 00H	; `string'
CONST	ENDS
;	COMDAT ??_C@_0BN@MPIMOMNM@Sequence?5index?5out?5of?5range?4?$AA@
CONST	SEGMENT
??_C@_0BN@MPIMOMNM@Sequence?5index?5out?5of?5range?4?$AA@ DB 'Sequence in'
	DB	'dex out of range.', 00H			; `string'
CONST	ENDS
;	COMDAT ??_C@_0L@PDGDGKIP@IndexError?$AA@
CONST	SEGMENT
??_C@_0L@PDGDGKIP@IndexError?$AA@ DB 'IndexError', 00H	; `string'
CONST	ENDS
;	COMDAT ??_C@_0BO@OONBGEOC@Base?5class?5for?5lookup?5errors?4?$AA@
CONST	SEGMENT
??_C@_0BO@OONBGEOC@Base?5class?5for?5lookup?5errors?4?$AA@ DB 'Base class'
	DB	' for lookup errors.', 00H			; `string'
CONST	ENDS
;	COMDAT ??_C@_0M@MHFOHJEK@LookupError?$AA@
CONST	SEGMENT
??_C@_0M@MHFOHJEK@LookupError?$AA@ DB 'LookupError', 00H ; `string'
CONST	ENDS
;	COMDAT ??_C@_0CF@GKBIKMOP@Improper?5mixture?5of?5spaces?5and?5t@
CONST	SEGMENT
??_C@_0CF@GKBIKMOP@Improper?5mixture?5of?5spaces?5and?5t@ DB 'Improper mi'
	DB	'xture of spaces and tabs.', 00H		; `string'
CONST	ENDS
;	COMDAT ??_C@_08HFBDNBMM@TabError?$AA@
CONST	SEGMENT
??_C@_08HFBDNBMM@TabError?$AA@ DB 'TabError', 00H	; `string'
CONST	ENDS
;	COMDAT ??_C@_0BG@EODDEBDJ@Improper?5indentation?4?$AA@
CONST	SEGMENT
??_C@_0BG@EODDEBDJ@Improper?5indentation?4?$AA@ DB 'Improper indentation.'
	DB	00H						; `string'
CONST	ENDS
;	COMDAT ??_C@_0BB@PAPDAKC@IndentationError?$AA@
CONST	SEGMENT
??_C@_0BB@PAPDAKC@IndentationError?$AA@ DB 'IndentationError', 00H ; `string'
CONST	ENDS
;	COMDAT ??_C@_0BA@GFAEMOKB@Invalid?5syntax?4?$AA@
CONST	SEGMENT
??_C@_0BA@GFAEMOKB@Invalid?5syntax?4?$AA@ DB 'Invalid syntax.', 00H ; `string'
CONST	ENDS
;	COMDAT ??_C@_0M@KIDEJCGH@SyntaxError?$AA@
CONST	SEGMENT
??_C@_0M@KIDEJCGH@SyntaxError?$AA@ DB 'SyntaxError', 00H ; `string'
CONST	ENDS
;	COMDAT ??_C@_0BO@GMLCEMFL@exception?5print_file_and_line?$AA@
CONST	SEGMENT
??_C@_0BO@GMLCEMFL@exception?5print_file_and_line?$AA@ DB 'exception prin'
	DB	't_file_and_line', 00H			; `string'
CONST	ENDS
;	COMDAT ??_C@_0BE@DKBHEDDB@print_file_and_line?$AA@
CONST	SEGMENT
??_C@_0BE@DKBHEDDB@print_file_and_line?$AA@ DB 'print_file_and_line', 00H ; `string'
CONST	ENDS
;	COMDAT ??_C@_0P@LGNOADNI@exception?5text?$AA@
CONST	SEGMENT
??_C@_0P@LGNOADNI@exception?5text?$AA@ DB 'exception text', 00H ; `string'
CONST	ENDS
;	COMDAT ??_C@_04CIMGMMMG@text?$AA@
CONST	SEGMENT
??_C@_04CIMGMMMG@text?$AA@ DB 'text', 00H		; `string'
CONST	ENDS
;	COMDAT ??_C@_0BB@HEONLGIK@exception?5offset?$AA@
CONST	SEGMENT
??_C@_0BB@HEONLGIK@exception?5offset?$AA@ DB 'exception offset', 00H ; `string'
CONST	ENDS
;	COMDAT ??_C@_06KLHHMIGM@offset?$AA@
CONST	SEGMENT
??_C@_06KLHHMIGM@offset?$AA@ DB 'offset', 00H		; `string'
CONST	ENDS
;	COMDAT ??_C@_0BB@FEDCHJDL@exception?5lineno?$AA@
CONST	SEGMENT
??_C@_0BB@FEDCHJDL@exception?5lineno?$AA@ DB 'exception lineno', 00H ; `string'
CONST	ENDS
;	COMDAT ??_C@_06ILKIAHNN@lineno?$AA@
CONST	SEGMENT
??_C@_06ILKIAHNN@lineno?$AA@ DB 'lineno', 00H		; `string'
CONST	ENDS
;	COMDAT ??_C@_0O@BHKGJJFD@exception?5msg?$AA@
CONST	SEGMENT
??_C@_0O@BHKGJJFD@exception?5msg?$AA@ DB 'exception msg', 00H ; `string'
CONST	ENDS
;	COMDAT ??_C@_0BF@KBBDNFNN@Attribute?5not?5found?4?$AA@
CONST	SEGMENT
??_C@_0BF@KBBDNFNN@Attribute?5not?5found?4?$AA@ DB 'Attribute not found.', 00H ; `string'
CONST	ENDS
;	COMDAT ??_C@_0P@OMMLLIOG@AttributeError?$AA@
CONST	SEGMENT
??_C@_0P@OMMLLIOG@AttributeError?$AA@ DB 'AttributeError', 00H ; `string'
CONST	ENDS
;	COMDAT ??_C@_0DA@JDNAGEED@Local?5name?5referenced?5but?5not?5bo@
CONST	SEGMENT
??_C@_0DA@JDNAGEED@Local?5name?5referenced?5but?5not?5bo@ DB 'Local name '
	DB	'referenced but not bound to a value.', 00H	; `string'
CONST	ENDS
;	COMDAT ??_C@_0BC@EJBPJIJA@UnboundLocalError?$AA@
CONST	SEGMENT
??_C@_0BC@EJBPJIJA@UnboundLocalError?$AA@ DB 'UnboundLocalError', 00H ; `string'
CONST	ENDS
;	COMDAT ??_C@_0BJ@CKADCLHL@Name?5not?5found?5globally?4?$AA@
CONST	SEGMENT
??_C@_0BJ@CKADCLHL@Name?5not?5found?5globally?4?$AA@ DB 'Name not found g'
	DB	'lobally.', 00H				; `string'
CONST	ENDS
;	COMDAT ??_C@_09GENDEFL@NameError?$AA@
CONST	SEGMENT
??_C@_09GENDEFL@NameError?$AA@ DB 'NameError', 00H	; `string'
CONST	ENDS
;	COMDAT ??_C@_0DA@PMFCDFAJ@Method?5or?5function?5hasn?8t?5been?5i@
CONST	SEGMENT
??_C@_0DA@PMFCDFAJ@Method?5or?5function?5hasn?8t?5been?5i@ DB 'Method or '
	DB	'function hasn''t been implemented yet.', 00H ; `string'
CONST	ENDS
;	COMDAT ??_C@_0BE@NIHEKDAM@NotImplementedError?$AA@
CONST	SEGMENT
??_C@_0BE@NIHEKDAM@NotImplementedError?$AA@ DB 'NotImplementedError', 00H ; `string'
CONST	ENDS
;	COMDAT ??_C@_0BM@GMHHIONK@Unspecified?5run?9time?5error?4?$AA@
CONST	SEGMENT
??_C@_0BM@GMHHIONK@Unspecified?5run?9time?5error?4?$AA@ DB 'Unspecified r'
	DB	'un-time error.', 00H			; `string'
CONST	ENDS
;	COMDAT ??_C@_0N@PJCHGDKG@RuntimeError?$AA@
CONST	SEGMENT
??_C@_0N@PJCHGDKG@RuntimeError?$AA@ DB 'RuntimeError', 00H ; `string'
CONST	ENDS
;	COMDAT ??_C@_0BJ@DBOMGJHD@Read?5beyond?5end?5of?5file?4?$AA@
CONST	SEGMENT
??_C@_0BJ@DBOMGJHD@Read?5beyond?5end?5of?5file?4?$AA@ DB 'Read beyond end'
	DB	' of file.', 00H				; `string'
CONST	ENDS
;	COMDAT ??_C@_08BJKGOKBF@EOFError?$AA@
CONST	SEGMENT
??_C@_08BJKGOKBF@EOFError?$AA@ DB 'EOFError', 00H	; `string'
CONST	ENDS
;	COMDAT ??_C@_0BB@KIFGEFOB@Timeout?5expired?4?$AA@
CONST	SEGMENT
??_C@_0BB@KIFGEFOB@Timeout?5expired?4?$AA@ DB 'Timeout expired.', 00H ; `string'
CONST	ENDS
;	COMDAT ??_C@_0N@BMLDFELP@TimeoutError?$AA@
CONST	SEGMENT
??_C@_0N@BMLDFELP@TimeoutError?$AA@ DB 'TimeoutError', 00H ; `string'
CONST	ENDS
;	COMDAT ??_C@_0BD@CDPGLGNA@Process?5not?5found?4?$AA@
CONST	SEGMENT
??_C@_0BD@CDPGLGNA@Process?5not?5found?4?$AA@ DB 'Process not found.', 00H ; `string'
CONST	ENDS
;	COMDAT ??_C@_0BD@LBBCHOLB@ProcessLookupError?$AA@
CONST	SEGMENT
??_C@_0BD@LBBCHOLB@ProcessLookupError?$AA@ DB 'ProcessLookupError', 00H ; `string'
CONST	ENDS
;	COMDAT ??_C@_0BI@ICBFMNFH@Not?5enough?5permissions?4?$AA@
CONST	SEGMENT
??_C@_0BI@ICBFMNFH@Not?5enough?5permissions?4?$AA@ DB 'Not enough permiss'
	DB	'ions.', 00H					; `string'
CONST	ENDS
;	COMDAT ??_C@_0BA@EGIOHDMA@PermissionError?$AA@
CONST	SEGMENT
??_C@_0BA@EGIOHDMA@PermissionError?$AA@ DB 'PermissionError', 00H ; `string'
CONST	ENDS
;	COMDAT ??_C@_0BH@DPFOMFFN@Interrupted?5by?5signal?4?$AA@
CONST	SEGMENT
??_C@_0BH@DPFOMFFN@Interrupted?5by?5signal?4?$AA@ DB 'Interrupted by sign'
	DB	'al.', 00H					; `string'
CONST	ENDS
;	COMDAT ??_C@_0BB@PFBGOELP@InterruptedError?$AA@
CONST	SEGMENT
??_C@_0BB@PFBGOELP@InterruptedError?$AA@ DB 'InterruptedError', 00H ; `string'
CONST	ENDS
;	COMDAT ??_C@_0CF@MHLAOJGN@Operation?5only?5works?5on?5director@
CONST	SEGMENT
??_C@_0CF@MHLAOJGN@Operation?5only?5works?5on?5director@ DB 'Operation on'
	DB	'ly works on directories.', 00H		; `string'
CONST	ENDS
;	COMDAT ??_C@_0BD@BDDBNNNE@NotADirectoryError?$AA@
CONST	SEGMENT
??_C@_0BD@BDDBNNNE@NotADirectoryError?$AA@ DB 'NotADirectoryError', 00H ; `string'
CONST	ENDS
;	COMDAT ??_C@_0CH@PKAKIMKI@Operation?5doesn?8t?5work?5on?5direct@
CONST	SEGMENT
??_C@_0CH@PKAKIMKI@Operation?5doesn?8t?5work?5on?5direct@ DB 'Operation d'
	DB	'oesn''t work on directories.', 00H		; `string'
CONST	ENDS
;	COMDAT ??_C@_0BC@EPPFJLG@IsADirectoryError?$AA@
CONST	SEGMENT
??_C@_0BC@EPPFJLG@IsADirectoryError?$AA@ DB 'IsADirectoryError', 00H ; `string'
CONST	ENDS
;	COMDAT ??_C@_0BA@DOIDIGMK@File?5not?5found?4?$AA@
CONST	SEGMENT
??_C@_0BA@DOIDIGMK@File?5not?5found?4?$AA@ DB 'File not found.', 00H ; `string'
CONST	ENDS
;	COMDAT ??_C@_0BC@IPPJKII@FileNotFoundError?$AA@
CONST	SEGMENT
??_C@_0BC@IPPJKII@FileNotFoundError?$AA@ DB 'FileNotFoundError', 00H ; `string'
CONST	ENDS
;	COMDAT ??_C@_0BF@PBMIGFNE@File?5already?5exists?4?$AA@
CONST	SEGMENT
??_C@_0BF@PBMIGFNE@File?5already?5exists?4?$AA@ DB 'File already exists.', 00H ; `string'
CONST	ENDS
;	COMDAT ??_C@_0BA@FBEHCPFP@FileExistsError?$AA@
CONST	SEGMENT
??_C@_0BA@FBEHCPFP@FileExistsError?$AA@ DB 'FileExistsError', 00H ; `string'
CONST	ENDS
;	COMDAT ??_C@_0BC@PIBEPGML@Connection?5reset?4?$AA@
CONST	SEGMENT
??_C@_0BC@PIBEPGML@Connection?5reset?4?$AA@ DB 'Connection reset.', 00H ; `string'
CONST	ENDS
;	COMDAT ??_C@_0BF@KPCMAHCN@ConnectionResetError?$AA@
CONST	SEGMENT
??_C@_0BF@KPCMAHCN@ConnectionResetError?$AA@ DB 'ConnectionResetError', 00H ; `string'
CONST	ENDS
;	COMDAT ??_C@_0BE@PAAMHJLG@Connection?5refused?4?$AA@
CONST	SEGMENT
??_C@_0BE@PAAMHJLG@Connection?5refused?4?$AA@ DB 'Connection refused.', 00H ; `string'
CONST	ENDS
;	COMDAT ??_C@_0BH@NFNMCF@ConnectionRefusedError?$AA@
CONST	SEGMENT
??_C@_0BH@NFNMCF@ConnectionRefusedError?$AA@ DB 'ConnectionRefusedError', 00H ; `string'
CONST	ENDS
;	COMDAT ??_C@_0BE@FFDJKHGA@Connection?5aborted?4?$AA@
CONST	SEGMENT
??_C@_0BE@FFDJKHGA@Connection?5aborted?4?$AA@ DB 'Connection aborted.', 00H ; `string'
CONST	ENDS
;	COMDAT ??_C@_0BH@IAHALHIL@ConnectionAbortedError?$AA@
CONST	SEGMENT
??_C@_0BH@IAHALHIL@ConnectionAbortedError?$AA@ DB 'ConnectionAbortedError'
	DB	00H						; `string'
CONST	ENDS
;	COMDAT ??_C@_0N@KCAMOIPH@Broken?5pipe?4?$AA@
CONST	SEGMENT
??_C@_0N@KCAMOIPH@Broken?5pipe?4?$AA@ DB 'Broken pipe.', 00H ; `string'
CONST	ENDS
;	COMDAT ??_C@_0BA@OKFJGAGB@BrokenPipeError?$AA@
CONST	SEGMENT
??_C@_0BA@OKFJGAGB@BrokenPipeError?$AA@ DB 'BrokenPipeError', 00H ; `string'
CONST	ENDS
;	COMDAT ??_C@_0BF@IOACMFNO@Child?5process?5error?4?$AA@
CONST	SEGMENT
??_C@_0BF@IOACMFNO@Child?5process?5error?4?$AA@ DB 'Child process error.', 00H ; `string'
CONST	ENDS
;	COMDAT ??_C@_0BC@LJAFFAPL@ChildProcessError?$AA@
CONST	SEGMENT
??_C@_0BC@LJAFFAPL@ChildProcessError?$AA@ DB 'ChildProcessError', 00H ; `string'
CONST	ENDS
;	COMDAT ??_C@_0BC@BCOONDMO@Connection?5error?4?$AA@
CONST	SEGMENT
??_C@_0BC@BCOONDMO@Connection?5error?4?$AA@ DB 'Connection error.', 00H ; `string'
CONST	ENDS
;	COMDAT ??_C@_0BA@FGMDNHAG@ConnectionError?$AA@
CONST	SEGMENT
??_C@_0BA@FGMDNHAG@ConnectionError?$AA@ DB 'ConnectionError', 00H ; `string'
CONST	ENDS
;	COMDAT ??_C@_0BL@LJLKLDJH@I?1O?5operation?5would?5block?4?$AA@
CONST	SEGMENT
??_C@_0BL@LJLKLDJH@I?1O?5operation?5would?5block?4?$AA@ DB 'I/O operation'
	DB	' would block.', 00H				; `string'
CONST	ENDS
;	COMDAT ??_C@_0BA@JGPGLFDG@BlockingIOError?$AA@
CONST	SEGMENT
??_C@_0BA@JGPGLFDG@BlockingIOError?$AA@ DB 'BlockingIOError', 00H ; `string'
CONST	ENDS
;	COMDAT ??_C@_0CD@BBOAKDDD@Base?5class?5for?5I?1O?5related?5error@
CONST	SEGMENT
??_C@_0CD@BBOAKDDD@Base?5class?5for?5I?1O?5related?5error@ DB 'Base class'
	DB	' for I/O related errors.', 00H		; `string'
CONST	ENDS
;	COMDAT ??_C@_07DLGONEPD@OSError?$AA@
CONST	SEGMENT
??_C@_07DLGONEPD@OSError?$AA@ DB 'OSError', 00H		; `string'
CONST	ENDS
;	COMDAT ??_C@_0BD@MJNIBNKM@characters_written?$AA@
CONST	SEGMENT
??_C@_0BD@MJNIBNKM@characters_written?$AA@ DB 'characters_written', 00H ; `string'
CONST	ENDS
;	COMDAT ??_C@_0BF@EGKICGDH@Win32?5exception?5code?$AA@
CONST	SEGMENT
??_C@_0BF@EGKICGDH@Win32?5exception?5code?$AA@ DB 'Win32 exception code', 00H ; `string'
CONST	ENDS
;	COMDAT ??_C@_08NNIGBLFN@winerror?$AA@
CONST	SEGMENT
??_C@_08NNIGBLFN@winerror?$AA@ DB 'winerror', 00H	; `string'
CONST	ENDS
;	COMDAT ??_C@_0BD@KPIAFJIH@exception?5filename?$AA@
CONST	SEGMENT
??_C@_0BD@KPIAFJIH@exception?5filename?$AA@ DB 'exception filename', 00H ; `string'
CONST	ENDS
;	COMDAT ??_C@_08BABJIOEM@filename?$AA@
CONST	SEGMENT
??_C@_08BABJIOEM@filename?$AA@ DB 'filename', 00H	; `string'
CONST	ENDS
;	COMDAT ??_C@_0BD@HIDDEPNK@exception?5strerror?$AA@
CONST	SEGMENT
??_C@_0BD@HIDDEPNK@exception?5strerror?$AA@ DB 'exception strerror', 00H ; `string'
CONST	ENDS
;	COMDAT ??_C@_08MHKKJIBB@strerror?$AA@
CONST	SEGMENT
??_C@_08MHKKJIBB@strerror?$AA@ DB 'strerror', 00H	; `string'
CONST	ENDS
;	COMDAT ??_C@_0BF@CJFJGJAA@POSIX?5exception?5code?$AA@
CONST	SEGMENT
??_C@_0BF@CJFJGJAA@POSIX?5exception?5code?$AA@ DB 'POSIX exception code', 00H ; `string'
CONST	ENDS
;	COMDAT ??_C@_05PEAMIKEP@errno?$AA@
CONST	SEGMENT
??_C@_05PEAMIKEP@errno?$AA@ DB 'errno', 00H		; `string'
CONST	ENDS
;	COMDAT ??_C@_0DI@HEBCIICE@Import?5can?8t?5find?5module?0?5or?5can@
CONST	SEGMENT
??_C@_0DI@HEBCIICE@Import?5can?8t?5find?5module?0?5or?5can@ DB 'Import ca'
	DB	'n''t find module, or can''t find name in module.', 00H ; `string'
CONST	ENDS
;	COMDAT ??_C@_0M@HCFCBBPI@ImportError?$AA@
CONST	SEGMENT
??_C@_0M@HCFCBBPI@ImportError?$AA@ DB 'ImportError', 00H ; `string'
CONST	ENDS
;	COMDAT ??_C@_0M@EODBJGBC@module?5path?$AA@
CONST	SEGMENT
??_C@_0M@EODBJGBC@module?5path?$AA@ DB 'module path', 00H ; `string'
CONST	ENDS
;	COMDAT ??_C@_04LNEJFJGI@path?$AA@
CONST	SEGMENT
??_C@_04LNEJFJGI@path?$AA@ DB 'path', 00H		; `string'
CONST	ENDS
;	COMDAT ??_C@_0M@DHLIFJED@module?5name?$AA@
CONST	SEGMENT
??_C@_0M@DHLIFJED@module?5name?$AA@ DB 'module name', 00H ; `string'
CONST	ENDS
;	COMDAT ??_C@_04MEMAJGDJ@name?$AA@
CONST	SEGMENT
??_C@_04MEMAJGDJ@name?$AA@ DB 'name', 00H		; `string'
CONST	ENDS
;	COMDAT ??_C@_0BC@KEEHBMNM@exception?5message?$AA@
CONST	SEGMENT
??_C@_0BC@KEEHBMNM@exception?5message?$AA@ DB 'exception message', 00H ; `string'
CONST	ENDS
;	COMDAT ??_C@_03GLPMCEFE@msg?$AA@
CONST	SEGMENT
??_C@_03GLPMCEFE@msg?$AA@ DB 'msg', 00H			; `string'
CONST	ENDS
;	COMDAT ??_C@_0BN@MANALLKN@Program?5interrupted?5by?5user?4?$AA@
CONST	SEGMENT
??_C@_0BN@MANALLKN@Program?5interrupted?5by?5user?4?$AA@ DB 'Program inte'
	DB	'rrupted by user.', 00H			; `string'
CONST	ENDS
;	COMDAT ??_C@_0BC@BACBBCED@KeyboardInterrupt?$AA@
CONST	SEGMENT
??_C@_0BC@BACBBCED@KeyboardInterrupt?$AA@ DB 'KeyboardInterrupt', 00H ; `string'
CONST	ENDS
;	COMDAT ??_C@_0CG@KDLBFKIC@Request?5to?5exit?5from?5the?5interpr@
CONST	SEGMENT
??_C@_0CG@KDLBFKIC@Request?5to?5exit?5from?5the?5interpr@ DB 'Request to '
	DB	'exit from the interpreter.', 00H		; `string'
CONST	ENDS
;	COMDAT ??_C@_0L@MBGFFHMP@SystemExit?$AA@
CONST	SEGMENT
??_C@_0L@MBGFFHMP@SystemExit?$AA@ DB 'SystemExit', 00H	; `string'
CONST	ENDS
;	COMDAT ??_C@_0P@ENEGNBCK@exception?5code?$AA@
CONST	SEGMENT
??_C@_0P@ENEGNBCK@exception?5code?$AA@ DB 'exception code', 00H ; `string'
CONST	ENDS
;	COMDAT ??_C@_04NDFOBODE@code?$AA@
CONST	SEGMENT
??_C@_04NDFOBODE@code?$AA@ DB 'code', 00H		; `string'
CONST	ENDS
;	COMDAT ??_C@_0BP@OCIPBJOC@Request?5that?5a?5generator?5exit?4?$AA@
CONST	SEGMENT
??_C@_0BP@OCIPBJOC@Request?5that?5a?5generator?5exit?4?$AA@ DB 'Request t'
	DB	'hat a generator exit.', 00H			; `string'
CONST	ENDS
;	COMDAT ??_C@_0O@GBGLOLNB@GeneratorExit?$AA@
CONST	SEGMENT
??_C@_0O@GBGLOLNB@GeneratorExit?$AA@ DB 'GeneratorExit', 00H ; `string'
CONST	ENDS
;	COMDAT ??_C@_0CJ@IGGDMNCD@Signal?5the?5end?5from?5iterator?4__n@
CONST	SEGMENT
??_C@_0CJ@IGGDMNCD@Signal?5the?5end?5from?5iterator?4__n@ DB 'Signal the '
	DB	'end from iterator.__next__().', 00H		; `string'
CONST	ENDS
;	COMDAT ??_C@_0O@LGLKOGMF@StopIteration?$AA@
CONST	SEGMENT
??_C@_0O@LGLKOGMF@StopIteration?$AA@ DB 'StopIteration', 00H ; `string'
CONST	ENDS
;	COMDAT ??_C@_0BH@CEJBINIP@generator?5return?5value?$AA@
CONST	SEGMENT
??_C@_0BH@CEJBINIP@generator?5return?5value?$AA@ DB 'generator return val'
	DB	'ue', 00H					; `string'
CONST	ENDS
;	COMDAT ??_C@_05MFEJDJP@value?$AA@
CONST	SEGMENT
??_C@_05MFEJDJP@value?$AA@ DB 'value', 00H		; `string'
CONST	ENDS
;	COMDAT ??_C@_0BN@GFNFLJFF@Inappropriate?5argument?5type?4?$AA@
CONST	SEGMENT
??_C@_0BN@GFNFLJFF@Inappropriate?5argument?5type?4?$AA@ DB 'Inappropriate'
	DB	' argument type.', 00H			; `string'
CONST	ENDS
;	COMDAT ??_C@_09MGGHOBOJ@TypeError?$AA@
CONST	SEGMENT
??_C@_09MGGHOBOJ@TypeError?$AA@ DB 'TypeError', 00H	; `string'
CONST	ENDS
;	COMDAT ??_C@_0CP@EGCLOIMN@Common?5base?5class?5for?5all?5non?9ex@
CONST	SEGMENT
??_C@_0CP@EGCLOIMN@Common?5base?5class?5for?5all?5non?9ex@ DB 'Common bas'
	DB	'e class for all non-exit exceptions.', 00H	; `string'
CONST	ENDS
;	COMDAT ??_C@_09FBNMMHMJ@Exception?$AA@
CONST	SEGMENT
??_C@_09FBNMMHMJ@Exception?$AA@ DB 'Exception', 00H	; `string'
CONST	ENDS
;	COMDAT ??_C@_0CF@KACNFHAK@Common?5base?5class?5for?5all?5except@
CONST	SEGMENT
??_C@_0CF@KACNFHAK@Common?5base?5class?5for?5all?5except@ DB 'Common base'
	DB	' class for all exceptions', 00H		; `string'
CONST	ENDS
;	COMDAT ??_C@_0O@GCAIIPIB@BaseException?$AA@
CONST	SEGMENT
??_C@_0O@GCAIIPIB@BaseException?$AA@ DB 'BaseException', 00H ; `string'
CONST	ENDS
;	COMDAT ??_C@_0BF@PLNDEDFH@__suppress_context__?$AA@
CONST	SEGMENT
??_C@_0BF@PLNDEDFH@__suppress_context__?$AA@ DB '__suppress_context__', 00H ; `string'
CONST	ENDS
;	COMDAT ??_C@_0BA@IMECEBLM@exception?5cause?$AA@
CONST	SEGMENT
??_C@_0BA@IMECEBLM@exception?5cause?$AA@ DB 'exception cause', 00H ; `string'
CONST	ENDS
;	COMDAT ??_C@_09DJICANKI@__cause__?$AA@
CONST	SEGMENT
??_C@_09DJICANKI@__cause__?$AA@ DB '__cause__', 00H	; `string'
CONST	ENDS
;	COMDAT ??_C@_0BC@NDBEMMPP@exception?5context?$AA@
CONST	SEGMENT
??_C@_0BC@NDBEMMPP@exception?5context?$AA@ DB 'exception context', 00H ; `string'
CONST	ENDS
;	COMDAT ??_C@_0M@GKMKEIIC@__context__?$AA@
CONST	SEGMENT
??_C@_0M@GKMKEIIC@__context__?$AA@ DB '__context__', 00H ; `string'
CONST	ENDS
;	COMDAT ??_C@_0O@IEBEOCOE@__traceback__?$AA@
CONST	SEGMENT
??_C@_0O@IEBEOCOE@__traceback__?$AA@ DB '__traceback__', 00H ; `string'
CONST	ENDS
;	COMDAT ??_C@_04BFDDMJJI@args?$AA@
CONST	SEGMENT
??_C@_04BFDDMJJI@args?$AA@ DB 'args', 00H		; `string'
CONST	ENDS
;	COMDAT ??_C@_08IBFKALI@__dict__?$AA@
CONST	SEGMENT
??_C@_08IBFKALI@__dict__?$AA@ DB '__dict__', 00H	; `string'
CONST	ENDS
;	COMDAT ??_C@_0P@FLIOKJJK@with_traceback?$AA@
CONST	SEGMENT
??_C@_0P@FLIOKJJK@with_traceback?$AA@ DB 'with_traceback', 00H ; `string'
CONST	ENDS
;	COMDAT ??_C@_0N@MOOGCAMH@__setstate__?$AA@
CONST	SEGMENT
??_C@_0N@MOOGCAMH@__setstate__?$AA@ DB '__setstate__', 00H ; `string'
CONST	ENDS
;	COMDAT ??_C@_0L@NNMACJIG@__reduce__?$AA@
CONST	SEGMENT
??_C@_0L@NNMACJIG@__reduce__?$AA@ DB '__reduce__', 00H	; `string'
CONST	ENDS
_DATA	SEGMENT
with_traceback_doc DB 'Exception.with_traceback(tb) --', 0aH, '    set se'
	DB	'lf.__traceback__ to tb and return self.', 00H
	ORG $+14
BaseException_methods DQ FLAT:??_C@_0L@NNMACJIG@__reduce__?$AA@
	DQ	FLAT:BaseException_reduce
	DD	04H
	ORG $+4
	ORG $+8
	DQ	FLAT:??_C@_0N@MOOGCAMH@__setstate__?$AA@
	DQ	FLAT:BaseException_setstate
	DD	08H
	ORG $+4
	ORG $+8
	DQ	FLAT:??_C@_0P@FLIOKJJK@with_traceback?$AA@
	DQ	FLAT:BaseException_with_traceback
	DD	08H
	ORG $+4
	DQ	FLAT:with_traceback_doc
	DQ	0000000000000000H
	DQ	0000000000000000H
	DD	00H
	ORG $+4
	DQ	0000000000000000H
BaseException_getset DQ FLAT:??_C@_08IBFKALI@__dict__?$AA@
	DQ	FLAT:PyObject_GenericGetDict
	DQ	FLAT:PyObject_GenericSetDict
	ORG $+16
	DQ	FLAT:??_C@_04BFDDMJJI@args?$AA@
	DQ	FLAT:BaseException_get_args
	DQ	FLAT:BaseException_set_args
	ORG $+16
	DQ	FLAT:??_C@_0O@IEBEOCOE@__traceback__?$AA@
	DQ	FLAT:BaseException_get_tb
	DQ	FLAT:BaseException_set_tb
	ORG $+16
	DQ	FLAT:??_C@_0M@GKMKEIIC@__context__?$AA@
	DQ	FLAT:BaseException_get_context
	DQ	FLAT:BaseException_set_context
	DQ	FLAT:??_C@_0BC@NDBEMMPP@exception?5context?$AA@
	ORG $+8
	DQ	FLAT:??_C@_09DJICANKI@__cause__?$AA@
	DQ	FLAT:BaseException_get_cause
	DQ	FLAT:BaseException_set_cause
	DQ	FLAT:??_C@_0BA@IMECEBLM@exception?5cause?$AA@
	ORG $+8
	DQ	0000000000000000H
	ORG $+32
BaseException_members DQ FLAT:??_C@_0BF@PLNDEDFH@__suppress_context__?$AA@
	DD	0eH
	ORG $+4
	DQ	0000000000000088H
	ORG $+16
	DQ	0000000000000000H
	ORG $+32
_PyExc_BaseException DQ dead1234beef5678H
	DQ	dead1234beef5678H
	DQ	0000000000000000H
	ORG $+8
	DQ	0000000000000001H
	DQ	0000000000000000H
	DQ	0000000000000000H
	DQ	0000000000000000H
	DQ	dead1234beef5678H
	DQ	dead1234beef5678H
	DQ	0000000000000001H
	DQ	0000000000000000H
	DQ	0000000000000000H
	ORG $+8
	DQ	FLAT:??_C@_0O@GCAIIPIB@BaseException?$AA@
	DQ	0000000000000090H
	DQ	0000000000000000H
	DQ	FLAT:BaseException_dealloc
	DQ	0000000000000000H
	DQ	0000000000000000H
	DQ	0000000000000000H
	DQ	0000000000000000H
	DQ	FLAT:BaseException_repr
	DQ	0000000000000000H
	DQ	0000000000000000H
	DQ	0000000000000000H
	DQ	0000000000000000H
	DQ	0000000000000000H
	DQ	FLAT:BaseException_str
	DQ	FLAT:PyObject_GenericGetAttr
	DQ	FLAT:PyObject_GenericSetAttr
	DQ	0000000000000000H
	DD	040044400H
	ORG $+4
	DQ	FLAT:??_C@_0CF@KACNFHAK@Common?5base?5class?5for?5all?5except@
	DQ	FLAT:BaseException_traverse
	DQ	FLAT:BaseException_clear
	DQ	0000000000000000H
	DQ	0000000000000000H
	DQ	0000000000000000H
	DQ	0000000000000000H
	DQ	FLAT:BaseException_methods
	DQ	FLAT:BaseException_members
	DQ	FLAT:BaseException_getset
	DQ	0000000000000000H
	DQ	0000000000000000H
	DQ	0000000000000000H
	DQ	0000000000000000H
	DQ	0000000000000060H
	DQ	FLAT:BaseException_init
	DQ	0000000000000000H
	DQ	FLAT:BaseException_new
	ORG $+72
PyExc_BaseException DQ FLAT:_PyExc_BaseException
PyExc_Exception DQ FLAT:_PyExc_Exception
_PyExc_Exception DQ dead1234beef5678H
	DQ	dead1234beef5678H
	DQ	0000000000000000H
	ORG $+8
	DQ	0000000000000001H
	DQ	0000000000000000H
	DQ	0000000000000000H
	DQ	0000000000000000H
	DQ	dead1234beef5678H
	DQ	dead1234beef5678H
	DQ	0000000000000001H
	DQ	0000000000000000H
	DQ	0000000000000000H
	ORG $+8
	DQ	FLAT:??_C@_09FBNMMHMJ@Exception?$AA@
	DQ	0000000000000090H
	DQ	0000000000000000H
	DQ	FLAT:BaseException_dealloc
	DQ	0000000000000000H
	DQ	0000000000000000H
	DQ	0000000000000000H
	DQ	0000000000000000H
	DQ	0000000000000000H
	DQ	0000000000000000H
	DQ	0000000000000000H
	DQ	0000000000000000H
	DQ	0000000000000000H
	DQ	0000000000000000H
	DQ	0000000000000000H
	DQ	0000000000000000H
	DQ	0000000000000000H
	DQ	0000000000000000H
	DD	044400H
	ORG $+4
	DQ	FLAT:??_C@_0CP@EGCLOIMN@Common?5base?5class?5for?5all?5non?9ex@
	DQ	FLAT:BaseException_traverse
	DQ	FLAT:BaseException_clear
	DQ	0000000000000000H
	DQ	0000000000000000H
	DQ	0000000000000000H
	DQ	0000000000000000H
	DQ	0000000000000000H
	DQ	0000000000000000H
	DQ	0000000000000000H
	DQ	FLAT:_PyExc_BaseException
	DQ	0000000000000000H
	DQ	0000000000000000H
	DQ	0000000000000000H
	DQ	0000000000000060H
	DQ	FLAT:BaseException_init
	DQ	0000000000000000H
	DQ	FLAT:BaseException_new
	ORG $+72
_PyExc_TypeError DQ dead1234beef5678H
	DQ	dead1234beef5678H
	DQ	0000000000000000H
	ORG $+8
	DQ	0000000000000001H
	DQ	0000000000000000H
	DQ	0000000000000000H
	DQ	0000000000000000H
	DQ	dead1234beef5678H
	DQ	dead1234beef5678H
	DQ	0000000000000001H
	DQ	0000000000000000H
	DQ	0000000000000000H
	ORG $+8
	DQ	FLAT:??_C@_09MGGHOBOJ@TypeError?$AA@
	DQ	0000000000000090H
	DQ	0000000000000000H
	DQ	FLAT:BaseException_dealloc
	DQ	0000000000000000H
	DQ	0000000000000000H
	DQ	0000000000000000H
	DQ	0000000000000000H
	DQ	0000000000000000H
	DQ	0000000000000000H
	DQ	0000000000000000H
	DQ	0000000000000000H
	DQ	0000000000000000H
	DQ	0000000000000000H
	DQ	0000000000000000H
	DQ	0000000000000000H
	DQ	0000000000000000H
	DQ	0000000000000000H
	DD	044400H
	ORG $+4
	DQ	FLAT:??_C@_0BN@GFNFLJFF@Inappropriate?5argument?5type?4?$AA@
	DQ	FLAT:BaseException_traverse
	DQ	FLAT:BaseException_clear
	DQ	0000000000000000H
	DQ	0000000000000000H
	DQ	0000000000000000H
	DQ	0000000000000000H
	DQ	0000000000000000H
	DQ	0000000000000000H
	DQ	0000000000000000H
	DQ	FLAT:_PyExc_Exception
	DQ	0000000000000000H
	DQ	0000000000000000H
	DQ	0000000000000000H
	DQ	0000000000000060H
	DQ	FLAT:BaseException_init
	DQ	0000000000000000H
	DQ	FLAT:BaseException_new
	ORG $+72
PyExc_TypeError DQ FLAT:_PyExc_TypeError
PyExc_StopIteration DQ FLAT:_PyExc_StopIteration
StopIteration_members DQ FLAT:??_C@_05MFEJDJP@value?$AA@
	DD	06H
	ORG $+4
	DQ	0000000000000090H
	DD	00H
	ORG $+4
	DQ	FLAT:??_C@_0BH@CEJBINIP@generator?5return?5value?$AA@
	DQ	0000000000000000H
	ORG $+32
_PyExc_StopIteration DQ dead1234beef5678H
	DQ	dead1234beef5678H
	DQ	0000000000000000H
	ORG $+8
	DQ	0000000000000001H
	DQ	0000000000000000H
	DQ	0000000000000000H
	DQ	0000000000000000H
	DQ	dead1234beef5678H
	DQ	dead1234beef5678H
	DQ	0000000000000001H
	DQ	0000000000000000H
	DQ	0000000000000000H
	ORG $+8
	DQ	FLAT:??_C@_0O@LGLKOGMF@StopIteration?$AA@
	DQ	00000000000000a0H
	DQ	0000000000000000H
	DQ	FLAT:StopIteration_dealloc
	DQ	0000000000000000H
	DQ	0000000000000000H
	DQ	0000000000000000H
	DQ	0000000000000000H
	DQ	0000000000000000H
	DQ	0000000000000000H
	DQ	0000000000000000H
	DQ	0000000000000000H
	DQ	0000000000000000H
	DQ	0000000000000000H
	DQ	0000000000000000H
	DQ	0000000000000000H
	DQ	0000000000000000H
	DQ	0000000000000000H
	DD	044400H
	ORG $+4
	DQ	FLAT:??_C@_0CJ@IGGDMNCD@Signal?5the?5end?5from?5iterator?4__n@
	DQ	FLAT:StopIteration_traverse
	DQ	FLAT:StopIteration_clear
	DQ	0000000000000000H
	DQ	0000000000000000H
	DQ	0000000000000000H
	DQ	0000000000000000H
	DQ	0000000000000000H
	DQ	FLAT:StopIteration_members
	DQ	0000000000000000H
	DQ	FLAT:_PyExc_Exception
	DQ	0000000000000000H
	DQ	0000000000000000H
	DQ	0000000000000000H
	DQ	0000000000000060H
	DQ	FLAT:StopIteration_init
	DQ	0000000000000000H
	DQ	0000000000000000H
	ORG $+72
_PyExc_GeneratorExit DQ dead1234beef5678H
	DQ	dead1234beef5678H
	DQ	0000000000000000H
	ORG $+8
	DQ	0000000000000001H
	DQ	0000000000000000H
	DQ	0000000000000000H
	DQ	0000000000000000H
	DQ	dead1234beef5678H
	DQ	dead1234beef5678H
	DQ	0000000000000001H
	DQ	0000000000000000H
	DQ	0000000000000000H
	ORG $+8
	DQ	FLAT:??_C@_0O@GBGLOLNB@GeneratorExit?$AA@
	DQ	0000000000000090H
	DQ	0000000000000000H
	DQ	FLAT:BaseException_dealloc
	DQ	0000000000000000H
	DQ	0000000000000000H
	DQ	0000000000000000H
	DQ	0000000000000000H
	DQ	0000000000000000H
	DQ	0000000000000000H
	DQ	0000000000000000H
	DQ	0000000000000000H
	DQ	0000000000000000H
	DQ	0000000000000000H
	DQ	0000000000000000H
	DQ	0000000000000000H
	DQ	0000000000000000H
	DQ	0000000000000000H
	DD	044400H
	ORG $+4
	DQ	FLAT:??_C@_0BP@OCIPBJOC@Request?5that?5a?5generator?5exit?4?$AA@
	DQ	FLAT:BaseException_traverse
	DQ	FLAT:BaseException_clear
	DQ	0000000000000000H
	DQ	0000000000000000H
	DQ	0000000000000000H
	DQ	0000000000000000H
	DQ	0000000000000000H
	DQ	0000000000000000H
	DQ	0000000000000000H
	DQ	FLAT:_PyExc_BaseException
	DQ	0000000000000000H
	DQ	0000000000000000H
	DQ	0000000000000000H
	DQ	0000000000000060H
	DQ	FLAT:BaseException_init
	DQ	0000000000000000H
	DQ	FLAT:BaseException_new
	ORG $+72
PyExc_GeneratorExit DQ FLAT:_PyExc_GeneratorExit
PyExc_SystemExit DQ FLAT:_PyExc_SystemExit
SystemExit_members DQ FLAT:??_C@_04NDFOBODE@code?$AA@
	DD	06H
	ORG $+4
	DQ	0000000000000090H
	DD	00H
	ORG $+4
	DQ	FLAT:??_C@_0P@ENEGNBCK@exception?5code?$AA@
	DQ	0000000000000000H
	ORG $+32
_PyExc_SystemExit DQ dead1234beef5678H
	DQ	dead1234beef5678H
	DQ	0000000000000000H
	ORG $+8
	DQ	0000000000000001H
	DQ	0000000000000000H
	DQ	0000000000000000H
	DQ	0000000000000000H
	DQ	dead1234beef5678H
	DQ	dead1234beef5678H
	DQ	0000000000000001H
	DQ	0000000000000000H
	DQ	0000000000000000H
	ORG $+8
	DQ	FLAT:??_C@_0L@MBGFFHMP@SystemExit?$AA@
	DQ	00000000000000a0H
	DQ	0000000000000000H
	DQ	FLAT:SystemExit_dealloc
	DQ	0000000000000000H
	DQ	0000000000000000H
	DQ	0000000000000000H
	DQ	0000000000000000H
	DQ	0000000000000000H
	DQ	0000000000000000H
	DQ	0000000000000000H
	DQ	0000000000000000H
	DQ	0000000000000000H
	DQ	0000000000000000H
	DQ	0000000000000000H
	DQ	0000000000000000H
	DQ	0000000000000000H
	DQ	0000000000000000H
	DD	044400H
	ORG $+4
	DQ	FLAT:??_C@_0CG@KDLBFKIC@Request?5to?5exit?5from?5the?5interpr@
	DQ	FLAT:SystemExit_traverse
	DQ	FLAT:SystemExit_clear
	DQ	0000000000000000H
	DQ	0000000000000000H
	DQ	0000000000000000H
	DQ	0000000000000000H
	DQ	0000000000000000H
	DQ	FLAT:SystemExit_members
	DQ	0000000000000000H
	DQ	FLAT:_PyExc_BaseException
	DQ	0000000000000000H
	DQ	0000000000000000H
	DQ	0000000000000000H
	DQ	0000000000000060H
	DQ	FLAT:SystemExit_init
	DQ	0000000000000000H
	DQ	0000000000000000H
	ORG $+72
_PyExc_KeyboardInterrupt DQ dead1234beef5678H
	DQ	dead1234beef5678H
	DQ	0000000000000000H
	ORG $+8
	DQ	0000000000000001H
	DQ	0000000000000000H
	DQ	0000000000000000H
	DQ	0000000000000000H
	DQ	dead1234beef5678H
	DQ	dead1234beef5678H
	DQ	0000000000000001H
	DQ	0000000000000000H
	DQ	0000000000000000H
	ORG $+8
	DQ	FLAT:??_C@_0BC@BACBBCED@KeyboardInterrupt?$AA@
	DQ	0000000000000090H
	DQ	0000000000000000H
	DQ	FLAT:BaseException_dealloc
	DQ	0000000000000000H
	DQ	0000000000000000H
	DQ	0000000000000000H
	DQ	0000000000000000H
	DQ	0000000000000000H
	DQ	0000000000000000H
	DQ	0000000000000000H
	DQ	0000000000000000H
	DQ	0000000000000000H
	DQ	0000000000000000H
	DQ	0000000000000000H
	DQ	0000000000000000H
	DQ	0000000000000000H
	DQ	0000000000000000H
	DD	044400H
	ORG $+4
	DQ	FLAT:??_C@_0BN@MANALLKN@Program?5interrupted?5by?5user?4?$AA@
	DQ	FLAT:BaseException_traverse
	DQ	FLAT:BaseException_clear
	DQ	0000000000000000H
	DQ	0000000000000000H
	DQ	0000000000000000H
	DQ	0000000000000000H
	DQ	0000000000000000H
	DQ	0000000000000000H
	DQ	0000000000000000H
	DQ	FLAT:_PyExc_BaseException
	DQ	0000000000000000H
	DQ	0000000000000000H
	DQ	0000000000000000H
	DQ	0000000000000060H
	DQ	FLAT:BaseException_init
	DQ	0000000000000000H
	DQ	FLAT:BaseException_new
	ORG $+72
PyExc_KeyboardInterrupt DQ FLAT:_PyExc_KeyboardInterrupt
PyExc_ImportError DQ FLAT:_PyExc_ImportError
ImportError_members DQ FLAT:??_C@_03GLPMCEFE@msg?$AA@
	DD	06H
	ORG $+4
	DQ	0000000000000090H
	DD	00H
	ORG $+4
	DQ	FLAT:??_C@_0BC@KEEHBMNM@exception?5message?$AA@
	DQ	FLAT:??_C@_04MEMAJGDJ@name?$AA@
	DD	06H
	ORG $+4
	DQ	0000000000000098H
	DD	00H
	ORG $+4
	DQ	FLAT:??_C@_0M@DHLIFJED@module?5name?$AA@
	DQ	FLAT:??_C@_04LNEJFJGI@path?$AA@
	DD	06H
	ORG $+4
	DQ	00000000000000a0H
	DD	00H
	ORG $+4
	DQ	FLAT:??_C@_0M@EODBJGBC@module?5path?$AA@
	DQ	0000000000000000H
	ORG $+32
_PyExc_ImportError DQ dead1234beef5678H
	DQ	dead1234beef5678H
	DQ	0000000000000000H
	ORG $+8
	DQ	0000000000000001H
	DQ	0000000000000000H
	DQ	0000000000000000H
	DQ	0000000000000000H
	DQ	dead1234beef5678H
	DQ	dead1234beef5678H
	DQ	0000000000000001H
	DQ	0000000000000000H
	DQ	0000000000000000H
	ORG $+8
	DQ	FLAT:??_C@_0M@HCFCBBPI@ImportError?$AA@
	DQ	00000000000000b0H
	DQ	0000000000000000H
	DQ	FLAT:ImportError_dealloc
	DQ	0000000000000000H
	DQ	0000000000000000H
	DQ	0000000000000000H
	DQ	0000000000000000H
	DQ	0000000000000000H
	DQ	0000000000000000H
	DQ	0000000000000000H
	DQ	0000000000000000H
	DQ	0000000000000000H
	DQ	0000000000000000H
	DQ	FLAT:ImportError_str
	DQ	0000000000000000H
	DQ	0000000000000000H
	DQ	0000000000000000H
	DD	044400H
	ORG $+4
	DQ	FLAT:??_C@_0DI@HEBCIICE@Import?5can?8t?5find?5module?0?5or?5can@
	DQ	FLAT:ImportError_traverse
	DQ	FLAT:ImportError_clear
	DQ	0000000000000000H
	DQ	0000000000000000H
	DQ	0000000000000000H
	DQ	0000000000000000H
	DQ	FLAT:ImportError_methods
	DQ	FLAT:ImportError_members
	DQ	0000000000000000H
	DQ	FLAT:_PyExc_Exception
	DQ	0000000000000000H
	DQ	0000000000000000H
	DQ	0000000000000000H
	DQ	0000000000000060H
	DQ	FLAT:ImportError_init
	DQ	0000000000000000H
	DQ	0000000000000000H
	ORG $+72
OSError_members DQ FLAT:??_C@_05PEAMIKEP@errno?$AA@
	DD	06H
	ORG $+4
	DQ	0000000000000090H
	DD	00H
	ORG $+4
	DQ	FLAT:??_C@_0BF@CJFJGJAA@POSIX?5exception?5code?$AA@
	DQ	FLAT:??_C@_08MHKKJIBB@strerror?$AA@
	DD	06H
	ORG $+4
	DQ	0000000000000098H
	DD	00H
	ORG $+4
	DQ	FLAT:??_C@_0BD@HIDDEPNK@exception?5strerror?$AA@
	DQ	FLAT:??_C@_08BABJIOEM@filename?$AA@
	DD	06H
	ORG $+4
	DQ	00000000000000a0H
	DD	00H
	ORG $+4
	DQ	FLAT:??_C@_0BD@KPIAFJIH@exception?5filename?$AA@
	DQ	FLAT:??_C@_08NNIGBLFN@winerror?$AA@
	DD	06H
	ORG $+4
	DQ	00000000000000a8H
	DD	00H
	ORG $+4
	DQ	FLAT:??_C@_0BF@EGKICGDH@Win32?5exception?5code?$AA@
	DQ	0000000000000000H
	ORG $+32
PyExc_OSError DQ FLAT:_PyExc_OSError
OSError_methods DQ FLAT:??_C@_0L@NNMACJIG@__reduce__?$AA@
	DQ	FLAT:OSError_reduce
	DD	04H
	ORG $+4
	ORG $+8
	DQ	0000000000000000H
	ORG $+24
OSError_getset DQ FLAT:??_C@_0BD@MJNIBNKM@characters_written?$AA@
	DQ	FLAT:OSError_written_get
	DQ	FLAT:OSError_written_set
	DQ	0000000000000000H
	ORG $+8
	DQ	0000000000000000H
	ORG $+32
_PyExc_OSError DQ dead1234beef5678H
	DQ	dead1234beef5678H
	DQ	0000000000000000H
	ORG $+8
	DQ	0000000000000001H
	DQ	0000000000000000H
	DQ	0000000000000000H
	DQ	0000000000000000H
	DQ	dead1234beef5678H
	DQ	dead1234beef5678H
	DQ	0000000000000001H
	DQ	0000000000000000H
	DQ	0000000000000000H
	ORG $+8
	DQ	FLAT:??_C@_07DLGONEPD@OSError?$AA@
	DQ	00000000000000c0H
	DQ	0000000000000000H
	DQ	FLAT:OSError_dealloc
	DQ	0000000000000000H
	DQ	0000000000000000H
	DQ	0000000000000000H
	DQ	0000000000000000H
	DQ	0000000000000000H
	DQ	0000000000000000H
	DQ	0000000000000000H
	DQ	0000000000000000H
	DQ	0000000000000000H
	DQ	0000000000000000H
	DQ	FLAT:OSError_str
	DQ	0000000000000000H
	DQ	0000000000000000H
	DQ	0000000000000000H
	DD	044400H
	ORG $+4
	DQ	FLAT:??_C@_0CD@BBOAKDDD@Base?5class?5for?5I?1O?5related?5error@
	DQ	FLAT:OSError_traverse
	DQ	FLAT:OSError_clear
	DQ	0000000000000000H
	DQ	0000000000000000H
	DQ	0000000000000000H
	DQ	0000000000000000H
	DQ	FLAT:OSError_methods
	DQ	FLAT:OSError_members
	DQ	FLAT:OSError_getset
	DQ	FLAT:_PyExc_Exception
	DQ	0000000000000000H
	DQ	0000000000000000H
	DQ	0000000000000000H
	DQ	0000000000000060H
	DQ	FLAT:OSError_init
	DQ	0000000000000000H
	DQ	FLAT:OSError_new
	ORG $+72
_PyExc_BlockingIOError DQ dead1234beef5678H
	DQ	dead1234beef5678H
	DQ	0000000000000000H
	ORG $+8
	DQ	0000000000000001H
	DQ	0000000000000000H
	DQ	0000000000000000H
	DQ	0000000000000000H
	DQ	dead1234beef5678H
	DQ	dead1234beef5678H
	DQ	0000000000000001H
	DQ	0000000000000000H
	DQ	0000000000000000H
	ORG $+8
	DQ	FLAT:??_C@_0BA@JGPGLFDG@BlockingIOError?$AA@
	DQ	00000000000000c0H
	DQ	0000000000000000H
	DQ	FLAT:OSError_dealloc
	DQ	0000000000000000H
	DQ	0000000000000000H
	DQ	0000000000000000H
	DQ	0000000000000000H
	DQ	0000000000000000H
	DQ	0000000000000000H
	DQ	0000000000000000H
	DQ	0000000000000000H
	DQ	0000000000000000H
	DQ	0000000000000000H
	DQ	0000000000000000H
	DQ	0000000000000000H
	DQ	0000000000000000H
	DQ	0000000000000000H
	DD	044400H
	ORG $+4
	DQ	FLAT:??_C@_0BL@LJLKLDJH@I?1O?5operation?5would?5block?4?$AA@
	DQ	FLAT:OSError_traverse
	DQ	FLAT:OSError_clear
	DQ	0000000000000000H
	DQ	0000000000000000H
	DQ	0000000000000000H
	DQ	0000000000000000H
	DQ	0000000000000000H
	DQ	0000000000000000H
	DQ	0000000000000000H
	DQ	FLAT:_PyExc_OSError
	DQ	0000000000000000H
	DQ	0000000000000000H
	DQ	0000000000000000H
	DQ	0000000000000060H
	DQ	FLAT:OSError_init
	DQ	0000000000000000H
	DQ	0000000000000000H
	ORG $+72
PyExc_BlockingIOError DQ FLAT:_PyExc_BlockingIOError
PyExc_ConnectionError DQ FLAT:_PyExc_ConnectionError
_PyExc_ConnectionError DQ dead1234beef5678H
	DQ	dead1234beef5678H
	DQ	0000000000000000H
	ORG $+8
	DQ	0000000000000001H
	DQ	0000000000000000H
	DQ	0000000000000000H
	DQ	0000000000000000H
	DQ	dead1234beef5678H
	DQ	dead1234beef5678H
	DQ	0000000000000001H
	DQ	0000000000000000H
	DQ	0000000000000000H
	ORG $+8
	DQ	FLAT:??_C@_0BA@FGMDNHAG@ConnectionError?$AA@
	DQ	00000000000000c0H
	DQ	0000000000000000H
	DQ	FLAT:OSError_dealloc
	DQ	0000000000000000H
	DQ	0000000000000000H
	DQ	0000000000000000H
	DQ	0000000000000000H
	DQ	0000000000000000H
	DQ	0000000000000000H
	DQ	0000000000000000H
	DQ	0000000000000000H
	DQ	0000000000000000H
	DQ	0000000000000000H
	DQ	0000000000000000H
	DQ	0000000000000000H
	DQ	0000000000000000H
	DQ	0000000000000000H
	DD	044400H
	ORG $+4
	DQ	FLAT:??_C@_0BC@BCOONDMO@Connection?5error?4?$AA@
	DQ	FLAT:OSError_traverse
	DQ	FLAT:OSError_clear
	DQ	0000000000000000H
	DQ	0000000000000000H
	DQ	0000000000000000H
	DQ	0000000000000000H
	DQ	0000000000000000H
	DQ	0000000000000000H
	DQ	0000000000000000H
	DQ	FLAT:_PyExc_OSError
	DQ	0000000000000000H
	DQ	0000000000000000H
	DQ	0000000000000000H
	DQ	0000000000000060H
	DQ	FLAT:OSError_init
	DQ	0000000000000000H
	DQ	0000000000000000H
	ORG $+72
_PyExc_ChildProcessError DQ dead1234beef5678H
	DQ	dead1234beef5678H
	DQ	0000000000000000H
	ORG $+8
	DQ	0000000000000001H
	DQ	0000000000000000H
	DQ	0000000000000000H
	DQ	0000000000000000H
	DQ	dead1234beef5678H
	DQ	dead1234beef5678H
	DQ	0000000000000001H
	DQ	0000000000000000H
	DQ	0000000000000000H
	ORG $+8
	DQ	FLAT:??_C@_0BC@LJAFFAPL@ChildProcessError?$AA@
	DQ	00000000000000c0H
	DQ	0000000000000000H
	DQ	FLAT:OSError_dealloc
	DQ	0000000000000000H
	DQ	0000000000000000H
	DQ	0000000000000000H
	DQ	0000000000000000H
	DQ	0000000000000000H
	DQ	0000000000000000H
	DQ	0000000000000000H
	DQ	0000000000000000H
	DQ	0000000000000000H
	DQ	0000000000000000H
	DQ	0000000000000000H
	DQ	0000000000000000H
	DQ	0000000000000000H
	DQ	0000000000000000H
	DD	044400H
	ORG $+4
	DQ	FLAT:??_C@_0BF@IOACMFNO@Child?5process?5error?4?$AA@
	DQ	FLAT:OSError_traverse
	DQ	FLAT:OSError_clear
	DQ	0000000000000000H
	DQ	0000000000000000H
	DQ	0000000000000000H
	DQ	0000000000000000H
	DQ	0000000000000000H
	DQ	0000000000000000H
	DQ	0000000000000000H
	DQ	FLAT:_PyExc_OSError
	DQ	0000000000000000H
	DQ	0000000000000000H
	DQ	0000000000000000H
	DQ	0000000000000060H
	DQ	FLAT:OSError_init
	DQ	0000000000000000H
	DQ	0000000000000000H
	ORG $+72
PyExc_ChildProcessError DQ FLAT:_PyExc_ChildProcessError
PyExc_BrokenPipeError DQ FLAT:_PyExc_BrokenPipeError
_PyExc_BrokenPipeError DQ dead1234beef5678H
	DQ	dead1234beef5678H
	DQ	0000000000000000H
	ORG $+8
	DQ	0000000000000001H
	DQ	0000000000000000H
	DQ	0000000000000000H
	DQ	0000000000000000H
	DQ	dead1234beef5678H
	DQ	dead1234beef5678H
	DQ	0000000000000001H
	DQ	0000000000000000H
	DQ	0000000000000000H
	ORG $+8
	DQ	FLAT:??_C@_0BA@OKFJGAGB@BrokenPipeError?$AA@
	DQ	00000000000000c0H
	DQ	0000000000000000H
	DQ	FLAT:OSError_dealloc
	DQ	0000000000000000H
	DQ	0000000000000000H
	DQ	0000000000000000H
	DQ	0000000000000000H
	DQ	0000000000000000H
	DQ	0000000000000000H
	DQ	0000000000000000H
	DQ	0000000000000000H
	DQ	0000000000000000H
	DQ	0000000000000000H
	DQ	0000000000000000H
	DQ	0000000000000000H
	DQ	0000000000000000H
	DQ	0000000000000000H
	DD	044400H
	ORG $+4
	DQ	FLAT:??_C@_0N@KCAMOIPH@Broken?5pipe?4?$AA@
	DQ	FLAT:OSError_traverse
	DQ	FLAT:OSError_clear
	DQ	0000000000000000H
	DQ	0000000000000000H
	DQ	0000000000000000H
	DQ	0000000000000000H
	DQ	0000000000000000H
	DQ	0000000000000000H
	DQ	0000000000000000H
	DQ	FLAT:_PyExc_ConnectionError
	DQ	0000000000000000H
	DQ	0000000000000000H
	DQ	0000000000000000H
	DQ	0000000000000060H
	DQ	FLAT:OSError_init
	DQ	0000000000000000H
	DQ	0000000000000000H
	ORG $+72
_PyExc_ConnectionAbortedError DQ dead1234beef5678H
	DQ	dead1234beef5678H
	DQ	0000000000000000H
	ORG $+8
	DQ	0000000000000001H
	DQ	0000000000000000H
	DQ	0000000000000000H
	DQ	0000000000000000H
	DQ	dead1234beef5678H
	DQ	dead1234beef5678H
	DQ	0000000000000001H
	DQ	0000000000000000H
	DQ	0000000000000000H
	ORG $+8
	DQ	FLAT:??_C@_0BH@IAHALHIL@ConnectionAbortedError?$AA@
	DQ	00000000000000c0H
	DQ	0000000000000000H
	DQ	FLAT:OSError_dealloc
	DQ	0000000000000000H
	DQ	0000000000000000H
	DQ	0000000000000000H
	DQ	0000000000000000H
	DQ	0000000000000000H
	DQ	0000000000000000H
	DQ	0000000000000000H
	DQ	0000000000000000H
	DQ	0000000000000000H
	DQ	0000000000000000H
	DQ	0000000000000000H
	DQ	0000000000000000H
	DQ	0000000000000000H
	DQ	0000000000000000H
	DD	044400H
	ORG $+4
	DQ	FLAT:??_C@_0BE@FFDJKHGA@Connection?5aborted?4?$AA@
	DQ	FLAT:OSError_traverse
	DQ	FLAT:OSError_clear
	DQ	0000000000000000H
	DQ	0000000000000000H
	DQ	0000000000000000H
	DQ	0000000000000000H
	DQ	0000000000000000H
	DQ	0000000000000000H
	DQ	0000000000000000H
	DQ	FLAT:_PyExc_ConnectionError
	DQ	0000000000000000H
	DQ	0000000000000000H
	DQ	0000000000000000H
	DQ	0000000000000060H
	DQ	FLAT:OSError_init
	DQ	0000000000000000H
	DQ	0000000000000000H
	ORG $+72
PyExc_ConnectionAbortedError DQ FLAT:_PyExc_ConnectionAbortedError
PyExc_ConnectionRefusedError DQ FLAT:_PyExc_ConnectionRefusedError
_PyExc_ConnectionRefusedError DQ dead1234beef5678H
	DQ	dead1234beef5678H
	DQ	0000000000000000H
	ORG $+8
	DQ	0000000000000001H
	DQ	0000000000000000H
	DQ	0000000000000000H
	DQ	0000000000000000H
	DQ	dead1234beef5678H
	DQ	dead1234beef5678H
	DQ	0000000000000001H
	DQ	0000000000000000H
	DQ	0000000000000000H
	ORG $+8
	DQ	FLAT:??_C@_0BH@NFNMCF@ConnectionRefusedError?$AA@
	DQ	00000000000000c0H
	DQ	0000000000000000H
	DQ	FLAT:OSError_dealloc
	DQ	0000000000000000H
	DQ	0000000000000000H
	DQ	0000000000000000H
	DQ	0000000000000000H
	DQ	0000000000000000H
	DQ	0000000000000000H
	DQ	0000000000000000H
	DQ	0000000000000000H
	DQ	0000000000000000H
	DQ	0000000000000000H
	DQ	0000000000000000H
	DQ	0000000000000000H
	DQ	0000000000000000H
	DQ	0000000000000000H
	DD	044400H
	ORG $+4
	DQ	FLAT:??_C@_0BE@PAAMHJLG@Connection?5refused?4?$AA@
	DQ	FLAT:OSError_traverse
	DQ	FLAT:OSError_clear
	DQ	0000000000000000H
	DQ	0000000000000000H
	DQ	0000000000000000H
	DQ	0000000000000000H
	DQ	0000000000000000H
	DQ	0000000000000000H
	DQ	0000000000000000H
	DQ	FLAT:_PyExc_ConnectionError
	DQ	0000000000000000H
	DQ	0000000000000000H
	DQ	0000000000000000H
	DQ	0000000000000060H
	DQ	FLAT:OSError_init
	DQ	0000000000000000H
	DQ	0000000000000000H
	ORG $+72
_PyExc_ConnectionResetError DQ dead1234beef5678H
	DQ	dead1234beef5678H
	DQ	0000000000000000H
	ORG $+8
	DQ	0000000000000001H
	DQ	0000000000000000H
	DQ	0000000000000000H
	DQ	0000000000000000H
	DQ	dead1234beef5678H
	DQ	dead1234beef5678H
	DQ	0000000000000001H
	DQ	0000000000000000H
	DQ	0000000000000000H
	ORG $+8
	DQ	FLAT:??_C@_0BF@KPCMAHCN@ConnectionResetError?$AA@
	DQ	00000000000000c0H
	DQ	0000000000000000H
	DQ	FLAT:OSError_dealloc
	DQ	0000000000000000H
	DQ	0000000000000000H
	DQ	0000000000000000H
	DQ	0000000000000000H
	DQ	0000000000000000H
	DQ	0000000000000000H
	DQ	0000000000000000H
	DQ	0000000000000000H
	DQ	0000000000000000H
	DQ	0000000000000000H
	DQ	0000000000000000H
	DQ	0000000000000000H
	DQ	0000000000000000H
	DQ	0000000000000000H
	DD	044400H
	ORG $+4
	DQ	FLAT:??_C@_0BC@PIBEPGML@Connection?5reset?4?$AA@
	DQ	FLAT:OSError_traverse
	DQ	FLAT:OSError_clear
	DQ	0000000000000000H
	DQ	0000000000000000H
	DQ	0000000000000000H
	DQ	0000000000000000H
	DQ	0000000000000000H
	DQ	0000000000000000H
	DQ	0000000000000000H
	DQ	FLAT:_PyExc_ConnectionError
	DQ	0000000000000000H
	DQ	0000000000000000H
	DQ	0000000000000000H
	DQ	0000000000000060H
	DQ	FLAT:OSError_init
	DQ	0000000000000000H
	DQ	0000000000000000H
	ORG $+72
PyExc_ConnectionResetError DQ FLAT:_PyExc_ConnectionResetError
PyExc_FileExistsError DQ FLAT:_PyExc_FileExistsError
_PyExc_FileExistsError DQ dead1234beef5678H
	DQ	dead1234beef5678H
	DQ	0000000000000000H
	ORG $+8
	DQ	0000000000000001H
	DQ	0000000000000000H
	DQ	0000000000000000H
	DQ	0000000000000000H
	DQ	dead1234beef5678H
	DQ	dead1234beef5678H
	DQ	0000000000000001H
	DQ	0000000000000000H
	DQ	0000000000000000H
	ORG $+8
	DQ	FLAT:??_C@_0BA@FBEHCPFP@FileExistsError?$AA@
	DQ	00000000000000c0H
	DQ	0000000000000000H
	DQ	FLAT:OSError_dealloc
	DQ	0000000000000000H
	DQ	0000000000000000H
	DQ	0000000000000000H
	DQ	0000000000000000H
	DQ	0000000000000000H
	DQ	0000000000000000H
	DQ	0000000000000000H
	DQ	0000000000000000H
	DQ	0000000000000000H
	DQ	0000000000000000H
	DQ	0000000000000000H
	DQ	0000000000000000H
	DQ	0000000000000000H
	DQ	0000000000000000H
	DD	044400H
	ORG $+4
	DQ	FLAT:??_C@_0BF@PBMIGFNE@File?5already?5exists?4?$AA@
	DQ	FLAT:OSError_traverse
	DQ	FLAT:OSError_clear
	DQ	0000000000000000H
	DQ	0000000000000000H
	DQ	0000000000000000H
	DQ	0000000000000000H
	DQ	0000000000000000H
	DQ	0000000000000000H
	DQ	0000000000000000H
	DQ	FLAT:_PyExc_OSError
	DQ	0000000000000000H
	DQ	0000000000000000H
	DQ	0000000000000000H
	DQ	0000000000000060H
	DQ	FLAT:OSError_init
	DQ	0000000000000000H
	DQ	0000000000000000H
	ORG $+72
_PyExc_FileNotFoundError DQ dead1234beef5678H
	DQ	dead1234beef5678H
	DQ	0000000000000000H
	ORG $+8
	DQ	0000000000000001H
	DQ	0000000000000000H
	DQ	0000000000000000H
	DQ	0000000000000000H
	DQ	dead1234beef5678H
	DQ	dead1234beef5678H
	DQ	0000000000000001H
	DQ	0000000000000000H
	DQ	0000000000000000H
	ORG $+8
	DQ	FLAT:??_C@_0BC@IPPJKII@FileNotFoundError?$AA@
	DQ	00000000000000c0H
	DQ	0000000000000000H
	DQ	FLAT:OSError_dealloc
	DQ	0000000000000000H
	DQ	0000000000000000H
	DQ	0000000000000000H
	DQ	0000000000000000H
	DQ	0000000000000000H
	DQ	0000000000000000H
	DQ	0000000000000000H
	DQ	0000000000000000H
	DQ	0000000000000000H
	DQ	0000000000000000H
	DQ	0000000000000000H
	DQ	0000000000000000H
	DQ	0000000000000000H
	DQ	0000000000000000H
	DD	044400H
	ORG $+4
	DQ	FLAT:??_C@_0BA@DOIDIGMK@File?5not?5found?4?$AA@
	DQ	FLAT:OSError_traverse
	DQ	FLAT:OSError_clear
	DQ	0000000000000000H
	DQ	0000000000000000H
	DQ	0000000000000000H
	DQ	0000000000000000H
	DQ	0000000000000000H
	DQ	0000000000000000H
	DQ	0000000000000000H
	DQ	FLAT:_PyExc_OSError
	DQ	0000000000000000H
	DQ	0000000000000000H
	DQ	0000000000000000H
	DQ	0000000000000060H
	DQ	FLAT:OSError_init
	DQ	0000000000000000H
	DQ	0000000000000000H
	ORG $+72
PyExc_FileNotFoundError DQ FLAT:_PyExc_FileNotFoundError
PyExc_IsADirectoryError DQ FLAT:_PyExc_IsADirectoryError
_PyExc_IsADirectoryError DQ dead1234beef5678H
	DQ	dead1234beef5678H
	DQ	0000000000000000H
	ORG $+8
	DQ	0000000000000001H
	DQ	0000000000000000H
	DQ	0000000000000000H
	DQ	0000000000000000H
	DQ	dead1234beef5678H
	DQ	dead1234beef5678H
	DQ	0000000000000001H
	DQ	0000000000000000H
	DQ	0000000000000000H
	ORG $+8
	DQ	FLAT:??_C@_0BC@EPPFJLG@IsADirectoryError?$AA@
	DQ	00000000000000c0H
	DQ	0000000000000000H
	DQ	FLAT:OSError_dealloc
	DQ	0000000000000000H
	DQ	0000000000000000H
	DQ	0000000000000000H
	DQ	0000000000000000H
	DQ	0000000000000000H
	DQ	0000000000000000H
	DQ	0000000000000000H
	DQ	0000000000000000H
	DQ	0000000000000000H
	DQ	0000000000000000H
	DQ	0000000000000000H
	DQ	0000000000000000H
	DQ	0000000000000000H
	DQ	0000000000000000H
	DD	044400H
	ORG $+4
	DQ	FLAT:??_C@_0CH@PKAKIMKI@Operation?5doesn?8t?5work?5on?5direct@
	DQ	FLAT:OSError_traverse
	DQ	FLAT:OSError_clear
	DQ	0000000000000000H
	DQ	0000000000000000H
	DQ	0000000000000000H
	DQ	0000000000000000H
	DQ	0000000000000000H
	DQ	0000000000000000H
	DQ	0000000000000000H
	DQ	FLAT:_PyExc_OSError
	DQ	0000000000000000H
	DQ	0000000000000000H
	DQ	0000000000000000H
	DQ	0000000000000060H
	DQ	FLAT:OSError_init
	DQ	0000000000000000H
	DQ	0000000000000000H
	ORG $+72
_PyExc_NotADirectoryError DQ dead1234beef5678H
	DQ	dead1234beef5678H
	DQ	0000000000000000H
	ORG $+8
	DQ	0000000000000001H
	DQ	0000000000000000H
	DQ	0000000000000000H
	DQ	0000000000000000H
	DQ	dead1234beef5678H
	DQ	dead1234beef5678H
	DQ	0000000000000001H
	DQ	0000000000000000H
	DQ	0000000000000000H
	ORG $+8
	DQ	FLAT:??_C@_0BD@BDDBNNNE@NotADirectoryError?$AA@
	DQ	00000000000000c0H
	DQ	0000000000000000H
	DQ	FLAT:OSError_dealloc
	DQ	0000000000000000H
	DQ	0000000000000000H
	DQ	0000000000000000H
	DQ	0000000000000000H
	DQ	0000000000000000H
	DQ	0000000000000000H
	DQ	0000000000000000H
	DQ	0000000000000000H
	DQ	0000000000000000H
	DQ	0000000000000000H
	DQ	0000000000000000H
	DQ	0000000000000000H
	DQ	0000000000000000H
	DQ	0000000000000000H
	DD	044400H
	ORG $+4
	DQ	FLAT:??_C@_0CF@MHLAOJGN@Operation?5only?5works?5on?5director@
	DQ	FLAT:OSError_traverse
	DQ	FLAT:OSError_clear
	DQ	0000000000000000H
	DQ	0000000000000000H
	DQ	0000000000000000H
	DQ	0000000000000000H
	DQ	0000000000000000H
	DQ	0000000000000000H
	DQ	0000000000000000H
	DQ	FLAT:_PyExc_OSError
	DQ	0000000000000000H
	DQ	0000000000000000H
	DQ	0000000000000000H
	DQ	0000000000000060H
	DQ	FLAT:OSError_init
	DQ	0000000000000000H
	DQ	0000000000000000H
	ORG $+72
PyExc_NotADirectoryError DQ FLAT:_PyExc_NotADirectoryError
PyExc_InterruptedError DQ FLAT:_PyExc_InterruptedError
_PyExc_InterruptedError DQ dead1234beef5678H
	DQ	dead1234beef5678H
	DQ	0000000000000000H
	ORG $+8
	DQ	0000000000000001H
	DQ	0000000000000000H
	DQ	0000000000000000H
	DQ	0000000000000000H
	DQ	dead1234beef5678H
	DQ	dead1234beef5678H
	DQ	0000000000000001H
	DQ	0000000000000000H
	DQ	0000000000000000H
	ORG $+8
	DQ	FLAT:??_C@_0BB@PFBGOELP@InterruptedError?$AA@
	DQ	00000000000000c0H
	DQ	0000000000000000H
	DQ	FLAT:OSError_dealloc
	DQ	0000000000000000H
	DQ	0000000000000000H
	DQ	0000000000000000H
	DQ	0000000000000000H
	DQ	0000000000000000H
	DQ	0000000000000000H
	DQ	0000000000000000H
	DQ	0000000000000000H
	DQ	0000000000000000H
	DQ	0000000000000000H
	DQ	0000000000000000H
	DQ	0000000000000000H
	DQ	0000000000000000H
	DQ	0000000000000000H
	DD	044400H
	ORG $+4
	DQ	FLAT:??_C@_0BH@DPFOMFFN@Interrupted?5by?5signal?4?$AA@
	DQ	FLAT:OSError_traverse
	DQ	FLAT:OSError_clear
	DQ	0000000000000000H
	DQ	0000000000000000H
	DQ	0000000000000000H
	DQ	0000000000000000H
	DQ	0000000000000000H
	DQ	0000000000000000H
	DQ	0000000000000000H
	DQ	FLAT:_PyExc_OSError
	DQ	0000000000000000H
	DQ	0000000000000000H
	DQ	0000000000000000H
	DQ	0000000000000060H
	DQ	FLAT:OSError_init
	DQ	0000000000000000H
	DQ	0000000000000000H
	ORG $+72
_PyExc_PermissionError DQ dead1234beef5678H
	DQ	dead1234beef5678H
	DQ	0000000000000000H
	ORG $+8
	DQ	0000000000000001H
	DQ	0000000000000000H
	DQ	0000000000000000H
	DQ	0000000000000000H
	DQ	dead1234beef5678H
	DQ	dead1234beef5678H
	DQ	0000000000000001H
	DQ	0000000000000000H
	DQ	0000000000000000H
	ORG $+8
	DQ	FLAT:??_C@_0BA@EGIOHDMA@PermissionError?$AA@
	DQ	00000000000000c0H
	DQ	0000000000000000H
	DQ	FLAT:OSError_dealloc
	DQ	0000000000000000H
	DQ	0000000000000000H
	DQ	0000000000000000H
	DQ	0000000000000000H
	DQ	0000000000000000H
	DQ	0000000000000000H
	DQ	0000000000000000H
	DQ	0000000000000000H
	DQ	0000000000000000H
	DQ	0000000000000000H
	DQ	0000000000000000H
	DQ	0000000000000000H
	DQ	0000000000000000H
	DQ	0000000000000000H
	DD	044400H
	ORG $+4
	DQ	FLAT:??_C@_0BI@ICBFMNFH@Not?5enough?5permissions?4?$AA@
	DQ	FLAT:OSError_traverse
	DQ	FLAT:OSError_clear
	DQ	0000000000000000H
	DQ	0000000000000000H
	DQ	0000000000000000H
	DQ	0000000000000000H
	DQ	0000000000000000H
	DQ	0000000000000000H
	DQ	0000000000000000H
	DQ	FLAT:_PyExc_OSError
	DQ	0000000000000000H
	DQ	0000000000000000H
	DQ	0000000000000000H
	DQ	0000000000000060H
	DQ	FLAT:OSError_init
	DQ	0000000000000000H
	DQ	0000000000000000H
	ORG $+72
PyExc_PermissionError DQ FLAT:_PyExc_PermissionError
PyExc_ProcessLookupError DQ FLAT:_PyExc_ProcessLookupError
_PyExc_ProcessLookupError DQ dead1234beef5678H
	DQ	dead1234beef5678H
	DQ	0000000000000000H
	ORG $+8
	DQ	0000000000000001H
	DQ	0000000000000000H
	DQ	0000000000000000H
	DQ	0000000000000000H
	DQ	dead1234beef5678H
	DQ	dead1234beef5678H
	DQ	0000000000000001H
	DQ	0000000000000000H
	DQ	0000000000000000H
	ORG $+8
	DQ	FLAT:??_C@_0BD@LBBCHOLB@ProcessLookupError?$AA@
	DQ	00000000000000c0H
	DQ	0000000000000000H
	DQ	FLAT:OSError_dealloc
	DQ	0000000000000000H
	DQ	0000000000000000H
	DQ	0000000000000000H
	DQ	0000000000000000H
	DQ	0000000000000000H
	DQ	0000000000000000H
	DQ	0000000000000000H
	DQ	0000000000000000H
	DQ	0000000000000000H
	DQ	0000000000000000H
	DQ	0000000000000000H
	DQ	0000000000000000H
	DQ	0000000000000000H
	DQ	0000000000000000H
	DD	044400H
	ORG $+4
	DQ	FLAT:??_C@_0BD@CDPGLGNA@Process?5not?5found?4?$AA@
	DQ	FLAT:OSError_traverse
	DQ	FLAT:OSError_clear
	DQ	0000000000000000H
	DQ	0000000000000000H
	DQ	0000000000000000H
	DQ	0000000000000000H
	DQ	0000000000000000H
	DQ	0000000000000000H
	DQ	0000000000000000H
	DQ	FLAT:_PyExc_OSError
	DQ	0000000000000000H
	DQ	0000000000000000H
	DQ	0000000000000000H
	DQ	0000000000000060H
	DQ	FLAT:OSError_init
	DQ	0000000000000000H
	DQ	0000000000000000H
	ORG $+72
_PyExc_TimeoutError DQ dead1234beef5678H
	DQ	dead1234beef5678H
	DQ	0000000000000000H
	ORG $+8
	DQ	0000000000000001H
	DQ	0000000000000000H
	DQ	0000000000000000H
	DQ	0000000000000000H
	DQ	dead1234beef5678H
	DQ	dead1234beef5678H
	DQ	0000000000000001H
	DQ	0000000000000000H
	DQ	0000000000000000H
	ORG $+8
	DQ	FLAT:??_C@_0N@BMLDFELP@TimeoutError?$AA@
	DQ	00000000000000c0H
	DQ	0000000000000000H
	DQ	FLAT:OSError_dealloc
	DQ	0000000000000000H
	DQ	0000000000000000H
	DQ	0000000000000000H
	DQ	0000000000000000H
	DQ	0000000000000000H
	DQ	0000000000000000H
	DQ	0000000000000000H
	DQ	0000000000000000H
	DQ	0000000000000000H
	DQ	0000000000000000H
	DQ	0000000000000000H
	DQ	0000000000000000H
	DQ	0000000000000000H
	DQ	0000000000000000H
	DD	044400H
	ORG $+4
	DQ	FLAT:??_C@_0BB@KIFGEFOB@Timeout?5expired?4?$AA@
	DQ	FLAT:OSError_traverse
	DQ	FLAT:OSError_clear
	DQ	0000000000000000H
	DQ	0000000000000000H
	DQ	0000000000000000H
	DQ	0000000000000000H
	DQ	0000000000000000H
	DQ	0000000000000000H
	DQ	0000000000000000H
	DQ	FLAT:_PyExc_OSError
	DQ	0000000000000000H
	DQ	0000000000000000H
	DQ	0000000000000000H
	DQ	0000000000000060H
	DQ	FLAT:OSError_init
	DQ	0000000000000000H
	DQ	0000000000000000H
	ORG $+72
PyExc_TimeoutError DQ FLAT:_PyExc_TimeoutError
PyExc_EOFError DQ FLAT:_PyExc_EOFError
_PyExc_EOFError DQ dead1234beef5678H
	DQ	dead1234beef5678H
	DQ	0000000000000000H
	ORG $+8
	DQ	0000000000000001H
	DQ	0000000000000000H
	DQ	0000000000000000H
	DQ	0000000000000000H
	DQ	dead1234beef5678H
	DQ	dead1234beef5678H
	DQ	0000000000000001H
	DQ	0000000000000000H
	DQ	0000000000000000H
	ORG $+8
	DQ	FLAT:??_C@_08BJKGOKBF@EOFError?$AA@
	DQ	0000000000000090H
	DQ	0000000000000000H
	DQ	FLAT:BaseException_dealloc
	DQ	0000000000000000H
	DQ	0000000000000000H
	DQ	0000000000000000H
	DQ	0000000000000000H
	DQ	0000000000000000H
	DQ	0000000000000000H
	DQ	0000000000000000H
	DQ	0000000000000000H
	DQ	0000000000000000H
	DQ	0000000000000000H
	DQ	0000000000000000H
	DQ	0000000000000000H
	DQ	0000000000000000H
	DQ	0000000000000000H
	DD	044400H
	ORG $+4
	DQ	FLAT:??_C@_0BJ@DBOMGJHD@Read?5beyond?5end?5of?5file?4?$AA@
	DQ	FLAT:BaseException_traverse
	DQ	FLAT:BaseException_clear
	DQ	0000000000000000H
	DQ	0000000000000000H
	DQ	0000000000000000H
	DQ	0000000000000000H
	DQ	0000000000000000H
	DQ	0000000000000000H
	DQ	0000000000000000H
	DQ	FLAT:_PyExc_Exception
	DQ	0000000000000000H
	DQ	0000000000000000H
	DQ	0000000000000000H
	DQ	0000000000000060H
	DQ	FLAT:BaseException_init
	DQ	0000000000000000H
	DQ	FLAT:BaseException_new
	ORG $+72
_PyExc_RuntimeError DQ dead1234beef5678H
	DQ	dead1234beef5678H
	DQ	0000000000000000H
	ORG $+8
	DQ	0000000000000001H
	DQ	0000000000000000H
	DQ	0000000000000000H
	DQ	0000000000000000H
	DQ	dead1234beef5678H
	DQ	dead1234beef5678H
	DQ	0000000000000001H
	DQ	0000000000000000H
	DQ	0000000000000000H
	ORG $+8
	DQ	FLAT:??_C@_0N@PJCHGDKG@RuntimeError?$AA@
	DQ	0000000000000090H
	DQ	0000000000000000H
	DQ	FLAT:BaseException_dealloc
	DQ	0000000000000000H
	DQ	0000000000000000H
	DQ	0000000000000000H
	DQ	0000000000000000H
	DQ	0000000000000000H
	DQ	0000000000000000H
	DQ	0000000000000000H
	DQ	0000000000000000H
	DQ	0000000000000000H
	DQ	0000000000000000H
	DQ	0000000000000000H
	DQ	0000000000000000H
	DQ	0000000000000000H
	DQ	0000000000000000H
	DD	044400H
	ORG $+4
	DQ	FLAT:??_C@_0BM@GMHHIONK@Unspecified?5run?9time?5error?4?$AA@
	DQ	FLAT:BaseException_traverse
	DQ	FLAT:BaseException_clear
	DQ	0000000000000000H
	DQ	0000000000000000H
	DQ	0000000000000000H
	DQ	0000000000000000H
	DQ	0000000000000000H
	DQ	0000000000000000H
	DQ	0000000000000000H
	DQ	FLAT:_PyExc_Exception
	DQ	0000000000000000H
	DQ	0000000000000000H
	DQ	0000000000000000H
	DQ	0000000000000060H
	DQ	FLAT:BaseException_init
	DQ	0000000000000000H
	DQ	FLAT:BaseException_new
	ORG $+72
PyExc_RuntimeError DQ FLAT:_PyExc_RuntimeError
PyExc_NotImplementedError DQ FLAT:_PyExc_NotImplementedError
_PyExc_NotImplementedError DQ dead1234beef5678H
	DQ	dead1234beef5678H
	DQ	0000000000000000H
	ORG $+8
	DQ	0000000000000001H
	DQ	0000000000000000H
	DQ	0000000000000000H
	DQ	0000000000000000H
	DQ	dead1234beef5678H
	DQ	dead1234beef5678H
	DQ	0000000000000001H
	DQ	0000000000000000H
	DQ	0000000000000000H
	ORG $+8
	DQ	FLAT:??_C@_0BE@NIHEKDAM@NotImplementedError?$AA@
	DQ	0000000000000090H
	DQ	0000000000000000H
	DQ	FLAT:BaseException_dealloc
	DQ	0000000000000000H
	DQ	0000000000000000H
	DQ	0000000000000000H
	DQ	0000000000000000H
	DQ	0000000000000000H
	DQ	0000000000000000H
	DQ	0000000000000000H
	DQ	0000000000000000H
	DQ	0000000000000000H
	DQ	0000000000000000H
	DQ	0000000000000000H
	DQ	0000000000000000H
	DQ	0000000000000000H
	DQ	0000000000000000H
	DD	044400H
	ORG $+4
	DQ	FLAT:??_C@_0DA@PMFCDFAJ@Method?5or?5function?5hasn?8t?5been?5i@
	DQ	FLAT:BaseException_traverse
	DQ	FLAT:BaseException_clear
	DQ	0000000000000000H
	DQ	0000000000000000H
	DQ	0000000000000000H
	DQ	0000000000000000H
	DQ	0000000000000000H
	DQ	0000000000000000H
	DQ	0000000000000000H
	DQ	FLAT:_PyExc_RuntimeError
	DQ	0000000000000000H
	DQ	0000000000000000H
	DQ	0000000000000000H
	DQ	0000000000000060H
	DQ	FLAT:BaseException_init
	DQ	0000000000000000H
	DQ	FLAT:BaseException_new
	ORG $+72
_PyExc_NameError DQ dead1234beef5678H
	DQ	dead1234beef5678H
	DQ	0000000000000000H
	ORG $+8
	DQ	0000000000000001H
	DQ	0000000000000000H
	DQ	0000000000000000H
	DQ	0000000000000000H
	DQ	dead1234beef5678H
	DQ	dead1234beef5678H
	DQ	0000000000000001H
	DQ	0000000000000000H
	DQ	0000000000000000H
	ORG $+8
	DQ	FLAT:??_C@_09GENDEFL@NameError?$AA@
	DQ	0000000000000090H
	DQ	0000000000000000H
	DQ	FLAT:BaseException_dealloc
	DQ	0000000000000000H
	DQ	0000000000000000H
	DQ	0000000000000000H
	DQ	0000000000000000H
	DQ	0000000000000000H
	DQ	0000000000000000H
	DQ	0000000000000000H
	DQ	0000000000000000H
	DQ	0000000000000000H
	DQ	0000000000000000H
	DQ	0000000000000000H
	DQ	0000000000000000H
	DQ	0000000000000000H
	DQ	0000000000000000H
	DD	044400H
	ORG $+4
	DQ	FLAT:??_C@_0BJ@CKADCLHL@Name?5not?5found?5globally?4?$AA@
	DQ	FLAT:BaseException_traverse
	DQ	FLAT:BaseException_clear
	DQ	0000000000000000H
	DQ	0000000000000000H
	DQ	0000000000000000H
	DQ	0000000000000000H
	DQ	0000000000000000H
	DQ	0000000000000000H
	DQ	0000000000000000H
	DQ	FLAT:_PyExc_Exception
	DQ	0000000000000000H
	DQ	0000000000000000H
	DQ	0000000000000000H
	DQ	0000000000000060H
	DQ	FLAT:BaseException_init
	DQ	0000000000000000H
	DQ	FLAT:BaseException_new
	ORG $+72
PyExc_NameError DQ FLAT:_PyExc_NameError
PyExc_UnboundLocalError DQ FLAT:_PyExc_UnboundLocalError
_PyExc_UnboundLocalError DQ dead1234beef5678H
	DQ	dead1234beef5678H
	DQ	0000000000000000H
	ORG $+8
	DQ	0000000000000001H
	DQ	0000000000000000H
	DQ	0000000000000000H
	DQ	0000000000000000H
	DQ	dead1234beef5678H
	DQ	dead1234beef5678H
	DQ	0000000000000001H
	DQ	0000000000000000H
	DQ	0000000000000000H
	ORG $+8
	DQ	FLAT:??_C@_0BC@EJBPJIJA@UnboundLocalError?$AA@
	DQ	0000000000000090H
	DQ	0000000000000000H
	DQ	FLAT:BaseException_dealloc
	DQ	0000000000000000H
	DQ	0000000000000000H
	DQ	0000000000000000H
	DQ	0000000000000000H
	DQ	0000000000000000H
	DQ	0000000000000000H
	DQ	0000000000000000H
	DQ	0000000000000000H
	DQ	0000000000000000H
	DQ	0000000000000000H
	DQ	0000000000000000H
	DQ	0000000000000000H
	DQ	0000000000000000H
	DQ	0000000000000000H
	DD	044400H
	ORG $+4
	DQ	FLAT:??_C@_0DA@JDNAGEED@Local?5name?5referenced?5but?5not?5bo@
	DQ	FLAT:BaseException_traverse
	DQ	FLAT:BaseException_clear
	DQ	0000000000000000H
	DQ	0000000000000000H
	DQ	0000000000000000H
	DQ	0000000000000000H
	DQ	0000000000000000H
	DQ	0000000000000000H
	DQ	0000000000000000H
	DQ	FLAT:_PyExc_NameError
	DQ	0000000000000000H
	DQ	0000000000000000H
	DQ	0000000000000000H
	DQ	0000000000000060H
	DQ	FLAT:BaseException_init
	DQ	0000000000000000H
	DQ	FLAT:BaseException_new
	ORG $+72
_PyExc_AttributeError DQ dead1234beef5678H
	DQ	dead1234beef5678H
	DQ	0000000000000000H
	ORG $+8
	DQ	0000000000000001H
	DQ	0000000000000000H
	DQ	0000000000000000H
	DQ	0000000000000000H
	DQ	dead1234beef5678H
	DQ	dead1234beef5678H
	DQ	0000000000000001H
	DQ	0000000000000000H
	DQ	0000000000000000H
	ORG $+8
	DQ	FLAT:??_C@_0P@OMMLLIOG@AttributeError?$AA@
	DQ	0000000000000090H
	DQ	0000000000000000H
	DQ	FLAT:BaseException_dealloc
	DQ	0000000000000000H
	DQ	0000000000000000H
	DQ	0000000000000000H
	DQ	0000000000000000H
	DQ	0000000000000000H
	DQ	0000000000000000H
	DQ	0000000000000000H
	DQ	0000000000000000H
	DQ	0000000000000000H
	DQ	0000000000000000H
	DQ	0000000000000000H
	DQ	0000000000000000H
	DQ	0000000000000000H
	DQ	0000000000000000H
	DD	044400H
	ORG $+4
	DQ	FLAT:??_C@_0BF@KBBDNFNN@Attribute?5not?5found?4?$AA@
	DQ	FLAT:BaseException_traverse
	DQ	FLAT:BaseException_clear
	DQ	0000000000000000H
	DQ	0000000000000000H
	DQ	0000000000000000H
	DQ	0000000000000000H
	DQ	0000000000000000H
	DQ	0000000000000000H
	DQ	0000000000000000H
	DQ	FLAT:_PyExc_Exception
	DQ	0000000000000000H
	DQ	0000000000000000H
	DQ	0000000000000000H
	DQ	0000000000000060H
	DQ	FLAT:BaseException_init
	DQ	0000000000000000H
	DQ	FLAT:BaseException_new
	ORG $+72
PyExc_AttributeError DQ FLAT:_PyExc_AttributeError
PyExc_SyntaxError DQ FLAT:_PyExc_SyntaxError
SyntaxError_members DQ FLAT:??_C@_03GLPMCEFE@msg?$AA@
	DD	06H
	ORG $+4
	DQ	0000000000000090H
	DD	00H
	ORG $+4
	DQ	FLAT:??_C@_0O@BHKGJJFD@exception?5msg?$AA@
	DQ	FLAT:??_C@_08BABJIOEM@filename?$AA@
	DD	06H
	ORG $+4
	DQ	0000000000000098H
	DD	00H
	ORG $+4
	DQ	FLAT:??_C@_0BD@KPIAFJIH@exception?5filename?$AA@
	DQ	FLAT:??_C@_06ILKIAHNN@lineno?$AA@
	DD	06H
	ORG $+4
	DQ	00000000000000a0H
	DD	00H
	ORG $+4
	DQ	FLAT:??_C@_0BB@FEDCHJDL@exception?5lineno?$AA@
	DQ	FLAT:??_C@_06KLHHMIGM@offset?$AA@
	DD	06H
	ORG $+4
	DQ	00000000000000a8H
	DD	00H
	ORG $+4
	DQ	FLAT:??_C@_0BB@HEONLGIK@exception?5offset?$AA@
	DQ	FLAT:??_C@_04CIMGMMMG@text?$AA@
	DD	06H
	ORG $+4
	DQ	00000000000000b0H
	DD	00H
	ORG $+4
	DQ	FLAT:??_C@_0P@LGNOADNI@exception?5text?$AA@
	DQ	FLAT:??_C@_0BE@DKBHEDDB@print_file_and_line?$AA@
	DD	06H
	ORG $+4
	DQ	00000000000000b8H
	DD	00H
	ORG $+4
	DQ	FLAT:??_C@_0BO@GMLCEMFL@exception?5print_file_and_line?$AA@
	DQ	0000000000000000H
	ORG $+32
PyExc_IndentationError DQ FLAT:_PyExc_IndentationError
_PyExc_SyntaxError DQ dead1234beef5678H
	DQ	dead1234beef5678H
	DQ	0000000000000000H
	ORG $+8
	DQ	0000000000000001H
	DQ	0000000000000000H
	DQ	0000000000000000H
	DQ	0000000000000000H
	DQ	dead1234beef5678H
	DQ	dead1234beef5678H
	DQ	0000000000000001H
	DQ	0000000000000000H
	DQ	0000000000000000H
	ORG $+8
	DQ	FLAT:??_C@_0M@KIDEJCGH@SyntaxError?$AA@
	DQ	00000000000000c0H
	DQ	0000000000000000H
	DQ	FLAT:SyntaxError_dealloc
	DQ	0000000000000000H
	DQ	0000000000000000H
	DQ	0000000000000000H
	DQ	0000000000000000H
	DQ	0000000000000000H
	DQ	0000000000000000H
	DQ	0000000000000000H
	DQ	0000000000000000H
	DQ	0000000000000000H
	DQ	0000000000000000H
	DQ	FLAT:SyntaxError_str
	DQ	0000000000000000H
	DQ	0000000000000000H
	DQ	0000000000000000H
	DD	044400H
	ORG $+4
	DQ	FLAT:??_C@_0BA@GFAEMOKB@Invalid?5syntax?4?$AA@
	DQ	FLAT:SyntaxError_traverse
	DQ	FLAT:SyntaxError_clear
	DQ	0000000000000000H
	DQ	0000000000000000H
	DQ	0000000000000000H
	DQ	0000000000000000H
	DQ	0000000000000000H
	DQ	FLAT:SyntaxError_members
	DQ	0000000000000000H
	DQ	FLAT:_PyExc_Exception
	DQ	0000000000000000H
	DQ	0000000000000000H
	DQ	0000000000000000H
	DQ	0000000000000060H
	DQ	FLAT:SyntaxError_init
	DQ	0000000000000000H
	DQ	0000000000000000H
	ORG $+72
_PyExc_IndentationError DQ dead1234beef5678H
	DQ	dead1234beef5678H
	DQ	0000000000000000H
	ORG $+8
	DQ	0000000000000001H
	DQ	0000000000000000H
	DQ	0000000000000000H
	DQ	0000000000000000H
	DQ	dead1234beef5678H
	DQ	dead1234beef5678H
	DQ	0000000000000001H
	DQ	0000000000000000H
	DQ	0000000000000000H
	ORG $+8
	DQ	FLAT:??_C@_0BB@PAPDAKC@IndentationError?$AA@
	DQ	00000000000000c0H
	DQ	0000000000000000H
	DQ	FLAT:SyntaxError_dealloc
	DQ	0000000000000000H
	DQ	0000000000000000H
	DQ	0000000000000000H
	DQ	0000000000000000H
	DQ	0000000000000000H
	DQ	0000000000000000H
	DQ	0000000000000000H
	DQ	0000000000000000H
	DQ	0000000000000000H
	DQ	0000000000000000H
	DQ	0000000000000000H
	DQ	0000000000000000H
	DQ	0000000000000000H
	DQ	0000000000000000H
	DD	044400H
	ORG $+4
	DQ	FLAT:??_C@_0BG@EODDEBDJ@Improper?5indentation?4?$AA@
	DQ	FLAT:SyntaxError_traverse
	DQ	FLAT:SyntaxError_clear
	DQ	0000000000000000H
	DQ	0000000000000000H
	DQ	0000000000000000H
	DQ	0000000000000000H
	DQ	0000000000000000H
	DQ	0000000000000000H
	DQ	0000000000000000H
	DQ	FLAT:_PyExc_SyntaxError
	DQ	0000000000000000H
	DQ	0000000000000000H
	DQ	0000000000000000H
	DQ	0000000000000060H
	DQ	FLAT:SyntaxError_init
	DQ	0000000000000000H
	DQ	0000000000000000H
	ORG $+72
_PyExc_TabError DQ dead1234beef5678H
	DQ	dead1234beef5678H
	DQ	0000000000000000H
	ORG $+8
	DQ	0000000000000001H
	DQ	0000000000000000H
	DQ	0000000000000000H
	DQ	0000000000000000H
	DQ	dead1234beef5678H
	DQ	dead1234beef5678H
	DQ	0000000000000001H
	DQ	0000000000000000H
	DQ	0000000000000000H
	ORG $+8
	DQ	FLAT:??_C@_08HFBDNBMM@TabError?$AA@
	DQ	00000000000000c0H
	DQ	0000000000000000H
	DQ	FLAT:SyntaxError_dealloc
	DQ	0000000000000000H
	DQ	0000000000000000H
	DQ	0000000000000000H
	DQ	0000000000000000H
	DQ	0000000000000000H
	DQ	0000000000000000H
	DQ	0000000000000000H
	DQ	0000000000000000H
	DQ	0000000000000000H
	DQ	0000000000000000H
	DQ	0000000000000000H
	DQ	0000000000000000H
	DQ	0000000000000000H
	DQ	0000000000000000H
	DD	044400H
	ORG $+4
	DQ	FLAT:??_C@_0CF@GKBIKMOP@Improper?5mixture?5of?5spaces?5and?5t@
	DQ	FLAT:SyntaxError_traverse
	DQ	FLAT:SyntaxError_clear
	DQ	0000000000000000H
	DQ	0000000000000000H
	DQ	0000000000000000H
	DQ	0000000000000000H
	DQ	0000000000000000H
	DQ	0000000000000000H
	DQ	0000000000000000H
	DQ	FLAT:_PyExc_IndentationError
	DQ	0000000000000000H
	DQ	0000000000000000H
	DQ	0000000000000000H
	DQ	0000000000000060H
	DQ	FLAT:SyntaxError_init
	DQ	0000000000000000H
	DQ	0000000000000000H
	ORG $+72
PyExc_TabError DQ FLAT:_PyExc_TabError
PyExc_LookupError DQ FLAT:_PyExc_LookupError
_PyExc_LookupError DQ dead1234beef5678H
	DQ	dead1234beef5678H
	DQ	0000000000000000H
	ORG $+8
	DQ	0000000000000001H
	DQ	0000000000000000H
	DQ	0000000000000000H
	DQ	0000000000000000H
	DQ	dead1234beef5678H
	DQ	dead1234beef5678H
	DQ	0000000000000001H
	DQ	0000000000000000H
	DQ	0000000000000000H
	ORG $+8
	DQ	FLAT:??_C@_0M@MHFOHJEK@LookupError?$AA@
	DQ	0000000000000090H
	DQ	0000000000000000H
	DQ	FLAT:BaseException_dealloc
	DQ	0000000000000000H
	DQ	0000000000000000H
	DQ	0000000000000000H
	DQ	0000000000000000H
	DQ	0000000000000000H
	DQ	0000000000000000H
	DQ	0000000000000000H
	DQ	0000000000000000H
	DQ	0000000000000000H
	DQ	0000000000000000H
	DQ	0000000000000000H
	DQ	0000000000000000H
	DQ	0000000000000000H
	DQ	0000000000000000H
	DD	044400H
	ORG $+4
	DQ	FLAT:??_C@_0BO@OONBGEOC@Base?5class?5for?5lookup?5errors?4?$AA@
	DQ	FLAT:BaseException_traverse
	DQ	FLAT:BaseException_clear
	DQ	0000000000000000H
	DQ	0000000000000000H
	DQ	0000000000000000H
	DQ	0000000000000000H
	DQ	0000000000000000H
	DQ	0000000000000000H
	DQ	0000000000000000H
	DQ	FLAT:_PyExc_Exception
	DQ	0000000000000000H
	DQ	0000000000000000H
	DQ	0000000000000000H
	DQ	0000000000000060H
	DQ	FLAT:BaseException_init
	DQ	0000000000000000H
	DQ	FLAT:BaseException_new
	ORG $+72
_PyExc_IndexError DQ dead1234beef5678H
	DQ	dead1234beef5678H
	DQ	0000000000000000H
	ORG $+8
	DQ	0000000000000001H
	DQ	0000000000000000H
	DQ	0000000000000000H
	DQ	0000000000000000H
	DQ	dead1234beef5678H
	DQ	dead1234beef5678H
	DQ	0000000000000001H
	DQ	0000000000000000H
	DQ	0000000000000000H
	ORG $+8
	DQ	FLAT:??_C@_0L@PDGDGKIP@IndexError?$AA@
	DQ	0000000000000090H
	DQ	0000000000000000H
	DQ	FLAT:BaseException_dealloc
	DQ	0000000000000000H
	DQ	0000000000000000H
	DQ	0000000000000000H
	DQ	0000000000000000H
	DQ	0000000000000000H
	DQ	0000000000000000H
	DQ	0000000000000000H
	DQ	0000000000000000H
	DQ	0000000000000000H
	DQ	0000000000000000H
	DQ	0000000000000000H
	DQ	0000000000000000H
	DQ	0000000000000000H
	DQ	0000000000000000H
	DD	044400H
	ORG $+4
	DQ	FLAT:??_C@_0BN@MPIMOMNM@Sequence?5index?5out?5of?5range?4?$AA@
	DQ	FLAT:BaseException_traverse
	DQ	FLAT:BaseException_clear
	DQ	0000000000000000H
	DQ	0000000000000000H
	DQ	0000000000000000H
	DQ	0000000000000000H
	DQ	0000000000000000H
	DQ	0000000000000000H
	DQ	0000000000000000H
	DQ	FLAT:_PyExc_LookupError
	DQ	0000000000000000H
	DQ	0000000000000000H
	DQ	0000000000000000H
	DQ	0000000000000060H
	DQ	FLAT:BaseException_init
	DQ	0000000000000000H
	DQ	FLAT:BaseException_new
	ORG $+72
PyExc_IndexError DQ FLAT:_PyExc_IndexError
PyExc_KeyError DQ FLAT:_PyExc_KeyError
_PyExc_KeyError DQ dead1234beef5678H
	DQ	dead1234beef5678H
	DQ	0000000000000000H
	ORG $+8
	DQ	0000000000000001H
	DQ	0000000000000000H
	DQ	0000000000000000H
	DQ	0000000000000000H
	DQ	dead1234beef5678H
	DQ	dead1234beef5678H
	DQ	0000000000000001H
	DQ	0000000000000000H
	DQ	0000000000000000H
	ORG $+8
	DQ	FLAT:??_C@_08OHPJJKKC@KeyError?$AA@
	DQ	0000000000000090H
	DQ	0000000000000000H
	DQ	FLAT:BaseException_dealloc
	DQ	0000000000000000H
	DQ	0000000000000000H
	DQ	0000000000000000H
	DQ	0000000000000000H
	DQ	0000000000000000H
	DQ	0000000000000000H
	DQ	0000000000000000H
	DQ	0000000000000000H
	DQ	0000000000000000H
	DQ	0000000000000000H
	DQ	FLAT:KeyError_str
	DQ	0000000000000000H
	DQ	0000000000000000H
	DQ	0000000000000000H
	DD	044400H
	ORG $+4
	DQ	FLAT:??_C@_0BH@NGNBEPFN@Mapping?5key?5not?5found?4?$AA@
	DQ	FLAT:BaseException_traverse
	DQ	FLAT:BaseException_clear
	DQ	0000000000000000H
	DQ	0000000000000000H
	DQ	0000000000000000H
	DQ	0000000000000000H
	DQ	0000000000000000H
	DQ	0000000000000000H
	DQ	0000000000000000H
	DQ	FLAT:_PyExc_LookupError
	DQ	0000000000000000H
	DQ	0000000000000000H
	DQ	0000000000000000H
	DQ	0000000000000060H
	DQ	FLAT:BaseException_init
	DQ	0000000000000000H
	DQ	0000000000000000H
	ORG $+72
_PyExc_ValueError DQ dead1234beef5678H
	DQ	dead1234beef5678H
	DQ	0000000000000000H
	ORG $+8
	DQ	0000000000000001H
	DQ	0000000000000000H
	DQ	0000000000000000H
	DQ	0000000000000000H
	DQ	dead1234beef5678H
	DQ	dead1234beef5678H
	DQ	0000000000000001H
	DQ	0000000000000000H
	DQ	0000000000000000H
	ORG $+8
	DQ	FLAT:??_C@_0L@POAMGPDC@ValueError?$AA@
	DQ	0000000000000090H
	DQ	0000000000000000H
	DQ	FLAT:BaseException_dealloc
	DQ	0000000000000000H
	DQ	0000000000000000H
	DQ	0000000000000000H
	DQ	0000000000000000H
	DQ	0000000000000000H
	DQ	0000000000000000H
	DQ	0000000000000000H
	DQ	0000000000000000H
	DQ	0000000000000000H
	DQ	0000000000000000H
	DQ	0000000000000000H
	DQ	0000000000000000H
	DQ	0000000000000000H
	DQ	0000000000000000H
	DD	044400H
	ORG $+4
	DQ	FLAT:??_C@_0DA@PDIMAGJA@Inappropriate?5argument?5value?5?$CIof@
	DQ	FLAT:BaseException_traverse
	DQ	FLAT:BaseException_clear
	DQ	0000000000000000H
	DQ	0000000000000000H
	DQ	0000000000000000H
	DQ	0000000000000000H
	DQ	0000000000000000H
	DQ	0000000000000000H
	DQ	0000000000000000H
	DQ	FLAT:_PyExc_Exception
	DQ	0000000000000000H
	DQ	0000000000000000H
	DQ	0000000000000000H
	DQ	0000000000000060H
	DQ	FLAT:BaseException_init
	DQ	0000000000000000H
	DQ	FLAT:BaseException_new
	ORG $+72
PyExc_ValueError DQ FLAT:_PyExc_ValueError
PyExc_UnicodeError DQ FLAT:_PyExc_UnicodeError
_PyExc_UnicodeError DQ dead1234beef5678H
	DQ	dead1234beef5678H
	DQ	0000000000000000H
	ORG $+8
	DQ	0000000000000001H
	DQ	0000000000000000H
	DQ	0000000000000000H
	DQ	0000000000000000H
	DQ	dead1234beef5678H
	DQ	dead1234beef5678H
	DQ	0000000000000001H
	DQ	0000000000000000H
	DQ	0000000000000000H
	ORG $+8
	DQ	FLAT:??_C@_0N@HJMCMBLP@UnicodeError?$AA@
	DQ	0000000000000090H
	DQ	0000000000000000H
	DQ	FLAT:BaseException_dealloc
	DQ	0000000000000000H
	DQ	0000000000000000H
	DQ	0000000000000000H
	DQ	0000000000000000H
	DQ	0000000000000000H
	DQ	0000000000000000H
	DQ	0000000000000000H
	DQ	0000000000000000H
	DQ	0000000000000000H
	DQ	0000000000000000H
	DQ	0000000000000000H
	DQ	0000000000000000H
	DQ	0000000000000000H
	DQ	0000000000000000H
	DD	044400H
	ORG $+4
	DQ	FLAT:??_C@_0BH@LFJEPFCJ@Unicode?5related?5error?4?$AA@
	DQ	FLAT:BaseException_traverse
	DQ	FLAT:BaseException_clear
	DQ	0000000000000000H
	DQ	0000000000000000H
	DQ	0000000000000000H
	DQ	0000000000000000H
	DQ	0000000000000000H
	DQ	0000000000000000H
	DQ	0000000000000000H
	DQ	FLAT:_PyExc_ValueError
	DQ	0000000000000000H
	DQ	0000000000000000H
	DQ	0000000000000000H
	DQ	0000000000000060H
	DQ	FLAT:BaseException_init
	DQ	0000000000000000H
	DQ	FLAT:BaseException_new
	ORG $+72
UnicodeError_members DQ FLAT:??_C@_08MLPGAEIK@encoding?$AA@
	DD	06H
	ORG $+4
	DQ	0000000000000090H
	DD	00H
	ORG $+4
	DQ	FLAT:??_C@_0BD@HEGPNDEB@exception?5encoding?$AA@
	DQ	FLAT:??_C@_06IEOJBDIK@object?$AA@
	DD	06H
	ORG $+4
	DQ	0000000000000098H
	DD	00H
	ORG $+4
	DQ	FLAT:??_C@_0BB@FLHDGNGM@exception?5object?$AA@
	DQ	FLAT:??_C@_05FAGFPHJG@start?$AA@
	DD	013H
	ORG $+4
	DQ	00000000000000a0H
	DD	00H
	ORG $+4
	DQ	FLAT:??_C@_0BA@KKPENCDK@exception?5start?$AA@
	DQ	FLAT:??_C@_03JBJLGPFL@end?$AA@
	DD	013H
	ORG $+4
	DQ	00000000000000a8H
	DD	00H
	ORG $+4
	DQ	FLAT:??_C@_0O@ONMBNCFM@exception?5end?$AA@
	DQ	FLAT:??_C@_06CEHAOENB@reason?$AA@
	DD	06H
	ORG $+4
	DQ	00000000000000b0H
	DD	00H
	ORG $+4
	DQ	FLAT:??_C@_0BB@PLOKJKDH@exception?5reason?$AA@
	DQ	0000000000000000H
	ORG $+32
_PyExc_UnicodeEncodeError DQ dead1234beef5678H
	DQ	dead1234beef5678H
	DQ	0000000000000000H
	ORG $+8
	DQ	0000000000000001H
	DQ	0000000000000000H
	DQ	0000000000000000H
	DQ	0000000000000000H
	DQ	dead1234beef5678H
	DQ	dead1234beef5678H
	DQ	0000000000000001H
	DQ	0000000000000000H
	DQ	0000000000000000H
	ORG $+8
	DQ	FLAT:??_C@_0BD@PEGECFKD@UnicodeEncodeError?$AA@
	DQ	00000000000000c0H
	DQ	0000000000000000H
	DQ	FLAT:UnicodeError_dealloc
	DQ	0000000000000000H
	DQ	0000000000000000H
	DQ	0000000000000000H
	DQ	0000000000000000H
	DQ	0000000000000000H
	DQ	0000000000000000H
	DQ	0000000000000000H
	DQ	0000000000000000H
	DQ	0000000000000000H
	DQ	0000000000000000H
	DQ	FLAT:UnicodeEncodeError_str
	DQ	0000000000000000H
	DQ	0000000000000000H
	DQ	0000000000000000H
	DD	044400H
	ORG $+4
	DQ	FLAT:??_C@_0BI@BHCKDJLG@Unicode?5encoding?5error?4?$AA@
	DQ	FLAT:UnicodeError_traverse
	DQ	FLAT:UnicodeError_clear
	DQ	0000000000000000H
	DQ	0000000000000000H
	DQ	0000000000000000H
	DQ	0000000000000000H
	DQ	0000000000000000H
	DQ	FLAT:UnicodeError_members
	DQ	0000000000000000H
	DQ	FLAT:_PyExc_UnicodeError
	DQ	0000000000000000H
	DQ	0000000000000000H
	DQ	0000000000000000H
	DQ	0000000000000060H
	DQ	FLAT:UnicodeEncodeError_init
	DQ	0000000000000000H
	DQ	FLAT:BaseException_new
	ORG $+72
PyExc_UnicodeEncodeError DQ FLAT:_PyExc_UnicodeEncodeError
PyExc_UnicodeDecodeError DQ FLAT:_PyExc_UnicodeDecodeError
_PyExc_UnicodeDecodeError DQ dead1234beef5678H
	DQ	dead1234beef5678H
	DQ	0000000000000000H
	ORG $+8
	DQ	0000000000000001H
	DQ	0000000000000000H
	DQ	0000000000000000H
	DQ	0000000000000000H
	DQ	dead1234beef5678H
	DQ	dead1234beef5678H
	DQ	0000000000000001H
	DQ	0000000000000000H
	DQ	0000000000000000H
	ORG $+8
	DQ	FLAT:??_C@_0BD@EMOAOOII@UnicodeDecodeError?$AA@
	DQ	00000000000000c0H
	DQ	0000000000000000H
	DQ	FLAT:UnicodeError_dealloc
	DQ	0000000000000000H
	DQ	0000000000000000H
	DQ	0000000000000000H
	DQ	0000000000000000H
	DQ	0000000000000000H
	DQ	0000000000000000H
	DQ	0000000000000000H
	DQ	0000000000000000H
	DQ	0000000000000000H
	DQ	0000000000000000H
	DQ	FLAT:UnicodeDecodeError_str
	DQ	0000000000000000H
	DQ	0000000000000000H
	DQ	0000000000000000H
	DD	044400H
	ORG $+4
	DQ	FLAT:??_C@_0BI@GHLGAONJ@Unicode?5decoding?5error?4?$AA@
	DQ	FLAT:UnicodeError_traverse
	DQ	FLAT:UnicodeError_clear
	DQ	0000000000000000H
	DQ	0000000000000000H
	DQ	0000000000000000H
	DQ	0000000000000000H
	DQ	0000000000000000H
	DQ	FLAT:UnicodeError_members
	DQ	0000000000000000H
	DQ	FLAT:_PyExc_UnicodeError
	DQ	0000000000000000H
	DQ	0000000000000000H
	DQ	0000000000000000H
	DQ	0000000000000060H
	DQ	FLAT:UnicodeDecodeError_init
	DQ	0000000000000000H
	DQ	FLAT:BaseException_new
	ORG $+72
_PyExc_UnicodeTranslateError DQ dead1234beef5678H
	DQ	dead1234beef5678H
	DQ	0000000000000000H
	ORG $+8
	DQ	0000000000000001H
	DQ	0000000000000000H
	DQ	0000000000000000H
	DQ	0000000000000000H
	DQ	dead1234beef5678H
	DQ	dead1234beef5678H
	DQ	0000000000000001H
	DQ	0000000000000000H
	DQ	0000000000000000H
	ORG $+8
	DQ	FLAT:??_C@_0BG@MKGFNNGN@UnicodeTranslateError?$AA@
	DQ	00000000000000c0H
	DQ	0000000000000000H
	DQ	FLAT:UnicodeError_dealloc
	DQ	0000000000000000H
	DQ	0000000000000000H
	DQ	0000000000000000H
	DQ	0000000000000000H
	DQ	0000000000000000H
	DQ	0000000000000000H
	DQ	0000000000000000H
	DQ	0000000000000000H
	DQ	0000000000000000H
	DQ	0000000000000000H
	DQ	FLAT:UnicodeTranslateError_str
	DQ	0000000000000000H
	DQ	0000000000000000H
	DQ	0000000000000000H
	DD	044400H
	ORG $+4
	DQ	FLAT:??_C@_0BL@BOAAJAHA@Unicode?5translation?5error?4?$AA@
	DQ	FLAT:UnicodeError_traverse
	DQ	FLAT:UnicodeError_clear
	DQ	0000000000000000H
	DQ	0000000000000000H
	DQ	0000000000000000H
	DQ	0000000000000000H
	DQ	0000000000000000H
	DQ	FLAT:UnicodeError_members
	DQ	0000000000000000H
	DQ	FLAT:_PyExc_UnicodeError
	DQ	0000000000000000H
	DQ	0000000000000000H
	DQ	0000000000000000H
	DQ	0000000000000060H
	DQ	FLAT:UnicodeTranslateError_init
	DQ	0000000000000000H
	DQ	FLAT:BaseException_new
	ORG $+72
PyExc_UnicodeTranslateError DQ FLAT:_PyExc_UnicodeTranslateError
PyExc_AssertionError DQ FLAT:_PyExc_AssertionError
_PyExc_AssertionError DQ dead1234beef5678H
	DQ	dead1234beef5678H
	DQ	0000000000000000H
	ORG $+8
	DQ	0000000000000001H
	DQ	0000000000000000H
	DQ	0000000000000000H
	DQ	0000000000000000H
	DQ	dead1234beef5678H
	DQ	dead1234beef5678H
	DQ	0000000000000001H
	DQ	0000000000000000H
	DQ	0000000000000000H
	ORG $+8
	DQ	FLAT:??_C@_0P@ECLAGKMP@AssertionError?$AA@
	DQ	0000000000000090H
	DQ	0000000000000000H
	DQ	FLAT:BaseException_dealloc
	DQ	0000000000000000H
	DQ	0000000000000000H
	DQ	0000000000000000H
	DQ	0000000000000000H
	DQ	0000000000000000H
	DQ	0000000000000000H
	DQ	0000000000000000H
	DQ	0000000000000000H
	DQ	0000000000000000H
	DQ	0000000000000000H
	DQ	0000000000000000H
	DQ	0000000000000000H
	DQ	0000000000000000H
	DQ	0000000000000000H
	DD	044400H
	ORG $+4
	DQ	FLAT:??_C@_0BC@DHBLDLOI@Assertion?5failed?4?$AA@
	DQ	FLAT:BaseException_traverse
	DQ	FLAT:BaseException_clear
	DQ	0000000000000000H
	DQ	0000000000000000H
	DQ	0000000000000000H
	DQ	0000000000000000H
	DQ	0000000000000000H
	DQ	0000000000000000H
	DQ	0000000000000000H
	DQ	FLAT:_PyExc_Exception
	DQ	0000000000000000H
	DQ	0000000000000000H
	DQ	0000000000000000H
	DQ	0000000000000060H
	DQ	FLAT:BaseException_init
	DQ	0000000000000000H
	DQ	FLAT:BaseException_new
	ORG $+72
_PyExc_ArithmeticError DQ dead1234beef5678H
	DQ	dead1234beef5678H
	DQ	0000000000000000H
	ORG $+8
	DQ	0000000000000001H
	DQ	0000000000000000H
	DQ	0000000000000000H
	DQ	0000000000000000H
	DQ	dead1234beef5678H
	DQ	dead1234beef5678H
	DQ	0000000000000001H
	DQ	0000000000000000H
	DQ	0000000000000000H
	ORG $+8
	DQ	FLAT:??_C@_0BA@HMBIHIEF@ArithmeticError?$AA@
	DQ	0000000000000090H
	DQ	0000000000000000H
	DQ	FLAT:BaseException_dealloc
	DQ	0000000000000000H
	DQ	0000000000000000H
	DQ	0000000000000000H
	DQ	0000000000000000H
	DQ	0000000000000000H
	DQ	0000000000000000H
	DQ	0000000000000000H
	DQ	0000000000000000H
	DQ	0000000000000000H
	DQ	0000000000000000H
	DQ	0000000000000000H
	DQ	0000000000000000H
	DQ	0000000000000000H
	DQ	0000000000000000H
	DD	044400H
	ORG $+4
	DQ	FLAT:??_C@_0CC@PPOJNHHK@Base?5class?5for?5arithmetic?5errors@
	DQ	FLAT:BaseException_traverse
	DQ	FLAT:BaseException_clear
	DQ	0000000000000000H
	DQ	0000000000000000H
	DQ	0000000000000000H
	DQ	0000000000000000H
	DQ	0000000000000000H
	DQ	0000000000000000H
	DQ	0000000000000000H
	DQ	FLAT:_PyExc_Exception
	DQ	0000000000000000H
	DQ	0000000000000000H
	DQ	0000000000000000H
	DQ	0000000000000060H
	DQ	FLAT:BaseException_init
	DQ	0000000000000000H
	DQ	FLAT:BaseException_new
	ORG $+72
PyExc_ArithmeticError DQ FLAT:_PyExc_ArithmeticError
PyExc_FloatingPointError DQ FLAT:_PyExc_FloatingPointError
_PyExc_FloatingPointError DQ dead1234beef5678H
	DQ	dead1234beef5678H
	DQ	0000000000000000H
	ORG $+8
	DQ	0000000000000001H
	DQ	0000000000000000H
	DQ	0000000000000000H
	DQ	0000000000000000H
	DQ	dead1234beef5678H
	DQ	dead1234beef5678H
	DQ	0000000000000001H
	DQ	0000000000000000H
	DQ	0000000000000000H
	ORG $+8
	DQ	FLAT:??_C@_0BD@BMMMKAGK@FloatingPointError?$AA@
	DQ	0000000000000090H
	DQ	0000000000000000H
	DQ	FLAT:BaseException_dealloc
	DQ	0000000000000000H
	DQ	0000000000000000H
	DQ	0000000000000000H
	DQ	0000000000000000H
	DQ	0000000000000000H
	DQ	0000000000000000H
	DQ	0000000000000000H
	DQ	0000000000000000H
	DQ	0000000000000000H
	DQ	0000000000000000H
	DQ	0000000000000000H
	DQ	0000000000000000H
	DQ	0000000000000000H
	DQ	0000000000000000H
	DD	044400H
	ORG $+4
	DQ	FLAT:??_C@_0CB@CNKBBAIB@Floating?5point?5operation?5failed?4@
	DQ	FLAT:BaseException_traverse
	DQ	FLAT:BaseException_clear
	DQ	0000000000000000H
	DQ	0000000000000000H
	DQ	0000000000000000H
	DQ	0000000000000000H
	DQ	0000000000000000H
	DQ	0000000000000000H
	DQ	0000000000000000H
	DQ	FLAT:_PyExc_ArithmeticError
	DQ	0000000000000000H
	DQ	0000000000000000H
	DQ	0000000000000000H
	DQ	0000000000000060H
	DQ	FLAT:BaseException_init
	DQ	0000000000000000H
	DQ	FLAT:BaseException_new
	ORG $+72
_PyExc_OverflowError DQ dead1234beef5678H
	DQ	dead1234beef5678H
	DQ	0000000000000000H
	ORG $+8
	DQ	0000000000000001H
	DQ	0000000000000000H
	DQ	0000000000000000H
	DQ	0000000000000000H
	DQ	dead1234beef5678H
	DQ	dead1234beef5678H
	DQ	0000000000000001H
	DQ	0000000000000000H
	DQ	0000000000000000H
	ORG $+8
	DQ	FLAT:??_C@_0O@DAFOBLHH@OverflowError?$AA@
	DQ	0000000000000090H
	DQ	0000000000000000H
	DQ	FLAT:BaseException_dealloc
	DQ	0000000000000000H
	DQ	0000000000000000H
	DQ	0000000000000000H
	DQ	0000000000000000H
	DQ	0000000000000000H
	DQ	0000000000000000H
	DQ	0000000000000000H
	DQ	0000000000000000H
	DQ	0000000000000000H
	DQ	0000000000000000H
	DQ	0000000000000000H
	DQ	0000000000000000H
	DQ	0000000000000000H
	DQ	0000000000000000H
	DD	044400H
	ORG $+4
	DQ	FLAT:??_C@_0CE@DNDJACFH@Result?5too?5large?5to?5be?5represent@
	DQ	FLAT:BaseException_traverse
	DQ	FLAT:BaseException_clear
	DQ	0000000000000000H
	DQ	0000000000000000H
	DQ	0000000000000000H
	DQ	0000000000000000H
	DQ	0000000000000000H
	DQ	0000000000000000H
	DQ	0000000000000000H
	DQ	FLAT:_PyExc_ArithmeticError
	DQ	0000000000000000H
	DQ	0000000000000000H
	DQ	0000000000000000H
	DQ	0000000000000060H
	DQ	FLAT:BaseException_init
	DQ	0000000000000000H
	DQ	FLAT:BaseException_new
	ORG $+72
PyExc_OverflowError DQ FLAT:_PyExc_OverflowError
PyExc_ZeroDivisionError DQ FLAT:_PyExc_ZeroDivisionError
_PyExc_ZeroDivisionError DQ dead1234beef5678H
	DQ	dead1234beef5678H
	DQ	0000000000000000H
	ORG $+8
	DQ	0000000000000001H
	DQ	0000000000000000H
	DQ	0000000000000000H
	DQ	0000000000000000H
	DQ	dead1234beef5678H
	DQ	dead1234beef5678H
	DQ	0000000000000001H
	DQ	0000000000000000H
	DQ	0000000000000000H
	ORG $+8
	DQ	FLAT:??_C@_0BC@JKCGANPD@ZeroDivisionError?$AA@
	DQ	0000000000000090H
	DQ	0000000000000000H
	DQ	FLAT:BaseException_dealloc
	DQ	0000000000000000H
	DQ	0000000000000000H
	DQ	0000000000000000H
	DQ	0000000000000000H
	DQ	0000000000000000H
	DQ	0000000000000000H
	DQ	0000000000000000H
	DQ	0000000000000000H
	DQ	0000000000000000H
	DQ	0000000000000000H
	DQ	0000000000000000H
	DQ	0000000000000000H
	DQ	0000000000000000H
	DQ	0000000000000000H
	DD	044400H
	ORG $+4
	DQ	FLAT:??_C@_0DM@HNAOGMFP@Second?5argument?5to?5a?5division?5or@
	DQ	FLAT:BaseException_traverse
	DQ	FLAT:BaseException_clear
	DQ	0000000000000000H
	DQ	0000000000000000H
	DQ	0000000000000000H
	DQ	0000000000000000H
	DQ	0000000000000000H
	DQ	0000000000000000H
	DQ	0000000000000000H
	DQ	FLAT:_PyExc_ArithmeticError
	DQ	0000000000000000H
	DQ	0000000000000000H
	DQ	0000000000000000H
	DQ	0000000000000060H
	DQ	FLAT:BaseException_init
	DQ	0000000000000000H
	DQ	FLAT:BaseException_new
	ORG $+72
_PyExc_SystemError DQ dead1234beef5678H
	DQ	dead1234beef5678H
	DQ	0000000000000000H
	ORG $+8
	DQ	0000000000000001H
	DQ	0000000000000000H
	DQ	0000000000000000H
	DQ	0000000000000000H
	DQ	dead1234beef5678H
	DQ	dead1234beef5678H
	DQ	0000000000000001H
	DQ	0000000000000000H
	DQ	0000000000000000H
	ORG $+8
	DQ	FLAT:??_C@_0M@MLMICFKM@SystemError?$AA@
	DQ	0000000000000090H
	DQ	0000000000000000H
	DQ	FLAT:BaseException_dealloc
	DQ	0000000000000000H
	DQ	0000000000000000H
	DQ	0000000000000000H
	DQ	0000000000000000H
	DQ	0000000000000000H
	DQ	0000000000000000H
	DQ	0000000000000000H
	DQ	0000000000000000H
	DQ	0000000000000000H
	DQ	0000000000000000H
	DQ	0000000000000000H
	DQ	0000000000000000H
	DQ	0000000000000000H
	DQ	0000000000000000H
	DD	044400H
	ORG $+4
	DQ	FLAT:??_C@_0LA@PADCOJHH@Internal?5error?5in?5the?5Python?5int@
	DQ	FLAT:BaseException_traverse
	DQ	FLAT:BaseException_clear
	DQ	0000000000000000H
	DQ	0000000000000000H
	DQ	0000000000000000H
	DQ	0000000000000000H
	DQ	0000000000000000H
	DQ	0000000000000000H
	DQ	0000000000000000H
	DQ	FLAT:_PyExc_Exception
	DQ	0000000000000000H
	DQ	0000000000000000H
	DQ	0000000000000000H
	DQ	0000000000000060H
	DQ	FLAT:BaseException_init
	DQ	0000000000000000H
	DQ	FLAT:BaseException_new
	ORG $+72
PyExc_SystemError DQ FLAT:_PyExc_SystemError
PyExc_ReferenceError DQ FLAT:_PyExc_ReferenceError
_PyExc_ReferenceError DQ dead1234beef5678H
	DQ	dead1234beef5678H
	DQ	0000000000000000H
	ORG $+8
	DQ	0000000000000001H
	DQ	0000000000000000H
	DQ	0000000000000000H
	DQ	0000000000000000H
	DQ	dead1234beef5678H
	DQ	dead1234beef5678H
	DQ	0000000000000001H
	DQ	0000000000000000H
	DQ	0000000000000000H
	ORG $+8
	DQ	FLAT:??_C@_0P@NJFCDLEA@ReferenceError?$AA@
	DQ	0000000000000090H
	DQ	0000000000000000H
	DQ	FLAT:BaseException_dealloc
	DQ	0000000000000000H
	DQ	0000000000000000H
	DQ	0000000000000000H
	DQ	0000000000000000H
	DQ	0000000000000000H
	DQ	0000000000000000H
	DQ	0000000000000000H
	DQ	0000000000000000H
	DQ	0000000000000000H
	DQ	0000000000000000H
	DQ	0000000000000000H
	DQ	0000000000000000H
	DQ	0000000000000000H
	DQ	0000000000000000H
	DD	044400H
	ORG $+4
	DQ	FLAT:??_C@_0CO@BODDBCMG@Weak?5ref?5proxy?5used?5after?5refere@
	DQ	FLAT:BaseException_traverse
	DQ	FLAT:BaseException_clear
	DQ	0000000000000000H
	DQ	0000000000000000H
	DQ	0000000000000000H
	DQ	0000000000000000H
	DQ	0000000000000000H
	DQ	0000000000000000H
	DQ	0000000000000000H
	DQ	FLAT:_PyExc_Exception
	DQ	0000000000000000H
	DQ	0000000000000000H
	DQ	0000000000000000H
	DQ	0000000000000060H
	DQ	FLAT:BaseException_init
	DQ	0000000000000000H
	DQ	FLAT:BaseException_new
	ORG $+72
_PyExc_ParallelError DQ dead1234beef5678H
	DQ	dead1234beef5678H
	DQ	0000000000000000H
	ORG $+8
	DQ	0000000000000001H
	DQ	0000000000000000H
	DQ	0000000000000000H
	DQ	0000000000000000H
	DQ	dead1234beef5678H
	DQ	dead1234beef5678H
	DQ	0000000000000001H
	DQ	0000000000000000H
	DQ	0000000000000000H
	ORG $+8
	DQ	FLAT:??_C@_0O@GFKDNBOD@ParallelError?$AA@
	DQ	0000000000000090H
	DQ	0000000000000000H
	DQ	FLAT:BaseException_dealloc
	DQ	0000000000000000H
	DQ	0000000000000000H
	DQ	0000000000000000H
	DQ	0000000000000000H
	DQ	0000000000000000H
	DQ	0000000000000000H
	DQ	0000000000000000H
	DQ	0000000000000000H
	DQ	0000000000000000H
	DQ	0000000000000000H
	DQ	0000000000000000H
	DQ	0000000000000000H
	DQ	0000000000000000H
	DQ	0000000000000000H
	DD	044400H
	ORG $+4
	DQ	FLAT:??_C@_0CA@NKCFMBPJ@Base?5class?5for?5parallel?5errors?4?$AA@
	DQ	FLAT:BaseException_traverse
	DQ	FLAT:BaseException_clear
	DQ	0000000000000000H
	DQ	0000000000000000H
	DQ	0000000000000000H
	DQ	0000000000000000H
	DQ	0000000000000000H
	DQ	0000000000000000H
	DQ	0000000000000000H
	DQ	FLAT:_PyExc_Exception
	DQ	0000000000000000H
	DQ	0000000000000000H
	DQ	0000000000000000H
	DQ	0000000000000060H
	DQ	FLAT:BaseException_init
	DQ	0000000000000000H
	DQ	FLAT:BaseException_new
	ORG $+72
PyExc_ParallelError DQ FLAT:_PyExc_ParallelError
PyExc_ParallelThreadInitializationError DQ FLAT:_PyExc_ParallelThreadInitializationError
_PyExc_ParallelThreadInitializationError DQ dead1234beef5678H
	DQ	dead1234beef5678H
	DQ	0000000000000000H
	ORG $+8
	DQ	0000000000000001H
	DQ	0000000000000000H
	DQ	0000000000000000H
	DQ	0000000000000000H
	DQ	dead1234beef5678H
	DQ	dead1234beef5678H
	DQ	0000000000000001H
	DQ	0000000000000000H
	DQ	0000000000000000H
	ORG $+8
	DQ	FLAT:??_C@_0CC@IAEHFMP@ParallelThreadInitializationErro@
	DQ	0000000000000090H
	DQ	0000000000000000H
	DQ	FLAT:BaseException_dealloc
	DQ	0000000000000000H
	DQ	0000000000000000H
	DQ	0000000000000000H
	DQ	0000000000000000H
	DQ	0000000000000000H
	DQ	0000000000000000H
	DQ	0000000000000000H
	DQ	0000000000000000H
	DQ	0000000000000000H
	DQ	0000000000000000H
	DQ	0000000000000000H
	DQ	0000000000000000H
	DQ	0000000000000000H
	DQ	0000000000000000H
	DD	044400H
	ORG $+4
	DQ	FLAT:??_C@_0CK@IKBKELBP@Failed?5to?5initialize?5new?5paralle@
	DQ	FLAT:BaseException_traverse
	DQ	FLAT:BaseException_clear
	DQ	0000000000000000H
	DQ	0000000000000000H
	DQ	0000000000000000H
	DQ	0000000000000000H
	DQ	0000000000000000H
	DQ	0000000000000000H
	DQ	0000000000000000H
	DQ	FLAT:_PyExc_ParallelError
	DQ	0000000000000000H
	DQ	0000000000000000H
	DQ	0000000000000000H
	DQ	0000000000000060H
	DQ	FLAT:BaseException_init
	DQ	0000000000000000H
	DQ	FLAT:BaseException_new
	ORG $+72
_PyExc_ParallelContextInitializationError DQ dead1234beef5678H
	DQ	dead1234beef5678H
	DQ	0000000000000000H
	ORG $+8
	DQ	0000000000000001H
	DQ	0000000000000000H
	DQ	0000000000000000H
	DQ	0000000000000000H
	DQ	dead1234beef5678H
	DQ	dead1234beef5678H
	DQ	0000000000000001H
	DQ	0000000000000000H
	DQ	0000000000000000H
	ORG $+8
	DQ	FLAT:??_C@_0CD@MNHCHPAI@ParallelContextInitializationErr@
	DQ	0000000000000090H
	DQ	0000000000000000H
	DQ	FLAT:BaseException_dealloc
	DQ	0000000000000000H
	DQ	0000000000000000H
	DQ	0000000000000000H
	DQ	0000000000000000H
	DQ	0000000000000000H
	DQ	0000000000000000H
	DQ	0000000000000000H
	DQ	0000000000000000H
	DQ	0000000000000000H
	DQ	0000000000000000H
	DQ	0000000000000000H
	DQ	0000000000000000H
	DQ	0000000000000000H
	DQ	0000000000000000H
	DD	044400H
	ORG $+4
	DQ	FLAT:??_C@_0DE@INBJNFAJ@Failed?5to?5initialize?5parallel?5co@
	DQ	FLAT:BaseException_traverse
	DQ	FLAT:BaseException_clear
	DQ	0000000000000000H
	DQ	0000000000000000H
	DQ	0000000000000000H
	DQ	0000000000000000H
	DQ	0000000000000000H
	DQ	0000000000000000H
	DQ	0000000000000000H
	DQ	FLAT:_PyExc_ParallelError
	DQ	0000000000000000H
	DQ	0000000000000000H
	DQ	0000000000000000H
	DQ	0000000000000060H
	DQ	FLAT:BaseException_init
	DQ	0000000000000000H
	DQ	FLAT:BaseException_new
	ORG $+72
PyExc_ParallelContextInitializationError DQ FLAT:_PyExc_ParallelContextInitializationError
PyExc_ParallelContextError DQ FLAT:_PyExc_ParallelContextError
_PyExc_ParallelContextError DQ dead1234beef5678H
	DQ	dead1234beef5678H
	DQ	0000000000000000H
	ORG $+8
	DQ	0000000000000001H
	DQ	0000000000000000H
	DQ	0000000000000000H
	DQ	0000000000000000H
	DQ	dead1234beef5678H
	DQ	dead1234beef5678H
	DQ	0000000000000001H
	DQ	0000000000000000H
	DQ	0000000000000000H
	ORG $+8
	DQ	FLAT:??_C@_0BF@HFKFAIAA@ParallelContextError?$AA@
	DQ	0000000000000090H
	DQ	0000000000000000H
	DQ	FLAT:BaseException_dealloc
	DQ	0000000000000000H
	DQ	0000000000000000H
	DQ	0000000000000000H
	DQ	0000000000000000H
	DQ	0000000000000000H
	DQ	0000000000000000H
	DQ	0000000000000000H
	DQ	0000000000000000H
	DQ	0000000000000000H
	DQ	0000000000000000H
	DQ	0000000000000000H
	DQ	0000000000000000H
	DQ	0000000000000000H
	DQ	0000000000000000H
	DD	044400H
	ORG $+4
	DQ	FLAT:??_C@_0DG@NPBGBDKP@Operation?5not?5permitted?5from?5wit@
	DQ	FLAT:BaseException_traverse
	DQ	FLAT:BaseException_clear
	DQ	0000000000000000H
	DQ	0000000000000000H
	DQ	0000000000000000H
	DQ	0000000000000000H
	DQ	0000000000000000H
	DQ	0000000000000000H
	DQ	0000000000000000H
	DQ	FLAT:_PyExc_ParallelError
	DQ	0000000000000000H
	DQ	0000000000000000H
	DQ	0000000000000000H
	DQ	0000000000000060H
	DQ	FLAT:BaseException_init
	DQ	0000000000000000H
	DQ	FLAT:BaseException_new
	ORG $+72
_PyExc_ParallelImportError DQ dead1234beef5678H
	DQ	dead1234beef5678H
	DQ	0000000000000000H
	ORG $+8
	DQ	0000000000000001H
	DQ	0000000000000000H
	DQ	0000000000000000H
	DQ	0000000000000000H
	DQ	dead1234beef5678H
	DQ	dead1234beef5678H
	DQ	0000000000000001H
	DQ	0000000000000000H
	DQ	0000000000000000H
	ORG $+8
	DQ	FLAT:??_C@_0BE@FCGCAOGC@ParallelImportError?$AA@
	DQ	0000000000000090H
	DQ	0000000000000000H
	DQ	FLAT:BaseException_dealloc
	DQ	0000000000000000H
	DQ	0000000000000000H
	DQ	0000000000000000H
	DQ	0000000000000000H
	DQ	0000000000000000H
	DQ	0000000000000000H
	DQ	0000000000000000H
	DQ	0000000000000000H
	DQ	0000000000000000H
	DQ	0000000000000000H
	DQ	0000000000000000H
	DQ	0000000000000000H
	DQ	0000000000000000H
	DQ	0000000000000000H
	DD	044400H
	ORG $+4
	DQ	FLAT:??_C@_0DD@JGEGKCHH@Import?5not?5permitted?5from?5within@
	DQ	FLAT:BaseException_traverse
	DQ	FLAT:BaseException_clear
	DQ	0000000000000000H
	DQ	0000000000000000H
	DQ	0000000000000000H
	DQ	0000000000000000H
	DQ	0000000000000000H
	DQ	0000000000000000H
	DQ	0000000000000000H
	DQ	FLAT:_PyExc_ParallelContextError
	DQ	0000000000000000H
	DQ	0000000000000000H
	DQ	0000000000000000H
	DQ	0000000000000060H
	DQ	FLAT:BaseException_init
	DQ	0000000000000000H
	DQ	FLAT:BaseException_new
	ORG $+72
PyExc_ParallelImportError DQ FLAT:_PyExc_ParallelImportError
PyExc_ParallelGlobalVariableAccessError DQ FLAT:_PyExc_ParallelGlobalVariableAccessError
_PyExc_ParallelGlobalVariableAccessError DQ dead1234beef5678H
	DQ	dead1234beef5678H
	DQ	0000000000000000H
	ORG $+8
	DQ	0000000000000001H
	DQ	0000000000000000H
	DQ	0000000000000000H
	DQ	0000000000000000H
	DQ	dead1234beef5678H
	DQ	dead1234beef5678H
	DQ	0000000000000001H
	DQ	0000000000000000H
	DQ	0000000000000000H
	ORG $+8
	DQ	FLAT:??_C@_0CC@HPLHCPKN@ParallelGlobalVariableAccessErro@
	DQ	0000000000000090H
	DQ	0000000000000000H
	DQ	FLAT:BaseException_dealloc
	DQ	0000000000000000H
	DQ	0000000000000000H
	DQ	0000000000000000H
	DQ	0000000000000000H
	DQ	0000000000000000H
	DQ	0000000000000000H
	DQ	0000000000000000H
	DQ	0000000000000000H
	DQ	0000000000000000H
	DQ	0000000000000000H
	DQ	0000000000000000H
	DQ	0000000000000000H
	DQ	0000000000000000H
	DQ	0000000000000000H
	DD	044400H
	ORG $+4
	DQ	FLAT:??_C@_0EL@PLHLDPCD@Implicit?5access?5to?5global?5variab@
	DQ	FLAT:BaseException_traverse
	DQ	FLAT:BaseException_clear
	DQ	0000000000000000H
	DQ	0000000000000000H
	DQ	0000000000000000H
	DQ	0000000000000000H
	DQ	0000000000000000H
	DQ	0000000000000000H
	DQ	0000000000000000H
	DQ	FLAT:_PyExc_ParallelContextError
	DQ	0000000000000000H
	DQ	0000000000000000H
	DQ	0000000000000000H
	DQ	0000000000000060H
	DQ	FLAT:BaseException_init
	DQ	0000000000000000H
	DQ	FLAT:BaseException_new
	ORG $+72
_PyExc_ParallelNonlocalVariableAccessError DQ dead1234beef5678H
	DQ	dead1234beef5678H
	DQ	0000000000000000H
	ORG $+8
	DQ	0000000000000001H
	DQ	0000000000000000H
	DQ	0000000000000000H
	DQ	0000000000000000H
	DQ	dead1234beef5678H
	DQ	dead1234beef5678H
	DQ	0000000000000001H
	DQ	0000000000000000H
	DQ	0000000000000000H
	ORG $+8
	DQ	FLAT:??_C@_0CE@ONNHACJB@ParallelNonlocalVariableAccessEr@
	DQ	0000000000000090H
	DQ	0000000000000000H
	DQ	FLAT:BaseException_dealloc
	DQ	0000000000000000H
	DQ	0000000000000000H
	DQ	0000000000000000H
	DQ	0000000000000000H
	DQ	0000000000000000H
	DQ	0000000000000000H
	DQ	0000000000000000H
	DQ	0000000000000000H
	DQ	0000000000000000H
	DQ	0000000000000000H
	DQ	0000000000000000H
	DQ	0000000000000000H
	DQ	0000000000000000H
	DQ	0000000000000000H
	DD	044400H
	ORG $+4
	DQ	FLAT:??_C@_0EN@KNPFPBJJ@Implicit?5access?5to?5nonlocal?5vari@
	DQ	FLAT:BaseException_traverse
	DQ	FLAT:BaseException_clear
	DQ	0000000000000000H
	DQ	0000000000000000H
	DQ	0000000000000000H
	DQ	0000000000000000H
	DQ	0000000000000000H
	DQ	0000000000000000H
	DQ	0000000000000000H
	DQ	FLAT:_PyExc_ParallelContextError
	DQ	0000000000000000H
	DQ	0000000000000000H
	DQ	0000000000000000H
	DQ	0000000000000060H
	DQ	FLAT:BaseException_init
	DQ	0000000000000000H
	DQ	FLAT:BaseException_new
	ORG $+72
PyExc_ParallelNonlocalVariableAccessError DQ FLAT:_PyExc_ParallelNonlocalVariableAccessError
PyExc_AsyncError DQ FLAT:_PyExc_AsyncError
_PyExc_AsyncError DQ dead1234beef5678H
	DQ	dead1234beef5678H
	DQ	0000000000000000H
	ORG $+8
	DQ	0000000000000001H
	DQ	0000000000000000H
	DQ	0000000000000000H
	DQ	0000000000000000H
	DQ	dead1234beef5678H
	DQ	dead1234beef5678H
	DQ	0000000000000001H
	DQ	0000000000000000H
	DQ	0000000000000000H
	ORG $+8
	DQ	FLAT:??_C@_0L@POMMPANG@AsyncError?$AA@
	DQ	0000000000000090H
	DQ	0000000000000000H
	DQ	FLAT:BaseException_dealloc
	DQ	0000000000000000H
	DQ	0000000000000000H
	DQ	0000000000000000H
	DQ	0000000000000000H
	DQ	0000000000000000H
	DQ	0000000000000000H
	DQ	0000000000000000H
	DQ	0000000000000000H
	DQ	0000000000000000H
	DQ	0000000000000000H
	DQ	0000000000000000H
	DQ	0000000000000000H
	DQ	0000000000000000H
	DQ	0000000000000000H
	DD	044400H
	ORG $+4
	DQ	FLAT:??_C@_0BN@KHNEADKG@Base?5class?5for?5async?5errors?4?$AA@
	DQ	FLAT:BaseException_traverse
	DQ	FLAT:BaseException_clear
	DQ	0000000000000000H
	DQ	0000000000000000H
	DQ	0000000000000000H
	DQ	0000000000000000H
	DQ	0000000000000000H
	DQ	0000000000000000H
	DQ	0000000000000000H
	DQ	FLAT:_PyExc_Exception
	DQ	0000000000000000H
	DQ	0000000000000000H
	DQ	0000000000000000H
	DQ	0000000000000060H
	DQ	FLAT:BaseException_init
	DQ	0000000000000000H
	DQ	FLAT:BaseException_new
	ORG $+72
_PyExc_AsyncRunCalledWithoutEventsError DQ dead1234beef5678H
	DQ	dead1234beef5678H
	DQ	0000000000000000H
	ORG $+8
	DQ	0000000000000001H
	DQ	0000000000000000H
	DQ	0000000000000000H
	DQ	0000000000000000H
	DQ	dead1234beef5678H
	DQ	dead1234beef5678H
	DQ	0000000000000001H
	DQ	0000000000000000H
	DQ	0000000000000000H
	ORG $+8
	DQ	FLAT:??_C@_0CB@DHCJJACB@AsyncRunCalledWithoutEventsError@
	DQ	0000000000000090H
	DQ	0000000000000000H
	DQ	FLAT:BaseException_dealloc
	DQ	0000000000000000H
	DQ	0000000000000000H
	DQ	0000000000000000H
	DQ	0000000000000000H
	DQ	0000000000000000H
	DQ	0000000000000000H
	DQ	0000000000000000H
	DQ	0000000000000000H
	DQ	0000000000000000H
	DQ	0000000000000000H
	DQ	0000000000000000H
	DQ	0000000000000000H
	DQ	0000000000000000H
	DQ	0000000000000000H
	DD	044400H
	ORG $+4
	DQ	FLAT:??_C@_0CH@LDJJHMMC@Async?5run?$CI?$CJ?5called?5without?5any?5e@
	DQ	FLAT:BaseException_traverse
	DQ	FLAT:BaseException_clear
	DQ	0000000000000000H
	DQ	0000000000000000H
	DQ	0000000000000000H
	DQ	0000000000000000H
	DQ	0000000000000000H
	DQ	0000000000000000H
	DQ	0000000000000000H
	DQ	FLAT:_PyExc_AsyncError
	DQ	0000000000000000H
	DQ	0000000000000000H
	DQ	0000000000000000H
	DQ	0000000000000060H
	DQ	FLAT:BaseException_init
	DQ	0000000000000000H
	DQ	FLAT:BaseException_new
	ORG $+72
PyExc_AsyncRunCalledWithoutEventsError DQ FLAT:_PyExc_AsyncRunCalledWithoutEventsError
PyExc_AsyncRunNoActiveEventsError DQ FLAT:_PyExc_AsyncRunNoActiveEventsError
_PyExc_AsyncRunNoActiveEventsError DQ dead1234beef5678H
	DQ	dead1234beef5678H
	DQ	0000000000000000H
	ORG $+8
	DQ	0000000000000001H
	DQ	0000000000000000H
	DQ	0000000000000000H
	DQ	0000000000000000H
	DQ	dead1234beef5678H
	DQ	dead1234beef5678H
	DQ	0000000000000001H
	DQ	0000000000000000H
	DQ	0000000000000000H
	ORG $+8
	DQ	FLAT:??_C@_0BM@GCGOLDFN@AsyncRunNoActiveEventsError?$AA@
	DQ	0000000000000090H
	DQ	0000000000000000H
	DQ	FLAT:BaseException_dealloc
	DQ	0000000000000000H
	DQ	0000000000000000H
	DQ	0000000000000000H
	DQ	0000000000000000H
	DQ	0000000000000000H
	DQ	0000000000000000H
	DQ	0000000000000000H
	DQ	0000000000000000H
	DQ	0000000000000000H
	DQ	0000000000000000H
	DQ	0000000000000000H
	DQ	0000000000000000H
	DQ	0000000000000000H
	DQ	0000000000000000H
	DD	044400H
	ORG $+4
	DQ	FLAT:??_C@_0DG@LICMCCGN@Async?5run?$CI?$CJ?5detected?5that?5there?5@
	DQ	FLAT:BaseException_traverse
	DQ	FLAT:BaseException_clear
	DQ	0000000000000000H
	DQ	0000000000000000H
	DQ	0000000000000000H
	DQ	0000000000000000H
	DQ	0000000000000000H
	DQ	0000000000000000H
	DQ	0000000000000000H
	DQ	FLAT:_PyExc_AsyncError
	DQ	0000000000000000H
	DQ	0000000000000000H
	DQ	0000000000000000H
	DQ	0000000000000060H
	DQ	FLAT:BaseException_init
	DQ	0000000000000000H
	DQ	FLAT:BaseException_new
	ORG $+72
_PyExc_MemoryError DQ dead1234beef5678H
	DQ	dead1234beef5678H
	DQ	0000000000000000H
	ORG $+8
	DQ	0000000000000001H
	DQ	0000000000000000H
	DQ	0000000000000000H
	DQ	0000000000000000H
	DQ	dead1234beef5678H
	DQ	dead1234beef5678H
	DQ	0000000000000001H
	DQ	0000000000000000H
	DQ	0000000000000000H
	ORG $+8
	DQ	FLAT:??_C@_0M@HIBAKAFK@MemoryError?$AA@
	DQ	0000000000000090H
	DQ	0000000000000000H
	DQ	FLAT:MemoryError_dealloc
	DQ	0000000000000000H
	DQ	0000000000000000H
	DQ	0000000000000000H
	DQ	0000000000000000H
	DQ	0000000000000000H
	DQ	0000000000000000H
	DQ	0000000000000000H
	DQ	0000000000000000H
	DQ	0000000000000000H
	DQ	0000000000000000H
	DQ	0000000000000000H
	DQ	0000000000000000H
	DQ	0000000000000000H
	DQ	0000000000000000H
	DD	044400H
	ORG $+4
	DQ	FLAT:??_C@_0P@ILLCNIIE@Out?5of?5memory?4?$AA@
	DQ	FLAT:BaseException_traverse
	DQ	FLAT:BaseException_clear
	DQ	0000000000000000H
	DQ	0000000000000000H
	DQ	0000000000000000H
	DQ	0000000000000000H
	DQ	0000000000000000H
	DQ	0000000000000000H
	DQ	0000000000000000H
	DQ	FLAT:_PyExc_Exception
	DQ	0000000000000000H
	DQ	0000000000000000H
	DQ	0000000000000000H
	DQ	0000000000000060H
	DQ	FLAT:BaseException_init
	DQ	0000000000000000H
	DQ	FLAT:MemoryError_new
	ORG $+72
PyExc_MemoryError DQ FLAT:_PyExc_MemoryError
PyExc_BufferError DQ FLAT:_PyExc_BufferError
_PyExc_BufferError DQ dead1234beef5678H
	DQ	dead1234beef5678H
	DQ	0000000000000000H
	ORG $+8
	DQ	0000000000000001H
	DQ	0000000000000000H
	DQ	0000000000000000H
	DQ	0000000000000000H
	DQ	dead1234beef5678H
	DQ	dead1234beef5678H
	DQ	0000000000000001H
	DQ	0000000000000000H
	DQ	0000000000000000H
	ORG $+8
	DQ	FLAT:??_C@_0M@IEEINKIE@BufferError?$AA@
	DQ	0000000000000090H
	DQ	0000000000000000H
	DQ	FLAT:BaseException_dealloc
	DQ	0000000000000000H
	DQ	0000000000000000H
	DQ	0000000000000000H
	DQ	0000000000000000H
	DQ	0000000000000000H
	DQ	0000000000000000H
	DQ	0000000000000000H
	DQ	0000000000000000H
	DQ	0000000000000000H
	DQ	0000000000000000H
	DQ	0000000000000000H
	DQ	0000000000000000H
	DQ	0000000000000000H
	DQ	0000000000000000H
	DD	044400H
	ORG $+4
	DQ	FLAT:??_C@_0O@GFOKIHDB@Buffer?5error?4?$AA@
	DQ	FLAT:BaseException_traverse
	DQ	FLAT:BaseException_clear
	DQ	0000000000000000H
	DQ	0000000000000000H
	DQ	0000000000000000H
	DQ	0000000000000000H
	DQ	0000000000000000H
	DQ	0000000000000000H
	DQ	0000000000000000H
	DQ	FLAT:_PyExc_Exception
	DQ	0000000000000000H
	DQ	0000000000000000H
	DQ	0000000000000000H
	DQ	0000000000000060H
	DQ	FLAT:BaseException_init
	DQ	0000000000000000H
	DQ	FLAT:BaseException_new
	ORG $+72
_PyExc_Warning DQ dead1234beef5678H
	DQ	dead1234beef5678H
	DQ	0000000000000000H
	ORG $+8
	DQ	0000000000000001H
	DQ	0000000000000000H
	DQ	0000000000000000H
	DQ	0000000000000000H
	DQ	dead1234beef5678H
	DQ	dead1234beef5678H
	DQ	0000000000000001H
	DQ	0000000000000000H
	DQ	0000000000000000H
	ORG $+8
	DQ	FLAT:??_C@_07KGMMFLDN@Warning?$AA@
	DQ	0000000000000090H
	DQ	0000000000000000H
	DQ	FLAT:BaseException_dealloc
	DQ	0000000000000000H
	DQ	0000000000000000H
	DQ	0000000000000000H
	DQ	0000000000000000H
	DQ	0000000000000000H
	DQ	0000000000000000H
	DQ	0000000000000000H
	DQ	0000000000000000H
	DQ	0000000000000000H
	DQ	0000000000000000H
	DQ	0000000000000000H
	DQ	0000000000000000H
	DQ	0000000000000000H
	DQ	0000000000000000H
	DD	044400H
	ORG $+4
	DQ	FLAT:??_C@_0CD@IHAAEPNP@Base?5class?5for?5warning?5categorie@
	DQ	FLAT:BaseException_traverse
	DQ	FLAT:BaseException_clear
	DQ	0000000000000000H
	DQ	0000000000000000H
	DQ	0000000000000000H
	DQ	0000000000000000H
	DQ	0000000000000000H
	DQ	0000000000000000H
	DQ	0000000000000000H
	DQ	FLAT:_PyExc_Exception
	DQ	0000000000000000H
	DQ	0000000000000000H
	DQ	0000000000000000H
	DQ	0000000000000060H
	DQ	FLAT:BaseException_init
	DQ	0000000000000000H
	DQ	FLAT:BaseException_new
	ORG $+72
PyExc_Warning DQ FLAT:_PyExc_Warning
PyExc_UserWarning DQ FLAT:_PyExc_UserWarning
_PyExc_UserWarning DQ dead1234beef5678H
	DQ	dead1234beef5678H
	DQ	0000000000000000H
	ORG $+8
	DQ	0000000000000001H
	DQ	0000000000000000H
	DQ	0000000000000000H
	DQ	0000000000000000H
	DQ	dead1234beef5678H
	DQ	dead1234beef5678H
	DQ	0000000000000001H
	DQ	0000000000000000H
	DQ	0000000000000000H
	ORG $+8
	DQ	FLAT:??_C@_0M@JCLIHPLC@UserWarning?$AA@
	DQ	0000000000000090H
	DQ	0000000000000000H
	DQ	FLAT:BaseException_dealloc
	DQ	0000000000000000H
	DQ	0000000000000000H
	DQ	0000000000000000H
	DQ	0000000000000000H
	DQ	0000000000000000H
	DQ	0000000000000000H
	DQ	0000000000000000H
	DQ	0000000000000000H
	DQ	0000000000000000H
	DQ	0000000000000000H
	DQ	0000000000000000H
	DQ	0000000000000000H
	DQ	0000000000000000H
	DQ	0000000000000000H
	DD	044400H
	ORG $+4
	DQ	FLAT:??_C@_0DA@NAMNFIGL@Base?5class?5for?5warnings?5generate@
	DQ	FLAT:BaseException_traverse
	DQ	FLAT:BaseException_clear
	DQ	0000000000000000H
	DQ	0000000000000000H
	DQ	0000000000000000H
	DQ	0000000000000000H
	DQ	0000000000000000H
	DQ	0000000000000000H
	DQ	0000000000000000H
	DQ	FLAT:_PyExc_Warning
	DQ	0000000000000000H
	DQ	0000000000000000H
	DQ	0000000000000000H
	DQ	0000000000000060H
	DQ	FLAT:BaseException_init
	DQ	0000000000000000H
	DQ	FLAT:BaseException_new
	ORG $+72
_PyExc_DeprecationWarning DQ dead1234beef5678H
	DQ	dead1234beef5678H
	DQ	0000000000000000H
	ORG $+8
	DQ	0000000000000001H
	DQ	0000000000000000H
	DQ	0000000000000000H
	DQ	0000000000000000H
	DQ	dead1234beef5678H
	DQ	dead1234beef5678H
	DQ	0000000000000001H
	DQ	0000000000000000H
	DQ	0000000000000000H
	ORG $+8
	DQ	FLAT:??_C@_0BD@GIDNBIPD@DeprecationWarning?$AA@
	DQ	0000000000000090H
	DQ	0000000000000000H
	DQ	FLAT:BaseException_dealloc
	DQ	0000000000000000H
	DQ	0000000000000000H
	DQ	0000000000000000H
	DQ	0000000000000000H
	DQ	0000000000000000H
	DQ	0000000000000000H
	DQ	0000000000000000H
	DQ	0000000000000000H
	DQ	0000000000000000H
	DQ	0000000000000000H
	DQ	0000000000000000H
	DQ	0000000000000000H
	DQ	0000000000000000H
	DQ	0000000000000000H
	DD	044400H
	ORG $+4
	DQ	FLAT:??_C@_0DD@DDNMECFD@Base?5class?5for?5warnings?5about?5de@
	DQ	FLAT:BaseException_traverse
	DQ	FLAT:BaseException_clear
	DQ	0000000000000000H
	DQ	0000000000000000H
	DQ	0000000000000000H
	DQ	0000000000000000H
	DQ	0000000000000000H
	DQ	0000000000000000H
	DQ	0000000000000000H
	DQ	FLAT:_PyExc_Warning
	DQ	0000000000000000H
	DQ	0000000000000000H
	DQ	0000000000000000H
	DQ	0000000000000060H
	DQ	FLAT:BaseException_init
	DQ	0000000000000000H
	DQ	FLAT:BaseException_new
	ORG $+72
PyExc_DeprecationWarning DQ FLAT:_PyExc_DeprecationWarning
PyExc_PendingDeprecationWarning DQ FLAT:_PyExc_PendingDeprecationWarning
_PyExc_PendingDeprecationWarning DQ dead1234beef5678H
	DQ	dead1234beef5678H
	DQ	0000000000000000H
	ORG $+8
	DQ	0000000000000001H
	DQ	0000000000000000H
	DQ	0000000000000000H
	DQ	0000000000000000H
	DQ	dead1234beef5678H
	DQ	dead1234beef5678H
	DQ	0000000000000001H
	DQ	0000000000000000H
	DQ	0000000000000000H
	ORG $+8
	DQ	FLAT:??_C@_0BK@JDBEDOM@PendingDeprecationWarning?$AA@
	DQ	0000000000000090H
	DQ	0000000000000000H
	DQ	FLAT:BaseException_dealloc
	DQ	0000000000000000H
	DQ	0000000000000000H
	DQ	0000000000000000H
	DQ	0000000000000000H
	DQ	0000000000000000H
	DQ	0000000000000000H
	DQ	0000000000000000H
	DQ	0000000000000000H
	DQ	0000000000000000H
	DQ	0000000000000000H
	DQ	0000000000000000H
	DQ	0000000000000000H
	DQ	0000000000000000H
	DQ	0000000000000000H
	DD	044400H
	ORG $+4
	DQ	FLAT:??_C@_0EP@NOKGBDGL@Base?5class?5for?5warnings?5about?5fe@
	DQ	FLAT:BaseException_traverse
	DQ	FLAT:BaseException_clear
	DQ	0000000000000000H
	DQ	0000000000000000H
	DQ	0000000000000000H
	DQ	0000000000000000H
	DQ	0000000000000000H
	DQ	0000000000000000H
	DQ	0000000000000000H
	DQ	FLAT:_PyExc_Warning
	DQ	0000000000000000H
	DQ	0000000000000000H
	DQ	0000000000000000H
	DQ	0000000000000060H
	DQ	FLAT:BaseException_init
	DQ	0000000000000000H
	DQ	FLAT:BaseException_new
	ORG $+72
_PyExc_SyntaxWarning DQ dead1234beef5678H
	DQ	dead1234beef5678H
	DQ	0000000000000000H
	ORG $+8
	DQ	0000000000000001H
	DQ	0000000000000000H
	DQ	0000000000000000H
	DQ	0000000000000000H
	DQ	dead1234beef5678H
	DQ	dead1234beef5678H
	DQ	0000000000000001H
	DQ	0000000000000000H
	DQ	0000000000000000H
	ORG $+8
	DQ	FLAT:??_C@_0O@IOJIPFFN@SyntaxWarning?$AA@
	DQ	0000000000000090H
	DQ	0000000000000000H
	DQ	FLAT:BaseException_dealloc
	DQ	0000000000000000H
	DQ	0000000000000000H
	DQ	0000000000000000H
	DQ	0000000000000000H
	DQ	0000000000000000H
	DQ	0000000000000000H
	DQ	0000000000000000H
	DQ	0000000000000000H
	DQ	0000000000000000H
	DQ	0000000000000000H
	DQ	0000000000000000H
	DQ	0000000000000000H
	DQ	0000000000000000H
	DQ	0000000000000000H
	DD	044400H
	ORG $+4
	DQ	FLAT:??_C@_0CO@JDKAKEOK@Base?5class?5for?5warnings?5about?5du@
	DQ	FLAT:BaseException_traverse
	DQ	FLAT:BaseException_clear
	DQ	0000000000000000H
	DQ	0000000000000000H
	DQ	0000000000000000H
	DQ	0000000000000000H
	DQ	0000000000000000H
	DQ	0000000000000000H
	DQ	0000000000000000H
	DQ	FLAT:_PyExc_Warning
	DQ	0000000000000000H
	DQ	0000000000000000H
	DQ	0000000000000000H
	DQ	0000000000000060H
	DQ	FLAT:BaseException_init
	DQ	0000000000000000H
	DQ	FLAT:BaseException_new
	ORG $+72
PyExc_SyntaxWarning DQ FLAT:_PyExc_SyntaxWarning
PyExc_RuntimeWarning DQ FLAT:_PyExc_RuntimeWarning
_PyExc_RuntimeWarning DQ dead1234beef5678H
	DQ	dead1234beef5678H
	DQ	0000000000000000H
	ORG $+8
	DQ	0000000000000001H
	DQ	0000000000000000H
	DQ	0000000000000000H
	DQ	0000000000000000H
	DQ	dead1234beef5678H
	DQ	dead1234beef5678H
	DQ	0000000000000001H
	DQ	0000000000000000H
	DQ	0000000000000000H
	ORG $+8
	DQ	FLAT:??_C@_0P@JGMDIAML@RuntimeWarning?$AA@
	DQ	0000000000000090H
	DQ	0000000000000000H
	DQ	FLAT:BaseException_dealloc
	DQ	0000000000000000H
	DQ	0000000000000000H
	DQ	0000000000000000H
	DQ	0000000000000000H
	DQ	0000000000000000H
	DQ	0000000000000000H
	DQ	0000000000000000H
	DQ	0000000000000000H
	DQ	0000000000000000H
	DQ	0000000000000000H
	DQ	0000000000000000H
	DQ	0000000000000000H
	DQ	0000000000000000H
	DQ	0000000000000000H
	DD	044400H
	ORG $+4
	DQ	FLAT:??_C@_0DI@FBPEMJEN@Base?5class?5for?5warnings?5about?5du@
	DQ	FLAT:BaseException_traverse
	DQ	FLAT:BaseException_clear
	DQ	0000000000000000H
	DQ	0000000000000000H
	DQ	0000000000000000H
	DQ	0000000000000000H
	DQ	0000000000000000H
	DQ	0000000000000000H
	DQ	0000000000000000H
	DQ	FLAT:_PyExc_Warning
	DQ	0000000000000000H
	DQ	0000000000000000H
	DQ	0000000000000000H
	DQ	0000000000000060H
	DQ	FLAT:BaseException_init
	DQ	0000000000000000H
	DQ	FLAT:BaseException_new
	ORG $+72
_PyExc_FutureWarning DQ dead1234beef5678H
	DQ	dead1234beef5678H
	DQ	0000000000000000H
	ORG $+8
	DQ	0000000000000001H
	DQ	0000000000000000H
	DQ	0000000000000000H
	DQ	0000000000000000H
	DQ	dead1234beef5678H
	DQ	dead1234beef5678H
	DQ	0000000000000001H
	DQ	0000000000000000H
	DQ	0000000000000000H
	ORG $+8
	DQ	FLAT:??_C@_0O@EAIEFLDH@FutureWarning?$AA@
	DQ	0000000000000090H
	DQ	0000000000000000H
	DQ	FLAT:BaseException_dealloc
	DQ	0000000000000000H
	DQ	0000000000000000H
	DQ	0000000000000000H
	DQ	0000000000000000H
	DQ	0000000000000000H
	DQ	0000000000000000H
	DQ	0000000000000000H
	DQ	0000000000000000H
	DQ	0000000000000000H
	DQ	0000000000000000H
	DQ	0000000000000000H
	DQ	0000000000000000H
	DQ	0000000000000000H
	DQ	0000000000000000H
	DD	044400H
	ORG $+4
	DQ	FLAT:??_C@_0FG@MEHAINOE@Base?5class?5for?5warnings?5about?5co@
	DQ	FLAT:BaseException_traverse
	DQ	FLAT:BaseException_clear
	DQ	0000000000000000H
	DQ	0000000000000000H
	DQ	0000000000000000H
	DQ	0000000000000000H
	DQ	0000000000000000H
	DQ	0000000000000000H
	DQ	0000000000000000H
	DQ	FLAT:_PyExc_Warning
	DQ	0000000000000000H
	DQ	0000000000000000H
	DQ	0000000000000000H
	DQ	0000000000000060H
	DQ	FLAT:BaseException_init
	DQ	0000000000000000H
	DQ	FLAT:BaseException_new
	ORG $+72
PyExc_FutureWarning DQ FLAT:_PyExc_FutureWarning
PyExc_ImportWarning DQ FLAT:_PyExc_ImportWarning
_PyExc_ImportWarning DQ dead1234beef5678H
	DQ	dead1234beef5678H
	DQ	0000000000000000H
	ORG $+8
	DQ	0000000000000001H
	DQ	0000000000000000H
	DQ	0000000000000000H
	DQ	0000000000000000H
	DQ	dead1234beef5678H
	DQ	dead1234beef5678H
	DQ	0000000000000001H
	DQ	0000000000000000H
	DQ	0000000000000000H
	ORG $+8
	DQ	FLAT:??_C@_0O@MPAGLHE@ImportWarning?$AA@
	DQ	0000000000000090H
	DQ	0000000000000000H
	DQ	FLAT:BaseException_dealloc
	DQ	0000000000000000H
	DQ	0000000000000000H
	DQ	0000000000000000H
	DQ	0000000000000000H
	DQ	0000000000000000H
	DQ	0000000000000000H
	DQ	0000000000000000H
	DQ	0000000000000000H
	DQ	0000000000000000H
	DQ	0000000000000000H
	DQ	0000000000000000H
	DQ	0000000000000000H
	DQ	0000000000000000H
	DQ	0000000000000000H
	DD	044400H
	ORG $+4
	DQ	FLAT:??_C@_0EC@CFAJPLKK@Base?5class?5for?5warnings?5about?5pr@
	DQ	FLAT:BaseException_traverse
	DQ	FLAT:BaseException_clear
	DQ	0000000000000000H
	DQ	0000000000000000H
	DQ	0000000000000000H
	DQ	0000000000000000H
	DQ	0000000000000000H
	DQ	0000000000000000H
	DQ	0000000000000000H
	DQ	FLAT:_PyExc_Warning
	DQ	0000000000000000H
	DQ	0000000000000000H
	DQ	0000000000000000H
	DQ	0000000000000060H
	DQ	FLAT:BaseException_init
	DQ	0000000000000000H
	DQ	FLAT:BaseException_new
	ORG $+72
_PyExc_UnicodeWarning DQ dead1234beef5678H
	DQ	dead1234beef5678H
	DQ	0000000000000000H
	ORG $+8
	DQ	0000000000000001H
	DQ	0000000000000000H
	DQ	0000000000000000H
	DQ	0000000000000000H
	DQ	dead1234beef5678H
	DQ	dead1234beef5678H
	DQ	0000000000000001H
	DQ	0000000000000000H
	DQ	0000000000000000H
	ORG $+8
	DQ	FLAT:??_C@_0P@DFBLGLPC@UnicodeWarning?$AA@
	DQ	0000000000000090H
	DQ	0000000000000000H
	DQ	FLAT:BaseException_dealloc
	DQ	0000000000000000H
	DQ	0000000000000000H
	DQ	0000000000000000H
	DQ	0000000000000000H
	DQ	0000000000000000H
	DQ	0000000000000000H
	DQ	0000000000000000H
	DQ	0000000000000000H
	DQ	0000000000000000H
	DQ	0000000000000000H
	DQ	0000000000000000H
	DQ	0000000000000000H
	DQ	0000000000000000H
	DQ	0000000000000000H
	DD	044400H
	ORG $+4
	DQ	FLAT:??_C@_0FP@BEMCLFNP@Base?5class?5for?5warnings?5about?5Un@
	DQ	FLAT:BaseException_traverse
	DQ	FLAT:BaseException_clear
	DQ	0000000000000000H
	DQ	0000000000000000H
	DQ	0000000000000000H
	DQ	0000000000000000H
	DQ	0000000000000000H
	DQ	0000000000000000H
	DQ	0000000000000000H
	DQ	FLAT:_PyExc_Warning
	DQ	0000000000000000H
	DQ	0000000000000000H
	DQ	0000000000000000H
	DQ	0000000000000060H
	DQ	FLAT:BaseException_init
	DQ	0000000000000000H
	DQ	FLAT:BaseException_new
	ORG $+72
PyExc_UnicodeWarning DQ FLAT:_PyExc_UnicodeWarning
PyExc_BytesWarning DQ FLAT:_PyExc_BytesWarning
_PyExc_BytesWarning DQ dead1234beef5678H
	DQ	dead1234beef5678H
	DQ	0000000000000000H
	ORG $+8
	DQ	0000000000000001H
	DQ	0000000000000000H
	DQ	0000000000000000H
	DQ	0000000000000000H
	DQ	dead1234beef5678H
	DQ	dead1234beef5678H
	DQ	0000000000000001H
	DQ	0000000000000000H
	DQ	0000000000000000H
	ORG $+8
	DQ	FLAT:??_C@_0N@BILDEMAG@BytesWarning?$AA@
	DQ	0000000000000090H
	DQ	0000000000000000H
	DQ	FLAT:BaseException_dealloc
	DQ	0000000000000000H
	DQ	0000000000000000H
	DQ	0000000000000000H
	DQ	0000000000000000H
	DQ	0000000000000000H
	DQ	0000000000000000H
	DQ	0000000000000000H
	DQ	0000000000000000H
	DQ	0000000000000000H
	DQ	0000000000000000H
	DQ	0000000000000000H
	DQ	0000000000000000H
	DQ	0000000000000000H
	DQ	0000000000000000H
	DD	044400H
	ORG $+4
	DQ	FLAT:??_C@_0HM@KBKMDMHM@Base?5class?5for?5warnings?5about?5by@
	DQ	FLAT:BaseException_traverse
	DQ	FLAT:BaseException_clear
	DQ	0000000000000000H
	DQ	0000000000000000H
	DQ	0000000000000000H
	DQ	0000000000000000H
	DQ	0000000000000000H
	DQ	0000000000000000H
	DQ	0000000000000000H
	DQ	FLAT:_PyExc_Warning
	DQ	0000000000000000H
	DQ	0000000000000000H
	DQ	0000000000000000H
	DQ	0000000000000060H
	DQ	FLAT:BaseException_init
	DQ	0000000000000000H
	DQ	FLAT:BaseException_new
	ORG $+72
_PyExc_ResourceWarning DQ dead1234beef5678H
	DQ	dead1234beef5678H
	DQ	0000000000000000H
	ORG $+8
	DQ	0000000000000001H
	DQ	0000000000000000H
	DQ	0000000000000000H
	DQ	0000000000000000H
	DQ	dead1234beef5678H
	DQ	dead1234beef5678H
	DQ	0000000000000001H
	DQ	0000000000000000H
	DQ	0000000000000000H
	ORG $+8
	DQ	FLAT:??_C@_0BA@JIBLCGNF@ResourceWarning?$AA@
	DQ	0000000000000090H
	DQ	0000000000000000H
	DQ	FLAT:BaseException_dealloc
	DQ	0000000000000000H
	DQ	0000000000000000H
	DQ	0000000000000000H
	DQ	0000000000000000H
	DQ	0000000000000000H
	DQ	0000000000000000H
	DQ	0000000000000000H
	DQ	0000000000000000H
	DQ	0000000000000000H
	DQ	0000000000000000H
	DQ	0000000000000000H
	DQ	0000000000000000H
	DQ	0000000000000000H
	DQ	0000000000000000H
	DD	044400H
	ORG $+4
	DQ	FLAT:??_C@_0CO@HPEHEBLP@Base?5class?5for?5warnings?5about?5re@
	DQ	FLAT:BaseException_traverse
	DQ	FLAT:BaseException_clear
	DQ	0000000000000000H
	DQ	0000000000000000H
	DQ	0000000000000000H
	DQ	0000000000000000H
	DQ	0000000000000000H
	DQ	0000000000000000H
	DQ	0000000000000000H
	DQ	FLAT:_PyExc_Warning
	DQ	0000000000000000H
	DQ	0000000000000000H
	DQ	0000000000000000H
	DQ	0000000000000060H
	DQ	FLAT:BaseException_init
	DQ	0000000000000000H
	DQ	FLAT:BaseException_new
	ORG $+72
PyExc_ResourceWarning DQ FLAT:_PyExc_ResourceWarning
_DATA	ENDS
PUBLIC	??_C@_0L@DHGMCEID@_Py_IncRef?$AA@		; `string'
PUBLIC	??_C@_0CD@HDJFDCDP@c?3?2src?2pyparallel?2include?2object@ ; `string'
PUBLIC	_Py_IncRef
EXTRN	_PyParallel_Guard:PROC
EXTRN	_Py_PXCTX:PROC
;	COMDAT pdata
; File c:\src\pyparallel\include\object.h
pdata	SEGMENT
$pdata$_Py_IncRef DD imagerel $LN5
	DD	imagerel $LN5+74
	DD	imagerel $unwind$_Py_IncRef
pdata	ENDS
;	COMDAT xdata
xdata	SEGMENT
$unwind$_Py_IncRef DD 020601H
	DD	030025206H
xdata	ENDS
;	COMDAT ??_C@_0L@DHGMCEID@_Py_IncRef?$AA@
CONST	SEGMENT
??_C@_0L@DHGMCEID@_Py_IncRef?$AA@ DB '_Py_IncRef', 00H	; `string'
CONST	ENDS
;	COMDAT ??_C@_0CD@HDJFDCDP@c?3?2src?2pyparallel?2include?2object@
CONST	SEGMENT
??_C@_0CD@HDJFDCDP@c?3?2src?2pyparallel?2include?2object@ DB 'c:\src\pypa'
	DB	'rallel\include\object.h', 00H		; `string'
; Function compile flags: /Ogtpy
CONST	ENDS
;	COMDAT _Py_IncRef
_TEXT	SEGMENT
op$ = 64
_Py_IncRef PROC						; COMDAT

; 904  : {

$LN5:
  00000	40 53		 push	 rbx
  00002	48 83 ec 30	 sub	 rsp, 48			; 00000030H
  00006	48 8b d9	 mov	 rbx, rcx

; 905  :     if ((!Py_PXCTX && (Py_ISPY(op) || Px_PERSISTED(op)))) {

  00009	e8 00 00 00 00	 call	 _Py_PXCTX
  0000e	85 c0		 test	 eax, eax
  00010	75 32		 jne	 SHORT $LN2@Py_IncRef
  00012	48 8d 15 00 00
	00 00		 lea	 rdx, OFFSET FLAT:??_C@_0CD@HDJFDCDP@c?3?2src?2pyparallel?2include?2object@
  00019	48 8d 0d 00 00
	00 00		 lea	 rcx, OFFSET FLAT:??_C@_0L@DHGMCEID@_Py_IncRef?$AA@
  00020	4c 8b cb	 mov	 r9, rbx
  00023	41 b8 89 03 00
	00		 mov	 r8d, 905		; 00000389H
  00029	c7 44 24 20 02
	00 00 00	 mov	 DWORD PTR [rsp+32], 2
  00031	e8 00 00 00 00	 call	 _PyParallel_Guard
  00036	85 c0		 test	 eax, eax
  00038	75 06		 jne	 SHORT $LN1@Py_IncRef
  0003a	f6 43 20 20	 test	 BYTE PTR [rbx+32], 32	; 00000020H
  0003e	74 04		 je	 SHORT $LN2@Py_IncRef
$LN1@Py_IncRef:

; 906  :         _Py_INC_REFTOTAL;
; 907  :         (((PyObject*)(op))->ob_refcnt++);

  00040	48 ff 43 50	 inc	 QWORD PTR [rbx+80]
$LN2@Py_IncRef:

; 908  :     }
; 909  : }

  00044	48 83 c4 30	 add	 rsp, 48			; 00000030H
  00048	5b		 pop	 rbx
  00049	c3		 ret	 0
_Py_IncRef ENDP
_TEXT	ENDS
PUBLIC	??_C@_0L@DMHMLFIA@_Py_DecRef?$AA@		; `string'
PUBLIC	_Py_DecRef
EXTRN	Px_DecRef:PROC
EXTRN	_Px_Dealloc:PROC
;	COMDAT pdata
pdata	SEGMENT
$pdata$_Py_DecRef DD imagerel $LN12
	DD	imagerel $LN12+123
	DD	imagerel $unwind$_Py_DecRef
pdata	ENDS
;	COMDAT xdata
xdata	SEGMENT
$unwind$_Py_DecRef DD 020601H
	DD	030025206H
xdata	ENDS
;	COMDAT ??_C@_0L@DMHMLFIA@_Py_DecRef?$AA@
CONST	SEGMENT
??_C@_0L@DMHMLFIA@_Py_DecRef?$AA@ DB '_Py_DecRef', 00H	; `string'
; Function compile flags: /Ogtpy
CONST	ENDS
;	COMDAT _Py_DecRef
_TEXT	SEGMENT
op$ = 64
_Py_DecRef PROC						; COMDAT

; 923  : {

$LN12:
  00000	40 53		 push	 rbx
  00002	48 83 ec 30	 sub	 rsp, 48			; 00000030H
  00006	48 8b d9	 mov	 rbx, rcx

; 924  :     if (!Py_PXCTX) {

  00009	e8 00 00 00 00	 call	 _Py_PXCTX
  0000e	85 c0		 test	 eax, eax
  00010	75 63		 jne	 SHORT $LN11@Py_DecRef

; 925  :         if (Px_PERSISTED(op) || Px_CLONED(op))

  00012	48 8b 43 20	 mov	 rax, QWORD PTR [rbx+32]
  00016	a8 20		 test	 al, 32			; 00000020H
  00018	75 53		 jne	 SHORT $LN5@Py_DecRef
  0001a	84 c0		 test	 al, al
  0001c	78 4f		 js	 SHORT $LN5@Py_DecRef

; 927  :         else if (!Px_ISPX(op)) {

  0001e	a8 02		 test	 al, 2
  00020	75 53		 jne	 SHORT $LN11@Py_DecRef

; 928  :             _Py_DEC_REFTOTAL;
; 929  :             if ((--((PyObject *)(op))->ob_refcnt) != 0) {

  00022	48 ff 4b 50	 dec	 QWORD PTR [rbx+80]
  00026	75 4d		 jne	 SHORT $LN11@Py_DecRef

; 930  :                 _Py_CHECK_REFCNT(op);
; 931  :             } else
; 932  :                 _Py_Dealloc((PyObject *)(op));

  00028	48 8d 15 00 00
	00 00		 lea	 rdx, OFFSET FLAT:??_C@_0CD@HDJFDCDP@c?3?2src?2pyparallel?2include?2object@
  0002f	48 8d 0d 00 00
	00 00		 lea	 rcx, OFFSET FLAT:??_C@_0L@DMHMLFIA@_Py_DecRef?$AA@
  00036	4c 8b cb	 mov	 r9, rbx
  00039	41 b8 a4 03 00
	00		 mov	 r8d, 932		; 000003a4H
  0003f	c7 44 24 20 10
	00 00 00	 mov	 DWORD PTR [rsp+32], 16
  00047	e8 00 00 00 00	 call	 _PyParallel_Guard
  0004c	48 8b cb	 mov	 rcx, rbx
  0004f	85 c0		 test	 eax, eax
  00051	74 0a		 je	 SHORT $LN10@Py_DecRef

; 933  :         }
; 934  :     }
; 935  : }

  00053	48 83 c4 30	 add	 rsp, 48			; 00000030H
  00057	5b		 pop	 rbx
  00058	e9 00 00 00 00	 jmp	 _Px_Dealloc
$LN10@Py_DecRef:

; 930  :                 _Py_CHECK_REFCNT(op);
; 931  :             } else
; 932  :                 _Py_Dealloc((PyObject *)(op));

  0005d	48 8b 43 58	 mov	 rax, QWORD PTR [rbx+88]

; 933  :         }
; 934  :     }
; 935  : }

  00061	48 83 c4 30	 add	 rsp, 48			; 00000030H
  00065	5b		 pop	 rbx
  00066	48 ff a0 88 00
	00 00		 rex_jmp QWORD PTR [rax+136]
$LN5@Py_DecRef:

; 926  :             Px_DECREF(op);

  0006d	48 8b cb	 mov	 rcx, rbx
  00070	e8 00 00 00 00	 call	 Px_DecRef
$LN11@Py_DecRef:

; 933  :         }
; 934  :     }
; 935  : }

  00075	48 83 c4 30	 add	 rsp, 48			; 00000030H
  00079	5b		 pop	 rbx
  0007a	c3		 ret	 0
_Py_DecRef ENDP
_TEXT	ENDS
EXTRN	PyTuple_New:PROC
;	COMDAT pdata
pdata	SEGMENT
$pdata$BaseException_new DD imagerel BaseException_new
	DD	imagerel BaseException_new+182
	DD	imagerel $unwind$BaseException_new
pdata	ENDS
;	COMDAT xdata
xdata	SEGMENT
$unwind$BaseException_new DD 040a01H
	DD	08340aH
	DD	07006520aH
; Function compile flags: /Ogtpy
; File c:\src\pyparallel\objects\exceptions.c
xdata	ENDS
;	COMDAT BaseException_new
_TEXT	SEGMENT
type$ = 64
args$ = 72
kwds$ = 80
BaseException_new PROC					; COMDAT

; 36   : {

  00000	48 89 5c 24 08	 mov	 QWORD PTR [rsp+8], rbx
  00005	57		 push	 rdi
  00006	48 83 ec 30	 sub	 rsp, 48			; 00000030H
  0000a	48 8b fa	 mov	 rdi, rdx
  0000d	48 8b c1	 mov	 rax, rcx

; 37   :     PyBaseExceptionObject *self;
; 38   : 
; 39   :     self = (PyBaseExceptionObject *)type->tp_alloc(type, 0);

  00010	33 d2		 xor	 edx, edx
  00012	ff 90 88 01 00
	00		 call	 QWORD PTR [rax+392]
  00018	48 8b d8	 mov	 rbx, rax

; 40   :     if (!self)

  0001b	48 85 c0	 test	 rax, rax

; 41   :         return NULL;

  0001e	0f 84 85 00 00
	00		 je	 $LN10@BaseExcept

; 42   :     /* the dict is created on the fly in PyObject_GenericSetAttr */
; 43   :     self->dict = NULL;

  00024	33 c0		 xor	 eax, eax
  00026	48 89 43 60	 mov	 QWORD PTR [rbx+96], rax

; 44   :     self->traceback = self->cause = self->context = NULL;

  0002a	48 89 43 78	 mov	 QWORD PTR [rbx+120], rax
  0002e	48 89 83 80 00
	00 00		 mov	 QWORD PTR [rbx+128], rax
  00035	48 89 43 70	 mov	 QWORD PTR [rbx+112], rax

; 45   :     self->suppress_context = 0;

  00039	88 83 88 00 00
	00		 mov	 BYTE PTR [rbx+136], al

; 46   : 
; 47   :     if (args) {

  0003f	48 85 ff	 test	 rdi, rdi
  00042	74 4d		 je	 SHORT $LN2@BaseExcept

; 48   :         self->args = args;

  00044	48 89 7b 68	 mov	 QWORD PTR [rbx+104], rdi

; 49   :         Py_INCREF(args);

  00048	e8 00 00 00 00	 call	 _Py_PXCTX
  0004d	85 c0		 test	 eax, eax
  0004f	75 32		 jne	 SHORT $LN1@BaseExcept
  00051	48 8d 15 00 00
	00 00		 lea	 rdx, OFFSET FLAT:??_C@_0CD@HDJFDCDP@c?3?2src?2pyparallel?2include?2object@
  00058	48 8d 0d 00 00
	00 00		 lea	 rcx, OFFSET FLAT:??_C@_0L@DHGMCEID@_Py_IncRef?$AA@
  0005f	4c 8b cf	 mov	 r9, rdi
  00062	41 b8 89 03 00
	00		 mov	 r8d, 905		; 00000389H
  00068	c7 44 24 20 02
	00 00 00	 mov	 DWORD PTR [rsp+32], 2
  00070	e8 00 00 00 00	 call	 _PyParallel_Guard
  00075	85 c0		 test	 eax, eax
  00077	75 06		 jne	 SHORT $LN6@BaseExcept
  00079	f6 47 20 20	 test	 BYTE PTR [rdi+32], 32	; 00000020H
  0007d	74 04		 je	 SHORT $LN1@BaseExcept
$LN6@BaseExcept:
  0007f	48 ff 47 50	 inc	 QWORD PTR [rdi+80]
$LN1@BaseExcept:

; 57   :     }
; 58   : 
; 59   :     return (PyObject *)self;

  00083	48 8b c3	 mov	 rax, rbx

; 60   : }

  00086	48 8b 5c 24 40	 mov	 rbx, QWORD PTR [rsp+64]
  0008b	48 83 c4 30	 add	 rsp, 48			; 00000030H
  0008f	5f		 pop	 rdi
  00090	c3		 ret	 0
$LN2@BaseExcept:

; 50   :         return (PyObject *)self;
; 51   :     }
; 52   : 
; 53   :     self->args = PyTuple_New(0);

  00091	33 c9		 xor	 ecx, ecx
  00093	e8 00 00 00 00	 call	 PyTuple_New
  00098	48 89 43 68	 mov	 QWORD PTR [rbx+104], rax

; 54   :     if (!self->args) {

  0009c	48 85 c0	 test	 rax, rax
  0009f	75 e2		 jne	 SHORT $LN1@BaseExcept

; 55   :         Py_DECREF(self);

  000a1	48 8b cb	 mov	 rcx, rbx
  000a4	e8 00 00 00 00	 call	 _Py_DecRef
$LN10@BaseExcept:

; 56   :         return NULL;

  000a9	33 c0		 xor	 eax, eax

; 60   : }

  000ab	48 8b 5c 24 40	 mov	 rbx, QWORD PTR [rsp+64]
  000b0	48 83 c4 30	 add	 rsp, 48			; 00000030H
  000b4	5f		 pop	 rdi
  000b5	c3		 ret	 0
BaseException_new ENDP
_TEXT	ENDS
EXTRN	_PyArg_NoKeywords:PROC
;	COMDAT pdata
; File c:\src\pyparallel\include\object.h
pdata	SEGMENT
$pdata$BaseException_init DD imagerel BaseException_init
	DD	imagerel BaseException_init+50
	DD	imagerel $unwind$BaseException_init
pdata	ENDS
;	COMDAT pdata
pdata	SEGMENT
$pdata$0$BaseException_init DD imagerel BaseException_init+50
	DD	imagerel BaseException_init+228
	DD	imagerel $chain$0$BaseException_init
pdata	ENDS
;	COMDAT pdata
pdata	SEGMENT
$pdata$2$BaseException_init DD imagerel BaseException_init+228
	DD	imagerel BaseException_init+256
	DD	imagerel $chain$2$BaseException_init
pdata	ENDS
;	COMDAT pdata
pdata	SEGMENT
$pdata$4$BaseException_init DD imagerel BaseException_init+256
	DD	imagerel BaseException_init+282
	DD	imagerel $chain$4$BaseException_init
pdata	ENDS
;	COMDAT xdata
xdata	SEGMENT
$chain$4$BaseException_init DD 020021H
	DD	083400H
	DD	imagerel BaseException_init
	DD	imagerel BaseException_init+50
	DD	imagerel $unwind$BaseException_init
xdata	ENDS
;	COMDAT xdata
xdata	SEGMENT
$chain$2$BaseException_init DD 020021H
	DD	083400H
	DD	imagerel BaseException_init
	DD	imagerel BaseException_init+50
	DD	imagerel $unwind$BaseException_init
xdata	ENDS
;	COMDAT xdata
xdata	SEGMENT
$chain$0$BaseException_init DD 020521H
	DD	083405H
	DD	imagerel BaseException_init
	DD	imagerel BaseException_init+50
	DD	imagerel $unwind$BaseException_init
xdata	ENDS
;	COMDAT xdata
xdata	SEGMENT
$unwind$BaseException_init DD 040a01H
	DD	09640aH
	DD	07006520aH
; Function compile flags: /Ogtpy
; File c:\src\pyparallel\objects\exceptions.c
xdata	ENDS
;	COMDAT BaseException_init
_TEXT	SEGMENT
self$ = 64
args$ = 72
kwds$ = 80
BaseException_init PROC					; COMDAT

; 64   : {

  00000	48 89 74 24 10	 mov	 QWORD PTR [rsp+16], rsi
  00005	57		 push	 rdi
  00006	48 83 ec 30	 sub	 rsp, 48			; 00000030H
  0000a	48 8b f1	 mov	 rsi, rcx

; 65   :     PyObject *tmp;
; 66   : 
; 67   :     if (!_PyArg_NoKeywords(Py_TYPE(self)->tp_name, kwds))

  0000d	48 8b 49 58	 mov	 rcx, QWORD PTR [rcx+88]
  00011	48 8b fa	 mov	 rdi, rdx
  00014	48 8b 49 70	 mov	 rcx, QWORD PTR [rcx+112]
  00018	49 8b d0	 mov	 rdx, r8
  0001b	e8 00 00 00 00	 call	 _PyArg_NoKeywords
  00020	85 c0		 test	 eax, eax
  00022	75 0e		 jne	 SHORT $LN5@BaseExcept@2

; 68   :         return -1;

  00024	83 c8 ff	 or	 eax, -1

; 76   : }

  00027	48 8b 74 24 48	 mov	 rsi, QWORD PTR [rsp+72]
  0002c	48 83 c4 30	 add	 rsp, 48			; 00000030H
  00030	5f		 pop	 rdi
  00031	c3		 ret	 0
$LN5@BaseExcept@2:
  00032	48 89 5c 24 40	 mov	 QWORD PTR [rsp+64], rbx

; 69   : 
; 70   :     tmp = self->args;

  00037	48 8b 5e 68	 mov	 rbx, QWORD PTR [rsi+104]

; 71   :     self->args = args;

  0003b	48 89 7e 68	 mov	 QWORD PTR [rsi+104], rdi

; 72   :     Py_INCREF(self->args);

  0003f	e8 00 00 00 00	 call	 _Py_PXCTX
  00044	85 c0		 test	 eax, eax
  00046	75 32		 jne	 SHORT $LN4@BaseExcept@2
  00048	48 8d 15 00 00
	00 00		 lea	 rdx, OFFSET FLAT:??_C@_0CD@HDJFDCDP@c?3?2src?2pyparallel?2include?2object@
  0004f	48 8d 0d 00 00
	00 00		 lea	 rcx, OFFSET FLAT:??_C@_0L@DHGMCEID@_Py_IncRef?$AA@
  00056	4c 8b cf	 mov	 r9, rdi
  00059	41 b8 89 03 00
	00		 mov	 r8d, 905		; 00000389H
  0005f	c7 44 24 20 02
	00 00 00	 mov	 DWORD PTR [rsp+32], 2
  00067	e8 00 00 00 00	 call	 _PyParallel_Guard
  0006c	85 c0		 test	 eax, eax
  0006e	75 06		 jne	 SHORT $LN8@BaseExcept@2
  00070	f6 47 20 20	 test	 BYTE PTR [rdi+32], 32	; 00000020H
  00074	74 04		 je	 SHORT $LN4@BaseExcept@2
$LN8@BaseExcept@2:
  00076	48 ff 47 50	 inc	 QWORD PTR [rdi+80]
$LN4@BaseExcept@2:

; 73   :     Py_XDECREF(tmp);

  0007a	48 85 db	 test	 rbx, rbx
  0007d	0f 84 85 00 00
	00		 je	 $LN3@BaseExcept@2
  00083	e8 00 00 00 00	 call	 _Py_PXCTX
  00088	85 c0		 test	 eax, eax
  0008a	75 7c		 jne	 SHORT $LN3@BaseExcept@2
  0008c	48 8b 43 20	 mov	 rax, QWORD PTR [rbx+32]
  00090	a8 20		 test	 al, 32			; 00000020H
  00092	75 6c		 jne	 SHORT $LN16@BaseExcept@2
  00094	84 c0		 test	 al, al
  00096	78 68		 js	 SHORT $LN16@BaseExcept@2
  00098	a8 02		 test	 al, 2
  0009a	75 6c		 jne	 SHORT $LN3@BaseExcept@2
  0009c	48 ff 4b 50	 dec	 QWORD PTR [rbx+80]
  000a0	75 66		 jne	 SHORT $LN3@BaseExcept@2
  000a2	48 8d 15 00 00
	00 00		 lea	 rdx, OFFSET FLAT:??_C@_0CD@HDJFDCDP@c?3?2src?2pyparallel?2include?2object@
  000a9	48 8d 0d 00 00
	00 00		 lea	 rcx, OFFSET FLAT:??_C@_0L@DMHMLFIA@_Py_DecRef?$AA@
  000b0	4c 8b cb	 mov	 r9, rbx
  000b3	41 b8 a4 03 00
	00		 mov	 r8d, 932		; 000003a4H
  000b9	c7 44 24 20 10
	00 00 00	 mov	 DWORD PTR [rsp+32], 16
  000c1	e8 00 00 00 00	 call	 _PyParallel_Guard
  000c6	48 8b cb	 mov	 rcx, rbx
  000c9	85 c0		 test	 eax, eax
  000cb	74 17		 je	 SHORT $LN21@BaseExcept@2
  000cd	e8 00 00 00 00	 call	 _Px_Dealloc
  000d2	48 8b 5c 24 40	 mov	 rbx, QWORD PTR [rsp+64]

; 74   : 
; 75   :     return 0;

  000d7	33 c0		 xor	 eax, eax

; 76   : }

  000d9	48 8b 74 24 48	 mov	 rsi, QWORD PTR [rsp+72]
  000de	48 83 c4 30	 add	 rsp, 48			; 00000030H
  000e2	5f		 pop	 rdi
  000e3	c3		 ret	 0

; 73   :     Py_XDECREF(tmp);

$LN21@BaseExcept@2:
  000e4	48 8b 43 58	 mov	 rax, QWORD PTR [rbx+88]
  000e8	ff 90 88 00 00
	00		 call	 QWORD PTR [rax+136]
  000ee	48 8b 5c 24 40	 mov	 rbx, QWORD PTR [rsp+64]

; 74   : 
; 75   :     return 0;

  000f3	33 c0		 xor	 eax, eax

; 76   : }

  000f5	48 8b 74 24 48	 mov	 rsi, QWORD PTR [rsp+72]
  000fa	48 83 c4 30	 add	 rsp, 48			; 00000030H
  000fe	5f		 pop	 rdi
  000ff	c3		 ret	 0

; 73   :     Py_XDECREF(tmp);

$LN16@BaseExcept@2:
  00100	48 8b cb	 mov	 rcx, rbx
  00103	e8 00 00 00 00	 call	 Px_DecRef
$LN3@BaseExcept@2:

; 76   : }

  00108	48 8b 5c 24 40	 mov	 rbx, QWORD PTR [rsp+64]
  0010d	48 8b 74 24 48	 mov	 rsi, QWORD PTR [rsp+72]
  00112	33 c0		 xor	 eax, eax
  00114	48 83 c4 30	 add	 rsp, 48			; 00000030H
  00118	5f		 pop	 rdi
  00119	c3		 ret	 0
BaseException_init ENDP
_TEXT	ENDS
PUBLIC	??_C@_0BE@DHGGBECL@BaseException_clear?$AA@	; `string'
PUBLIC	??_C@_0BI@DKIONFF@?4?4?2Objects?2exceptions?4c?$AA@ ; `string'
;	COMDAT pdata
; File c:\src\pyparallel\include\object.h
pdata	SEGMENT
$pdata$BaseException_clear DD imagerel BaseException_clear
	DD	imagerel BaseException_clear+876
	DD	imagerel $unwind$BaseException_clear
pdata	ENDS
;	COMDAT xdata
xdata	SEGMENT
$unwind$BaseException_clear DD 060f01H
	DD	09640fH
	DD	08340fH
	DD	0700b520fH
xdata	ENDS
;	COMDAT ??_C@_0BE@DHGGBECL@BaseException_clear?$AA@
CONST	SEGMENT
??_C@_0BE@DHGGBECL@BaseException_clear?$AA@ DB 'BaseException_clear', 00H ; `string'
CONST	ENDS
;	COMDAT ??_C@_0BI@DKIONFF@?4?4?2Objects?2exceptions?4c?$AA@
CONST	SEGMENT
??_C@_0BI@DKIONFF@?4?4?2Objects?2exceptions?4c?$AA@ DB '..\Objects\except'
	DB	'ions.c', 00H				; `string'
; Function compile flags: /Ogtpy
; File c:\src\pyparallel\objects\exceptions.c
CONST	ENDS
;	COMDAT BaseException_clear
_TEXT	SEGMENT
self$ = 64
BaseException_clear PROC				; COMDAT

; 80   : {

  00000	48 89 5c 24 08	 mov	 QWORD PTR [rsp+8], rbx
  00005	48 89 74 24 10	 mov	 QWORD PTR [rsp+16], rsi
  0000a	57		 push	 rdi
  0000b	48 83 ec 30	 sub	 rsp, 48			; 00000030H

; 81   :     Py_CLEAR(self->dict);

  0000f	4c 8b 49 60	 mov	 r9, QWORD PTR [rcx+96]
  00013	33 f6		 xor	 esi, esi
  00015	48 8b f9	 mov	 rdi, rcx
  00018	4d 85 c9	 test	 r9, r9
  0001b	0f 84 90 00 00
	00		 je	 $LN19@BaseExcept@3
  00021	44 8d 46 51	 lea	 r8d, QWORD PTR [rsi+81]
  00025	48 8d 15 00 00
	00 00		 lea	 rdx, OFFSET FLAT:??_C@_0BI@DKIONFF@?4?4?2Objects?2exceptions?4c?$AA@
  0002c	48 8d 0d 00 00
	00 00		 lea	 rcx, OFFSET FLAT:??_C@_0BE@DHGGBECL@BaseException_clear?$AA@
  00033	c7 44 24 20 10
	00 00 00	 mov	 DWORD PTR [rsp+32], 16
  0003b	e8 00 00 00 00	 call	 _PyParallel_Guard
  00040	85 c0		 test	 eax, eax
  00042	75 6d		 jne	 SHORT $LN19@BaseExcept@3
  00044	48 8b 5f 60	 mov	 rbx, QWORD PTR [rdi+96]
  00048	48 89 77 60	 mov	 QWORD PTR [rdi+96], rsi
  0004c	e8 00 00 00 00	 call	 _Py_PXCTX
  00051	85 c0		 test	 eax, eax
  00053	75 5c		 jne	 SHORT $LN19@BaseExcept@3
  00055	48 8b 43 20	 mov	 rax, QWORD PTR [rbx+32]
  00059	a8 20		 test	 al, 32			; 00000020H
  0005b	75 4c		 jne	 SHORT $LN27@BaseExcept@3
  0005d	84 c0		 test	 al, al
  0005f	78 48		 js	 SHORT $LN27@BaseExcept@3
  00061	a8 02		 test	 al, 2
  00063	75 4c		 jne	 SHORT $LN19@BaseExcept@3
  00065	48 ff 4b 50	 dec	 QWORD PTR [rbx+80]
  00069	75 46		 jne	 SHORT $LN19@BaseExcept@3
  0006b	48 8d 15 00 00
	00 00		 lea	 rdx, OFFSET FLAT:??_C@_0CD@HDJFDCDP@c?3?2src?2pyparallel?2include?2object@
  00072	48 8d 0d 00 00
	00 00		 lea	 rcx, OFFSET FLAT:??_C@_0L@DMHMLFIA@_Py_DecRef?$AA@
  00079	4c 8b cb	 mov	 r9, rbx
  0007c	41 b8 a4 03 00
	00		 mov	 r8d, 932		; 000003a4H
  00082	c7 44 24 20 10
	00 00 00	 mov	 DWORD PTR [rsp+32], 16
  0008a	e8 00 00 00 00	 call	 _PyParallel_Guard
  0008f	48 8b cb	 mov	 rcx, rbx
  00092	85 c0		 test	 eax, eax
  00094	74 07		 je	 SHORT $LN32@BaseExcept@3
  00096	e8 00 00 00 00	 call	 _Px_Dealloc
  0009b	eb 14		 jmp	 SHORT $LN19@BaseExcept@3
$LN32@BaseExcept@3:
  0009d	48 8b 43 58	 mov	 rax, QWORD PTR [rbx+88]
  000a1	ff 90 88 00 00
	00		 call	 QWORD PTR [rax+136]
  000a7	eb 08		 jmp	 SHORT $LN19@BaseExcept@3
$LN27@BaseExcept@3:
  000a9	48 8b cb	 mov	 rcx, rbx
  000ac	e8 00 00 00 00	 call	 Px_DecRef
$LN19@BaseExcept@3:

; 82   :     Py_CLEAR(self->args);

  000b1	4c 8b 4f 68	 mov	 r9, QWORD PTR [rdi+104]
  000b5	4d 85 c9	 test	 r9, r9
  000b8	0f 84 92 00 00
	00		 je	 $LN15@BaseExcept@3
  000be	48 8d 15 00 00
	00 00		 lea	 rdx, OFFSET FLAT:??_C@_0BI@DKIONFF@?4?4?2Objects?2exceptions?4c?$AA@
  000c5	48 8d 0d 00 00
	00 00		 lea	 rcx, OFFSET FLAT:??_C@_0BE@DHGGBECL@BaseException_clear?$AA@
  000cc	41 b8 52 00 00
	00		 mov	 r8d, 82			; 00000052H
  000d2	c7 44 24 20 10
	00 00 00	 mov	 DWORD PTR [rsp+32], 16
  000da	e8 00 00 00 00	 call	 _PyParallel_Guard
  000df	85 c0		 test	 eax, eax
  000e1	75 6d		 jne	 SHORT $LN15@BaseExcept@3
  000e3	48 8b 5f 68	 mov	 rbx, QWORD PTR [rdi+104]
  000e7	48 89 77 68	 mov	 QWORD PTR [rdi+104], rsi
  000eb	e8 00 00 00 00	 call	 _Py_PXCTX
  000f0	85 c0		 test	 eax, eax
  000f2	75 5c		 jne	 SHORT $LN15@BaseExcept@3
  000f4	48 8b 43 20	 mov	 rax, QWORD PTR [rbx+32]
  000f8	a8 20		 test	 al, 32			; 00000020H
  000fa	75 4c		 jne	 SHORT $LN38@BaseExcept@3
  000fc	84 c0		 test	 al, al
  000fe	78 48		 js	 SHORT $LN38@BaseExcept@3
  00100	a8 02		 test	 al, 2
  00102	75 4c		 jne	 SHORT $LN15@BaseExcept@3
  00104	48 ff 4b 50	 dec	 QWORD PTR [rbx+80]
  00108	75 46		 jne	 SHORT $LN15@BaseExcept@3
  0010a	48 8d 15 00 00
	00 00		 lea	 rdx, OFFSET FLAT:??_C@_0CD@HDJFDCDP@c?3?2src?2pyparallel?2include?2object@
  00111	48 8d 0d 00 00
	00 00		 lea	 rcx, OFFSET FLAT:??_C@_0L@DMHMLFIA@_Py_DecRef?$AA@
  00118	4c 8b cb	 mov	 r9, rbx
  0011b	41 b8 a4 03 00
	00		 mov	 r8d, 932		; 000003a4H
  00121	c7 44 24 20 10
	00 00 00	 mov	 DWORD PTR [rsp+32], 16
  00129	e8 00 00 00 00	 call	 _PyParallel_Guard
  0012e	48 8b cb	 mov	 rcx, rbx
  00131	85 c0		 test	 eax, eax
  00133	74 07		 je	 SHORT $LN43@BaseExcept@3
  00135	e8 00 00 00 00	 call	 _Px_Dealloc
  0013a	eb 14		 jmp	 SHORT $LN15@BaseExcept@3
$LN43@BaseExcept@3:
  0013c	48 8b 43 58	 mov	 rax, QWORD PTR [rbx+88]
  00140	ff 90 88 00 00
	00		 call	 QWORD PTR [rax+136]
  00146	eb 08		 jmp	 SHORT $LN15@BaseExcept@3
$LN38@BaseExcept@3:
  00148	48 8b cb	 mov	 rcx, rbx
  0014b	e8 00 00 00 00	 call	 Px_DecRef
$LN15@BaseExcept@3:

; 83   :     Py_CLEAR(self->traceback);

  00150	4c 8b 4f 70	 mov	 r9, QWORD PTR [rdi+112]
  00154	4d 85 c9	 test	 r9, r9
  00157	0f 84 92 00 00
	00		 je	 $LN11@BaseExcept@3
  0015d	48 8d 15 00 00
	00 00		 lea	 rdx, OFFSET FLAT:??_C@_0BI@DKIONFF@?4?4?2Objects?2exceptions?4c?$AA@
  00164	48 8d 0d 00 00
	00 00		 lea	 rcx, OFFSET FLAT:??_C@_0BE@DHGGBECL@BaseException_clear?$AA@
  0016b	41 b8 53 00 00
	00		 mov	 r8d, 83			; 00000053H
  00171	c7 44 24 20 10
	00 00 00	 mov	 DWORD PTR [rsp+32], 16
  00179	e8 00 00 00 00	 call	 _PyParallel_Guard
  0017e	85 c0		 test	 eax, eax
  00180	75 6d		 jne	 SHORT $LN11@BaseExcept@3
  00182	48 8b 5f 70	 mov	 rbx, QWORD PTR [rdi+112]
  00186	48 89 77 70	 mov	 QWORD PTR [rdi+112], rsi
  0018a	e8 00 00 00 00	 call	 _Py_PXCTX
  0018f	85 c0		 test	 eax, eax
  00191	75 5c		 jne	 SHORT $LN11@BaseExcept@3
  00193	48 8b 43 20	 mov	 rax, QWORD PTR [rbx+32]
  00197	a8 20		 test	 al, 32			; 00000020H
  00199	75 4c		 jne	 SHORT $LN49@BaseExcept@3
  0019b	84 c0		 test	 al, al
  0019d	78 48		 js	 SHORT $LN49@BaseExcept@3
  0019f	a8 02		 test	 al, 2
  001a1	75 4c		 jne	 SHORT $LN11@BaseExcept@3
  001a3	48 ff 4b 50	 dec	 QWORD PTR [rbx+80]
  001a7	75 46		 jne	 SHORT $LN11@BaseExcept@3
  001a9	48 8d 15 00 00
	00 00		 lea	 rdx, OFFSET FLAT:??_C@_0CD@HDJFDCDP@c?3?2src?2pyparallel?2include?2object@
  001b0	48 8d 0d 00 00
	00 00		 lea	 rcx, OFFSET FLAT:??_C@_0L@DMHMLFIA@_Py_DecRef?$AA@
  001b7	4c 8b cb	 mov	 r9, rbx
  001ba	41 b8 a4 03 00
	00		 mov	 r8d, 932		; 000003a4H
  001c0	c7 44 24 20 10
	00 00 00	 mov	 DWORD PTR [rsp+32], 16
  001c8	e8 00 00 00 00	 call	 _PyParallel_Guard
  001cd	48 8b cb	 mov	 rcx, rbx
  001d0	85 c0		 test	 eax, eax
  001d2	74 07		 je	 SHORT $LN54@BaseExcept@3
  001d4	e8 00 00 00 00	 call	 _Px_Dealloc
  001d9	eb 14		 jmp	 SHORT $LN11@BaseExcept@3
$LN54@BaseExcept@3:
  001db	48 8b 43 58	 mov	 rax, QWORD PTR [rbx+88]
  001df	ff 90 88 00 00
	00		 call	 QWORD PTR [rax+136]
  001e5	eb 08		 jmp	 SHORT $LN11@BaseExcept@3
$LN49@BaseExcept@3:
  001e7	48 8b cb	 mov	 rcx, rbx
  001ea	e8 00 00 00 00	 call	 Px_DecRef
$LN11@BaseExcept@3:

; 84   :     Py_CLEAR(self->cause);

  001ef	4c 8b 8f 80 00
	00 00		 mov	 r9, QWORD PTR [rdi+128]
  001f6	4d 85 c9	 test	 r9, r9
  001f9	0f 84 98 00 00
	00		 je	 $LN7@BaseExcept@3
  001ff	48 8d 15 00 00
	00 00		 lea	 rdx, OFFSET FLAT:??_C@_0BI@DKIONFF@?4?4?2Objects?2exceptions?4c?$AA@
  00206	48 8d 0d 00 00
	00 00		 lea	 rcx, OFFSET FLAT:??_C@_0BE@DHGGBECL@BaseException_clear?$AA@
  0020d	41 b8 54 00 00
	00		 mov	 r8d, 84			; 00000054H
  00213	c7 44 24 20 10
	00 00 00	 mov	 DWORD PTR [rsp+32], 16
  0021b	e8 00 00 00 00	 call	 _PyParallel_Guard
  00220	85 c0		 test	 eax, eax
  00222	75 73		 jne	 SHORT $LN7@BaseExcept@3
  00224	48 8b 9f 80 00
	00 00		 mov	 rbx, QWORD PTR [rdi+128]
  0022b	48 89 b7 80 00
	00 00		 mov	 QWORD PTR [rdi+128], rsi
  00232	e8 00 00 00 00	 call	 _Py_PXCTX
  00237	85 c0		 test	 eax, eax
  00239	75 5c		 jne	 SHORT $LN7@BaseExcept@3
  0023b	48 8b 43 20	 mov	 rax, QWORD PTR [rbx+32]
  0023f	a8 20		 test	 al, 32			; 00000020H
  00241	75 4c		 jne	 SHORT $LN60@BaseExcept@3
  00243	84 c0		 test	 al, al
  00245	78 48		 js	 SHORT $LN60@BaseExcept@3
  00247	a8 02		 test	 al, 2
  00249	75 4c		 jne	 SHORT $LN7@BaseExcept@3
  0024b	48 ff 4b 50	 dec	 QWORD PTR [rbx+80]
  0024f	75 46		 jne	 SHORT $LN7@BaseExcept@3
  00251	48 8d 15 00 00
	00 00		 lea	 rdx, OFFSET FLAT:??_C@_0CD@HDJFDCDP@c?3?2src?2pyparallel?2include?2object@
  00258	48 8d 0d 00 00
	00 00		 lea	 rcx, OFFSET FLAT:??_C@_0L@DMHMLFIA@_Py_DecRef?$AA@
  0025f	4c 8b cb	 mov	 r9, rbx
  00262	41 b8 a4 03 00
	00		 mov	 r8d, 932		; 000003a4H
  00268	c7 44 24 20 10
	00 00 00	 mov	 DWORD PTR [rsp+32], 16
  00270	e8 00 00 00 00	 call	 _PyParallel_Guard
  00275	48 8b cb	 mov	 rcx, rbx
  00278	85 c0		 test	 eax, eax
  0027a	74 07		 je	 SHORT $LN65@BaseExcept@3
  0027c	e8 00 00 00 00	 call	 _Px_Dealloc
  00281	eb 14		 jmp	 SHORT $LN7@BaseExcept@3
$LN65@BaseExcept@3:
  00283	48 8b 43 58	 mov	 rax, QWORD PTR [rbx+88]
  00287	ff 90 88 00 00
	00		 call	 QWORD PTR [rax+136]
  0028d	eb 08		 jmp	 SHORT $LN7@BaseExcept@3
$LN60@BaseExcept@3:
  0028f	48 8b cb	 mov	 rcx, rbx
  00292	e8 00 00 00 00	 call	 Px_DecRef
$LN7@BaseExcept@3:

; 85   :     Py_CLEAR(self->context);

  00297	4c 8b 4f 78	 mov	 r9, QWORD PTR [rdi+120]
  0029b	4d 85 c9	 test	 r9, r9
  0029e	0f 84 b6 00 00
	00		 je	 $LN80@BaseExcept@3
  002a4	48 8d 15 00 00
	00 00		 lea	 rdx, OFFSET FLAT:??_C@_0BI@DKIONFF@?4?4?2Objects?2exceptions?4c?$AA@
  002ab	48 8d 0d 00 00
	00 00		 lea	 rcx, OFFSET FLAT:??_C@_0BE@DHGGBECL@BaseException_clear?$AA@
  002b2	41 b8 55 00 00
	00		 mov	 r8d, 85			; 00000055H
  002b8	c7 44 24 20 10
	00 00 00	 mov	 DWORD PTR [rsp+32], 16
  002c0	e8 00 00 00 00	 call	 _PyParallel_Guard
  002c5	85 c0		 test	 eax, eax
  002c7	0f 85 8d 00 00
	00		 jne	 $LN80@BaseExcept@3
  002cd	48 8b 5f 78	 mov	 rbx, QWORD PTR [rdi+120]
  002d1	48 89 77 78	 mov	 QWORD PTR [rdi+120], rsi
  002d5	e8 00 00 00 00	 call	 _Py_PXCTX
  002da	85 c0		 test	 eax, eax
  002dc	75 7c		 jne	 SHORT $LN80@BaseExcept@3
  002de	48 8b 43 20	 mov	 rax, QWORD PTR [rbx+32]
  002e2	a8 20		 test	 al, 32			; 00000020H
  002e4	75 6c		 jne	 SHORT $LN71@BaseExcept@3
  002e6	84 c0		 test	 al, al
  002e8	78 68		 js	 SHORT $LN71@BaseExcept@3
  002ea	a8 02		 test	 al, 2
  002ec	75 6c		 jne	 SHORT $LN80@BaseExcept@3
  002ee	48 ff 4b 50	 dec	 QWORD PTR [rbx+80]
  002f2	75 66		 jne	 SHORT $LN80@BaseExcept@3
  002f4	48 8d 15 00 00
	00 00		 lea	 rdx, OFFSET FLAT:??_C@_0CD@HDJFDCDP@c?3?2src?2pyparallel?2include?2object@
  002fb	48 8d 0d 00 00
	00 00		 lea	 rcx, OFFSET FLAT:??_C@_0L@DMHMLFIA@_Py_DecRef?$AA@
  00302	4c 8b cb	 mov	 r9, rbx
  00305	41 b8 a4 03 00
	00		 mov	 r8d, 932		; 000003a4H
  0030b	c7 44 24 20 10
	00 00 00	 mov	 DWORD PTR [rsp+32], 16
  00313	e8 00 00 00 00	 call	 _PyParallel_Guard
  00318	48 8b cb	 mov	 rcx, rbx
  0031b	85 c0		 test	 eax, eax
  0031d	74 17		 je	 SHORT $LN76@BaseExcept@3
  0031f	e8 00 00 00 00	 call	 _Px_Dealloc

; 86   :     return 0;

  00324	33 c0		 xor	 eax, eax

; 87   : }

  00326	48 8b 5c 24 40	 mov	 rbx, QWORD PTR [rsp+64]
  0032b	48 8b 74 24 48	 mov	 rsi, QWORD PTR [rsp+72]
  00330	48 83 c4 30	 add	 rsp, 48			; 00000030H
  00334	5f		 pop	 rdi
  00335	c3		 ret	 0

; 85   :     Py_CLEAR(self->context);

$LN76@BaseExcept@3:
  00336	48 8b 43 58	 mov	 rax, QWORD PTR [rbx+88]
  0033a	ff 90 88 00 00
	00		 call	 QWORD PTR [rax+136]

; 86   :     return 0;

  00340	33 c0		 xor	 eax, eax

; 87   : }

  00342	48 8b 5c 24 40	 mov	 rbx, QWORD PTR [rsp+64]
  00347	48 8b 74 24 48	 mov	 rsi, QWORD PTR [rsp+72]
  0034c	48 83 c4 30	 add	 rsp, 48			; 00000030H
  00350	5f		 pop	 rdi
  00351	c3		 ret	 0

; 85   :     Py_CLEAR(self->context);

$LN71@BaseExcept@3:
  00352	48 8b cb	 mov	 rcx, rbx
  00355	e8 00 00 00 00	 call	 Px_DecRef
$LN80@BaseExcept@3:

; 87   : }

  0035a	48 8b 5c 24 40	 mov	 rbx, QWORD PTR [rsp+64]
  0035f	48 8b 74 24 48	 mov	 rsi, QWORD PTR [rsp+72]
  00364	33 c0		 xor	 eax, eax
  00366	48 83 c4 30	 add	 rsp, 48			; 00000030H
  0036a	5f		 pop	 rdi
  0036b	c3		 ret	 0
BaseException_clear ENDP
_TEXT	ENDS
PUBLIC	??_C@_0BG@CNGLEAMK@BaseException_dealloc?$AA@	; `string'
;	COMDAT pdata
pdata	SEGMENT
$pdata$BaseException_dealloc DD imagerel BaseException_dealloc
	DD	imagerel BaseException_dealloc+158
	DD	imagerel $unwind$BaseException_dealloc
pdata	ENDS
;	COMDAT xdata
xdata	SEGMENT
$unwind$BaseException_dealloc DD 020601H
	DD	030025206H
xdata	ENDS
;	COMDAT ??_C@_0BG@CNGLEAMK@BaseException_dealloc?$AA@
CONST	SEGMENT
??_C@_0BG@CNGLEAMK@BaseException_dealloc?$AA@ DB 'BaseException_dealloc', 00H ; `string'
; Function compile flags: /Ogtpy
CONST	ENDS
;	COMDAT BaseException_dealloc
_TEXT	SEGMENT
self$ = 64
BaseException_dealloc PROC				; COMDAT

; 91   : {

  00000	40 53		 push	 rbx
  00002	48 83 ec 30	 sub	 rsp, 48			; 00000030H
  00006	48 8b d9	 mov	 rbx, rcx

; 92   :     _PyObject_GC_UNTRACK(self);

  00009	4c 8b c9	 mov	 r9, rcx
  0000c	48 8d 15 00 00
	00 00		 lea	 rdx, OFFSET FLAT:??_C@_0BI@DKIONFF@?4?4?2Objects?2exceptions?4c?$AA@
  00013	48 8d 0d 00 00
	00 00		 lea	 rcx, OFFSET FLAT:??_C@_0BG@CNGLEAMK@BaseException_dealloc?$AA@
  0001a	41 b8 5c 00 00
	00		 mov	 r8d, 92			; 0000005cH
  00020	c7 44 24 20 10
	00 00 00	 mov	 DWORD PTR [rsp+32], 16
  00028	e8 00 00 00 00	 call	 _PyParallel_Guard
  0002d	85 c0		 test	 eax, eax
  0002f	75 52		 jne	 SHORT $LN1@BaseExcept@4
  00031	44 8d 40 5c	 lea	 r8d, QWORD PTR [rax+92]
  00035	48 8d 15 00 00
	00 00		 lea	 rdx, OFFSET FLAT:??_C@_0BI@DKIONFF@?4?4?2Objects?2exceptions?4c?$AA@
  0003c	48 8d 0d 00 00
	00 00		 lea	 rcx, OFFSET FLAT:??_C@_0BG@CNGLEAMK@BaseException_dealloc?$AA@
  00043	4c 8b cb	 mov	 r9, rbx
  00046	c7 44 24 20 10
	00 00 00	 mov	 DWORD PTR [rsp+32], 16
  0004e	e8 00 00 00 00	 call	 _PyParallel_Guard
  00053	85 c0		 test	 eax, eax
  00055	74 04		 je	 SHORT $LN7@BaseExcept@4
  00057	33 d2		 xor	 edx, edx
  00059	eb 04		 jmp	 SHORT $LN8@BaseExcept@4
$LN7@BaseExcept@4:
  0005b	48 8d 53 e8	 lea	 rdx, QWORD PTR [rbx-24]
$LN8@BaseExcept@4:
  0005f	48 8b 02	 mov	 rax, QWORD PTR [rdx]
  00062	48 8b 4a 08	 mov	 rcx, QWORD PTR [rdx+8]
  00066	48 c7 42 10 fe
	ff ff ff	 mov	 QWORD PTR [rdx+16], -2
  0006e	48 89 01	 mov	 QWORD PTR [rcx], rax
  00071	48 8b 0a	 mov	 rcx, QWORD PTR [rdx]
  00074	48 8b 42 08	 mov	 rax, QWORD PTR [rdx+8]
  00078	48 89 41 08	 mov	 QWORD PTR [rcx+8], rax
  0007c	48 c7 02 00 00
	00 00		 mov	 QWORD PTR [rdx], 0
$LN1@BaseExcept@4:

; 93   :     BaseException_clear(self);

  00083	48 8b cb	 mov	 rcx, rbx
  00086	e8 00 00 00 00	 call	 BaseException_clear

; 94   :     Py_TYPE(self)->tp_free((PyObject *)self);

  0008b	4c 8b 5b 58	 mov	 r11, QWORD PTR [rbx+88]
  0008f	48 8b cb	 mov	 rcx, rbx

; 95   : }

  00092	48 83 c4 30	 add	 rsp, 48			; 00000030H
  00096	5b		 pop	 rbx
  00097	49 ff a3 98 01
	00 00		 rex_jmp QWORD PTR [r11+408]
BaseException_dealloc ENDP
_TEXT	ENDS
PUBLIC	??_C@_0BH@KIKAMKPB@BaseException_traverse?$AA@	; `string'
EXTRN	_PyParallel_ContextGuardFailure:PROC
;	COMDAT pdata
pdata	SEGMENT
$pdata$BaseException_traverse DD imagerel BaseException_traverse
	DD	imagerel BaseException_traverse+318
	DD	imagerel $unwind$BaseException_traverse
pdata	ENDS
;	COMDAT xdata
xdata	SEGMENT
$unwind$BaseException_traverse DD 060f01H
	DD	07640fH
	DD	06340fH
	DD	0700b320fH
xdata	ENDS
;	COMDAT ??_C@_0BH@KIKAMKPB@BaseException_traverse?$AA@
CONST	SEGMENT
??_C@_0BH@KIKAMKPB@BaseException_traverse?$AA@ DB 'BaseException_traverse'
	DB	00H						; `string'
; Function compile flags: /Ogtpy
CONST	ENDS
;	COMDAT BaseException_traverse
_TEXT	SEGMENT
self$ = 48
visit$ = 56
arg$ = 64
BaseException_traverse PROC				; COMDAT

; 99   : {

  00000	48 89 5c 24 08	 mov	 QWORD PTR [rsp+8], rbx
  00005	48 89 74 24 10	 mov	 QWORD PTR [rsp+16], rsi
  0000a	57		 push	 rdi
  0000b	48 83 ec 20	 sub	 rsp, 32			; 00000020H
  0000f	49 8b f8	 mov	 rdi, r8
  00012	48 8b f2	 mov	 rsi, rdx
  00015	48 8b d9	 mov	 rbx, rcx

; 100  :     Py_VISIT(self->dict);

  00018	e8 00 00 00 00	 call	 _Py_PXCTX
  0001d	85 c0		 test	 eax, eax
  0001f	74 1a		 je	 SHORT $LN27@BaseExcept@5
  00021	45 33 c9	 xor	 r9d, r9d
  00024	48 8d 15 00 00
	00 00		 lea	 rdx, OFFSET FLAT:??_C@_0BI@DKIONFF@?4?4?2Objects?2exceptions?4c?$AA@
  0002b	48 8d 0d 00 00
	00 00		 lea	 rcx, OFFSET FLAT:??_C@_0BH@KIKAMKPB@BaseException_traverse?$AA@
  00032	45 8d 41 64	 lea	 r8d, QWORD PTR [r9+100]
  00036	e8 00 00 00 00	 call	 _PyParallel_ContextGuardFailure
$LN27@BaseExcept@5:
  0003b	48 8b 4b 60	 mov	 rcx, QWORD PTR [rbx+96]
  0003f	48 85 c9	 test	 rcx, rcx
  00042	74 0d		 je	 SHORT $LN29@BaseExcept@5
  00044	48 8b d7	 mov	 rdx, rdi
  00047	ff d6		 call	 rsi
  00049	85 c0		 test	 eax, eax
  0004b	0f 85 dd 00 00
	00		 jne	 $LN31@BaseExcept@5
$LN29@BaseExcept@5:

; 101  :     Py_VISIT(self->args);

  00051	e8 00 00 00 00	 call	 _Py_PXCTX
  00056	85 c0		 test	 eax, eax
  00058	74 1a		 je	 SHORT $LN21@BaseExcept@5
  0005a	45 33 c9	 xor	 r9d, r9d
  0005d	48 8d 15 00 00
	00 00		 lea	 rdx, OFFSET FLAT:??_C@_0BI@DKIONFF@?4?4?2Objects?2exceptions?4c?$AA@
  00064	48 8d 0d 00 00
	00 00		 lea	 rcx, OFFSET FLAT:??_C@_0BH@KIKAMKPB@BaseException_traverse?$AA@
  0006b	45 8d 41 65	 lea	 r8d, QWORD PTR [r9+101]
  0006f	e8 00 00 00 00	 call	 _PyParallel_ContextGuardFailure
$LN21@BaseExcept@5:
  00074	48 8b 4b 68	 mov	 rcx, QWORD PTR [rbx+104]
  00078	48 85 c9	 test	 rcx, rcx
  0007b	74 0d		 je	 SHORT $LN23@BaseExcept@5
  0007d	48 8b d7	 mov	 rdx, rdi
  00080	ff d6		 call	 rsi
  00082	85 c0		 test	 eax, eax
  00084	0f 85 a4 00 00
	00		 jne	 $LN31@BaseExcept@5
$LN23@BaseExcept@5:

; 102  :     Py_VISIT(self->traceback);

  0008a	e8 00 00 00 00	 call	 _Py_PXCTX
  0008f	85 c0		 test	 eax, eax
  00091	74 1a		 je	 SHORT $LN15@BaseExcept@5
  00093	45 33 c9	 xor	 r9d, r9d
  00096	48 8d 15 00 00
	00 00		 lea	 rdx, OFFSET FLAT:??_C@_0BI@DKIONFF@?4?4?2Objects?2exceptions?4c?$AA@
  0009d	48 8d 0d 00 00
	00 00		 lea	 rcx, OFFSET FLAT:??_C@_0BH@KIKAMKPB@BaseException_traverse?$AA@
  000a4	45 8d 41 66	 lea	 r8d, QWORD PTR [r9+102]
  000a8	e8 00 00 00 00	 call	 _PyParallel_ContextGuardFailure
$LN15@BaseExcept@5:
  000ad	48 8b 4b 70	 mov	 rcx, QWORD PTR [rbx+112]
  000b1	48 85 c9	 test	 rcx, rcx
  000b4	74 09		 je	 SHORT $LN17@BaseExcept@5
  000b6	48 8b d7	 mov	 rdx, rdi
  000b9	ff d6		 call	 rsi
  000bb	85 c0		 test	 eax, eax
  000bd	75 6f		 jne	 SHORT $LN31@BaseExcept@5
$LN17@BaseExcept@5:

; 103  :     Py_VISIT(self->cause);

  000bf	e8 00 00 00 00	 call	 _Py_PXCTX
  000c4	85 c0		 test	 eax, eax
  000c6	74 1a		 je	 SHORT $LN9@BaseExcept@5
  000c8	45 33 c9	 xor	 r9d, r9d
  000cb	48 8d 15 00 00
	00 00		 lea	 rdx, OFFSET FLAT:??_C@_0BI@DKIONFF@?4?4?2Objects?2exceptions?4c?$AA@
  000d2	48 8d 0d 00 00
	00 00		 lea	 rcx, OFFSET FLAT:??_C@_0BH@KIKAMKPB@BaseException_traverse?$AA@
  000d9	45 8d 41 67	 lea	 r8d, QWORD PTR [r9+103]
  000dd	e8 00 00 00 00	 call	 _PyParallel_ContextGuardFailure
$LN9@BaseExcept@5:
  000e2	48 8b 8b 80 00
	00 00		 mov	 rcx, QWORD PTR [rbx+128]
  000e9	48 85 c9	 test	 rcx, rcx
  000ec	74 09		 je	 SHORT $LN11@BaseExcept@5
  000ee	48 8b d7	 mov	 rdx, rdi
  000f1	ff d6		 call	 rsi
  000f3	85 c0		 test	 eax, eax
  000f5	75 37		 jne	 SHORT $LN31@BaseExcept@5
$LN11@BaseExcept@5:

; 104  :     Py_VISIT(self->context);

  000f7	e8 00 00 00 00	 call	 _Py_PXCTX
  000fc	85 c0		 test	 eax, eax
  000fe	74 1a		 je	 SHORT $LN3@BaseExcept@5
  00100	45 33 c9	 xor	 r9d, r9d
  00103	48 8d 15 00 00
	00 00		 lea	 rdx, OFFSET FLAT:??_C@_0BI@DKIONFF@?4?4?2Objects?2exceptions?4c?$AA@
  0010a	48 8d 0d 00 00
	00 00		 lea	 rcx, OFFSET FLAT:??_C@_0BH@KIKAMKPB@BaseException_traverse?$AA@
  00111	45 8d 41 68	 lea	 r8d, QWORD PTR [r9+104]
  00115	e8 00 00 00 00	 call	 _PyParallel_ContextGuardFailure
$LN3@BaseExcept@5:
  0011a	48 8b 4b 78	 mov	 rcx, QWORD PTR [rbx+120]
  0011e	48 85 c9	 test	 rcx, rcx
  00121	74 09		 je	 SHORT $LN5@BaseExcept@5
  00123	48 8b d7	 mov	 rdx, rdi
  00126	ff d6		 call	 rsi
  00128	85 c0		 test	 eax, eax
  0012a	75 02		 jne	 SHORT $LN31@BaseExcept@5
$LN5@BaseExcept@5:

; 105  :     return 0;

  0012c	33 c0		 xor	 eax, eax
$LN31@BaseExcept@5:

; 106  : }

  0012e	48 8b 5c 24 30	 mov	 rbx, QWORD PTR [rsp+48]
  00133	48 8b 74 24 38	 mov	 rsi, QWORD PTR [rsp+56]
  00138	48 83 c4 20	 add	 rsp, 32			; 00000020H
  0013c	5f		 pop	 rdi
  0013d	c3		 ret	 0
BaseException_traverse ENDP
_TEXT	ENDS
PUBLIC	??_C@_00CNPNBAHC@?$AA@				; `string'
EXTRN	PyUnicode_FromString:PROC
EXTRN	PyObject_Str:PROC
;	COMDAT ??_C@_00CNPNBAHC@?$AA@
CONST	SEGMENT
??_C@_00CNPNBAHC@?$AA@ DB 00H				; `string'
; Function compile flags: /Ogtpy
CONST	ENDS
;	COMDAT BaseException_str
_TEXT	SEGMENT
self$ = 8
BaseException_str PROC					; COMDAT

; 111  :     switch (PyTuple_GET_SIZE(self->args)) {

  00000	48 8b 49 68	 mov	 rcx, QWORD PTR [rcx+104]
  00004	48 8b 41 60	 mov	 rax, QWORD PTR [rcx+96]
  00008	48 85 c0	 test	 rax, rax
  0000b	74 0e		 je	 SHORT $LN3@BaseExcept@6
  0000d	48 ff c8	 dec	 rax

; 116  :     default:
; 117  :         return PyObject_Str(self->args);

  00010	75 04		 jne	 SHORT $LN8@BaseExcept@6

; 114  :     case 1:
; 115  :         return PyObject_Str(PyTuple_GET_ITEM(self->args, 0));

  00012	48 8b 49 70	 mov	 rcx, QWORD PTR [rcx+112]
$LN8@BaseExcept@6:

; 118  :     }
; 119  : }

  00016	e9 00 00 00 00	 jmp	 PyObject_Str
$LN3@BaseExcept@6:

; 112  :     case 0:
; 113  :         return PyUnicode_FromString("");

  0001b	48 8d 0d 00 00
	00 00		 lea	 rcx, OFFSET FLAT:??_C@_00CNPNBAHC@?$AA@

; 118  :     }
; 119  : }

  00022	e9 00 00 00 00	 jmp	 PyUnicode_FromString
BaseException_str ENDP
_TEXT	ENDS
PUBLIC	??_C@_04PPHNBMDJ@?$CFs?$CFR?$AA@		; `string'
EXTRN	PyUnicode_FromFormat:PROC
EXTRN	__imp_strrchr:PROC
;	COMDAT pdata
pdata	SEGMENT
$pdata$BaseException_repr DD imagerel BaseException_repr
	DD	imagerel BaseException_repr+73
	DD	imagerel $unwind$BaseException_repr
pdata	ENDS
;	COMDAT xdata
xdata	SEGMENT
$unwind$BaseException_repr DD 040a01H
	DD	06340aH
	DD	07006320aH
xdata	ENDS
;	COMDAT ??_C@_04PPHNBMDJ@?$CFs?$CFR?$AA@
CONST	SEGMENT
??_C@_04PPHNBMDJ@?$CFs?$CFR?$AA@ DB '%s%R', 00H		; `string'
; Function compile flags: /Ogtpy
CONST	ENDS
;	COMDAT BaseException_repr
_TEXT	SEGMENT
self$ = 48
BaseException_repr PROC					; COMDAT

; 123  : {

  00000	48 89 5c 24 08	 mov	 QWORD PTR [rsp+8], rbx
  00005	57		 push	 rdi
  00006	48 83 ec 20	 sub	 rsp, 32			; 00000020H

; 124  :     char *name;
; 125  :     char *dot;
; 126  : 
; 127  :     name = (char *)Py_TYPE(self)->tp_name;

  0000a	48 8b 41 58	 mov	 rax, QWORD PTR [rcx+88]
  0000e	48 8b f9	 mov	 rdi, rcx

; 128  :     dot = strrchr(name, '.');

  00011	ba 2e 00 00 00	 mov	 edx, 46			; 0000002eH
  00016	48 8b 58 70	 mov	 rbx, QWORD PTR [rax+112]
  0001a	48 8b cb	 mov	 rcx, rbx
  0001d	ff 15 00 00 00
	00		 call	 QWORD PTR __imp_strrchr

; 129  :     if (dot != NULL) name = dot+1;

  00023	48 85 c0	 test	 rax, rax
  00026	74 04		 je	 SHORT $LN1@BaseExcept@7
  00028	48 8d 58 01	 lea	 rbx, QWORD PTR [rax+1]
$LN1@BaseExcept@7:

; 130  : 
; 131  :     return PyUnicode_FromFormat("%s%R", name, self->args);

  0002c	4c 8b 47 68	 mov	 r8, QWORD PTR [rdi+104]
  00030	48 8d 0d 00 00
	00 00		 lea	 rcx, OFFSET FLAT:??_C@_04PPHNBMDJ@?$CFs?$CFR?$AA@
  00037	48 8b d3	 mov	 rdx, rbx

; 132  : }

  0003a	48 8b 5c 24 30	 mov	 rbx, QWORD PTR [rsp+48]
  0003f	48 83 c4 20	 add	 rsp, 32			; 00000020H
  00043	5f		 pop	 rdi
  00044	e9 00 00 00 00	 jmp	 PyUnicode_FromFormat
BaseException_repr ENDP
_TEXT	ENDS
EXTRN	PyTuple_Pack:PROC
; Function compile flags: /Ogtpy
;	COMDAT BaseException_reduce
_TEXT	SEGMENT
self$ = 8
BaseException_reduce PROC				; COMDAT

; 138  :     if (self->args && self->dict)

  00000	4c 8b 41 68	 mov	 r8, QWORD PTR [rcx+104]
  00004	4d 85 c0	 test	 r8, r8
  00007	74 17		 je	 SHORT $LN2@BaseExcept@8
  00009	4c 8b 49 60	 mov	 r9, QWORD PTR [rcx+96]
  0000d	4d 85 c9	 test	 r9, r9
  00010	74 0e		 je	 SHORT $LN2@BaseExcept@8

; 139  :         return PyTuple_Pack(3, Py_TYPE(self), self->args, self->dict);

  00012	48 8b 51 58	 mov	 rdx, QWORD PTR [rcx+88]
  00016	b9 03 00 00 00	 mov	 ecx, 3

; 142  : }

  0001b	e9 00 00 00 00	 jmp	 PyTuple_Pack
$LN2@BaseExcept@8:

; 140  :     else
; 141  :         return PyTuple_Pack(2, Py_TYPE(self), self->args);

  00020	48 8b 51 58	 mov	 rdx, QWORD PTR [rcx+88]
  00024	b9 02 00 00 00	 mov	 ecx, 2

; 142  : }

  00029	e9 00 00 00 00	 jmp	 PyTuple_Pack
BaseException_reduce ENDP
_TEXT	ENDS
PUBLIC	??_C@_0BK@BPIFALMC@state?5is?5not?5a?5dictionary?$AA@ ; `string'
EXTRN	PyObject_SetAttr:PROC
EXTRN	PyDict_Next:PROC
EXTRN	PyErr_SetString:PROC
EXTRN	_Py_NoneStruct:BYTE
;	COMDAT pdata
; File c:\src\pyparallel\include\object.h
pdata	SEGMENT
$pdata$BaseException_setstate DD imagerel BaseException_setstate
	DD	imagerel BaseException_setstate+237
	DD	imagerel $unwind$BaseException_setstate
pdata	ENDS
;	COMDAT xdata
xdata	SEGMENT
$unwind$BaseException_setstate DD 040801H
	DD	070045208H
	DD	030026003H
xdata	ENDS
;	COMDAT ??_C@_0BK@BPIFALMC@state?5is?5not?5a?5dictionary?$AA@
CONST	SEGMENT
??_C@_0BK@BPIFALMC@state?5is?5not?5a?5dictionary?$AA@ DB 'state is not a '
	DB	'dictionary', 00H				; `string'
; Function compile flags: /Ogtpy
; File c:\src\pyparallel\objects\exceptions.c
CONST	ENDS
;	COMDAT BaseException_setstate
_TEXT	SEGMENT
self$ = 80
d_value$ = 88
state$ = 88
d_key$ = 96
i$ = 104
BaseException_setstate PROC				; COMDAT

; 151  : {

  00000	40 53		 push	 rbx
  00002	56		 push	 rsi
  00003	57		 push	 rdi
  00004	48 83 ec 30	 sub	 rsp, 48			; 00000030H

; 152  :     PyObject *d_key, *d_value;
; 153  :     Py_ssize_t i = 0;
; 154  : 
; 155  :     if (state != Py_None) {

  00008	48 8d 35 00 00
	00 00		 lea	 rsi, OFFSET FLAT:_Py_NoneStruct
  0000f	48 8b da	 mov	 rbx, rdx
  00012	48 8b f9	 mov	 rdi, rcx
  00015	48 c7 44 24 68
	00 00 00 00	 mov	 QWORD PTR i$[rsp], 0
  0001e	48 3b d6	 cmp	 rdx, rsi
  00021	74 7e		 je	 SHORT $LN2@BaseExcept@9

; 156  :         if (!PyDict_Check(state)) {

  00023	48 8b 42 58	 mov	 rax, QWORD PTR [rdx+88]
  00027	f7 80 00 01 00
	00 00 00 00 20	 test	 DWORD PTR [rax+256], 536870912 ; 20000000H
  00031	75 1d		 jne	 SHORT $LN12@BaseExcept@9

; 157  :             PyErr_SetString(PyExc_TypeError, "state is not a dictionary");

  00033	48 8b 0d 00 00
	00 00		 mov	 rcx, QWORD PTR PyExc_TypeError
  0003a	48 8d 15 00 00
	00 00		 lea	 rdx, OFFSET FLAT:??_C@_0BK@BPIFALMC@state?5is?5not?5a?5dictionary?$AA@
  00041	e8 00 00 00 00	 call	 PyErr_SetString
$LN13@BaseExcept@9:

; 158  :             return NULL;

  00046	33 c0		 xor	 eax, eax

; 166  : }

  00048	48 83 c4 30	 add	 rsp, 48			; 00000030H
  0004c	5f		 pop	 rdi
  0004d	5e		 pop	 rsi
  0004e	5b		 pop	 rbx
  0004f	c3		 ret	 0
$LN12@BaseExcept@9:

; 159  :         }
; 160  :         while (PyDict_Next(state, &i, &d_key, &d_value)) {

  00050	4c 8d 4c 24 58	 lea	 r9, QWORD PTR d_value$[rsp]
  00055	4c 8d 44 24 60	 lea	 r8, QWORD PTR d_key$[rsp]
  0005a	48 8d 54 24 68	 lea	 rdx, QWORD PTR i$[rsp]
  0005f	48 8b cb	 mov	 rcx, rbx
  00062	e8 00 00 00 00	 call	 PyDict_Next
  00067	85 c0		 test	 eax, eax
  00069	74 36		 je	 SHORT $LN2@BaseExcept@9
  0006b	0f 1f 44 00 00	 npad	 5
$LL3@BaseExcept@9:

; 161  :             if (PyObject_SetAttr(self, d_key, d_value) < 0)

  00070	4c 8b 44 24 58	 mov	 r8, QWORD PTR d_value$[rsp]
  00075	48 8b 54 24 60	 mov	 rdx, QWORD PTR d_key$[rsp]
  0007a	48 8b cf	 mov	 rcx, rdi
  0007d	e8 00 00 00 00	 call	 PyObject_SetAttr
  00082	85 c0		 test	 eax, eax
  00084	78 c0		 js	 SHORT $LN13@BaseExcept@9

; 159  :         }
; 160  :         while (PyDict_Next(state, &i, &d_key, &d_value)) {

  00086	4c 8d 4c 24 58	 lea	 r9, QWORD PTR d_value$[rsp]
  0008b	4c 8d 44 24 60	 lea	 r8, QWORD PTR d_key$[rsp]
  00090	48 8d 54 24 68	 lea	 rdx, QWORD PTR i$[rsp]
  00095	48 8b cb	 mov	 rcx, rbx
  00098	e8 00 00 00 00	 call	 PyDict_Next
  0009d	85 c0		 test	 eax, eax
  0009f	75 cf		 jne	 SHORT $LL3@BaseExcept@9
$LN2@BaseExcept@9:

; 162  :                 return NULL;
; 163  :         }
; 164  :     }
; 165  :     Py_RETURN_NONE;

  000a1	e8 00 00 00 00	 call	 _Py_PXCTX
  000a6	85 c0		 test	 eax, eax
  000a8	75 38		 jne	 SHORT $LN9@BaseExcept@9
  000aa	48 8d 15 00 00
	00 00		 lea	 rdx, OFFSET FLAT:??_C@_0CD@HDJFDCDP@c?3?2src?2pyparallel?2include?2object@
  000b1	48 8d 0d 00 00
	00 00		 lea	 rcx, OFFSET FLAT:??_C@_0L@DHGMCEID@_Py_IncRef?$AA@
  000b8	4c 8b ce	 mov	 r9, rsi
  000bb	41 b8 89 03 00
	00		 mov	 r8d, 905		; 00000389H
  000c1	c7 44 24 20 02
	00 00 00	 mov	 DWORD PTR [rsp+32], 2
  000c9	e8 00 00 00 00	 call	 _PyParallel_Guard
  000ce	85 c0		 test	 eax, eax
  000d0	75 09		 jne	 SHORT $LN8@BaseExcept@9
  000d2	f6 05 20 00 00
	00 20		 test	 BYTE PTR _Py_NoneStruct+32, 32 ; 00000020H
  000d9	74 07		 je	 SHORT $LN9@BaseExcept@9
$LN8@BaseExcept@9:
  000db	48 ff 05 50 00
	00 00		 inc	 QWORD PTR _Py_NoneStruct+80
$LN9@BaseExcept@9:
  000e2	48 8b c6	 mov	 rax, rsi

; 166  : }

  000e5	48 83 c4 30	 add	 rsp, 48			; 00000030H
  000e9	5f		 pop	 rdi
  000ea	5e		 pop	 rsi
  000eb	5b		 pop	 rbx
  000ec	c3		 ret	 0
BaseException_setstate ENDP
_TEXT	ENDS
;	COMDAT pdata
; File c:\src\pyparallel\include\object.h
pdata	SEGMENT
$pdata$BaseException_get_args DD imagerel BaseException_get_args
	DD	imagerel BaseException_get_args+178
	DD	imagerel $unwind$BaseException_get_args
pdata	ENDS
;	COMDAT xdata
xdata	SEGMENT
$unwind$BaseException_get_args DD 040a01H
	DD	08340aH
	DD	07006520aH
; Function compile flags: /Ogtpy
; File c:\src\pyparallel\objects\exceptions.c
xdata	ENDS
;	COMDAT BaseException_get_args
_TEXT	SEGMENT
self$ = 64
BaseException_get_args PROC				; COMDAT

; 192  : {

  00000	48 89 5c 24 08	 mov	 QWORD PTR [rsp+8], rbx
  00005	57		 push	 rdi
  00006	48 83 ec 30	 sub	 rsp, 48			; 00000030H

; 193  :     if (self->args == NULL) {

  0000a	48 8b 59 68	 mov	 rbx, QWORD PTR [rcx+104]
  0000e	48 8b f9	 mov	 rdi, rcx

; 194  :         Py_INCREF(Py_None);

  00011	e8 00 00 00 00	 call	 _Py_PXCTX
  00016	48 85 db	 test	 rbx, rbx
  00019	75 52		 jne	 SHORT $LN1@BaseExcept@10
  0001b	85 c0		 test	 eax, eax
  0001d	75 3c		 jne	 SHORT $LN5@BaseExcept@10
  0001f	4c 8d 0d 00 00
	00 00		 lea	 r9, OFFSET FLAT:_Py_NoneStruct
  00026	48 8d 15 00 00
	00 00		 lea	 rdx, OFFSET FLAT:??_C@_0CD@HDJFDCDP@c?3?2src?2pyparallel?2include?2object@
  0002d	48 8d 0d 00 00
	00 00		 lea	 rcx, OFFSET FLAT:??_C@_0L@DHGMCEID@_Py_IncRef?$AA@
  00034	41 b8 89 03 00
	00		 mov	 r8d, 905		; 00000389H
  0003a	c7 44 24 20 02
	00 00 00	 mov	 DWORD PTR [rsp+32], 2
  00042	e8 00 00 00 00	 call	 _PyParallel_Guard
  00047	85 c0		 test	 eax, eax
  00049	75 09		 jne	 SHORT $LN4@BaseExcept@10
  0004b	f6 05 20 00 00
	00 20		 test	 BYTE PTR _Py_NoneStruct+32, 32 ; 00000020H
  00052	74 07		 je	 SHORT $LN5@BaseExcept@10
$LN4@BaseExcept@10:
  00054	48 ff 05 50 00
	00 00		 inc	 QWORD PTR _Py_NoneStruct+80
$LN5@BaseExcept@10:

; 195  :         return Py_None;

  0005b	48 8d 05 00 00
	00 00		 lea	 rax, OFFSET FLAT:_Py_NoneStruct

; 199  : }

  00062	48 8b 5c 24 40	 mov	 rbx, QWORD PTR [rsp+64]
  00067	48 83 c4 30	 add	 rsp, 48			; 00000030H
  0006b	5f		 pop	 rdi
  0006c	c3		 ret	 0
$LN1@BaseExcept@10:

; 196  :     }
; 197  :     Py_INCREF(self->args);

  0006d	85 c0		 test	 eax, eax
  0006f	75 32		 jne	 SHORT $LN9@BaseExcept@10
  00071	48 8d 15 00 00
	00 00		 lea	 rdx, OFFSET FLAT:??_C@_0CD@HDJFDCDP@c?3?2src?2pyparallel?2include?2object@
  00078	48 8d 0d 00 00
	00 00		 lea	 rcx, OFFSET FLAT:??_C@_0L@DHGMCEID@_Py_IncRef?$AA@
  0007f	4c 8b cb	 mov	 r9, rbx
  00082	41 b8 89 03 00
	00		 mov	 r8d, 905		; 00000389H
  00088	c7 44 24 20 02
	00 00 00	 mov	 DWORD PTR [rsp+32], 2
  00090	e8 00 00 00 00	 call	 _PyParallel_Guard
  00095	85 c0		 test	 eax, eax
  00097	75 06		 jne	 SHORT $LN8@BaseExcept@10
  00099	f6 43 20 20	 test	 BYTE PTR [rbx+32], 32	; 00000020H
  0009d	74 04		 je	 SHORT $LN9@BaseExcept@10
$LN8@BaseExcept@10:
  0009f	48 ff 43 50	 inc	 QWORD PTR [rbx+80]
$LN9@BaseExcept@10:

; 198  :     return self->args;

  000a3	48 8b 47 68	 mov	 rax, QWORD PTR [rdi+104]

; 199  : }

  000a7	48 8b 5c 24 40	 mov	 rbx, QWORD PTR [rsp+64]
  000ac	48 83 c4 30	 add	 rsp, 48			; 00000030H
  000b0	5f		 pop	 rdi
  000b1	c3		 ret	 0
BaseException_get_args ENDP
_TEXT	ENDS
PUBLIC	??_C@_0BH@FNMNGACG@BaseException_set_args?$AA@	; `string'
PUBLIC	??_C@_0BI@GEBKNFED@args?5may?5not?5be?5deleted?$AA@ ; `string'
EXTRN	PySequence_Tuple:PROC
;	COMDAT pdata
pdata	SEGMENT
$pdata$BaseException_set_args DD imagerel BaseException_set_args
	DD	imagerel BaseException_set_args+45
	DD	imagerel $unwind$BaseException_set_args
pdata	ENDS
;	COMDAT pdata
pdata	SEGMENT
$pdata$0$BaseException_set_args DD imagerel BaseException_set_args+45
	DD	imagerel BaseException_set_args+77
	DD	imagerel $chain$0$BaseException_set_args
pdata	ENDS
;	COMDAT pdata
pdata	SEGMENT
$pdata$2$BaseException_set_args DD imagerel BaseException_set_args+77
	DD	imagerel BaseException_set_args+157
	DD	imagerel $chain$2$BaseException_set_args
pdata	ENDS
;	COMDAT xdata
xdata	SEGMENT
$chain$2$BaseException_set_args DD 020021H
	DD	087400H
	DD	imagerel BaseException_set_args
	DD	imagerel BaseException_set_args+45
	DD	imagerel $unwind$BaseException_set_args
xdata	ENDS
;	COMDAT xdata
xdata	SEGMENT
$chain$0$BaseException_set_args DD 020521H
	DD	087405H
	DD	imagerel BaseException_set_args
	DD	imagerel BaseException_set_args+45
	DD	imagerel $unwind$BaseException_set_args
xdata	ENDS
;	COMDAT xdata
xdata	SEGMENT
$unwind$BaseException_set_args DD 020601H
	DD	030025206H
xdata	ENDS
;	COMDAT ??_C@_0BH@FNMNGACG@BaseException_set_args?$AA@
CONST	SEGMENT
??_C@_0BH@FNMNGACG@BaseException_set_args?$AA@ DB 'BaseException_set_args'
	DB	00H						; `string'
CONST	ENDS
;	COMDAT ??_C@_0BI@GEBKNFED@args?5may?5not?5be?5deleted?$AA@
CONST	SEGMENT
??_C@_0BI@GEBKNFED@args?5may?5not?5be?5deleted?$AA@ DB 'args may not be d'
	DB	'eleted', 00H				; `string'
; Function compile flags: /Ogtpy
CONST	ENDS
;	COMDAT BaseException_set_args
_TEXT	SEGMENT
self$ = 64
val$ = 72
BaseException_set_args PROC				; COMDAT

; 203  : {

  00000	40 53		 push	 rbx
  00002	48 83 ec 30	 sub	 rsp, 48			; 00000030H
  00006	48 8b d9	 mov	 rbx, rcx

; 204  :     PyObject *seq;
; 205  :     if (val == NULL) {

  00009	48 85 d2	 test	 rdx, rdx
  0000c	75 1c		 jne	 SHORT $LN6@BaseExcept@11

; 206  :         PyErr_SetString(PyExc_TypeError, "args may not be deleted");

  0000e	48 8b 0d 00 00
	00 00		 mov	 rcx, QWORD PTR PyExc_TypeError
  00015	48 8d 15 00 00
	00 00		 lea	 rdx, OFFSET FLAT:??_C@_0BI@GEBKNFED@args?5may?5not?5be?5deleted?$AA@
  0001c	e8 00 00 00 00	 call	 PyErr_SetString

; 207  :         return -1;

  00021	83 c8 ff	 or	 eax, -1

; 215  : }

  00024	48 83 c4 30	 add	 rsp, 48			; 00000030H
  00028	5b		 pop	 rbx
  00029	c3		 ret	 0
$LN6@BaseExcept@11:

; 208  :     }
; 209  :     seq = PySequence_Tuple(val);

  0002a	48 8b ca	 mov	 rcx, rdx
  0002d	48 89 7c 24 40	 mov	 QWORD PTR [rsp+64], rdi
  00032	e8 00 00 00 00	 call	 PySequence_Tuple
  00037	48 8b f8	 mov	 rdi, rax

; 210  :     if (!seq)

  0003a	48 85 c0	 test	 rax, rax
  0003d	75 0e		 jne	 SHORT $LN4@BaseExcept@11

; 211  :         return -1;

  0003f	83 c8 ff	 or	 eax, -1
  00042	48 8b 7c 24 40	 mov	 rdi, QWORD PTR [rsp+64]

; 215  : }

  00047	48 83 c4 30	 add	 rsp, 48			; 00000030H
  0004b	5b		 pop	 rbx
  0004c	c3		 ret	 0
$LN4@BaseExcept@11:

; 212  :     Py_CLEAR(self->args);

  0004d	4c 8b 4b 68	 mov	 r9, QWORD PTR [rbx+104]
  00051	4d 85 c9	 test	 r9, r9
  00054	74 36		 je	 SHORT $LN3@BaseExcept@11
  00056	48 8d 15 00 00
	00 00		 lea	 rdx, OFFSET FLAT:??_C@_0BI@DKIONFF@?4?4?2Objects?2exceptions?4c?$AA@
  0005d	48 8d 0d 00 00
	00 00		 lea	 rcx, OFFSET FLAT:??_C@_0BH@FNMNGACG@BaseException_set_args?$AA@
  00064	41 b8 d4 00 00
	00		 mov	 r8d, 212		; 000000d4H
  0006a	c7 44 24 20 10
	00 00 00	 mov	 DWORD PTR [rsp+32], 16
  00072	e8 00 00 00 00	 call	 _PyParallel_Guard
  00077	85 c0		 test	 eax, eax
  00079	75 11		 jne	 SHORT $LN3@BaseExcept@11
  0007b	48 8b 4b 68	 mov	 rcx, QWORD PTR [rbx+104]
  0007f	48 c7 43 68 00
	00 00 00	 mov	 QWORD PTR [rbx+104], 0
  00087	e8 00 00 00 00	 call	 _Py_DecRef
$LN3@BaseExcept@11:

; 213  :     self->args = seq;

  0008c	48 89 7b 68	 mov	 QWORD PTR [rbx+104], rdi
  00090	48 8b 7c 24 40	 mov	 rdi, QWORD PTR [rsp+64]

; 214  :     return 0;

  00095	33 c0		 xor	 eax, eax

; 215  : }

  00097	48 83 c4 30	 add	 rsp, 48			; 00000030H
  0009b	5b		 pop	 rbx
  0009c	c3		 ret	 0
BaseException_set_args ENDP
_TEXT	ENDS
;	COMDAT pdata
; File c:\src\pyparallel\include\object.h
pdata	SEGMENT
$pdata$BaseException_get_tb DD imagerel BaseException_get_tb
	DD	imagerel BaseException_get_tb+178
	DD	imagerel $unwind$BaseException_get_tb
pdata	ENDS
;	COMDAT xdata
xdata	SEGMENT
$unwind$BaseException_get_tb DD 040a01H
	DD	08340aH
	DD	07006520aH
; Function compile flags: /Ogtpy
; File c:\src\pyparallel\objects\exceptions.c
xdata	ENDS
;	COMDAT BaseException_get_tb
_TEXT	SEGMENT
self$ = 64
BaseException_get_tb PROC				; COMDAT

; 219  : {

  00000	48 89 5c 24 08	 mov	 QWORD PTR [rsp+8], rbx
  00005	57		 push	 rdi
  00006	48 83 ec 30	 sub	 rsp, 48			; 00000030H

; 220  :     if (self->traceback == NULL) {

  0000a	48 8b 59 70	 mov	 rbx, QWORD PTR [rcx+112]
  0000e	48 8b f9	 mov	 rdi, rcx

; 221  :         Py_INCREF(Py_None);

  00011	e8 00 00 00 00	 call	 _Py_PXCTX
  00016	48 85 db	 test	 rbx, rbx
  00019	75 52		 jne	 SHORT $LN1@BaseExcept@12
  0001b	85 c0		 test	 eax, eax
  0001d	75 3c		 jne	 SHORT $LN5@BaseExcept@12
  0001f	4c 8d 0d 00 00
	00 00		 lea	 r9, OFFSET FLAT:_Py_NoneStruct
  00026	48 8d 15 00 00
	00 00		 lea	 rdx, OFFSET FLAT:??_C@_0CD@HDJFDCDP@c?3?2src?2pyparallel?2include?2object@
  0002d	48 8d 0d 00 00
	00 00		 lea	 rcx, OFFSET FLAT:??_C@_0L@DHGMCEID@_Py_IncRef?$AA@
  00034	41 b8 89 03 00
	00		 mov	 r8d, 905		; 00000389H
  0003a	c7 44 24 20 02
	00 00 00	 mov	 DWORD PTR [rsp+32], 2
  00042	e8 00 00 00 00	 call	 _PyParallel_Guard
  00047	85 c0		 test	 eax, eax
  00049	75 09		 jne	 SHORT $LN4@BaseExcept@12
  0004b	f6 05 20 00 00
	00 20		 test	 BYTE PTR _Py_NoneStruct+32, 32 ; 00000020H
  00052	74 07		 je	 SHORT $LN5@BaseExcept@12
$LN4@BaseExcept@12:
  00054	48 ff 05 50 00
	00 00		 inc	 QWORD PTR _Py_NoneStruct+80
$LN5@BaseExcept@12:

; 222  :         return Py_None;

  0005b	48 8d 05 00 00
	00 00		 lea	 rax, OFFSET FLAT:_Py_NoneStruct

; 226  : }

  00062	48 8b 5c 24 40	 mov	 rbx, QWORD PTR [rsp+64]
  00067	48 83 c4 30	 add	 rsp, 48			; 00000030H
  0006b	5f		 pop	 rdi
  0006c	c3		 ret	 0
$LN1@BaseExcept@12:

; 223  :     }
; 224  :     Py_INCREF(self->traceback);

  0006d	85 c0		 test	 eax, eax
  0006f	75 32		 jne	 SHORT $LN9@BaseExcept@12
  00071	48 8d 15 00 00
	00 00		 lea	 rdx, OFFSET FLAT:??_C@_0CD@HDJFDCDP@c?3?2src?2pyparallel?2include?2object@
  00078	48 8d 0d 00 00
	00 00		 lea	 rcx, OFFSET FLAT:??_C@_0L@DHGMCEID@_Py_IncRef?$AA@
  0007f	4c 8b cb	 mov	 r9, rbx
  00082	41 b8 89 03 00
	00		 mov	 r8d, 905		; 00000389H
  00088	c7 44 24 20 02
	00 00 00	 mov	 DWORD PTR [rsp+32], 2
  00090	e8 00 00 00 00	 call	 _PyParallel_Guard
  00095	85 c0		 test	 eax, eax
  00097	75 06		 jne	 SHORT $LN8@BaseExcept@12
  00099	f6 43 20 20	 test	 BYTE PTR [rbx+32], 32	; 00000020H
  0009d	74 04		 je	 SHORT $LN9@BaseExcept@12
$LN8@BaseExcept@12:
  0009f	48 ff 43 50	 inc	 QWORD PTR [rbx+80]
$LN9@BaseExcept@12:

; 225  :     return self->traceback;

  000a3	48 8b 47 70	 mov	 rax, QWORD PTR [rdi+112]

; 226  : }

  000a7	48 8b 5c 24 40	 mov	 rbx, QWORD PTR [rsp+64]
  000ac	48 83 c4 30	 add	 rsp, 48			; 00000030H
  000b0	5f		 pop	 rdi
  000b1	c3		 ret	 0
BaseException_get_tb ENDP
_TEXT	ENDS
PUBLIC	??_C@_0CK@DDGILAGJ@__traceback__?5must?5be?5a?5tracebac@ ; `string'
PUBLIC	??_C@_0CB@EGAPKDAG@__traceback__?5may?5not?5be?5deleted@ ; `string'
EXTRN	PyTraceBack_Type:BYTE
;	COMDAT pdata
; File c:\src\pyparallel\include\object.h
pdata	SEGMENT
$pdata$BaseException_set_tb DD imagerel BaseException_set_tb
	DD	imagerel BaseException_set_tb+202
	DD	imagerel $unwind$BaseException_set_tb
pdata	ENDS
;	COMDAT xdata
xdata	SEGMENT
$unwind$BaseException_set_tb DD 040a01H
	DD	08340aH
	DD	07006520aH
xdata	ENDS
;	COMDAT ??_C@_0CK@DDGILAGJ@__traceback__?5must?5be?5a?5tracebac@
CONST	SEGMENT
??_C@_0CK@DDGILAGJ@__traceback__?5must?5be?5a?5tracebac@ DB '__traceback_'
	DB	'_ must be a traceback or None', 00H		; `string'
CONST	ENDS
;	COMDAT ??_C@_0CB@EGAPKDAG@__traceback__?5may?5not?5be?5deleted@
CONST	SEGMENT
??_C@_0CB@EGAPKDAG@__traceback__?5may?5not?5be?5deleted@ DB '__traceback_'
	DB	'_ may not be deleted', 00H			; `string'
; Function compile flags: /Ogtpy
; File c:\src\pyparallel\objects\exceptions.c
CONST	ENDS
;	COMDAT BaseException_set_tb
_TEXT	SEGMENT
self$ = 64
tb$ = 72
BaseException_set_tb PROC				; COMDAT

; 230  : {

  00000	48 89 5c 24 08	 mov	 QWORD PTR [rsp+8], rbx
  00005	57		 push	 rdi
  00006	48 83 ec 30	 sub	 rsp, 48			; 00000030H
  0000a	48 8b da	 mov	 rbx, rdx
  0000d	48 8b f9	 mov	 rdi, rcx

; 231  :     if (tb == NULL) {

  00010	48 85 d2	 test	 rdx, rdx
  00013	75 21		 jne	 SHORT $LN11@BaseExcept@13

; 232  :         PyErr_SetString(PyExc_TypeError, "__traceback__ may not be deleted");

  00015	48 8b 0d 00 00
	00 00		 mov	 rcx, QWORD PTR PyExc_TypeError
  0001c	48 8d 15 00 00
	00 00		 lea	 rdx, OFFSET FLAT:??_C@_0CB@EGAPKDAG@__traceback__?5may?5not?5be?5deleted@
  00023	e8 00 00 00 00	 call	 PyErr_SetString

; 233  :         return -1;

  00028	83 c8 ff	 or	 eax, -1

; 244  :     return 0;
; 245  : }

  0002b	48 8b 5c 24 40	 mov	 rbx, QWORD PTR [rsp+64]
  00030	48 83 c4 30	 add	 rsp, 48			; 00000030H
  00034	5f		 pop	 rdi
  00035	c3		 ret	 0
$LN11@BaseExcept@13:

; 234  :     }
; 235  :     else if (!(tb == Py_None || PyTraceBack_Check(tb))) {

  00036	48 8d 05 00 00
	00 00		 lea	 rax, OFFSET FLAT:_Py_NoneStruct
  0003d	48 3b d0	 cmp	 rdx, rax
  00040	74 2e		 je	 SHORT $LN8@BaseExcept@13
  00042	48 8d 05 00 00
	00 00		 lea	 rax, OFFSET FLAT:PyTraceBack_Type
  00049	48 39 42 58	 cmp	 QWORD PTR [rdx+88], rax
  0004d	74 21		 je	 SHORT $LN8@BaseExcept@13

; 236  :         PyErr_SetString(PyExc_TypeError,
; 237  :                         "__traceback__ must be a traceback or None");

  0004f	48 8b 0d 00 00
	00 00		 mov	 rcx, QWORD PTR PyExc_TypeError
  00056	48 8d 15 00 00
	00 00		 lea	 rdx, OFFSET FLAT:??_C@_0CK@DDGILAGJ@__traceback__?5must?5be?5a?5tracebac@
  0005d	e8 00 00 00 00	 call	 PyErr_SetString

; 238  :         return -1;

  00062	83 c8 ff	 or	 eax, -1

; 244  :     return 0;
; 245  : }

  00065	48 8b 5c 24 40	 mov	 rbx, QWORD PTR [rsp+64]
  0006a	48 83 c4 30	 add	 rsp, 48			; 00000030H
  0006e	5f		 pop	 rdi
  0006f	c3		 ret	 0
$LN8@BaseExcept@13:

; 239  :     }
; 240  : 
; 241  :     Py_XINCREF(tb);

  00070	e8 00 00 00 00	 call	 _Py_PXCTX
  00075	85 c0		 test	 eax, eax
  00077	75 32		 jne	 SHORT $LN7@BaseExcept@13
  00079	48 8d 15 00 00
	00 00		 lea	 rdx, OFFSET FLAT:??_C@_0CD@HDJFDCDP@c?3?2src?2pyparallel?2include?2object@
  00080	48 8d 0d 00 00
	00 00		 lea	 rcx, OFFSET FLAT:??_C@_0L@DHGMCEID@_Py_IncRef?$AA@
  00087	4c 8b cb	 mov	 r9, rbx
  0008a	41 b8 89 03 00
	00		 mov	 r8d, 905		; 00000389H
  00090	c7 44 24 20 02
	00 00 00	 mov	 DWORD PTR [rsp+32], 2
  00098	e8 00 00 00 00	 call	 _PyParallel_Guard
  0009d	85 c0		 test	 eax, eax
  0009f	75 06		 jne	 SHORT $LN14@BaseExcept@13
  000a1	f6 43 20 20	 test	 BYTE PTR [rbx+32], 32	; 00000020H
  000a5	74 04		 je	 SHORT $LN7@BaseExcept@13
$LN14@BaseExcept@13:
  000a7	48 ff 43 50	 inc	 QWORD PTR [rbx+80]
$LN7@BaseExcept@13:

; 242  :     Py_XDECREF(self->traceback);

  000ab	48 8b 4f 70	 mov	 rcx, QWORD PTR [rdi+112]
  000af	48 85 c9	 test	 rcx, rcx
  000b2	74 05		 je	 SHORT $LN3@BaseExcept@13
  000b4	e8 00 00 00 00	 call	 _Py_DecRef
$LN3@BaseExcept@13:

; 243  :     self->traceback = tb;

  000b9	48 89 5f 70	 mov	 QWORD PTR [rdi+112], rbx

; 244  :     return 0;
; 245  : }

  000bd	48 8b 5c 24 40	 mov	 rbx, QWORD PTR [rsp+64]
  000c2	33 c0		 xor	 eax, eax
  000c4	48 83 c4 30	 add	 rsp, 48			; 00000030H
  000c8	5f		 pop	 rdi
  000c9	c3		 ret	 0
BaseException_set_tb ENDP
_TEXT	ENDS
PUBLIC	PyException_GetTraceback
;	COMDAT pdata
; File c:\src\pyparallel\include\object.h
pdata	SEGMENT
$pdata$PyException_GetTraceback DD imagerel $LN14
	DD	imagerel $LN14+110
	DD	imagerel $unwind$PyException_GetTraceback
pdata	ENDS
;	COMDAT xdata
xdata	SEGMENT
$unwind$PyException_GetTraceback DD 040a01H
	DD	08340aH
	DD	07006520aH
; Function compile flags: /Ogtpy
; File c:\src\pyparallel\objects\exceptions.c
xdata	ENDS
;	COMDAT PyException_GetTraceback
_TEXT	SEGMENT
self$ = 64
PyException_GetTraceback PROC				; COMDAT

; 315  : PyException_GetTraceback(PyObject *self) {

$LN14:
  00000	48 89 5c 24 08	 mov	 QWORD PTR [rsp+8], rbx
  00005	57		 push	 rdi
  00006	48 83 ec 30	 sub	 rsp, 48			; 00000030H

; 316  :     PyBaseExceptionObject *base_self = (PyBaseExceptionObject *)self;
; 317  :     Py_XINCREF(base_self->traceback);

  0000a	48 8b 79 70	 mov	 rdi, QWORD PTR [rcx+112]
  0000e	48 8b d9	 mov	 rbx, rcx
  00011	48 85 ff	 test	 rdi, rdi
  00014	74 4a		 je	 SHORT $LN13@PyExceptio
  00016	e8 00 00 00 00	 call	 _Py_PXCTX
  0001b	85 c0		 test	 eax, eax
  0001d	75 32		 jne	 SHORT $LN11@PyExceptio
  0001f	48 8d 15 00 00
	00 00		 lea	 rdx, OFFSET FLAT:??_C@_0CD@HDJFDCDP@c?3?2src?2pyparallel?2include?2object@
  00026	48 8d 0d 00 00
	00 00		 lea	 rcx, OFFSET FLAT:??_C@_0L@DHGMCEID@_Py_IncRef?$AA@
  0002d	4c 8b cf	 mov	 r9, rdi
  00030	41 b8 89 03 00
	00		 mov	 r8d, 905		; 00000389H
  00036	c7 44 24 20 02
	00 00 00	 mov	 DWORD PTR [rsp+32], 2
  0003e	e8 00 00 00 00	 call	 _PyParallel_Guard
  00043	85 c0		 test	 eax, eax
  00045	75 06		 jne	 SHORT $LN7@PyExceptio
  00047	f6 47 20 20	 test	 BYTE PTR [rdi+32], 32	; 00000020H
  0004b	74 04		 je	 SHORT $LN11@PyExceptio
$LN7@PyExceptio:
  0004d	48 ff 47 50	 inc	 QWORD PTR [rdi+80]
$LN11@PyExceptio:

; 318  :     return base_self->traceback;

  00051	48 8b 43 70	 mov	 rax, QWORD PTR [rbx+112]

; 319  : }

  00055	48 8b 5c 24 40	 mov	 rbx, QWORD PTR [rsp+64]
  0005a	48 83 c4 30	 add	 rsp, 48			; 00000030H
  0005e	5f		 pop	 rdi
  0005f	c3		 ret	 0
$LN13@PyExceptio:

; 318  :     return base_self->traceback;

  00060	48 8b c7	 mov	 rax, rdi

; 319  : }

  00063	48 8b 5c 24 40	 mov	 rbx, QWORD PTR [rsp+64]
  00068	48 83 c4 30	 add	 rsp, 48			; 00000030H
  0006c	5f		 pop	 rdi
  0006d	c3		 ret	 0
PyException_GetTraceback ENDP
_TEXT	ENDS
PUBLIC	PyException_SetTraceback
; Function compile flags: /Ogtpy
;	COMDAT PyException_SetTraceback
_TEXT	SEGMENT
self$ = 8
tb$ = 16
PyException_SetTraceback PROC				; COMDAT

; 324  :     return BaseException_set_tb((PyBaseExceptionObject *)self, tb);
; 325  : }

  00000	e9 00 00 00 00	 jmp	 BaseException_set_tb
PyException_SetTraceback ENDP
_TEXT	ENDS
PUBLIC	PyException_GetCause
;	COMDAT pdata
; File c:\src\pyparallel\include\object.h
pdata	SEGMENT
$pdata$PyException_GetCause DD imagerel $LN14
	DD	imagerel $LN14+86
	DD	imagerel $unwind$PyException_GetCause
pdata	ENDS
;	COMDAT xdata
xdata	SEGMENT
$unwind$PyException_GetCause DD 020601H
	DD	030025206H
; Function compile flags: /Ogtpy
; File c:\src\pyparallel\objects\exceptions.c
xdata	ENDS
;	COMDAT PyException_GetCause
_TEXT	SEGMENT
self$ = 64
PyException_GetCause PROC				; COMDAT

; 328  : PyException_GetCause(PyObject *self) {

$LN14:
  00000	40 53		 push	 rbx
  00002	48 83 ec 30	 sub	 rsp, 48			; 00000030H

; 329  :     PyObject *cause = ((PyBaseExceptionObject *)self)->cause;

  00006	48 8b 99 80 00
	00 00		 mov	 rbx, QWORD PTR [rcx+128]

; 330  :     Py_XINCREF(cause);

  0000d	48 85 db	 test	 rbx, rbx
  00010	74 3b		 je	 SHORT $LN13@PyExceptio@2
  00012	e8 00 00 00 00	 call	 _Py_PXCTX
  00017	85 c0		 test	 eax, eax
  00019	75 32		 jne	 SHORT $LN13@PyExceptio@2
  0001b	48 8d 15 00 00
	00 00		 lea	 rdx, OFFSET FLAT:??_C@_0CD@HDJFDCDP@c?3?2src?2pyparallel?2include?2object@
  00022	48 8d 0d 00 00
	00 00		 lea	 rcx, OFFSET FLAT:??_C@_0L@DHGMCEID@_Py_IncRef?$AA@
  00029	4c 8b cb	 mov	 r9, rbx
  0002c	41 b8 89 03 00
	00		 mov	 r8d, 905		; 00000389H
  00032	c7 44 24 20 02
	00 00 00	 mov	 DWORD PTR [rsp+32], 2
  0003a	e8 00 00 00 00	 call	 _PyParallel_Guard
  0003f	85 c0		 test	 eax, eax
  00041	75 06		 jne	 SHORT $LN7@PyExceptio@2
  00043	f6 43 20 20	 test	 BYTE PTR [rbx+32], 32	; 00000020H
  00047	74 04		 je	 SHORT $LN13@PyExceptio@2
$LN7@PyExceptio@2:
  00049	48 ff 43 50	 inc	 QWORD PTR [rbx+80]
$LN13@PyExceptio@2:

; 331  :     return cause;

  0004d	48 8b c3	 mov	 rax, rbx

; 332  : }

  00050	48 83 c4 30	 add	 rsp, 48			; 00000030H
  00054	5b		 pop	 rbx
  00055	c3		 ret	 0
PyException_GetCause ENDP
_TEXT	ENDS
PUBLIC	PyException_SetCause
;	COMDAT pdata
; File c:\src\pyparallel\include\object.h
pdata	SEGMENT
$pdata$PyException_SetCause DD imagerel $LN18
	DD	imagerel $LN18+146
	DD	imagerel $unwind$PyException_SetCause
pdata	ENDS
;	COMDAT xdata
xdata	SEGMENT
$unwind$PyException_SetCause DD 020601H
	DD	030025206H
; Function compile flags: /Ogtpy
; File c:\src\pyparallel\objects\exceptions.c
xdata	ENDS
;	COMDAT PyException_SetCause
_TEXT	SEGMENT
self$ = 64
cause$ = 72
PyException_SetCause PROC				; COMDAT

; 336  : PyException_SetCause(PyObject *self, PyObject *cause) {

$LN18:
  00000	40 53		 push	 rbx
  00002	48 83 ec 30	 sub	 rsp, 48			; 00000030H

; 337  :     PyObject *old_cause = ((PyBaseExceptionObject *)self)->cause;

  00006	48 8b 99 80 00
	00 00		 mov	 rbx, QWORD PTR [rcx+128]

; 338  :     ((PyBaseExceptionObject *)self)->cause = cause;
; 339  :     ((PyBaseExceptionObject *)self)->suppress_context = 1;

  0000d	c6 81 88 00 00
	00 01		 mov	 BYTE PTR [rcx+136], 1
  00014	48 89 91 80 00
	00 00		 mov	 QWORD PTR [rcx+128], rdx

; 340  :     Py_XDECREF(old_cause);

  0001b	48 85 db	 test	 rbx, rbx
  0001e	74 6c		 je	 SHORT $LN3@PyExceptio@3
  00020	e8 00 00 00 00	 call	 _Py_PXCTX
  00025	85 c0		 test	 eax, eax
  00027	75 63		 jne	 SHORT $LN3@PyExceptio@3
  00029	48 8b 43 20	 mov	 rax, QWORD PTR [rbx+32]
  0002d	a8 20		 test	 al, 32			; 00000020H
  0002f	75 53		 jne	 SHORT $LN11@PyExceptio@3
  00031	84 c0		 test	 al, al
  00033	78 4f		 js	 SHORT $LN11@PyExceptio@3
  00035	a8 02		 test	 al, 2
  00037	75 53		 jne	 SHORT $LN3@PyExceptio@3
  00039	48 ff 4b 50	 dec	 QWORD PTR [rbx+80]
  0003d	75 4d		 jne	 SHORT $LN3@PyExceptio@3
  0003f	48 8d 15 00 00
	00 00		 lea	 rdx, OFFSET FLAT:??_C@_0CD@HDJFDCDP@c?3?2src?2pyparallel?2include?2object@
  00046	48 8d 0d 00 00
	00 00		 lea	 rcx, OFFSET FLAT:??_C@_0L@DMHMLFIA@_Py_DecRef?$AA@
  0004d	4c 8b cb	 mov	 r9, rbx
  00050	41 b8 a4 03 00
	00		 mov	 r8d, 932		; 000003a4H
  00056	c7 44 24 20 10
	00 00 00	 mov	 DWORD PTR [rsp+32], 16
  0005e	e8 00 00 00 00	 call	 _PyParallel_Guard
  00063	48 8b cb	 mov	 rcx, rbx
  00066	85 c0		 test	 eax, eax
  00068	74 0a		 je	 SHORT $LN16@PyExceptio@3

; 341  : }

  0006a	48 83 c4 30	 add	 rsp, 48			; 00000030H
  0006e	5b		 pop	 rbx
  0006f	e9 00 00 00 00	 jmp	 _Px_Dealloc

; 340  :     Py_XDECREF(old_cause);

$LN16@PyExceptio@3:
  00074	48 8b 43 58	 mov	 rax, QWORD PTR [rbx+88]

; 341  : }

  00078	48 83 c4 30	 add	 rsp, 48			; 00000030H
  0007c	5b		 pop	 rbx
  0007d	48 ff a0 88 00
	00 00		 rex_jmp QWORD PTR [rax+136]

; 340  :     Py_XDECREF(old_cause);

$LN11@PyExceptio@3:
  00084	48 8b cb	 mov	 rcx, rbx
  00087	e8 00 00 00 00	 call	 Px_DecRef
$LN3@PyExceptio@3:

; 341  : }

  0008c	48 83 c4 30	 add	 rsp, 48			; 00000030H
  00090	5b		 pop	 rbx
  00091	c3		 ret	 0
PyException_SetCause ENDP
_TEXT	ENDS
PUBLIC	PyException_GetContext
;	COMDAT pdata
; File c:\src\pyparallel\include\object.h
pdata	SEGMENT
$pdata$PyException_GetContext DD imagerel $LN14
	DD	imagerel $LN14+83
	DD	imagerel $unwind$PyException_GetContext
pdata	ENDS
;	COMDAT xdata
xdata	SEGMENT
$unwind$PyException_GetContext DD 020601H
	DD	030025206H
; Function compile flags: /Ogtpy
; File c:\src\pyparallel\objects\exceptions.c
xdata	ENDS
;	COMDAT PyException_GetContext
_TEXT	SEGMENT
self$ = 64
PyException_GetContext PROC				; COMDAT

; 344  : PyException_GetContext(PyObject *self) {

$LN14:
  00000	40 53		 push	 rbx
  00002	48 83 ec 30	 sub	 rsp, 48			; 00000030H

; 345  :     PyObject *context = ((PyBaseExceptionObject *)self)->context;

  00006	48 8b 59 78	 mov	 rbx, QWORD PTR [rcx+120]

; 346  :     Py_XINCREF(context);

  0000a	48 85 db	 test	 rbx, rbx
  0000d	74 3b		 je	 SHORT $LN13@PyExceptio@4
  0000f	e8 00 00 00 00	 call	 _Py_PXCTX
  00014	85 c0		 test	 eax, eax
  00016	75 32		 jne	 SHORT $LN13@PyExceptio@4
  00018	48 8d 15 00 00
	00 00		 lea	 rdx, OFFSET FLAT:??_C@_0CD@HDJFDCDP@c?3?2src?2pyparallel?2include?2object@
  0001f	48 8d 0d 00 00
	00 00		 lea	 rcx, OFFSET FLAT:??_C@_0L@DHGMCEID@_Py_IncRef?$AA@
  00026	4c 8b cb	 mov	 r9, rbx
  00029	41 b8 89 03 00
	00		 mov	 r8d, 905		; 00000389H
  0002f	c7 44 24 20 02
	00 00 00	 mov	 DWORD PTR [rsp+32], 2
  00037	e8 00 00 00 00	 call	 _PyParallel_Guard
  0003c	85 c0		 test	 eax, eax
  0003e	75 06		 jne	 SHORT $LN7@PyExceptio@4
  00040	f6 43 20 20	 test	 BYTE PTR [rbx+32], 32	; 00000020H
  00044	74 04		 je	 SHORT $LN13@PyExceptio@4
$LN7@PyExceptio@4:
  00046	48 ff 43 50	 inc	 QWORD PTR [rbx+80]
$LN13@PyExceptio@4:

; 347  :     return context;

  0004a	48 8b c3	 mov	 rax, rbx

; 348  : }

  0004d	48 83 c4 30	 add	 rsp, 48			; 00000030H
  00051	5b		 pop	 rbx
  00052	c3		 ret	 0
PyException_GetContext ENDP
_TEXT	ENDS
PUBLIC	PyException_SetContext
;	COMDAT pdata
; File c:\src\pyparallel\include\object.h
pdata	SEGMENT
$pdata$PyException_SetContext DD imagerel $LN18
	DD	imagerel $LN18+133
	DD	imagerel $unwind$PyException_SetContext
pdata	ENDS
;	COMDAT xdata
xdata	SEGMENT
$unwind$PyException_SetContext DD 020601H
	DD	030025206H
; Function compile flags: /Ogtpy
; File c:\src\pyparallel\objects\exceptions.c
xdata	ENDS
;	COMDAT PyException_SetContext
_TEXT	SEGMENT
self$ = 64
context$ = 72
PyException_SetContext PROC				; COMDAT

; 352  : PyException_SetContext(PyObject *self, PyObject *context) {

$LN18:
  00000	40 53		 push	 rbx
  00002	48 83 ec 30	 sub	 rsp, 48			; 00000030H

; 353  :     PyObject *old_context = ((PyBaseExceptionObject *)self)->context;

  00006	48 8b 59 78	 mov	 rbx, QWORD PTR [rcx+120]

; 354  :     ((PyBaseExceptionObject *)self)->context = context;

  0000a	48 89 51 78	 mov	 QWORD PTR [rcx+120], rdx

; 355  :     Py_XDECREF(old_context);

  0000e	48 85 db	 test	 rbx, rbx
  00011	74 6c		 je	 SHORT $LN3@PyExceptio@5
  00013	e8 00 00 00 00	 call	 _Py_PXCTX
  00018	85 c0		 test	 eax, eax
  0001a	75 63		 jne	 SHORT $LN3@PyExceptio@5
  0001c	48 8b 43 20	 mov	 rax, QWORD PTR [rbx+32]
  00020	a8 20		 test	 al, 32			; 00000020H
  00022	75 53		 jne	 SHORT $LN11@PyExceptio@5
  00024	84 c0		 test	 al, al
  00026	78 4f		 js	 SHORT $LN11@PyExceptio@5
  00028	a8 02		 test	 al, 2
  0002a	75 53		 jne	 SHORT $LN3@PyExceptio@5
  0002c	48 ff 4b 50	 dec	 QWORD PTR [rbx+80]
  00030	75 4d		 jne	 SHORT $LN3@PyExceptio@5
  00032	48 8d 15 00 00
	00 00		 lea	 rdx, OFFSET FLAT:??_C@_0CD@HDJFDCDP@c?3?2src?2pyparallel?2include?2object@
  00039	48 8d 0d 00 00
	00 00		 lea	 rcx, OFFSET FLAT:??_C@_0L@DMHMLFIA@_Py_DecRef?$AA@
  00040	4c 8b cb	 mov	 r9, rbx
  00043	41 b8 a4 03 00
	00		 mov	 r8d, 932		; 000003a4H
  00049	c7 44 24 20 10
	00 00 00	 mov	 DWORD PTR [rsp+32], 16
  00051	e8 00 00 00 00	 call	 _PyParallel_Guard
  00056	48 8b cb	 mov	 rcx, rbx
  00059	85 c0		 test	 eax, eax
  0005b	74 0a		 je	 SHORT $LN16@PyExceptio@5

; 356  : }

  0005d	48 83 c4 30	 add	 rsp, 48			; 00000030H
  00061	5b		 pop	 rbx
  00062	e9 00 00 00 00	 jmp	 _Px_Dealloc

; 355  :     Py_XDECREF(old_context);

$LN16@PyExceptio@5:
  00067	48 8b 43 58	 mov	 rax, QWORD PTR [rbx+88]

; 356  : }

  0006b	48 83 c4 30	 add	 rsp, 48			; 00000030H
  0006f	5b		 pop	 rbx
  00070	48 ff a0 88 00
	00 00		 rex_jmp QWORD PTR [rax+136]

; 355  :     Py_XDECREF(old_context);

$LN11@PyExceptio@5:
  00077	48 8b cb	 mov	 rcx, rbx
  0007a	e8 00 00 00 00	 call	 Px_DecRef
$LN3@PyExceptio@5:

; 356  : }

  0007f	48 83 c4 30	 add	 rsp, 48			; 00000030H
  00083	5b		 pop	 rbx
  00084	c3		 ret	 0
PyException_SetContext ENDP
_TEXT	ENDS
PUBLIC	??_C@_0BD@BGOBGIME@StopIteration_init?$AA@	; `string'
;	COMDAT pdata
; File c:\src\pyparallel\include\object.h
pdata	SEGMENT
$pdata$StopIteration_init DD imagerel StopIteration_init
	DD	imagerel StopIteration_init+227
	DD	imagerel $unwind$StopIteration_init
pdata	ENDS
;	COMDAT xdata
xdata	SEGMENT
$unwind$StopIteration_init DD 060f01H
	DD	09640fH
	DD	08340fH
	DD	0700b520fH
xdata	ENDS
;	COMDAT ??_C@_0BD@BGOBGIME@StopIteration_init?$AA@
CONST	SEGMENT
??_C@_0BD@BGOBGIME@StopIteration_init?$AA@ DB 'StopIteration_init', 00H ; `string'
; Function compile flags: /Ogtpy
; File c:\src\pyparallel\objects\exceptions.c
CONST	ENDS
;	COMDAT StopIteration_init
_TEXT	SEGMENT
self$ = 64
args$ = 72
kwds$ = 80
StopIteration_init PROC					; COMDAT

; 490  : {

  00000	48 89 5c 24 08	 mov	 QWORD PTR [rsp+8], rbx
  00005	48 89 74 24 10	 mov	 QWORD PTR [rsp+16], rsi
  0000a	57		 push	 rdi
  0000b	48 83 ec 30	 sub	 rsp, 48			; 00000030H

; 491  :     Py_ssize_t size = PyTuple_GET_SIZE(args);

  0000f	48 8b 72 60	 mov	 rsi, QWORD PTR [rdx+96]
  00013	48 8b da	 mov	 rbx, rdx
  00016	48 8b f9	 mov	 rdi, rcx

; 492  :     PyObject *value;
; 493  : 
; 494  :     if (BaseException_init((PyBaseExceptionObject *)self, args, kwds) == -1)

  00019	e8 00 00 00 00	 call	 BaseException_init
  0001e	83 f8 ff	 cmp	 eax, -1
  00021	75 12		 jne	 SHORT $LN6@StopIterat

; 495  :         return -1;

  00023	0b c0		 or	 eax, eax

; 502  :     self->value = value;
; 503  :     return 0;
; 504  : }

  00025	48 8b 5c 24 40	 mov	 rbx, QWORD PTR [rsp+64]
  0002a	48 8b 74 24 48	 mov	 rsi, QWORD PTR [rsp+72]
  0002f	48 83 c4 30	 add	 rsp, 48			; 00000030H
  00033	5f		 pop	 rdi
  00034	c3		 ret	 0
$LN6@StopIterat:

; 496  :     Py_CLEAR(self->value);

  00035	4c 8b 8f 90 00
	00 00		 mov	 r9, QWORD PTR [rdi+144]
  0003c	4d 85 c9	 test	 r9, r9
  0003f	74 3c		 je	 SHORT $LN5@StopIterat
  00041	48 8d 15 00 00
	00 00		 lea	 rdx, OFFSET FLAT:??_C@_0BI@DKIONFF@?4?4?2Objects?2exceptions?4c?$AA@
  00048	48 8d 0d 00 00
	00 00		 lea	 rcx, OFFSET FLAT:??_C@_0BD@BGOBGIME@StopIteration_init?$AA@
  0004f	41 b8 f0 01 00
	00		 mov	 r8d, 496		; 000001f0H
  00055	c7 44 24 20 10
	00 00 00	 mov	 DWORD PTR [rsp+32], 16
  0005d	e8 00 00 00 00	 call	 _PyParallel_Guard
  00062	85 c0		 test	 eax, eax
  00064	75 17		 jne	 SHORT $LN5@StopIterat
  00066	48 8b 8f 90 00
	00 00		 mov	 rcx, QWORD PTR [rdi+144]
  0006d	48 c7 87 90 00
	00 00 00 00 00
	00		 mov	 QWORD PTR [rdi+144], 0
  00078	e8 00 00 00 00	 call	 _Py_DecRef
$LN5@StopIterat:

; 497  :     if (size > 0)

  0007d	48 85 f6	 test	 rsi, rsi
  00080	7e 06		 jle	 SHORT $LN2@StopIterat

; 498  :         value = PyTuple_GET_ITEM(args, 0);

  00082	48 8b 5b 70	 mov	 rbx, QWORD PTR [rbx+112]

; 499  :     else

  00086	eb 07		 jmp	 SHORT $LN1@StopIterat
$LN2@StopIterat:

; 500  :         value = Py_None;

  00088	48 8d 1d 00 00
	00 00		 lea	 rbx, OFFSET FLAT:_Py_NoneStruct
$LN1@StopIterat:

; 501  :     Py_INCREF(value);

  0008f	e8 00 00 00 00	 call	 _Py_PXCTX
  00094	85 c0		 test	 eax, eax
  00096	75 32		 jne	 SHORT $LN11@StopIterat
  00098	48 8d 15 00 00
	00 00		 lea	 rdx, OFFSET FLAT:??_C@_0CD@HDJFDCDP@c?3?2src?2pyparallel?2include?2object@
  0009f	48 8d 0d 00 00
	00 00		 lea	 rcx, OFFSET FLAT:??_C@_0L@DHGMCEID@_Py_IncRef?$AA@
  000a6	4c 8b cb	 mov	 r9, rbx
  000a9	41 b8 89 03 00
	00		 mov	 r8d, 905		; 00000389H
  000af	c7 44 24 20 02
	00 00 00	 mov	 DWORD PTR [rsp+32], 2
  000b7	e8 00 00 00 00	 call	 _PyParallel_Guard
  000bc	85 c0		 test	 eax, eax
  000be	75 06		 jne	 SHORT $LN10@StopIterat
  000c0	f6 43 20 20	 test	 BYTE PTR [rbx+32], 32	; 00000020H
  000c4	74 04		 je	 SHORT $LN11@StopIterat
$LN10@StopIterat:
  000c6	48 ff 43 50	 inc	 QWORD PTR [rbx+80]
$LN11@StopIterat:

; 502  :     self->value = value;
; 503  :     return 0;
; 504  : }

  000ca	48 8b 74 24 48	 mov	 rsi, QWORD PTR [rsp+72]
  000cf	48 89 9f 90 00
	00 00		 mov	 QWORD PTR [rdi+144], rbx
  000d6	48 8b 5c 24 40	 mov	 rbx, QWORD PTR [rsp+64]
  000db	33 c0		 xor	 eax, eax
  000dd	48 83 c4 30	 add	 rsp, 48			; 00000030H
  000e1	5f		 pop	 rdi
  000e2	c3		 ret	 0
StopIteration_init ENDP
_TEXT	ENDS
PUBLIC	??_C@_0BE@KHGFCJA@StopIteration_clear?$AA@	; `string'
;	COMDAT pdata
; File c:\src\pyparallel\include\object.h
pdata	SEGMENT
$pdata$StopIteration_clear DD imagerel StopIteration_clear
	DD	imagerel StopIteration_clear+66
	DD	imagerel $unwind$StopIteration_clear
pdata	ENDS
;	COMDAT pdata
pdata	SEGMENT
$pdata$0$StopIteration_clear DD imagerel StopIteration_clear+66
	DD	imagerel StopIteration_clear+186
	DD	imagerel $chain$0$StopIteration_clear
pdata	ENDS
;	COMDAT pdata
pdata	SEGMENT
$pdata$2$StopIteration_clear DD imagerel StopIteration_clear+186
	DD	imagerel StopIteration_clear+214
	DD	imagerel $chain$2$StopIteration_clear
pdata	ENDS
;	COMDAT pdata
pdata	SEGMENT
$pdata$4$StopIteration_clear DD imagerel StopIteration_clear+214
	DD	imagerel StopIteration_clear+227
	DD	imagerel $chain$4$StopIteration_clear
pdata	ENDS
;	COMDAT pdata
pdata	SEGMENT
$pdata$5$StopIteration_clear DD imagerel StopIteration_clear+227
	DD	imagerel StopIteration_clear+240
	DD	imagerel $chain$5$StopIteration_clear
pdata	ENDS
;	COMDAT xdata
xdata	SEGMENT
$chain$5$StopIteration_clear DD 021H
	DD	imagerel StopIteration_clear
	DD	imagerel StopIteration_clear+66
	DD	imagerel $unwind$StopIteration_clear
xdata	ENDS
;	COMDAT xdata
xdata	SEGMENT
$chain$4$StopIteration_clear DD 020021H
	DD	083400H
	DD	imagerel StopIteration_clear
	DD	imagerel StopIteration_clear+66
	DD	imagerel $unwind$StopIteration_clear
xdata	ENDS
;	COMDAT xdata
xdata	SEGMENT
$chain$2$StopIteration_clear DD 020021H
	DD	083400H
	DD	imagerel StopIteration_clear
	DD	imagerel StopIteration_clear+66
	DD	imagerel $unwind$StopIteration_clear
xdata	ENDS
;	COMDAT xdata
xdata	SEGMENT
$chain$0$StopIteration_clear DD 020521H
	DD	083405H
	DD	imagerel StopIteration_clear
	DD	imagerel StopIteration_clear+66
	DD	imagerel $unwind$StopIteration_clear
xdata	ENDS
;	COMDAT xdata
xdata	SEGMENT
$unwind$StopIteration_clear DD 020601H
	DD	070025206H
xdata	ENDS
;	COMDAT ??_C@_0BE@KHGFCJA@StopIteration_clear?$AA@
CONST	SEGMENT
??_C@_0BE@KHGFCJA@StopIteration_clear?$AA@ DB 'StopIteration_clear', 00H ; `string'
; Function compile flags: /Ogtpy
; File c:\src\pyparallel\objects\exceptions.c
CONST	ENDS
;	COMDAT StopIteration_clear
_TEXT	SEGMENT
self$ = 64
StopIteration_clear PROC				; COMDAT

; 508  : {

  00000	40 57		 push	 rdi
  00002	48 83 ec 30	 sub	 rsp, 48			; 00000030H

; 509  :     Py_CLEAR(self->value);

  00006	4c 8b 89 90 00
	00 00		 mov	 r9, QWORD PTR [rcx+144]
  0000d	48 8b f9	 mov	 rdi, rcx
  00010	4d 85 c9	 test	 r9, r9
  00013	0f 84 ca 00 00
	00		 je	 $LN3@StopIterat@2
  00019	48 8d 15 00 00
	00 00		 lea	 rdx, OFFSET FLAT:??_C@_0BI@DKIONFF@?4?4?2Objects?2exceptions?4c?$AA@
  00020	48 8d 0d 00 00
	00 00		 lea	 rcx, OFFSET FLAT:??_C@_0BE@KHGFCJA@StopIteration_clear?$AA@
  00027	41 b8 fd 01 00
	00		 mov	 r8d, 509		; 000001fdH
  0002d	c7 44 24 20 10
	00 00 00	 mov	 DWORD PTR [rsp+32], 16
  00035	e8 00 00 00 00	 call	 _PyParallel_Guard
  0003a	85 c0		 test	 eax, eax
  0003c	0f 85 a1 00 00
	00		 jne	 $LN3@StopIterat@2
  00042	48 89 5c 24 40	 mov	 QWORD PTR [rsp+64], rbx
  00047	48 8b 9f 90 00
	00 00		 mov	 rbx, QWORD PTR [rdi+144]
  0004e	48 c7 87 90 00
	00 00 00 00 00
	00		 mov	 QWORD PTR [rdi+144], 0
  00059	e8 00 00 00 00	 call	 _Py_PXCTX
  0005e	85 c0		 test	 eax, eax
  00060	75 7c		 jne	 SHORT $LN18@StopIterat@2
  00062	48 8b 43 20	 mov	 rax, QWORD PTR [rbx+32]
  00066	a8 20		 test	 al, 32			; 00000020H
  00068	75 6c		 jne	 SHORT $LN11@StopIterat@2
  0006a	84 c0		 test	 al, al
  0006c	78 68		 js	 SHORT $LN11@StopIterat@2
  0006e	a8 02		 test	 al, 2
  00070	75 6c		 jne	 SHORT $LN18@StopIterat@2
  00072	48 ff 4b 50	 dec	 QWORD PTR [rbx+80]
  00076	75 66		 jne	 SHORT $LN18@StopIterat@2
  00078	48 8d 15 00 00
	00 00		 lea	 rdx, OFFSET FLAT:??_C@_0CD@HDJFDCDP@c?3?2src?2pyparallel?2include?2object@
  0007f	48 8d 0d 00 00
	00 00		 lea	 rcx, OFFSET FLAT:??_C@_0L@DMHMLFIA@_Py_DecRef?$AA@
  00086	4c 8b cb	 mov	 r9, rbx
  00089	41 b8 a4 03 00
	00		 mov	 r8d, 932		; 000003a4H
  0008f	c7 44 24 20 10
	00 00 00	 mov	 DWORD PTR [rsp+32], 16
  00097	e8 00 00 00 00	 call	 _PyParallel_Guard
  0009c	48 8b cb	 mov	 rcx, rbx
  0009f	85 c0		 test	 eax, eax
  000a1	74 17		 je	 SHORT $LN16@StopIterat@2
  000a3	e8 00 00 00 00	 call	 _Px_Dealloc
  000a8	48 8b 5c 24 40	 mov	 rbx, QWORD PTR [rsp+64]

; 510  :     return BaseException_clear((PyBaseExceptionObject *)self);

  000ad	48 8b cf	 mov	 rcx, rdi

; 511  : }

  000b0	48 83 c4 30	 add	 rsp, 48			; 00000030H
  000b4	5f		 pop	 rdi
  000b5	e9 00 00 00 00	 jmp	 BaseException_clear

; 509  :     Py_CLEAR(self->value);

$LN16@StopIterat@2:
  000ba	48 8b 43 58	 mov	 rax, QWORD PTR [rbx+88]
  000be	ff 90 88 00 00
	00		 call	 QWORD PTR [rax+136]
  000c4	48 8b 5c 24 40	 mov	 rbx, QWORD PTR [rsp+64]

; 510  :     return BaseException_clear((PyBaseExceptionObject *)self);

  000c9	48 8b cf	 mov	 rcx, rdi

; 511  : }

  000cc	48 83 c4 30	 add	 rsp, 48			; 00000030H
  000d0	5f		 pop	 rdi
  000d1	e9 00 00 00 00	 jmp	 BaseException_clear

; 509  :     Py_CLEAR(self->value);

$LN11@StopIterat@2:
  000d6	48 8b cb	 mov	 rcx, rbx
  000d9	e8 00 00 00 00	 call	 Px_DecRef
$LN18@StopIterat@2:
  000de	48 8b 5c 24 40	 mov	 rbx, QWORD PTR [rsp+64]
$LN3@StopIterat@2:

; 510  :     return BaseException_clear((PyBaseExceptionObject *)self);

  000e3	48 8b cf	 mov	 rcx, rdi

; 511  : }

  000e6	48 83 c4 30	 add	 rsp, 48			; 00000030H
  000ea	5f		 pop	 rdi
  000eb	e9 00 00 00 00	 jmp	 BaseException_clear
StopIteration_clear ENDP
_TEXT	ENDS
PUBLIC	??_C@_0BG@LFOFOOAM@StopIteration_dealloc?$AA@	; `string'
;	COMDAT pdata
pdata	SEGMENT
$pdata$StopIteration_dealloc DD imagerel StopIteration_dealloc
	DD	imagerel StopIteration_dealloc+160
	DD	imagerel $unwind$StopIteration_dealloc
pdata	ENDS
;	COMDAT xdata
xdata	SEGMENT
$unwind$StopIteration_dealloc DD 020601H
	DD	030025206H
xdata	ENDS
;	COMDAT ??_C@_0BG@LFOFOOAM@StopIteration_dealloc?$AA@
CONST	SEGMENT
??_C@_0BG@LFOFOOAM@StopIteration_dealloc?$AA@ DB 'StopIteration_dealloc', 00H ; `string'
; Function compile flags: /Ogtpy
CONST	ENDS
;	COMDAT StopIteration_dealloc
_TEXT	SEGMENT
self$ = 64
StopIteration_dealloc PROC				; COMDAT

; 515  : {

  00000	40 53		 push	 rbx
  00002	48 83 ec 30	 sub	 rsp, 48			; 00000030H
  00006	48 8b d9	 mov	 rbx, rcx

; 516  :     _PyObject_GC_UNTRACK(self);

  00009	4c 8b c9	 mov	 r9, rcx
  0000c	48 8d 15 00 00
	00 00		 lea	 rdx, OFFSET FLAT:??_C@_0BI@DKIONFF@?4?4?2Objects?2exceptions?4c?$AA@
  00013	48 8d 0d 00 00
	00 00		 lea	 rcx, OFFSET FLAT:??_C@_0BG@LFOFOOAM@StopIteration_dealloc?$AA@
  0001a	41 b8 04 02 00
	00		 mov	 r8d, 516		; 00000204H
  00020	c7 44 24 20 10
	00 00 00	 mov	 DWORD PTR [rsp+32], 16
  00028	e8 00 00 00 00	 call	 _PyParallel_Guard
  0002d	85 c0		 test	 eax, eax
  0002f	75 54		 jne	 SHORT $LN1@StopIterat@3
  00031	48 8d 15 00 00
	00 00		 lea	 rdx, OFFSET FLAT:??_C@_0BI@DKIONFF@?4?4?2Objects?2exceptions?4c?$AA@
  00038	48 8d 0d 00 00
	00 00		 lea	 rcx, OFFSET FLAT:??_C@_0BG@LFOFOOAM@StopIteration_dealloc?$AA@
  0003f	4c 8b cb	 mov	 r9, rbx
  00042	41 b8 04 02 00
	00		 mov	 r8d, 516		; 00000204H
  00048	c7 44 24 20 10
	00 00 00	 mov	 DWORD PTR [rsp+32], 16
  00050	e8 00 00 00 00	 call	 _PyParallel_Guard
  00055	85 c0		 test	 eax, eax
  00057	74 04		 je	 SHORT $LN7@StopIterat@3
  00059	33 d2		 xor	 edx, edx
  0005b	eb 04		 jmp	 SHORT $LN8@StopIterat@3
$LN7@StopIterat@3:
  0005d	48 8d 53 e8	 lea	 rdx, QWORD PTR [rbx-24]
$LN8@StopIterat@3:
  00061	48 8b 02	 mov	 rax, QWORD PTR [rdx]
  00064	48 8b 4a 08	 mov	 rcx, QWORD PTR [rdx+8]
  00068	48 c7 42 10 fe
	ff ff ff	 mov	 QWORD PTR [rdx+16], -2
  00070	48 89 01	 mov	 QWORD PTR [rcx], rax
  00073	48 8b 0a	 mov	 rcx, QWORD PTR [rdx]
  00076	48 8b 42 08	 mov	 rax, QWORD PTR [rdx+8]
  0007a	48 89 41 08	 mov	 QWORD PTR [rcx+8], rax
  0007e	48 c7 02 00 00
	00 00		 mov	 QWORD PTR [rdx], 0
$LN1@StopIterat@3:

; 517  :     StopIteration_clear(self);

  00085	48 8b cb	 mov	 rcx, rbx
  00088	e8 00 00 00 00	 call	 StopIteration_clear

; 518  :     Py_TYPE(self)->tp_free((PyObject *)self);

  0008d	4c 8b 5b 58	 mov	 r11, QWORD PTR [rbx+88]
  00091	48 8b cb	 mov	 rcx, rbx

; 519  : }

  00094	48 83 c4 30	 add	 rsp, 48			; 00000030H
  00098	5b		 pop	 rbx
  00099	49 ff a3 98 01
	00 00		 rex_jmp QWORD PTR [r11+408]
StopIteration_dealloc ENDP
_TEXT	ENDS
PUBLIC	??_C@_0BH@NKDPCDNK@StopIteration_traverse?$AA@	; `string'
;	COMDAT pdata
pdata	SEGMENT
$pdata$StopIteration_traverse DD imagerel StopIteration_traverse
	DD	imagerel StopIteration_traverse+112
	DD	imagerel $unwind$StopIteration_traverse
pdata	ENDS
;	COMDAT xdata
xdata	SEGMENT
$unwind$StopIteration_traverse DD 060f01H
	DD	07640fH
	DD	06340fH
	DD	0700b320fH
xdata	ENDS
;	COMDAT ??_C@_0BH@NKDPCDNK@StopIteration_traverse?$AA@
CONST	SEGMENT
??_C@_0BH@NKDPCDNK@StopIteration_traverse?$AA@ DB 'StopIteration_traverse'
	DB	00H						; `string'
; Function compile flags: /Ogtpy
CONST	ENDS
;	COMDAT StopIteration_traverse
_TEXT	SEGMENT
self$ = 48
visit$ = 56
arg$ = 64
StopIteration_traverse PROC				; COMDAT

; 523  : {

  00000	48 89 5c 24 08	 mov	 QWORD PTR [rsp+8], rbx
  00005	48 89 74 24 10	 mov	 QWORD PTR [rsp+16], rsi
  0000a	57		 push	 rdi
  0000b	48 83 ec 20	 sub	 rsp, 32			; 00000020H
  0000f	49 8b f8	 mov	 rdi, r8
  00012	48 8b f2	 mov	 rsi, rdx
  00015	48 8b d9	 mov	 rbx, rcx

; 524  :     Py_VISIT(self->value);

  00018	e8 00 00 00 00	 call	 _Py_PXCTX
  0001d	85 c0		 test	 eax, eax
  0001f	74 1c		 je	 SHORT $LN3@StopIterat@4
  00021	48 8d 15 00 00
	00 00		 lea	 rdx, OFFSET FLAT:??_C@_0BI@DKIONFF@?4?4?2Objects?2exceptions?4c?$AA@
  00028	48 8d 0d 00 00
	00 00		 lea	 rcx, OFFSET FLAT:??_C@_0BH@NKDPCDNK@StopIteration_traverse?$AA@
  0002f	45 33 c9	 xor	 r9d, r9d
  00032	41 b8 0c 02 00
	00		 mov	 r8d, 524		; 0000020cH
  00038	e8 00 00 00 00	 call	 _PyParallel_ContextGuardFailure
$LN3@StopIterat@4:
  0003d	48 8b 8b 90 00
	00 00		 mov	 rcx, QWORD PTR [rbx+144]
  00044	48 85 c9	 test	 rcx, rcx
  00047	74 09		 je	 SHORT $LN5@StopIterat@4
  00049	48 8b d7	 mov	 rdx, rdi
  0004c	ff d6		 call	 rsi
  0004e	85 c0		 test	 eax, eax
  00050	75 0e		 jne	 SHORT $LN7@StopIterat@4
$LN5@StopIterat@4:

; 525  :     return BaseException_traverse((PyBaseExceptionObject *)self, visit, arg);

  00052	4c 8b c7	 mov	 r8, rdi
  00055	48 8b d6	 mov	 rdx, rsi
  00058	48 8b cb	 mov	 rcx, rbx
  0005b	e8 00 00 00 00	 call	 BaseException_traverse
$LN7@StopIterat@4:

; 526  : }

  00060	48 8b 5c 24 30	 mov	 rbx, QWORD PTR [rsp+48]
  00065	48 8b 74 24 38	 mov	 rsi, QWORD PTR [rsp+56]
  0006a	48 83 c4 20	 add	 rsp, 32			; 00000020H
  0006e	5f		 pop	 rdi
  0006f	c3		 ret	 0
StopIteration_traverse ENDP
_TEXT	ENDS
PUBLIC	??_C@_0BA@BPDEMEKG@SystemExit_init?$AA@		; `string'
;	COMDAT pdata
; File c:\src\pyparallel\include\object.h
pdata	SEGMENT
$pdata$SystemExit_init DD imagerel SystemExit_init
	DD	imagerel SystemExit_init+244
	DD	imagerel $unwind$SystemExit_init
pdata	ENDS
;	COMDAT xdata
xdata	SEGMENT
$unwind$SystemExit_init DD 060f01H
	DD	09640fH
	DD	08340fH
	DD	0700b520fH
xdata	ENDS
;	COMDAT ??_C@_0BA@BPDEMEKG@SystemExit_init?$AA@
CONST	SEGMENT
??_C@_0BA@BPDEMEKG@SystemExit_init?$AA@ DB 'SystemExit_init', 00H ; `string'
; Function compile flags: /Ogtpy
; File c:\src\pyparallel\objects\exceptions.c
CONST	ENDS
;	COMDAT SystemExit_init
_TEXT	SEGMENT
self$ = 64
args$ = 72
kwds$ = 80
SystemExit_init PROC					; COMDAT

; 554  : {

  00000	48 89 5c 24 08	 mov	 QWORD PTR [rsp+8], rbx
  00005	48 89 74 24 10	 mov	 QWORD PTR [rsp+16], rsi
  0000a	57		 push	 rdi
  0000b	48 83 ec 30	 sub	 rsp, 48			; 00000030H

; 555  :     Py_ssize_t size = PyTuple_GET_SIZE(args);

  0000f	48 8b 72 60	 mov	 rsi, QWORD PTR [rdx+96]
  00013	48 8b fa	 mov	 rdi, rdx
  00016	48 8b d9	 mov	 rbx, rcx

; 556  : 
; 557  :     if (BaseException_init((PyBaseExceptionObject *)self, args, kwds) == -1)

  00019	e8 00 00 00 00	 call	 BaseException_init
  0001e	83 f8 ff	 cmp	 eax, -1
  00021	75 12		 jne	 SHORT $LN8@SystemExit

; 558  :         return -1;

  00023	0b c0		 or	 eax, eax

; 568  :     return 0;
; 569  : }

  00025	48 8b 5c 24 40	 mov	 rbx, QWORD PTR [rsp+64]
  0002a	48 8b 74 24 48	 mov	 rsi, QWORD PTR [rsp+72]
  0002f	48 83 c4 30	 add	 rsp, 48			; 00000030H
  00033	5f		 pop	 rdi
  00034	c3		 ret	 0
$LN8@SystemExit:

; 559  : 
; 560  :     if (size == 0)

  00035	48 85 f6	 test	 rsi, rsi

; 561  :         return 0;

  00038	0f 84 a4 00 00
	00		 je	 $LN12@SystemExit

; 562  :     Py_CLEAR(self->code);

  0003e	4c 8b 8b 90 00
	00 00		 mov	 r9, QWORD PTR [rbx+144]
  00045	4d 85 c9	 test	 r9, r9
  00048	74 3c		 je	 SHORT $LN5@SystemExit
  0004a	48 8d 15 00 00
	00 00		 lea	 rdx, OFFSET FLAT:??_C@_0BI@DKIONFF@?4?4?2Objects?2exceptions?4c?$AA@
  00051	48 8d 0d 00 00
	00 00		 lea	 rcx, OFFSET FLAT:??_C@_0BA@BPDEMEKG@SystemExit_init?$AA@
  00058	41 b8 32 02 00
	00		 mov	 r8d, 562		; 00000232H
  0005e	c7 44 24 20 10
	00 00 00	 mov	 DWORD PTR [rsp+32], 16
  00066	e8 00 00 00 00	 call	 _PyParallel_Guard
  0006b	85 c0		 test	 eax, eax
  0006d	75 17		 jne	 SHORT $LN5@SystemExit
  0006f	48 8b 8b 90 00
	00 00		 mov	 rcx, QWORD PTR [rbx+144]
  00076	48 c7 83 90 00
	00 00 00 00 00
	00		 mov	 QWORD PTR [rbx+144], 0
  00081	e8 00 00 00 00	 call	 _Py_DecRef
$LN5@SystemExit:

; 563  :     if (size == 1)

  00086	48 83 fe 01	 cmp	 rsi, 1
  0008a	75 0d		 jne	 SHORT $LN2@SystemExit

; 564  :         self->code = PyTuple_GET_ITEM(args, 0);

  0008c	48 8b 47 70	 mov	 rax, QWORD PTR [rdi+112]
  00090	48 89 83 90 00
	00 00		 mov	 QWORD PTR [rbx+144], rax

; 565  :     else /* size > 1 */

  00097	eb 07		 jmp	 SHORT $LN1@SystemExit
$LN2@SystemExit:

; 566  :         self->code = args;

  00099	48 89 bb 90 00
	00 00		 mov	 QWORD PTR [rbx+144], rdi
$LN1@SystemExit:

; 567  :     Py_INCREF(self->code);

  000a0	48 8b 9b 90 00
	00 00		 mov	 rbx, QWORD PTR [rbx+144]
  000a7	e8 00 00 00 00	 call	 _Py_PXCTX
  000ac	85 c0		 test	 eax, eax
  000ae	75 32		 jne	 SHORT $LN12@SystemExit
  000b0	48 8d 15 00 00
	00 00		 lea	 rdx, OFFSET FLAT:??_C@_0CD@HDJFDCDP@c?3?2src?2pyparallel?2include?2object@
  000b7	48 8d 0d 00 00
	00 00		 lea	 rcx, OFFSET FLAT:??_C@_0L@DHGMCEID@_Py_IncRef?$AA@
  000be	4c 8b cb	 mov	 r9, rbx
  000c1	41 b8 89 03 00
	00		 mov	 r8d, 905		; 00000389H
  000c7	c7 44 24 20 02
	00 00 00	 mov	 DWORD PTR [rsp+32], 2
  000cf	e8 00 00 00 00	 call	 _PyParallel_Guard
  000d4	85 c0		 test	 eax, eax
  000d6	75 06		 jne	 SHORT $LN11@SystemExit
  000d8	f6 43 20 20	 test	 BYTE PTR [rbx+32], 32	; 00000020H
  000dc	74 04		 je	 SHORT $LN12@SystemExit
$LN11@SystemExit:
  000de	48 ff 43 50	 inc	 QWORD PTR [rbx+80]
$LN12@SystemExit:

; 568  :     return 0;
; 569  : }

  000e2	48 8b 5c 24 40	 mov	 rbx, QWORD PTR [rsp+64]
  000e7	48 8b 74 24 48	 mov	 rsi, QWORD PTR [rsp+72]
  000ec	33 c0		 xor	 eax, eax
  000ee	48 83 c4 30	 add	 rsp, 48			; 00000030H
  000f2	5f		 pop	 rdi
  000f3	c3		 ret	 0
SystemExit_init ENDP
_TEXT	ENDS
PUBLIC	??_C@_0BB@KJMDIHEI@SystemExit_clear?$AA@	; `string'
;	COMDAT pdata
; File c:\src\pyparallel\include\object.h
pdata	SEGMENT
$pdata$SystemExit_clear DD imagerel SystemExit_clear
	DD	imagerel SystemExit_clear+66
	DD	imagerel $unwind$SystemExit_clear
pdata	ENDS
;	COMDAT pdata
pdata	SEGMENT
$pdata$0$SystemExit_clear DD imagerel SystemExit_clear+66
	DD	imagerel SystemExit_clear+186
	DD	imagerel $chain$0$SystemExit_clear
pdata	ENDS
;	COMDAT pdata
pdata	SEGMENT
$pdata$2$SystemExit_clear DD imagerel SystemExit_clear+186
	DD	imagerel SystemExit_clear+214
	DD	imagerel $chain$2$SystemExit_clear
pdata	ENDS
;	COMDAT pdata
pdata	SEGMENT
$pdata$4$SystemExit_clear DD imagerel SystemExit_clear+214
	DD	imagerel SystemExit_clear+227
	DD	imagerel $chain$4$SystemExit_clear
pdata	ENDS
;	COMDAT pdata
pdata	SEGMENT
$pdata$5$SystemExit_clear DD imagerel SystemExit_clear+227
	DD	imagerel SystemExit_clear+240
	DD	imagerel $chain$5$SystemExit_clear
pdata	ENDS
;	COMDAT xdata
xdata	SEGMENT
$chain$5$SystemExit_clear DD 021H
	DD	imagerel SystemExit_clear
	DD	imagerel SystemExit_clear+66
	DD	imagerel $unwind$SystemExit_clear
xdata	ENDS
;	COMDAT xdata
xdata	SEGMENT
$chain$4$SystemExit_clear DD 020021H
	DD	083400H
	DD	imagerel SystemExit_clear
	DD	imagerel SystemExit_clear+66
	DD	imagerel $unwind$SystemExit_clear
xdata	ENDS
;	COMDAT xdata
xdata	SEGMENT
$chain$2$SystemExit_clear DD 020021H
	DD	083400H
	DD	imagerel SystemExit_clear
	DD	imagerel SystemExit_clear+66
	DD	imagerel $unwind$SystemExit_clear
xdata	ENDS
;	COMDAT xdata
xdata	SEGMENT
$chain$0$SystemExit_clear DD 020521H
	DD	083405H
	DD	imagerel SystemExit_clear
	DD	imagerel SystemExit_clear+66
	DD	imagerel $unwind$SystemExit_clear
xdata	ENDS
;	COMDAT xdata
xdata	SEGMENT
$unwind$SystemExit_clear DD 020601H
	DD	070025206H
xdata	ENDS
;	COMDAT ??_C@_0BB@KJMDIHEI@SystemExit_clear?$AA@
CONST	SEGMENT
??_C@_0BB@KJMDIHEI@SystemExit_clear?$AA@ DB 'SystemExit_clear', 00H ; `string'
; Function compile flags: /Ogtpy
; File c:\src\pyparallel\objects\exceptions.c
CONST	ENDS
;	COMDAT SystemExit_clear
_TEXT	SEGMENT
self$ = 64
SystemExit_clear PROC					; COMDAT

; 573  : {

  00000	40 57		 push	 rdi
  00002	48 83 ec 30	 sub	 rsp, 48			; 00000030H

; 574  :     Py_CLEAR(self->code);

  00006	4c 8b 89 90 00
	00 00		 mov	 r9, QWORD PTR [rcx+144]
  0000d	48 8b f9	 mov	 rdi, rcx
  00010	4d 85 c9	 test	 r9, r9
  00013	0f 84 ca 00 00
	00		 je	 $LN3@SystemExit@2
  00019	48 8d 15 00 00
	00 00		 lea	 rdx, OFFSET FLAT:??_C@_0BI@DKIONFF@?4?4?2Objects?2exceptions?4c?$AA@
  00020	48 8d 0d 00 00
	00 00		 lea	 rcx, OFFSET FLAT:??_C@_0BB@KJMDIHEI@SystemExit_clear?$AA@
  00027	41 b8 3e 02 00
	00		 mov	 r8d, 574		; 0000023eH
  0002d	c7 44 24 20 10
	00 00 00	 mov	 DWORD PTR [rsp+32], 16
  00035	e8 00 00 00 00	 call	 _PyParallel_Guard
  0003a	85 c0		 test	 eax, eax
  0003c	0f 85 a1 00 00
	00		 jne	 $LN3@SystemExit@2
  00042	48 89 5c 24 40	 mov	 QWORD PTR [rsp+64], rbx
  00047	48 8b 9f 90 00
	00 00		 mov	 rbx, QWORD PTR [rdi+144]
  0004e	48 c7 87 90 00
	00 00 00 00 00
	00		 mov	 QWORD PTR [rdi+144], 0
  00059	e8 00 00 00 00	 call	 _Py_PXCTX
  0005e	85 c0		 test	 eax, eax
  00060	75 7c		 jne	 SHORT $LN18@SystemExit@2
  00062	48 8b 43 20	 mov	 rax, QWORD PTR [rbx+32]
  00066	a8 20		 test	 al, 32			; 00000020H
  00068	75 6c		 jne	 SHORT $LN11@SystemExit@2
  0006a	84 c0		 test	 al, al
  0006c	78 68		 js	 SHORT $LN11@SystemExit@2
  0006e	a8 02		 test	 al, 2
  00070	75 6c		 jne	 SHORT $LN18@SystemExit@2
  00072	48 ff 4b 50	 dec	 QWORD PTR [rbx+80]
  00076	75 66		 jne	 SHORT $LN18@SystemExit@2
  00078	48 8d 15 00 00
	00 00		 lea	 rdx, OFFSET FLAT:??_C@_0CD@HDJFDCDP@c?3?2src?2pyparallel?2include?2object@
  0007f	48 8d 0d 00 00
	00 00		 lea	 rcx, OFFSET FLAT:??_C@_0L@DMHMLFIA@_Py_DecRef?$AA@
  00086	4c 8b cb	 mov	 r9, rbx
  00089	41 b8 a4 03 00
	00		 mov	 r8d, 932		; 000003a4H
  0008f	c7 44 24 20 10
	00 00 00	 mov	 DWORD PTR [rsp+32], 16
  00097	e8 00 00 00 00	 call	 _PyParallel_Guard
  0009c	48 8b cb	 mov	 rcx, rbx
  0009f	85 c0		 test	 eax, eax
  000a1	74 17		 je	 SHORT $LN16@SystemExit@2
  000a3	e8 00 00 00 00	 call	 _Px_Dealloc
  000a8	48 8b 5c 24 40	 mov	 rbx, QWORD PTR [rsp+64]

; 575  :     return BaseException_clear((PyBaseExceptionObject *)self);

  000ad	48 8b cf	 mov	 rcx, rdi

; 576  : }

  000b0	48 83 c4 30	 add	 rsp, 48			; 00000030H
  000b4	5f		 pop	 rdi
  000b5	e9 00 00 00 00	 jmp	 BaseException_clear

; 574  :     Py_CLEAR(self->code);

$LN16@SystemExit@2:
  000ba	48 8b 43 58	 mov	 rax, QWORD PTR [rbx+88]
  000be	ff 90 88 00 00
	00		 call	 QWORD PTR [rax+136]
  000c4	48 8b 5c 24 40	 mov	 rbx, QWORD PTR [rsp+64]

; 575  :     return BaseException_clear((PyBaseExceptionObject *)self);

  000c9	48 8b cf	 mov	 rcx, rdi

; 576  : }

  000cc	48 83 c4 30	 add	 rsp, 48			; 00000030H
  000d0	5f		 pop	 rdi
  000d1	e9 00 00 00 00	 jmp	 BaseException_clear

; 574  :     Py_CLEAR(self->code);

$LN11@SystemExit@2:
  000d6	48 8b cb	 mov	 rcx, rbx
  000d9	e8 00 00 00 00	 call	 Px_DecRef
$LN18@SystemExit@2:
  000de	48 8b 5c 24 40	 mov	 rbx, QWORD PTR [rsp+64]
$LN3@SystemExit@2:

; 575  :     return BaseException_clear((PyBaseExceptionObject *)self);

  000e3	48 8b cf	 mov	 rcx, rdi

; 576  : }

  000e6	48 83 c4 30	 add	 rsp, 48			; 00000030H
  000ea	5f		 pop	 rdi
  000eb	e9 00 00 00 00	 jmp	 BaseException_clear
SystemExit_clear ENDP
_TEXT	ENDS
PUBLIC	??_C@_0BD@KLNCEPF@SystemExit_dealloc?$AA@	; `string'
;	COMDAT pdata
pdata	SEGMENT
$pdata$SystemExit_dealloc DD imagerel SystemExit_dealloc
	DD	imagerel SystemExit_dealloc+160
	DD	imagerel $unwind$SystemExit_dealloc
pdata	ENDS
;	COMDAT xdata
xdata	SEGMENT
$unwind$SystemExit_dealloc DD 020601H
	DD	030025206H
xdata	ENDS
;	COMDAT ??_C@_0BD@KLNCEPF@SystemExit_dealloc?$AA@
CONST	SEGMENT
??_C@_0BD@KLNCEPF@SystemExit_dealloc?$AA@ DB 'SystemExit_dealloc', 00H ; `string'
; Function compile flags: /Ogtpy
CONST	ENDS
;	COMDAT SystemExit_dealloc
_TEXT	SEGMENT
self$ = 64
SystemExit_dealloc PROC					; COMDAT

; 580  : {

  00000	40 53		 push	 rbx
  00002	48 83 ec 30	 sub	 rsp, 48			; 00000030H
  00006	48 8b d9	 mov	 rbx, rcx

; 581  :     _PyObject_GC_UNTRACK(self);

  00009	4c 8b c9	 mov	 r9, rcx
  0000c	48 8d 15 00 00
	00 00		 lea	 rdx, OFFSET FLAT:??_C@_0BI@DKIONFF@?4?4?2Objects?2exceptions?4c?$AA@
  00013	48 8d 0d 00 00
	00 00		 lea	 rcx, OFFSET FLAT:??_C@_0BD@KLNCEPF@SystemExit_dealloc?$AA@
  0001a	41 b8 45 02 00
	00		 mov	 r8d, 581		; 00000245H
  00020	c7 44 24 20 10
	00 00 00	 mov	 DWORD PTR [rsp+32], 16
  00028	e8 00 00 00 00	 call	 _PyParallel_Guard
  0002d	85 c0		 test	 eax, eax
  0002f	75 54		 jne	 SHORT $LN1@SystemExit@3
  00031	48 8d 15 00 00
	00 00		 lea	 rdx, OFFSET FLAT:??_C@_0BI@DKIONFF@?4?4?2Objects?2exceptions?4c?$AA@
  00038	48 8d 0d 00 00
	00 00		 lea	 rcx, OFFSET FLAT:??_C@_0BD@KLNCEPF@SystemExit_dealloc?$AA@
  0003f	4c 8b cb	 mov	 r9, rbx
  00042	41 b8 45 02 00
	00		 mov	 r8d, 581		; 00000245H
  00048	c7 44 24 20 10
	00 00 00	 mov	 DWORD PTR [rsp+32], 16
  00050	e8 00 00 00 00	 call	 _PyParallel_Guard
  00055	85 c0		 test	 eax, eax
  00057	74 04		 je	 SHORT $LN7@SystemExit@3
  00059	33 d2		 xor	 edx, edx
  0005b	eb 04		 jmp	 SHORT $LN8@SystemExit@3
$LN7@SystemExit@3:
  0005d	48 8d 53 e8	 lea	 rdx, QWORD PTR [rbx-24]
$LN8@SystemExit@3:
  00061	48 8b 02	 mov	 rax, QWORD PTR [rdx]
  00064	48 8b 4a 08	 mov	 rcx, QWORD PTR [rdx+8]
  00068	48 c7 42 10 fe
	ff ff ff	 mov	 QWORD PTR [rdx+16], -2
  00070	48 89 01	 mov	 QWORD PTR [rcx], rax
  00073	48 8b 0a	 mov	 rcx, QWORD PTR [rdx]
  00076	48 8b 42 08	 mov	 rax, QWORD PTR [rdx+8]
  0007a	48 89 41 08	 mov	 QWORD PTR [rcx+8], rax
  0007e	48 c7 02 00 00
	00 00		 mov	 QWORD PTR [rdx], 0
$LN1@SystemExit@3:

; 582  :     SystemExit_clear(self);

  00085	48 8b cb	 mov	 rcx, rbx
  00088	e8 00 00 00 00	 call	 SystemExit_clear

; 583  :     Py_TYPE(self)->tp_free((PyObject *)self);

  0008d	4c 8b 5b 58	 mov	 r11, QWORD PTR [rbx+88]
  00091	48 8b cb	 mov	 rcx, rbx

; 584  : }

  00094	48 83 c4 30	 add	 rsp, 48			; 00000030H
  00098	5b		 pop	 rbx
  00099	49 ff a3 98 01
	00 00		 rex_jmp QWORD PTR [r11+408]
SystemExit_dealloc ENDP
_TEXT	ENDS
PUBLIC	??_C@_0BE@BOOBDBKI@SystemExit_traverse?$AA@	; `string'
;	COMDAT pdata
pdata	SEGMENT
$pdata$SystemExit_traverse DD imagerel SystemExit_traverse
	DD	imagerel SystemExit_traverse+112
