; Listing generated by Microsoft (R) Optimizing Compiler Version 16.00.40219.01 

include listing.inc

INCLUDELIB MSVCRT
INCLUDELIB OLDNAMES

PUBLIC	??_C@_05LKJGIMLP@yield?$AA@			; `string'
PUBLIC	??_C@_05ENKANFLO@class?$AA@			; `string'
PUBLIC	??_C@_05MKDOIIA@False?$AA@			; `string'
PUBLIC	??_C@_04HPMIDMKH@True?$AA@			; `string'
PUBLIC	??_C@_04OHJIHAFH@None?$AA@			; `string'
PUBLIC	??_C@_02EDKKPMHH@is?$AA@			; `string'
PUBLIC	??_C@_03NJKJADM@not?$AA@			; `string'
PUBLIC	??_C@_03BOPJPIAM@and?$AA@			; `string'
PUBLIC	??_C@_02FODMLBIE@or?$AA@			; `string'
PUBLIC	??_C@_06COJIGPIB@lambda?$AA@			; `string'
PUBLIC	??_C@_06JBKEBCGB@except?$AA@			; `string'
PUBLIC	??_C@_04MKNNKNJH@with?$AA@			; `string'
PUBLIC	??_C@_07MKBLAIAL@finally?$AA@			; `string'
PUBLIC	??_C@_03JDGOGJKJ@try?$AA@			; `string'
PUBLIC	??_C@_02LMMGJAGL@in?$AA@			; `string'
PUBLIC	??_C@_03JOHEBPFF@for?$AA@			; `string'
PUBLIC	??_C@_05OODBEKIG@while?$AA@			; `string'
PUBLIC	??_C@_04FHMCPBIP@else?$AA@			; `string'
PUBLIC	??_C@_04GNFOIEOK@elif?$AA@			; `string'
PUBLIC	??_C@_02HEBPBKGD@if?$AA@			; `string'
PUBLIC	??_C@_06GMEIIFFN@assert?$AA@			; `string'
PUBLIC	??_C@_08JCIPMGCE@nonlocal?$AA@			; `string'
PUBLIC	??_C@_06FJKEMHGD@global?$AA@			; `string'
PUBLIC	??_C@_02ENLJKNMP@as?$AA@			; `string'
PUBLIC	??_C@_06EOGGDCGF@import?$AA@			; `string'
PUBLIC	??_C@_04HNEBHLOP@from?$AA@			; `string'
PUBLIC	??_C@_05KEJGFNAJ@raise?$AA@			; `string'
PUBLIC	??_C@_06LNOFJDNM@return?$AA@			; `string'
PUBLIC	??_C@_08DLICDMBN@continue?$AA@			; `string'
PUBLIC	??_C@_05ELPHFHOI@break?$AA@			; `string'
PUBLIC	??_C@_04BBDAIEHH@pass?$AA@			; `string'
PUBLIC	??_C@_03ONKLGNNH@del?$AA@			; `string'
PUBLIC	??_C@_03BHEEIFFN@def?$AA@			; `string'
PUBLIC	??_C@_05HKAKDGKI@EMPTY?$AA@			; `string'
PUBLIC	??_C@_0BH@FKNOLLAD@?$AA?5?5?$AA?$AA?$AA?$AA?$AA?$AA?$IC?$AA?$AA?$AA?$IA?$BA?$AA?$AA?$IGP?$DO?$AA?$AA?$AA@ ; `string'
PUBLIC	??_C@_09OFIBECAE@yield_arg?$AA@			; `string'
PUBLIC	??_C@_0L@JJNFKNHO@yield_expr?$AA@		; `string'
PUBLIC	??_C@_0O@PDDIADMP@encoding_decl?$AA@		; `string'
PUBLIC	??_C@_07BDDAGEPD@comp_if?$AA@			; `string'
PUBLIC	??_C@_08GOBMKDGP@comp_for?$AA@			; `string'
PUBLIC	??_C@_0BH@EAMJOJIH@?$AA?$AA?$AA?$AA?$AA?$AA?$AA?$AA?$AA?$AA?$AA?$BA?$AB?$AA?$AA?$AA?$AA?$AA?$AA?$AA?$AA?$AA?$AA@ ; `string'
PUBLIC	??_C@_09NMELIJKE@comp_iter?$AA@			; `string'
PUBLIC	??_C@_08MNCFOIFH@argument?$AA@			; `string'
PUBLIC	??_C@_0BH@HKDLPNK@?$AA?5?5?$IA?$AB?$AA?$AA?$AA?$AA?$IA?$AA?$AA?$AA?$IA?$BA?$AA?$AA?$IGP?$DO?$AA?$AA?$AA@ ; `string'
PUBLIC	??_C@_07OPJCDGGN@arglist?$AA@			; `string'
PUBLIC	??_C@_0BH@IKFGHDGH@?$AA?$AA?$AA?$AA?$AA?$AA?$AA?$AA?$AA?$AA?$AA?$AA?$AA?$AA?$AA?$AA?$AA?$AA?$AA?$AA?$AE?$AA?$AA@ ; `string'
PUBLIC	??_C@_08CMKGOEFL@classdef?$AA@			; `string'
PUBLIC	??_C@_0P@IBAIBCIC@dictorsetmaker?$AA@		; `string'
PUBLIC	??_C@_08GGIJBKAI@testlist?$AA@			; `string'
PUBLIC	??_C@_0BH@JKIEHEPC@?$AA?5?5?$IA?$AA?$AA?$AA?$AA?$AA?$IA?$AA?$AA?$AA?$AA?$AA?$AA?$AA?$IGP?$DO?$AA?$AA?$AA@ ; `string'
PUBLIC	??_C@_08NNDNJBEA@exprlist?$AA@			; `string'
PUBLIC	??_C@_0BH@EHJBKNDH@?$AA?$AA?$AA?$AC?$AA?$AA?$AA?$AA?$AA?$AA?$AA?$AA?$AA?$AA?$AA?$AA?$AA?$AA?$AA?$AA?$AA?$AA?$AA@ ; `string'
PUBLIC	??_C@_07GFDBDBKB@sliceop?$AA@			; `string'
PUBLIC	??_C@_09KAIPOAII@subscript?$AA@			; `string'
PUBLIC	??_C@_0BH@HBHOAJCC@?$AA?5?5?$AC?$AA?$AA?$AA?$AA?$AA?$IA?$AA?$AA?$AA?$IA?$BA?$AA?$AA?$IGP?$DO?$AA?$AA?$AA@ ; `string'
PUBLIC	??_C@_0O@OMMKCBCG@subscriptlist?$AA@		; `string'
PUBLIC	??_C@_0BH@CEJJCJAL@?$AA?5?$AA?$AA?$AA?$AA?$AA?$AA?$AA?$EA?$AA?$AA?$AA?$AA?$AA?$AA?$AA?$AA?$BA?$AA?$AA?$AA?$AA@ ; `string'
PUBLIC	??_C@_07LMFPONDJ@trailer?$AA@			; `string'
PUBLIC	??_C@_0O@PNKIGBHL@testlist_comp?$AA@		; `string'
PUBLIC	??_C@_04OKAKPICD@atom?$AA@			; `string'
PUBLIC	??_C@_0BH@DJJMMDBL@?$AA?5?5?$AA?$AA?$AA?$AA?$AA?$AA?$IA?$AA?$AA?$AA?$AA?$AA?$AA?$AA?$AAP?$DO?$AA?$AA?$AA@ ; `string'
PUBLIC	??_C@_05PLIADJJL@power?$AA@			; `string'
PUBLIC	??_C@_06CNBACIJO@factor?$AA@			; `string'
PUBLIC	??_C@_04LOFBOAAI@term?$AA@			; `string'
PUBLIC	??_C@_0L@NMGEEBBB@arith_expr?$AA@		; `string'
PUBLIC	??_C@_0L@IEJCONNG@shift_expr?$AA@		; `string'
PUBLIC	??_C@_08KDAPBNIB@and_expr?$AA@			; `string'
PUBLIC	??_C@_08GLMIEAMB@xor_expr?$AA@			; `string'
PUBLIC	??_C@_04IPHMALII@expr?$AA@			; `string'
PUBLIC	??_C@_0BH@OGKOJLJH@?$AA?$AA?$AA?$IA?$AA?$AA?$AA?$AA?$AA?$AA?$AA?$AA?$AA?$AA?$AA?$AA?$AA?$AA?$AA?$AA?$AA?$AA?$AA@ ; `string'
PUBLIC	??_C@_09IAILODKE@star_expr?$AA@			; `string'
PUBLIC	??_C@_0BH@GKNGKDHI@?$AA?$AA?$AA?$AA?$AA?$AA?$AA?$AA?$AA?$AA?$AA?$AA?$AC?$AA?$JA?$HP?$AA?$AA?$AA?$AA?$AA?$AA?$AA@ ; `string'
PUBLIC	??_C@_07LCFKNJG@comp_op?$AA@			; `string'
PUBLIC	??_C@_0BH@PBHFDENO@?$AA?5?5?$AA?$AA?$AA?$AA?$AA?$AA?$IA?$AA?$AA?$AA?$AA?$AA?$AA?$AA?$IGP?$DO?$AA?$AA?$AA@ ; `string'
PUBLIC	??_C@_0L@ECKICNFF@comparison?$AA@		; `string'
PUBLIC	??_C@_08HMCNGGKP@not_test?$AA@			; `string'
PUBLIC	??_C@_08IOADFCO@and_test?$AA@			; `string'
PUBLIC	??_C@_0BH@FNLFHGKP@?$AA?5?5?$AA?$AA?$AA?$AA?$AA?$AA?$IA?$AA?$AA?$AA?$AA?$BA?$AA?$AA?$IGP?$DO?$AA?$AA?$AA@ ; `string'
PUBLIC	??_C@_07IHHMCGE@or_test?$AA@			; `string'
PUBLIC	??_C@_0P@BLBLCNEL@lambdef_nocond?$AA@		; `string'
PUBLIC	??_C@_0BH@GLFKNCLK@?$AA?$AA?$AA?$AA?$AA?$AA?$AA?$AA?$AA?$AA?$AA?$AA?$AA?$IA?$AA?$AA?$AA?$AA?$AA?$AA?$AA?$AA?$AA@ ; `string'
PUBLIC	??_C@_07KODPEPCE@lambdef?$AA@			; `string'
PUBLIC	??_C@_0M@GCPGNMDP@test_nocond?$AA@		; `string'
PUBLIC	??_C@_04CEJDCDCH@test?$AA@			; `string'
PUBLIC	??_C@_0BH@NGHEMDHD@?$AE?5?5?$IA?$AA?$AA?$AA?$KA?$OA?$JDp?$AA?$AA?$IA?$BA?$AA?$AA?$IGP?$DO?$IA?$AA?$AA@ ; `string'
PUBLIC	??_C@_05PPOFKJGL@suite?$AA@			; `string'
PUBLIC	??_C@_0BH@GCJNLAIF@?$AA?$AA?$AA?$AA?$AA?$AA?$AA?$AA?$AA?$AA?$AA?$AA?$AA?$AB?$AA?$AA?$AA?$AA?$AA?$AA?$AA?$AA?$AA@ ; `string'
PUBLIC	??_C@_0O@BMGEGENN@except_clause?$AA@		; `string'
PUBLIC	??_C@_09HLILCHIL@with_item?$AA@			; `string'
PUBLIC	??_C@_0BH@LMDFEGM@?$AA?$AA?$AA?$AA?$AA?$AA?$AA?$AA?$AA?$AA?$AA?$AA?5?$AA?$AA?$AA?$AA?$AA?$AA?$AA?$AA?$AA?$AA@ ; `string'
PUBLIC	??_C@_09MEMIFAAI@with_stmt?$AA@			; `string'
PUBLIC	??_C@_0BH@DNIGKIDJ@?$AA?$AA?$AA?$AA?$AA?$AA?$AA?$AA?$AA?$AA?$AA?$AA?$AE?$AA?$AA?$AA?$AA?$AA?$AA?$AA?$AA?$AA?$AA@ ; `string'
PUBLIC	??_C@_08IPJHIJOK@try_stmt?$AA@			; `string'
PUBLIC	??_C@_0BH@EMNBAEHL@?$AA?$AA?$AA?$AA?$AA?$AA?$AA?$AA?$AA?$AA?$AA?$AA?$AB?$AA?$AA?$AA?$AA?$AA?$AA?$AA?$AA?$AA?$AA@ ; `string'
PUBLIC	??_C@_08OIBIJDBN@for_stmt?$AA@			; `string'
PUBLIC	??_C@_0BH@ONJILEFL@?$AA?$AA?$AA?$AA?$AA?$AA?$AA?$AA?$AA?$AA?$AA?$IA?$AA?$AA?$AA?$AA?$AA?$AA?$AA?$AA?$AA?$AA?$AA@ ; `string'
PUBLIC	??_C@_0L@IDPAFPNJ@while_stmt?$AA@		; `string'
PUBLIC	??_C@_0BH@IBEHDGEH@?$AA?$AA?$AA?$AA?$AA?$AA?$AA?$AA?$AA?$AA?$AA?$BA?$AA?$AA?$AA?$AA?$AA?$AA?$AA?$AA?$AA?$AA?$AA@ ; `string'
PUBLIC	??_C@_07BBLEBBKO@if_stmt?$AA@			; `string'
PUBLIC	??_C@_0BH@ODOFOGAC@?$AA?$AI?$BA?$AA?$AA?$AA?$AA?$AA?$AA?$AA?$AA?$JA?$CF?$AA?$AA?$AA?$AA?$AA?$AA?$AA?$AE?$AA?$AA@ ; `string'
PUBLIC	??_C@_0O@DDEPOMNL@compound_stmt?$AA@		; `string'
PUBLIC	??_C@_0BH@DANCEKBA@?$AA?$AA?$AA?$AA?$AA?$AA?$AA?$AA?$AA?$AA?$EA?$AA?$AA?$AA?$AA?$AA?$AA?$AA?$AA?$AA?$AA?$AA?$AA@ ; `string'
PUBLIC	??_C@_0M@BGOEGNH@assert_stmt?$AA@		; `string'
PUBLIC	??_C@_0BH@DOCBJAEO@?$AA?$AA?$AA?$AA?$AA?$AA?$AA?$AA?$AA?$AA?5?$AA?$AA?$AA?$AA?$AA?$AA?$AA?$AA?$AA?$AA?$AA?$AA@ ; `string'
PUBLIC	??_C@_0O@GCNCHPEM@nonlocal_stmt?$AA@		; `string'
PUBLIC	??_C@_0BH@DJFIHNGB@?$AA?$AA?$AA?$AA?$AA?$AA?$AA?$AA?$AA?$AA?$BA?$AA?$AA?$AA?$AA?$AA?$AA?$AA?$AA?$AA?$AA?$AA?$AA@ ; `string'
PUBLIC	??_C@_0M@CMKLDLPE@global_stmt?$AA@		; `string'
PUBLIC	??_C@_0M@NJIIFJPC@dotted_name?$AA@		; `string'
PUBLIC	??_C@_0BA@NAFLFMMC@dotted_as_names?$AA@		; `string'
PUBLIC	??_C@_0BA@ONIDPJNA@import_as_names?$AA@		; `string'
PUBLIC	??_C@_0P@PCEGBFGD@dotted_as_name?$AA@		; `string'
PUBLIC	??_C@_0P@PCHGNAAG@import_as_name?$AA@		; `string'
PUBLIC	??_C@_0BH@GMDBBPBG@?$AA?$AA?$AA?$AA?$AA?$AA?$AA?$AA?$AA?$AC?$AA?$AA?$AA?$AA?$AA?$AA?$AA?$AA?$AA?$AA?$AA?$AA?$AA@ ; `string'
PUBLIC	??_C@_0M@JABENECB@import_from?$AA@		; `string'
PUBLIC	??_C@_0BH@OLONOHNH@?$AA?$AA?$AA?$AA?$AA?$AA?$AA?$AA?$AA?$BA?$AA?$AA?$AA?$AA?$AA?$AA?$AA?$AA?$AA?$AA?$AA?$AA?$AA@ ; `string'
PUBLIC	??_C@_0M@CJJFDJPH@import_name?$AA@		; `string'
PUBLIC	??_C@_0BH@KIDCDHK@?$AA?$AA?$AA?$AA?$AA?$AA?$AA?$AA?$AA?$BC?$AA?$AA?$AA?$AA?$AA?$AA?$AA?$AA?$AA?$AA?$AA?$AA?$AA@ ; `string'
PUBLIC	??_C@_0M@IFPLOOHJ@import_stmt?$AA@		; `string'
PUBLIC	??_C@_0BH@BAFADKMN@?$AA?$AA?$AA?$AA?$AA?$AA?$AA?$AA?$AA?$AB?$AA?$AA?$AA?$AA?$AA?$AA?$AA?$AA?$AA?$AA?$AA?$AA?$AA@ ; `string'
PUBLIC	??_C@_0L@KLCJPLNG@raise_stmt?$AA@		; `string'
PUBLIC	??_C@_0BH@GMGKMADL@?$AA?$AA?$AA?$AA?$AA?$AA?$AA?$AA?$AA?$AA?$AA?$AA?$AA?$AA?$AA?$AA?$AA?$AA?$AA?$AA?$IA?$AA?$AA@ ; `string'
PUBLIC	??_C@_0L@HOAHOHEB@yield_stmt?$AA@		; `string'
PUBLIC	??_C@_0BH@MDNICLAA@?$AA?$AA?$AA?$AA?$AA?$AA?$AA?$AA?$IA?$AA?$AA?$AA?$AA?$AA?$AA?$AA?$AA?$AA?$AA?$AA?$AA?$AA?$AA@ ; `string'
PUBLIC	??_C@_0M@LBBJONNL@return_stmt?$AA@		; `string'
PUBLIC	??_C@_0BH@EHKEKAMG@?$AA?$AA?$AA?$AA?$AA?$AA?$AA?$AA?$EA?$AA?$AA?$AA?$AA?$AA?$AA?$AA?$AA?$AA?$AA?$AA?$AA?$AA?$AA@ ; `string'
PUBLIC	??_C@_0O@FACFMHIL@continue_stmt?$AA@		; `string'
PUBLIC	??_C@_0BH@FJKOFCF@?$AA?$AA?$AA?$AA?$AA?$AA?$AA?$AA?5?$AA?$AA?$AA?$AA?$AA?$AA?$AA?$AA?$AA?$AA?$AA?$AA?$AA?$AA@ ; `string'
PUBLIC	??_C@_0L@EBNDLLOJ@break_stmt?$AA@		; `string'
PUBLIC	??_C@_0BH@PNNMJEBF@?$AA?$AA?$AA?$AA?$AA?$AA?$AA?$AA?$OA?$AB?$AA?$AA?$AA?$AA?$AA?$AA?$AA?$AA?$AA?$AA?$IA?$AA?$AA@ ; `string'
PUBLIC	??_C@_09PGHEDOML@flow_stmt?$AA@			; `string'
PUBLIC	??_C@_0BH@NBKCDGEP@?$AA?$AA?$AA?$AA?$AA?$AA?$AA?$IA?$AA?$AA?$AA?$AA?$AA?$AA?$AA?$AA?$AA?$AA?$AA?$AA?$AA?$AA?$AA@ ; `string'
PUBLIC	??_C@_09PCNACIEE@pass_stmt?$AA@			; `string'
PUBLIC	??_C@_0BH@JKGAKAMG@?$AA?$AA?$AA?$AA?$AA?$AA?$AA?5?$AA?$AA?$AA?$AA?$AA?$AA?$AA?$AA?$AA?$AA?$AA?$AA?$AA?$AA?$AA@ ; `string'
PUBLIC	??_C@_08GAMPEAMA@del_stmt?$AA@			; `string'
PUBLIC	??_C@_0BH@HKIOHPBC@?$AA?$AA?$AA?$AA?$AA?$AA?$PO?$BP?$AA?$AA?$AA?$AA?$AA?$AA?$AA?$AA?$AA?$AA?$AA?$AA?$AA?$AA?$AA@ ; `string'
PUBLIC	??_C@_09KMIHFGNL@augassign?$AA@			; `string'
PUBLIC	??_C@_0BD@PJJDDCPK@testlist_star_expr?$AA@	; `string'
PUBLIC	??_C@_0BH@NAEBDPIC@?$AA?5?5?$IA?$AA?$AA?$AA?$AA?$AA?$IA?$AA?$AA?$AA?$IA?$BA?$AA?$AA?$IGP?$DO?$AA?$AA?$AA@ ; `string'
PUBLIC	??_C@_09BLMMJKJF@expr_stmt?$AA@			; `string'
PUBLIC	??_C@_0L@PLEAAANE@small_stmt?$AA@		; `string'
PUBLIC	??_C@_0BH@NGCIGCOA@?$AA?5?5?$IA?$AA?$AA?$AA?$KA?$OA?$JDp?$AA?$AA?$IA?$BA?$AA?$AA?$IGP?$DO?$IA?$AA?$AA@ ; `string'
PUBLIC	??_C@_0M@NKLMKLPN@simple_stmt?$AA@		; `string'
PUBLIC	??_C@_0BH@LIJCFPFJ@?$AA?$CI0?$IA?$AA?$AA?$AA?$KA?$OA?$JDp?$JA?$CF?$IA?$BA?$AA?$AA?$IGP?$DO?$IE?$AA?$AA@ ; `string'
PUBLIC	??_C@_04GIKOEBLH@stmt?$AA@			; `string'
PUBLIC	??_C@_06DKLGMKG@vfpdef?$AA@			; `string'
PUBLIC	??_C@_0M@ENHJEHOJ@varargslist?$AA@		; `string'
PUBLIC	??_C@_0BH@BKJHPOGD@?$AA?$AA?5?$AA?$AA?$AA?$AA?$AA?$AA?$AA?$AA?$AA?$AA?$AA?$AA?$AA?$AA?$AA?$AA?$AA?$AA?$AA?$AA@ ; `string'
PUBLIC	??_C@_06JEDEHNIP@tfpdef?$AA@			; `string'
PUBLIC	??_C@_0BH@KGIEDOBH@?$AA?$AA?5?$IA?$AB?$AA?$AA?$AA?$AA?$AA?$AA?$AA?$AA?$AA?$AA?$AA?$AA?$AA?$AA?$AA?$AA?$AA?$AA@ ; `string'
PUBLIC	??_C@_0O@FMOBJFLO@typedargslist?$AA@		; `string'
PUBLIC	??_C@_0BH@FMAEJHI@?$AA?5?$AA?$AA?$AA?$AA?$AA?$AA?$AA?$AA?$AA?$AA?$AA?$AA?$AA?$AA?$AA?$AA?$AA?$AA?$AA?$AA?$AA@ ; `string'
PUBLIC	??_C@_0L@HHPOFMCB@parameters?$AA@		; `string'
PUBLIC	??_C@_0BH@MGLLMJFH@?$AA?$AA?$BA?$AA?$AA?$AA?$AA?$AA?$AA?$AA?$AA?$AA?$AA?$AA?$AA?$AA?$AA?$AA?$AA?$AA?$AA?$AA?$AA@ ; `string'
PUBLIC	??_C@_07BHJKLACP@funcdef?$AA@			; `string'
PUBLIC	??_C@_09LIHPAOKI@decorated?$AA@			; `string'
PUBLIC	??_C@_0L@KLLBEBEH@decorators?$AA@		; `string'
PUBLIC	??_C@_0BH@DEBMPNLL@?$AA?$AI?$AA?$AA?$AA?$AA?$AA?$AA?$AA?$AA?$AA?$AA?$AA?$AA?$AA?$AA?$AA?$AA?$AA?$AA?$AA?$AA?$AA@ ; `string'
PUBLIC	??_C@_09KJHADOKJ@decorator?$AA@			; `string'
PUBLIC	??_C@_0BH@LLLAHPKO@?$AA?5?5?$AA?$AA?$AA?$AA?$AA?$AA?$IA?$AA?$AA?$AA?$IA?$BA?$AA?$AA?$IGP?$DO?$AA?$AA?$AA@ ; `string'
PUBLIC	??_C@_0L@CMMCBJJA@eval_input?$AA@		; `string'
PUBLIC	??_C@_0BH@LDFKMMKK@?$IE?$CI0?$IA?$AA?$AA?$AA?$KA?$OA?$JDp?$JA?$CF?$IA?$BA?$AA?$AA?$IGP?$DO?$IE?$AA?$AA@ ; `string'
PUBLIC	??_C@_0L@INIFFJII@file_input?$AA@		; `string'
PUBLIC	??_C@_0BH@LIMOPOMK@?$AE?$CI0?$IA?$AA?$AA?$AA?$KA?$OA?$JDp?$JA?$CF?$IA?$BA?$AA?$AA?$IGP?$DO?$IE?$AA?$AA@ ; `string'
PUBLIC	??_C@_0N@PPLJDJMD@single_input?$AA@		; `string'
PUBLIC	_PyParser_Grammar
;	COMDAT ??_C@_05LKJGIMLP@yield?$AA@
CONST	SEGMENT
??_C@_05LKJGIMLP@yield?$AA@ DB 'yield', 00H		; `string'
CONST	ENDS
;	COMDAT ??_C@_05ENKANFLO@class?$AA@
CONST	SEGMENT
??_C@_05ENKANFLO@class?$AA@ DB 'class', 00H		; `string'
CONST	ENDS
;	COMDAT ??_C@_05MKDOIIA@False?$AA@
CONST	SEGMENT
??_C@_05MKDOIIA@False?$AA@ DB 'False', 00H		; `string'
CONST	ENDS
;	COMDAT ??_C@_04HPMIDMKH@True?$AA@
CONST	SEGMENT
??_C@_04HPMIDMKH@True?$AA@ DB 'True', 00H		; `string'
CONST	ENDS
;	COMDAT ??_C@_04OHJIHAFH@None?$AA@
CONST	SEGMENT
??_C@_04OHJIHAFH@None?$AA@ DB 'None', 00H		; `string'
CONST	ENDS
;	COMDAT ??_C@_02EDKKPMHH@is?$AA@
CONST	SEGMENT
??_C@_02EDKKPMHH@is?$AA@ DB 'is', 00H			; `string'
CONST	ENDS
;	COMDAT ??_C@_03NJKJADM@not?$AA@
CONST	SEGMENT
??_C@_03NJKJADM@not?$AA@ DB 'not', 00H			; `string'
CONST	ENDS
;	COMDAT ??_C@_03BOPJPIAM@and?$AA@
CONST	SEGMENT
??_C@_03BOPJPIAM@and?$AA@ DB 'and', 00H			; `string'
CONST	ENDS
;	COMDAT ??_C@_02FODMLBIE@or?$AA@
CONST	SEGMENT
??_C@_02FODMLBIE@or?$AA@ DB 'or', 00H			; `string'
CONST	ENDS
;	COMDAT ??_C@_06COJIGPIB@lambda?$AA@
CONST	SEGMENT
??_C@_06COJIGPIB@lambda?$AA@ DB 'lambda', 00H		; `string'
CONST	ENDS
;	COMDAT ??_C@_06JBKEBCGB@except?$AA@
CONST	SEGMENT
??_C@_06JBKEBCGB@except?$AA@ DB 'except', 00H		; `string'
CONST	ENDS
;	COMDAT ??_C@_04MKNNKNJH@with?$AA@
CONST	SEGMENT
??_C@_04MKNNKNJH@with?$AA@ DB 'with', 00H		; `string'
CONST	ENDS
;	COMDAT ??_C@_07MKBLAIAL@finally?$AA@
CONST	SEGMENT
??_C@_07MKBLAIAL@finally?$AA@ DB 'finally', 00H		; `string'
CONST	ENDS
;	COMDAT ??_C@_03JDGOGJKJ@try?$AA@
CONST	SEGMENT
??_C@_03JDGOGJKJ@try?$AA@ DB 'try', 00H			; `string'
CONST	ENDS
;	COMDAT ??_C@_02LMMGJAGL@in?$AA@
CONST	SEGMENT
??_C@_02LMMGJAGL@in?$AA@ DB 'in', 00H			; `string'
CONST	ENDS
;	COMDAT ??_C@_03JOHEBPFF@for?$AA@
CONST	SEGMENT
??_C@_03JOHEBPFF@for?$AA@ DB 'for', 00H			; `string'
CONST	ENDS
;	COMDAT ??_C@_05OODBEKIG@while?$AA@
CONST	SEGMENT
??_C@_05OODBEKIG@while?$AA@ DB 'while', 00H		; `string'
CONST	ENDS
;	COMDAT ??_C@_04FHMCPBIP@else?$AA@
CONST	SEGMENT
??_C@_04FHMCPBIP@else?$AA@ DB 'else', 00H		; `string'
CONST	ENDS
;	COMDAT ??_C@_04GNFOIEOK@elif?$AA@
CONST	SEGMENT
??_C@_04GNFOIEOK@elif?$AA@ DB 'elif', 00H		; `string'
CONST	ENDS
;	COMDAT ??_C@_02HEBPBKGD@if?$AA@
CONST	SEGMENT
??_C@_02HEBPBKGD@if?$AA@ DB 'if', 00H			; `string'
CONST	ENDS
;	COMDAT ??_C@_06GMEIIFFN@assert?$AA@
CONST	SEGMENT
??_C@_06GMEIIFFN@assert?$AA@ DB 'assert', 00H		; `string'
CONST	ENDS
;	COMDAT ??_C@_08JCIPMGCE@nonlocal?$AA@
CONST	SEGMENT
??_C@_08JCIPMGCE@nonlocal?$AA@ DB 'nonlocal', 00H	; `string'
CONST	ENDS
;	COMDAT ??_C@_06FJKEMHGD@global?$AA@
CONST	SEGMENT
??_C@_06FJKEMHGD@global?$AA@ DB 'global', 00H		; `string'
CONST	ENDS
;	COMDAT ??_C@_02ENLJKNMP@as?$AA@
CONST	SEGMENT
??_C@_02ENLJKNMP@as?$AA@ DB 'as', 00H			; `string'
CONST	ENDS
;	COMDAT ??_C@_06EOGGDCGF@import?$AA@
CONST	SEGMENT
??_C@_06EOGGDCGF@import?$AA@ DB 'import', 00H		; `string'
CONST	ENDS
;	COMDAT ??_C@_04HNEBHLOP@from?$AA@
CONST	SEGMENT
??_C@_04HNEBHLOP@from?$AA@ DB 'from', 00H		; `string'
CONST	ENDS
;	COMDAT ??_C@_05KEJGFNAJ@raise?$AA@
CONST	SEGMENT
??_C@_05KEJGFNAJ@raise?$AA@ DB 'raise', 00H		; `string'
CONST	ENDS
;	COMDAT ??_C@_06LNOFJDNM@return?$AA@
CONST	SEGMENT
??_C@_06LNOFJDNM@return?$AA@ DB 'return', 00H		; `string'
CONST	ENDS
;	COMDAT ??_C@_08DLICDMBN@continue?$AA@
CONST	SEGMENT
??_C@_08DLICDMBN@continue?$AA@ DB 'continue', 00H	; `string'
CONST	ENDS
;	COMDAT ??_C@_05ELPHFHOI@break?$AA@
CONST	SEGMENT
??_C@_05ELPHFHOI@break?$AA@ DB 'break', 00H		; `string'
CONST	ENDS
;	COMDAT ??_C@_04BBDAIEHH@pass?$AA@
CONST	SEGMENT
??_C@_04BBDAIEHH@pass?$AA@ DB 'pass', 00H		; `string'
CONST	ENDS
;	COMDAT ??_C@_03ONKLGNNH@del?$AA@
CONST	SEGMENT
??_C@_03ONKLGNNH@del?$AA@ DB 'del', 00H			; `string'
CONST	ENDS
;	COMDAT ??_C@_03BHEEIFFN@def?$AA@
CONST	SEGMENT
??_C@_03BHEEIFFN@def?$AA@ DB 'def', 00H			; `string'
CONST	ENDS
;	COMDAT ??_C@_05HKAKDGKI@EMPTY?$AA@
CONST	SEGMENT
??_C@_05HKAKDGKI@EMPTY?$AA@ DB 'EMPTY', 00H		; `string'
CONST	ENDS
;	COMDAT ??_C@_0BH@FKNOLLAD@?$AA?5?5?$AA?$AA?$AA?$AA?$AA?$AA?$IC?$AA?$AA?$AA?$IA?$BA?$AA?$AA?$IGP?$DO?$AA?$AA?$AA@
CONST	SEGMENT
??_C@_0BH@FKNOLLAD@?$AA?5?5?$AA?$AA?$AA?$AA?$AA?$AA?$IC?$AA?$AA?$AA?$IA?$BA?$AA?$AA?$IGP?$DO?$AA?$AA?$AA@ DB 00H
	DB	'  ', 00H, 00H, 00H, 00H, 00H, 00H, 082H, 00H, 00H, 00H, 080H, 010H
	DB	00H, 00H, 086H, 'P>', 00H, 00H, 00H		; `string'
CONST	ENDS
;	COMDAT ??_C@_09OFIBECAE@yield_arg?$AA@
CONST	SEGMENT
??_C@_09OFIBECAE@yield_arg?$AA@ DB 'yield_arg', 00H	; `string'
CONST	ENDS
;	COMDAT ??_C@_0L@JJNFKNHO@yield_expr?$AA@
CONST	SEGMENT
??_C@_0L@JJNFKNHO@yield_expr?$AA@ DB 'yield_expr', 00H	; `string'
CONST	ENDS
;	COMDAT ??_C@_0O@PDDIADMP@encoding_decl?$AA@
CONST	SEGMENT
??_C@_0O@PDDIADMP@encoding_decl?$AA@ DB 'encoding_decl', 00H ; `string'
CONST	ENDS
;	COMDAT ??_C@_07BDDAGEPD@comp_if?$AA@
CONST	SEGMENT
??_C@_07BDDAGEPD@comp_if?$AA@ DB 'comp_if', 00H		; `string'
CONST	ENDS
;	COMDAT ??_C@_08GOBMKDGP@comp_for?$AA@
CONST	SEGMENT
??_C@_08GOBMKDGP@comp_for?$AA@ DB 'comp_for', 00H	; `string'
CONST	ENDS
;	COMDAT ??_C@_0BH@EAMJOJIH@?$AA?$AA?$AA?$AA?$AA?$AA?$AA?$AA?$AA?$AA?$AA?$BA?$AB?$AA?$AA?$AA?$AA?$AA?$AA?$AA?$AA?$AA?$AA@
CONST	SEGMENT
??_C@_0BH@EAMJOJIH@?$AA?$AA?$AA?$AA?$AA?$AA?$AA?$AA?$AA?$AA?$AA?$BA?$AB?$AA?$AA?$AA?$AA?$AA?$AA?$AA?$AA?$AA?$AA@ DB 00H
	DB	00H, 00H, 00H, 00H, 00H, 00H, 00H, 00H, 00H, 00H, 010H, 01H, 00H
	DB	00H, 00H, 00H, 00H, 00H, 00H, 00H, 00H, 00H	; `string'
CONST	ENDS
;	COMDAT ??_C@_09NMELIJKE@comp_iter?$AA@
CONST	SEGMENT
??_C@_09NMELIJKE@comp_iter?$AA@ DB 'comp_iter', 00H	; `string'
CONST	ENDS
;	COMDAT ??_C@_08MNCFOIFH@argument?$AA@
CONST	SEGMENT
??_C@_08MNCFOIFH@argument?$AA@ DB 'argument', 00H	; `string'
CONST	ENDS
;	COMDAT ??_C@_0BH@HKDLPNK@?$AA?5?5?$IA?$AB?$AA?$AA?$AA?$AA?$IA?$AA?$AA?$AA?$IA?$BA?$AA?$AA?$IGP?$DO?$AA?$AA?$AA@
CONST	SEGMENT
??_C@_0BH@HKDLPNK@?$AA?5?5?$IA?$AB?$AA?$AA?$AA?$AA?$IA?$AA?$AA?$AA?$IA?$BA?$AA?$AA?$IGP?$DO?$AA?$AA?$AA@ DB 00H
	DB	'  ', 080H, 01H, 00H, 00H, 00H, 00H, 080H, 00H, 00H, 00H, 080H
	DB	010H, 00H, 00H, 086H, 'P>', 00H, 00H, 00H	; `string'
CONST	ENDS
;	COMDAT ??_C@_07OPJCDGGN@arglist?$AA@
CONST	SEGMENT
??_C@_07OPJCDGGN@arglist?$AA@ DB 'arglist', 00H		; `string'
CONST	ENDS
;	COMDAT ??_C@_0BH@IKFGHDGH@?$AA?$AA?$AA?$AA?$AA?$AA?$AA?$AA?$AA?$AA?$AA?$AA?$AA?$AA?$AA?$AA?$AA?$AA?$AA?$AA?$AE?$AA?$AA@
CONST	SEGMENT
??_C@_0BH@IKFGHDGH@?$AA?$AA?$AA?$AA?$AA?$AA?$AA?$AA?$AA?$AA?$AA?$AA?$AA?$AA?$AA?$AA?$AA?$AA?$AA?$AA?$AE?$AA?$AA@ DB 00H
	DB	00H, 00H, 00H, 00H, 00H, 00H, 00H, 00H, 00H, 00H, 00H, 00H, 00H
	DB	00H, 00H, 00H, 00H, 00H, 00H, 04H, 00H, 00H	; `string'
CONST	ENDS
;	COMDAT ??_C@_08CMKGOEFL@classdef?$AA@
CONST	SEGMENT
??_C@_08CMKGOEFL@classdef?$AA@ DB 'classdef', 00H	; `string'
CONST	ENDS
;	COMDAT ??_C@_0P@IBAIBCIC@dictorsetmaker?$AA@
CONST	SEGMENT
??_C@_0P@IBAIBCIC@dictorsetmaker?$AA@ DB 'dictorsetmaker', 00H ; `string'
CONST	ENDS
;	COMDAT ??_C@_08GGIJBKAI@testlist?$AA@
CONST	SEGMENT
??_C@_08GGIJBKAI@testlist?$AA@ DB 'testlist', 00H	; `string'
CONST	ENDS
;	COMDAT ??_C@_0BH@JKIEHEPC@?$AA?5?5?$IA?$AA?$AA?$AA?$AA?$AA?$IA?$AA?$AA?$AA?$AA?$AA?$AA?$AA?$IGP?$DO?$AA?$AA?$AA@
CONST	SEGMENT
??_C@_0BH@JKIEHEPC@?$AA?5?5?$IA?$AA?$AA?$AA?$AA?$AA?$IA?$AA?$AA?$AA?$AA?$AA?$AA?$AA?$IGP?$DO?$AA?$AA?$AA@ DB 00H
	DB	'  ', 080H, 00H, 00H, 00H, 00H, 00H, 080H, 00H, 00H, 00H, 00H, 00H
	DB	00H, 00H, 086H, 'P>', 00H, 00H, 00H		; `string'
CONST	ENDS
;	COMDAT ??_C@_08NNDNJBEA@exprlist?$AA@
CONST	SEGMENT
??_C@_08NNDNJBEA@exprlist?$AA@ DB 'exprlist', 00H	; `string'
CONST	ENDS
;	COMDAT ??_C@_0BH@EHJBKNDH@?$AA?$AA?$AA?$AC?$AA?$AA?$AA?$AA?$AA?$AA?$AA?$AA?$AA?$AA?$AA?$AA?$AA?$AA?$AA?$AA?$AA?$AA?$AA@
CONST	SEGMENT
??_C@_0BH@EHJBKNDH@?$AA?$AA?$AA?$AC?$AA?$AA?$AA?$AA?$AA?$AA?$AA?$AA?$AA?$AA?$AA?$AA?$AA?$AA?$AA?$AA?$AA?$AA?$AA@ DB 00H
	DB	00H, 00H, 02H, 00H, 00H, 00H, 00H, 00H, 00H, 00H, 00H, 00H, 00H
	DB	00H, 00H, 00H, 00H, 00H, 00H, 00H, 00H, 00H	; `string'
CONST	ENDS
;	COMDAT ??_C@_07GFDBDBKB@sliceop?$AA@
CONST	SEGMENT
??_C@_07GFDBDBKB@sliceop?$AA@ DB 'sliceop', 00H		; `string'
CONST	ENDS
;	COMDAT ??_C@_09KAIPOAII@subscript?$AA@
CONST	SEGMENT
??_C@_09KAIPOAII@subscript?$AA@ DB 'subscript', 00H	; `string'
CONST	ENDS
;	COMDAT ??_C@_0BH@HBHOAJCC@?$AA?5?5?$AC?$AA?$AA?$AA?$AA?$AA?$IA?$AA?$AA?$AA?$IA?$BA?$AA?$AA?$IGP?$DO?$AA?$AA?$AA@
CONST	SEGMENT
??_C@_0BH@HBHOAJCC@?$AA?5?5?$AC?$AA?$AA?$AA?$AA?$AA?$IA?$AA?$AA?$AA?$IA?$BA?$AA?$AA?$IGP?$DO?$AA?$AA?$AA@ DB 00H
	DB	'  ', 02H, 00H, 00H, 00H, 00H, 00H, 080H, 00H, 00H, 00H, 080H, 010H
	DB	00H, 00H, 086H, 'P>', 00H, 00H, 00H		; `string'
CONST	ENDS
;	COMDAT ??_C@_0O@OMMKCBCG@subscriptlist?$AA@
CONST	SEGMENT
??_C@_0O@OMMKCBCG@subscriptlist?$AA@ DB 'subscriptlist', 00H ; `string'
CONST	ENDS
;	COMDAT ??_C@_0BH@CEJJCJAL@?$AA?5?$AA?$AA?$AA?$AA?$AA?$AA?$AA?$EA?$AA?$AA?$AA?$AA?$AA?$AA?$AA?$AA?$BA?$AA?$AA?$AA?$AA@
CONST	SEGMENT
??_C@_0BH@CEJJCJAL@?$AA?5?$AA?$AA?$AA?$AA?$AA?$AA?$AA?$EA?$AA?$AA?$AA?$AA?$AA?$AA?$AA?$AA?$BA?$AA?$AA?$AA?$AA@ DB 00H
	DB	' ', 00H, 00H, 00H, 00H, 00H, 00H, 00H, '@', 00H, 00H, 00H, 00H
	DB	00H, 00H, 00H, 00H, 010H, 00H, 00H, 00H, 00H	; `string'
CONST	ENDS
;	COMDAT ??_C@_07LMFPONDJ@trailer?$AA@
CONST	SEGMENT
??_C@_07LMFPONDJ@trailer?$AA@ DB 'trailer', 00H		; `string'
CONST	ENDS
;	COMDAT ??_C@_0O@PNKIGBHL@testlist_comp?$AA@
CONST	SEGMENT
??_C@_0O@PNKIGBHL@testlist_comp?$AA@ DB 'testlist_comp', 00H ; `string'
CONST	ENDS
;	COMDAT ??_C@_04OKAKPICD@atom?$AA@
CONST	SEGMENT
??_C@_04OKAKPICD@atom?$AA@ DB 'atom', 00H		; `string'
CONST	ENDS
;	COMDAT ??_C@_0BH@DJJMMDBL@?$AA?5?5?$AA?$AA?$AA?$AA?$AA?$AA?$IA?$AA?$AA?$AA?$AA?$AA?$AA?$AA?$AAP?$DO?$AA?$AA?$AA@
CONST	SEGMENT
??_C@_0BH@DJJMMDBL@?$AA?5?5?$AA?$AA?$AA?$AA?$AA?$AA?$IA?$AA?$AA?$AA?$AA?$AA?$AA?$AA?$AAP?$DO?$AA?$AA?$AA@ DB 00H
	DB	'  ', 00H, 00H, 00H, 00H, 00H, 00H, 080H, 00H, 00H, 00H, 00H, 00H
	DB	00H, 00H, 00H, 'P>', 00H, 00H, 00H		; `string'
CONST	ENDS
;	COMDAT ??_C@_05PLIADJJL@power?$AA@
CONST	SEGMENT
??_C@_05PLIADJJL@power?$AA@ DB 'power', 00H		; `string'
CONST	ENDS
;	COMDAT ??_C@_06CNBACIJO@factor?$AA@
CONST	SEGMENT
??_C@_06CNBACIJO@factor?$AA@ DB 'factor', 00H		; `string'
CONST	ENDS
;	COMDAT ??_C@_04LOFBOAAI@term?$AA@
CONST	SEGMENT
??_C@_04LOFBOAAI@term?$AA@ DB 'term', 00H		; `string'
CONST	ENDS
;	COMDAT ??_C@_0L@NMGEEBBB@arith_expr?$AA@
CONST	SEGMENT
??_C@_0L@NMGEEBBB@arith_expr?$AA@ DB 'arith_expr', 00H	; `string'
CONST	ENDS
;	COMDAT ??_C@_0L@IEJCONNG@shift_expr?$AA@
CONST	SEGMENT
??_C@_0L@IEJCONNG@shift_expr?$AA@ DB 'shift_expr', 00H	; `string'
CONST	ENDS
;	COMDAT ??_C@_08KDAPBNIB@and_expr?$AA@
CONST	SEGMENT
??_C@_08KDAPBNIB@and_expr?$AA@ DB 'and_expr', 00H	; `string'
CONST	ENDS
;	COMDAT ??_C@_08GLMIEAMB@xor_expr?$AA@
CONST	SEGMENT
??_C@_08GLMIEAMB@xor_expr?$AA@ DB 'xor_expr', 00H	; `string'
CONST	ENDS
;	COMDAT ??_C@_04IPHMALII@expr?$AA@
CONST	SEGMENT
??_C@_04IPHMALII@expr?$AA@ DB 'expr', 00H		; `string'
CONST	ENDS
;	COMDAT ??_C@_0BH@OGKOJLJH@?$AA?$AA?$AA?$IA?$AA?$AA?$AA?$AA?$AA?$AA?$AA?$AA?$AA?$AA?$AA?$AA?$AA?$AA?$AA?$AA?$AA?$AA?$AA@
CONST	SEGMENT
??_C@_0BH@OGKOJLJH@?$AA?$AA?$AA?$IA?$AA?$AA?$AA?$AA?$AA?$AA?$AA?$AA?$AA?$AA?$AA?$AA?$AA?$AA?$AA?$AA?$AA?$AA?$AA@ DB 00H
	DB	00H, 00H, 080H, 00H, 00H, 00H, 00H, 00H, 00H, 00H, 00H, 00H, 00H
	DB	00H, 00H, 00H, 00H, 00H, 00H, 00H, 00H, 00H	; `string'
CONST	ENDS
;	COMDAT ??_C@_09IAILODKE@star_expr?$AA@
CONST	SEGMENT
??_C@_09IAILODKE@star_expr?$AA@ DB 'star_expr', 00H	; `string'
CONST	ENDS
;	COMDAT ??_C@_0BH@GKNGKDHI@?$AA?$AA?$AA?$AA?$AA?$AA?$AA?$AA?$AA?$AA?$AA?$AA?$AC?$AA?$JA?$HP?$AA?$AA?$AA?$AA?$AA?$AA?$AA@
CONST	SEGMENT
??_C@_0BH@GKNGKDHI@?$AA?$AA?$AA?$AA?$AA?$AA?$AA?$AA?$AA?$AA?$AA?$AA?$AC?$AA?$JA?$HP?$AA?$AA?$AA?$AA?$AA?$AA?$AA@ DB 00H
	DB	00H, 00H, 00H, 00H, 00H, 00H, 00H, 00H, 00H, 00H, 00H, 02H, 00H
	DB	090H, 07fH, 00H, 00H, 00H, 00H, 00H, 00H, 00H ; `string'
CONST	ENDS
;	COMDAT ??_C@_07LCFKNJG@comp_op?$AA@
CONST	SEGMENT
??_C@_07LCFKNJG@comp_op?$AA@ DB 'comp_op', 00H		; `string'
CONST	ENDS
;	COMDAT ??_C@_0BH@PBHFDENO@?$AA?5?5?$AA?$AA?$AA?$AA?$AA?$AA?$IA?$AA?$AA?$AA?$AA?$AA?$AA?$AA?$IGP?$DO?$AA?$AA?$AA@
CONST	SEGMENT
??_C@_0BH@PBHFDENO@?$AA?5?5?$AA?$AA?$AA?$AA?$AA?$AA?$IA?$AA?$AA?$AA?$AA?$AA?$AA?$AA?$IGP?$DO?$AA?$AA?$AA@ DB 00H
	DB	'  ', 00H, 00H, 00H, 00H, 00H, 00H, 080H, 00H, 00H, 00H, 00H, 00H
	DB	00H, 00H, 086H, 'P>', 00H, 00H, 00H		; `string'
CONST	ENDS
;	COMDAT ??_C@_0L@ECKICNFF@comparison?$AA@
CONST	SEGMENT
??_C@_0L@ECKICNFF@comparison?$AA@ DB 'comparison', 00H	; `string'
CONST	ENDS
;	COMDAT ??_C@_08HMCNGGKP@not_test?$AA@
CONST	SEGMENT
??_C@_08HMCNGGKP@not_test?$AA@ DB 'not_test', 00H	; `string'
CONST	ENDS
;	COMDAT ??_C@_08IOADFCO@and_test?$AA@
CONST	SEGMENT
??_C@_08IOADFCO@and_test?$AA@ DB 'and_test', 00H	; `string'
CONST	ENDS
;	COMDAT ??_C@_0BH@FNLFHGKP@?$AA?5?5?$AA?$AA?$AA?$AA?$AA?$AA?$IA?$AA?$AA?$AA?$AA?$BA?$AA?$AA?$IGP?$DO?$AA?$AA?$AA@
CONST	SEGMENT
??_C@_0BH@FNLFHGKP@?$AA?5?5?$AA?$AA?$AA?$AA?$AA?$AA?$IA?$AA?$AA?$AA?$AA?$BA?$AA?$AA?$IGP?$DO?$AA?$AA?$AA@ DB 00H
	DB	'  ', 00H, 00H, 00H, 00H, 00H, 00H, 080H, 00H, 00H, 00H, 00H, 010H
	DB	00H, 00H, 086H, 'P>', 00H, 00H, 00H		; `string'
CONST	ENDS
;	COMDAT ??_C@_07IHHMCGE@or_test?$AA@
CONST	SEGMENT
??_C@_07IHHMCGE@or_test?$AA@ DB 'or_test', 00H		; `string'
CONST	ENDS
;	COMDAT ??_C@_0P@BLBLCNEL@lambdef_nocond?$AA@
CONST	SEGMENT
??_C@_0P@BLBLCNEL@lambdef_nocond?$AA@ DB 'lambdef_nocond', 00H ; `string'
CONST	ENDS
;	COMDAT ??_C@_0BH@GLFKNCLK@?$AA?$AA?$AA?$AA?$AA?$AA?$AA?$AA?$AA?$AA?$AA?$AA?$AA?$IA?$AA?$AA?$AA?$AA?$AA?$AA?$AA?$AA?$AA@
CONST	SEGMENT
??_C@_0BH@GLFKNCLK@?$AA?$AA?$AA?$AA?$AA?$AA?$AA?$AA?$AA?$AA?$AA?$AA?$AA?$IA?$AA?$AA?$AA?$AA?$AA?$AA?$AA?$AA?$AA@ DB 00H
	DB	00H, 00H, 00H, 00H, 00H, 00H, 00H, 00H, 00H, 00H, 00H, 00H, 080H
	DB	00H, 00H, 00H, 00H, 00H, 00H, 00H, 00H, 00H	; `string'
CONST	ENDS
;	COMDAT ??_C@_07KODPEPCE@lambdef?$AA@
CONST	SEGMENT
??_C@_07KODPEPCE@lambdef?$AA@ DB 'lambdef', 00H		; `string'
CONST	ENDS
;	COMDAT ??_C@_0M@GCPGNMDP@test_nocond?$AA@
CONST	SEGMENT
??_C@_0M@GCPGNMDP@test_nocond?$AA@ DB 'test_nocond', 00H ; `string'
CONST	ENDS
;	COMDAT ??_C@_04CEJDCDCH@test?$AA@
CONST	SEGMENT
??_C@_04CEJDCDCH@test?$AA@ DB 'test', 00H		; `string'
CONST	ENDS
;	COMDAT ??_C@_0BH@NGHEMDHD@?$AE?5?5?$IA?$AA?$AA?$AA?$KA?$OA?$JDp?$AA?$AA?$IA?$BA?$AA?$AA?$IGP?$DO?$IA?$AA?$AA@
CONST	SEGMENT
??_C@_0BH@NGHEMDHD@?$AE?5?5?$IA?$AA?$AA?$AA?$KA?$OA?$JDp?$AA?$AA?$IA?$BA?$AA?$AA?$IGP?$DO?$IA?$AA?$AA@ DB 04H
	DB	'  ', 080H, 00H, 00H, 00H, 0a0H, 0e0H, 093H, 'p', 00H, 00H, 080H
	DB	010H, 00H, 00H, 086H, 'P>', 080H, 00H, 00H	; `string'
CONST	ENDS
;	COMDAT ??_C@_05PPOFKJGL@suite?$AA@
CONST	SEGMENT
??_C@_05PPOFKJGL@suite?$AA@ DB 'suite', 00H		; `string'
CONST	ENDS
;	COMDAT ??_C@_0BH@GCJNLAIF@?$AA?$AA?$AA?$AA?$AA?$AA?$AA?$AA?$AA?$AA?$AA?$AA?$AA?$AB?$AA?$AA?$AA?$AA?$AA?$AA?$AA?$AA?$AA@
CONST	SEGMENT
??_C@_0BH@GCJNLAIF@?$AA?$AA?$AA?$AA?$AA?$AA?$AA?$AA?$AA?$AA?$AA?$AA?$AA?$AB?$AA?$AA?$AA?$AA?$AA?$AA?$AA?$AA?$AA@ DB 00H
	DB	00H, 00H, 00H, 00H, 00H, 00H, 00H, 00H, 00H, 00H, 00H, 00H, 01H
	DB	00H, 00H, 00H, 00H, 00H, 00H, 00H, 00H, 00H	; `string'
CONST	ENDS
;	COMDAT ??_C@_0O@BMGEGENN@except_clause?$AA@
CONST	SEGMENT
??_C@_0O@BMGEGENN@except_clause?$AA@ DB 'except_clause', 00H ; `string'
CONST	ENDS
;	COMDAT ??_C@_09HLILCHIL@with_item?$AA@
CONST	SEGMENT
??_C@_09HLILCHIL@with_item?$AA@ DB 'with_item', 00H	; `string'
CONST	ENDS
;	COMDAT ??_C@_0BH@LMDFEGM@?$AA?$AA?$AA?$AA?$AA?$AA?$AA?$AA?$AA?$AA?$AA?$AA?5?$AA?$AA?$AA?$AA?$AA?$AA?$AA?$AA?$AA?$AA@
CONST	SEGMENT
??_C@_0BH@LMDFEGM@?$AA?$AA?$AA?$AA?$AA?$AA?$AA?$AA?$AA?$AA?$AA?$AA?5?$AA?$AA?$AA?$AA?$AA?$AA?$AA?$AA?$AA?$AA@ DB 00H
	DB	00H, 00H, 00H, 00H, 00H, 00H, 00H, 00H, 00H, 00H, 00H, ' ', 00H
	DB	00H, 00H, 00H, 00H, 00H, 00H, 00H, 00H, 00H	; `string'
CONST	ENDS
;	COMDAT ??_C@_09MEMIFAAI@with_stmt?$AA@
CONST	SEGMENT
??_C@_09MEMIFAAI@with_stmt?$AA@ DB 'with_stmt', 00H	; `string'
CONST	ENDS
;	COMDAT ??_C@_0BH@DNIGKIDJ@?$AA?$AA?$AA?$AA?$AA?$AA?$AA?$AA?$AA?$AA?$AA?$AA?$AE?$AA?$AA?$AA?$AA?$AA?$AA?$AA?$AA?$AA?$AA@
CONST	SEGMENT
??_C@_0BH@DNIGKIDJ@?$AA?$AA?$AA?$AA?$AA?$AA?$AA?$AA?$AA?$AA?$AA?$AA?$AE?$AA?$AA?$AA?$AA?$AA?$AA?$AA?$AA?$AA?$AA@ DB 00H
	DB	00H, 00H, 00H, 00H, 00H, 00H, 00H, 00H, 00H, 00H, 00H, 04H, 00H
	DB	00H, 00H, 00H, 00H, 00H, 00H, 00H, 00H, 00H	; `string'
CONST	ENDS
;	COMDAT ??_C@_08IPJHIJOK@try_stmt?$AA@
CONST	SEGMENT
??_C@_08IPJHIJOK@try_stmt?$AA@ DB 'try_stmt', 00H	; `string'
CONST	ENDS
;	COMDAT ??_C@_0BH@EMNBAEHL@?$AA?$AA?$AA?$AA?$AA?$AA?$AA?$AA?$AA?$AA?$AA?$AA?$AB?$AA?$AA?$AA?$AA?$AA?$AA?$AA?$AA?$AA?$AA@
CONST	SEGMENT
??_C@_0BH@EMNBAEHL@?$AA?$AA?$AA?$AA?$AA?$AA?$AA?$AA?$AA?$AA?$AA?$AA?$AB?$AA?$AA?$AA?$AA?$AA?$AA?$AA?$AA?$AA?$AA@ DB 00H
	DB	00H, 00H, 00H, 00H, 00H, 00H, 00H, 00H, 00H, 00H, 00H, 01H, 00H
	DB	00H, 00H, 00H, 00H, 00H, 00H, 00H, 00H, 00H	; `string'
CONST	ENDS
;	COMDAT ??_C@_08OIBIJDBN@for_stmt?$AA@
CONST	SEGMENT
??_C@_08OIBIJDBN@for_stmt?$AA@ DB 'for_stmt', 00H	; `string'
CONST	ENDS
;	COMDAT ??_C@_0BH@ONJILEFL@?$AA?$AA?$AA?$AA?$AA?$AA?$AA?$AA?$AA?$AA?$AA?$IA?$AA?$AA?$AA?$AA?$AA?$AA?$AA?$AA?$AA?$AA?$AA@
CONST	SEGMENT
??_C@_0BH@ONJILEFL@?$AA?$AA?$AA?$AA?$AA?$AA?$AA?$AA?$AA?$AA?$AA?$IA?$AA?$AA?$AA?$AA?$AA?$AA?$AA?$AA?$AA?$AA?$AA@ DB 00H
	DB	00H, 00H, 00H, 00H, 00H, 00H, 00H, 00H, 00H, 00H, 080H, 00H, 00H
	DB	00H, 00H, 00H, 00H, 00H, 00H, 00H, 00H, 00H	; `string'
CONST	ENDS
;	COMDAT ??_C@_0L@IDPAFPNJ@while_stmt?$AA@
CONST	SEGMENT
??_C@_0L@IDPAFPNJ@while_stmt?$AA@ DB 'while_stmt', 00H	; `string'
CONST	ENDS
;	COMDAT ??_C@_0BH@IBEHDGEH@?$AA?$AA?$AA?$AA?$AA?$AA?$AA?$AA?$AA?$AA?$AA?$BA?$AA?$AA?$AA?$AA?$AA?$AA?$AA?$AA?$AA?$AA?$AA@
CONST	SEGMENT
??_C@_0BH@IBEHDGEH@?$AA?$AA?$AA?$AA?$AA?$AA?$AA?$AA?$AA?$AA?$AA?$BA?$AA?$AA?$AA?$AA?$AA?$AA?$AA?$AA?$AA?$AA?$AA@ DB 00H
	DB	00H, 00H, 00H, 00H, 00H, 00H, 00H, 00H, 00H, 00H, 010H, 00H, 00H
	DB	00H, 00H, 00H, 00H, 00H, 00H, 00H, 00H, 00H	; `string'
CONST	ENDS
;	COMDAT ??_C@_07BBLEBBKO@if_stmt?$AA@
CONST	SEGMENT
??_C@_07BBLEBBKO@if_stmt?$AA@ DB 'if_stmt', 00H		; `string'
CONST	ENDS
;	COMDAT ??_C@_0BH@ODOFOGAC@?$AA?$AI?$BA?$AA?$AA?$AA?$AA?$AA?$AA?$AA?$AA?$JA?$CF?$AA?$AA?$AA?$AA?$AA?$AA?$AA?$AE?$AA?$AA@
CONST	SEGMENT
??_C@_0BH@ODOFOGAC@?$AA?$AI?$BA?$AA?$AA?$AA?$AA?$AA?$AA?$AA?$AA?$JA?$CF?$AA?$AA?$AA?$AA?$AA?$AA?$AA?$AE?$AA?$AA@ DB 00H
	DB	08H, 010H, 00H, 00H, 00H, 00H, 00H, 00H, 00H, 00H, 090H, '%', 00H
	DB	00H, 00H, 00H, 00H, 00H, 00H, 04H, 00H, 00H	; `string'
CONST	ENDS
;	COMDAT ??_C@_0O@DDEPOMNL@compound_stmt?$AA@
CONST	SEGMENT
??_C@_0O@DDEPOMNL@compound_stmt?$AA@ DB 'compound_stmt', 00H ; `string'
CONST	ENDS
;	COMDAT ??_C@_0BH@DANCEKBA@?$AA?$AA?$AA?$AA?$AA?$AA?$AA?$AA?$AA?$AA?$EA?$AA?$AA?$AA?$AA?$AA?$AA?$AA?$AA?$AA?$AA?$AA?$AA@
CONST	SEGMENT
??_C@_0BH@DANCEKBA@?$AA?$AA?$AA?$AA?$AA?$AA?$AA?$AA?$AA?$AA?$EA?$AA?$AA?$AA?$AA?$AA?$AA?$AA?$AA?$AA?$AA?$AA?$AA@ DB 00H
	DB	00H, 00H, 00H, 00H, 00H, 00H, 00H, 00H, 00H, '@', 00H, 00H, 00H
	DB	00H, 00H, 00H, 00H, 00H, 00H, 00H, 00H, 00H	; `string'
CONST	ENDS
;	COMDAT ??_C@_0M@BGOEGNH@assert_stmt?$AA@
CONST	SEGMENT
??_C@_0M@BGOEGNH@assert_stmt?$AA@ DB 'assert_stmt', 00H	; `string'
CONST	ENDS
;	COMDAT ??_C@_0BH@DOCBJAEO@?$AA?$AA?$AA?$AA?$AA?$AA?$AA?$AA?$AA?$AA?5?$AA?$AA?$AA?$AA?$AA?$AA?$AA?$AA?$AA?$AA?$AA?$AA@
CONST	SEGMENT
??_C@_0BH@DOCBJAEO@?$AA?$AA?$AA?$AA?$AA?$AA?$AA?$AA?$AA?$AA?5?$AA?$AA?$AA?$AA?$AA?$AA?$AA?$AA?$AA?$AA?$AA?$AA@ DB 00H
	DB	00H, 00H, 00H, 00H, 00H, 00H, 00H, 00H, 00H, ' ', 00H, 00H, 00H
	DB	00H, 00H, 00H, 00H, 00H, 00H, 00H, 00H, 00H	; `string'
CONST	ENDS
;	COMDAT ??_C@_0O@GCNCHPEM@nonlocal_stmt?$AA@
CONST	SEGMENT
??_C@_0O@GCNCHPEM@nonlocal_stmt?$AA@ DB 'nonlocal_stmt', 00H ; `string'
CONST	ENDS
;	COMDAT ??_C@_0BH@DJFIHNGB@?$AA?$AA?$AA?$AA?$AA?$AA?$AA?$AA?$AA?$AA?$BA?$AA?$AA?$AA?$AA?$AA?$AA?$AA?$AA?$AA?$AA?$AA?$AA@
CONST	SEGMENT
??_C@_0BH@DJFIHNGB@?$AA?$AA?$AA?$AA?$AA?$AA?$AA?$AA?$AA?$AA?$BA?$AA?$AA?$AA?$AA?$AA?$AA?$AA?$AA?$AA?$AA?$AA?$AA@ DB 00H
	DB	00H, 00H, 00H, 00H, 00H, 00H, 00H, 00H, 00H, 010H, 00H, 00H, 00H
	DB	00H, 00H, 00H, 00H, 00H, 00H, 00H, 00H, 00H	; `string'
CONST	ENDS
;	COMDAT ??_C@_0M@CMKLDLPE@global_stmt?$AA@
CONST	SEGMENT
??_C@_0M@CMKLDLPE@global_stmt?$AA@ DB 'global_stmt', 00H ; `string'
CONST	ENDS
;	COMDAT ??_C@_0M@NJIIFJPC@dotted_name?$AA@
CONST	SEGMENT
??_C@_0M@NJIIFJPC@dotted_name?$AA@ DB 'dotted_name', 00H ; `string'
CONST	ENDS
;	COMDAT ??_C@_0BA@NAFLFMMC@dotted_as_names?$AA@
CONST	SEGMENT
??_C@_0BA@NAFLFMMC@dotted_as_names?$AA@ DB 'dotted_as_names', 00H ; `string'
CONST	ENDS
;	COMDAT ??_C@_0BA@ONIDPJNA@import_as_names?$AA@
CONST	SEGMENT
??_C@_0BA@ONIDPJNA@import_as_names?$AA@ DB 'import_as_names', 00H ; `string'
CONST	ENDS
;	COMDAT ??_C@_0P@PCEGBFGD@dotted_as_name?$AA@
CONST	SEGMENT
??_C@_0P@PCEGBFGD@dotted_as_name?$AA@ DB 'dotted_as_name', 00H ; `string'
CONST	ENDS
;	COMDAT ??_C@_0P@PCHGNAAG@import_as_name?$AA@
CONST	SEGMENT
??_C@_0P@PCHGNAAG@import_as_name?$AA@ DB 'import_as_name', 00H ; `string'
CONST	ENDS
;	COMDAT ??_C@_0BH@GMDBBPBG@?$AA?$AA?$AA?$AA?$AA?$AA?$AA?$AA?$AA?$AC?$AA?$AA?$AA?$AA?$AA?$AA?$AA?$AA?$AA?$AA?$AA?$AA?$AA@
CONST	SEGMENT
??_C@_0BH@GMDBBPBG@?$AA?$AA?$AA?$AA?$AA?$AA?$AA?$AA?$AA?$AC?$AA?$AA?$AA?$AA?$AA?$AA?$AA?$AA?$AA?$AA?$AA?$AA?$AA@ DB 00H
	DB	00H, 00H, 00H, 00H, 00H, 00H, 00H, 00H, 02H, 00H, 00H, 00H, 00H
	DB	00H, 00H, 00H, 00H, 00H, 00H, 00H, 00H, 00H	; `string'
CONST	ENDS
;	COMDAT ??_C@_0M@JABENECB@import_from?$AA@
CONST	SEGMENT
??_C@_0M@JABENECB@import_from?$AA@ DB 'import_from', 00H ; `string'
CONST	ENDS
;	COMDAT ??_C@_0BH@OLONOHNH@?$AA?$AA?$AA?$AA?$AA?$AA?$AA?$AA?$AA?$BA?$AA?$AA?$AA?$AA?$AA?$AA?$AA?$AA?$AA?$AA?$AA?$AA?$AA@
CONST	SEGMENT
??_C@_0BH@OLONOHNH@?$AA?$AA?$AA?$AA?$AA?$AA?$AA?$AA?$AA?$BA?$AA?$AA?$AA?$AA?$AA?$AA?$AA?$AA?$AA?$AA?$AA?$AA?$AA@ DB 00H
	DB	00H, 00H, 00H, 00H, 00H, 00H, 00H, 00H, 010H, 00H, 00H, 00H, 00H
	DB	00H, 00H, 00H, 00H, 00H, 00H, 00H, 00H, 00H	; `string'
CONST	ENDS
;	COMDAT ??_C@_0M@CJJFDJPH@import_name?$AA@
CONST	SEGMENT
??_C@_0M@CJJFDJPH@import_name?$AA@ DB 'import_name', 00H ; `string'
CONST	ENDS
;	COMDAT ??_C@_0BH@KIDCDHK@?$AA?$AA?$AA?$AA?$AA?$AA?$AA?$AA?$AA?$BC?$AA?$AA?$AA?$AA?$AA?$AA?$AA?$AA?$AA?$AA?$AA?$AA?$AA@
CONST	SEGMENT
??_C@_0BH@KIDCDHK@?$AA?$AA?$AA?$AA?$AA?$AA?$AA?$AA?$AA?$BC?$AA?$AA?$AA?$AA?$AA?$AA?$AA?$AA?$AA?$AA?$AA?$AA?$AA@ DB 00H
	DB	00H, 00H, 00H, 00H, 00H, 00H, 00H, 00H, 012H, 00H, 00H, 00H, 00H
	DB	00H, 00H, 00H, 00H, 00H, 00H, 00H, 00H, 00H	; `string'
CONST	ENDS
;	COMDAT ??_C@_0M@IFPLOOHJ@import_stmt?$AA@
CONST	SEGMENT
??_C@_0M@IFPLOOHJ@import_stmt?$AA@ DB 'import_stmt', 00H ; `string'
CONST	ENDS
;	COMDAT ??_C@_0BH@BAFADKMN@?$AA?$AA?$AA?$AA?$AA?$AA?$AA?$AA?$AA?$AB?$AA?$AA?$AA?$AA?$AA?$AA?$AA?$AA?$AA?$AA?$AA?$AA?$AA@
CONST	SEGMENT
??_C@_0BH@BAFADKMN@?$AA?$AA?$AA?$AA?$AA?$AA?$AA?$AA?$AA?$AB?$AA?$AA?$AA?$AA?$AA?$AA?$AA?$AA?$AA?$AA?$AA?$AA?$AA@ DB 00H
	DB	00H, 00H, 00H, 00H, 00H, 00H, 00H, 00H, 01H, 00H, 00H, 00H, 00H
	DB	00H, 00H, 00H, 00H, 00H, 00H, 00H, 00H, 00H	; `string'
CONST	ENDS
;	COMDAT ??_C@_0L@KLCJPLNG@raise_stmt?$AA@
CONST	SEGMENT
??_C@_0L@KLCJPLNG@raise_stmt?$AA@ DB 'raise_stmt', 00H	; `string'
CONST	ENDS
;	COMDAT ??_C@_0BH@GMGKMADL@?$AA?$AA?$AA?$AA?$AA?$AA?$AA?$AA?$AA?$AA?$AA?$AA?$AA?$AA?$AA?$AA?$AA?$AA?$AA?$AA?$IA?$AA?$AA@
CONST	SEGMENT
??_C@_0BH@GMGKMADL@?$AA?$AA?$AA?$AA?$AA?$AA?$AA?$AA?$AA?$AA?$AA?$AA?$AA?$AA?$AA?$AA?$AA?$AA?$AA?$AA?$IA?$AA?$AA@ DB 00H
	DB	00H, 00H, 00H, 00H, 00H, 00H, 00H, 00H, 00H, 00H, 00H, 00H, 00H
	DB	00H, 00H, 00H, 00H, 00H, 00H, 080H, 00H, 00H	; `string'
CONST	ENDS
;	COMDAT ??_C@_0L@HOAHOHEB@yield_stmt?$AA@
CONST	SEGMENT
??_C@_0L@HOAHOHEB@yield_stmt?$AA@ DB 'yield_stmt', 00H	; `string'
CONST	ENDS
;	COMDAT ??_C@_0BH@MDNICLAA@?$AA?$AA?$AA?$AA?$AA?$AA?$AA?$AA?$IA?$AA?$AA?$AA?$AA?$AA?$AA?$AA?$AA?$AA?$AA?$AA?$AA?$AA?$AA@
CONST	SEGMENT
??_C@_0BH@MDNICLAA@?$AA?$AA?$AA?$AA?$AA?$AA?$AA?$AA?$IA?$AA?$AA?$AA?$AA?$AA?$AA?$AA?$AA?$AA?$AA?$AA?$AA?$AA?$AA@ DB 00H
	DB	00H, 00H, 00H, 00H, 00H, 00H, 00H, 080H, 00H, 00H, 00H, 00H, 00H
	DB	00H, 00H, 00H, 00H, 00H, 00H, 00H, 00H, 00H	; `string'
CONST	ENDS
;	COMDAT ??_C@_0M@LBBJONNL@return_stmt?$AA@
CONST	SEGMENT
??_C@_0M@LBBJONNL@return_stmt?$AA@ DB 'return_stmt', 00H ; `string'
CONST	ENDS
;	COMDAT ??_C@_0BH@EHKEKAMG@?$AA?$AA?$AA?$AA?$AA?$AA?$AA?$AA?$EA?$AA?$AA?$AA?$AA?$AA?$AA?$AA?$AA?$AA?$AA?$AA?$AA?$AA?$AA@
CONST	SEGMENT
??_C@_0BH@EHKEKAMG@?$AA?$AA?$AA?$AA?$AA?$AA?$AA?$AA?$EA?$AA?$AA?$AA?$AA?$AA?$AA?$AA?$AA?$AA?$AA?$AA?$AA?$AA?$AA@ DB 00H
	DB	00H, 00H, 00H, 00H, 00H, 00H, 00H, '@', 00H, 00H, 00H, 00H, 00H
	DB	00H, 00H, 00H, 00H, 00H, 00H, 00H, 00H, 00H	; `string'
CONST	ENDS
;	COMDAT ??_C@_0O@FACFMHIL@continue_stmt?$AA@
CONST	SEGMENT
??_C@_0O@FACFMHIL@continue_stmt?$AA@ DB 'continue_stmt', 00H ; `string'
CONST	ENDS
;	COMDAT ??_C@_0BH@FJKOFCF@?$AA?$AA?$AA?$AA?$AA?$AA?$AA?$AA?5?$AA?$AA?$AA?$AA?$AA?$AA?$AA?$AA?$AA?$AA?$AA?$AA?$AA?$AA@
CONST	SEGMENT
??_C@_0BH@FJKOFCF@?$AA?$AA?$AA?$AA?$AA?$AA?$AA?$AA?5?$AA?$AA?$AA?$AA?$AA?$AA?$AA?$AA?$AA?$AA?$AA?$AA?$AA?$AA@ DB 00H
	DB	00H, 00H, 00H, 00H, 00H, 00H, 00H, ' ', 00H, 00H, 00H, 00H, 00H
	DB	00H, 00H, 00H, 00H, 00H, 00H, 00H, 00H, 00H	; `string'
CONST	ENDS
;	COMDAT ??_C@_0L@EBNDLLOJ@break_stmt?$AA@
CONST	SEGMENT
??_C@_0L@EBNDLLOJ@break_stmt?$AA@ DB 'break_stmt', 00H	; `string'
CONST	ENDS
;	COMDAT ??_C@_0BH@PNNMJEBF@?$AA?$AA?$AA?$AA?$AA?$AA?$AA?$AA?$OA?$AB?$AA?$AA?$AA?$AA?$AA?$AA?$AA?$AA?$AA?$AA?$IA?$AA?$AA@
CONST	SEGMENT
??_C@_0BH@PNNMJEBF@?$AA?$AA?$AA?$AA?$AA?$AA?$AA?$AA?$OA?$AB?$AA?$AA?$AA?$AA?$AA?$AA?$AA?$AA?$AA?$AA?$IA?$AA?$AA@ DB 00H
	DB	00H, 00H, 00H, 00H, 00H, 00H, 00H, 0e0H, 01H, 00H, 00H, 00H, 00H
	DB	00H, 00H, 00H, 00H, 00H, 00H, 080H, 00H, 00H	; `string'
CONST	ENDS
;	COMDAT ??_C@_09PGHEDOML@flow_stmt?$AA@
CONST	SEGMENT
??_C@_09PGHEDOML@flow_stmt?$AA@ DB 'flow_stmt', 00H	; `string'
CONST	ENDS
;	COMDAT ??_C@_0BH@NBKCDGEP@?$AA?$AA?$AA?$AA?$AA?$AA?$AA?$IA?$AA?$AA?$AA?$AA?$AA?$AA?$AA?$AA?$AA?$AA?$AA?$AA?$AA?$AA?$AA@
CONST	SEGMENT
??_C@_0BH@NBKCDGEP@?$AA?$AA?$AA?$AA?$AA?$AA?$AA?$IA?$AA?$AA?$AA?$AA?$AA?$AA?$AA?$AA?$AA?$AA?$AA?$AA?$AA?$AA?$AA@ DB 00H
	DB	00H, 00H, 00H, 00H, 00H, 00H, 080H, 00H, 00H, 00H, 00H, 00H, 00H
	DB	00H, 00H, 00H, 00H, 00H, 00H, 00H, 00H, 00H	; `string'
CONST	ENDS
;	COMDAT ??_C@_09PCNACIEE@pass_stmt?$AA@
CONST	SEGMENT
??_C@_09PCNACIEE@pass_stmt?$AA@ DB 'pass_stmt', 00H	; `string'
CONST	ENDS
;	COMDAT ??_C@_0BH@JKGAKAMG@?$AA?$AA?$AA?$AA?$AA?$AA?$AA?5?$AA?$AA?$AA?$AA?$AA?$AA?$AA?$AA?$AA?$AA?$AA?$AA?$AA?$AA?$AA@
CONST	SEGMENT
??_C@_0BH@JKGAKAMG@?$AA?$AA?$AA?$AA?$AA?$AA?$AA?5?$AA?$AA?$AA?$AA?$AA?$AA?$AA?$AA?$AA?$AA?$AA?$AA?$AA?$AA?$AA@ DB 00H
	DB	00H, 00H, 00H, 00H, 00H, 00H, ' ', 00H, 00H, 00H, 00H, 00H, 00H
	DB	00H, 00H, 00H, 00H, 00H, 00H, 00H, 00H, 00H	; `string'
CONST	ENDS
;	COMDAT ??_C@_08GAMPEAMA@del_stmt?$AA@
CONST	SEGMENT
??_C@_08GAMPEAMA@del_stmt?$AA@ DB 'del_stmt', 00H	; `string'
CONST	ENDS
;	COMDAT ??_C@_0BH@HKIOHPBC@?$AA?$AA?$AA?$AA?$AA?$AA?$PO?$BP?$AA?$AA?$AA?$AA?$AA?$AA?$AA?$AA?$AA?$AA?$AA?$AA?$AA?$AA?$AA@
CONST	SEGMENT
??_C@_0BH@HKIOHPBC@?$AA?$AA?$AA?$AA?$AA?$AA?$PO?$BP?$AA?$AA?$AA?$AA?$AA?$AA?$AA?$AA?$AA?$AA?$AA?$AA?$AA?$AA?$AA@ DB 00H
	DB	00H, 00H, 00H, 00H, 00H, 0feH, 01fH, 00H, 00H, 00H, 00H, 00H, 00H
	DB	00H, 00H, 00H, 00H, 00H, 00H, 00H, 00H, 00H	; `string'
CONST	ENDS
;	COMDAT ??_C@_09KMIHFGNL@augassign?$AA@
CONST	SEGMENT
??_C@_09KMIHFGNL@augassign?$AA@ DB 'augassign', 00H	; `string'
CONST	ENDS
;	COMDAT ??_C@_0BD@PJJDDCPK@testlist_star_expr?$AA@
CONST	SEGMENT
??_C@_0BD@PJJDDCPK@testlist_star_expr?$AA@ DB 'testlist_star_expr', 00H ; `string'
CONST	ENDS
;	COMDAT ??_C@_0BH@NAEBDPIC@?$AA?5?5?$IA?$AA?$AA?$AA?$AA?$AA?$IA?$AA?$AA?$AA?$IA?$BA?$AA?$AA?$IGP?$DO?$AA?$AA?$AA@
CONST	SEGMENT
??_C@_0BH@NAEBDPIC@?$AA?5?5?$IA?$AA?$AA?$AA?$AA?$AA?$IA?$AA?$AA?$AA?$IA?$BA?$AA?$AA?$IGP?$DO?$AA?$AA?$AA@ DB 00H
	DB	'  ', 080H, 00H, 00H, 00H, 00H, 00H, 080H, 00H, 00H, 00H, 080H
	DB	010H, 00H, 00H, 086H, 'P>', 00H, 00H, 00H	; `string'
CONST	ENDS
;	COMDAT ??_C@_09BLMMJKJF@expr_stmt?$AA@
CONST	SEGMENT
??_C@_09BLMMJKJF@expr_stmt?$AA@ DB 'expr_stmt', 00H	; `string'
CONST	ENDS
;	COMDAT ??_C@_0L@PLEAAANE@small_stmt?$AA@
CONST	SEGMENT
??_C@_0L@PLEAAANE@small_stmt?$AA@ DB 'small_stmt', 00H	; `string'
CONST	ENDS
;	COMDAT ??_C@_0BH@NGCIGCOA@?$AA?5?5?$IA?$AA?$AA?$AA?$KA?$OA?$JDp?$AA?$AA?$IA?$BA?$AA?$AA?$IGP?$DO?$IA?$AA?$AA@
CONST	SEGMENT
??_C@_0BH@NGCIGCOA@?$AA?5?5?$IA?$AA?$AA?$AA?$KA?$OA?$JDp?$AA?$AA?$IA?$BA?$AA?$AA?$IGP?$DO?$IA?$AA?$AA@ DB 00H
	DB	'  ', 080H, 00H, 00H, 00H, 0a0H, 0e0H, 093H, 'p', 00H, 00H, 080H
	DB	010H, 00H, 00H, 086H, 'P>', 080H, 00H, 00H	; `string'
CONST	ENDS
;	COMDAT ??_C@_0M@NKLMKLPN@simple_stmt?$AA@
CONST	SEGMENT
??_C@_0M@NKLMKLPN@simple_stmt?$AA@ DB 'simple_stmt', 00H ; `string'
CONST	ENDS
;	COMDAT ??_C@_0BH@LIJCFPFJ@?$AA?$CI0?$IA?$AA?$AA?$AA?$KA?$OA?$JDp?$JA?$CF?$IA?$BA?$AA?$AA?$IGP?$DO?$IE?$AA?$AA@
CONST	SEGMENT
??_C@_0BH@LIJCFPFJ@?$AA?$CI0?$IA?$AA?$AA?$AA?$KA?$OA?$JDp?$JA?$CF?$IA?$BA?$AA?$AA?$IGP?$DO?$IE?$AA?$AA@ DB 00H
	DB	'(0', 080H, 00H, 00H, 00H, 0a0H, 0e0H, 093H, 'p', 090H, '%', 080H
	DB	010H, 00H, 00H, 086H, 'P>', 084H, 00H, 00H	; `string'
CONST	ENDS
;	COMDAT ??_C@_04GIKOEBLH@stmt?$AA@
CONST	SEGMENT
??_C@_04GIKOEBLH@stmt?$AA@ DB 'stmt', 00H		; `string'
CONST	ENDS
;	COMDAT ??_C@_06DKLGMKG@vfpdef?$AA@
CONST	SEGMENT
??_C@_06DKLGMKG@vfpdef?$AA@ DB 'vfpdef', 00H		; `string'
CONST	ENDS
;	COMDAT ??_C@_0M@ENHJEHOJ@varargslist?$AA@
CONST	SEGMENT
??_C@_0M@ENHJEHOJ@varargslist?$AA@ DB 'varargslist', 00H ; `string'
CONST	ENDS
;	COMDAT ??_C@_0BH@BKJHPOGD@?$AA?$AA?5?$AA?$AA?$AA?$AA?$AA?$AA?$AA?$AA?$AA?$AA?$AA?$AA?$AA?$AA?$AA?$AA?$AA?$AA?$AA?$AA@
CONST	SEGMENT
??_C@_0BH@BKJHPOGD@?$AA?$AA?5?$AA?$AA?$AA?$AA?$AA?$AA?$AA?$AA?$AA?$AA?$AA?$AA?$AA?$AA?$AA?$AA?$AA?$AA?$AA?$AA@ DB 00H
	DB	00H, ' ', 00H, 00H, 00H, 00H, 00H, 00H, 00H, 00H, 00H, 00H, 00H
	DB	00H, 00H, 00H, 00H, 00H, 00H, 00H, 00H, 00H	; `string'
CONST	ENDS
;	COMDAT ??_C@_06JEDEHNIP@tfpdef?$AA@
CONST	SEGMENT
??_C@_06JEDEHNIP@tfpdef?$AA@ DB 'tfpdef', 00H		; `string'
CONST	ENDS
;	COMDAT ??_C@_0BH@KGIEDOBH@?$AA?$AA?5?$IA?$AB?$AA?$AA?$AA?$AA?$AA?$AA?$AA?$AA?$AA?$AA?$AA?$AA?$AA?$AA?$AA?$AA?$AA?$AA@
CONST	SEGMENT
??_C@_0BH@KGIEDOBH@?$AA?$AA?5?$IA?$AB?$AA?$AA?$AA?$AA?$AA?$AA?$AA?$AA?$AA?$AA?$AA?$AA?$AA?$AA?$AA?$AA?$AA?$AA@ DB 00H
	DB	00H, ' ', 080H, 01H, 00H, 00H, 00H, 00H, 00H, 00H, 00H, 00H, 00H
	DB	00H, 00H, 00H, 00H, 00H, 00H, 00H, 00H, 00H	; `string'
CONST	ENDS
;	COMDAT ??_C@_0O@FMOBJFLO@typedargslist?$AA@
CONST	SEGMENT
??_C@_0O@FMOBJFLO@typedargslist?$AA@ DB 'typedargslist', 00H ; `string'
CONST	ENDS
;	COMDAT ??_C@_0BH@FMAEJHI@?$AA?5?$AA?$AA?$AA?$AA?$AA?$AA?$AA?$AA?$AA?$AA?$AA?$AA?$AA?$AA?$AA?$AA?$AA?$AA?$AA?$AA?$AA@
CONST	SEGMENT
??_C@_0BH@FMAEJHI@?$AA?5?$AA?$AA?$AA?$AA?$AA?$AA?$AA?$AA?$AA?$AA?$AA?$AA?$AA?$AA?$AA?$AA?$AA?$AA?$AA?$AA?$AA@ DB 00H
	DB	' ', 00H, 00H, 00H, 00H, 00H, 00H, 00H, 00H, 00H, 00H, 00H, 00H
	DB	00H, 00H, 00H, 00H, 00H, 00H, 00H, 00H, 00H	; `string'
CONST	ENDS
;	COMDAT ??_C@_0L@HHPOFMCB@parameters?$AA@
CONST	SEGMENT
??_C@_0L@HHPOFMCB@parameters?$AA@ DB 'parameters', 00H	; `string'
CONST	ENDS
;	COMDAT ??_C@_0BH@MGLLMJFH@?$AA?$AA?$BA?$AA?$AA?$AA?$AA?$AA?$AA?$AA?$AA?$AA?$AA?$AA?$AA?$AA?$AA?$AA?$AA?$AA?$AA?$AA?$AA@
CONST	SEGMENT
??_C@_0BH@MGLLMJFH@?$AA?$AA?$BA?$AA?$AA?$AA?$AA?$AA?$AA?$AA?$AA?$AA?$AA?$AA?$AA?$AA?$AA?$AA?$AA?$AA?$AA?$AA?$AA@ DB 00H
	DB	00H, 010H, 00H, 00H, 00H, 00H, 00H, 00H, 00H, 00H, 00H, 00H, 00H
	DB	00H, 00H, 00H, 00H, 00H, 00H, 00H, 00H, 00H	; `string'
CONST	ENDS
;	COMDAT ??_C@_07BHJKLACP@funcdef?$AA@
CONST	SEGMENT
??_C@_07BHJKLACP@funcdef?$AA@ DB 'funcdef', 00H		; `string'
CONST	ENDS
;	COMDAT ??_C@_09LIHPAOKI@decorated?$AA@
CONST	SEGMENT
??_C@_09LIHPAOKI@decorated?$AA@ DB 'decorated', 00H	; `string'
CONST	ENDS
;	COMDAT ??_C@_0L@KLLBEBEH@decorators?$AA@
CONST	SEGMENT
??_C@_0L@KLLBEBEH@decorators?$AA@ DB 'decorators', 00H	; `string'
CONST	ENDS
;	COMDAT ??_C@_0BH@DEBMPNLL@?$AA?$AI?$AA?$AA?$AA?$AA?$AA?$AA?$AA?$AA?$AA?$AA?$AA?$AA?$AA?$AA?$AA?$AA?$AA?$AA?$AA?$AA?$AA@
CONST	SEGMENT
??_C@_0BH@DEBMPNLL@?$AA?$AI?$AA?$AA?$AA?$AA?$AA?$AA?$AA?$AA?$AA?$AA?$AA?$AA?$AA?$AA?$AA?$AA?$AA?$AA?$AA?$AA?$AA@ DB 00H
	DB	08H, 00H, 00H, 00H, 00H, 00H, 00H, 00H, 00H, 00H, 00H, 00H, 00H
	DB	00H, 00H, 00H, 00H, 00H, 00H, 00H, 00H, 00H	; `string'
CONST	ENDS
;	COMDAT ??_C@_09KJHADOKJ@decorator?$AA@
CONST	SEGMENT
??_C@_09KJHADOKJ@decorator?$AA@ DB 'decorator', 00H	; `string'
CONST	ENDS
;	COMDAT ??_C@_0BH@LLLAHPKO@?$AA?5?5?$AA?$AA?$AA?$AA?$AA?$AA?$IA?$AA?$AA?$AA?$IA?$BA?$AA?$AA?$IGP?$DO?$AA?$AA?$AA@
CONST	SEGMENT
??_C@_0BH@LLLAHPKO@?$AA?5?5?$AA?$AA?$AA?$AA?$AA?$AA?$IA?$AA?$AA?$AA?$IA?$BA?$AA?$AA?$IGP?$DO?$AA?$AA?$AA@ DB 00H
	DB	'  ', 00H, 00H, 00H, 00H, 00H, 00H, 080H, 00H, 00H, 00H, 080H, 010H
	DB	00H, 00H, 086H, 'P>', 00H, 00H, 00H		; `string'
CONST	ENDS
;	COMDAT ??_C@_0L@CMMCBJJA@eval_input?$AA@
CONST	SEGMENT
??_C@_0L@CMMCBJJA@eval_input?$AA@ DB 'eval_input', 00H	; `string'
CONST	ENDS
;	COMDAT ??_C@_0BH@LDFKMMKK@?$IE?$CI0?$IA?$AA?$AA?$AA?$KA?$OA?$JDp?$JA?$CF?$IA?$BA?$AA?$AA?$IGP?$DO?$IE?$AA?$AA@
CONST	SEGMENT
??_C@_0BH@LDFKMMKK@?$IE?$CI0?$IA?$AA?$AA?$AA?$KA?$OA?$JDp?$JA?$CF?$IA?$BA?$AA?$AA?$IGP?$DO?$IE?$AA?$AA@ DB 084H
	DB	'(0', 080H, 00H, 00H, 00H, 0a0H, 0e0H, 093H, 'p', 090H, '%', 080H
	DB	010H, 00H, 00H, 086H, 'P>', 084H, 00H, 00H	; `string'
CONST	ENDS
;	COMDAT ??_C@_0L@INIFFJII@file_input?$AA@
CONST	SEGMENT
??_C@_0L@INIFFJII@file_input?$AA@ DB 'file_input', 00H	; `string'
CONST	ENDS
;	COMDAT ??_C@_0BH@LIMOPOMK@?$AE?$CI0?$IA?$AA?$AA?$AA?$KA?$OA?$JDp?$JA?$CF?$IA?$BA?$AA?$AA?$IGP?$DO?$IE?$AA?$AA@
CONST	SEGMENT
??_C@_0BH@LIMOPOMK@?$AE?$CI0?$IA?$AA?$AA?$AA?$KA?$OA?$JDp?$JA?$CF?$IA?$BA?$AA?$AA?$IGP?$DO?$IE?$AA?$AA@ DB 04H
	DB	'(0', 080H, 00H, 00H, 00H, 0a0H, 0e0H, 093H, 'p', 090H, '%', 080H
	DB	010H, 00H, 00H, 086H, 'P>', 084H, 00H, 00H	; `string'
CONST	ENDS
;	COMDAT ??_C@_0N@PPLJDJMD@single_input?$AA@
CONST	SEGMENT
??_C@_0N@PPLJDJMD@single_input?$AA@ DB 'single_input', 00H ; `string'
CONST	ENDS
_DATA	SEGMENT
arcs_0_0 DW	02H
	DW	01H
	DW	03H
	DW	01H
	DW	04H
	DW	02H
arcs_0_1 DW	00H
	DW	01H
arcs_0_2 DW	02H
	DW	01H
arcs_1_1 DW	00H
	DW	01H
arcs_2_0 DW	09H
	DW	01H
arcs_2_2 DW	00H
	DW	02H
states_0 DD	03H
	ORG $+4
	DQ	FLAT:arcs_0_0
	ORG $+24
	DD	01H
	ORG $+4
	DQ	FLAT:arcs_0_1
	ORG $+24
	DD	01H
	ORG $+4
	DQ	FLAT:arcs_0_2
	ORG $+24
arcs_1_0 DW	02H
	DW	00H
	DW	06H
	DW	00H
	DW	07H
	DW	01H
arcs_3_0 DW	0bH
	DW	01H
arcs_2_1 DW	02H
	DW	01H
	DW	07H
	DW	02H
states_1 DD	03H
	ORG $+4
	DQ	FLAT:arcs_1_0
	ORG $+24
	DD	01H
	ORG $+4
	DQ	FLAT:arcs_1_1
	ORG $+24
states_2 DD	01H
	ORG $+4
	DQ	FLAT:arcs_2_0
	ORG $+24
	DD	02H
	ORG $+4
	DQ	FLAT:arcs_2_1
	ORG $+24
	DD	01H
	ORG $+4
	DQ	FLAT:arcs_2_2
	ORG $+24
arcs_3_1 DW	0cH
	DW	02H
arcs_3_4 DW	00H
	DW	04H
arcs_3_2 DW	0dH
	DW	03H
	DW	02H
	DW	04H
arcs_3_3 DW	0eH
	DW	05H
	DW	0fH
	DW	06H
arcs_3_5 DW	0fH
	DW	06H
arcs_3_6 DW	02H
	DW	04H
arcs_4_0 DW	0aH
	DW	01H
arcs_5_0 DW	010H
	DW	01H
states_3 DD	01H
	ORG $+4
	DQ	FLAT:arcs_3_0
	ORG $+24
	DD	01H
	ORG $+4
	DQ	FLAT:arcs_3_1
	ORG $+24
	DD	02H
	ORG $+4
	DQ	FLAT:arcs_3_2
	ORG $+24
	DD	02H
	ORG $+4
	DQ	FLAT:arcs_3_3
	ORG $+24
	DD	01H
	ORG $+4
	DQ	FLAT:arcs_3_4
	ORG $+24
	DD	01H
	ORG $+4
	DQ	FLAT:arcs_3_5
	ORG $+24
	DD	01H
	ORG $+4
	DQ	FLAT:arcs_3_6
	ORG $+24
arcs_4_1 DW	0aH
	DW	01H
	DW	00H
	DW	01H
states_4 DD	01H
	ORG $+4
	DQ	FLAT:arcs_4_0
	ORG $+24
	DD	02H
	ORG $+4
	DQ	FLAT:arcs_4_1
	ORG $+24
arcs_5_1 DW	012H
	DW	02H
	DW	013H
	DW	02H
arcs_5_2 DW	00H
	DW	02H
arcs_6_0 DW	014H
	DW	01H
states_5 DD	01H
	ORG $+4
	DQ	FLAT:arcs_5_0
	ORG $+24
	DD	02H
	ORG $+4
	DQ	FLAT:arcs_5_1
	ORG $+24
	DD	01H
	ORG $+4
	DQ	FLAT:arcs_5_2
	ORG $+24
arcs_6_1 DW	015H
	DW	02H
arcs_6_2 DW	016H
	DW	03H
arcs_6_3 DW	017H
	DW	04H
	DW	019H
	DW	05H
arcs_6_4 DW	018H
	DW	06H
arcs_6_5 DW	01aH
	DW	07H
arcs_6_6 DW	019H
	DW	05H
arcs_6_7 DW	00H
	DW	07H
arcs_7_0 DW	0dH
	DW	01H
arcs_7_2 DW	0fH
	DW	03H
states_6 DD	01H
	ORG $+4
	DQ	FLAT:arcs_6_0
	ORG $+24
	DD	01H
	ORG $+4
	DQ	FLAT:arcs_6_1
	ORG $+24
	DD	01H
	ORG $+4
	DQ	FLAT:arcs_6_2
	ORG $+24
	DD	02H
	ORG $+4
	DQ	FLAT:arcs_6_3
	ORG $+24
	DD	01H
	ORG $+4
	DQ	FLAT:arcs_6_4
	ORG $+24
	DD	01H
	ORG $+4
	DQ	FLAT:arcs_6_5
	ORG $+24
	DD	01H
	ORG $+4
	DQ	FLAT:arcs_6_6
	ORG $+24
	DD	01H
	ORG $+4
	DQ	FLAT:arcs_6_7
	ORG $+24
arcs_7_1 DW	01bH
	DW	02H
	DW	0fH
	DW	03H
arcs_7_3 DW	00H
	DW	03H
arcs_8_3 DW	01cH
	DW	08H
states_7 DD	01H
	ORG $+4
	DQ	FLAT:arcs_7_0
	ORG $+24
	DD	02H
	ORG $+4
	DQ	FLAT:arcs_7_1
	ORG $+24
	DD	01H
	ORG $+4
	DQ	FLAT:arcs_7_2
	ORG $+24
	DD	01H
	ORG $+4
	DQ	FLAT:arcs_7_3
	ORG $+24
arcs_8_0 DW	01cH
	DW	01H
	DW	01fH
	DW	02H
	DW	020H
	DW	03H
arcs_8_4 DW	018H
	DW	09H
arcs_8_1 DW	01dH
	DW	04H
	DW	01eH
	DW	05H
	DW	00H
	DW	01H
arcs_8_8 DW	00H
	DW	08H
arcs_8_2 DW	01cH
	DW	06H
	DW	01eH
	DW	07H
	DW	00H
	DW	02H
arcs_8_15 DW	018H
	DW	06H
arcs_8_5 DW	01cH
	DW	0aH
	DW	01fH
	DW	0bH
	DW	020H
	DW	03H
	DW	00H
	DW	05H
arcs_8_6 DW	01eH
	DW	07H
	DW	00H
	DW	06H
arcs_8_7 DW	01cH
	DW	0cH
	DW	020H
	DW	03H
arcs_8_9 DW	01eH
	DW	05H
	DW	00H
	DW	09H
arcs_8_10 DW	01eH
	DW	05H
	DW	01dH
	DW	04H
	DW	00H
	DW	0aH
arcs_8_17 DW	018H
	DW	0dH
arcs_8_11 DW	01cH
	DW	0dH
	DW	01eH
	DW	0eH
	DW	00H
	DW	0bH
arcs_9_0 DW	015H
	DW	01H
arcs_8_12 DW	01eH
	DW	07H
	DW	01dH
	DW	0fH
	DW	00H
	DW	0cH
arcs_9_2 DW	018H
	DW	03H
arcs_8_13 DW	01eH
	DW	0eH
	DW	00H
	DW	0dH
arcs_8_14 DW	01cH
	DW	010H
	DW	020H
	DW	03H
arcs_8_16 DW	01eH
	DW	0eH
	DW	01dH
	DW	011H
	DW	00H
	DW	010H
arcs_9_3 DW	00H
	DW	03H
arcs_9_1 DW	019H
	DW	02H
	DW	00H
	DW	01H
states_8 DD	03H
	ORG $+4
	DQ	FLAT:arcs_8_0
	ORG $+24
	DD	03H
	ORG $+4
	DQ	FLAT:arcs_8_1
	ORG $+24
	DD	03H
	ORG $+4
	DQ	FLAT:arcs_8_2
	ORG $+24
	DD	01H
	ORG $+4
	DQ	FLAT:arcs_8_3
	ORG $+24
	DD	01H
	ORG $+4
	DQ	FLAT:arcs_8_4
	ORG $+24
	DD	04H
	ORG $+4
	DQ	FLAT:arcs_8_5
	ORG $+24
	DD	02H
	ORG $+4
	DQ	FLAT:arcs_8_6
	ORG $+24
	DD	02H
	ORG $+4
	DQ	FLAT:arcs_8_7
	ORG $+24
	DD	01H
	ORG $+4
	DQ	FLAT:arcs_8_8
	ORG $+24
	DD	02H
	ORG $+4
	DQ	FLAT:arcs_8_9
	ORG $+24
	DD	03H
	ORG $+4
	DQ	FLAT:arcs_8_10
	ORG $+24
	DD	03H
	ORG $+4
	DQ	FLAT:arcs_8_11
	ORG $+24
	DD	03H
	ORG $+4
	DQ	FLAT:arcs_8_12
	ORG $+24
	DD	02H
	ORG $+4
	DQ	FLAT:arcs_8_13
	ORG $+24
	DD	02H
	ORG $+4
	DQ	FLAT:arcs_8_14
	ORG $+24
	DD	01H
	ORG $+4
	DQ	FLAT:arcs_8_15
	ORG $+24
	DD	03H
	ORG $+4
	DQ	FLAT:arcs_8_16
	ORG $+24
	DD	01H
	ORG $+4
	DQ	FLAT:arcs_8_17
	ORG $+24
states_9 DD	01H
	ORG $+4
	DQ	FLAT:arcs_9_0
	ORG $+24
	DD	02H
	ORG $+4
	DQ	FLAT:arcs_9_1
	ORG $+24
	DD	01H
	ORG $+4
	DQ	FLAT:arcs_9_2
	ORG $+24
	DD	01H
	ORG $+4
	DQ	FLAT:arcs_9_3
	ORG $+24
arcs_10_0 DW	022H
	DW	01H
	DW	01fH
	DW	02H
	DW	020H
	DW	03H
arcs_10_3 DW	022H
	DW	08H
arcs_10_1 DW	01dH
	DW	04H
	DW	01eH
	DW	05H
	DW	00H
	DW	01H
arcs_10_4 DW	018H
	DW	09H
arcs_10_2 DW	022H
	DW	06H
	DW	01eH
	DW	07H
	DW	00H
	DW	02H
arcs_10_8 DW	00H
	DW	08H
arcs_10_5 DW	022H
	DW	0aH
	DW	01fH
	DW	0bH
	DW	020H
	DW	03H
	DW	00H
	DW	05H
arcs_10_6 DW	01eH
	DW	07H
	DW	00H
	DW	06H
arcs_10_7 DW	022H
	DW	0cH
	DW	020H
	DW	03H
arcs_10_9 DW	01eH
	DW	05H
	DW	00H
	DW	09H
arcs_10_10 DW	01eH
	DW	05H
	DW	01dH
	DW	04H
	DW	00H
	DW	0aH
arcs_10_15 DW	018H
	DW	06H
arcs_10_11 DW	022H
	DW	0dH
	DW	01eH
	DW	0eH
	DW	00H
	DW	0bH
arcs_10_17 DW	018H
	DW	0dH
arcs_10_12 DW	01eH
	DW	07H
	DW	01dH
	DW	0fH
	DW	00H
	DW	0cH
arcs_11_0 DW	015H
	DW	01H
arcs_10_13 DW	01eH
	DW	0eH
	DW	00H
	DW	0dH
arcs_10_14 DW	022H
	DW	010H
	DW	020H
	DW	03H
arcs_10_16 DW	01eH
	DW	0eH
	DW	01dH
	DW	011H
	DW	00H
	DW	010H
arcs_11_1 DW	00H
	DW	01H
arcs_12_0 DW	03H
	DW	01H
	DW	04H
	DW	01H
states_10 DD	03H
	ORG $+4
	DQ	FLAT:arcs_10_0
	ORG $+24
	DD	03H
	ORG $+4
	DQ	FLAT:arcs_10_1
	ORG $+24
	DD	03H
	ORG $+4
	DQ	FLAT:arcs_10_2
	ORG $+24
	DD	01H
	ORG $+4
	DQ	FLAT:arcs_10_3
	ORG $+24
	DD	01H
	ORG $+4
	DQ	FLAT:arcs_10_4
	ORG $+24
	DD	04H
	ORG $+4
	DQ	FLAT:arcs_10_5
	ORG $+24
	DD	02H
	ORG $+4
	DQ	FLAT:arcs_10_6
	ORG $+24
	DD	02H
	ORG $+4
	DQ	FLAT:arcs_10_7
	ORG $+24
	DD	01H
	ORG $+4
	DQ	FLAT:arcs_10_8
	ORG $+24
	DD	02H
	ORG $+4
	DQ	FLAT:arcs_10_9
	ORG $+24
	DD	03H
	ORG $+4
	DQ	FLAT:arcs_10_10
	ORG $+24
	DD	03H
	ORG $+4
	DQ	FLAT:arcs_10_11
	ORG $+24
	DD	03H
	ORG $+4
	DQ	FLAT:arcs_10_12
	ORG $+24
	DD	02H
	ORG $+4
	DQ	FLAT:arcs_10_13
	ORG $+24
	DD	02H
	ORG $+4
	DQ	FLAT:arcs_10_14
	ORG $+24
	DD	01H
	ORG $+4
	DQ	FLAT:arcs_10_15
	ORG $+24
	DD	03H
	ORG $+4
	DQ	FLAT:arcs_10_16
	ORG $+24
	DD	01H
	ORG $+4
	DQ	FLAT:arcs_10_17
	ORG $+24
states_11 DD	01H
	ORG $+4
	DQ	FLAT:arcs_11_0
	ORG $+24
	DD	01H
	ORG $+4
	DQ	FLAT:arcs_11_1
	ORG $+24
arcs_12_1 DW	00H
	DW	01H
arcs_13_0 DW	023H
	DW	01H
arcs_13_1 DW	024H
	DW	02H
	DW	02H
	DW	03H
states_12 DD	02H
	ORG $+4
	DQ	FLAT:arcs_12_0
	ORG $+24
	DD	01H
	ORG $+4
	DQ	FLAT:arcs_12_1
	ORG $+24
arcs_13_2 DW	023H
	DW	01H
	DW	02H
	DW	03H
arcs_13_3 DW	00H
	DW	03H
arcs_14_1 DW	00H
	DW	01H
states_13 DD	01H
	ORG $+4
	DQ	FLAT:arcs_13_0
	ORG $+24
	DD	02H
	ORG $+4
	DQ	FLAT:arcs_13_1
	ORG $+24
	DD	02H
	ORG $+4
	DQ	FLAT:arcs_13_2
	ORG $+24
	DD	01H
	ORG $+4
	DQ	FLAT:arcs_13_3
	ORG $+24
arcs_14_0 DW	025H
	DW	01H
	DW	026H
	DW	01H
	DW	027H
	DW	01H
	DW	028H
	DW	01H
	DW	029H
	DW	01H
	DW	02aH
	DW	01H
	DW	02bH
	DW	01H
	DW	02cH
	DW	01H
states_14 DD	08H
	ORG $+4
	DQ	FLAT:arcs_14_0
	ORG $+24
	DD	01H
	ORG $+4
	DQ	FLAT:arcs_14_1
	ORG $+24
arcs_15_0 DW	02dH
	DW	01H
arcs_15_4 DW	00H
	DW	04H
arcs_15_1 DW	02eH
	DW	02H
	DW	01dH
	DW	03H
	DW	00H
	DW	01H
arcs_17_1 DW	00H
	DW	01H
arcs_15_2 DW	02fH
	DW	04H
	DW	09H
	DW	04H
arcs_15_3 DW	02fH
	DW	05H
	DW	02dH
	DW	05H
arcs_15_5 DW	01dH
	DW	03H
	DW	00H
	DW	05H
states_15 DD	01H
	ORG $+4
	DQ	FLAT:arcs_15_0
	ORG $+24
	DD	03H
	ORG $+4
	DQ	FLAT:arcs_15_1
	ORG $+24
	DD	02H
	ORG $+4
	DQ	FLAT:arcs_15_2
	ORG $+24
	DD	02H
	ORG $+4
	DQ	FLAT:arcs_15_3
	ORG $+24
	DD	01H
	ORG $+4
	DQ	FLAT:arcs_15_4
	ORG $+24
	DD	02H
	ORG $+4
	DQ	FLAT:arcs_15_5
	ORG $+24
arcs_16_0 DW	018H
	DW	01H
	DW	030H
	DW	01H
arcs_16_1 DW	01eH
	DW	02H
	DW	00H
	DW	01H
arcs_16_2 DW	018H
	DW	01H
	DW	030H
	DW	01H
	DW	00H
	DW	02H
arcs_18_0 DW	03dH
	DW	01H
states_16 DD	02H
	ORG $+4
	DQ	FLAT:arcs_16_0
	ORG $+24
	DD	02H
	ORG $+4
	DQ	FLAT:arcs_16_1
	ORG $+24
	DD	03H
	ORG $+4
	DQ	FLAT:arcs_16_2
	ORG $+24
arcs_17_0 DW	031H
	DW	01H
	DW	032H
	DW	01H
	DW	033H
	DW	01H
	DW	034H
	DW	01H
	DW	035H
	DW	01H
	DW	036H
	DW	01H
	DW	037H
	DW	01H
	DW	038H
	DW	01H
	DW	039H
	DW	01H
	DW	03aH
	DW	01H
	DW	03bH
	DW	01H
	DW	03cH
	DW	01H
arcs_18_1 DW	03eH
	DW	02H
arcs_18_2 DW	00H
	DW	02H
states_17 DD	0cH
	ORG $+4
	DQ	FLAT:arcs_17_0
	ORG $+24
	DD	01H
	ORG $+4
	DQ	FLAT:arcs_17_1
	ORG $+24
states_18 DD	01H
	ORG $+4
	DQ	FLAT:arcs_18_0
	ORG $+24
	DD	01H
	ORG $+4
	DQ	FLAT:arcs_18_1
	ORG $+24
	DD	01H
	ORG $+4
	DQ	FLAT:arcs_18_2
	ORG $+24
arcs_19_0 DW	03fH
	DW	01H
arcs_19_1 DW	00H
	DW	01H
states_19 DD	01H
	ORG $+4
	DQ	FLAT:arcs_19_0
	ORG $+24
	DD	01H
	ORG $+4
	DQ	FLAT:arcs_19_1
	ORG $+24
arcs_20_0 DW	040H
	DW	01H
	DW	041H
	DW	01H
	DW	042H
	DW	01H
	DW	043H
	DW	01H
	DW	044H
	DW	01H
arcs_20_1 DW	00H
	DW	01H
arcs_21_0 DW	045H
	DW	01H
arcs_21_1 DW	00H
	DW	01H
states_20 DD	05H
	ORG $+4
	DQ	FLAT:arcs_20_0
	ORG $+24
	DD	01H
	ORG $+4
	DQ	FLAT:arcs_20_1
	ORG $+24
states_21 DD	01H
	ORG $+4
	DQ	FLAT:arcs_21_0
	ORG $+24
	DD	01H
	ORG $+4
	DQ	FLAT:arcs_21_1
	ORG $+24
arcs_22_0 DW	046H
	DW	01H
arcs_22_1 DW	00H
	DW	01H
arcs_23_0 DW	047H
	DW	01H
arcs_23_2 DW	00H
	DW	02H
states_22 DD	01H
	ORG $+4
	DQ	FLAT:arcs_22_0
	ORG $+24
	DD	01H
	ORG $+4
	DQ	FLAT:arcs_22_1
	ORG $+24
arcs_23_1 DW	09H
	DW	02H
	DW	00H
	DW	01H
arcs_24_0 DW	02fH
	DW	01H
arcs_24_1 DW	00H
	DW	01H
states_23 DD	01H
	ORG $+4
	DQ	FLAT:arcs_23_0
	ORG $+24
	DD	02H
	ORG $+4
	DQ	FLAT:arcs_23_1
	ORG $+24
	DD	01H
	ORG $+4
	DQ	FLAT:arcs_23_2
	ORG $+24
arcs_25_0 DW	048H
	DW	01H
arcs_25_3 DW	018H
	DW	04H
states_24 DD	01H
	ORG $+4
	DQ	FLAT:arcs_24_0
	ORG $+24
	DD	01H
	ORG $+4
	DQ	FLAT:arcs_24_1
	ORG $+24
arcs_25_1 DW	018H
	DW	02H
	DW	00H
	DW	01H
arcs_25_2 DW	049H
	DW	03H
	DW	00H
	DW	02H
arcs_25_4 DW	00H
	DW	04H
arcs_26_1 DW	00H
	DW	01H
arcs_26_0 DW	04aH
	DW	01H
	DW	04bH
	DW	01H
states_25 DD	01H
	ORG $+4
	DQ	FLAT:arcs_25_0
	ORG $+24
	DD	02H
	ORG $+4
	DQ	FLAT:arcs_25_1
	ORG $+24
	DD	02H
	ORG $+4
	DQ	FLAT:arcs_25_2
	ORG $+24
	DD	01H
	ORG $+4
	DQ	FLAT:arcs_25_3
	ORG $+24
	DD	01H
	ORG $+4
	DQ	FLAT:arcs_25_4
	ORG $+24
arcs_27_0 DW	04cH
	DW	01H
arcs_27_1 DW	04dH
	DW	02H
states_26 DD	02H
	ORG $+4
	DQ	FLAT:arcs_26_0
	ORG $+24
	DD	01H
	ORG $+4
	DQ	FLAT:arcs_26_1
	ORG $+24
arcs_27_2 DW	00H
	DW	02H
arcs_28_0 DW	049H
	DW	01H
arcs_28_3 DW	04cH
	DW	04H
arcs_28_5 DW	00H
	DW	05H
states_27 DD	01H
	ORG $+4
	DQ	FLAT:arcs_27_0
	ORG $+24
	DD	01H
	ORG $+4
	DQ	FLAT:arcs_27_1
	ORG $+24
	DD	01H
	ORG $+4
	DQ	FLAT:arcs_27_2
	ORG $+24
arcs_28_1 DW	04eH
	DW	02H
	DW	04fH
	DW	02H
	DW	0cH
	DW	03H
arcs_28_6 DW	050H
	DW	07H
arcs_28_2 DW	04eH
	DW	02H
	DW	04fH
	DW	02H
	DW	0cH
	DW	03H
	DW	04cH
	DW	04H
arcs_28_4 DW	01fH
	DW	05H
	DW	0dH
	DW	06H
	DW	050H
	DW	05H
arcs_28_7 DW	0fH
	DW	05H
arcs_29_0 DW	015H
	DW	01H
arcs_29_2 DW	015H
	DW	03H
states_28 DD	01H
	ORG $+4
	DQ	FLAT:arcs_28_0
	ORG $+24
	DD	03H
	ORG $+4
	DQ	FLAT:arcs_28_1
	ORG $+24
	DD	04H
	ORG $+4
	DQ	FLAT:arcs_28_2
	ORG $+24
	DD	01H
	ORG $+4
	DQ	FLAT:arcs_28_3
	ORG $+24
	DD	03H
	ORG $+4
	DQ	FLAT:arcs_28_4
	ORG $+24
	DD	01H
	ORG $+4
	DQ	FLAT:arcs_28_5
	ORG $+24
	DD	01H
	ORG $+4
	DQ	FLAT:arcs_28_6
	ORG $+24
	DD	01H
	ORG $+4
	DQ	FLAT:arcs_28_7
	ORG $+24
arcs_29_1 DW	052H
	DW	02H
	DW	00H
	DW	01H
arcs_29_3 DW	00H
	DW	03H
arcs_30_0 DW	0cH
	DW	01H
states_29 DD	01H
	ORG $+4
	DQ	FLAT:arcs_29_0
	ORG $+24
	DD	02H
	ORG $+4
	DQ	FLAT:arcs_29_1
	ORG $+24
	DD	01H
	ORG $+4
	DQ	FLAT:arcs_29_2
	ORG $+24
	DD	01H
	ORG $+4
	DQ	FLAT:arcs_29_3
	ORG $+24
arcs_30_1 DW	052H
	DW	02H
	DW	00H
	DW	01H
arcs_30_2 DW	015H
	DW	03H
arcs_30_3 DW	00H
	DW	03H
states_30 DD	01H
	ORG $+4
	DQ	FLAT:arcs_30_0
	ORG $+24
	DD	02H
	ORG $+4
	DQ	FLAT:arcs_30_1
	ORG $+24
	DD	01H
	ORG $+4
	DQ	FLAT:arcs_30_2
	ORG $+24
	DD	01H
	ORG $+4
	DQ	FLAT:arcs_30_3
	ORG $+24
arcs_31_0 DW	051H
	DW	01H
arcs_32_0 DW	053H
	DW	01H
arcs_31_1 DW	01eH
	DW	02H
	DW	00H
	DW	01H
arcs_31_2 DW	051H
	DW	01H
	DW	00H
	DW	02H
arcs_32_1 DW	01eH
	DW	00H
	DW	00H
	DW	01H
states_31 DD	01H
	ORG $+4
	DQ	FLAT:arcs_31_0
	ORG $+24
	DD	02H
	ORG $+4
	DQ	FLAT:arcs_31_1
	ORG $+24
	DD	02H
	ORG $+4
	DQ	FLAT:arcs_31_2
	ORG $+24
arcs_33_0 DW	015H
	DW	01H
arcs_34_0 DW	054H
	DW	01H
states_32 DD	01H
	ORG $+4
	DQ	FLAT:arcs_32_0
	ORG $+24
	DD	02H
	ORG $+4
	DQ	FLAT:arcs_32_1
	ORG $+24
arcs_33_1 DW	04eH
	DW	00H
	DW	00H
	DW	01H
arcs_34_1 DW	015H
	DW	02H
arcs_35_0 DW	055H
	DW	01H
states_33 DD	01H
	ORG $+4
	DQ	FLAT:arcs_33_0
	ORG $+24
	DD	02H
	ORG $+4
	DQ	FLAT:arcs_33_1
	ORG $+24
arcs_34_2 DW	01eH
	DW	01H
	DW	00H
	DW	02H
arcs_35_1 DW	015H
	DW	02H
arcs_36_0 DW	056H
	DW	01H
states_34 DD	01H
	ORG $+4
	DQ	FLAT:arcs_34_0
	ORG $+24
	DD	01H
	ORG $+4
	DQ	FLAT:arcs_34_1
	ORG $+24
	DD	02H
	ORG $+4
	DQ	FLAT:arcs_34_2
	ORG $+24
arcs_35_2 DW	01eH
	DW	01H
	DW	00H
	DW	02H
states_35 DD	01H
	ORG $+4
	DQ	FLAT:arcs_35_0
	ORG $+24
	DD	01H
	ORG $+4
	DQ	FLAT:arcs_35_1
	ORG $+24
	DD	02H
	ORG $+4
	DQ	FLAT:arcs_35_2
	ORG $+24
arcs_36_1 DW	018H
	DW	02H
arcs_36_3 DW	018H
	DW	04H
arcs_36_2 DW	01eH
	DW	03H
	DW	00H
	DW	02H
arcs_36_4 DW	00H
	DW	04H
arcs_37_1 DW	00H
	DW	01H
states_36 DD	01H
	ORG $+4
	DQ	FLAT:arcs_36_0
	ORG $+24
	DD	01H
	ORG $+4
	DQ	FLAT:arcs_36_1
	ORG $+24
	DD	02H
	ORG $+4
	DQ	FLAT:arcs_36_2
	ORG $+24
	DD	01H
	ORG $+4
	DQ	FLAT:arcs_36_3
	ORG $+24
	DD	01H
	ORG $+4
	DQ	FLAT:arcs_36_4
	ORG $+24
arcs_37_0 DW	057H
	DW	01H
	DW	058H
	DW	01H
	DW	059H
	DW	01H
	DW	05aH
	DW	01H
	DW	05bH
	DW	01H
	DW	013H
	DW	01H
	DW	012H
	DW	01H
	DW	011H
	DW	01H
arcs_38_0 DW	05cH
	DW	01H
arcs_38_1 DW	018H
	DW	02H
states_37 DD	08H
	ORG $+4
	DQ	FLAT:arcs_37_0
	ORG $+24
	DD	01H
	ORG $+4
	DQ	FLAT:arcs_37_1
	ORG $+24
arcs_38_2 DW	019H
	DW	03H
arcs_38_3 DW	01aH
	DW	04H
arcs_38_4 DW	05dH
	DW	01H
	DW	05eH
	DW	05H
	DW	00H
	DW	04H
arcs_38_5 DW	019H
	DW	06H
arcs_38_6 DW	01aH
	DW	07H
arcs_38_7 DW	00H
	DW	07H
states_38 DD	01H
	ORG $+4
	DQ	FLAT:arcs_38_0
	ORG $+24
	DD	01H
	ORG $+4
	DQ	FLAT:arcs_38_1
	ORG $+24
	DD	01H
	ORG $+4
	DQ	FLAT:arcs_38_2
	ORG $+24
	DD	01H
	ORG $+4
	DQ	FLAT:arcs_38_3
	ORG $+24
	DD	03H
	ORG $+4
	DQ	FLAT:arcs_38_4
	ORG $+24
	DD	01H
	ORG $+4
	DQ	FLAT:arcs_38_5
	ORG $+24
	DD	01H
	ORG $+4
	DQ	FLAT:arcs_38_6
	ORG $+24
	DD	01H
	ORG $+4
	DQ	FLAT:arcs_38_7
	ORG $+24
arcs_39_0 DW	05fH
	DW	01H
arcs_39_1 DW	018H
	DW	02H
arcs_39_2 DW	019H
	DW	03H
arcs_39_3 DW	01aH
	DW	04H
arcs_39_4 DW	05eH
	DW	05H
	DW	00H
	DW	04H
arcs_39_5 DW	019H
	DW	06H
arcs_39_6 DW	01aH
	DW	07H
arcs_39_7 DW	00H
	DW	07H
arcs_40_0 DW	060H
	DW	01H
arcs_40_1 DW	03eH
	DW	02H
arcs_40_2 DW	061H
	DW	03H
states_39 DD	01H
	ORG $+4
	DQ	FLAT:arcs_39_0
	ORG $+24
	DD	01H
	ORG $+4
	DQ	FLAT:arcs_39_1
	ORG $+24
	DD	01H
	ORG $+4
	DQ	FLAT:arcs_39_2
	ORG $+24
	DD	01H
	ORG $+4
	DQ	FLAT:arcs_39_3
	ORG $+24
	DD	02H
	ORG $+4
	DQ	FLAT:arcs_39_4
	ORG $+24
	DD	01H
	ORG $+4
	DQ	FLAT:arcs_39_5
	ORG $+24
	DD	01H
	ORG $+4
	DQ	FLAT:arcs_39_6
	ORG $+24
	DD	01H
	ORG $+4
	DQ	FLAT:arcs_39_7
	ORG $+24
arcs_40_3 DW	09H
	DW	04H
arcs_40_4 DW	019H
	DW	05H
arcs_40_5 DW	01aH
	DW	06H
arcs_40_7 DW	019H
	DW	08H
arcs_40_6 DW	05eH
	DW	07H
	DW	00H
	DW	06H
arcs_40_8 DW	01aH
	DW	09H
arcs_40_9 DW	00H
	DW	09H
states_40 DD	01H
	ORG $+4
	DQ	FLAT:arcs_40_0
	ORG $+24
	DD	01H
	ORG $+4
	DQ	FLAT:arcs_40_1
	ORG $+24
	DD	01H
	ORG $+4
	DQ	FLAT:arcs_40_2
	ORG $+24
	DD	01H
	ORG $+4
	DQ	FLAT:arcs_40_3
	ORG $+24
	DD	01H
	ORG $+4
	DQ	FLAT:arcs_40_4
	ORG $+24
	DD	01H
	ORG $+4
	DQ	FLAT:arcs_40_5
	ORG $+24
	DD	02H
	ORG $+4
	DQ	FLAT:arcs_40_6
	ORG $+24
	DD	01H
	ORG $+4
	DQ	FLAT:arcs_40_7
	ORG $+24
	DD	01H
	ORG $+4
	DQ	FLAT:arcs_40_8
	ORG $+24
	DD	01H
	ORG $+4
	DQ	FLAT:arcs_40_9
	ORG $+24
arcs_41_0 DW	062H
	DW	01H
arcs_41_1 DW	019H
	DW	02H
arcs_41_2 DW	01aH
	DW	03H
arcs_41_4 DW	019H
	DW	06H
arcs_41_3 DW	063H
	DW	04H
	DW	064H
	DW	05H
arcs_41_5 DW	019H
	DW	07H
arcs_41_6 DW	01aH
	DW	08H
arcs_41_7 DW	01aH
	DW	09H
arcs_41_9 DW	00H
	DW	09H
arcs_41_8 DW	063H
	DW	04H
	DW	05eH
	DW	0aH
	DW	064H
	DW	05H
	DW	00H
	DW	08H
arcs_41_10 DW	019H
	DW	0bH
arcs_41_11 DW	01aH
	DW	0cH
arcs_41_12 DW	064H
	DW	05H
	DW	00H
	DW	0cH
arcs_42_0 DW	065H
	DW	01H
arcs_42_1 DW	066H
	DW	02H
states_41 DD	01H
	ORG $+4
	DQ	FLAT:arcs_41_0
	ORG $+24
	DD	01H
	ORG $+4
	DQ	FLAT:arcs_41_1
	ORG $+24
	DD	01H
	ORG $+4
	DQ	FLAT:arcs_41_2
	ORG $+24
	DD	02H
	ORG $+4
	DQ	FLAT:arcs_41_3
	ORG $+24
	DD	01H
	ORG $+4
	DQ	FLAT:arcs_41_4
	ORG $+24
	DD	01H
	ORG $+4
	DQ	FLAT:arcs_41_5
	ORG $+24
	DD	01H
	ORG $+4
	DQ	FLAT:arcs_41_6
	ORG $+24
	DD	01H
	ORG $+4
	DQ	FLAT:arcs_41_7
	ORG $+24
	DD	04H
	ORG $+4
	DQ	FLAT:arcs_41_8
	ORG $+24
	DD	01H
	ORG $+4
	DQ	FLAT:arcs_41_9
	ORG $+24
	DD	01H
	ORG $+4
	DQ	FLAT:arcs_41_10
	ORG $+24
	DD	01H
	ORG $+4
	DQ	FLAT:arcs_41_11
	ORG $+24
	DD	02H
	ORG $+4
	DQ	FLAT:arcs_41_12
	ORG $+24
arcs_42_2 DW	01eH
	DW	01H
	DW	019H
	DW	03H
arcs_42_3 DW	01aH
	DW	04H
arcs_42_4 DW	00H
	DW	04H
arcs_43_0 DW	018H
	DW	01H
arcs_43_2 DW	067H
	DW	03H
states_42 DD	01H
	ORG $+4
	DQ	FLAT:arcs_42_0
	ORG $+24
	DD	01H
	ORG $+4
	DQ	FLAT:arcs_42_1
	ORG $+24
	DD	02H
	ORG $+4
	DQ	FLAT:arcs_42_2
	ORG $+24
	DD	01H
	ORG $+4
	DQ	FLAT:arcs_42_3
	ORG $+24
	DD	01H
	ORG $+4
	DQ	FLAT:arcs_42_4
	ORG $+24
arcs_43_1 DW	052H
	DW	02H
	DW	00H
	DW	01H
arcs_43_3 DW	00H
	DW	03H
arcs_44_0 DW	068H
	DW	01H
arcs_44_1 DW	018H
	DW	02H
	DW	00H
	DW	01H
states_43 DD	01H
	ORG $+4
	DQ	FLAT:arcs_43_0
	ORG $+24
	DD	02H
	ORG $+4
	DQ	FLAT:arcs_43_1
	ORG $+24
	DD	01H
	ORG $+4
	DQ	FLAT:arcs_43_2
	ORG $+24
	DD	01H
	ORG $+4
	DQ	FLAT:arcs_43_3
	ORG $+24
arcs_44_2 DW	052H
	DW	03H
	DW	00H
	DW	02H
arcs_44_3 DW	015H
	DW	04H
arcs_44_4 DW	00H
	DW	04H
states_44 DD	01H
	ORG $+4
	DQ	FLAT:arcs_44_0
	ORG $+24
	DD	02H
	ORG $+4
	DQ	FLAT:arcs_44_1
	ORG $+24
	DD	02H
	ORG $+4
	DQ	FLAT:arcs_44_2
	ORG $+24
	DD	01H
	ORG $+4
	DQ	FLAT:arcs_44_3
	ORG $+24
	DD	01H
	ORG $+4
	DQ	FLAT:arcs_44_4
	ORG $+24
arcs_45_0 DW	03H
	DW	01H
	DW	02H
	DW	02H
arcs_45_1 DW	00H
	DW	01H
arcs_45_2 DW	069H
	DW	03H
arcs_45_3 DW	06H
	DW	04H
arcs_46_2 DW	00H
	DW	02H
arcs_45_4 DW	06H
	DW	04H
	DW	06aH
	DW	01H
arcs_46_0 DW	06bH
	DW	01H
	DW	06cH
	DW	02H
states_45 DD	02H
	ORG $+4
	DQ	FLAT:arcs_45_0
	ORG $+24
	DD	01H
	ORG $+4
	DQ	FLAT:arcs_45_1
	ORG $+24
	DD	01H
	ORG $+4
	DQ	FLAT:arcs_45_2
	ORG $+24
	DD	01H
	ORG $+4
	DQ	FLAT:arcs_45_3
	ORG $+24
	DD	02H
	ORG $+4
	DQ	FLAT:arcs_45_4
	ORG $+24
arcs_46_1 DW	05cH
	DW	03H
	DW	00H
	DW	01H
arcs_46_3 DW	06bH
	DW	04H
arcs_46_4 DW	05eH
	DW	05H
arcs_46_5 DW	018H
	DW	02H
arcs_47_1 DW	00H
	DW	01H
states_46 DD	02H
	ORG $+4
	DQ	FLAT:arcs_46_0
	ORG $+24
	DD	02H
	ORG $+4
	DQ	FLAT:arcs_46_1
	ORG $+24
	DD	01H
	ORG $+4
	DQ	FLAT:arcs_46_2
	ORG $+24
	DD	01H
	ORG $+4
	DQ	FLAT:arcs_46_3
	ORG $+24
	DD	01H
	ORG $+4
	DQ	FLAT:arcs_46_4
	ORG $+24
	DD	01H
	ORG $+4
	DQ	FLAT:arcs_46_5
	ORG $+24
arcs_47_0 DW	06bH
	DW	01H
	DW	06eH
	DW	01H
arcs_48_0 DW	06fH
	DW	01H
arcs_48_2 DW	019H
	DW	03H
states_47 DD	02H
	ORG $+4
	DQ	FLAT:arcs_47_0
	ORG $+24
	DD	01H
	ORG $+4
	DQ	FLAT:arcs_47_1
	ORG $+24
arcs_48_1 DW	021H
	DW	02H
	DW	019H
	DW	03H
arcs_48_3 DW	018H
	DW	04H
arcs_48_4 DW	00H
	DW	04H
states_48 DD	01H
	ORG $+4
	DQ	FLAT:arcs_48_0
	ORG $+24
	DD	02H
	ORG $+4
	DQ	FLAT:arcs_48_1
	ORG $+24
	DD	01H
	ORG $+4
	DQ	FLAT:arcs_48_2
	ORG $+24
	DD	01H
	ORG $+4
	DQ	FLAT:arcs_48_3
	ORG $+24
	DD	01H
	ORG $+4
	DQ	FLAT:arcs_48_4
	ORG $+24
arcs_49_0 DW	06fH
	DW	01H
arcs_49_2 DW	019H
	DW	03H
arcs_49_1 DW	021H
	DW	02H
	DW	019H
	DW	03H
arcs_49_3 DW	06dH
	DW	04H
arcs_49_4 DW	00H
	DW	04H
states_49 DD	01H
	ORG $+4
	DQ	FLAT:arcs_49_0
	ORG $+24
	DD	02H
	ORG $+4
	DQ	FLAT:arcs_49_1
	ORG $+24
	DD	01H
	ORG $+4
	DQ	FLAT:arcs_49_2
	ORG $+24
	DD	01H
	ORG $+4
	DQ	FLAT:arcs_49_3
	ORG $+24
	DD	01H
	ORG $+4
	DQ	FLAT:arcs_49_4
	ORG $+24
arcs_50_0 DW	070H
	DW	01H
arcs_51_0 DW	072H
	DW	01H
arcs_50_1 DW	071H
	DW	00H
	DW	00H
	DW	01H
arcs_51_1 DW	073H
	DW	00H
	DW	00H
	DW	01H
states_50 DD	01H
	ORG $+4
	DQ	FLAT:arcs_50_0
	ORG $+24
	DD	02H
	ORG $+4
	DQ	FLAT:arcs_50_1
	ORG $+24
states_51 DD	01H
	ORG $+4
	DQ	FLAT:arcs_51_0
	ORG $+24
	DD	02H
	ORG $+4
	DQ	FLAT:arcs_51_1
	ORG $+24
arcs_52_0 DW	074H
	DW	01H
	DW	075H
	DW	02H
arcs_52_1 DW	072H
	DW	02H
arcs_52_2 DW	00H
	DW	02H
states_52 DD	02H
	ORG $+4
	DQ	FLAT:arcs_52_0
	ORG $+24
	DD	01H
	ORG $+4
	DQ	FLAT:arcs_52_1
	ORG $+24
	DD	01H
	ORG $+4
	DQ	FLAT:arcs_52_2
	ORG $+24
arcs_53_0 DW	067H
	DW	01H
arcs_54_1 DW	00H
	DW	01H
arcs_53_1 DW	076H
	DW	00H
	DW	00H
	DW	01H
arcs_54_0 DW	077H
	DW	01H
	DW	078H
	DW	01H
	DW	079H
	DW	01H
	DW	07aH
	DW	01H
	DW	07bH
	DW	01H
	DW	07cH
	DW	01H
	DW	07dH
	DW	01H
	DW	061H
	DW	01H
	DW	074H
	DW	02H
	DW	07eH
	DW	03H
states_53 DD	01H
	ORG $+4
	DQ	FLAT:arcs_53_0
	ORG $+24
	DD	02H
	ORG $+4
	DQ	FLAT:arcs_53_1
	ORG $+24
arcs_54_2 DW	061H
	DW	01H
arcs_55_0 DW	01fH
	DW	01H
arcs_54_3 DW	074H
	DW	01H
	DW	00H
	DW	03H
states_54 DD	0aH
	ORG $+4
	DQ	FLAT:arcs_54_0
	ORG $+24
	DD	01H
	ORG $+4
	DQ	FLAT:arcs_54_1
	ORG $+24
	DD	01H
	ORG $+4
	DQ	FLAT:arcs_54_2
	ORG $+24
	DD	02H
	ORG $+4
	DQ	FLAT:arcs_54_3
	ORG $+24
arcs_55_1 DW	067H
	DW	02H
arcs_55_2 DW	00H
	DW	02H
arcs_56_0 DW	07fH
	DW	01H
arcs_57_0 DW	081H
	DW	01H
states_55 DD	01H
	ORG $+4
	DQ	FLAT:arcs_55_0
	ORG $+24
	DD	01H
	ORG $+4
	DQ	FLAT:arcs_55_1
	ORG $+24
	DD	01H
	ORG $+4
	DQ	FLAT:arcs_55_2
	ORG $+24
arcs_56_1 DW	080H
	DW	00H
	DW	00H
	DW	01H
states_56 DD	01H
	ORG $+4
	DQ	FLAT:arcs_56_0
	ORG $+24
	DD	02H
	ORG $+4
	DQ	FLAT:arcs_56_1
	ORG $+24
arcs_57_1 DW	082H
	DW	00H
	DW	00H
	DW	01H
arcs_58_0 DW	083H
	DW	01H
arcs_59_0 DW	085H
	DW	01H
states_57 DD	01H
	ORG $+4
	DQ	FLAT:arcs_57_0
	ORG $+24
	DD	02H
	ORG $+4
	DQ	FLAT:arcs_57_1
	ORG $+24
arcs_58_1 DW	084H
	DW	00H
	DW	00H
	DW	01H
arcs_60_0 DW	088H
	DW	01H
arcs_61_0 DW	08bH
	DW	01H
states_58 DD	01H
	ORG $+4
	DQ	FLAT:arcs_58_0
	ORG $+24
	DD	02H
	ORG $+4
	DQ	FLAT:arcs_58_1
	ORG $+24
arcs_59_1 DW	086H
	DW	00H
	DW	087H
	DW	00H
	DW	00H
	DW	01H
arcs_62_1 DW	08bH
	DW	02H
states_59 DD	01H
	ORG $+4
	DQ	FLAT:arcs_59_0
	ORG $+24
	DD	03H
	ORG $+4
	DQ	FLAT:arcs_59_1
	ORG $+24
arcs_60_1 DW	089H
	DW	00H
	DW	08aH
	DW	00H
	DW	00H
	DW	01H
arcs_62_2 DW	00H
	DW	02H
states_60 DD	01H
	ORG $+4
	DQ	FLAT:arcs_60_0
	ORG $+24
	DD	03H
	ORG $+4
	DQ	FLAT:arcs_60_1
	ORG $+24
arcs_61_1 DW	01fH
	DW	00H
	DW	08cH
	DW	00H
	DW	08dH
	DW	00H
	DW	08eH
	DW	00H
	DW	00H
	DW	01H
arcs_63_0 DW	091H
	DW	01H
arcs_63_2 DW	08bH
	DW	03H
arcs_63_3 DW	00H
	DW	03H
states_61 DD	01H
	ORG $+4
	DQ	FLAT:arcs_61_0
	ORG $+24
	DD	05H
	ORG $+4
	DQ	FLAT:arcs_61_1
	ORG $+24
arcs_62_0 DW	089H
	DW	01H
	DW	08aH
	DW	01H
	DW	08fH
	DW	01H
	DW	090H
	DW	02H
states_62 DD	04H
	ORG $+4
	DQ	FLAT:arcs_62_0
	ORG $+24
	DD	01H
	ORG $+4
	DQ	FLAT:arcs_62_1
	ORG $+24
	DD	01H
	ORG $+4
	DQ	FLAT:arcs_62_2
	ORG $+24
arcs_63_1 DW	092H
	DW	01H
	DW	020H
	DW	02H
	DW	00H
	DW	01H
arcs_64_4 DW	00H
	DW	04H
arcs_64_0 DW	0dH
	DW	01H
	DW	094H
	DW	02H
	DW	096H
	DW	03H
	DW	015H
	DW	04H
	DW	099H
	DW	04H
	DW	09aH
	DW	05H
	DW	04fH
	DW	04H
	DW	09bH
	DW	04H
	DW	09cH
	DW	04H
	DW	09dH
	DW	04H
states_63 DD	01H
	ORG $+4
	DQ	FLAT:arcs_63_0
	ORG $+24
	DD	03H
	ORG $+4
	DQ	FLAT:arcs_63_1
	ORG $+24
	DD	01H
	ORG $+4
	DQ	FLAT:arcs_63_2
	ORG $+24
	DD	01H
	ORG $+4
	DQ	FLAT:arcs_63_3
	ORG $+24
arcs_64_1 DW	02fH
	DW	06H
	DW	093H
	DW	06H
	DW	0fH
	DW	04H
arcs_64_6 DW	0fH
	DW	04H
arcs_64_2 DW	093H
	DW	07H
	DW	095H
	DW	04H
arcs_64_3 DW	097H
	DW	08H
	DW	098H
	DW	04H
arcs_64_5 DW	09aH
	DW	05H
	DW	00H
	DW	05H
arcs_64_7 DW	095H
	DW	04H
arcs_64_8 DW	098H
	DW	04H
states_64 DD	0aH
	ORG $+4
	DQ	FLAT:arcs_64_0
	ORG $+24
	DD	03H
	ORG $+4
	DQ	FLAT:arcs_64_1
	ORG $+24
	DD	02H
	ORG $+4
	DQ	FLAT:arcs_64_2
	ORG $+24
	DD	02H
	ORG $+4
	DQ	FLAT:arcs_64_3
	ORG $+24
	DD	01H
	ORG $+4
	DQ	FLAT:arcs_64_4
	ORG $+24
	DD	02H
	ORG $+4
	DQ	FLAT:arcs_64_5
	ORG $+24
	DD	01H
	ORG $+4
	DQ	FLAT:arcs_64_6
	ORG $+24
	DD	01H
	ORG $+4
	DQ	FLAT:arcs_64_7
	ORG $+24
	DD	01H
	ORG $+4
	DQ	FLAT:arcs_64_8
	ORG $+24
arcs_65_0 DW	018H
	DW	01H
	DW	030H
	DW	01H
arcs_65_1 DW	09eH
	DW	02H
	DW	01eH
	DW	03H
	DW	00H
	DW	01H
arcs_65_2 DW	00H
	DW	02H
arcs_65_3 DW	018H
	DW	04H
	DW	030H
	DW	04H
	DW	00H
	DW	03H
arcs_66_2 DW	09fH
	DW	06H
arcs_65_4 DW	01eH
	DW	03H
	DW	00H
	DW	04H
arcs_66_1 DW	0eH
	DW	04H
	DW	0fH
	DW	05H
states_65 DD	02H
	ORG $+4
	DQ	FLAT:arcs_65_0
	ORG $+24
	DD	03H
	ORG $+4
	DQ	FLAT:arcs_65_1
	ORG $+24
	DD	01H
	ORG $+4
	DQ	FLAT:arcs_65_2
	ORG $+24
	DD	03H
	ORG $+4
	DQ	FLAT:arcs_65_3
	ORG $+24
	DD	02H
	ORG $+4
	DQ	FLAT:arcs_65_4
	ORG $+24
arcs_66_0 DW	0dH
	DW	01H
	DW	094H
	DW	02H
	DW	04eH
	DW	03H
arcs_66_3 DW	015H
	DW	05H
arcs_66_4 DW	0fH
	DW	05H
arcs_66_5 DW	00H
	DW	05H
arcs_66_6 DW	095H
	DW	05H
arcs_67_0 DW	0a0H
	DW	01H
arcs_67_1 DW	01eH
	DW	02H
	DW	00H
	DW	01H
states_66 DD	03H
	ORG $+4
	DQ	FLAT:arcs_66_0
	ORG $+24
	DD	02H
	ORG $+4
	DQ	FLAT:arcs_66_1
	ORG $+24
	DD	01H
	ORG $+4
	DQ	FLAT:arcs_66_2
	ORG $+24
	DD	01H
	ORG $+4
	DQ	FLAT:arcs_66_3
	ORG $+24
	DD	01H
	ORG $+4
	DQ	FLAT:arcs_66_4
	ORG $+24
	DD	01H
	ORG $+4
	DQ	FLAT:arcs_66_5
	ORG $+24
	DD	01H
	ORG $+4
	DQ	FLAT:arcs_66_6
	ORG $+24
arcs_67_2 DW	0a0H
	DW	01H
	DW	00H
	DW	02H
states_67 DD	01H
	ORG $+4
	DQ	FLAT:arcs_67_0
	ORG $+24
	DD	02H
	ORG $+4
	DQ	FLAT:arcs_67_1
	ORG $+24
	DD	02H
	ORG $+4
	DQ	FLAT:arcs_67_2
	ORG $+24
arcs_68_0 DW	018H
	DW	01H
	DW	019H
	DW	02H
arcs_68_1 DW	019H
	DW	02H
	DW	00H
	DW	01H
arcs_68_2 DW	018H
	DW	03H
	DW	0a1H
	DW	04H
	DW	00H
	DW	02H
arcs_68_4 DW	00H
	DW	04H
arcs_68_3 DW	0a1H
	DW	04H
	DW	00H
	DW	03H
states_68 DD	02H
	ORG $+4
	DQ	FLAT:arcs_68_0
	ORG $+24
	DD	02H
	ORG $+4
	DQ	FLAT:arcs_68_1
	ORG $+24
	DD	03H
	ORG $+4
	DQ	FLAT:arcs_68_2
	ORG $+24
	DD	02H
	ORG $+4
	DQ	FLAT:arcs_68_3
	ORG $+24
	DD	01H
	ORG $+4
	DQ	FLAT:arcs_68_4
	ORG $+24
arcs_69_0 DW	019H
	DW	01H
arcs_69_2 DW	00H
	DW	02H
arcs_69_1 DW	018H
	DW	02H
	DW	00H
	DW	01H
arcs_70_0 DW	067H
	DW	01H
	DW	030H
	DW	01H
states_69 DD	01H
	ORG $+4
	DQ	FLAT:arcs_69_0
	ORG $+24
	DD	02H
	ORG $+4
	DQ	FLAT:arcs_69_1
	ORG $+24
	DD	01H
	ORG $+4
	DQ	FLAT:arcs_69_2
	ORG $+24
arcs_70_1 DW	01eH
	DW	02H
	DW	00H
	DW	01H
arcs_70_2 DW	067H
	DW	01H
	DW	030H
	DW	01H
	DW	00H
	DW	02H
arcs_71_0 DW	018H
	DW	01H
states_70 DD	02H
	ORG $+4
	DQ	FLAT:arcs_70_0
	ORG $+24
	DD	02H
	ORG $+4
	DQ	FLAT:arcs_70_1
	ORG $+24
	DD	03H
	ORG $+4
	DQ	FLAT:arcs_70_2
	ORG $+24
arcs_71_1 DW	01eH
	DW	02H
	DW	00H
	DW	01H
arcs_71_2 DW	018H
	DW	01H
	DW	00H
	DW	02H
arcs_72_0 DW	018H
	DW	01H
arcs_72_2 DW	018H
	DW	05H
states_71 DD	01H
	ORG $+4
	DQ	FLAT:arcs_71_0
	ORG $+24
	DD	02H
	ORG $+4
	DQ	FLAT:arcs_71_1
	ORG $+24
	DD	02H
	ORG $+4
	DQ	FLAT:arcs_71_2
	ORG $+24
arcs_72_1 DW	019H
	DW	02H
	DW	09eH
	DW	03H
	DW	01eH
	DW	04H
	DW	00H
	DW	01H
arcs_72_3 DW	00H
	DW	03H
arcs_72_8 DW	019H
	DW	09H
arcs_72_4 DW	018H
	DW	06H
	DW	00H
	DW	04H
arcs_72_5 DW	09eH
	DW	03H
	DW	01eH
	DW	07H
	DW	00H
	DW	05H
arcs_72_9 DW	018H
	DW	0aH
arcs_72_6 DW	01eH
	DW	04H
	DW	00H
	DW	06H
arcs_72_7 DW	018H
	DW	08H
	DW	00H
	DW	07H
arcs_72_10 DW	01eH
	DW	07H
	DW	00H
	DW	0aH
states_72 DD	01H
	ORG $+4
	DQ	FLAT:arcs_72_0
	ORG $+24
	DD	04H
	ORG $+4
	DQ	FLAT:arcs_72_1
	ORG $+24
	DD	01H
	ORG $+4
	DQ	FLAT:arcs_72_2
	ORG $+24
	DD	01H
	ORG $+4
	DQ	FLAT:arcs_72_3
	ORG $+24
	DD	02H
	ORG $+4
	DQ	FLAT:arcs_72_4
	ORG $+24
	DD	03H
	ORG $+4
	DQ	FLAT:arcs_72_5
	ORG $+24
	DD	02H
	ORG $+4
	DQ	FLAT:arcs_72_6
	ORG $+24
	DD	02H
	ORG $+4
	DQ	FLAT:arcs_72_7
	ORG $+24
	DD	01H
	ORG $+4
	DQ	FLAT:arcs_72_8
	ORG $+24
	DD	01H
	ORG $+4
	DQ	FLAT:arcs_72_9
	ORG $+24
	DD	02H
	ORG $+4
	DQ	FLAT:arcs_72_10
	ORG $+24
arcs_73_0 DW	0a2H
	DW	01H
arcs_73_1 DW	015H
	DW	02H
arcs_73_2 DW	0dH
	DW	03H
	DW	019H
	DW	04H
arcs_73_3 DW	0eH
	DW	05H
	DW	0fH
	DW	06H
arcs_73_4 DW	01aH
	DW	07H
arcs_73_5 DW	0fH
	DW	06H
arcs_73_6 DW	019H
	DW	04H
arcs_73_7 DW	00H
	DW	07H
states_73 DD	01H
	ORG $+4
	DQ	FLAT:arcs_73_0
	ORG $+24
	DD	01H
	ORG $+4
	DQ	FLAT:arcs_73_1
	ORG $+24
	DD	02H
	ORG $+4
	DQ	FLAT:arcs_73_2
	ORG $+24
	DD	02H
	ORG $+4
	DQ	FLAT:arcs_73_3
	ORG $+24
	DD	01H
	ORG $+4
	DQ	FLAT:arcs_73_4
	ORG $+24
	DD	01H
	ORG $+4
	DQ	FLAT:arcs_73_5
	ORG $+24
	DD	01H
	ORG $+4
	DQ	FLAT:arcs_73_6
	ORG $+24
	DD	01H
	ORG $+4
	DQ	FLAT:arcs_73_7
	ORG $+24
arcs_74_0 DW	0a3H
	DW	01H
	DW	01fH
	DW	02H
	DW	020H
	DW	03H
arcs_74_2 DW	018H
	DW	05H
arcs_74_1 DW	01eH
	DW	04H
	DW	00H
	DW	01H
arcs_74_3 DW	018H
	DW	06H
arcs_74_6 DW	00H
	DW	06H
arcs_74_4 DW	0a3H
	DW	01H
	DW	01fH
	DW	02H
	DW	020H
	DW	03H
	DW	00H
	DW	04H
arcs_74_5 DW	01eH
	DW	07H
	DW	00H
	DW	05H
arcs_74_7 DW	0a3H
	DW	05H
	DW	020H
	DW	03H
states_74 DD	03H
	ORG $+4
	DQ	FLAT:arcs_74_0
	ORG $+24
	DD	02H
	ORG $+4
	DQ	FLAT:arcs_74_1
	ORG $+24
	DD	01H
	ORG $+4
	DQ	FLAT:arcs_74_2
	ORG $+24
	DD	01H
	ORG $+4
	DQ	FLAT:arcs_74_3
	ORG $+24
	DD	04H
	ORG $+4
	DQ	FLAT:arcs_74_4
	ORG $+24
	DD	02H
	ORG $+4
	DQ	FLAT:arcs_74_5
	ORG $+24
	DD	01H
	ORG $+4
	DQ	FLAT:arcs_74_6
	ORG $+24
	DD	02H
	ORG $+4
	DQ	FLAT:arcs_74_7
	ORG $+24
arcs_75_0 DW	018H
	DW	01H
arcs_75_2 DW	00H
	DW	02H
arcs_75_1 DW	09eH
	DW	02H
	DW	01dH
	DW	03H
	DW	00H
	DW	01H
arcs_75_3 DW	018H
	DW	02H
arcs_76_0 DW	09eH
	DW	01H
	DW	0a5H
	DW	01H
states_75 DD	01H
	ORG $+4
	DQ	FLAT:arcs_75_0
	ORG $+24
	DD	03H
	ORG $+4
	DQ	FLAT:arcs_75_1
	ORG $+24
	DD	01H
	ORG $+4
	DQ	FLAT:arcs_75_2
	ORG $+24
	DD	01H
	ORG $+4
	DQ	FLAT:arcs_75_3
	ORG $+24
arcs_76_1 DW	00H
	DW	01H
arcs_77_0 DW	060H
	DW	01H
arcs_77_1 DW	03eH
	DW	02H
arcs_77_2 DW	061H
	DW	03H
states_76 DD	02H
	ORG $+4
	DQ	FLAT:arcs_76_0
	ORG $+24
	DD	01H
	ORG $+4
	DQ	FLAT:arcs_76_1
	ORG $+24
arcs_77_3 DW	06bH
	DW	04H
arcs_77_5 DW	00H
	DW	05H
arcs_77_4 DW	0a4H
	DW	05H
	DW	00H
	DW	04H
states_77 DD	01H
	ORG $+4
	DQ	FLAT:arcs_77_0
	ORG $+24
	DD	01H
	ORG $+4
	DQ	FLAT:arcs_77_1
	ORG $+24
	DD	01H
	ORG $+4
	DQ	FLAT:arcs_77_2
	ORG $+24
	DD	01H
	ORG $+4
	DQ	FLAT:arcs_77_3
	ORG $+24
	DD	02H
	ORG $+4
	DQ	FLAT:arcs_77_4
	ORG $+24
	DD	01H
	ORG $+4
	DQ	FLAT:arcs_77_5
	ORG $+24
arcs_78_0 DW	05cH
	DW	01H
arcs_78_1 DW	06dH
	DW	02H
arcs_78_2 DW	0a4H
	DW	03H
	DW	00H
	DW	02H
arcs_78_3 DW	00H
	DW	03H
arcs_79_0 DW	015H
	DW	01H
arcs_79_1 DW	00H
	DW	01H
arcs_80_0 DW	0a7H
	DW	01H
states_78 DD	01H
	ORG $+4
	DQ	FLAT:arcs_78_0
	ORG $+24
	DD	01H
	ORG $+4
	DQ	FLAT:arcs_78_1
	ORG $+24
	DD	02H
	ORG $+4
	DQ	FLAT:arcs_78_2
	ORG $+24
	DD	01H
	ORG $+4
	DQ	FLAT:arcs_78_3
	ORG $+24
states_79 DD	01H
	ORG $+4
	DQ	FLAT:arcs_79_0
	ORG $+24
	DD	01H
	ORG $+4
	DQ	FLAT:arcs_79_1
	ORG $+24
arcs_80_1 DW	0a8H
	DW	02H
	DW	00H
	DW	01H
arcs_80_2 DW	00H
	DW	02H
arcs_81_1 DW	018H
	DW	02H
states_80 DD	01H
	ORG $+4
	DQ	FLAT:arcs_80_0
	ORG $+24
	DD	02H
	ORG $+4
	DQ	FLAT:arcs_80_1
	ORG $+24
	DD	01H
	ORG $+4
	DQ	FLAT:arcs_80_2
	ORG $+24
arcs_81_0 DW	049H
	DW	01H
	DW	09H
	DW	02H
arcs_81_2 DW	00H
	DW	02H
	ORG $+12
states_81 DD	02H
	ORG $+4
	DQ	FLAT:arcs_81_0
	ORG $+24
	DD	01H
	ORG $+4
	DQ	FLAT:arcs_81_1
	ORG $+24
	DD	01H
	ORG $+4
	DQ	FLAT:arcs_81_2
	ORG $+24
	ORG $+8
dfas	DD	0100H
	ORG $+4
	DQ	FLAT:??_C@_0N@PPLJDJMD@single_input?$AA@
	DD	00H
	DD	03H
	DQ	FLAT:states_0
	DQ	FLAT:??_C@_0BH@LIMOPOMK@?$AE?$CI0?$IA?$AA?$AA?$AA?$KA?$OA?$JDp?$JA?$CF?$IA?$BA?$AA?$AA?$IGP?$DO?$IE?$AA?$AA@
	DD	0101H
	ORG $+4
	DQ	FLAT:??_C@_0L@INIFFJII@file_input?$AA@
	DD	00H
	DD	02H
	DQ	FLAT:states_1
	DQ	FLAT:??_C@_0BH@LDFKMMKK@?$IE?$CI0?$IA?$AA?$AA?$AA?$KA?$OA?$JDp?$JA?$CF?$IA?$BA?$AA?$AA?$IGP?$DO?$IE?$AA?$AA@
	DD	0102H
	ORG $+4
	DQ	FLAT:??_C@_0L@CMMCBJJA@eval_input?$AA@
	DD	00H
	DD	03H
	DQ	FLAT:states_2
	DQ	FLAT:??_C@_0BH@LLLAHPKO@?$AA?5?5?$AA?$AA?$AA?$AA?$AA?$AA?$IA?$AA?$AA?$AA?$IA?$BA?$AA?$AA?$IGP?$DO?$AA?$AA?$AA@
	DD	0103H
	ORG $+4
	DQ	FLAT:??_C@_09KJHADOKJ@decorator?$AA@
	DD	00H
	DD	07H
	DQ	FLAT:states_3
	DQ	FLAT:??_C@_0BH@DEBMPNLL@?$AA?$AI?$AA?$AA?$AA?$AA?$AA?$AA?$AA?$AA?$AA?$AA?$AA?$AA?$AA?$AA?$AA?$AA?$AA?$AA?$AA?$AA?$AA@
	DD	0104H
	ORG $+4
	DQ	FLAT:??_C@_0L@KLLBEBEH@decorators?$AA@
	DD	00H
	DD	02H
	DQ	FLAT:states_4
	DQ	FLAT:??_C@_0BH@DEBMPNLL@?$AA?$AI?$AA?$AA?$AA?$AA?$AA?$AA?$AA?$AA?$AA?$AA?$AA?$AA?$AA?$AA?$AA?$AA?$AA?$AA?$AA?$AA?$AA@
	DD	0105H
	ORG $+4
	DQ	FLAT:??_C@_09LIHPAOKI@decorated?$AA@
	DD	00H
	DD	03H
	DQ	FLAT:states_5
	DQ	FLAT:??_C@_0BH@DEBMPNLL@?$AA?$AI?$AA?$AA?$AA?$AA?$AA?$AA?$AA?$AA?$AA?$AA?$AA?$AA?$AA?$AA?$AA?$AA?$AA?$AA?$AA?$AA?$AA@
	DD	0106H
	ORG $+4
	DQ	FLAT:??_C@_07BHJKLACP@funcdef?$AA@
	DD	00H
	DD	08H
	DQ	FLAT:states_6
	DQ	FLAT:??_C@_0BH@MGLLMJFH@?$AA?$AA?$BA?$AA?$AA?$AA?$AA?$AA?$AA?$AA?$AA?$AA?$AA?$AA?$AA?$AA?$AA?$AA?$AA?$AA?$AA?$AA?$AA@
	DD	0107H
	ORG $+4
	DQ	FLAT:??_C@_0L@HHPOFMCB@parameters?$AA@
	DD	00H
	DD	04H
	DQ	FLAT:states_7
	DQ	FLAT:??_C@_0BH@FMAEJHI@?$AA?5?$AA?$AA?$AA?$AA?$AA?$AA?$AA?$AA?$AA?$AA?$AA?$AA?$AA?$AA?$AA?$AA?$AA?$AA?$AA?$AA?$AA@
	DD	0108H
	ORG $+4
	DQ	FLAT:??_C@_0O@FMOBJFLO@typedargslist?$AA@
	DD	00H
	DD	012H
	DQ	FLAT:states_8
	DQ	FLAT:??_C@_0BH@KGIEDOBH@?$AA?$AA?5?$IA?$AB?$AA?$AA?$AA?$AA?$AA?$AA?$AA?$AA?$AA?$AA?$AA?$AA?$AA?$AA?$AA?$AA?$AA?$AA@
	DD	0109H
	ORG $+4
	DQ	FLAT:??_C@_06JEDEHNIP@tfpdef?$AA@
	DD	00H
	DD	04H
	DQ	FLAT:states_9
	DQ	FLAT:??_C@_0BH@BKJHPOGD@?$AA?$AA?5?$AA?$AA?$AA?$AA?$AA?$AA?$AA?$AA?$AA?$AA?$AA?$AA?$AA?$AA?$AA?$AA?$AA?$AA?$AA?$AA@
	DD	010aH
	ORG $+4
	DQ	FLAT:??_C@_0M@ENHJEHOJ@varargslist?$AA@
	DD	00H
	DD	012H
	DQ	FLAT:states_10
	DQ	FLAT:??_C@_0BH@KGIEDOBH@?$AA?$AA?5?$IA?$AB?$AA?$AA?$AA?$AA?$AA?$AA?$AA?$AA?$AA?$AA?$AA?$AA?$AA?$AA?$AA?$AA?$AA?$AA@
	DD	010bH
	ORG $+4
	DQ	FLAT:??_C@_06DKLGMKG@vfpdef?$AA@
	DD	00H
	DD	02H
	DQ	FLAT:states_11
	DQ	FLAT:??_C@_0BH@BKJHPOGD@?$AA?$AA?5?$AA?$AA?$AA?$AA?$AA?$AA?$AA?$AA?$AA?$AA?$AA?$AA?$AA?$AA?$AA?$AA?$AA?$AA?$AA?$AA@
	DD	010cH
	ORG $+4
	DQ	FLAT:??_C@_04GIKOEBLH@stmt?$AA@
	DD	00H
	DD	02H
	DQ	FLAT:states_12
	DQ	FLAT:??_C@_0BH@LIJCFPFJ@?$AA?$CI0?$IA?$AA?$AA?$AA?$KA?$OA?$JDp?$JA?$CF?$IA?$BA?$AA?$AA?$IGP?$DO?$IE?$AA?$AA@
	DD	010dH
	ORG $+4
	DQ	FLAT:??_C@_0M@NKLMKLPN@simple_stmt?$AA@
	DD	00H
	DD	04H
	DQ	FLAT:states_13
	DQ	FLAT:??_C@_0BH@NGCIGCOA@?$AA?5?5?$IA?$AA?$AA?$AA?$KA?$OA?$JDp?$AA?$AA?$IA?$BA?$AA?$AA?$IGP?$DO?$IA?$AA?$AA@
	DD	010eH
	ORG $+4
	DQ	FLAT:??_C@_0L@PLEAAANE@small_stmt?$AA@
	DD	00H
	DD	02H
	DQ	FLAT:states_14
	DQ	FLAT:??_C@_0BH@NGCIGCOA@?$AA?5?5?$IA?$AA?$AA?$AA?$KA?$OA?$JDp?$AA?$AA?$IA?$BA?$AA?$AA?$IGP?$DO?$IA?$AA?$AA@
	DD	010fH
	ORG $+4
	DQ	FLAT:??_C@_09BLMMJKJF@expr_stmt?$AA@
	DD	00H
	DD	06H
	DQ	FLAT:states_15
	DQ	FLAT:??_C@_0BH@NAEBDPIC@?$AA?5?5?$IA?$AA?$AA?$AA?$AA?$AA?$IA?$AA?$AA?$AA?$IA?$BA?$AA?$AA?$IGP?$DO?$AA?$AA?$AA@
	DD	0110H
	ORG $+4
	DQ	FLAT:??_C@_0BD@PJJDDCPK@testlist_star_expr?$AA@
	DD	00H
	DD	03H
	DQ	FLAT:states_16
	DQ	FLAT:??_C@_0BH@NAEBDPIC@?$AA?5?5?$IA?$AA?$AA?$AA?$AA?$AA?$IA?$AA?$AA?$AA?$IA?$BA?$AA?$AA?$IGP?$DO?$AA?$AA?$AA@
	DD	0111H
	ORG $+4
	DQ	FLAT:??_C@_09KMIHFGNL@augassign?$AA@
	DD	00H
	DD	02H
	DQ	FLAT:states_17
	DQ	FLAT:??_C@_0BH@HKIOHPBC@?$AA?$AA?$AA?$AA?$AA?$AA?$PO?$BP?$AA?$AA?$AA?$AA?$AA?$AA?$AA?$AA?$AA?$AA?$AA?$AA?$AA?$AA?$AA@
	DD	0112H
	ORG $+4
	DQ	FLAT:??_C@_08GAMPEAMA@del_stmt?$AA@
	DD	00H
	DD	03H
	DQ	FLAT:states_18
	DQ	FLAT:??_C@_0BH@JKGAKAMG@?$AA?$AA?$AA?$AA?$AA?$AA?$AA?5?$AA?$AA?$AA?$AA?$AA?$AA?$AA?$AA?$AA?$AA?$AA?$AA?$AA?$AA?$AA@
	DD	0113H
	ORG $+4
	DQ	FLAT:??_C@_09PCNACIEE@pass_stmt?$AA@
	DD	00H
	DD	02H
	DQ	FLAT:states_19
	DQ	FLAT:??_C@_0BH@NBKCDGEP@?$AA?$AA?$AA?$AA?$AA?$AA?$AA?$IA?$AA?$AA?$AA?$AA?$AA?$AA?$AA?$AA?$AA?$AA?$AA?$AA?$AA?$AA?$AA@
	DD	0114H
	ORG $+4
	DQ	FLAT:??_C@_09PGHEDOML@flow_stmt?$AA@
	DD	00H
	DD	02H
	DQ	FLAT:states_20
	DQ	FLAT:??_C@_0BH@PNNMJEBF@?$AA?$AA?$AA?$AA?$AA?$AA?$AA?$AA?$OA?$AB?$AA?$AA?$AA?$AA?$AA?$AA?$AA?$AA?$AA?$AA?$IA?$AA?$AA@
	DD	0115H
	ORG $+4
	DQ	FLAT:??_C@_0L@EBNDLLOJ@break_stmt?$AA@
	DD	00H
	DD	02H
	DQ	FLAT:states_21
	DQ	FLAT:??_C@_0BH@FJKOFCF@?$AA?$AA?$AA?$AA?$AA?$AA?$AA?$AA?5?$AA?$AA?$AA?$AA?$AA?$AA?$AA?$AA?$AA?$AA?$AA?$AA?$AA?$AA@
	DD	0116H
	ORG $+4
	DQ	FLAT:??_C@_0O@FACFMHIL@continue_stmt?$AA@
	DD	00H
	DD	02H
	DQ	FLAT:states_22
	DQ	FLAT:??_C@_0BH@EHKEKAMG@?$AA?$AA?$AA?$AA?$AA?$AA?$AA?$AA?$EA?$AA?$AA?$AA?$AA?$AA?$AA?$AA?$AA?$AA?$AA?$AA?$AA?$AA?$AA@
	DD	0117H
	ORG $+4
	DQ	FLAT:??_C@_0M@LBBJONNL@return_stmt?$AA@
	DD	00H
	DD	03H
	DQ	FLAT:states_23
	DQ	FLAT:??_C@_0BH@MDNICLAA@?$AA?$AA?$AA?$AA?$AA?$AA?$AA?$AA?$IA?$AA?$AA?$AA?$AA?$AA?$AA?$AA?$AA?$AA?$AA?$AA?$AA?$AA?$AA@
	DD	0118H
	ORG $+4
	DQ	FLAT:??_C@_0L@HOAHOHEB@yield_stmt?$AA@
	DD	00H
	DD	02H
	DQ	FLAT:states_24
	DQ	FLAT:??_C@_0BH@GMGKMADL@?$AA?$AA?$AA?$AA?$AA?$AA?$AA?$AA?$AA?$AA?$AA?$AA?$AA?$AA?$AA?$AA?$AA?$AA?$AA?$AA?$IA?$AA?$AA@
	DD	0119H
	ORG $+4
	DQ	FLAT:??_C@_0L@KLCJPLNG@raise_stmt?$AA@
	DD	00H
	DD	05H
	DQ	FLAT:states_25
	DQ	FLAT:??_C@_0BH@BAFADKMN@?$AA?$AA?$AA?$AA?$AA?$AA?$AA?$AA?$AA?$AB?$AA?$AA?$AA?$AA?$AA?$AA?$AA?$AA?$AA?$AA?$AA?$AA?$AA@
	DD	011aH
	ORG $+4
	DQ	FLAT:??_C@_0M@IFPLOOHJ@import_stmt?$AA@
	DD	00H
	DD	02H
	DQ	FLAT:states_26
	DQ	FLAT:??_C@_0BH@KIDCDHK@?$AA?$AA?$AA?$AA?$AA?$AA?$AA?$AA?$AA?$BC?$AA?$AA?$AA?$AA?$AA?$AA?$AA?$AA?$AA?$AA?$AA?$AA?$AA@
	DD	011bH
	ORG $+4
	DQ	FLAT:??_C@_0M@CJJFDJPH@import_name?$AA@
	DD	00H
	DD	03H
	DQ	FLAT:states_27
	DQ	FLAT:??_C@_0BH@OLONOHNH@?$AA?$AA?$AA?$AA?$AA?$AA?$AA?$AA?$AA?$BA?$AA?$AA?$AA?$AA?$AA?$AA?$AA?$AA?$AA?$AA?$AA?$AA?$AA@
	DD	011cH
	ORG $+4
	DQ	FLAT:??_C@_0M@JABENECB@import_from?$AA@
	DD	00H
	DD	08H
	DQ	FLAT:states_28
	DQ	FLAT:??_C@_0BH@GMDBBPBG@?$AA?$AA?$AA?$AA?$AA?$AA?$AA?$AA?$AA?$AC?$AA?$AA?$AA?$AA?$AA?$AA?$AA?$AA?$AA?$AA?$AA?$AA?$AA@
	DD	011dH
	ORG $+4
	DQ	FLAT:??_C@_0P@PCHGNAAG@import_as_name?$AA@
	DD	00H
	DD	04H
	DQ	FLAT:states_29
	DQ	FLAT:??_C@_0BH@BKJHPOGD@?$AA?$AA?5?$AA?$AA?$AA?$AA?$AA?$AA?$AA?$AA?$AA?$AA?$AA?$AA?$AA?$AA?$AA?$AA?$AA?$AA?$AA?$AA@
	DD	011eH
	ORG $+4
	DQ	FLAT:??_C@_0P@PCEGBFGD@dotted_as_name?$AA@
	DD	00H
	DD	04H
	DQ	FLAT:states_30
	DQ	FLAT:??_C@_0BH@BKJHPOGD@?$AA?$AA?5?$AA?$AA?$AA?$AA?$AA?$AA?$AA?$AA?$AA?$AA?$AA?$AA?$AA?$AA?$AA?$AA?$AA?$AA?$AA?$AA@
	DD	011fH
	ORG $+4
	DQ	FLAT:??_C@_0BA@ONIDPJNA@import_as_names?$AA@
	DD	00H
	DD	03H
	DQ	FLAT:states_31
	DQ	FLAT:??_C@_0BH@BKJHPOGD@?$AA?$AA?5?$AA?$AA?$AA?$AA?$AA?$AA?$AA?$AA?$AA?$AA?$AA?$AA?$AA?$AA?$AA?$AA?$AA?$AA?$AA?$AA@
	DD	0120H
	ORG $+4
	DQ	FLAT:??_C@_0BA@NAFLFMMC@dotted_as_names?$AA@
	DD	00H
	DD	02H
	DQ	FLAT:states_32
	DQ	FLAT:??_C@_0BH@BKJHPOGD@?$AA?$AA?5?$AA?$AA?$AA?$AA?$AA?$AA?$AA?$AA?$AA?$AA?$AA?$AA?$AA?$AA?$AA?$AA?$AA?$AA?$AA?$AA@
	DD	0121H
	ORG $+4
	DQ	FLAT:??_C@_0M@NJIIFJPC@dotted_name?$AA@
	DD	00H
	DD	02H
	DQ	FLAT:states_33
	DQ	FLAT:??_C@_0BH@BKJHPOGD@?$AA?$AA?5?$AA?$AA?$AA?$AA?$AA?$AA?$AA?$AA?$AA?$AA?$AA?$AA?$AA?$AA?$AA?$AA?$AA?$AA?$AA?$AA@
	DD	0122H
	ORG $+4
	DQ	FLAT:??_C@_0M@CMKLDLPE@global_stmt?$AA@
	DD	00H
	DD	03H
	DQ	FLAT:states_34
	DQ	FLAT:??_C@_0BH@DJFIHNGB@?$AA?$AA?$AA?$AA?$AA?$AA?$AA?$AA?$AA?$AA?$BA?$AA?$AA?$AA?$AA?$AA?$AA?$AA?$AA?$AA?$AA?$AA?$AA@
	DD	0123H
	ORG $+4
	DQ	FLAT:??_C@_0O@GCNCHPEM@nonlocal_stmt?$AA@
	DD	00H
	DD	03H
	DQ	FLAT:states_35
	DQ	FLAT:??_C@_0BH@DOCBJAEO@?$AA?$AA?$AA?$AA?$AA?$AA?$AA?$AA?$AA?$AA?5?$AA?$AA?$AA?$AA?$AA?$AA?$AA?$AA?$AA?$AA?$AA?$AA@
	DD	0124H
	ORG $+4
	DQ	FLAT:??_C@_0M@BGOEGNH@assert_stmt?$AA@
	DD	00H
	DD	05H
	DQ	FLAT:states_36
	DQ	FLAT:??_C@_0BH@DANCEKBA@?$AA?$AA?$AA?$AA?$AA?$AA?$AA?$AA?$AA?$AA?$EA?$AA?$AA?$AA?$AA?$AA?$AA?$AA?$AA?$AA?$AA?$AA?$AA@
	DD	0125H
	ORG $+4
	DQ	FLAT:??_C@_0O@DDEPOMNL@compound_stmt?$AA@
	DD	00H
	DD	02H
	DQ	FLAT:states_37
	DQ	FLAT:??_C@_0BH@ODOFOGAC@?$AA?$AI?$BA?$AA?$AA?$AA?$AA?$AA?$AA?$AA?$AA?$JA?$CF?$AA?$AA?$AA?$AA?$AA?$AA?$AA?$AE?$AA?$AA@
	DD	0126H
	ORG $+4
	DQ	FLAT:??_C@_07BBLEBBKO@if_stmt?$AA@
	DD	00H
	DD	08H
	DQ	FLAT:states_38
	DQ	FLAT:??_C@_0BH@IBEHDGEH@?$AA?$AA?$AA?$AA?$AA?$AA?$AA?$AA?$AA?$AA?$AA?$BA?$AA?$AA?$AA?$AA?$AA?$AA?$AA?$AA?$AA?$AA?$AA@
	DD	0127H
	ORG $+4
	DQ	FLAT:??_C@_0L@IDPAFPNJ@while_stmt?$AA@
	DD	00H
	DD	08H
	DQ	FLAT:states_39
	DQ	FLAT:??_C@_0BH@ONJILEFL@?$AA?$AA?$AA?$AA?$AA?$AA?$AA?$AA?$AA?$AA?$AA?$IA?$AA?$AA?$AA?$AA?$AA?$AA?$AA?$AA?$AA?$AA?$AA@
	DD	0128H
	ORG $+4
	DQ	FLAT:??_C@_08OIBIJDBN@for_stmt?$AA@
	DD	00H
	DD	0aH
	DQ	FLAT:states_40
	DQ	FLAT:??_C@_0BH@EMNBAEHL@?$AA?$AA?$AA?$AA?$AA?$AA?$AA?$AA?$AA?$AA?$AA?$AA?$AB?$AA?$AA?$AA?$AA?$AA?$AA?$AA?$AA?$AA?$AA@
	DD	0129H
	ORG $+4
	DQ	FLAT:??_C@_08IPJHIJOK@try_stmt?$AA@
	DD	00H
	DD	0dH
	DQ	FLAT:states_41
	DQ	FLAT:??_C@_0BH@DNIGKIDJ@?$AA?$AA?$AA?$AA?$AA?$AA?$AA?$AA?$AA?$AA?$AA?$AA?$AE?$AA?$AA?$AA?$AA?$AA?$AA?$AA?$AA?$AA?$AA@
	DD	012aH
	ORG $+4
	DQ	FLAT:??_C@_09MEMIFAAI@with_stmt?$AA@
	DD	00H
	DD	05H
	DQ	FLAT:states_42
	DQ	FLAT:??_C@_0BH@LMDFEGM@?$AA?$AA?$AA?$AA?$AA?$AA?$AA?$AA?$AA?$AA?$AA?$AA?5?$AA?$AA?$AA?$AA?$AA?$AA?$AA?$AA?$AA?$AA@
	DD	012bH
	ORG $+4
	DQ	FLAT:??_C@_09HLILCHIL@with_item?$AA@
	DD	00H
	DD	04H
	DQ	FLAT:states_43
	DQ	FLAT:??_C@_0BH@LLLAHPKO@?$AA?5?5?$AA?$AA?$AA?$AA?$AA?$AA?$IA?$AA?$AA?$AA?$IA?$BA?$AA?$AA?$IGP?$DO?$AA?$AA?$AA@
	DD	012cH
	ORG $+4
	DQ	FLAT:??_C@_0O@BMGEGENN@except_clause?$AA@
	DD	00H
	DD	05H
	DQ	FLAT:states_44
	DQ	FLAT:??_C@_0BH@GCJNLAIF@?$AA?$AA?$AA?$AA?$AA?$AA?$AA?$AA?$AA?$AA?$AA?$AA?$AA?$AB?$AA?$AA?$AA?$AA?$AA?$AA?$AA?$AA?$AA@
	DD	012dH
	ORG $+4
	DQ	FLAT:??_C@_05PPOFKJGL@suite?$AA@
	DD	00H
	DD	05H
	DQ	FLAT:states_45
	DQ	FLAT:??_C@_0BH@NGHEMDHD@?$AE?5?5?$IA?$AA?$AA?$AA?$KA?$OA?$JDp?$AA?$AA?$IA?$BA?$AA?$AA?$IGP?$DO?$IA?$AA?$AA@
	DD	012eH
	ORG $+4
	DQ	FLAT:??_C@_04CEJDCDCH@test?$AA@
	DD	00H
	DD	06H
	DQ	FLAT:states_46
	DQ	FLAT:??_C@_0BH@LLLAHPKO@?$AA?5?5?$AA?$AA?$AA?$AA?$AA?$AA?$IA?$AA?$AA?$AA?$IA?$BA?$AA?$AA?$IGP?$DO?$AA?$AA?$AA@
	DD	012fH
	ORG $+4
	DQ	FLAT:??_C@_0M@GCPGNMDP@test_nocond?$AA@
	DD	00H
	DD	02H
	DQ	FLAT:states_47
	DQ	FLAT:??_C@_0BH@LLLAHPKO@?$AA?5?5?$AA?$AA?$AA?$AA?$AA?$AA?$IA?$AA?$AA?$AA?$IA?$BA?$AA?$AA?$IGP?$DO?$AA?$AA?$AA@
	DD	0130H
	ORG $+4
	DQ	FLAT:??_C@_07KODPEPCE@lambdef?$AA@
	DD	00H
	DD	05H
	DQ	FLAT:states_48
	DQ	FLAT:??_C@_0BH@GLFKNCLK@?$AA?$AA?$AA?$AA?$AA?$AA?$AA?$AA?$AA?$AA?$AA?$AA?$AA?$IA?$AA?$AA?$AA?$AA?$AA?$AA?$AA?$AA?$AA@
	DD	0131H
	ORG $+4
	DQ	FLAT:??_C@_0P@BLBLCNEL@lambdef_nocond?$AA@
	DD	00H
	DD	05H
	DQ	FLAT:states_49
	DQ	FLAT:??_C@_0BH@GLFKNCLK@?$AA?$AA?$AA?$AA?$AA?$AA?$AA?$AA?$AA?$AA?$AA?$AA?$AA?$IA?$AA?$AA?$AA?$AA?$AA?$AA?$AA?$AA?$AA@
	DD	0132H
	ORG $+4
	DQ	FLAT:??_C@_07IHHMCGE@or_test?$AA@
	DD	00H
	DD	02H
	DQ	FLAT:states_50
	DQ	FLAT:??_C@_0BH@FNLFHGKP@?$AA?5?5?$AA?$AA?$AA?$AA?$AA?$AA?$IA?$AA?$AA?$AA?$AA?$BA?$AA?$AA?$IGP?$DO?$AA?$AA?$AA@
	DD	0133H
	ORG $+4
	DQ	FLAT:??_C@_08IOADFCO@and_test?$AA@
	DD	00H
	DD	02H
	DQ	FLAT:states_51
	DQ	FLAT:??_C@_0BH@FNLFHGKP@?$AA?5?5?$AA?$AA?$AA?$AA?$AA?$AA?$IA?$AA?$AA?$AA?$AA?$BA?$AA?$AA?$IGP?$DO?$AA?$AA?$AA@
	DD	0134H
	ORG $+4
	DQ	FLAT:??_C@_08HMCNGGKP@not_test?$AA@
	DD	00H
	DD	03H
	DQ	FLAT:states_52
	DQ	FLAT:??_C@_0BH@FNLFHGKP@?$AA?5?5?$AA?$AA?$AA?$AA?$AA?$AA?$IA?$AA?$AA?$AA?$AA?$BA?$AA?$AA?$IGP?$DO?$AA?$AA?$AA@
	DD	0135H
	ORG $+4
	DQ	FLAT:??_C@_0L@ECKICNFF@comparison?$AA@
	DD	00H
	DD	02H
	DQ	FLAT:states_53
	DQ	FLAT:??_C@_0BH@PBHFDENO@?$AA?5?5?$AA?$AA?$AA?$AA?$AA?$AA?$IA?$AA?$AA?$AA?$AA?$AA?$AA?$AA?$IGP?$DO?$AA?$AA?$AA@
	DD	0136H
	ORG $+4
	DQ	FLAT:??_C@_07LCFKNJG@comp_op?$AA@
	DD	00H
	DD	04H
	DQ	FLAT:states_54
	DQ	FLAT:??_C@_0BH@GKNGKDHI@?$AA?$AA?$AA?$AA?$AA?$AA?$AA?$AA?$AA?$AA?$AA?$AA?$AC?$AA?$JA?$HP?$AA?$AA?$AA?$AA?$AA?$AA?$AA@
	DD	0137H
	ORG $+4
	DQ	FLAT:??_C@_09IAILODKE@star_expr?$AA@
	DD	00H
	DD	03H
	DQ	FLAT:states_55
	DQ	FLAT:??_C@_0BH@OGKOJLJH@?$AA?$AA?$AA?$IA?$AA?$AA?$AA?$AA?$AA?$AA?$AA?$AA?$AA?$AA?$AA?$AA?$AA?$AA?$AA?$AA?$AA?$AA?$AA@
	DD	0138H
	ORG $+4
	DQ	FLAT:??_C@_04IPHMALII@expr?$AA@
	DD	00H
	DD	02H
	DQ	FLAT:states_56
	DQ	FLAT:??_C@_0BH@PBHFDENO@?$AA?5?5?$AA?$AA?$AA?$AA?$AA?$AA?$IA?$AA?$AA?$AA?$AA?$AA?$AA?$AA?$IGP?$DO?$AA?$AA?$AA@
	DD	0139H
	ORG $+4
	DQ	FLAT:??_C@_08GLMIEAMB@xor_expr?$AA@
	DD	00H
	DD	02H
	DQ	FLAT:states_57
	DQ	FLAT:??_C@_0BH@PBHFDENO@?$AA?5?5?$AA?$AA?$AA?$AA?$AA?$AA?$IA?$AA?$AA?$AA?$AA?$AA?$AA?$AA?$IGP?$DO?$AA?$AA?$AA@
	DD	013aH
	ORG $+4
	DQ	FLAT:??_C@_08KDAPBNIB@and_expr?$AA@
	DD	00H
	DD	02H
	DQ	FLAT:states_58
	DQ	FLAT:??_C@_0BH@PBHFDENO@?$AA?5?5?$AA?$AA?$AA?$AA?$AA?$AA?$IA?$AA?$AA?$AA?$AA?$AA?$AA?$AA?$IGP?$DO?$AA?$AA?$AA@
	DD	013bH
	ORG $+4
	DQ	FLAT:??_C@_0L@IEJCONNG@shift_expr?$AA@
	DD	00H
	DD	02H
	DQ	FLAT:states_59
	DQ	FLAT:??_C@_0BH@PBHFDENO@?$AA?5?5?$AA?$AA?$AA?$AA?$AA?$AA?$IA?$AA?$AA?$AA?$AA?$AA?$AA?$AA?$IGP?$DO?$AA?$AA?$AA@
	DD	013cH
	ORG $+4
	DQ	FLAT:??_C@_0L@NMGEEBBB@arith_expr?$AA@
	DD	00H
	DD	02H
	DQ	FLAT:states_60
	DQ	FLAT:??_C@_0BH@PBHFDENO@?$AA?5?5?$AA?$AA?$AA?$AA?$AA?$AA?$IA?$AA?$AA?$AA?$AA?$AA?$AA?$AA?$IGP?$DO?$AA?$AA?$AA@
	DD	013dH
	ORG $+4
	DQ	FLAT:??_C@_04LOFBOAAI@term?$AA@
	DD	00H
	DD	02H
	DQ	FLAT:states_61
	DQ	FLAT:??_C@_0BH@PBHFDENO@?$AA?5?5?$AA?$AA?$AA?$AA?$AA?$AA?$IA?$AA?$AA?$AA?$AA?$AA?$AA?$AA?$IGP?$DO?$AA?$AA?$AA@
	DD	013eH
	ORG $+4
	DQ	FLAT:??_C@_06CNBACIJO@factor?$AA@
	DD	00H
	DD	03H
	DQ	FLAT:states_62
	DQ	FLAT:??_C@_0BH@PBHFDENO@?$AA?5?5?$AA?$AA?$AA?$AA?$AA?$AA?$IA?$AA?$AA?$AA?$AA?$AA?$AA?$AA?$IGP?$DO?$AA?$AA?$AA@
	DD	013fH
	ORG $+4
	DQ	FLAT:??_C@_05PLIADJJL@power?$AA@
	DD	00H
	DD	04H
	DQ	FLAT:states_63
	DQ	FLAT:??_C@_0BH@DJJMMDBL@?$AA?5?5?$AA?$AA?$AA?$AA?$AA?$AA?$IA?$AA?$AA?$AA?$AA?$AA?$AA?$AA?$AAP?$DO?$AA?$AA?$AA@
	DD	0140H
	ORG $+4
	DQ	FLAT:??_C@_04OKAKPICD@atom?$AA@
	DD	00H
	DD	09H
	DQ	FLAT:states_64
	DQ	FLAT:??_C@_0BH@DJJMMDBL@?$AA?5?5?$AA?$AA?$AA?$AA?$AA?$AA?$IA?$AA?$AA?$AA?$AA?$AA?$AA?$AA?$AAP?$DO?$AA?$AA?$AA@
	DD	0141H
	ORG $+4
	DQ	FLAT:??_C@_0O@PNKIGBHL@testlist_comp?$AA@
	DD	00H
	DD	05H
	DQ	FLAT:states_65
	DQ	FLAT:??_C@_0BH@NAEBDPIC@?$AA?5?5?$IA?$AA?$AA?$AA?$AA?$AA?$IA?$AA?$AA?$AA?$IA?$BA?$AA?$AA?$IGP?$DO?$AA?$AA?$AA@
	DD	0142H
	ORG $+4
	DQ	FLAT:??_C@_07LMFPONDJ@trailer?$AA@
	DD	00H
	DD	07H
	DQ	FLAT:states_66
	DQ	FLAT:??_C@_0BH@CEJJCJAL@?$AA?5?$AA?$AA?$AA?$AA?$AA?$AA?$AA?$EA?$AA?$AA?$AA?$AA?$AA?$AA?$AA?$AA?$BA?$AA?$AA?$AA?$AA@
	DD	0143H
	ORG $+4
	DQ	FLAT:??_C@_0O@OMMKCBCG@subscriptlist?$AA@
	DD	00H
	DD	03H
	DQ	FLAT:states_67
	DQ	FLAT:??_C@_0BH@HBHOAJCC@?$AA?5?5?$AC?$AA?$AA?$AA?$AA?$AA?$IA?$AA?$AA?$AA?$IA?$BA?$AA?$AA?$IGP?$DO?$AA?$AA?$AA@
	DD	0144H
	ORG $+4
	DQ	FLAT:??_C@_09KAIPOAII@subscript?$AA@
	DD	00H
	DD	05H
	DQ	FLAT:states_68
	DQ	FLAT:??_C@_0BH@HBHOAJCC@?$AA?5?5?$AC?$AA?$AA?$AA?$AA?$AA?$IA?$AA?$AA?$AA?$IA?$BA?$AA?$AA?$IGP?$DO?$AA?$AA?$AA@
	DD	0145H
	ORG $+4
	DQ	FLAT:??_C@_07GFDBDBKB@sliceop?$AA@
	DD	00H
	DD	03H
	DQ	FLAT:states_69
	DQ	FLAT:??_C@_0BH@EHJBKNDH@?$AA?$AA?$AA?$AC?$AA?$AA?$AA?$AA?$AA?$AA?$AA?$AA?$AA?$AA?$AA?$AA?$AA?$AA?$AA?$AA?$AA?$AA?$AA@
	DD	0146H
	ORG $+4
	DQ	FLAT:??_C@_08NNDNJBEA@exprlist?$AA@
	DD	00H
	DD	03H
	DQ	FLAT:states_70
	DQ	FLAT:??_C@_0BH@JKIEHEPC@?$AA?5?5?$IA?$AA?$AA?$AA?$AA?$AA?$IA?$AA?$AA?$AA?$AA?$AA?$AA?$AA?$IGP?$DO?$AA?$AA?$AA@
	DD	0147H
	ORG $+4
	DQ	FLAT:??_C@_08GGIJBKAI@testlist?$AA@
	DD	00H
	DD	03H
	DQ	FLAT:states_71
	DQ	FLAT:??_C@_0BH@LLLAHPKO@?$AA?5?5?$AA?$AA?$AA?$AA?$AA?$AA?$IA?$AA?$AA?$AA?$IA?$BA?$AA?$AA?$IGP?$DO?$AA?$AA?$AA@
	DD	0148H
	ORG $+4
	DQ	FLAT:??_C@_0P@IBAIBCIC@dictorsetmaker?$AA@
	DD	00H
	DD	0bH
	DQ	FLAT:states_72
	DQ	FLAT:??_C@_0BH@LLLAHPKO@?$AA?5?5?$AA?$AA?$AA?$AA?$AA?$AA?$IA?$AA?$AA?$AA?$IA?$BA?$AA?$AA?$IGP?$DO?$AA?$AA?$AA@
	DD	0149H
	ORG $+4
	DQ	FLAT:??_C@_08CMKGOEFL@classdef?$AA@
	DD	00H
	DD	08H
	DQ	FLAT:states_73
	DQ	FLAT:??_C@_0BH@IKFGHDGH@?$AA?$AA?$AA?$AA?$AA?$AA?$AA?$AA?$AA?$AA?$AA?$AA?$AA?$AA?$AA?$AA?$AA?$AA?$AA?$AA?$AE?$AA?$AA@
	DD	014aH
	ORG $+4
	DQ	FLAT:??_C@_07OPJCDGGN@arglist?$AA@
	DD	00H
	DD	08H
	DQ	FLAT:states_74
	DQ	FLAT:??_C@_0BH@HKDLPNK@?$AA?5?5?$IA?$AB?$AA?$AA?$AA?$AA?$IA?$AA?$AA?$AA?$IA?$BA?$AA?$AA?$IGP?$DO?$AA?$AA?$AA@
	DD	014bH
	ORG $+4
	DQ	FLAT:??_C@_08MNCFOIFH@argument?$AA@
	DD	00H
	DD	04H
	DQ	FLAT:states_75
	DQ	FLAT:??_C@_0BH@LLLAHPKO@?$AA?5?5?$AA?$AA?$AA?$AA?$AA?$AA?$IA?$AA?$AA?$AA?$IA?$BA?$AA?$AA?$IGP?$DO?$AA?$AA?$AA@
	DD	014cH
	ORG $+4
	DQ	FLAT:??_C@_09NMELIJKE@comp_iter?$AA@
	DD	00H
	DD	02H
	DQ	FLAT:states_76
	DQ	FLAT:??_C@_0BH@EAMJOJIH@?$AA?$AA?$AA?$AA?$AA?$AA?$AA?$AA?$AA?$AA?$AA?$BA?$AB?$AA?$AA?$AA?$AA?$AA?$AA?$AA?$AA?$AA?$AA@
	DD	014dH
	ORG $+4
	DQ	FLAT:??_C@_08GOBMKDGP@comp_for?$AA@
	DD	00H
	DD	06H
	DQ	FLAT:states_77
	DQ	FLAT:??_C@_0BH@EMNBAEHL@?$AA?$AA?$AA?$AA?$AA?$AA?$AA?$AA?$AA?$AA?$AA?$AA?$AB?$AA?$AA?$AA?$AA?$AA?$AA?$AA?$AA?$AA?$AA@
	DD	014eH
	ORG $+4
	DQ	FLAT:??_C@_07BDDAGEPD@comp_if?$AA@
	DD	00H
	DD	04H
	DQ	FLAT:states_78
	DQ	FLAT:??_C@_0BH@IBEHDGEH@?$AA?$AA?$AA?$AA?$AA?$AA?$AA?$AA?$AA?$AA?$AA?$BA?$AA?$AA?$AA?$AA?$AA?$AA?$AA?$AA?$AA?$AA?$AA@
	DD	014fH
	ORG $+4
	DQ	FLAT:??_C@_0O@PDDIADMP@encoding_decl?$AA@
	DD	00H
	DD	02H
	DQ	FLAT:states_79
	DQ	FLAT:??_C@_0BH@BKJHPOGD@?$AA?$AA?5?$AA?$AA?$AA?$AA?$AA?$AA?$AA?$AA?$AA?$AA?$AA?$AA?$AA?$AA?$AA?$AA?$AA?$AA?$AA?$AA@
	DD	0150H
	ORG $+4
	DQ	FLAT:??_C@_0L@JJNFKNHO@yield_expr?$AA@
	DD	00H
	DD	03H
	DQ	FLAT:states_80
	DQ	FLAT:??_C@_0BH@GMGKMADL@?$AA?$AA?$AA?$AA?$AA?$AA?$AA?$AA?$AA?$AA?$AA?$AA?$AA?$AA?$AA?$AA?$AA?$AA?$AA?$AA?$IA?$AA?$AA@
	DD	0151H
	ORG $+4
	DQ	FLAT:??_C@_09OFIBECAE@yield_arg?$AA@
	DD	00H
	DD	03H
	DQ	FLAT:states_81
	DQ	FLAT:??_C@_0BH@FKNOLLAD@?$AA?5?5?$AA?$AA?$AA?$AA?$AA?$AA?$IC?$AA?$AA?$AA?$IA?$BA?$AA?$AA?$IGP?$DO?$AA?$AA?$AA@
labels	DD	00H
	ORG $+4
	DQ	FLAT:??_C@_05HKAKDGKI@EMPTY?$AA@
	DD	0100H
	ORG $+4
	DQ	0000000000000000H
	DD	04H
	ORG $+4
	DQ	0000000000000000H
	DD	010dH
	ORG $+4
	DQ	0000000000000000H
	DD	0125H
	ORG $+4
	DQ	0000000000000000H
	DD	0101H
	ORG $+4
	DQ	0000000000000000H
	DD	010cH
	ORG $+4
	DQ	0000000000000000H
	DD	00H
	ORG $+4
	DQ	0000000000000000H
	DD	0102H
	ORG $+4
	DQ	0000000000000000H
	DD	0147H
	ORG $+4
	DQ	0000000000000000H
	DD	0103H
	ORG $+4
	DQ	0000000000000000H
	DD	031H
	ORG $+4
	DQ	0000000000000000H
	DD	0121H
	ORG $+4
	DQ	0000000000000000H
	DD	07H
	ORG $+4
	DQ	0000000000000000H
	DD	014aH
	ORG $+4
	DQ	0000000000000000H
	DD	08H
	ORG $+4
	DQ	0000000000000000H
	DD	0104H
	ORG $+4
	DQ	0000000000000000H
	DD	0105H
	ORG $+4
	DQ	0000000000000000H
	DD	0149H
	ORG $+4
	DQ	0000000000000000H
	DD	0106H
	ORG $+4
	DQ	0000000000000000H
	DD	01H
	ORG $+4
	DQ	FLAT:??_C@_03BHEEIFFN@def?$AA@
	DD	01H
	ORG $+4
	DQ	0000000000000000H
	DD	0107H
	ORG $+4
	DQ	0000000000000000H
	DD	032H
	ORG $+4
	DQ	0000000000000000H
	DD	012eH
	ORG $+4
	DQ	0000000000000000H
	DD	0bH
	ORG $+4
	DQ	0000000000000000H
	DD	012dH
	ORG $+4
	DQ	0000000000000000H
	DD	0108H
	ORG $+4
	DQ	0000000000000000H
	DD	0109H
	ORG $+4
	DQ	0000000000000000H
	DD	016H
	ORG $+4
	DQ	0000000000000000H
	DD	0cH
	ORG $+4
	DQ	0000000000000000H
	DD	010H
	ORG $+4
	DQ	0000000000000000H
	DD	023H
	ORG $+4
	DQ	0000000000000000H
	DD	010aH
	ORG $+4
	DQ	0000000000000000H
	DD	010bH
	ORG $+4
	DQ	0000000000000000H
	DD	010eH
	ORG $+4
	DQ	0000000000000000H
	DD	0dH
	ORG $+4
	DQ	0000000000000000H
	DD	010fH
	ORG $+4
	DQ	0000000000000000H
	DD	0112H
	ORG $+4
	DQ	0000000000000000H
	DD	0113H
	ORG $+4
	DQ	0000000000000000H
	DD	0114H
	ORG $+4
	DQ	0000000000000000H
	DD	011aH
	ORG $+4
	DQ	0000000000000000H
	DD	0122H
	ORG $+4
	DQ	0000000000000000H
	DD	0123H
	ORG $+4
	DQ	0000000000000000H
	DD	0124H
	ORG $+4
	DQ	0000000000000000H
	DD	0110H
	ORG $+4
	DQ	0000000000000000H
	DD	0111H
	ORG $+4
	DQ	0000000000000000H
	DD	0150H
	ORG $+4
	DQ	0000000000000000H
	DD	0137H
	ORG $+4
	DQ	0000000000000000H
	DD	024H
	ORG $+4
	DQ	0000000000000000H
	DD	025H
	ORG $+4
	DQ	0000000000000000H
	DD	026H
	ORG $+4
	DQ	0000000000000000H
	DD	027H
	ORG $+4
	DQ	0000000000000000H
	DD	028H
	ORG $+4
	DQ	0000000000000000H
	DD	029H
	ORG $+4
	DQ	0000000000000000H
	DD	02aH
	ORG $+4
	DQ	0000000000000000H
	DD	02bH
	ORG $+4
	DQ	0000000000000000H
	DD	02cH
	ORG $+4
	DQ	0000000000000000H
	DD	02dH
	ORG $+4
	DQ	0000000000000000H
	DD	02eH
	ORG $+4
	DQ	0000000000000000H
	DD	030H
	ORG $+4
	DQ	0000000000000000H
	DD	01H
	ORG $+4
	DQ	FLAT:??_C@_03ONKLGNNH@del?$AA@
	DD	0146H
	ORG $+4
	DQ	0000000000000000H
	DD	01H
	ORG $+4
	DQ	FLAT:??_C@_04BBDAIEHH@pass?$AA@
	DD	0115H
	ORG $+4
	DQ	0000000000000000H
	DD	0116H
	ORG $+4
	DQ	0000000000000000H
	DD	0117H
	ORG $+4
	DQ	0000000000000000H
	DD	0119H
	ORG $+4
	DQ	0000000000000000H
	DD	0118H
	ORG $+4
	DQ	0000000000000000H
	DD	01H
	ORG $+4
	DQ	FLAT:??_C@_05ELPHFHOI@break?$AA@
	DD	01H
	ORG $+4
	DQ	FLAT:??_C@_08DLICDMBN@continue?$AA@
	DD	01H
	ORG $+4
	DQ	FLAT:??_C@_06LNOFJDNM@return?$AA@
	DD	01H
	ORG $+4
	DQ	FLAT:??_C@_05KEJGFNAJ@raise?$AA@
	DD	01H
	ORG $+4
	DQ	FLAT:??_C@_04HNEBHLOP@from?$AA@
	DD	011bH
	ORG $+4
	DQ	0000000000000000H
	DD	011cH
	ORG $+4
	DQ	0000000000000000H
	DD	01H
	ORG $+4
	DQ	FLAT:??_C@_06EOGGDCGF@import?$AA@
	DD	0120H
	ORG $+4
	DQ	0000000000000000H
	DD	017H
	ORG $+4
	DQ	0000000000000000H
	DD	033H
	ORG $+4
	DQ	0000000000000000H
	DD	011fH
	ORG $+4
	DQ	0000000000000000H
	DD	011dH
	ORG $+4
	DQ	0000000000000000H
	DD	01H
	ORG $+4
	DQ	FLAT:??_C@_02ENLJKNMP@as?$AA@
	DD	011eH
	ORG $+4
	DQ	0000000000000000H
	DD	01H
	ORG $+4
	DQ	FLAT:??_C@_06FJKEMHGD@global?$AA@
	DD	01H
	ORG $+4
	DQ	FLAT:??_C@_08JCIPMGCE@nonlocal?$AA@
	DD	01H
	ORG $+4
	DQ	FLAT:??_C@_06GMEIIFFN@assert?$AA@
	DD	0126H
	ORG $+4
	DQ	0000000000000000H
	DD	0127H
	ORG $+4
	DQ	0000000000000000H
	DD	0128H
	ORG $+4
	DQ	0000000000000000H
	DD	0129H
	ORG $+4
	DQ	0000000000000000H
	DD	012aH
	ORG $+4
	DQ	0000000000000000H
	DD	01H
	ORG $+4
	DQ	FLAT:??_C@_02HEBPBKGD@if?$AA@
	DD	01H
	ORG $+4
	DQ	FLAT:??_C@_04GNFOIEOK@elif?$AA@
	DD	01H
	ORG $+4
	DQ	FLAT:??_C@_04FHMCPBIP@else?$AA@
	DD	01H
	ORG $+4
	DQ	FLAT:??_C@_05OODBEKIG@while?$AA@
	DD	01H
	ORG $+4
	DQ	FLAT:??_C@_03JOHEBPFF@for?$AA@
	DD	01H
	ORG $+4
	DQ	FLAT:??_C@_02LMMGJAGL@in?$AA@
	DD	01H
	ORG $+4
	DQ	FLAT:??_C@_03JDGOGJKJ@try?$AA@
	DD	012cH
	ORG $+4
	DQ	0000000000000000H
	DD	01H
	ORG $+4
	DQ	FLAT:??_C@_07MKBLAIAL@finally?$AA@
	DD	01H
	ORG $+4
	DQ	FLAT:??_C@_04MKNNKNJH@with?$AA@
	DD	012bH
	ORG $+4
	DQ	0000000000000000H
	DD	0138H
	ORG $+4
	DQ	0000000000000000H
	DD	01H
	ORG $+4
	DQ	FLAT:??_C@_06JBKEBCGB@except?$AA@
	DD	05H
	ORG $+4
	DQ	0000000000000000H
	DD	06H
	ORG $+4
	DQ	0000000000000000H
	DD	0132H
	ORG $+4
	DQ	0000000000000000H
	DD	0130H
	ORG $+4
	DQ	0000000000000000H
	DD	012fH
	ORG $+4
	DQ	0000000000000000H
	DD	0131H
	ORG $+4
	DQ	0000000000000000H
	DD	01H
	ORG $+4
	DQ	FLAT:??_C@_06COJIGPIB@lambda?$AA@
	DD	0133H
	ORG $+4
	DQ	0000000000000000H
	DD	01H
	ORG $+4
	DQ	FLAT:??_C@_02FODMLBIE@or?$AA@
	DD	0134H
	ORG $+4
	DQ	0000000000000000H
	DD	01H
	ORG $+4
	DQ	FLAT:??_C@_03BOPJPIAM@and?$AA@
	DD	01H
	ORG $+4
	DQ	FLAT:??_C@_03NJKJADM@not?$AA@
	DD	0135H
	ORG $+4
	DQ	0000000000000000H
	DD	0136H
	ORG $+4
	DQ	0000000000000000H
	DD	014H
	ORG $+4
	DQ	0000000000000000H
	DD	015H
	ORG $+4
	DQ	0000000000000000H
	DD	01bH
	ORG $+4
	DQ	0000000000000000H
	DD	01eH
	ORG $+4
	DQ	0000000000000000H
	DD	01dH
	ORG $+4
	DQ	0000000000000000H
	DD	01cH
	ORG $+4
	DQ	0000000000000000H
	DD	01cH
	ORG $+4
	DQ	0000000000000000H
	DD	01H
	ORG $+4
	DQ	FLAT:??_C@_02EDKKPMHH@is?$AA@
	DD	0139H
	ORG $+4
	DQ	0000000000000000H
	DD	012H
	ORG $+4
	DQ	0000000000000000H
	DD	013aH
	ORG $+4
	DQ	0000000000000000H
	DD	020H
	ORG $+4
	DQ	0000000000000000H
	DD	013bH
	ORG $+4
	DQ	0000000000000000H
	DD	013H
	ORG $+4
	DQ	0000000000000000H
	DD	013cH
	ORG $+4
	DQ	0000000000000000H
	DD	021H
	ORG $+4
	DQ	0000000000000000H
	DD	022H
	ORG $+4
	DQ	0000000000000000H
	DD	013dH
	ORG $+4
	DQ	0000000000000000H
	DD	0eH
	ORG $+4
	DQ	0000000000000000H
	DD	0fH
	ORG $+4
	DQ	0000000000000000H
	DD	013eH
	ORG $+4
	DQ	0000000000000000H
	DD	011H
	ORG $+4
	DQ	0000000000000000H
	DD	018H
	ORG $+4
	DQ	0000000000000000H
	DD	02fH
	ORG $+4
	DQ	0000000000000000H
	DD	01fH
	ORG $+4
	DQ	0000000000000000H
	DD	013fH
	ORG $+4
	DQ	0000000000000000H
	DD	0140H
	ORG $+4
	DQ	0000000000000000H
	DD	0142H
	ORG $+4
	DQ	0000000000000000H
	DD	0141H
	ORG $+4
	DQ	0000000000000000H
	DD	09H
	ORG $+4
	DQ	0000000000000000H
	DD	0aH
	ORG $+4
	DQ	0000000000000000H
	DD	019H
	ORG $+4
	DQ	0000000000000000H
	DD	0148H
	ORG $+4
	DQ	0000000000000000H
	DD	01aH
	ORG $+4
	DQ	0000000000000000H
	DD	02H
	ORG $+4
	DQ	0000000000000000H
	DD	03H
	ORG $+4
	DQ	0000000000000000H
	DD	01H
	ORG $+4
	DQ	FLAT:??_C@_04OHJIHAFH@None?$AA@
	DD	01H
	ORG $+4
	DQ	FLAT:??_C@_04HPMIDMKH@True?$AA@
	DD	01H
	ORG $+4
	DQ	FLAT:??_C@_05MKDOIIA@False?$AA@
	DD	014dH
	ORG $+4
	DQ	0000000000000000H
	DD	0143H
	ORG $+4
	DQ	0000000000000000H
	DD	0144H
	ORG $+4
	DQ	0000000000000000H
	DD	0145H
	ORG $+4
	DQ	0000000000000000H
	DD	01H
	ORG $+4
	DQ	FLAT:??_C@_05ENKANFLO@class?$AA@
	DD	014bH
	ORG $+4
	DQ	0000000000000000H
	DD	014cH
	ORG $+4
	DQ	0000000000000000H
	DD	014eH
	ORG $+4
	DQ	0000000000000000H
	DD	014fH
	ORG $+4
	DQ	0000000000000000H
	DD	01H
	ORG $+4
	DQ	FLAT:??_C@_05LKJGIMLP@yield?$AA@
	DD	0151H
	ORG $+4
	DQ	0000000000000000H
_PyParser_Grammar DD 052H
	ORG $+4
	DQ	FLAT:dfas
	DD	0a9H
	ORG $+4
	DQ	FLAT:labels
	DD	0100H
	ORG $+4
_DATA	ENDS
END
