; Listing generated by Microsoft (R) Optimizing Compiler Version 16.00.40219.01 

include listing.inc

INCLUDELIB MSVCRT
INCLUDELIB OLDNAMES

PUBLIC	??_C@_09NCHPBFFI@itertools?$AA@			; `string'
PUBLIC	??_C@_03GMHAIBAB@tee?$AA@			; `string'
PUBLIC	??_C@_0BG@NNPBFPMG@itertools?4zip_longest?$AA@	; `string'
PUBLIC	??_C@_0BB@IMKAOHGA@itertools?4repeat?$AA@	; `string'
PUBLIC	??_C@_0BA@BJLPBKGK@__length_hint__?$AA@		; `string'
PUBLIC	??_C@_05MJOOAIJH@times?$AA@			; `string'
PUBLIC	??_C@_06IEOJBDIK@object?$AA@			; `string'
PUBLIC	??_C@_0BA@KKPHBGCD@itertools?4count?$AA@	; `string'
PUBLIC	??_C@_04CNBNFAL@step?$AA@			; `string'
PUBLIC	??_C@_05FAGFPHJG@start?$AA@			; `string'
PUBLIC	??_C@_0BG@LNFBHPNB@itertools?4filterfalse?$AA@	; `string'
PUBLIC	??_C@_0BD@LJLKJFJE@itertools?4compress?$AA@	; `string'
PUBLIC	??_C@_09PLCFPBOK@selectors?$AA@			; `string'
PUBLIC	??_C@_04PJOLNDGD@data?$AA@			; `string'
PUBLIC	??_C@_0BF@JGKIDDED@itertools?4accumulate?$AA@	; `string'
PUBLIC	??_C@_04HPNHAEOP@func?$AA@			; `string'
PUBLIC	??_C@_0BH@OBMBIGIH@itertools?4permutations?$AA@	; `string'
PUBLIC	??_C@_0CI@LFGIIFFE@itertools?4combinations_with_repl@ ; `string'
PUBLIC	??_C@_0BH@GJLBFDPE@itertools?4combinations?$AA@	; `string'
PUBLIC	??_C@_01KDCPPGHE@r?$AA@				; `string'
PUBLIC	??_C@_0BC@OPMDDELD@itertools?4product?$AA@	; `string'
PUBLIC	??_C@_0BA@HCMOOGKF@itertools?4chain?$AA@	; `string'
PUBLIC	??_C@_0O@CCOONFCF@from_iterable?$AA@		; `string'
PUBLIC	??_C@_0BC@CFHDGLCC@itertools?4starmap?$AA@	; `string'
PUBLIC	??_C@_0BB@IDGNPMJH@itertools?4islice?$AA@	; `string'
PUBLIC	??_C@_0BE@JBOLIPHD@itertools?4takewhile?$AA@	; `string'
PUBLIC	??_C@_0BE@JCKEMNLM@itertools?4dropwhile?$AA@	; `string'
PUBLIC	??_C@_0BA@GAHIILDM@itertools?4cycle?$AA@	; `string'
PUBLIC	??_C@_0P@LGCJDGOJ@itertools?4_tee?$AA@		; `string'
PUBLIC	??_C@_08MOMBEIKE@__copy__?$AA@			; `string'
PUBLIC	??_C@_0BK@MAONMKPL@itertools?4_tee_dataobject?$AA@ ; `string'
PUBLIC	??_C@_0BD@BFBLHELA@itertools?4_grouper?$AA@	; `string'
PUBLIC	??_C@_0BC@EHIPFGPL@itertools?4groupby?$AA@	; `string'
PUBLIC	??_C@_0N@MOOGCAMH@__setstate__?$AA@		; `string'
PUBLIC	??_C@_0L@NNMACJIG@__reduce__?$AA@		; `string'
PUBLIC	??_C@_03ICHNJLJF@key?$AA@			; `string'
PUBLIC	??_C@_08DCHCEAJP@iterable?$AA@			; `string'
EXTRN	PyObject_GC_Del:PROC
EXTRN	PyObject_SelfIter:PROC
EXTRN	PyObject_GenericGetAttr:PROC
;	COMDAT ??_C@_09NCHPBFFI@itertools?$AA@
CONST	SEGMENT
??_C@_09NCHPBFFI@itertools?$AA@ DB 'itertools', 00H	; `string'
CONST	ENDS
;	COMDAT ??_C@_03GMHAIBAB@tee?$AA@
CONST	SEGMENT
??_C@_03GMHAIBAB@tee?$AA@ DB 'tee', 00H			; `string'
CONST	ENDS
;	COMDAT ??_C@_0BG@NNPBFPMG@itertools?4zip_longest?$AA@
CONST	SEGMENT
??_C@_0BG@NNPBFPMG@itertools?4zip_longest?$AA@ DB 'itertools.zip_longest', 00H ; `string'
CONST	ENDS
;	COMDAT ??_C@_0BB@IMKAOHGA@itertools?4repeat?$AA@
CONST	SEGMENT
??_C@_0BB@IMKAOHGA@itertools?4repeat?$AA@ DB 'itertools.repeat', 00H ; `string'
CONST	ENDS
;	COMDAT ??_C@_0BA@BJLPBKGK@__length_hint__?$AA@
CONST	SEGMENT
??_C@_0BA@BJLPBKGK@__length_hint__?$AA@ DB '__length_hint__', 00H ; `string'
CONST	ENDS
;	COMDAT ??_C@_05MJOOAIJH@times?$AA@
CONST	SEGMENT
??_C@_05MJOOAIJH@times?$AA@ DB 'times', 00H		; `string'
CONST	ENDS
;	COMDAT ??_C@_06IEOJBDIK@object?$AA@
CONST	SEGMENT
??_C@_06IEOJBDIK@object?$AA@ DB 'object', 00H		; `string'
CONST	ENDS
;	COMDAT ??_C@_0BA@KKPHBGCD@itertools?4count?$AA@
CONST	SEGMENT
??_C@_0BA@KKPHBGCD@itertools?4count?$AA@ DB 'itertools.count', 00H ; `string'
CONST	ENDS
;	COMDAT ??_C@_04CNBNFAL@step?$AA@
CONST	SEGMENT
??_C@_04CNBNFAL@step?$AA@ DB 'step', 00H		; `string'
CONST	ENDS
;	COMDAT ??_C@_05FAGFPHJG@start?$AA@
CONST	SEGMENT
??_C@_05FAGFPHJG@start?$AA@ DB 'start', 00H		; `string'
CONST	ENDS
;	COMDAT ??_C@_0BG@LNFBHPNB@itertools?4filterfalse?$AA@
CONST	SEGMENT
??_C@_0BG@LNFBHPNB@itertools?4filterfalse?$AA@ DB 'itertools.filterfalse', 00H ; `string'
CONST	ENDS
;	COMDAT ??_C@_0BD@LJLKJFJE@itertools?4compress?$AA@
CONST	SEGMENT
??_C@_0BD@LJLKJFJE@itertools?4compress?$AA@ DB 'itertools.compress', 00H ; `string'
CONST	ENDS
;	COMDAT ??_C@_09PLCFPBOK@selectors?$AA@
CONST	SEGMENT
??_C@_09PLCFPBOK@selectors?$AA@ DB 'selectors', 00H	; `string'
CONST	ENDS
;	COMDAT ??_C@_04PJOLNDGD@data?$AA@
CONST	SEGMENT
??_C@_04PJOLNDGD@data?$AA@ DB 'data', 00H		; `string'
CONST	ENDS
;	COMDAT ??_C@_0BF@JGKIDDED@itertools?4accumulate?$AA@
CONST	SEGMENT
??_C@_0BF@JGKIDDED@itertools?4accumulate?$AA@ DB 'itertools.accumulate', 00H ; `string'
CONST	ENDS
;	COMDAT ??_C@_04HPNHAEOP@func?$AA@
CONST	SEGMENT
??_C@_04HPNHAEOP@func?$AA@ DB 'func', 00H		; `string'
CONST	ENDS
;	COMDAT ??_C@_0BH@OBMBIGIH@itertools?4permutations?$AA@
CONST	SEGMENT
??_C@_0BH@OBMBIGIH@itertools?4permutations?$AA@ DB 'itertools.permutation'
	DB	's', 00H					; `string'
CONST	ENDS
;	COMDAT ??_C@_0CI@LFGIIFFE@itertools?4combinations_with_repl@
CONST	SEGMENT
??_C@_0CI@LFGIIFFE@itertools?4combinations_with_repl@ DB 'itertools.combi'
	DB	'nations_with_replacement', 00H		; `string'
CONST	ENDS
;	COMDAT ??_C@_0BH@GJLBFDPE@itertools?4combinations?$AA@
CONST	SEGMENT
??_C@_0BH@GJLBFDPE@itertools?4combinations?$AA@ DB 'itertools.combination'
	DB	's', 00H					; `string'
CONST	ENDS
;	COMDAT ??_C@_01KDCPPGHE@r?$AA@
CONST	SEGMENT
??_C@_01KDCPPGHE@r?$AA@ DB 'r', 00H			; `string'
CONST	ENDS
;	COMDAT ??_C@_0BC@OPMDDELD@itertools?4product?$AA@
CONST	SEGMENT
??_C@_0BC@OPMDDELD@itertools?4product?$AA@ DB 'itertools.product', 00H ; `string'
CONST	ENDS
;	COMDAT ??_C@_0BA@HCMOOGKF@itertools?4chain?$AA@
CONST	SEGMENT
??_C@_0BA@HCMOOGKF@itertools?4chain?$AA@ DB 'itertools.chain', 00H ; `string'
CONST	ENDS
;	COMDAT ??_C@_0O@CCOONFCF@from_iterable?$AA@
CONST	SEGMENT
??_C@_0O@CCOONFCF@from_iterable?$AA@ DB 'from_iterable', 00H ; `string'
CONST	ENDS
;	COMDAT ??_C@_0BC@CFHDGLCC@itertools?4starmap?$AA@
CONST	SEGMENT
??_C@_0BC@CFHDGLCC@itertools?4starmap?$AA@ DB 'itertools.starmap', 00H ; `string'
CONST	ENDS
;	COMDAT ??_C@_0BB@IDGNPMJH@itertools?4islice?$AA@
CONST	SEGMENT
??_C@_0BB@IDGNPMJH@itertools?4islice?$AA@ DB 'itertools.islice', 00H ; `string'
CONST	ENDS
;	COMDAT ??_C@_0BE@JBOLIPHD@itertools?4takewhile?$AA@
CONST	SEGMENT
??_C@_0BE@JBOLIPHD@itertools?4takewhile?$AA@ DB 'itertools.takewhile', 00H ; `string'
CONST	ENDS
;	COMDAT ??_C@_0BE@JCKEMNLM@itertools?4dropwhile?$AA@
CONST	SEGMENT
??_C@_0BE@JCKEMNLM@itertools?4dropwhile?$AA@ DB 'itertools.dropwhile', 00H ; `string'
CONST	ENDS
;	COMDAT ??_C@_0BA@GAHIILDM@itertools?4cycle?$AA@
CONST	SEGMENT
??_C@_0BA@GAHIILDM@itertools?4cycle?$AA@ DB 'itertools.cycle', 00H ; `string'
CONST	ENDS
_TLS	SEGMENT
?PyId___copy__@?1??tee@@9@9 DQ 0000000000000000H	; `tee'::`2'::PyId___copy__
	DQ	FLAT:??_C@_08MOMBEIKE@__copy__?$AA@
	DQ	0000000000000000H
_TLS	ENDS
;	COMDAT ??_C@_0P@LGCJDGOJ@itertools?4_tee?$AA@
CONST	SEGMENT
??_C@_0P@LGCJDGOJ@itertools?4_tee?$AA@ DB 'itertools._tee', 00H ; `string'
CONST	ENDS
;	COMDAT ??_C@_08MOMBEIKE@__copy__?$AA@
CONST	SEGMENT
??_C@_08MOMBEIKE@__copy__?$AA@ DB '__copy__', 00H	; `string'
CONST	ENDS
;	COMDAT ??_C@_0BK@MAONMKPL@itertools?4_tee_dataobject?$AA@
CONST	SEGMENT
??_C@_0BK@MAONMKPL@itertools?4_tee_dataobject?$AA@ DB 'itertools._tee_dat'
	DB	'aobject', 00H				; `string'
CONST	ENDS
;	COMDAT ??_C@_0BD@BFBLHELA@itertools?4_grouper?$AA@
CONST	SEGMENT
??_C@_0BD@BFBLHELA@itertools?4_grouper?$AA@ DB 'itertools._grouper', 00H ; `string'
CONST	ENDS
;	COMDAT ??_C@_0BC@EHIPFGPL@itertools?4groupby?$AA@
CONST	SEGMENT
??_C@_0BC@EHIPFGPL@itertools?4groupby?$AA@ DB 'itertools.groupby', 00H ; `string'
CONST	ENDS
;	COMDAT ??_C@_0N@MOOGCAMH@__setstate__?$AA@
CONST	SEGMENT
??_C@_0N@MOOGCAMH@__setstate__?$AA@ DB '__setstate__', 00H ; `string'
CONST	ENDS
;	COMDAT ??_C@_0L@NNMACJIG@__reduce__?$AA@
CONST	SEGMENT
??_C@_0L@NNMACJIG@__reduce__?$AA@ DB '__reduce__', 00H	; `string'
CONST	ENDS
_DATA	SEGMENT
?kwargs@?1??groupby_new@@9@9 DQ FLAT:??_C@_08DCHCEAJP@iterable?$AA@ ; `groupby_new'::`2'::kwargs
	DQ	FLAT:??_C@_03ICHNJLJF@key?$AA@
	DQ	0000000000000000H
reduce_doc DB	'Return state information for pickling.', 00H
	ORG $+1
setstate_doc DB	'Set state information for unpickling.', 00H
	ORG $+10
groupby_methods DQ FLAT:??_C@_0L@NNMACJIG@__reduce__?$AA@
	DQ	FLAT:groupby_reduce
	DD	04H
	ORG $+4
	DQ	FLAT:reduce_doc
	DQ	FLAT:??_C@_0N@MOOGCAMH@__setstate__?$AA@
	DQ	FLAT:groupby_setstate
	DD	08H
	ORG $+4
	DQ	FLAT:setstate_doc
	DQ	0000000000000000H
	DQ	0000000000000000H
	ORG $+16
groupby_doc DB	'groupby(iterable[, keyfunc]) -> create an iterator which'
	DB	' returns', 0aH, '(key, sub-iterator) grouped by each value of'
	DB	' key(value).', 0aH, 00H
	ORG $+5
groupby_type DQ	dead1234beef5678H
	DQ	dead1234beef5678H
	DQ	0000000000000000H
	ORG $+8
	DQ	0000000000000001H
	DQ	0000000000000000H
	DQ	0000000000000000H
	DQ	0000000000000000H
	DQ	dead1234beef5678H
	DQ	dead1234beef5678H
	DQ	0000000000000001H
	DQ	0000000000000000H
	DQ	0000000000000000H
	ORG $+8
	DQ	FLAT:??_C@_0BC@EHIPFGPL@itertools?4groupby?$AA@
	DQ	0000000000000090H
	DQ	0000000000000000H
	DQ	FLAT:groupby_dealloc
	DQ	0000000000000000H
	DQ	0000000000000000H
	DQ	0000000000000000H
	DQ	0000000000000000H
	DQ	0000000000000000H
	DQ	0000000000000000H
	DQ	0000000000000000H
	DQ	0000000000000000H
	DQ	0000000000000000H
	DQ	0000000000000000H
	DQ	0000000000000000H
	DQ	FLAT:PyObject_GenericGetAttr
	DQ	0000000000000000H
	DQ	0000000000000000H
	DD	044400H
	ORG $+4
	DQ	FLAT:groupby_doc
	DQ	FLAT:groupby_traverse
	DQ	0000000000000000H
	DQ	0000000000000000H
	DQ	0000000000000000H
	DQ	FLAT:PyObject_SelfIter
	DQ	FLAT:groupby_next
	DQ	FLAT:groupby_methods
	DQ	0000000000000000H
	DQ	0000000000000000H
	DQ	0000000000000000H
	DQ	0000000000000000H
	DQ	0000000000000000H
	DQ	0000000000000000H
	DQ	0000000000000000H
	DQ	0000000000000000H
	DQ	0000000000000000H
	DQ	FLAT:groupby_new
	DQ	FLAT:PyObject_GC_Del
	ORG $+64
_grouper_methods DQ FLAT:??_C@_0L@NNMACJIG@__reduce__?$AA@
	DQ	FLAT:_grouper_reduce
	DD	04H
	ORG $+4
	DQ	FLAT:reduce_doc
	DQ	0000000000000000H
	DQ	0000000000000000H
	ORG $+16
_grouper_type DQ dead1234beef5678H
	DQ	dead1234beef5678H
	DQ	0000000000000000H
	ORG $+8
	DQ	0000000000000001H
	DQ	0000000000000000H
	DQ	0000000000000000H
	DQ	0000000000000000H
	DQ	dead1234beef5678H
	DQ	dead1234beef5678H
	DQ	0000000000000001H
	DQ	0000000000000000H
	DQ	0000000000000000H
	ORG $+8
	DQ	FLAT:??_C@_0BD@BFBLHELA@itertools?4_grouper?$AA@
	DQ	0000000000000070H
	DQ	0000000000000000H
	DQ	FLAT:_grouper_dealloc
	DQ	0000000000000000H
	DQ	0000000000000000H
	DQ	0000000000000000H
	DQ	0000000000000000H
	DQ	0000000000000000H
	DQ	0000000000000000H
	DQ	0000000000000000H
	DQ	0000000000000000H
	DQ	0000000000000000H
	DQ	0000000000000000H
	DQ	0000000000000000H
	DQ	FLAT:PyObject_GenericGetAttr
	DQ	0000000000000000H
	DQ	0000000000000000H
	DD	044000H
	ORG $+4
	DQ	0000000000000000H
	DQ	FLAT:_grouper_traverse
	DQ	0000000000000000H
	DQ	0000000000000000H
	DQ	0000000000000000H
	DQ	FLAT:PyObject_SelfIter
	DQ	FLAT:_grouper_next
	DQ	FLAT:_grouper_methods
	DQ	0000000000000000H
	DQ	0000000000000000H
	DQ	0000000000000000H
	DQ	0000000000000000H
	DQ	0000000000000000H
	DQ	0000000000000000H
	DQ	0000000000000000H
	DQ	0000000000000000H
	DQ	0000000000000000H
	DQ	FLAT:_grouper_new
	DQ	FLAT:PyObject_GC_Del
	ORG $+64
teedataobject_methods DQ FLAT:??_C@_0L@NNMACJIG@__reduce__?$AA@
	DQ	FLAT:teedataobject_reduce
	DD	04H
	ORG $+4
	DQ	FLAT:reduce_doc
	DQ	0000000000000000H
	DQ	0000000000000000H
	ORG $+16
teedataobject_doc DB 'Data container common to multiple tee objects.', 00H
	ORG $+1
teedataobject_type DQ dead1234beef5678H
	DQ	dead1234beef5678H
	DQ	0000000000000000H
	ORG $+8
	DQ	0000000000000001H
	DQ	0000000000000000H
	DQ	0000000000000000H
	DQ	0000000000000000H
	DQ	dead1234beef5678H
	DQ	dead1234beef5678H
	DQ	0000000000000001H
	DQ	0000000000000000H
	DQ	0000000000000000H
	ORG $+8
	DQ	FLAT:??_C@_0BK@MAONMKPL@itertools?4_tee_dataobject?$AA@
	DQ	0000000000000240H
	DQ	0000000000000000H
	DQ	FLAT:teedataobject_dealloc
	DQ	0000000000000000H
	DQ	0000000000000000H
	DQ	0000000000000000H
	DQ	0000000000000000H
	DQ	0000000000000000H
	DQ	0000000000000000H
	DQ	0000000000000000H
	DQ	0000000000000000H
	DQ	0000000000000000H
	DQ	0000000000000000H
	DQ	0000000000000000H
	DQ	FLAT:PyObject_GenericGetAttr
	DQ	0000000000000000H
	DQ	0000000000000000H
	DD	044000H
	ORG $+4
	DQ	FLAT:teedataobject_doc
	DQ	FLAT:teedataobject_traverse
	DQ	FLAT:teedataobject_clear
	DQ	0000000000000000H
	DQ	0000000000000000H
	DQ	0000000000000000H
	DQ	0000000000000000H
	DQ	FLAT:teedataobject_methods
	DQ	0000000000000000H
	DQ	0000000000000000H
	DQ	0000000000000000H
	DQ	0000000000000000H
	DQ	0000000000000000H
	DQ	0000000000000000H
	DQ	0000000000000000H
	DQ	0000000000000000H
	DQ	0000000000000000H
	DQ	FLAT:teedataobject_new
	DQ	FLAT:PyObject_GC_Del
	ORG $+64
teecopy_doc DB	'Returns an independent iterator.', 00H
	ORG $+7
teeobject_doc DB 'Iterator wrapped to make it copyable', 00H
	ORG $+3
tee_methods DQ	FLAT:??_C@_08MOMBEIKE@__copy__?$AA@
	DQ	FLAT:tee_copy
	DD	04H
	ORG $+4
	DQ	FLAT:teecopy_doc
	DQ	FLAT:??_C@_0L@NNMACJIG@__reduce__?$AA@
	DQ	FLAT:tee_reduce
	DD	04H
	ORG $+4
	DQ	FLAT:reduce_doc
	DQ	FLAT:??_C@_0N@MOOGCAMH@__setstate__?$AA@
	DQ	FLAT:tee_setstate
	DD	08H
	ORG $+4
	DQ	FLAT:setstate_doc
	DQ	0000000000000000H
	DQ	0000000000000000H
	ORG $+16
tee_type DQ	dead1234beef5678H
	DQ	dead1234beef5678H
	DQ	0000000000000000H
	ORG $+8
	DQ	0000000000000001H
	DQ	0000000000000000H
	DQ	0000000000000000H
	DQ	0000000000000000H
	DQ	dead1234beef5678H
	DQ	dead1234beef5678H
	DQ	0000000000000001H
	DQ	0000000000000000H
	DQ	0000000000000000H
	ORG $+8
	DQ	FLAT:??_C@_0P@LGCJDGOJ@itertools?4_tee?$AA@
	DQ	0000000000000080H
	DQ	0000000000000000H
	DQ	FLAT:tee_dealloc
	DQ	0000000000000000H
	DQ	0000000000000000H
	DQ	0000000000000000H
	DQ	0000000000000000H
	DQ	0000000000000000H
	DQ	0000000000000000H
	DQ	0000000000000000H
	DQ	0000000000000000H
	DQ	0000000000000000H
	DQ	0000000000000000H
	DQ	0000000000000000H
	DQ	0000000000000000H
	DQ	0000000000000000H
	DQ	0000000000000000H
	DD	044000H
	ORG $+4
	DQ	FLAT:teeobject_doc
	DQ	FLAT:tee_traverse
	DQ	FLAT:tee_clear
	DQ	0000000000000000H
	DQ	0000000000000070H
	DQ	FLAT:PyObject_SelfIter
	DQ	FLAT:tee_next
	DQ	FLAT:tee_methods
	DQ	0000000000000000H
	DQ	0000000000000000H
	DQ	0000000000000000H
	DQ	0000000000000000H
	DQ	0000000000000000H
	DQ	0000000000000000H
	DQ	0000000000000000H
	DQ	0000000000000000H
	DQ	0000000000000000H
	DQ	FLAT:tee_new
	DQ	FLAT:PyObject_GC_Del
	ORG $+64
tee_doc	DB	'tee(iterable, n=2) --> tuple of n independent iterators.'
	DB	00H
	ORG $+7
cycle_methods DQ FLAT:??_C@_0L@NNMACJIG@__reduce__?$AA@
	DQ	FLAT:cycle_reduce
	DD	04H
	ORG $+4
	DQ	FLAT:reduce_doc
	DQ	FLAT:??_C@_0N@MOOGCAMH@__setstate__?$AA@
	DQ	FLAT:cycle_setstate
	DD	08H
	ORG $+4
	DQ	FLAT:setstate_doc
	DQ	0000000000000000H
	DQ	0000000000000000H
	ORG $+16
cycle_doc DB	'cycle(iterable) --> cycle object', 0aH, 0aH, 'Return ele'
	DB	'ments from the iterable until it is exhausted.', 0aH, 'Then r'
	DB	'epeat the sequence indefinitely.', 00H
	ORG $+14
cycle_type DQ	dead1234beef5678H
	DQ	dead1234beef5678H
	DQ	0000000000000000H
	ORG $+8
	DQ	0000000000000001H
	DQ	0000000000000000H
	DQ	0000000000000000H
	DQ	0000000000000000H
	DQ	dead1234beef5678H
	DQ	dead1234beef5678H
	DQ	0000000000000001H
	DQ	0000000000000000H
	DQ	0000000000000000H
	ORG $+8
	DQ	FLAT:??_C@_0BA@GAHIILDM@itertools?4cycle?$AA@
	DQ	0000000000000080H
	DQ	0000000000000000H
	DQ	FLAT:cycle_dealloc
	DQ	0000000000000000H
	DQ	0000000000000000H
	DQ	0000000000000000H
	DQ	0000000000000000H
	DQ	0000000000000000H
	DQ	0000000000000000H
	DQ	0000000000000000H
	DQ	0000000000000000H
	DQ	0000000000000000H
	DQ	0000000000000000H
	DQ	0000000000000000H
	DQ	FLAT:PyObject_GenericGetAttr
	DQ	0000000000000000H
	DQ	0000000000000000H
	DD	044400H
	ORG $+4
	DQ	FLAT:cycle_doc
	DQ	FLAT:cycle_traverse
	DQ	0000000000000000H
	DQ	0000000000000000H
	DQ	0000000000000000H
	DQ	FLAT:PyObject_SelfIter
	DQ	FLAT:cycle_next
	DQ	FLAT:cycle_methods
	DQ	0000000000000000H
	DQ	0000000000000000H
	DQ	0000000000000000H
	DQ	0000000000000000H
	DQ	0000000000000000H
	DQ	0000000000000000H
	DQ	0000000000000000H
	DQ	0000000000000000H
	DQ	0000000000000000H
	DQ	FLAT:cycle_new
	DQ	FLAT:PyObject_GC_Del
	ORG $+64
dropwhile_methods DQ FLAT:??_C@_0L@NNMACJIG@__reduce__?$AA@
	DQ	FLAT:dropwhile_reduce
	DD	04H
	ORG $+4
	DQ	FLAT:reduce_doc
	DQ	FLAT:??_C@_0N@MOOGCAMH@__setstate__?$AA@
	DQ	FLAT:dropwhile_setstate
	DD	08H
	ORG $+4
	DQ	FLAT:setstate_doc
	DQ	0000000000000000H
	DQ	0000000000000000H
	ORG $+16
dropwhile_doc DB 'dropwhile(predicate, iterable) --> dropwhile object', 0aH
	DB	0aH, 'Drop items from the iterable while predicate(item) is tr'
	DB	'ue.', 0aH, 'Afterwards, return every element until the iterab'
	DB	'le is exhausted.', 00H
	ORG $+13
dropwhile_type DQ dead1234beef5678H
	DQ	dead1234beef5678H
	DQ	0000000000000000H
	ORG $+8
	DQ	0000000000000001H
	DQ	0000000000000000H
	DQ	0000000000000000H
	DQ	0000000000000000H
	DQ	dead1234beef5678H
	DQ	dead1234beef5678H
	DQ	0000000000000001H
	DQ	0000000000000000H
	DQ	0000000000000000H
	ORG $+8
	DQ	FLAT:??_C@_0BE@JCKEMNLM@itertools?4dropwhile?$AA@
	DQ	0000000000000080H
	DQ	0000000000000000H
	DQ	FLAT:dropwhile_dealloc
	DQ	0000000000000000H
	DQ	0000000000000000H
	DQ	0000000000000000H
	DQ	0000000000000000H
	DQ	0000000000000000H
	DQ	0000000000000000H
	DQ	0000000000000000H
	DQ	0000000000000000H
	DQ	0000000000000000H
	DQ	0000000000000000H
	DQ	0000000000000000H
	DQ	FLAT:PyObject_GenericGetAttr
	DQ	0000000000000000H
	DQ	0000000000000000H
	DD	044400H
	ORG $+4
	DQ	FLAT:dropwhile_doc
	DQ	FLAT:dropwhile_traverse
	DQ	0000000000000000H
	DQ	0000000000000000H
	DQ	0000000000000000H
	DQ	FLAT:PyObject_SelfIter
	DQ	FLAT:dropwhile_next
	DQ	FLAT:dropwhile_methods
	DQ	0000000000000000H
	DQ	0000000000000000H
	DQ	0000000000000000H
	DQ	0000000000000000H
	DQ	0000000000000000H
	DQ	0000000000000000H
	DQ	0000000000000000H
	DQ	0000000000000000H
	DQ	0000000000000000H
	DQ	FLAT:dropwhile_new
	DQ	FLAT:PyObject_GC_Del
	ORG $+64
takewhile_reduce_methods DQ FLAT:??_C@_0L@NNMACJIG@__reduce__?$AA@
	DQ	FLAT:takewhile_reduce
	DD	04H
	ORG $+4
	DQ	FLAT:reduce_doc
	DQ	FLAT:??_C@_0N@MOOGCAMH@__setstate__?$AA@
	DQ	FLAT:takewhile_reduce_setstate
	DD	08H
	ORG $+4
	DQ	FLAT:setstate_doc
	DQ	0000000000000000H
	DQ	0000000000000000H
	ORG $+16
takewhile_doc DB 'takewhile(predicate, iterable) --> takewhile object', 0aH
	DB	0aH, 'Return successive entries from an iterable as long as th'
	DB	'e ', 0aH, 'predicate evaluates to true for each entry.', 00H
	ORG $+4
takewhile_type DQ dead1234beef5678H
	DQ	dead1234beef5678H
	DQ	0000000000000000H
	ORG $+8
	DQ	0000000000000001H
	DQ	0000000000000000H
	DQ	0000000000000000H
	DQ	0000000000000000H
	DQ	dead1234beef5678H
	DQ	dead1234beef5678H
	DQ	0000000000000001H
	DQ	0000000000000000H
	DQ	0000000000000000H
	ORG $+8
	DQ	FLAT:??_C@_0BE@JBOLIPHD@itertools?4takewhile?$AA@
	DQ	0000000000000080H
	DQ	0000000000000000H
	DQ	FLAT:takewhile_dealloc
	DQ	0000000000000000H
	DQ	0000000000000000H
	DQ	0000000000000000H
	DQ	0000000000000000H
	DQ	0000000000000000H
	DQ	0000000000000000H
	DQ	0000000000000000H
	DQ	0000000000000000H
	DQ	0000000000000000H
	DQ	0000000000000000H
	DQ	0000000000000000H
	DQ	FLAT:PyObject_GenericGetAttr
	DQ	0000000000000000H
	DQ	0000000000000000H
	DD	044400H
	ORG $+4
	DQ	FLAT:takewhile_doc
	DQ	FLAT:takewhile_traverse
	DQ	0000000000000000H
	DQ	0000000000000000H
	DQ	0000000000000000H
	DQ	FLAT:PyObject_SelfIter
	DQ	FLAT:takewhile_next
	DQ	FLAT:takewhile_reduce_methods
	DQ	0000000000000000H
	DQ	0000000000000000H
	DQ	0000000000000000H
	DQ	0000000000000000H
	DQ	0000000000000000H
	DQ	0000000000000000H
	DQ	0000000000000000H
	DQ	0000000000000000H
	DQ	0000000000000000H
	DQ	FLAT:takewhile_new
	DQ	FLAT:PyObject_GC_Del
	ORG $+64
islice_methods DQ FLAT:??_C@_0L@NNMACJIG@__reduce__?$AA@
	DQ	FLAT:islice_reduce
	DD	04H
	ORG $+4
	DQ	FLAT:reduce_doc
	DQ	FLAT:??_C@_0N@MOOGCAMH@__setstate__?$AA@
	DQ	FLAT:islice_setstate
	DD	08H
	ORG $+4
	DQ	FLAT:setstate_doc
	DQ	0000000000000000H
	DQ	0000000000000000H
	ORG $+16
islice_doc DB	'islice(iterable, stop) --> islice object', 0aH, 'islice('
	DB	'iterable, start, stop[, step]) --> islice object', 0aH, 0aH, 'R'
	DB	'eturn an iterator whose next() method returns selected values'
	DB	' from an', 0aH, 'iterable.  If start is specified, will skip '
	DB	'all preceding elements;', 0aH, 'otherwise, start defaults to '
	DB	'zero.  Step defaults to one.  If', 0aH, 'specified as another'
	DB	' value, step determines how many values are ', 0aH, 'skipped '
	DB	'between successive calls.  Works like a slice() on a list', 0aH
	DB	'but returns an iterator.', 00H
	ORG $+9
islice_type DQ	dead1234beef5678H
	DQ	dead1234beef5678H
	DQ	0000000000000000H
	ORG $+8
	DQ	0000000000000001H
	DQ	0000000000000000H
	DQ	0000000000000000H
	DQ	0000000000000000H
	DQ	dead1234beef5678H
	DQ	dead1234beef5678H
	DQ	0000000000000001H
	DQ	0000000000000000H
	DQ	0000000000000000H
	ORG $+8
	DQ	FLAT:??_C@_0BB@IDGNPMJH@itertools?4islice?$AA@
	DQ	0000000000000090H
	DQ	0000000000000000H
	DQ	FLAT:islice_dealloc
	DQ	0000000000000000H
	DQ	0000000000000000H
	DQ	0000000000000000H
	DQ	0000000000000000H
	DQ	0000000000000000H
	DQ	0000000000000000H
	DQ	0000000000000000H
	DQ	0000000000000000H
	DQ	0000000000000000H
	DQ	0000000000000000H
	DQ	0000000000000000H
	DQ	FLAT:PyObject_GenericGetAttr
	DQ	0000000000000000H
	DQ	0000000000000000H
	DD	044400H
	ORG $+4
	DQ	FLAT:islice_doc
	DQ	FLAT:islice_traverse
	DQ	0000000000000000H
	DQ	0000000000000000H
	DQ	0000000000000000H
	DQ	FLAT:PyObject_SelfIter
	DQ	FLAT:islice_next
	DQ	FLAT:islice_methods
	DQ	0000000000000000H
	DQ	0000000000000000H
	DQ	0000000000000000H
	DQ	0000000000000000H
	DQ	0000000000000000H
	DQ	0000000000000000H
	DQ	0000000000000000H
	DQ	0000000000000000H
	DQ	0000000000000000H
	DQ	FLAT:islice_new
	DQ	FLAT:PyObject_GC_Del
	ORG $+64
starmap_methods DQ FLAT:??_C@_0L@NNMACJIG@__reduce__?$AA@
	DQ	FLAT:starmap_reduce
	DD	04H
	ORG $+4
	DQ	FLAT:reduce_doc
	DQ	0000000000000000H
	DQ	0000000000000000H
	ORG $+16
starmap_doc DB	'starmap(function, sequence) --> starmap object', 0aH, 0aH
	DB	'Return an iterator whose values are returned from the functio'
	DB	'n evaluated', 0aH, 'with a argument tuple taken from the give'
	DB	'n sequence.', 00H
	ORG $+2
starmap_type DQ	dead1234beef5678H
	DQ	dead1234beef5678H
	DQ	0000000000000000H
	ORG $+8
	DQ	0000000000000001H
	DQ	0000000000000000H
	DQ	0000000000000000H
	DQ	0000000000000000H
	DQ	dead1234beef5678H
	DQ	dead1234beef5678H
	DQ	0000000000000001H
	DQ	0000000000000000H
	DQ	0000000000000000H
	ORG $+8
	DQ	FLAT:??_C@_0BC@CFHDGLCC@itertools?4starmap?$AA@
	DQ	0000000000000070H
	DQ	0000000000000000H
	DQ	FLAT:starmap_dealloc
	DQ	0000000000000000H
	DQ	0000000000000000H
	DQ	0000000000000000H
	DQ	0000000000000000H
	DQ	0000000000000000H
	DQ	0000000000000000H
	DQ	0000000000000000H
	DQ	0000000000000000H
	DQ	0000000000000000H
	DQ	0000000000000000H
	DQ	0000000000000000H
	DQ	FLAT:PyObject_GenericGetAttr
	DQ	0000000000000000H
	DQ	0000000000000000H
	DD	044400H
	ORG $+4
	DQ	FLAT:starmap_doc
	DQ	FLAT:starmap_traverse
	DQ	0000000000000000H
	DQ	0000000000000000H
	DQ	0000000000000000H
	DQ	FLAT:PyObject_SelfIter
	DQ	FLAT:starmap_next
	DQ	FLAT:starmap_methods
	DQ	0000000000000000H
	DQ	0000000000000000H
	DQ	0000000000000000H
	DQ	0000000000000000H
	DQ	0000000000000000H
	DQ	0000000000000000H
	DQ	0000000000000000H
	DQ	0000000000000000H
	DQ	0000000000000000H
	DQ	FLAT:starmap_new
	DQ	FLAT:PyObject_GC_Del
	ORG $+64
chain_doc DB	'chain(*iterables) --> chain object', 0aH, 0aH, 'Return a'
	DB	' chain object whose .__next__() method returns elements from '
	DB	'the', 0aH, 'first iterable until it is exhausted, then elemen'
	DB	'ts from the next', 0aH, 'iterable, until all of the iterables'
	DB	' are exhausted.', 00H
	ORG $+13
chain_from_iterable_doc DB 'chain.from_iterable(iterable) --> chain objec'
	DB	't', 0aH, 0aH, 'Alternate chain() contructor taking a single i'
	DB	'terable argument', 0aH, 'that evaluates lazily.', 00H
	ORG $+10
chain_methods DQ FLAT:??_C@_0O@CCOONFCF@from_iterable?$AA@
	DQ	FLAT:chain_new_from_iterable
	DD	018H
	ORG $+4
	DQ	FLAT:chain_from_iterable_doc
	DQ	FLAT:??_C@_0L@NNMACJIG@__reduce__?$AA@
	DQ	FLAT:chain_reduce
	DD	04H
	ORG $+4
	DQ	FLAT:reduce_doc
	DQ	FLAT:??_C@_0N@MOOGCAMH@__setstate__?$AA@
	DQ	FLAT:chain_setstate
	DD	08H
	ORG $+4
	DQ	FLAT:setstate_doc
	DQ	0000000000000000H
	DQ	0000000000000000H
	ORG $+16
chain_type DQ	dead1234beef5678H
	DQ	dead1234beef5678H
	DQ	0000000000000000H
	ORG $+8
	DQ	0000000000000001H
	DQ	0000000000000000H
	DQ	0000000000000000H
	DQ	0000000000000000H
	DQ	dead1234beef5678H
	DQ	dead1234beef5678H
	DQ	0000000000000001H
	DQ	0000000000000000H
	DQ	0000000000000000H
	ORG $+8
	DQ	FLAT:??_C@_0BA@HCMOOGKF@itertools?4chain?$AA@
	DQ	0000000000000070H
	DQ	0000000000000000H
	DQ	FLAT:chain_dealloc
	DQ	0000000000000000H
	DQ	0000000000000000H
	DQ	0000000000000000H
	DQ	0000000000000000H
	DQ	0000000000000000H
	DQ	0000000000000000H
	DQ	0000000000000000H
	DQ	0000000000000000H
	DQ	0000000000000000H
	DQ	0000000000000000H
	DQ	0000000000000000H
	DQ	FLAT:PyObject_GenericGetAttr
	DQ	0000000000000000H
	DQ	0000000000000000H
	DD	044400H
	ORG $+4
	DQ	FLAT:chain_doc
	DQ	FLAT:chain_traverse
	DQ	0000000000000000H
	DQ	0000000000000000H
	DQ	0000000000000000H
	DQ	FLAT:PyObject_SelfIter
	DQ	FLAT:chain_next
	DQ	FLAT:chain_methods
	DQ	0000000000000000H
	DQ	0000000000000000H
	DQ	0000000000000000H
	DQ	0000000000000000H
	DQ	0000000000000000H
	DQ	0000000000000000H
	DQ	0000000000000000H
	DQ	0000000000000000H
	DQ	0000000000000000H
	DQ	FLAT:chain_new
	DQ	FLAT:PyObject_GC_Del
	ORG $+64
product_methods DQ FLAT:??_C@_0L@NNMACJIG@__reduce__?$AA@
	DQ	FLAT:product_reduce
	DD	04H
	ORG $+4
	DQ	FLAT:reduce_doc
	DQ	FLAT:??_C@_0N@MOOGCAMH@__setstate__?$AA@
	DQ	FLAT:product_setstate
	DD	08H
	ORG $+4
	DQ	FLAT:setstate_doc
	DQ	0000000000000000H
	DQ	0000000000000000H
	ORG $+16
product_doc DB	'product(*iterables, repeat=1) --> product object', 0aH, 0aH
	DB	'Cartesian product of input iterables.  Equivalent to nested f'
	DB	'or-loops.', 0aH, 0aH, 'For example, product(A, B) returns the'
	DB	' same as:  ((x,y) for x in A for y in B).', 0aH, 'The leftmos'
	DB	't iterators are in the outermost for-loop, so the output tupl'
	DB	'es', 0aH, 'cycle in a manner similar to an odometer (with the'
	DB	' rightmost element changing', 0aH, 'on every iteration).', 0aH
	DB	0aH, 'To compute the product of an iterable with itself, speci'
	DB	'fy the number', 0aH, 'of repetitions with the optional repeat'
	DB	' keyword argument. For example,', 0aH, 'product(A, repeat=4) '
	DB	'means the same as product(A, A, A, A).', 0aH, 0aH, 'product('''
	DB	'ab'', range(3)) --> (''a'',0) (''a'',1) (''a'',2) (''b'',0) ('
	DB	'''b'',1) (''b'',2)', 0aH, 'product((0,1), (0,1), (0,1)) --> ('
	DB	'0,0,0) (0,0,1) (0,1,0) (0,1,1) (1,0,0) ...', 00H
	ORG $+4
product_type DQ	dead1234beef5678H
	DQ	dead1234beef5678H
	DQ	0000000000000000H
	ORG $+8
	DQ	0000000000000001H
	DQ	0000000000000000H
	DQ	0000000000000000H
	DQ	0000000000000000H
	DQ	dead1234beef5678H
	DQ	dead1234beef5678H
	DQ	0000000000000001H
	DQ	0000000000000000H
	DQ	0000000000000000H
	ORG $+8
	DQ	FLAT:??_C@_0BC@OPMDDELD@itertools?4product?$AA@
	DQ	0000000000000080H
	DQ	0000000000000000H
	DQ	FLAT:product_dealloc
	DQ	0000000000000000H
	DQ	0000000000000000H
	DQ	0000000000000000H
	DQ	0000000000000000H
	DQ	0000000000000000H
	DQ	0000000000000000H
	DQ	0000000000000000H
	DQ	0000000000000000H
	DQ	0000000000000000H
	DQ	0000000000000000H
	DQ	0000000000000000H
	DQ	FLAT:PyObject_GenericGetAttr
	DQ	0000000000000000H
	DQ	0000000000000000H
	DD	044400H
	ORG $+4
	DQ	FLAT:product_doc
	DQ	FLAT:product_traverse
	DQ	0000000000000000H
	DQ	0000000000000000H
	DQ	0000000000000000H
	DQ	FLAT:PyObject_SelfIter
	DQ	FLAT:product_next
	DQ	FLAT:product_methods
	DQ	0000000000000000H
	DQ	0000000000000000H
	DQ	0000000000000000H
	DQ	0000000000000000H
	DQ	0000000000000000H
	DQ	0000000000000000H
	DQ	0000000000000000H
	DQ	0000000000000000H
	DQ	0000000000000000H
	DQ	FLAT:product_new
	DQ	FLAT:PyObject_GC_Del
	ORG $+64
?kwargs@?1??combinations_new@@9@9 DQ FLAT:??_C@_08DCHCEAJP@iterable?$AA@ ; `combinations_new'::`2'::kwargs
	DQ	FLAT:??_C@_01KDCPPGHE@r?$AA@
	DQ	0000000000000000H
	ORG $+8
combinations_methods DQ FLAT:??_C@_0L@NNMACJIG@__reduce__?$AA@
	DQ	FLAT:combinations_reduce
	DD	04H
	ORG $+4
	DQ	FLAT:reduce_doc
	DQ	FLAT:??_C@_0N@MOOGCAMH@__setstate__?$AA@
	DQ	FLAT:combinations_setstate
	DD	08H
	ORG $+4
	DQ	FLAT:setstate_doc
	DQ	0000000000000000H
	DQ	0000000000000000H
	ORG $+16
combinations_doc DB 'combinations(iterable, r) --> combinations object', 0aH
	DB	0aH, 'Return successive r-length combinations of elements in t'
	DB	'he iterable.', 0aH, 0aH, 'combinations(range(4), 3) --> (0,1,'
	DB	'2), (0,1,3), (0,2,3), (1,2,3)', 00H
	ORG $+6
combinations_type DQ dead1234beef5678H
	DQ	dead1234beef5678H
	DQ	0000000000000000H
	ORG $+8
	DQ	0000000000000001H
	DQ	0000000000000000H
	DQ	0000000000000000H
	DQ	0000000000000000H
	DQ	dead1234beef5678H
	DQ	dead1234beef5678H
	DQ	0000000000000001H
	DQ	0000000000000000H
	DQ	0000000000000000H
	ORG $+8
	DQ	FLAT:??_C@_0BH@GJLBFDPE@itertools?4combinations?$AA@
	DQ	0000000000000090H
	DQ	0000000000000000H
	DQ	FLAT:combinations_dealloc
	DQ	0000000000000000H
	DQ	0000000000000000H
	DQ	0000000000000000H
	DQ	0000000000000000H
	DQ	0000000000000000H
	DQ	0000000000000000H
	DQ	0000000000000000H
	DQ	0000000000000000H
	DQ	0000000000000000H
	DQ	0000000000000000H
	DQ	0000000000000000H
	DQ	FLAT:PyObject_GenericGetAttr
	DQ	0000000000000000H
	DQ	0000000000000000H
	DD	044400H
	ORG $+4
	DQ	FLAT:combinations_doc
	DQ	FLAT:combinations_traverse
	DQ	0000000000000000H
	DQ	0000000000000000H
	DQ	0000000000000000H
	DQ	FLAT:PyObject_SelfIter
	DQ	FLAT:combinations_next
	DQ	FLAT:combinations_methods
	DQ	0000000000000000H
	DQ	0000000000000000H
	DQ	0000000000000000H
	DQ	0000000000000000H
	DQ	0000000000000000H
	DQ	0000000000000000H
	DQ	0000000000000000H
	DQ	0000000000000000H
	DQ	0000000000000000H
	DQ	FLAT:combinations_new
	DQ	FLAT:PyObject_GC_Del
	ORG $+64
?kwargs@?1??cwr_new@@9@9 DQ FLAT:??_C@_08DCHCEAJP@iterable?$AA@ ; `cwr_new'::`2'::kwargs
	DQ	FLAT:??_C@_01KDCPPGHE@r?$AA@
	DQ	0000000000000000H
	ORG $+8
cwr_methods DQ	FLAT:??_C@_0L@NNMACJIG@__reduce__?$AA@
	DQ	FLAT:cwr_reduce
	DD	04H
	ORG $+4
	DQ	FLAT:reduce_doc
	DQ	FLAT:??_C@_0N@MOOGCAMH@__setstate__?$AA@
	DQ	FLAT:cwr_setstate
	DD	08H
	ORG $+4
	DQ	FLAT:setstate_doc
	DQ	0000000000000000H
	DQ	0000000000000000H
	ORG $+16
cwr_doc	DB	'combinations_with_replacement(iterable, r) --> combinati'
	DB	'ons_with_replacement object', 0aH, 0aH, 'Return successive r-'
	DB	'length combinations of elements in the iterable', 0aH, 'allow'
	DB	'ing individual elements to have successive repeats.', 0aH, 'c'
	DB	'ombinations_with_replacement(''ABC'', 2) --> AA AB AC BB BC C'
	DB	'C', 00H
cwr_type DQ	dead1234beef5678H
	DQ	dead1234beef5678H
	DQ	0000000000000000H
	ORG $+8
	DQ	0000000000000001H
	DQ	0000000000000000H
	DQ	0000000000000000H
	DQ	0000000000000000H
	DQ	dead1234beef5678H
	DQ	dead1234beef5678H
	DQ	0000000000000001H
	DQ	0000000000000000H
	DQ	0000000000000000H
	ORG $+8
	DQ	FLAT:??_C@_0CI@LFGIIFFE@itertools?4combinations_with_repl@
	DQ	0000000000000090H
	DQ	0000000000000000H
	DQ	FLAT:cwr_dealloc
	DQ	0000000000000000H
	DQ	0000000000000000H
	DQ	0000000000000000H
	DQ	0000000000000000H
	DQ	0000000000000000H
	DQ	0000000000000000H
	DQ	0000000000000000H
	DQ	0000000000000000H
	DQ	0000000000000000H
	DQ	0000000000000000H
	DQ	0000000000000000H
	DQ	FLAT:PyObject_GenericGetAttr
	DQ	0000000000000000H
	DQ	0000000000000000H
	DD	044400H
	ORG $+4
	DQ	FLAT:cwr_doc
	DQ	FLAT:cwr_traverse
	DQ	0000000000000000H
	DQ	0000000000000000H
	DQ	0000000000000000H
	DQ	FLAT:PyObject_SelfIter
	DQ	FLAT:cwr_next
	DQ	FLAT:cwr_methods
	DQ	0000000000000000H
	DQ	0000000000000000H
	DQ	0000000000000000H
	DQ	0000000000000000H
	DQ	0000000000000000H
	DQ	0000000000000000H
	DQ	0000000000000000H
	DQ	0000000000000000H
	DQ	0000000000000000H
	DQ	FLAT:cwr_new
	DQ	FLAT:PyObject_GC_Del
	ORG $+64
?kwargs@?1??permutations_new@@9@9 DQ FLAT:??_C@_08DCHCEAJP@iterable?$AA@ ; `permutations_new'::`2'::kwargs
	DQ	FLAT:??_C@_01KDCPPGHE@r?$AA@
	DQ	0000000000000000H
	ORG $+8
permuations_methods DQ FLAT:??_C@_0L@NNMACJIG@__reduce__?$AA@
	DQ	FLAT:permutations_reduce
	DD	04H
	ORG $+4
	DQ	FLAT:reduce_doc
	DQ	FLAT:??_C@_0N@MOOGCAMH@__setstate__?$AA@
	DQ	FLAT:permutations_setstate
	DD	08H
	ORG $+4
	DQ	FLAT:setstate_doc
	DQ	0000000000000000H
	DQ	0000000000000000H
	ORG $+16
permutations_doc DB 'permutations(iterable[, r]) --> permutations object', 0aH
	DB	0aH, 'Return successive r-length permutations of elements in t'
	DB	'he iterable.', 0aH, 0aH, 'permutations(range(3), 2) --> (0,1)'
	DB	', (0,2), (1,0), (1,2), (2,0), (2,1)', 00H
	ORG $+14
permutations_type DQ dead1234beef5678H
	DQ	dead1234beef5678H
	DQ	0000000000000000H
	ORG $+8
	DQ	0000000000000001H
	DQ	0000000000000000H
	DQ	0000000000000000H
	DQ	0000000000000000H
	DQ	dead1234beef5678H
	DQ	dead1234beef5678H
	DQ	0000000000000001H
	DQ	0000000000000000H
	DQ	0000000000000000H
	ORG $+8
	DQ	FLAT:??_C@_0BH@OBMBIGIH@itertools?4permutations?$AA@
	DQ	0000000000000090H
	DQ	0000000000000000H
	DQ	FLAT:permutations_dealloc
	DQ	0000000000000000H
	DQ	0000000000000000H
	DQ	0000000000000000H
	DQ	0000000000000000H
	DQ	0000000000000000H
	DQ	0000000000000000H
	DQ	0000000000000000H
	DQ	0000000000000000H
	DQ	0000000000000000H
	DQ	0000000000000000H
	DQ	0000000000000000H
	DQ	FLAT:PyObject_GenericGetAttr
	DQ	0000000000000000H
	DQ	0000000000000000H
	DD	044400H
	ORG $+4
	DQ	FLAT:permutations_doc
	DQ	FLAT:permutations_traverse
	DQ	0000000000000000H
	DQ	0000000000000000H
	DQ	0000000000000000H
	DQ	FLAT:PyObject_SelfIter
	DQ	FLAT:permutations_next
	DQ	FLAT:permuations_methods
	DQ	0000000000000000H
	DQ	0000000000000000H
	DQ	0000000000000000H
	DQ	0000000000000000H
	DQ	0000000000000000H
	DQ	0000000000000000H
	DQ	0000000000000000H
	DQ	0000000000000000H
	DQ	0000000000000000H
	DQ	FLAT:permutations_new
	DQ	FLAT:PyObject_GC_Del
	ORG $+64
?kwargs@?1??accumulate_new@@9@9 DQ FLAT:??_C@_08DCHCEAJP@iterable?$AA@ ; `accumulate_new'::`2'::kwargs
	DQ	FLAT:??_C@_04HPNHAEOP@func?$AA@
	DQ	0000000000000000H
	ORG $+8
accumulate_methods DQ FLAT:??_C@_0L@NNMACJIG@__reduce__?$AA@
	DQ	FLAT:accumulate_reduce
	DD	04H
	ORG $+4
	DQ	FLAT:reduce_doc
	DQ	FLAT:??_C@_0N@MOOGCAMH@__setstate__?$AA@
	DQ	FLAT:accumulate_setstate
	DD	08H
	ORG $+4
	DQ	FLAT:setstate_doc
	DQ	0000000000000000H
	DQ	0000000000000000H
	ORG $+16
accumulate_doc DB 'accumulate(iterable[, func]) --> accumulate object', 0aH
	DB	0aH, 'Return series of accumulated sums (or other binary funct'
	DB	'ion results).', 00H
	ORG $+6
accumulate_type DQ dead1234beef5678H
	DQ	dead1234beef5678H
	DQ	0000000000000000H
	ORG $+8
	DQ	0000000000000001H
	DQ	0000000000000000H
	DQ	0000000000000000H
	DQ	0000000000000000H
	DQ	dead1234beef5678H
	DQ	dead1234beef5678H
	DQ	0000000000000001H
	DQ	0000000000000000H
	DQ	0000000000000000H
	ORG $+8
	DQ	FLAT:??_C@_0BF@JGKIDDED@itertools?4accumulate?$AA@
	DQ	0000000000000080H
	DQ	0000000000000000H
	DQ	FLAT:accumulate_dealloc
	DQ	0000000000000000H
	DQ	0000000000000000H
	DQ	0000000000000000H
	DQ	0000000000000000H
	DQ	0000000000000000H
	DQ	0000000000000000H
	DQ	0000000000000000H
	DQ	0000000000000000H
	DQ	0000000000000000H
	DQ	0000000000000000H
	DQ	0000000000000000H
	DQ	FLAT:PyObject_GenericGetAttr
	DQ	0000000000000000H
	DQ	0000000000000000H
	DD	044400H
	ORG $+4
	DQ	FLAT:accumulate_doc
	DQ	FLAT:accumulate_traverse
	DQ	0000000000000000H
	DQ	0000000000000000H
	DQ	0000000000000000H
	DQ	FLAT:PyObject_SelfIter
	DQ	FLAT:accumulate_next
	DQ	FLAT:accumulate_methods
	DQ	0000000000000000H
	DQ	0000000000000000H
	DQ	0000000000000000H
	DQ	0000000000000000H
	DQ	0000000000000000H
	DQ	0000000000000000H
	DQ	0000000000000000H
	DQ	0000000000000000H
	DQ	0000000000000000H
	DQ	FLAT:accumulate_new
	DQ	FLAT:PyObject_GC_Del
	ORG $+64
?kwargs@?1??compress_new@@9@9 DQ FLAT:??_C@_04PJOLNDGD@data?$AA@ ; `compress_new'::`2'::kwargs
	DQ	FLAT:??_C@_09PLCFPBOK@selectors?$AA@
	DQ	0000000000000000H
	ORG $+8
compress_methods DQ FLAT:??_C@_0L@NNMACJIG@__reduce__?$AA@
	DQ	FLAT:compress_reduce
	DD	04H
	ORG $+4
	DQ	FLAT:reduce_doc
	DQ	0000000000000000H
	DQ	0000000000000000H
	ORG $+16
compress_doc DB	'compress(data, selectors) --> iterator over selected dat'
	DB	'a', 0aH, 0aH, 'Return data elements corresponding to true sel'
	DB	'ector elements.', 0aH, 'Forms a shorter iterator from selecte'
	DB	'd data elements using the', 0aH, 'selectors to choose the dat'
	DB	'a elements.', 00H
	ORG $+1
compress_type DQ dead1234beef5678H
	DQ	dead1234beef5678H
	DQ	0000000000000000H
	ORG $+8
	DQ	0000000000000001H
	DQ	0000000000000000H
	DQ	0000000000000000H
	DQ	0000000000000000H
	DQ	dead1234beef5678H
	DQ	dead1234beef5678H
	DQ	0000000000000001H
	DQ	0000000000000000H
	DQ	0000000000000000H
	ORG $+8
	DQ	FLAT:??_C@_0BD@LJLKJFJE@itertools?4compress?$AA@
	DQ	0000000000000070H
	DQ	0000000000000000H
	DQ	FLAT:compress_dealloc
	DQ	0000000000000000H
	DQ	0000000000000000H
	DQ	0000000000000000H
	DQ	0000000000000000H
	DQ	0000000000000000H
	DQ	0000000000000000H
	DQ	0000000000000000H
	DQ	0000000000000000H
	DQ	0000000000000000H
	DQ	0000000000000000H
	DQ	0000000000000000H
	DQ	FLAT:PyObject_GenericGetAttr
	DQ	0000000000000000H
	DQ	0000000000000000H
	DD	044400H
	ORG $+4
	DQ	FLAT:compress_doc
	DQ	FLAT:compress_traverse
	DQ	0000000000000000H
	DQ	0000000000000000H
	DQ	0000000000000000H
	DQ	FLAT:PyObject_SelfIter
	DQ	FLAT:compress_next
	DQ	FLAT:compress_methods
	DQ	0000000000000000H
	DQ	0000000000000000H
	DQ	0000000000000000H
	DQ	0000000000000000H
	DQ	0000000000000000H
	DQ	0000000000000000H
	DQ	0000000000000000H
	DQ	0000000000000000H
	DQ	0000000000000000H
	DQ	FLAT:compress_new
	DQ	FLAT:PyObject_GC_Del
	ORG $+64
filterfalse_methods DQ FLAT:??_C@_0L@NNMACJIG@__reduce__?$AA@
	DQ	FLAT:filterfalse_reduce
	DD	04H
	ORG $+4
	DQ	FLAT:reduce_doc
	DQ	0000000000000000H
	DQ	0000000000000000H
	ORG $+16
filterfalse_doc DB 'filterfalse(function or None, sequence) --> filterfal'
	DB	'se object', 0aH, 0aH, 'Return those items of sequence for whi'
	DB	'ch function(item) is false.', 0aH, 'If function is None, retu'
	DB	'rn the items that are false.', 00H
	ORG $+8
filterfalse_type DQ dead1234beef5678H
	DQ	dead1234beef5678H
	DQ	0000000000000000H
	ORG $+8
	DQ	0000000000000001H
	DQ	0000000000000000H
	DQ	0000000000000000H
	DQ	0000000000000000H
	DQ	dead1234beef5678H
	DQ	dead1234beef5678H
	DQ	0000000000000001H
	DQ	0000000000000000H
	DQ	0000000000000000H
	ORG $+8
	DQ	FLAT:??_C@_0BG@LNFBHPNB@itertools?4filterfalse?$AA@
	DQ	0000000000000070H
	DQ	0000000000000000H
	DQ	FLAT:filterfalse_dealloc
	DQ	0000000000000000H
	DQ	0000000000000000H
	DQ	0000000000000000H
	DQ	0000000000000000H
	DQ	0000000000000000H
	DQ	0000000000000000H
	DQ	0000000000000000H
	DQ	0000000000000000H
	DQ	0000000000000000H
	DQ	0000000000000000H
	DQ	0000000000000000H
	DQ	FLAT:PyObject_GenericGetAttr
	DQ	0000000000000000H
	DQ	0000000000000000H
	DD	044400H
	ORG $+4
	DQ	FLAT:filterfalse_doc
	DQ	FLAT:filterfalse_traverse
	DQ	0000000000000000H
	DQ	0000000000000000H
	DQ	0000000000000000H
	DQ	FLAT:PyObject_SelfIter
	DQ	FLAT:filterfalse_next
	DQ	FLAT:filterfalse_methods
	DQ	0000000000000000H
	DQ	0000000000000000H
	DQ	0000000000000000H
	DQ	0000000000000000H
	DQ	0000000000000000H
	DQ	0000000000000000H
	DQ	0000000000000000H
	DQ	0000000000000000H
	DQ	0000000000000000H
	DQ	FLAT:filterfalse_new
	DQ	FLAT:PyObject_GC_Del
	ORG $+64
?kwlist@?1??count_new@@9@9 DQ FLAT:??_C@_05FAGFPHJG@start?$AA@ ; `count_new'::`2'::kwlist
	DQ	FLAT:??_C@_04CNBNFAL@step?$AA@
	DQ	0000000000000000H
	ORG $+8
count_methods DQ FLAT:??_C@_0L@NNMACJIG@__reduce__?$AA@
	DQ	FLAT:count_reduce
	DD	04H
	ORG $+4
	DQ	FLAT:reduce_doc
	DQ	0000000000000000H
	DQ	0000000000000000H
	ORG $+16
count_doc DB	'count(start=0, step=1) --> count object', 0aH, 0aH, 'Ret'
	DB	'urn a count object whose .__next__() method returns consecuti'
	DB	've values.', 0aH, 'Equivalent to:', 0aH, 0aH, '    def count('
	DB	'firstval=0, step=1):', 0aH, '        x = firstval', 0aH, '   '
	DB	'     while 1:', 0aH, '            yield x', 0aH, '           '
	DB	' x += step', 0aH, 00H
	ORG $+8
count_type DQ	dead1234beef5678H
	DQ	dead1234beef5678H
	DQ	0000000000000000H
	ORG $+8
	DQ	0000000000000001H
	DQ	0000000000000000H
	DQ	0000000000000000H
	DQ	0000000000000000H
	DQ	dead1234beef5678H
	DQ	dead1234beef5678H
	DQ	0000000000000001H
	DQ	0000000000000000H
	DQ	0000000000000000H
	ORG $+8
	DQ	FLAT:??_C@_0BA@KKPHBGCD@itertools?4count?$AA@
	DQ	0000000000000080H
	DQ	0000000000000000H
	DQ	FLAT:count_dealloc
	DQ	0000000000000000H
	DQ	0000000000000000H
	DQ	0000000000000000H
	DQ	0000000000000000H
	DQ	FLAT:count_repr
	DQ	0000000000000000H
	DQ	0000000000000000H
	DQ	0000000000000000H
	DQ	0000000000000000H
	DQ	0000000000000000H
	DQ	0000000000000000H
	DQ	FLAT:PyObject_GenericGetAttr
	DQ	0000000000000000H
	DQ	0000000000000000H
	DD	044400H
	ORG $+4
	DQ	FLAT:count_doc
	DQ	FLAT:count_traverse
	DQ	0000000000000000H
	DQ	0000000000000000H
	DQ	0000000000000000H
	DQ	FLAT:PyObject_SelfIter
	DQ	FLAT:count_next
	DQ	FLAT:count_methods
	DQ	0000000000000000H
	DQ	0000000000000000H
	DQ	0000000000000000H
	DQ	0000000000000000H
	DQ	0000000000000000H
	DQ	0000000000000000H
	DQ	0000000000000000H
	DQ	0000000000000000H
	DQ	0000000000000000H
	DQ	FLAT:count_new
	DQ	FLAT:PyObject_GC_Del
	ORG $+64
?kwargs@?1??repeat_new@@9@9 DQ FLAT:??_C@_06IEOJBDIK@object?$AA@ ; `repeat_new'::`2'::kwargs
	DQ	FLAT:??_C@_05MJOOAIJH@times?$AA@
	DQ	0000000000000000H
length_hint_doc DB 'Private method returning an estimate of len(list(it))'
	DB	'.', 00H
	ORG $+1
repeat_methods DQ FLAT:??_C@_0BA@BJLPBKGK@__length_hint__?$AA@
	DQ	FLAT:repeat_len
	DD	04H
	ORG $+4
	DQ	FLAT:length_hint_doc
	DQ	FLAT:??_C@_0L@NNMACJIG@__reduce__?$AA@
	DQ	FLAT:repeat_reduce
	DD	04H
	ORG $+4
	DQ	FLAT:reduce_doc
	DQ	0000000000000000H
	DQ	0000000000000000H
	ORG $+16
repeat_doc DB	'repeat(object [,times]) -> create an iterator which retu'
	DB	'rns the object', 0aH, 'for the specified number of times.  If'
	DB	' not specified, returns the object', 0aH, 'endlessly.', 00H
	ORG $+5
repeat_type DQ	dead1234beef5678H
	DQ	dead1234beef5678H
	DQ	0000000000000000H
	ORG $+8
	DQ	0000000000000001H
	DQ	0000000000000000H
	DQ	0000000000000000H
	DQ	0000000000000000H
	DQ	dead1234beef5678H
	DQ	dead1234beef5678H
	DQ	0000000000000001H
	DQ	0000000000000000H
	DQ	0000000000000000H
	ORG $+8
	DQ	FLAT:??_C@_0BB@IMKAOHGA@itertools?4repeat?$AA@
	DQ	0000000000000070H
	DQ	0000000000000000H
	DQ	FLAT:repeat_dealloc
	DQ	0000000000000000H
	DQ	0000000000000000H
	DQ	0000000000000000H
	DQ	0000000000000000H
	DQ	FLAT:repeat_repr
	DQ	0000000000000000H
	DQ	0000000000000000H
	DQ	0000000000000000H
	DQ	0000000000000000H
	DQ	0000000000000000H
	DQ	0000000000000000H
	DQ	FLAT:PyObject_GenericGetAttr
	DQ	0000000000000000H
	DQ	0000000000000000H
	DD	044400H
	ORG $+4
	DQ	FLAT:repeat_doc
	DQ	FLAT:repeat_traverse
	DQ	0000000000000000H
	DQ	0000000000000000H
	DQ	0000000000000000H
	DQ	FLAT:PyObject_SelfIter
	DQ	FLAT:repeat_next
	DQ	FLAT:repeat_methods
	DQ	0000000000000000H
	DQ	0000000000000000H
	DQ	0000000000000000H
	DQ	0000000000000000H
	DQ	0000000000000000H
	DQ	0000000000000000H
	DQ	0000000000000000H
	DQ	0000000000000000H
	DQ	0000000000000000H
	DQ	FLAT:repeat_new
	DQ	FLAT:PyObject_GC_Del
	ORG $+64
zip_longest_methods DQ FLAT:??_C@_0L@NNMACJIG@__reduce__?$AA@
	DQ	FLAT:zip_longest_reduce
	DD	04H
	ORG $+4
	DQ	FLAT:reduce_doc
	DQ	FLAT:??_C@_0N@MOOGCAMH@__setstate__?$AA@
	DQ	FLAT:zip_longest_setstate
	DD	08H
	ORG $+4
	DQ	FLAT:setstate_doc
	DQ	0000000000000000H
	DQ	0000000000000000H
	ORG $+16
zip_longest_doc DB 'zip_longest(iter1 [,iter2 [...]], [fillvalue=None]) -'
	DB	'-> zip_longest object', 0aH, 0aH, 'Return an zip_longest obje'
	DB	'ct whose .__next__() method returns a tuple where', 0aH, 'the'
	DB	' i-th element comes from the i-th iterable argument.  The .__'
	DB	'next__()', 0aH, 'method continues until the longest iterable '
	DB	'in the argument sequence', 0aH, 'is exhausted and then it rai'
	DB	'ses StopIteration.  When the shorter iterables', 0aH, 'are ex'
	DB	'hausted, the fillvalue is substituted in their place.  The fi'
	DB	'llvalue', 0aH, 'defaults to None or can be specified by a key'
	DB	'word argument.', 0aH, 00H
	ORG $+7
ziplongest_type DQ dead1234beef5678H
	DQ	dead1234beef5678H
	DQ	0000000000000000H
	ORG $+8
	DQ	0000000000000001H
	DQ	0000000000000000H
	DQ	0000000000000000H
	DQ	0000000000000000H
	DQ	dead1234beef5678H
	DQ	dead1234beef5678H
	DQ	0000000000000001H
	DQ	0000000000000000H
	DQ	0000000000000000H
	ORG $+8
	DQ	FLAT:??_C@_0BG@NNPBFPMG@itertools?4zip_longest?$AA@
	DQ	0000000000000090H
	DQ	0000000000000000H
	DQ	FLAT:zip_longest_dealloc
	DQ	0000000000000000H
	DQ	0000000000000000H
	DQ	0000000000000000H
	DQ	0000000000000000H
	DQ	0000000000000000H
	DQ	0000000000000000H
	DQ	0000000000000000H
	DQ	0000000000000000H
	DQ	0000000000000000H
	DQ	0000000000000000H
	DQ	0000000000000000H
	DQ	FLAT:PyObject_GenericGetAttr
	DQ	0000000000000000H
	DQ	0000000000000000H
	DD	044400H
	ORG $+4
	DQ	FLAT:zip_longest_doc
	DQ	FLAT:zip_longest_traverse
	DQ	0000000000000000H
	DQ	0000000000000000H
	DQ	0000000000000000H
	DQ	FLAT:PyObject_SelfIter
	DQ	FLAT:zip_longest_next
	DQ	FLAT:zip_longest_methods
	DQ	0000000000000000H
	DQ	0000000000000000H
	DQ	0000000000000000H
	DQ	0000000000000000H
	DQ	0000000000000000H
	DQ	0000000000000000H
	DQ	0000000000000000H
	DQ	0000000000000000H
	DQ	0000000000000000H
	DQ	FLAT:zip_longest_new
	DQ	FLAT:PyObject_GC_Del
	ORG $+64
module_doc DB	'Functional tools for creating and using iterators.', 0aH
	DB	0aH, 'Infinite iterators:', 0aH, 'count(start=0, step=1) --> s'
	DB	'tart, start+step, start+2*step, ...', 0aH, 'cycle(p) --> p0, '
	DB	'p1, ... plast, p0, p1, ...', 0aH, 'repeat(elem [,n]) --> elem'
	DB	', elem, elem, ... endlessly or up to n times', 0aH, 0aH, 'Ite'
	DB	'rators terminating on the shortest input sequence:', 0aH, 'ac'
	DB	'cumulate(p[, func]) --> p0, p0+p1, p0+p1+p2', 0aH, 'chain(p, '
	DB	'q, ...) --> p0, p1, ... plast, q0, q1, ... ', 0aH, 'chain.fro'
	DB	'm_iterable([p, q, ...]) --> p0, p1, ... plast, q0, q1, ... ', 0aH
	DB	'compress(data, selectors) --> (d[0] if s[0]), (d[1] if s[1]),'
	DB	' ...', 0aH, 'dropwhile(pred, seq) --> seq[n], seq[n+1], start'
	DB	'ing when pred fails', 0aH, 'groupby(iterable[, keyfunc]) --> '
	DB	'sub-iterators grouped by value of keyfunc(v)', 0aH, 'filterfa'
	DB	'lse(pred, seq) --> elements of seq where pred(elem) is False', 0aH
	DB	'islice(seq, [start,] stop [, step]) --> elements from', 0aH, ' '
	DB	'      seq[start:stop:step]', 0aH, 'starmap(fun, seq) --> fun('
	DB	'*seq[0]), fun(*seq[1]), ...', 0aH, 'tee(it, n=2) --> (it1, it'
	DB	'2 , ... itn) splits one iterator into n', 0aH, 'takewhile(pre'
	DB	'd, seq) --> seq[0], seq[1], until pred fails', 0aH, 'zip_long'
	DB	'est(p, q, ...) --> (p[0], q[0]), (p[1], q[1]), ... ', 0aH, 0aH
	DB	'Combinatoric generators:', 0aH, 'product(p, q, ... [repeat=1]'
	DB	') --> cartesian product', 0aH, 'permutations(p[, r])', 0aH, 'c'
	DB	'ombinations(p, r)', 0aH, 'combinations_with_replacement(p, r)'
	DB	0aH, 00H
	ORG $+3
module_methods DQ FLAT:??_C@_03GMHAIBAB@tee?$AA@
	DQ	FLAT:tee
	DD	01H
	ORG $+4
	DQ	FLAT:tee_doc
	DQ	0000000000000000H
	DQ	0000000000000000H
	ORG $+16
itertoolsmodule DQ dead1234beef5678H
	DQ	dead1234beef5678H
	DQ	0000000000000000H
	ORG $+8
	DQ	0000000000000001H
	DQ	0000000000000000H
	DQ	0000000000000000H
	DQ	0000000000000000H
	DQ	dead1234beef5678H
	DQ	dead1234beef5678H
	DQ	0000000000000001H
	DQ	0000000000000000H
	DQ	0000000000000000H
	DQ	0000000000000000H
	DQ	0000000000000000H
	ORG $+8
	DQ	FLAT:??_C@_09NCHPBFFI@itertools?$AA@
	DQ	FLAT:module_doc
	DQ	ffffffffffffffffH
	DQ	FLAT:module_methods
	DQ	0000000000000000H
	DQ	0000000000000000H
	DQ	0000000000000000H
	DQ	0000000000000000H
_DATA	ENDS
;	COMDAT ??_C@_03ICHNJLJF@key?$AA@
CONST	SEGMENT
??_C@_03ICHNJLJF@key?$AA@ DB 'key', 00H			; `string'
CONST	ENDS
;	COMDAT ??_C@_08DCHCEAJP@iterable?$AA@
CONST	SEGMENT
??_C@_08DCHCEAJP@iterable?$AA@ DB 'iterable', 00H	; `string'
CONST	ENDS
PUBLIC	??_C@_0L@DHGMCEID@_Py_IncRef?$AA@		; `string'
PUBLIC	??_C@_0CD@HDJFDCDP@c?3?2src?2pyparallel?2include?2object@ ; `string'
PUBLIC	_Py_IncRef
EXTRN	_PyParallel_Guard:PROC
EXTRN	_Py_PXCTX:PROC
;	COMDAT pdata
; File c:\src\pyparallel\include\object.h
pdata	SEGMENT
$pdata$_Py_IncRef DD imagerel $LN5
	DD	imagerel $LN5+74
	DD	imagerel $unwind$_Py_IncRef
pdata	ENDS
;	COMDAT xdata
xdata	SEGMENT
$unwind$_Py_IncRef DD 020601H
	DD	030025206H
xdata	ENDS
;	COMDAT ??_C@_0L@DHGMCEID@_Py_IncRef?$AA@
CONST	SEGMENT
??_C@_0L@DHGMCEID@_Py_IncRef?$AA@ DB '_Py_IncRef', 00H	; `string'
CONST	ENDS
;	COMDAT ??_C@_0CD@HDJFDCDP@c?3?2src?2pyparallel?2include?2object@
CONST	SEGMENT
??_C@_0CD@HDJFDCDP@c?3?2src?2pyparallel?2include?2object@ DB 'c:\src\pypa'
	DB	'rallel\include\object.h', 00H		; `string'
; Function compile flags: /Ogtpy
CONST	ENDS
;	COMDAT _Py_IncRef
_TEXT	SEGMENT
op$ = 64
_Py_IncRef PROC						; COMDAT

; 904  : {

$LN5:
  00000	40 53		 push	 rbx
  00002	48 83 ec 30	 sub	 rsp, 48			; 00000030H
  00006	48 8b d9	 mov	 rbx, rcx

; 905  :     if ((!Py_PXCTX && (Py_ISPY(op) || Px_PERSISTED(op)))) {

  00009	e8 00 00 00 00	 call	 _Py_PXCTX
  0000e	85 c0		 test	 eax, eax
  00010	75 32		 jne	 SHORT $LN2@Py_IncRef
  00012	48 8d 15 00 00
	00 00		 lea	 rdx, OFFSET FLAT:??_C@_0CD@HDJFDCDP@c?3?2src?2pyparallel?2include?2object@
  00019	48 8d 0d 00 00
	00 00		 lea	 rcx, OFFSET FLAT:??_C@_0L@DHGMCEID@_Py_IncRef?$AA@
  00020	4c 8b cb	 mov	 r9, rbx
  00023	41 b8 89 03 00
	00		 mov	 r8d, 905		; 00000389H
  00029	c7 44 24 20 02
	00 00 00	 mov	 DWORD PTR [rsp+32], 2
  00031	e8 00 00 00 00	 call	 _PyParallel_Guard
  00036	85 c0		 test	 eax, eax
  00038	75 06		 jne	 SHORT $LN1@Py_IncRef
  0003a	f6 43 20 20	 test	 BYTE PTR [rbx+32], 32	; 00000020H
  0003e	74 04		 je	 SHORT $LN2@Py_IncRef
$LN1@Py_IncRef:

; 906  :         _Py_INC_REFTOTAL;
; 907  :         (((PyObject*)(op))->ob_refcnt++);

  00040	48 ff 43 50	 inc	 QWORD PTR [rbx+80]
$LN2@Py_IncRef:

; 908  :     }
; 909  : }

  00044	48 83 c4 30	 add	 rsp, 48			; 00000030H
  00048	5b		 pop	 rbx
  00049	c3		 ret	 0
_Py_IncRef ENDP
_TEXT	ENDS
PUBLIC	??_C@_0L@DMHMLFIA@_Py_DecRef?$AA@		; `string'
PUBLIC	_Py_DecRef
EXTRN	Px_DecRef:PROC
EXTRN	_Px_Dealloc:PROC
;	COMDAT pdata
pdata	SEGMENT
$pdata$_Py_DecRef DD imagerel $LN12
	DD	imagerel $LN12+123
	DD	imagerel $unwind$_Py_DecRef
pdata	ENDS
;	COMDAT xdata
xdata	SEGMENT
$unwind$_Py_DecRef DD 020601H
	DD	030025206H
xdata	ENDS
;	COMDAT ??_C@_0L@DMHMLFIA@_Py_DecRef?$AA@
CONST	SEGMENT
??_C@_0L@DMHMLFIA@_Py_DecRef?$AA@ DB '_Py_DecRef', 00H	; `string'
; Function compile flags: /Ogtpy
CONST	ENDS
;	COMDAT _Py_DecRef
_TEXT	SEGMENT
op$ = 64
_Py_DecRef PROC						; COMDAT

; 923  : {

$LN12:
  00000	40 53		 push	 rbx
  00002	48 83 ec 30	 sub	 rsp, 48			; 00000030H
  00006	48 8b d9	 mov	 rbx, rcx

; 924  :     if (!Py_PXCTX) {

  00009	e8 00 00 00 00	 call	 _Py_PXCTX
  0000e	85 c0		 test	 eax, eax
  00010	75 63		 jne	 SHORT $LN11@Py_DecRef

; 925  :         if (Px_PERSISTED(op) || Px_CLONED(op))

  00012	48 8b 43 20	 mov	 rax, QWORD PTR [rbx+32]
  00016	a8 20		 test	 al, 32			; 00000020H
  00018	75 53		 jne	 SHORT $LN5@Py_DecRef
  0001a	84 c0		 test	 al, al
  0001c	78 4f		 js	 SHORT $LN5@Py_DecRef

; 927  :         else if (!Px_ISPX(op)) {

  0001e	a8 02		 test	 al, 2
  00020	75 53		 jne	 SHORT $LN11@Py_DecRef

; 928  :             _Py_DEC_REFTOTAL;
; 929  :             if ((--((PyObject *)(op))->ob_refcnt) != 0) {

  00022	48 ff 4b 50	 dec	 QWORD PTR [rbx+80]
  00026	75 4d		 jne	 SHORT $LN11@Py_DecRef

; 930  :                 _Py_CHECK_REFCNT(op);
; 931  :             } else
; 932  :                 _Py_Dealloc((PyObject *)(op));

  00028	48 8d 15 00 00
	00 00		 lea	 rdx, OFFSET FLAT:??_C@_0CD@HDJFDCDP@c?3?2src?2pyparallel?2include?2object@
  0002f	48 8d 0d 00 00
	00 00		 lea	 rcx, OFFSET FLAT:??_C@_0L@DMHMLFIA@_Py_DecRef?$AA@
  00036	4c 8b cb	 mov	 r9, rbx
  00039	41 b8 a4 03 00
	00		 mov	 r8d, 932		; 000003a4H
  0003f	c7 44 24 20 10
	00 00 00	 mov	 DWORD PTR [rsp+32], 16
  00047	e8 00 00 00 00	 call	 _PyParallel_Guard
  0004c	48 8b cb	 mov	 rcx, rbx
  0004f	85 c0		 test	 eax, eax
  00051	74 0a		 je	 SHORT $LN10@Py_DecRef

; 933  :         }
; 934  :     }
; 935  : }

  00053	48 83 c4 30	 add	 rsp, 48			; 00000030H
  00057	5b		 pop	 rbx
  00058	e9 00 00 00 00	 jmp	 _Px_Dealloc
$LN10@Py_DecRef:

; 930  :                 _Py_CHECK_REFCNT(op);
; 931  :             } else
; 932  :                 _Py_Dealloc((PyObject *)(op));

  0005d	48 8b 43 58	 mov	 rax, QWORD PTR [rbx+88]

; 933  :         }
; 934  :     }
; 935  : }

  00061	48 83 c4 30	 add	 rsp, 48			; 00000030H
  00065	5b		 pop	 rbx
  00066	48 ff a0 88 00
	00 00		 rex_jmp QWORD PTR [rax+136]
$LN5@Py_DecRef:

; 926  :             Px_DECREF(op);

  0006d	48 8b cb	 mov	 rcx, rbx
  00070	e8 00 00 00 00	 call	 Px_DecRef
$LN11@Py_DecRef:

; 933  :         }
; 934  :     }
; 935  : }

  00075	48 83 c4 30	 add	 rsp, 48			; 00000030H
  00079	5b		 pop	 rbx
  0007a	c3		 ret	 0
_Py_DecRef ENDP
_TEXT	ENDS
PUBLIC	??_C@_0M@FBJDAALJ@O?$HMO?3groupby?$AA@		; `string'
EXTRN	PyObject_GetIter:PROC
EXTRN	PyArg_ParseTupleAndKeywords:PROC
EXTRN	_Py_NoneStruct:BYTE
;	COMDAT pdata
pdata	SEGMENT
$pdata$groupby_new DD imagerel groupby_new
	DD	imagerel groupby_new+101
	DD	imagerel $unwind$groupby_new
pdata	ENDS
;	COMDAT pdata
pdata	SEGMENT
$pdata$0$groupby_new DD imagerel groupby_new+101
	DD	imagerel groupby_new+218
	DD	imagerel $chain$0$groupby_new
pdata	ENDS
;	COMDAT pdata
pdata	SEGMENT
$pdata$1$groupby_new DD imagerel groupby_new+218
	DD	imagerel groupby_new+243
	DD	imagerel $chain$1$groupby_new
pdata	ENDS
;	COMDAT xdata
xdata	SEGMENT
$chain$1$groupby_new DD 021H
	DD	imagerel groupby_new
	DD	imagerel groupby_new+101
	DD	imagerel $unwind$groupby_new
xdata	ENDS
;	COMDAT xdata
xdata	SEGMENT
$chain$0$groupby_new DD 020521H
	DD	0a7405H
	DD	imagerel groupby_new
	DD	imagerel groupby_new+101
	DD	imagerel $unwind$groupby_new
xdata	ENDS
;	COMDAT xdata
xdata	SEGMENT
$unwind$groupby_new DD 020601H
	DD	030027206H
xdata	ENDS
;	COMDAT ??_C@_0M@FBJDAALJ@O?$HMO?3groupby?$AA@
CONST	SEGMENT
??_C@_0M@FBJDAALJ@O?$HMO?3groupby?$AA@ DB 'O|O:groupby', 00H ; `string'
; Function compile flags: /Ogtpy
; File c:\src\pyparallel\modules\itertoolsmodule.c
CONST	ENDS
;	COMDAT groupby_new
_TEXT	SEGMENT
it$ = 48
type$ = 80
args$ = 88
kwds$ = 96
keyfunc$ = 104
groupby_new PROC					; COMDAT

; 28   : {

  00000	40 53		 push	 rbx
  00002	48 83 ec 40	 sub	 rsp, 64			; 00000040H
  00006	48 8b d9	 mov	 rbx, rcx
  00009	49 8b c0	 mov	 rax, r8
  0000c	4c 8b d2	 mov	 r10, rdx

; 29   :     static char *kwargs[] = {"iterable", "key", NULL};
; 30   :     groupbyobject *gbo;
; 31   :     PyObject *it, *keyfunc = Py_None;

  0000f	48 8d 0d 00 00
	00 00		 lea	 rcx, OFFSET FLAT:_Py_NoneStruct

; 32   : 
; 33   :     if (!PyArg_ParseTupleAndKeywords(args, kwds, "O|O:groupby", kwargs,
; 34   :                                      &it, &keyfunc))

  00016	4c 8d 0d 00 00
	00 00		 lea	 r9, OFFSET FLAT:?kwargs@?1??groupby_new@@9@9
  0001d	4c 8d 05 00 00
	00 00		 lea	 r8, OFFSET FLAT:??_C@_0M@FBJDAALJ@O?$HMO?3groupby?$AA@
  00024	48 89 4c 24 68	 mov	 QWORD PTR keyfunc$[rsp], rcx
  00029	48 8d 4c 24 68	 lea	 rcx, QWORD PTR keyfunc$[rsp]
  0002e	48 8b d0	 mov	 rdx, rax
  00031	48 89 4c 24 28	 mov	 QWORD PTR [rsp+40], rcx
  00036	48 8d 4c 24 30	 lea	 rcx, QWORD PTR it$[rsp]
  0003b	48 89 4c 24 20	 mov	 QWORD PTR [rsp+32], rcx
  00040	49 8b ca	 mov	 rcx, r10
  00043	e8 00 00 00 00	 call	 PyArg_ParseTupleAndKeywords
  00048	85 c0		 test	 eax, eax

; 35   :         return NULL;

  0004a	0f 84 92 00 00
	00		 je	 $LN10@groupby_ne

; 36   : 
; 37   :     gbo = (groupbyobject *)type->tp_alloc(type, 0);

  00050	33 d2		 xor	 edx, edx
  00052	48 8b cb	 mov	 rcx, rbx
  00055	ff 93 88 01 00
	00		 call	 QWORD PTR [rbx+392]
  0005b	48 8b d8	 mov	 rbx, rax

; 38   :     if (gbo == NULL)

  0005e	48 85 c0	 test	 rax, rax

; 39   :         return NULL;

  00061	74 7f		 je	 SHORT $LN10@groupby_ne

; 40   :     gbo->tgtkey = NULL;

  00063	33 c0		 xor	 eax, eax
  00065	48 89 7c 24 50	 mov	 QWORD PTR [rsp+80], rdi
  0006a	48 89 43 70	 mov	 QWORD PTR [rbx+112], rax

; 41   :     gbo->currkey = NULL;

  0006e	48 89 43 78	 mov	 QWORD PTR [rbx+120], rax

; 42   :     gbo->currvalue = NULL;

  00072	48 89 83 80 00
	00 00		 mov	 QWORD PTR [rbx+128], rax

; 43   :     gbo->keyfunc = keyfunc;

  00079	48 8b 44 24 68	 mov	 rax, QWORD PTR keyfunc$[rsp]
  0007e	48 89 43 68	 mov	 QWORD PTR [rbx+104], rax

; 44   :     Py_INCREF(keyfunc);

  00082	48 8b 7c 24 68	 mov	 rdi, QWORD PTR keyfunc$[rsp]
  00087	e8 00 00 00 00	 call	 _Py_PXCTX
  0008c	85 c0		 test	 eax, eax
  0008e	75 32		 jne	 SHORT $LN7@groupby_ne
  00090	48 8d 15 00 00
	00 00		 lea	 rdx, OFFSET FLAT:??_C@_0CD@HDJFDCDP@c?3?2src?2pyparallel?2include?2object@
  00097	48 8d 0d 00 00
	00 00		 lea	 rcx, OFFSET FLAT:??_C@_0L@DHGMCEID@_Py_IncRef?$AA@
  0009e	4c 8b cf	 mov	 r9, rdi
  000a1	41 b8 89 03 00
	00		 mov	 r8d, 905		; 00000389H
  000a7	c7 44 24 20 02
	00 00 00	 mov	 DWORD PTR [rsp+32], 2
  000af	e8 00 00 00 00	 call	 _PyParallel_Guard
  000b4	85 c0		 test	 eax, eax
  000b6	75 06		 jne	 SHORT $LN6@groupby_ne
  000b8	f6 47 20 20	 test	 BYTE PTR [rdi+32], 32	; 00000020H
  000bc	74 04		 je	 SHORT $LN7@groupby_ne
$LN6@groupby_ne:
  000be	48 ff 47 50	 inc	 QWORD PTR [rdi+80]
$LN7@groupby_ne:

; 45   :     gbo->it = PyObject_GetIter(it);

  000c2	48 8b 4c 24 30	 mov	 rcx, QWORD PTR it$[rsp]
  000c7	e8 00 00 00 00	 call	 PyObject_GetIter
  000cc	48 8b 7c 24 50	 mov	 rdi, QWORD PTR [rsp+80]
  000d1	48 89 43 60	 mov	 QWORD PTR [rbx+96], rax

; 46   :     if (gbo->it == NULL) {

  000d5	48 85 c0	 test	 rax, rax
  000d8	75 10		 jne	 SHORT $LN1@groupby_ne

; 47   :         Py_DECREF(gbo);

  000da	48 8b cb	 mov	 rcx, rbx
  000dd	e8 00 00 00 00	 call	 _Py_DecRef
$LN10@groupby_ne:

; 48   :         return NULL;

  000e2	33 c0		 xor	 eax, eax

; 51   : }

  000e4	48 83 c4 40	 add	 rsp, 64			; 00000040H
  000e8	5b		 pop	 rbx
  000e9	c3		 ret	 0
$LN1@groupby_ne:

; 49   :     }
; 50   :     return (PyObject *)gbo;

  000ea	48 8b c3	 mov	 rax, rbx

; 51   : }

  000ed	48 83 c4 40	 add	 rsp, 64			; 00000040H
  000f1	5b		 pop	 rbx
  000f2	c3		 ret	 0
groupby_new ENDP
_TEXT	ENDS
EXTRN	PyObject_GC_UnTrack:PROC
;	COMDAT pdata
; File c:\src\pyparallel\include\object.h
pdata	SEGMENT
$pdata$groupby_dealloc DD imagerel groupby_dealloc
	DD	imagerel groupby_dealloc+595
	DD	imagerel $unwind$groupby_dealloc
pdata	ENDS
;	COMDAT xdata
xdata	SEGMENT
$unwind$groupby_dealloc DD 040a01H
	DD	08340aH
	DD	07006520aH
; Function compile flags: /Ogtpy
; File c:\src\pyparallel\modules\itertoolsmodule.c
xdata	ENDS
;	COMDAT groupby_dealloc
_TEXT	SEGMENT
gbo$ = 64
groupby_dealloc PROC					; COMDAT

; 55   : {

  00000	48 89 5c 24 08	 mov	 QWORD PTR [rsp+8], rbx
  00005	57		 push	 rdi
  00006	48 83 ec 30	 sub	 rsp, 48			; 00000030H
  0000a	48 8b f9	 mov	 rdi, rcx

; 56   :     PyObject_GC_UnTrack(gbo);

  0000d	e8 00 00 00 00	 call	 PyObject_GC_UnTrack

; 57   :     Py_XDECREF(gbo->it);

  00012	48 8b 5f 60	 mov	 rbx, QWORD PTR [rdi+96]
  00016	48 85 db	 test	 rbx, rbx
  00019	74 65		 je	 SHORT $LN19@groupby_de
  0001b	e8 00 00 00 00	 call	 _Py_PXCTX
  00020	85 c0		 test	 eax, eax
  00022	75 5c		 jne	 SHORT $LN19@groupby_de
  00024	48 8b 43 20	 mov	 rax, QWORD PTR [rbx+32]
  00028	a8 20		 test	 al, 32			; 00000020H
  0002a	75 4c		 jne	 SHORT $LN27@groupby_de
  0002c	84 c0		 test	 al, al
  0002e	78 48		 js	 SHORT $LN27@groupby_de
  00030	a8 02		 test	 al, 2
  00032	75 4c		 jne	 SHORT $LN19@groupby_de
  00034	48 ff 4b 50	 dec	 QWORD PTR [rbx+80]
  00038	75 46		 jne	 SHORT $LN19@groupby_de
  0003a	48 8d 15 00 00
	00 00		 lea	 rdx, OFFSET FLAT:??_C@_0CD@HDJFDCDP@c?3?2src?2pyparallel?2include?2object@
  00041	48 8d 0d 00 00
	00 00		 lea	 rcx, OFFSET FLAT:??_C@_0L@DMHMLFIA@_Py_DecRef?$AA@
  00048	4c 8b cb	 mov	 r9, rbx
  0004b	41 b8 a4 03 00
	00		 mov	 r8d, 932		; 000003a4H
  00051	c7 44 24 20 10
	00 00 00	 mov	 DWORD PTR [rsp+32], 16
  00059	e8 00 00 00 00	 call	 _PyParallel_Guard
  0005e	48 8b cb	 mov	 rcx, rbx
  00061	85 c0		 test	 eax, eax
  00063	74 07		 je	 SHORT $LN32@groupby_de
  00065	e8 00 00 00 00	 call	 _Px_Dealloc
  0006a	eb 14		 jmp	 SHORT $LN19@groupby_de
$LN32@groupby_de:
  0006c	48 8b 43 58	 mov	 rax, QWORD PTR [rbx+88]
  00070	ff 90 88 00 00
	00		 call	 QWORD PTR [rax+136]
  00076	eb 08		 jmp	 SHORT $LN19@groupby_de
$LN27@groupby_de:
  00078	48 8b cb	 mov	 rcx, rbx
  0007b	e8 00 00 00 00	 call	 Px_DecRef
$LN19@groupby_de:

; 58   :     Py_XDECREF(gbo->keyfunc);

  00080	48 8b 5f 68	 mov	 rbx, QWORD PTR [rdi+104]
  00084	48 85 db	 test	 rbx, rbx
  00087	74 65		 je	 SHORT $LN15@groupby_de
  00089	e8 00 00 00 00	 call	 _Py_PXCTX
  0008e	85 c0		 test	 eax, eax
  00090	75 5c		 jne	 SHORT $LN15@groupby_de
  00092	48 8b 43 20	 mov	 rax, QWORD PTR [rbx+32]
  00096	a8 20		 test	 al, 32			; 00000020H
  00098	75 4c		 jne	 SHORT $LN38@groupby_de
  0009a	84 c0		 test	 al, al
  0009c	78 48		 js	 SHORT $LN38@groupby_de
  0009e	a8 02		 test	 al, 2
  000a0	75 4c		 jne	 SHORT $LN15@groupby_de
  000a2	48 ff 4b 50	 dec	 QWORD PTR [rbx+80]
  000a6	75 46		 jne	 SHORT $LN15@groupby_de
  000a8	48 8d 15 00 00
	00 00		 lea	 rdx, OFFSET FLAT:??_C@_0CD@HDJFDCDP@c?3?2src?2pyparallel?2include?2object@
  000af	48 8d 0d 00 00
	00 00		 lea	 rcx, OFFSET FLAT:??_C@_0L@DMHMLFIA@_Py_DecRef?$AA@
  000b6	4c 8b cb	 mov	 r9, rbx
  000b9	41 b8 a4 03 00
	00		 mov	 r8d, 932		; 000003a4H
  000bf	c7 44 24 20 10
	00 00 00	 mov	 DWORD PTR [rsp+32], 16
  000c7	e8 00 00 00 00	 call	 _PyParallel_Guard
  000cc	48 8b cb	 mov	 rcx, rbx
  000cf	85 c0		 test	 eax, eax
  000d1	74 07		 je	 SHORT $LN43@groupby_de
  000d3	e8 00 00 00 00	 call	 _Px_Dealloc
  000d8	eb 14		 jmp	 SHORT $LN15@groupby_de
$LN43@groupby_de:
  000da	48 8b 43 58	 mov	 rax, QWORD PTR [rbx+88]
  000de	ff 90 88 00 00
	00		 call	 QWORD PTR [rax+136]
  000e4	eb 08		 jmp	 SHORT $LN15@groupby_de
$LN38@groupby_de:
  000e6	48 8b cb	 mov	 rcx, rbx
  000e9	e8 00 00 00 00	 call	 Px_DecRef
$LN15@groupby_de:

; 59   :     Py_XDECREF(gbo->tgtkey);

  000ee	48 8b 5f 70	 mov	 rbx, QWORD PTR [rdi+112]
  000f2	48 85 db	 test	 rbx, rbx
  000f5	74 65		 je	 SHORT $LN11@groupby_de
  000f7	e8 00 00 00 00	 call	 _Py_PXCTX
  000fc	85 c0		 test	 eax, eax
  000fe	75 5c		 jne	 SHORT $LN11@groupby_de
  00100	48 8b 43 20	 mov	 rax, QWORD PTR [rbx+32]
  00104	a8 20		 test	 al, 32			; 00000020H
  00106	75 4c		 jne	 SHORT $LN49@groupby_de
  00108	84 c0		 test	 al, al
  0010a	78 48		 js	 SHORT $LN49@groupby_de
  0010c	a8 02		 test	 al, 2
  0010e	75 4c		 jne	 SHORT $LN11@groupby_de
  00110	48 ff 4b 50	 dec	 QWORD PTR [rbx+80]
  00114	75 46		 jne	 SHORT $LN11@groupby_de
  00116	48 8d 15 00 00
	00 00		 lea	 rdx, OFFSET FLAT:??_C@_0CD@HDJFDCDP@c?3?2src?2pyparallel?2include?2object@
  0011d	48 8d 0d 00 00
	00 00		 lea	 rcx, OFFSET FLAT:??_C@_0L@DMHMLFIA@_Py_DecRef?$AA@
  00124	4c 8b cb	 mov	 r9, rbx
  00127	41 b8 a4 03 00
	00		 mov	 r8d, 932		; 000003a4H
  0012d	c7 44 24 20 10
	00 00 00	 mov	 DWORD PTR [rsp+32], 16
  00135	e8 00 00 00 00	 call	 _PyParallel_Guard
  0013a	48 8b cb	 mov	 rcx, rbx
  0013d	85 c0		 test	 eax, eax
  0013f	74 07		 je	 SHORT $LN54@groupby_de
  00141	e8 00 00 00 00	 call	 _Px_Dealloc
  00146	eb 14		 jmp	 SHORT $LN11@groupby_de
$LN54@groupby_de:
  00148	48 8b 43 58	 mov	 rax, QWORD PTR [rbx+88]
  0014c	ff 90 88 00 00
	00		 call	 QWORD PTR [rax+136]
  00152	eb 08		 jmp	 SHORT $LN11@groupby_de
$LN49@groupby_de:
  00154	48 8b cb	 mov	 rcx, rbx
  00157	e8 00 00 00 00	 call	 Px_DecRef
$LN11@groupby_de:

; 60   :     Py_XDECREF(gbo->currkey);

  0015c	48 8b 5f 78	 mov	 rbx, QWORD PTR [rdi+120]
  00160	48 85 db	 test	 rbx, rbx
  00163	74 65		 je	 SHORT $LN7@groupby_de
  00165	e8 00 00 00 00	 call	 _Py_PXCTX
  0016a	85 c0		 test	 eax, eax
  0016c	75 5c		 jne	 SHORT $LN7@groupby_de
  0016e	48 8b 43 20	 mov	 rax, QWORD PTR [rbx+32]
  00172	a8 20		 test	 al, 32			; 00000020H
  00174	75 4c		 jne	 SHORT $LN60@groupby_de
  00176	84 c0		 test	 al, al
  00178	78 48		 js	 SHORT $LN60@groupby_de
  0017a	a8 02		 test	 al, 2
  0017c	75 4c		 jne	 SHORT $LN7@groupby_de
  0017e	48 ff 4b 50	 dec	 QWORD PTR [rbx+80]
  00182	75 46		 jne	 SHORT $LN7@groupby_de
  00184	48 8d 15 00 00
	00 00		 lea	 rdx, OFFSET FLAT:??_C@_0CD@HDJFDCDP@c?3?2src?2pyparallel?2include?2object@
  0018b	48 8d 0d 00 00
	00 00		 lea	 rcx, OFFSET FLAT:??_C@_0L@DMHMLFIA@_Py_DecRef?$AA@
  00192	4c 8b cb	 mov	 r9, rbx
  00195	41 b8 a4 03 00
	00		 mov	 r8d, 932		; 000003a4H
  0019b	c7 44 24 20 10
	00 00 00	 mov	 DWORD PTR [rsp+32], 16
  001a3	e8 00 00 00 00	 call	 _PyParallel_Guard
  001a8	48 8b cb	 mov	 rcx, rbx
  001ab	85 c0		 test	 eax, eax
  001ad	74 07		 je	 SHORT $LN65@groupby_de
  001af	e8 00 00 00 00	 call	 _Px_Dealloc
  001b4	eb 14		 jmp	 SHORT $LN7@groupby_de
$LN65@groupby_de:
  001b6	48 8b 43 58	 mov	 rax, QWORD PTR [rbx+88]
  001ba	ff 90 88 00 00
	00		 call	 QWORD PTR [rax+136]
  001c0	eb 08		 jmp	 SHORT $LN7@groupby_de
$LN60@groupby_de:
  001c2	48 8b cb	 mov	 rcx, rbx
  001c5	e8 00 00 00 00	 call	 Px_DecRef
$LN7@groupby_de:

; 61   :     Py_XDECREF(gbo->currvalue);

  001ca	48 8b 9f 80 00
	00 00		 mov	 rbx, QWORD PTR [rdi+128]
  001d1	48 85 db	 test	 rbx, rbx
  001d4	74 65		 je	 SHORT $LN3@groupby_de
  001d6	e8 00 00 00 00	 call	 _Py_PXCTX
  001db	85 c0		 test	 eax, eax
  001dd	75 5c		 jne	 SHORT $LN3@groupby_de
  001df	48 8b 43 20	 mov	 rax, QWORD PTR [rbx+32]
  001e3	a8 20		 test	 al, 32			; 00000020H
  001e5	75 4c		 jne	 SHORT $LN71@groupby_de
  001e7	84 c0		 test	 al, al
  001e9	78 48		 js	 SHORT $LN71@groupby_de
  001eb	a8 02		 test	 al, 2
  001ed	75 4c		 jne	 SHORT $LN3@groupby_de
  001ef	48 ff 4b 50	 dec	 QWORD PTR [rbx+80]
  001f3	75 46		 jne	 SHORT $LN3@groupby_de
  001f5	48 8d 15 00 00
	00 00		 lea	 rdx, OFFSET FLAT:??_C@_0CD@HDJFDCDP@c?3?2src?2pyparallel?2include?2object@
  001fc	48 8d 0d 00 00
	00 00		 lea	 rcx, OFFSET FLAT:??_C@_0L@DMHMLFIA@_Py_DecRef?$AA@
  00203	4c 8b cb	 mov	 r9, rbx
  00206	41 b8 a4 03 00
	00		 mov	 r8d, 932		; 000003a4H
  0020c	c7 44 24 20 10
	00 00 00	 mov	 DWORD PTR [rsp+32], 16
  00214	e8 00 00 00 00	 call	 _PyParallel_Guard
  00219	48 8b cb	 mov	 rcx, rbx
  0021c	85 c0		 test	 eax, eax
  0021e	74 07		 je	 SHORT $LN76@groupby_de
  00220	e8 00 00 00 00	 call	 _Px_Dealloc
  00225	eb 14		 jmp	 SHORT $LN3@groupby_de
$LN76@groupby_de:
  00227	48 8b 43 58	 mov	 rax, QWORD PTR [rbx+88]
  0022b	ff 90 88 00 00
	00		 call	 QWORD PTR [rax+136]
  00231	eb 08		 jmp	 SHORT $LN3@groupby_de
$LN71@groupby_de:
  00233	48 8b cb	 mov	 rcx, rbx
  00236	e8 00 00 00 00	 call	 Px_DecRef
$LN3@groupby_de:

; 62   :     Py_TYPE(gbo)->tp_free(gbo);

  0023b	48 8b 47 58	 mov	 rax, QWORD PTR [rdi+88]
  0023f	48 8b cf	 mov	 rcx, rdi

; 63   : }

  00242	48 8b 5c 24 40	 mov	 rbx, QWORD PTR [rsp+64]
  00247	48 83 c4 30	 add	 rsp, 48			; 00000030H
  0024b	5f		 pop	 rdi
  0024c	48 ff a0 98 01
	00 00		 rex_jmp QWORD PTR [rax+408]
groupby_dealloc ENDP
_TEXT	ENDS
PUBLIC	??_C@_0BB@JLGPKDPD@groupby_traverse?$AA@	; `string'
PUBLIC	??_C@_0BN@PMILGFFG@?4?4?2Modules?2itertoolsmodule?4c?$AA@ ; `string'
EXTRN	_PyParallel_ContextGuardFailure:PROC
;	COMDAT pdata
pdata	SEGMENT
$pdata$groupby_traverse DD imagerel groupby_traverse
	DD	imagerel groupby_traverse+318
	DD	imagerel $unwind$groupby_traverse
pdata	ENDS
;	COMDAT xdata
xdata	SEGMENT
$unwind$groupby_traverse DD 060f01H
	DD	07640fH
	DD	06340fH
	DD	0700b320fH
xdata	ENDS
;	COMDAT ??_C@_0BB@JLGPKDPD@groupby_traverse?$AA@
CONST	SEGMENT
??_C@_0BB@JLGPKDPD@groupby_traverse?$AA@ DB 'groupby_traverse', 00H ; `string'
CONST	ENDS
;	COMDAT ??_C@_0BN@PMILGFFG@?4?4?2Modules?2itertoolsmodule?4c?$AA@
CONST	SEGMENT
??_C@_0BN@PMILGFFG@?4?4?2Modules?2itertoolsmodule?4c?$AA@ DB '..\Modules\'
	DB	'itertoolsmodule.c', 00H			; `string'
; Function compile flags: /Ogtpy
CONST	ENDS
;	COMDAT groupby_traverse
_TEXT	SEGMENT
gbo$ = 48
visit$ = 56
arg$ = 64
groupby_traverse PROC					; COMDAT

; 67   : {

  00000	48 89 5c 24 08	 mov	 QWORD PTR [rsp+8], rbx
  00005	48 89 74 24 10	 mov	 QWORD PTR [rsp+16], rsi
  0000a	57		 push	 rdi
  0000b	48 83 ec 20	 sub	 rsp, 32			; 00000020H
  0000f	49 8b f8	 mov	 rdi, r8
  00012	48 8b f2	 mov	 rsi, rdx
  00015	48 8b d9	 mov	 rbx, rcx

; 68   :     Py_VISIT(gbo->it);

  00018	e8 00 00 00 00	 call	 _Py_PXCTX
  0001d	85 c0		 test	 eax, eax
  0001f	74 1a		 je	 SHORT $LN27@groupby_tr
  00021	45 33 c9	 xor	 r9d, r9d
  00024	48 8d 15 00 00
	00 00		 lea	 rdx, OFFSET FLAT:??_C@_0BN@PMILGFFG@?4?4?2Modules?2itertoolsmodule?4c?$AA@
  0002b	48 8d 0d 00 00
	00 00		 lea	 rcx, OFFSET FLAT:??_C@_0BB@JLGPKDPD@groupby_traverse?$AA@
  00032	45 8d 41 44	 lea	 r8d, QWORD PTR [r9+68]
  00036	e8 00 00 00 00	 call	 _PyParallel_ContextGuardFailure
$LN27@groupby_tr:
  0003b	48 8b 4b 60	 mov	 rcx, QWORD PTR [rbx+96]
  0003f	48 85 c9	 test	 rcx, rcx
  00042	74 0d		 je	 SHORT $LN29@groupby_tr
  00044	48 8b d7	 mov	 rdx, rdi
  00047	ff d6		 call	 rsi
  00049	85 c0		 test	 eax, eax
  0004b	0f 85 dd 00 00
	00		 jne	 $LN31@groupby_tr
$LN29@groupby_tr:

; 69   :     Py_VISIT(gbo->keyfunc);

  00051	e8 00 00 00 00	 call	 _Py_PXCTX
  00056	85 c0		 test	 eax, eax
  00058	74 1a		 je	 SHORT $LN21@groupby_tr
  0005a	45 33 c9	 xor	 r9d, r9d
  0005d	48 8d 15 00 00
	00 00		 lea	 rdx, OFFSET FLAT:??_C@_0BN@PMILGFFG@?4?4?2Modules?2itertoolsmodule?4c?$AA@
  00064	48 8d 0d 00 00
	00 00		 lea	 rcx, OFFSET FLAT:??_C@_0BB@JLGPKDPD@groupby_traverse?$AA@
  0006b	45 8d 41 45	 lea	 r8d, QWORD PTR [r9+69]
  0006f	e8 00 00 00 00	 call	 _PyParallel_ContextGuardFailure
$LN21@groupby_tr:
  00074	48 8b 4b 68	 mov	 rcx, QWORD PTR [rbx+104]
  00078	48 85 c9	 test	 rcx, rcx
  0007b	74 0d		 je	 SHORT $LN23@groupby_tr
  0007d	48 8b d7	 mov	 rdx, rdi
  00080	ff d6		 call	 rsi
  00082	85 c0		 test	 eax, eax
  00084	0f 85 a4 00 00
	00		 jne	 $LN31@groupby_tr
$LN23@groupby_tr:

; 70   :     Py_VISIT(gbo->tgtkey);

  0008a	e8 00 00 00 00	 call	 _Py_PXCTX
  0008f	85 c0		 test	 eax, eax
  00091	74 1a		 je	 SHORT $LN15@groupby_tr
  00093	45 33 c9	 xor	 r9d, r9d
  00096	48 8d 15 00 00
	00 00		 lea	 rdx, OFFSET FLAT:??_C@_0BN@PMILGFFG@?4?4?2Modules?2itertoolsmodule?4c?$AA@
  0009d	48 8d 0d 00 00
	00 00		 lea	 rcx, OFFSET FLAT:??_C@_0BB@JLGPKDPD@groupby_traverse?$AA@
  000a4	45 8d 41 46	 lea	 r8d, QWORD PTR [r9+70]
  000a8	e8 00 00 00 00	 call	 _PyParallel_ContextGuardFailure
$LN15@groupby_tr:
  000ad	48 8b 4b 70	 mov	 rcx, QWORD PTR [rbx+112]
  000b1	48 85 c9	 test	 rcx, rcx
  000b4	74 09		 je	 SHORT $LN17@groupby_tr
  000b6	48 8b d7	 mov	 rdx, rdi
  000b9	ff d6		 call	 rsi
  000bb	85 c0		 test	 eax, eax
  000bd	75 6f		 jne	 SHORT $LN31@groupby_tr
$LN17@groupby_tr:

; 71   :     Py_VISIT(gbo->currkey);

  000bf	e8 00 00 00 00	 call	 _Py_PXCTX
  000c4	85 c0		 test	 eax, eax
  000c6	74 1a		 je	 SHORT $LN9@groupby_tr
  000c8	45 33 c9	 xor	 r9d, r9d
  000cb	48 8d 15 00 00
	00 00		 lea	 rdx, OFFSET FLAT:??_C@_0BN@PMILGFFG@?4?4?2Modules?2itertoolsmodule?4c?$AA@
  000d2	48 8d 0d 00 00
	00 00		 lea	 rcx, OFFSET FLAT:??_C@_0BB@JLGPKDPD@groupby_traverse?$AA@
  000d9	45 8d 41 47	 lea	 r8d, QWORD PTR [r9+71]
  000dd	e8 00 00 00 00	 call	 _PyParallel_ContextGuardFailure
$LN9@groupby_tr:
  000e2	48 8b 4b 78	 mov	 rcx, QWORD PTR [rbx+120]
  000e6	48 85 c9	 test	 rcx, rcx
  000e9	74 09		 je	 SHORT $LN11@groupby_tr
  000eb	48 8b d7	 mov	 rdx, rdi
  000ee	ff d6		 call	 rsi
  000f0	85 c0		 test	 eax, eax
  000f2	75 3a		 jne	 SHORT $LN31@groupby_tr
$LN11@groupby_tr:

; 72   :     Py_VISIT(gbo->currvalue);

  000f4	e8 00 00 00 00	 call	 _Py_PXCTX
  000f9	85 c0		 test	 eax, eax
  000fb	74 1a		 je	 SHORT $LN3@groupby_tr
  000fd	45 33 c9	 xor	 r9d, r9d
  00100	48 8d 15 00 00
	00 00		 lea	 rdx, OFFSET FLAT:??_C@_0BN@PMILGFFG@?4?4?2Modules?2itertoolsmodule?4c?$AA@
  00107	48 8d 0d 00 00
	00 00		 lea	 rcx, OFFSET FLAT:??_C@_0BB@JLGPKDPD@groupby_traverse?$AA@
  0010e	45 8d 41 48	 lea	 r8d, QWORD PTR [r9+72]
  00112	e8 00 00 00 00	 call	 _PyParallel_ContextGuardFailure
$LN3@groupby_tr:
  00117	48 8b 8b 80 00
	00 00		 mov	 rcx, QWORD PTR [rbx+128]
  0011e	48 85 c9	 test	 rcx, rcx
  00121	74 09		 je	 SHORT $LN5@groupby_tr
  00123	48 8b d7	 mov	 rdx, rdi
  00126	ff d6		 call	 rsi
  00128	85 c0		 test	 eax, eax
  0012a	75 02		 jne	 SHORT $LN31@groupby_tr
$LN5@groupby_tr:

; 73   :     return 0;

  0012c	33 c0		 xor	 eax, eax
$LN31@groupby_tr:

; 74   : }

  0012e	48 8b 5c 24 30	 mov	 rbx, QWORD PTR [rsp+48]
  00133	48 8b 74 24 38	 mov	 rsi, QWORD PTR [rsp+56]
  00138	48 83 c4 20	 add	 rsp, 32			; 00000020H
  0013c	5f		 pop	 rdi
  0013d	c3		 ret	 0
groupby_traverse ENDP
_TEXT	ENDS
PUBLIC	??_C@_05LNHFJPFN@O?$CIOO?$CJ?$AA@		; `string'
PUBLIC	??_C@_0L@OLFKNFHI@O?$CIOO?$CJ?$CIOOO?$CJ?$AA@	; `string'
EXTRN	Py_BuildValue:PROC
;	COMDAT pdata
pdata	SEGMENT
$pdata$groupby_reduce DD imagerel groupby_reduce
	DD	imagerel groupby_reduce+106
	DD	imagerel $unwind$groupby_reduce
pdata	ENDS
;	COMDAT xdata
xdata	SEGMENT
$unwind$groupby_reduce DD 010401H
	DD	08204H
xdata	ENDS
;	COMDAT ??_C@_05LNHFJPFN@O?$CIOO?$CJ?$AA@
CONST	SEGMENT
??_C@_05LNHFJPFN@O?$CIOO?$CJ?$AA@ DB 'O(OO)', 00H	; `string'
CONST	ENDS
;	COMDAT ??_C@_0L@OLFKNFHI@O?$CIOO?$CJ?$CIOOO?$CJ?$AA@
CONST	SEGMENT
??_C@_0L@OLFKNFHI@O?$CIOO?$CJ?$CIOOO?$CJ?$AA@ DB 'O(OO)(OOO)', 00H ; `string'
; Function compile flags: /Ogtpy
CONST	ENDS
;	COMDAT groupby_reduce
_TEXT	SEGMENT
lz$ = 80
groupby_reduce PROC					; COMDAT

; 139  : {

  00000	48 83 ec 48	 sub	 rsp, 72			; 00000048H

; 140  :     /* reduce as a 'new' call with an optional 'setstate' if groupby
; 141  :      * has started
; 142  :      */
; 143  :     PyObject *value;
; 144  :     if (lz->tgtkey && lz->currkey && lz->currvalue)

  00004	48 8b 51 70	 mov	 rdx, QWORD PTR [rcx+112]
  00008	48 85 d2	 test	 rdx, rdx
  0000b	74 41		 je	 SHORT $LN2@groupby_re
  0000d	48 8b 41 78	 mov	 rax, QWORD PTR [rcx+120]
  00011	48 85 c0	 test	 rax, rax
  00014	74 38		 je	 SHORT $LN2@groupby_re
  00016	4c 8b 81 80 00
	00 00		 mov	 r8, QWORD PTR [rcx+128]
  0001d	4d 85 c0	 test	 r8, r8
  00020	74 2c		 je	 SHORT $LN2@groupby_re

; 145  :         value = Py_BuildValue("O(OO)(OOO)", Py_TYPE(lz),
; 146  :             lz->it, lz->keyfunc, lz->currkey, lz->currvalue, lz->tgtkey);

  00022	4c 8b 49 68	 mov	 r9, QWORD PTR [rcx+104]
  00026	48 89 54 24 30	 mov	 QWORD PTR [rsp+48], rdx
  0002b	48 8b 51 58	 mov	 rdx, QWORD PTR [rcx+88]
  0002f	4c 89 44 24 28	 mov	 QWORD PTR [rsp+40], r8
  00034	4c 8b 41 60	 mov	 r8, QWORD PTR [rcx+96]
  00038	48 8d 0d 00 00
	00 00		 lea	 rcx, OFFSET FLAT:??_C@_0L@OLFKNFHI@O?$CIOO?$CJ?$CIOOO?$CJ?$AA@
  0003f	48 89 44 24 20	 mov	 QWORD PTR [rsp+32], rax
  00044	e8 00 00 00 00	 call	 Py_BuildValue

; 150  : 
; 151  :     return value;
; 152  : }

  00049	48 83 c4 48	 add	 rsp, 72			; 00000048H
  0004d	c3		 ret	 0
$LN2@groupby_re:

; 147  :     else
; 148  :         value = Py_BuildValue("O(OO)", Py_TYPE(lz),
; 149  :             lz->it, lz->keyfunc);

  0004e	4c 8b 49 68	 mov	 r9, QWORD PTR [rcx+104]
  00052	4c 8b 41 60	 mov	 r8, QWORD PTR [rcx+96]
  00056	48 8b 51 58	 mov	 rdx, QWORD PTR [rcx+88]
  0005a	48 8d 0d 00 00
	00 00		 lea	 rcx, OFFSET FLAT:??_C@_05LNHFJPFN@O?$CIOO?$CJ?$AA@

; 150  : 
; 151  :     return value;
; 152  : }

  00061	48 83 c4 48	 add	 rsp, 72			; 00000048H
  00065	e9 00 00 00 00	 jmp	 Py_BuildValue
groupby_reduce ENDP
_TEXT	ENDS
PUBLIC	??_C@_0BB@PGDIIEBE@groupby_setstate?$AA@	; `string'
PUBLIC	??_C@_03BBOLPBLP@OOO?$AA@			; `string'
EXTRN	PyArg_ParseTuple:PROC
;	COMDAT pdata
; File c:\src\pyparallel\include\object.h
pdata	SEGMENT
$pdata$groupby_setstate DD imagerel groupby_setstate
	DD	imagerel groupby_setstate+63
	DD	imagerel $unwind$groupby_setstate
pdata	ENDS
;	COMDAT pdata
pdata	SEGMENT
$pdata$0$groupby_setstate DD imagerel groupby_setstate+63
	DD	imagerel groupby_setstate+483
	DD	imagerel $chain$0$groupby_setstate
pdata	ENDS
;	COMDAT pdata
pdata	SEGMENT
$pdata$1$groupby_setstate DD imagerel groupby_setstate+483
	DD	imagerel groupby_setstate+556
	DD	imagerel $chain$1$groupby_setstate
pdata	ENDS
;	COMDAT xdata
xdata	SEGMENT
$chain$1$groupby_setstate DD 021H
	DD	imagerel groupby_setstate
	DD	imagerel groupby_setstate+63
	DD	imagerel $unwind$groupby_setstate
xdata	ENDS
;	COMDAT xdata
xdata	SEGMENT
$chain$0$groupby_setstate DD 020521H
	DD	0a7405H
	DD	imagerel groupby_setstate
	DD	imagerel groupby_setstate+63
	DD	imagerel $unwind$groupby_setstate
xdata	ENDS
;	COMDAT xdata
xdata	SEGMENT
$unwind$groupby_setstate DD 020601H
	DD	030027206H
xdata	ENDS
;	COMDAT ??_C@_0BB@PGDIIEBE@groupby_setstate?$AA@
CONST	SEGMENT
??_C@_0BB@PGDIIEBE@groupby_setstate?$AA@ DB 'groupby_setstate', 00H ; `string'
CONST	ENDS
;	COMDAT ??_C@_03BBOLPBLP@OOO?$AA@
CONST	SEGMENT
??_C@_03BBOLPBLP@OOO?$AA@ DB 'OOO', 00H			; `string'
; Function compile flags: /Ogtpy
; File c:\src\pyparallel\modules\itertoolsmodule.c
CONST	ENDS
;	COMDAT groupby_setstate
_TEXT	SEGMENT
tgtkey$ = 48
lz$ = 80
state$ = 88
currkey$ = 96
currvalue$ = 104
groupby_setstate PROC					; COMDAT

; 158  : {

  00000	40 53		 push	 rbx
  00002	48 83 ec 40	 sub	 rsp, 64			; 00000040H
  00006	48 8b d9	 mov	 rbx, rcx
  00009	48 8b c2	 mov	 rax, rdx

; 159  :     PyObject *currkey, *currvalue, *tgtkey;
; 160  :     if (!PyArg_ParseTuple(state, "OOO", &currkey, &currvalue, &tgtkey))

  0000c	48 8d 4c 24 30	 lea	 rcx, QWORD PTR tgtkey$[rsp]
  00011	48 89 4c 24 20	 mov	 QWORD PTR [rsp+32], rcx
  00016	4c 8d 4c 24 68	 lea	 r9, QWORD PTR currvalue$[rsp]
  0001b	4c 8d 44 24 60	 lea	 r8, QWORD PTR currkey$[rsp]
  00020	48 8d 15 00 00
	00 00		 lea	 rdx, OFFSET FLAT:??_C@_03BBOLPBLP@OOO?$AA@
  00027	48 8b c8	 mov	 rcx, rax
  0002a	e8 00 00 00 00	 call	 PyArg_ParseTuple
  0002f	85 c0		 test	 eax, eax
  00031	75 08		 jne	 SHORT $LN12@groupby_se

; 161  :         return NULL;

  00033	33 c0		 xor	 eax, eax

; 172  : }

  00035	48 83 c4 40	 add	 rsp, 64			; 00000040H
  00039	5b		 pop	 rbx
  0003a	c3		 ret	 0
$LN12@groupby_se:

; 162  :     Py_CLEAR(lz->currkey);

  0003b	4c 8b 4b 78	 mov	 r9, QWORD PTR [rbx+120]
  0003f	48 89 7c 24 50	 mov	 QWORD PTR [rsp+80], rdi
  00044	4d 85 c9	 test	 r9, r9
  00047	74 36		 je	 SHORT $LN11@groupby_se
  00049	48 8d 15 00 00
	00 00		 lea	 rdx, OFFSET FLAT:??_C@_0BN@PMILGFFG@?4?4?2Modules?2itertoolsmodule?4c?$AA@
  00050	48 8d 0d 00 00
	00 00		 lea	 rcx, OFFSET FLAT:??_C@_0BB@PGDIIEBE@groupby_setstate?$AA@
  00057	41 b8 a2 00 00
	00		 mov	 r8d, 162		; 000000a2H
  0005d	c7 44 24 20 10
	00 00 00	 mov	 DWORD PTR [rsp+32], 16
  00065	e8 00 00 00 00	 call	 _PyParallel_Guard
  0006a	85 c0		 test	 eax, eax
  0006c	75 11		 jne	 SHORT $LN11@groupby_se
  0006e	48 8b 4b 78	 mov	 rcx, QWORD PTR [rbx+120]
  00072	48 c7 43 78 00
	00 00 00	 mov	 QWORD PTR [rbx+120], 0
  0007a	e8 00 00 00 00	 call	 _Py_DecRef
$LN11@groupby_se:

; 163  :     lz->currkey = currkey;

  0007f	48 8b 7c 24 60	 mov	 rdi, QWORD PTR currkey$[rsp]
  00084	48 89 7b 78	 mov	 QWORD PTR [rbx+120], rdi

; 164  :     Py_INCREF(lz->currkey);

  00088	e8 00 00 00 00	 call	 _Py_PXCTX
  0008d	85 c0		 test	 eax, eax
  0008f	75 32		 jne	 SHORT $LN8@groupby_se
  00091	48 8d 15 00 00
	00 00		 lea	 rdx, OFFSET FLAT:??_C@_0CD@HDJFDCDP@c?3?2src?2pyparallel?2include?2object@
  00098	48 8d 0d 00 00
	00 00		 lea	 rcx, OFFSET FLAT:??_C@_0L@DHGMCEID@_Py_IncRef?$AA@
  0009f	4c 8b cf	 mov	 r9, rdi
  000a2	41 b8 89 03 00
	00		 mov	 r8d, 905		; 00000389H
  000a8	c7 44 24 20 02
	00 00 00	 mov	 DWORD PTR [rsp+32], 2
  000b0	e8 00 00 00 00	 call	 _PyParallel_Guard
  000b5	85 c0		 test	 eax, eax
  000b7	75 06		 jne	 SHORT $LN16@groupby_se
  000b9	f6 47 20 20	 test	 BYTE PTR [rdi+32], 32	; 00000020H
  000bd	74 04		 je	 SHORT $LN8@groupby_se
$LN16@groupby_se:
  000bf	48 ff 47 50	 inc	 QWORD PTR [rdi+80]
$LN8@groupby_se:

; 165  :     Py_CLEAR(lz->currvalue);

  000c3	4c 8b 8b 80 00
	00 00		 mov	 r9, QWORD PTR [rbx+128]
  000ca	4d 85 c9	 test	 r9, r9
  000cd	74 3c		 je	 SHORT $LN7@groupby_se
  000cf	48 8d 15 00 00
	00 00		 lea	 rdx, OFFSET FLAT:??_C@_0BN@PMILGFFG@?4?4?2Modules?2itertoolsmodule?4c?$AA@
  000d6	48 8d 0d 00 00
	00 00		 lea	 rcx, OFFSET FLAT:??_C@_0BB@PGDIIEBE@groupby_setstate?$AA@
  000dd	41 b8 a5 00 00
	00		 mov	 r8d, 165		; 000000a5H
  000e3	c7 44 24 20 10
	00 00 00	 mov	 DWORD PTR [rsp+32], 16
  000eb	e8 00 00 00 00	 call	 _PyParallel_Guard
  000f0	85 c0		 test	 eax, eax
  000f2	75 17		 jne	 SHORT $LN7@groupby_se
  000f4	48 8b 8b 80 00
	00 00		 mov	 rcx, QWORD PTR [rbx+128]
  000fb	48 c7 83 80 00
	00 00 00 00 00
	00		 mov	 QWORD PTR [rbx+128], 0
  00106	e8 00 00 00 00	 call	 _Py_DecRef
$LN7@groupby_se:

; 166  :     lz->currvalue = currvalue;

  0010b	48 8b 7c 24 68	 mov	 rdi, QWORD PTR currvalue$[rsp]
  00110	48 89 bb 80 00
	00 00		 mov	 QWORD PTR [rbx+128], rdi

; 167  :     Py_INCREF(lz->currvalue);

  00117	e8 00 00 00 00	 call	 _Py_PXCTX
  0011c	85 c0		 test	 eax, eax
  0011e	75 32		 jne	 SHORT $LN4@groupby_se
  00120	48 8d 15 00 00
	00 00		 lea	 rdx, OFFSET FLAT:??_C@_0CD@HDJFDCDP@c?3?2src?2pyparallel?2include?2object@
  00127	48 8d 0d 00 00
	00 00		 lea	 rcx, OFFSET FLAT:??_C@_0L@DHGMCEID@_Py_IncRef?$AA@
  0012e	4c 8b cf	 mov	 r9, rdi
  00131	41 b8 89 03 00
	00		 mov	 r8d, 905		; 00000389H
  00137	c7 44 24 20 02
	00 00 00	 mov	 DWORD PTR [rsp+32], 2
  0013f	e8 00 00 00 00	 call	 _PyParallel_Guard
  00144	85 c0		 test	 eax, eax
  00146	75 06		 jne	 SHORT $LN20@groupby_se
  00148	f6 47 20 20	 test	 BYTE PTR [rdi+32], 32	; 00000020H
  0014c	74 04		 je	 SHORT $LN4@groupby_se
$LN20@groupby_se:
  0014e	48 ff 47 50	 inc	 QWORD PTR [rdi+80]
$LN4@groupby_se:

; 168  :     Py_CLEAR(lz->tgtkey);

  00152	4c 8b 4b 70	 mov	 r9, QWORD PTR [rbx+112]
  00156	4d 85 c9	 test	 r9, r9
  00159	74 36		 je	 SHORT $LN3@groupby_se
  0015b	48 8d 15 00 00
	00 00		 lea	 rdx, OFFSET FLAT:??_C@_0BN@PMILGFFG@?4?4?2Modules?2itertoolsmodule?4c?$AA@
  00162	48 8d 0d 00 00
	00 00		 lea	 rcx, OFFSET FLAT:??_C@_0BB@PGDIIEBE@groupby_setstate?$AA@
  00169	41 b8 a8 00 00
	00		 mov	 r8d, 168		; 000000a8H
  0016f	c7 44 24 20 10
	00 00 00	 mov	 DWORD PTR [rsp+32], 16
  00177	e8 00 00 00 00	 call	 _PyParallel_Guard
  0017c	85 c0		 test	 eax, eax
  0017e	75 11		 jne	 SHORT $LN3@groupby_se
  00180	48 8b 4b 70	 mov	 rcx, QWORD PTR [rbx+112]
  00184	48 c7 43 70 00
	00 00 00	 mov	 QWORD PTR [rbx+112], 0
  0018c	e8 00 00 00 00	 call	 _Py_DecRef
$LN3@groupby_se:

; 169  :     lz->tgtkey = tgtkey;

  00191	48 8b 7c 24 30	 mov	 rdi, QWORD PTR tgtkey$[rsp]
  00196	48 89 7b 70	 mov	 QWORD PTR [rbx+112], rdi

; 170  :     Py_INCREF(lz->tgtkey);

  0019a	e8 00 00 00 00	 call	 _Py_PXCTX
  0019f	85 c0		 test	 eax, eax
  001a1	75 32		 jne	 SHORT $LN25@groupby_se
  001a3	48 8d 15 00 00
	00 00		 lea	 rdx, OFFSET FLAT:??_C@_0CD@HDJFDCDP@c?3?2src?2pyparallel?2include?2object@
  001aa	48 8d 0d 00 00
	00 00		 lea	 rcx, OFFSET FLAT:??_C@_0L@DHGMCEID@_Py_IncRef?$AA@
  001b1	4c 8b cf	 mov	 r9, rdi
  001b4	41 b8 89 03 00
	00		 mov	 r8d, 905		; 00000389H
  001ba	c7 44 24 20 02
	00 00 00	 mov	 DWORD PTR [rsp+32], 2
  001c2	e8 00 00 00 00	 call	 _PyParallel_Guard
  001c7	85 c0		 test	 eax, eax
  001c9	75 06		 jne	 SHORT $LN24@groupby_se
  001cb	f6 47 20 20	 test	 BYTE PTR [rdi+32], 32	; 00000020H
  001cf	74 04		 je	 SHORT $LN25@groupby_se
$LN24@groupby_se:
  001d1	48 ff 47 50	 inc	 QWORD PTR [rdi+80]
$LN25@groupby_se:

; 171  :     Py_RETURN_NONE;

  001d5	e8 00 00 00 00	 call	 _Py_PXCTX
  001da	48 8b 7c 24 50	 mov	 rdi, QWORD PTR [rsp+80]
  001df	85 c0		 test	 eax, eax
  001e1	75 3c		 jne	 SHORT $LN29@groupby_se
  001e3	4c 8d 0d 00 00
	00 00		 lea	 r9, OFFSET FLAT:_Py_NoneStruct
  001ea	48 8d 15 00 00
	00 00		 lea	 rdx, OFFSET FLAT:??_C@_0CD@HDJFDCDP@c?3?2src?2pyparallel?2include?2object@
  001f1	48 8d 0d 00 00
	00 00		 lea	 rcx, OFFSET FLAT:??_C@_0L@DHGMCEID@_Py_IncRef?$AA@
  001f8	41 b8 89 03 00
	00		 mov	 r8d, 905		; 00000389H
  001fe	c7 44 24 20 02
	00 00 00	 mov	 DWORD PTR [rsp+32], 2
  00206	e8 00 00 00 00	 call	 _PyParallel_Guard
  0020b	85 c0		 test	 eax, eax
  0020d	75 09		 jne	 SHORT $LN28@groupby_se
  0020f	f6 05 20 00 00
	00 20		 test	 BYTE PTR _Py_NoneStruct+32, 32 ; 00000020H
  00216	74 07		 je	 SHORT $LN29@groupby_se
$LN28@groupby_se:
  00218	48 ff 05 50 00
	00 00		 inc	 QWORD PTR _Py_NoneStruct+80
$LN29@groupby_se:
  0021f	48 8d 05 00 00
	00 00		 lea	 rax, OFFSET FLAT:_Py_NoneStruct

; 172  : }

  00226	48 83 c4 40	 add	 rsp, 64			; 00000040H
  0022a	5b		 pop	 rbx
  0022b	c3		 ret	 0
groupby_setstate ENDP
_TEXT	ENDS
EXTRN	PyObject_GC_Track:PROC
EXTRN	_PyObject_GC_New:PROC
EXTRN	_PxObject_New:PROC
;	COMDAT pdata
; File c:\src\pyparallel\include\object.h
pdata	SEGMENT
$pdata$_grouper_create DD imagerel _grouper_create
	DD	imagerel _grouper_create+226
	DD	imagerel $unwind$_grouper_create
pdata	ENDS
;	COMDAT xdata
xdata	SEGMENT
$unwind$_grouper_create DD 060f01H
	DD	09640fH
	DD	08340fH
	DD	0700b520fH
; Function compile flags: /Ogtpy
; File c:\src\pyparallel\modules\itertoolsmodule.c
xdata	ENDS
;	COMDAT _grouper_create
_TEXT	SEGMENT
parent$ = 64
tgtkey$ = 72
_grouper_create PROC					; COMDAT

; 256  : {

  00000	48 89 5c 24 08	 mov	 QWORD PTR [rsp+8], rbx
  00005	48 89 74 24 10	 mov	 QWORD PTR [rsp+16], rsi
  0000a	57		 push	 rdi
  0000b	48 83 ec 30	 sub	 rsp, 48			; 00000030H
  0000f	48 8b fa	 mov	 rdi, rdx
  00012	48 8b f1	 mov	 rsi, rcx

; 257  :     _grouperobject *igo;
; 258  : 
; 259  :     igo = PyObject_GC_New(_grouperobject, &_grouper_type);

  00015	e8 00 00 00 00	 call	 _Py_PXCTX
  0001a	48 8d 0d 00 00
	00 00		 lea	 rcx, OFFSET FLAT:_grouper_type
  00021	85 c0		 test	 eax, eax
  00023	74 07		 je	 SHORT $LN4@grouper_cr
  00025	e8 00 00 00 00	 call	 _PxObject_New
  0002a	eb 05		 jmp	 SHORT $LN14@grouper_cr
$LN4@grouper_cr:
  0002c	e8 00 00 00 00	 call	 _PyObject_GC_New
$LN14@grouper_cr:
  00031	48 8b d8	 mov	 rbx, rax

; 260  :     if (igo == NULL)

  00034	48 85 c0	 test	 rax, rax
  00037	75 10		 jne	 SHORT $LN1@grouper_cr

; 268  :     return (PyObject *)igo;
; 269  : }

  00039	48 8b 5c 24 40	 mov	 rbx, QWORD PTR [rsp+64]
  0003e	48 8b 74 24 48	 mov	 rsi, QWORD PTR [rsp+72]
  00043	48 83 c4 30	 add	 rsp, 48			; 00000030H
  00047	5f		 pop	 rdi
  00048	c3		 ret	 0
$LN1@grouper_cr:

; 261  :         return NULL;
; 262  :     igo->parent = (PyObject *)parent;

  00049	48 89 73 60	 mov	 QWORD PTR [rbx+96], rsi

; 263  :     Py_INCREF(parent);

  0004d	e8 00 00 00 00	 call	 _Py_PXCTX
  00052	85 c0		 test	 eax, eax
  00054	75 32		 jne	 SHORT $LN7@grouper_cr
  00056	48 8d 15 00 00
	00 00		 lea	 rdx, OFFSET FLAT:??_C@_0CD@HDJFDCDP@c?3?2src?2pyparallel?2include?2object@
  0005d	48 8d 0d 00 00
	00 00		 lea	 rcx, OFFSET FLAT:??_C@_0L@DHGMCEID@_Py_IncRef?$AA@
  00064	4c 8b ce	 mov	 r9, rsi
  00067	41 b8 89 03 00
	00		 mov	 r8d, 905		; 00000389H
  0006d	c7 44 24 20 02
	00 00 00	 mov	 DWORD PTR [rsp+32], 2
  00075	e8 00 00 00 00	 call	 _PyParallel_Guard
  0007a	85 c0		 test	 eax, eax
  0007c	75 06		 jne	 SHORT $LN6@grouper_cr
  0007e	f6 46 20 20	 test	 BYTE PTR [rsi+32], 32	; 00000020H
  00082	74 04		 je	 SHORT $LN7@grouper_cr
$LN6@grouper_cr:
  00084	48 ff 46 50	 inc	 QWORD PTR [rsi+80]
$LN7@grouper_cr:

; 264  :     igo->tgtkey = tgtkey;

  00088	48 89 7b 68	 mov	 QWORD PTR [rbx+104], rdi

; 265  :     Py_INCREF(tgtkey);

  0008c	e8 00 00 00 00	 call	 _Py_PXCTX
  00091	85 c0		 test	 eax, eax
  00093	75 32		 jne	 SHORT $LN11@grouper_cr
  00095	48 8d 15 00 00
	00 00		 lea	 rdx, OFFSET FLAT:??_C@_0CD@HDJFDCDP@c?3?2src?2pyparallel?2include?2object@
  0009c	48 8d 0d 00 00
	00 00		 lea	 rcx, OFFSET FLAT:??_C@_0L@DHGMCEID@_Py_IncRef?$AA@
  000a3	4c 8b cf	 mov	 r9, rdi
  000a6	41 b8 89 03 00
	00		 mov	 r8d, 905		; 00000389H
  000ac	c7 44 24 20 02
	00 00 00	 mov	 DWORD PTR [rsp+32], 2
  000b4	e8 00 00 00 00	 call	 _PyParallel_Guard
  000b9	85 c0		 test	 eax, eax
  000bb	75 06		 jne	 SHORT $LN10@grouper_cr
  000bd	f6 47 20 20	 test	 BYTE PTR [rdi+32], 32	; 00000020H
  000c1	74 04		 je	 SHORT $LN11@grouper_cr
$LN10@grouper_cr:
  000c3	48 ff 47 50	 inc	 QWORD PTR [rdi+80]
$LN11@grouper_cr:

; 266  : 
; 267  :     PyObject_GC_Track(igo);

  000c7	48 8b cb	 mov	 rcx, rbx
  000ca	e8 00 00 00 00	 call	 PyObject_GC_Track

; 268  :     return (PyObject *)igo;
; 269  : }

  000cf	48 8b 74 24 48	 mov	 rsi, QWORD PTR [rsp+72]
  000d4	48 8b c3	 mov	 rax, rbx
  000d7	48 8b 5c 24 40	 mov	 rbx, QWORD PTR [rsp+64]
  000dc	48 83 c4 30	 add	 rsp, 48			; 00000030H
  000e0	5f		 pop	 rdi
  000e1	c3		 ret	 0
_grouper_create ENDP
_TEXT	ENDS
;	COMDAT pdata
pdata	SEGMENT
$pdata$_grouper_dealloc DD imagerel _grouper_dealloc
	DD	imagerel _grouper_dealloc+45
	DD	imagerel $unwind$_grouper_dealloc
pdata	ENDS
;	COMDAT xdata
xdata	SEGMENT
$unwind$_grouper_dealloc DD 020601H
	DD	030023206H
; Function compile flags: /Ogtpy
xdata	ENDS
;	COMDAT _grouper_dealloc
_TEXT	SEGMENT
igo$ = 48
_grouper_dealloc PROC					; COMDAT

; 273  : {

  00000	40 53		 push	 rbx
  00002	48 83 ec 20	 sub	 rsp, 32			; 00000020H
  00006	48 8b d9	 mov	 rbx, rcx

; 274  :     PyObject_GC_UnTrack(igo);

  00009	e8 00 00 00 00	 call	 PyObject_GC_UnTrack

; 275  :     Py_DECREF(igo->parent);

  0000e	48 8b 4b 60	 mov	 rcx, QWORD PTR [rbx+96]
  00012	e8 00 00 00 00	 call	 _Py_DecRef

; 276  :     Py_DECREF(igo->tgtkey);

  00017	48 8b 4b 68	 mov	 rcx, QWORD PTR [rbx+104]
  0001b	e8 00 00 00 00	 call	 _Py_DecRef

; 277  :     PyObject_GC_Del(igo);

  00020	48 8b cb	 mov	 rcx, rbx

; 278  : }

  00023	48 83 c4 20	 add	 rsp, 32			; 00000020H
  00027	5b		 pop	 rbx
  00028	e9 00 00 00 00	 jmp	 PyObject_GC_Del
_grouper_dealloc ENDP
_TEXT	ENDS
PUBLIC	??_C@_0BC@HDHLNI@_grouper_traverse?$AA@		; `string'
;	COMDAT pdata
pdata	SEGMENT
$pdata$_grouper_traverse DD imagerel _grouper_traverse
	DD	imagerel _grouper_traverse+152
	DD	imagerel $unwind$_grouper_traverse
pdata	ENDS
;	COMDAT xdata
xdata	SEGMENT
$unwind$_grouper_traverse DD 060f01H
	DD	07640fH
	DD	06340fH
	DD	0700b320fH
xdata	ENDS
;	COMDAT ??_C@_0BC@HDHLNI@_grouper_traverse?$AA@
CONST	SEGMENT
??_C@_0BC@HDHLNI@_grouper_traverse?$AA@ DB '_grouper_traverse', 00H ; `string'
; Function compile flags: /Ogtpy
CONST	ENDS
;	COMDAT _grouper_traverse
_TEXT	SEGMENT
igo$ = 48
visit$ = 56
arg$ = 64
_grouper_traverse PROC					; COMDAT

; 282  : {

  00000	48 89 5c 24 08	 mov	 QWORD PTR [rsp+8], rbx
  00005	48 89 74 24 10	 mov	 QWORD PTR [rsp+16], rsi
  0000a	57		 push	 rdi
  0000b	48 83 ec 20	 sub	 rsp, 32			; 00000020H
  0000f	49 8b f8	 mov	 rdi, r8
  00012	48 8b f2	 mov	 rsi, rdx
  00015	48 8b d9	 mov	 rbx, rcx

; 283  :     Py_VISIT(igo->parent);

  00018	e8 00 00 00 00	 call	 _Py_PXCTX
  0001d	85 c0		 test	 eax, eax
  0001f	74 1c		 je	 SHORT $LN9@grouper_tr
  00021	48 8d 15 00 00
	00 00		 lea	 rdx, OFFSET FLAT:??_C@_0BN@PMILGFFG@?4?4?2Modules?2itertoolsmodule?4c?$AA@
  00028	48 8d 0d 00 00
	00 00		 lea	 rcx, OFFSET FLAT:??_C@_0BC@HDHLNI@_grouper_traverse?$AA@
  0002f	45 33 c9	 xor	 r9d, r9d
  00032	41 b8 1b 01 00
	00		 mov	 r8d, 283		; 0000011bH
  00038	e8 00 00 00 00	 call	 _PyParallel_ContextGuardFailure
$LN9@grouper_tr:
  0003d	48 8b 4b 60	 mov	 rcx, QWORD PTR [rbx+96]
  00041	48 85 c9	 test	 rcx, rcx
  00044	74 09		 je	 SHORT $LN11@grouper_tr
  00046	48 8b d7	 mov	 rdx, rdi
  00049	ff d6		 call	 rsi
  0004b	85 c0		 test	 eax, eax
  0004d	75 39		 jne	 SHORT $LN13@grouper_tr
$LN11@grouper_tr:

; 284  :     Py_VISIT(igo->tgtkey);

  0004f	e8 00 00 00 00	 call	 _Py_PXCTX
  00054	85 c0		 test	 eax, eax
  00056	74 1c		 je	 SHORT $LN3@grouper_tr
  00058	48 8d 15 00 00
	00 00		 lea	 rdx, OFFSET FLAT:??_C@_0BN@PMILGFFG@?4?4?2Modules?2itertoolsmodule?4c?$AA@
  0005f	48 8d 0d 00 00
	00 00		 lea	 rcx, OFFSET FLAT:??_C@_0BC@HDHLNI@_grouper_traverse?$AA@
  00066	45 33 c9	 xor	 r9d, r9d
  00069	41 b8 1c 01 00
	00		 mov	 r8d, 284		; 0000011cH
  0006f	e8 00 00 00 00	 call	 _PyParallel_ContextGuardFailure
$LN3@grouper_tr:
  00074	48 8b 4b 68	 mov	 rcx, QWORD PTR [rbx+104]
  00078	48 85 c9	 test	 rcx, rcx
  0007b	74 09		 je	 SHORT $LN5@grouper_tr
  0007d	48 8b d7	 mov	 rdx, rdi
  00080	ff d6		 call	 rsi
  00082	85 c0		 test	 eax, eax
  00084	75 02		 jne	 SHORT $LN13@grouper_tr
$LN5@grouper_tr:

; 285  :     return 0;

  00086	33 c0		 xor	 eax, eax
$LN13@grouper_tr:

; 286  : }

  00088	48 8b 5c 24 30	 mov	 rbx, QWORD PTR [rsp+48]
  0008d	48 8b 74 24 38	 mov	 rsi, QWORD PTR [rsp+56]
  00092	48 83 c4 20	 add	 rsp, 32			; 00000020H
  00096	5f		 pop	 rdi
  00097	c3		 ret	 0
_grouper_traverse ENDP
_TEXT	ENDS
PUBLIC	??_C@_0O@OCKKELDB@_grouper_next?$AA@		; `string'
EXTRN	PyObject_CallFunctionObjArgs:PROC
EXTRN	PyObject_RichCompareBool:PROC
EXTRN	PyIter_Next:PROC
;	COMDAT pdata
pdata	SEGMENT
$pdata$_grouper_next DD imagerel _grouper_next
	DD	imagerel _grouper_next+261
	DD	imagerel $unwind$_grouper_next
pdata	ENDS
;	COMDAT xdata
xdata	SEGMENT
$unwind$_grouper_next DD 081401H
	DD	0a6414H
	DD	095414H
	DD	083414H
	DD	070105214H
xdata	ENDS
;	COMDAT ??_C@_0O@OCKKELDB@_grouper_next?$AA@
CONST	SEGMENT
??_C@_0O@OCKKELDB@_grouper_next?$AA@ DB '_grouper_next', 00H ; `string'
; Function compile flags: /Ogtpy
CONST	ENDS
;	COMDAT _grouper_next
_TEXT	SEGMENT
igo$ = 64
_grouper_next PROC					; COMDAT

; 290  : {

  00000	48 89 5c 24 08	 mov	 QWORD PTR [rsp+8], rbx
  00005	48 89 6c 24 10	 mov	 QWORD PTR [rsp+16], rbp
  0000a	48 89 74 24 18	 mov	 QWORD PTR [rsp+24], rsi
  0000f	57		 push	 rdi
  00010	48 83 ec 30	 sub	 rsp, 48			; 00000030H

; 291  :     groupbyobject *gbo = (groupbyobject *)igo->parent;

  00014	48 8b 59 60	 mov	 rbx, QWORD PTR [rcx+96]
  00018	48 8b e9	 mov	 rbp, rcx

; 292  :     PyObject *newvalue, *newkey, *r;
; 293  :     int rcmp;
; 294  : 
; 295  :     if (gbo->currvalue == NULL) {

  0001b	48 83 bb 80 00
	00 00 00	 cmp	 QWORD PTR [rbx+128], 0
  00023	75 3f		 jne	 SHORT $LN10@grouper_ne

; 296  :         newvalue = PyIter_Next(gbo->it);

  00025	48 8b 4b 60	 mov	 rcx, QWORD PTR [rbx+96]
  00029	e8 00 00 00 00	 call	 PyIter_Next
  0002e	48 8b f8	 mov	 rdi, rax

; 297  :         if (newvalue == NULL)

  00031	48 85 c0	 test	 rax, rax

; 298  :             return NULL;

  00034	0f 84 c7 00 00
	00		 je	 $LN13@grouper_ne

; 299  : 
; 300  :         if (gbo->keyfunc == Py_None) {

  0003a	48 8b 4b 68	 mov	 rcx, QWORD PTR [rbx+104]
  0003e	48 8d 05 00 00
	00 00		 lea	 rax, OFFSET FLAT:_Py_NoneStruct
  00045	48 3b c8	 cmp	 rcx, rax
  00048	0f 85 94 00 00
	00		 jne	 $LN8@grouper_ne

; 301  :             newkey = newvalue;
; 302  :             Py_INCREF(newvalue);

  0004e	48 8b cf	 mov	 rcx, rdi
  00051	48 8b f7	 mov	 rsi, rdi
  00054	e8 00 00 00 00	 call	 _Py_IncRef
$LN6@grouper_ne:

; 309  :             }
; 310  :         }
; 311  : 
; 312  :         assert(gbo->currkey == NULL);
; 313  :         gbo->currkey = newkey;

  00059	48 89 73 78	 mov	 QWORD PTR [rbx+120], rsi

; 314  :         gbo->currvalue = newvalue;

  0005d	48 89 bb 80 00
	00 00		 mov	 QWORD PTR [rbx+128], rdi
$LN10@grouper_ne:

; 315  :     }
; 316  : 
; 317  :     assert(gbo->currkey != NULL);
; 318  :     rcmp = PyObject_RichCompareBool(igo->tgtkey, gbo->currkey, Py_EQ);

  00064	48 8b 53 78	 mov	 rdx, QWORD PTR [rbx+120]
  00068	48 8b 4d 68	 mov	 rcx, QWORD PTR [rbp+104]
  0006c	41 b8 02 00 00
	00		 mov	 r8d, 2
  00072	e8 00 00 00 00	 call	 PyObject_RichCompareBool

; 319  :     if (rcmp <= 0)

  00077	85 c0		 test	 eax, eax

; 320  :         /* got any error or current group is end */
; 321  :         return NULL;

  00079	0f 8e 82 00 00
	00		 jle	 $LN13@grouper_ne

; 322  : 
; 323  :     r = gbo->currvalue;
; 324  :     gbo->currvalue = NULL;
; 325  :     Py_CLEAR(gbo->currkey);

  0007f	4c 8b 4b 78	 mov	 r9, QWORD PTR [rbx+120]
  00083	48 8b bb 80 00
	00 00		 mov	 rdi, QWORD PTR [rbx+128]
  0008a	33 f6		 xor	 esi, esi
  0008c	48 89 b3 80 00
	00 00		 mov	 QWORD PTR [rbx+128], rsi
  00093	4d 85 c9	 test	 r9, r9
  00096	74 32		 je	 SHORT $LN3@grouper_ne
  00098	48 8d 15 00 00
	00 00		 lea	 rdx, OFFSET FLAT:??_C@_0BN@PMILGFFG@?4?4?2Modules?2itertoolsmodule?4c?$AA@
  0009f	48 8d 0d 00 00
	00 00		 lea	 rcx, OFFSET FLAT:??_C@_0O@OCKKELDB@_grouper_next?$AA@
  000a6	41 b8 45 01 00
	00		 mov	 r8d, 325		; 00000145H
  000ac	c7 44 24 20 10
	00 00 00	 mov	 DWORD PTR [rsp+32], 16
  000b4	e8 00 00 00 00	 call	 _PyParallel_Guard
  000b9	85 c0		 test	 eax, eax
  000bb	75 0d		 jne	 SHORT $LN3@grouper_ne
  000bd	48 8b 4b 78	 mov	 rcx, QWORD PTR [rbx+120]
  000c1	48 89 73 78	 mov	 QWORD PTR [rbx+120], rsi
  000c5	e8 00 00 00 00	 call	 _Py_DecRef
$LN3@grouper_ne:

; 326  : 
; 327  :     return r;

  000ca	48 8b c7	 mov	 rax, rdi
$LN11@grouper_ne:

; 328  : }

  000cd	48 8b 5c 24 40	 mov	 rbx, QWORD PTR [rsp+64]
  000d2	48 8b 6c 24 48	 mov	 rbp, QWORD PTR [rsp+72]
  000d7	48 8b 74 24 50	 mov	 rsi, QWORD PTR [rsp+80]
  000dc	48 83 c4 30	 add	 rsp, 48			; 00000030H
  000e0	5f		 pop	 rdi
  000e1	c3		 ret	 0
$LN8@grouper_ne:

; 303  :         } else {
; 304  :             newkey = PyObject_CallFunctionObjArgs(gbo->keyfunc,
; 305  :                                                   newvalue, NULL);

  000e2	45 33 c0	 xor	 r8d, r8d
  000e5	48 8b d7	 mov	 rdx, rdi
  000e8	e8 00 00 00 00	 call	 PyObject_CallFunctionObjArgs
  000ed	48 8b f0	 mov	 rsi, rax

; 306  :             if (newkey == NULL) {

  000f0	48 85 c0	 test	 rax, rax
  000f3	0f 85 60 ff ff
	ff		 jne	 $LN6@grouper_ne

; 307  :                 Py_DECREF(newvalue);

  000f9	48 8b cf	 mov	 rcx, rdi
  000fc	e8 00 00 00 00	 call	 _Py_DecRef
$LN13@grouper_ne:

; 308  :                 return NULL;

  00101	33 c0		 xor	 eax, eax
  00103	eb c8		 jmp	 SHORT $LN11@grouper_ne
_grouper_next ENDP
; Function compile flags: /Ogtpy
_TEXT	ENDS
;	COMDAT _grouper_reduce
_TEXT	SEGMENT
lz$ = 8
_grouper_reduce PROC					; COMDAT

; 333  :     return Py_BuildValue("O(OO)", Py_TYPE(lz),
; 334  :             lz->parent, lz->tgtkey);

  00000	4c 8b 49 68	 mov	 r9, QWORD PTR [rcx+104]
  00004	4c 8b 41 60	 mov	 r8, QWORD PTR [rcx+96]
  00008	48 8b 51 58	 mov	 rdx, QWORD PTR [rcx+88]
  0000c	48 8d 0d 00 00
	00 00		 lea	 rcx, OFFSET FLAT:??_C@_05LNHFJPFN@O?$CIOO?$CJ?$AA@

; 335  : }

  00013	e9 00 00 00 00	 jmp	 Py_BuildValue
_grouper_reduce ENDP
_TEXT	ENDS
;	COMDAT pdata
; File c:\src\pyparallel\include\object.h
pdata	SEGMENT
$pdata$teedataobject_newinternal DD imagerel teedataobject_newinternal
	DD	imagerel teedataobject_newinternal+143
	DD	imagerel $unwind$teedataobject_newinternal
pdata	ENDS
;	COMDAT xdata
xdata	SEGMENT
$unwind$teedataobject_newinternal DD 040a01H
	DD	08340aH
	DD	07006520aH
; Function compile flags: /Ogtpy
; File c:\src\pyparallel\modules\itertoolsmodule.c
xdata	ENDS
;	COMDAT teedataobject_newinternal
_TEXT	SEGMENT
it$ = 64
teedataobject_newinternal PROC				; COMDAT

; 420  : {

  00000	48 89 5c 24 08	 mov	 QWORD PTR [rsp+8], rbx
  00005	57		 push	 rdi
  00006	48 83 ec 30	 sub	 rsp, 48			; 00000030H
  0000a	48 8b f9	 mov	 rdi, rcx

; 421  :     teedataobject *tdo;
; 422  : 
; 423  :     tdo = PyObject_GC_New(teedataobject, &teedataobject_type);

  0000d	e8 00 00 00 00	 call	 _Py_PXCTX
  00012	48 8d 0d 00 00
	00 00		 lea	 rcx, OFFSET FLAT:teedataobject_type
  00019	85 c0		 test	 eax, eax
  0001b	74 07		 je	 SHORT $LN4@teedataobj
  0001d	e8 00 00 00 00	 call	 _PxObject_New
  00022	eb 05		 jmp	 SHORT $LN10@teedataobj
$LN4@teedataobj:
  00024	e8 00 00 00 00	 call	 _PyObject_GC_New
$LN10@teedataobj:
  00029	48 8b d8	 mov	 rbx, rax

; 424  :     if (tdo == NULL)
; 425  :         return NULL;

  0002c	33 c0		 xor	 eax, eax
  0002e	48 85 db	 test	 rbx, rbx
  00031	74 51		 je	 SHORT $LN2@teedataobj

; 426  : 
; 427  :     tdo->numread = 0;

  00033	89 43 68	 mov	 DWORD PTR [rbx+104], eax

; 428  :     tdo->nextlink = NULL;

  00036	48 89 43 70	 mov	 QWORD PTR [rbx+112], rax

; 429  :     Py_INCREF(it);

  0003a	e8 00 00 00 00	 call	 _Py_PXCTX
  0003f	85 c0		 test	 eax, eax
  00041	75 32		 jne	 SHORT $LN7@teedataobj
  00043	48 8d 15 00 00
	00 00		 lea	 rdx, OFFSET FLAT:??_C@_0CD@HDJFDCDP@c?3?2src?2pyparallel?2include?2object@
  0004a	48 8d 0d 00 00
	00 00		 lea	 rcx, OFFSET FLAT:??_C@_0L@DHGMCEID@_Py_IncRef?$AA@
  00051	4c 8b cf	 mov	 r9, rdi
  00054	41 b8 89 03 00
	00		 mov	 r8d, 905		; 00000389H
  0005a	c7 44 24 20 02
	00 00 00	 mov	 DWORD PTR [rsp+32], 2
  00062	e8 00 00 00 00	 call	 _PyParallel_Guard
  00067	85 c0		 test	 eax, eax
  00069	75 06		 jne	 SHORT $LN6@teedataobj
  0006b	f6 47 20 20	 test	 BYTE PTR [rdi+32], 32	; 00000020H
  0006f	74 04		 je	 SHORT $LN7@teedataobj
$LN6@teedataobj:
  00071	48 ff 47 50	 inc	 QWORD PTR [rdi+80]
$LN7@teedataobj:

; 430  :     tdo->it = it;
; 431  :     PyObject_GC_Track(tdo);

  00075	48 8b cb	 mov	 rcx, rbx
  00078	48 89 7b 60	 mov	 QWORD PTR [rbx+96], rdi
  0007c	e8 00 00 00 00	 call	 PyObject_GC_Track

; 432  :     return (PyObject *)tdo;

  00081	48 8b c3	 mov	 rax, rbx
$LN2@teedataobj:

; 433  : }

  00084	48 8b 5c 24 40	 mov	 rbx, QWORD PTR [rsp+64]
  00089	48 83 c4 30	 add	 rsp, 48			; 00000030H
  0008d	5f		 pop	 rdi
  0008e	c3		 ret	 0
teedataobject_newinternal ENDP
_TEXT	ENDS
;	COMDAT pdata
; File c:\src\pyparallel\include\object.h
pdata	SEGMENT
$pdata$teedataobject_jumplink DD imagerel teedataobject_jumplink
	DD	imagerel teedataobject_jumplink+130
	DD	imagerel $unwind$teedataobject_jumplink
pdata	ENDS
;	COMDAT xdata
xdata	SEGMENT
$unwind$teedataobject_jumplink DD 040a01H
	DD	08340aH
	DD	07006520aH
; Function compile flags: /Ogtpy
; File c:\src\pyparallel\modules\itertoolsmodule.c
xdata	ENDS
;	COMDAT teedataobject_jumplink
_TEXT	SEGMENT
tdo$ = 64
teedataobject_jumplink PROC				; COMDAT

; 437  : {

  00000	48 89 5c 24 08	 mov	 QWORD PTR [rsp+8], rbx
  00005	57		 push	 rdi
  00006	48 83 ec 30	 sub	 rsp, 48			; 00000030H

; 438  :     if (tdo->nextlink == NULL)

  0000a	48 83 79 70 00	 cmp	 QWORD PTR [rcx+112], 0
  0000f	48 8b d9	 mov	 rbx, rcx
  00012	75 0d		 jne	 SHORT $LN4@teedataobj@2

; 439  :         tdo->nextlink = teedataobject_newinternal(tdo->it);

  00014	48 8b 49 60	 mov	 rcx, QWORD PTR [rcx+96]
  00018	e8 00 00 00 00	 call	 teedataobject_newinternal
  0001d	48 89 43 70	 mov	 QWORD PTR [rbx+112], rax
$LN4@teedataobj@2:

; 440  :     Py_XINCREF(tdo->nextlink);

  00021	48 8b 7b 70	 mov	 rdi, QWORD PTR [rbx+112]
  00025	48 85 ff	 test	 rdi, rdi
  00028	74 4a		 je	 SHORT $LN14@teedataobj@2
  0002a	e8 00 00 00 00	 call	 _Py_PXCTX
  0002f	85 c0		 test	 eax, eax
  00031	75 32		 jne	 SHORT $LN12@teedataobj@2
  00033	48 8d 15 00 00
	00 00		 lea	 rdx, OFFSET FLAT:??_C@_0CD@HDJFDCDP@c?3?2src?2pyparallel?2include?2object@
  0003a	48 8d 0d 00 00
	00 00		 lea	 rcx, OFFSET FLAT:??_C@_0L@DHGMCEID@_Py_IncRef?$AA@
  00041	4c 8b cf	 mov	 r9, rdi
  00044	41 b8 89 03 00
	00		 mov	 r8d, 905		; 00000389H
  0004a	c7 44 24 20 02
	00 00 00	 mov	 DWORD PTR [rsp+32], 2
  00052	e8 00 00 00 00	 call	 _PyParallel_Guard
  00057	85 c0		 test	 eax, eax
  00059	75 06		 jne	 SHORT $LN8@teedataobj@2
  0005b	f6 47 20 20	 test	 BYTE PTR [rdi+32], 32	; 00000020H
  0005f	74 04		 je	 SHORT $LN12@teedataobj@2
$LN8@teedataobj@2:
  00061	48 ff 47 50	 inc	 QWORD PTR [rdi+80]
$LN12@teedataobj@2:

; 441  :     return tdo->nextlink;

  00065	48 8b 43 70	 mov	 rax, QWORD PTR [rbx+112]

; 442  : }

  00069	48 8b 5c 24 40	 mov	 rbx, QWORD PTR [rsp+64]
  0006e	48 83 c4 30	 add	 rsp, 48			; 00000030H
  00072	5f		 pop	 rdi
  00073	c3		 ret	 0
$LN14@teedataobj@2:

; 441  :     return tdo->nextlink;

  00074	48 8b c7	 mov	 rax, rdi

; 442  : }

  00077	48 8b 5c 24 40	 mov	 rbx, QWORD PTR [rsp+64]
  0007c	48 83 c4 30	 add	 rsp, 48			; 00000030H
  00080	5f		 pop	 rdi
  00081	c3		 ret	 0
teedataobject_jumplink ENDP
_TEXT	ENDS
;	COMDAT pdata
; File c:\src\pyparallel\include\object.h
pdata	SEGMENT
$pdata$teedataobject_getitem DD imagerel teedataobject_getitem
	DD	imagerel teedataobject_getitem+152
	DD	imagerel $unwind$teedataobject_getitem
pdata	ENDS
;	COMDAT xdata
xdata	SEGMENT
$unwind$teedataobject_getitem DD 060f01H
	DD	09640fH
	DD	08340fH
	DD	0700b520fH
; Function compile flags: /Ogtpy
; File c:\src\pyparallel\modules\itertoolsmodule.c
xdata	ENDS
;	COMDAT teedataobject_getitem
_TEXT	SEGMENT
tdo$ = 64
i$ = 72
teedataobject_getitem PROC				; COMDAT

; 446  : {

  00000	48 89 5c 24 08	 mov	 QWORD PTR [rsp+8], rbx
  00005	48 89 74 24 10	 mov	 QWORD PTR [rsp+16], rsi
  0000a	57		 push	 rdi
  0000b	48 83 ec 30	 sub	 rsp, 48			; 00000030H
  0000f	48 63 f2	 movsxd	 rsi, edx
  00012	48 8b f9	 mov	 rdi, rcx

; 447  :     PyObject *value;
; 448  : 
; 449  :     assert(i < LINKCELLS);
; 450  :     if (i < tdo->numread)

  00015	3b 71 68	 cmp	 esi, DWORD PTR [rcx+104]
  00018	7d 07		 jge	 SHORT $LN3@teedataobj@3

; 451  :         value = tdo->values[i];

  0001a	48 8b 5c f1 78	 mov	 rbx, QWORD PTR [rcx+rsi*8+120]

; 452  :     else {

  0001f	eb 29		 jmp	 SHORT $LN2@teedataobj@3
$LN3@teedataobj@3:

; 453  :         /* this is the lead iterator, so fetch more data */
; 454  :         assert(i == tdo->numread);
; 455  :         value = PyIter_Next(tdo->it);

  00021	48 8b 49 60	 mov	 rcx, QWORD PTR [rcx+96]
  00025	e8 00 00 00 00	 call	 PyIter_Next
  0002a	48 8b d8	 mov	 rbx, rax

; 456  :         if (value == NULL)

  0002d	48 85 c0	 test	 rax, rax
  00030	75 10		 jne	 SHORT $LN1@teedataobj@3

; 462  :     return value;
; 463  : }

  00032	48 8b 5c 24 40	 mov	 rbx, QWORD PTR [rsp+64]
  00037	48 8b 74 24 48	 mov	 rsi, QWORD PTR [rsp+72]
  0003c	48 83 c4 30	 add	 rsp, 48			; 00000030H
  00040	5f		 pop	 rdi
  00041	c3		 ret	 0
$LN1@teedataobj@3:

; 457  :             return NULL;
; 458  :         tdo->numread++;

  00042	ff 47 68	 inc	 DWORD PTR [rdi+104]

; 459  :         tdo->values[i] = value;

  00045	48 89 44 f7 78	 mov	 QWORD PTR [rdi+rsi*8+120], rax
$LN2@teedataobj@3:

; 460  :     }
; 461  :     Py_INCREF(value);

  0004a	e8 00 00 00 00	 call	 _Py_PXCTX
  0004f	85 c0		 test	 eax, eax
  00051	75 32		 jne	 SHORT $LN7@teedataobj@3
  00053	48 8d 15 00 00
	00 00		 lea	 rdx, OFFSET FLAT:??_C@_0CD@HDJFDCDP@c?3?2src?2pyparallel?2include?2object@
  0005a	48 8d 0d 00 00
	00 00		 lea	 rcx, OFFSET FLAT:??_C@_0L@DHGMCEID@_Py_IncRef?$AA@
  00061	4c 8b cb	 mov	 r9, rbx
  00064	41 b8 89 03 00
	00		 mov	 r8d, 905		; 00000389H
  0006a	c7 44 24 20 02
	00 00 00	 mov	 DWORD PTR [rsp+32], 2
  00072	e8 00 00 00 00	 call	 _PyParallel_Guard
  00077	85 c0		 test	 eax, eax
  00079	75 06		 jne	 SHORT $LN6@teedataobj@3
  0007b	f6 43 20 20	 test	 BYTE PTR [rbx+32], 32	; 00000020H
  0007f	74 04		 je	 SHORT $LN7@teedataobj@3
$LN6@teedataobj@3:
  00081	48 ff 43 50	 inc	 QWORD PTR [rbx+80]
$LN7@teedataobj@3:

; 462  :     return value;
; 463  : }

  00085	48 8b 74 24 48	 mov	 rsi, QWORD PTR [rsp+72]
  0008a	48 8b c3	 mov	 rax, rbx
  0008d	48 8b 5c 24 40	 mov	 rbx, QWORD PTR [rsp+64]
  00092	48 83 c4 30	 add	 rsp, 48			; 00000030H
  00096	5f		 pop	 rdi
  00097	c3		 ret	 0
teedataobject_getitem ENDP
_TEXT	ENDS
PUBLIC	??_C@_0BH@KDFMIKCD@teedataobject_traverse?$AA@	; `string'
;	COMDAT pdata
pdata	SEGMENT
$pdata$teedataobject_traverse DD imagerel teedataobject_traverse
	DD	imagerel teedataobject_traverse+85
	DD	imagerel $unwind$teedataobject_traverse
pdata	ENDS
;	COMDAT pdata
pdata	SEGMENT
$pdata$1$teedataobject_traverse DD imagerel teedataobject_traverse+85
	DD	imagerel teedataobject_traverse+246
	DD	imagerel $chain$1$teedataobject_traverse
pdata	ENDS
;	COMDAT pdata
pdata	SEGMENT
$pdata$2$teedataobject_traverse DD imagerel teedataobject_traverse+246
	DD	imagerel teedataobject_traverse+263
	DD	imagerel $chain$2$teedataobject_traverse
pdata	ENDS
;	COMDAT xdata
xdata	SEGMENT
$chain$2$teedataobject_traverse DD 021H
	DD	imagerel teedataobject_traverse
	DD	imagerel teedataobject_traverse+85
	DD	imagerel $unwind$teedataobject_traverse
xdata	ENDS
;	COMDAT xdata
xdata	SEGMENT
$chain$1$teedataobject_traverse DD 040a21H
	DD	07740aH
	DD	063405H
	DD	imagerel teedataobject_traverse
	DD	imagerel teedataobject_traverse+85
	DD	imagerel $unwind$teedataobject_traverse
xdata	ENDS
;	COMDAT xdata
xdata	SEGMENT
$unwind$teedataobject_traverse DD 061001H
	DD	096410H
	DD	085410H
	DD	0c00c3210H
xdata	ENDS
;	COMDAT ??_C@_0BH@KDFMIKCD@teedataobject_traverse?$AA@
CONST	SEGMENT
??_C@_0BH@KDFMIKCD@teedataobject_traverse?$AA@ DB 'teedataobject_traverse'
	DB	00H						; `string'
; Function compile flags: /Ogtpy
CONST	ENDS
;	COMDAT teedataobject_traverse
_TEXT	SEGMENT
tdo$ = 48
visit$ = 56
arg$ = 64
teedataobject_traverse PROC				; COMDAT

; 467  : {

  00000	48 89 6c 24 18	 mov	 QWORD PTR [rsp+24], rbp
  00005	48 89 74 24 20	 mov	 QWORD PTR [rsp+32], rsi
  0000a	41 54		 push	 r12
  0000c	48 83 ec 20	 sub	 rsp, 32			; 00000020H
  00010	49 8b e8	 mov	 rbp, r8
  00013	4c 8b e2	 mov	 r12, rdx
  00016	48 8b f1	 mov	 rsi, rcx

; 468  :     int i;
; 469  :     Py_VISIT(tdo->it);

  00019	e8 00 00 00 00	 call	 _Py_PXCTX
  0001e	85 c0		 test	 eax, eax
  00020	74 1c		 je	 SHORT $LN18@teedataobj@4
  00022	48 8d 15 00 00
	00 00		 lea	 rdx, OFFSET FLAT:??_C@_0BN@PMILGFFG@?4?4?2Modules?2itertoolsmodule?4c?$AA@
  00029	48 8d 0d 00 00
	00 00		 lea	 rcx, OFFSET FLAT:??_C@_0BH@KDFMIKCD@teedataobject_traverse?$AA@
  00030	45 33 c9	 xor	 r9d, r9d
  00033	41 b8 d5 01 00
	00		 mov	 r8d, 469		; 000001d5H
  00039	e8 00 00 00 00	 call	 _PyParallel_ContextGuardFailure
$LN18@teedataobj@4:
  0003e	48 8b 4e 60	 mov	 rcx, QWORD PTR [rsi+96]
  00042	48 85 c9	 test	 rcx, rcx
  00045	74 0e		 je	 SHORT $LN20@teedataobj@4
  00047	48 8b d5	 mov	 rdx, rbp
  0004a	41 ff d4	 call	 r12
  0004d	85 c0		 test	 eax, eax
  0004f	0f 85 a1 00 00
	00		 jne	 $LN22@teedataobj@4
$LN20@teedataobj@4:
  00055	48 89 5c 24 30	 mov	 QWORD PTR [rsp+48], rbx
  0005a	48 89 7c 24 38	 mov	 QWORD PTR [rsp+56], rdi

; 470  :     for (i = 0; i < tdo->numread; i++)

  0005f	33 ff		 xor	 edi, edi
  00061	39 7e 68	 cmp	 DWORD PTR [rsi+104], edi
  00064	7e 4c		 jle	 SHORT $LN6@teedataobj@4
  00066	48 8d 5e 78	 lea	 rbx, QWORD PTR [rsi+120]
  0006a	66 0f 1f 44 00
	00		 npad	 6
$LL15@teedataobj@4:

; 471  :         Py_VISIT(tdo->values[i]);

  00070	e8 00 00 00 00	 call	 _Py_PXCTX
  00075	85 c0		 test	 eax, eax
  00077	74 1c		 je	 SHORT $LN9@teedataobj@4
  00079	48 8d 15 00 00
	00 00		 lea	 rdx, OFFSET FLAT:??_C@_0BN@PMILGFFG@?4?4?2Modules?2itertoolsmodule?4c?$AA@
  00080	48 8d 0d 00 00
	00 00		 lea	 rcx, OFFSET FLAT:??_C@_0BH@KDFMIKCD@teedataobject_traverse?$AA@
  00087	45 33 c9	 xor	 r9d, r9d
  0008a	41 b8 d7 01 00
	00		 mov	 r8d, 471		; 000001d7H
  00090	e8 00 00 00 00	 call	 _PyParallel_ContextGuardFailure
$LN9@teedataobj@4:
  00095	48 8b 0b	 mov	 rcx, QWORD PTR [rbx]
  00098	48 85 c9	 test	 rcx, rcx
  0009b	74 0a		 je	 SHORT $LN11@teedataobj@4
  0009d	48 8b d5	 mov	 rdx, rbp
  000a0	41 ff d4	 call	 r12
  000a3	85 c0		 test	 eax, eax
  000a5	75 45		 jne	 SHORT $LN29@teedataobj@4
$LN11@teedataobj@4:

; 470  :     for (i = 0; i < tdo->numread; i++)

  000a7	ff c7		 inc	 edi
  000a9	48 83 c3 08	 add	 rbx, 8
  000ad	3b 7e 68	 cmp	 edi, DWORD PTR [rsi+104]
  000b0	7c be		 jl	 SHORT $LL15@teedataobj@4
$LN6@teedataobj@4:

; 472  :     Py_VISIT(tdo->nextlink);

  000b2	e8 00 00 00 00	 call	 _Py_PXCTX
  000b7	85 c0		 test	 eax, eax
  000b9	74 1c		 je	 SHORT $LN3@teedataobj@4
  000bb	48 8d 15 00 00
	00 00		 lea	 rdx, OFFSET FLAT:??_C@_0BN@PMILGFFG@?4?4?2Modules?2itertoolsmodule?4c?$AA@
  000c2	48 8d 0d 00 00
	00 00		 lea	 rcx, OFFSET FLAT:??_C@_0BH@KDFMIKCD@teedataobject_traverse?$AA@
  000c9	45 33 c9	 xor	 r9d, r9d
  000cc	41 b8 d8 01 00
	00		 mov	 r8d, 472		; 000001d8H
  000d2	e8 00 00 00 00	 call	 _PyParallel_ContextGuardFailure
$LN3@teedataobj@4:
  000d7	48 8b 4e 70	 mov	 rcx, QWORD PTR [rsi+112]
  000db	48 85 c9	 test	 rcx, rcx
  000de	74 0a		 je	 SHORT $LN5@teedataobj@4
  000e0	48 8b d5	 mov	 rdx, rbp
  000e3	41 ff d4	 call	 r12
  000e6	85 c0		 test	 eax, eax
  000e8	75 02		 jne	 SHORT $LN29@teedataobj@4
$LN5@teedataobj@4:

; 473  :     return 0;

  000ea	33 c0		 xor	 eax, eax
$LN29@teedataobj@4:
  000ec	48 8b 5c 24 30	 mov	 rbx, QWORD PTR [rsp+48]
  000f1	48 8b 7c 24 38	 mov	 rdi, QWORD PTR [rsp+56]
$LN22@teedataobj@4:

; 474  : }

  000f6	48 8b 6c 24 40	 mov	 rbp, QWORD PTR [rsp+64]
  000fb	48 8b 74 24 48	 mov	 rsi, QWORD PTR [rsp+72]
  00100	48 83 c4 20	 add	 rsp, 32			; 00000020H
  00104	41 5c		 pop	 r12
  00106	c3		 ret	 0
teedataobject_traverse ENDP
_TEXT	ENDS
;	COMDAT pdata
; File c:\src\pyparallel\include\object.h
pdata	SEGMENT
$pdata$teedataobject_safe_decref DD imagerel teedataobject_safe_decref
	DD	imagerel teedataobject_safe_decref+14
	DD	imagerel $unwind$teedataobject_safe_decref
pdata	ENDS
;	COMDAT pdata
pdata	SEGMENT
$pdata$2$teedataobject_safe_decref DD imagerel teedataobject_safe_decref+14
	DD	imagerel teedataobject_safe_decref+309
	DD	imagerel $chain$2$teedataobject_safe_decref
pdata	ENDS
;	COMDAT pdata
pdata	SEGMENT
$pdata$3$teedataobject_safe_decref DD imagerel teedataobject_safe_decref+309
	DD	imagerel teedataobject_safe_decref+311
	DD	imagerel $chain$3$teedataobject_safe_decref
pdata	ENDS
;	COMDAT xdata
xdata	SEGMENT
$chain$3$teedataobject_safe_decref DD 021H
	DD	imagerel teedataobject_safe_decref
	DD	imagerel teedataobject_safe_decref+14
	DD	imagerel $unwind$teedataobject_safe_decref
xdata	ENDS
;	COMDAT xdata
xdata	SEGMENT
$chain$2$teedataobject_safe_decref DD 061921H
	DD	0a7419H
	DD	09640aH
	DD	085405H
	DD	imagerel teedataobject_safe_decref
	DD	imagerel teedataobject_safe_decref+14
	DD	imagerel $unwind$teedataobject_safe_decref
xdata	ENDS
;	COMDAT xdata
xdata	SEGMENT
$unwind$teedataobject_safe_decref DD 020e01H
	DD	0300a520eH
; Function compile flags: /Ogtpy
; File c:\src\pyparallel\modules\itertoolsmodule.c
xdata	ENDS
;	COMDAT teedataobject_safe_decref
_TEXT	SEGMENT
obj$ = 64
teedataobject_safe_decref PROC				; COMDAT

; 479  :     while (obj && Py_TYPE(obj) == &teedataobject_type &&
; 480  :            Py_REFCNT(obj) == 1) {

  00000	48 85 c9	 test	 rcx, rcx
  00003	0f 84 2c 01 00
	00		 je	 $LN36@teedataobj@5
  00009	53		 push	 rbx
  0000a	48 83 ec 30	 sub	 rsp, 48			; 00000030H
  0000e	48 89 6c 24 40	 mov	 QWORD PTR [rsp+64], rbp
  00013	48 89 74 24 48	 mov	 QWORD PTR [rsp+72], rsi

; 478  : {

  00018	48 8b d9	 mov	 rbx, rcx

; 479  :     while (obj && Py_TYPE(obj) == &teedataobject_type &&
; 480  :            Py_REFCNT(obj) == 1) {

  0001b	48 8d 35 00 00
	00 00		 lea	 rsi, OFFSET FLAT:teedataobject_type
  00022	48 89 7c 24 50	 mov	 QWORD PTR [rsp+80], rdi
  00027	33 ed		 xor	 ebp, ebp
  00029	0f 1f 80 00 00
	00 00		 npad	 7
$LL6@teedataobj@5:
  00030	48 39 73 58	 cmp	 QWORD PTR [rbx+88], rsi
  00034	0f 85 82 00 00
	00		 jne	 $LN4@teedataobj@5
  0003a	48 83 7b 50 01	 cmp	 QWORD PTR [rbx+80], 1
  0003f	75 7b		 jne	 SHORT $LN4@teedataobj@5

; 481  :         PyObject *nextlink = ((teedataobject *)obj)->nextlink;

  00041	48 8b 7b 70	 mov	 rdi, QWORD PTR [rbx+112]

; 482  :         ((teedataobject *)obj)->nextlink = NULL;

  00045	48 89 6b 70	 mov	 QWORD PTR [rbx+112], rbp

; 483  :         Py_DECREF(obj);

  00049	e8 00 00 00 00	 call	 _Py_PXCTX
  0004e	85 c0		 test	 eax, eax
  00050	75 5c		 jne	 SHORT $LN19@teedataobj@5
  00052	48 8b 43 20	 mov	 rax, QWORD PTR [rbx+32]
  00056	a8 20		 test	 al, 32			; 00000020H
  00058	75 4c		 jne	 SHORT $LN13@teedataobj@5
  0005a	84 c0		 test	 al, al
  0005c	78 48		 js	 SHORT $LN13@teedataobj@5
  0005e	a8 02		 test	 al, 2
  00060	75 4c		 jne	 SHORT $LN19@teedataobj@5
  00062	48 ff 4b 50	 dec	 QWORD PTR [rbx+80]
  00066	75 46		 jne	 SHORT $LN19@teedataobj@5
  00068	48 8d 15 00 00
	00 00		 lea	 rdx, OFFSET FLAT:??_C@_0CD@HDJFDCDP@c?3?2src?2pyparallel?2include?2object@
  0006f	48 8d 0d 00 00
	00 00		 lea	 rcx, OFFSET FLAT:??_C@_0L@DMHMLFIA@_Py_DecRef?$AA@
  00076	4c 8b cb	 mov	 r9, rbx
  00079	41 b8 a4 03 00
	00		 mov	 r8d, 932		; 000003a4H
  0007f	c7 44 24 20 10
	00 00 00	 mov	 DWORD PTR [rsp+32], 16
  00087	e8 00 00 00 00	 call	 _PyParallel_Guard
  0008c	48 8b cb	 mov	 rcx, rbx
  0008f	85 c0		 test	 eax, eax
  00091	74 07		 je	 SHORT $LN18@teedataobj@5
  00093	e8 00 00 00 00	 call	 _Px_Dealloc
  00098	eb 14		 jmp	 SHORT $LN19@teedataobj@5
$LN18@teedataobj@5:
  0009a	48 8b 43 58	 mov	 rax, QWORD PTR [rbx+88]
  0009e	ff 90 88 00 00
	00		 call	 QWORD PTR [rax+136]
  000a4	eb 08		 jmp	 SHORT $LN19@teedataobj@5
$LN13@teedataobj@5:
  000a6	48 8b cb	 mov	 rcx, rbx
  000a9	e8 00 00 00 00	 call	 Px_DecRef
$LN19@teedataobj@5:

; 484  :         obj = nextlink;

  000ae	48 8b df	 mov	 rbx, rdi
  000b1	48 85 ff	 test	 rdi, rdi
  000b4	0f 85 76 ff ff
	ff		 jne	 $LL6@teedataobj@5

; 485  :     }
; 486  :     Py_XDECREF(obj);

  000ba	eb 65		 jmp	 SHORT $LN35@teedataobj@5
$LN4@teedataobj@5:
  000bc	e8 00 00 00 00	 call	 _Py_PXCTX
  000c1	85 c0		 test	 eax, eax
  000c3	75 5c		 jne	 SHORT $LN35@teedataobj@5
  000c5	48 8b 43 20	 mov	 rax, QWORD PTR [rbx+32]
  000c9	a8 20		 test	 al, 32			; 00000020H
  000cb	75 4c		 jne	 SHORT $LN24@teedataobj@5
  000cd	84 c0		 test	 al, al
  000cf	78 48		 js	 SHORT $LN24@teedataobj@5
  000d1	a8 02		 test	 al, 2
  000d3	75 4c		 jne	 SHORT $LN35@teedataobj@5
  000d5	48 ff 4b 50	 dec	 QWORD PTR [rbx+80]
  000d9	75 46		 jne	 SHORT $LN35@teedataobj@5
  000db	48 8d 15 00 00
	00 00		 lea	 rdx, OFFSET FLAT:??_C@_0CD@HDJFDCDP@c?3?2src?2pyparallel?2include?2object@
  000e2	48 8d 0d 00 00
	00 00		 lea	 rcx, OFFSET FLAT:??_C@_0L@DMHMLFIA@_Py_DecRef?$AA@
  000e9	4c 8b cb	 mov	 r9, rbx
  000ec	41 b8 a4 03 00
	00		 mov	 r8d, 932		; 000003a4H
  000f2	c7 44 24 20 10
	00 00 00	 mov	 DWORD PTR [rsp+32], 16
  000fa	e8 00 00 00 00	 call	 _PyParallel_Guard
  000ff	48 8b cb	 mov	 rcx, rbx
  00102	85 c0		 test	 eax, eax
  00104	74 07		 je	 SHORT $LN29@teedataobj@5
  00106	e8 00 00 00 00	 call	 _Px_Dealloc
  0010b	eb 14		 jmp	 SHORT $LN35@teedataobj@5
$LN29@teedataobj@5:
  0010d	48 8b 43 58	 mov	 rax, QWORD PTR [rbx+88]
  00111	ff 90 88 00 00
	00		 call	 QWORD PTR [rax+136]
  00117	eb 08		 jmp	 SHORT $LN35@teedataobj@5
$LN24@teedataobj@5:
  00119	48 8b cb	 mov	 rcx, rbx
  0011c	e8 00 00 00 00	 call	 Px_DecRef
$LN35@teedataobj@5:
  00121	48 8b 7c 24 50	 mov	 rdi, QWORD PTR [rsp+80]
  00126	48 8b 6c 24 40	 mov	 rbp, QWORD PTR [rsp+64]
  0012b	48 8b 74 24 48	 mov	 rsi, QWORD PTR [rsp+72]

; 487  : }

  00130	48 83 c4 30	 add	 rsp, 48			; 00000030H
  00134	5b		 pop	 rbx
$LN36@teedataobj@5:
  00135	f3 c3		 fatret	 0
teedataobject_safe_decref ENDP
_TEXT	ENDS
PUBLIC	??_C@_0BE@FHHEMKKO@teedataobject_clear?$AA@	; `string'
;	COMDAT pdata
; File c:\src\pyparallel\include\object.h
pdata	SEGMENT
$pdata$teedataobject_clear DD imagerel teedataobject_clear
	DD	imagerel teedataobject_clear+199
	DD	imagerel $unwind$teedataobject_clear
pdata	ENDS
;	COMDAT pdata
pdata	SEGMENT
$pdata$0$teedataobject_clear DD imagerel teedataobject_clear+199
	DD	imagerel teedataobject_clear+384
	DD	imagerel $chain$0$teedataobject_clear
pdata	ENDS
;	COMDAT pdata
pdata	SEGMENT
$pdata$1$teedataobject_clear DD imagerel teedataobject_clear+384
	DD	imagerel teedataobject_clear+421
	DD	imagerel $chain$1$teedataobject_clear
pdata	ENDS
;	COMDAT xdata
xdata	SEGMENT
$chain$1$teedataobject_clear DD 021H
	DD	imagerel teedataobject_clear
	DD	imagerel teedataobject_clear+199
	DD	imagerel $unwind$teedataobject_clear
xdata	ENDS
;	COMDAT xdata
xdata	SEGMENT
$chain$0$teedataobject_clear DD 020521H
	DD	087405H
	DD	imagerel teedataobject_clear
	DD	imagerel teedataobject_clear+199
	DD	imagerel $unwind$teedataobject_clear
xdata	ENDS
;	COMDAT xdata
xdata	SEGMENT
$unwind$teedataobject_clear DD 081501H
	DD	0b6415H
	DD	0a5415H
	DD	093415H
	DD	0c0115215H
xdata	ENDS
;	COMDAT ??_C@_0BE@FHHEMKKO@teedataobject_clear?$AA@
CONST	SEGMENT
??_C@_0BE@FHHEMKKO@teedataobject_clear?$AA@ DB 'teedataobject_clear', 00H ; `string'
; Function compile flags: /Ogtpy
; File c:\src\pyparallel\modules\itertoolsmodule.c
CONST	ENDS
;	COMDAT teedataobject_clear
_TEXT	SEGMENT
tdo$ = 64
teedataobject_clear PROC				; COMDAT

; 491  : {

  00000	48 89 5c 24 10	 mov	 QWORD PTR [rsp+16], rbx
  00005	48 89 6c 24 18	 mov	 QWORD PTR [rsp+24], rbp
  0000a	48 89 74 24 20	 mov	 QWORD PTR [rsp+32], rsi
  0000f	41 54		 push	 r12
  00011	48 83 ec 30	 sub	 rsp, 48			; 00000030H

; 492  :     int i;
; 493  :     PyObject *tmp;
; 494  : 
; 495  :     Py_CLEAR(tdo->it);

  00015	4c 8b 49 60	 mov	 r9, QWORD PTR [rcx+96]
  00019	45 33 e4	 xor	 r12d, r12d
  0001c	48 8b e9	 mov	 rbp, rcx
  0001f	4d 85 c9	 test	 r9, r9
  00022	0f 84 92 00 00
	00		 je	 $LN10@teedataobj@6
  00028	48 8d 15 00 00
	00 00		 lea	 rdx, OFFSET FLAT:??_C@_0BN@PMILGFFG@?4?4?2Modules?2itertoolsmodule?4c?$AA@
  0002f	48 8d 0d 00 00
	00 00		 lea	 rcx, OFFSET FLAT:??_C@_0BE@FHHEMKKO@teedataobject_clear?$AA@
  00036	41 b8 ef 01 00
	00		 mov	 r8d, 495		; 000001efH
  0003c	c7 44 24 20 10
	00 00 00	 mov	 DWORD PTR [rsp+32], 16
  00044	e8 00 00 00 00	 call	 _PyParallel_Guard
  00049	85 c0		 test	 eax, eax
  0004b	75 6d		 jne	 SHORT $LN10@teedataobj@6
  0004d	48 8b 5d 60	 mov	 rbx, QWORD PTR [rbp+96]
  00051	4c 89 65 60	 mov	 QWORD PTR [rbp+96], r12
  00055	e8 00 00 00 00	 call	 _Py_PXCTX
  0005a	85 c0		 test	 eax, eax
  0005c	75 5c		 jne	 SHORT $LN10@teedataobj@6
  0005e	48 8b 43 20	 mov	 rax, QWORD PTR [rbx+32]
  00062	a8 20		 test	 al, 32			; 00000020H
  00064	75 4c		 jne	 SHORT $LN18@teedataobj@6
  00066	84 c0		 test	 al, al
  00068	78 48		 js	 SHORT $LN18@teedataobj@6
  0006a	a8 02		 test	 al, 2
  0006c	75 4c		 jne	 SHORT $LN10@teedataobj@6
  0006e	48 ff 4b 50	 dec	 QWORD PTR [rbx+80]
  00072	75 46		 jne	 SHORT $LN10@teedataobj@6
  00074	48 8d 15 00 00
	00 00		 lea	 rdx, OFFSET FLAT:??_C@_0CD@HDJFDCDP@c?3?2src?2pyparallel?2include?2object@
  0007b	48 8d 0d 00 00
	00 00		 lea	 rcx, OFFSET FLAT:??_C@_0L@DMHMLFIA@_Py_DecRef?$AA@
  00082	4c 8b cb	 mov	 r9, rbx
  00085	41 b8 a4 03 00
	00		 mov	 r8d, 932		; 000003a4H
  0008b	c7 44 24 20 10
	00 00 00	 mov	 DWORD PTR [rsp+32], 16
  00093	e8 00 00 00 00	 call	 _PyParallel_Guard
  00098	48 8b cb	 mov	 rcx, rbx
  0009b	85 c0		 test	 eax, eax
  0009d	74 07		 je	 SHORT $LN23@teedataobj@6
  0009f	e8 00 00 00 00	 call	 _Px_Dealloc
  000a4	eb 14		 jmp	 SHORT $LN10@teedataobj@6
$LN23@teedataobj@6:
  000a6	48 8b 43 58	 mov	 rax, QWORD PTR [rbx+88]
  000aa	ff 90 88 00 00
	00		 call	 QWORD PTR [rax+136]
  000b0	eb 08		 jmp	 SHORT $LN10@teedataobj@6
$LN18@teedataobj@6:
  000b2	48 8b cb	 mov	 rcx, rbx
  000b5	e8 00 00 00 00	 call	 Px_DecRef
$LN10@teedataobj@6:

; 496  :     for (i=0 ; i<tdo->numread ; i++)

  000ba	41 8b f4	 mov	 esi, r12d
  000bd	44 39 65 68	 cmp	 DWORD PTR [rbp+104], r12d
  000c1	0f 8e b9 00 00
	00		 jle	 $LN5@teedataobj@6
  000c7	48 89 7c 24 40	 mov	 QWORD PTR [rsp+64], rdi
  000cc	48 8d 7d 78	 lea	 rdi, QWORD PTR [rbp+120]
$LL7@teedataobj@6:

; 497  :         Py_CLEAR(tdo->values[i]);

  000d0	4c 8b 0f	 mov	 r9, QWORD PTR [rdi]
  000d3	4d 85 c9	 test	 r9, r9
  000d6	0f 84 90 00 00
	00		 je	 $LN3@teedataobj@6
  000dc	48 8d 15 00 00
	00 00		 lea	 rdx, OFFSET FLAT:??_C@_0BN@PMILGFFG@?4?4?2Modules?2itertoolsmodule?4c?$AA@
  000e3	48 8d 0d 00 00
	00 00		 lea	 rcx, OFFSET FLAT:??_C@_0BE@FHHEMKKO@teedataobject_clear?$AA@
  000ea	41 b8 f1 01 00
	00		 mov	 r8d, 497		; 000001f1H
  000f0	c7 44 24 20 10
	00 00 00	 mov	 DWORD PTR [rsp+32], 16
  000f8	e8 00 00 00 00	 call	 _PyParallel_Guard
  000fd	85 c0		 test	 eax, eax
  000ff	75 6b		 jne	 SHORT $LN3@teedataobj@6
  00101	48 8b 1f	 mov	 rbx, QWORD PTR [rdi]
  00104	4c 89 27	 mov	 QWORD PTR [rdi], r12
  00107	e8 00 00 00 00	 call	 _Py_PXCTX
  0010c	85 c0		 test	 eax, eax
  0010e	75 5c		 jne	 SHORT $LN3@teedataobj@6
  00110	48 8b 43 20	 mov	 rax, QWORD PTR [rbx+32]
  00114	a8 20		 test	 al, 32			; 00000020H
  00116	75 4c		 jne	 SHORT $LN29@teedataobj@6
  00118	84 c0		 test	 al, al
  0011a	78 48		 js	 SHORT $LN29@teedataobj@6
  0011c	a8 02		 test	 al, 2
  0011e	75 4c		 jne	 SHORT $LN3@teedataobj@6
  00120	48 ff 4b 50	 dec	 QWORD PTR [rbx+80]
  00124	75 46		 jne	 SHORT $LN3@teedataobj@6
  00126	48 8d 15 00 00
	00 00		 lea	 rdx, OFFSET FLAT:??_C@_0CD@HDJFDCDP@c?3?2src?2pyparallel?2include?2object@
  0012d	48 8d 0d 00 00
	00 00		 lea	 rcx, OFFSET FLAT:??_C@_0L@DMHMLFIA@_Py_DecRef?$AA@
  00134	4c 8b cb	 mov	 r9, rbx
  00137	41 b8 a4 03 00
	00		 mov	 r8d, 932		; 000003a4H
  0013d	c7 44 24 20 10
	00 00 00	 mov	 DWORD PTR [rsp+32], 16
  00145	e8 00 00 00 00	 call	 _PyParallel_Guard
  0014a	48 8b cb	 mov	 rcx, rbx
  0014d	85 c0		 test	 eax, eax
  0014f	74 07		 je	 SHORT $LN34@teedataobj@6
  00151	e8 00 00 00 00	 call	 _Px_Dealloc
  00156	eb 14		 jmp	 SHORT $LN3@teedataobj@6
$LN34@teedataobj@6:
  00158	48 8b 43 58	 mov	 rax, QWORD PTR [rbx+88]
  0015c	ff 90 88 00 00
	00		 call	 QWORD PTR [rax+136]
  00162	eb 08		 jmp	 SHORT $LN3@teedataobj@6
$LN29@teedataobj@6:
  00164	48 8b cb	 mov	 rcx, rbx
  00167	e8 00 00 00 00	 call	 Px_DecRef
$LN3@teedataobj@6:

; 496  :     for (i=0 ; i<tdo->numread ; i++)

  0016c	ff c6		 inc	 esi
  0016e	48 83 c7 08	 add	 rdi, 8
  00172	3b 75 68	 cmp	 esi, DWORD PTR [rbp+104]
  00175	0f 8c 55 ff ff
	ff		 jl	 $LL7@teedataobj@6
  0017b	48 8b 7c 24 40	 mov	 rdi, QWORD PTR [rsp+64]
$LN5@teedataobj@6:

; 498  :     tmp = tdo->nextlink;

  00180	48 8b 4d 70	 mov	 rcx, QWORD PTR [rbp+112]

; 499  :     tdo->nextlink = NULL;

  00184	4c 89 65 70	 mov	 QWORD PTR [rbp+112], r12

; 500  :     teedataobject_safe_decref(tmp);

  00188	e8 00 00 00 00	 call	 teedataobject_safe_decref

; 501  :     return 0;
; 502  : }

  0018d	48 8b 5c 24 48	 mov	 rbx, QWORD PTR [rsp+72]
  00192	48 8b 6c 24 50	 mov	 rbp, QWORD PTR [rsp+80]
  00197	48 8b 74 24 58	 mov	 rsi, QWORD PTR [rsp+88]
  0019c	33 c0		 xor	 eax, eax
  0019e	48 83 c4 30	 add	 rsp, 48			; 00000030H
  001a2	41 5c		 pop	 r12
  001a4	c3		 ret	 0
teedataobject_clear ENDP
_TEXT	ENDS
;	COMDAT pdata
pdata	SEGMENT
$pdata$teedataobject_dealloc DD imagerel teedataobject_dealloc
	DD	imagerel teedataobject_dealloc+35
	DD	imagerel $unwind$teedataobject_dealloc
pdata	ENDS
;	COMDAT xdata
xdata	SEGMENT
$unwind$teedataobject_dealloc DD 020601H
	DD	030023206H
; Function compile flags: /Ogtpy
xdata	ENDS
;	COMDAT teedataobject_dealloc
_TEXT	SEGMENT
tdo$ = 48
teedataobject_dealloc PROC				; COMDAT

; 506  : {

  00000	40 53		 push	 rbx
  00002	48 83 ec 20	 sub	 rsp, 32			; 00000020H
  00006	48 8b d9	 mov	 rbx, rcx

; 507  :     PyObject_GC_UnTrack(tdo);

  00009	e8 00 00 00 00	 call	 PyObject_GC_UnTrack

; 508  :     teedataobject_clear(tdo);

  0000e	48 8b cb	 mov	 rcx, rbx
  00011	e8 00 00 00 00	 call	 teedataobject_clear

; 509  :     PyObject_GC_Del(tdo);

  00016	48 8b cb	 mov	 rcx, rbx

; 510  : }

  00019	48 83 c4 20	 add	 rsp, 32			; 00000020H
  0001d	5b		 pop	 rbx
  0001e	e9 00 00 00 00	 jmp	 PyObject_GC_Del
teedataobject_dealloc ENDP
_TEXT	ENDS
PUBLIC	??_C@_06KFMHBHMK@O?$CIONO?$CJ?$AA@		; `string'
EXTRN	PyList_New:PROC
;	COMDAT pdata
; File c:\src\pyparallel\include\object.h
pdata	SEGMENT
$pdata$teedataobject_reduce DD imagerel teedataobject_reduce
	DD	imagerel teedataobject_reduce+52
	DD	imagerel $unwind$teedataobject_reduce
pdata	ENDS
;	COMDAT pdata
pdata	SEGMENT
$pdata$3$teedataobject_reduce DD imagerel teedataobject_reduce+52
	DD	imagerel teedataobject_reduce+186
	DD	imagerel $chain$3$teedataobject_reduce
pdata	ENDS
;	COMDAT pdata
pdata	SEGMENT
$pdata$4$teedataobject_reduce DD imagerel teedataobject_reduce+186
	DD	imagerel teedataobject_reduce+245
	DD	imagerel $chain$4$teedataobject_reduce
pdata	ENDS
;	COMDAT xdata
xdata	SEGMENT
$chain$4$teedataobject_reduce DD 021H
	DD	imagerel teedataobject_reduce
	DD	imagerel teedataobject_reduce+52
	DD	imagerel $unwind$teedataobject_reduce
xdata	ENDS
;	COMDAT xdata
xdata	SEGMENT
$chain$3$teedataobject_reduce DD 060f21H
	DD	06d40fH
	DD	0c740aH
	DD	0a3405H
	DD	imagerel teedataobject_reduce
	DD	imagerel teedataobject_reduce+52
	DD	imagerel $unwind$teedataobject_reduce
xdata	ENDS
;	COMDAT xdata
xdata	SEGMENT
$unwind$teedataobject_reduce DD 052901H
	DD	0b5429H
	DD	0c0046208H
	DD	06002H
xdata	ENDS
;	COMDAT ??_C@_06KFMHBHMK@O?$CIONO?$CJ?$AA@
CONST	SEGMENT
??_C@_06KFMHBHMK@O?$CIONO?$CJ?$AA@ DB 'O(ONO)', 00H	; `string'
; Function compile flags: /Ogtpy
; File c:\src\pyparallel\modules\itertoolsmodule.c
CONST	ENDS
;	COMDAT teedataobject_reduce
_TEXT	SEGMENT
tdo$ = 80
teedataobject_reduce PROC				; COMDAT

; 514  : {

  00000	40 56		 push	 rsi
  00002	41 54		 push	 r12
  00004	48 83 ec 38	 sub	 rsp, 56			; 00000038H
  00008	48 8b f1	 mov	 rsi, rcx

; 515  :     int i;
; 516  :     /* create a temporary list of already iterated values */
; 517  :     PyObject *values = PyList_New(tdo->numread);

  0000b	48 63 49 68	 movsxd	 rcx, DWORD PTR [rcx+104]
  0000f	e8 00 00 00 00	 call	 PyList_New
  00014	4c 8b e0	 mov	 r12, rax

; 518  :     if (!values)

  00017	48 85 c0	 test	 rax, rax
  0001a	75 08		 jne	 SHORT $LN4@teedataobj@7

; 527  : }

  0001c	48 83 c4 38	 add	 rsp, 56			; 00000038H
  00020	41 5c		 pop	 r12
  00022	5e		 pop	 rsi
  00023	c3		 ret	 0
$LN4@teedataobj@7:
  00024	48 89 6c 24 58	 mov	 QWORD PTR [rsp+88], rbp

; 519  :         return NULL;
; 520  :     for (i=0 ; i<tdo->numread ; i++) {

  00029	33 ed		 xor	 ebp, ebp
  0002b	39 6e 68	 cmp	 DWORD PTR [rsi+104], ebp
  0002e	0f 8e 86 00 00
	00		 jle	 $LN1@teedataobj@7
  00034	48 89 5c 24 50	 mov	 QWORD PTR [rsp+80], rbx
  00039	48 89 7c 24 60	 mov	 QWORD PTR [rsp+96], rdi
  0003e	4c 89 6c 24 30	 mov	 QWORD PTR [rsp+48], r13
  00043	49 c7 c5 88 ff
	ff ff		 mov	 r13, -120		; ffffffffffffff88H
  0004a	48 8d 7e 78	 lea	 rdi, QWORD PTR [rsi+120]
  0004e	4c 2b ee	 sub	 r13, rsi
$LL3@teedataobj@7:

; 521  :         Py_INCREF(tdo->values[i]);

  00051	48 8b 1f	 mov	 rbx, QWORD PTR [rdi]
  00054	e8 00 00 00 00	 call	 _Py_PXCTX
  00059	85 c0		 test	 eax, eax
  0005b	75 32		 jne	 SHORT $LN10@teedataobj@7
  0005d	48 8d 15 00 00
	00 00		 lea	 rdx, OFFSET FLAT:??_C@_0CD@HDJFDCDP@c?3?2src?2pyparallel?2include?2object@
  00064	48 8d 0d 00 00
	00 00		 lea	 rcx, OFFSET FLAT:??_C@_0L@DHGMCEID@_Py_IncRef?$AA@
  0006b	4c 8b cb	 mov	 r9, rbx
  0006e	41 b8 89 03 00
	00		 mov	 r8d, 905		; 00000389H
  00074	c7 44 24 20 02
	00 00 00	 mov	 DWORD PTR [rsp+32], 2
  0007c	e8 00 00 00 00	 call	 _PyParallel_Guard
  00081	85 c0		 test	 eax, eax
  00083	75 06		 jne	 SHORT $LN9@teedataobj@7
  00085	f6 43 20 20	 test	 BYTE PTR [rbx+32], 32	; 00000020H
  00089	74 04		 je	 SHORT $LN10@teedataobj@7
$LN9@teedataobj@7:
  0008b	48 ff 43 50	 inc	 QWORD PTR [rbx+80]
$LN10@teedataobj@7:

; 522  :         PyList_SET_ITEM(values, i, tdo->values[i]);

  0008f	48 8b 07	 mov	 rax, QWORD PTR [rdi]
  00092	49 8b 4c 24 70	 mov	 rcx, QWORD PTR [r12+112]
  00097	49 8d 54 3d 00	 lea	 rdx, QWORD PTR [r13+rdi]
  0009c	ff c5		 inc	 ebp
  0009e	48 83 c7 08	 add	 rdi, 8
  000a2	48 89 04 0a	 mov	 QWORD PTR [rdx+rcx], rax
  000a6	3b 6e 68	 cmp	 ebp, DWORD PTR [rsi+104]
  000a9	7c a6		 jl	 SHORT $LL3@teedataobj@7
  000ab	4c 8b 6c 24 30	 mov	 r13, QWORD PTR [rsp+48]
  000b0	48 8b 7c 24 60	 mov	 rdi, QWORD PTR [rsp+96]
  000b5	48 8b 5c 24 50	 mov	 rbx, QWORD PTR [rsp+80]
$LN1@teedataobj@7:

; 523  :     }
; 524  :     return Py_BuildValue("O(ONO)", Py_TYPE(tdo), tdo->it,
; 525  :                          values,
; 526  :                          tdo->nextlink ? tdo->nextlink : Py_None);

  000ba	48 8b 46 70	 mov	 rax, QWORD PTR [rsi+112]
  000be	4c 8b 46 60	 mov	 r8, QWORD PTR [rsi+96]
  000c2	48 8b 56 58	 mov	 rdx, QWORD PTR [rsi+88]
  000c6	48 85 c0	 test	 rax, rax
  000c9	48 8d 0d 00 00
	00 00		 lea	 rcx, OFFSET FLAT:_Py_NoneStruct
  000d0	4d 8b cc	 mov	 r9, r12
  000d3	48 0f 45 c8	 cmovne	 rcx, rax
  000d7	48 89 4c 24 20	 mov	 QWORD PTR [rsp+32], rcx
  000dc	48 8d 0d 00 00
	00 00		 lea	 rcx, OFFSET FLAT:??_C@_06KFMHBHMK@O?$CIONO?$CJ?$AA@
  000e3	e8 00 00 00 00	 call	 Py_BuildValue
  000e8	48 8b 6c 24 58	 mov	 rbp, QWORD PTR [rsp+88]

; 527  : }

  000ed	48 83 c4 38	 add	 rsp, 56			; 00000038H
  000f1	41 5c		 pop	 r12
  000f3	5e		 pop	 rsi
  000f4	c3		 ret	 0
teedataobject_reduce ENDP
_TEXT	ENDS
PUBLIC	??_C@_0BC@PALKPJEA@Invalid?5arguments?$AA@	; `string'
PUBLIC	??_C@_04GOGHPAAM@OO?$CBO?$AA@			; `string'
EXTRN	PyErr_SetString:PROC
EXTRN	PyExc_ValueError:QWORD
EXTRN	PyList_Type:BYTE
;	COMDAT pdata
; File c:\src\pyparallel\include\object.h
pdata	SEGMENT
$pdata$teedataobject_new DD imagerel teedataobject_new
	DD	imagerel teedataobject_new+70
	DD	imagerel $unwind$teedataobject_new
pdata	ENDS
;	COMDAT pdata
pdata	SEGMENT
$pdata$0$teedataobject_new DD imagerel teedataobject_new+70
	DD	imagerel teedataobject_new+98
	DD	imagerel $chain$0$teedataobject_new
pdata	ENDS
;	COMDAT pdata
pdata	SEGMENT
$pdata$3$teedataobject_new DD imagerel teedataobject_new+98
	DD	imagerel teedataobject_new+122
	DD	imagerel $chain$3$teedataobject_new
pdata	ENDS
;	COMDAT pdata
pdata	SEGMENT
$pdata$4$teedataobject_new DD imagerel teedataobject_new+122
	DD	imagerel teedataobject_new+134
	DD	imagerel $chain$4$teedataobject_new
pdata	ENDS
;	COMDAT pdata
pdata	SEGMENT
$pdata$5$teedataobject_new DD imagerel teedataobject_new+134
	DD	imagerel teedataobject_new+236
	DD	imagerel $chain$5$teedataobject_new
pdata	ENDS
;	COMDAT pdata
pdata	SEGMENT
$pdata$6$teedataobject_new DD imagerel teedataobject_new+236
	DD	imagerel teedataobject_new+257
	DD	imagerel $chain$6$teedataobject_new
pdata	ENDS
;	COMDAT pdata
pdata	SEGMENT
$pdata$7$teedataobject_new DD imagerel teedataobject_new+257
	DD	imagerel teedataobject_new+312
	DD	imagerel $chain$7$teedataobject_new
pdata	ENDS
;	COMDAT pdata
pdata	SEGMENT
$pdata$9$teedataobject_new DD imagerel teedataobject_new+312
	DD	imagerel teedataobject_new+337
	DD	imagerel $chain$9$teedataobject_new
pdata	ENDS
;	COMDAT pdata
pdata	SEGMENT
$pdata$11$teedataobject_new DD imagerel teedataobject_new+337
	DD	imagerel teedataobject_new+381
	DD	imagerel $chain$11$teedataobject_new
pdata	ENDS
;	COMDAT xdata
xdata	SEGMENT
$chain$11$teedataobject_new DD 040021H
	DD	0c6400H
	DD	0b5400H
	DD	imagerel teedataobject_new
	DD	imagerel teedataobject_new+70
	DD	imagerel $unwind$teedataobject_new
xdata	ENDS
;	COMDAT xdata
xdata	SEGMENT
$chain$9$teedataobject_new DD 040021H
	DD	0c6400H
	DD	0b5400H
	DD	imagerel teedataobject_new
	DD	imagerel teedataobject_new+70
	DD	imagerel $unwind$teedataobject_new
xdata	ENDS
;	COMDAT xdata
xdata	SEGMENT
$chain$7$teedataobject_new DD 021H
	DD	imagerel teedataobject_new+98
	DD	imagerel teedataobject_new+122
	DD	imagerel $chain$3$teedataobject_new
xdata	ENDS
;	COMDAT xdata
xdata	SEGMENT
$chain$6$teedataobject_new DD 021H
	DD	imagerel teedataobject_new+122
	DD	imagerel teedataobject_new+134
	DD	imagerel $chain$4$teedataobject_new
xdata	ENDS
;	COMDAT xdata
xdata	SEGMENT
$chain$5$teedataobject_new DD 020521H
	DD	087405H
	DD	imagerel teedataobject_new+122
	DD	imagerel teedataobject_new+134
	DD	imagerel $chain$4$teedataobject_new
xdata	ENDS
;	COMDAT xdata
xdata	SEGMENT
$chain$4$teedataobject_new DD 020521H
	DD	0a3405H
	DD	imagerel teedataobject_new+98
	DD	imagerel teedataobject_new+122
	DD	imagerel $chain$3$teedataobject_new
xdata	ENDS
;	COMDAT xdata
xdata	SEGMENT
$chain$3$teedataobject_new DD 040a21H
	DD	0c640aH
	DD	0b5400H
	DD	imagerel teedataobject_new
	DD	imagerel teedataobject_new+70
	DD	imagerel $unwind$teedataobject_new
xdata	ENDS
;	COMDAT xdata
xdata	SEGMENT
$chain$0$teedataobject_new DD 020521H
	DD	0b5405H
	DD	imagerel teedataobject_new
	DD	imagerel teedataobject_new+70
	DD	imagerel $unwind$teedataobject_new
xdata	ENDS
;	COMDAT xdata
xdata	SEGMENT
$unwind$teedataobject_new DD 010401H
	DD	08204H
xdata	ENDS
;	COMDAT ??_C@_0BC@PALKPJEA@Invalid?5arguments?$AA@
CONST	SEGMENT
??_C@_0BC@PALKPJEA@Invalid?5arguments?$AA@ DB 'Invalid arguments', 00H ; `string'
CONST	ENDS
;	COMDAT ??_C@_04GOGHPAAM@OO?$CBO?$AA@
CONST	SEGMENT
??_C@_04GOGHPAAM@OO?$CBO?$AA@ DB 'OO!O', 00H		; `string'
; Function compile flags: /Ogtpy
; File c:\src\pyparallel\modules\itertoolsmodule.c
CONST	ENDS
;	COMDAT teedataobject_new
_TEXT	SEGMENT
values$ = 48
it$ = 56
type$ = 80
args$ = 88
kw$ = 96
next$ = 104
teedataobject_new PROC					; COMDAT

; 533  : {

  00000	48 83 ec 48	 sub	 rsp, 72			; 00000048H
  00004	48 8b c2	 mov	 rax, rdx

; 534  :     teedataobject *tdo;
; 535  :     PyObject *it, *values, *next;
; 536  :     Py_ssize_t i, len;
; 537  : 
; 538  :     assert(type == &teedataobject_type);
; 539  :     if (!PyArg_ParseTuple(args, "OO!O", &it, &PyList_Type, &values, &next))

  00007	48 8d 4c 24 68	 lea	 rcx, QWORD PTR next$[rsp]
  0000c	4c 8d 0d 00 00
	00 00		 lea	 r9, OFFSET FLAT:PyList_Type
  00013	48 89 4c 24 28	 mov	 QWORD PTR [rsp+40], rcx
  00018	48 8d 4c 24 30	 lea	 rcx, QWORD PTR values$[rsp]
  0001d	4c 8d 44 24 38	 lea	 r8, QWORD PTR it$[rsp]
  00022	48 89 4c 24 20	 mov	 QWORD PTR [rsp+32], rcx
  00027	48 8d 15 00 00
	00 00		 lea	 rdx, OFFSET FLAT:??_C@_04GOGHPAAM@OO?$CBO?$AA@
  0002e	48 8b c8	 mov	 rcx, rax
  00031	e8 00 00 00 00	 call	 PyArg_ParseTuple
  00036	85 c0		 test	 eax, eax
  00038	75 07		 jne	 SHORT $LN15@teedataobj@8

; 540  :         return NULL;

  0003a	33 c0		 xor	 eax, eax

; 574  : }

  0003c	48 83 c4 48	 add	 rsp, 72			; 00000048H
  00040	c3		 ret	 0
$LN15@teedataobj@8:

; 541  : 
; 542  :     tdo = (teedataobject *)teedataobject_newinternal(it);

  00041	48 8b 4c 24 38	 mov	 rcx, QWORD PTR it$[rsp]
  00046	48 89 6c 24 58	 mov	 QWORD PTR [rsp+88], rbp
  0004b	e8 00 00 00 00	 call	 teedataobject_newinternal
  00050	48 8b e8	 mov	 rbp, rax

; 543  :     if (!tdo)

  00053	48 85 c0	 test	 rax, rax
  00056	75 0a		 jne	 SHORT $LN14@teedataobj@8
  00058	48 8b 6c 24 58	 mov	 rbp, QWORD PTR [rsp+88]

; 574  : }

  0005d	48 83 c4 48	 add	 rsp, 72			; 00000048H
  00061	c3		 ret	 0
$LN14@teedataobj@8:

; 544  :         return NULL;
; 545  : 
; 546  :     len = PyList_GET_SIZE(values);

  00062	48 8b 44 24 30	 mov	 rax, QWORD PTR values$[rsp]
  00067	48 89 74 24 60	 mov	 QWORD PTR [rsp+96], rsi
  0006c	48 8b 70 60	 mov	 rsi, QWORD PTR [rax+96]

; 547  :     if (len > LINKCELLS)

  00070	48 83 fe 39	 cmp	 rsi, 57			; 00000039H
  00074	0f 8f d7 00 00
	00		 jg	 $err$20784

; 548  :         goto err;
; 549  :     for (i=0; i<len; i++) {

  0007a	48 89 5c 24 50	 mov	 QWORD PTR [rsp+80], rbx
  0007f	33 db		 xor	 ebx, ebx
  00081	48 85 f6	 test	 rsi, rsi
  00084	7e 66		 jle	 SHORT $LN27@teedataobj@8
  00086	48 89 7c 24 40	 mov	 QWORD PTR [rsp+64], rdi
  0008b	0f 1f 44 00 00	 npad	 5
$LL12@teedataobj@8:

; 550  :         tdo->values[i] = PyList_GET_ITEM(values, i);

  00090	48 8b 40 70	 mov	 rax, QWORD PTR [rax+112]
  00094	48 8b 3c d8	 mov	 rdi, QWORD PTR [rax+rbx*8]
  00098	48 89 7c dd 78	 mov	 QWORD PTR [rbp+rbx*8+120], rdi

; 551  :         Py_INCREF(tdo->values[i]);

  0009d	e8 00 00 00 00	 call	 _Py_PXCTX
  000a2	85 c0		 test	 eax, eax
  000a4	75 32		 jne	 SHORT $LN11@teedataobj@8
  000a6	48 8d 15 00 00
	00 00		 lea	 rdx, OFFSET FLAT:??_C@_0CD@HDJFDCDP@c?3?2src?2pyparallel?2include?2object@
  000ad	48 8d 0d 00 00
	00 00		 lea	 rcx, OFFSET FLAT:??_C@_0L@DHGMCEID@_Py_IncRef?$AA@
  000b4	4c 8b cf	 mov	 r9, rdi
  000b7	41 b8 89 03 00
	00		 mov	 r8d, 905		; 00000389H
  000bd	c7 44 24 20 02
	00 00 00	 mov	 DWORD PTR [rsp+32], 2
  000c5	e8 00 00 00 00	 call	 _PyParallel_Guard
  000ca	85 c0		 test	 eax, eax
  000cc	75 06		 jne	 SHORT $LN18@teedataobj@8
  000ce	f6 47 20 20	 test	 BYTE PTR [rdi+32], 32	; 00000020H
  000d2	74 04		 je	 SHORT $LN11@teedataobj@8
$LN18@teedataobj@8:
  000d4	48 ff 47 50	 inc	 QWORD PTR [rdi+80]
$LN11@teedataobj@8:

; 548  :         goto err;
; 549  :     for (i=0; i<len; i++) {

  000d8	48 ff c3	 inc	 rbx
  000db	48 3b de	 cmp	 rbx, rsi
  000de	7d 07		 jge	 SHORT $LN30@teedataobj@8
  000e0	48 8b 44 24 30	 mov	 rax, QWORD PTR values$[rsp]
  000e5	eb a9		 jmp	 SHORT $LL12@teedataobj@8
$LN30@teedataobj@8:
  000e7	48 8b 7c 24 40	 mov	 rdi, QWORD PTR [rsp+64]
$LN27@teedataobj@8:
  000ec	48 8b 5c 24 50	 mov	 rbx, QWORD PTR [rsp+80]

; 552  :     }
; 553  :     /* len <= LINKCELLS < INT_MAX */
; 554  :     tdo->numread = Py_SAFE_DOWNCAST(len, Py_ssize_t, int);

  000f1	89 75 68	 mov	 DWORD PTR [rbp+104], esi

; 555  : 
; 556  :     if (len == LINKCELLS) {
; 557  :         if (next != Py_None) {

  000f4	48 8d 05 00 00
	00 00		 lea	 rax, OFFSET FLAT:_Py_NoneStruct
  000fb	48 83 fe 39	 cmp	 rsi, 57			; 00000039H
  000ff	75 37		 jne	 SHORT $LN9@teedataobj@8
  00101	48 8b 4c 24 68	 mov	 rcx, QWORD PTR next$[rsp]
  00106	48 3b c8	 cmp	 rcx, rax
  00109	74 34		 je	 SHORT $LN5@teedataobj@8

; 558  :             if (Py_TYPE(next) != &teedataobject_type)

  0010b	48 8d 05 00 00
	00 00		 lea	 rax, OFFSET FLAT:teedataobject_type
  00112	48 39 41 58	 cmp	 QWORD PTR [rcx+88], rax
  00116	75 39		 jne	 SHORT $err$20784

; 559  :                 goto err;
; 560  :             assert(tdo->nextlink == NULL);
; 561  :             Py_INCREF(next);

  00118	e8 00 00 00 00	 call	 _Py_IncRef

; 562  :             tdo->nextlink = next;

  0011d	4c 8b 5c 24 68	 mov	 r11, QWORD PTR next$[rsp]
  00122	48 8b 74 24 60	 mov	 rsi, QWORD PTR [rsp+96]
  00127	4c 89 5d 70	 mov	 QWORD PTR [rbp+112], r11

; 566  :             goto err; /* shouldn't have a next if we are not full */
; 567  :     }
; 568  :     return (PyObject*)tdo;

  0012b	48 8b c5	 mov	 rax, rbp
  0012e	48 8b 6c 24 58	 mov	 rbp, QWORD PTR [rsp+88]

; 574  : }

  00133	48 83 c4 48	 add	 rsp, 72			; 00000048H
  00137	c3		 ret	 0
$LN9@teedataobj@8:

; 563  :         }
; 564  :     } else {
; 565  :         if (next != Py_None)

  00138	48 39 44 24 68	 cmp	 QWORD PTR next$[rsp], rax
  0013d	75 12		 jne	 SHORT $err$20784
$LN5@teedataobj@8:
  0013f	48 8b 74 24 60	 mov	 rsi, QWORD PTR [rsp+96]

; 566  :             goto err; /* shouldn't have a next if we are not full */
; 567  :     }
; 568  :     return (PyObject*)tdo;

  00144	48 8b c5	 mov	 rax, rbp
  00147	48 8b 6c 24 58	 mov	 rbp, QWORD PTR [rsp+88]

; 574  : }

  0014c	48 83 c4 48	 add	 rsp, 72			; 00000048H
  00150	c3		 ret	 0
$err$20784:

; 569  : 
; 570  : err:
; 571  :     Py_XDECREF(tdo);

  00151	48 8b cd	 mov	 rcx, rbp
  00154	e8 00 00 00 00	 call	 _Py_DecRef

; 572  :     PyErr_SetString(PyExc_ValueError, "Invalid arguments");

  00159	48 8b 0d 00 00
	00 00		 mov	 rcx, QWORD PTR PyExc_ValueError
  00160	48 8d 15 00 00
	00 00		 lea	 rdx, OFFSET FLAT:??_C@_0BC@PALKPJEA@Invalid?5arguments?$AA@
  00167	e8 00 00 00 00	 call	 PyErr_SetString
  0016c	48 8b 74 24 60	 mov	 rsi, QWORD PTR [rsp+96]
  00171	48 8b 6c 24 58	 mov	 rbp, QWORD PTR [rsp+88]

; 573  :     return NULL;

  00176	33 c0		 xor	 eax, eax

; 574  : }

  00178	48 83 c4 48	 add	 rsp, 72			; 00000048H
  0017c	c3		 ret	 0
teedataobject_new ENDP
_TEXT	ENDS
;	COMDAT pdata
pdata	SEGMENT
$pdata$tee_next DD imagerel tee_next
	DD	imagerel tee_next+100
	DD	imagerel $unwind$tee_next
pdata	ENDS
;	COMDAT xdata
xdata	SEGMENT
$unwind$tee_next DD 040a01H
	DD	06340aH
	DD	07006320aH
; Function compile flags: /Ogtpy
xdata	ENDS
;	COMDAT tee_next
_TEXT	SEGMENT
to$ = 48
tee_next PROC						; COMDAT

; 632  : {

  00000	48 89 5c 24 08	 mov	 QWORD PTR [rsp+8], rbx
  00005	57		 push	 rdi
  00006	48 83 ec 20	 sub	 rsp, 32			; 00000020H

; 633  :     PyObject *value, *link;
; 634  : 
; 635  :     if (to->index >= LINKCELLS) {

  0000a	83 79 68 39	 cmp	 DWORD PTR [rcx+104], 57	; 00000039H
  0000e	48 8b d9	 mov	 rbx, rcx
  00011	7c 32		 jl	 SHORT $LN3@tee_next

; 636  :         link = teedataobject_jumplink(to->dataobj);

  00013	48 8b 49 60	 mov	 rcx, QWORD PTR [rcx+96]
  00017	e8 00 00 00 00	 call	 teedataobject_jumplink
  0001c	48 8b f8	 mov	 rdi, rax

; 637  :         if (link == NULL)

  0001f	48 85 c0	 test	 rax, rax
  00022	75 0d		 jne	 SHORT $LN2@tee_next
$LN6@tee_next:

; 638  :             return NULL;

  00024	33 c0		 xor	 eax, eax

; 647  :     return value;
; 648  : }

  00026	48 8b 5c 24 30	 mov	 rbx, QWORD PTR [rsp+48]
  0002b	48 83 c4 20	 add	 rsp, 32			; 00000020H
  0002f	5f		 pop	 rdi
  00030	c3		 ret	 0
$LN2@tee_next:

; 639  :         Py_DECREF(to->dataobj);

  00031	48 8b 4b 60	 mov	 rcx, QWORD PTR [rbx+96]
  00035	e8 00 00 00 00	 call	 _Py_DecRef

; 640  :         to->dataobj = (teedataobject *)link;

  0003a	48 89 7b 60	 mov	 QWORD PTR [rbx+96], rdi

; 641  :         to->index = 0;

  0003e	c7 43 68 00 00
	00 00		 mov	 DWORD PTR [rbx+104], 0
$LN3@tee_next:

; 642  :     }
; 643  :     value = teedataobject_getitem(to->dataobj, to->index);

  00045	8b 53 68	 mov	 edx, DWORD PTR [rbx+104]
  00048	48 8b 4b 60	 mov	 rcx, QWORD PTR [rbx+96]
  0004c	e8 00 00 00 00	 call	 teedataobject_getitem

; 644  :     if (value == NULL)

  00051	48 85 c0	 test	 rax, rax

; 645  :         return NULL;

  00054	74 ce		 je	 SHORT $LN6@tee_next

; 646  :     to->index++;

  00056	ff 43 68	 inc	 DWORD PTR [rbx+104]

; 647  :     return value;
; 648  : }

  00059	48 8b 5c 24 30	 mov	 rbx, QWORD PTR [rsp+48]
  0005e	48 83 c4 20	 add	 rsp, 32			; 00000020H
  00062	5f		 pop	 rdi
  00063	c3		 ret	 0
tee_next ENDP
_TEXT	ENDS
PUBLIC	??_C@_0N@DOPCCHLA@tee_traverse?$AA@		; `string'
;	COMDAT pdata
pdata	SEGMENT
$pdata$tee_traverse DD imagerel tee_traverse
	DD	imagerel tee_traverse+97
	DD	imagerel $unwind$tee_traverse
pdata	ENDS
;	COMDAT xdata
xdata	SEGMENT
$unwind$tee_traverse DD 060f01H
	DD	07640fH
	DD	06340fH
	DD	0700b320fH
xdata	ENDS
;	COMDAT ??_C@_0N@DOPCCHLA@tee_traverse?$AA@
CONST	SEGMENT
??_C@_0N@DOPCCHLA@tee_traverse?$AA@ DB 'tee_traverse', 00H ; `string'
; Function compile flags: /Ogtpy
CONST	ENDS
;	COMDAT tee_traverse
_TEXT	SEGMENT
to$ = 48
visit$ = 56
arg$ = 64
tee_traverse PROC					; COMDAT

; 652  : {

  00000	48 89 5c 24 08	 mov	 QWORD PTR [rsp+8], rbx
  00005	48 89 74 24 10	 mov	 QWORD PTR [rsp+16], rsi
  0000a	57		 push	 rdi
  0000b	48 83 ec 20	 sub	 rsp, 32			; 00000020H
  0000f	49 8b f8	 mov	 rdi, r8
  00012	48 8b f2	 mov	 rsi, rdx
  00015	48 8b d9	 mov	 rbx, rcx

; 653  :     Py_VISIT((PyObject *)to->dataobj);

  00018	e8 00 00 00 00	 call	 _Py_PXCTX
  0001d	85 c0		 test	 eax, eax
  0001f	74 1c		 je	 SHORT $LN3@tee_traver
  00021	48 8d 15 00 00
	00 00		 lea	 rdx, OFFSET FLAT:??_C@_0BN@PMILGFFG@?4?4?2Modules?2itertoolsmodule?4c?$AA@
  00028	48 8d 0d 00 00
	00 00		 lea	 rcx, OFFSET FLAT:??_C@_0N@DOPCCHLA@tee_traverse?$AA@
  0002f	45 33 c9	 xor	 r9d, r9d
  00032	41 b8 8d 02 00
	00		 mov	 r8d, 653		; 0000028dH
  00038	e8 00 00 00 00	 call	 _PyParallel_ContextGuardFailure
$LN3@tee_traver:
  0003d	48 8b 4b 60	 mov	 rcx, QWORD PTR [rbx+96]
  00041	48 85 c9	 test	 rcx, rcx
  00044	74 09		 je	 SHORT $LN5@tee_traver
  00046	48 8b d7	 mov	 rdx, rdi
  00049	ff d6		 call	 rsi
  0004b	85 c0		 test	 eax, eax
  0004d	75 02		 jne	 SHORT $LN7@tee_traver
$LN5@tee_traver:

; 654  :     return 0;

  0004f	33 c0		 xor	 eax, eax
$LN7@tee_traver:

; 655  : }

  00051	48 8b 5c 24 30	 mov	 rbx, QWORD PTR [rsp+48]
  00056	48 8b 74 24 38	 mov	 rsi, QWORD PTR [rsp+56]
  0005b	48 83 c4 20	 add	 rsp, 32			; 00000020H
  0005f	5f		 pop	 rdi
  00060	c3		 ret	 0
tee_traverse ENDP
_TEXT	ENDS
;	COMDAT pdata
; File c:\src\pyparallel\include\object.h
pdata	SEGMENT
$pdata$tee_copy DD imagerel tee_copy
	DD	imagerel tee_copy+177
	DD	imagerel $unwind$tee_copy
pdata	ENDS
;	COMDAT xdata
xdata	SEGMENT
$unwind$tee_copy DD 064101H
	DD	087441H
	DD	09340aH
	DD	06006520aH
; Function compile flags: /Ogtpy
; File c:\src\pyparallel\modules\itertoolsmodule.c
xdata	ENDS
;	COMDAT tee_copy
_TEXT	SEGMENT
to$ = 64
tee_copy PROC						; COMDAT

; 659  : {

  00000	48 89 5c 24 10	 mov	 QWORD PTR [rsp+16], rbx
  00005	56		 push	 rsi
  00006	48 83 ec 30	 sub	 rsp, 48			; 00000030H
  0000a	48 8b f1	 mov	 rsi, rcx

; 660  :     teeobject *newto;
; 661  : 
; 662  :     newto = PyObject_GC_New(teeobject, &tee_type);

  0000d	e8 00 00 00 00	 call	 _Py_PXCTX
  00012	48 8d 0d 00 00
	00 00		 lea	 rcx, OFFSET FLAT:tee_type
  00019	85 c0		 test	 eax, eax
  0001b	74 07		 je	 SHORT $LN4@tee_copy
  0001d	e8 00 00 00 00	 call	 _PxObject_New
  00022	eb 05		 jmp	 SHORT $LN10@tee_copy
$LN4@tee_copy:
  00024	e8 00 00 00 00	 call	 _PyObject_GC_New
$LN10@tee_copy:
  00029	48 8b d8	 mov	 rbx, rax

; 663  :     if (newto == NULL)

  0002c	48 85 c0	 test	 rax, rax
  0002f	75 0b		 jne	 SHORT $LN1@tee_copy

; 671  : }

  00031	48 8b 5c 24 48	 mov	 rbx, QWORD PTR [rsp+72]
  00036	48 83 c4 30	 add	 rsp, 48			; 00000030H
  0003a	5e		 pop	 rsi
  0003b	c3		 ret	 0
$LN1@tee_copy:
  0003c	48 89 7c 24 40	 mov	 QWORD PTR [rsp+64], rdi

; 664  :         return NULL;
; 665  :     Py_INCREF(to->dataobj);

  00041	48 8b 7e 60	 mov	 rdi, QWORD PTR [rsi+96]
  00045	e8 00 00 00 00	 call	 _Py_PXCTX
  0004a	85 c0		 test	 eax, eax
  0004c	75 32		 jne	 SHORT $LN7@tee_copy
  0004e	48 8d 15 00 00
	00 00		 lea	 rdx, OFFSET FLAT:??_C@_0CD@HDJFDCDP@c?3?2src?2pyparallel?2include?2object@
  00055	48 8d 0d 00 00
	00 00		 lea	 rcx, OFFSET FLAT:??_C@_0L@DHGMCEID@_Py_IncRef?$AA@
  0005c	4c 8b cf	 mov	 r9, rdi
  0005f	41 b8 89 03 00
	00		 mov	 r8d, 905		; 00000389H
  00065	c7 44 24 20 02
	00 00 00	 mov	 DWORD PTR [rsp+32], 2
  0006d	e8 00 00 00 00	 call	 _PyParallel_Guard
  00072	85 c0		 test	 eax, eax
  00074	75 06		 jne	 SHORT $LN6@tee_copy
  00076	f6 47 20 20	 test	 BYTE PTR [rdi+32], 32	; 00000020H
  0007a	74 04		 je	 SHORT $LN7@tee_copy
$LN6@tee_copy:
  0007c	48 ff 47 50	 inc	 QWORD PTR [rdi+80]
$LN7@tee_copy:

; 666  :     newto->dataobj = to->dataobj;

  00080	48 8b 46 60	 mov	 rax, QWORD PTR [rsi+96]

; 667  :     newto->index = to->index;
; 668  :     newto->weakreflist = NULL;
; 669  :     PyObject_GC_Track(newto);

  00084	48 8b cb	 mov	 rcx, rbx
  00087	48 89 43 60	 mov	 QWORD PTR [rbx+96], rax
  0008b	8b 46 68	 mov	 eax, DWORD PTR [rsi+104]
  0008e	48 c7 43 70 00
	00 00 00	 mov	 QWORD PTR [rbx+112], 0
  00096	89 43 68	 mov	 DWORD PTR [rbx+104], eax
  00099	e8 00 00 00 00	 call	 PyObject_GC_Track
  0009e	48 8b 7c 24 40	 mov	 rdi, QWORD PTR [rsp+64]

; 670  :     return (PyObject *)newto;

  000a3	48 8b c3	 mov	 rax, rbx

; 671  : }

  000a6	48 8b 5c 24 48	 mov	 rbx, QWORD PTR [rsp+72]
  000ab	48 83 c4 30	 add	 rsp, 48			; 00000030H
  000af	5e		 pop	 rsi
  000b0	c3		 ret	 0
tee_copy ENDP
_TEXT	ENDS
EXTRN	PyType_IsSubtype:PROC
;	COMDAT pdata
; File c:\src\pyparallel\include\object.h
pdata	SEGMENT
$pdata$tee_fromiterable DD imagerel tee_fromiterable
	DD	imagerel tee_fromiterable+29
	DD	imagerel $unwind$tee_fromiterable
pdata	ENDS
;	COMDAT pdata
pdata	SEGMENT
$pdata$0$tee_fromiterable DD imagerel tee_fromiterable+29
	DD	imagerel tee_fromiterable+245
	DD	imagerel $chain$0$tee_fromiterable
pdata	ENDS
;	COMDAT pdata
pdata	SEGMENT
$pdata$2$tee_fromiterable DD imagerel tee_fromiterable+245
	DD	imagerel tee_fromiterable+269
	DD	imagerel $chain$2$tee_fromiterable
pdata	ENDS
;	COMDAT pdata
pdata	SEGMENT
$pdata$4$tee_fromiterable DD imagerel tee_fromiterable+269
	DD	imagerel tee_fromiterable+291
	DD	imagerel $chain$4$tee_fromiterable
pdata	ENDS
;	COMDAT xdata
xdata	SEGMENT
$chain$4$tee_fromiterable DD 020021H
	DD	087400H
	DD	imagerel tee_fromiterable
	DD	imagerel tee_fromiterable+29
	DD	imagerel $unwind$tee_fromiterable
xdata	ENDS
;	COMDAT xdata
xdata	SEGMENT
$chain$2$tee_fromiterable DD 020021H
	DD	087400H
	DD	imagerel tee_fromiterable
	DD	imagerel tee_fromiterable+29
	DD	imagerel $unwind$tee_fromiterable
xdata	ENDS
;	COMDAT xdata
xdata	SEGMENT
$chain$0$tee_fromiterable DD 020521H
	DD	087405H
	DD	imagerel tee_fromiterable
	DD	imagerel tee_fromiterable+29
	DD	imagerel $unwind$tee_fromiterable
xdata	ENDS
;	COMDAT xdata
xdata	SEGMENT
$unwind$tee_fromiterable DD 020601H
	DD	030025206H
; Function compile flags: /Ogtpy
; File c:\src\pyparallel\modules\itertoolsmodule.c
xdata	ENDS
;	COMDAT tee_fromiterable
_TEXT	SEGMENT
iterable$ = 64
tee_fromiterable PROC					; COMDAT

; 677  : {

  00000	40 53		 push	 rbx
  00002	48 83 ec 30	 sub	 rsp, 48			; 00000030H

; 678  :     teeobject *to;
; 679  :     PyObject *it = NULL;
; 680  : 
; 681  :     it = PyObject_GetIter(iterable);

  00006	e8 00 00 00 00	 call	 PyObject_GetIter
  0000b	48 8b d8	 mov	 rbx, rax

; 682  :     if (it == NULL)

  0000e	48 85 c0	 test	 rax, rax
  00011	75 06		 jne	 SHORT $LN9@tee_fromit

; 705  : }

  00013	48 83 c4 30	 add	 rsp, 48			; 00000030H
  00017	5b		 pop	 rbx
  00018	c3		 ret	 0
$LN9@tee_fromit:

; 683  :         return NULL;
; 684  :     if (PyObject_TypeCheck(it, &tee_type)) {

  00019	48 8b 48 58	 mov	 rcx, QWORD PTR [rax+88]
  0001d	48 89 7c 24 40	 mov	 QWORD PTR [rsp+64], rdi
  00022	48 8d 3d 00 00
	00 00		 lea	 rdi, OFFSET FLAT:tee_type
  00029	48 3b cf	 cmp	 rcx, rdi
  0002c	74 5f		 je	 SHORT $LN7@tee_fromit
  0002e	48 8b d7	 mov	 rdx, rdi
  00031	e8 00 00 00 00	 call	 PyType_IsSubtype
  00036	85 c0		 test	 eax, eax
  00038	75 53		 jne	 SHORT $LN7@tee_fromit

; 686  :         goto done;
; 687  :     }
; 688  : 
; 689  :     to = PyObject_GC_New(teeobject, &tee_type);

  0003a	e8 00 00 00 00	 call	 _Py_PXCTX
  0003f	48 8b cf	 mov	 rcx, rdi
  00042	85 c0		 test	 eax, eax
  00044	74 07		 je	 SHORT $LN12@tee_fromit
  00046	e8 00 00 00 00	 call	 _PxObject_New
  0004b	eb 05		 jmp	 SHORT $LN25@tee_fromit
$LN12@tee_fromit:
  0004d	e8 00 00 00 00	 call	 _PyObject_GC_New
$LN25@tee_fromit:
  00052	48 8b f8	 mov	 rdi, rax

; 690  :     if (to == NULL)

  00055	48 85 c0	 test	 rax, rax
  00058	74 3e		 je	 SHORT $done$20894

; 691  :         goto done;
; 692  :     to->dataobj = (teedataobject *)teedataobject_newinternal(it);

  0005a	48 8b cb	 mov	 rcx, rbx
  0005d	e8 00 00 00 00	 call	 teedataobject_newinternal

; 693  :     if (!to->dataobj) {
; 694  :         PyObject_GC_Del(to);

  00062	48 8b cf	 mov	 rcx, rdi
  00065	48 89 47 60	 mov	 QWORD PTR [rdi+96], rax
  00069	48 85 c0	 test	 rax, rax
  0006c	75 09		 jne	 SHORT $LN5@tee_fromit
  0006e	e8 00 00 00 00	 call	 PyObject_GC_Del

; 695  :         to = NULL;

  00073	33 ff		 xor	 edi, edi

; 696  :         goto done;

  00075	eb 21		 jmp	 SHORT $done$20894
$LN5@tee_fromit:

; 697  :     }
; 698  : 
; 699  :     to->index = 0;

  00077	c7 47 68 00 00
	00 00		 mov	 DWORD PTR [rdi+104], 0

; 700  :     to->weakreflist = NULL;

  0007e	48 c7 47 70 00
	00 00 00	 mov	 QWORD PTR [rdi+112], 0

; 701  :     PyObject_GC_Track(to);

  00086	e8 00 00 00 00	 call	 PyObject_GC_Track
  0008b	eb 0b		 jmp	 SHORT $done$20894
$LN7@tee_fromit:

; 685  :         to = (teeobject *)tee_copy((teeobject *)it);

  0008d	48 8b cb	 mov	 rcx, rbx
  00090	e8 00 00 00 00	 call	 tee_copy
  00095	48 8b f8	 mov	 rdi, rax
$done$20894:

; 702  : done:
; 703  :     Py_XDECREF(it);

  00098	e8 00 00 00 00	 call	 _Py_PXCTX
  0009d	85 c0		 test	 eax, eax
  0009f	75 74		 jne	 SHORT $LN3@tee_fromit
  000a1	48 8b 43 20	 mov	 rax, QWORD PTR [rbx+32]
  000a5	a8 20		 test	 al, 32			; 00000020H
  000a7	75 64		 jne	 SHORT $LN18@tee_fromit
  000a9	84 c0		 test	 al, al
  000ab	78 60		 js	 SHORT $LN18@tee_fromit
  000ad	a8 02		 test	 al, 2
  000af	75 64		 jne	 SHORT $LN3@tee_fromit
  000b1	48 ff 4b 50	 dec	 QWORD PTR [rbx+80]
  000b5	75 5e		 jne	 SHORT $LN3@tee_fromit
  000b7	48 8d 15 00 00
	00 00		 lea	 rdx, OFFSET FLAT:??_C@_0CD@HDJFDCDP@c?3?2src?2pyparallel?2include?2object@
  000be	48 8d 0d 00 00
	00 00		 lea	 rcx, OFFSET FLAT:??_C@_0L@DMHMLFIA@_Py_DecRef?$AA@
  000c5	4c 8b cb	 mov	 r9, rbx
  000c8	41 b8 a4 03 00
	00		 mov	 r8d, 932		; 000003a4H
  000ce	c7 44 24 20 10
	00 00 00	 mov	 DWORD PTR [rsp+32], 16
  000d6	e8 00 00 00 00	 call	 _PyParallel_Guard
  000db	48 8b cb	 mov	 rcx, rbx
  000de	85 c0		 test	 eax, eax
  000e0	74 13		 je	 SHORT $LN23@tee_fromit
  000e2	e8 00 00 00 00	 call	 _Px_Dealloc

; 704  :     return (PyObject *)to;

  000e7	48 8b c7	 mov	 rax, rdi
  000ea	48 8b 7c 24 40	 mov	 rdi, QWORD PTR [rsp+64]

; 705  : }

  000ef	48 83 c4 30	 add	 rsp, 48			; 00000030H
  000f3	5b		 pop	 rbx
  000f4	c3		 ret	 0

; 702  : done:
; 703  :     Py_XDECREF(it);

$LN23@tee_fromit:
  000f5	48 8b 43 58	 mov	 rax, QWORD PTR [rbx+88]
  000f9	ff 90 88 00 00
	00		 call	 QWORD PTR [rax+136]

; 704  :     return (PyObject *)to;

  000ff	48 8b c7	 mov	 rax, rdi
  00102	48 8b 7c 24 40	 mov	 rdi, QWORD PTR [rsp+64]

; 705  : }

  00107	48 83 c4 30	 add	 rsp, 48			; 00000030H
  0010b	5b		 pop	 rbx
  0010c	c3		 ret	 0

; 702  : done:
; 703  :     Py_XDECREF(it);

$LN18@tee_fromit:
  0010d	48 8b cb	 mov	 rcx, rbx
  00110	e8 00 00 00 00	 call	 Px_DecRef
$LN3@tee_fromit:

; 704  :     return (PyObject *)to;

  00115	48 8b c7	 mov	 rax, rdi
  00118	48 8b 7c 24 40	 mov	 rdi, QWORD PTR [rsp+64]

; 705  : }

  0011d	48 83 c4 30	 add	 rsp, 48			; 00000030H
  00121	5b		 pop	 rbx
  00122	c3		 ret	 0
tee_fromiterable ENDP
_TEXT	ENDS
PUBLIC	??_C@_04DBFFPBBK@_tee?$AA@			; `string'
EXTRN	PyArg_UnpackTuple:PROC
;	COMDAT pdata
pdata	SEGMENT
$pdata$tee_new DD imagerel tee_new
	DD	imagerel tee_new+67
	DD	imagerel $unwind$tee_new
pdata	ENDS
;	COMDAT xdata
xdata	SEGMENT
$unwind$tee_new DD 010401H
	DD	06204H
xdata	ENDS
;	COMDAT ??_C@_04DBFFPBBK@_tee?$AA@
CONST	SEGMENT
??_C@_04DBFFPBBK@_tee?$AA@ DB '_tee', 00H		; `string'
; Function compile flags: /Ogtpy
CONST	ENDS
;	COMDAT tee_new
_TEXT	SEGMENT
type$ = 64
args$ = 72
kw$ = 80
iterable$ = 88
tee_new	PROC						; COMDAT

; 709  : {

  00000	48 83 ec 38	 sub	 rsp, 56			; 00000038H
  00004	48 8b c2	 mov	 rax, rdx

; 710  :     PyObject *iterable;
; 711  : 
; 712  :     if (!PyArg_UnpackTuple(args, "_tee", 1, 1, &iterable))

  00007	48 8d 4c 24 58	 lea	 rcx, QWORD PTR iterable$[rsp]
  0000c	41 b9 01 00 00
	00		 mov	 r9d, 1
  00012	48 89 4c 24 20	 mov	 QWORD PTR [rsp+32], rcx
  00017	48 8d 15 00 00
	00 00		 lea	 rdx, OFFSET FLAT:??_C@_04DBFFPBBK@_tee?$AA@
  0001e	48 8b c8	 mov	 rcx, rax
  00021	45 8b c1	 mov	 r8d, r9d
  00024	e8 00 00 00 00	 call	 PyArg_UnpackTuple
  00029	85 c0		 test	 eax, eax
  0002b	75 07		 jne	 SHORT $LN1@tee_new

; 713  :         return NULL;

  0002d	33 c0		 xor	 eax, eax

; 715  : }

  0002f	48 83 c4 38	 add	 rsp, 56			; 00000038H
  00033	c3		 ret	 0
$LN1@tee_new:

; 714  :     return tee_fromiterable(iterable);

  00034	48 8b 4c 24 58	 mov	 rcx, QWORD PTR iterable$[rsp]
  00039	e8 00 00 00 00	 call	 tee_fromiterable

; 715  : }

  0003e	48 83 c4 38	 add	 rsp, 56			; 00000038H
  00042	c3		 ret	 0
tee_new	ENDP
_TEXT	ENDS
PUBLIC	??_C@_09DCPDBLOL@tee_clear?$AA@			; `string'
EXTRN	PyObject_ClearWeakRefs:PROC
;	COMDAT pdata
; File c:\src\pyparallel\include\object.h
pdata	SEGMENT
$pdata$tee_clear DD imagerel tee_clear
	DD	imagerel tee_clear+75
	DD	imagerel $unwind$tee_clear
pdata	ENDS
;	COMDAT pdata
pdata	SEGMENT
$pdata$0$tee_clear DD imagerel tee_clear+75
	DD	imagerel tee_clear+184
	DD	imagerel $chain$0$tee_clear
pdata	ENDS
;	COMDAT pdata
pdata	SEGMENT
$pdata$2$tee_clear DD imagerel tee_clear+184
	DD	imagerel tee_clear+207
	DD	imagerel $chain$2$tee_clear
pdata	ENDS
;	COMDAT pdata
pdata	SEGMENT
$pdata$4$tee_clear DD imagerel tee_clear+207
	DD	imagerel tee_clear+220
	DD	imagerel $chain$4$tee_clear
pdata	ENDS
;	COMDAT pdata
pdata	SEGMENT
$pdata$5$tee_clear DD imagerel tee_clear+220
	DD	imagerel tee_clear+228
	DD	imagerel $chain$5$tee_clear
pdata	ENDS
;	COMDAT xdata
xdata	SEGMENT
$chain$5$tee_clear DD 021H
	DD	imagerel tee_clear
	DD	imagerel tee_clear+75
	DD	imagerel $unwind$tee_clear
xdata	ENDS
;	COMDAT xdata
xdata	SEGMENT
$chain$4$tee_clear DD 020021H
	DD	083400H
	DD	imagerel tee_clear
	DD	imagerel tee_clear+75
	DD	imagerel $unwind$tee_clear
xdata	ENDS
;	COMDAT xdata
xdata	SEGMENT
$chain$2$tee_clear DD 020021H
	DD	083400H
	DD	imagerel tee_clear
	DD	imagerel tee_clear+75
	DD	imagerel $unwind$tee_clear
xdata	ENDS
;	COMDAT xdata
xdata	SEGMENT
$chain$0$tee_clear DD 020521H
	DD	083405H
	DD	imagerel tee_clear
	DD	imagerel tee_clear+75
	DD	imagerel $unwind$tee_clear
xdata	ENDS
;	COMDAT xdata
xdata	SEGMENT
$unwind$tee_clear DD 020601H
	DD	070025206H
xdata	ENDS
;	COMDAT ??_C@_09DCPDBLOL@tee_clear?$AA@
CONST	SEGMENT
??_C@_09DCPDBLOL@tee_clear?$AA@ DB 'tee_clear', 00H	; `string'
; Function compile flags: /Ogtpy
; File c:\src\pyparallel\modules\itertoolsmodule.c
CONST	ENDS
;	COMDAT tee_clear
_TEXT	SEGMENT
to$ = 64
tee_clear PROC						; COMDAT

; 719  : {

  00000	40 57		 push	 rdi
  00002	48 83 ec 30	 sub	 rsp, 48			; 00000030H

; 720  :     if (to->weakreflist != NULL)

  00006	48 83 79 70 00	 cmp	 QWORD PTR [rcx+112], 0
  0000b	48 8b f9	 mov	 rdi, rcx
  0000e	74 05		 je	 SHORT $LN4@tee_clear

; 721  :         PyObject_ClearWeakRefs((PyObject *) to);

  00010	e8 00 00 00 00	 call	 PyObject_ClearWeakRefs
$LN4@tee_clear:

; 722  :     Py_CLEAR(to->dataobj);

  00015	4c 8b 4f 60	 mov	 r9, QWORD PTR [rdi+96]
  00019	4d 85 c9	 test	 r9, r9
  0001c	0f 84 ba 00 00
	00		 je	 $LN22@tee_clear
  00022	48 8d 15 00 00
	00 00		 lea	 rdx, OFFSET FLAT:??_C@_0BN@PMILGFFG@?4?4?2Modules?2itertoolsmodule?4c?$AA@
  00029	48 8d 0d 00 00
	00 00		 lea	 rcx, OFFSET FLAT:??_C@_09DCPDBLOL@tee_clear?$AA@
  00030	41 b8 d2 02 00
	00		 mov	 r8d, 722		; 000002d2H
  00036	c7 44 24 20 10
	00 00 00	 mov	 DWORD PTR [rsp+32], 16
  0003e	e8 00 00 00 00	 call	 _PyParallel_Guard
  00043	85 c0		 test	 eax, eax
  00045	0f 85 91 00 00
	00		 jne	 $LN22@tee_clear
  0004b	48 89 5c 24 40	 mov	 QWORD PTR [rsp+64], rbx
  00050	48 8b 5f 60	 mov	 rbx, QWORD PTR [rdi+96]
  00054	48 c7 47 60 00
	00 00 00	 mov	 QWORD PTR [rdi+96], 0
  0005c	e8 00 00 00 00	 call	 _Py_PXCTX
  00061	85 c0		 test	 eax, eax
  00063	75 72		 jne	 SHORT $LN23@tee_clear
  00065	48 8b 43 20	 mov	 rax, QWORD PTR [rbx+32]
  00069	a8 20		 test	 al, 32			; 00000020H
  0006b	75 62		 jne	 SHORT $LN12@tee_clear
  0006d	84 c0		 test	 al, al
  0006f	78 5e		 js	 SHORT $LN12@tee_clear
  00071	a8 02		 test	 al, 2
  00073	75 62		 jne	 SHORT $LN23@tee_clear
  00075	48 ff 4b 50	 dec	 QWORD PTR [rbx+80]
  00079	75 5c		 jne	 SHORT $LN23@tee_clear
  0007b	48 8d 15 00 00
	00 00		 lea	 rdx, OFFSET FLAT:??_C@_0CD@HDJFDCDP@c?3?2src?2pyparallel?2include?2object@
  00082	48 8d 0d 00 00
	00 00		 lea	 rcx, OFFSET FLAT:??_C@_0L@DMHMLFIA@_Py_DecRef?$AA@
  00089	4c 8b cb	 mov	 r9, rbx
  0008c	41 b8 a4 03 00
	00		 mov	 r8d, 932		; 000003a4H
  00092	c7 44 24 20 10
	00 00 00	 mov	 DWORD PTR [rsp+32], 16
  0009a	e8 00 00 00 00	 call	 _PyParallel_Guard
  0009f	48 8b cb	 mov	 rcx, rbx
  000a2	85 c0		 test	 eax, eax
  000a4	74 12		 je	 SHORT $LN17@tee_clear
  000a6	e8 00 00 00 00	 call	 _Px_Dealloc
  000ab	48 8b 5c 24 40	 mov	 rbx, QWORD PTR [rsp+64]

; 723  :     return 0;

  000b0	33 c0		 xor	 eax, eax

; 724  : }

  000b2	48 83 c4 30	 add	 rsp, 48			; 00000030H
  000b6	5f		 pop	 rdi
  000b7	c3		 ret	 0

; 722  :     Py_CLEAR(to->dataobj);

$LN17@tee_clear:
  000b8	48 8b 43 58	 mov	 rax, QWORD PTR [rbx+88]
  000bc	ff 90 88 00 00
	00		 call	 QWORD PTR [rax+136]
  000c2	48 8b 5c 24 40	 mov	 rbx, QWORD PTR [rsp+64]

; 723  :     return 0;

  000c7	33 c0		 xor	 eax, eax

; 724  : }

  000c9	48 83 c4 30	 add	 rsp, 48			; 00000030H
  000cd	5f		 pop	 rdi
  000ce	c3		 ret	 0

; 722  :     Py_CLEAR(to->dataobj);

$LN12@tee_clear:
  000cf	48 8b cb	 mov	 rcx, rbx
  000d2	e8 00 00 00 00	 call	 Px_DecRef
$LN23@tee_clear:
  000d7	48 8b 5c 24 40	 mov	 rbx, QWORD PTR [rsp+64]
$LN22@tee_clear:

; 723  :     return 0;

  000dc	33 c0		 xor	 eax, eax

; 724  : }

  000de	48 83 c4 30	 add	 rsp, 48			; 00000030H
  000e2	5f		 pop	 rdi
  000e3	c3		 ret	 0
tee_clear ENDP
_TEXT	ENDS
;	COMDAT pdata
pdata	SEGMENT
$pdata$tee_dealloc DD imagerel tee_dealloc
	DD	imagerel tee_dealloc+35
	DD	imagerel $unwind$tee_dealloc
pdata	ENDS
;	COMDAT xdata
xdata	SEGMENT
$unwind$tee_dealloc DD 020601H
	DD	030023206H
; Function compile flags: /Ogtpy
xdata	ENDS
;	COMDAT tee_dealloc
_TEXT	SEGMENT
to$ = 48
tee_dealloc PROC					; COMDAT

; 728  : {

  00000	40 53		 push	 rbx
  00002	48 83 ec 20	 sub	 rsp, 32			; 00000020H
  00006	48 8b d9	 mov	 rbx, rcx

; 729  :     PyObject_GC_UnTrack(to);

  00009	e8 00 00 00 00	 call	 PyObject_GC_UnTrack

; 730  :     tee_clear(to);

  0000e	48 8b cb	 mov	 rcx, rbx
  00011	e8 00 00 00 00	 call	 tee_clear

; 731  :     PyObject_GC_Del(to);

  00016	48 8b cb	 mov	 rcx, rbx

; 732  : }

  00019	48 83 c4 20	 add	 rsp, 32			; 00000020H
  0001d	5b		 pop	 rbx
  0001e	e9 00 00 00 00	 jmp	 PyObject_GC_Del
tee_dealloc ENDP
_TEXT	ENDS
PUBLIC	??_C@_09CLHOPJKH@O?$CI?$CI?$CJ?$CJ?$CIOi?$CJ?$AA@ ; `string'
;	COMDAT ??_C@_09CLHOPJKH@O?$CI?$CI?$CJ?$CJ?$CIOi?$CJ?$AA@
CONST	SEGMENT
??_C@_09CLHOPJKH@O?$CI?$CI?$CJ?$CJ?$CIOi?$CJ?$AA@ DB 'O(())(Oi)', 00H ; `string'
; Function compile flags: /Ogtpy
CONST	ENDS
;	COMDAT tee_reduce
_TEXT	SEGMENT
to$ = 8
tee_reduce PROC						; COMDAT

; 737  :     return Py_BuildValue("O(())(Oi)", Py_TYPE(to), to->dataobj, to->index);

  00000	44 8b 49 68	 mov	 r9d, DWORD PTR [rcx+104]
  00004	4c 8b 41 60	 mov	 r8, QWORD PTR [rcx+96]
  00008	48 8b 51 58	 mov	 rdx, QWORD PTR [rcx+88]
  0000c	48 8d 0d 00 00
	00 00		 lea	 rcx, OFFSET FLAT:??_C@_09CLHOPJKH@O?$CI?$CI?$CJ?$CJ?$CIOi?$CJ?$AA@

; 738  : }

  00013	e9 00 00 00 00	 jmp	 Py_BuildValue
tee_reduce ENDP
_TEXT	ENDS
PUBLIC	??_C@_0BD@KNGCOGKE@Index?5out?5of?5range?$AA@	; `string'
PUBLIC	??_C@_0N@FDKFAAFH@tee_setstate?$AA@		; `string'
PUBLIC	??_C@_03JAHMJELB@O?$CBi?$AA@			; `string'
;	COMDAT pdata
; File c:\src\pyparallel\include\object.h
pdata	SEGMENT
$pdata$tee_setstate DD imagerel tee_setstate
	DD	imagerel tee_setstate+263
	DD	imagerel $unwind$tee_setstate
pdata	ENDS
;	COMDAT xdata
xdata	SEGMENT
$unwind$tee_setstate DD 020601H
	DD	030025206H
xdata	ENDS
;	COMDAT ??_C@_0BD@KNGCOGKE@Index?5out?5of?5range?$AA@
CONST	SEGMENT
??_C@_0BD@KNGCOGKE@Index?5out?5of?5range?$AA@ DB 'Index out of range', 00H ; `string'
CONST	ENDS
;	COMDAT ??_C@_0N@FDKFAAFH@tee_setstate?$AA@
CONST	SEGMENT
??_C@_0N@FDKFAAFH@tee_setstate?$AA@ DB 'tee_setstate', 00H ; `string'
CONST	ENDS
;	COMDAT ??_C@_03JAHMJELB@O?$CBi?$AA@
CONST	SEGMENT
??_C@_03JAHMJELB@O?$CBi?$AA@ DB 'O!i', 00H		; `string'
; Function compile flags: /Ogtpy
; File c:\src\pyparallel\modules\itertoolsmodule.c
CONST	ENDS
;	COMDAT tee_setstate
_TEXT	SEGMENT
to$ = 64
state$ = 72
index$ = 80
tdo$ = 88
tee_setstate PROC					; COMDAT

; 742  : {

  00000	40 53		 push	 rbx
  00002	48 83 ec 30	 sub	 rsp, 48			; 00000030H
  00006	48 8b d9	 mov	 rbx, rcx
  00009	48 8b c2	 mov	 rax, rdx

; 743  :     teedataobject *tdo;
; 744  :     int index;
; 745  :     if (!PyArg_ParseTuple(state, "O!i", &teedataobject_type, &tdo, &index))

  0000c	48 8d 4c 24 50	 lea	 rcx, QWORD PTR index$[rsp]
  00011	48 89 4c 24 20	 mov	 QWORD PTR [rsp+32], rcx
  00016	4c 8d 4c 24 58	 lea	 r9, QWORD PTR tdo$[rsp]
  0001b	4c 8d 05 00 00
	00 00		 lea	 r8, OFFSET FLAT:teedataobject_type
  00022	48 8d 15 00 00
	00 00		 lea	 rdx, OFFSET FLAT:??_C@_03JAHMJELB@O?$CBi?$AA@
  00029	48 8b c8	 mov	 rcx, rax
  0002c	e8 00 00 00 00	 call	 PyArg_ParseTuple
  00031	85 c0		 test	 eax, eax

; 746  :         return NULL;

  00033	0f 84 c6 00 00
	00		 je	 $LN14@tee_setsta

; 747  :     if (index < 0 || index > LINKCELLS) {

  00039	83 7c 24 50 39	 cmp	 DWORD PTR index$[rsp], 57 ; 00000039H
  0003e	0f 87 a8 00 00
	00		 ja	 $LN5@tee_setsta

; 750  :     }
; 751  :     Py_CLEAR(to->dataobj);

  00044	4c 8b 4b 60	 mov	 r9, QWORD PTR [rbx+96]
  00048	4d 85 c9	 test	 r9, r9
  0004b	74 36		 je	 SHORT $LN3@tee_setsta
  0004d	48 8d 15 00 00
	00 00		 lea	 rdx, OFFSET FLAT:??_C@_0BN@PMILGFFG@?4?4?2Modules?2itertoolsmodule?4c?$AA@
  00054	48 8d 0d 00 00
	00 00		 lea	 rcx, OFFSET FLAT:??_C@_0N@FDKFAAFH@tee_setstate?$AA@
  0005b	41 b8 ef 02 00
	00		 mov	 r8d, 751		; 000002efH
  00061	c7 44 24 20 10
	00 00 00	 mov	 DWORD PTR [rsp+32], 16
  00069	e8 00 00 00 00	 call	 _PyParallel_Guard
  0006e	85 c0		 test	 eax, eax
  00070	75 11		 jne	 SHORT $LN3@tee_setsta
  00072	48 8b 4b 60	 mov	 rcx, QWORD PTR [rbx+96]
  00076	48 c7 43 60 00
	00 00 00	 mov	 QWORD PTR [rbx+96], 0
  0007e	e8 00 00 00 00	 call	 _Py_DecRef
$LN3@tee_setsta:

; 752  :     to->dataobj = tdo;

  00083	48 8b 4c 24 58	 mov	 rcx, QWORD PTR tdo$[rsp]
  00088	48 89 4b 60	 mov	 QWORD PTR [rbx+96], rcx

; 753  :     Py_INCREF(to->dataobj);

  0008c	e8 00 00 00 00	 call	 _Py_IncRef

; 754  :     to->index = index;

  00091	44 8b 5c 24 50	 mov	 r11d, DWORD PTR index$[rsp]
  00096	44 89 5b 68	 mov	 DWORD PTR [rbx+104], r11d

; 755  :     Py_RETURN_NONE;

  0009a	e8 00 00 00 00	 call	 _Py_PXCTX
  0009f	85 c0		 test	 eax, eax
  000a1	75 3c		 jne	 SHORT $LN11@tee_setsta
  000a3	4c 8d 0d 00 00
	00 00		 lea	 r9, OFFSET FLAT:_Py_NoneStruct
  000aa	48 8d 15 00 00
	00 00		 lea	 rdx, OFFSET FLAT:??_C@_0CD@HDJFDCDP@c?3?2src?2pyparallel?2include?2object@
  000b1	48 8d 0d 00 00
	00 00		 lea	 rcx, OFFSET FLAT:??_C@_0L@DHGMCEID@_Py_IncRef?$AA@
  000b8	41 b8 89 03 00
	00		 mov	 r8d, 905		; 00000389H
  000be	c7 44 24 20 02
	00 00 00	 mov	 DWORD PTR [rsp+32], 2
  000c6	e8 00 00 00 00	 call	 _PyParallel_Guard
  000cb	85 c0		 test	 eax, eax
  000cd	75 09		 jne	 SHORT $LN10@tee_setsta
  000cf	f6 05 20 00 00
	00 20		 test	 BYTE PTR _Py_NoneStruct+32, 32 ; 00000020H
  000d6	74 07		 je	 SHORT $LN11@tee_setsta
$LN10@tee_setsta:
  000d8	48 ff 05 50 00
	00 00		 inc	 QWORD PTR _Py_NoneStruct+80
$LN11@tee_setsta:
  000df	48 8d 05 00 00
	00 00		 lea	 rax, OFFSET FLAT:_Py_NoneStruct

; 756  : }

  000e6	48 83 c4 30	 add	 rsp, 48			; 00000030H
  000ea	5b		 pop	 rbx
  000eb	c3		 ret	 0
$LN5@tee_setsta:

; 748  :         PyErr_SetString(PyExc_ValueError, "Index out of range");

  000ec	48 8b 0d 00 00
	00 00		 mov	 rcx, QWORD PTR PyExc_ValueError
  000f3	48 8d 15 00 00
	00 00		 lea	 rdx, OFFSET FLAT:??_C@_0BD@KNGCOGKE@Index?5out?5of?5range?$AA@
  000fa	e8 00 00 00 00	 call	 PyErr_SetString
$LN14@tee_setsta:

; 749  :         return NULL;

  000ff	33 c0		 xor	 eax, eax

; 756  : }

  00101	48 83 c4 30	 add	 rsp, 48			; 00000030H
  00105	5b		 pop	 rbx
  00106	c3		 ret	 0
tee_setstate ENDP
_TEXT	ENDS
PUBLIC	??_C@_0P@BCBHJBBL@n?5must?5be?5?$DO?$DN?50?$AA@	; `string'
PUBLIC	??_C@_03LLFJLPJF@O?$HMn?$AA@			; `string'
EXTRN	_PyObject_CallMethodId:PROC
EXTRN	_PyObject_HasAttrId:PROC
EXTRN	PyTuple_New:PROC
EXTRN	_tls_index:DWORD
;	COMDAT pdata
pdata	SEGMENT
$pdata$tee DD	imagerel tee
	DD	imagerel tee+78
	DD	imagerel $unwind$tee
pdata	ENDS
;	COMDAT pdata
pdata	SEGMENT
$pdata$0$tee DD	imagerel tee+78
	DD	imagerel tee+106
	DD	imagerel $chain$0$tee
pdata	ENDS
;	COMDAT pdata
pdata	SEGMENT
$pdata$3$tee DD	imagerel tee+106
	DD	imagerel tee+166
	DD	imagerel $chain$3$tee
pdata	ENDS
;	COMDAT pdata
pdata	SEGMENT
$pdata$7$tee DD	imagerel tee+166
	DD	imagerel tee+266
	DD	imagerel $chain$7$tee
pdata	ENDS
;	COMDAT pdata
pdata	SEGMENT
$pdata$8$tee DD	imagerel tee+266
	DD	imagerel tee+335
	DD	imagerel $chain$8$tee
pdata	ENDS
;	COMDAT pdata
pdata	SEGMENT
$pdata$9$tee DD	imagerel tee+335
	DD	imagerel tee+350
	DD	imagerel $chain$9$tee
pdata	ENDS
;	COMDAT pdata
pdata	SEGMENT
$pdata$10$tee DD imagerel tee+350
	DD	imagerel tee+360
	DD	imagerel $chain$10$tee
pdata	ENDS
;	COMDAT pdata
pdata	SEGMENT
$pdata$12$tee DD imagerel tee+360
	DD	imagerel tee+372
	DD	imagerel $chain$12$tee
pdata	ENDS
;	COMDAT xdata
xdata	SEGMENT
$chain$12$tee DD 0a0021H
	DD	04c400H
	DD	057400H
	DD	066400H
	DD	095400H
	DD	083400H
	DD	imagerel tee
	DD	imagerel tee+78
	DD	imagerel $unwind$tee
xdata	ENDS
;	COMDAT xdata
xdata	SEGMENT
$chain$10$tee DD 020021H
	DD	095400H
	DD	imagerel tee
	DD	imagerel tee+78
	DD	imagerel $unwind$tee
xdata	ENDS
;	COMDAT xdata
xdata	SEGMENT
$chain$9$tee DD	021H
	DD	imagerel tee+166
	DD	imagerel tee+266
	DD	imagerel $chain$7$tee
xdata	ENDS
;	COMDAT xdata
xdata	SEGMENT
$chain$8$tee DD	020521H
	DD	057405H
	DD	imagerel tee+166
	DD	imagerel tee+266
	DD	imagerel $chain$7$tee
xdata	ENDS
;	COMDAT xdata
xdata	SEGMENT
$chain$7$tee DD	081e21H
	DD	04c41eH
	DD	066419H
	DD	095400H
	DD	083400H
	DD	imagerel tee
	DD	imagerel tee+78
	DD	imagerel $unwind$tee
xdata	ENDS
;	COMDAT xdata
xdata	SEGMENT
$chain$3$tee DD	041621H
	DD	083416H
	DD	095400H
	DD	imagerel tee
	DD	imagerel tee+78
	DD	imagerel $unwind$tee
xdata	ENDS
;	COMDAT xdata
xdata	SEGMENT
$chain$0$tee DD	020521H
	DD	095405H
	DD	imagerel tee
	DD	imagerel tee+78
	DD	imagerel $unwind$tee
xdata	ENDS
;	COMDAT xdata
xdata	SEGMENT
$unwind$tee DD	010401H
	DD	06204H
xdata	ENDS
;	COMDAT ??_C@_0P@BCBHJBBL@n?5must?5be?5?$DO?$DN?50?$AA@
CONST	SEGMENT
??_C@_0P@BCBHJBBL@n?5must?5be?5?$DO?$DN?50?$AA@ DB 'n must be >= 0', 00H ; `string'
CONST	ENDS
;	COMDAT ??_C@_03LLFJLPJF@O?$HMn?$AA@
CONST	SEGMENT
??_C@_03LLFJLPJF@O?$HMn?$AA@ DB 'O|n', 00H		; `string'
; Function compile flags: /Ogtpy
CONST	ENDS
;	COMDAT tee
_TEXT	SEGMENT
self$ = 64
args$ = 72
n$ = 80
iterable$ = 88
tee	PROC						; COMDAT

; 813  : {

  00000	48 83 ec 38	 sub	 rsp, 56			; 00000038H

; 814  :     Py_ssize_t i, n=2;
; 815  :     PyObject *it, *iterable, *copyable, *result;
; 816  :     _Py_IDENTIFIER(__copy__);
; 817  : 
; 818  :     if (!PyArg_ParseTuple(args, "O|n", &iterable, &n))

  00004	48 8b ca	 mov	 rcx, rdx
  00007	4c 8d 4c 24 50	 lea	 r9, QWORD PTR n$[rsp]
  0000c	4c 8d 44 24 58	 lea	 r8, QWORD PTR iterable$[rsp]
  00011	48 8d 15 00 00
	00 00		 lea	 rdx, OFFSET FLAT:??_C@_03LLFJLPJF@O?$HMn?$AA@
  00018	48 c7 44 24 50
	02 00 00 00	 mov	 QWORD PTR n$[rsp], 2
  00021	e8 00 00 00 00	 call	 PyArg_ParseTuple
  00026	85 c0		 test	 eax, eax

; 819  :         return NULL;

  00028	74 1d		 je	 SHORT $LN23@tee

; 820  :     if (n < 0) {

  0002a	48 8b 4c 24 50	 mov	 rcx, QWORD PTR n$[rsp]
  0002f	48 85 c9	 test	 rcx, rcx
  00032	79 1a		 jns	 SHORT $LN11@tee

; 821  :         PyErr_SetString(PyExc_ValueError, "n must be >= 0");

  00034	48 8b 0d 00 00
	00 00		 mov	 rcx, QWORD PTR PyExc_ValueError
  0003b	48 8d 15 00 00
	00 00		 lea	 rdx, OFFSET FLAT:??_C@_0P@BCBHJBBL@n?5must?5be?5?$DO?$DN?50?$AA@
  00042	e8 00 00 00 00	 call	 PyErr_SetString
$LN23@tee:

; 822  :         return NULL;

  00047	33 c0		 xor	 eax, eax

; 854  : }

  00049	48 83 c4 38	 add	 rsp, 56			; 00000038H
  0004d	c3		 ret	 0
$LN11@tee:
  0004e	48 89 6c 24 48	 mov	 QWORD PTR [rsp+72], rbp

; 823  :     }
; 824  :     result = PyTuple_New(n);

  00053	e8 00 00 00 00	 call	 PyTuple_New
  00058	48 8b e8	 mov	 rbp, rax

; 825  :     if (result == NULL)

  0005b	48 85 c0	 test	 rax, rax
  0005e	75 0a		 jne	 SHORT $LN10@tee
  00060	48 8b 6c 24 48	 mov	 rbp, QWORD PTR [rsp+72]

; 854  : }

  00065	48 83 c4 38	 add	 rsp, 56			; 00000038H
  00069	c3		 ret	 0
$LN10@tee:

; 826  :         return NULL;
; 827  :     if (n == 0)

  0006a	48 83 7c 24 50
	00		 cmp	 QWORD PTR n$[rsp], 0

; 828  :         return result;

  00070	0f 84 e8 00 00
	00		 je	 $LN18@tee

; 829  :     it = PyObject_GetIter(iterable);

  00076	48 8b 4c 24 58	 mov	 rcx, QWORD PTR iterable$[rsp]
  0007b	48 89 5c 24 40	 mov	 QWORD PTR [rsp+64], rbx
  00080	e8 00 00 00 00	 call	 PyObject_GetIter
  00085	48 8b d8	 mov	 rbx, rax

; 830  :     if (it == NULL) {

  00088	48 85 c0	 test	 rax, rax
  0008b	75 19		 jne	 SHORT $LN8@tee

; 831  :         Py_DECREF(result);

  0008d	48 8b cd	 mov	 rcx, rbp
  00090	e8 00 00 00 00	 call	 _Py_DecRef
  00095	48 8b 5c 24 40	 mov	 rbx, QWORD PTR [rsp+64]
  0009a	48 8b 6c 24 48	 mov	 rbp, QWORD PTR [rsp+72]

; 832  :         return NULL;

  0009f	33 c0		 xor	 eax, eax

; 854  : }

  000a1	48 83 c4 38	 add	 rsp, 56			; 00000038H
  000a5	c3		 ret	 0
$LN8@tee:

; 833  :     }
; 834  :     if (!_PyObject_HasAttrId(it, &PyId___copy__)) {

  000a6	8b 0d 00 00 00
	00		 mov	 ecx, DWORD PTR _tls_index
  000ac	65 48 8b 04 25
	58 00 00 00	 mov	 rax, QWORD PTR gs:88
  000b5	ba 00 00 00 00	 mov	 edx, OFFSET FLAT:?PyId___copy__@?1??tee@@9@9
  000ba	48 89 74 24 30	 mov	 QWORD PTR [rsp+48], rsi
  000bf	4c 89 64 24 20	 mov	 QWORD PTR [rsp+32], r12
  000c4	4c 8b 24 c8	 mov	 r12, QWORD PTR [rax+rcx*8]
  000c8	4c 03 e2	 add	 r12, rdx
  000cb	48 8b cb	 mov	 rcx, rbx
  000ce	49 8b d4	 mov	 rdx, r12
  000d1	e8 00 00 00 00	 call	 _PyObject_HasAttrId
  000d6	85 c0		 test	 eax, eax
  000d8	75 24		 jne	 SHORT $LN7@tee

; 835  :         copyable = tee_fromiterable(it);

  000da	48 8b cb	 mov	 rcx, rbx
  000dd	e8 00 00 00 00	 call	 tee_fromiterable

; 836  :         Py_DECREF(it);

  000e2	48 8b cb	 mov	 rcx, rbx
  000e5	48 8b f0	 mov	 rsi, rax
  000e8	e8 00 00 00 00	 call	 _Py_DecRef

; 837  :         if (copyable == NULL) {

  000ed	48 85 f6	 test	 rsi, rsi
  000f0	75 0f		 jne	 SHORT $LN5@tee

; 838  :             Py_DECREF(result);

  000f2	48 8b cd	 mov	 rcx, rbp
  000f5	e8 00 00 00 00	 call	 _Py_DecRef

; 839  :             return NULL;

  000fa	33 c0		 xor	 eax, eax
  000fc	eb 51		 jmp	 SHORT $LN21@tee
$LN7@tee:

; 840  :         }
; 841  :     } else
; 842  :         copyable = it;

  000fe	48 8b f3	 mov	 rsi, rbx
$LN5@tee:

; 844  :     for (i=1 ; i<n ; i++) {

  00101	bb 01 00 00 00	 mov	 ebx, 1
  00106	48 89 75 70	 mov	 QWORD PTR [rbp+112], rsi
  0010a	48 89 7c 24 28	 mov	 QWORD PTR [rsp+40], rdi
  0010f	48 3b 5c 24 50	 cmp	 rbx, QWORD PTR n$[rsp]
  00114	7d 31		 jge	 SHORT $LN2@tee

; 843  :     PyTuple_SET_ITEM(result, 0, copyable);

  00116	48 8d 7d 78	 lea	 rdi, QWORD PTR [rbp+120]
  0011a	66 0f 1f 44 00
	00		 npad	 6
$LL4@tee:

; 845  : 
; 846  :         copyable = _PyObject_CallMethodId(copyable, &PyId___copy__, NULL);

  00120	45 33 c0	 xor	 r8d, r8d
  00123	49 8b d4	 mov	 rdx, r12
  00126	48 8b ce	 mov	 rcx, rsi
  00129	e8 00 00 00 00	 call	 _PyObject_CallMethodId
  0012e	48 8b f0	 mov	 rsi, rax

; 847  :         if (copyable == NULL) {

  00131	48 85 c0	 test	 rax, rax
  00134	74 32		 je	 SHORT $LN16@tee

; 850  :         }
; 851  :         PyTuple_SET_ITEM(result, i, copyable);

  00136	48 89 07	 mov	 QWORD PTR [rdi], rax
  00139	48 ff c3	 inc	 rbx
  0013c	48 83 c7 08	 add	 rdi, 8
  00140	48 3b 5c 24 50	 cmp	 rbx, QWORD PTR n$[rsp]
  00145	7c d9		 jl	 SHORT $LL4@tee
$LN2@tee:

; 852  :     }
; 853  :     return result;

  00147	48 8b c5	 mov	 rax, rbp
$LN22@tee:
  0014a	48 8b 7c 24 28	 mov	 rdi, QWORD PTR [rsp+40]
$LN21@tee:
  0014f	48 8b 74 24 30	 mov	 rsi, QWORD PTR [rsp+48]
  00154	4c 8b 64 24 20	 mov	 r12, QWORD PTR [rsp+32]
  00159	48 8b 5c 24 40	 mov	 rbx, QWORD PTR [rsp+64]
$LN18@tee:
  0015e	48 8b 6c 24 48	 mov	 rbp, QWORD PTR [rsp+72]

; 854  : }

  00163	48 83 c4 38	 add	 rsp, 56			; 00000038H
  00167	c3		 ret	 0
$LN16@tee:

; 848  :             Py_DECREF(result);

  00168	48 8b cd	 mov	 rcx, rbp
  0016b	e8 00 00 00 00	 call	 _Py_DecRef

; 849  :             return NULL;

  00170	33 c0		 xor	 eax, eax
  00172	eb d6		 jmp	 SHORT $LN22@tee
tee	ENDP
_TEXT	ENDS
PUBLIC	??_C@_05EEELFEFN@cycle?$AA@			; `string'
PUBLIC	??_C@_07BBALHKAM@cycle?$CI?$CJ?$AA@		; `string'
EXTRN	_PyArg_NoKeywords:PROC
;	COMDAT pdata
pdata	SEGMENT
$pdata$cycle_new DD imagerel cycle_new
	DD	imagerel cycle_new+118
	DD	imagerel $unwind$cycle_new
pdata	ENDS
;	COMDAT pdata
pdata	SEGMENT
$pdata$0$cycle_new DD imagerel cycle_new+118
	DD	imagerel cycle_new+162
	DD	imagerel $chain$0$cycle_new
pdata	ENDS
;	COMDAT pdata
pdata	SEGMENT
$pdata$2$cycle_new DD imagerel cycle_new+162
	DD	imagerel cycle_new+212
	DD	imagerel $chain$2$cycle_new
pdata	ENDS
;	COMDAT pdata
pdata	SEGMENT
$pdata$4$cycle_new DD imagerel cycle_new+212
	DD	imagerel cycle_new+243
	DD	imagerel $chain$4$cycle_new
pdata	ENDS
;	COMDAT xdata
xdata	SEGMENT
$chain$4$cycle_new DD 020021H
	DD	097400H
	DD	imagerel cycle_new
	DD	imagerel cycle_new+118
	DD	imagerel $unwind$cycle_new
xdata	ENDS
;	COMDAT xdata
xdata	SEGMENT
$chain$2$cycle_new DD 020021H
	DD	097400H
	DD	imagerel cycle_new
	DD	imagerel cycle_new+118
	DD	imagerel $unwind$cycle_new
xdata	ENDS
;	COMDAT xdata
xdata	SEGMENT
$chain$0$cycle_new DD 020521H
	DD	097405H
	DD	imagerel cycle_new
	DD	imagerel cycle_new+118
	DD	imagerel $unwind$cycle_new
xdata	ENDS
;	COMDAT xdata
xdata	SEGMENT
$unwind$cycle_new DD 040a01H
	DD	0a340aH
	DD	06006520aH
xdata	ENDS
;	COMDAT ??_C@_05EEELFEFN@cycle?$AA@
CONST	SEGMENT
??_C@_05EEELFEFN@cycle?$AA@ DB 'cycle', 00H		; `string'
CONST	ENDS
;	COMDAT ??_C@_07BBALHKAM@cycle?$CI?$CJ?$AA@
CONST	SEGMENT
??_C@_07BBALHKAM@cycle?$CI?$CJ?$AA@ DB 'cycle()', 00H	; `string'
; Function compile flags: /Ogtpy
CONST	ENDS
;	COMDAT cycle_new
_TEXT	SEGMENT
iterable$ = 64
type$ = 64
args$ = 72
kwds$ = 80
cycle_new PROC						; COMDAT

; 873  : {

  00000	48 89 5c 24 18	 mov	 QWORD PTR [rsp+24], rbx
  00005	56		 push	 rsi
  00006	48 83 ec 30	 sub	 rsp, 48			; 00000030H

; 874  :     PyObject *it;
; 875  :     PyObject *iterable;
; 876  :     PyObject *saved;
; 877  :     cycleobject *lz;
; 878  : 
; 879  :     if (type == &cycle_type && !_PyArg_NoKeywords("cycle()", kwds))

  0000a	48 8d 05 00 00
	00 00		 lea	 rax, OFFSET FLAT:cycle_type
  00011	48 8b da	 mov	 rbx, rdx
  00014	48 8b f1	 mov	 rsi, rcx
  00017	48 3b c8	 cmp	 rcx, rax
  0001a	75 20		 jne	 SHORT $LN5@cycle_new
  0001c	48 8d 0d 00 00
	00 00		 lea	 rcx, OFFSET FLAT:??_C@_07BBALHKAM@cycle?$CI?$CJ?$AA@
  00023	49 8b d0	 mov	 rdx, r8
  00026	e8 00 00 00 00	 call	 _PyArg_NoKeywords
  0002b	85 c0		 test	 eax, eax
  0002d	75 0d		 jne	 SHORT $LN5@cycle_new
$LN9@cycle_new:

; 880  :         return NULL;

  0002f	33 c0		 xor	 eax, eax

; 904  :     lz->saved = saved;
; 905  :     lz->firstpass = 0;
; 906  : 
; 907  :     return (PyObject *)lz;
; 908  : }

  00031	48 8b 5c 24 50	 mov	 rbx, QWORD PTR [rsp+80]
  00036	48 83 c4 30	 add	 rsp, 48			; 00000030H
  0003a	5e		 pop	 rsi
  0003b	c3		 ret	 0
$LN5@cycle_new:

; 881  : 
; 882  :     if (!PyArg_UnpackTuple(args, "cycle", 1, 1, &iterable))

  0003c	48 8d 44 24 40	 lea	 rax, QWORD PTR iterable$[rsp]
  00041	41 b9 01 00 00
	00		 mov	 r9d, 1
  00047	48 8d 15 00 00
	00 00		 lea	 rdx, OFFSET FLAT:??_C@_05EEELFEFN@cycle?$AA@
  0004e	45 8b c1	 mov	 r8d, r9d
  00051	48 8b cb	 mov	 rcx, rbx
  00054	48 89 44 24 20	 mov	 QWORD PTR [rsp+32], rax
  00059	e8 00 00 00 00	 call	 PyArg_UnpackTuple
  0005e	85 c0		 test	 eax, eax

; 883  :         return NULL;

  00060	74 cd		 je	 SHORT $LN9@cycle_new

; 884  : 
; 885  :     /* Get iterator. */
; 886  :     it = PyObject_GetIter(iterable);

  00062	48 8b 4c 24 40	 mov	 rcx, QWORD PTR iterable$[rsp]
  00067	e8 00 00 00 00	 call	 PyObject_GetIter
  0006c	48 8b d8	 mov	 rbx, rax

; 887  :     if (it == NULL)

  0006f	48 85 c0	 test	 rax, rax

; 888  :         return NULL;

  00072	74 bb		 je	 SHORT $LN9@cycle_new

; 889  : 
; 890  :     saved = PyList_New(0);

  00074	33 c9		 xor	 ecx, ecx
  00076	48 89 7c 24 48	 mov	 QWORD PTR [rsp+72], rdi
  0007b	e8 00 00 00 00	 call	 PyList_New
  00080	48 8b f8	 mov	 rdi, rax

; 891  :     if (saved == NULL) {

  00083	48 85 c0	 test	 rax, rax
  00086	75 1a		 jne	 SHORT $LN2@cycle_new

; 892  :         Py_DECREF(it);

  00088	48 8b cb	 mov	 rcx, rbx
  0008b	e8 00 00 00 00	 call	 _Py_DecRef
  00090	48 8b 7c 24 48	 mov	 rdi, QWORD PTR [rsp+72]

; 893  :         return NULL;

  00095	33 c0		 xor	 eax, eax

; 904  :     lz->saved = saved;
; 905  :     lz->firstpass = 0;
; 906  : 
; 907  :     return (PyObject *)lz;
; 908  : }

  00097	48 8b 5c 24 50	 mov	 rbx, QWORD PTR [rsp+80]
  0009c	48 83 c4 30	 add	 rsp, 48			; 00000030H
  000a0	5e		 pop	 rsi
  000a1	c3		 ret	 0
$LN2@cycle_new:

; 894  :     }
; 895  : 
; 896  :     /* create cycleobject structure */
; 897  :     lz = (cycleobject *)type->tp_alloc(type, 0);

  000a2	33 d2		 xor	 edx, edx
  000a4	48 8b ce	 mov	 rcx, rsi
  000a7	ff 96 88 01 00
	00		 call	 QWORD PTR [rsi+392]

; 898  :     if (lz == NULL) {

  000ad	48 85 c0	 test	 rax, rax
  000b0	75 22		 jne	 SHORT $LN1@cycle_new

; 899  :         Py_DECREF(it);

  000b2	48 8b cb	 mov	 rcx, rbx
  000b5	e8 00 00 00 00	 call	 _Py_DecRef

; 900  :         Py_DECREF(saved);

  000ba	48 8b cf	 mov	 rcx, rdi
  000bd	e8 00 00 00 00	 call	 _Py_DecRef
  000c2	48 8b 7c 24 48	 mov	 rdi, QWORD PTR [rsp+72]

; 901  :         return NULL;

  000c7	33 c0		 xor	 eax, eax

; 904  :     lz->saved = saved;
; 905  :     lz->firstpass = 0;
; 906  : 
; 907  :     return (PyObject *)lz;
; 908  : }

  000c9	48 8b 5c 24 50	 mov	 rbx, QWORD PTR [rsp+80]
  000ce	48 83 c4 30	 add	 rsp, 48			; 00000030H
  000d2	5e		 pop	 rsi
  000d3	c3		 ret	 0
$LN1@cycle_new:

; 902  :     }
; 903  :     lz->it = it;

  000d4	48 89 58 60	 mov	 QWORD PTR [rax+96], rbx

; 904  :     lz->saved = saved;
; 905  :     lz->firstpass = 0;
; 906  : 
; 907  :     return (PyObject *)lz;
; 908  : }

  000d8	48 8b 5c 24 50	 mov	 rbx, QWORD PTR [rsp+80]
  000dd	48 89 78 68	 mov	 QWORD PTR [rax+104], rdi
  000e1	48 8b 7c 24 48	 mov	 rdi, QWORD PTR [rsp+72]
  000e6	c7 40 70 00 00
	00 00		 mov	 DWORD PTR [rax+112], 0
  000ed	48 83 c4 30	 add	 rsp, 48			; 00000030H
  000f1	5e		 pop	 rsi
  000f2	c3		 ret	 0
cycle_new ENDP
_TEXT	ENDS
;	COMDAT pdata
; File c:\src\pyparallel\include\object.h
pdata	SEGMENT
$pdata$cycle_dealloc DD imagerel cycle_dealloc
	DD	imagerel cycle_dealloc+262
	DD	imagerel $unwind$cycle_dealloc
pdata	ENDS
;	COMDAT xdata
xdata	SEGMENT
$unwind$cycle_dealloc DD 040a01H
	DD	08340aH
	DD	07006520aH
; Function compile flags: /Ogtpy
; File c:\src\pyparallel\modules\itertoolsmodule.c
xdata	ENDS
;	COMDAT cycle_dealloc
_TEXT	SEGMENT
lz$ = 64
cycle_dealloc PROC					; COMDAT

; 912  : {

  00000	48 89 5c 24 08	 mov	 QWORD PTR [rsp+8], rbx
  00005	57		 push	 rdi
  00006	48 83 ec 30	 sub	 rsp, 48			; 00000030H
  0000a	48 8b f9	 mov	 rdi, rcx

; 913  :     PyObject_GC_UnTrack(lz);

  0000d	e8 00 00 00 00	 call	 PyObject_GC_UnTrack

; 914  :     Py_XDECREF(lz->saved);

  00012	48 8b 5f 68	 mov	 rbx, QWORD PTR [rdi+104]
  00016	48 85 db	 test	 rbx, rbx
  00019	74 65		 je	 SHORT $LN7@cycle_deal
  0001b	e8 00 00 00 00	 call	 _Py_PXCTX
  00020	85 c0		 test	 eax, eax
  00022	75 5c		 jne	 SHORT $LN7@cycle_deal
  00024	48 8b 43 20	 mov	 rax, QWORD PTR [rbx+32]
  00028	a8 20		 test	 al, 32			; 00000020H
  0002a	75 4c		 jne	 SHORT $LN15@cycle_deal
  0002c	84 c0		 test	 al, al
  0002e	78 48		 js	 SHORT $LN15@cycle_deal
  00030	a8 02		 test	 al, 2
  00032	75 4c		 jne	 SHORT $LN7@cycle_deal
  00034	48 ff 4b 50	 dec	 QWORD PTR [rbx+80]
  00038	75 46		 jne	 SHORT $LN7@cycle_deal
  0003a	48 8d 15 00 00
	00 00		 lea	 rdx, OFFSET FLAT:??_C@_0CD@HDJFDCDP@c?3?2src?2pyparallel?2include?2object@
  00041	48 8d 0d 00 00
	00 00		 lea	 rcx, OFFSET FLAT:??_C@_0L@DMHMLFIA@_Py_DecRef?$AA@
  00048	4c 8b cb	 mov	 r9, rbx
  0004b	41 b8 a4 03 00
	00		 mov	 r8d, 932		; 000003a4H
  00051	c7 44 24 20 10
	00 00 00	 mov	 DWORD PTR [rsp+32], 16
  00059	e8 00 00 00 00	 call	 _PyParallel_Guard
  0005e	48 8b cb	 mov	 rcx, rbx
  00061	85 c0		 test	 eax, eax
  00063	74 07		 je	 SHORT $LN20@cycle_deal
  00065	e8 00 00 00 00	 call	 _Px_Dealloc
  0006a	eb 14		 jmp	 SHORT $LN7@cycle_deal
$LN20@cycle_deal:
  0006c	48 8b 43 58	 mov	 rax, QWORD PTR [rbx+88]
  00070	ff 90 88 00 00
	00		 call	 QWORD PTR [rax+136]
  00076	eb 08		 jmp	 SHORT $LN7@cycle_deal
$LN15@cycle_deal:
  00078	48 8b cb	 mov	 rcx, rbx
  0007b	e8 00 00 00 00	 call	 Px_DecRef
$LN7@cycle_deal:

; 915  :     Py_XDECREF(lz->it);

  00080	48 8b 5f 60	 mov	 rbx, QWORD PTR [rdi+96]
  00084	48 85 db	 test	 rbx, rbx
  00087	74 65		 je	 SHORT $LN3@cycle_deal
  00089	e8 00 00 00 00	 call	 _Py_PXCTX
  0008e	85 c0		 test	 eax, eax
  00090	75 5c		 jne	 SHORT $LN3@cycle_deal
  00092	48 8b 43 20	 mov	 rax, QWORD PTR [rbx+32]
  00096	a8 20		 test	 al, 32			; 00000020H
  00098	75 4c		 jne	 SHORT $LN26@cycle_deal
  0009a	84 c0		 test	 al, al
  0009c	78 48		 js	 SHORT $LN26@cycle_deal
  0009e	a8 02		 test	 al, 2
  000a0	75 4c		 jne	 SHORT $LN3@cycle_deal
  000a2	48 ff 4b 50	 dec	 QWORD PTR [rbx+80]
  000a6	75 46		 jne	 SHORT $LN3@cycle_deal
  000a8	48 8d 15 00 00
	00 00		 lea	 rdx, OFFSET FLAT:??_C@_0CD@HDJFDCDP@c?3?2src?2pyparallel?2include?2object@
  000af	48 8d 0d 00 00
	00 00		 lea	 rcx, OFFSET FLAT:??_C@_0L@DMHMLFIA@_Py_DecRef?$AA@
  000b6	4c 8b cb	 mov	 r9, rbx
  000b9	41 b8 a4 03 00
	00		 mov	 r8d, 932		; 000003a4H
  000bf	c7 44 24 20 10
	00 00 00	 mov	 DWORD PTR [rsp+32], 16
  000c7	e8 00 00 00 00	 call	 _PyParallel_Guard
  000cc	48 8b cb	 mov	 rcx, rbx
  000cf	85 c0		 test	 eax, eax
  000d1	74 07		 je	 SHORT $LN31@cycle_deal
  000d3	e8 00 00 00 00	 call	 _Px_Dealloc
  000d8	eb 14		 jmp	 SHORT $LN3@cycle_deal
$LN31@cycle_deal:
  000da	48 8b 43 58	 mov	 rax, QWORD PTR [rbx+88]
  000de	ff 90 88 00 00
	00		 call	 QWORD PTR [rax+136]
  000e4	eb 08		 jmp	 SHORT $LN3@cycle_deal
$LN26@cycle_deal:
  000e6	48 8b cb	 mov	 rcx, rbx
  000e9	e8 00 00 00 00	 call	 Px_DecRef
$LN3@cycle_deal:

; 916  :     Py_TYPE(lz)->tp_free(lz);

  000ee	48 8b 47 58	 mov	 rax, QWORD PTR [rdi+88]
  000f2	48 8b cf	 mov	 rcx, rdi

; 917  : }

  000f5	48 8b 5c 24 40	 mov	 rbx, QWORD PTR [rsp+64]
  000fa	48 83 c4 30	 add	 rsp, 48			; 00000030H
  000fe	5f		 pop	 rdi
  000ff	48 ff a0 98 01
	00 00		 rex_jmp QWORD PTR [rax+408]
cycle_dealloc ENDP
_TEXT	ENDS
PUBLIC	??_C@_0P@KFPCJLFJ@cycle_traverse?$AA@		; `string'
;	COMDAT pdata
pdata	SEGMENT
$pdata$cycle_traverse DD imagerel cycle_traverse
	DD	imagerel cycle_traverse+152
	DD	imagerel $unwind$cycle_traverse
pdata	ENDS
;	COMDAT xdata
xdata	SEGMENT
$unwind$cycle_traverse DD 060f01H
	DD	07640fH
	DD	06340fH
	DD	0700b320fH
xdata	ENDS
;	COMDAT ??_C@_0P@KFPCJLFJ@cycle_traverse?$AA@
CONST	SEGMENT
??_C@_0P@KFPCJLFJ@cycle_traverse?$AA@ DB 'cycle_traverse', 00H ; `string'
; Function compile flags: /Ogtpy
CONST	ENDS
;	COMDAT cycle_traverse
_TEXT	SEGMENT
lz$ = 48
visit$ = 56
arg$ = 64
cycle_traverse PROC					; COMDAT

; 921  : {

  00000	48 89 5c 24 08	 mov	 QWORD PTR [rsp+8], rbx
  00005	48 89 74 24 10	 mov	 QWORD PTR [rsp+16], rsi
  0000a	57		 push	 rdi
  0000b	48 83 ec 20	 sub	 rsp, 32			; 00000020H
  0000f	49 8b f8	 mov	 rdi, r8
  00012	48 8b f2	 mov	 rsi, rdx
  00015	48 8b d9	 mov	 rbx, rcx

; 922  :     Py_VISIT(lz->it);

  00018	e8 00 00 00 00	 call	 _Py_PXCTX
  0001d	85 c0		 test	 eax, eax
  0001f	74 1c		 je	 SHORT $LN9@cycle_trav
  00021	48 8d 15 00 00
	00 00		 lea	 rdx, OFFSET FLAT:??_C@_0BN@PMILGFFG@?4?4?2Modules?2itertoolsmodule?4c?$AA@
  00028	48 8d 0d 00 00
	00 00		 lea	 rcx, OFFSET FLAT:??_C@_0P@KFPCJLFJ@cycle_traverse?$AA@
  0002f	45 33 c9	 xor	 r9d, r9d
  00032	41 b8 9a 03 00
	00		 mov	 r8d, 922		; 0000039aH
  00038	e8 00 00 00 00	 call	 _PyParallel_ContextGuardFailure
$LN9@cycle_trav:
  0003d	48 8b 4b 60	 mov	 rcx, QWORD PTR [rbx+96]
  00041	48 85 c9	 test	 rcx, rcx
  00044	74 09		 je	 SHORT $LN11@cycle_trav
  00046	48 8b d7	 mov	 rdx, rdi
  00049	ff d6		 call	 rsi
  0004b	85 c0		 test	 eax, eax
  0004d	75 39		 jne	 SHORT $LN13@cycle_trav
$LN11@cycle_trav:

; 923  :     Py_VISIT(lz->saved);

  0004f	e8 00 00 00 00	 call	 _Py_PXCTX
  00054	85 c0		 test	 eax, eax
  00056	74 1c		 je	 SHORT $LN3@cycle_trav
  00058	48 8d 15 00 00
	00 00		 lea	 rdx, OFFSET FLAT:??_C@_0BN@PMILGFFG@?4?4?2Modules?2itertoolsmodule?4c?$AA@
  0005f	48 8d 0d 00 00
	00 00		 lea	 rcx, OFFSET FLAT:??_C@_0P@KFPCJLFJ@cycle_traverse?$AA@
  00066	45 33 c9	 xor	 r9d, r9d
  00069	41 b8 9b 03 00
	00		 mov	 r8d, 923		; 0000039bH
  0006f	e8 00 00 00 00	 call	 _PyParallel_ContextGuardFailure
$LN3@cycle_trav:
  00074	48 8b 4b 68	 mov	 rcx, QWORD PTR [rbx+104]
  00078	48 85 c9	 test	 rcx, rcx
  0007b	74 09		 je	 SHORT $LN5@cycle_trav
  0007d	48 8b d7	 mov	 rdx, rdi
  00080	ff d6		 call	 rsi
  00082	85 c0		 test	 eax, eax
  00084	75 02		 jne	 SHORT $LN13@cycle_trav
$LN5@cycle_trav:

; 924  :     return 0;

  00086	33 c0		 xor	 eax, eax
$LN13@cycle_trav:

; 925  : }

  00088	48 8b 5c 24 30	 mov	 rbx, QWORD PTR [rsp+48]
  0008d	48 8b 74 24 38	 mov	 rsi, QWORD PTR [rsp+56]
  00092	48 83 c4 20	 add	 rsp, 32			; 00000020H
  00096	5f		 pop	 rdi
  00097	c3		 ret	 0
cycle_traverse ENDP
_TEXT	ENDS
EXTRN	PyList_Append:PROC
EXTRN	PyList_Size:PROC
EXTRN	PyErr_Clear:PROC
EXTRN	PyErr_ExceptionMatches:PROC
EXTRN	PyExc_StopIteration:QWORD
EXTRN	PyErr_Occurred:PROC
;	COMDAT pdata
; File c:\src\pyparallel\include\object.h
pdata	SEGMENT
$pdata$cycle_next DD imagerel cycle_next
	DD	imagerel cycle_next+299
	DD	imagerel $unwind$cycle_next
pdata	ENDS
;	COMDAT xdata
xdata	SEGMENT
$unwind$cycle_next DD 040a01H
	DD	08340aH
	DD	07006520aH
; Function compile flags: /Ogtpy
; File c:\src\pyparallel\modules\itertoolsmodule.c
xdata	ENDS
;	COMDAT cycle_next
_TEXT	SEGMENT
lz$ = 64
cycle_next PROC						; COMDAT

; 929  : {

  00000	48 89 5c 24 08	 mov	 QWORD PTR [rsp+8], rbx
  00005	57		 push	 rdi
  00006	48 83 ec 30	 sub	 rsp, 48			; 00000030H
  0000a	48 8b f9	 mov	 rdi, rcx

; 930  :     PyObject *item;
; 931  :     PyObject *it;
; 932  :     PyObject *tmp;
; 933  : 
; 934  :     while (1) {
; 935  :         item = PyIter_Next(lz->it);

  0000d	48 8b 49 60	 mov	 rcx, QWORD PTR [rcx+96]
  00011	e8 00 00 00 00	 call	 PyIter_Next
  00016	48 8b d8	 mov	 rbx, rax

; 936  :         if (item != NULL) {

  00019	48 85 c0	 test	 rax, rax
  0001c	0f 85 d0 00 00
	00		 jne	 $LN25@cycle_next
$LL9@cycle_next:

; 942  :         }
; 943  :         if (PyErr_Occurred()) {

  00022	e8 00 00 00 00	 call	 PyErr_Occurred
  00027	48 85 c0	 test	 rax, rax
  0002a	74 19		 je	 SHORT $LN3@cycle_next

; 944  :             if (PyErr_ExceptionMatches(PyExc_StopIteration))

  0002c	48 8b 0d 00 00
	00 00		 mov	 rcx, QWORD PTR PyExc_StopIteration
  00033	e8 00 00 00 00	 call	 PyErr_ExceptionMatches
  00038	85 c0		 test	 eax, eax
  0003a	0f 84 d0 00 00
	00		 je	 $LN4@cycle_next

; 945  :                 PyErr_Clear();

  00040	e8 00 00 00 00	 call	 PyErr_Clear
$LN3@cycle_next:

; 946  :             else
; 947  :                 return NULL;
; 948  :         }
; 949  :         if (PyList_Size(lz->saved) == 0)

  00045	48 8b 4f 68	 mov	 rcx, QWORD PTR [rdi+104]
  00049	e8 00 00 00 00	 call	 PyList_Size
  0004e	48 85 c0	 test	 rax, rax
  00051	0f 84 b9 00 00
	00		 je	 $LN4@cycle_next

; 950  :             return NULL;
; 951  :         it = PyObject_GetIter(lz->saved);

  00057	48 8b 4f 68	 mov	 rcx, QWORD PTR [rdi+104]
  0005b	e8 00 00 00 00	 call	 PyObject_GetIter

; 952  :         if (it == NULL)

  00060	48 85 c0	 test	 rax, rax
  00063	0f 84 a7 00 00
	00		 je	 $LN4@cycle_next

; 953  :             return NULL;
; 954  :         tmp = lz->it;

  00069	48 8b 5f 60	 mov	 rbx, QWORD PTR [rdi+96]

; 955  :         lz->it = it;
; 956  :         lz->firstpass = 1;

  0006d	c7 47 70 01 00
	00 00		 mov	 DWORD PTR [rdi+112], 1
  00074	48 89 47 60	 mov	 QWORD PTR [rdi+96], rax

; 957  :         Py_DECREF(tmp);

  00078	e8 00 00 00 00	 call	 _Py_PXCTX
  0007d	85 c0		 test	 eax, eax
  0007f	75 5c		 jne	 SHORT $LN22@cycle_next
  00081	48 8b 43 20	 mov	 rax, QWORD PTR [rbx+32]
  00085	a8 20		 test	 al, 32			; 00000020H
  00087	75 4c		 jne	 SHORT $LN16@cycle_next
  00089	84 c0		 test	 al, al
  0008b	78 48		 js	 SHORT $LN16@cycle_next
  0008d	a8 02		 test	 al, 2
  0008f	75 4c		 jne	 SHORT $LN22@cycle_next
  00091	48 ff 4b 50	 dec	 QWORD PTR [rbx+80]
  00095	75 46		 jne	 SHORT $LN22@cycle_next
  00097	48 8d 15 00 00
	00 00		 lea	 rdx, OFFSET FLAT:??_C@_0CD@HDJFDCDP@c?3?2src?2pyparallel?2include?2object@
  0009e	48 8d 0d 00 00
	00 00		 lea	 rcx, OFFSET FLAT:??_C@_0L@DMHMLFIA@_Py_DecRef?$AA@
  000a5	4c 8b cb	 mov	 r9, rbx
  000a8	41 b8 a4 03 00
	00		 mov	 r8d, 932		; 000003a4H
  000ae	c7 44 24 20 10
	00 00 00	 mov	 DWORD PTR [rsp+32], 16
  000b6	e8 00 00 00 00	 call	 _PyParallel_Guard
  000bb	48 8b cb	 mov	 rcx, rbx
  000be	85 c0		 test	 eax, eax
  000c0	74 07		 je	 SHORT $LN21@cycle_next
  000c2	e8 00 00 00 00	 call	 _Px_Dealloc
  000c7	eb 14		 jmp	 SHORT $LN22@cycle_next
$LN21@cycle_next:
  000c9	48 8b 43 58	 mov	 rax, QWORD PTR [rbx+88]
  000cd	ff 90 88 00 00
	00		 call	 QWORD PTR [rax+136]
  000d3	eb 08		 jmp	 SHORT $LN22@cycle_next
$LN16@cycle_next:
  000d5	48 8b cb	 mov	 rcx, rbx
  000d8	e8 00 00 00 00	 call	 Px_DecRef
$LN22@cycle_next:

; 930  :     PyObject *item;
; 931  :     PyObject *it;
; 932  :     PyObject *tmp;
; 933  : 
; 934  :     while (1) {
; 935  :         item = PyIter_Next(lz->it);

  000dd	48 8b 4f 60	 mov	 rcx, QWORD PTR [rdi+96]
  000e1	e8 00 00 00 00	 call	 PyIter_Next
  000e6	48 8b d8	 mov	 rbx, rax

; 936  :         if (item != NULL) {

  000e9	48 85 c0	 test	 rax, rax
  000ec	0f 84 30 ff ff
	ff		 je	 $LL9@cycle_next
$LN25@cycle_next:

; 937  :             if (!lz->firstpass && PyList_Append(lz->saved, item)) {

  000f2	83 7f 70 00	 cmp	 DWORD PTR [rdi+112], 0
  000f6	75 25		 jne	 SHORT $LN6@cycle_next
  000f8	48 8b 4f 68	 mov	 rcx, QWORD PTR [rdi+104]
  000fc	48 8b d3	 mov	 rdx, rbx
  000ff	e8 00 00 00 00	 call	 PyList_Append
  00104	85 c0		 test	 eax, eax
  00106	74 15		 je	 SHORT $LN6@cycle_next

; 938  :                 Py_DECREF(item);

  00108	48 8b cb	 mov	 rcx, rbx
  0010b	e8 00 00 00 00	 call	 _Py_DecRef
$LN4@cycle_next:

; 939  :                 return NULL;

  00110	33 c0		 xor	 eax, eax

; 958  :     }
; 959  : }

  00112	48 8b 5c 24 40	 mov	 rbx, QWORD PTR [rsp+64]
  00117	48 83 c4 30	 add	 rsp, 48			; 00000030H
  0011b	5f		 pop	 rdi
  0011c	c3		 ret	 0
$LN6@cycle_next:

; 940  :             }
; 941  :             return item;

  0011d	48 8b c3	 mov	 rax, rbx

; 958  :     }
; 959  : }

  00120	48 8b 5c 24 40	 mov	 rbx, QWORD PTR [rsp+64]
  00125	48 83 c4 30	 add	 rsp, 48			; 00000030H
  00129	5f		 pop	 rdi
  0012a	c3		 ret	 0
cycle_next ENDP
_TEXT	ENDS
PUBLIC	??_C@_08JBCIEMOA@O?$CIO?$CJ?$CIOi?$CJ?$AA@	; `string'
;	COMDAT pdata
pdata	SEGMENT
$pdata$cycle_reduce DD imagerel cycle_reduce
	DD	imagerel cycle_reduce+40
	DD	imagerel $unwind$cycle_reduce
pdata	ENDS
;	COMDAT xdata
xdata	SEGMENT
$unwind$cycle_reduce DD 010401H
	DD	06204H
xdata	ENDS
;	COMDAT ??_C@_08JBCIEMOA@O?$CIO?$CJ?$CIOi?$CJ?$AA@
CONST	SEGMENT
??_C@_08JBCIEMOA@O?$CIO?$CJ?$CIOi?$CJ?$AA@ DB 'O(O)(Oi)', 00H ; `string'
; Function compile flags: /Ogtpy
CONST	ENDS
;	COMDAT cycle_reduce
_TEXT	SEGMENT
lz$ = 64
cycle_reduce PROC					; COMDAT

; 963  : {

  00000	48 83 ec 38	 sub	 rsp, 56			; 00000038H

; 964  :     /* Create a new cycle with the iterator tuple, then set
; 965  :      * the saved state on it.
; 966  :      */
; 967  :     return Py_BuildValue("O(O)(Oi)", Py_TYPE(lz),
; 968  :         lz->it, lz->saved, lz->firstpass);

  00004	8b 41 70	 mov	 eax, DWORD PTR [rcx+112]
  00007	4c 8b 49 68	 mov	 r9, QWORD PTR [rcx+104]
  0000b	4c 8b 41 60	 mov	 r8, QWORD PTR [rcx+96]
  0000f	48 8b 51 58	 mov	 rdx, QWORD PTR [rcx+88]
  00013	48 8d 0d 00 00
	00 00		 lea	 rcx, OFFSET FLAT:??_C@_08JBCIEMOA@O?$CIO?$CJ?$CIOi?$CJ?$AA@
  0001a	89 44 24 20	 mov	 DWORD PTR [rsp+32], eax
  0001e	e8 00 00 00 00	 call	 Py_BuildValue

; 969  :     }

  00023	48 83 c4 38	 add	 rsp, 56			; 00000038H
  00027	c3		 ret	 0
cycle_reduce ENDP
_TEXT	ENDS
PUBLIC	??_C@_0P@MIKFLMLO@cycle_setstate?$AA@		; `string'
PUBLIC	??_C@_02MPEHDMPO@Oi?$AA@			; `string'
;	COMDAT pdata
; File c:\src\pyparallel\include\object.h
pdata	SEGMENT
$pdata$cycle_setstate DD imagerel cycle_setstate
	DD	imagerel cycle_setstate+69
	DD	imagerel $unwind$cycle_setstate
pdata	ENDS
;	COMDAT pdata
pdata	SEGMENT
$pdata$0$cycle_setstate DD imagerel cycle_setstate+69
	DD	imagerel cycle_setstate+227
	DD	imagerel $chain$0$cycle_setstate
pdata	ENDS
;	COMDAT pdata
pdata	SEGMENT
$pdata$1$cycle_setstate DD imagerel cycle_setstate+227
	DD	imagerel cycle_setstate+305
	DD	imagerel $chain$1$cycle_setstate
pdata	ENDS
;	COMDAT xdata
xdata	SEGMENT
$chain$1$cycle_setstate DD 021H
	DD	imagerel cycle_setstate
	DD	imagerel cycle_setstate+69
	DD	imagerel $unwind$cycle_setstate
xdata	ENDS
;	COMDAT xdata
xdata	SEGMENT
$chain$0$cycle_setstate DD 020521H
	DD	083405H
	DD	imagerel cycle_setstate
	DD	imagerel cycle_setstate+69
	DD	imagerel $unwind$cycle_setstate
xdata	ENDS
;	COMDAT xdata
xdata	SEGMENT
$unwind$cycle_setstate DD 040a01H
	DD	09640aH
	DD	07006520aH
xdata	ENDS
;	COMDAT ??_C@_0P@MIKFLMLO@cycle_setstate?$AA@
CONST	SEGMENT
??_C@_0P@MIKFLMLO@cycle_setstate?$AA@ DB 'cycle_setstate', 00H ; `string'
CONST	ENDS
;	COMDAT ??_C@_02MPEHDMPO@Oi?$AA@
CONST	SEGMENT
??_C@_02MPEHDMPO@Oi?$AA@ DB 'Oi', 00H			; `string'
; Function compile flags: /Ogtpy
; File c:\src\pyparallel\modules\itertoolsmodule.c
CONST	ENDS
;	COMDAT cycle_setstate
_TEXT	SEGMENT
lz$ = 64
state$ = 72
firstpass$ = 80
saved$ = 88
cycle_setstate PROC					; COMDAT

; 973  : {

  00000	48 89 74 24 10	 mov	 QWORD PTR [rsp+16], rsi
  00005	57		 push	 rdi
  00006	48 83 ec 30	 sub	 rsp, 48			; 00000030H
  0000a	48 8b c2	 mov	 rax, rdx
  0000d	48 8b f9	 mov	 rdi, rcx

; 974  :     PyObject *saved=NULL;
; 975  :     int firstpass;
; 976  :     if (!PyArg_ParseTuple(state, "Oi", &saved, &firstpass))

  00010	4c 8d 4c 24 50	 lea	 r9, QWORD PTR firstpass$[rsp]
  00015	48 8d 15 00 00
	00 00		 lea	 rdx, OFFSET FLAT:??_C@_02MPEHDMPO@Oi?$AA@
  0001c	4c 8d 44 24 58	 lea	 r8, QWORD PTR saved$[rsp]
  00021	33 f6		 xor	 esi, esi
  00023	48 8b c8	 mov	 rcx, rax
  00026	48 89 74 24 58	 mov	 QWORD PTR saved$[rsp], rsi
  0002b	e8 00 00 00 00	 call	 PyArg_ParseTuple
  00030	85 c0		 test	 eax, eax
  00032	75 0d		 jne	 SHORT $LN8@cycle_sets

; 977  :         return NULL;

  00034	33 c0		 xor	 eax, eax

; 983  : }

  00036	48 8b 74 24 48	 mov	 rsi, QWORD PTR [rsp+72]
  0003b	48 83 c4 30	 add	 rsp, 48			; 00000030H
  0003f	5f		 pop	 rdi
  00040	c3		 ret	 0
$LN8@cycle_sets:

; 978  :     Py_CLEAR(lz->saved);

  00041	4c 8b 4f 68	 mov	 r9, QWORD PTR [rdi+104]
  00045	48 89 5c 24 40	 mov	 QWORD PTR [rsp+64], rbx
  0004a	4d 85 c9	 test	 r9, r9
  0004d	74 32		 je	 SHORT $LN7@cycle_sets
  0004f	48 8d 15 00 00
	00 00		 lea	 rdx, OFFSET FLAT:??_C@_0BN@PMILGFFG@?4?4?2Modules?2itertoolsmodule?4c?$AA@
  00056	48 8d 0d 00 00
	00 00		 lea	 rcx, OFFSET FLAT:??_C@_0P@MIKFLMLO@cycle_setstate?$AA@
  0005d	41 b8 d2 03 00
	00		 mov	 r8d, 978		; 000003d2H
  00063	c7 44 24 20 10
	00 00 00	 mov	 DWORD PTR [rsp+32], 16
  0006b	e8 00 00 00 00	 call	 _PyParallel_Guard
  00070	85 c0		 test	 eax, eax
  00072	75 0d		 jne	 SHORT $LN7@cycle_sets
  00074	48 8b 4f 68	 mov	 rcx, QWORD PTR [rdi+104]
  00078	48 89 77 68	 mov	 QWORD PTR [rdi+104], rsi
  0007c	e8 00 00 00 00	 call	 _Py_DecRef
$LN7@cycle_sets:

; 979  :     lz->saved = saved;

  00081	48 8b 5c 24 58	 mov	 rbx, QWORD PTR saved$[rsp]
  00086	48 89 5f 68	 mov	 QWORD PTR [rdi+104], rbx

; 980  :     Py_XINCREF(lz->saved);

  0008a	48 85 db	 test	 rbx, rbx
  0008d	74 3b		 je	 SHORT $LN3@cycle_sets
  0008f	e8 00 00 00 00	 call	 _Py_PXCTX
  00094	85 c0		 test	 eax, eax
  00096	75 32		 jne	 SHORT $LN3@cycle_sets
  00098	48 8d 15 00 00
	00 00		 lea	 rdx, OFFSET FLAT:??_C@_0CD@HDJFDCDP@c?3?2src?2pyparallel?2include?2object@
  0009f	48 8d 0d 00 00
	00 00		 lea	 rcx, OFFSET FLAT:??_C@_0L@DHGMCEID@_Py_IncRef?$AA@
  000a6	4c 8b cb	 mov	 r9, rbx
  000a9	41 b8 89 03 00
	00		 mov	 r8d, 905		; 00000389H
  000af	c7 44 24 20 02
	00 00 00	 mov	 DWORD PTR [rsp+32], 2
  000b7	e8 00 00 00 00	 call	 _PyParallel_Guard
  000bc	85 c0		 test	 eax, eax
  000be	75 06		 jne	 SHORT $LN12@cycle_sets
  000c0	f6 43 20 20	 test	 BYTE PTR [rbx+32], 32	; 00000020H
  000c4	74 04		 je	 SHORT $LN3@cycle_sets
$LN12@cycle_sets:
  000c6	48 ff 43 50	 inc	 QWORD PTR [rbx+80]
$LN3@cycle_sets:

; 981  :     lz->firstpass = firstpass != 0;

  000ca	39 74 24 50	 cmp	 DWORD PTR firstpass$[rsp], esi
  000ce	40 0f 95 c6	 setne	 sil
  000d2	89 77 70	 mov	 DWORD PTR [rdi+112], esi

; 982  :     Py_RETURN_NONE;

  000d5	e8 00 00 00 00	 call	 _Py_PXCTX
  000da	48 8b 5c 24 40	 mov	 rbx, QWORD PTR [rsp+64]
  000df	85 c0		 test	 eax, eax
  000e1	75 3c		 jne	 SHORT $LN17@cycle_sets
  000e3	4c 8d 0d 00 00
	00 00		 lea	 r9, OFFSET FLAT:_Py_NoneStruct
  000ea	48 8d 15 00 00
	00 00		 lea	 rdx, OFFSET FLAT:??_C@_0CD@HDJFDCDP@c?3?2src?2pyparallel?2include?2object@
  000f1	48 8d 0d 00 00
	00 00		 lea	 rcx, OFFSET FLAT:??_C@_0L@DHGMCEID@_Py_IncRef?$AA@
  000f8	41 b8 89 03 00
	00		 mov	 r8d, 905		; 00000389H
  000fe	c7 44 24 20 02
	00 00 00	 mov	 DWORD PTR [rsp+32], 2
  00106	e8 00 00 00 00	 call	 _PyParallel_Guard
  0010b	85 c0		 test	 eax, eax
  0010d	75 09		 jne	 SHORT $LN16@cycle_sets
  0010f	f6 05 20 00 00
	00 20		 test	 BYTE PTR _Py_NoneStruct+32, 32 ; 00000020H
  00116	74 07		 je	 SHORT $LN17@cycle_sets
$LN16@cycle_sets:
  00118	48 ff 05 50 00
	00 00		 inc	 QWORD PTR _Py_NoneStruct+80
$LN17@cycle_sets:
  0011f	48 8d 05 00 00
	00 00		 lea	 rax, OFFSET FLAT:_Py_NoneStruct

; 983  : }

  00126	48 8b 74 24 48	 mov	 rsi, QWORD PTR [rsp+72]
  0012b	48 83 c4 30	 add	 rsp, 48			; 00000030H
  0012f	5f		 pop	 rdi
  00130	c3		 ret	 0
cycle_setstate ENDP
_TEXT	ENDS
PUBLIC	??_C@_09FPIDKODG@dropwhile?$AA@			; `string'
PUBLIC	??_C@_0M@MKGKMIKK@dropwhile?$CI?$CJ?$AA@	; `string'
;	COMDAT pdata
pdata	SEGMENT
$pdata$dropwhile_new DD imagerel dropwhile_new
	DD	imagerel dropwhile_new+197
	DD	imagerel $unwind$dropwhile_new
pdata	ENDS
;	COMDAT xdata
xdata	SEGMENT
$unwind$dropwhile_new DD 040a01H
	DD	09340aH
	DD	07006520aH
xdata	ENDS
;	COMDAT ??_C@_09FPIDKODG@dropwhile?$AA@
CONST	SEGMENT
??_C@_09FPIDKODG@dropwhile?$AA@ DB 'dropwhile', 00H	; `string'
CONST	ENDS
;	COMDAT ??_C@_0M@MKGKMIKK@dropwhile?$CI?$CJ?$AA@
CONST	SEGMENT
??_C@_0M@MKGKMIKK@dropwhile?$CI?$CJ?$AA@ DB 'dropwhile()', 00H ; `string'
; Function compile flags: /Ogtpy
CONST	ENDS
;	COMDAT dropwhile_new
_TEXT	SEGMENT
func$ = 64
type$ = 64
args$ = 72
kwds$ = 80
seq$ = 88
dropwhile_new PROC					; COMDAT

; 1057 : {

  00000	48 89 5c 24 10	 mov	 QWORD PTR [rsp+16], rbx
  00005	57		 push	 rdi
  00006	48 83 ec 30	 sub	 rsp, 48			; 00000030H

; 1058 :     PyObject *func, *seq;
; 1059 :     PyObject *it;
; 1060 :     dropwhileobject *lz;
; 1061 : 
; 1062 :     if (type == &dropwhile_type && !_PyArg_NoKeywords("dropwhile()", kwds))

  0000a	48 8d 05 00 00
	00 00		 lea	 rax, OFFSET FLAT:dropwhile_type
  00011	48 8b fa	 mov	 rdi, rdx
  00014	48 8b d9	 mov	 rbx, rcx
  00017	48 3b c8	 cmp	 rcx, rax
  0001a	75 13		 jne	 SHORT $LN4@dropwhile_
  0001c	48 8d 0d 00 00
	00 00		 lea	 rcx, OFFSET FLAT:??_C@_0M@MKGKMIKK@dropwhile?$CI?$CJ?$AA@
  00023	49 8b d0	 mov	 rdx, r8
  00026	e8 00 00 00 00	 call	 _PyArg_NoKeywords
  0002b	85 c0		 test	 eax, eax

; 1063 :         return NULL;

  0002d	74 5d		 je	 SHORT $LN7@dropwhile_
$LN4@dropwhile_:

; 1064 : 
; 1065 :     if (!PyArg_UnpackTuple(args, "dropwhile", 2, 2, &func, &seq))

  0002f	48 8d 44 24 58	 lea	 rax, QWORD PTR seq$[rsp]
  00034	41 b9 02 00 00
	00		 mov	 r9d, 2
  0003a	48 8d 15 00 00
	00 00		 lea	 rdx, OFFSET FLAT:??_C@_09FPIDKODG@dropwhile?$AA@
  00041	48 89 44 24 28	 mov	 QWORD PTR [rsp+40], rax
  00046	48 8d 44 24 40	 lea	 rax, QWORD PTR func$[rsp]
  0004b	45 8b c1	 mov	 r8d, r9d
  0004e	48 8b cf	 mov	 rcx, rdi
  00051	48 89 44 24 20	 mov	 QWORD PTR [rsp+32], rax
  00056	e8 00 00 00 00	 call	 PyArg_UnpackTuple
  0005b	85 c0		 test	 eax, eax

; 1066 :         return NULL;

  0005d	74 2d		 je	 SHORT $LN7@dropwhile_

; 1067 : 
; 1068 :     /* Get iterator. */
; 1069 :     it = PyObject_GetIter(seq);

  0005f	48 8b 4c 24 58	 mov	 rcx, QWORD PTR seq$[rsp]
  00064	e8 00 00 00 00	 call	 PyObject_GetIter
  00069	48 8b f8	 mov	 rdi, rax

; 1070 :     if (it == NULL)

  0006c	48 85 c0	 test	 rax, rax

; 1071 :         return NULL;

  0006f	74 1b		 je	 SHORT $LN7@dropwhile_

; 1072 : 
; 1073 :     /* create dropwhileobject structure */
; 1074 :     lz = (dropwhileobject *)type->tp_alloc(type, 0);

  00071	33 d2		 xor	 edx, edx
  00073	48 8b cb	 mov	 rcx, rbx
  00076	ff 93 88 01 00
	00		 call	 QWORD PTR [rbx+392]
  0007c	48 8b d8	 mov	 rbx, rax

; 1075 :     if (lz == NULL) {

  0007f	48 85 c0	 test	 rax, rax
  00082	75 15		 jne	 SHORT $LN1@dropwhile_

; 1076 :         Py_DECREF(it);

  00084	48 8b cf	 mov	 rcx, rdi
  00087	e8 00 00 00 00	 call	 _Py_DecRef
$LN7@dropwhile_:

; 1077 :         return NULL;

  0008c	33 c0		 xor	 eax, eax

; 1085 : }

  0008e	48 8b 5c 24 48	 mov	 rbx, QWORD PTR [rsp+72]
  00093	48 83 c4 30	 add	 rsp, 48			; 00000030H
  00097	5f		 pop	 rdi
  00098	c3		 ret	 0
$LN1@dropwhile_:

; 1078 :     }
; 1079 :     Py_INCREF(func);

  00099	48 8b 4c 24 40	 mov	 rcx, QWORD PTR func$[rsp]
  0009e	e8 00 00 00 00	 call	 _Py_IncRef

; 1080 :     lz->func = func;

  000a3	4c 8b 5c 24 40	 mov	 r11, QWORD PTR func$[rsp]

; 1081 :     lz->it = it;

  000a8	48 89 7b 68	 mov	 QWORD PTR [rbx+104], rdi
  000ac	4c 89 5b 60	 mov	 QWORD PTR [rbx+96], r11

; 1082 :     lz->start = 0;

  000b0	c7 43 70 00 00
	00 00		 mov	 DWORD PTR [rbx+112], 0

; 1083 : 
; 1084 :     return (PyObject *)lz;

  000b7	48 8b c3	 mov	 rax, rbx

; 1085 : }

  000ba	48 8b 5c 24 48	 mov	 rbx, QWORD PTR [rsp+72]
  000bf	48 83 c4 30	 add	 rsp, 48			; 00000030H
  000c3	5f		 pop	 rdi
  000c4	c3		 ret	 0
dropwhile_new ENDP
_TEXT	ENDS
;	COMDAT pdata
; File c:\src\pyparallel\include\object.h
pdata	SEGMENT
$pdata$dropwhile_dealloc DD imagerel dropwhile_dealloc
	DD	imagerel dropwhile_dealloc+262
	DD	imagerel $unwind$dropwhile_dealloc
pdata	ENDS
;	COMDAT xdata
xdata	SEGMENT
$unwind$dropwhile_dealloc DD 040a01H
	DD	08340aH
	DD	07006520aH
; Function compile flags: /Ogtpy
; File c:\src\pyparallel\modules\itertoolsmodule.c
xdata	ENDS
;	COMDAT dropwhile_dealloc
_TEXT	SEGMENT
lz$ = 64
dropwhile_dealloc PROC					; COMDAT

; 1089 : {

  00000	48 89 5c 24 08	 mov	 QWORD PTR [rsp+8], rbx
  00005	57		 push	 rdi
  00006	48 83 ec 30	 sub	 rsp, 48			; 00000030H
  0000a	48 8b f9	 mov	 rdi, rcx

; 1090 :     PyObject_GC_UnTrack(lz);

  0000d	e8 00 00 00 00	 call	 PyObject_GC_UnTrack

; 1091 :     Py_XDECREF(lz->func);

  00012	48 8b 5f 60	 mov	 rbx, QWORD PTR [rdi+96]
  00016	48 85 db	 test	 rbx, rbx
  00019	74 65		 je	 SHORT $LN7@dropwhile_@2
  0001b	e8 00 00 00 00	 call	 _Py_PXCTX
  00020	85 c0		 test	 eax, eax
  00022	75 5c		 jne	 SHORT $LN7@dropwhile_@2
  00024	48 8b 43 20	 mov	 rax, QWORD PTR [rbx+32]
  00028	a8 20		 test	 al, 32			; 00000020H
  0002a	75 4c		 jne	 SHORT $LN15@dropwhile_@2
  0002c	84 c0		 test	 al, al
  0002e	78 48		 js	 SHORT $LN15@dropwhile_@2
  00030	a8 02		 test	 al, 2
  00032	75 4c		 jne	 SHORT $LN7@dropwhile_@2
  00034	48 ff 4b 50	 dec	 QWORD PTR [rbx+80]
  00038	75 46		 jne	 SHORT $LN7@dropwhile_@2
  0003a	48 8d 15 00 00
	00 00		 lea	 rdx, OFFSET FLAT:??_C@_0CD@HDJFDCDP@c?3?2src?2pyparallel?2include?2object@
  00041	48 8d 0d 00 00
	00 00		 lea	 rcx, OFFSET FLAT:??_C@_0L@DMHMLFIA@_Py_DecRef?$AA@
  00048	4c 8b cb	 mov	 r9, rbx
  0004b	41 b8 a4 03 00
	00		 mov	 r8d, 932		; 000003a4H
  00051	c7 44 24 20 10
	00 00 00	 mov	 DWORD PTR [rsp+32], 16
  00059	e8 00 00 00 00	 call	 _PyParallel_Guard
  0005e	48 8b cb	 mov	 rcx, rbx
  00061	85 c0		 test	 eax, eax
  00063	74 07		 je	 SHORT $LN20@dropwhile_@2
  00065	e8 00 00 00 00	 call	 _Px_Dealloc
  0006a	eb 14		 jmp	 SHORT $LN7@dropwhile_@2
$LN20@dropwhile_@2:
  0006c	48 8b 43 58	 mov	 rax, QWORD PTR [rbx+88]
  00070	ff 90 88 00 00
	00		 call	 QWORD PTR [rax+136]
  00076	eb 08		 jmp	 SHORT $LN7@dropwhile_@2
$LN15@dropwhile_@2:
  00078	48 8b cb	 mov	 rcx, rbx
  0007b	e8 00 00 00 00	 call	 Px_DecRef
$LN7@dropwhile_@2:

; 1092 :     Py_XDECREF(lz->it);

  00080	48 8b 5f 68	 mov	 rbx, QWORD PTR [rdi+104]
  00084	48 85 db	 test	 rbx, rbx
  00087	74 65		 je	 SHORT $LN3@dropwhile_@2
  00089	e8 00 00 00 00	 call	 _Py_PXCTX
  0008e	85 c0		 test	 eax, eax
  00090	75 5c		 jne	 SHORT $LN3@dropwhile_@2
  00092	48 8b 43 20	 mov	 rax, QWORD PTR [rbx+32]
  00096	a8 20		 test	 al, 32			; 00000020H
  00098	75 4c		 jne	 SHORT $LN26@dropwhile_@2
  0009a	84 c0		 test	 al, al
  0009c	78 48		 js	 SHORT $LN26@dropwhile_@2
  0009e	a8 02		 test	 al, 2
  000a0	75 4c		 jne	 SHORT $LN3@dropwhile_@2
  000a2	48 ff 4b 50	 dec	 QWORD PTR [rbx+80]
  000a6	75 46		 jne	 SHORT $LN3@dropwhile_@2
  000a8	48 8d 15 00 00
	00 00		 lea	 rdx, OFFSET FLAT:??_C@_0CD@HDJFDCDP@c?3?2src?2pyparallel?2include?2object@
  000af	48 8d 0d 00 00
	00 00		 lea	 rcx, OFFSET FLAT:??_C@_0L@DMHMLFIA@_Py_DecRef?$AA@
  000b6	4c 8b cb	 mov	 r9, rbx
  000b9	41 b8 a4 03 00
	00		 mov	 r8d, 932		; 000003a4H
  000bf	c7 44 24 20 10
	00 00 00	 mov	 DWORD PTR [rsp+32], 16
  000c7	e8 00 00 00 00	 call	 _PyParallel_Guard
  000cc	48 8b cb	 mov	 rcx, rbx
  000cf	85 c0		 test	 eax, eax
  000d1	74 07		 je	 SHORT $LN31@dropwhile_@2
  000d3	e8 00 00 00 00	 call	 _Px_Dealloc
  000d8	eb 14		 jmp	 SHORT $LN3@dropwhile_@2
$LN31@dropwhile_@2:
  000da	48 8b 43 58	 mov	 rax, QWORD PTR [rbx+88]
  000de	ff 90 88 00 00
	00		 call	 QWORD PTR [rax+136]
  000e4	eb 08		 jmp	 SHORT $LN3@dropwhile_@2
$LN26@dropwhile_@2:
  000e6	48 8b cb	 mov	 rcx, rbx
  000e9	e8 00 00 00 00	 call	 Px_DecRef
$LN3@dropwhile_@2:

; 1093 :     Py_TYPE(lz)->tp_free(lz);

  000ee	48 8b 47 58	 mov	 rax, QWORD PTR [rdi+88]
  000f2	48 8b cf	 mov	 rcx, rdi

; 1094 : }

  000f5	48 8b 5c 24 40	 mov	 rbx, QWORD PTR [rsp+64]
  000fa	48 83 c4 30	 add	 rsp, 48			; 00000030H
  000fe	5f		 pop	 rdi
  000ff	48 ff a0 98 01
	00 00		 rex_jmp QWORD PTR [rax+408]
dropwhile_dealloc ENDP
_TEXT	ENDS
PUBLIC	??_C@_0BD@IDIMKPBG@dropwhile_traverse?$AA@	; `string'
;	COMDAT pdata
pdata	SEGMENT
$pdata$dropwhile_traverse DD imagerel dropwhile_traverse
	DD	imagerel dropwhile_traverse+152
	DD	imagerel $unwind$dropwhile_traverse
pdata	ENDS
;	COMDAT xdata
xdata	SEGMENT
$unwind$dropwhile_traverse DD 060f01H
	DD	07640fH
	DD	06340fH
	DD	0700b320fH
xdata	ENDS
;	COMDAT ??_C@_0BD@IDIMKPBG@dropwhile_traverse?$AA@
CONST	SEGMENT
??_C@_0BD@IDIMKPBG@dropwhile_traverse?$AA@ DB 'dropwhile_traverse', 00H ; `string'
; Function compile flags: /Ogtpy
CONST	ENDS
;	COMDAT dropwhile_traverse
_TEXT	SEGMENT
lz$ = 48
visit$ = 56
arg$ = 64
dropwhile_traverse PROC					; COMDAT

; 1098 : {

  00000	48 89 5c 24 08	 mov	 QWORD PTR [rsp+8], rbx
  00005	48 89 74 24 10	 mov	 QWORD PTR [rsp+16], rsi
  0000a	57		 push	 rdi
  0000b	48 83 ec 20	 sub	 rsp, 32			; 00000020H
  0000f	49 8b f8	 mov	 rdi, r8
  00012	48 8b f2	 mov	 rsi, rdx
  00015	48 8b d9	 mov	 rbx, rcx

; 1099 :     Py_VISIT(lz->it);

  00018	e8 00 00 00 00	 call	 _Py_PXCTX
  0001d	85 c0		 test	 eax, eax
  0001f	74 1c		 je	 SHORT $LN9@dropwhile_@3
  00021	48 8d 15 00 00
	00 00		 lea	 rdx, OFFSET FLAT:??_C@_0BN@PMILGFFG@?4?4?2Modules?2itertoolsmodule?4c?$AA@
  00028	48 8d 0d 00 00
	00 00		 lea	 rcx, OFFSET FLAT:??_C@_0BD@IDIMKPBG@dropwhile_traverse?$AA@
  0002f	45 33 c9	 xor	 r9d, r9d
  00032	41 b8 4b 04 00
	00		 mov	 r8d, 1099		; 0000044bH
  00038	e8 00 00 00 00	 call	 _PyParallel_ContextGuardFailure
$LN9@dropwhile_@3:
  0003d	48 8b 4b 68	 mov	 rcx, QWORD PTR [rbx+104]
  00041	48 85 c9	 test	 rcx, rcx
  00044	74 09		 je	 SHORT $LN11@dropwhile_@3
  00046	48 8b d7	 mov	 rdx, rdi
  00049	ff d6		 call	 rsi
  0004b	85 c0		 test	 eax, eax
  0004d	75 39		 jne	 SHORT $LN13@dropwhile_@3
$LN11@dropwhile_@3:

; 1100 :     Py_VISIT(lz->func);

  0004f	e8 00 00 00 00	 call	 _Py_PXCTX
  00054	85 c0		 test	 eax, eax
  00056	74 1c		 je	 SHORT $LN3@dropwhile_@3
  00058	48 8d 15 00 00
	00 00		 lea	 rdx, OFFSET FLAT:??_C@_0BN@PMILGFFG@?4?4?2Modules?2itertoolsmodule?4c?$AA@
  0005f	48 8d 0d 00 00
	00 00		 lea	 rcx, OFFSET FLAT:??_C@_0BD@IDIMKPBG@dropwhile_traverse?$AA@
  00066	45 33 c9	 xor	 r9d, r9d
  00069	41 b8 4c 04 00
	00		 mov	 r8d, 1100		; 0000044cH
  0006f	e8 00 00 00 00	 call	 _PyParallel_ContextGuardFailure
$LN3@dropwhile_@3:
  00074	48 8b 4b 60	 mov	 rcx, QWORD PTR [rbx+96]
  00078	48 85 c9	 test	 rcx, rcx
  0007b	74 09		 je	 SHORT $LN5@dropwhile_@3
  0007d	48 8b d7	 mov	 rdx, rdi
  00080	ff d6		 call	 rsi
  00082	85 c0		 test	 eax, eax
  00084	75 02		 jne	 SHORT $LN13@dropwhile_@3
$LN5@dropwhile_@3:

; 1101 :     return 0;

  00086	33 c0		 xor	 eax, eax
$LN13@dropwhile_@3:

; 1102 : }

  00088	48 8b 5c 24 30	 mov	 rbx, QWORD PTR [rsp+48]
  0008d	48 8b 74 24 38	 mov	 rsi, QWORD PTR [rsp+56]
  00092	48 83 c4 20	 add	 rsp, 32			; 00000020H
  00096	5f		 pop	 rdi
  00097	c3		 ret	 0
dropwhile_traverse ENDP
_TEXT	ENDS
EXTRN	PyObject_IsTrue:PROC
;	COMDAT pdata
; File c:\src\pyparallel\include\object.h
pdata	SEGMENT
$pdata$dropwhile_next DD imagerel dropwhile_next
	DD	imagerel dropwhile_next+390
	DD	imagerel $unwind$dropwhile_next
pdata	ENDS
;	COMDAT xdata
xdata	SEGMENT
$unwind$dropwhile_next DD 0a1801H
	DD	0c6418H
	DD	0b5418H
	DD	0a3418H
	DD	0d0145218H
	DD	07010c012H
; Function compile flags: /Ogtpy
; File c:\src\pyparallel\modules\itertoolsmodule.c
xdata	ENDS
;	COMDAT dropwhile_next
_TEXT	SEGMENT
lz$ = 80
dropwhile_next PROC					; COMDAT

; 1106 : {

  00000	48 89 5c 24 08	 mov	 QWORD PTR [rsp+8], rbx
  00005	48 89 6c 24 10	 mov	 QWORD PTR [rsp+16], rbp
  0000a	48 89 74 24 18	 mov	 QWORD PTR [rsp+24], rsi
  0000f	57		 push	 rdi
  00010	41 54		 push	 r12
  00012	41 55		 push	 r13
  00014	48 83 ec 30	 sub	 rsp, 48			; 00000030H

; 1107 :     PyObject *item, *good;
; 1108 :     PyObject *it = lz->it;

  00018	4c 8b 61 68	 mov	 r12, QWORD PTR [rcx+104]
  0001c	48 8b e9	 mov	 rbp, rcx

; 1109 :     long ok;
; 1110 :     PyObject *(*iternext)(PyObject *);
; 1111 : 
; 1112 :     iternext = *Py_TYPE(it)->tp_iternext;

  0001f	49 8b 44 24 58	 mov	 rax, QWORD PTR [r12+88]

; 1113 :     for (;;) {
; 1114 :         item = iternext(it);

  00024	49 8b cc	 mov	 rcx, r12
  00027	4c 8b a8 38 01
	00 00		 mov	 r13, QWORD PTR [rax+312]
  0002e	41 ff d5	 call	 r13
  00031	48 8b d8	 mov	 rbx, rax

; 1115 :         if (item == NULL)

  00034	48 85 c0	 test	 rax, rax
  00037	0f 84 2e 01 00
	00		 je	 $LN34@dropwhile_@4
  0003d	0f 1f 00	 npad	 3
$LL7@dropwhile_@4:

; 1117 :         if (lz->start == 1)

  00040	83 7d 70 01	 cmp	 DWORD PTR [rbp+112], 1
  00044	0f 84 14 01 00
	00		 je	 $LN35@dropwhile_@4

; 1118 :             return item;
; 1119 : 
; 1120 :         good = PyObject_CallFunctionObjArgs(lz->func, item, NULL);

  0004a	48 8b 4d 60	 mov	 rcx, QWORD PTR [rbp+96]
  0004e	45 33 c0	 xor	 r8d, r8d
  00051	48 8b d3	 mov	 rdx, rbx
  00054	e8 00 00 00 00	 call	 PyObject_CallFunctionObjArgs
  00059	48 8b f8	 mov	 rdi, rax

; 1121 :         if (good == NULL) {

  0005c	48 85 c0	 test	 rax, rax
  0005f	0f 84 fe 00 00
	00		 je	 $LN36@dropwhile_@4

; 1123 :             return NULL;
; 1124 :         }
; 1125 :         ok = PyObject_IsTrue(good);

  00065	48 8b c8	 mov	 rcx, rax
  00068	e8 00 00 00 00	 call	 PyObject_IsTrue
  0006d	8b f0		 mov	 esi, eax

; 1126 :         Py_DECREF(good);

  0006f	e8 00 00 00 00	 call	 _Py_PXCTX
  00074	85 c0		 test	 eax, eax
  00076	75 5e		 jne	 SHORT $LN20@dropwhile_@4
  00078	48 8b 4f 20	 mov	 rcx, QWORD PTR [rdi+32]
  0007c	f6 c1 20	 test	 cl, 32			; 00000020H
  0007f	75 4d		 jne	 SHORT $LN14@dropwhile_@4
  00081	84 c9		 test	 cl, cl
  00083	78 49		 js	 SHORT $LN14@dropwhile_@4
  00085	f6 c1 02	 test	 cl, 2
  00088	75 4c		 jne	 SHORT $LN20@dropwhile_@4
  0008a	48 ff 4f 50	 dec	 QWORD PTR [rdi+80]
  0008e	75 46		 jne	 SHORT $LN20@dropwhile_@4
  00090	48 8d 15 00 00
	00 00		 lea	 rdx, OFFSET FLAT:??_C@_0CD@HDJFDCDP@c?3?2src?2pyparallel?2include?2object@
  00097	48 8d 0d 00 00
	00 00		 lea	 rcx, OFFSET FLAT:??_C@_0L@DMHMLFIA@_Py_DecRef?$AA@
  0009e	4c 8b cf	 mov	 r9, rdi
  000a1	41 b8 a4 03 00
	00		 mov	 r8d, 932		; 000003a4H
  000a7	c7 44 24 20 10
	00 00 00	 mov	 DWORD PTR [rsp+32], 16
  000af	e8 00 00 00 00	 call	 _PyParallel_Guard
  000b4	48 8b cf	 mov	 rcx, rdi
  000b7	85 c0		 test	 eax, eax
  000b9	74 07		 je	 SHORT $LN19@dropwhile_@4
  000bb	e8 00 00 00 00	 call	 _Px_Dealloc
  000c0	eb 14		 jmp	 SHORT $LN20@dropwhile_@4
$LN19@dropwhile_@4:
  000c2	48 8b 47 58	 mov	 rax, QWORD PTR [rdi+88]
  000c6	ff 90 88 00 00
	00		 call	 QWORD PTR [rax+136]
  000cc	eb 08		 jmp	 SHORT $LN20@dropwhile_@4
$LN14@dropwhile_@4:
  000ce	48 8b cf	 mov	 rcx, rdi
  000d1	e8 00 00 00 00	 call	 Px_DecRef
$LN20@dropwhile_@4:

; 1127 :         if (ok == 0) {

  000d6	85 f6		 test	 esi, esi
  000d8	74 7d		 je	 SHORT $LN37@dropwhile_@4

; 1130 :         }
; 1131 :         Py_DECREF(item);

  000da	e8 00 00 00 00	 call	 _Py_PXCTX
  000df	85 c0		 test	 eax, eax
  000e1	75 5c		 jne	 SHORT $LN31@dropwhile_@4
  000e3	48 8b 43 20	 mov	 rax, QWORD PTR [rbx+32]
  000e7	a8 20		 test	 al, 32			; 00000020H
  000e9	75 4c		 jne	 SHORT $LN25@dropwhile_@4
  000eb	84 c0		 test	 al, al
  000ed	78 48		 js	 SHORT $LN25@dropwhile_@4
  000ef	a8 02		 test	 al, 2
  000f1	75 4c		 jne	 SHORT $LN31@dropwhile_@4
  000f3	48 ff 4b 50	 dec	 QWORD PTR [rbx+80]
  000f7	75 46		 jne	 SHORT $LN31@dropwhile_@4
  000f9	48 8d 15 00 00
	00 00		 lea	 rdx, OFFSET FLAT:??_C@_0CD@HDJFDCDP@c?3?2src?2pyparallel?2include?2object@
  00100	48 8d 0d 00 00
	00 00		 lea	 rcx, OFFSET FLAT:??_C@_0L@DMHMLFIA@_Py_DecRef?$AA@
  00107	4c 8b cb	 mov	 r9, rbx
  0010a	41 b8 a4 03 00
	00		 mov	 r8d, 932		; 000003a4H
  00110	c7 44 24 20 10
	00 00 00	 mov	 DWORD PTR [rsp+32], 16
  00118	e8 00 00 00 00	 call	 _PyParallel_Guard
  0011d	48 8b cb	 mov	 rcx, rbx
  00120	85 c0		 test	 eax, eax
  00122	74 07		 je	 SHORT $LN30@dropwhile_@4
  00124	e8 00 00 00 00	 call	 _Px_Dealloc
  00129	eb 14		 jmp	 SHORT $LN31@dropwhile_@4
$LN30@dropwhile_@4:
  0012b	48 8b 43 58	 mov	 rax, QWORD PTR [rbx+88]
  0012f	ff 90 88 00 00
	00		 call	 QWORD PTR [rax+136]
  00135	eb 08		 jmp	 SHORT $LN31@dropwhile_@4
$LN25@dropwhile_@4:
  00137	48 8b cb	 mov	 rcx, rbx
  0013a	e8 00 00 00 00	 call	 Px_DecRef
$LN31@dropwhile_@4:

; 1132 :         if (ok < 0)

  0013f	85 f6		 test	 esi, esi
  00141	78 28		 js	 SHORT $LN34@dropwhile_@4

; 1113 :     for (;;) {
; 1114 :         item = iternext(it);

  00143	49 8b cc	 mov	 rcx, r12
  00146	41 ff d5	 call	 r13
  00149	48 8b d8	 mov	 rbx, rax

; 1115 :         if (item == NULL)

  0014c	48 85 c0	 test	 rax, rax
  0014f	0f 85 eb fe ff
	ff		 jne	 $LL7@dropwhile_@4
  00155	eb 14		 jmp	 SHORT $LN34@dropwhile_@4
$LN37@dropwhile_@4:

; 1128 :             lz->start = 1;

  00157	c7 45 70 01 00
	00 00		 mov	 DWORD PTR [rbp+112], 1
$LN35@dropwhile_@4:

; 1129 :             return item;

  0015e	48 8b c3	 mov	 rax, rbx
  00161	eb 0a		 jmp	 SHORT $LN6@dropwhile_@4
$LN36@dropwhile_@4:

; 1122 :             Py_DECREF(item);

  00163	48 8b cb	 mov	 rcx, rbx
  00166	e8 00 00 00 00	 call	 _Py_DecRef
$LN34@dropwhile_@4:

; 1116 :             return NULL;

  0016b	33 c0		 xor	 eax, eax
$LN6@dropwhile_@4:

; 1133 :             return NULL;
; 1134 :     }
; 1135 : }

  0016d	48 8b 5c 24 50	 mov	 rbx, QWORD PTR [rsp+80]
  00172	48 8b 6c 24 58	 mov	 rbp, QWORD PTR [rsp+88]
  00177	48 8b 74 24 60	 mov	 rsi, QWORD PTR [rsp+96]
  0017c	48 83 c4 30	 add	 rsp, 48			; 00000030H
  00180	41 5d		 pop	 r13
  00182	41 5c		 pop	 r12
  00184	5f		 pop	 rdi
  00185	c3		 ret	 0
dropwhile_next ENDP
_TEXT	ENDS
PUBLIC	??_C@_06NMCPHMHN@O?$CIOO?$CJl?$AA@		; `string'
;	COMDAT pdata
pdata	SEGMENT
$pdata$dropwhile_reduce DD imagerel dropwhile_reduce
	DD	imagerel dropwhile_reduce+40
	DD	imagerel $unwind$dropwhile_reduce
pdata	ENDS
;	COMDAT xdata
xdata	SEGMENT
$unwind$dropwhile_reduce DD 010401H
	DD	06204H
xdata	ENDS
;	COMDAT ??_C@_06NMCPHMHN@O?$CIOO?$CJl?$AA@
CONST	SEGMENT
??_C@_06NMCPHMHN@O?$CIOO?$CJl?$AA@ DB 'O(OO)l', 00H	; `string'
; Function compile flags: /Ogtpy
CONST	ENDS
;	COMDAT dropwhile_reduce
_TEXT	SEGMENT
lz$ = 64
dropwhile_reduce PROC					; COMDAT

; 1139 : {

  00000	48 83 ec 38	 sub	 rsp, 56			; 00000038H

; 1140 :     return Py_BuildValue("O(OO)l", Py_TYPE(lz),
; 1141 :                          lz->func, lz->it, lz->start);

  00004	8b 41 70	 mov	 eax, DWORD PTR [rcx+112]
  00007	4c 8b 49 68	 mov	 r9, QWORD PTR [rcx+104]
  0000b	4c 8b 41 60	 mov	 r8, QWORD PTR [rcx+96]
  0000f	48 8b 51 58	 mov	 rdx, QWORD PTR [rcx+88]
  00013	48 8d 0d 00 00
	00 00		 lea	 rcx, OFFSET FLAT:??_C@_06NMCPHMHN@O?$CIOO?$CJl?$AA@
  0001a	89 44 24 20	 mov	 DWORD PTR [rsp+32], eax
  0001e	e8 00 00 00 00	 call	 Py_BuildValue

; 1142 : }

  00023	48 83 c4 38	 add	 rsp, 56			; 00000038H
  00027	c3		 ret	 0
dropwhile_reduce ENDP
_TEXT	ENDS
;	COMDAT pdata
; File c:\src\pyparallel\include\object.h
pdata	SEGMENT
$pdata$dropwhile_setstate DD imagerel dropwhile_setstate
	DD	imagerel dropwhile_setstate+114
	DD	imagerel $unwind$dropwhile_setstate
pdata	ENDS
;	COMDAT xdata
xdata	SEGMENT
$unwind$dropwhile_setstate DD 020601H
	DD	030025206H
; Function compile flags: /Ogtpy
; File c:\src\pyparallel\modules\itertoolsmodule.c
xdata	ENDS
;	COMDAT dropwhile_setstate
_TEXT	SEGMENT
lz$ = 64
state$ = 72
dropwhile_setstate PROC					; COMDAT

; 1146 : {

  00000	40 53		 push	 rbx
  00002	48 83 ec 30	 sub	 rsp, 48			; 00000030H
  00006	48 8b d9	 mov	 rbx, rcx

; 1147 :     int start = PyObject_IsTrue(state);

  00009	48 8b ca	 mov	 rcx, rdx
  0000c	e8 00 00 00 00	 call	 PyObject_IsTrue

; 1148 :     if (start < 0)

  00011	85 c0		 test	 eax, eax
  00013	79 08		 jns	 SHORT $LN1@dropwhile_@5

; 1149 :         return NULL;

  00015	33 c0		 xor	 eax, eax

; 1152 : }

  00017	48 83 c4 30	 add	 rsp, 48			; 00000030H
  0001b	5b		 pop	 rbx
  0001c	c3		 ret	 0
$LN1@dropwhile_@5:

; 1150 :     lz->start = start;

  0001d	89 43 70	 mov	 DWORD PTR [rbx+112], eax

; 1151 :     Py_RETURN_NONE;

  00020	e8 00 00 00 00	 call	 _Py_PXCTX
  00025	85 c0		 test	 eax, eax
  00027	75 3c		 jne	 SHORT $LN5@dropwhile_@5
  00029	4c 8d 0d 00 00
	00 00		 lea	 r9, OFFSET FLAT:_Py_NoneStruct
  00030	48 8d 15 00 00
	00 00		 lea	 rdx, OFFSET FLAT:??_C@_0CD@HDJFDCDP@c?3?2src?2pyparallel?2include?2object@
  00037	48 8d 0d 00 00
	00 00		 lea	 rcx, OFFSET FLAT:??_C@_0L@DHGMCEID@_Py_IncRef?$AA@
  0003e	41 b8 89 03 00
	00		 mov	 r8d, 905		; 00000389H
  00044	c7 44 24 20 02
	00 00 00	 mov	 DWORD PTR [rsp+32], 2
  0004c	e8 00 00 00 00	 call	 _PyParallel_Guard
  00051	85 c0		 test	 eax, eax
  00053	75 09		 jne	 SHORT $LN4@dropwhile_@5
  00055	f6 05 20 00 00
	00 20		 test	 BYTE PTR _Py_NoneStruct+32, 32 ; 00000020H
  0005c	74 07		 je	 SHORT $LN5@dropwhile_@5
$LN4@dropwhile_@5:
  0005e	48 ff 05 50 00
	00 00		 inc	 QWORD PTR _Py_NoneStruct+80
$LN5@dropwhile_@5:
  00065	48 8d 05 00 00
	00 00		 lea	 rax, OFFSET FLAT:_Py_NoneStruct

; 1152 : }

  0006c	48 83 c4 30	 add	 rsp, 48			; 00000030H
  00070	5b		 pop	 rbx
  00071	c3		 ret	 0
dropwhile_setstate ENDP
_TEXT	ENDS
PUBLIC	??_C@_09FMMMOMPJ@takewhile?$AA@			; `string'
PUBLIC	??_C@_0M@BONKCANI@takewhile?$CI?$CJ?$AA@	; `string'
;	COMDAT pdata
pdata	SEGMENT
$pdata$takewhile_new DD imagerel takewhile_new
	DD	imagerel takewhile_new+197
	DD	imagerel $unwind$takewhile_new
pdata	ENDS
;	COMDAT xdata
xdata	SEGMENT
$unwind$takewhile_new DD 040a01H
	DD	09340aH
	DD	07006520aH
xdata	ENDS
;	COMDAT ??_C@_09FMMMOMPJ@takewhile?$AA@
CONST	SEGMENT
??_C@_09FMMMOMPJ@takewhile?$AA@ DB 'takewhile', 00H	; `string'
CONST	ENDS
;	COMDAT ??_C@_0M@BONKCANI@takewhile?$CI?$CJ?$AA@
CONST	SEGMENT
??_C@_0M@BONKCANI@takewhile?$CI?$CJ?$AA@ DB 'takewhile()', 00H ; `string'
; Function compile flags: /Ogtpy
CONST	ENDS
;	COMDAT takewhile_new
_TEXT	SEGMENT
func$ = 64
type$ = 64
args$ = 72
kwds$ = 80
seq$ = 88
takewhile_new PROC					; COMDAT

; 1226 : {

  00000	48 89 5c 24 10	 mov	 QWORD PTR [rsp+16], rbx
  00005	57		 push	 rdi
  00006	48 83 ec 30	 sub	 rsp, 48			; 00000030H

; 1227 :     PyObject *func, *seq;
; 1228 :     PyObject *it;
; 1229 :     takewhileobject *lz;
; 1230 : 
; 1231 :     if (type == &takewhile_type && !_PyArg_NoKeywords("takewhile()", kwds))

  0000a	48 8d 05 00 00
	00 00		 lea	 rax, OFFSET FLAT:takewhile_type
  00011	48 8b fa	 mov	 rdi, rdx
  00014	48 8b d9	 mov	 rbx, rcx
  00017	48 3b c8	 cmp	 rcx, rax
  0001a	75 13		 jne	 SHORT $LN4@takewhile_
  0001c	48 8d 0d 00 00
	00 00		 lea	 rcx, OFFSET FLAT:??_C@_0M@BONKCANI@takewhile?$CI?$CJ?$AA@
  00023	49 8b d0	 mov	 rdx, r8
  00026	e8 00 00 00 00	 call	 _PyArg_NoKeywords
  0002b	85 c0		 test	 eax, eax

; 1232 :         return NULL;

  0002d	74 5d		 je	 SHORT $LN7@takewhile_
$LN4@takewhile_:

; 1233 : 
; 1234 :     if (!PyArg_UnpackTuple(args, "takewhile", 2, 2, &func, &seq))

  0002f	48 8d 44 24 58	 lea	 rax, QWORD PTR seq$[rsp]
  00034	41 b9 02 00 00
	00		 mov	 r9d, 2
  0003a	48 8d 15 00 00
	00 00		 lea	 rdx, OFFSET FLAT:??_C@_09FMMMOMPJ@takewhile?$AA@
  00041	48 89 44 24 28	 mov	 QWORD PTR [rsp+40], rax
  00046	48 8d 44 24 40	 lea	 rax, QWORD PTR func$[rsp]
  0004b	45 8b c1	 mov	 r8d, r9d
  0004e	48 8b cf	 mov	 rcx, rdi
  00051	48 89 44 24 20	 mov	 QWORD PTR [rsp+32], rax
  00056	e8 00 00 00 00	 call	 PyArg_UnpackTuple
  0005b	85 c0		 test	 eax, eax

; 1235 :         return NULL;

  0005d	74 2d		 je	 SHORT $LN7@takewhile_

; 1236 : 
; 1237 :     /* Get iterator. */
; 1238 :     it = PyObject_GetIter(seq);

  0005f	48 8b 4c 24 58	 mov	 rcx, QWORD PTR seq$[rsp]
  00064	e8 00 00 00 00	 call	 PyObject_GetIter
  00069	48 8b f8	 mov	 rdi, rax

; 1239 :     if (it == NULL)

  0006c	48 85 c0	 test	 rax, rax

; 1240 :         return NULL;

  0006f	74 1b		 je	 SHORT $LN7@takewhile_

; 1241 : 
; 1242 :     /* create takewhileobject structure */
; 1243 :     lz = (takewhileobject *)type->tp_alloc(type, 0);

  00071	33 d2		 xor	 edx, edx
  00073	48 8b cb	 mov	 rcx, rbx
  00076	ff 93 88 01 00
	00		 call	 QWORD PTR [rbx+392]
  0007c	48 8b d8	 mov	 rbx, rax

; 1244 :     if (lz == NULL) {

  0007f	48 85 c0	 test	 rax, rax
  00082	75 15		 jne	 SHORT $LN1@takewhile_

; 1245 :         Py_DECREF(it);

  00084	48 8b cf	 mov	 rcx, rdi
  00087	e8 00 00 00 00	 call	 _Py_DecRef
$LN7@takewhile_:

; 1246 :         return NULL;

  0008c	33 c0		 xor	 eax, eax

; 1254 : }

  0008e	48 8b 5c 24 48	 mov	 rbx, QWORD PTR [rsp+72]
  00093	48 83 c4 30	 add	 rsp, 48			; 00000030H
  00097	5f		 pop	 rdi
  00098	c3		 ret	 0
$LN1@takewhile_:

; 1247 :     }
; 1248 :     Py_INCREF(func);

  00099	48 8b 4c 24 40	 mov	 rcx, QWORD PTR func$[rsp]
  0009e	e8 00 00 00 00	 call	 _Py_IncRef

; 1249 :     lz->func = func;

  000a3	4c 8b 5c 24 40	 mov	 r11, QWORD PTR func$[rsp]

; 1250 :     lz->it = it;

  000a8	48 89 7b 68	 mov	 QWORD PTR [rbx+104], rdi
  000ac	4c 89 5b 60	 mov	 QWORD PTR [rbx+96], r11

; 1251 :     lz->stop = 0;

  000b0	c7 43 70 00 00
	00 00		 mov	 DWORD PTR [rbx+112], 0

; 1252 : 
; 1253 :     return (PyObject *)lz;

  000b7	48 8b c3	 mov	 rax, rbx

; 1254 : }

  000ba	48 8b 5c 24 48	 mov	 rbx, QWORD PTR [rsp+72]
  000bf	48 83 c4 30	 add	 rsp, 48			; 00000030H
  000c3	5f		 pop	 rdi
  000c4	c3		 ret	 0
takewhile_new ENDP
_TEXT	ENDS
;	COMDAT pdata
; File c:\src\pyparallel\include\object.h
pdata	SEGMENT
$pdata$takewhile_dealloc DD imagerel takewhile_dealloc
	DD	imagerel takewhile_dealloc+262
	DD	imagerel $unwind$takewhile_dealloc
pdata	ENDS
;	COMDAT xdata
xdata	SEGMENT
$unwind$takewhile_dealloc DD 040a01H
	DD	08340aH
	DD	07006520aH
; Function compile flags: /Ogtpy
; File c:\src\pyparallel\modules\itertoolsmodule.c
xdata	ENDS
;	COMDAT takewhile_dealloc
_TEXT	SEGMENT
lz$ = 64
takewhile_dealloc PROC					; COMDAT

; 1258 : {

  00000	48 89 5c 24 08	 mov	 QWORD PTR [rsp+8], rbx
  00005	57		 push	 rdi
  00006	48 83 ec 30	 sub	 rsp, 48			; 00000030H
  0000a	48 8b f9	 mov	 rdi, rcx

; 1259 :     PyObject_GC_UnTrack(lz);

  0000d	e8 00 00 00 00	 call	 PyObject_GC_UnTrack

; 1260 :     Py_XDECREF(lz->func);

  00012	48 8b 5f 60	 mov	 rbx, QWORD PTR [rdi+96]
  00016	48 85 db	 test	 rbx, rbx
  00019	74 65		 je	 SHORT $LN7@takewhile_@2
  0001b	e8 00 00 00 00	 call	 _Py_PXCTX
  00020	85 c0		 test	 eax, eax
  00022	75 5c		 jne	 SHORT $LN7@takewhile_@2
  00024	48 8b 43 20	 mov	 rax, QWORD PTR [rbx+32]
  00028	a8 20		 test	 al, 32			; 00000020H
  0002a	75 4c		 jne	 SHORT $LN15@takewhile_@2
  0002c	84 c0		 test	 al, al
  0002e	78 48		 js	 SHORT $LN15@takewhile_@2
  00030	a8 02		 test	 al, 2
  00032	75 4c		 jne	 SHORT $LN7@takewhile_@2
  00034	48 ff 4b 50	 dec	 QWORD PTR [rbx+80]
  00038	75 46		 jne	 SHORT $LN7@takewhile_@2
  0003a	48 8d 15 00 00
	00 00		 lea	 rdx, OFFSET FLAT:??_C@_0CD@HDJFDCDP@c?3?2src?2pyparallel?2include?2object@
  00041	48 8d 0d 00 00
	00 00		 lea	 rcx, OFFSET FLAT:??_C@_0L@DMHMLFIA@_Py_DecRef?$AA@
  00048	4c 8b cb	 mov	 r9, rbx
  0004b	41 b8 a4 03 00
	00		 mov	 r8d, 932		; 000003a4H
  00051	c7 44 24 20 10
	00 00 00	 mov	 DWORD PTR [rsp+32], 16
  00059	e8 00 00 00 00	 call	 _PyParallel_Guard
  0005e	48 8b cb	 mov	 rcx, rbx
  00061	85 c0		 test	 eax, eax
  00063	74 07		 je	 SHORT $LN20@takewhile_@2
  00065	e8 00 00 00 00	 call	 _Px_Dealloc
  0006a	eb 14		 jmp	 SHORT $LN7@takewhile_@2
$LN20@takewhile_@2:
  0006c	48 8b 43 58	 mov	 rax, QWORD PTR [rbx+88]
  00070	ff 90 88 00 00
	00		 call	 QWORD PTR [rax+136]
  00076	eb 08		 jmp	 SHORT $LN7@takewhile_@2
$LN15@takewhile_@2:
  00078	48 8b cb	 mov	 rcx, rbx
  0007b	e8 00 00 00 00	 call	 Px_DecRef
$LN7@takewhile_@2:

; 1261 :     Py_XDECREF(lz->it);

  00080	48 8b 5f 68	 mov	 rbx, QWORD PTR [rdi+104]
  00084	48 85 db	 test	 rbx, rbx
  00087	74 65		 je	 SHORT $LN3@takewhile_@2
  00089	e8 00 00 00 00	 call	 _Py_PXCTX
  0008e	85 c0		 test	 eax, eax
  00090	75 5c		 jne	 SHORT $LN3@takewhile_@2
  00092	48 8b 43 20	 mov	 rax, QWORD PTR [rbx+32]
  00096	a8 20		 test	 al, 32			; 00000020H
  00098	75 4c		 jne	 SHORT $LN26@takewhile_@2
  0009a	84 c0		 test	 al, al
  0009c	78 48		 js	 SHORT $LN26@takewhile_@2
  0009e	a8 02		 test	 al, 2
  000a0	75 4c		 jne	 SHORT $LN3@takewhile_@2
  000a2	48 ff 4b 50	 dec	 QWORD PTR [rbx+80]
  000a6	75 46		 jne	 SHORT $LN3@takewhile_@2
  000a8	48 8d 15 00 00
	00 00		 lea	 rdx, OFFSET FLAT:??_C@_0CD@HDJFDCDP@c?3?2src?2pyparallel?2include?2object@
  000af	48 8d 0d 00 00
	00 00		 lea	 rcx, OFFSET FLAT:??_C@_0L@DMHMLFIA@_Py_DecRef?$AA@
  000b6	4c 8b cb	 mov	 r9, rbx
  000b9	41 b8 a4 03 00
	00		 mov	 r8d, 932		; 000003a4H
  000bf	c7 44 24 20 10
	00 00 00	 mov	 DWORD PTR [rsp+32], 16
  000c7	e8 00 00 00 00	 call	 _PyParallel_Guard
  000cc	48 8b cb	 mov	 rcx, rbx
  000cf	85 c0		 test	 eax, eax
  000d1	74 07		 je	 SHORT $LN31@takewhile_@2
  000d3	e8 00 00 00 00	 call	 _Px_Dealloc
  000d8	eb 14		 jmp	 SHORT $LN3@takewhile_@2
$LN31@takewhile_@2:
  000da	48 8b 43 58	 mov	 rax, QWORD PTR [rbx+88]
  000de	ff 90 88 00 00
	00		 call	 QWORD PTR [rax+136]
  000e4	eb 08		 jmp	 SHORT $LN3@takewhile_@2
$LN26@takewhile_@2:
  000e6	48 8b cb	 mov	 rcx, rbx
  000e9	e8 00 00 00 00	 call	 Px_DecRef
$LN3@takewhile_@2:

; 1262 :     Py_TYPE(lz)->tp_free(lz);

  000ee	48 8b 47 58	 mov	 rax, QWORD PTR [rdi+88]
  000f2	48 8b cf	 mov	 rcx, rdi

; 1263 : }

  000f5	48 8b 5c 24 40	 mov	 rbx, QWORD PTR [rsp+64]
  000fa	48 83 c4 30	 add	 rsp, 48			; 00000030H
  000fe	5f		 pop	 rdi
  000ff	48 ff a0 98 01
	00 00		 rex_jmp QWORD PTR [rax+408]
takewhile_dealloc ENDP
_TEXT	ENDS
PUBLIC	??_C@_0BD@LLJNNBCB@takewhile_traverse?$AA@	; `string'
;	COMDAT pdata
pdata	SEGMENT
$pdata$takewhile_traverse DD imagerel takewhile_traverse
	DD	imagerel takewhile_traverse+152
	DD	imagerel $unwind$takewhile_traverse
pdata	ENDS
;	COMDAT xdata
xdata	SEGMENT
$unwind$takewhile_traverse DD 060f01H
	DD	07640fH
	DD	06340fH
	DD	0700b320fH
xdata	ENDS
;	COMDAT ??_C@_0BD@LLJNNBCB@takewhile_traverse?$AA@
CONST	SEGMENT
??_C@_0BD@LLJNNBCB@takewhile_traverse?$AA@ DB 'takewhile_traverse', 00H ; `string'
; Function compile flags: /Ogtpy
CONST	ENDS
;	COMDAT takewhile_traverse
_TEXT	SEGMENT
lz$ = 48
visit$ = 56
arg$ = 64
takewhile_traverse PROC					; COMDAT

; 1267 : {

  00000	48 89 5c 24 08	 mov	 QWORD PTR [rsp+8], rbx
  00005	48 89 74 24 10	 mov	 QWORD PTR [rsp+16], rsi
  0000a	57		 push	 rdi
  0000b	48 83 ec 20	 sub	 rsp, 32			; 00000020H
  0000f	49 8b f8	 mov	 rdi, r8
  00012	48 8b f2	 mov	 rsi, rdx
  00015	48 8b d9	 mov	 rbx, rcx

; 1268 :     Py_VISIT(lz->it);

  00018	e8 00 00 00 00	 call	 _Py_PXCTX
  0001d	85 c0		 test	 eax, eax
  0001f	74 1c		 je	 SHORT $LN9@takewhile_@3
  00021	48 8d 15 00 00
	00 00		 lea	 rdx, OFFSET FLAT:??_C@_0BN@PMILGFFG@?4?4?2Modules?2itertoolsmodule?4c?$AA@
  00028	48 8d 0d 00 00
	00 00		 lea	 rcx, OFFSET FLAT:??_C@_0BD@LLJNNBCB@takewhile_traverse?$AA@
  0002f	45 33 c9	 xor	 r9d, r9d
  00032	41 b8 f4 04 00
	00		 mov	 r8d, 1268		; 000004f4H
  00038	e8 00 00 00 00	 call	 _PyParallel_ContextGuardFailure
$LN9@takewhile_@3:
  0003d	48 8b 4b 68	 mov	 rcx, QWORD PTR [rbx+104]
  00041	48 85 c9	 test	 rcx, rcx
  00044	74 09		 je	 SHORT $LN11@takewhile_@3
  00046	48 8b d7	 mov	 rdx, rdi
  00049	ff d6		 call	 rsi
  0004b	85 c0		 test	 eax, eax
  0004d	75 39		 jne	 SHORT $LN13@takewhile_@3
$LN11@takewhile_@3:

; 1269 :     Py_VISIT(lz->func);

  0004f	e8 00 00 00 00	 call	 _Py_PXCTX
  00054	85 c0		 test	 eax, eax
  00056	74 1c		 je	 SHORT $LN3@takewhile_@3
  00058	48 8d 15 00 00
	00 00		 lea	 rdx, OFFSET FLAT:??_C@_0BN@PMILGFFG@?4?4?2Modules?2itertoolsmodule?4c?$AA@
  0005f	48 8d 0d 00 00
	00 00		 lea	 rcx, OFFSET FLAT:??_C@_0BD@LLJNNBCB@takewhile_traverse?$AA@
  00066	45 33 c9	 xor	 r9d, r9d
  00069	41 b8 f5 04 00
	00		 mov	 r8d, 1269		; 000004f5H
  0006f	e8 00 00 00 00	 call	 _PyParallel_ContextGuardFailure
$LN3@takewhile_@3:
  00074	48 8b 4b 60	 mov	 rcx, QWORD PTR [rbx+96]
  00078	48 85 c9	 test	 rcx, rcx
  0007b	74 09		 je	 SHORT $LN5@takewhile_@3
  0007d	48 8b d7	 mov	 rdx, rdi
  00080	ff d6		 call	 rsi
  00082	85 c0		 test	 eax, eax
  00084	75 02		 jne	 SHORT $LN13@takewhile_@3
$LN5@takewhile_@3:

; 1270 :     return 0;

  00086	33 c0		 xor	 eax, eax
$LN13@takewhile_@3:

; 1271 : }

  00088	48 8b 5c 24 30	 mov	 rbx, QWORD PTR [rsp+48]
  0008d	48 8b 74 24 38	 mov	 rsi, QWORD PTR [rsp+56]
  00092	48 83 c4 20	 add	 rsp, 32			; 00000020H
  00096	5f		 pop	 rdi
  00097	c3		 ret	 0
takewhile_traverse ENDP
_TEXT	ENDS
;	COMDAT pdata
pdata	SEGMENT
$pdata$takewhile_next DD imagerel takewhile_next
	DD	imagerel takewhile_next+31
	DD	imagerel $unwind$takewhile_next
pdata	ENDS
;	COMDAT pdata
pdata	SEGMENT
$pdata$0$takewhile_next DD imagerel takewhile_next+31
	DD	imagerel takewhile_next+61
	DD	imagerel $chain$0$takewhile_next
pdata	ENDS
;	COMDAT pdata
pdata	SEGMENT
$pdata$3$takewhile_next DD imagerel takewhile_next+61
	DD	imagerel takewhile_next+115
	DD	imagerel $chain$3$takewhile_next
pdata	ENDS
;	COMDAT pdata
pdata	SEGMENT
$pdata$6$takewhile_next DD imagerel takewhile_next+115
	DD	imagerel takewhile_next+190
	DD	imagerel $chain$6$takewhile_next
pdata	ENDS
;	COMDAT xdata
xdata	SEGMENT
$chain$6$takewhile_next DD 060821H
	DD	086408H
	DD	075400H
	DD	063400H
	DD	imagerel takewhile_next
	DD	imagerel takewhile_next+31
	DD	imagerel $unwind$takewhile_next
xdata	ENDS
;	COMDAT xdata
xdata	SEGMENT
$chain$3$takewhile_next DD 040f21H
	DD	07540fH
	DD	063400H
	DD	imagerel takewhile_next
	DD	imagerel takewhile_next+31
	DD	imagerel $unwind$takewhile_next
xdata	ENDS
;	COMDAT xdata
xdata	SEGMENT
$chain$0$takewhile_next DD 020521H
	DD	063405H
	DD	imagerel takewhile_next
	DD	imagerel takewhile_next+31
	DD	imagerel $unwind$takewhile_next
xdata	ENDS
;	COMDAT xdata
xdata	SEGMENT
$unwind$takewhile_next DD 020601H
	DD	070023206H
; Function compile flags: /Ogtpy
xdata	ENDS
;	COMDAT takewhile_next
_TEXT	SEGMENT
lz$ = 48
takewhile_next PROC					; COMDAT

; 1275 : {

  00000	40 57		 push	 rdi
  00002	48 83 ec 20	 sub	 rsp, 32			; 00000020H
  00006	48 8b f9	 mov	 rdi, rcx

; 1276 :     PyObject *item, *good;
; 1277 :     PyObject *it = lz->it;

  00009	48 8b 49 68	 mov	 rcx, QWORD PTR [rcx+104]

; 1278 :     long ok;
; 1279 : 
; 1280 :     if (lz->stop == 1)

  0000d	83 7f 70 01	 cmp	 DWORD PTR [rdi+112], 1
  00011	75 08		 jne	 SHORT $LN5@takewhile_@4

; 1281 :         return NULL;

  00013	33 c0		 xor	 eax, eax

; 1300 : }

  00015	48 83 c4 20	 add	 rsp, 32			; 00000020H
  00019	5f		 pop	 rdi
  0001a	c3		 ret	 0
$LN5@takewhile_@4:

; 1282 : 
; 1283 :     item = (*Py_TYPE(it)->tp_iternext)(it);

  0001b	48 8b 41 58	 mov	 rax, QWORD PTR [rcx+88]
  0001f	48 89 5c 24 30	 mov	 QWORD PTR [rsp+48], rbx
  00024	ff 90 38 01 00
	00		 call	 QWORD PTR [rax+312]
  0002a	48 8b d8	 mov	 rbx, rax

; 1284 :     if (item == NULL)

  0002d	48 85 c0	 test	 rax, rax
  00030	75 0b		 jne	 SHORT $LN4@takewhile_@4
  00032	48 8b 5c 24 30	 mov	 rbx, QWORD PTR [rsp+48]

; 1300 : }

  00037	48 83 c4 20	 add	 rsp, 32			; 00000020H
  0003b	5f		 pop	 rdi
  0003c	c3		 ret	 0
$LN4@takewhile_@4:

; 1285 :         return NULL;
; 1286 : 
; 1287 :     good = PyObject_CallFunctionObjArgs(lz->func, item, NULL);

  0003d	48 8b 4f 60	 mov	 rcx, QWORD PTR [rdi+96]
  00041	45 33 c0	 xor	 r8d, r8d
  00044	48 8b d0	 mov	 rdx, rax
  00047	48 89 6c 24 38	 mov	 QWORD PTR [rsp+56], rbp
  0004c	e8 00 00 00 00	 call	 PyObject_CallFunctionObjArgs
  00051	48 8b e8	 mov	 rbp, rax

; 1288 :     if (good == NULL) {

  00054	48 85 c0	 test	 rax, rax
  00057	75 1a		 jne	 SHORT $LN3@takewhile_@4

; 1289 :         Py_DECREF(item);

  00059	48 8b cb	 mov	 rcx, rbx
  0005c	e8 00 00 00 00	 call	 _Py_DecRef
  00061	48 8b 6c 24 38	 mov	 rbp, QWORD PTR [rsp+56]
  00066	48 8b 5c 24 30	 mov	 rbx, QWORD PTR [rsp+48]

; 1290 :         return NULL;

  0006b	33 c0		 xor	 eax, eax

; 1300 : }

  0006d	48 83 c4 20	 add	 rsp, 32			; 00000020H
  00071	5f		 pop	 rdi
  00072	c3		 ret	 0
$LN3@takewhile_@4:

; 1291 :     }
; 1292 :     ok = PyObject_IsTrue(good);

  00073	48 8b c8	 mov	 rcx, rax
  00076	48 89 74 24 40	 mov	 QWORD PTR [rsp+64], rsi
  0007b	e8 00 00 00 00	 call	 PyObject_IsTrue

; 1293 :     Py_DECREF(good);

  00080	48 8b cd	 mov	 rcx, rbp
  00083	8b f0		 mov	 esi, eax
  00085	e8 00 00 00 00	 call	 _Py_DecRef

; 1294 :     if (ok == 1)

  0008a	83 fe 01	 cmp	 esi, 1
  0008d	75 05		 jne	 SHORT $LN2@takewhile_@4

; 1295 :         return item;

  0008f	48 8b c3	 mov	 rax, rbx
  00092	eb 15		 jmp	 SHORT $LN10@takewhile_@4
$LN2@takewhile_@4:

; 1296 :     Py_DECREF(item);

  00094	48 8b cb	 mov	 rcx, rbx
  00097	e8 00 00 00 00	 call	 _Py_DecRef

; 1297 :     if (ok == 0)

  0009c	85 f6		 test	 esi, esi
  0009e	75 07		 jne	 SHORT $LN1@takewhile_@4

; 1298 :         lz->stop = 1;

  000a0	c7 47 70 01 00
	00 00		 mov	 DWORD PTR [rdi+112], 1
$LN1@takewhile_@4:

; 1299 :     return NULL;

  000a7	33 c0		 xor	 eax, eax
$LN10@takewhile_@4:
  000a9	48 8b 74 24 40	 mov	 rsi, QWORD PTR [rsp+64]
  000ae	48 8b 6c 24 38	 mov	 rbp, QWORD PTR [rsp+56]
  000b3	48 8b 5c 24 30	 mov	 rbx, QWORD PTR [rsp+48]

; 1300 : }

  000b8	48 83 c4 20	 add	 rsp, 32			; 00000020H
  000bc	5f		 pop	 rdi
  000bd	c3		 ret	 0
takewhile_next ENDP
_TEXT	ENDS
;	COMDAT pdata
pdata	SEGMENT
$pdata$takewhile_reduce DD imagerel takewhile_reduce
	DD	imagerel takewhile_reduce+40
	DD	imagerel $unwind$takewhile_reduce
pdata	ENDS
;	COMDAT xdata
xdata	SEGMENT
$unwind$takewhile_reduce DD 010401H
	DD	06204H
; Function compile flags: /Ogtpy
xdata	ENDS
;	COMDAT takewhile_reduce
_TEXT	SEGMENT
lz$ = 64
takewhile_reduce PROC					; COMDAT

; 1304 : {

  00000	48 83 ec 38	 sub	 rsp, 56			; 00000038H

; 1305 :     return Py_BuildValue("O(OO)l", Py_TYPE(lz),
; 1306 :                          lz->func, lz->it, lz->stop);

  00004	8b 41 70	 mov	 eax, DWORD PTR [rcx+112]
  00007	4c 8b 49 68	 mov	 r9, QWORD PTR [rcx+104]
  0000b	4c 8b 41 60	 mov	 r8, QWORD PTR [rcx+96]
  0000f	48 8b 51 58	 mov	 rdx, QWORD PTR [rcx+88]
  00013	48 8d 0d 00 00
	00 00		 lea	 rcx, OFFSET FLAT:??_C@_06NMCPHMHN@O?$CIOO?$CJl?$AA@
  0001a	89 44 24 20	 mov	 DWORD PTR [rsp+32], eax
  0001e	e8 00 00 00 00	 call	 Py_BuildValue

; 1307 : }

  00023	48 83 c4 38	 add	 rsp, 56			; 00000038H
  00027	c3		 ret	 0
takewhile_reduce ENDP
_TEXT	ENDS
;	COMDAT pdata
; File c:\src\pyparallel\include\object.h
pdata	SEGMENT
$pdata$takewhile_reduce_setstate DD imagerel takewhile_reduce_setstate
	DD	imagerel takewhile_reduce_setstate+114
	DD	imagerel $unwind$takewhile_reduce_setstate
pdata	ENDS
;	COMDAT xdata
xdata	SEGMENT
$unwind$takewhile_reduce_setstate DD 020601H
	DD	030025206H
; Function compile flags: /Ogtpy
; File c:\src\pyparallel\modules\itertoolsmodule.c
xdata	ENDS
;	COMDAT takewhile_reduce_setstate
_TEXT	SEGMENT
lz$ = 64
state$ = 72
takewhile_reduce_setstate PROC				; COMDAT

; 1311 : {

  00000	40 53		 push	 rbx
  00002	48 83 ec 30	 sub	 rsp, 48			; 00000030H
  00006	48 8b d9	 mov	 rbx, rcx

; 1312 :     int stop = PyObject_IsTrue(state);

  00009	48 8b ca	 mov	 rcx, rdx
  0000c	e8 00 00 00 00	 call	 PyObject_IsTrue

; 1313 :     if (stop < 0)

  00011	85 c0		 test	 eax, eax
  00013	79 08		 jns	 SHORT $LN1@takewhile_@5

; 1314 :         return NULL;

  00015	33 c0		 xor	 eax, eax

; 1317 : }

  00017	48 83 c4 30	 add	 rsp, 48			; 00000030H
  0001b	5b		 pop	 rbx
  0001c	c3		 ret	 0
$LN1@takewhile_@5:

; 1315 :     lz->stop = stop;

  0001d	89 43 70	 mov	 DWORD PTR [rbx+112], eax

; 1316 :     Py_RETURN_NONE;

  00020	e8 00 00 00 00	 call	 _Py_PXCTX
  00025	85 c0		 test	 eax, eax
  00027	75 3c		 jne	 SHORT $LN5@takewhile_@5
  00029	4c 8d 0d 00 00
	00 00		 lea	 r9, OFFSET FLAT:_Py_NoneStruct
  00030	48 8d 15 00 00
	00 00		 lea	 rdx, OFFSET FLAT:??_C@_0CD@HDJFDCDP@c?3?2src?2pyparallel?2include?2object@
