; Listing generated by Microsoft (R) Optimizing Compiler Version 16.00.40219.01 

include listing.inc

INCLUDELIB MSVCRT
INCLUDELIB OLDNAMES

PUBLIC	??_C@_05HKAKDGKI@EMPTY?$AA@			; `string'
PUBLIC	??_C@_03FFKENMBO@?5?$AA?$AD?$AA@		; `string'
PUBLIC	??_C@_04CGDABKFL@ATOM?$AA@			; `string'
PUBLIC	??_C@_04BLNHNEEM@ITEM?$AA@			; `string'
PUBLIC	??_C@_03FKEEPDEP@ALT?$AA@			; `string'
PUBLIC	??_C@_03FLLHINKG@?5?$AI?$AD?$AA@		; `string'
PUBLIC	??_C@_03FAKADFCF@RHS?$AA@			; `string'
PUBLIC	??_C@_03HOIJIPNN@?5?$AA?$AA?$AA@		; `string'
PUBLIC	??_C@_04HDFDKEDN@RULE?$AA@			; `string'
PUBLIC	??_C@_03OLCEPAKN@8?$AA?$AA?$AA@			; `string'
PUBLIC	??_C@_06JCIBHKLM@MSTART?$AA@			; `string'
;	COMDAT ??_C@_05HKAKDGKI@EMPTY?$AA@
CONST	SEGMENT
??_C@_05HKAKDGKI@EMPTY?$AA@ DB 'EMPTY', 00H		; `string'
CONST	ENDS
;	COMDAT ??_C@_03FFKENMBO@?5?$AA?$AD?$AA@
CONST	SEGMENT
??_C@_03FFKENMBO@?5?$AA?$AD?$AA@ DB ' ', 00H, 03H, 00H	; `string'
CONST	ENDS
;	COMDAT ??_C@_04CGDABKFL@ATOM?$AA@
CONST	SEGMENT
??_C@_04CGDABKFL@ATOM?$AA@ DB 'ATOM', 00H		; `string'
CONST	ENDS
;	COMDAT ??_C@_04BLNHNEEM@ITEM?$AA@
CONST	SEGMENT
??_C@_04BLNHNEEM@ITEM?$AA@ DB 'ITEM', 00H		; `string'
CONST	ENDS
;	COMDAT ??_C@_03FKEEPDEP@ALT?$AA@
CONST	SEGMENT
??_C@_03FKEEPDEP@ALT?$AA@ DB 'ALT', 00H			; `string'
CONST	ENDS
;	COMDAT ??_C@_03FLLHINKG@?5?$AI?$AD?$AA@
CONST	SEGMENT
??_C@_03FLLHINKG@?5?$AI?$AD?$AA@ DB ' ', 08H, 03H, 00H	; `string'
CONST	ENDS
;	COMDAT ??_C@_03FAKADFCF@RHS?$AA@
CONST	SEGMENT
??_C@_03FAKADFCF@RHS?$AA@ DB 'RHS', 00H			; `string'
CONST	ENDS
;	COMDAT ??_C@_03HOIJIPNN@?5?$AA?$AA?$AA@
CONST	SEGMENT
??_C@_03HOIJIPNN@?5?$AA?$AA?$AA@ DB ' ', 00H, 00H, 00H	; `string'
CONST	ENDS
;	COMDAT ??_C@_04HDFDKEDN@RULE?$AA@
CONST	SEGMENT
??_C@_04HDFDKEDN@RULE?$AA@ DB 'RULE', 00H		; `string'
CONST	ENDS
;	COMDAT ??_C@_03OLCEPAKN@8?$AA?$AA?$AA@
CONST	SEGMENT
??_C@_03OLCEPAKN@8?$AA?$AA?$AA@ DB '8', 00H, 00H, 00H	; `string'
CONST	ENDS
;	COMDAT ??_C@_06JCIBHKLM@MSTART?$AA@
CONST	SEGMENT
??_C@_06JCIBHKLM@MSTART?$AA@ DB 'MSTART', 00H		; `string'
CONST	ENDS
_DATA	SEGMENT
arcs_0_0 DW	02H
	DW	00H
	DW	03H
	DW	00H
	DW	04H
	DW	01H
arcs_0_1 DW	00H
	DW	01H
states_0 DD	03H
	ORG $+4
	DQ	FLAT:arcs_0_0
	ORG $+24
	DD	01H
	ORG $+4
	DQ	FLAT:arcs_0_1
	ORG $+24
arcs_1_0 DW	05H
	DW	01H
arcs_1_1 DW	06H
	DW	02H
arcs_1_2 DW	07H
	DW	03H
arcs_1_3 DW	03H
	DW	04H
arcs_1_4 DW	00H
	DW	04H
arcs_2_0 DW	08H
	DW	01H
arcs_2_1 DW	09H
	DW	00H
	DW	00H
	DW	01H
states_1 DD	01H
	ORG $+4
	DQ	FLAT:arcs_1_0
	ORG $+24
	DD	01H
	ORG $+4
	DQ	FLAT:arcs_1_1
	ORG $+24
	DD	01H
	ORG $+4
	DQ	FLAT:arcs_1_2
	ORG $+24
	DD	01H
	ORG $+4
	DQ	FLAT:arcs_1_3
	ORG $+24
	DD	01H
	ORG $+4
	DQ	FLAT:arcs_1_4
	ORG $+24
arcs_3_0 DW	0aH
	DW	01H
arcs_4_1 DW	07H
	DW	03H
states_2 DD	01H
	ORG $+4
	DQ	FLAT:arcs_2_0
	ORG $+24
	DD	02H
	ORG $+4
	DQ	FLAT:arcs_2_1
	ORG $+24
arcs_3_1 DW	0aH
	DW	01H
	DW	00H
	DW	01H
arcs_4_0 DW	0bH
	DW	01H
	DW	0dH
	DW	02H
states_3 DD	01H
	ORG $+4
	DQ	FLAT:arcs_3_0
	ORG $+24
	DD	02H
	ORG $+4
	DQ	FLAT:arcs_3_1
	ORG $+24
arcs_4_2 DW	0eH
	DW	04H
	DW	0fH
	DW	04H
	DW	00H
	DW	02H
arcs_4_3 DW	0cH
	DW	04H
arcs_4_4 DW	00H
	DW	04H
arcs_5_1 DW	00H
	DW	01H
arcs_5_2 DW	07H
	DW	03H
arcs_5_3 DW	012H
	DW	01H
states_4 DD	02H
	ORG $+4
	DQ	FLAT:arcs_4_0
	ORG $+24
	DD	01H
	ORG $+4
	DQ	FLAT:arcs_4_1
	ORG $+24
	DD	03H
	ORG $+4
	DQ	FLAT:arcs_4_2
	ORG $+24
	DD	01H
	ORG $+4
	DQ	FLAT:arcs_4_3
	ORG $+24
	DD	01H
	ORG $+4
	DQ	FLAT:arcs_4_4
	ORG $+24
arcs_5_0 DW	05H
	DW	01H
	DW	010H
	DW	01H
	DW	011H
	DW	02H
	ORG $+12
states_5 DD	03H
	ORG $+4
	DQ	FLAT:arcs_5_0
	ORG $+24
	DD	01H
	ORG $+4
	DQ	FLAT:arcs_5_1
	ORG $+24
	DD	01H
	ORG $+4
	DQ	FLAT:arcs_5_2
	ORG $+24
	DD	01H
	ORG $+4
	DQ	FLAT:arcs_5_3
	ORG $+24
dfas	DD	0100H
	ORG $+4
	DQ	FLAT:??_C@_06JCIBHKLM@MSTART?$AA@
	DD	00H
	DD	02H
	DQ	FLAT:states_0
	DQ	FLAT:??_C@_03OLCEPAKN@8?$AA?$AA?$AA@
	DD	0101H
	ORG $+4
	DQ	FLAT:??_C@_04HDFDKEDN@RULE?$AA@
	DD	00H
	DD	05H
	DQ	FLAT:states_1
	DQ	FLAT:??_C@_03HOIJIPNN@?5?$AA?$AA?$AA@
	DD	0102H
	ORG $+4
	DQ	FLAT:??_C@_03FAKADFCF@RHS?$AA@
	DD	00H
	DD	02H
	DQ	FLAT:states_2
	DQ	FLAT:??_C@_03FLLHINKG@?5?$AI?$AD?$AA@
	DD	0103H
	ORG $+4
	DQ	FLAT:??_C@_03FKEEPDEP@ALT?$AA@
	DD	00H
	DD	02H
	DQ	FLAT:states_3
	DQ	FLAT:??_C@_03FLLHINKG@?5?$AI?$AD?$AA@
	DD	0104H
	ORG $+4
	DQ	FLAT:??_C@_04BLNHNEEM@ITEM?$AA@
	DD	00H
	DD	05H
	DQ	FLAT:states_4
	DQ	FLAT:??_C@_03FLLHINKG@?5?$AI?$AD?$AA@
	DD	0105H
	ORG $+4
	DQ	FLAT:??_C@_04CGDABKFL@ATOM?$AA@
	DD	00H
	DD	04H
	DQ	FLAT:states_5
	DQ	FLAT:??_C@_03FFKENMBO@?5?$AA?$AD?$AA@
labels	DD	00H
	ORG $+4
	DQ	FLAT:??_C@_05HKAKDGKI@EMPTY?$AA@
	DD	0100H
	ORG $+4
	DQ	0000000000000000H
	DD	0101H
	ORG $+4
	DQ	0000000000000000H
	DD	04H
	ORG $+4
	DQ	0000000000000000H
	DD	00H
	ORG $+4
	DQ	0000000000000000H
	DD	01H
	ORG $+4
	DQ	0000000000000000H
	DD	0bH
	ORG $+4
	DQ	0000000000000000H
	DD	0102H
	ORG $+4
	DQ	0000000000000000H
	DD	0103H
	ORG $+4
	DQ	0000000000000000H
	DD	012H
	ORG $+4
	DQ	0000000000000000H
	DD	0104H
	ORG $+4
	DQ	0000000000000000H
	DD	09H
	ORG $+4
	DQ	0000000000000000H
	DD	0aH
	ORG $+4
	DQ	0000000000000000H
	DD	0105H
	ORG $+4
	DQ	0000000000000000H
	DD	010H
	ORG $+4
	DQ	0000000000000000H
	DD	0eH
	ORG $+4
	DQ	0000000000000000H
	DD	03H
	ORG $+4
	DQ	0000000000000000H
	DD	07H
	ORG $+4
	DQ	0000000000000000H
	DD	08H
	ORG $+4
	DQ	0000000000000000H
_PyParser_Grammar DD 06H
	ORG $+4
	DQ	FLAT:dfas
	DD	013H
	ORG $+4
	DQ	FLAT:labels
	DD	0100H
	ORG $+4
_DATA	ENDS
PUBLIC	_Py_meta_grammar
; Function compile flags: /Ogtpy
; File c:\src\pyparallel\parser\metagrammar.c
;	COMDAT _Py_meta_grammar
_TEXT	SEGMENT
_Py_meta_grammar PROC					; COMDAT

; 152  :     return &_PyParser_Grammar;

  00000	48 8d 05 00 00
	00 00		 lea	 rax, OFFSET FLAT:_PyParser_Grammar

; 153  : }

  00007	c3		 ret	 0
_Py_meta_grammar ENDP
_TEXT	ENDS
PUBLIC	Py_meta_grammar
; Function compile flags: /Ogtpy
;	COMDAT Py_meta_grammar
_TEXT	SEGMENT
Py_meta_grammar PROC					; COMDAT

; 158  :   return meta_grammar();
; 159  : }

  00000	e9 00 00 00 00	 jmp	 _Py_meta_grammar
Py_meta_grammar ENDP
_TEXT	ENDS
END
