; Listing generated by Microsoft (R) Optimizing Compiler Version 16.00.40219.01 

include listing.inc

INCLUDELIB MSVCRT
INCLUDELIB OLDNAMES

PUBLIC	??_C@_06MKPCHOAB@pickle?$AA@			; `string'
PUBLIC	??_C@_06OENOICDH@parser?$AA@			; `string'
PUBLIC	??_C@_0DM@NBLABHOM@Returns?5the?5pickle?5magic?5to?5allo@ ; `string'
PUBLIC	??_C@_08EEAEJMPM@_pickler?$AA@			; `string'
PUBLIC	??_C@_08NFEDFLJK@tuple2st?$AA@			; `string'
PUBLIC	??_C@_0CN@NOCBOFNF@Creates?5a?5list?9tree?5representati@ ; `string'
PUBLIC	??_C@_07OOJPKMEF@st2list?$AA@			; `string'
PUBLIC	??_C@_0CO@IAPBJAMO@Creates?5a?5tuple?9tree?5representat@ ; `string'
PUBLIC	??_C@_08FEMHBCAC@st2tuple?$AA@			; `string'
PUBLIC	??_C@_0DB@LOLPPNBK@Creates?5an?5ST?5object?5from?5a?5tree@ ; `string'
PUBLIC	??_C@_0M@IODEHOKN@sequence2st?$AA@		; `string'
PUBLIC	??_C@_0CD@KPIPHOID@Creates?5an?5ST?5object?5from?5a?5suit@ ; `string'
PUBLIC	??_C@_05PPOFKJGL@suite?$AA@			; `string'
PUBLIC	??_C@_0DF@LCMHLDAF@Determines?5if?5an?5ST?5object?5was?5c@ ; `string'
PUBLIC	??_C@_0DL@CMEKOJEA@Determines?5if?5an?5ST?5object?5was?5c@ ; `string'
PUBLIC	??_C@_0CJ@LPHIHCBO@Creates?5an?5ST?5object?5from?5an?5exp@ ; `string'
PUBLIC	??_C@_04IPHMALII@expr?$AA@			; `string'
PUBLIC	??_C@_0CK@BFIACKMB@Compiles?5an?5ST?5object?5into?5a?5cod@ ; `string'
PUBLIC	??_C@_09GANMKKNK@compilest?$AA@			; `string'
PUBLIC	??_C@_08IBBDGPOF@sequence?$AA@			; `string'
PUBLIC	??_C@_06OEKOLKIL@source?$AA@			; `string'
PUBLIC	??_C@_08BABJIOEM@filename?$AA@			; `string'
PUBLIC	??_C@_08CFPJCNGC@col_info?$AA@			; `string'
PUBLIC	??_C@_09CHLNHKJH@line_info?$AA@			; `string'
PUBLIC	??_C@_02BNFKEMBG@st?$AA@			; `string'
PUBLIC	??_C@_0DE@MHDFBGFO@Intermediate?5representation?5of?5a@ ; `string'
PUBLIC	??_C@_09BEPDEEBN@parser?4st?$AA@		; `string'
PUBLIC	??_C@_0CC@KFEBPDOJ@Returns?5size?5in?5memory?0?5in?5bytes@ ; `string'
PUBLIC	??_C@_0L@HOGGIPGN@__sizeof__?$AA@		; `string'
PUBLIC	??_C@_0DA@KGMEGDFO@Creates?5a?5tuple?9tree?5representat@ ; `string'
PUBLIC	??_C@_07FMMAKOKC@totuple?$AA@			; `string'
PUBLIC	??_C@_0CP@CPJNHDKH@Creates?5a?5list?9tree?5representati@ ; `string'
PUBLIC	??_C@_06IEBOCBAI@tolist?$AA@			; `string'
PUBLIC	??_C@_0DH@JMKDJABI@Determines?5if?5this?5ST?5object?5was@ ; `string'
PUBLIC	??_C@_07DJCBKGIH@issuite?$AA@			; `string'
PUBLIC	??_C@_0DN@JDPEKGGP@Determines?5if?5this?5ST?5object?5was@ ; `string'
PUBLIC	??_C@_06EHKKFFLC@isexpr?$AA@			; `string'
PUBLIC	??_C@_0CL@DBGONLLJ@Compile?5this?5ST?5object?5into?5a?5co@ ; `string'
PUBLIC	??_C@_07OLJGFCKG@compile?$AA@			; `string'
_BSS	SEGMENT
parser_error DQ	01H DUP (?)
pickle_constructor DQ 01H DUP (?)
_BSS	ENDS
_TLS	SEGMENT
?PyId__pickler@?2??PyInit_parser@@9@9 DQ 0000000000000000H ; `PyInit_parser'::`3'::PyId__pickler
	DQ	FLAT:??_C@_08EEAEJMPM@_pickler?$AA@
	DQ	0000000000000000H
?PyId_sequence2st@?2??PyInit_parser@@9@9 DQ 0000000000000000H ; `PyInit_parser'::`3'::PyId_sequence2st
	DQ	FLAT:??_C@_0M@IODEHOKN@sequence2st?$AA@
	DQ	0000000000000000H
?PyId_pickle@?2??PyInit_parser@@9@9 DQ 0000000000000000H ; `PyInit_parser'::`3'::PyId_pickle
	DQ	FLAT:??_C@_06MKPCHOAB@pickle?$AA@
	DQ	0000000000000000H
_TLS	ENDS
;	COMDAT ??_C@_06MKPCHOAB@pickle?$AA@
CONST	SEGMENT
??_C@_06MKPCHOAB@pickle?$AA@ DB 'pickle', 00H		; `string'
CONST	ENDS
;	COMDAT ??_C@_06OENOICDH@parser?$AA@
CONST	SEGMENT
??_C@_06OENOICDH@parser?$AA@ DB 'parser', 00H		; `string'
CONST	ENDS
;	COMDAT ??_C@_0DM@NBLABHOM@Returns?5the?5pickle?5magic?5to?5allo@
CONST	SEGMENT
??_C@_0DM@NBLABHOM@Returns?5the?5pickle?5magic?5to?5allo@ DB 'Returns the'
	DB	' pickle magic to allow ST objects to be pickled.', 00H ; `string'
CONST	ENDS
;	COMDAT ??_C@_08EEAEJMPM@_pickler?$AA@
CONST	SEGMENT
??_C@_08EEAEJMPM@_pickler?$AA@ DB '_pickler', 00H	; `string'
CONST	ENDS
;	COMDAT ??_C@_08NFEDFLJK@tuple2st?$AA@
CONST	SEGMENT
??_C@_08NFEDFLJK@tuple2st?$AA@ DB 'tuple2st', 00H	; `string'
CONST	ENDS
;	COMDAT ??_C@_0CN@NOCBOFNF@Creates?5a?5list?9tree?5representati@
CONST	SEGMENT
??_C@_0CN@NOCBOFNF@Creates?5a?5list?9tree?5representati@ DB 'Creates a li'
	DB	'st-tree representation of an ST.', 00H	; `string'
CONST	ENDS
;	COMDAT ??_C@_07OOJPKMEF@st2list?$AA@
CONST	SEGMENT
??_C@_07OOJPKMEF@st2list?$AA@ DB 'st2list', 00H		; `string'
CONST	ENDS
;	COMDAT ??_C@_0CO@IAPBJAMO@Creates?5a?5tuple?9tree?5representat@
CONST	SEGMENT
??_C@_0CO@IAPBJAMO@Creates?5a?5tuple?9tree?5representat@ DB 'Creates a tu'
	DB	'ple-tree representation of an ST.', 00H	; `string'
CONST	ENDS
;	COMDAT ??_C@_08FEMHBCAC@st2tuple?$AA@
CONST	SEGMENT
??_C@_08FEMHBCAC@st2tuple?$AA@ DB 'st2tuple', 00H	; `string'
CONST	ENDS
;	COMDAT ??_C@_0DB@LOLPPNBK@Creates?5an?5ST?5object?5from?5a?5tree@
CONST	SEGMENT
??_C@_0DB@LOLPPNBK@Creates?5an?5ST?5object?5from?5a?5tree@ DB 'Creates an'
	DB	' ST object from a tree representation.', 00H ; `string'
CONST	ENDS
;	COMDAT ??_C@_0M@IODEHOKN@sequence2st?$AA@
CONST	SEGMENT
??_C@_0M@IODEHOKN@sequence2st?$AA@ DB 'sequence2st', 00H ; `string'
CONST	ENDS
;	COMDAT ??_C@_0CD@KPIPHOID@Creates?5an?5ST?5object?5from?5a?5suit@
CONST	SEGMENT
??_C@_0CD@KPIPHOID@Creates?5an?5ST?5object?5from?5a?5suit@ DB 'Creates an'
	DB	' ST object from a suite.', 00H		; `string'
CONST	ENDS
;	COMDAT ??_C@_05PPOFKJGL@suite?$AA@
CONST	SEGMENT
??_C@_05PPOFKJGL@suite?$AA@ DB 'suite', 00H		; `string'
CONST	ENDS
;	COMDAT ??_C@_0DF@LCMHLDAF@Determines?5if?5an?5ST?5object?5was?5c@
CONST	SEGMENT
??_C@_0DF@LCMHLDAF@Determines?5if?5an?5ST?5object?5was?5c@ DB 'Determines'
	DB	' if an ST object was created from a suite.', 00H ; `string'
CONST	ENDS
;	COMDAT ??_C@_0DL@CMEKOJEA@Determines?5if?5an?5ST?5object?5was?5c@
CONST	SEGMENT
??_C@_0DL@CMEKOJEA@Determines?5if?5an?5ST?5object?5was?5c@ DB 'Determines'
	DB	' if an ST object was created from an expression.', 00H ; `string'
CONST	ENDS
;	COMDAT ??_C@_0CJ@LPHIHCBO@Creates?5an?5ST?5object?5from?5an?5exp@
CONST	SEGMENT
??_C@_0CJ@LPHIHCBO@Creates?5an?5ST?5object?5from?5an?5exp@ DB 'Creates an'
	DB	' ST object from an expression.', 00H	; `string'
CONST	ENDS
;	COMDAT ??_C@_04IPHMALII@expr?$AA@
CONST	SEGMENT
??_C@_04IPHMALII@expr?$AA@ DB 'expr', 00H		; `string'
CONST	ENDS
;	COMDAT ??_C@_0CK@BFIACKMB@Compiles?5an?5ST?5object?5into?5a?5cod@
CONST	SEGMENT
??_C@_0CK@BFIACKMB@Compiles?5an?5ST?5object?5into?5a?5cod@ DB 'Compiles a'
	DB	'n ST object into a code object.', 00H	; `string'
CONST	ENDS
;	COMDAT ??_C@_09GANMKKNK@compilest?$AA@
CONST	SEGMENT
??_C@_09GANMKKNK@compilest?$AA@ DB 'compilest', 00H	; `string'
CONST	ENDS
;	COMDAT ??_C@_08IBBDGPOF@sequence?$AA@
CONST	SEGMENT
??_C@_08IBBDGPOF@sequence?$AA@ DB 'sequence', 00H	; `string'
CONST	ENDS
;	COMDAT ??_C@_06OEKOLKIL@source?$AA@
CONST	SEGMENT
??_C@_06OEKOLKIL@source?$AA@ DB 'source', 00H		; `string'
CONST	ENDS
;	COMDAT ??_C@_08BABJIOEM@filename?$AA@
CONST	SEGMENT
??_C@_08BABJIOEM@filename?$AA@ DB 'filename', 00H	; `string'
CONST	ENDS
;	COMDAT ??_C@_08CFPJCNGC@col_info?$AA@
CONST	SEGMENT
??_C@_08CFPJCNGC@col_info?$AA@ DB 'col_info', 00H	; `string'
CONST	ENDS
;	COMDAT ??_C@_09CHLNHKJH@line_info?$AA@
CONST	SEGMENT
??_C@_09CHLNHKJH@line_info?$AA@ DB 'line_info', 00H	; `string'
CONST	ENDS
;	COMDAT ??_C@_02BNFKEMBG@st?$AA@
CONST	SEGMENT
??_C@_02BNFKEMBG@st?$AA@ DB 'st', 00H			; `string'
CONST	ENDS
;	COMDAT ??_C@_0DE@MHDFBGFO@Intermediate?5representation?5of?5a@
CONST	SEGMENT
??_C@_0DE@MHDFBGFO@Intermediate?5representation?5of?5a@ DB 'Intermediate '
	DB	'representation of a Python parse tree.', 00H ; `string'
CONST	ENDS
;	COMDAT ??_C@_09BEPDEEBN@parser?4st?$AA@
CONST	SEGMENT
??_C@_09BEPDEEBN@parser?4st?$AA@ DB 'parser.st', 00H	; `string'
CONST	ENDS
;	COMDAT ??_C@_0CC@KFEBPDOJ@Returns?5size?5in?5memory?0?5in?5bytes@
CONST	SEGMENT
??_C@_0CC@KFEBPDOJ@Returns?5size?5in?5memory?0?5in?5bytes@ DB 'Returns si'
	DB	'ze in memory, in bytes.', 00H		; `string'
CONST	ENDS
;	COMDAT ??_C@_0L@HOGGIPGN@__sizeof__?$AA@
CONST	SEGMENT
??_C@_0L@HOGGIPGN@__sizeof__?$AA@ DB '__sizeof__', 00H	; `string'
CONST	ENDS
;	COMDAT ??_C@_0DA@KGMEGDFO@Creates?5a?5tuple?9tree?5representat@
CONST	SEGMENT
??_C@_0DA@KGMEGDFO@Creates?5a?5tuple?9tree?5representat@ DB 'Creates a tu'
	DB	'ple-tree representation of this ST.', 00H	; `string'
CONST	ENDS
;	COMDAT ??_C@_07FMMAKOKC@totuple?$AA@
CONST	SEGMENT
??_C@_07FMMAKOKC@totuple?$AA@ DB 'totuple', 00H		; `string'
CONST	ENDS
;	COMDAT ??_C@_0CP@CPJNHDKH@Creates?5a?5list?9tree?5representati@
CONST	SEGMENT
??_C@_0CP@CPJNHDKH@Creates?5a?5list?9tree?5representati@ DB 'Creates a li'
	DB	'st-tree representation of this ST.', 00H	; `string'
CONST	ENDS
;	COMDAT ??_C@_06IEBOCBAI@tolist?$AA@
CONST	SEGMENT
??_C@_06IEBOCBAI@tolist?$AA@ DB 'tolist', 00H		; `string'
CONST	ENDS
;	COMDAT ??_C@_0DH@JMKDJABI@Determines?5if?5this?5ST?5object?5was@
CONST	SEGMENT
??_C@_0DH@JMKDJABI@Determines?5if?5this?5ST?5object?5was@ DB 'Determines '
	DB	'if this ST object was created from a suite.', 00H ; `string'
CONST	ENDS
;	COMDAT ??_C@_07DJCBKGIH@issuite?$AA@
CONST	SEGMENT
??_C@_07DJCBKGIH@issuite?$AA@ DB 'issuite', 00H		; `string'
CONST	ENDS
;	COMDAT ??_C@_0DN@JDPEKGGP@Determines?5if?5this?5ST?5object?5was@
CONST	SEGMENT
??_C@_0DN@JDPEKGGP@Determines?5if?5this?5ST?5object?5was@ DB 'Determines '
	DB	'if this ST object was created from an expression.', 00H ; `string'
CONST	ENDS
;	COMDAT ??_C@_06EHKKFFLC@isexpr?$AA@
CONST	SEGMENT
??_C@_06EHKKFFLC@isexpr?$AA@ DB 'isexpr', 00H		; `string'
CONST	ENDS
;	COMDAT ??_C@_0CL@DBGONLLJ@Compile?5this?5ST?5object?5into?5a?5co@
CONST	SEGMENT
??_C@_0CL@DBGONLLJ@Compile?5this?5ST?5object?5into?5a?5co@ DB 'Compile th'
	DB	'is ST object into a code object.', 00H	; `string'
CONST	ENDS
;	COMDAT ??_C@_07OLJGFCKG@compile?$AA@
CONST	SEGMENT
??_C@_07OLJGFCKG@compile?$AA@ DB 'compile', 00H		; `string'
CONST	ENDS
_DATA	SEGMENT
parser_copyright_string DB 'Copyright 1995-1996 by Virginia Polytechnic I'
	DB	'nstitute & State', 0aH, 'University, Blacksburg, Virginia, US'
	DB	'A, and Fred L. Drake, Jr., Reston,', 0aH, 'Virginia, USA.  Po'
	DB	'rtions copyright 1991-1995 by Stichting Mathematisch', 0aH, 'C'
	DB	'entrum, Amsterdam, The Netherlands.', 00H
	ORG $+7
parser_doc_string DB 'This is an interface to Python''s internal parser.', 00H
	ORG $+2
parser_version_string DB '0.5', 00H
parser_methods DQ FLAT:??_C@_07OLJGFCKG@compile?$AA@
	DQ	FLAT:parser_compilest
	DD	03H
	ORG $+4
	DQ	FLAT:??_C@_0CL@DBGONLLJ@Compile?5this?5ST?5object?5into?5a?5co@
	DQ	FLAT:??_C@_06EHKKFFLC@isexpr?$AA@
	DQ	FLAT:parser_isexpr
	DD	03H
	ORG $+4
	DQ	FLAT:??_C@_0DN@JDPEKGGP@Determines?5if?5this?5ST?5object?5was@
	DQ	FLAT:??_C@_07DJCBKGIH@issuite?$AA@
	DQ	FLAT:parser_issuite
	DD	03H
	ORG $+4
	DQ	FLAT:??_C@_0DH@JMKDJABI@Determines?5if?5this?5ST?5object?5was@
	DQ	FLAT:??_C@_06IEBOCBAI@tolist?$AA@
	DQ	FLAT:parser_st2list
	DD	03H
	ORG $+4
	DQ	FLAT:??_C@_0CP@CPJNHDKH@Creates?5a?5list?9tree?5representati@
	DQ	FLAT:??_C@_07FMMAKOKC@totuple?$AA@
	DQ	FLAT:parser_st2tuple
	DD	03H
	ORG $+4
	DQ	FLAT:??_C@_0DA@KGMEGDFO@Creates?5a?5tuple?9tree?5representat@
	DQ	FLAT:??_C@_0L@HOGGIPGN@__sizeof__?$AA@
	DQ	FLAT:parser_sizeof
	DD	04H
	ORG $+4
	DQ	FLAT:??_C@_0CC@KFEBPDOJ@Returns?5size?5in?5memory?0?5in?5bytes@
	DQ	0000000000000000H
	DQ	0000000000000000H
	DD	00H
	ORG $+4
	DQ	0000000000000000H
PyST_Type DQ	dead1234beef5678H
	DQ	dead1234beef5678H
	DQ	0000000000000000H
	ORG $+8
	DQ	0000000000000001H
	DQ	0000000000000000H
	DQ	0000000000000000H
	DQ	0000000000000000H
	DQ	dead1234beef5678H
	DQ	dead1234beef5678H
	DQ	0000000000000001H
	DQ	0000000000000000H
	DQ	0000000000000000H
	ORG $+8
	DQ	FLAT:??_C@_09BEPDEEBN@parser?4st?$AA@
	DQ	0000000000000070H
	DQ	0000000000000000H
	DQ	FLAT:parser_free
	DQ	0000000000000000H
	DQ	0000000000000000H
	DQ	0000000000000000H
	DQ	0000000000000000H
	DQ	0000000000000000H
	DQ	0000000000000000H
	DQ	0000000000000000H
	DQ	0000000000000000H
	DQ	0000000000000000H
	DQ	0000000000000000H
	DQ	0000000000000000H
	DQ	0000000000000000H
	DQ	0000000000000000H
	DQ	0000000000000000H
	DD	040000H
	ORG $+4
	DQ	FLAT:??_C@_0DE@MHDFBGFO@Intermediate?5representation?5of?5a@
	DQ	0000000000000000H
	DQ	0000000000000000H
	DQ	FLAT:parser_richcompare
	DQ	0000000000000000H
	DQ	0000000000000000H
	DQ	0000000000000000H
	DQ	FLAT:parser_methods
	ORG $+152
?keywords@?1??parser_st2tuple@@9@9 DQ FLAT:??_C@_02BNFKEMBG@st?$AA@ ; `parser_st2tuple'::`2'::keywords
	DQ	FLAT:??_C@_09CHLNHKJH@line_info?$AA@
	DQ	FLAT:??_C@_08CFPJCNGC@col_info?$AA@
	DQ	0000000000000000H
?keywords@?1??parser_st2list@@9@9 DQ FLAT:??_C@_02BNFKEMBG@st?$AA@ ; `parser_st2list'::`2'::keywords
	DQ	FLAT:??_C@_09CHLNHKJH@line_info?$AA@
	DQ	FLAT:??_C@_08CFPJCNGC@col_info?$AA@
	DQ	0000000000000000H
?keywords@?1??parser_compilest@@9@9 DQ FLAT:??_C@_02BNFKEMBG@st?$AA@ ; `parser_compilest'::`2'::keywords
	DQ	FLAT:??_C@_08BABJIOEM@filename?$AA@
	DQ	0000000000000000H
?keywords@?1??parser_isexpr@@9@9 DQ FLAT:??_C@_02BNFKEMBG@st?$AA@ ; `parser_isexpr'::`2'::keywords
	DQ	0000000000000000H
?keywords@?1??parser_issuite@@9@9 DQ FLAT:??_C@_02BNFKEMBG@st?$AA@ ; `parser_issuite'::`2'::keywords
	DQ	0000000000000000H
?keywords@?1??parser_do_parse@@9@9 DQ FLAT:??_C@_06OEKOLKIL@source?$AA@ ; `parser_do_parse'::`2'::keywords
	DQ	0000000000000000H
?keywords@?1??parser_tuple2st@@9@9 DQ FLAT:??_C@_08IBBDGPOF@sequence?$AA@ ; `parser_tuple2st'::`2'::keywords
	DQ	0000000000000000H
	ORG $+8
parser_functions DQ FLAT:??_C@_09GANMKKNK@compilest?$AA@
	DQ	FLAT:parser_compilest
	DD	03H
	ORG $+4
	DQ	FLAT:??_C@_0CK@BFIACKMB@Compiles?5an?5ST?5object?5into?5a?5cod@
	DQ	FLAT:??_C@_04IPHMALII@expr?$AA@
	DQ	FLAT:parser_expr
	DD	03H
	ORG $+4
	DQ	FLAT:??_C@_0CJ@LPHIHCBO@Creates?5an?5ST?5object?5from?5an?5exp@
	DQ	FLAT:??_C@_06EHKKFFLC@isexpr?$AA@
	DQ	FLAT:parser_isexpr
	DD	03H
	ORG $+4
	DQ	FLAT:??_C@_0DL@CMEKOJEA@Determines?5if?5an?5ST?5object?5was?5c@
	DQ	FLAT:??_C@_07DJCBKGIH@issuite?$AA@
	DQ	FLAT:parser_issuite
	DD	03H
	ORG $+4
	DQ	FLAT:??_C@_0DF@LCMHLDAF@Determines?5if?5an?5ST?5object?5was?5c@
	DQ	FLAT:??_C@_05PPOFKJGL@suite?$AA@
	DQ	FLAT:parser_suite
	DD	03H
	ORG $+4
	DQ	FLAT:??_C@_0CD@KPIPHOID@Creates?5an?5ST?5object?5from?5a?5suit@
	DQ	FLAT:??_C@_0M@IODEHOKN@sequence2st?$AA@
	DQ	FLAT:parser_tuple2st
	DD	03H
	ORG $+4
	DQ	FLAT:??_C@_0DB@LOLPPNBK@Creates?5an?5ST?5object?5from?5a?5tree@
	DQ	FLAT:??_C@_08FEMHBCAC@st2tuple?$AA@
	DQ	FLAT:parser_st2tuple
	DD	03H
	ORG $+4
	DQ	FLAT:??_C@_0CO@IAPBJAMO@Creates?5a?5tuple?9tree?5representat@
	DQ	FLAT:??_C@_07OOJPKMEF@st2list?$AA@
	DQ	FLAT:parser_st2list
	DD	03H
	ORG $+4
	DQ	FLAT:??_C@_0CN@NOCBOFNF@Creates?5a?5list?9tree?5representati@
	DQ	FLAT:??_C@_08NFEDFLJK@tuple2st?$AA@
	DQ	FLAT:parser_tuple2st
	DD	03H
	ORG $+4
	DQ	FLAT:??_C@_0DB@LOLPPNBK@Creates?5an?5ST?5object?5from?5a?5tree@
	DQ	FLAT:??_C@_08EEAEJMPM@_pickler?$AA@
	DQ	FLAT:parser__pickler
	DD	01H
	ORG $+4
	DQ	FLAT:??_C@_0DM@NBLABHOM@Returns?5the?5pickle?5magic?5to?5allo@
	DQ	0000000000000000H
	DQ	0000000000000000H
	DD	00H
	ORG $+4
	DQ	0000000000000000H
parsermodule DQ	dead1234beef5678H
	DQ	dead1234beef5678H
	DQ	0000000000000000H
	ORG $+8
	DQ	0000000000000001H
	DQ	0000000000000000H
	DQ	0000000000000000H
	DQ	0000000000000000H
	DQ	dead1234beef5678H
	DQ	dead1234beef5678H
	DQ	0000000000000001H
	DQ	0000000000000000H
	DQ	0000000000000000H
	DQ	0000000000000000H
	DQ	0000000000000000H
	ORG $+8
	DQ	FLAT:??_C@_06OENOICDH@parser?$AA@
	DQ	0000000000000000H
	DQ	ffffffffffffffffH
	DQ	FLAT:parser_functions
	DQ	0000000000000000H
	DQ	0000000000000000H
	DQ	0000000000000000H
	DQ	0000000000000000H
_DATA	ENDS
PUBLIC	??_C@_0L@DHGMCEID@_Py_IncRef?$AA@		; `string'
PUBLIC	??_C@_0CD@HDJFDCDP@c?3?2src?2pyparallel?2include?2object@ ; `string'
PUBLIC	_Py_IncRef
EXTRN	_PyParallel_Guard:PROC
EXTRN	_Py_PXCTX:PROC
;	COMDAT pdata
; File c:\src\pyparallel\include\object.h
pdata	SEGMENT
$pdata$_Py_IncRef DD imagerel $LN5
	DD	imagerel $LN5+74
	DD	imagerel $unwind$_Py_IncRef
pdata	ENDS
;	COMDAT xdata
xdata	SEGMENT
$unwind$_Py_IncRef DD 020601H
	DD	030025206H
xdata	ENDS
;	COMDAT ??_C@_0L@DHGMCEID@_Py_IncRef?$AA@
CONST	SEGMENT
??_C@_0L@DHGMCEID@_Py_IncRef?$AA@ DB '_Py_IncRef', 00H	; `string'
CONST	ENDS
;	COMDAT ??_C@_0CD@HDJFDCDP@c?3?2src?2pyparallel?2include?2object@
CONST	SEGMENT
??_C@_0CD@HDJFDCDP@c?3?2src?2pyparallel?2include?2object@ DB 'c:\src\pypa'
	DB	'rallel\include\object.h', 00H		; `string'
; Function compile flags: /Ogtpy
CONST	ENDS
;	COMDAT _Py_IncRef
_TEXT	SEGMENT
op$ = 64
_Py_IncRef PROC						; COMDAT

; 904  : {

$LN5:
  00000	40 53		 push	 rbx
  00002	48 83 ec 30	 sub	 rsp, 48			; 00000030H
  00006	48 8b d9	 mov	 rbx, rcx

; 905  :     if ((!Py_PXCTX && (Py_ISPY(op) || Px_PERSISTED(op)))) {

  00009	e8 00 00 00 00	 call	 _Py_PXCTX
  0000e	85 c0		 test	 eax, eax
  00010	75 32		 jne	 SHORT $LN2@Py_IncRef
  00012	48 8d 15 00 00
	00 00		 lea	 rdx, OFFSET FLAT:??_C@_0CD@HDJFDCDP@c?3?2src?2pyparallel?2include?2object@
  00019	48 8d 0d 00 00
	00 00		 lea	 rcx, OFFSET FLAT:??_C@_0L@DHGMCEID@_Py_IncRef?$AA@
  00020	4c 8b cb	 mov	 r9, rbx
  00023	41 b8 89 03 00
	00		 mov	 r8d, 905		; 00000389H
  00029	c7 44 24 20 02
	00 00 00	 mov	 DWORD PTR [rsp+32], 2
  00031	e8 00 00 00 00	 call	 _PyParallel_Guard
  00036	85 c0		 test	 eax, eax
  00038	75 06		 jne	 SHORT $LN1@Py_IncRef
  0003a	f6 43 20 20	 test	 BYTE PTR [rbx+32], 32	; 00000020H
  0003e	74 04		 je	 SHORT $LN2@Py_IncRef
$LN1@Py_IncRef:

; 906  :         _Py_INC_REFTOTAL;
; 907  :         (((PyObject*)(op))->ob_refcnt++);

  00040	48 ff 43 50	 inc	 QWORD PTR [rbx+80]
$LN2@Py_IncRef:

; 908  :     }
; 909  : }

  00044	48 83 c4 30	 add	 rsp, 48			; 00000030H
  00048	5b		 pop	 rbx
  00049	c3		 ret	 0
_Py_IncRef ENDP
_TEXT	ENDS
PUBLIC	??_C@_0L@DMHMLFIA@_Py_DecRef?$AA@		; `string'
PUBLIC	_Py_DecRef
EXTRN	Px_DecRef:PROC
EXTRN	_Px_Dealloc:PROC
;	COMDAT pdata
pdata	SEGMENT
$pdata$_Py_DecRef DD imagerel $LN12
	DD	imagerel $LN12+123
	DD	imagerel $unwind$_Py_DecRef
pdata	ENDS
;	COMDAT xdata
xdata	SEGMENT
$unwind$_Py_DecRef DD 020601H
	DD	030025206H
xdata	ENDS
;	COMDAT ??_C@_0L@DMHMLFIA@_Py_DecRef?$AA@
CONST	SEGMENT
??_C@_0L@DMHMLFIA@_Py_DecRef?$AA@ DB '_Py_DecRef', 00H	; `string'
; Function compile flags: /Ogtpy
CONST	ENDS
;	COMDAT _Py_DecRef
_TEXT	SEGMENT
op$ = 64
_Py_DecRef PROC						; COMDAT

; 923  : {

$LN12:
  00000	40 53		 push	 rbx
  00002	48 83 ec 30	 sub	 rsp, 48			; 00000030H
  00006	48 8b d9	 mov	 rbx, rcx

; 924  :     if (!Py_PXCTX) {

  00009	e8 00 00 00 00	 call	 _Py_PXCTX
  0000e	85 c0		 test	 eax, eax
  00010	75 63		 jne	 SHORT $LN11@Py_DecRef

; 925  :         if (Px_PERSISTED(op) || Px_CLONED(op))

  00012	48 8b 43 20	 mov	 rax, QWORD PTR [rbx+32]
  00016	a8 20		 test	 al, 32			; 00000020H
  00018	75 53		 jne	 SHORT $LN5@Py_DecRef
  0001a	84 c0		 test	 al, al
  0001c	78 4f		 js	 SHORT $LN5@Py_DecRef

; 927  :         else if (!Px_ISPX(op)) {

  0001e	a8 02		 test	 al, 2
  00020	75 53		 jne	 SHORT $LN11@Py_DecRef

; 928  :             _Py_DEC_REFTOTAL;
; 929  :             if ((--((PyObject *)(op))->ob_refcnt) != 0) {

  00022	48 ff 4b 50	 dec	 QWORD PTR [rbx+80]
  00026	75 4d		 jne	 SHORT $LN11@Py_DecRef

; 930  :                 _Py_CHECK_REFCNT(op);
; 931  :             } else
; 932  :                 _Py_Dealloc((PyObject *)(op));

  00028	48 8d 15 00 00
	00 00		 lea	 rdx, OFFSET FLAT:??_C@_0CD@HDJFDCDP@c?3?2src?2pyparallel?2include?2object@
  0002f	48 8d 0d 00 00
	00 00		 lea	 rcx, OFFSET FLAT:??_C@_0L@DMHMLFIA@_Py_DecRef?$AA@
  00036	4c 8b cb	 mov	 r9, rbx
  00039	41 b8 a4 03 00
	00		 mov	 r8d, 932		; 000003a4H
  0003f	c7 44 24 20 10
	00 00 00	 mov	 DWORD PTR [rsp+32], 16
  00047	e8 00 00 00 00	 call	 _PyParallel_Guard
  0004c	48 8b cb	 mov	 rcx, rbx
  0004f	85 c0		 test	 eax, eax
  00051	74 0a		 je	 SHORT $LN10@Py_DecRef

; 933  :         }
; 934  :     }
; 935  : }

  00053	48 83 c4 30	 add	 rsp, 48			; 00000030H
  00057	5b		 pop	 rbx
  00058	e9 00 00 00 00	 jmp	 _Px_Dealloc
$LN10@Py_DecRef:

; 930  :                 _Py_CHECK_REFCNT(op);
; 931  :             } else
; 932  :                 _Py_Dealloc((PyObject *)(op));

  0005d	48 8b 43 58	 mov	 rax, QWORD PTR [rbx+88]

; 933  :         }
; 934  :     }
; 935  : }

  00061	48 83 c4 30	 add	 rsp, 48			; 00000030H
  00065	5b		 pop	 rbx
  00066	48 ff a0 88 00
	00 00		 rex_jmp QWORD PTR [rax+136]
$LN5@Py_DecRef:

; 926  :             Px_DECREF(op);

  0006d	48 8b cb	 mov	 rcx, rbx
  00070	e8 00 00 00 00	 call	 Px_DecRef
$LN11@Py_DecRef:

; 933  :         }
; 934  :     }
; 935  : }

  00075	48 83 c4 30	 add	 rsp, 48			; 00000030H
  00079	5b		 pop	 rbx
  0007a	c3		 ret	 0
_Py_DecRef ENDP
_TEXT	ENDS
EXTRN	PyUnicode_FromString:PROC
EXTRN	PyLong_FromLong:PROC
EXTRN	_Py_NoneStruct:BYTE
;	COMDAT pdata
pdata	SEGMENT
$pdata$node2tuple DD imagerel node2tuple
	DD	imagerel node2tuple+118
	DD	imagerel $unwind$node2tuple
pdata	ENDS
;	COMDAT pdata
pdata	SEGMENT
$pdata$1$node2tuple DD imagerel node2tuple+118
	DD	imagerel node2tuple+333
	DD	imagerel $chain$1$node2tuple
pdata	ENDS
;	COMDAT pdata
pdata	SEGMENT
$pdata$3$node2tuple DD imagerel node2tuple+333
	DD	imagerel node2tuple+467
	DD	imagerel $chain$3$node2tuple
pdata	ENDS
;	COMDAT xdata
xdata	SEGMENT
$chain$3$node2tuple DD 040021H
	DD	067400H
	DD	0a6400H
	DD	imagerel node2tuple
	DD	imagerel node2tuple+118
	DD	imagerel $unwind$node2tuple
xdata	ENDS
;	COMDAT xdata
xdata	SEGMENT
$chain$1$node2tuple DD 040a21H
	DD	06740aH
	DD	0a6405H
	DD	imagerel node2tuple
	DD	imagerel node2tuple+118
	DD	imagerel $unwind$node2tuple
xdata	ENDS
;	COMDAT xdata
xdata	SEGMENT
$unwind$node2tuple DD 031001H
	DD	0500c6210H
	DD	0300bH
; Function compile flags: /Ogtpy
; File c:\src\pyparallel\modules\parsermodule.c
xdata	ENDS
;	COMDAT node2tuple
_TEXT	SEGMENT
n$ = 80
mkseq$ = 88
addelem$ = 96
lineno$ = 104
col_offset$ = 112
node2tuple PROC						; COMDAT

; 85   : {

  00000	44 89 4c 24 20	 mov	 DWORD PTR [rsp+32], r9d
  00005	48 89 54 24 10	 mov	 QWORD PTR [rsp+16], rdx
  0000a	53		 push	 rbx
  0000b	55		 push	 rbp
  0000c	48 83 ec 38	 sub	 rsp, 56			; 00000038H
  00010	49 8b e8	 mov	 rbp, r8
  00013	48 8b d9	 mov	 rbx, rcx

; 86   :     if (n == NULL) {

  00016	48 85 c9	 test	 rcx, rcx
  00019	75 53		 jne	 SHORT $LN15@node2tuple

; 87   :         Py_INCREF(Py_None);

  0001b	e8 00 00 00 00	 call	 _Py_PXCTX
  00020	85 c0		 test	 eax, eax
  00022	75 3c		 jne	 SHORT $LN19@node2tuple
  00024	4c 8d 0d 00 00
	00 00		 lea	 r9, OFFSET FLAT:_Py_NoneStruct
  0002b	48 8d 15 00 00
	00 00		 lea	 rdx, OFFSET FLAT:??_C@_0CD@HDJFDCDP@c?3?2src?2pyparallel?2include?2object@
  00032	48 8d 0d 00 00
	00 00		 lea	 rcx, OFFSET FLAT:??_C@_0L@DHGMCEID@_Py_IncRef?$AA@
  00039	41 b8 89 03 00
	00		 mov	 r8d, 905		; 00000389H
  0003f	c7 44 24 20 02
	00 00 00	 mov	 DWORD PTR [rsp+32], 2
  00047	e8 00 00 00 00	 call	 _PyParallel_Guard
  0004c	85 c0		 test	 eax, eax
  0004e	75 09		 jne	 SHORT $LN18@node2tuple
  00050	f6 05 20 00 00
	00 20		 test	 BYTE PTR _Py_NoneStruct+32, 32 ; 00000020H
  00057	74 07		 je	 SHORT $LN19@node2tuple
$LN18@node2tuple:
  00059	48 ff 05 50 00
	00 00		 inc	 QWORD PTR _Py_NoneStruct+80
$LN19@node2tuple:

; 88   :         return (Py_None);

  00060	48 8d 05 00 00
	00 00		 lea	 rax, OFFSET FLAT:_Py_NoneStruct

; 128  :     }
; 129  :     else {
; 130  :         PyErr_SetString(PyExc_SystemError,
; 131  :                         "unrecognized parse tree node type");
; 132  :         return ((PyObject*) NULL);
; 133  :     }
; 134  : }

  00067	48 83 c4 38	 add	 rsp, 56			; 00000038H
  0006b	5d		 pop	 rbp
  0006c	5b		 pop	 rbx
  0006d	c3		 ret	 0
$LN15@node2tuple:

; 89   :     }
; 90   :     if (ISNONTERMINAL(TYPE(n))) {

  0006e	0f b7 01	 movzx	 eax, WORD PTR [rcx]
  00071	b9 00 01 00 00	 mov	 ecx, 256		; 00000100H
  00076	48 89 74 24 50	 mov	 QWORD PTR [rsp+80], rsi
  0007b	48 89 7c 24 30	 mov	 QWORD PTR [rsp+48], rdi
  00080	66 3b c1	 cmp	 ax, cx
  00083	0f 8c c4 00 00
	00		 jl	 $LN25@node2tuple

; 91   :         int i;
; 92   :         PyObject *v;
; 93   :         PyObject *w;
; 94   : 
; 95   :         v = mkseq(1 + NCH(n) + (TYPE(n) == encoding_decl));

  00089	41 b8 4f 01 00
	00		 mov	 r8d, 335		; 0000014fH
  0008f	33 f6		 xor	 esi, esi
  00091	66 41 3b c0	 cmp	 ax, r8w
  00095	8b 43 18	 mov	 eax, DWORD PTR [rbx+24]
  00098	8b ce		 mov	 ecx, esi
  0009a	0f 94 c1	 sete	 cl
  0009d	8d 4c 01 01	 lea	 ecx, DWORD PTR [rcx+rax+1]
  000a1	48 63 c9	 movsxd	 rcx, ecx
  000a4	ff d2		 call	 rdx
  000a6	48 8b f8	 mov	 rdi, rax

; 96   :         if (v == NULL)

  000a9	48 85 c0	 test	 rax, rax

; 97   :             return (v);

  000ac	0f 84 88 00 00
	00		 je	 $LN29@node2tuple

; 98   :         w = PyLong_FromLong(TYPE(n));

  000b2	0f bf 0b	 movsx	 ecx, WORD PTR [rbx]
  000b5	e8 00 00 00 00	 call	 PyLong_FromLong

; 99   :         if (w == NULL) {
; 100  :             Py_DECREF(v);

  000ba	48 8b cf	 mov	 rcx, rdi
  000bd	48 85 c0	 test	 rax, rax

; 101  :             return ((PyObject*) NULL);

  000c0	74 73		 je	 SHORT $LN23@node2tuple

; 102  :         }
; 103  :         (void) addelem(v, 0, w);

  000c2	4c 8b c0	 mov	 r8, rax
  000c5	33 d2		 xor	 edx, edx
  000c7	ff d5		 call	 rbp

; 104  :         for (i = 0; i < NCH(n); i++) {

  000c9	39 73 18	 cmp	 DWORD PTR [rbx+24], esi
  000cc	7e 42		 jle	 SHORT $LN9@node2tuple
  000ce	66 90		 npad	 2
$LL11@node2tuple:

; 105  :             w = node2tuple(CHILD(n, i), mkseq, addelem, lineno, col_offset);

  000d0	44 8b 4c 24 68	 mov	 r9d, DWORD PTR lineno$[rsp]
  000d5	48 8b 54 24 58	 mov	 rdx, QWORD PTR mkseq$[rsp]
  000da	48 63 c6	 movsxd	 rax, esi
  000dd	48 8d 0c 80	 lea	 rcx, QWORD PTR [rax+rax*4]
  000e1	48 8b 43 20	 mov	 rax, QWORD PTR [rbx+32]
  000e5	4c 8b c5	 mov	 r8, rbp
  000e8	48 8d 0c c8	 lea	 rcx, QWORD PTR [rax+rcx*8]
  000ec	8b 44 24 70	 mov	 eax, DWORD PTR col_offset$[rsp]
  000f0	89 44 24 20	 mov	 DWORD PTR [rsp+32], eax
  000f4	e8 00 00 00 00	 call	 node2tuple

; 109  :             }
; 110  :             (void) addelem(v, i+1, w);

  000f9	48 8b cf	 mov	 rcx, rdi
  000fc	48 85 c0	 test	 rax, rax
  000ff	74 34		 je	 SHORT $LN23@node2tuple
  00101	ff c6		 inc	 esi
  00103	4c 8b c0	 mov	 r8, rax
  00106	48 63 d6	 movsxd	 rdx, esi
  00109	ff d5		 call	 rbp
  0010b	3b 73 18	 cmp	 esi, DWORD PTR [rbx+24]
  0010e	7c c0		 jl	 SHORT $LL11@node2tuple
$LN9@node2tuple:

; 111  :         }
; 112  : 
; 113  :         if (TYPE(n) == encoding_decl)

  00110	b8 4f 01 00 00	 mov	 eax, 335		; 0000014fH
  00115	66 39 03	 cmp	 WORD PTR [rbx], ax
  00118	0f 85 a1 00 00
	00		 jne	 $LN2@node2tuple

; 114  :             (void) addelem(v, i+1, PyUnicode_FromString(STR(n)));

  0011e	48 8b 4b 08	 mov	 rcx, QWORD PTR [rbx+8]
  00122	e8 00 00 00 00	 call	 PyUnicode_FromString
  00127	4c 8b c0	 mov	 r8, rax
  0012a	8d 46 01	 lea	 eax, DWORD PTR [rsi+1]
  0012d	48 63 d0	 movsxd	 rdx, eax

; 115  :         return (v);

  00130	e9 85 00 00 00	 jmp	 $LN28@node2tuple
$LN23@node2tuple:

; 106  :             if (w == NULL) {
; 107  :                 Py_DECREF(v);

  00135	e8 00 00 00 00	 call	 _Py_DecRef
$LN29@node2tuple:
  0013a	48 8b 74 24 50	 mov	 rsi, QWORD PTR [rsp+80]
  0013f	48 8b 7c 24 30	 mov	 rdi, QWORD PTR [rsp+48]

; 108  :                 return ((PyObject*) NULL);

  00144	33 c0		 xor	 eax, eax

; 128  :     }
; 129  :     else {
; 130  :         PyErr_SetString(PyExc_SystemError,
; 131  :                         "unrecognized parse tree node type");
; 132  :         return ((PyObject*) NULL);
; 133  :     }
; 134  : }

  00146	48 83 c4 38	 add	 rsp, 56			; 00000038H
  0014a	5d		 pop	 rbp
  0014b	5b		 pop	 rbx
  0014c	c3		 ret	 0
$LN25@node2tuple:

; 116  :     }
; 117  :     else if (ISTERMINAL(TYPE(n))) {
; 118  :         PyObject *result = mkseq(2 + lineno + col_offset);

  0014d	8b 74 24 70	 mov	 esi, DWORD PTR col_offset$[rsp]
  00151	41 8d 44 31 02	 lea	 eax, DWORD PTR [r9+rsi+2]
  00156	48 63 c8	 movsxd	 rcx, eax
  00159	ff d2		 call	 rdx
  0015b	48 8b f8	 mov	 rdi, rax

; 119  :         if (result != NULL) {

  0015e	48 85 c0	 test	 rax, rax
  00161	74 5c		 je	 SHORT $LN2@node2tuple

; 120  :             (void) addelem(result, 0, PyLong_FromLong(TYPE(n)));

  00163	0f bf 0b	 movsx	 ecx, WORD PTR [rbx]
  00166	e8 00 00 00 00	 call	 PyLong_FromLong
  0016b	33 d2		 xor	 edx, edx
  0016d	48 8b cf	 mov	 rcx, rdi
  00170	4c 8b c0	 mov	 r8, rax
  00173	ff d5		 call	 rbp

; 121  :             (void) addelem(result, 1, PyUnicode_FromString(STR(n)));

  00175	48 8b 4b 08	 mov	 rcx, QWORD PTR [rbx+8]
  00179	e8 00 00 00 00	 call	 PyUnicode_FromString
  0017e	ba 01 00 00 00	 mov	 edx, 1
  00183	48 8b cf	 mov	 rcx, rdi
  00186	4c 8b c0	 mov	 r8, rax
  00189	ff d5		 call	 rbp

; 122  :             if (lineno == 1)

  0018b	83 7c 24 68 01	 cmp	 DWORD PTR lineno$[rsp], 1
  00190	75 15		 jne	 SHORT $LN3@node2tuple

; 123  :                 (void) addelem(result, 2, PyLong_FromLong(n->n_lineno));

  00192	8b 4b 10	 mov	 ecx, DWORD PTR [rbx+16]
  00195	e8 00 00 00 00	 call	 PyLong_FromLong
  0019a	ba 02 00 00 00	 mov	 edx, 2
  0019f	48 8b cf	 mov	 rcx, rdi
  001a2	4c 8b c0	 mov	 r8, rax
  001a5	ff d5		 call	 rbp
$LN3@node2tuple:

; 124  :             if (col_offset == 1)

  001a7	83 fe 01	 cmp	 esi, 1
  001aa	75 13		 jne	 SHORT $LN2@node2tuple

; 125  :                 (void) addelem(result, 3, PyLong_FromLong(n->n_col_offset));

  001ac	8b 4b 14	 mov	 ecx, DWORD PTR [rbx+20]
  001af	e8 00 00 00 00	 call	 PyLong_FromLong
  001b4	8d 56 02	 lea	 edx, QWORD PTR [rsi+2]
  001b7	4c 8b c0	 mov	 r8, rax
$LN28@node2tuple:
  001ba	48 8b cf	 mov	 rcx, rdi
  001bd	ff d5		 call	 rbp
$LN2@node2tuple:

; 126  :         }
; 127  :         return (result);

  001bf	48 8b 74 24 50	 mov	 rsi, QWORD PTR [rsp+80]
  001c4	48 8b c7	 mov	 rax, rdi
  001c7	48 8b 7c 24 30	 mov	 rdi, QWORD PTR [rsp+48]

; 128  :     }
; 129  :     else {
; 130  :         PyErr_SetString(PyExc_SystemError,
; 131  :                         "unrecognized parse tree node type");
; 132  :         return ((PyObject*) NULL);
; 133  :     }
; 134  : }

  001cc	48 83 c4 38	 add	 rsp, 56			; 00000038H
  001d0	5d		 pop	 rbp
  001d1	5b		 pop	 rbx
  001d2	c3		 ret	 0
node2tuple ENDP
_TEXT	ENDS
;	COMDAT pdata
pdata	SEGMENT
$pdata$parser_compare_nodes DD imagerel parser_compare_nodes
	DD	imagerel parser_compare_nodes+64
	DD	imagerel $unwind$parser_compare_nodes
pdata	ENDS
;	COMDAT pdata
pdata	SEGMENT
$pdata$0$parser_compare_nodes DD imagerel parser_compare_nodes+64
	DD	imagerel parser_compare_nodes+120
	DD	imagerel $chain$0$parser_compare_nodes
pdata	ENDS
;	COMDAT pdata
pdata	SEGMENT
$pdata$2$parser_compare_nodes DD imagerel parser_compare_nodes+120
	DD	imagerel parser_compare_nodes+143
	DD	imagerel $chain$2$parser_compare_nodes
pdata	ENDS
;	COMDAT pdata
pdata	SEGMENT
$pdata$4$parser_compare_nodes DD imagerel parser_compare_nodes+143
	DD	imagerel parser_compare_nodes+172
	DD	imagerel $chain$4$parser_compare_nodes
pdata	ENDS
;	COMDAT pdata
pdata	SEGMENT
$pdata$6$parser_compare_nodes DD imagerel parser_compare_nodes+172
	DD	imagerel parser_compare_nodes+195
	DD	imagerel $chain$6$parser_compare_nodes
pdata	ENDS
;	COMDAT pdata
pdata	SEGMENT
$pdata$8$parser_compare_nodes DD imagerel parser_compare_nodes+195
	DD	imagerel parser_compare_nodes+265
	DD	imagerel $chain$8$parser_compare_nodes
pdata	ENDS
;	COMDAT xdata
xdata	SEGMENT
$chain$8$parser_compare_nodes DD 020021H
	DD	063400H
	DD	imagerel parser_compare_nodes
	DD	imagerel parser_compare_nodes+64
	DD	imagerel $unwind$parser_compare_nodes
xdata	ENDS
;	COMDAT xdata
xdata	SEGMENT
$chain$6$parser_compare_nodes DD 020021H
	DD	063400H
	DD	imagerel parser_compare_nodes
	DD	imagerel parser_compare_nodes+64
	DD	imagerel $unwind$parser_compare_nodes
xdata	ENDS
;	COMDAT xdata
xdata	SEGMENT
$chain$4$parser_compare_nodes DD 020021H
	DD	063400H
	DD	imagerel parser_compare_nodes
	DD	imagerel parser_compare_nodes+64
	DD	imagerel $unwind$parser_compare_nodes
xdata	ENDS
;	COMDAT xdata
xdata	SEGMENT
$chain$2$parser_compare_nodes DD 020021H
	DD	063400H
	DD	imagerel parser_compare_nodes
	DD	imagerel parser_compare_nodes+64
	DD	imagerel $unwind$parser_compare_nodes
xdata	ENDS
;	COMDAT xdata
xdata	SEGMENT
$chain$0$parser_compare_nodes DD 020521H
	DD	063405H
	DD	imagerel parser_compare_nodes
	DD	imagerel parser_compare_nodes+64
	DD	imagerel $unwind$parser_compare_nodes
xdata	ENDS
;	COMDAT xdata
xdata	SEGMENT
$unwind$parser_compare_nodes DD 040a01H
	DD	07640aH
	DD	07006320aH
; Function compile flags: /Ogtpy
xdata	ENDS
;	COMDAT parser_compare_nodes
_TEXT	SEGMENT
left$ = 48
right$ = 56
parser_compare_nodes PROC				; COMDAT

; 239  : {

  00000	48 89 74 24 10	 mov	 QWORD PTR [rsp+16], rsi
  00005	57		 push	 rdi
  00006	48 83 ec 20	 sub	 rsp, 32			; 00000020H

; 240  :     int j;
; 241  : 
; 242  :     if (TYPE(left) < TYPE(right))

  0000a	0f b7 01	 movzx	 eax, WORD PTR [rcx]
  0000d	48 8b f9	 mov	 rdi, rcx
  00010	0f b7 0a	 movzx	 ecx, WORD PTR [rdx]
  00013	48 8b f2	 mov	 rsi, rdx
  00016	66 3b c8	 cmp	 cx, ax
  00019	7e 0e		 jle	 SHORT $LN19@parser_com

; 243  :         return (-1);

  0001b	83 c8 ff	 or	 eax, -1

; 264  : }

  0001e	48 8b 74 24 38	 mov	 rsi, QWORD PTR [rsp+56]
  00023	48 83 c4 20	 add	 rsp, 32			; 00000020H
  00027	5f		 pop	 rdi
  00028	c3		 ret	 0
$LN19@parser_com:

; 244  : 
; 245  :     if (TYPE(right) < TYPE(left))

  00029	7d 10		 jge	 SHORT $LN8@parser_com

; 246  :         return (1);

  0002b	b8 01 00 00 00	 mov	 eax, 1

; 264  : }

  00030	48 8b 74 24 38	 mov	 rsi, QWORD PTR [rsp+56]
  00035	48 83 c4 20	 add	 rsp, 32			; 00000020H
  00039	5f		 pop	 rdi
  0003a	c3		 ret	 0
$LN8@parser_com:

; 247  : 
; 248  :     if (ISTERMINAL(TYPE(left)))

  0003b	b9 00 01 00 00	 mov	 ecx, 256		; 00000100H
  00040	48 89 5c 24 30	 mov	 QWORD PTR [rsp+48], rbx
  00045	66 3b c1	 cmp	 ax, cx
  00048	7d 45		 jge	 SHORT $LN7@parser_com

; 249  :         return (strcmp(STR(left), STR(right)));

  0004a	48 8b 47 08	 mov	 rax, QWORD PTR [rdi+8]
  0004e	48 8b 52 08	 mov	 rdx, QWORD PTR [rdx+8]
  00052	48 2b d0	 sub	 rdx, rax
$LL15@parser_com:
  00055	0f b6 08	 movzx	 ecx, BYTE PTR [rax]
  00058	3a 0c 10	 cmp	 cl, BYTE PTR [rax+rdx]
  0005b	75 1b		 jne	 SHORT $LN17@parser_com
  0005d	48 ff c0	 inc	 rax
  00060	84 c9		 test	 cl, cl
  00062	75 f1		 jne	 SHORT $LL15@parser_com
  00064	33 db		 xor	 ebx, ebx
  00066	8b c3		 mov	 eax, ebx
  00068	48 8b 5c 24 30	 mov	 rbx, QWORD PTR [rsp+48]

; 264  : }

  0006d	48 8b 74 24 38	 mov	 rsi, QWORD PTR [rsp+56]
  00072	48 83 c4 20	 add	 rsp, 32			; 00000020H
  00076	5f		 pop	 rdi
  00077	c3		 ret	 0
$LN17@parser_com:

; 249  :         return (strcmp(STR(left), STR(right)));

  00078	1b db		 sbb	 ebx, ebx
  0007a	83 db ff	 sbb	 ebx, -1
  0007d	8b c3		 mov	 eax, ebx
  0007f	48 8b 5c 24 30	 mov	 rbx, QWORD PTR [rsp+48]

; 264  : }

  00084	48 8b 74 24 38	 mov	 rsi, QWORD PTR [rsp+56]
  00089	48 83 c4 20	 add	 rsp, 32			; 00000020H
  0008d	5f		 pop	 rdi
  0008e	c3		 ret	 0
$LN7@parser_com:

; 250  : 
; 251  :     if (NCH(left) < NCH(right))

  0008f	8b 47 18	 mov	 eax, DWORD PTR [rdi+24]
  00092	8b 4a 18	 mov	 ecx, DWORD PTR [rdx+24]
  00095	3b c8		 cmp	 ecx, eax
  00097	7e 13		 jle	 SHORT $LN20@parser_com

; 252  :         return (-1);

  00099	83 c8 ff	 or	 eax, -1
  0009c	48 8b 5c 24 30	 mov	 rbx, QWORD PTR [rsp+48]

; 264  : }

  000a1	48 8b 74 24 38	 mov	 rsi, QWORD PTR [rsp+56]
  000a6	48 83 c4 20	 add	 rsp, 32			; 00000020H
  000aa	5f		 pop	 rdi
  000ab	c3		 ret	 0
$LN20@parser_com:

; 253  : 
; 254  :     if (NCH(right) < NCH(left))

  000ac	7d 15		 jge	 SHORT $LN5@parser_com

; 255  :         return (1);

  000ae	b8 01 00 00 00	 mov	 eax, 1
  000b3	48 8b 5c 24 30	 mov	 rbx, QWORD PTR [rsp+48]

; 264  : }

  000b8	48 8b 74 24 38	 mov	 rsi, QWORD PTR [rsp+56]
  000bd	48 83 c4 20	 add	 rsp, 32			; 00000020H
  000c1	5f		 pop	 rdi
  000c2	c3		 ret	 0
$LN5@parser_com:

; 256  : 
; 257  :     for (j = 0; j < NCH(left); ++j) {

  000c3	33 db		 xor	 ebx, ebx
  000c5	85 c0		 test	 eax, eax
  000c7	7e 2e		 jle	 SHORT $LN2@parser_com
  000c9	0f 1f 80 00 00
	00 00		 npad	 7
$LL4@parser_com:

; 258  :         int v = parser_compare_nodes(CHILD(left, j), CHILD(right, j));

  000d0	48 63 c3	 movsxd	 rax, ebx
  000d3	48 8d 0c 80	 lea	 rcx, QWORD PTR [rax+rax*4]
  000d7	48 8b 46 20	 mov	 rax, QWORD PTR [rsi+32]
  000db	48 8d 14 c8	 lea	 rdx, QWORD PTR [rax+rcx*8]
  000df	48 8b 47 20	 mov	 rax, QWORD PTR [rdi+32]
  000e3	48 8d 0c c8	 lea	 rcx, QWORD PTR [rax+rcx*8]
  000e7	e8 00 00 00 00	 call	 parser_compare_nodes

; 259  : 
; 260  :         if (v != 0)

  000ec	85 c0		 test	 eax, eax
  000ee	75 09		 jne	 SHORT $LN18@parser_com

; 256  : 
; 257  :     for (j = 0; j < NCH(left); ++j) {

  000f0	ff c3		 inc	 ebx
  000f2	3b 5f 18	 cmp	 ebx, DWORD PTR [rdi+24]
  000f5	7c d9		 jl	 SHORT $LL4@parser_com
$LN2@parser_com:

; 261  :             return (v);
; 262  :     }
; 263  :     return (0);

  000f7	33 c0		 xor	 eax, eax
$LN18@parser_com:
  000f9	48 8b 5c 24 30	 mov	 rbx, QWORD PTR [rsp+48]

; 264  : }

  000fe	48 8b 74 24 38	 mov	 rsi, QWORD PTR [rsp+56]
  00103	48 83 c4 20	 add	 rsp, 32			; 00000020H
  00107	5f		 pop	 rdi
  00108	c3		 ret	 0
parser_compare_nodes ENDP
_TEXT	ENDS
PUBLIC	??_C@_0BK@ENIMKLG@?4?4?2Modules?2parsermodule?4c?$AA@ ; `string'
EXTRN	_PyErr_BadInternalCall:PROC
EXTRN	_Py_NotImplementedStruct:BYTE
EXTRN	PyErr_BadArgument:PROC
EXTRN	_Py_FalseStruct:BYTE
EXTRN	_Py_TrueStruct:BYTE
EXTRN	__ImageBase:BYTE
;	COMDAT pdata
; File c:\src\pyparallel\include\object.h
pdata	SEGMENT
$pdata$parser_richcompare DD imagerel parser_richcompare
	DD	imagerel parser_richcompare+29
	DD	imagerel $unwind$parser_richcompare
pdata	ENDS
;	COMDAT pdata
pdata	SEGMENT
$pdata$0$parser_richcompare DD imagerel parser_richcompare+29
	DD	imagerel parser_richcompare+261
	DD	imagerel $chain$0$parser_richcompare
pdata	ENDS
;	COMDAT pdata
pdata	SEGMENT
$pdata$2$parser_richcompare DD imagerel parser_richcompare+261
	DD	imagerel parser_richcompare+340
	DD	imagerel $chain$2$parser_richcompare
pdata	ENDS
;	COMDAT pdata
pdata	SEGMENT
$pdata$3$parser_richcompare DD imagerel parser_richcompare+340
	DD	imagerel parser_richcompare+364
	DD	imagerel $chain$3$parser_richcompare
pdata	ENDS
;	COMDAT pdata
pdata	SEGMENT
$pdata$4$parser_richcompare DD imagerel parser_richcompare+364
	DD	imagerel parser_richcompare+388
	DD	imagerel $chain$4$parser_richcompare
pdata	ENDS
;	COMDAT xdata
xdata	SEGMENT
$chain$4$parser_richcompare DD 020021H
	DD	063400H
	DD	imagerel parser_richcompare
	DD	imagerel parser_richcompare+29
	DD	imagerel $unwind$parser_richcompare
xdata	ENDS
;	COMDAT xdata
xdata	SEGMENT
$chain$3$parser_richcompare DD 021H
	DD	imagerel parser_richcompare
	DD	imagerel parser_richcompare+29
	DD	imagerel $unwind$parser_richcompare
xdata	ENDS
;	COMDAT xdata
xdata	SEGMENT
$chain$2$parser_richcompare DD 020021H
	DD	063400H
	DD	imagerel parser_richcompare
	DD	imagerel parser_richcompare+29
	DD	imagerel $unwind$parser_richcompare
xdata	ENDS
;	COMDAT xdata
xdata	SEGMENT
$chain$0$parser_richcompare DD 020521H
	DD	063405H
	DD	imagerel parser_richcompare
	DD	imagerel parser_richcompare+29
	DD	imagerel $unwind$parser_richcompare
xdata	ENDS
;	COMDAT xdata
xdata	SEGMENT
$unwind$parser_richcompare DD 010401H
	DD	06204H
xdata	ENDS
;	COMDAT ??_C@_0BK@ENIMKLG@?4?4?2Modules?2parsermodule?4c?$AA@
CONST	SEGMENT
??_C@_0BK@ENIMKLG@?4?4?2Modules?2parsermodule?4c?$AA@ DB '..\Modules\pars'
	DB	'ermodule.c', 00H				; `string'
; Function compile flags: /Ogtpy
; File c:\src\pyparallel\modules\parsermodule.c
CONST	ENDS
;	COMDAT parser_richcompare
_TEXT	SEGMENT
left$ = 64
right$ = 72
op$ = 80
parser_richcompare PROC					; COMDAT

; 278  : {

  00000	48 83 ec 38	 sub	 rsp, 56			; 00000038H

; 279  :     int result;
; 280  :     PyObject *v;
; 281  : 
; 282  :     /* neither argument should be NULL, unless something's gone wrong */
; 283  :     if (left == NULL || right == NULL) {

  00004	48 85 c9	 test	 rcx, rcx
  00007	0f 84 47 01 00
	00		 je	 $LN14@parser_ric
  0000d	48 85 d2	 test	 rdx, rdx
  00010	0f 84 3e 01 00
	00		 je	 $LN14@parser_ric

; 286  :     }
; 287  : 
; 288  :     /* both arguments should be instances of PyST_Object */
; 289  :     if (!PyST_Object_Check(left) || !PyST_Object_Check(right)) {

  00016	48 8d 05 00 00
	00 00		 lea	 rax, OFFSET FLAT:PyST_Type
  0001d	48 89 5c 24 30	 mov	 QWORD PTR [rsp+48], rbx
  00022	48 39 41 58	 cmp	 QWORD PTR [rcx+88], rax
  00026	0f 85 d9 00 00
	00		 jne	 $LN12@parser_ric
  0002c	48 39 42 58	 cmp	 QWORD PTR [rdx+88], rax
  00030	0f 85 cf 00 00
	00		 jne	 $LN12@parser_ric

; 291  :         goto finished;
; 292  :     }
; 293  : 
; 294  :     if (left == right)

  00036	48 3b ca	 cmp	 rcx, rdx
  00039	75 04		 jne	 SHORT $LN11@parser_ric

; 295  :         /* if arguments are identical, they're equal */
; 296  :         result = 0;

  0003b	33 c0		 xor	 eax, eax

; 297  :     else

  0003d	eb 0d		 jmp	 SHORT $LN10@parser_ric
$LN11@parser_ric:

; 298  :         result = parser_compare_nodes(((PyST_Object *)left)->st_node,
; 299  :                                       ((PyST_Object *)right)->st_node);

  0003f	48 8b 52 60	 mov	 rdx, QWORD PTR [rdx+96]
  00043	48 8b 49 60	 mov	 rcx, QWORD PTR [rcx+96]
  00047	e8 00 00 00 00	 call	 parser_compare_nodes
$LN10@parser_ric:

; 300  : 
; 301  :     /* Convert return value to a Boolean */
; 302  :     switch (op) {

  0004c	41 83 f8 05	 cmp	 r8d, 5
  00050	0f 87 9e 00 00
	00		 ja	 $LN1@parser_ric
  00056	49 63 c8	 movsxd	 rcx, r8d
  00059	4c 8d 05 00 00
	00 00		 lea	 r8, OFFSET FLAT:__ImageBase
  00060	41 8b 94 88 00
	00 00 00	 mov	 edx, DWORD PTR $LN22@parser_ric[r8+rcx*4]
  00068	49 03 d0	 add	 rdx, r8
  0006b	ff e2		 jmp	 rdx
$LN7@parser_ric:

; 303  :       case Py_EQ:
; 304  :         v = TEST_COND(result == 0);

  0006d	48 8d 0d 00 00
	00 00		 lea	 rcx, OFFSET FLAT:_Py_TrueStruct
  00074	48 8d 1d 00 00
	00 00		 lea	 rbx, OFFSET FLAT:_Py_FalseStruct
  0007b	85 c0		 test	 eax, eax
  0007d	48 0f 44 d9	 cmove	 rbx, rcx

; 305  :         break;

  00081	e9 86 00 00 00	 jmp	 $finished$21914
$LN6@parser_ric:

; 306  :       case Py_NE:
; 307  :         v = TEST_COND(result != 0);

  00086	48 8d 0d 00 00
	00 00		 lea	 rcx, OFFSET FLAT:_Py_TrueStruct
  0008d	48 8d 1d 00 00
	00 00		 lea	 rbx, OFFSET FLAT:_Py_FalseStruct
  00094	85 c0		 test	 eax, eax
  00096	48 0f 45 d9	 cmovne	 rbx, rcx

; 308  :         break;

  0009a	eb 70		 jmp	 SHORT $finished$21914
$LN5@parser_ric:

; 309  :       case Py_LE:
; 310  :         v = TEST_COND(result <= 0);

  0009c	48 8d 0d 00 00
	00 00		 lea	 rcx, OFFSET FLAT:_Py_TrueStruct
  000a3	48 8d 1d 00 00
	00 00		 lea	 rbx, OFFSET FLAT:_Py_FalseStruct
  000aa	85 c0		 test	 eax, eax
  000ac	48 0f 4e d9	 cmovle	 rbx, rcx

; 311  :         break;

  000b0	eb 5a		 jmp	 SHORT $finished$21914
$LN4@parser_ric:

; 312  :       case Py_GE:
; 313  :         v = TEST_COND(result >= 0);

  000b2	48 8d 0d 00 00
	00 00		 lea	 rcx, OFFSET FLAT:_Py_TrueStruct
  000b9	48 8d 1d 00 00
	00 00		 lea	 rbx, OFFSET FLAT:_Py_FalseStruct
  000c0	85 c0		 test	 eax, eax
  000c2	48 0f 49 d9	 cmovns	 rbx, rcx

; 314  :         break;

  000c6	eb 44		 jmp	 SHORT $finished$21914
$LN3@parser_ric:

; 315  :       case Py_LT:
; 316  :         v = TEST_COND(result < 0);

  000c8	48 8d 0d 00 00
	00 00		 lea	 rcx, OFFSET FLAT:_Py_TrueStruct
  000cf	48 8d 1d 00 00
	00 00		 lea	 rbx, OFFSET FLAT:_Py_FalseStruct
  000d6	85 c0		 test	 eax, eax
  000d8	48 0f 48 d9	 cmovs	 rbx, rcx

; 317  :         break;

  000dc	eb 2e		 jmp	 SHORT $finished$21914
$LN2@parser_ric:

; 318  :       case Py_GT:
; 319  :         v = TEST_COND(result > 0);

  000de	48 8d 0d 00 00
	00 00		 lea	 rcx, OFFSET FLAT:_Py_TrueStruct
  000e5	48 8d 1d 00 00
	00 00		 lea	 rbx, OFFSET FLAT:_Py_FalseStruct
  000ec	85 c0		 test	 eax, eax
  000ee	48 0f 4f d9	 cmovg	 rbx, rcx

; 320  :         break;

  000f2	eb 18		 jmp	 SHORT $finished$21914
$LN1@parser_ric:

; 321  :       default:
; 322  :         PyErr_BadArgument();

  000f4	e8 00 00 00 00	 call	 PyErr_BadArgument
  000f9	48 8b 5c 24 30	 mov	 rbx, QWORD PTR [rsp+48]

; 323  :         return NULL;

  000fe	33 c0		 xor	 eax, eax

; 328  : }

  00100	48 83 c4 38	 add	 rsp, 56			; 00000038H
  00104	c3		 ret	 0
$LN12@parser_ric:

; 290  :         v = Py_NotImplemented;

  00105	48 8d 1d 00 00
	00 00		 lea	 rbx, OFFSET FLAT:_Py_NotImplementedStruct
$finished$21914:

; 324  :     }
; 325  :   finished:
; 326  :     Py_INCREF(v);

  0010c	e8 00 00 00 00	 call	 _Py_PXCTX
  00111	85 c0		 test	 eax, eax
  00113	75 32		 jne	 SHORT $LN19@parser_ric
  00115	48 8d 15 00 00
	00 00		 lea	 rdx, OFFSET FLAT:??_C@_0CD@HDJFDCDP@c?3?2src?2pyparallel?2include?2object@
  0011c	48 8d 0d 00 00
	00 00		 lea	 rcx, OFFSET FLAT:??_C@_0L@DHGMCEID@_Py_IncRef?$AA@
  00123	4c 8b cb	 mov	 r9, rbx
  00126	41 b8 89 03 00
	00		 mov	 r8d, 905		; 00000389H
  0012c	c7 44 24 20 02
	00 00 00	 mov	 DWORD PTR [rsp+32], 2
  00134	e8 00 00 00 00	 call	 _PyParallel_Guard
  00139	85 c0		 test	 eax, eax
  0013b	75 06		 jne	 SHORT $LN18@parser_ric
  0013d	f6 43 20 20	 test	 BYTE PTR [rbx+32], 32	; 00000020H
  00141	74 04		 je	 SHORT $LN19@parser_ric
$LN18@parser_ric:
  00143	48 ff 43 50	 inc	 QWORD PTR [rbx+80]
$LN19@parser_ric:

; 327  :     return v;

  00147	48 8b c3	 mov	 rax, rbx
  0014a	48 8b 5c 24 30	 mov	 rbx, QWORD PTR [rsp+48]

; 328  : }

  0014f	48 83 c4 38	 add	 rsp, 56			; 00000038H
  00153	c3		 ret	 0
$LN14@parser_ric:

; 284  :         PyErr_BadInternalCall();

  00154	48 8d 0d 00 00
	00 00		 lea	 rcx, OFFSET FLAT:??_C@_0BK@ENIMKLG@?4?4?2Modules?2parsermodule?4c?$AA@
  0015b	ba 1c 01 00 00	 mov	 edx, 284		; 0000011cH
  00160	e8 00 00 00 00	 call	 _PyErr_BadInternalCall

; 285  :         return NULL;

  00165	33 c0		 xor	 eax, eax

; 328  : }

  00167	48 83 c4 38	 add	 rsp, 56			; 00000038H
  0016b	c3		 ret	 0
$LN22@parser_ric:
  0016c	00 00 00 00	 DD	 $LN3@parser_ric
  00170	00 00 00 00	 DD	 $LN5@parser_ric
  00174	00 00 00 00	 DD	 $LN7@parser_ric
  00178	00 00 00 00	 DD	 $LN6@parser_ric
  0017c	00 00 00 00	 DD	 $LN2@parser_ric
  00180	00 00 00 00	 DD	 $LN4@parser_ric
parser_richcompare ENDP
_TEXT	ENDS
EXTRN	PyNode_Free:PROC
EXTRN	_PyObject_New:PROC
EXTRN	_PxObject_New:PROC
;	COMDAT pdata
pdata	SEGMENT
$pdata$parser_newstobject DD imagerel parser_newstobject
	DD	imagerel parser_newstobject+113
	DD	imagerel $unwind$parser_newstobject
pdata	ENDS
;	COMDAT xdata
xdata	SEGMENT
$unwind$parser_newstobject DD 060f01H
	DD	07640fH
	DD	06340fH
	DD	0700b320fH
; Function compile flags: /Ogtpy
xdata	ENDS
;	COMDAT parser_newstobject
_TEXT	SEGMENT
st$ = 48
type$ = 56
parser_newstobject PROC					; COMDAT

; 339  : {

  00000	48 89 5c 24 08	 mov	 QWORD PTR [rsp+8], rbx
  00005	48 89 74 24 10	 mov	 QWORD PTR [rsp+16], rsi
  0000a	57		 push	 rdi
  0000b	48 83 ec 20	 sub	 rsp, 32			; 00000020H
  0000f	8b f2		 mov	 esi, edx
  00011	48 8b f9	 mov	 rdi, rcx

; 340  :     PyST_Object* o = PyObject_New(PyST_Object, &PyST_Type);

  00014	e8 00 00 00 00	 call	 _Py_PXCTX
  00019	48 8d 0d 00 00
	00 00		 lea	 rcx, OFFSET FLAT:PyST_Type
  00020	85 c0		 test	 eax, eax
  00022	74 07		 je	 SHORT $LN5@parser_new
  00024	e8 00 00 00 00	 call	 _PxObject_New
  00029	eb 05		 jmp	 SHORT $LN7@parser_new
$LN5@parser_new:
  0002b	e8 00 00 00 00	 call	 _PyObject_New
$LN7@parser_new:
  00030	48 8b d8	 mov	 rbx, rax

; 341  : 
; 342  :     if (o != 0) {

  00033	48 85 c0	 test	 rax, rax
  00036	74 1e		 je	 SHORT $LN2@parser_new

; 343  :         o->st_node = st;

  00038	48 89 78 60	 mov	 QWORD PTR [rax+96], rdi

; 344  :         o->st_type = type;

  0003c	89 70 68	 mov	 DWORD PTR [rax+104], esi

; 345  :         o->st_flags.cf_flags = 0;

  0003f	c7 40 6c 00 00
	00 00		 mov	 DWORD PTR [rax+108], 0

; 349  :     }
; 350  :     return ((PyObject*)o);
; 351  : }

  00046	48 8b 5c 24 30	 mov	 rbx, QWORD PTR [rsp+48]
  0004b	48 8b 74 24 38	 mov	 rsi, QWORD PTR [rsp+56]
  00050	48 83 c4 20	 add	 rsp, 32			; 00000020H
  00054	5f		 pop	 rdi
  00055	c3		 ret	 0
$LN2@parser_new:

; 346  :     }
; 347  :     else {
; 348  :         PyNode_Free(st);

  00056	48 8b cf	 mov	 rcx, rdi
  00059	e8 00 00 00 00	 call	 PyNode_Free

; 349  :     }
; 350  :     return ((PyObject*)o);
; 351  : }

  0005e	48 8b 74 24 38	 mov	 rsi, QWORD PTR [rsp+56]
  00063	48 8b c3	 mov	 rax, rbx
  00066	48 8b 5c 24 30	 mov	 rbx, QWORD PTR [rsp+48]
  0006b	48 83 c4 20	 add	 rsp, 32			; 00000020H
  0006f	5f		 pop	 rdi
  00070	c3		 ret	 0
parser_newstobject ENDP
_TEXT	ENDS
EXTRN	PyObject_Free:PROC
;	COMDAT pdata
pdata	SEGMENT
$pdata$parser_free DD imagerel parser_free
	DD	imagerel parser_free+31
	DD	imagerel $unwind$parser_free
pdata	ENDS
;	COMDAT xdata
xdata	SEGMENT
$unwind$parser_free DD 020601H
	DD	030023206H
; Function compile flags: /Ogtpy
xdata	ENDS
;	COMDAT parser_free
_TEXT	SEGMENT
st$ = 48
parser_free PROC					; COMDAT

; 361  : {

  00000	40 53		 push	 rbx
  00002	48 83 ec 20	 sub	 rsp, 32			; 00000020H
  00006	48 8b d9	 mov	 rbx, rcx

; 362  :     PyNode_Free(st->st_node);

  00009	48 8b 49 60	 mov	 rcx, QWORD PTR [rcx+96]
  0000d	e8 00 00 00 00	 call	 PyNode_Free

; 363  :     PyObject_Del(st);

  00012	48 8b cb	 mov	 rcx, rbx

; 364  : }

  00015	48 83 c4 20	 add	 rsp, 32			; 00000020H
  00019	5b		 pop	 rbx
  0001a	e9 00 00 00 00	 jmp	 PyObject_Free
parser_free ENDP
_TEXT	ENDS
EXTRN	PyLong_FromSsize_t:PROC
EXTRN	_PyNode_SizeOf:PROC
;	COMDAT pdata
pdata	SEGMENT
$pdata$parser_sizeof DD imagerel parser_sizeof
	DD	imagerel parser_sizeof+26
	DD	imagerel $unwind$parser_sizeof
pdata	ENDS
;	COMDAT xdata
xdata	SEGMENT
$unwind$parser_sizeof DD 010401H
	DD	04204H
; Function compile flags: /Ogtpy
xdata	ENDS
;	COMDAT parser_sizeof
_TEXT	SEGMENT
st$ = 48
unused$ = 56
parser_sizeof PROC					; COMDAT

; 368  : {

  00000	48 83 ec 28	 sub	 rsp, 40			; 00000028H

; 369  :     Py_ssize_t res;
; 370  : 
; 371  :     res = sizeof(PyST_Object) + _PyNode_SizeOf(st->st_node);

  00004	48 8b 49 60	 mov	 rcx, QWORD PTR [rcx+96]
  00008	e8 00 00 00 00	 call	 _PyNode_SizeOf

; 372  :     return PyLong_FromSsize_t(res);

  0000d	48 8d 48 70	 lea	 rcx, QWORD PTR [rax+112]

; 373  : }

  00011	48 83 c4 28	 add	 rsp, 40			; 00000028H
  00015	e9 00 00 00 00	 jmp	 PyLong_FromSsize_t
parser_sizeof ENDP
_TEXT	ENDS
PUBLIC	??_C@_0P@COPCCAIM@O?$CB?$HMpp?3st2tuple?$AA@	; `string'
PUBLIC	??_C@_0M@NAADOGPG@?$HMpp?3totuple?$AA@		; `string'
EXTRN	PyTuple_New:PROC
EXTRN	PyTuple_SetItem:PROC
EXTRN	PyArg_ParseTupleAndKeywords:PROC
EXTRN	PyType_IsSubtype:PROC
EXTRN	PyModule_Type:BYTE
;	COMDAT pdata
pdata	SEGMENT
$pdata$parser_st2tuple DD imagerel parser_st2tuple
	DD	imagerel parser_st2tuple+251
	DD	imagerel $unwind$parser_st2tuple
pdata	ENDS
;	COMDAT xdata
xdata	SEGMENT
$unwind$parser_st2tuple DD 040f01H
	DD	0d340fH
	DD	0700b920fH
xdata	ENDS
;	COMDAT ??_C@_0P@COPCCAIM@O?$CB?$HMpp?3st2tuple?$AA@
CONST	SEGMENT
??_C@_0P@COPCCAIM@O?$CB?$HMpp?3st2tuple?$AA@ DB 'O!|pp:st2tuple', 00H ; `string'
CONST	ENDS
;	COMDAT ??_C@_0M@NAADOGPG@?$HMpp?3totuple?$AA@
CONST	SEGMENT
??_C@_0M@NAADOGPG@?$HMpp?3totuple?$AA@ DB '|pp:totuple', 00H ; `string'
; Function compile flags: /Ogtpy
CONST	ENDS
;	COMDAT parser_st2tuple
_TEXT	SEGMENT
line_info$ = 64
self$ = 96
args$ = 104
kw$ = 112
col_info$ = 120
parser_st2tuple PROC					; COMDAT

; 384  : {

  00000	48 89 5c 24 10	 mov	 QWORD PTR [rsp+16], rbx
  00005	48 89 4c 24 08	 mov	 QWORD PTR [rsp+8], rcx
  0000a	57		 push	 rdi
  0000b	48 83 ec 50	 sub	 rsp, 80			; 00000050H
  0000f	49 8b d8	 mov	 rbx, r8
  00012	48 8b fa	 mov	 rdi, rdx

; 385  :     int line_info = 0;

  00015	c7 44 24 40 00
	00 00 00	 mov	 DWORD PTR line_info$[rsp], 0

; 386  :     int col_info = 0;

  0001d	c7 44 24 78 00
	00 00 00	 mov	 DWORD PTR col_info$[rsp], 0

; 387  :     PyObject *res = 0;
; 388  :     int ok;
; 389  : 
; 390  :     static char *keywords[] = {"st", "line_info", "col_info", NULL};
; 391  : 
; 392  :     if (self == NULL || PyModule_Check(self)) {

  00025	48 85 c9	 test	 rcx, rcx
  00028	74 49		 je	 SHORT $LN3@parser_st2
  0002a	48 8d 15 00 00
	00 00		 lea	 rdx, OFFSET FLAT:PyModule_Type
  00031	48 39 51 58	 cmp	 QWORD PTR [rcx+88], rdx
  00035	74 3c		 je	 SHORT $LN3@parser_st2
  00037	48 8b 49 58	 mov	 rcx, QWORD PTR [rcx+88]
  0003b	e8 00 00 00 00	 call	 PyType_IsSubtype
  00040	85 c0		 test	 eax, eax
  00042	75 2f		 jne	 SHORT $LN3@parser_st2

; 396  :     }
; 397  :     else
; 398  :         ok = PyArg_ParseTupleAndKeywords(args, kw, "|pp:totuple", &keywords[1],
; 399  :                                          &line_info, &col_info);

  00044	48 8d 44 24 78	 lea	 rax, QWORD PTR col_info$[rsp]
  00049	4c 8d 0d 08 00
	00 00		 lea	 r9, OFFSET FLAT:?keywords@?1??parser_st2tuple@@9@9+8
  00050	4c 8d 05 00 00
	00 00		 lea	 r8, OFFSET FLAT:??_C@_0M@NAADOGPG@?$HMpp?3totuple?$AA@
  00057	48 89 44 24 28	 mov	 QWORD PTR [rsp+40], rax
  0005c	48 8d 44 24 40	 lea	 rax, QWORD PTR line_info$[rsp]
  00061	48 8b d3	 mov	 rdx, rbx
  00064	48 8b cf	 mov	 rcx, rdi
  00067	48 89 44 24 20	 mov	 QWORD PTR [rsp+32], rax
  0006c	e8 00 00 00 00	 call	 PyArg_ParseTupleAndKeywords
  00071	eb 43		 jmp	 SHORT $LN2@parser_st2
$LN3@parser_st2:

; 393  :         ok = PyArg_ParseTupleAndKeywords(args, kw, "O!|pp:st2tuple", keywords,
; 394  :                                          &PyST_Type, &self, &line_info,
; 395  :                                          &col_info);

  00073	48 8d 44 24 78	 lea	 rax, QWORD PTR col_info$[rsp]
  00078	4c 8d 0d 00 00
	00 00		 lea	 r9, OFFSET FLAT:?keywords@?1??parser_st2tuple@@9@9
  0007f	4c 8d 05 00 00
	00 00		 lea	 r8, OFFSET FLAT:??_C@_0P@COPCCAIM@O?$CB?$HMpp?3st2tuple?$AA@
  00086	48 89 44 24 38	 mov	 QWORD PTR [rsp+56], rax
  0008b	48 8d 44 24 40	 lea	 rax, QWORD PTR line_info$[rsp]
  00090	48 8b d3	 mov	 rdx, rbx
  00093	48 89 44 24 30	 mov	 QWORD PTR [rsp+48], rax
  00098	48 8d 44 24 60	 lea	 rax, QWORD PTR self$[rsp]
  0009d	48 8b cf	 mov	 rcx, rdi
  000a0	48 89 44 24 28	 mov	 QWORD PTR [rsp+40], rax
  000a5	48 8d 05 00 00
	00 00		 lea	 rax, OFFSET FLAT:PyST_Type
  000ac	48 89 44 24 20	 mov	 QWORD PTR [rsp+32], rax
  000b1	e8 00 00 00 00	 call	 PyArg_ParseTupleAndKeywords
$LN2@parser_st2:

; 400  :     if (ok != 0) {

  000b6	85 c0		 test	 eax, eax
  000b8	74 34		 je	 SHORT $LN8@parser_st2

; 401  :         /*
; 402  :          *  Convert ST into a tuple representation.  Use Guido's function,
; 403  :          *  since it's known to work already.
; 404  :          */
; 405  :         res = node2tuple(((PyST_Object*)self)->st_node,
; 406  :                          PyTuple_New, PyTuple_SetItem, line_info, col_info);

  000ba	48 8b 4c 24 60	 mov	 rcx, QWORD PTR self$[rsp]
  000bf	8b 44 24 78	 mov	 eax, DWORD PTR col_info$[rsp]
  000c3	44 8b 4c 24 40	 mov	 r9d, DWORD PTR line_info$[rsp]
  000c8	48 8b 49 60	 mov	 rcx, QWORD PTR [rcx+96]
  000cc	4c 8d 05 00 00
	00 00		 lea	 r8, OFFSET FLAT:PyTuple_SetItem
  000d3	48 8d 15 00 00
	00 00		 lea	 rdx, OFFSET FLAT:PyTuple_New
  000da	89 44 24 20	 mov	 DWORD PTR [rsp+32], eax
  000de	e8 00 00 00 00	 call	 node2tuple

; 409  : }

  000e3	48 8b 5c 24 68	 mov	 rbx, QWORD PTR [rsp+104]
  000e8	48 83 c4 50	 add	 rsp, 80			; 00000050H
  000ec	5f		 pop	 rdi
  000ed	c3		 ret	 0
$LN8@parser_st2:

; 407  :     }
; 408  :     return (res);

  000ee	33 c0		 xor	 eax, eax

; 409  : }

  000f0	48 8b 5c 24 68	 mov	 rbx, QWORD PTR [rsp+104]
  000f5	48 83 c4 50	 add	 rsp, 80			; 00000050H
  000f9	5f		 pop	 rdi
  000fa	c3		 ret	 0
parser_st2tuple ENDP
_TEXT	ENDS
PUBLIC	??_C@_0O@LBPHIKMO@O?$CB?$HMpp?3st2list?$AA@	; `string'
PUBLIC	??_C@_0L@JECKIGFG@?$HMpp?3tolist?$AA@		; `string'
EXTRN	PyList_New:PROC
EXTRN	PyList_SetItem:PROC
;	COMDAT pdata
pdata	SEGMENT
$pdata$parser_st2list DD imagerel parser_st2list
	DD	imagerel parser_st2list+251
	DD	imagerel $unwind$parser_st2list
pdata	ENDS
;	COMDAT xdata
xdata	SEGMENT
$unwind$parser_st2list DD 040f01H
	DD	0d340fH
	DD	0700b920fH
xdata	ENDS
;	COMDAT ??_C@_0O@LBPHIKMO@O?$CB?$HMpp?3st2list?$AA@
CONST	SEGMENT
??_C@_0O@LBPHIKMO@O?$CB?$HMpp?3st2list?$AA@ DB 'O!|pp:st2list', 00H ; `string'
CONST	ENDS
;	COMDAT ??_C@_0L@JECKIGFG@?$HMpp?3tolist?$AA@
CONST	SEGMENT
??_C@_0L@JECKIGFG@?$HMpp?3tolist?$AA@ DB '|pp:tolist', 00H ; `string'
; Function compile flags: /Ogtpy
CONST	ENDS
;	COMDAT parser_st2list
_TEXT	SEGMENT
line_info$ = 64
self$ = 96
args$ = 104
kw$ = 112
col_info$ = 120
parser_st2list PROC					; COMDAT

; 420  : {

  00000	48 89 5c 24 10	 mov	 QWORD PTR [rsp+16], rbx
  00005	48 89 4c 24 08	 mov	 QWORD PTR [rsp+8], rcx
  0000a	57		 push	 rdi
  0000b	48 83 ec 50	 sub	 rsp, 80			; 00000050H
  0000f	49 8b d8	 mov	 rbx, r8
  00012	48 8b fa	 mov	 rdi, rdx

; 421  :     int line_info = 0;

  00015	c7 44 24 40 00
	00 00 00	 mov	 DWORD PTR line_info$[rsp], 0

; 422  :     int col_info = 0;

  0001d	c7 44 24 78 00
	00 00 00	 mov	 DWORD PTR col_info$[rsp], 0

; 423  :     PyObject *res = 0;
; 424  :     int ok;
; 425  : 
; 426  :     static char *keywords[] = {"st", "line_info", "col_info", NULL};
; 427  : 
; 428  :     if (self == NULL || PyModule_Check(self))

  00025	48 85 c9	 test	 rcx, rcx
  00028	74 49		 je	 SHORT $LN3@parser_st2@2
  0002a	48 8d 15 00 00
	00 00		 lea	 rdx, OFFSET FLAT:PyModule_Type
  00031	48 39 51 58	 cmp	 QWORD PTR [rcx+88], rdx
  00035	74 3c		 je	 SHORT $LN3@parser_st2@2
  00037	48 8b 49 58	 mov	 rcx, QWORD PTR [rcx+88]
  0003b	e8 00 00 00 00	 call	 PyType_IsSubtype
  00040	85 c0		 test	 eax, eax
  00042	75 2f		 jne	 SHORT $LN3@parser_st2@2

; 432  :     else
; 433  :         ok = PyArg_ParseTupleAndKeywords(args, kw, "|pp:tolist", &keywords[1],
; 434  :                                          &line_info, &col_info);

  00044	48 8d 44 24 78	 lea	 rax, QWORD PTR col_info$[rsp]
  00049	4c 8d 0d 08 00
	00 00		 lea	 r9, OFFSET FLAT:?keywords@?1??parser_st2list@@9@9+8
  00050	4c 8d 05 00 00
	00 00		 lea	 r8, OFFSET FLAT:??_C@_0L@JECKIGFG@?$HMpp?3tolist?$AA@
  00057	48 89 44 24 28	 mov	 QWORD PTR [rsp+40], rax
  0005c	48 8d 44 24 40	 lea	 rax, QWORD PTR line_info$[rsp]
  00061	48 8b d3	 mov	 rdx, rbx
  00064	48 8b cf	 mov	 rcx, rdi
  00067	48 89 44 24 20	 mov	 QWORD PTR [rsp+32], rax
  0006c	e8 00 00 00 00	 call	 PyArg_ParseTupleAndKeywords
  00071	eb 43		 jmp	 SHORT $LN2@parser_st2@2
$LN3@parser_st2@2:

; 429  :         ok = PyArg_ParseTupleAndKeywords(args, kw, "O!|pp:st2list", keywords,
; 430  :                                          &PyST_Type, &self, &line_info,
; 431  :                                          &col_info);

  00073	48 8d 44 24 78	 lea	 rax, QWORD PTR col_info$[rsp]
  00078	4c 8d 0d 00 00
	00 00		 lea	 r9, OFFSET FLAT:?keywords@?1??parser_st2list@@9@9
  0007f	4c 8d 05 00 00
	00 00		 lea	 r8, OFFSET FLAT:??_C@_0O@LBPHIKMO@O?$CB?$HMpp?3st2list?$AA@
  00086	48 89 44 24 38	 mov	 QWORD PTR [rsp+56], rax
  0008b	48 8d 44 24 40	 lea	 rax, QWORD PTR line_info$[rsp]
  00090	48 8b d3	 mov	 rdx, rbx
  00093	48 89 44 24 30	 mov	 QWORD PTR [rsp+48], rax
  00098	48 8d 44 24 60	 lea	 rax, QWORD PTR self$[rsp]
  0009d	48 8b cf	 mov	 rcx, rdi
  000a0	48 89 44 24 28	 mov	 QWORD PTR [rsp+40], rax
  000a5	48 8d 05 00 00
	00 00		 lea	 rax, OFFSET FLAT:PyST_Type
  000ac	48 89 44 24 20	 mov	 QWORD PTR [rsp+32], rax
  000b1	e8 00 00 00 00	 call	 PyArg_ParseTupleAndKeywords
$LN2@parser_st2@2:

; 435  :     if (ok) {

  000b6	85 c0		 test	 eax, eax
  000b8	74 34		 je	 SHORT $LN8@parser_st2@2

; 436  :         /*
; 437  :          *  Convert ST into a tuple representation.  Use Guido's function,
; 438  :          *  since it's known to work already.
; 439  :          */
; 440  :         res = node2tuple(self->st_node,
; 441  :                          PyList_New, PyList_SetItem, line_info, col_info);

  000ba	48 8b 4c 24 60	 mov	 rcx, QWORD PTR self$[rsp]
  000bf	8b 44 24 78	 mov	 eax, DWORD PTR col_info$[rsp]
  000c3	44 8b 4c 24 40	 mov	 r9d, DWORD PTR line_info$[rsp]
  000c8	48 8b 49 60	 mov	 rcx, QWORD PTR [rcx+96]
  000cc	4c 8d 05 00 00
	00 00		 lea	 r8, OFFSET FLAT:PyList_SetItem
  000d3	48 8d 15 00 00
	00 00		 lea	 rdx, OFFSET FLAT:PyList_New
  000da	89 44 24 20	 mov	 DWORD PTR [rsp+32], eax
  000de	e8 00 00 00 00	 call	 node2tuple

; 444  : }

  000e3	48 8b 5c 24 68	 mov	 rbx, QWORD PTR [rsp+104]
  000e8	48 83 c4 50	 add	 rsp, 80			; 00000050H
  000ec	5f		 pop	 rdi
  000ed	c3		 ret	 0
$LN8@parser_st2@2:

; 442  :     }
; 443  :     return (res);

  000ee	33 c0		 xor	 eax, eax

; 444  : }

  000f0	48 8b 5c 24 68	 mov	 rbx, QWORD PTR [rsp+104]
  000f5	48 83 c4 50	 add	 rsp, 80			; 00000050H
  000f9	5f		 pop	 rdi
  000fa	c3		 ret	 0
parser_st2list ENDP
_TEXT	ENDS
PUBLIC	??_C@_0P@CDMCGFOG@O?$CB?$HMs?3compilest?$AA@	; `string'
PUBLIC	??_C@_0L@LHGKIIMA@?$HMs?3compile?$AA@		; `string'
PUBLIC	??_C@_0O@GGPNMODD@?$DMsyntax?9tree?$DO?$AA@	; `string'
EXTRN	PyArena_Free:PROC
EXTRN	PyAST_CompileEx:PROC
EXTRN	PyAST_FromNode:PROC
EXTRN	PyArena_New:PROC
;	COMDAT pdata
pdata	SEGMENT
$pdata$parser_compilest DD imagerel parser_compilest
	DD	imagerel parser_compilest+274
	DD	imagerel $unwind$parser_compilest
pdata	ENDS
;	COMDAT xdata
xdata	SEGMENT
$unwind$parser_compilest DD 061401H
	DD	0c6414H
	DD	0b3414H
	DD	070107214H
xdata	ENDS
;	COMDAT ??_C@_0P@CDMCGFOG@O?$CB?$HMs?3compilest?$AA@
CONST	SEGMENT
??_C@_0P@CDMCGFOG@O?$CB?$HMs?3compilest?$AA@ DB 'O!|s:compilest', 00H ; `string'
CONST	ENDS
;	COMDAT ??_C@_0L@LHGKIIMA@?$HMs?3compile?$AA@
CONST	SEGMENT
??_C@_0L@LHGKIIMA@?$HMs?3compile?$AA@ DB '|s:compile', 00H ; `string'
CONST	ENDS
;	COMDAT ??_C@_0O@GGPNMODD@?$DMsyntax?9tree?$DO?$AA@
CONST	SEGMENT
??_C@_0O@GGPNMODD@?$DMsyntax?9tree?$DO?$AA@ DB '<syntax-tree>', 00H ; `string'
; Function compile flags: /Ogtpy
CONST	ENDS
;	COMDAT parser_compilest
_TEXT	SEGMENT
self$ = 80
args$ = 88
kw$ = 96
str$ = 104
parser_compilest PROC					; COMDAT

; 455  : {

  00000	48 89 5c 24 10	 mov	 QWORD PTR [rsp+16], rbx
  00005	48 89 74 24 18	 mov	 QWORD PTR [rsp+24], rsi
  0000a	48 89 4c 24 08	 mov	 QWORD PTR [rsp+8], rcx
  0000f	57		 push	 rdi
  00010	48 83 ec 40	 sub	 rsp, 64			; 00000040H

; 456  :     PyObject*     res = 0;
; 457  :     PyArena*      arena;
; 458  :     mod_ty        mod;
; 459  :     char*         str = "<syntax-tree>";

  00014	48 8d 05 00 00
	00 00		 lea	 rax, OFFSET FLAT:??_C@_0O@GGPNMODD@?$DMsyntax?9tree?$DO?$AA@
  0001b	33 ff		 xor	 edi, edi
  0001d	49 8b d8	 mov	 rbx, r8
  00020	48 8b f2	 mov	 rsi, rdx
  00023	48 89 44 24 68	 mov	 QWORD PTR str$[rsp], rax

; 460  :     int ok;
; 461  : 
; 462  :     static char *keywords[] = {"st", "filename", NULL};
; 463  : 
; 464  :     if (self == NULL || PyModule_Check(self))

  00028	48 85 c9	 test	 rcx, rcx
  0002b	74 3f		 je	 SHORT $LN5@parser_com@2
  0002d	48 8d 15 00 00
	00 00		 lea	 rdx, OFFSET FLAT:PyModule_Type
  00034	48 39 51 58	 cmp	 QWORD PTR [rcx+88], rdx
  00038	74 32		 je	 SHORT $LN5@parser_com@2
  0003a	48 8b 49 58	 mov	 rcx, QWORD PTR [rcx+88]
  0003e	e8 00 00 00 00	 call	 PyType_IsSubtype
  00043	85 c0		 test	 eax, eax
  00045	75 25		 jne	 SHORT $LN5@parser_com@2

; 467  :     else
; 468  :         ok = PyArg_ParseTupleAndKeywords(args, kw, "|s:compile", &keywords[1],
; 469  :                                          &str);

  00047	48 8d 44 24 68	 lea	 rax, QWORD PTR str$[rsp]
  0004c	4c 8d 0d 08 00
	00 00		 lea	 r9, OFFSET FLAT:?keywords@?1??parser_compilest@@9@9+8
  00053	4c 8d 05 00 00
	00 00		 lea	 r8, OFFSET FLAT:??_C@_0L@LHGKIIMA@?$HMs?3compile?$AA@
  0005a	48 8b d3	 mov	 rdx, rbx
  0005d	48 8b ce	 mov	 rcx, rsi
  00060	48 89 44 24 20	 mov	 QWORD PTR [rsp+32], rax
  00065	e8 00 00 00 00	 call	 PyArg_ParseTupleAndKeywords
  0006a	eb 39		 jmp	 SHORT $LN4@parser_com@2
$LN5@parser_com@2:

; 465  :         ok = PyArg_ParseTupleAndKeywords(args, kw, "O!|s:compilest", keywords,
; 466  :                                          &PyST_Type, &self, &str);

  0006c	48 8d 44 24 68	 lea	 rax, QWORD PTR str$[rsp]
  00071	4c 8d 0d 00 00
	00 00		 lea	 r9, OFFSET FLAT:?keywords@?1??parser_compilest@@9@9
  00078	4c 8d 05 00 00
	00 00		 lea	 r8, OFFSET FLAT:??_C@_0P@CDMCGFOG@O?$CB?$HMs?3compilest?$AA@
  0007f	48 89 44 24 30	 mov	 QWORD PTR [rsp+48], rax
  00084	48 8d 44 24 50	 lea	 rax, QWORD PTR self$[rsp]
  00089	48 8b d3	 mov	 rdx, rbx
  0008c	48 89 44 24 28	 mov	 QWORD PTR [rsp+40], rax
  00091	48 8d 05 00 00
	00 00		 lea	 rax, OFFSET FLAT:PyST_Type
  00098	48 8b ce	 mov	 rcx, rsi
  0009b	48 89 44 24 20	 mov	 QWORD PTR [rsp+32], rax
  000a0	e8 00 00 00 00	 call	 PyArg_ParseTupleAndKeywords
$LN4@parser_com@2:

; 470  : 
; 471  :     if (ok) {

  000a5	85 c0		 test	 eax, eax
  000a7	74 56		 je	 SHORT $LN11@parser_com@2

; 472  :         arena = PyArena_New();

  000a9	e8 00 00 00 00	 call	 PyArena_New
  000ae	48 8b d8	 mov	 rbx, rax

; 473  :         if (arena) {

  000b1	48 85 c0	 test	 rax, rax
  000b4	74 49		 je	 SHORT $LN11@parser_com@2

; 474  :            mod = PyAST_FromNode(self->st_node, &(self->st_flags), str, arena);

  000b6	48 8b 4c 24 50	 mov	 rcx, QWORD PTR self$[rsp]
  000bb	4c 8b 44 24 68	 mov	 r8, QWORD PTR str$[rsp]
  000c0	4c 8b c8	 mov	 r9, rax
  000c3	48 8d 51 6c	 lea	 rdx, QWORD PTR [rcx+108]
  000c7	48 8b 49 60	 mov	 rcx, QWORD PTR [rcx+96]
  000cb	e8 00 00 00 00	 call	 PyAST_FromNode

; 475  :            if (mod) {

  000d0	48 85 c0	 test	 rax, rax
  000d3	74 22		 je	 SHORT $LN1@parser_com@2

; 476  :                res = (PyObject *)PyAST_Compile(mod, str, &(self->st_flags), arena);

  000d5	4c 8b 44 24 50	 mov	 r8, QWORD PTR self$[rsp]
  000da	48 8b 54 24 68	 mov	 rdx, QWORD PTR str$[rsp]
  000df	41 83 c9 ff	 or	 r9d, -1
  000e3	48 8b c8	 mov	 rcx, rax
  000e6	49 83 c0 6c	 add	 r8, 108			; 0000006cH
  000ea	48 89 5c 24 20	 mov	 QWORD PTR [rsp+32], rbx
  000ef	e8 00 00 00 00	 call	 PyAST_CompileEx
  000f4	48 8b f8	 mov	 rdi, rax
$LN1@parser_com@2:

; 477  :            }
; 478  :            PyArena_Free(arena);

  000f7	48 8b cb	 mov	 rcx, rbx
  000fa	e8 00 00 00 00	 call	 PyArena_Free
$LN11@parser_com@2:

; 479  :         }
; 480  :     }
; 481  : 
; 482  :     return (res);
; 483  : }

  000ff	48 8b 5c 24 58	 mov	 rbx, QWORD PTR [rsp+88]
  00104	48 8b 74 24 60	 mov	 rsi, QWORD PTR [rsp+96]
  00109	48 8b c7	 mov	 rax, rdi
  0010c	48 83 c4 40	 add	 rsp, 64			; 00000040H
  00110	5f		 pop	 rdi
  00111	c3		 ret	 0
parser_compilest ENDP
_TEXT	ENDS
PUBLIC	??_C@_09NHHKGHMC@O?$CB?3isexpr?$AA@		; `string'
PUBLIC	??_C@_07KLOJBKBA@?3isexpr?$AA@			; `string'
;	COMDAT pdata
; File c:\src\pyparallel\include\object.h
pdata	SEGMENT
$pdata$parser_isexpr DD imagerel parser_isexpr
	DD	imagerel parser_isexpr+243
	DD	imagerel $unwind$parser_isexpr
pdata	ENDS
;	COMDAT xdata
xdata	SEGMENT
$unwind$parser_isexpr DD 040f01H
	DD	09340fH
	DD	0700b520fH
xdata	ENDS
;	COMDAT ??_C@_09NHHKGHMC@O?$CB?3isexpr?$AA@
CONST	SEGMENT
??_C@_09NHHKGHMC@O?$CB?3isexpr?$AA@ DB 'O!:isexpr', 00H	; `string'
CONST	ENDS
;	COMDAT ??_C@_07KLOJBKBA@?3isexpr?$AA@
CONST	SEGMENT
??_C@_07KLOJBKBA@?3isexpr?$AA@ DB ':isexpr', 00H	; `string'
; Function compile flags: /Ogtpy
; File c:\src\pyparallel\modules\parsermodule.c
CONST	ENDS
;	COMDAT parser_isexpr
_TEXT	SEGMENT
self$ = 64
args$ = 72
kw$ = 80
parser_isexpr PROC					; COMDAT

; 495  : {

  00000	48 89 5c 24 10	 mov	 QWORD PTR [rsp+16], rbx
  00005	48 89 4c 24 08	 mov	 QWORD PTR [rsp+8], rcx
  0000a	57		 push	 rdi
  0000b	48 83 ec 30	 sub	 rsp, 48			; 00000030H
  0000f	49 8b d8	 mov	 rbx, r8
  00012	48 8b fa	 mov	 rdi, rdx

; 496  :     PyObject* res = 0;
; 497  :     int ok;
; 498  : 
; 499  :     static char *keywords[] = {"st", NULL};
; 500  : 
; 501  :     if (self == NULL || PyModule_Check(self))

  00015	48 85 c9	 test	 rcx, rcx
  00018	74 35		 je	 SHORT $LN3@parser_ise
  0001a	48 8d 15 00 00
	00 00		 lea	 rdx, OFFSET FLAT:PyModule_Type
  00021	48 39 51 58	 cmp	 QWORD PTR [rcx+88], rdx
  00025	74 28		 je	 SHORT $LN3@parser_ise
  00027	48 8b 49 58	 mov	 rcx, QWORD PTR [rcx+88]
  0002b	e8 00 00 00 00	 call	 PyType_IsSubtype
  00030	85 c0		 test	 eax, eax
  00032	75 1b		 jne	 SHORT $LN3@parser_ise

; 504  :     else
; 505  :         ok = PyArg_ParseTupleAndKeywords(args, kw, ":isexpr", &keywords[1]);

  00034	4c 8d 0d 08 00
	00 00		 lea	 r9, OFFSET FLAT:?keywords@?1??parser_isexpr@@9@9+8
  0003b	4c 8d 05 00 00
	00 00		 lea	 r8, OFFSET FLAT:??_C@_07KLOJBKBA@?3isexpr?$AA@
  00042	48 8b d3	 mov	 rdx, rbx
  00045	48 8b cf	 mov	 rcx, rdi
  00048	e8 00 00 00 00	 call	 PyArg_ParseTupleAndKeywords
  0004d	eb 2f		 jmp	 SHORT $LN2@parser_ise
$LN3@parser_ise:

; 502  :         ok = PyArg_ParseTupleAndKeywords(args, kw, "O!:isexpr", keywords,
; 503  :                                          &PyST_Type, &self);

  0004f	48 8d 44 24 40	 lea	 rax, QWORD PTR self$[rsp]
  00054	4c 8d 0d 00 00
	00 00		 lea	 r9, OFFSET FLAT:?keywords@?1??parser_isexpr@@9@9
  0005b	4c 8d 05 00 00
	00 00		 lea	 r8, OFFSET FLAT:??_C@_09NHHKGHMC@O?$CB?3isexpr?$AA@
  00062	48 89 44 24 28	 mov	 QWORD PTR [rsp+40], rax
  00067	48 8d 05 00 00
	00 00		 lea	 rax, OFFSET FLAT:PyST_Type
  0006e	48 8b d3	 mov	 rdx, rbx
  00071	48 8b cf	 mov	 rcx, rdi
  00074	48 89 44 24 20	 mov	 QWORD PTR [rsp+32], rax
  00079	e8 00 00 00 00	 call	 PyArg_ParseTupleAndKeywords
$LN2@parser_ise:

; 506  : 
; 507  :     if (ok) {

  0007e	85 c0		 test	 eax, eax
  00080	74 64		 je	 SHORT $LN14@parser_ise

; 508  :         /* Check to see if the ST represents an expression or not. */
; 509  :         res = (self->st_type == PyST_EXPR) ? Py_True : Py_False;

  00082	48 8b 44 24 40	 mov	 rax, QWORD PTR self$[rsp]
  00087	48 8d 0d 00 00
	00 00		 lea	 rcx, OFFSET FLAT:_Py_TrueStruct
  0008e	48 8d 1d 00 00
	00 00		 lea	 rbx, OFFSET FLAT:_Py_FalseStruct
  00095	83 78 68 01	 cmp	 DWORD PTR [rax+104], 1
  00099	48 0f 44 d9	 cmove	 rbx, rcx

; 510  :         Py_INCREF(res);

  0009d	e8 00 00 00 00	 call	 _Py_PXCTX
  000a2	85 c0		 test	 eax, eax
  000a4	75 32		 jne	 SHORT $LN12@parser_ise
  000a6	48 8d 15 00 00
	00 00		 lea	 rdx, OFFSET FLAT:??_C@_0CD@HDJFDCDP@c?3?2src?2pyparallel?2include?2object@
  000ad	48 8d 0d 00 00
	00 00		 lea	 rcx, OFFSET FLAT:??_C@_0L@DHGMCEID@_Py_IncRef?$AA@
  000b4	4c 8b cb	 mov	 r9, rbx
  000b7	41 b8 89 03 00
	00		 mov	 r8d, 905		; 00000389H
  000bd	c7 44 24 20 02
	00 00 00	 mov	 DWORD PTR [rsp+32], 2
  000c5	e8 00 00 00 00	 call	 _PyParallel_Guard
  000ca	85 c0		 test	 eax, eax
  000cc	75 06		 jne	 SHORT $LN8@parser_ise
  000ce	f6 43 20 20	 test	 BYTE PTR [rbx+32], 32	; 00000020H
  000d2	74 04		 je	 SHORT $LN12@parser_ise
$LN8@parser_ise:
  000d4	48 ff 43 50	 inc	 QWORD PTR [rbx+80]
$LN12@parser_ise:

; 511  :     }
; 512  :     return (res);

  000d8	48 8b c3	 mov	 rax, rbx

; 513  : }

  000db	48 8b 5c 24 48	 mov	 rbx, QWORD PTR [rsp+72]
  000e0	48 83 c4 30	 add	 rsp, 48			; 00000030H
  000e4	5f		 pop	 rdi
  000e5	c3		 ret	 0
$LN14@parser_ise:

; 511  :     }
; 512  :     return (res);

  000e6	33 c0		 xor	 eax, eax

; 513  : }

  000e8	48 8b 5c 24 48	 mov	 rbx, QWORD PTR [rsp+72]
  000ed	48 83 c4 30	 add	 rsp, 48			; 00000030H
  000f1	5f		 pop	 rdi
  000f2	c3		 ret	 0
parser_isexpr ENDP
_TEXT	ENDS
PUBLIC	??_C@_0L@GJLEAHIJ@O?$CB?3issuite?$AA@		; `string'
PUBLIC	??_C@_08BBFCHAM@?3issuite?$AA@			; `string'
;	COMDAT pdata
; File c:\src\pyparallel\include\object.h
pdata	SEGMENT
$pdata$parser_issuite DD imagerel parser_issuite
	DD	imagerel parser_issuite+243
	DD	imagerel $unwind$parser_issuite
pdata	ENDS
;	COMDAT xdata
xdata	SEGMENT
$unwind$parser_issuite DD 040f01H
	DD	09340fH
	DD	0700b520fH
xdata	ENDS
;	COMDAT ??_C@_0L@GJLEAHIJ@O?$CB?3issuite?$AA@
CONST	SEGMENT
??_C@_0L@GJLEAHIJ@O?$CB?3issuite?$AA@ DB 'O!:issuite', 00H ; `string'
CONST	ENDS
;	COMDAT ??_C@_08BBFCHAM@?3issuite?$AA@
CONST	SEGMENT
??_C@_08BBFCHAM@?3issuite?$AA@ DB ':issuite', 00H	; `string'
; Function compile flags: /Ogtpy
; File c:\src\pyparallel\modules\parsermodule.c
CONST	ENDS
;	COMDAT parser_issuite
_TEXT	SEGMENT
self$ = 64
args$ = 72
kw$ = 80
parser_issuite PROC					; COMDAT

; 518  : {

  00000	48 89 5c 24 10	 mov	 QWORD PTR [rsp+16], rbx
  00005	48 89 4c 24 08	 mov	 QWORD PTR [rsp+8], rcx
  0000a	57		 push	 rdi
  0000b	48 83 ec 30	 sub	 rsp, 48			; 00000030H
  0000f	49 8b d8	 mov	 rbx, r8
  00012	48 8b fa	 mov	 rdi, rdx

; 519  :     PyObject* res = 0;
; 520  :     int ok;
; 521  : 
; 522  :     static char *keywords[] = {"st", NULL};
; 523  : 
; 524  :     if (self == NULL || PyModule_Check(self))

  00015	48 85 c9	 test	 rcx, rcx
  00018	74 35		 je	 SHORT $LN3@parser_iss
  0001a	48 8d 15 00 00
	00 00		 lea	 rdx, OFFSET FLAT:PyModule_Type
  00021	48 39 51 58	 cmp	 QWORD PTR [rcx+88], rdx
  00025	74 28		 je	 SHORT $LN3@parser_iss
  00027	48 8b 49 58	 mov	 rcx, QWORD PTR [rcx+88]
  0002b	e8 00 00 00 00	 call	 PyType_IsSubtype
  00030	85 c0		 test	 eax, eax
  00032	75 1b		 jne	 SHORT $LN3@parser_iss

; 527  :     else
; 528  :         ok = PyArg_ParseTupleAndKeywords(args, kw, ":issuite", &keywords[1]);

  00034	4c 8d 0d 08 00
	00 00		 lea	 r9, OFFSET FLAT:?keywords@?1??parser_issuite@@9@9+8
  0003b	4c 8d 05 00 00
	00 00		 lea	 r8, OFFSET FLAT:??_C@_08BBFCHAM@?3issuite?$AA@
  00042	48 8b d3	 mov	 rdx, rbx
  00045	48 8b cf	 mov	 rcx, rdi
  00048	e8 00 00 00 00	 call	 PyArg_ParseTupleAndKeywords
  0004d	eb 2f		 jmp	 SHORT $LN2@parser_iss
$LN3@parser_iss:

; 525  :         ok = PyArg_ParseTupleAndKeywords(args, kw, "O!:issuite", keywords,
; 526  :                                          &PyST_Type, &self);

  0004f	48 8d 44 24 40	 lea	 rax, QWORD PTR self$[rsp]
  00054	4c 8d 0d 00 00
	00 00		 lea	 r9, OFFSET FLAT:?keywords@?1??parser_issuite@@9@9
  0005b	4c 8d 05 00 00
	00 00		 lea	 r8, OFFSET FLAT:??_C@_0L@GJLEAHIJ@O?$CB?3issuite?$AA@
  00062	48 89 44 24 28	 mov	 QWORD PTR [rsp+40], rax
  00067	48 8d 05 00 00
	00 00		 lea	 rax, OFFSET FLAT:PyST_Type
  0006e	48 8b d3	 mov	 rdx, rbx
  00071	48 8b cf	 mov	 rcx, rdi
  00074	48 89 44 24 20	 mov	 QWORD PTR [rsp+32], rax
  00079	e8 00 00 00 00	 call	 PyArg_ParseTupleAndKeywords
$LN2@parser_iss:

; 529  : 
; 530  :     if (ok) {

  0007e	85 c0		 test	 eax, eax
  00080	74 64		 je	 SHORT $LN14@parser_iss

; 531  :         /* Check to see if the ST represents an expression or not. */
; 532  :         res = (self->st_type == PyST_EXPR) ? Py_False : Py_True;

  00082	48 8b 44 24 40	 mov	 rax, QWORD PTR self$[rsp]
  00087	48 8d 0d 00 00
	00 00		 lea	 rcx, OFFSET FLAT:_Py_FalseStruct
  0008e	48 8d 1d 00 00
	00 00		 lea	 rbx, OFFSET FLAT:_Py_TrueStruct
  00095	83 78 68 01	 cmp	 DWORD PTR [rax+104], 1
  00099	48 0f 44 d9	 cmove	 rbx, rcx

; 533  :         Py_INCREF(res);

  0009d	e8 00 00 00 00	 call	 _Py_PXCTX
  000a2	85 c0		 test	 eax, eax
  000a4	75 32		 jne	 SHORT $LN12@parser_iss
  000a6	48 8d 15 00 00
	00 00		 lea	 rdx, OFFSET FLAT:??_C@_0CD@HDJFDCDP@c?3?2src?2pyparallel?2include?2object@
  000ad	48 8d 0d 00 00
	00 00		 lea	 rcx, OFFSET FLAT:??_C@_0L@DHGMCEID@_Py_IncRef?$AA@
  000b4	4c 8b cb	 mov	 r9, rbx
  000b7	41 b8 89 03 00
	00		 mov	 r8d, 905		; 00000389H
  000bd	c7 44 24 20 02
	00 00 00	 mov	 DWORD PTR [rsp+32], 2
  000c5	e8 00 00 00 00	 call	 _PyParallel_Guard
  000ca	85 c0		 test	 eax, eax
  000cc	75 06		 jne	 SHORT $LN8@parser_iss
  000ce	f6 43 20 20	 test	 BYTE PTR [rbx+32], 32	; 00000020H
  000d2	74 04		 je	 SHORT $LN12@parser_iss
$LN8@parser_iss:
  000d4	48 ff 43 50	 inc	 QWORD PTR [rbx+80]
$LN12@parser_iss:

; 534  :     }
; 535  :     return (res);

  000d8	48 8b c3	 mov	 rax, rbx

; 536  : }

  000db	48 8b 5c 24 48	 mov	 rbx, QWORD PTR [rsp+72]
  000e0	48 83 c4 30	 add	 rsp, 48			; 00000030H
  000e4	5f		 pop	 rdi
  000e5	c3		 ret	 0
$LN14@parser_iss:

; 534  :     }
; 535  :     return (res);

  000e6	33 c0		 xor	 eax, eax

; 536  : }

  000e8	48 8b 5c 24 48	 mov	 rbx, QWORD PTR [rsp+72]
  000ed	48 83 c4 30	 add	 rsp, 48			; 00000030H
  000f1	5f		 pop	 rdi
  000f2	c3		 ret	 0
parser_issuite ENDP
_TEXT	ENDS
EXTRN	PyErr_SetString:PROC
; Function compile flags: /Ogtpy
;	COMDAT err_string
_TEXT	SEGMENT
message$ = 8
err_string PROC						; COMDAT

; 547  :     PyErr_SetString(parser_error, message);

  00000	48 8b d1	 mov	 rdx, rcx
  00003	48 8b 0d 00 00
	00 00		 mov	 rcx, QWORD PTR parser_error

; 548  : }

  0000a	e9 00 00 00 00	 jmp	 PyErr_SetString
err_string ENDP
_TEXT	ENDS
EXTRN	PyParser_ClearError:PROC
EXTRN	PyParser_SetError:PROC
EXTRN	PyParser_ParseStringFlagsFilenameEx:PROC
EXTRN	_PyParser_Grammar:BYTE
;	COMDAT pdata
pdata	SEGMENT
$pdata$parser_do_parse DD imagerel parser_do_parse
	DD	imagerel parser_do_parse+181
	DD	imagerel $unwind$parser_do_parse
pdata	ENDS
;	COMDAT xdata
xdata	SEGMENT
$unwind$parser_do_parse DD 040a01H
	DD	010340aH
	DD	07006d20aH
; Function compile flags: /Ogtpy
xdata	ENDS
;	COMDAT parser_do_parse
_TEXT	SEGMENT
flags$ = 48
string$ = 56
err$ = 64
args$ = 128
kw$ = 136
argspec$ = 144
type$ = 152
parser_do_parse PROC					; COMDAT

; 559  : {

  00000	48 89 5c 24 08	 mov	 QWORD PTR [rsp+8], rbx
  00005	57		 push	 rdi
  00006	48 83 ec 70	 sub	 rsp, 112		; 00000070H
  0000a	41 8b f9	 mov	 edi, r9d

; 560  :     char*     string = 0;
; 561  :     PyObject* res    = 0;
; 562  :     int flags        = 0;
; 563  :     perrdetail err;
; 564  : 
; 565  :     static char *keywords[] = {"source", NULL};
; 566  : 
; 567  :     if (PyArg_ParseTupleAndKeywords(args, kw, argspec, keywords, &string)) {

  0000d	48 8d 44 24 38	 lea	 rax, QWORD PTR string$[rsp]
  00012	33 db		 xor	 ebx, ebx
  00014	4c 8d 0d 00 00
	00 00		 lea	 r9, OFFSET FLAT:?keywords@?1??parser_do_parse@@9@9
  0001b	48 89 44 24 20	 mov	 QWORD PTR [rsp+32], rax
  00020	48 89 5c 24 38	 mov	 QWORD PTR string$[rsp], rbx
  00025	89 5c 24 30	 mov	 DWORD PTR flags$[rsp], ebx
  00029	e8 00 00 00 00	 call	 PyArg_ParseTupleAndKeywords
  0002e	85 c0		 test	 eax, eax
  00030	74 72		 je	 SHORT $LN7@parser_do_

; 568  :         node* n = PyParser_ParseStringFlagsFilenameEx(string, NULL,
; 569  :                                                        &_PyParser_Grammar,
; 570  :                                                       (type == PyST_EXPR)
; 571  :                                                       ? eval_input : file_input,
; 572  :                                                       &err, &flags);

  00032	48 8b 4c 24 38	 mov	 rcx, QWORD PTR string$[rsp]
  00037	44 8b cb	 mov	 r9d, ebx
  0003a	48 8d 44 24 30	 lea	 rax, QWORD PTR flags$[rsp]
  0003f	48 89 44 24 28	 mov	 QWORD PTR [rsp+40], rax
  00044	48 8d 44 24 40	 lea	 rax, QWORD PTR err$[rsp]
  00049	83 ff 01	 cmp	 edi, 1
  0004c	41 0f 94 c1	 sete	 r9b
  00050	4c 8d 05 00 00
	00 00		 lea	 r8, OFFSET FLAT:_PyParser_Grammar
  00057	33 d2		 xor	 edx, edx
  00059	41 81 c1 01 01
	00 00		 add	 r9d, 257		; 00000101H
  00060	48 89 44 24 20	 mov	 QWORD PTR [rsp+32], rax
  00065	e8 00 00 00 00	 call	 PyParser_ParseStringFlagsFilenameEx

; 573  : 
; 574  :         if (n) {

  0006a	48 85 c0	 test	 rax, rax
  0006d	74 21		 je	 SHORT $LN3@parser_do_

; 575  :             res = parser_newstobject(n, type);

  0006f	8b d7		 mov	 edx, edi
  00071	48 8b c8	 mov	 rcx, rax
  00074	e8 00 00 00 00	 call	 parser_newstobject
  00079	48 8b d8	 mov	 rbx, rax

; 576  :             if (res)

  0007c	48 85 c0	 test	 rax, rax
  0007f	74 19		 je	 SHORT $LN1@parser_do_

; 577  :                 ((PyST_Object *)res)->st_flags.cf_flags = flags & PyCF_MASK;

  00081	8b 4c 24 30	 mov	 ecx, DWORD PTR flags$[rsp]
  00085	81 e1 00 e0 07
	00		 and	 ecx, 516096		; 0007e000H
  0008b	89 48 6c	 mov	 DWORD PTR [rax+108], ecx

; 578  :         }
; 579  :         else {

  0008e	eb 0a		 jmp	 SHORT $LN1@parser_do_
$LN3@parser_do_:

; 580  :             PyParser_SetError(&err);

  00090	48 8d 4c 24 40	 lea	 rcx, QWORD PTR err$[rsp]
  00095	e8 00 00 00 00	 call	 PyParser_SetError
$LN1@parser_do_:

; 581  :         }
; 582  :         PyParser_ClearError(&err);

  0009a	48 8d 4c 24 40	 lea	 rcx, QWORD PTR err$[rsp]
  0009f	e8 00 00 00 00	 call	 PyParser_ClearError
$LN7@parser_do_:

; 583  :     }
; 584  :     return (res);

  000a4	48 8b c3	 mov	 rax, rbx

; 585  : }

  000a7	48 8b 9c 24 80
	00 00 00	 mov	 rbx, QWORD PTR [rsp+128]
  000af	48 83 c4 70	 add	 rsp, 112		; 00000070H
  000b3	5f		 pop	 rdi
  000b4	c3		 ret	 0
parser_do_parse ENDP
_TEXT	ENDS
PUBLIC	??_C@_06KMFDMNJG@s?3expr?$AA@			; `string'
;	COMDAT ??_C@_06KMFDMNJG@s?3expr?$AA@
CONST	SEGMENT
??_C@_06KMFDMNJG@s?3expr?$AA@ DB 's:expr', 00H		; `string'
; Function compile flags: /Ogtpy
CONST	ENDS
;	COMDAT parser_expr
_TEXT	SEGMENT
self$ = 8
args$ = 16
kw$ = 24
parser_expr PROC					; COMDAT

; 598  : {

  00000	49 8b c0	 mov	 rax, r8

; 599  :     NOTE(ARGUNUSED(self))
; 600  :     return (parser_do_parse(args, kw, "s:expr", PyST_EXPR));

  00003	48 8b ca	 mov	 rcx, rdx
  00006	4c 8d 05 00 00
	00 00		 lea	 r8, OFFSET FLAT:??_C@_06KMFDMNJG@s?3expr?$AA@
  0000d	48 8b d0	 mov	 rdx, rax
  00010	41 b9 01 00 00
	00		 mov	 r9d, 1

; 601  : }

  00016	e9 00 00 00 00	 jmp	 parser_do_parse
parser_expr ENDP
_TEXT	ENDS
PUBLIC	??_C@_07FMJLLMO@s?3suite?$AA@			; `string'
;	COMDAT ??_C@_07FMJLLMO@s?3suite?$AA@
CONST	SEGMENT
??_C@_07FMJLLMO@s?3suite?$AA@ DB 's:suite', 00H		; `string'
; Function compile flags: /Ogtpy
CONST	ENDS
;	COMDAT parser_suite
_TEXT	SEGMENT
self$ = 8
args$ = 16
kw$ = 24
parser_suite PROC					; COMDAT

; 606  : {

  00000	49 8b c0	 mov	 rax, r8

; 607  :     NOTE(ARGUNUSED(self))
; 608  :     return (parser_do_parse(args, kw, "s:suite", PyST_SUITE));

  00003	48 8b ca	 mov	 rcx, rdx
  00006	4c 8d 05 00 00
	00 00		 lea	 r8, OFFSET FLAT:??_C@_07FMJLLMO@s?3suite?$AA@
  0000d	48 8b d0	 mov	 rdx, rax
  00010	41 b9 02 00 00
	00		 mov	 r9d, 2

; 609  : }

  00016	e9 00 00 00 00	 jmp	 parser_do_parse
parser_suite ENDP
_TEXT	ENDS
PUBLIC	??_C@_02HPGKMGCF@Os?$AA@			; `string'
PUBLIC	??_C@_0BI@BAFIMPPI@Illegal?5node?5construct?4?$AA@ ; `string'
PUBLIC	??_C@_0CC@CHNLNIPM@unsupported?5number?5of?5child?5node@ ; `string'
PUBLIC	??_C@_0DI@NEKLAEMC@second?5item?5in?5terminal?5node?5mus@ ; `string'
PUBLIC	??_C@_0DJ@NONGLHAJ@third?5item?5in?5terminal?5node?5must@ ; `string'
PUBLIC	??_C@_0CI@JBBHOFOG@terminal?5nodes?5must?5have?52?5or?53?5@ ; `string'
EXTRN	PyErr_SetObject:PROC
EXTRN	Py_BuildValue:PROC
EXTRN	PyErr_NoMemory:PROC
EXTRN	PyExc_ValueError:QWORD
EXTRN	PyErr_Format:PROC
EXTRN	PyNode_AddChild:PROC
EXTRN	PyObject_Malloc:PROC
EXTRN	PyUnicode_AsUTF8AndSize:PROC
EXTRN	PyErr_Occurred:PROC
EXTRN	_PyLong_AsInt:PROC
EXTRN	PySequence_Check:PROC
EXTRN	PySequence_GetItem:PROC
EXTRN	PyObject_Size:PROC
EXTRN	memcpy:PROC
;	COMDAT pdata
; File c:\src\pyparallel\include\object.h
pdata	SEGMENT
$pdata$build_node_children DD imagerel build_node_children
	DD	imagerel build_node_children+1182
	DD	imagerel $unwind$build_node_children
pdata	ENDS
;	COMDAT xdata
xdata	SEGMENT
$unwind$build_node_children DD 051701H
	DD	07013a217H
	DD	050116012H
	DD	03010H
xdata	ENDS
;	COMDAT ??_C@_02HPGKMGCF@Os?$AA@
CONST	SEGMENT
??_C@_02HPGKMGCF@Os?$AA@ DB 'Os', 00H			; `string'
CONST	ENDS
;	COMDAT ??_C@_0BI@BAFIMPPI@Illegal?5node?5construct?4?$AA@
CONST	SEGMENT
??_C@_0BI@BAFIMPPI@Illegal?5node?5construct?4?$AA@ DB 'Illegal node const'
	DB	'ruct.', 00H					; `string'
CONST	ENDS
;	COMDAT ??_C@_0CC@CHNLNIPM@unsupported?5number?5of?5child?5node@
CONST	SEGMENT
??_C@_0CC@CHNLNIPM@unsupported?5number?5of?5child?5node@ DB 'unsupported '
	DB	'number of child nodes', 00H			; `string'
CONST	ENDS
;	COMDAT ??_C@_0DI@NEKLAEMC@second?5item?5in?5terminal?5node?5mus@
CONST	SEGMENT
??_C@_0DI@NEKLAEMC@second?5item?5in?5terminal?5node?5mus@ DB 'second item'
	DB	' in terminal node must be a string, found %s', 00H ; `string'
CONST	ENDS
;	COMDAT ??_C@_0DJ@NONGLHAJ@third?5item?5in?5terminal?5node?5must@
CONST	SEGMENT
??_C@_0DJ@NONGLHAJ@third?5item?5in?5terminal?5node?5must@ DB 'third item '
	DB	'in terminal node must be an integer, found %s', 00H ; `string'
CONST	ENDS
;	COMDAT ??_C@_0CI@JBBHOFOG@terminal?5nodes?5must?5have?52?5or?53?5@
CONST	SEGMENT
??_C@_0CI@JBBHOFOG@terminal?5nodes?5must?5have?52?5or?53?5@ DB 'terminal '
	DB	'nodes must have 2 or 3 entries', 00H	; `string'
; Function compile flags: /Ogtpy
; File c:\src\pyparallel\modules\parsermodule.c
CONST	ENDS
;	COMDAT build_node_children
_TEXT	SEGMENT
len$22240 = 48
tv517 = 56
i$1$ = 64
len$1$ = 72
tuple$ = 128
root$ = 136
line_num$ = 144
type$1$ = 152
build_node_children PROC				; COMDAT

; 719  : {

  00000	4c 89 44 24 18	 mov	 QWORD PTR [rsp+24], r8
  00005	48 89 54 24 10	 mov	 QWORD PTR [rsp+16], rdx
  0000a	48 89 4c 24 08	 mov	 QWORD PTR [rsp+8], rcx
  0000f	53		 push	 rbx
  00010	55		 push	 rbp
  00011	56		 push	 rsi
  00012	57		 push	 rdi
  00013	48 83 ec 58	 sub	 rsp, 88			; 00000058H
  00017	48 8b d9	 mov	 rbx, rcx

; 720  :     Py_ssize_t len = PyObject_Size(tuple);

  0001a	e8 00 00 00 00	 call	 PyObject_Size

; 721  :     Py_ssize_t i;
; 722  :     int  err;
; 723  : 
; 724  :     for (i = 1; i < len; ++i) {

  0001f	48 83 f8 01	 cmp	 rax, 1
  00023	48 89 44 24 48	 mov	 QWORD PTR len$1$[rsp], rax
  00028	b8 01 00 00 00	 mov	 eax, 1
  0002d	48 89 44 24 40	 mov	 QWORD PTR i$1$[rsp], rax
  00032	0f 8e 55 04 00
	00		 jle	 $LN63@build_node

; 720  :     Py_ssize_t len = PyObject_Size(tuple);

  00038	48 c7 44 24 38
	28 00 00 00	 mov	 QWORD PTR tv517[rsp], 40 ; 00000028H
$LL65@build_node:

; 725  :         /* elem must always be a sequence, however simple */
; 726  :         PyObject* elem = PySequence_GetItem(tuple, i);

  00041	48 8b d0	 mov	 rdx, rax
  00044	48 8b cb	 mov	 rcx, rbx
  00047	e8 00 00 00 00	 call	 PySequence_GetItem

; 727  :         int ok = elem != NULL;

  0004c	33 c9		 xor	 ecx, ecx

; 728  :         int type = 0;

  0004e	c7 84 24 98 00
	00 00 00 00 00
	00		 mov	 DWORD PTR type$1$[rsp], 0
  00059	48 85 c0	 test	 rax, rax
  0005c	48 8b f8	 mov	 rdi, rax
  0005f	0f 95 c1	 setne	 cl

; 729  :         char *strn = 0;

  00062	33 ed		 xor	 ebp, ebp

; 730  : 
; 731  :         if (ok)

  00064	85 c9		 test	 ecx, ecx
  00066	0f 84 08 03 00
	00		 je	 $LN114@build_node

; 732  :             ok = PySequence_Check(elem);

  0006c	48 8b c8	 mov	 rcx, rax
  0006f	e8 00 00 00 00	 call	 PySequence_Check

; 733  :         if (ok) {

  00074	85 c0		 test	 eax, eax
  00076	0f 84 f8 02 00
	00		 je	 $LN114@build_node

; 734  :             PyObject *temp = PySequence_GetItem(elem, 0);

  0007c	33 d2		 xor	 edx, edx
  0007e	48 8b cf	 mov	 rcx, rdi
  00081	e8 00 00 00 00	 call	 PySequence_GetItem
  00086	48 8b d8	 mov	 rbx, rax

; 735  :             if (temp == NULL)

  00089	48 85 c0	 test	 rax, rax
  0008c	0f 84 e2 02 00
	00		 je	 $LN114@build_node

; 736  :                 ok = 0;
; 737  :             else {
; 738  :                 ok = PyLong_Check(temp);

  00092	48 8b 48 58	 mov	 rcx, QWORD PTR [rax+88]
  00096	0f b6 b1 03 01
	00 00		 movzx	 esi, BYTE PTR [rcx+259]
  0009d	83 e6 01	 and	 esi, 1

; 739  :                 if (ok) {

  000a0	74 22		 je	 SHORT $LN57@build_node

; 740  :                     type = _PyLong_AsInt(temp);

  000a2	48 8b c8	 mov	 rcx, rax
  000a5	e8 00 00 00 00	 call	 _PyLong_AsInt
  000aa	89 84 24 98 00
	00 00		 mov	 DWORD PTR type$1$[rsp], eax

; 741  :                     if (type == -1 && PyErr_Occurred()) {

  000b1	83 f8 ff	 cmp	 eax, -1
  000b4	75 0e		 jne	 SHORT $LN57@build_node
  000b6	e8 00 00 00 00	 call	 PyErr_Occurred
  000bb	48 85 c0	 test	 rax, rax
  000be	0f 85 40 02 00
	00		 jne	 $LN113@build_node
$LN57@build_node:

; 742  :                         Py_DECREF(temp);
; 743  :                         Py_DECREF(elem);
; 744  :                         return 0;
; 745  :                     }
; 746  :                 }
; 747  :                 Py_DECREF(temp);

  000c4	48 8b cb	 mov	 rcx, rbx
  000c7	e8 00 00 00 00	 call	 _Py_DecRef

; 748  :             }
; 749  :         }
; 750  :         if (!ok) {

  000cc	85 f6		 test	 esi, esi
  000ce	0f 84 a0 02 00
	00		 je	 $LN114@build_node

; 757  :         }
; 758  :         if (ISTERMINAL(type)) {

  000d4	8b 9c 24 98 00
	00 00		 mov	 ebx, DWORD PTR type$1$[rsp]
  000db	81 fb 00 01 00
	00		 cmp	 ebx, 256		; 00000100H
  000e1	0f 8d fa 00 00
	00		 jge	 $LN31@build_node

; 759  :             Py_ssize_t len = PyObject_Size(elem);

  000e7	48 8b cf	 mov	 rcx, rdi
  000ea	e8 00 00 00 00	 call	 PyObject_Size
  000ef	48 89 44 24 30	 mov	 QWORD PTR len$22240[rsp], rax

; 760  :             PyObject *temp;
; 761  :             const char *temp_str;
; 762  : 
; 763  :             if ((len != 2) && (len != 3)) {

  000f4	48 83 f8 02	 cmp	 rax, 2
  000f8	74 0a		 je	 SHORT $LN46@build_node
  000fa	48 83 f8 03	 cmp	 rax, 3
  000fe	0f 85 8d 01 00
	00		 jne	 $LN115@build_node
$LN46@build_node:

; 766  :             }
; 767  :             temp = PySequence_GetItem(elem, 1);

  00104	ba 01 00 00 00	 mov	 edx, 1
  00109	48 8b cf	 mov	 rcx, rdi
  0010c	e8 00 00 00 00	 call	 PySequence_GetItem
  00111	48 8b d8	 mov	 rbx, rax

; 768  :             if (temp == NULL)

  00114	48 85 c0	 test	 rax, rax
  00117	0f 84 f7 01 00
	00		 je	 $LN116@build_node

; 769  :                 return 0;
; 770  :             if (!PyUnicode_Check(temp)) {

  0011d	48 8b 48 58	 mov	 rcx, QWORD PTR [rax+88]
  00121	f7 81 00 01 00
	00 00 00 00 10	 test	 DWORD PTR [rcx+256], 268435456 ; 10000000H
  0012b	0f 84 bc 01 00
	00		 je	 $LN117@build_node

; 778  :             }
; 779  :             if (len == 3) {

  00131	48 83 7c 24 30
	03		 cmp	 QWORD PTR len$22240[rsp], 3
  00137	75 58		 jne	 SHORT $LN42@build_node

; 780  :                 PyObject *o = PySequence_GetItem(elem, 2);

  00139	ba 02 00 00 00	 mov	 edx, 2
  0013e	48 8b cf	 mov	 rcx, rdi
  00141	e8 00 00 00 00	 call	 PySequence_GetItem
  00146	48 8b f0	 mov	 rsi, rax

; 781  :                 if (o != NULL) {

  00149	48 85 c0	 test	 rax, rax
  0014c	74 43		 je	 SHORT $LN42@build_node

; 782  :                     if (PyLong_Check(o)) {

  0014e	48 8b 48 58	 mov	 rcx, QWORD PTR [rax+88]
  00152	f7 81 00 01 00
	00 00 00 00 01	 test	 DWORD PTR [rcx+256], 16777216 ; 01000000H
  0015c	0f 84 46 01 00
	00		 je	 $LN41@build_node

; 783  :                         int num = _PyLong_AsInt(o);

  00162	48 8b c8	 mov	 rcx, rax
  00165	e8 00 00 00 00	 call	 _PyLong_AsInt
  0016a	8b e8		 mov	 ebp, eax

; 784  :                         if (num == -1 && PyErr_Occurred()) {

  0016c	83 f8 ff	 cmp	 eax, -1
  0016f	75 0e		 jne	 SHORT $LN40@build_node
  00171	e8 00 00 00 00	 call	 PyErr_Occurred
  00176	48 85 c0	 test	 rax, rax
  00179	0f 85 44 01 00
	00		 jne	 $LN118@build_node
$LN40@build_node:

; 785  :                             Py_DECREF(o);
; 786  :                             Py_DECREF(temp);
; 787  :                             Py_DECREF(elem);
; 788  :                             return 0;
; 789  :                         }
; 790  :                         *line_num = num;

  0017f	48 8b 84 24 90
	00 00 00	 mov	 rax, QWORD PTR line_num$[rsp]

; 801  :                     }
; 802  :                     Py_DECREF(o);

  00187	48 8b ce	 mov	 rcx, rsi
  0018a	89 28		 mov	 DWORD PTR [rax], ebp
  0018c	e8 00 00 00 00	 call	 _Py_DecRef
$LN42@build_node:

; 803  :                 }
; 804  :             }
; 805  :             temp_str = _PyUnicode_AsStringAndSize(temp, &len);

  00191	48 8d 54 24 30	 lea	 rdx, QWORD PTR len$22240[rsp]
  00196	48 8b cb	 mov	 rcx, rbx
  00199	e8 00 00 00 00	 call	 PyUnicode_AsUTF8AndSize
  0019e	48 8b f0	 mov	 rsi, rax

; 806  :             if (temp_str == NULL) {

  001a1	48 85 c0	 test	 rax, rax
  001a4	0f 84 23 01 00
	00		 je	 $LN119@build_node

; 809  :                 return 0;
; 810  :             }
; 811  :             strn = (char *)PyObject_MALLOC(len + 1);

  001aa	48 8b 4c 24 30	 mov	 rcx, QWORD PTR len$22240[rsp]
  001af	48 ff c1	 inc	 rcx
  001b2	e8 00 00 00 00	 call	 PyObject_Malloc
  001b7	48 8b e8	 mov	 rbp, rax

; 812  :             if (strn != NULL)

  001ba	48 85 c0	 test	 rax, rax
  001bd	74 13		 je	 SHORT $LN33@build_node

; 813  :                 (void) memcpy(strn, temp_str, len + 1);

  001bf	4c 8b 44 24 30	 mov	 r8, QWORD PTR len$22240[rsp]
  001c4	48 8b d6	 mov	 rdx, rsi
  001c7	48 8b c8	 mov	 rcx, rax
  001ca	49 ff c0	 inc	 r8
  001cd	e8 00 00 00 00	 call	 memcpy
$LN33@build_node:

; 814  :             Py_DECREF(temp);

  001d2	48 8b cb	 mov	 rcx, rbx
  001d5	e8 00 00 00 00	 call	 _Py_DecRef
  001da	8b 9c 24 98 00
	00 00		 mov	 ebx, DWORD PTR type$1$[rsp]
$LN31@build_node:

; 815  :         }
; 816  :         else if (!ISNONTERMINAL(type)) {
; 817  :             /*
; 818  :              *  It has to be one or the other; this is an error.
; 819  :              *  Raise an exception.
; 820  :              */
; 821  :             PyObject *err = Py_BuildValue("os", elem, "unknown node type.");
; 822  :             PyErr_SetObject(parser_error, err);
; 823  :             Py_XDECREF(err);
; 824  :             Py_XDECREF(elem);
; 825  :             return (0);
; 826  :         }
; 827  :         err = PyNode_AddChild(root, type, strn, *line_num, 0);

  001e1	48 8b b4 24 90
	00 00 00	 mov	 rsi, QWORD PTR line_num$[rsp]
  001e9	48 8b 8c 24 88
	00 00 00	 mov	 rcx, QWORD PTR root$[rsp]
  001f1	4c 8b c5	 mov	 r8, rbp
  001f4	44 8b 0e	 mov	 r9d, DWORD PTR [rsi]
  001f7	8b d3		 mov	 edx, ebx
  001f9	c7 44 24 20 00
	00 00 00	 mov	 DWORD PTR [rsp+32], 0
  00201	e8 00 00 00 00	 call	 PyNode_AddChild

; 828  :         if (err == E_NOMEM) {

  00206	83 f8 0f	 cmp	 eax, 15
  00209	0f 84 43 01 00
	00		 je	 $LN121@build_node

; 831  :             return (node *) PyErr_NoMemory();
; 832  :         }
; 833  :         if (err == E_OVERFLOW) {

  0020f	83 f8 13	 cmp	 eax, 19
  00212	0f 84 07 01 00
	00		 je	 $LN122@build_node

; 838  :             return NULL;
; 839  :         }
; 840  : 
; 841  :         if (ISNONTERMINAL(type)) {
; 842  :             node* new_child = CHILD(root, i - 1);

  00218	48 8b 6c 24 38	 mov	 rbp, QWORD PTR tv517[rsp]
  0021d	81 fb 00 01 00
	00		 cmp	 ebx, 256		; 00000100H
  00223	7c 2a		 jl	 SHORT $LN12@build_node
  00225	48 8b 84 24 88
	00 00 00	 mov	 rax, QWORD PTR root$[rsp]

; 843  : 
; 844  :             if (new_child != build_node_children(elem, new_child, line_num)) {

  0022d	4c 8b c6	 mov	 r8, rsi
  00230	48 8b cf	 mov	 rcx, rdi
  00233	48 8b 40 20	 mov	 rax, QWORD PTR [rax+32]
  00237	48 8d 5c 28 d8	 lea	 rbx, QWORD PTR [rax+rbp-40]
  0023c	48 8b d3	 mov	 rdx, rbx
  0023f	e8 00 00 00 00	 call	 build_node_children
  00244	48 3b d8	 cmp	 rbx, rax
  00247	0f 85 88 00 00
	00		 jne	 $LN123@build_node

; 845  :                 Py_XDECREF(elem);
; 846  :                 return (0);
; 847  :             }

  0024d	eb 07		 jmp	 SHORT $LN4@build_node
$LN12@build_node:

; 848  :         }
; 849  :         else if (type == NEWLINE) {     /* It's true:  we increment the     */

  0024f	83 fb 04	 cmp	 ebx, 4
  00252	75 02		 jne	 SHORT $LN4@build_node

; 850  :             ++(*line_num);              /* line number *after* the newline! */

  00254	ff 06		 inc	 DWORD PTR [rsi]
$LN4@build_node:

; 851  :         }
; 852  :         Py_XDECREF(elem);

  00256	48 85 ff	 test	 rdi, rdi
  00259	74 08		 je	 SHORT $LN3@build_node
  0025b	48 8b cf	 mov	 rcx, rdi
  0025e	e8 00 00 00 00	 call	 _Py_DecRef
$LN3@build_node:

; 721  :     Py_ssize_t i;
; 722  :     int  err;
; 723  : 
; 724  :     for (i = 1; i < len; ++i) {

  00263	48 8b 44 24 40	 mov	 rax, QWORD PTR i$1$[rsp]
  00268	48 83 c5 28	 add	 rbp, 40			; 00000028H
  0026c	48 ff c0	 inc	 rax
  0026f	48 89 6c 24 38	 mov	 QWORD PTR tv517[rsp], rbp
  00274	48 89 44 24 40	 mov	 QWORD PTR i$1$[rsp], rax
  00279	48 3b 44 24 48	 cmp	 rax, QWORD PTR len$1$[rsp]
  0027e	0f 8d 09 02 00
	00		 jge	 $LN63@build_node
  00284	48 8b 9c 24 80
	00 00 00	 mov	 rbx, QWORD PTR tuple$[rsp]
  0028c	e9 b0 fd ff ff	 jmp	 $LL65@build_node
$LN115@build_node:

; 764  :                 err_string("terminal nodes must have 2 or 3 entries");

  00291	48 8d 0d 00 00
	00 00		 lea	 rcx, OFFSET FLAT:??_C@_0CI@JBBHOFOG@terminal?5nodes?5must?5have?52?5or?53?5@
  00298	e8 00 00 00 00	 call	 err_string

; 765  :                 return 0;

  0029d	33 c0		 xor	 eax, eax

; 855  : }

  0029f	48 83 c4 58	 add	 rsp, 88			; 00000058H
  002a3	5f		 pop	 rdi
  002a4	5e		 pop	 rsi
  002a5	5d		 pop	 rbp
  002a6	5b		 pop	 rbx
  002a7	c3		 ret	 0
$LN41@build_node:

; 791  :                     }
; 792  :                     else {
; 793  :                         PyErr_Format(parser_error,
; 794  :                                      "third item in terminal node must be an"
; 795  :                                      " integer, found %s",
; 796  :                                      Py_TYPE(temp)->tp_name);

  002a8	4c 8b 43 58	 mov	 r8, QWORD PTR [rbx+88]
  002ac	48 8b 0d 00 00
	00 00		 mov	 rcx, QWORD PTR parser_error
  002b3	48 8d 15 00 00
	00 00		 lea	 rdx, OFFSET FLAT:??_C@_0DJ@NONGLHAJ@third?5item?5in?5terminal?5node?5must@
  002ba	4d 8b 40 70	 mov	 r8, QWORD PTR [r8+112]
  002be	e8 00 00 00 00	 call	 PyErr_Format
$LN118@build_node:

; 797  :                         Py_DECREF(o);

  002c3	48 8b ce	 mov	 rcx, rsi
  002c6	e8 00 00 00 00	 call	 _Py_DecRef

; 798  :                         Py_DECREF(temp);
; 799  :                         Py_DECREF(elem);
; 800  :                         return 0;

  002cb	eb 37		 jmp	 SHORT $LN113@build_node
$LN119@build_node:

; 807  :                 Py_DECREF(temp);

  002cd	48 8b cb	 mov	 rcx, rbx
  002d0	e8 00 00 00 00	 call	 _Py_DecRef
$LN123@build_node:

; 808  :                 Py_XDECREF(elem);

  002d5	48 85 ff	 test	 rdi, rdi
  002d8	74 3a		 je	 SHORT $LN116@build_node

; 776  :                 Py_DECREF(elem);

  002da	48 8b cf	 mov	 rcx, rdi
  002dd	e8 00 00 00 00	 call	 _Py_DecRef

; 777  :                 return 0;

  002e2	33 c0		 xor	 eax, eax

; 855  : }

  002e4	48 83 c4 58	 add	 rsp, 88			; 00000058H
  002e8	5f		 pop	 rdi
  002e9	5e		 pop	 rsi
  002ea	5d		 pop	 rbp
  002eb	5b		 pop	 rbx
  002ec	c3		 ret	 0
$LN117@build_node:

; 771  :                 PyErr_Format(parser_error,
; 772  :                              "second item in terminal node must be a string,"
; 773  :                              " found %s",
; 774  :                              Py_TYPE(temp)->tp_name);

  002ed	4c 8b 41 70	 mov	 r8, QWORD PTR [rcx+112]
  002f1	48 8b 0d 00 00
	00 00		 mov	 rcx, QWORD PTR parser_error
  002f8	48 8d 15 00 00
	00 00		 lea	 rdx, OFFSET FLAT:??_C@_0DI@NEKLAEMC@second?5item?5in?5terminal?5node?5mus@
  002ff	e8 00 00 00 00	 call	 PyErr_Format
$LN113@build_node:

; 775  :                 Py_DECREF(temp);

  00304	48 8b cb	 mov	 rcx, rbx
  00307	e8 00 00 00 00	 call	 _Py_DecRef

; 776  :                 Py_DECREF(elem);

  0030c	48 8b cf	 mov	 rcx, rdi
  0030f	e8 00 00 00 00	 call	 _Py_DecRef
$LN116@build_node:

; 777  :                 return 0;

  00314	33 c0		 xor	 eax, eax

; 855  : }

  00316	48 83 c4 58	 add	 rsp, 88			; 00000058H
  0031a	5f		 pop	 rdi
  0031b	5e		 pop	 rsi
  0031c	5d		 pop	 rbp
  0031d	5b		 pop	 rbx
  0031e	c3		 ret	 0
$LN122@build_node:

; 834  :             Py_XDECREF(elem);

  0031f	48 85 ff	 test	 rdi, rdi
  00322	74 08		 je	 SHORT $LN15@build_node
  00324	48 8b cf	 mov	 rcx, rdi
  00327	e8 00 00 00 00	 call	 _Py_DecRef
$LN15@build_node:

; 835  :             PyObject_FREE(strn);

  0032c	48 8b cd	 mov	 rcx, rbp
  0032f	e8 00 00 00 00	 call	 PyObject_Free

; 836  :             PyErr_SetString(PyExc_ValueError,
; 837  :                             "unsupported number of child nodes");

  00334	48 8b 0d 00 00
	00 00		 mov	 rcx, QWORD PTR PyExc_ValueError
  0033b	48 8d 15 00 00
	00 00		 lea	 rdx, OFFSET FLAT:??_C@_0CC@CHNLNIPM@unsupported?5number?5of?5child?5node@
  00342	e8 00 00 00 00	 call	 PyErr_SetString
  00347	33 c0		 xor	 eax, eax

; 855  : }

  00349	48 83 c4 58	 add	 rsp, 88			; 00000058H
  0034d	5f		 pop	 rdi
  0034e	5e		 pop	 rsi
  0034f	5d		 pop	 rbp
  00350	5b		 pop	 rbx
  00351	c3		 ret	 0
$LN121@build_node:

; 829  :             Py_XDECREF(elem);

  00352	48 85 ff	 test	 rdi, rdi
  00355	74 08		 je	 SHORT $LN20@build_node
  00357	48 8b cf	 mov	 rcx, rdi
  0035a	e8 00 00 00 00	 call	 _Py_DecRef
$LN20@build_node:

; 830  :             PyObject_FREE(strn);

  0035f	48 8b cd	 mov	 rcx, rbp
  00362	e8 00 00 00 00	 call	 PyObject_Free

; 855  : }

  00367	48 83 c4 58	 add	 rsp, 88			; 00000058H
  0036b	5f		 pop	 rdi
  0036c	5e		 pop	 rsi
  0036d	5d		 pop	 rbp
  0036e	5b		 pop	 rbx
  0036f	e9 00 00 00 00	 jmp	 PyErr_NoMemory
$LN114@build_node:

; 751  :             PyObject *err = Py_BuildValue("Os", elem,
; 752  :                                           "Illegal node construct.");

  00374	4c 8d 05 00 00
	00 00		 lea	 r8, OFFSET FLAT:??_C@_0BI@BAFIMPPI@Illegal?5node?5construct?4?$AA@
  0037b	48 8d 0d 00 00
	00 00		 lea	 rcx, OFFSET FLAT:??_C@_02HPGKMGCF@Os?$AA@
  00382	48 8b d7	 mov	 rdx, rdi
  00385	e8 00 00 00 00	 call	 Py_BuildValue

; 753  :             PyErr_SetObject(parser_error, err);

  0038a	48 8b 0d 00 00
	00 00		 mov	 rcx, QWORD PTR parser_error
  00391	48 8b d0	 mov	 rdx, rax
  00394	48 8b d8	 mov	 rbx, rax
  00397	e8 00 00 00 00	 call	 PyErr_SetObject

; 754  :             Py_XDECREF(err);

  0039c	48 85 db	 test	 rbx, rbx
  0039f	74 65		 je	 SHORT $LN54@build_node
  003a1	e8 00 00 00 00	 call	 _Py_PXCTX
  003a6	85 c0		 test	 eax, eax
  003a8	75 5c		 jne	 SHORT $LN54@build_node
  003aa	48 8b 43 20	 mov	 rax, QWORD PTR [rbx+32]
  003ae	a8 20		 test	 al, 32			; 00000020H
  003b0	75 4c		 jne	 SHORT $LN72@build_node
  003b2	84 c0		 test	 al, al
  003b4	78 48		 js	 SHORT $LN72@build_node
  003b6	a8 02		 test	 al, 2
  003b8	75 4c		 jne	 SHORT $LN54@build_node
  003ba	48 ff 4b 50	 dec	 QWORD PTR [rbx+80]
  003be	75 46		 jne	 SHORT $LN54@build_node
  003c0	48 8d 15 00 00
	00 00		 lea	 rdx, OFFSET FLAT:??_C@_0CD@HDJFDCDP@c?3?2src?2pyparallel?2include?2object@
  003c7	48 8d 0d 00 00
	00 00		 lea	 rcx, OFFSET FLAT:??_C@_0L@DMHMLFIA@_Py_DecRef?$AA@
  003ce	4c 8b cb	 mov	 r9, rbx
  003d1	41 b8 a4 03 00
	00		 mov	 r8d, 932		; 000003a4H
  003d7	c7 44 24 20 10
	00 00 00	 mov	 DWORD PTR [rsp+32], 16
  003df	e8 00 00 00 00	 call	 _PyParallel_Guard
  003e4	48 8b cb	 mov	 rcx, rbx
  003e7	85 c0		 test	 eax, eax
  003e9	74 07		 je	 SHORT $LN77@build_node
  003eb	e8 00 00 00 00	 call	 _Px_Dealloc
  003f0	eb 14		 jmp	 SHORT $LN54@build_node
$LN77@build_node:
  003f2	48 8b 43 58	 mov	 rax, QWORD PTR [rbx+88]
  003f6	ff 90 88 00 00
	00		 call	 QWORD PTR [rax+136]
  003fc	eb 08		 jmp	 SHORT $LN54@build_node
$LN72@build_node:
  003fe	48 8b cb	 mov	 rcx, rbx
  00401	e8 00 00 00 00	 call	 Px_DecRef
$LN54@build_node:

; 755  :             Py_XDECREF(elem);

  00406	48 85 ff	 test	 rdi, rdi
  00409	74 77		 je	 SHORT $LN50@build_node
  0040b	e8 00 00 00 00	 call	 _Py_PXCTX
  00410	85 c0		 test	 eax, eax
  00412	75 6e		 jne	 SHORT $LN50@build_node
  00414	48 8b 47 20	 mov	 rax, QWORD PTR [rdi+32]
  00418	a8 20		 test	 al, 32			; 00000020H
  0041a	75 5e		 jne	 SHORT $LN83@build_node
  0041c	84 c0		 test	 al, al
  0041e	78 5a		 js	 SHORT $LN83@build_node
  00420	a8 02		 test	 al, 2
  00422	75 5e		 jne	 SHORT $LN50@build_node
  00424	48 ff 4f 50	 dec	 QWORD PTR [rdi+80]
  00428	75 58		 jne	 SHORT $LN50@build_node
  0042a	48 8d 15 00 00
	00 00		 lea	 rdx, OFFSET FLAT:??_C@_0CD@HDJFDCDP@c?3?2src?2pyparallel?2include?2object@
  00431	48 8d 0d 00 00
	00 00		 lea	 rcx, OFFSET FLAT:??_C@_0L@DMHMLFIA@_Py_DecRef?$AA@
  00438	4c 8b cf	 mov	 r9, rdi
  0043b	41 b8 a4 03 00
	00		 mov	 r8d, 932		; 000003a4H
  00441	c7 44 24 20 10
	00 00 00	 mov	 DWORD PTR [rsp+32], 16
  00449	e8 00 00 00 00	 call	 _PyParallel_Guard
  0044e	48 8b cf	 mov	 rcx, rdi
  00451	85 c0		 test	 eax, eax
  00453	74 10		 je	 SHORT $LN88@build_node
  00455	e8 00 00 00 00	 call	 _Px_Dealloc

; 756  :             return (0);

  0045a	33 c0		 xor	 eax, eax

; 855  : }

  0045c	48 83 c4 58	 add	 rsp, 88			; 00000058H
  00460	5f		 pop	 rdi
  00461	5e		 pop	 rsi
  00462	5d		 pop	 rbp
  00463	5b		 pop	 rbx
  00464	c3		 ret	 0

; 755  :             Py_XDECREF(elem);

$LN88@build_node:
  00465	48 8b 47 58	 mov	 rax, QWORD PTR [rdi+88]
  00469	ff 90 88 00 00
	00		 call	 QWORD PTR [rax+136]

; 756  :             return (0);

  0046f	33 c0		 xor	 eax, eax

; 855  : }

  00471	48 83 c4 58	 add	 rsp, 88			; 00000058H
  00475	5f		 pop	 rdi
  00476	5e		 pop	 rsi
  00477	5d		 pop	 rbp
  00478	5b		 pop	 rbx
  00479	c3		 ret	 0

; 755  :             Py_XDECREF(elem);

$LN83@build_node:
  0047a	48 8b cf	 mov	 rcx, rdi
  0047d	e8 00 00 00 00	 call	 Px_DecRef
$LN50@build_node:

; 756  :             return (0);

  00482	33 c0		 xor	 eax, eax

; 855  : }

  00484	48 83 c4 58	 add	 rsp, 88			; 00000058H
  00488	5f		 pop	 rdi
  00489	5e		 pop	 rsi
  0048a	5d		 pop	 rbp
  0048b	5b		 pop	 rbx
  0048c	c3		 ret	 0
$LN63@build_node:

; 853  :     }
; 854  :     return root;

  0048d	48 8b 84 24 88
	00 00 00	 mov	 rax, QWORD PTR root$[rsp]

; 855  : }

  00495	48 83 c4 58	 add	 rsp, 88			; 00000058H
  00499	5f		 pop	 rdi
  0049a	5e		 pop	 rsi
  0049b	5d		 pop	 rbp
  0049c	5b		 pop	 rbx
  0049d	c3		 ret	 0
build_node_children ENDP
_TEXT	ENDS
PUBLIC	??_C@_02EHCHIAMF@os?$AA@			; `string'
PUBLIC	??_C@_0DI@CJPEHLPC@Illegal?5syntax?9tree?$DL?5cannot?5star@ ; `string'
EXTRN	PyNode_New:PROC
EXTRN	PySequence_GetSlice:PROC
EXTRN	PyLong_AsLong:PROC
;	COMDAT pdata
; File c:\src\pyparallel\include\object.h
pdata	SEGMENT
$pdata$build_node_tree DD imagerel build_node_tree
	DD	imagerel build_node_tree+612
	DD	imagerel $unwind$build_node_tree
pdata	ENDS
;	COMDAT xdata
xdata	SEGMENT
$unwind$build_node_tree DD 060c01H
	DD	0a340cH
	DD	07008520cH
	DD	050066007H
xdata	ENDS
;	COMDAT ??_C@_02EHCHIAMF@os?$AA@
CONST	SEGMENT
??_C@_02EHCHIAMF@os?$AA@ DB 'os', 00H			; `string'
CONST	ENDS
;	COMDAT ??_C@_0DI@CJPEHLPC@Illegal?5syntax?9tree?$DL?5cannot?5star@
CONST	SEGMENT
??_C@_0DI@CJPEHLPC@Illegal?5syntax?9tree?$DL?5cannot?5star@ DB 'Illegal s'
	DB	'yntax-tree; cannot start with terminal symbol.', 00H ; `string'
; Function compile flags: /Ogtpy
; File c:\src\pyparallel\modules\parsermodule.c
CONST	ENDS
;	COMDAT build_node_tree
_TEXT	SEGMENT
tuple$ = 80
line_num$22351 = 88
len$22363 = 96
build_node_tree PROC					; COMDAT

; 860  : {

  00000	48 89 5c 24 08	 mov	 QWORD PTR [rsp+8], rbx
  00005	55		 push	 rbp
  00006	56		 push	 rsi
  00007	57		 push	 rdi
  00008	48 83 ec 30	 sub	 rsp, 48			; 00000030H

; 861  :     node* res = 0;
; 862  :     PyObject *temp = PySequence_GetItem(tuple, 0);

  0000c	33 d2		 xor	 edx, edx
  0000e	48 8b f1	 mov	 rsi, rcx
  00011	33 ff		 xor	 edi, edi
  00013	e8 00 00 00 00	 call	 PySequence_GetItem
  00018	48 8b d8	 mov	 rbx, rax

; 863  :     long num = -1;
; 864  : 
; 865  :     if (temp != NULL)

  0001b	48 85 c0	 test	 rax, rax
  0001e	0f 84 7e 01 00
	00		 je	 $LN50@build_node@2

; 866  :         num = PyLong_AsLong(temp);

  00024	48 8b c8	 mov	 rcx, rax
  00027	e8 00 00 00 00	 call	 PyLong_AsLong
  0002c	8b e8		 mov	 ebp, eax

; 867  :     Py_XDECREF(temp);

  0002e	e8 00 00 00 00	 call	 _Py_PXCTX
  00033	85 c0		 test	 eax, eax
  00035	75 5e		 jne	 SHORT $LN22@build_node@2
  00037	48 8b 4b 20	 mov	 rcx, QWORD PTR [rbx+32]
  0003b	f6 c1 20	 test	 cl, 32			; 00000020H
  0003e	75 4d		 jne	 SHORT $LN31@build_node@2
  00040	84 c9		 test	 cl, cl
  00042	78 49		 js	 SHORT $LN31@build_node@2
  00044	f6 c1 02	 test	 cl, 2
  00047	75 4c		 jne	 SHORT $LN22@build_node@2
  00049	48 ff 4b 50	 dec	 QWORD PTR [rbx+80]
  0004d	75 46		 jne	 SHORT $LN22@build_node@2
  0004f	48 8d 15 00 00
	00 00		 lea	 rdx, OFFSET FLAT:??_C@_0CD@HDJFDCDP@c?3?2src?2pyparallel?2include?2object@
  00056	48 8d 0d 00 00
	00 00		 lea	 rcx, OFFSET FLAT:??_C@_0L@DMHMLFIA@_Py_DecRef?$AA@
  0005d	4c 8b cb	 mov	 r9, rbx
  00060	41 b8 a4 03 00
	00		 mov	 r8d, 932		; 000003a4H
  00066	c7 44 24 20 10
	00 00 00	 mov	 DWORD PTR [rsp+32], 16
  0006e	e8 00 00 00 00	 call	 _PyParallel_Guard
  00073	48 8b cb	 mov	 rcx, rbx
  00076	85 c0		 test	 eax, eax
  00078	74 07		 je	 SHORT $LN36@build_node@2
  0007a	e8 00 00 00 00	 call	 _Px_Dealloc
  0007f	eb 14		 jmp	 SHORT $LN22@build_node@2
$LN36@build_node@2:
  00081	48 8b 43 58	 mov	 rax, QWORD PTR [rbx+88]
  00085	ff 90 88 00 00
	00		 call	 QWORD PTR [rax+136]
  0008b	eb 08		 jmp	 SHORT $LN22@build_node@2
$LN31@build_node@2:
  0008d	48 8b cb	 mov	 rcx, rbx
  00090	e8 00 00 00 00	 call	 Px_DecRef
$LN22@build_node@2:

; 868  :     if (ISTERMINAL(num)) {

  00095	81 fd 00 01 00
	00		 cmp	 ebp, 256		; 00000100H
  0009b	0f 8c 01 01 00
	00		 jl	 $LN50@build_node@2

; 877  :     }
; 878  :     else if (ISNONTERMINAL(num)) {
; 879  :         /*
; 880  :          *  Not efficient, but that can be handled later.
; 881  :          */
; 882  :         int line_num = 0;
; 883  :         PyObject *encoding = NULL;

  000a1	33 db		 xor	 ebx, ebx
  000a3	89 7c 24 58	 mov	 DWORD PTR line_num$22351[rsp], edi

; 884  : 
; 885  :         if (num == encoding_decl) {

  000a7	81 fd 4f 01 00
	00		 cmp	 ebp, 335		; 0000014fH
  000ad	75 24		 jne	 SHORT $LN11@build_node@2

; 886  :             encoding = PySequence_GetItem(tuple, 2);

  000af	8d 53 02	 lea	 edx, QWORD PTR [rbx+2]
  000b2	48 8b ce	 mov	 rcx, rsi
  000b5	e8 00 00 00 00	 call	 PySequence_GetItem

; 887  :             /* tuple isn't borrowed anymore here, need to DECREF */
; 888  :             tuple = PySequence_GetSlice(tuple, 0, 2);

  000ba	33 d2		 xor	 edx, edx
  000bc	48 8b ce	 mov	 rcx, rsi
  000bf	44 8d 42 02	 lea	 r8d, QWORD PTR [rdx+2]
  000c3	48 8b d8	 mov	 rbx, rax
  000c6	e8 00 00 00 00	 call	 PySequence_GetSlice
  000cb	48 8b f0	 mov	 rsi, rax

; 889  :             if (tuple == NULL)

  000ce	48 85 c0	 test	 rax, rax

; 890  :                 return NULL;

  000d1	74 77		 je	 SHORT $LN51@build_node@2
$LN11@build_node@2:

; 891  :         }
; 892  :         res = PyNode_New(num);

  000d3	8b cd		 mov	 ecx, ebp
  000d5	e8 00 00 00 00	 call	 PyNode_New
  000da	48 8b f8	 mov	 rdi, rax

; 893  :         if (res != NULL) {

  000dd	48 85 c0	 test	 rax, rax
  000e0	0f 84 6e 01 00
	00		 je	 $LN2@build_node@2

; 894  :             if (res != build_node_children(tuple, res, &line_num)) {

  000e6	4c 8d 44 24 58	 lea	 r8, QWORD PTR line_num$22351[rsp]
  000eb	48 8b d0	 mov	 rdx, rax
  000ee	48 8b ce	 mov	 rcx, rsi
  000f1	e8 00 00 00 00	 call	 build_node_children
  000f6	48 3b f8	 cmp	 rdi, rax
  000f9	74 19		 je	 SHORT $LN9@build_node@2

; 895  :                 PyNode_Free(res);

  000fb	48 8b cf	 mov	 rcx, rdi
  000fe	e8 00 00 00 00	 call	 PyNode_Free

; 896  :                 res = NULL;

  00103	33 ff		 xor	 edi, edi

; 913  :             }
; 914  :         }
; 915  :     }
; 916  :     else {
; 917  :         /*  The tuple is illegal -- if the number is neither TERMINAL nor
; 918  :          *  NONTERMINAL, we can't use it.  Not sure the implementation
; 919  :          *  allows this condition, but the API doesn't preclude it.
; 920  :          */
; 921  :         PyObject *err = Py_BuildValue("os", tuple,
; 922  :                                       "Illegal component tuple.");
; 923  :         PyErr_SetObject(parser_error, err);
; 924  :         Py_XDECREF(err);
; 925  :     }
; 926  : 
; 927  :     return (res);

  00105	8b c7		 mov	 eax, edi

; 928  : }

  00107	48 8b 5c 24 50	 mov	 rbx, QWORD PTR [rsp+80]
  0010c	48 83 c4 30	 add	 rsp, 48			; 00000030H
  00110	5f		 pop	 rdi
  00111	5e		 pop	 rsi
  00112	5d		 pop	 rbp
  00113	c3		 ret	 0
$LN9@build_node@2:

; 897  :             }
; 898  :             if (res && encoding) {

  00114	48 85 db	 test	 rbx, rbx
  00117	0f 84 37 01 00
	00		 je	 $LN2@build_node@2

; 899  :                 Py_ssize_t len;
; 900  :                 const char *temp;
; 901  :                 temp = _PyUnicode_AsStringAndSize(encoding, &len);

  0011d	48 8d 54 24 60	 lea	 rdx, QWORD PTR len$22363[rsp]
  00122	48 8b cb	 mov	 rcx, rbx
  00125	e8 00 00 00 00	 call	 PyUnicode_AsUTF8AndSize
  0012a	48 8b e8	 mov	 rbp, rax

; 902  :                 if (temp == NULL) {

  0012d	48 85 c0	 test	 rax, rax
  00130	75 27		 jne	 SHORT $LN7@build_node@2

; 903  :                     Py_DECREF(res);

  00132	48 8b cf	 mov	 rcx, rdi
  00135	e8 00 00 00 00	 call	 _Py_DecRef

; 904  :                     Py_DECREF(encoding);

  0013a	48 8b cb	 mov	 rcx, rbx
  0013d	e8 00 00 00 00	 call	 _Py_DecRef

; 905  :                     Py_DECREF(tuple);

  00142	48 8b ce	 mov	 rcx, rsi
  00145	e8 00 00 00 00	 call	 _Py_DecRef
$LN51@build_node@2:

; 906  :                     return NULL;

  0014a	33 c0		 xor	 eax, eax

; 928  : }

  0014c	48 8b 5c 24 50	 mov	 rbx, QWORD PTR [rsp+80]
  00151	48 83 c4 30	 add	 rsp, 48			; 00000030H
  00155	5f		 pop	 rdi
  00156	5e		 pop	 rsi
  00157	5d		 pop	 rbp
  00158	c3		 ret	 0
$LN7@build_node@2:

; 907  :                 }
; 908  :                 res->n_str = (char *)PyObject_MALLOC(len + 1);

  00159	48 8b 4c 24 60	 mov	 rcx, QWORD PTR len$22363[rsp]
  0015e	48 ff c1	 inc	 rcx
  00161	e8 00 00 00 00	 call	 PyObject_Malloc
  00166	48 89 47 08	 mov	 QWORD PTR [rdi+8], rax

; 909  :                 if (res->n_str != NULL && temp != NULL)

  0016a	48 85 c0	 test	 rax, rax
  0016d	74 13		 je	 SHORT $LN6@build_node@2

; 910  :                     (void) memcpy(res->n_str, temp, len + 1);

  0016f	4c 8b 44 24 60	 mov	 r8, QWORD PTR len$22363[rsp]
  00174	48 8b d5	 mov	 rdx, rbp
  00177	48 8b c8	 mov	 rcx, rax
  0017a	49 ff c0	 inc	 r8
  0017d	e8 00 00 00 00	 call	 memcpy
$LN6@build_node@2:

; 911  :                 Py_DECREF(encoding);

  00182	48 8b cb	 mov	 rcx, rbx
  00185	e8 00 00 00 00	 call	 _Py_DecRef

; 912  :                 Py_DECREF(tuple);

  0018a	48 8b ce	 mov	 rcx, rsi
  0018d	e8 00 00 00 00	 call	 _Py_DecRef

; 913  :             }
; 914  :         }
; 915  :     }
; 916  :     else {
; 917  :         /*  The tuple is illegal -- if the number is neither TERMINAL nor
; 918  :          *  NONTERMINAL, we can't use it.  Not sure the implementation
; 919  :          *  allows this condition, but the API doesn't preclude it.
; 920  :          */
; 921  :         PyObject *err = Py_BuildValue("os", tuple,
; 922  :                                       "Illegal component tuple.");
; 923  :         PyErr_SetObject(parser_error, err);
; 924  :         Py_XDECREF(err);
; 925  :     }
; 926  : 
; 927  :     return (res);

  00192	48 8b c7	 mov	 rax, rdi

; 928  : }

  00195	48 8b 5c 24 50	 mov	 rbx, QWORD PTR [rsp+80]
  0019a	48 83 c4 30	 add	 rsp, 48			; 00000030H
  0019e	5f		 pop	 rdi
  0019f	5e		 pop	 rsi
  001a0	5d		 pop	 rbp
  001a1	c3		 ret	 0
$LN50@build_node@2:

; 869  :         /*
; 870  :          *  The tuple is simple, but it doesn't start with a start symbol.
; 871  :          *  Raise an exception now and be done with it.
; 872  :          */
; 873  :         tuple = Py_BuildValue("os", tuple,
; 874  :                     "Illegal syntax-tree; cannot start with terminal symbol.");

  001a2	4c 8d 05 00 00
	00 00		 lea	 r8, OFFSET FLAT:??_C@_0DI@CJPEHLPC@Illegal?5syntax?9tree?$DL?5cannot?5star@
  001a9	48 8d 0d 00 00
	00 00		 lea	 rcx, OFFSET FLAT:??_C@_02EHCHIAMF@os?$AA@
  001b0	48 8b d6	 mov	 rdx, rsi
  001b3	e8 00 00 00 00	 call	 Py_BuildValue

; 875  :         PyErr_SetObject(parser_error, tuple);

  001b8	48 8b 0d 00 00
	00 00		 mov	 rcx, QWORD PTR parser_error
  001bf	48 8b d0	 mov	 rdx, rax
  001c2	48 8b d8	 mov	 rbx, rax
  001c5	e8 00 00 00 00	 call	 PyErr_SetObject

; 876  :         Py_XDECREF(tuple);

  001ca	48 85 db	 test	 rbx, rbx
  001cd	0f 84 81 00 00
	00		 je	 $LN2@build_node@2
  001d3	e8 00 00 00 00	 call	 _Py_PXCTX
  001d8	85 c0		 test	 eax, eax
  001da	75 78		 jne	 SHORT $LN2@build_node@2
  001dc	48 8b 43 20	 mov	 rax, QWORD PTR [rbx+32]
  001e0	a8 20		 test	 al, 32			; 00000020H
  001e2	75 68		 jne	 SHORT $LN42@build_node@2
  001e4	84 c0		 test	 al, al
  001e6	78 64		 js	 SHORT $LN42@build_node@2
  001e8	a8 02		 test	 al, 2
  001ea	75 68		 jne	 SHORT $LN2@build_node@2
  001ec	48 ff 4b 50	 dec	 QWORD PTR [rbx+80]
  001f0	75 62		 jne	 SHORT $LN2@build_node@2
  001f2	48 8d 15 00 00
	00 00		 lea	 rdx, OFFSET FLAT:??_C@_0CD@HDJFDCDP@c?3?2src?2pyparallel?2include?2object@
  001f9	48 8d 0d 00 00
	00 00		 lea	 rcx, OFFSET FLAT:??_C@_0L@DMHMLFIA@_Py_DecRef?$AA@
  00200	4c 8b cb	 mov	 r9, rbx
  00203	41 b8 a4 03 00
	00		 mov	 r8d, 932		; 000003a4H
  00209	c7 44 24 20 10
	00 00 00	 mov	 DWORD PTR [rsp+32], 16
  00211	e8 00 00 00 00	 call	 _PyParallel_Guard
  00216	48 8b cb	 mov	 rcx, rbx
  00219	85 c0		 test	 eax, eax
  0021b	74 15		 je	 SHORT $LN47@build_node@2
  0021d	e8 00 00 00 00	 call	 _Px_Dealloc

; 913  :             }
; 914  :         }
; 915  :     }
; 916  :     else {
; 917  :         /*  The tuple is illegal -- if the number is neither TERMINAL nor
; 918  :          *  NONTERMINAL, we can't use it.  Not sure the implementation
; 919  :          *  allows this condition, but the API doesn't preclude it.
; 920  :          */
; 921  :         PyObject *err = Py_BuildValue("os", tuple,
; 922  :                                       "Illegal component tuple.");
; 923  :         PyErr_SetObject(parser_error, err);
; 924  :         Py_XDECREF(err);
; 925  :     }
; 926  : 
; 927  :     return (res);

  00222	48 8b c7	 mov	 rax, rdi

; 928  : }

  00225	48 8b 5c 24 50	 mov	 rbx, QWORD PTR [rsp+80]
  0022a	48 83 c4 30	 add	 rsp, 48			; 00000030H
  0022e	5f		 pop	 rdi
  0022f	5e		 pop	 rsi
  00230	5d		 pop	 rbp
  00231	c3		 ret	 0

; 876  :         Py_XDECREF(tuple);

$LN47@build_node@2:
  00232	48 8b 43 58	 mov	 rax, QWORD PTR [rbx+88]
  00236	ff 90 88 00 00
	00		 call	 QWORD PTR [rax+136]

; 913  :             }
; 914  :         }
; 915  :     }
; 916  :     else {
; 917  :         /*  The tuple is illegal -- if the number is neither TERMINAL nor
; 918  :          *  NONTERMINAL, we can't use it.  Not sure the implementation
; 919  :          *  allows this condition, but the API doesn't preclude it.
; 920  :          */
; 921  :         PyObject *err = Py_BuildValue("os", tuple,
; 922  :                                       "Illegal component tuple.");
; 923  :         PyErr_SetObject(parser_error, err);
; 924  :         Py_XDECREF(err);
; 925  :     }
; 926  : 
; 927  :     return (res);

  0023c	48 8b c7	 mov	 rax, rdi

; 928  : }

  0023f	48 8b 5c 24 50	 mov	 rbx, QWORD PTR [rsp+80]
  00244	48 83 c4 30	 add	 rsp, 48			; 00000030H
  00248	5f		 pop	 rdi
  00249	5e		 pop	 rsi
  0024a	5d		 pop	 rbp
  0024b	c3		 ret	 0

; 876  :         Py_XDECREF(tuple);

$LN42@build_node@2:
  0024c	48 8b cb	 mov	 rcx, rbx
  0024f	e8 00 00 00 00	 call	 Px_DecRef
$LN2@build_node@2:

; 913  :             }
; 914  :         }
; 915  :     }
; 916  :     else {
; 917  :         /*  The tuple is illegal -- if the number is neither TERMINAL nor
; 918  :          *  NONTERMINAL, we can't use it.  Not sure the implementation
; 919  :          *  allows this condition, but the API doesn't preclude it.
; 920  :          */
; 921  :         PyObject *err = Py_BuildValue("os", tuple,
; 922  :                                       "Illegal component tuple.");
; 923  :         PyErr_SetObject(parser_error, err);
; 924  :         Py_XDECREF(err);
; 925  :     }
; 926  : 
; 927  :     return (res);

  00254	48 8b c7	 mov	 rax, rdi

; 928  : }

  00257	48 8b 5c 24 50	 mov	 rbx, QWORD PTR [rsp+80]
  0025c	48 83 c4 30	 add	 rsp, 48			; 00000030H
  00260	5f		 pop	 rdi
  00261	5e		 pop	 rsi
  00262	5d		 pop	 rbp
  00263	c3		 ret	 0
build_node_tree ENDP
_TEXT	ENDS
PUBLIC	??_C@_0BP@BCHGMPMP@Expected?5node?5type?5?$CFd?0?5got?5?$CFd?4?$AA@ ; `string'
;	COMDAT pdata
pdata	SEGMENT
$pdata$validate_ntype DD imagerel validate_ntype
	DD	imagerel validate_ntype+52
	DD	imagerel $unwind$validate_ntype
pdata	ENDS
;	COMDAT xdata
xdata	SEGMENT
$unwind$validate_ntype DD 010401H
	DD	04204H
xdata	ENDS
;	COMDAT ??_C@_0BP@BCHGMPMP@Expected?5node?5type?5?$CFd?0?5got?5?$CFd?4?$AA@
CONST	SEGMENT
??_C@_0BP@BCHGMPMP@Expected?5node?5type?5?$CFd?0?5got?5?$CFd?4?$AA@ DB 'E'
	DB	'xpected node type %d, got %d.', 00H		; `string'
; Function compile flags: /Ogtpy
CONST	ENDS
;	COMDAT validate_ntype
_TEXT	SEGMENT
n$ = 48
t$ = 56
validate_ntype PROC					; COMDAT

; 1000 : {

  00000	48 83 ec 28	 sub	 rsp, 40			; 00000028H

; 1001 :     if (TYPE(n) != t) {

  00004	44 0f bf 09	 movsx	 r9d, WORD PTR [rcx]
  00008	44 3b ca	 cmp	 r9d, edx
  0000b	74 1d		 je	 SHORT $LN1@validate_n

; 1002 :         PyErr_Format(parser_error, "Expected node type %d, got %d.",
; 1003 :                      t, TYPE(n));

  0000d	48 8b 0d 00 00
	00 00		 mov	 rcx, QWORD PTR parser_error
  00014	44 8b c2	 mov	 r8d, edx
  00017	48 8d 15 00 00
	00 00		 lea	 rdx, OFFSET FLAT:??_C@_0BP@BCHGMPMP@Expected?5node?5type?5?$CFd?0?5got?5?$CFd?4?$AA@
  0001e	e8 00 00 00 00	 call	 PyErr_Format

; 1004 :         return 0;

  00023	33 c0		 xor	 eax, eax

; 1007 : }

  00025	48 83 c4 28	 add	 rsp, 40			; 00000028H
  00029	c3		 ret	 0
$LN1@validate_n:

; 1005 :     }
; 1006 :     return 1;

  0002a	b8 01 00 00 00	 mov	 eax, 1

; 1007 : }

  0002f	48 83 c4 28	 add	 rsp, 40			; 00000028H
  00033	c3		 ret	 0
validate_ntype ENDP
_TEXT	ENDS
PUBLIC	??_C@_0CI@BOIMMDDD@Illegal?5number?5of?5children?5for?5?$CF@ ; `string'
;	COMDAT pdata
pdata	SEGMENT
$pdata$validate_numnodes DD imagerel validate_numnodes
	DD	imagerel validate_numnodes+45
	DD	imagerel $unwind$validate_numnodes
pdata	ENDS
;	COMDAT xdata
xdata	SEGMENT
$unwind$validate_numnodes DD 010401H
	DD	04204H
xdata	ENDS
;	COMDAT ??_C@_0CI@BOIMMDDD@Illegal?5number?5of?5children?5for?5?$CF@
CONST	SEGMENT
??_C@_0CI@BOIMMDDD@Illegal?5number?5of?5children?5for?5?$CF@ DB 'Illegal '
	DB	'number of children for %s node.', 00H	; `string'
; Function compile flags: /Ogtpy
CONST	ENDS
;	COMDAT validate_numnodes
_TEXT	SEGMENT
n$ = 48
num$ = 56
name$ = 64
validate_numnodes PROC					; COMDAT

; 1019 : {

  00000	48 83 ec 28	 sub	 rsp, 40			; 00000028H

; 1020 :     if (NCH(n) != num) {

  00004	39 51 18	 cmp	 DWORD PTR [rcx+24], edx
  00007	74 1a		 je	 SHORT $LN1@validate_n@2

; 1021 :         PyErr_Format(parser_error,
; 1022 :                      "Illegal number of children for %s node.", name);

  00009	48 8b 0d 00 00
	00 00		 mov	 rcx, QWORD PTR parser_error
  00010	48 8d 15 00 00
	00 00		 lea	 rdx, OFFSET FLAT:??_C@_0CI@BOIMMDDD@Illegal?5number?5of?5children?5for?5?$CF@
  00017	e8 00 00 00 00	 call	 PyErr_Format

; 1023 :         return 0;

  0001c	33 c0		 xor	 eax, eax

; 1026 : }

  0001e	48 83 c4 28	 add	 rsp, 40			; 00000028H
  00022	c3		 ret	 0
$LN1@validate_n@2:

; 1024 :     }
; 1025 :     return 1;

  00023	b8 01 00 00 00	 mov	 eax, 1

; 1026 : }

  00028	48 83 c4 28	 add	 rsp, 40			; 00000028H
  0002c	c3		 ret	 0
validate_numnodes ENDP
_TEXT	ENDS
PUBLIC	??_C@_0CA@JKOOGBNF@Illegal?5terminal?3?5expected?5?$CC?$CFs?$CC?$AA@ ; `string'
;	COMDAT pdata
pdata	SEGMENT
$pdata$validate_terminal DD imagerel validate_terminal
	DD	imagerel validate_terminal+132
	DD	imagerel $unwind$validate_terminal
pdata	ENDS
;	COMDAT xdata
xdata	SEGMENT
$unwind$validate_terminal DD 040a01H
	DD	06340aH
	DD	07006320aH
xdata	ENDS
;	COMDAT ??_C@_0CA@JKOOGBNF@Illegal?5terminal?3?5expected?5?$CC?$CFs?$CC?$AA@
CONST	SEGMENT
??_C@_0CA@JKOOGBNF@Illegal?5terminal?3?5expected?5?$CC?$CFs?$CC?$AA@ DB 'I'
	DB	'llegal terminal: expected "%s"', 00H	; `string'
; Function compile flags: /Ogtpy
CONST	ENDS
;	COMDAT validate_terminal
_TEXT	SEGMENT
terminal$ = 48
type$ = 56
string$ = 64
validate_terminal PROC					; COMDAT

; 1031 : {

  00000	48 89 5c 24 08	 mov	 QWORD PTR [rsp+8], rbx
  00005	57		 push	 rdi
  00006	48 83 ec 20	 sub	 rsp, 32			; 00000020H
  0000a	49 8b d8	 mov	 rbx, r8
  0000d	48 8b f9	 mov	 rdi, rcx

; 1032 :     int res = (validate_ntype(terminal, type)
; 1033 :                && ((string == 0) || (strcmp(string, STR(terminal)) == 0)));

  00010	e8 00 00 00 00	 call	 validate_ntype
  00015	85 c0		 test	 eax, eax
  00017	74 3e		 je	 SHORT $LN5@validate_t
  00019	48 85 db	 test	 rbx, rbx
  0001c	74 29		 je	 SHORT $LN4@validate_t
  0001e	4c 8b 47 08	 mov	 r8, QWORD PTR [rdi+8]
  00022	48 8b c3	 mov	 rax, rbx
  00025	4c 2b c3	 sub	 r8, rbx
  00028	0f 1f 84 00 00
	00 00 00	 npad	 8
$LL8@validate_t:
  00030	0f b6 10	 movzx	 edx, BYTE PTR [rax]
  00033	42 0f b6 0c 00	 movzx	 ecx, BYTE PTR [rax+r8]
  00038	2b d1		 sub	 edx, ecx
  0003a	75 07		 jne	 SHORT $LN9@validate_t
  0003c	48 ff c0	 inc	 rax
  0003f	85 c9		 test	 ecx, ecx
  00041	75 ed		 jne	 SHORT $LL8@validate_t
$LN9@validate_t:
  00043	85 d2		 test	 edx, edx
  00045	75 10		 jne	 SHORT $LN5@validate_t
$LN4@validate_t:

; 1038 :     }
; 1039 :     return (res);

  00047	b8 01 00 00 00	 mov	 eax, 1

; 1040 : }

  0004c	48 8b 5c 24 30	 mov	 rbx, QWORD PTR [rsp+48]
  00051	48 83 c4 20	 add	 rsp, 32			; 00000020H
  00055	5f		 pop	 rdi
  00056	c3		 ret	 0
$LN5@validate_t:

; 1034 : 
; 1035 :     if (!res && !PyErr_Occurred()) {

  00057	e8 00 00 00 00	 call	 PyErr_Occurred
  0005c	48 85 c0	 test	 rax, rax
  0005f	75 16		 jne	 SHORT $LN10@validate_t

; 1036 :         PyErr_Format(parser_error,
; 1037 :                      "Illegal terminal: expected \"%s\"", string);

  00061	48 8b 0d 00 00
	00 00		 mov	 rcx, QWORD PTR parser_error
  00068	48 8d 15 00 00
	00 00		 lea	 rdx, OFFSET FLAT:??_C@_0CA@JKOOGBNF@Illegal?5terminal?3?5expected?5?$CC?$CFs?$CC?$AA@
  0006f	4c 8b c3	 mov	 r8, rbx
  00072	e8 00 00 00 00	 call	 PyErr_Format
$LN10@validate_t:

; 1038 :     }
; 1039 :     return (res);

  00077	33 c0		 xor	 eax, eax

; 1040 : }

  00079	48 8b 5c 24 30	 mov	 rbx, QWORD PTR [rsp+48]
  0007e	48 83 c4 20	 add	 rsp, 32			; 00000020H
  00082	5f		 pop	 rdi
  00083	c3		 ret	 0
validate_terminal ENDP
_TEXT	ENDS
PUBLIC	??_C@_01IHBHIGKO@?0?$AA@			; `string'
;	COMDAT pdata
pdata	SEGMENT
$pdata$validate_repeating_list DD imagerel validate_repeating_list
	DD	imagerel validate_repeating_list+277
	DD	imagerel $unwind$validate_repeating_list
pdata	ENDS
;	COMDAT xdata
xdata	SEGMENT
$unwind$validate_repeating_list DD 0a1a01H
	DD	09741aH
	DD	08641aH
	DD	07541aH
	DD	06341aH
	DD	0c016321aH
xdata	ENDS
;	COMDAT ??_C@_01IHBHIGKO@?0?$AA@
CONST	SEGMENT
??_C@_01IHBHIGKO@?0?$AA@ DB ',', 00H			; `string'
; Function compile flags: /Ogtpy
CONST	ENDS
;	COMDAT validate_repeating_list
_TEXT	SEGMENT
tree$ = 48
ntype$ = 56
vfunc$ = 64
name$ = 72
validate_repeating_list PROC				; COMDAT

; 1048 : {

  00000	48 89 5c 24 08	 mov	 QWORD PTR [rsp+8], rbx
  00005	48 89 6c 24 10	 mov	 QWORD PTR [rsp+16], rbp
  0000a	48 89 74 24 18	 mov	 QWORD PTR [rsp+24], rsi
  0000f	48 89 7c 24 20	 mov	 QWORD PTR [rsp+32], rdi
  00014	41 54		 push	 r12
  00016	48 83 ec 20	 sub	 rsp, 32			; 00000020H

; 1049 :     int nch = NCH(tree);

  0001a	8b 71 18	 mov	 esi, DWORD PTR [rcx+24]
  0001d	49 8b f9	 mov	 rdi, r9
  00020	4d 8b e0	 mov	 r12, r8
  00023	48 8b e9	 mov	 rbp, rcx

; 1050 :     int res = (nch && validate_ntype(tree, ntype)
; 1051 :                && vfunc(CHILD(tree, 0)));

  00026	85 f6		 test	 esi, esi
  00028	0f 84 a1 00 00
	00		 je	 $LN10@validate_r
  0002e	e8 00 00 00 00	 call	 validate_ntype
  00033	85 c0		 test	 eax, eax
  00035	0f 84 94 00 00
	00		 je	 $LN10@validate_r
  0003b	48 8b 4d 20	 mov	 rcx, QWORD PTR [rbp+32]
  0003f	41 ff d4	 call	 r12
  00042	85 c0		 test	 eax, eax
  00044	0f 84 85 00 00
	00		 je	 $LN10@validate_r
  0004a	bb 01 00 00 00	 mov	 ebx, 1
$LN7@validate_r:

; 1056 :         if (is_even(nch))

  0004f	40 f6 c6 01	 test	 sil, 1
  00053	75 24		 jne	 SHORT $LN5@validate_r

; 1057 :             res = validate_comma(CHILD(tree, --nch));

  00055	ff ce		 dec	 esi
  00057	4c 8d 05 00 00
	00 00		 lea	 r8, OFFSET FLAT:??_C@_01IHBHIGKO@?0?$AA@
  0005e	ba 0c 00 00 00	 mov	 edx, 12
  00063	48 63 c6	 movsxd	 rax, esi
  00066	48 8d 0c 80	 lea	 rcx, QWORD PTR [rax+rax*4]
  0006a	48 8b 45 20	 mov	 rax, QWORD PTR [rbp+32]
  0006e	48 8d 0c c8	 lea	 rcx, QWORD PTR [rax+rcx*8]
  00072	e8 00 00 00 00	 call	 validate_terminal
  00077	8b d8		 mov	 ebx, eax
$LN5@validate_r:

; 1058 :         if (res && nch > 1) {

  00079	85 db		 test	 ebx, ebx
  0007b	74 7b		 je	 SHORT $LN18@validate_r
  0007d	83 fe 01	 cmp	 esi, 1
  00080	7e 76		 jle	 SHORT $LN18@validate_r

; 1059 :             int pos = 1;

  00082	bf 01 00 00 00	 mov	 edi, 1
$LL3@validate_r:

; 1060 :             for ( ; res && pos < nch; pos += 2)

  00087	3b fe		 cmp	 edi, esi
  00089	7d 6d		 jge	 SHORT $LN18@validate_r

; 1061 :                 res = (validate_comma(CHILD(tree, pos))
; 1062 :                        && vfunc(CHILD(tree, pos + 1)));

  0008b	48 63 c7	 movsxd	 rax, edi
  0008e	4c 8d 05 00 00
	00 00		 lea	 r8, OFFSET FLAT:??_C@_01IHBHIGKO@?0?$AA@
  00095	ba 0c 00 00 00	 mov	 edx, 12
  0009a	48 8d 0c 80	 lea	 rcx, QWORD PTR [rax+rax*4]
  0009e	48 8b 45 20	 mov	 rax, QWORD PTR [rbp+32]
  000a2	48 8d 0c c8	 lea	 rcx, QWORD PTR [rax+rcx*8]
  000a6	e8 00 00 00 00	 call	 validate_terminal
  000ab	85 c0		 test	 eax, eax
  000ad	74 40		 je	 SHORT $LN12@validate_r
  000af	8d 47 01	 lea	 eax, DWORD PTR [rdi+1]
  000b2	48 63 c8	 movsxd	 rcx, eax
  000b5	48 8b 45 20	 mov	 rax, QWORD PTR [rbp+32]
  000b9	48 8d 14 89	 lea	 rdx, QWORD PTR [rcx+rcx*4]
  000bd	48 8d 0c d0	 lea	 rcx, QWORD PTR [rax+rdx*8]
  000c1	41 ff d4	 call	 r12
  000c4	85 c0		 test	 eax, eax
  000c6	74 27		 je	 SHORT $LN12@validate_r
  000c8	bb 01 00 00 00	 mov	 ebx, 1
  000cd	eb 22		 jmp	 SHORT $LN13@validate_r
$LN10@validate_r:

; 1050 :     int res = (nch && validate_ntype(tree, ntype)
; 1051 :                && vfunc(CHILD(tree, 0)));

  000cf	33 db		 xor	 ebx, ebx

; 1052 : 
; 1053 :     if (!res && !PyErr_Occurred())

  000d1	e8 00 00 00 00	 call	 PyErr_Occurred
  000d6	48 85 c0	 test	 rax, rax
  000d9	0f 85 70 ff ff
	ff		 jne	 $LN7@validate_r

; 1054 :         (void) validate_numnodes(tree, 1, name);

  000df	8d 53 01	 lea	 edx, QWORD PTR [rbx+1]
  000e2	4c 8b c7	 mov	 r8, rdi
  000e5	48 8b cd	 mov	 rcx, rbp
  000e8	e8 00 00 00 00	 call	 validate_numnodes

; 1055 :     else {

  000ed	eb 09		 jmp	 SHORT $LN18@validate_r
$LN12@validate_r:

; 1061 :                 res = (validate_comma(CHILD(tree, pos))
; 1062 :                        && vfunc(CHILD(tree, pos + 1)));

  000ef	33 db		 xor	 ebx, ebx
$LN13@validate_r:

; 1060 :             for ( ; res && pos < nch; pos += 2)

  000f1	83 c7 02	 add	 edi, 2
  000f4	85 db		 test	 ebx, ebx
  000f6	75 8f		 jne	 SHORT $LL3@validate_r
$LN18@validate_r:

; 1063 :         }
; 1064 :     }
; 1065 :     return (res);
; 1066 : }

  000f8	48 8b 6c 24 38	 mov	 rbp, QWORD PTR [rsp+56]
  000fd	48 8b 74 24 40	 mov	 rsi, QWORD PTR [rsp+64]
  00102	48 8b 7c 24 48	 mov	 rdi, QWORD PTR [rsp+72]
  00107	8b c3		 mov	 eax, ebx
  00109	48 8b 5c 24 30	 mov	 rbx, QWORD PTR [rsp+48]
  0010e	48 83 c4 20	 add	 rsp, 32			; 00000020H
  00112	41 5c		 pop	 r12
  00114	c3		 ret	 0
validate_repeating_list ENDP
_TEXT	ENDS
PUBLIC	??_C@_00CNPNBAHC@?$AA@				; `string'
;	COMDAT pdata
pdata	SEGMENT
$pdata$validate_suite DD imagerel validate_suite
	DD	imagerel validate_suite+59
	DD	imagerel $unwind$validate_suite
pdata	ENDS
;	COMDAT pdata
pdata	SEGMENT
$pdata$0$validate_suite DD imagerel validate_suite+59
	DD	imagerel validate_suite+222
	DD	imagerel $chain$0$validate_suite
pdata	ENDS
;	COMDAT pdata
pdata	SEGMENT
$pdata$2$validate_suite DD imagerel validate_suite+222
	DD	imagerel validate_suite+264
	DD	imagerel $chain$2$validate_suite
pdata	ENDS
;	COMDAT pdata
pdata	SEGMENT
$pdata$3$validate_suite DD imagerel validate_suite+264
	DD	imagerel validate_suite+296
	DD	imagerel $chain$3$validate_suite
pdata	ENDS
;	COMDAT xdata
xdata	SEGMENT
$chain$3$validate_suite DD 021H
	DD	imagerel validate_suite
	DD	imagerel validate_suite+59
	DD	imagerel $unwind$validate_suite
xdata	ENDS
;	COMDAT xdata
xdata	SEGMENT
$chain$2$validate_suite DD 020021H
	DD	066400H
	DD	imagerel validate_suite
	DD	imagerel validate_suite+59
	DD	imagerel $unwind$validate_suite
xdata	ENDS
;	COMDAT xdata
xdata	SEGMENT
$chain$0$validate_suite DD 020521H
	DD	066405H
	DD	imagerel validate_suite
	DD	imagerel validate_suite+59
	DD	imagerel $unwind$validate_suite
xdata	ENDS
;	COMDAT xdata
xdata	SEGMENT
$unwind$validate_suite DD 040a01H
	DD	07340aH
	DD	07006320aH
xdata	ENDS
;	COMDAT ??_C@_00CNPNBAHC@?$AA@
CONST	SEGMENT
??_C@_00CNPNBAHC@?$AA@ DB 00H				; `string'
; Function compile flags: /Ogtpy
CONST	ENDS
;	COMDAT validate_suite
_TEXT	SEGMENT
tree$ = 48
validate_suite PROC					; COMDAT

; 1178 : {

  00000	48 89 5c 24 10	 mov	 QWORD PTR [rsp+16], rbx
  00005	57		 push	 rdi
  00006	48 83 ec 20	 sub	 rsp, 32			; 00000020H

; 1179 :     int nch = NCH(tree);

  0000a	8b 59 18	 mov	 ebx, DWORD PTR [rcx+24]

; 1180 :     int res = (validate_ntype(tree, suite) && ((nch == 1) || (nch >= 4)));

  0000d	ba 2d 01 00 00	 mov	 edx, 301		; 0000012dH
  00012	48 8b f9	 mov	 rdi, rcx
  00015	e8 00 00 00 00	 call	 validate_ntype
  0001a	85 c0		 test	 eax, eax
  0001c	0f 84 f9 00 00
	00		 je	 $LN13@validate_s
  00022	83 fb 01	 cmp	 ebx, 1
  00025	0f 84 dd 00 00
	00		 je	 $LN22@validate_s
  0002b	83 fb 04	 cmp	 ebx, 4
  0002e	0f 8c e7 00 00
	00		 jl	 $LN13@validate_s

; 1184 :     else if (res) {
; 1185 :         /*  NEWLINE INDENT stmt+ DEDENT  */
; 1186 :         res = (validate_newline(CHILD(tree, 0))
; 1187 :                && validate_indent(CHILD(tree, 1))
; 1188 :                && validate_stmt(CHILD(tree, 2))
; 1189 :                && validate_dedent(CHILD(tree, nch - 1)));

  00034	48 8b 4f 20	 mov	 rcx, QWORD PTR [rdi+32]
  00038	45 33 c0	 xor	 r8d, r8d
  0003b	48 89 74 24 30	 mov	 QWORD PTR [rsp+48], rsi
  00040	41 8d 50 04	 lea	 edx, QWORD PTR [r8+4]
  00044	e8 00 00 00 00	 call	 validate_terminal
  00049	85 c0		 test	 eax, eax
  0004b	0f 84 8d 00 00
	00		 je	 $LN15@validate_s
  00051	48 8b 4f 20	 mov	 rcx, QWORD PTR [rdi+32]
  00055	45 33 c0	 xor	 r8d, r8d
  00058	41 8d 50 05	 lea	 edx, QWORD PTR [r8+5]
  0005c	48 83 c1 28	 add	 rcx, 40			; 00000028H
  00060	e8 00 00 00 00	 call	 validate_terminal
  00065	85 c0		 test	 eax, eax
  00067	74 75		 je	 SHORT $LN15@validate_s
  00069	48 8b 4f 20	 mov	 rcx, QWORD PTR [rdi+32]
  0006d	48 83 c1 50	 add	 rcx, 80			; 00000050H
  00071	e8 00 00 00 00	 call	 validate_stmt
  00076	85 c0		 test	 eax, eax
  00078	74 64		 je	 SHORT $LN15@validate_s
  0007a	8d 73 ff	 lea	 esi, DWORD PTR [rbx-1]
  0007d	4c 8d 05 00 00
	00 00		 lea	 r8, OFFSET FLAT:??_C@_00CNPNBAHC@?$AA@
  00084	ba 06 00 00 00	 mov	 edx, 6
  00089	48 63 c6	 movsxd	 rax, esi
  0008c	48 8d 0c 80	 lea	 rcx, QWORD PTR [rax+rax*4]
  00090	48 8b 47 20	 mov	 rax, QWORD PTR [rdi+32]
  00094	48 8d 0c c8	 lea	 rcx, QWORD PTR [rax+rcx*8]
  00098	e8 00 00 00 00	 call	 validate_terminal
  0009d	85 c0		 test	 eax, eax
  0009f	74 3d		 je	 SHORT $LN15@validate_s
  000a1	b8 01 00 00 00	 mov	 eax, 1

; 1190 : 
; 1191 :         if (res && (nch > 4)) {

  000a6	83 fb 04	 cmp	 ebx, 4
  000a9	7e 38		 jle	 SHORT $LN26@validate_s

; 1192 :             int i = 3;

  000ab	bb 03 00 00 00	 mov	 ebx, 3
$LL5@validate_s:

; 1193 :             --nch;                      /* forget the DEDENT     */
; 1194 :             for ( ; res && (i < nch); ++i)

  000b0	3b de		 cmp	 ebx, esi
  000b2	7d 1a		 jge	 SHORT $LN25@validate_s

; 1195 :                 res = validate_stmt(CHILD(tree, i));

  000b4	48 63 c3	 movsxd	 rax, ebx
  000b7	48 8d 0c 80	 lea	 rcx, QWORD PTR [rax+rax*4]
  000bb	48 8b 47 20	 mov	 rax, QWORD PTR [rdi+32]
  000bf	48 8d 0c c8	 lea	 rcx, QWORD PTR [rax+rcx*8]
  000c3	e8 00 00 00 00	 call	 validate_stmt
  000c8	ff c3		 inc	 ebx
  000ca	85 c0		 test	 eax, eax
  000cc	75 e2		 jne	 SHORT $LL5@validate_s
$LN25@validate_s:
  000ce	48 8b 74 24 30	 mov	 rsi, QWORD PTR [rsp+48]

; 1199 :     }
; 1200 :     return (res);
; 1201 : }

  000d3	48 8b 5c 24 38	 mov	 rbx, QWORD PTR [rsp+56]
  000d8	48 83 c4 20	 add	 rsp, 32			; 00000020H
  000dc	5f		 pop	 rdi
  000dd	c3		 ret	 0
$LN15@validate_s:

; 1184 :     else if (res) {
; 1185 :         /*  NEWLINE INDENT stmt+ DEDENT  */
; 1186 :         res = (validate_newline(CHILD(tree, 0))
; 1187 :                && validate_indent(CHILD(tree, 1))
; 1188 :                && validate_stmt(CHILD(tree, 2))
; 1189 :                && validate_dedent(CHILD(tree, nch - 1)));

  000de	33 c0		 xor	 eax, eax

; 1196 :         }
; 1197 :         else if (nch < 4)

  000e0	83 fb 04	 cmp	 ebx, 4
$LN26@validate_s:
  000e3	7d e9		 jge	 SHORT $LN25@validate_s

; 1198 :             res = validate_numnodes(tree, 4, "suite");

  000e5	4c 8d 05 00 00
	00 00		 lea	 r8, OFFSET FLAT:??_C@_05PPOFKJGL@suite?$AA@
  000ec	ba 04 00 00 00	 mov	 edx, 4
  000f1	48 8b cf	 mov	 rcx, rdi
  000f4	48 8b 74 24 30	 mov	 rsi, QWORD PTR [rsp+48]

; 1199 :     }
; 1200 :     return (res);
; 1201 : }

  000f9	48 8b 5c 24 38	 mov	 rbx, QWORD PTR [rsp+56]
  000fe	48 83 c4 20	 add	 rsp, 32			; 00000020H
  00102	5f		 pop	 rdi
  00103	e9 00 00 00 00	 jmp	 validate_numnodes
$LN22@validate_s:

; 1181 : 
; 1182 :     if (res && (nch == 1))
; 1183 :         res = validate_simple_stmt(CHILD(tree, 0));

  00108	48 8b 4f 20	 mov	 rcx, QWORD PTR [rdi+32]

; 1199 :     }
; 1200 :     return (res);
; 1201 : }

  0010c	48 8b 5c 24 38	 mov	 rbx, QWORD PTR [rsp+56]
  00111	48 83 c4 20	 add	 rsp, 32			; 00000020H
  00115	5f		 pop	 rdi
  00116	e9 00 00 00 00	 jmp	 validate_simple_stmt
$LN13@validate_s:

; 1180 :     int res = (validate_ntype(tree, suite) && ((nch == 1) || (nch >= 4)));

  0011b	33 c0		 xor	 eax, eax

; 1199 :     }
; 1200 :     return (res);
; 1201 : }

  0011d	48 8b 5c 24 38	 mov	 rbx, QWORD PTR [rsp+56]
  00122	48 83 c4 20	 add	 rsp, 32			; 00000020H
  00126	5f		 pop	 rdi
  00127	c3		 ret	 0
validate_suite ENDP
_TEXT	ENDS
PUBLIC	??_C@_08GGIJBKAI@testlist?$AA@			; `string'
;	COMDAT ??_C@_08GGIJBKAI@testlist?$AA@
CONST	SEGMENT
??_C@_08GGIJBKAI@testlist?$AA@ DB 'testlist', 00H	; `string'
; Function compile flags: /Ogtpy
CONST	ENDS
;	COMDAT validate_testlist
_TEXT	SEGMENT
tree$ = 8
validate_testlist PROC					; COMDAT

; 1207 :     return (validate_repeating_list(tree, testlist,
; 1208 :                                     validate_test, "testlist"));

  00000	4c 8d 0d 00 00
	00 00		 lea	 r9, OFFSET FLAT:??_C@_08GGIJBKAI@testlist?$AA@
  00007	4c 8d 05 00 00
	00 00		 lea	 r8, OFFSET FLAT:validate_test
  0000e	ba 47 01 00 00	 mov	 edx, 327		; 00000147H

; 1209 : }

  00013	e9 00 00 00 00	 jmp	 validate_repeating_list
validate_testlist ENDP
_TEXT	ENDS
PUBLIC	??_C@_01JLIPDDHJ@?3?$AA@			; `string'
;	COMDAT pdata
pdata	SEGMENT
$pdata$validate_vfpdef DD imagerel validate_vfpdef
	DD	imagerel validate_vfpdef+208
	DD	imagerel $unwind$validate_vfpdef
pdata	ENDS
;	COMDAT xdata
xdata	SEGMENT
$unwind$validate_vfpdef DD 040a01H
	DD	06340aH
	DD	07006320aH
xdata	ENDS
;	COMDAT ??_C@_01JLIPDDHJ@?3?$AA@
CONST	SEGMENT
??_C@_01JLIPDDHJ@?3?$AA@ DB ':', 00H			; `string'
; Function compile flags: /Ogtpy
CONST	ENDS
;	COMDAT validate_vfpdef
_TEXT	SEGMENT
tree$ = 48
validate_vfpdef PROC					; COMDAT

; 1225 : {

  00000	48 89 5c 24 08	 mov	 QWORD PTR [rsp+8], rbx
  00005	57		 push	 rdi
  00006	48 83 ec 20	 sub	 rsp, 32			; 00000020H

; 1226 :     int nch = NCH(tree);

  0000a	8b 41 18	 mov	 eax, DWORD PTR [rcx+24]
  0000d	48 8b f9	 mov	 rdi, rcx

; 1227 :     if (TYPE(tree) == vfpdef) {

  00010	0f b7 09	 movzx	 ecx, WORD PTR [rcx]
  00013	ba 0b 01 00 00	 mov	 edx, 267		; 0000010bH
  00018	66 3b ca	 cmp	 cx, dx
  0001b	75 28		 jne	 SHORT $LN6@validate_v

; 1228 :         return nch == 1 && validate_name(CHILD(tree, 0), NULL);

  0001d	83 f8 01	 cmp	 eax, 1
  00020	75 14		 jne	 SHORT $LN9@validate_v
  00022	48 8b 4f 20	 mov	 rcx, QWORD PTR [rdi+32]
  00026	45 33 c0	 xor	 r8d, r8d
  00029	8b d0		 mov	 edx, eax
  0002b	8b d8		 mov	 ebx, eax
  0002d	e8 00 00 00 00	 call	 validate_terminal
  00032	85 c0		 test	 eax, eax
  00034	75 02		 jne	 SHORT $LN10@validate_v
$LN9@validate_v:
  00036	33 db		 xor	 ebx, ebx
$LN10@validate_v:
  00038	8b c3		 mov	 eax, ebx

; 1241 : }

  0003a	48 8b 5c 24 30	 mov	 rbx, QWORD PTR [rsp+48]
  0003f	48 83 c4 20	 add	 rsp, 32			; 00000020H
  00043	5f		 pop	 rdi
  00044	c3		 ret	 0
$LN6@validate_v:

; 1229 :     }
; 1230 :     else if (TYPE(tree) == tfpdef) {

  00045	ba 09 01 00 00	 mov	 edx, 265		; 00000109H
  0004a	66 3b ca	 cmp	 cx, dx
  0004d	75 74		 jne	 SHORT $LN1@validate_v

; 1231 :         if (nch == 1) {

  0004f	83 f8 01	 cmp	 eax, 1
  00052	75 18		 jne	 SHORT $LN3@validate_v

; 1232 :             return validate_name(CHILD(tree, 0), NULL);

  00054	48 8b 4f 20	 mov	 rcx, QWORD PTR [rdi+32]
  00058	45 33 c0	 xor	 r8d, r8d
  0005b	8b d0		 mov	 edx, eax

; 1241 : }

  0005d	48 8b 5c 24 30	 mov	 rbx, QWORD PTR [rsp+48]
  00062	48 83 c4 20	 add	 rsp, 32			; 00000020H
  00066	5f		 pop	 rdi
  00067	e9 00 00 00 00	 jmp	 validate_terminal
$LN3@validate_v:

; 1233 :         }
; 1234 :         else if (nch == 3) {

  0006c	83 f8 03	 cmp	 eax, 3
  0006f	75 52		 jne	 SHORT $LN1@validate_v

; 1235 :             return validate_name(CHILD(tree, 0), NULL) &&
; 1236 :                    validate_colon(CHILD(tree, 1)) &&
; 1237 :                    validate_test(CHILD(tree, 2));

  00071	48 8b 4f 20	 mov	 rcx, QWORD PTR [rdi+32]
  00075	bb 01 00 00 00	 mov	 ebx, 1
  0007a	45 33 c0	 xor	 r8d, r8d
  0007d	8b d3		 mov	 edx, ebx
  0007f	e8 00 00 00 00	 call	 validate_terminal
  00084	85 c0		 test	 eax, eax
  00086	74 2c		 je	 SHORT $LN11@validate_v
  00088	48 8b 4f 20	 mov	 rcx, QWORD PTR [rdi+32]
  0008c	4c 8d 05 00 00
	00 00		 lea	 r8, OFFSET FLAT:??_C@_01JLIPDDHJ@?3?$AA@
  00093	8d 53 0a	 lea	 edx, QWORD PTR [rbx+10]
  00096	48 83 c1 28	 add	 rcx, 40			; 00000028H
  0009a	e8 00 00 00 00	 call	 validate_terminal
  0009f	85 c0		 test	 eax, eax
  000a1	74 11		 je	 SHORT $LN11@validate_v
  000a3	48 8b 4f 20	 mov	 rcx, QWORD PTR [rdi+32]
  000a7	48 83 c1 50	 add	 rcx, 80			; 00000050H
  000ab	e8 00 00 00 00	 call	 validate_test
  000b0	85 c0		 test	 eax, eax
  000b2	75 02		 jne	 SHORT $LN12@validate_v
$LN11@validate_v:
  000b4	33 db		 xor	 ebx, ebx
$LN12@validate_v:
  000b6	8b c3		 mov	 eax, ebx

; 1241 : }

  000b8	48 8b 5c 24 30	 mov	 rbx, QWORD PTR [rsp+48]
  000bd	48 83 c4 20	 add	 rsp, 32			; 00000020H
  000c1	5f		 pop	 rdi
  000c2	c3		 ret	 0
$LN1@validate_v:

; 1238 :         }
; 1239 :     }
; 1240 :     return 0;

  000c3	33 c0		 xor	 eax, eax

; 1241 : }

  000c5	48 8b 5c 24 30	 mov	 rbx, QWORD PTR [rsp+48]
  000ca	48 83 c4 20	 add	 rsp, 32			; 00000020H
  000ce	5f		 pop	 rdi
  000cf	c3		 ret	 0
validate_vfpdef ENDP
_TEXT	ENDS
PUBLIC	??_C@_0CI@EOOFKHNC@expected?5?$CK?5or?5?$CK?$CK?5in?5varargslist?5@ ; `string'
PUBLIC	??_C@_0DA@FACEPCPA@expected?5vfpdef?5after?5?$CK?$CK?5in?5vara@ ; `string'
PUBLIC	??_C@_0DB@DKCHLGHN@unexpected?5extra?5children?5in?5var@ ; `string'
PUBLIC	??_C@_02FKAPCJPD@?$CK?$CK?$AA@			; `string'
PUBLIC	??_C@_01NEMOKFLO@?$DN?$AA@			; `string'
PUBLIC	??_C@_01NBENCBCI@?$CK?$AA@			; `string'
PUBLIC	??_C@_0DD@BKLPCAMF@expected?5variable?5argument?5trail@ ; `string'
;	COMDAT pdata
pdata	SEGMENT
$pdata$validate_varargslist_trailer DD imagerel validate_varargslist_trailer
	DD	imagerel validate_varargslist_trailer+697
	DD	imagerel $unwind$validate_varargslist_trailer
pdata	ENDS
;	COMDAT xdata
xdata	SEGMENT
$unwind$validate_varargslist_trailer DD 0e5401H
	DD	04f454H
	DD	05e44bH
	DD	0cc442H
	DD	0b543dH
	DD	0a3438H
	DD	0d0055209H
	DD	060027003H
xdata	ENDS
;	COMDAT ??_C@_0CI@EOOFKHNC@expected?5?$CK?5or?5?$CK?$CK?5in?5varargslist?5@
CONST	SEGMENT
??_C@_0CI@EOOFKHNC@expected?5?$CK?5or?5?$CK?$CK?5in?5varargslist?5@ DB 'e'
	DB	'xpected * or ** in varargslist trailer', 00H ; `string'
CONST	ENDS
;	COMDAT ??_C@_0DA@FACEPCPA@expected?5vfpdef?5after?5?$CK?$CK?5in?5vara@
CONST	SEGMENT
??_C@_0DA@FACEPCPA@expected?5vfpdef?5after?5?$CK?$CK?5in?5vara@ DB 'expec'
	DB	'ted vfpdef after ** in varargslist trailer', 00H ; `string'
CONST	ENDS
;	COMDAT ??_C@_0DB@DKCHLGHN@unexpected?5extra?5children?5in?5var@
CONST	SEGMENT
??_C@_0DB@DKCHLGHN@unexpected?5extra?5children?5in?5var@ DB 'unexpected e'
	DB	'xtra children in varargslist trailer', 00H	; `string'
CONST	ENDS
;	COMDAT ??_C@_02FKAPCJPD@?$CK?$CK?$AA@
CONST	SEGMENT
??_C@_02FKAPCJPD@?$CK?$CK?$AA@ DB '**', 00H		; `string'
CONST	ENDS
;	COMDAT ??_C@_01NEMOKFLO@?$DN?$AA@
CONST	SEGMENT
??_C@_01NEMOKFLO@?$DN?$AA@ DB '=', 00H			; `string'
CONST	ENDS
;	COMDAT ??_C@_01NBENCBCI@?$CK?$AA@
CONST	SEGMENT
??_C@_01NBENCBCI@?$CK?$AA@ DB '*', 00H			; `string'
CONST	ENDS
;	COMDAT ??_C@_0DD@BKLPCAMF@expected?5variable?5argument?5trail@
CONST	SEGMENT
??_C@_0DD@BKLPCAMF@expected?5variable?5argument?5trail@ DB 'expected vari'
	DB	'able argument trailer for varargslist', 00H	; `string'
; Function compile flags: /Ogtpy
CONST	ENDS
;	COMDAT validate_varargslist_trailer
_TEXT	SEGMENT
tree$ = 80
start$ = 88
validate_varargslist_trailer PROC			; COMDAT

; 1248 : {

  00000	40 56		 push	 rsi
  00002	57		 push	 rdi
  00003	41 55		 push	 r13
  00005	48 83 ec 30	 sub	 rsp, 48			; 00000030H

; 1249 :     int nch = NCH(tree);

  00009	44 8b 69 18	 mov	 r13d, DWORD PTR [rcx+24]
  0000d	48 63 fa	 movsxd	 rdi, edx
  00010	48 8b f1	 mov	 rsi, rcx

; 1250 :     int res = 0;
; 1251 : 
; 1252 :     if (nch <= start) {

  00013	44 3b ef	 cmp	 r13d, edi
  00016	7f 17		 jg	 SHORT $LN15@validate_v@2

; 1253 :         err_string("expected variable argument trailer for varargslist");

  00018	48 8d 0d 00 00
	00 00		 lea	 rcx, OFFSET FLAT:??_C@_0DD@BKLPCAMF@expected?5variable?5argument?5trail@
  0001f	e8 00 00 00 00	 call	 err_string

; 1254 :         return 0;

  00024	33 c0		 xor	 eax, eax

; 1306 : }

  00026	48 83 c4 30	 add	 rsp, 48			; 00000030H
  0002a	41 5d		 pop	 r13
  0002c	5f		 pop	 rdi
  0002d	5e		 pop	 rsi
  0002e	c3		 ret	 0
$LN15@validate_v@2:

; 1255 :     }
; 1256 :     if (TYPE(CHILD(tree, start)) == STAR) {

  0002f	48 8b 46 20	 mov	 rax, QWORD PTR [rsi+32]
  00033	48 89 5c 24 50	 mov	 QWORD PTR [rsp+80], rbx
  00038	48 89 6c 24 58	 mov	 QWORD PTR [rsp+88], rbp
  0003d	4c 89 64 24 60	 mov	 QWORD PTR [rsp+96], r12
  00042	48 8d 0c bf	 lea	 rcx, QWORD PTR [rdi+rdi*4]
  00046	4c 89 74 24 28	 mov	 QWORD PTR [rsp+40], r14
  0004b	48 8d 0c c8	 lea	 rcx, QWORD PTR [rax+rcx*8]
  0004f	4c 89 7c 24 20	 mov	 QWORD PTR [rsp+32], r15
  00054	0f b7 01	 movzx	 eax, WORD PTR [rcx]
  00057	66 83 f8 10	 cmp	 ax, 16
  0005b	0f 85 c6 01 00
	00		 jne	 $LN14@validate_v@2

; 1257 :         /*
; 1258 :          * '*' [vfpdef]
; 1259 :          */
; 1260 :         res = validate_star(CHILD(tree, start++));

  00061	4c 8d 05 00 00
	00 00		 lea	 r8, OFFSET FLAT:??_C@_01NBENCBCI@?$CK?$AA@
  00068	ba 10 00 00 00	 mov	 edx, 16
  0006d	e8 00 00 00 00	 call	 validate_terminal

; 1261 :         if (res && start < nch && (TYPE(CHILD(tree, start)) == vfpdef ||
; 1262 :                                    TYPE(CHILD(tree, start)) == tfpdef))

  00072	41 bf 0b 01 00
	00		 mov	 r15d, 267		; 0000010bH
  00078	ff c7		 inc	 edi
  0007a	8b d8		 mov	 ebx, eax
  0007c	45 8d 77 fe	 lea	 r14d, QWORD PTR [r15-2]
  00080	85 c0		 test	 eax, eax
  00082	74 2d		 je	 SHORT $LN26@validate_v@2
  00084	41 3b fd	 cmp	 edi, r13d
  00087	7d 28		 jge	 SHORT $LN26@validate_v@2
  00089	48 63 cf	 movsxd	 rcx, edi
  0008c	48 8d 14 89	 lea	 rdx, QWORD PTR [rcx+rcx*4]
  00090	48 8b 4e 20	 mov	 rcx, QWORD PTR [rsi+32]
  00094	0f b7 04 d1	 movzx	 eax, WORD PTR [rcx+rdx*8]
  00098	48 8d 0c d1	 lea	 rcx, QWORD PTR [rcx+rdx*8]
  0009c	66 41 3b c7	 cmp	 ax, r15w
  000a0	74 06		 je	 SHORT $LN12@validate_v@2
  000a2	66 41 3b c6	 cmp	 ax, r14w
  000a6	75 09		 jne	 SHORT $LN26@validate_v@2
$LN12@validate_v@2:

; 1263 :             res = validate_vfpdef(CHILD(tree, start++));

  000a8	e8 00 00 00 00	 call	 validate_vfpdef
  000ad	ff c7		 inc	 edi
  000af	8b d8		 mov	 ebx, eax
$LN26@validate_v@2:
  000b1	48 63 c7	 movsxd	 rax, edi

; 1264 :         /*
; 1265 :          * (',' vfpdef ['=' test])*
; 1266 :          */
; 1267 :         while (res && start + 1 < nch && (
; 1268 :                    TYPE(CHILD(tree, start + 1)) == vfpdef ||
; 1269 :                    TYPE(CHILD(tree, start + 1)) == tfpdef)) {

  000b4	85 db		 test	 ebx, ebx
  000b6	0f 84 d9 01 00
	00		 je	 $LN1@validate_v@2
  000bc	48 8d 2c 80	 lea	 rbp, QWORD PTR [rax+rax*4]

; 1270 :             res = (validate_comma(CHILD(tree, start++))
; 1271 :                    && validate_vfpdef(CHILD(tree, start++)));

  000c0	44 8d 67 01	 lea	 r12d, DWORD PTR [rdi+1]
  000c4	48 c1 e5 03	 shl	 rbp, 3
  000c8	0f 1f 84 00 00
	00 00 00	 npad	 8
$LL11@validate_v@2:

; 1264 :         /*
; 1265 :          * (',' vfpdef ['=' test])*
; 1266 :          */
; 1267 :         while (res && start + 1 < nch && (
; 1268 :                    TYPE(CHILD(tree, start + 1)) == vfpdef ||
; 1269 :                    TYPE(CHILD(tree, start + 1)) == tfpdef)) {

  000d0	45 3b e5	 cmp	 r12d, r13d
  000d3	0f 8d bf 00 00
	00		 jge	 $LN10@validate_v@2
  000d9	48 8b 56 20	 mov	 rdx, QWORD PTR [rsi+32]
  000dd	0f b7 44 2a 28	 movzx	 eax, WORD PTR [rdx+rbp+40]
  000e2	66 41 3b c7	 cmp	 ax, r15w
  000e6	74 0a		 je	 SHORT $LN9@validate_v@2
  000e8	66 41 3b c6	 cmp	 ax, r14w
  000ec	0f 85 a6 00 00
	00		 jne	 $LN10@validate_v@2
$LN9@validate_v@2:

; 1270 :             res = (validate_comma(CHILD(tree, start++))
; 1271 :                    && validate_vfpdef(CHILD(tree, start++)));

  000f2	48 63 c7	 movsxd	 rax, edi
  000f5	4c 8d 05 00 00
	00 00		 lea	 r8, OFFSET FLAT:??_C@_01IHBHIGKO@?0?$AA@
  000fc	48 8d 0c 80	 lea	 rcx, QWORD PTR [rax+rax*4]
  00100	48 8d 0c ca	 lea	 rcx, QWORD PTR [rdx+rcx*8]
  00104	ba 0c 00 00 00	 mov	 edx, 12
  00109	e8 00 00 00 00	 call	 validate_terminal
  0010e	ff c7		 inc	 edi
  00110	85 c0		 test	 eax, eax
  00112	74 7d		 je	 SHORT $LN20@validate_v@2
  00114	48 63 c7	 movsxd	 rax, edi
  00117	48 8d 0c 80	 lea	 rcx, QWORD PTR [rax+rax*4]
  0011b	48 8b 46 20	 mov	 rax, QWORD PTR [rsi+32]
  0011f	48 8d 0c c8	 lea	 rcx, QWORD PTR [rax+rcx*8]
  00123	e8 00 00 00 00	 call	 validate_vfpdef
  00128	ff c7		 inc	 edi
  0012a	41 83 c4 02	 add	 r12d, 2
  0012e	48 83 c5 50	 add	 rbp, 80			; 00000050H
  00132	85 c0		 test	 eax, eax
  00134	74 5b		 je	 SHORT $LN20@validate_v@2
  00136	bb 01 00 00 00	 mov	 ebx, 1

; 1272 :             if (res && start + 1 < nch && TYPE(CHILD(tree, start)) == EQUAL)

  0013b	45 3b e5	 cmp	 r12d, r13d
  0013e	7d 58		 jge	 SHORT $LN10@validate_v@2
  00140	48 8b 56 20	 mov	 rdx, QWORD PTR [rsi+32]
  00144	66 83 3c 2a 16	 cmp	 WORD PTR [rdx+rbp], 22
  00149	75 85		 jne	 SHORT $LL11@validate_v@2

; 1273 :                 res = (validate_equal(CHILD(tree, start++))
; 1274 :                        && validate_test(CHILD(tree, start++)));

  0014b	48 63 c7	 movsxd	 rax, edi
  0014e	4c 8d 05 00 00
	00 00		 lea	 r8, OFFSET FLAT:??_C@_01NEMOKFLO@?$DN?$AA@
  00155	48 8d 0c 80	 lea	 rcx, QWORD PTR [rax+rax*4]
  00159	48 8d 0c ca	 lea	 rcx, QWORD PTR [rdx+rcx*8]
  0015d	8d 53 15	 lea	 edx, QWORD PTR [rbx+21]
  00160	e8 00 00 00 00	 call	 validate_terminal
  00165	ff c7		 inc	 edi
  00167	85 c0		 test	 eax, eax
  00169	74 26		 je	 SHORT $LN20@validate_v@2
  0016b	48 63 c7	 movsxd	 rax, edi
  0016e	48 8d 0c 80	 lea	 rcx, QWORD PTR [rax+rax*4]
  00172	48 8b 46 20	 mov	 rax, QWORD PTR [rsi+32]
  00176	48 8d 0c c8	 lea	 rcx, QWORD PTR [rax+rcx*8]
  0017a	e8 00 00 00 00	 call	 validate_test
  0017f	ff c7		 inc	 edi
  00181	41 83 c4 02	 add	 r12d, 2
  00185	48 83 c5 50	 add	 rbp, 80			; 00000050H
  00189	85 c0		 test	 eax, eax
  0018b	0f 85 3f ff ff
	ff		 jne	 $LL11@validate_v@2
$LN20@validate_v@2:
  00191	33 db		 xor	 ebx, ebx

; 1275 :         }
; 1276 :         /*
; 1277 :          * [',' '**' vfpdef]
; 1278 :          */
; 1279 :         if (res && start + 2 < nch && TYPE(CHILD(tree, start+1)) == DOUBLESTAR)

  00193	e9 fd 00 00 00	 jmp	 $LN1@validate_v@2
$LN10@validate_v@2:
  00198	85 db		 test	 ebx, ebx
  0019a	0f 84 f5 00 00
	00		 je	 $LN1@validate_v@2
  001a0	8d 47 02	 lea	 eax, DWORD PTR [rdi+2]
  001a3	41 3b c5	 cmp	 eax, r13d
  001a6	0f 8d c4 00 00
	00		 jge	 $LN2@validate_v@2
  001ac	4c 8b 4e 20	 mov	 r9, QWORD PTR [rsi+32]
  001b0	48 63 cf	 movsxd	 rcx, edi
  001b3	48 8d 44 89 05	 lea	 rax, QWORD PTR [rcx+rcx*4+5]
  001b8	66 41 83 3c c1
	23		 cmp	 WORD PTR [r9+rax*8], 35	; 00000023H
  001be	0f 85 ac 00 00
	00		 jne	 $LN2@validate_v@2

; 1280 :             res = (validate_comma(CHILD(tree, start++))
; 1281 :                    && validate_doublestar(CHILD(tree, start++))
; 1282 :                    && validate_vfpdef(CHILD(tree, start++)));

  001c4	48 8d 04 89	 lea	 rax, QWORD PTR [rcx+rcx*4]
  001c8	4c 8d 05 00 00
	00 00		 lea	 r8, OFFSET FLAT:??_C@_01IHBHIGKO@?0?$AA@
  001cf	ba 0c 00 00 00	 mov	 edx, 12
  001d4	49 8d 0c c1	 lea	 rcx, QWORD PTR [r9+rax*8]
  001d8	e8 00 00 00 00	 call	 validate_terminal
  001dd	ff c7		 inc	 edi
  001df	85 c0		 test	 eax, eax
  001e1	74 40		 je	 SHORT $LN22@validate_v@2
  001e3	48 63 c7	 movsxd	 rax, edi
  001e6	4c 8d 05 00 00
	00 00		 lea	 r8, OFFSET FLAT:??_C@_02FKAPCJPD@?$CK?$CK?$AA@
  001ed	ba 23 00 00 00	 mov	 edx, 35			; 00000023H
  001f2	48 8d 0c 80	 lea	 rcx, QWORD PTR [rax+rax*4]
  001f6	48 8b 46 20	 mov	 rax, QWORD PTR [rsi+32]
  001fa	48 8d 0c c8	 lea	 rcx, QWORD PTR [rax+rcx*8]
  001fe	e8 00 00 00 00	 call	 validate_terminal
  00203	ff c7		 inc	 edi
  00205	85 c0		 test	 eax, eax
  00207	74 1a		 je	 SHORT $LN22@validate_v@2
  00209	48 63 c7	 movsxd	 rax, edi
  0020c	48 8d 0c 80	 lea	 rcx, QWORD PTR [rax+rax*4]
  00210	48 8b 46 20	 mov	 rax, QWORD PTR [rsi+32]
  00214	48 8d 0c c8	 lea	 rcx, QWORD PTR [rax+rcx*8]
  00218	e8 00 00 00 00	 call	 validate_vfpdef
  0021d	ff c7		 inc	 edi
  0021f	85 c0		 test	 eax, eax
  00221	75 48		 jne	 SHORT $LN31@validate_v@2
$LN22@validate_v@2:
  00223	33 db		 xor	 ebx, ebx

; 1283 :     }
; 1284 :     else if (TYPE(CHILD(tree, start)) == DOUBLESTAR) {

  00225	eb 6e		 jmp	 SHORT $LN1@validate_v@2
$LN14@validate_v@2:
  00227	66 83 f8 23	 cmp	 ax, 35			; 00000023H
  0022b	75 5a		 jne	 SHORT $LN5@validate_v@2

; 1285 :         /*
; 1286 :          * '**' vfpdef
; 1287 :          */
; 1288 :         if (start + 1 < nch)

  0022d	ff c7		 inc	 edi
  0022f	41 3b fd	 cmp	 edi, r13d
  00232	7d 4a		 jge	 SHORT $LN4@validate_v@2

; 1289 :             res = (validate_doublestar(CHILD(tree, start++))
; 1290 :                    && validate_vfpdef(CHILD(tree, start++)));

  00234	4c 8d 05 00 00
	00 00		 lea	 r8, OFFSET FLAT:??_C@_02FKAPCJPD@?$CK?$CK?$AA@
  0023b	ba 23 00 00 00	 mov	 edx, 35			; 00000023H
  00240	e8 00 00 00 00	 call	 validate_terminal
  00245	85 c0		 test	 eax, eax
  00247	0f 84 44 ff ff
	ff		 je	 $LN20@validate_v@2
  0024d	48 63 c7	 movsxd	 rax, edi
  00250	48 8d 0c 80	 lea	 rcx, QWORD PTR [rax+rax*4]
  00254	48 8b 46 20	 mov	 rax, QWORD PTR [rsi+32]
  00258	48 8d 0c c8	 lea	 rcx, QWORD PTR [rax+rcx*8]
  0025c	e8 00 00 00 00	 call	 validate_vfpdef
  00261	ff c7		 inc	 edi
  00263	85 c0		 test	 eax, eax
  00265	0f 84 26 ff ff
	ff		 je	 $LN20@validate_v@2
$LN31@validate_v@2:
  0026b	bb 01 00 00 00	 mov	 ebx, 1
$LN2@validate_v@2:

; 1299 :     }
; 1300 : 
; 1301 :     if (res && start != nch) {

  00270	41 3b fd	 cmp	 edi, r13d
  00273	74 20		 je	 SHORT $LN1@validate_v@2

; 1302 :         res = 0;
; 1303 :         err_string("unexpected extra children in varargslist trailer");

  00275	48 8d 0d 00 00
	00 00		 lea	 rcx, OFFSET FLAT:??_C@_0DB@DKCHLGHN@unexpected?5extra?5children?5in?5var@
  0027c	eb 10		 jmp	 SHORT $LN32@validate_v@2
$LN4@validate_v@2:

; 1291 :         else {
; 1292 :             res = 0;
; 1293 :             err_string("expected vfpdef after ** in varargslist trailer");

  0027e	48 8d 0d 00 00
	00 00		 lea	 rcx, OFFSET FLAT:??_C@_0DA@FACEPCPA@expected?5vfpdef?5after?5?$CK?$CK?5in?5vara@

; 1294 :         }
; 1295 :     }
; 1296 :     else {

  00285	eb 07		 jmp	 SHORT $LN32@validate_v@2
$LN5@validate_v@2:

; 1298 :         err_string("expected * or ** in varargslist trailer");

  00287	48 8d 0d 00 00
	00 00		 lea	 rcx, OFFSET FLAT:??_C@_0CI@EOOFKHNC@expected?5?$CK?5or?5?$CK?$CK?5in?5varargslist?5@
$LN32@validate_v@2:

; 1297 :         res = 0;

  0028e	33 db		 xor	 ebx, ebx

; 1298 :         err_string("expected * or ** in varargslist trailer");

  00290	e8 00 00 00 00	 call	 err_string
$LN1@validate_v@2:

; 1304 :     }
; 1305 :     return res;

  00295	4c 8b 7c 24 20	 mov	 r15, QWORD PTR [rsp+32]
  0029a	4c 8b 74 24 28	 mov	 r14, QWORD PTR [rsp+40]
  0029f	4c 8b 64 24 60	 mov	 r12, QWORD PTR [rsp+96]
  002a4	48 8b 6c 24 58	 mov	 rbp, QWORD PTR [rsp+88]
  002a9	8b c3		 mov	 eax, ebx
  002ab	48 8b 5c 24 50	 mov	 rbx, QWORD PTR [rsp+80]

; 1306 : }

  002b0	48 83 c4 30	 add	 rsp, 48			; 00000030H
  002b4	41 5d		 pop	 r13
  002b6	5f		 pop	 rdi
  002b7	5e		 pop	 rsi
  002b8	c3		 ret	 0
validate_varargslist_trailer ENDP
_TEXT	ENDS
PUBLIC	??_C@_0CC@HEHOEFB@illegal?5formation?5for?5varargslis@ ; `string'
PUBLIC	??_C@_0CA@BFNDAGCM@varargslist?5missing?5child?5nodes?$AA@ ; `string'
;	COMDAT pdata
pdata	SEGMENT
$pdata$validate_varargslist DD imagerel validate_varargslist
	DD	imagerel validate_varargslist+108
	DD	imagerel $unwind$validate_varargslist
pdata	ENDS
;	COMDAT pdata
pdata	SEGMENT
$pdata$3$validate_varargslist DD imagerel validate_varargslist+108
	DD	imagerel validate_varargslist+429
	DD	imagerel $chain$3$validate_varargslist
pdata	ENDS
;	COMDAT pdata
pdata	SEGMENT
$pdata$4$validate_varargslist DD imagerel validate_varargslist+429
	DD	imagerel validate_varargslist+447
	DD	imagerel $chain$4$validate_varargslist
pdata	ENDS
;	COMDAT xdata
xdata	SEGMENT
$chain$4$validate_varargslist DD 021H
	DD	imagerel validate_varargslist
	DD	imagerel validate_varargslist+108
	DD	imagerel $unwind$validate_varargslist
xdata	ENDS
;	COMDAT xdata
xdata	SEGMENT
$chain$3$validate_varargslist DD 060f21H
	DD	04e40fH
	DD	0cc40aH
	DD	0a6405H
	DD	imagerel validate_varargslist
	DD	imagerel validate_varargslist+108
	DD	imagerel $unwind$validate_varargslist
xdata	ENDS
;	COMDAT xdata
xdata	SEGMENT
$unwind$validate_varargslist DD 076101H
	DD	0b7461H
	DD	0f007420bH
	DD	05003d005H
	DD	03002H
xdata	ENDS
;	COMDAT ??_C@_0CC@HEHOEFB@illegal?5formation?5for?5varargslis@
CONST	SEGMENT
??_C@_0CC@HEHOEFB@illegal?5formation?5for?5varargslis@ DB 'illegal format'
	DB	'ion for varargslist', 00H			; `string'
CONST	ENDS
;	COMDAT ??_C@_0CA@BFNDAGCM@varargslist?5missing?5child?5nodes?$AA@
CONST	SEGMENT
??_C@_0CA@BFNDAGCM@varargslist?5missing?5child?5nodes?$AA@ DB 'varargslis'
	DB	't missing child nodes', 00H			; `string'
; Function compile flags: /Ogtpy
CONST	ENDS
;	COMDAT validate_varargslist
_TEXT	SEGMENT
tree$ = 80
validate_varargslist PROC				; COMDAT

; 1327 : {

  00000	40 53		 push	 rbx
  00002	55		 push	 rbp
  00003	41 55		 push	 r13
  00005	41 57		 push	 r15
  00007	48 83 ec 28	 sub	 rsp, 40			; 00000028H

; 1328 :     int nch = NCH(tree);
; 1329 :     int res = (TYPE(tree) == varargslist ||
; 1330 :                TYPE(tree) == typedargslist) &&
; 1331 :               (nch != 0);

  0000b	0f b7 01	 movzx	 eax, WORD PTR [rcx]
  0000e	4c 63 79 18	 movsxd	 r15, DWORD PTR [rcx+24]
  00012	4c 8b e9	 mov	 r13, rcx
  00015	b9 0a 01 00 00	 mov	 ecx, 266		; 0000010aH
  0001a	66 3b c1	 cmp	 ax, cx
  0001d	74 0a		 je	 SHORT $LN16@validate_v@3
  0001f	b9 08 01 00 00	 mov	 ecx, 264		; 00000108H
  00024	66 3b c1	 cmp	 ax, cx
  00027	75 0c		 jne	 SHORT $LN17@validate_v@3
$LN16@validate_v@3:
  00029	45 85 ff	 test	 r15d, r15d
  0002c	74 07		 je	 SHORT $LN17@validate_v@3
  0002e	bb 01 00 00 00	 mov	 ebx, 1
  00033	eb 02		 jmp	 SHORT $LN18@validate_v@3
$LN17@validate_v@3:
  00035	33 db		 xor	 ebx, ebx
$LN18@validate_v@3:

; 1332 :     int sym;
; 1333 :     node *ch;
; 1334 :     int i = 0;

  00037	33 ed		 xor	 ebp, ebp

; 1335 : 
; 1336 :     if (!res)

  00039	85 db		 test	 ebx, ebx

; 1337 :         return 0;

  0003b	74 12		 je	 SHORT $LN30@validate_v@3

; 1338 :     if (nch < 1) {

  0003d	41 83 ff 01	 cmp	 r15d, 1
  00041	7d 19		 jge	 SHORT $LN21@validate_v@3

; 1339 :         err_string("varargslist missing child nodes");

  00043	48 8d 0d 00 00
	00 00		 lea	 rcx, OFFSET FLAT:??_C@_0CA@BFNDAGCM@varargslist?5missing?5child?5nodes?$AA@
  0004a	e8 00 00 00 00	 call	 err_string
$LN30@validate_v@3:

; 1340 :         return 0;

  0004f	33 c0		 xor	 eax, eax

; 1368 : }

  00051	48 83 c4 28	 add	 rsp, 40			; 00000028H
  00055	41 5f		 pop	 r15
  00057	41 5d		 pop	 r13
  00059	5d		 pop	 rbp
  0005a	5b		 pop	 rbx
  0005b	c3		 ret	 0
$LN21@validate_v@3:
  0005c	48 89 7c 24 58	 mov	 QWORD PTR [rsp+88], rdi

; 1332 :     int sym;
; 1333 :     node *ch;
; 1334 :     int i = 0;

  00061	33 ff		 xor	 edi, edi

; 1341 :     }
; 1342 :     while (i < nch) {

  00063	45 85 ff	 test	 r15d, r15d
  00066	0f 8e 41 01 00
	00		 jle	 $LN26@validate_v@3

; 1332 :     int sym;
; 1333 :     node *ch;
; 1334 :     int i = 0;

  0006c	48 89 74 24 50	 mov	 QWORD PTR [rsp+80], rsi
  00071	4c 89 64 24 60	 mov	 QWORD PTR [rsp+96], r12
  00076	4c 89 74 24 20	 mov	 QWORD PTR [rsp+32], r14
  0007b	44 8d 77 01	 lea	 r14d, QWORD PTR [rdi+1]
  0007f	33 f6		 xor	 esi, esi
  00081	44 8d 67 02	 lea	 r12d, QWORD PTR [rdi+2]
  00085	66 66 66 0f 1f
	84 00 00 00 00
	00		 npad	 11
$LL11@validate_v@3:

; 1343 :         ch = CHILD(tree, i);

  00090	49 8b 45 20	 mov	 rax, QWORD PTR [r13+32]
  00094	48 8d 0c 06	 lea	 rcx, QWORD PTR [rsi+rax]

; 1344 :         sym = TYPE(ch);

  00098	0f bf 04 06	 movsx	 eax, WORD PTR [rsi+rax]

; 1345 :         if (sym == vfpdef || sym == tfpdef) {

  0009c	3d 0b 01 00 00	 cmp	 eax, 267		; 0000010bH
  000a1	74 2c		 je	 SHORT $LN8@validate_v@3
  000a3	3d 09 01 00 00	 cmp	 eax, 265		; 00000109H
  000a8	74 25		 je	 SHORT $LN8@validate_v@3

; 1358 :             }
; 1359 :         } else if (sym == DOUBLESTAR || sym == STAR) {

  000aa	83 f8 23	 cmp	 eax, 35			; 00000023H
  000ad	0f 84 df 00 00
	00		 je	 $LN22@validate_v@3
  000b3	83 f8 10	 cmp	 eax, 16
  000b6	0f 84 d6 00 00
	00		 je	 $LN22@validate_v@3

; 1361 :             break;
; 1362 :         } else {
; 1363 :             res = 0;
; 1364 :             err_string("illegal formation for varargslist");

  000bc	48 8d 0d 00 00
	00 00		 lea	 rcx, OFFSET FLAT:??_C@_0CC@HEHOEFB@illegal?5formation?5for?5varargslis@
  000c3	33 db		 xor	 ebx, ebx
  000c5	e8 00 00 00 00	 call	 err_string
  000ca	e9 b4 00 00 00	 jmp	 $LN5@validate_v@3
$LN8@validate_v@3:

; 1346 :             /* validate (vfpdef ['=' test] ',')+ */
; 1347 :             res = validate_vfpdef(ch);

  000cf	e8 00 00 00 00	 call	 validate_vfpdef

; 1348 :             ++i;

  000d4	ff c5		 inc	 ebp
  000d6	41 ff c4	 inc	 r12d
  000d9	41 ff c6	 inc	 r14d
  000dc	48 ff c7	 inc	 rdi
  000df	48 83 c6 28	 add	 rsi, 40			; 00000028H
  000e3	8b d8		 mov	 ebx, eax

; 1349 :             if (res && (i+2 <= nch) && TYPE(CHILD(tree, i)) == EQUAL) {

  000e5	85 c0		 test	 eax, eax
  000e7	0f 84 96 00 00
	00		 je	 $LN5@validate_v@3
  000ed	45 3b e7	 cmp	 r12d, r15d
  000f0	7f 5b		 jg	 SHORT $LN6@validate_v@3
  000f2	49 8b 55 20	 mov	 rdx, QWORD PTR [r13+32]
  000f6	66 83 3c 16 16	 cmp	 WORD PTR [rsi+rdx], 22
  000fb	75 50		 jne	 SHORT $LN6@validate_v@3

; 1350 :                 res = (validate_equal(CHILD(tree, i))
; 1351 :                        && validate_test(CHILD(tree, i+1)));

  000fd	48 63 c5	 movsxd	 rax, ebp
  00100	4c 8d 05 00 00
	00 00		 lea	 r8, OFFSET FLAT:??_C@_01NEMOKFLO@?$DN?$AA@
  00107	48 8d 0c 80	 lea	 rcx, QWORD PTR [rax+rax*4]
  0010b	48 8d 0c ca	 lea	 rcx, QWORD PTR [rdx+rcx*8]
  0010f	ba 16 00 00 00	 mov	 edx, 22
  00114	e8 00 00 00 00	 call	 validate_terminal
  00119	85 c0		 test	 eax, eax
  0011b	74 71		 je	 SHORT $LN19@validate_v@3
  0011d	49 63 c6	 movsxd	 rax, r14d
  00120	48 8d 0c 80	 lea	 rcx, QWORD PTR [rax+rax*4]
  00124	49 8b 45 20	 mov	 rax, QWORD PTR [r13+32]
  00128	48 8d 0c c8	 lea	 rcx, QWORD PTR [rax+rcx*8]
  0012c	e8 00 00 00 00	 call	 validate_test
  00131	85 c0		 test	 eax, eax
  00133	74 59		 je	 SHORT $LN19@validate_v@3

; 1353 :                   i += 2;

  00135	83 c5 02	 add	 ebp, 2
  00138	41 83 c4 02	 add	 r12d, 2
  0013c	41 83 c6 02	 add	 r14d, 2
  00140	48 83 c7 02	 add	 rdi, 2
  00144	bb 01 00 00 00	 mov	 ebx, 1
  00149	48 83 c6 50	 add	 rsi, 80			; 00000050H
$LN6@validate_v@3:

; 1354 :             }
; 1355 :             if (res && i < nch) {

  0014d	49 3b ff	 cmp	 rdi, r15
  00150	7d 4c		 jge	 SHORT $LN29@validate_v@3

; 1356 :                 res = validate_comma(CHILD(tree, i));

  00152	48 63 c5	 movsxd	 rax, ebp
  00155	4c 8d 05 00 00
	00 00		 lea	 r8, OFFSET FLAT:??_C@_01IHBHIGKO@?0?$AA@
  0015c	ba 0c 00 00 00	 mov	 edx, 12
  00161	48 8d 0c 80	 lea	 rcx, QWORD PTR [rax+rax*4]
  00165	49 8b 45 20	 mov	 rax, QWORD PTR [r13+32]
  00169	48 8d 0c c8	 lea	 rcx, QWORD PTR [rax+rcx*8]
  0016d	e8 00 00 00 00	 call	 validate_terminal

; 1357 :                 ++i;

  00172	ff c5		 inc	 ebp
  00174	41 ff c4	 inc	 r12d
  00177	41 ff c6	 inc	 r14d
  0017a	48 ff c7	 inc	 rdi
  0017d	8b d8		 mov	 ebx, eax
  0017f	48 83 c6 28	 add	 rsi, 40			; 00000028H
$LN5@validate_v@3:

; 1341 :     }
; 1342 :     while (i < nch) {

  00183	49 3b ff	 cmp	 rdi, r15
  00186	0f 8c 04 ff ff
	ff		 jl	 $LL11@validate_v@3
  0018c	eb 10		 jmp	 SHORT $LN29@validate_v@3
$LN19@validate_v@3:

; 1350 :                 res = (validate_equal(CHILD(tree, i))
; 1351 :                        && validate_test(CHILD(tree, i+1)));

  0018e	33 db		 xor	 ebx, ebx

; 1352 :                 if (res)

  00190	eb f1		 jmp	 SHORT $LN5@validate_v@3
$LN22@validate_v@3:

; 1360 :             res = validate_varargslist_trailer(tree, i);

  00192	8b d5		 mov	 edx, ebp
  00194	49 8b cd	 mov	 rcx, r13
  00197	e8 00 00 00 00	 call	 validate_varargslist_trailer
  0019c	8b d8		 mov	 ebx, eax
$LN29@validate_v@3:
  0019e	4c 8b 64 24 60	 mov	 r12, QWORD PTR [rsp+96]
  001a3	48 8b 74 24 50	 mov	 rsi, QWORD PTR [rsp+80]
  001a8	4c 8b 74 24 20	 mov	 r14, QWORD PTR [rsp+32]
$LN26@validate_v@3:

; 1365 :         }
; 1366 :     }
; 1367 :     return res;

  001ad	8b c3		 mov	 eax, ebx
  001af	48 8b 7c 24 58	 mov	 rdi, QWORD PTR [rsp+88]

; 1368 : }

  001b4	48 83 c4 28	 add	 rsp, 40			; 00000028H
  001b8	41 5f		 pop	 r15
  001ba	41 5d		 pop	 r13
  001bc	5d		 pop	 rbp
  001bd	5b		 pop	 rbx
  001be	c3		 ret	 0
validate_varargslist ENDP
_TEXT	ENDS
PUBLIC	??_C@_0CF@EJAOEKGC@Illegal?5compound?5statement?5type?3@ ; `string'
PUBLIC	??_C@_0O@DDEPOMNL@compound_stmt?$AA@		; `string'
;	COMDAT pdata
pdata	SEGMENT
$pdata$validate_compound_stmt DD imagerel validate_compound_stmt
	DD	imagerel validate_compound_stmt+181
	DD	imagerel $unwind$validate_compound_stmt
pdata	ENDS
;	COMDAT xdata
xdata	SEGMENT
$unwind$validate_compound_stmt DD 020601H
	DD	030023206H
xdata	ENDS
;	COMDAT ??_C@_0CF@EJAOEKGC@Illegal?5compound?5statement?5type?3@
CONST	SEGMENT
??_C@_0CF@EJAOEKGC@Illegal?5compound?5statement?5type?3@ DB 'Illegal comp'
	DB	'ound statement type: %d.', 00H		; `string'
CONST	ENDS
;	COMDAT ??_C@_0O@DDEPOMNL@compound_stmt?$AA@
CONST	SEGMENT
??_C@_0O@DDEPOMNL@compound_stmt?$AA@ DB 'compound_stmt', 00H ; `string'
; Function compile flags: /Ogtpy
CONST	ENDS
;	COMDAT validate_compound_stmt
_TEXT	SEGMENT
tree$ = 48
validate_compound_stmt PROC				; COMDAT

; 1516 : {

  00000	40 53		 push	 rbx
  00002	48 83 ec 20	 sub	 rsp, 32			; 00000020H

; 1517 :     int res = (validate_ntype(tree, compound_stmt)
; 1518 :                && validate_numnodes(tree, 1, "compound_stmt"));

  00006	ba 25 01 00 00	 mov	 edx, 293		; 00000125H
  0000b	48 8b d9	 mov	 rbx, rcx
  0000e	e8 00 00 00 00	 call	 validate_ntype
  00013	85 c0		 test	 eax, eax
  00015	0f 84 92 00 00
	00		 je	 $LN7@validate_c
  0001b	4c 8d 05 00 00
	00 00		 lea	 r8, OFFSET FLAT:??_C@_0O@DDEPOMNL@compound_stmt?$AA@
  00022	ba 01 00 00 00	 mov	 edx, 1
  00027	48 8b cb	 mov	 rcx, rbx
  0002a	e8 00 00 00 00	 call	 validate_numnodes
  0002f	85 c0		 test	 eax, eax
  00031	74 7a		 je	 SHORT $LN7@validate_c

; 1523 : 
; 1524 :     tree = CHILD(tree, 0);

  00033	48 8b 4b 20	 mov	 rcx, QWORD PTR [rbx+32]

; 1525 :     ntype = TYPE(tree);

  00037	44 0f bf 01	 movsx	 r8d, WORD PTR [rcx]

; 1526 :     if (  (ntype == if_stmt)
; 1527 :           || (ntype == while_stmt)
; 1528 :           || (ntype == for_stmt)
; 1529 :           || (ntype == try_stmt)
; 1530 :           || (ntype == with_stmt)
; 1531 :           || (ntype == funcdef)
; 1532 :           || (ntype == classdef)
; 1533 :           || (ntype == decorated))

  0003b	41 81 f8 26 01
	00 00		 cmp	 r8d, 294		; 00000126H
  00042	74 5c		 je	 SHORT $LN2@validate_c
  00044	41 81 f8 27 01
	00 00		 cmp	 r8d, 295		; 00000127H
  0004b	74 53		 je	 SHORT $LN2@validate_c
  0004d	41 81 f8 28 01
	00 00		 cmp	 r8d, 296		; 00000128H
  00054	74 4a		 je	 SHORT $LN2@validate_c
  00056	41 81 f8 29 01
	00 00		 cmp	 r8d, 297		; 00000129H
  0005d	74 41		 je	 SHORT $LN2@validate_c
  0005f	41 81 f8 2a 01
	00 00		 cmp	 r8d, 298		; 0000012aH
  00066	74 38		 je	 SHORT $LN2@validate_c
  00068	41 81 f8 06 01
	00 00		 cmp	 r8d, 262		; 00000106H
  0006f	74 2f		 je	 SHORT $LN2@validate_c
  00071	41 81 f8 49 01
	00 00		 cmp	 r8d, 329		; 00000149H
  00078	74 26		 je	 SHORT $LN2@validate_c
  0007a	41 81 f8 05 01
	00 00		 cmp	 r8d, 261		; 00000105H
  00081	74 1d		 je	 SHORT $LN2@validate_c

; 1535 :     else {
; 1536 :         res = 0;
; 1537 :         PyErr_Format(parser_error,
; 1538 :                      "Illegal compound statement type: %d.", TYPE(tree));

  00083	48 8b 0d 00 00
	00 00		 mov	 rcx, QWORD PTR parser_error
  0008a	48 8d 15 00 00
	00 00		 lea	 rdx, OFFSET FLAT:??_C@_0CF@EJAOEKGC@Illegal?5compound?5statement?5type?3@
  00091	33 db		 xor	 ebx, ebx
  00093	e8 00 00 00 00	 call	 PyErr_Format

; 1539 :     }
; 1540 :     return (res);

  00098	8b c3		 mov	 eax, ebx

; 1541 : }

  0009a	48 83 c4 20	 add	 rsp, 32			; 00000020H
  0009e	5b		 pop	 rbx
  0009f	c3		 ret	 0
$LN2@validate_c:

; 1534 :         res = validate_node(tree);

  000a0	e8 00 00 00 00	 call	 validate_node
  000a5	8b d8		 mov	 ebx, eax

; 1541 : }

  000a7	48 83 c4 20	 add	 rsp, 32			; 00000020H
  000ab	5b		 pop	 rbx
  000ac	c3		 ret	 0
$LN7@validate_c:

; 1519 :     int ntype;
; 1520 : 
; 1521 :     if (!res)
; 1522 :         return (0);

  000ad	33 c0		 xor	 eax, eax

; 1541 : }

  000af	48 83 c4 20	 add	 rsp, 32			; 00000020H
  000b3	5b		 pop	 rbx
  000b4	c3		 ret	 0
validate_compound_stmt ENDP
_TEXT	ENDS
PUBLIC	??_C@_06LNOFJDNM@return?$AA@			; `string'
;	COMDAT pdata
pdata	SEGMENT
$pdata$validate_return_stmt DD imagerel validate_return_stmt
	DD	imagerel validate_return_stmt+122
	DD	imagerel $unwind$validate_return_stmt
pdata	ENDS
;	COMDAT xdata
xdata	SEGMENT
$unwind$validate_return_stmt DD 040a01H
	DD	06340aH
	DD	07006320aH
xdata	ENDS
;	COMDAT ??_C@_06LNOFJDNM@return?$AA@
CONST	SEGMENT
??_C@_06LNOFJDNM@return?$AA@ DB 'return', 00H		; `string'
; Function compile flags: /Ogtpy
CONST	ENDS
;	COMDAT validate_return_stmt
_TEXT	SEGMENT
tree$ = 48
validate_return_stmt PROC				; COMDAT

; 1610 : {

  00000	48 89 5c 24 08	 mov	 QWORD PTR [rsp+8], rbx
  00005	57		 push	 rdi
  00006	48 83 ec 20	 sub	 rsp, 32			; 00000020H

; 1611 :     int nch = NCH(tree);

  0000a	8b 59 18	 mov	 ebx, DWORD PTR [rcx+24]

; 1612 :     int res = (validate_ntype(tree, return_stmt)
; 1613 :                && ((nch == 1) || (nch == 2))
; 1614 :                && validate_name(CHILD(tree, 0), "return"));

  0000d	ba 17 01 00 00	 mov	 edx, 279		; 00000117H
  00012	48 8b f9	 mov	 rdi, rcx
  00015	e8 00 00 00 00	 call	 validate_ntype
  0001a	85 c0		 test	 eax, eax
  0001c	74 4f		 je	 SHORT $LN5@validate_r@2
  0001e	83 fb 01	 cmp	 ebx, 1
  00021	74 05		 je	 SHORT $LN4@validate_r@2
  00023	83 fb 02	 cmp	 ebx, 2
  00026	75 45		 jne	 SHORT $LN5@validate_r@2
$LN4@validate_r@2:
  00028	48 8b 4f 20	 mov	 rcx, QWORD PTR [rdi+32]
  0002c	4c 8d 05 00 00
	00 00		 lea	 r8, OFFSET FLAT:??_C@_06LNOFJDNM@return?$AA@
  00033	ba 01 00 00 00	 mov	 edx, 1
  00038	e8 00 00 00 00	 call	 validate_terminal
  0003d	85 c0		 test	 eax, eax
  0003f	74 2c		 je	 SHORT $LN5@validate_r@2

; 1615 : 
; 1616 :     if (res && (nch == 2))

  00041	83 fb 02	 cmp	 ebx, 2
  00044	75 17		 jne	 SHORT $LN8@validate_r@2

; 1617 :         res = validate_testlist(CHILD(tree, 1));

  00046	48 8b 4f 20	 mov	 rcx, QWORD PTR [rdi+32]
  0004a	48 83 c1 28	 add	 rcx, 40			; 00000028H

; 1620 : }

  0004e	48 8b 5c 24 30	 mov	 rbx, QWORD PTR [rsp+48]
  00053	48 83 c4 20	 add	 rsp, 32			; 00000020H
  00057	5f		 pop	 rdi
  00058	e9 00 00 00 00	 jmp	 validate_testlist
$LN8@validate_r@2:

; 1618 : 
; 1619 :     return (res);

  0005d	b8 01 00 00 00	 mov	 eax, 1

; 1620 : }

  00062	48 8b 5c 24 30	 mov	 rbx, QWORD PTR [rsp+48]
  00067	48 83 c4 20	 add	 rsp, 32			; 00000020H
  0006b	5f		 pop	 rdi
  0006c	c3		 ret	 0
$LN5@validate_r@2:

; 1618 : 
; 1619 :     return (res);

  0006d	33 c0		 xor	 eax, eax

; 1620 : }

  0006f	48 8b 5c 24 30	 mov	 rbx, QWORD PTR [rsp+48]
  00074	48 83 c4 20	 add	 rsp, 32			; 00000020H
  00078	5f		 pop	 rdi
  00079	c3		 ret	 0
validate_return_stmt ENDP
_TEXT	ENDS
PUBLIC	??_C@_04HNEBHLOP@from?$AA@			; `string'
;	COMDAT pdata
pdata	SEGMENT
$pdata$validate_yield_arg DD imagerel validate_yield_arg
	DD	imagerel validate_yield_arg+120
	DD	imagerel $unwind$validate_yield_arg
pdata	ENDS
;	COMDAT xdata
xdata	SEGMENT
$unwind$validate_yield_arg DD 040a01H
	DD	06340aH
	DD	07006320aH
xdata	ENDS
;	COMDAT ??_C@_04HNEBHLOP@from?$AA@
CONST	SEGMENT
??_C@_04HNEBHLOP@from?$AA@ DB 'from', 00H		; `string'
; Function compile flags: /Ogtpy
CONST	ENDS
;	COMDAT validate_yield_arg
_TEXT	SEGMENT
tree$ = 48
validate_yield_arg PROC					; COMDAT

; 1674 : {

  00000	48 89 5c 24 08	 mov	 QWORD PTR [rsp+8], rbx
  00005	57		 push	 rdi
  00006	48 83 ec 20	 sub	 rsp, 32			; 00000020H

; 1675 :     int nch = NCH(tree);

  0000a	8b 59 18	 mov	 ebx, DWORD PTR [rcx+24]

; 1676 :     if (!validate_ntype(tree, yield_arg))

  0000d	ba 51 01 00 00	 mov	 edx, 337		; 00000151H
  00012	48 8b f9	 mov	 rdi, rcx
  00015	e8 00 00 00 00	 call	 validate_ntype
  0001a	85 c0		 test	 eax, eax

; 1677 :         return 0;

  0001c	74 30		 je	 SHORT $LN12@validate_y

; 1678 :     switch (nch) {

  0001e	ff cb		 dec	 ebx
  00020	74 39		 je	 SHORT $LN6@validate_y
  00022	ff cb		 dec	 ebx

; 1688 :         break;
; 1689 :       default:
; 1690 :         return 0;

  00024	75 28		 jne	 SHORT $LN12@validate_y

; 1682 :         break;
; 1683 :       case 2:
; 1684 :         if (!validate_name(CHILD(tree, 0), "from"))

  00026	48 8b 4f 20	 mov	 rcx, QWORD PTR [rdi+32]
  0002a	4c 8d 05 00 00
	00 00		 lea	 r8, OFFSET FLAT:??_C@_04HNEBHLOP@from?$AA@
  00031	8d 53 01	 lea	 edx, QWORD PTR [rbx+1]
  00034	e8 00 00 00 00	 call	 validate_terminal
  00039	85 c0		 test	 eax, eax

; 1685 :             return 0;

  0003b	74 11		 je	 SHORT $LN12@validate_y

; 1686 :         if (!validate_test(CHILD(tree, 1)))

  0003d	48 8b 4f 20	 mov	 rcx, QWORD PTR [rdi+32]
  00041	48 83 c1 28	 add	 rcx, 40			; 00000028H
  00045	e8 00 00 00 00	 call	 validate_test
  0004a	85 c0		 test	 eax, eax
  0004c	75 1a		 jne	 SHORT $LN5@validate_y
$LN12@validate_y:

; 1687 :             return 0;

  0004e	33 c0		 xor	 eax, eax

; 1693 : }

  00050	48 8b 5c 24 30	 mov	 rbx, QWORD PTR [rsp+48]
  00055	48 83 c4 20	 add	 rsp, 32			; 00000020H
  00059	5f		 pop	 rdi
  0005a	c3		 ret	 0
$LN6@validate_y:

; 1679 :       case 1:
; 1680 :         if (!validate_testlist(CHILD(tree, nch - 1)))

  0005b	48 8b 4f 20	 mov	 rcx, QWORD PTR [rdi+32]
  0005f	e8 00 00 00 00	 call	 validate_testlist
  00064	85 c0		 test	 eax, eax

; 1681 :             return 0;

  00066	74 e6		 je	 SHORT $LN12@validate_y
$LN5@validate_y:

; 1691 :     }
; 1692 :     return 1;

  00068	b8 01 00 00 00	 mov	 eax, 1

; 1693 : }

  0006d	48 8b 5c 24 30	 mov	 rbx, QWORD PTR [rsp+48]
  00072	48 83 c4 20	 add	 rsp, 32			; 00000020H
  00076	5f		 pop	 rdi
  00077	c3		 ret	 0
validate_yield_arg ENDP
_TEXT	ENDS
PUBLIC	??_C@_0P@PCHGNAAG@import_as_name?$AA@		; `string'
PUBLIC	??_C@_02ENLJKNMP@as?$AA@			; `string'
;	COMDAT pdata
pdata	SEGMENT
$pdata$validate_import_as_name DD imagerel validate_import_as_name
	DD	imagerel validate_import_as_name+195
	DD	imagerel $unwind$validate_import_as_name
pdata	ENDS
;	COMDAT xdata
xdata	SEGMENT
$unwind$validate_import_as_name DD 040a01H
	DD	06340aH
	DD	07006320aH
xdata	ENDS
;	COMDAT ??_C@_0P@PCHGNAAG@import_as_name?$AA@
CONST	SEGMENT
??_C@_0P@PCHGNAAG@import_as_name?$AA@ DB 'import_as_name', 00H ; `string'
CONST	ENDS
;	COMDAT ??_C@_02ENLJKNMP@as?$AA@
CONST	SEGMENT
??_C@_02ENLJKNMP@as?$AA@ DB 'as', 00H			; `string'
; Function compile flags: /Ogtpy
CONST	ENDS
;	COMDAT validate_import_as_name
_TEXT	SEGMENT
tree$ = 48
validate_import_as_name PROC				; COMDAT

; 1708 : {

  00000	48 89 5c 24 08	 mov	 QWORD PTR [rsp+8], rbx
  00005	57		 push	 rdi
  00006	48 83 ec 20	 sub	 rsp, 32			; 00000020H

; 1709 :     int nch = NCH(tree);

  0000a	8b 59 18	 mov	 ebx, DWORD PTR [rcx+24]

; 1710 :     int ok = validate_ntype(tree, import_as_name);

  0000d	ba 1d 01 00 00	 mov	 edx, 285		; 0000011dH
  00012	48 8b f9	 mov	 rdi, rcx
  00015	e8 00 00 00 00	 call	 validate_ntype

; 1711 : 
; 1712 :     if (ok) {

  0001a	85 c0		 test	 eax, eax
  0001c	0f 84 96 00 00
	00		 je	 $LN10@validate_i

; 1713 :         if (nch == 1)

  00022	83 fb 01	 cmp	 ebx, 1
  00025	75 18		 jne	 SHORT $LN4@validate_i

; 1714 :             ok = validate_name(CHILD(tree, 0), NULL);

  00027	48 8b 4f 20	 mov	 rcx, QWORD PTR [rdi+32]
  0002b	45 33 c0	 xor	 r8d, r8d
  0002e	8b d3		 mov	 edx, ebx

; 1723 : }

  00030	48 8b 5c 24 30	 mov	 rbx, QWORD PTR [rsp+48]
  00035	48 83 c4 20	 add	 rsp, 32			; 00000020H
  00039	5f		 pop	 rdi
  0003a	e9 00 00 00 00	 jmp	 validate_terminal
$LN4@validate_i:

; 1715 :         else if (nch == 3)

  0003f	83 fb 03	 cmp	 ebx, 3
  00042	75 60		 jne	 SHORT $LN2@validate_i

; 1716 :             ok = (validate_name(CHILD(tree, 0), NULL)
; 1717 :                   && validate_name(CHILD(tree, 1), "as")
; 1718 :                   && validate_name(CHILD(tree, 2), NULL));

  00044	48 8b 4f 20	 mov	 rcx, QWORD PTR [rdi+32]
  00048	8d 53 fe	 lea	 edx, QWORD PTR [rbx-2]
  0004b	45 33 c0	 xor	 r8d, r8d
  0004e	e8 00 00 00 00	 call	 validate_terminal
  00053	85 c0		 test	 eax, eax
  00055	74 40		 je	 SHORT $LN8@validate_i
  00057	48 8b 4f 20	 mov	 rcx, QWORD PTR [rdi+32]
  0005b	4c 8d 05 00 00
	00 00		 lea	 r8, OFFSET FLAT:??_C@_02ENLJKNMP@as?$AA@
  00062	8d 53 fe	 lea	 edx, QWORD PTR [rbx-2]
  00065	48 83 c1 28	 add	 rcx, 40			; 00000028H
  00069	e8 00 00 00 00	 call	 validate_terminal
  0006e	85 c0		 test	 eax, eax
  00070	74 25		 je	 SHORT $LN8@validate_i
  00072	48 8b 4f 20	 mov	 rcx, QWORD PTR [rdi+32]
  00076	8d 53 fe	 lea	 edx, QWORD PTR [rbx-2]
  00079	45 33 c0	 xor	 r8d, r8d
  0007c	48 83 c1 50	 add	 rcx, 80			; 00000050H
  00080	e8 00 00 00 00	 call	 validate_terminal
  00085	85 c0		 test	 eax, eax
  00087	74 0e		 je	 SHORT $LN8@validate_i

; 1721 :     }
; 1722 :     return ok;

  00089	8d 43 fe	 lea	 eax, QWORD PTR [rbx-2]

; 1723 : }

  0008c	48 8b 5c 24 30	 mov	 rbx, QWORD PTR [rsp+48]
  00091	48 83 c4 20	 add	 rsp, 32			; 00000020H
  00095	5f		 pop	 rdi
  00096	c3		 ret	 0
$LN8@validate_i:

; 1721 :     }
; 1722 :     return ok;

  00097	33 c0		 xor	 eax, eax

; 1723 : }

  00099	48 8b 5c 24 30	 mov	 rbx, QWORD PTR [rsp+48]
  0009e	48 83 c4 20	 add	 rsp, 32			; 00000020H
  000a2	5f		 pop	 rdi
  000a3	c3		 ret	 0
$LN2@validate_i:

; 1719 :         else
; 1720 :             ok = validate_numnodes(tree, 3, "import_as_name");

  000a4	4c 8d 05 00 00
	00 00		 lea	 r8, OFFSET FLAT:??_C@_0P@PCHGNAAG@import_as_name?$AA@
  000ab	ba 03 00 00 00	 mov	 edx, 3
  000b0	48 8b cf	 mov	 rcx, rdi
  000b3	e8 00 00 00 00	 call	 validate_numnodes
$LN10@validate_i:

; 1723 : }

  000b8	48 8b 5c 24 30	 mov	 rbx, QWORD PTR [rsp+48]
  000bd	48 83 c4 20	 add	 rsp, 32			; 00000020H
  000c1	5f		 pop	 rdi
  000c2	c3		 ret	 0
validate_import_as_name ENDP
_TEXT	ENDS
PUBLIC	??_C@_01LFCBOECM@?4?$AA@			; `string'
;	COMDAT pdata
pdata	SEGMENT
$pdata$validate_dotted_name DD imagerel validate_dotted_name
	DD	imagerel validate_dotted_name+186
	DD	imagerel $unwind$validate_dotted_name
pdata	ENDS
;	COMDAT xdata
xdata	SEGMENT
$unwind$validate_dotted_name DD 060f01H
	DD	07640fH
	DD	06340fH
	DD	0700b320fH
xdata	ENDS
;	COMDAT ??_C@_01LFCBOECM@?4?$AA@
CONST	SEGMENT
??_C@_01LFCBOECM@?4?$AA@ DB '.', 00H			; `string'
; Function compile flags: /Ogtpy
CONST	ENDS
;	COMDAT validate_dotted_name
_TEXT	SEGMENT
tree$ = 48
validate_dotted_name PROC				; COMDAT

; 1730 : {

  00000	48 89 5c 24 08	 mov	 QWORD PTR [rsp+8], rbx
  00005	48 89 74 24 10	 mov	 QWORD PTR [rsp+16], rsi
  0000a	57		 push	 rdi
  0000b	48 83 ec 20	 sub	 rsp, 32			; 00000020H

; 1731 :     int nch = NCH(tree);

  0000f	8b 79 18	 mov	 edi, DWORD PTR [rcx+24]

; 1732 :     int res = (validate_ntype(tree, dotted_name)
; 1733 :                && is_odd(nch)
; 1734 :                && validate_name(CHILD(tree, 0), NULL));

  00012	ba 21 01 00 00	 mov	 edx, 289		; 00000121H
  00017	48 8b f1	 mov	 rsi, rcx
  0001a	e8 00 00 00 00	 call	 validate_ntype
  0001f	85 c0		 test	 eax, eax
  00021	74 21		 je	 SHORT $LN6@validate_d
  00023	40 f6 c7 01	 test	 dil, 1
  00027	74 1b		 je	 SHORT $LN6@validate_d
  00029	48 8b 4e 20	 mov	 rcx, QWORD PTR [rsi+32]
  0002d	45 33 c0	 xor	 r8d, r8d
  00030	41 8d 50 01	 lea	 edx, QWORD PTR [r8+1]
  00034	e8 00 00 00 00	 call	 validate_terminal
  00039	85 c0		 test	 eax, eax
  0003b	74 07		 je	 SHORT $LN6@validate_d
  0003d	b8 01 00 00 00	 mov	 eax, 1
  00042	eb 02		 jmp	 SHORT $LN7@validate_d
$LN6@validate_d:
  00044	33 c0		 xor	 eax, eax
$LN7@validate_d:

; 1735 :     int i;
; 1736 : 
; 1737 :     for (i = 1; res && (i < nch); i += 2) {

  00046	bb 01 00 00 00	 mov	 ebx, 1
  0004b	85 c0		 test	 eax, eax
  0004d	74 5b		 je	 SHORT $LN12@validate_d
  0004f	90		 npad	 1
$LL3@validate_d:
  00050	3b df		 cmp	 ebx, edi
  00052	7d 56		 jge	 SHORT $LN12@validate_d

; 1738 :         res = (validate_dot(CHILD(tree, i))
; 1739 :                && validate_name(CHILD(tree, i+1), NULL));

  00054	48 63 c3	 movsxd	 rax, ebx
  00057	4c 8d 05 00 00
	00 00		 lea	 r8, OFFSET FLAT:??_C@_01LFCBOECM@?4?$AA@
  0005e	ba 17 00 00 00	 mov	 edx, 23
  00063	48 8d 0c 80	 lea	 rcx, QWORD PTR [rax+rax*4]
  00067	48 8b 46 20	 mov	 rax, QWORD PTR [rsi+32]
  0006b	48 8d 0c c8	 lea	 rcx, QWORD PTR [rax+rcx*8]
  0006f	e8 00 00 00 00	 call	 validate_terminal
  00074	85 c0		 test	 eax, eax
  00076	74 29		 je	 SHORT $LN8@validate_d
  00078	8d 43 01	 lea	 eax, DWORD PTR [rbx+1]
  0007b	45 33 c0	 xor	 r8d, r8d
  0007e	48 63 c8	 movsxd	 rcx, eax
  00081	48 8b 46 20	 mov	 rax, QWORD PTR [rsi+32]
  00085	48 8d 14 89	 lea	 rdx, QWORD PTR [rcx+rcx*4]
  00089	48 8d 0c d0	 lea	 rcx, QWORD PTR [rax+rdx*8]
  0008d	41 8d 50 01	 lea	 edx, QWORD PTR [r8+1]
  00091	e8 00 00 00 00	 call	 validate_terminal
  00096	85 c0		 test	 eax, eax
  00098	74 07		 je	 SHORT $LN8@validate_d
  0009a	b8 01 00 00 00	 mov	 eax, 1
  0009f	eb 02		 jmp	 SHORT $LN9@validate_d
$LN8@validate_d:
  000a1	33 c0		 xor	 eax, eax
$LN9@validate_d:

; 1735 :     int i;
; 1736 : 
; 1737 :     for (i = 1; res && (i < nch); i += 2) {

  000a3	83 c3 02	 add	 ebx, 2
  000a6	85 c0		 test	 eax, eax
  000a8	75 a6		 jne	 SHORT $LL3@validate_d
$LN12@validate_d:

; 1740 :     }
; 1741 :     return res;
; 1742 : }

  000aa	48 8b 5c 24 30	 mov	 rbx, QWORD PTR [rsp+48]
  000af	48 8b 74 24 38	 mov	 rsi, QWORD PTR [rsp+56]
  000b4	48 83 c4 20	 add	 rsp, 32			; 00000020H
  000b8	5f		 pop	 rdi
  000b9	c3		 ret	 0
validate_dotted_name ENDP
_TEXT	ENDS
PUBLIC	??_C@_0CO@LFFPLA@illegal?5number?5of?5children?5for?5d@ ; `string'
;	COMDAT pdata
pdata	SEGMENT
$pdata$validate_dotted_as_name DD imagerel validate_dotted_as_name
	DD	imagerel validate_dotted_as_name+161
	DD	imagerel $unwind$validate_dotted_as_name
pdata	ENDS
;	COMDAT xdata
xdata	SEGMENT
$unwind$validate_dotted_as_name DD 040a01H
	DD	06340aH
	DD	07006320aH
xdata	ENDS
;	COMDAT ??_C@_0CO@LFFPLA@illegal?5number?5of?5children?5for?5d@
CONST	SEGMENT
??_C@_0CO@LFFPLA@illegal?5number?5of?5children?5for?5d@ DB 'illegal numbe'
	DB	'r of children for dotted_as_name', 00H	; `string'
; Function compile flags: /Ogtpy
CONST	ENDS
;	COMDAT validate_dotted_as_name
_TEXT	SEGMENT
tree$ = 48
validate_dotted_as_name PROC				; COMDAT

; 1749 : {

  00000	48 89 5c 24 08	 mov	 QWORD PTR [rsp+8], rbx
  00005	57		 push	 rdi
  00006	48 83 ec 20	 sub	 rsp, 32			; 00000020H

; 1750 :     int nch = NCH(tree);

  0000a	8b 79 18	 mov	 edi, DWORD PTR [rcx+24]

; 1751 :     int res = validate_ntype(tree, dotted_as_name);

  0000d	ba 1e 01 00 00	 mov	 edx, 286		; 0000011eH
  00012	48 8b d9	 mov	 rbx, rcx
  00015	e8 00 00 00 00	 call	 validate_ntype

; 1752 : 
; 1753 :     if (res) {

  0001a	85 c0		 test	 eax, eax
  0001c	74 78		 je	 SHORT $LN10@validate_d@2

; 1754 :         if (nch == 1)

  0001e	83 ff 01	 cmp	 edi, 1
  00021	75 13		 jne	 SHORT $LN4@validate_d@2

; 1755 :             res = validate_dotted_name(CHILD(tree, 0));

  00023	48 8b 4b 20	 mov	 rcx, QWORD PTR [rbx+32]

; 1766 : }

  00027	48 8b 5c 24 30	 mov	 rbx, QWORD PTR [rsp+48]
  0002c	48 83 c4 20	 add	 rsp, 32			; 00000020H
  00030	5f		 pop	 rdi
  00031	e9 00 00 00 00	 jmp	 validate_dotted_name
$LN4@validate_d@2:

; 1756 :         else if (nch == 3)

  00036	83 ff 03	 cmp	 edi, 3
  00039	75 4d		 jne	 SHORT $LN2@validate_d@2

; 1757 :             res = (validate_dotted_name(CHILD(tree, 0))
; 1758 :                    && validate_name(CHILD(tree, 1), "as")
; 1759 :                    && validate_name(CHILD(tree, 2), NULL));

  0003b	48 8b 4b 20	 mov	 rcx, QWORD PTR [rbx+32]
  0003f	e8 00 00 00 00	 call	 validate_dotted_name
  00044	85 c0		 test	 eax, eax
  00046	74 4c		 je	 SHORT $LN8@validate_d@2
  00048	48 8b 4b 20	 mov	 rcx, QWORD PTR [rbx+32]
  0004c	4c 8d 05 00 00
	00 00		 lea	 r8, OFFSET FLAT:??_C@_02ENLJKNMP@as?$AA@
  00053	8d 57 fe	 lea	 edx, QWORD PTR [rdi-2]
  00056	48 83 c1 28	 add	 rcx, 40			; 00000028H
  0005a	e8 00 00 00 00	 call	 validate_terminal
  0005f	85 c0		 test	 eax, eax
  00061	74 31		 je	 SHORT $LN8@validate_d@2
  00063	48 8b 4b 20	 mov	 rcx, QWORD PTR [rbx+32]
  00067	8d 57 fe	 lea	 edx, QWORD PTR [rdi-2]
  0006a	45 33 c0	 xor	 r8d, r8d
  0006d	48 83 c1 50	 add	 rcx, 80			; 00000050H
  00071	e8 00 00 00 00	 call	 validate_terminal
  00076	85 c0		 test	 eax, eax
  00078	74 1a		 je	 SHORT $LN8@validate_d@2

; 1763 :         }
; 1764 :     }
; 1765 :     return res;

  0007a	8d 47 fe	 lea	 eax, QWORD PTR [rdi-2]

; 1766 : }

  0007d	48 8b 5c 24 30	 mov	 rbx, QWORD PTR [rsp+48]
  00082	48 83 c4 20	 add	 rsp, 32			; 00000020H
  00086	5f		 pop	 rdi
  00087	c3		 ret	 0
$LN2@validate_d@2:

; 1760 :         else {
; 1761 :             res = 0;
; 1762 :             err_string("illegal number of children for dotted_as_name");

  00088	48 8d 0d 00 00
	00 00		 lea	 rcx, OFFSET FLAT:??_C@_0CO@LFFPLA@illegal?5number?5of?5children?5for?5d@
  0008f	e8 00 00 00 00	 call	 err_string
$LN8@validate_d@2:

; 1763 :         }
; 1764 :     }
; 1765 :     return res;

  00094	33 c0		 xor	 eax, eax
$LN10@validate_d@2:

; 1766 : }

  00096	48 8b 5c 24 30	 mov	 rbx, QWORD PTR [rsp+48]
  0009b	48 83 c4 20	 add	 rsp, 32			; 00000020H
  0009f	5f		 pop	 rdi
  000a0	c3		 ret	 0
validate_dotted_as_name ENDP
_TEXT	ENDS
;	COMDAT pdata
pdata	SEGMENT
$pdata$validate_dotted_as_names DD imagerel validate_dotted_as_names
	DD	imagerel validate_dotted_as_names+163
	DD	imagerel $unwind$validate_dotted_as_names
pdata	ENDS
;	COMDAT xdata
xdata	SEGMENT
$unwind$validate_dotted_as_names DD 060f01H
	DD	07640fH
	DD	06340fH
	DD	0700b320fH
; Function compile flags: /Ogtpy
xdata	ENDS
;	COMDAT validate_dotted_as_names
_TEXT	SEGMENT
tree$ = 48
validate_dotted_as_names PROC				; COMDAT

; 1772 : {

  00000	48 89 5c 24 08	 mov	 QWORD PTR [rsp+8], rbx
  00005	48 89 74 24 10	 mov	 QWORD PTR [rsp+16], rsi
  0000a	57		 push	 rdi
  0000b	48 83 ec 20	 sub	 rsp, 32			; 00000020H

; 1773 :         int nch = NCH(tree);

  0000f	8b 79 18	 mov	 edi, DWORD PTR [rcx+24]
  00012	48 8b f1	 mov	 rsi, rcx

; 1774 :         int res = is_odd(nch) && validate_dotted_as_name(CHILD(tree, 0));

  00015	40 f6 c7 01	 test	 dil, 1
  00019	74 14		 je	 SHORT $LN6@validate_d@3
  0001b	48 8b 49 20	 mov	 rcx, QWORD PTR [rcx+32]
  0001f	e8 00 00 00 00	 call	 validate_dotted_as_name
  00024	85 c0		 test	 eax, eax
  00026	74 07		 je	 SHORT $LN6@validate_d@3
  00028	b8 01 00 00 00	 mov	 eax, 1
  0002d	eb 02		 jmp	 SHORT $LN7@validate_d@3
$LN6@validate_d@3:
  0002f	33 c0		 xor	 eax, eax
$LN7@validate_d@3:

; 1775 :         int i;
; 1776 : 
; 1777 :         for (i = 1; res && (i < nch); i += 2)

  00031	bb 01 00 00 00	 mov	 ebx, 1
  00036	85 c0		 test	 eax, eax
  00038	74 59		 je	 SHORT $LN12@validate_d@3
  0003a	66 0f 1f 44 00
	00		 npad	 6
$LL3@validate_d@3:
  00040	3b df		 cmp	 ebx, edi
  00042	7d 4f		 jge	 SHORT $LN12@validate_d@3

; 1778 :             res = (validate_comma(CHILD(tree, i))
; 1779 :                    && validate_dotted_as_name(CHILD(tree, i + 1)));

  00044	48 63 c3	 movsxd	 rax, ebx
  00047	4c 8d 05 00 00
	00 00		 lea	 r8, OFFSET FLAT:??_C@_01IHBHIGKO@?0?$AA@
  0004e	ba 0c 00 00 00	 mov	 edx, 12
  00053	48 8d 0c 80	 lea	 rcx, QWORD PTR [rax+rax*4]
  00057	48 8b 46 20	 mov	 rax, QWORD PTR [rsi+32]
  0005b	48 8d 0c c8	 lea	 rcx, QWORD PTR [rax+rcx*8]
  0005f	e8 00 00 00 00	 call	 validate_terminal
  00064	85 c0		 test	 eax, eax
  00066	74 22		 je	 SHORT $LN8@validate_d@3
  00068	8d 43 01	 lea	 eax, DWORD PTR [rbx+1]
  0006b	48 63 c8	 movsxd	 rcx, eax
  0006e	48 8b 46 20	 mov	 rax, QWORD PTR [rsi+32]
  00072	48 8d 14 89	 lea	 rdx, QWORD PTR [rcx+rcx*4]
  00076	48 8d 0c d0	 lea	 rcx, QWORD PTR [rax+rdx*8]
  0007a	e8 00 00 00 00	 call	 validate_dotted_as_name
  0007f	85 c0		 test	 eax, eax
  00081	74 07		 je	 SHORT $LN8@validate_d@3
  00083	b8 01 00 00 00	 mov	 eax, 1
  00088	eb 02		 jmp	 SHORT $LN9@validate_d@3
$LN8@validate_d@3:
  0008a	33 c0		 xor	 eax, eax
$LN9@validate_d@3:

; 1775 :         int i;
; 1776 : 
; 1777 :         for (i = 1; res && (i < nch); i += 2)

  0008c	83 c3 02	 add	 ebx, 2
  0008f	85 c0		 test	 eax, eax
  00091	75 ad		 jne	 SHORT $LL3@validate_d@3
$LN12@validate_d@3:

; 1780 :         return (res);
; 1781 : }

  00093	48 8b 5c 24 30	 mov	 rbx, QWORD PTR [rsp+48]
  00098	48 8b 74 24 38	 mov	 rsi, QWORD PTR [rsp+56]
  0009d	48 83 c4 20	 add	 rsp, 32			; 00000020H
  000a1	5f		 pop	 rdi
  000a2	c3		 ret	 0
validate_dotted_as_names ENDP
_TEXT	ENDS
;	COMDAT pdata
pdata	SEGMENT
$pdata$validate_import_as_names DD imagerel validate_import_as_names
	DD	imagerel validate_import_as_names+29
	DD	imagerel $unwind$validate_import_as_names
pdata	ENDS
;	COMDAT pdata
pdata	SEGMENT
$pdata$0$validate_import_as_names DD imagerel validate_import_as_names+29
	DD	imagerel validate_import_as_names+127
	DD	imagerel $chain$0$validate_import_as_names
pdata	ENDS
;	COMDAT pdata
pdata	SEGMENT
$pdata$1$validate_import_as_names DD imagerel validate_import_as_names+127
	DD	imagerel validate_import_as_names+138
	DD	imagerel $chain$1$validate_import_as_names
pdata	ENDS
;	COMDAT xdata
xdata	SEGMENT
$chain$1$validate_import_as_names DD 021H
	DD	imagerel validate_import_as_names
	DD	imagerel validate_import_as_names+29
	DD	imagerel $unwind$validate_import_as_names
xdata	ENDS
;	COMDAT xdata
xdata	SEGMENT
$chain$0$validate_import_as_names DD 020521H
	DD	063405H
	DD	imagerel validate_import_as_names
	DD	imagerel validate_import_as_names+29
	DD	imagerel $unwind$validate_import_as_names
xdata	ENDS
;	COMDAT xdata
xdata	SEGMENT
$unwind$validate_import_as_names DD 040a01H
	DD	07640aH
	DD	07006320aH
; Function compile flags: /Ogtpy
xdata	ENDS
;	COMDAT validate_import_as_names
_TEXT	SEGMENT
tree$ = 48
validate_import_as_names PROC				; COMDAT

; 1787 : {

  00000	48 89 74 24 10	 mov	 QWORD PTR [rsp+16], rsi
  00005	57		 push	 rdi
  00006	48 83 ec 20	 sub	 rsp, 32			; 00000020H

; 1788 :     int nch = NCH(tree);

  0000a	8b 71 18	 mov	 esi, DWORD PTR [rcx+24]
  0000d	48 8b f9	 mov	 rdi, rcx

; 1789 :     int res = validate_import_as_name(CHILD(tree, 0));

  00010	48 8b 49 20	 mov	 rcx, QWORD PTR [rcx+32]
  00014	e8 00 00 00 00	 call	 validate_import_as_name

; 1790 :     int i;
; 1791 : 
; 1792 :     for (i = 1; res && (i + 1 < nch); i += 2)

  00019	85 c0		 test	 eax, eax
  0001b	74 62		 je	 SHORT $LN1@validate_i@2

; 1788 :     int nch = NCH(tree);

  0001d	48 89 5c 24 30	 mov	 QWORD PTR [rsp+48], rbx
  00022	bb 02 00 00 00	 mov	 ebx, 2
$LL3@validate_i@2:

; 1790 :     int i;
; 1791 : 
; 1792 :     for (i = 1; res && (i + 1 < nch); i += 2)

  00027	3b de		 cmp	 ebx, esi
  00029	7d 4f		 jge	 SHORT $LN12@validate_i@2

; 1793 :         res = (validate_comma(CHILD(tree, i))
; 1794 :                && validate_import_as_name(CHILD(tree, i + 1)));

  0002b	8d 43 ff	 lea	 eax, DWORD PTR [rbx-1]
  0002e	4c 8d 05 00 00
	00 00		 lea	 r8, OFFSET FLAT:??_C@_01IHBHIGKO@?0?$AA@
  00035	48 63 c8	 movsxd	 rcx, eax
  00038	48 8b 47 20	 mov	 rax, QWORD PTR [rdi+32]
  0003c	48 8d 14 89	 lea	 rdx, QWORD PTR [rcx+rcx*4]
  00040	48 8d 0c d0	 lea	 rcx, QWORD PTR [rax+rdx*8]
  00044	ba 0c 00 00 00	 mov	 edx, 12
  00049	e8 00 00 00 00	 call	 validate_terminal
  0004e	85 c0		 test	 eax, eax
  00050	74 1f		 je	 SHORT $LN6@validate_i@2
  00052	48 63 c3	 movsxd	 rax, ebx
  00055	48 8d 0c 80	 lea	 rcx, QWORD PTR [rax+rax*4]
  00059	48 8b 47 20	 mov	 rax, QWORD PTR [rdi+32]
  0005d	48 8d 0c c8	 lea	 rcx, QWORD PTR [rax+rcx*8]
  00061	e8 00 00 00 00	 call	 validate_import_as_name
  00066	85 c0		 test	 eax, eax
  00068	74 07		 je	 SHORT $LN6@validate_i@2
  0006a	b8 01 00 00 00	 mov	 eax, 1
  0006f	eb 02		 jmp	 SHORT $LN7@validate_i@2
$LN6@validate_i@2:
  00071	33 c0		 xor	 eax, eax
$LN7@validate_i@2:

; 1790 :     int i;
; 1791 : 
; 1792 :     for (i = 1; res && (i + 1 < nch); i += 2)

  00073	83 c3 02	 add	 ebx, 2
  00076	85 c0		 test	 eax, eax
  00078	75 ad		 jne	 SHORT $LL3@validate_i@2
$LN12@validate_i@2:
  0007a	48 8b 5c 24 30	 mov	 rbx, QWORD PTR [rsp+48]
$LN1@validate_i@2:

; 1795 :     return (res);
; 1796 : }

  0007f	48 8b 74 24 38	 mov	 rsi, QWORD PTR [rsp+56]
  00084	48 83 c4 20	 add	 rsp, 32			; 00000020H
  00088	5f		 pop	 rdi
  00089	c3		 ret	 0
validate_import_as_names ENDP
_TEXT	ENDS
PUBLIC	??_C@_06EOGGDCGF@import?$AA@			; `string'
PUBLIC	??_C@_0M@CJJFDJPH@import_name?$AA@		; `string'
;	COMDAT pdata
pdata	SEGMENT
$pdata$validate_import_name DD imagerel validate_import_name
	DD	imagerel validate_import_name+108
	DD	imagerel $unwind$validate_import_name
pdata	ENDS
;	COMDAT xdata
xdata	SEGMENT
$unwind$validate_import_name DD 020601H
	DD	030023206H
xdata	ENDS
;	COMDAT ??_C@_06EOGGDCGF@import?$AA@
CONST	SEGMENT
??_C@_06EOGGDCGF@import?$AA@ DB 'import', 00H		; `string'
CONST	ENDS
;	COMDAT ??_C@_0M@CJJFDJPH@import_name?$AA@
CONST	SEGMENT
??_C@_0M@CJJFDJPH@import_name?$AA@ DB 'import_name', 00H ; `string'
; Function compile flags: /Ogtpy
CONST	ENDS
;	COMDAT validate_import_name
_TEXT	SEGMENT
tree$ = 48
validate_import_name PROC				; COMDAT

; 1802 : {

  00000	40 53		 push	 rbx
  00002	48 83 ec 20	 sub	 rsp, 32			; 00000020H

; 1803 :         return (validate_ntype(tree, import_name)
; 1804 :                 && validate_numnodes(tree, 2, "import_name")
; 1805 :                 && validate_name(CHILD(tree, 0), "import")
; 1806 :                 && validate_dotted_as_names(CHILD(tree, 1)));

  00006	ba 1b 01 00 00	 mov	 edx, 283		; 0000011bH
  0000b	48 8b d9	 mov	 rbx, rcx
  0000e	e8 00 00 00 00	 call	 validate_ntype
  00013	85 c0		 test	 eax, eax
  00015	74 4d		 je	 SHORT $LN3@validate_i@3
  00017	4c 8d 05 00 00
	00 00		 lea	 r8, OFFSET FLAT:??_C@_0M@CJJFDJPH@import_name?$AA@
  0001e	ba 02 00 00 00	 mov	 edx, 2
  00023	48 8b cb	 mov	 rcx, rbx
  00026	e8 00 00 00 00	 call	 validate_numnodes
  0002b	85 c0		 test	 eax, eax
  0002d	74 35		 je	 SHORT $LN3@validate_i@3
  0002f	48 8b 4b 20	 mov	 rcx, QWORD PTR [rbx+32]
  00033	4c 8d 05 00 00
	00 00		 lea	 r8, OFFSET FLAT:??_C@_06EOGGDCGF@import?$AA@
  0003a	ba 01 00 00 00	 mov	 edx, 1
  0003f	e8 00 00 00 00	 call	 validate_terminal
  00044	85 c0		 test	 eax, eax
  00046	74 1c		 je	 SHORT $LN3@validate_i@3
  00048	48 8b 4b 20	 mov	 rcx, QWORD PTR [rbx+32]
  0004c	48 83 c1 28	 add	 rcx, 40			; 00000028H
  00050	e8 00 00 00 00	 call	 validate_dotted_as_names
  00055	85 c0		 test	 eax, eax
  00057	74 0b		 je	 SHORT $LN3@validate_i@3
  00059	b8 01 00 00 00	 mov	 eax, 1

; 1807 : }

  0005e	48 83 c4 20	 add	 rsp, 32			; 00000020H
  00062	5b		 pop	 rbx
  00063	c3		 ret	 0
$LN3@validate_i@3:

; 1803 :         return (validate_ntype(tree, import_name)
; 1804 :                 && validate_numnodes(tree, 2, "import_name")
; 1805 :                 && validate_name(CHILD(tree, 0), "import")
; 1806 :                 && validate_dotted_as_names(CHILD(tree, 1)));

  00064	33 c0		 xor	 eax, eax

; 1807 : }

  00066	48 83 c4 20	 add	 rsp, 32			; 00000020H
  0006a	5b		 pop	 rbx
  0006b	c3		 ret	 0
validate_import_name ENDP
; Function compile flags: /Ogtpy
_TEXT	ENDS
;	COMDAT count_from_dots
_TEXT	SEGMENT
tree$ = 8
count_from_dots PROC					; COMDAT

; 1815 :     int i;
; 1816 :     for (i = 1; i < NCH(tree); i++)

  00000	44 8b 41 18	 mov	 r8d, DWORD PTR [rcx+24]
  00004	b8 01 00 00 00	 mov	 eax, 1
  00009	44 3b c0	 cmp	 r8d, eax
  0000c	7e 22		 jle	 SHORT $LN11@count_from
  0000e	48 8b 49 20	 mov	 rcx, QWORD PTR [rcx+32]
  00012	48 83 c1 28	 add	 rcx, 40			; 00000028H
$LL4@count_from:

; 1817 :         if (TYPE(CHILD(tree, i)) != DOT && TYPE(CHILD(tree, i)) != ELLIPSIS)

  00016	0f b7 11	 movzx	 edx, WORD PTR [rcx]
  00019	66 83 fa 17	 cmp	 dx, 23
  0001d	74 06		 je	 SHORT $LN3@count_from
  0001f	66 83 fa 33	 cmp	 dx, 51			; 00000033H
  00023	75 0b		 jne	 SHORT $LN11@count_from
$LN3@count_from:

; 1815 :     int i;
; 1816 :     for (i = 1; i < NCH(tree); i++)

  00025	ff c0		 inc	 eax
  00027	48 83 c1 28	 add	 rcx, 40			; 00000028H
  0002b	41 3b c0	 cmp	 eax, r8d
  0002e	7c e6		 jl	 SHORT $LL4@count_from
$LN11@count_from:

; 1818 :             break;
; 1819 :     return i - 1;

  00030	ff c8		 dec	 eax

; 1820 : }

  00032	c3		 ret	 0
count_from_dots ENDP
_TEXT	ENDS
PUBLIC	??_C@_01PKGAHCOL@?$CJ?$AA@			; `string'
PUBLIC	??_C@_01ODHLEDKK@?$CI?$AA@			; `string'
;	COMDAT pdata
pdata	SEGMENT
$pdata$validate_import_from DD imagerel validate_import_from
	DD	imagerel validate_import_from+408
	DD	imagerel $unwind$validate_import_from
pdata	ENDS
;	COMDAT xdata
xdata	SEGMENT
$unwind$validate_import_from DD 0a1801H
	DD	0a6418H
	DD	095418H
	DD	083418H
	DD	0d0143218H
	DD	07010c012H
xdata	ENDS
;	COMDAT ??_C@_01PKGAHCOL@?$CJ?$AA@
CONST	SEGMENT
??_C@_01PKGAHCOL@?$CJ?$AA@ DB ')', 00H			; `string'
CONST	ENDS
;	COMDAT ??_C@_01ODHLEDKK@?$CI?$AA@
CONST	SEGMENT
??_C@_01ODHLEDKK@?$CI?$AA@ DB '(', 00H			; `string'
; Function compile flags: /Ogtpy
CONST	ENDS
;	COMDAT validate_import_from
_TEXT	SEGMENT
tree$ = 64
validate_import_from PROC				; COMDAT

; 1827 : {

  00000	48 89 5c 24 08	 mov	 QWORD PTR [rsp+8], rbx
  00005	48 89 6c 24 10	 mov	 QWORD PTR [rsp+16], rbp
  0000a	48 89 74 24 18	 mov	 QWORD PTR [rsp+24], rsi
  0000f	57		 push	 rdi
  00010	41 54		 push	 r12
  00012	41 55		 push	 r13
  00014	48 83 ec 20	 sub	 rsp, 32			; 00000020H

; 1828 :         int nch = NCH(tree);

  00018	8b 69 18	 mov	 ebp, DWORD PTR [rcx+24]
  0001b	48 8b f9	 mov	 rdi, rcx

; 1829 :         int ndots = count_from_dots(tree);

  0001e	e8 00 00 00 00	 call	 count_from_dots

; 1830 :         int havename = (TYPE(CHILD(tree, ndots + 1)) == dotted_name);

  00023	48 8b 57 20	 mov	 rdx, QWORD PTR [rdi+32]
  00027	4c 63 e8	 movsxd	 r13, eax
  0002a	b8 21 01 00 00	 mov	 eax, 289		; 00000121H
  0002f	45 33 e4	 xor	 r12d, r12d
  00032	4f 8d 44 ad 05	 lea	 r8, QWORD PTR [r13+r13*4+5]

; 1831 :         int offset = ndots + havename;
; 1832 :         int res = validate_ntype(tree, import_from)
; 1833 :                 && (offset >= 1)
; 1834 :                 && (nch >= 3 + offset)
; 1835 :                 && validate_name(CHILD(tree, 0), "from")
; 1836 :                 && (!havename || validate_dotted_name(CHILD(tree, ndots + 1)))
; 1837 :                 && validate_name(CHILD(tree, offset + 1), "import");

  00037	48 8b cf	 mov	 rcx, rdi
  0003a	66 42 39 04 c2	 cmp	 WORD PTR [rdx+r8*8], ax
  0003f	8d 50 fb	 lea	 edx, QWORD PTR [rax-5]
  00042	41 0f 94 c4	 sete	 r12b
  00046	43 8d 1c 2c	 lea	 ebx, DWORD PTR [r12+r13]
  0004a	e8 00 00 00 00	 call	 validate_ntype
  0004f	85 c0		 test	 eax, eax
  00051	0f 84 26 01 00
	00		 je	 $LN6@validate_i@4
  00057	83 fb 01	 cmp	 ebx, 1
  0005a	0f 8c 1d 01 00
	00		 jl	 $LN6@validate_i@4
  00060	8d 73 03	 lea	 esi, DWORD PTR [rbx+3]
  00063	3b ee		 cmp	 ebp, esi
  00065	0f 8c 12 01 00
	00		 jl	 $LN6@validate_i@4
  0006b	48 8b 4f 20	 mov	 rcx, QWORD PTR [rdi+32]
  0006f	4c 8d 05 00 00
	00 00		 lea	 r8, OFFSET FLAT:??_C@_04HNEBHLOP@from?$AA@
  00076	ba 01 00 00 00	 mov	 edx, 1
  0007b	e8 00 00 00 00	 call	 validate_terminal
  00080	85 c0		 test	 eax, eax
  00082	0f 84 f5 00 00
	00		 je	 $LN6@validate_i@4
  00088	45 85 e4	 test	 r12d, r12d
  0008b	74 20		 je	 SHORT $LN7@validate_i@4
  0008d	41 8d 45 01	 lea	 eax, DWORD PTR [r13+1]
  00091	48 63 c8	 movsxd	 rcx, eax
  00094	48 8b 47 20	 mov	 rax, QWORD PTR [rdi+32]
  00098	48 8d 14 89	 lea	 rdx, QWORD PTR [rcx+rcx*4]
  0009c	48 8d 0c d0	 lea	 rcx, QWORD PTR [rax+rdx*8]
  000a0	e8 00 00 00 00	 call	 validate_dotted_name
  000a5	85 c0		 test	 eax, eax
  000a7	0f 84 d0 00 00
	00		 je	 $LN6@validate_i@4
$LN7@validate_i@4:
  000ad	8d 43 01	 lea	 eax, DWORD PTR [rbx+1]
  000b0	4c 8d 05 00 00
	00 00		 lea	 r8, OFFSET FLAT:??_C@_06EOGGDCGF@import?$AA@
  000b7	48 63 c8	 movsxd	 rcx, eax
  000ba	48 8b 47 20	 mov	 rax, QWORD PTR [rdi+32]
  000be	48 8d 14 89	 lea	 rdx, QWORD PTR [rcx+rcx*4]
  000c2	48 8d 0c d0	 lea	 rcx, QWORD PTR [rax+rdx*8]
  000c6	ba 01 00 00 00	 mov	 edx, 1
  000cb	e8 00 00 00 00	 call	 validate_terminal
  000d0	85 c0		 test	 eax, eax
  000d2	0f 84 a5 00 00
	00		 je	 $LN6@validate_i@4

; 1838 : 
; 1839 :         if (res && TYPE(CHILD(tree, offset + 2)) == LPAR)

  000d8	48 8b 57 20	 mov	 rdx, QWORD PTR [rdi+32]
  000dc	48 63 c3	 movsxd	 rax, ebx
  000df	48 8d 44 80 0a	 lea	 rax, QWORD PTR [rax+rax*4+10]
  000e4	0f b7 0c c2	 movzx	 ecx, WORD PTR [rdx+rax*8]
  000e8	66 83 f9 07	 cmp	 cx, 7
  000ec	75 74		 jne	 SHORT $LN12@validate_i@4

; 1840 :             res = ((nch == offset + 5)
; 1841 :                    && validate_lparen(CHILD(tree, offset + 2))
; 1842 :                    && validate_import_as_names(CHILD(tree, offset + 3))
; 1843 :                    && validate_rparen(CHILD(tree, offset + 4)));

  000ee	8d 43 05	 lea	 eax, DWORD PTR [rbx+5]
  000f1	3b e8		 cmp	 ebp, eax
  000f3	0f 85 84 00 00
	00		 jne	 $LN6@validate_i@4
  000f9	8d 43 02	 lea	 eax, DWORD PTR [rbx+2]
  000fc	4c 8d 05 00 00
	00 00		 lea	 r8, OFFSET FLAT:??_C@_01ODHLEDKK@?$CI?$AA@
  00103	48 63 c8	 movsxd	 rcx, eax
  00106	48 8d 04 89	 lea	 rax, QWORD PTR [rcx+rcx*4]
  0010a	48 8d 0c c2	 lea	 rcx, QWORD PTR [rdx+rax*8]
  0010e	ba 07 00 00 00	 mov	 edx, 7
  00113	e8 00 00 00 00	 call	 validate_terminal
  00118	85 c0		 test	 eax, eax
  0011a	74 61		 je	 SHORT $LN6@validate_i@4
  0011c	48 63 c6	 movsxd	 rax, esi
  0011f	48 8d 0c 80	 lea	 rcx, QWORD PTR [rax+rax*4]
  00123	48 8b 47 20	 mov	 rax, QWORD PTR [rdi+32]
  00127	48 8d 0c c8	 lea	 rcx, QWORD PTR [rax+rcx*8]
  0012b	e8 00 00 00 00	 call	 validate_import_as_names
  00130	85 c0		 test	 eax, eax
  00132	74 49		 je	 SHORT $LN6@validate_i@4
  00134	8d 4b 04	 lea	 ecx, DWORD PTR [rbx+4]
  00137	48 63 d1	 movsxd	 rdx, ecx
  0013a	48 8b 4f 20	 mov	 rcx, QWORD PTR [rdi+32]
  0013e	4c 8d 04 92	 lea	 r8, QWORD PTR [rdx+rdx*4]
  00142	ba 08 00 00 00	 mov	 edx, 8
  00147	4a 8d 0c c1	 lea	 rcx, QWORD PTR [rcx+r8*8]
  0014b	4c 8d 05 00 00
	00 00		 lea	 r8, OFFSET FLAT:??_C@_01PKGAHCOL@?$CJ?$AA@
  00152	e8 00 00 00 00	 call	 validate_terminal
  00157	85 c0		 test	 eax, eax
  00159	74 22		 je	 SHORT $LN6@validate_i@4
$LN13@validate_i@4:

; 1846 :         return (res);

  0015b	b8 01 00 00 00	 mov	 eax, 1
  00160	eb 1d		 jmp	 SHORT $LN1@validate_i@4
$LN12@validate_i@4:

; 1844 :         else if (res && TYPE(CHILD(tree, offset + 2)) != STAR)

  00162	66 83 f9 10	 cmp	 cx, 16
  00166	74 f3		 je	 SHORT $LN13@validate_i@4

; 1845 :             res = validate_import_as_names(CHILD(tree, offset + 2));

  00168	8d 43 02	 lea	 eax, DWORD PTR [rbx+2]
  0016b	48 63 c8	 movsxd	 rcx, eax
  0016e	48 8d 04 89	 lea	 rax, QWORD PTR [rcx+rcx*4]
  00172	48 8d 0c c2	 lea	 rcx, QWORD PTR [rdx+rax*8]
  00176	e8 00 00 00 00	 call	 validate_import_as_names
  0017b	eb 02		 jmp	 SHORT $LN1@validate_i@4
$LN6@validate_i@4:

; 1846 :         return (res);

  0017d	33 c0		 xor	 eax, eax
$LN1@validate_i@4:

; 1847 : }

  0017f	48 8b 5c 24 40	 mov	 rbx, QWORD PTR [rsp+64]
  00184	48 8b 6c 24 48	 mov	 rbp, QWORD PTR [rsp+72]
  00189	48 8b 74 24 50	 mov	 rsi, QWORD PTR [rsp+80]
  0018e	48 83 c4 20	 add	 rsp, 32			; 00000020H
  00192	41 5d		 pop	 r13
  00194	41 5c		 pop	 r12
  00196	5f		 pop	 rdi
  00197	c3		 ret	 0
validate_import_from ENDP
_TEXT	ENDS
PUBLIC	??_C@_0CM@BAMCCOHB@Unrecognized?5child?5node?5of?5impor@ ; `string'
PUBLIC	??_C@_0BP@PEGCBHED@illegal?5import_stmt?5child?5type?$AA@ ; `string'
PUBLIC	??_C@_0M@IFPLOOHJ@import_stmt?$AA@		; `string'
;	COMDAT pdata
pdata	SEGMENT
$pdata$validate_import_stmt DD imagerel validate_import_stmt
	DD	imagerel validate_import_stmt+143
	DD	imagerel $unwind$validate_import_stmt
pdata	ENDS
;	COMDAT xdata
xdata	SEGMENT
$unwind$validate_import_stmt DD 040a01H
	DD	06340aH
	DD	07006320aH
xdata	ENDS
;	COMDAT ??_C@_0CM@BAMCCOHB@Unrecognized?5child?5node?5of?5impor@
CONST	SEGMENT
??_C@_0CM@BAMCCOHB@Unrecognized?5child?5node?5of?5impor@ DB 'Unrecognized'
	DB	' child node of import_stmt: %d.', 00H	; `string'
CONST	ENDS
;	COMDAT ??_C@_0BP@PEGCBHED@illegal?5import_stmt?5child?5type?$AA@
CONST	SEGMENT
??_C@_0BP@PEGCBHED@illegal?5import_stmt?5child?5type?$AA@ DB 'illegal imp'
	DB	'ort_stmt child type', 00H			; `string'
CONST	ENDS
;	COMDAT ??_C@_0M@IFPLOOHJ@import_stmt?$AA@
CONST	SEGMENT
??_C@_0M@IFPLOOHJ@import_stmt?$AA@ DB 'import_stmt', 00H ; `string'
; Function compile flags: /Ogtpy
CONST	ENDS
;	COMDAT validate_import_stmt
_TEXT	SEGMENT
tree$ = 48
validate_import_stmt PROC				; COMDAT

; 1853 : {

  00000	48 89 5c 24 08	 mov	 QWORD PTR [rsp+8], rbx
  00005	57		 push	 rdi
  00006	48 83 ec 20	 sub	 rsp, 32			; 00000020H

; 1854 :     int nch = NCH(tree);

  0000a	8b 79 18	 mov	 edi, DWORD PTR [rcx+24]

; 1855 :     int res = validate_numnodes(tree, 1, "import_stmt");

  0000d	4c 8d 05 00 00
	00 00		 lea	 r8, OFFSET FLAT:??_C@_0M@IFPLOOHJ@import_stmt?$AA@
  00014	ba 01 00 00 00	 mov	 edx, 1
  00019	48 8b d9	 mov	 rbx, rcx
  0001c	e8 00 00 00 00	 call	 validate_numnodes

; 1856 : 
; 1857 :     if (res) {

  00021	85 c0		 test	 eax, eax
  00023	74 3d		 je	 SHORT $LN6@validate_i@5

; 1858 :         int ntype = TYPE(CHILD(tree, 0));

  00025	48 8b 4b 20	 mov	 rcx, QWORD PTR [rbx+32]
  00029	0f bf 01	 movsx	 eax, WORD PTR [rcx]

; 1859 : 
; 1860 :         if (ntype == import_name || ntype == import_from)

  0002c	3d 1b 01 00 00	 cmp	 eax, 283		; 0000011bH
  00031	74 20		 je	 SHORT $LN4@validate_i@5
  00033	3d 1c 01 00 00	 cmp	 eax, 284		; 0000011cH
  00038	74 19		 je	 SHORT $LN4@validate_i@5

; 1861 :             res = validate_node(CHILD(tree, 0));
; 1862 :         else {
; 1863 :             res = 0;
; 1864 :             err_string("illegal import_stmt child type");

  0003a	48 8d 0d 00 00
	00 00		 lea	 rcx, OFFSET FLAT:??_C@_0BP@PEGCBHED@illegal?5import_stmt?5child?5type?$AA@
  00041	e8 00 00 00 00	 call	 err_string

; 1872 :     }
; 1873 :     return (res);

  00046	33 c0		 xor	 eax, eax

; 1874 : }

  00048	48 8b 5c 24 30	 mov	 rbx, QWORD PTR [rsp+48]
  0004d	48 83 c4 20	 add	 rsp, 32			; 00000020H
  00051	5f		 pop	 rdi
  00052	c3		 ret	 0
$LN4@validate_i@5:
  00053	48 8b 5c 24 30	 mov	 rbx, QWORD PTR [rsp+48]
  00058	48 83 c4 20	 add	 rsp, 32			; 00000020H
  0005c	5f		 pop	 rdi
  0005d	e9 00 00 00 00	 jmp	 validate_node
$LN6@validate_i@5:

; 1865 :         }
; 1866 :     }
; 1867 :     else if (nch == 1) {

  00062	83 ff 01	 cmp	 edi, 1
  00065	75 1d		 jne	 SHORT $LN9@validate_i@5

; 1868 :         res = 0;
; 1869 :         PyErr_Format(parser_error,
; 1870 :                      "Unrecognized child node of import_stmt: %d.",
; 1871 :                      TYPE(CHILD(tree, 0)));

  00067	48 8b 4b 20	 mov	 rcx, QWORD PTR [rbx+32]
  0006b	48 8d 15 00 00
	00 00		 lea	 rdx, OFFSET FLAT:??_C@_0CM@BAMCCOHB@Unrecognized?5child?5node?5of?5impor@
  00072	44 0f bf 01	 movsx	 r8d, WORD PTR [rcx]
  00076	48 8b 0d 00 00
	00 00		 mov	 rcx, QWORD PTR parser_error
  0007d	e8 00 00 00 00	 call	 PyErr_Format

; 1872 :     }
; 1873 :     return (res);

  00082	33 c0		 xor	 eax, eax
$LN9@validate_i@5:

; 1874 : }

  00084	48 8b 5c 24 30	 mov	 rbx, QWORD PTR [rsp+48]
  00089	48 83 c4 20	 add	 rsp, 32			; 00000020H
  0008d	5f		 pop	 rdi
  0008e	c3		 ret	 0
validate_import_stmt ENDP
_TEXT	ENDS
PUBLIC	??_C@_0BJ@CJBALKIM@illegal?5global?5statement?$AA@ ; `string'
PUBLIC	??_C@_06FJKEMHGD@global?$AA@			; `string'
;	COMDAT pdata
pdata	SEGMENT
$pdata$validate_global_stmt DD imagerel validate_global_stmt
	DD	imagerel validate_global_stmt+255
	DD	imagerel $unwind$validate_global_stmt
pdata	ENDS
;	COMDAT xdata
xdata	SEGMENT
$unwind$validate_global_stmt DD 081401H
	DD	086414H
	DD	075414H
	DD	063414H
	DD	070103214H
xdata	ENDS
;	COMDAT ??_C@_0BJ@CJBALKIM@illegal?5global?5statement?$AA@
CONST	SEGMENT
??_C@_0BJ@CJBALKIM@illegal?5global?5statement?$AA@ DB 'illegal global sta'
	DB	'tement', 00H				; `string'
CONST	ENDS
;	COMDAT ??_C@_06FJKEMHGD@global?$AA@
CONST	SEGMENT
??_C@_06FJKEMHGD@global?$AA@ DB 'global', 00H		; `string'
; Function compile flags: /Ogtpy
CONST	ENDS
;	COMDAT validate_global_stmt
_TEXT	SEGMENT
tree$ = 48
validate_global_stmt PROC				; COMDAT

; 1883 : {

  00000	48 89 5c 24 08	 mov	 QWORD PTR [rsp+8], rbx
  00005	48 89 6c 24 10	 mov	 QWORD PTR [rsp+16], rbp
  0000a	48 89 74 24 18	 mov	 QWORD PTR [rsp+24], rsi
  0000f	57		 push	 rdi
  00010	48 83 ec 20	 sub	 rsp, 32			; 00000020H

; 1884 :     int j;
; 1885 :     int nch = NCH(tree);

  00014	8b 71 18	 mov	 esi, DWORD PTR [rcx+24]

; 1886 :     int res = (validate_ntype(tree, global_stmt)
; 1887 :                && is_even(nch) && (nch >= 2));

  00017	ba 22 01 00 00	 mov	 edx, 290		; 00000122H
  0001c	48 8b e9	 mov	 rbp, rcx
  0001f	e8 00 00 00 00	 call	 validate_ntype
  00024	85 c0		 test	 eax, eax
  00026	74 45		 je	 SHORT $LN8@validate_g
  00028	40 f6 c6 01	 test	 sil, 1
  0002c	75 3f		 jne	 SHORT $LN8@validate_g
  0002e	83 fe 02	 cmp	 esi, 2
  00031	7c 3a		 jl	 SHORT $LN8@validate_g

; 1891 : 
; 1892 :     if (res)
; 1893 :         res = (validate_name(CHILD(tree, 0), "global")
; 1894 :                && validate_ntype(CHILD(tree, 1), NAME));

  00033	48 8b 4d 20	 mov	 rcx, QWORD PTR [rbp+32]
  00037	4c 8d 05 00 00
	00 00		 lea	 r8, OFFSET FLAT:??_C@_06FJKEMHGD@global?$AA@
  0003e	ba 01 00 00 00	 mov	 edx, 1
  00043	e8 00 00 00 00	 call	 validate_terminal
  00048	85 c0		 test	 eax, eax
  0004a	74 1d		 je	 SHORT $LN10@validate_g
  0004c	48 8b 4d 20	 mov	 rcx, QWORD PTR [rbp+32]
  00050	ba 01 00 00 00	 mov	 edx, 1
  00055	48 83 c1 28	 add	 rcx, 40			; 00000028H
  00059	e8 00 00 00 00	 call	 validate_ntype
  0005e	85 c0		 test	 eax, eax
  00060	74 07		 je	 SHORT $LN10@validate_g
  00062	bb 01 00 00 00	 mov	 ebx, 1
  00067	eb 1c		 jmp	 SHORT $LN11@validate_g
$LN10@validate_g:
  00069	33 db		 xor	 ebx, ebx
  0006b	eb 18		 jmp	 SHORT $LN11@validate_g
$LN8@validate_g:

; 1886 :     int res = (validate_ntype(tree, global_stmt)
; 1887 :                && is_even(nch) && (nch >= 2));

  0006d	33 db		 xor	 ebx, ebx

; 1888 : 
; 1889 :     if (!res && !PyErr_Occurred())

  0006f	e8 00 00 00 00	 call	 PyErr_Occurred
  00074	48 85 c0	 test	 rax, rax
  00077	75 0c		 jne	 SHORT $LN11@validate_g

; 1890 :         err_string("illegal global statement");

  00079	48 8d 0d 00 00
	00 00		 lea	 rcx, OFFSET FLAT:??_C@_0BJ@CJBALKIM@illegal?5global?5statement?$AA@
  00080	e8 00 00 00 00	 call	 err_string
$LN11@validate_g:

; 1895 :     for (j = 2; res && (j < nch); j += 2)

  00085	bf 02 00 00 00	 mov	 edi, 2
  0008a	85 db		 test	 ebx, ebx
  0008c	74 5a		 je	 SHORT $LN18@validate_g
  0008e	66 90		 npad	 2
$LL3@validate_g:
  00090	3b fe		 cmp	 edi, esi
  00092	7d 54		 jge	 SHORT $LN18@validate_g

; 1896 :         res = (validate_comma(CHILD(tree, j))
; 1897 :                && validate_ntype(CHILD(tree, j + 1), NAME));

  00094	48 63 c7	 movsxd	 rax, edi
  00097	4c 8d 05 00 00
	00 00		 lea	 r8, OFFSET FLAT:??_C@_01IHBHIGKO@?0?$AA@
  0009e	ba 0c 00 00 00	 mov	 edx, 12
  000a3	48 8d 0c 80	 lea	 rcx, QWORD PTR [rax+rax*4]
  000a7	48 8b 45 20	 mov	 rax, QWORD PTR [rbp+32]
  000ab	48 8d 0c c8	 lea	 rcx, QWORD PTR [rax+rcx*8]
  000af	e8 00 00 00 00	 call	 validate_terminal
  000b4	85 c0		 test	 eax, eax
  000b6	74 27		 je	 SHORT $LN12@validate_g
  000b8	8d 47 01	 lea	 eax, DWORD PTR [rdi+1]
  000bb	48 63 c8	 movsxd	 rcx, eax
  000be	48 8b 45 20	 mov	 rax, QWORD PTR [rbp+32]
  000c2	48 8d 14 89	 lea	 rdx, QWORD PTR [rcx+rcx*4]
  000c6	48 8d 0c d0	 lea	 rcx, QWORD PTR [rax+rdx*8]
  000ca	ba 01 00 00 00	 mov	 edx, 1
  000cf	e8 00 00 00 00	 call	 validate_ntype
  000d4	85 c0		 test	 eax, eax
  000d6	74 07		 je	 SHORT $LN12@validate_g
  000d8	bb 01 00 00 00	 mov	 ebx, 1
  000dd	eb 02		 jmp	 SHORT $LN13@validate_g
$LN12@validate_g:
  000df	33 db		 xor	 ebx, ebx
$LN13@validate_g:

; 1895 :     for (j = 2; res && (j < nch); j += 2)

  000e1	83 c7 02	 add	 edi, 2
  000e4	85 db		 test	 ebx, ebx
  000e6	75 a8		 jne	 SHORT $LL3@validate_g
$LN18@validate_g:

; 1898 : 
; 1899 :     return (res);
; 1900 : }

  000e8	48 8b 6c 24 38	 mov	 rbp, QWORD PTR [rsp+56]
  000ed	48 8b 74 24 40	 mov	 rsi, QWORD PTR [rsp+64]
  000f2	8b c3		 mov	 eax, ebx
  000f4	48 8b 5c 24 30	 mov	 rbx, QWORD PTR [rsp+48]
  000f9	48 83 c4 20	 add	 rsp, 32			; 00000020H
  000fd	5f		 pop	 rdi
  000fe	c3		 ret	 0
validate_global_stmt ENDP
_TEXT	ENDS
PUBLIC	??_C@_0BL@LBDMHHNE@illegal?5nonlocal?5statement?$AA@ ; `string'
PUBLIC	??_C@_08JCIPMGCE@nonlocal?$AA@			; `string'
;	COMDAT pdata
pdata	SEGMENT
$pdata$validate_nonlocal_stmt DD imagerel validate_nonlocal_stmt
	DD	imagerel validate_nonlocal_stmt+255
	DD	imagerel $unwind$validate_nonlocal_stmt
pdata	ENDS
;	COMDAT xdata
xdata	SEGMENT
$unwind$validate_nonlocal_stmt DD 081401H
	DD	086414H
	DD	075414H
	DD	063414H
	DD	070103214H
xdata	ENDS
;	COMDAT ??_C@_0BL@LBDMHHNE@illegal?5nonlocal?5statement?$AA@
CONST	SEGMENT
??_C@_0BL@LBDMHHNE@illegal?5nonlocal?5statement?$AA@ DB 'illegal nonlocal'
	DB	' statement', 00H				; `string'
CONST	ENDS
;	COMDAT ??_C@_08JCIPMGCE@nonlocal?$AA@
CONST	SEGMENT
??_C@_08JCIPMGCE@nonlocal?$AA@ DB 'nonlocal', 00H	; `string'
; Function compile flags: /Ogtpy
CONST	ENDS
;	COMDAT validate_nonlocal_stmt
_TEXT	SEGMENT
tree$ = 48
validate_nonlocal_stmt PROC				; COMDAT

; 1908 : {

  00000	48 89 5c 24 08	 mov	 QWORD PTR [rsp+8], rbx
  00005	48 89 6c 24 10	 mov	 QWORD PTR [rsp+16], rbp
  0000a	48 89 74 24 18	 mov	 QWORD PTR [rsp+24], rsi
  0000f	57		 push	 rdi
  00010	48 83 ec 20	 sub	 rsp, 32			; 00000020H

; 1909 :     int j;
; 1910 :     int nch = NCH(tree);

  00014	8b 71 18	 mov	 esi, DWORD PTR [rcx+24]

; 1911 :     int res = (validate_ntype(tree, nonlocal_stmt)
; 1912 :                && is_even(nch) && (nch >= 2));

  00017	ba 23 01 00 00	 mov	 edx, 291		; 00000123H
  0001c	48 8b e9	 mov	 rbp, rcx
  0001f	e8 00 00 00 00	 call	 validate_ntype
  00024	85 c0		 test	 eax, eax
  00026	74 45		 je	 SHORT $LN8@validate_n@3
  00028	40 f6 c6 01	 test	 sil, 1
  0002c	75 3f		 jne	 SHORT $LN8@validate_n@3
  0002e	83 fe 02	 cmp	 esi, 2
  00031	7c 3a		 jl	 SHORT $LN8@validate_n@3

; 1916 : 
; 1917 :     if (res)
; 1918 :         res = (validate_name(CHILD(tree, 0), "nonlocal")
; 1919 :                && validate_ntype(CHILD(tree, 1), NAME));

  00033	48 8b 4d 20	 mov	 rcx, QWORD PTR [rbp+32]
  00037	4c 8d 05 00 00
	00 00		 lea	 r8, OFFSET FLAT:??_C@_08JCIPMGCE@nonlocal?$AA@
  0003e	ba 01 00 00 00	 mov	 edx, 1
  00043	e8 00 00 00 00	 call	 validate_terminal
  00048	85 c0		 test	 eax, eax
  0004a	74 1d		 je	 SHORT $LN10@validate_n@3
  0004c	48 8b 4d 20	 mov	 rcx, QWORD PTR [rbp+32]
  00050	ba 01 00 00 00	 mov	 edx, 1
  00055	48 83 c1 28	 add	 rcx, 40			; 00000028H
  00059	e8 00 00 00 00	 call	 validate_ntype
  0005e	85 c0		 test	 eax, eax
  00060	74 07		 je	 SHORT $LN10@validate_n@3
  00062	bb 01 00 00 00	 mov	 ebx, 1
  00067	eb 1c		 jmp	 SHORT $LN11@validate_n@3
$LN10@validate_n@3:
  00069	33 db		 xor	 ebx, ebx
  0006b	eb 18		 jmp	 SHORT $LN11@validate_n@3
$LN8@validate_n@3:

; 1911 :     int res = (validate_ntype(tree, nonlocal_stmt)
; 1912 :                && is_even(nch) && (nch >= 2));

  0006d	33 db		 xor	 ebx, ebx

; 1913 : 
; 1914 :     if (!res && !PyErr_Occurred())

  0006f	e8 00 00 00 00	 call	 PyErr_Occurred
  00074	48 85 c0	 test	 rax, rax
  00077	75 0c		 jne	 SHORT $LN11@validate_n@3

; 1915 :         err_string("illegal nonlocal statement");

  00079	48 8d 0d 00 00
	00 00		 lea	 rcx, OFFSET FLAT:??_C@_0BL@LBDMHHNE@illegal?5nonlocal?5statement?$AA@
  00080	e8 00 00 00 00	 call	 err_string
$LN11@validate_n@3:

; 1920 :     for (j = 2; res && (j < nch); j += 2)

  00085	bf 02 00 00 00	 mov	 edi, 2
  0008a	85 db		 test	 ebx, ebx
  0008c	74 5a		 je	 SHORT $LN18@validate_n@3
  0008e	66 90		 npad	 2
$LL3@validate_n@3:
  00090	3b fe		 cmp	 edi, esi
  00092	7d 54		 jge	 SHORT $LN18@validate_n@3

; 1921 :         res = (validate_comma(CHILD(tree, j))
; 1922 :                && validate_ntype(CHILD(tree, j + 1), NAME));

  00094	48 63 c7	 movsxd	 rax, edi
  00097	4c 8d 05 00 00
	00 00		 lea	 r8, OFFSET FLAT:??_C@_01IHBHIGKO@?0?$AA@
  0009e	ba 0c 00 00 00	 mov	 edx, 12
  000a3	48 8d 0c 80	 lea	 rcx, QWORD PTR [rax+rax*4]
  000a7	48 8b 45 20	 mov	 rax, QWORD PTR [rbp+32]
  000ab	48 8d 0c c8	 lea	 rcx, QWORD PTR [rax+rcx*8]
  000af	e8 00 00 00 00	 call	 validate_terminal
  000b4	85 c0		 test	 eax, eax
  000b6	74 27		 je	 SHORT $LN12@validate_n@3
  000b8	8d 47 01	 lea	 eax, DWORD PTR [rdi+1]
  000bb	48 63 c8	 movsxd	 rcx, eax
  000be	48 8b 45 20	 mov	 rax, QWORD PTR [rbp+32]
  000c2	48 8d 14 89	 lea	 rdx, QWORD PTR [rcx+rcx*4]
  000c6	48 8d 0c d0	 lea	 rcx, QWORD PTR [rax+rdx*8]
  000ca	ba 01 00 00 00	 mov	 edx, 1
  000cf	e8 00 00 00 00	 call	 validate_ntype
  000d4	85 c0		 test	 eax, eax
  000d6	74 07		 je	 SHORT $LN12@validate_n@3
  000d8	bb 01 00 00 00	 mov	 ebx, 1
  000dd	eb 02		 jmp	 SHORT $LN13@validate_n@3
$LN12@validate_n@3:
  000df	33 db		 xor	 ebx, ebx
$LN13@validate_n@3:

; 1920 :     for (j = 2; res && (j < nch); j += 2)

  000e1	83 c7 02	 add	 edi, 2
  000e4	85 db		 test	 ebx, ebx
  000e6	75 a8		 jne	 SHORT $LL3@validate_n@3
$LN18@validate_n@3:

; 1923 : 
; 1924 :     return res;
; 1925 : }

  000e8	48 8b 6c 24 38	 mov	 rbp, QWORD PTR [rsp+56]
  000ed	48 8b 74 24 40	 mov	 rsi, QWORD PTR [rsp+64]
  000f2	8b c3		 mov	 eax, ebx
  000f4	48 8b 5c 24 30	 mov	 rbx, QWORD PTR [rsp+48]
  000f9	48 83 c4 20	 add	 rsp, 32			; 00000020H
  000fd	5f		 pop	 rdi
  000fe	c3		 ret	 0
validate_nonlocal_stmt ENDP
_TEXT	ENDS
PUBLIC	??_C@_0BM@NAGHNPAP@unknown?5comparison?5operator?$AA@ ; `string'
PUBLIC	??_C@_03NJKJADM@not?$AA@			; `string'
PUBLIC	??_C@_07LCFKNJG@comp_op?$AA@			; `string'
PUBLIC	??_C@_0BG@FKPNMIFG@illegal?5operator?5?8?$CFs?8?$AA@ ; `string'
PUBLIC	??_C@_02EDKKPMHH@is?$AA@			; `string'
PUBLIC	??_C@_02LMMGJAGL@in?$AA@			; `string'
PUBLIC	??_C@_0CB@OBDDMBL@illegal?5comparison?5operator?5type@ ; `string'
;	COMDAT pdata
pdata	SEGMENT
$pdata$validate_comp_op DD imagerel validate_comp_op
	DD	imagerel validate_comp_op+403
	DD	imagerel $unwind$validate_comp_op
pdata	ENDS
;	COMDAT xdata
xdata	SEGMENT
$unwind$validate_comp_op DD 060f01H
	DD	07640fH
	DD	06340fH
	DD	0700b320fH
xdata	ENDS
;	COMDAT ??_C@_0BM@NAGHNPAP@unknown?5comparison?5operator?$AA@
CONST	SEGMENT
??_C@_0BM@NAGHNPAP@unknown?5comparison?5operator?$AA@ DB 'unknown compari'
	DB	'son operator', 00H				; `string'
CONST	ENDS
;	COMDAT ??_C@_03NJKJADM@not?$AA@
CONST	SEGMENT
??_C@_03NJKJADM@not?$AA@ DB 'not', 00H			; `string'
CONST	ENDS
;	COMDAT ??_C@_07LCFKNJG@comp_op?$AA@
CONST	SEGMENT
??_C@_07LCFKNJG@comp_op?$AA@ DB 'comp_op', 00H		; `string'
CONST	ENDS
;	COMDAT ??_C@_0BG@FKPNMIFG@illegal?5operator?5?8?$CFs?8?$AA@
CONST	SEGMENT
??_C@_0BG@FKPNMIFG@illegal?5operator?5?8?$CFs?8?$AA@ DB 'illegal operator'
	DB	' ''%s''', 00H				; `string'
CONST	ENDS
;	COMDAT ??_C@_02EDKKPMHH@is?$AA@
CONST	SEGMENT
??_C@_02EDKKPMHH@is?$AA@ DB 'is', 00H			; `string'
CONST	ENDS
;	COMDAT ??_C@_02LMMGJAGL@in?$AA@
CONST	SEGMENT
??_C@_02LMMGJAGL@in?$AA@ DB 'in', 00H			; `string'
CONST	ENDS
;	COMDAT ??_C@_0CB@OBDDMBL@illegal?5comparison?5operator?5type@
CONST	SEGMENT
??_C@_0CB@OBDDMBL@illegal?5comparison?5operator?5type@ DB 'illegal compar'
	DB	'ison operator type', 00H			; `string'
; Function compile flags: /Ogtpy
CONST	ENDS
;	COMDAT validate_comp_op
_TEXT	SEGMENT
tree$ = 48
validate_comp_op PROC					; COMDAT

; 2175 : {

  00000	48 89 5c 24 08	 mov	 QWORD PTR [rsp+8], rbx
  00005	48 89 74 24 10	 mov	 QWORD PTR [rsp+16], rsi
  0000a	57		 push	 rdi
  0000b	48 83 ec 20	 sub	 rsp, 32			; 00000020H

; 2176 :     int res = 0;
; 2177 :     int nch = NCH(tree);

  0000f	8b 71 18	 mov	 esi, DWORD PTR [rcx+24]

; 2178 : 
; 2179 :     if (!validate_ntype(tree, comp_op))

  00012	ba 36 01 00 00	 mov	 edx, 310		; 00000136H
  00017	48 8b f9	 mov	 rdi, rcx
  0001a	33 db		 xor	 ebx, ebx
  0001c	e8 00 00 00 00	 call	 validate_ntype
  00021	85 c0		 test	 eax, eax
  00023	75 10		 jne	 SHORT $LN11@validate_c@2

; 2221 : }

  00025	48 8b 5c 24 30	 mov	 rbx, QWORD PTR [rsp+48]
  0002a	48 8b 74 24 38	 mov	 rsi, QWORD PTR [rsp+56]
  0002f	48 83 c4 20	 add	 rsp, 32			; 00000020H
  00033	5f		 pop	 rdi
  00034	c3		 ret	 0
$LN11@validate_c@2:

; 2180 :         return (0);
; 2181 :     if (nch == 1) {

  00035	83 fe 01	 cmp	 esi, 1
  00038	0f 85 90 00 00
	00		 jne	 $LN10@validate_c@2

; 2182 :         /*
; 2183 :          *  Only child will be a terminal with a well-defined symbolic name
; 2184 :          *  or a NAME with a string of either 'is' or 'in'
; 2185 :          */
; 2186 :         tree = CHILD(tree, 0);

  0003e	4c 8b 47 20	 mov	 r8, QWORD PTR [rdi+32]

; 2187 :         switch (TYPE(tree)) {

  00042	41 0f bf 00	 movsx	 eax, WORD PTR [r8]
  00046	3b c6		 cmp	 eax, esi
  00048	74 35		 je	 SHORT $LN6@validate_c@2
  0004a	83 f8 13	 cmp	 eax, 19
  0004d	7e 24		 jle	 SHORT $LN4@validate_c@2
  0004f	83 f8 16	 cmp	 eax, 22
  00052	7e 08		 jle	 SHORT $LN7@validate_c@2
  00054	83 c0 e5	 add	 eax, -27		; ffffffe5H
  00057	83 f8 03	 cmp	 eax, 3
  0005a	77 17		 ja	 SHORT $LN4@validate_c@2
$LN7@validate_c@2:

; 2188 :           case LESS:
; 2189 :           case GREATER:
; 2190 :           case EQEQUAL:
; 2191 :           case EQUAL:
; 2192 :           case LESSEQUAL:
; 2193 :           case GREATEREQUAL:
; 2194 :           case NOTEQUAL:
; 2195 :               res = 1;

  0005c	bb 01 00 00 00	 mov	 ebx, 1

; 2219 :     }
; 2220 :     return (res);

  00061	8b c3		 mov	 eax, ebx

; 2221 : }

  00063	48 8b 5c 24 30	 mov	 rbx, QWORD PTR [rsp+48]
  00068	48 8b 74 24 38	 mov	 rsi, QWORD PTR [rsp+56]
  0006d	48 83 c4 20	 add	 rsp, 32			; 00000020H
  00071	5f		 pop	 rdi
  00072	c3		 ret	 0
$LN4@validate_c@2:

; 2203 :               }
; 2204 :               break;
; 2205 :           default:
; 2206 :               err_string("illegal comparison operator type");

  00073	48 8d 0d 00 00
	00 00		 lea	 rcx, OFFSET FLAT:??_C@_0CB@OBDDMBL@illegal?5comparison?5operator?5type@

; 2207 :               break;

  0007a	e9 fd 00 00 00	 jmp	 $LN23@validate_c@2
$LN6@validate_c@2:

; 2196 :               break;
; 2197 :           case NAME:
; 2198 :               res = ((strcmp(STR(tree), "in") == 0)
; 2199 :                      || (strcmp(STR(tree), "is") == 0));

  0007f	4d 8b 40 08	 mov	 r8, QWORD PTR [r8+8]
  00083	48 8d 3d 00 00
	00 00		 lea	 rdi, OFFSET FLAT:??_C@_02LMMGJAGL@in?$AA@
  0008a	b9 03 00 00 00	 mov	 ecx, 3
  0008f	49 8b f0	 mov	 rsi, r8
  00092	f3 a6		 repe cmpsb
  00094	74 c6		 je	 SHORT $LN7@validate_c@2
  00096	48 8d 3d 00 00
	00 00		 lea	 rdi, OFFSET FLAT:??_C@_02EDKKPMHH@is?$AA@
  0009d	49 8b f0	 mov	 rsi, r8
  000a0	b9 03 00 00 00	 mov	 ecx, 3
  000a5	f3 a6		 repe cmpsb
  000a7	74 b3		 je	 SHORT $LN7@validate_c@2

; 2200 :               if (!res) {
; 2201 :                   PyErr_Format(parser_error,
; 2202 :                                "illegal operator '%s'", STR(tree));

  000a9	48 8b 0d 00 00
	00 00		 mov	 rcx, QWORD PTR parser_error
  000b0	48 8d 15 00 00
	00 00		 lea	 rdx, OFFSET FLAT:??_C@_0BG@FKPNMIFG@illegal?5operator?5?8?$CFs?8?$AA@
  000b7	e8 00 00 00 00	 call	 PyErr_Format

; 2219 :     }
; 2220 :     return (res);

  000bc	8b c3		 mov	 eax, ebx

; 2221 : }

  000be	48 8b 5c 24 30	 mov	 rbx, QWORD PTR [rsp+48]
  000c3	48 8b 74 24 38	 mov	 rsi, QWORD PTR [rsp+56]
  000c8	48 83 c4 20	 add	 rsp, 32			; 00000020H
  000cc	5f		 pop	 rdi
  000cd	c3		 ret	 0
$LN10@validate_c@2:

; 2208 :         }
; 2209 :     }
; 2210 :     else if ((res = validate_numnodes(tree, 2, "comp_op")) != 0) {

  000ce	4c 8d 05 00 00
	00 00		 lea	 r8, OFFSET FLAT:??_C@_07LCFKNJG@comp_op?$AA@
  000d5	ba 02 00 00 00	 mov	 edx, 2
  000da	48 8b cf	 mov	 rcx, rdi
  000dd	e8 00 00 00 00	 call	 validate_numnodes
  000e2	8b d8		 mov	 ebx, eax
  000e4	85 c0		 test	 eax, eax
  000e6	0f 84 95 00 00
	00		 je	 $LN1@validate_c@2

; 2211 :         res = (validate_ntype(CHILD(tree, 0), NAME)
; 2212 :                && validate_ntype(CHILD(tree, 1), NAME)
; 2213 :                && (((strcmp(STR(CHILD(tree, 0)), "is") == 0)
; 2214 :                     && (strcmp(STR(CHILD(tree, 1)), "not") == 0))
; 2215 :                    || ((strcmp(STR(CHILD(tree, 0)), "not") == 0)
; 2216 :                        && (strcmp(STR(CHILD(tree, 1)), "in") == 0))));

  000ec	48 8b 4f 20	 mov	 rcx, QWORD PTR [rdi+32]
  000f0	bb 01 00 00 00	 mov	 ebx, 1
  000f5	8b d3		 mov	 edx, ebx
  000f7	e8 00 00 00 00	 call	 validate_ntype
  000fc	85 c0		 test	 eax, eax
  000fe	74 69		 je	 SHORT $LN16@validate_c@2
  00100	48 8b 4f 20	 mov	 rcx, QWORD PTR [rdi+32]
  00104	8b d3		 mov	 edx, ebx
  00106	48 83 c1 28	 add	 rcx, 40			; 00000028H
  0010a	e8 00 00 00 00	 call	 validate_ntype
  0010f	85 c0		 test	 eax, eax
  00111	74 56		 je	 SHORT $LN16@validate_c@2
  00113	48 8b 47 20	 mov	 rax, QWORD PTR [rdi+32]
  00117	48 8d 3d 00 00
	00 00		 lea	 rdi, OFFSET FLAT:??_C@_02EDKKPMHH@is?$AA@
  0011e	b9 03 00 00 00	 mov	 ecx, 3
  00123	48 8b 50 08	 mov	 rdx, QWORD PTR [rax+8]
  00127	48 8b f2	 mov	 rsi, rdx
  0012a	f3 a6		 repe cmpsb
  0012c	75 14		 jne	 SHORT $LN17@validate_c@2
  0012e	48 8b 70 30	 mov	 rsi, QWORD PTR [rax+48]
  00132	48 8d 3d 00 00
	00 00		 lea	 rdi, OFFSET FLAT:??_C@_03NJKJADM@not?$AA@
  00139	b9 04 00 00 00	 mov	 ecx, 4
  0013e	f3 a6		 repe cmpsb
  00140	74 3f		 je	 SHORT $LN1@validate_c@2
$LN17@validate_c@2:
  00142	48 8d 3d 00 00
	00 00		 lea	 rdi, OFFSET FLAT:??_C@_03NJKJADM@not?$AA@
  00149	48 8b f2	 mov	 rsi, rdx
  0014c	b9 04 00 00 00	 mov	 ecx, 4
  00151	f3 a6		 repe cmpsb
  00153	75 14		 jne	 SHORT $LN16@validate_c@2
  00155	48 8b 70 30	 mov	 rsi, QWORD PTR [rax+48]
  00159	48 8d 3d 00 00
	00 00		 lea	 rdi, OFFSET FLAT:??_C@_02LMMGJAGL@in?$AA@
  00160	b9 03 00 00 00	 mov	 ecx, 3
  00165	f3 a6		 repe cmpsb
  00167	74 18		 je	 SHORT $LN1@validate_c@2
$LN16@validate_c@2:
  00169	33 db		 xor	 ebx, ebx

; 2217 :         if (!res && !PyErr_Occurred())

  0016b	e8 00 00 00 00	 call	 PyErr_Occurred
  00170	48 85 c0	 test	 rax, rax
  00173	75 0c		 jne	 SHORT $LN1@validate_c@2

; 2218 :             err_string("unknown comparison operator");

  00175	48 8d 0d 00 00
	00 00		 lea	 rcx, OFFSET FLAT:??_C@_0BM@NAGHNPAP@unknown?5comparison?5operator?$AA@
$LN23@validate_c@2:
  0017c	e8 00 00 00 00	 call	 err_string
$LN1@validate_c@2:

; 2221 : }

  00181	48 8b 74 24 38	 mov	 rsi, QWORD PTR [rsp+56]
  00186	8b c3		 mov	 eax, ebx
  00188	48 8b 5c 24 30	 mov	 rbx, QWORD PTR [rsp+48]
  0018d	48 83 c4 20	 add	 rsp, 32			; 00000020H
  00191	5f		 pop	 rdi
  00192	c3		 ret	 0
validate_comp_op ENDP
_TEXT	ENDS
PUBLIC	??_C@_09IAILODKE@star_expr?$AA@			; `string'
;	COMDAT pdata
pdata	SEGMENT
$pdata$validate_star_expr DD imagerel validate_star_expr
	DD	imagerel validate_star_expr+101
	DD	imagerel $unwind$validate_star_expr
pdata	ENDS
;	COMDAT xdata
xdata	SEGMENT
$unwind$validate_star_expr DD 020601H
	DD	030023206H
xdata	ENDS
;	COMDAT ??_C@_09IAILODKE@star_expr?$AA@
CONST	SEGMENT
??_C@_09IAILODKE@star_expr?$AA@ DB 'star_expr', 00H	; `string'
; Function compile flags: /Ogtpy
CONST	ENDS
;	COMDAT validate_star_expr
_TEXT	SEGMENT
tree$ = 48
validate_star_expr PROC					; COMDAT

; 2226 : {

  00000	40 53		 push	 rbx
  00002	48 83 ec 20	 sub	 rsp, 32			; 00000020H

; 2227 :     int res = validate_ntype(tree, star_expr);

  00006	ba 37 01 00 00	 mov	 edx, 311		; 00000137H
  0000b	48 8b d9	 mov	 rbx, rcx
  0000e	e8 00 00 00 00	 call	 validate_ntype

; 2228 :     if (!res) return res;

  00013	85 c0		 test	 eax, eax
  00015	74 46		 je	 SHORT $LN5@validate_s@2

; 2229 :     if (!validate_numnodes(tree, 2, "star_expr"))

  00017	4c 8d 05 00 00
	00 00		 lea	 r8, OFFSET FLAT:??_C@_09IAILODKE@star_expr?$AA@
  0001e	ba 02 00 00 00	 mov	 edx, 2
  00023	48 8b cb	 mov	 rcx, rbx
  00026	e8 00 00 00 00	 call	 validate_numnodes
  0002b	85 c0		 test	 eax, eax

; 2230 :         return 0;

  0002d	74 2e		 je	 SHORT $LN5@validate_s@2

; 2231 :     return validate_ntype(CHILD(tree, 0), STAR) &&      \
; 2232 :         validate_expr(CHILD(tree, 1));

  0002f	48 8b 4b 20	 mov	 rcx, QWORD PTR [rbx+32]
  00033	ba 10 00 00 00	 mov	 edx, 16
  00038	e8 00 00 00 00	 call	 validate_ntype
  0003d	85 c0		 test	 eax, eax
  0003f	74 1c		 je	 SHORT $LN5@validate_s@2
  00041	48 8b 4b 20	 mov	 rcx, QWORD PTR [rbx+32]
  00045	48 83 c1 28	 add	 rcx, 40			; 00000028H
  00049	e8 00 00 00 00	 call	 validate_expr
  0004e	85 c0		 test	 eax, eax
  00050	74 0b		 je	 SHORT $LN5@validate_s@2
  00052	b8 01 00 00 00	 mov	 eax, 1

; 2233 : }

  00057	48 83 c4 20	 add	 rsp, 32			; 00000020H
  0005b	5b		 pop	 rbx
  0005c	c3		 ret	 0
$LN5@validate_s@2:

; 2231 :     return validate_ntype(CHILD(tree, 0), STAR) &&      \
; 2232 :         validate_expr(CHILD(tree, 1));

  0005d	33 c0		 xor	 eax, eax

; 2233 : }

  0005f	48 83 c4 20	 add	 rsp, 32			; 00000020H
  00063	5b		 pop	 rbx
  00064	c3		 ret	 0
validate_star_expr ENDP
_TEXT	ENDS
;	COMDAT pdata
pdata	SEGMENT
$pdata$validate_chain_two_ops DD imagerel validate_chain_two_ops
	DD	imagerel validate_chain_two_ops+198
	DD	imagerel $unwind$validate_chain_two_ops
pdata	ENDS
;	COMDAT xdata
xdata	SEGMENT
$unwind$validate_chain_two_ops DD 0c1c01H
	DD	0c641cH
	DD	0b541cH
	DD	0a341cH
	DD	0f018321cH
	DD	0d014e016H
	DD	07010c012H
; Function compile flags: /Ogtpy
xdata	ENDS
;	COMDAT validate_chain_two_ops
_TEXT	SEGMENT
tree$ = 80
termvalid$ = 88
op1$ = 96
op2$ = 104
validate_chain_two_ops PROC				; COMDAT

; 2289 :  {

  00000	48 89 5c 24 08	 mov	 QWORD PTR [rsp+8], rbx
  00005	48 89 6c 24 10	 mov	 QWORD PTR [rsp+16], rbp
  0000a	48 89 74 24 18	 mov	 QWORD PTR [rsp+24], rsi
  0000f	57		 push	 rdi
  00010	41 54		 push	 r12
  00012	41 55		 push	 r13
  00014	41 56		 push	 r14
  00016	41 57		 push	 r15
  00018	48 83 ec 20	 sub	 rsp, 32			; 00000020H

; 2291 :     int nch = NCH(tree);

  0001c	48 63 71 18	 movsxd	 rsi, DWORD PTR [rcx+24]
  00020	bf 01 00 00 00	 mov	 edi, 1
  00025	45 8b f9	 mov	 r15d, r9d
  00028	45 8b e8	 mov	 r13d, r8d
  0002b	4c 8b f2	 mov	 r14, rdx
  0002e	48 8b e9	 mov	 rbp, rcx

; 2292 :     int res = (is_odd(nch)
; 2293 :                && (*termvalid)(CHILD(tree, 0)));

  00031	40 84 f7	 test	 sil, dil
  00034	74 0f		 je	 SHORT $LN8@validate_c@3
  00036	48 8b 49 20	 mov	 rcx, QWORD PTR [rcx+32]
  0003a	41 ff d6	 call	 r14
  0003d	85 c0		 test	 eax, eax
  0003f	74 04		 je	 SHORT $LN8@validate_c@3
  00041	8b cf		 mov	 ecx, edi
  00043	eb 02		 jmp	 SHORT $LN9@validate_c@3
$LN8@validate_c@3:
  00045	33 c9		 xor	 ecx, ecx
$LN9@validate_c@3:

; 2290 :     int pos = 1;

  00047	48 8b df	 mov	 rbx, rdi

; 2294 : 
; 2295 :     for ( ; res && (pos < nch); pos += 2) {

  0004a	4c 8b e6	 mov	 r12, rsi
  0004d	85 c9		 test	 ecx, ecx
  0004f	74 56		 je	 SHORT $LN12@validate_c@3

; 2290 :     int pos = 1;

  00051	be 28 00 00 00	 mov	 esi, 40			; 00000028H
$LL5@validate_c@3:

; 2294 : 
; 2295 :     for ( ; res && (pos < nch); pos += 2) {

  00056	49 3b dc	 cmp	 rbx, r12
  00059	7d 4c		 jge	 SHORT $LN12@validate_c@3

; 2296 :         if (TYPE(CHILD(tree, pos)) != op1)

  0005b	48 8b 55 20	 mov	 rdx, QWORD PTR [rbp+32]
  0005f	0f bf 04 16	 movsx	 eax, WORD PTR [rsi+rdx]
  00063	41 3b c5	 cmp	 eax, r13d
  00066	74 15		 je	 SHORT $LN2@validate_c@3

; 2297 :             res = validate_ntype(CHILD(tree, pos), op2);

  00068	48 63 c7	 movsxd	 rax, edi
  0006b	48 8d 0c 80	 lea	 rcx, QWORD PTR [rax+rax*4]
  0006f	48 8d 0c ca	 lea	 rcx, QWORD PTR [rdx+rcx*8]
  00073	41 8b d7	 mov	 edx, r15d
  00076	e8 00 00 00 00	 call	 validate_ntype
  0007b	8b c8		 mov	 ecx, eax
$LN2@validate_c@3:

; 2298 :         if (res)

  0007d	85 c9		 test	 ecx, ecx
  0007f	74 17		 je	 SHORT $LN4@validate_c@3

; 2299 :             res = (*termvalid)(CHILD(tree, pos + 1));

  00081	8d 47 01	 lea	 eax, DWORD PTR [rdi+1]
  00084	48 63 c8	 movsxd	 rcx, eax
  00087	48 8b 45 20	 mov	 rax, QWORD PTR [rbp+32]
  0008b	48 8d 14 89	 lea	 rdx, QWORD PTR [rcx+rcx*4]
  0008f	48 8d 0c d0	 lea	 rcx, QWORD PTR [rax+rdx*8]
  00093	41 ff d6	 call	 r14
  00096	8b c8		 mov	 ecx, eax
$LN4@validate_c@3:

; 2294 : 
; 2295 :     for ( ; res && (pos < nch); pos += 2) {

  00098	83 c7 02	 add	 edi, 2
  0009b	48 83 c3 02	 add	 rbx, 2
  0009f	48 83 c6 50	 add	 rsi, 80			; 00000050H
  000a3	85 c9		 test	 ecx, ecx
  000a5	75 af		 jne	 SHORT $LL5@validate_c@3
$LN12@validate_c@3:

; 2300 :     }
; 2301 :     return (res);
; 2302 : }

  000a7	48 8b 5c 24 50	 mov	 rbx, QWORD PTR [rsp+80]
  000ac	48 8b 6c 24 58	 mov	 rbp, QWORD PTR [rsp+88]
  000b1	48 8b 74 24 60	 mov	 rsi, QWORD PTR [rsp+96]
  000b6	8b c1		 mov	 eax, ecx
  000b8	48 83 c4 20	 add	 rsp, 32			; 00000020H
  000bc	41 5f		 pop	 r15
  000be	41 5e		 pop	 r14
  000c0	41 5d		 pop	 r13
  000c2	41 5c		 pop	 r12
  000c4	5f		 pop	 rdi
  000c5	c3		 ret	 0
validate_chain_two_ops ENDP
_TEXT	ENDS
PUBLIC	??_C@_07KODPEPCE@lambdef?$AA@			; `string'
PUBLIC	??_C@_06COJIGPIB@lambda?$AA@			; `string'
;	COMDAT pdata
pdata	SEGMENT
$pdata$validate_lambdef DD imagerel validate_lambdef
	DD	imagerel validate_lambdef+224
	DD	imagerel $unwind$validate_lambdef
pdata	ENDS
;	COMDAT xdata
xdata	SEGMENT
$unwind$validate_lambdef DD 040a01H
	DD	06340aH
	DD	07006320aH
xdata	ENDS
;	COMDAT ??_C@_07KODPEPCE@lambdef?$AA@
CONST	SEGMENT
??_C@_07KODPEPCE@lambdef?$AA@ DB 'lambdef', 00H		; `string'
CONST	ENDS
;	COMDAT ??_C@_06COJIGPIB@lambda?$AA@
CONST	SEGMENT
??_C@_06COJIGPIB@lambda?$AA@ DB 'lambda', 00H		; `string'
; Function compile flags: /Ogtpy
CONST	ENDS
;	COMDAT validate_lambdef
_TEXT	SEGMENT
tree$ = 48
validate_lambdef PROC					; COMDAT

; 2613 : {

  00000	48 89 5c 24 08	 mov	 QWORD PTR [rsp+8], rbx
  00005	57		 push	 rdi
  00006	48 83 ec 20	 sub	 rsp, 32			; 00000020H

; 2614 :     int nch = NCH(tree);

  0000a	8b 79 18	 mov	 edi, DWORD PTR [rcx+24]

; 2615 :     int res = (validate_ntype(tree, lambdef)
; 2616 :                && ((nch == 3) || (nch == 4))
; 2617 :                && validate_name(CHILD(tree, 0), "lambda")
; 2618 :                && validate_colon(CHILD(tree, nch - 2))
; 2619 :                && validate_test(CHILD(tree, nch - 1)));

  0000d	ba 30 01 00 00	 mov	 edx, 304		; 00000130H
  00012	48 8b d9	 mov	 rbx, rcx
  00015	e8 00 00 00 00	 call	 validate_ntype
  0001a	85 c0		 test	 eax, eax
  0001c	0f 84 95 00 00
	00		 je	 $LN7@validate_l
  00022	83 ff 03	 cmp	 edi, 3
  00025	74 09		 je	 SHORT $LN6@validate_l
  00027	83 ff 04	 cmp	 edi, 4
  0002a	0f 85 87 00 00
	00		 jne	 $LN7@validate_l
$LN6@validate_l:
  00030	48 8b 4b 20	 mov	 rcx, QWORD PTR [rbx+32]
  00034	4c 8d 05 00 00
	00 00		 lea	 r8, OFFSET FLAT:??_C@_06COJIGPIB@lambda?$AA@
  0003b	ba 01 00 00 00	 mov	 edx, 1
  00040	e8 00 00 00 00	 call	 validate_terminal
  00045	85 c0		 test	 eax, eax
  00047	74 6e		 je	 SHORT $LN7@validate_l
  00049	8d 47 fe	 lea	 eax, DWORD PTR [rdi-2]
  0004c	4c 8d 05 00 00
	00 00		 lea	 r8, OFFSET FLAT:??_C@_01JLIPDDHJ@?3?$AA@
  00053	48 63 c8	 movsxd	 rcx, eax
  00056	48 8b 43 20	 mov	 rax, QWORD PTR [rbx+32]
  0005a	48 8d 14 89	 lea	 rdx, QWORD PTR [rcx+rcx*4]
  0005e	48 8d 0c d0	 lea	 rcx, QWORD PTR [rax+rdx*8]
  00062	ba 0b 00 00 00	 mov	 edx, 11
  00067	e8 00 00 00 00	 call	 validate_terminal
  0006c	85 c0		 test	 eax, eax
  0006e	74 47		 je	 SHORT $LN7@validate_l
  00070	8d 47 ff	 lea	 eax, DWORD PTR [rdi-1]
  00073	48 63 c8	 movsxd	 rcx, eax
  00076	48 8b 43 20	 mov	 rax, QWORD PTR [rbx+32]
  0007a	48 8d 14 89	 lea	 rdx, QWORD PTR [rcx+rcx*4]
  0007e	48 8d 0c d0	 lea	 rcx, QWORD PTR [rax+rdx*8]
  00082	e8 00 00 00 00	 call	 validate_test
  00087	85 c0		 test	 eax, eax
  00089	74 2c		 je	 SHORT $LN7@validate_l

; 2620 : 
; 2621 :     if (res && (nch == 4))

  0008b	83 ff 04	 cmp	 edi, 4
  0008e	75 17		 jne	 SHORT $LN12@validate_l

; 2622 :         res = validate_varargslist(CHILD(tree, 1));

  00090	48 8b 4b 20	 mov	 rcx, QWORD PTR [rbx+32]
  00094	48 83 c1 28	 add	 rcx, 40			; 00000028H

; 2627 : }

  00098	48 8b 5c 24 30	 mov	 rbx, QWORD PTR [rsp+48]
  0009d	48 83 c4 20	 add	 rsp, 32			; 00000020H
  000a1	5f		 pop	 rdi
  000a2	e9 00 00 00 00	 jmp	 validate_varargslist
$LN12@validate_l:

; 2625 : 
; 2626 :     return (res);

  000a7	b8 01 00 00 00	 mov	 eax, 1

; 2627 : }

  000ac	48 8b 5c 24 30	 mov	 rbx, QWORD PTR [rsp+48]
  000b1	48 83 c4 20	 add	 rsp, 32			; 00000020H
  000b5	5f		 pop	 rdi
  000b6	c3		 ret	 0
$LN7@validate_l:

; 2623 :     else if (!res && !PyErr_Occurred())

  000b7	e8 00 00 00 00	 call	 PyErr_Occurred
  000bc	48 85 c0	 test	 rax, rax
  000bf	75 12		 jne	 SHORT $LN11@validate_l

; 2624 :         (void) validate_numnodes(tree, 3, "lambdef");

  000c1	4c 8d 05 00 00
	00 00		 lea	 r8, OFFSET FLAT:??_C@_07KODPEPCE@lambdef?$AA@
  000c8	8d 50 03	 lea	 edx, QWORD PTR [rax+3]
  000cb	48 8b cb	 mov	 rcx, rbx
  000ce	e8 00 00 00 00	 call	 validate_numnodes
$LN11@validate_l:

; 2625 : 
; 2626 :     return (res);

  000d3	33 c0		 xor	 eax, eax

; 2627 : }

  000d5	48 8b 5c 24 30	 mov	 rbx, QWORD PTR [rsp+48]
  000da	48 83 c4 20	 add	 rsp, 32			; 00000020H
  000de	5f		 pop	 rdi
  000df	c3		 ret	 0
validate_lambdef ENDP
_TEXT	ENDS
PUBLIC	??_C@_0P@BLBLCNEL@lambdef_nocond?$AA@		; `string'
;	COMDAT pdata
pdata	SEGMENT
$pdata$validate_lambdef_nocond DD imagerel validate_lambdef_nocond
	DD	imagerel validate_lambdef_nocond+224
	DD	imagerel $unwind$validate_lambdef_nocond
pdata	ENDS
;	COMDAT xdata
xdata	SEGMENT
$unwind$validate_lambdef_nocond DD 040a01H
	DD	06340aH
	DD	07006320aH
xdata	ENDS
;	COMDAT ??_C@_0P@BLBLCNEL@lambdef_nocond?$AA@
CONST	SEGMENT
??_C@_0P@BLBLCNEL@lambdef_nocond?$AA@ DB 'lambdef_nocond', 00H ; `string'
; Function compile flags: /Ogtpy
CONST	ENDS
;	COMDAT validate_lambdef_nocond
_TEXT	SEGMENT
tree$ = 48
validate_lambdef_nocond PROC				; COMDAT

; 2632 : {

  00000	48 89 5c 24 08	 mov	 QWORD PTR [rsp+8], rbx
  00005	57		 push	 rdi
  00006	48 83 ec 20	 sub	 rsp, 32			; 00000020H

; 2633 :     int nch = NCH(tree);

  0000a	8b 79 18	 mov	 edi, DWORD PTR [rcx+24]

; 2634 :     int res = (validate_ntype(tree, lambdef_nocond)
; 2635 :                && ((nch == 3) || (nch == 4))
; 2636 :                && validate_name(CHILD(tree, 0), "lambda")
; 2637 :                && validate_colon(CHILD(tree, nch - 2))
; 2638 :                && validate_test(CHILD(tree, nch - 1)));

  0000d	ba 31 01 00 00	 mov	 edx, 305		; 00000131H
  00012	48 8b d9	 mov	 rbx, rcx
  00015	e8 00 00 00 00	 call	 validate_ntype
  0001a	85 c0		 test	 eax, eax
  0001c	0f 84 95 00 00
	00		 je	 $LN7@validate_l@2
  00022	83 ff 03	 cmp	 edi, 3
  00025	74 09		 je	 SHORT $LN6@validate_l@2
  00027	83 ff 04	 cmp	 edi, 4
  0002a	0f 85 87 00 00
	00		 jne	 $LN7@validate_l@2
$LN6@validate_l@2:
  00030	48 8b 4b 20	 mov	 rcx, QWORD PTR [rbx+32]
  00034	4c 8d 05 00 00
	00 00		 lea	 r8, OFFSET FLAT:??_C@_06COJIGPIB@lambda?$AA@
  0003b	ba 01 00 00 00	 mov	 edx, 1
  00040	e8 00 00 00 00	 call	 validate_terminal
  00045	85 c0		 test	 eax, eax
  00047	74 6e		 je	 SHORT $LN7@validate_l@2
  00049	8d 47 fe	 lea	 eax, DWORD PTR [rdi-2]
  0004c	4c 8d 05 00 00
	00 00		 lea	 r8, OFFSET FLAT:??_C@_01JLIPDDHJ@?3?$AA@
  00053	48 63 c8	 movsxd	 rcx, eax
  00056	48 8b 43 20	 mov	 rax, QWORD PTR [rbx+32]
  0005a	48 8d 14 89	 lea	 rdx, QWORD PTR [rcx+rcx*4]
  0005e	48 8d 0c d0	 lea	 rcx, QWORD PTR [rax+rdx*8]
  00062	ba 0b 00 00 00	 mov	 edx, 11
  00067	e8 00 00 00 00	 call	 validate_terminal
  0006c	85 c0		 test	 eax, eax
  0006e	74 47		 je	 SHORT $LN7@validate_l@2
  00070	8d 47 ff	 lea	 eax, DWORD PTR [rdi-1]
  00073	48 63 c8	 movsxd	 rcx, eax
  00076	48 8b 43 20	 mov	 rax, QWORD PTR [rbx+32]
  0007a	48 8d 14 89	 lea	 rdx, QWORD PTR [rcx+rcx*4]
  0007e	48 8d 0c d0	 lea	 rcx, QWORD PTR [rax+rdx*8]
  00082	e8 00 00 00 00	 call	 validate_test
  00087	85 c0		 test	 eax, eax
  00089	74 2c		 je	 SHORT $LN7@validate_l@2

; 2639 : 
; 2640 :     if (res && (nch == 4))

  0008b	83 ff 04	 cmp	 edi, 4
  0008e	75 17		 jne	 SHORT $LN12@validate_l@2

; 2641 :         res = validate_varargslist(CHILD(tree, 1));

  00090	48 8b 4b 20	 mov	 rcx, QWORD PTR [rbx+32]
  00094	48 83 c1 28	 add	 rcx, 40			; 00000028H

; 2646 : }

  00098	48 8b 5c 24 30	 mov	 rbx, QWORD PTR [rsp+48]
  0009d	48 83 c4 20	 add	 rsp, 32			; 00000020H
  000a1	5f		 pop	 rdi
  000a2	e9 00 00 00 00	 jmp	 validate_varargslist
$LN12@validate_l@2:

; 2644 : 
; 2645 :     return (res);

  000a7	b8 01 00 00 00	 mov	 eax, 1

; 2646 : }

  000ac	48 8b 5c 24 30	 mov	 rbx, QWORD PTR [rsp+48]
  000b1	48 83 c4 20	 add	 rsp, 32			; 00000020H
  000b5	5f		 pop	 rdi
  000b6	c3		 ret	 0
$LN7@validate_l@2:

; 2642 :     else if (!res && !PyErr_Occurred())

  000b7	e8 00 00 00 00	 call	 PyErr_Occurred
  000bc	48 85 c0	 test	 rax, rax
  000bf	75 12		 jne	 SHORT $LN11@validate_l@2

; 2643 :         (void) validate_numnodes(tree, 3, "lambdef_nocond");

  000c1	4c 8d 05 00 00
	00 00		 lea	 r8, OFFSET FLAT:??_C@_0P@BLBLCNEL@lambdef_nocond?$AA@
  000c8	8d 50 03	 lea	 edx, QWORD PTR [rax+3]
  000cb	48 8b cb	 mov	 rcx, rbx
  000ce	e8 00 00 00 00	 call	 validate_numnodes
$LN11@validate_l@2:

; 2644 : 
; 2645 :     return (res);

  000d3	33 c0		 xor	 eax, eax

; 2646 : }

  000d5	48 8b 5c 24 30	 mov	 rbx, QWORD PTR [rsp+48]
  000da	48 83 c4 20	 add	 rsp, 32			; 00000020H
  000de	5f		 pop	 rdi
  000df	c3		 ret	 0
validate_lambdef_nocond ENDP
_TEXT	ENDS
PUBLIC	??_C@_07GFDBDBKB@sliceop?$AA@			; `string'
;	COMDAT pdata
pdata	SEGMENT
$pdata$validate_sliceop DD imagerel validate_sliceop
	DD	imagerel validate_sliceop+158
	DD	imagerel $unwind$validate_sliceop
pdata	ENDS
;	COMDAT xdata
xdata	SEGMENT
$unwind$validate_sliceop DD 040a01H
	DD	06340aH
	DD	07006320aH
xdata	ENDS
;	COMDAT ??_C@_07GFDBDBKB@sliceop?$AA@
CONST	SEGMENT
??_C@_07GFDBDBKB@sliceop?$AA@ DB 'sliceop', 00H		; `string'
; Function compile flags: /Ogtpy
CONST	ENDS
;	COMDAT validate_sliceop
_TEXT	SEGMENT
tree$ = 48
validate_sliceop PROC					; COMDAT

; 2863 : {

  00000	48 89 5c 24 08	 mov	 QWORD PTR [rsp+8], rbx
  00005	57		 push	 rdi
  00006	48 83 ec 20	 sub	 rsp, 32			; 00000020H

; 2864 :     int nch = NCH(tree);

  0000a	8b 79 18	 mov	 edi, DWORD PTR [rcx+24]
  0000d	48 8b d9	 mov	 rbx, rcx

; 2865 :     int res = ((nch == 1) || validate_numnodes(tree, 2, "sliceop"))
; 2866 :               && validate_ntype(tree, sliceop);

  00010	83 ff 01	 cmp	 edi, 1
  00013	74 15		 je	 SHORT $LN6@validate_s@3
  00015	4c 8d 05 00 00
