; Listing generated by Microsoft (R) Optimizing Compiler Version 16.00.40219.01 

include listing.inc

INCLUDELIB MSVCRT
INCLUDELIB OLDNAMES

PUBLIC	??_C@_04BNOAKKGF@_ast?$AA@			; `string'
PUBLIC	??_C@_0M@CDHEEICO@_attributes?$AA@		; `string'
PUBLIC	??_C@_08IBLOGDG@_ast?4AST?$AA@			; `string'
PUBLIC	??_C@_0L@NNMACJIG@__reduce__?$AA@		; `string'
PUBLIC	??_C@_08IBFKALI@__dict__?$AA@			; `string'
PUBLIC	??_C@_07LKKIBPPO@_fields?$AA@			; `string'
PUBLIC	??_C@_0O@PNIBPJAK@optional_vars?$AA@		; `string'
PUBLIC	??_C@_0N@NOGLGHPG@context_expr?$AA@		; `string'
PUBLIC	??_C@_06DPPJIGGE@asname?$AA@			; `string'
PUBLIC	??_C@_0L@HOGAMHHM@annotation?$AA@		; `string'
PUBLIC	??_C@_03CAOIPBNL@arg?$AA@			; `string'
PUBLIC	??_C@_0M@OHIOHNMJ@kw_defaults?$AA@		; `string'
PUBLIC	??_C@_08LMJEPNLL@defaults?$AA@			; `string'
PUBLIC	??_C@_0BA@JACLGMFO@kwargannotation?$AA@		; `string'
PUBLIC	??_C@_05JJKPEMCC@kwarg?$AA@			; `string'
PUBLIC	??_C@_0L@PJHGIGJA@kwonlyargs?$AA@		; `string'
PUBLIC	??_C@_0BB@LBMLKLGK@varargannotation?$AA@	; `string'
PUBLIC	??_C@_06FDMCHLPI@vararg?$AA@			; `string'
PUBLIC	??_C@_04GPMDFGEJ@type?$AA@			; `string'
PUBLIC	??_C@_03NANNAFMN@ifs?$AA@			; `string'
PUBLIC	??_C@_04FHFMBDKA@dims?$AA@			; `string'
PUBLIC	??_C@_04CNBNFAL@step?$AA@			; `string'
PUBLIC	??_C@_05NECKJAMC@upper?$AA@			; `string'
PUBLIC	??_C@_05IPJEPLHL@lower?$AA@			; `string'
PUBLIC	??_C@_02EGCJHIOB@id?$AA@			; `string'
PUBLIC	??_C@_05ILHMOJGN@slice?$AA@			; `string'
PUBLIC	??_C@_03EDDGELHM@ctx?$AA@			; `string'
PUBLIC	??_C@_04DHCDLKCM@attr?$AA@			; `string'
PUBLIC	??_C@_01LKDEMHDF@s?$AA@				; `string'
PUBLIC	??_C@_01EFFIKLCJ@n?$AA@				; `string'
PUBLIC	??_C@_04HPNHAEOP@func?$AA@			; `string'
PUBLIC	??_C@_0M@FEBOCDAK@comparators?$AA@		; `string'
PUBLIC	??_C@_03ONBNIFND@ops?$AA@			; `string'
PUBLIC	??_C@_03ICHNJLJF@key?$AA@			; `string'
PUBLIC	??_C@_0L@FCNMNMNJ@generators?$AA@		; `string'
PUBLIC	??_C@_03NINNKJGE@elt?$AA@			; `string'
PUBLIC	??_C@_04EOBFFCNN@elts?$AA@			; `string'
PUBLIC	??_C@_04IEPFDAGF@keys?$AA@			; `string'
PUBLIC	??_C@_07GEBHLHAD@operand?$AA@			; `string'
PUBLIC	??_C@_05DHJDAOHK@right?$AA@			; `string'
PUBLIC	??_C@_04GOOOJOPP@left?$AA@			; `string'
PUBLIC	??_C@_06GEKOPAHD@values?$AA@			; `string'
PUBLIC	??_C@_05KJNJLLGA@level?$AA@			; `string'
PUBLIC	??_C@_06BIEEJMKO@module?$AA@			; `string'
PUBLIC	??_C@_05FLNDGCKL@names?$AA@			; `string'
PUBLIC	??_C@_03GLPMCEFE@msg?$AA@			; `string'
PUBLIC	??_C@_09JGEOIMID@finalbody?$AA@			; `string'
PUBLIC	??_C@_08KJLNBJEK@handlers?$AA@			; `string'
PUBLIC	??_C@_05HGNDGEBA@cause?$AA@			; `string'
PUBLIC	??_C@_03MGHBCGFO@exc?$AA@			; `string'
PUBLIC	??_C@_05CFHBDDLG@items?$AA@			; `string'
PUBLIC	??_C@_04CEJDCDCH@test?$AA@			; `string'
PUBLIC	??_C@_06DHJIEJCK@orelse?$AA@			; `string'
PUBLIC	??_C@_04BKLHDIKK@iter?$AA@			; `string'
PUBLIC	??_C@_02GMAKNDAG@op?$AA@			; `string'
PUBLIC	??_C@_06JJLAMBGK@target?$AA@			; `string'
PUBLIC	??_C@_07KJOMBCLC@targets?$AA@			; `string'
PUBLIC	??_C@_05MFEJDJP@value?$AA@			; `string'
PUBLIC	??_C@_06NBOLMEJN@kwargs?$AA@			; `string'
PUBLIC	??_C@_08LPAHKBMK@starargs?$AA@			; `string'
PUBLIC	??_C@_08KBIEDDDE@keywords?$AA@			; `string'
PUBLIC	??_C@_05JMNHICHM@bases?$AA@			; `string'
PUBLIC	??_C@_07ILMKFBFJ@returns?$AA@			; `string'
PUBLIC	??_C@_0P@LMCHOPJJ@decorator_list?$AA@		; `string'
PUBLIC	??_C@_04BFDDMJJI@args?$AA@			; `string'
PUBLIC	??_C@_04MEMAJGDJ@name?$AA@			; `string'
PUBLIC	??_C@_0L@ICBHJKOA@col_offset?$AA@		; `string'
PUBLIC	??_C@_06ILKIAHNN@lineno?$AA@			; `string'
PUBLIC	??_C@_04IEJGKNJ@body?$AA@			; `string'
EXTRN	PyObject_GC_Del:PROC
EXTRN	PyType_GenericNew:PROC
EXTRN	PyType_GenericAlloc:PROC
EXTRN	PyObject_GenericSetAttr:PROC
EXTRN	PyObject_GenericGetAttr:PROC
EXTRN	PyType_Type:BYTE
EXTRN	PyObject_GenericSetDict:PROC
EXTRN	PyObject_GenericGetDict:PROC
;	COMDAT ??_C@_04BNOAKKGF@_ast?$AA@
CONST	SEGMENT
??_C@_04BNOAKKGF@_ast?$AA@ DB '_ast', 00H		; `string'
CONST	ENDS
;	COMDAT ??_C@_0M@CDHEEICO@_attributes?$AA@
CONST	SEGMENT
??_C@_0M@CDHEEICO@_attributes?$AA@ DB '_attributes', 00H ; `string'
CONST	ENDS
;	COMDAT ??_C@_08IBLOGDG@_ast?4AST?$AA@
CONST	SEGMENT
??_C@_08IBLOGDG@_ast?4AST?$AA@ DB '_ast.AST', 00H	; `string'
CONST	ENDS
;	COMDAT ??_C@_0L@NNMACJIG@__reduce__?$AA@
CONST	SEGMENT
??_C@_0L@NNMACJIG@__reduce__?$AA@ DB '__reduce__', 00H	; `string'
CONST	ENDS
;	COMDAT ??_C@_08IBFKALI@__dict__?$AA@
CONST	SEGMENT
??_C@_08IBFKALI@__dict__?$AA@ DB '__dict__', 00H	; `string'
CONST	ENDS
;	COMDAT ??_C@_07LKKIBPPO@_fields?$AA@
CONST	SEGMENT
??_C@_07LKKIBPPO@_fields?$AA@ DB '_fields', 00H		; `string'
CONST	ENDS
;	COMDAT ??_C@_0O@PNIBPJAK@optional_vars?$AA@
CONST	SEGMENT
??_C@_0O@PNIBPJAK@optional_vars?$AA@ DB 'optional_vars', 00H ; `string'
CONST	ENDS
;	COMDAT ??_C@_0N@NOGLGHPG@context_expr?$AA@
CONST	SEGMENT
??_C@_0N@NOGLGHPG@context_expr?$AA@ DB 'context_expr', 00H ; `string'
CONST	ENDS
;	COMDAT ??_C@_06DPPJIGGE@asname?$AA@
CONST	SEGMENT
??_C@_06DPPJIGGE@asname?$AA@ DB 'asname', 00H		; `string'
CONST	ENDS
;	COMDAT ??_C@_0L@HOGAMHHM@annotation?$AA@
CONST	SEGMENT
??_C@_0L@HOGAMHHM@annotation?$AA@ DB 'annotation', 00H	; `string'
CONST	ENDS
;	COMDAT ??_C@_03CAOIPBNL@arg?$AA@
CONST	SEGMENT
??_C@_03CAOIPBNL@arg?$AA@ DB 'arg', 00H			; `string'
CONST	ENDS
;	COMDAT ??_C@_0M@OHIOHNMJ@kw_defaults?$AA@
CONST	SEGMENT
??_C@_0M@OHIOHNMJ@kw_defaults?$AA@ DB 'kw_defaults', 00H ; `string'
CONST	ENDS
;	COMDAT ??_C@_08LMJEPNLL@defaults?$AA@
CONST	SEGMENT
??_C@_08LMJEPNLL@defaults?$AA@ DB 'defaults', 00H	; `string'
CONST	ENDS
;	COMDAT ??_C@_0BA@JACLGMFO@kwargannotation?$AA@
CONST	SEGMENT
??_C@_0BA@JACLGMFO@kwargannotation?$AA@ DB 'kwargannotation', 00H ; `string'
CONST	ENDS
;	COMDAT ??_C@_05JJKPEMCC@kwarg?$AA@
CONST	SEGMENT
??_C@_05JJKPEMCC@kwarg?$AA@ DB 'kwarg', 00H		; `string'
CONST	ENDS
;	COMDAT ??_C@_0L@PJHGIGJA@kwonlyargs?$AA@
CONST	SEGMENT
??_C@_0L@PJHGIGJA@kwonlyargs?$AA@ DB 'kwonlyargs', 00H	; `string'
CONST	ENDS
;	COMDAT ??_C@_0BB@LBMLKLGK@varargannotation?$AA@
CONST	SEGMENT
??_C@_0BB@LBMLKLGK@varargannotation?$AA@ DB 'varargannotation', 00H ; `string'
CONST	ENDS
;	COMDAT ??_C@_06FDMCHLPI@vararg?$AA@
CONST	SEGMENT
??_C@_06FDMCHLPI@vararg?$AA@ DB 'vararg', 00H		; `string'
CONST	ENDS
;	COMDAT ??_C@_04GPMDFGEJ@type?$AA@
CONST	SEGMENT
??_C@_04GPMDFGEJ@type?$AA@ DB 'type', 00H		; `string'
CONST	ENDS
;	COMDAT ??_C@_03NANNAFMN@ifs?$AA@
CONST	SEGMENT
??_C@_03NANNAFMN@ifs?$AA@ DB 'ifs', 00H			; `string'
CONST	ENDS
;	COMDAT ??_C@_04FHFMBDKA@dims?$AA@
CONST	SEGMENT
??_C@_04FHFMBDKA@dims?$AA@ DB 'dims', 00H		; `string'
CONST	ENDS
;	COMDAT ??_C@_04CNBNFAL@step?$AA@
CONST	SEGMENT
??_C@_04CNBNFAL@step?$AA@ DB 'step', 00H		; `string'
CONST	ENDS
;	COMDAT ??_C@_05NECKJAMC@upper?$AA@
CONST	SEGMENT
??_C@_05NECKJAMC@upper?$AA@ DB 'upper', 00H		; `string'
CONST	ENDS
;	COMDAT ??_C@_05IPJEPLHL@lower?$AA@
CONST	SEGMENT
??_C@_05IPJEPLHL@lower?$AA@ DB 'lower', 00H		; `string'
CONST	ENDS
;	COMDAT ??_C@_02EGCJHIOB@id?$AA@
CONST	SEGMENT
??_C@_02EGCJHIOB@id?$AA@ DB 'id', 00H			; `string'
CONST	ENDS
;	COMDAT ??_C@_05ILHMOJGN@slice?$AA@
CONST	SEGMENT
??_C@_05ILHMOJGN@slice?$AA@ DB 'slice', 00H		; `string'
CONST	ENDS
;	COMDAT ??_C@_03EDDGELHM@ctx?$AA@
CONST	SEGMENT
??_C@_03EDDGELHM@ctx?$AA@ DB 'ctx', 00H			; `string'
CONST	ENDS
;	COMDAT ??_C@_04DHCDLKCM@attr?$AA@
CONST	SEGMENT
??_C@_04DHCDLKCM@attr?$AA@ DB 'attr', 00H		; `string'
CONST	ENDS
;	COMDAT ??_C@_01LKDEMHDF@s?$AA@
CONST	SEGMENT
??_C@_01LKDEMHDF@s?$AA@ DB 's', 00H			; `string'
CONST	ENDS
;	COMDAT ??_C@_01EFFIKLCJ@n?$AA@
CONST	SEGMENT
??_C@_01EFFIKLCJ@n?$AA@ DB 'n', 00H			; `string'
CONST	ENDS
;	COMDAT ??_C@_04HPNHAEOP@func?$AA@
CONST	SEGMENT
??_C@_04HPNHAEOP@func?$AA@ DB 'func', 00H		; `string'
CONST	ENDS
;	COMDAT ??_C@_0M@FEBOCDAK@comparators?$AA@
CONST	SEGMENT
??_C@_0M@FEBOCDAK@comparators?$AA@ DB 'comparators', 00H ; `string'
CONST	ENDS
;	COMDAT ??_C@_03ONBNIFND@ops?$AA@
CONST	SEGMENT
??_C@_03ONBNIFND@ops?$AA@ DB 'ops', 00H			; `string'
CONST	ENDS
;	COMDAT ??_C@_03ICHNJLJF@key?$AA@
CONST	SEGMENT
??_C@_03ICHNJLJF@key?$AA@ DB 'key', 00H			; `string'
CONST	ENDS
;	COMDAT ??_C@_0L@FCNMNMNJ@generators?$AA@
CONST	SEGMENT
??_C@_0L@FCNMNMNJ@generators?$AA@ DB 'generators', 00H	; `string'
CONST	ENDS
;	COMDAT ??_C@_03NINNKJGE@elt?$AA@
CONST	SEGMENT
??_C@_03NINNKJGE@elt?$AA@ DB 'elt', 00H			; `string'
CONST	ENDS
;	COMDAT ??_C@_04EOBFFCNN@elts?$AA@
CONST	SEGMENT
??_C@_04EOBFFCNN@elts?$AA@ DB 'elts', 00H		; `string'
CONST	ENDS
;	COMDAT ??_C@_04IEPFDAGF@keys?$AA@
CONST	SEGMENT
??_C@_04IEPFDAGF@keys?$AA@ DB 'keys', 00H		; `string'
CONST	ENDS
;	COMDAT ??_C@_07GEBHLHAD@operand?$AA@
CONST	SEGMENT
??_C@_07GEBHLHAD@operand?$AA@ DB 'operand', 00H		; `string'
CONST	ENDS
;	COMDAT ??_C@_05DHJDAOHK@right?$AA@
CONST	SEGMENT
??_C@_05DHJDAOHK@right?$AA@ DB 'right', 00H		; `string'
CONST	ENDS
;	COMDAT ??_C@_04GOOOJOPP@left?$AA@
CONST	SEGMENT
??_C@_04GOOOJOPP@left?$AA@ DB 'left', 00H		; `string'
CONST	ENDS
;	COMDAT ??_C@_06GEKOPAHD@values?$AA@
CONST	SEGMENT
??_C@_06GEKOPAHD@values?$AA@ DB 'values', 00H		; `string'
CONST	ENDS
;	COMDAT ??_C@_05KJNJLLGA@level?$AA@
CONST	SEGMENT
??_C@_05KJNJLLGA@level?$AA@ DB 'level', 00H		; `string'
CONST	ENDS
;	COMDAT ??_C@_06BIEEJMKO@module?$AA@
CONST	SEGMENT
??_C@_06BIEEJMKO@module?$AA@ DB 'module', 00H		; `string'
CONST	ENDS
;	COMDAT ??_C@_05FLNDGCKL@names?$AA@
CONST	SEGMENT
??_C@_05FLNDGCKL@names?$AA@ DB 'names', 00H		; `string'
CONST	ENDS
;	COMDAT ??_C@_03GLPMCEFE@msg?$AA@
CONST	SEGMENT
??_C@_03GLPMCEFE@msg?$AA@ DB 'msg', 00H			; `string'
CONST	ENDS
;	COMDAT ??_C@_09JGEOIMID@finalbody?$AA@
CONST	SEGMENT
??_C@_09JGEOIMID@finalbody?$AA@ DB 'finalbody', 00H	; `string'
CONST	ENDS
;	COMDAT ??_C@_08KJLNBJEK@handlers?$AA@
CONST	SEGMENT
??_C@_08KJLNBJEK@handlers?$AA@ DB 'handlers', 00H	; `string'
CONST	ENDS
;	COMDAT ??_C@_05HGNDGEBA@cause?$AA@
CONST	SEGMENT
??_C@_05HGNDGEBA@cause?$AA@ DB 'cause', 00H		; `string'
CONST	ENDS
;	COMDAT ??_C@_03MGHBCGFO@exc?$AA@
CONST	SEGMENT
??_C@_03MGHBCGFO@exc?$AA@ DB 'exc', 00H			; `string'
CONST	ENDS
;	COMDAT ??_C@_05CFHBDDLG@items?$AA@
CONST	SEGMENT
??_C@_05CFHBDDLG@items?$AA@ DB 'items', 00H		; `string'
CONST	ENDS
;	COMDAT ??_C@_04CEJDCDCH@test?$AA@
CONST	SEGMENT
??_C@_04CEJDCDCH@test?$AA@ DB 'test', 00H		; `string'
CONST	ENDS
;	COMDAT ??_C@_06DHJIEJCK@orelse?$AA@
CONST	SEGMENT
??_C@_06DHJIEJCK@orelse?$AA@ DB 'orelse', 00H		; `string'
CONST	ENDS
;	COMDAT ??_C@_04BKLHDIKK@iter?$AA@
CONST	SEGMENT
??_C@_04BKLHDIKK@iter?$AA@ DB 'iter', 00H		; `string'
CONST	ENDS
;	COMDAT ??_C@_02GMAKNDAG@op?$AA@
CONST	SEGMENT
??_C@_02GMAKNDAG@op?$AA@ DB 'op', 00H			; `string'
CONST	ENDS
;	COMDAT ??_C@_06JJLAMBGK@target?$AA@
CONST	SEGMENT
??_C@_06JJLAMBGK@target?$AA@ DB 'target', 00H		; `string'
CONST	ENDS
;	COMDAT ??_C@_07KJOMBCLC@targets?$AA@
CONST	SEGMENT
??_C@_07KJOMBCLC@targets?$AA@ DB 'targets', 00H		; `string'
CONST	ENDS
;	COMDAT ??_C@_05MFEJDJP@value?$AA@
CONST	SEGMENT
??_C@_05MFEJDJP@value?$AA@ DB 'value', 00H		; `string'
CONST	ENDS
;	COMDAT ??_C@_06NBOLMEJN@kwargs?$AA@
CONST	SEGMENT
??_C@_06NBOLMEJN@kwargs?$AA@ DB 'kwargs', 00H		; `string'
CONST	ENDS
;	COMDAT ??_C@_08LPAHKBMK@starargs?$AA@
CONST	SEGMENT
??_C@_08LPAHKBMK@starargs?$AA@ DB 'starargs', 00H	; `string'
CONST	ENDS
;	COMDAT ??_C@_08KBIEDDDE@keywords?$AA@
CONST	SEGMENT
??_C@_08KBIEDDDE@keywords?$AA@ DB 'keywords', 00H	; `string'
CONST	ENDS
;	COMDAT ??_C@_05JMNHICHM@bases?$AA@
CONST	SEGMENT
??_C@_05JMNHICHM@bases?$AA@ DB 'bases', 00H		; `string'
CONST	ENDS
;	COMDAT ??_C@_07ILMKFBFJ@returns?$AA@
CONST	SEGMENT
??_C@_07ILMKFBFJ@returns?$AA@ DB 'returns', 00H		; `string'
CONST	ENDS
;	COMDAT ??_C@_0P@LMCHOPJJ@decorator_list?$AA@
CONST	SEGMENT
??_C@_0P@LMCHOPJJ@decorator_list?$AA@ DB 'decorator_list', 00H ; `string'
CONST	ENDS
;	COMDAT ??_C@_04BFDDMJJI@args?$AA@
CONST	SEGMENT
??_C@_04BFDDMJJI@args?$AA@ DB 'args', 00H		; `string'
CONST	ENDS
;	COMDAT ??_C@_04MEMAJGDJ@name?$AA@
CONST	SEGMENT
??_C@_04MEMAJGDJ@name?$AA@ DB 'name', 00H		; `string'
CONST	ENDS
;	COMDAT ??_C@_0L@ICBHJKOA@col_offset?$AA@
CONST	SEGMENT
??_C@_0L@ICBHJKOA@col_offset?$AA@ DB 'col_offset', 00H	; `string'
CONST	ENDS
;	COMDAT ??_C@_06ILKIAHNN@lineno?$AA@
CONST	SEGMENT
??_C@_06ILKIAHNN@lineno?$AA@ DB 'lineno', 00H		; `string'
CONST	ENDS
_DATA	SEGMENT
Module_fields DQ FLAT:??_C@_04IEJGKNJ@body?$AA@
Interactive_fields DQ FLAT:??_C@_04IEJGKNJ@body?$AA@
Expression_fields DQ FLAT:??_C@_04IEJGKNJ@body?$AA@
Suite_fields DQ	FLAT:??_C@_04IEJGKNJ@body?$AA@
stmt_attributes DQ FLAT:??_C@_06ILKIAHNN@lineno?$AA@
	DQ	FLAT:??_C@_0L@ICBHJKOA@col_offset?$AA@
FunctionDef_fields DQ FLAT:??_C@_04MEMAJGDJ@name?$AA@
	DQ	FLAT:??_C@_04BFDDMJJI@args?$AA@
	DQ	FLAT:??_C@_04IEJGKNJ@body?$AA@
	DQ	FLAT:??_C@_0P@LMCHOPJJ@decorator_list?$AA@
	DQ	FLAT:??_C@_07ILMKFBFJ@returns?$AA@
ClassDef_fields DQ FLAT:??_C@_04MEMAJGDJ@name?$AA@
	DQ	FLAT:??_C@_05JMNHICHM@bases?$AA@
	DQ	FLAT:??_C@_08KBIEDDDE@keywords?$AA@
	DQ	FLAT:??_C@_08LPAHKBMK@starargs?$AA@
	DQ	FLAT:??_C@_06NBOLMEJN@kwargs?$AA@
	DQ	FLAT:??_C@_04IEJGKNJ@body?$AA@
	DQ	FLAT:??_C@_0P@LMCHOPJJ@decorator_list?$AA@
Return_fields DQ FLAT:??_C@_05MFEJDJP@value?$AA@
Delete_fields DQ FLAT:??_C@_07KJOMBCLC@targets?$AA@
Assign_fields DQ FLAT:??_C@_07KJOMBCLC@targets?$AA@
	DQ	FLAT:??_C@_05MFEJDJP@value?$AA@
AugAssign_fields DQ FLAT:??_C@_06JJLAMBGK@target?$AA@
	DQ	FLAT:??_C@_02GMAKNDAG@op?$AA@
	DQ	FLAT:??_C@_05MFEJDJP@value?$AA@
For_fields DQ	FLAT:??_C@_06JJLAMBGK@target?$AA@
	DQ	FLAT:??_C@_04BKLHDIKK@iter?$AA@
	DQ	FLAT:??_C@_04IEJGKNJ@body?$AA@
	DQ	FLAT:??_C@_06DHJIEJCK@orelse?$AA@
While_fields DQ	FLAT:??_C@_04CEJDCDCH@test?$AA@
	DQ	FLAT:??_C@_04IEJGKNJ@body?$AA@
	DQ	FLAT:??_C@_06DHJIEJCK@orelse?$AA@
If_fields DQ	FLAT:??_C@_04CEJDCDCH@test?$AA@
	DQ	FLAT:??_C@_04IEJGKNJ@body?$AA@
	DQ	FLAT:??_C@_06DHJIEJCK@orelse?$AA@
With_fields DQ	FLAT:??_C@_05CFHBDDLG@items?$AA@
	DQ	FLAT:??_C@_04IEJGKNJ@body?$AA@
Raise_fields DQ	FLAT:??_C@_03MGHBCGFO@exc?$AA@
	DQ	FLAT:??_C@_05HGNDGEBA@cause?$AA@
Try_fields DQ	FLAT:??_C@_04IEJGKNJ@body?$AA@
	DQ	FLAT:??_C@_08KJLNBJEK@handlers?$AA@
	DQ	FLAT:??_C@_06DHJIEJCK@orelse?$AA@
	DQ	FLAT:??_C@_09JGEOIMID@finalbody?$AA@
Assert_fields DQ FLAT:??_C@_04CEJDCDCH@test?$AA@
	DQ	FLAT:??_C@_03GLPMCEFE@msg?$AA@
Import_fields DQ FLAT:??_C@_05FLNDGCKL@names?$AA@
ImportFrom_fields DQ FLAT:??_C@_06BIEEJMKO@module?$AA@
	DQ	FLAT:??_C@_05FLNDGCKL@names?$AA@
	DQ	FLAT:??_C@_05KJNJLLGA@level?$AA@
Global_fields DQ FLAT:??_C@_05FLNDGCKL@names?$AA@
Nonlocal_fields DQ FLAT:??_C@_05FLNDGCKL@names?$AA@
Expr_fields DQ	FLAT:??_C@_05MFEJDJP@value?$AA@
expr_attributes DQ FLAT:??_C@_06ILKIAHNN@lineno?$AA@
	DQ	FLAT:??_C@_0L@ICBHJKOA@col_offset?$AA@
BoolOp_fields DQ FLAT:??_C@_02GMAKNDAG@op?$AA@
	DQ	FLAT:??_C@_06GEKOPAHD@values?$AA@
BinOp_fields DQ	FLAT:??_C@_04GOOOJOPP@left?$AA@
	DQ	FLAT:??_C@_02GMAKNDAG@op?$AA@
	DQ	FLAT:??_C@_05DHJDAOHK@right?$AA@
UnaryOp_fields DQ FLAT:??_C@_02GMAKNDAG@op?$AA@
	DQ	FLAT:??_C@_07GEBHLHAD@operand?$AA@
Lambda_fields DQ FLAT:??_C@_04BFDDMJJI@args?$AA@
	DQ	FLAT:??_C@_04IEJGKNJ@body?$AA@
IfExp_fields DQ	FLAT:??_C@_04CEJDCDCH@test?$AA@
	DQ	FLAT:??_C@_04IEJGKNJ@body?$AA@
	DQ	FLAT:??_C@_06DHJIEJCK@orelse?$AA@
Dict_fields DQ	FLAT:??_C@_04IEPFDAGF@keys?$AA@
	DQ	FLAT:??_C@_06GEKOPAHD@values?$AA@
Set_fields DQ	FLAT:??_C@_04EOBFFCNN@elts?$AA@
ListComp_fields DQ FLAT:??_C@_03NINNKJGE@elt?$AA@
	DQ	FLAT:??_C@_0L@FCNMNMNJ@generators?$AA@
SetComp_fields DQ FLAT:??_C@_03NINNKJGE@elt?$AA@
	DQ	FLAT:??_C@_0L@FCNMNMNJ@generators?$AA@
DictComp_fields DQ FLAT:??_C@_03ICHNJLJF@key?$AA@
	DQ	FLAT:??_C@_05MFEJDJP@value?$AA@
	DQ	FLAT:??_C@_0L@FCNMNMNJ@generators?$AA@
GeneratorExp_fields DQ FLAT:??_C@_03NINNKJGE@elt?$AA@
	DQ	FLAT:??_C@_0L@FCNMNMNJ@generators?$AA@
Yield_fields DQ	FLAT:??_C@_05MFEJDJP@value?$AA@
YieldFrom_fields DQ FLAT:??_C@_05MFEJDJP@value?$AA@
Compare_fields DQ FLAT:??_C@_04GOOOJOPP@left?$AA@
	DQ	FLAT:??_C@_03ONBNIFND@ops?$AA@
	DQ	FLAT:??_C@_0M@FEBOCDAK@comparators?$AA@
Call_fields DQ	FLAT:??_C@_04HPNHAEOP@func?$AA@
	DQ	FLAT:??_C@_04BFDDMJJI@args?$AA@
	DQ	FLAT:??_C@_08KBIEDDDE@keywords?$AA@
	DQ	FLAT:??_C@_08LPAHKBMK@starargs?$AA@
	DQ	FLAT:??_C@_06NBOLMEJN@kwargs?$AA@
Num_fields DQ	FLAT:??_C@_01EFFIKLCJ@n?$AA@
Str_fields DQ	FLAT:??_C@_01LKDEMHDF@s?$AA@
Bytes_fields DQ	FLAT:??_C@_01LKDEMHDF@s?$AA@
Attribute_fields DQ FLAT:??_C@_05MFEJDJP@value?$AA@
	DQ	FLAT:??_C@_04DHCDLKCM@attr?$AA@
	DQ	FLAT:??_C@_03EDDGELHM@ctx?$AA@
Subscript_fields DQ FLAT:??_C@_05MFEJDJP@value?$AA@
	DQ	FLAT:??_C@_05ILHMOJGN@slice?$AA@
	DQ	FLAT:??_C@_03EDDGELHM@ctx?$AA@
Starred_fields DQ FLAT:??_C@_05MFEJDJP@value?$AA@
	DQ	FLAT:??_C@_03EDDGELHM@ctx?$AA@
Name_fields DQ	FLAT:??_C@_02EGCJHIOB@id?$AA@
	DQ	FLAT:??_C@_03EDDGELHM@ctx?$AA@
List_fields DQ	FLAT:??_C@_04EOBFFCNN@elts?$AA@
	DQ	FLAT:??_C@_03EDDGELHM@ctx?$AA@
Tuple_fields DQ	FLAT:??_C@_04EOBFFCNN@elts?$AA@
	DQ	FLAT:??_C@_03EDDGELHM@ctx?$AA@
Slice_fields DQ	FLAT:??_C@_05IPJEPLHL@lower?$AA@
	DQ	FLAT:??_C@_05NECKJAMC@upper?$AA@
	DQ	FLAT:??_C@_04CNBNFAL@step?$AA@
ExtSlice_fields DQ FLAT:??_C@_04FHFMBDKA@dims?$AA@
Index_fields DQ	FLAT:??_C@_05MFEJDJP@value?$AA@
comprehension_fields DQ FLAT:??_C@_06JJLAMBGK@target?$AA@
	DQ	FLAT:??_C@_04BKLHDIKK@iter?$AA@
	DQ	FLAT:??_C@_03NANNAFMN@ifs?$AA@
excepthandler_attributes DQ FLAT:??_C@_06ILKIAHNN@lineno?$AA@
	DQ	FLAT:??_C@_0L@ICBHJKOA@col_offset?$AA@
ExceptHandler_fields DQ FLAT:??_C@_04GPMDFGEJ@type?$AA@
	DQ	FLAT:??_C@_04MEMAJGDJ@name?$AA@
	DQ	FLAT:??_C@_04IEJGKNJ@body?$AA@
arguments_fields DQ FLAT:??_C@_04BFDDMJJI@args?$AA@
	DQ	FLAT:??_C@_06FDMCHLPI@vararg?$AA@
	DQ	FLAT:??_C@_0BB@LBMLKLGK@varargannotation?$AA@
	DQ	FLAT:??_C@_0L@PJHGIGJA@kwonlyargs?$AA@
	DQ	FLAT:??_C@_05JJKPEMCC@kwarg?$AA@
	DQ	FLAT:??_C@_0BA@JACLGMFO@kwargannotation?$AA@
	DQ	FLAT:??_C@_08LMJEPNLL@defaults?$AA@
	DQ	FLAT:??_C@_0M@OHIOHNMJ@kw_defaults?$AA@
arg_fields DQ	FLAT:??_C@_03CAOIPBNL@arg?$AA@
	DQ	FLAT:??_C@_0L@HOGAMHHM@annotation?$AA@
keyword_fields DQ FLAT:??_C@_03CAOIPBNL@arg?$AA@
	DQ	FLAT:??_C@_05MFEJDJP@value?$AA@
alias_fields DQ	FLAT:??_C@_04MEMAJGDJ@name?$AA@
	DQ	FLAT:??_C@_06DPPJIGGE@asname?$AA@
withitem_fields DQ FLAT:??_C@_0N@NOGLGHPG@context_expr?$AA@
	DQ	FLAT:??_C@_0O@PNIBPJAK@optional_vars?$AA@
ast_type_methods DQ FLAT:??_C@_0L@NNMACJIG@__reduce__?$AA@
	DQ	FLAT:ast_type_reduce
	DD	04H
	ORG $+4
	DQ	0000000000000000H
	DQ	0000000000000000H
	ORG $+24
ast_type_getsets DQ FLAT:??_C@_08IBFKALI@__dict__?$AA@
	DQ	FLAT:PyObject_GenericGetDict
	DQ	FLAT:PyObject_GenericSetDict
	ORG $+16
	DQ	0000000000000000H
	ORG $+32
AST_type DQ	dead1234beef5678H
	DQ	dead1234beef5678H
	DQ	0000000000000000H
	ORG $+8
	DQ	0000000000000001H
	DQ	0000000000000000H
	DQ	0000000000000000H
	DQ	0000000000000000H
	DQ	dead1234beef5678H
	DQ	dead1234beef5678H
	DQ	0000000000000001H
	DQ	FLAT:PyType_Type
	DQ	0000000000000000H
	ORG $+8
	DQ	FLAT:??_C@_08IBLOGDG@_ast?4AST?$AA@
	DQ	0000000000000070H
	DQ	0000000000000000H
	DQ	FLAT:ast_dealloc
	DQ	0000000000000000H
	DQ	0000000000000000H
	DQ	0000000000000000H
	DQ	0000000000000000H
	DQ	0000000000000000H
	DQ	0000000000000000H
	DQ	0000000000000000H
	DQ	0000000000000000H
	DQ	0000000000000000H
	DQ	0000000000000000H
	DQ	0000000000000000H
	DQ	FLAT:PyObject_GenericGetAttr
	DQ	FLAT:PyObject_GenericSetAttr
	DQ	0000000000000000H
	DD	044400H
	ORG $+4
	DQ	0000000000000000H
	DQ	FLAT:ast_traverse
	DQ	FLAT:ast_clear
	DQ	0000000000000000H
	DQ	0000000000000000H
	DQ	0000000000000000H
	DQ	0000000000000000H
	DQ	FLAT:ast_type_methods
	DQ	0000000000000000H
	DQ	FLAT:ast_type_getsets
	DQ	0000000000000000H
	DQ	0000000000000000H
	DQ	0000000000000000H
	DQ	0000000000000000H
	DQ	0000000000000060H
	DQ	FLAT:ast_type_init
	DQ	FLAT:PyType_GenericAlloc
	DQ	FLAT:PyType_GenericNew
	DQ	FLAT:PyObject_GC_Del
	ORG $+64
_astmodule DQ	dead1234beef5678H
	DQ	dead1234beef5678H
	DQ	0000000000000000H
	ORG $+8
	DQ	0000000000000001H
	DQ	0000000000000000H
	DQ	0000000000000000H
	DQ	0000000000000000H
	DQ	dead1234beef5678H
	DQ	dead1234beef5678H
	DQ	0000000000000001H
	DQ	0000000000000000H
	DQ	0000000000000000H
	DQ	0000000000000000H
	DQ	0000000000000000H
	ORG $+8
	DQ	FLAT:??_C@_04BNOAKKGF@_ast?$AA@
	ORG $+56
_DATA	ENDS
_TLS	SEGMENT
PyId_body DQ	0000000000000000H
	DQ	FLAT:??_C@_04IEJGKNJ@body?$AA@
	DQ	0000000000000000H
PyId_value DQ	0000000000000000H
	DQ	FLAT:??_C@_05MFEJDJP@value?$AA@
	DQ	0000000000000000H
PyId_ctx DQ	0000000000000000H
	DQ	FLAT:??_C@_03EDDGELHM@ctx?$AA@
	DQ	0000000000000000H
PyId_orelse DQ	0000000000000000H
	DQ	FLAT:??_C@_06DHJIEJCK@orelse?$AA@
	DQ	0000000000000000H
PyId_generators DQ 0000000000000000H
	DQ	FLAT:??_C@_0L@FCNMNMNJ@generators?$AA@
	DQ	0000000000000000H
PyId_names DQ	0000000000000000H
	DQ	FLAT:??_C@_05FLNDGCKL@names?$AA@
	DQ	0000000000000000H
PyId_test DQ	0000000000000000H
	DQ	FLAT:??_C@_04CEJDCDCH@test?$AA@
	DQ	0000000000000000H
PyId_op	DQ	0000000000000000H
	DQ	FLAT:??_C@_02GMAKNDAG@op?$AA@
	DQ	0000000000000000H
PyId_args DQ	0000000000000000H
	DQ	FLAT:??_C@_04BFDDMJJI@args?$AA@
	DQ	0000000000000000H
PyId_name DQ	0000000000000000H
	DQ	FLAT:??_C@_04MEMAJGDJ@name?$AA@
	DQ	0000000000000000H
PyId_elt DQ	0000000000000000H
	DQ	FLAT:??_C@_03NINNKJGE@elt?$AA@
	DQ	0000000000000000H
PyId_elts DQ	0000000000000000H
	DQ	FLAT:??_C@_04EOBFFCNN@elts?$AA@
	DQ	0000000000000000H
PyId_target DQ	0000000000000000H
	DQ	FLAT:??_C@_06JJLAMBGK@target?$AA@
	DQ	0000000000000000H
PyId_col_offset DQ 0000000000000000H
	DQ	FLAT:??_C@_0L@ICBHJKOA@col_offset?$AA@
	DQ	0000000000000000H
PyId_lineno DQ	0000000000000000H
	DQ	FLAT:??_C@_06ILKIAHNN@lineno?$AA@
	DQ	0000000000000000H
PyId_arg DQ	0000000000000000H
	DQ	FLAT:??_C@_03CAOIPBNL@arg?$AA@
	DQ	0000000000000000H
PyId_s	DQ	0000000000000000H
	DQ	FLAT:??_C@_01LKDEMHDF@s?$AA@
	DQ	0000000000000000H
PyId_left DQ	0000000000000000H
	DQ	FLAT:??_C@_04GOOOJOPP@left?$AA@
	DQ	0000000000000000H
PyId_values DQ	0000000000000000H
	DQ	FLAT:??_C@_06GEKOPAHD@values?$AA@
	DQ	0000000000000000H
PyId_iter DQ	0000000000000000H
	DQ	FLAT:??_C@_04BKLHDIKK@iter?$AA@
	DQ	0000000000000000H
PyId_targets DQ	0000000000000000H
	DQ	FLAT:??_C@_07KJOMBCLC@targets?$AA@
	DQ	0000000000000000H
PyId_kwargs DQ	0000000000000000H
	DQ	FLAT:??_C@_06NBOLMEJN@kwargs?$AA@
	DQ	0000000000000000H
PyId_starargs DQ 0000000000000000H
	DQ	FLAT:??_C@_08LPAHKBMK@starargs?$AA@
	DQ	0000000000000000H
PyId_keywords DQ 0000000000000000H
	DQ	FLAT:??_C@_08KBIEDDDE@keywords?$AA@
	DQ	0000000000000000H
PyId_decorator_list DQ 0000000000000000H
	DQ	FLAT:??_C@_0P@LMCHOPJJ@decorator_list?$AA@
	DQ	0000000000000000H
PyId_optional_vars DQ 0000000000000000H
	DQ	FLAT:??_C@_0O@PNIBPJAK@optional_vars?$AA@
	DQ	0000000000000000H
PyId_context_expr DQ 0000000000000000H
	DQ	FLAT:??_C@_0N@NOGLGHPG@context_expr?$AA@
	DQ	0000000000000000H
PyId_asname DQ	0000000000000000H
	DQ	FLAT:??_C@_06DPPJIGGE@asname?$AA@
	DQ	0000000000000000H
PyId_annotation DQ 0000000000000000H
	DQ	FLAT:??_C@_0L@HOGAMHHM@annotation?$AA@
	DQ	0000000000000000H
PyId_kw_defaults DQ 0000000000000000H
	DQ	FLAT:??_C@_0M@OHIOHNMJ@kw_defaults?$AA@
	DQ	0000000000000000H
PyId_defaults DQ 0000000000000000H
	DQ	FLAT:??_C@_08LMJEPNLL@defaults?$AA@
	DQ	0000000000000000H
PyId_kwargannotation DQ 0000000000000000H
	DQ	FLAT:??_C@_0BA@JACLGMFO@kwargannotation?$AA@
	DQ	0000000000000000H
PyId_kwarg DQ	0000000000000000H
	DQ	FLAT:??_C@_05JJKPEMCC@kwarg?$AA@
	DQ	0000000000000000H
PyId_kwonlyargs DQ 0000000000000000H
	DQ	FLAT:??_C@_0L@PJHGIGJA@kwonlyargs?$AA@
	DQ	0000000000000000H
PyId_varargannotation DQ 0000000000000000H
	DQ	FLAT:??_C@_0BB@LBMLKLGK@varargannotation?$AA@
	DQ	0000000000000000H
PyId_vararg DQ	0000000000000000H
	DQ	FLAT:??_C@_06FDMCHLPI@vararg?$AA@
	DQ	0000000000000000H
PyId_type DQ	0000000000000000H
	DQ	FLAT:??_C@_04GPMDFGEJ@type?$AA@
	DQ	0000000000000000H
PyId_ifs DQ	0000000000000000H
	DQ	FLAT:??_C@_03NANNAFMN@ifs?$AA@
	DQ	0000000000000000H
PyId_dims DQ	0000000000000000H
	DQ	FLAT:??_C@_04FHFMBDKA@dims?$AA@
	DQ	0000000000000000H
PyId_step DQ	0000000000000000H
	DQ	FLAT:??_C@_04CNBNFAL@step?$AA@
	DQ	0000000000000000H
PyId_upper DQ	0000000000000000H
	DQ	FLAT:??_C@_05NECKJAMC@upper?$AA@
	DQ	0000000000000000H
PyId_lower DQ	0000000000000000H
	DQ	FLAT:??_C@_05IPJEPLHL@lower?$AA@
	DQ	0000000000000000H
PyId_id	DQ	0000000000000000H
	DQ	FLAT:??_C@_02EGCJHIOB@id?$AA@
	DQ	0000000000000000H
PyId_slice DQ	0000000000000000H
	DQ	FLAT:??_C@_05ILHMOJGN@slice?$AA@
	DQ	0000000000000000H
PyId_attr DQ	0000000000000000H
	DQ	FLAT:??_C@_04DHCDLKCM@attr?$AA@
	DQ	0000000000000000H
PyId_n	DQ	0000000000000000H
	DQ	FLAT:??_C@_01EFFIKLCJ@n?$AA@
	DQ	0000000000000000H
PyId_func DQ	0000000000000000H
	DQ	FLAT:??_C@_04HPNHAEOP@func?$AA@
	DQ	0000000000000000H
PyId_comparators DQ 0000000000000000H
	DQ	FLAT:??_C@_0M@FEBOCDAK@comparators?$AA@
	DQ	0000000000000000H
PyId_ops DQ	0000000000000000H
	DQ	FLAT:??_C@_03ONBNIFND@ops?$AA@
	DQ	0000000000000000H
PyId_key DQ	0000000000000000H
	DQ	FLAT:??_C@_03ICHNJLJF@key?$AA@
	DQ	0000000000000000H
PyId_keys DQ	0000000000000000H
	DQ	FLAT:??_C@_04IEPFDAGF@keys?$AA@
	DQ	0000000000000000H
PyId_operand DQ	0000000000000000H
	DQ	FLAT:??_C@_07GEBHLHAD@operand?$AA@
	DQ	0000000000000000H
PyId_right DQ	0000000000000000H
	DQ	FLAT:??_C@_05DHJDAOHK@right?$AA@
	DQ	0000000000000000H
PyId_level DQ	0000000000000000H
	DQ	FLAT:??_C@_05KJNJLLGA@level?$AA@
	DQ	0000000000000000H
PyId_module DQ	0000000000000000H
	DQ	FLAT:??_C@_06BIEEJMKO@module?$AA@
	DQ	0000000000000000H
PyId_msg DQ	0000000000000000H
	DQ	FLAT:??_C@_03GLPMCEFE@msg?$AA@
	DQ	0000000000000000H
PyId_finalbody DQ 0000000000000000H
	DQ	FLAT:??_C@_09JGEOIMID@finalbody?$AA@
	DQ	0000000000000000H
PyId_handlers DQ 0000000000000000H
	DQ	FLAT:??_C@_08KJLNBJEK@handlers?$AA@
	DQ	0000000000000000H
PyId_cause DQ	0000000000000000H
	DQ	FLAT:??_C@_05HGNDGEBA@cause?$AA@
	DQ	0000000000000000H
PyId_exc DQ	0000000000000000H
	DQ	FLAT:??_C@_03MGHBCGFO@exc?$AA@
	DQ	0000000000000000H
PyId_items DQ	0000000000000000H
	DQ	FLAT:??_C@_05CFHBDDLG@items?$AA@
	DQ	0000000000000000H
PyId_bases DQ	0000000000000000H
	DQ	FLAT:??_C@_05JMNHICHM@bases?$AA@
	DQ	0000000000000000H
PyId_returns DQ	0000000000000000H
	DQ	FLAT:??_C@_07ILMKFBFJ@returns?$AA@
	DQ	0000000000000000H
?PyId__attributes@?1??add_attributes@@9@9 DQ 0000000000000000H ; `add_attributes'::`2'::PyId__attributes
	DQ	FLAT:??_C@_0M@CDHEEICO@_attributes?$AA@
	DQ	0000000000000000H
?PyId___dict__@?1??ast_type_reduce@@9@9 DQ 0000000000000000H ; `ast_type_reduce'::`2'::PyId___dict__
	DQ	FLAT:??_C@_08IBFKALI@__dict__?$AA@
	DQ	0000000000000000H
?PyId__fields@?1??ast_type_init@@9@9 DQ 0000000000000000H ; `ast_type_init'::`2'::PyId__fields
	DQ	FLAT:??_C@_07LKKIBPPO@_fields?$AA@
	DQ	0000000000000000H
_TLS	ENDS
;	COMDAT ??_C@_04IEJGKNJ@body?$AA@
CONST	SEGMENT
??_C@_04IEJGKNJ@body?$AA@ DB 'body', 00H		; `string'
CONST	ENDS
PUBLIC	??_C@_0L@DHGMCEID@_Py_IncRef?$AA@		; `string'
PUBLIC	??_C@_0CD@HDJFDCDP@c?3?2src?2pyparallel?2include?2object@ ; `string'
PUBLIC	_Py_IncRef
EXTRN	_PyParallel_Guard:PROC
EXTRN	_Py_PXCTX:PROC
;	COMDAT pdata
; File c:\src\pyparallel\include\object.h
pdata	SEGMENT
$pdata$_Py_IncRef DD imagerel $LN5
	DD	imagerel $LN5+74
	DD	imagerel $unwind$_Py_IncRef
pdata	ENDS
;	COMDAT xdata
xdata	SEGMENT
$unwind$_Py_IncRef DD 020601H
	DD	030025206H
xdata	ENDS
;	COMDAT ??_C@_0L@DHGMCEID@_Py_IncRef?$AA@
CONST	SEGMENT
??_C@_0L@DHGMCEID@_Py_IncRef?$AA@ DB '_Py_IncRef', 00H	; `string'
CONST	ENDS
;	COMDAT ??_C@_0CD@HDJFDCDP@c?3?2src?2pyparallel?2include?2object@
CONST	SEGMENT
??_C@_0CD@HDJFDCDP@c?3?2src?2pyparallel?2include?2object@ DB 'c:\src\pypa'
	DB	'rallel\include\object.h', 00H		; `string'
; Function compile flags: /Ogtpy
CONST	ENDS
;	COMDAT _Py_IncRef
_TEXT	SEGMENT
op$ = 64
_Py_IncRef PROC						; COMDAT

; 904  : {

$LN5:
  00000	40 53		 push	 rbx
  00002	48 83 ec 30	 sub	 rsp, 48			; 00000030H
  00006	48 8b d9	 mov	 rbx, rcx

; 905  :     if ((!Py_PXCTX && (Py_ISPY(op) || Px_PERSISTED(op)))) {

  00009	e8 00 00 00 00	 call	 _Py_PXCTX
  0000e	85 c0		 test	 eax, eax
  00010	75 32		 jne	 SHORT $LN2@Py_IncRef
  00012	48 8d 15 00 00
	00 00		 lea	 rdx, OFFSET FLAT:??_C@_0CD@HDJFDCDP@c?3?2src?2pyparallel?2include?2object@
  00019	48 8d 0d 00 00
	00 00		 lea	 rcx, OFFSET FLAT:??_C@_0L@DHGMCEID@_Py_IncRef?$AA@
  00020	4c 8b cb	 mov	 r9, rbx
  00023	41 b8 89 03 00
	00		 mov	 r8d, 905		; 00000389H
  00029	c7 44 24 20 02
	00 00 00	 mov	 DWORD PTR [rsp+32], 2
  00031	e8 00 00 00 00	 call	 _PyParallel_Guard
  00036	85 c0		 test	 eax, eax
  00038	75 06		 jne	 SHORT $LN1@Py_IncRef
  0003a	f6 43 20 20	 test	 BYTE PTR [rbx+32], 32	; 00000020H
  0003e	74 04		 je	 SHORT $LN2@Py_IncRef
$LN1@Py_IncRef:

; 906  :         _Py_INC_REFTOTAL;
; 907  :         (((PyObject*)(op))->ob_refcnt++);

  00040	48 ff 43 50	 inc	 QWORD PTR [rbx+80]
$LN2@Py_IncRef:

; 908  :     }
; 909  : }

  00044	48 83 c4 30	 add	 rsp, 48			; 00000030H
  00048	5b		 pop	 rbx
  00049	c3		 ret	 0
_Py_IncRef ENDP
_TEXT	ENDS
PUBLIC	??_C@_0L@DMHMLFIA@_Py_DecRef?$AA@		; `string'
PUBLIC	_Py_DecRef
EXTRN	Px_DecRef:PROC
EXTRN	_Px_Dealloc:PROC
;	COMDAT pdata
pdata	SEGMENT
$pdata$_Py_DecRef DD imagerel $LN12
	DD	imagerel $LN12+123
	DD	imagerel $unwind$_Py_DecRef
pdata	ENDS
;	COMDAT xdata
xdata	SEGMENT
$unwind$_Py_DecRef DD 020601H
	DD	030025206H
xdata	ENDS
;	COMDAT ??_C@_0L@DMHMLFIA@_Py_DecRef?$AA@
CONST	SEGMENT
??_C@_0L@DMHMLFIA@_Py_DecRef?$AA@ DB '_Py_DecRef', 00H	; `string'
; Function compile flags: /Ogtpy
CONST	ENDS
;	COMDAT _Py_DecRef
_TEXT	SEGMENT
op$ = 64
_Py_DecRef PROC						; COMDAT

; 923  : {

$LN12:
  00000	40 53		 push	 rbx
  00002	48 83 ec 30	 sub	 rsp, 48			; 00000030H
  00006	48 8b d9	 mov	 rbx, rcx

; 924  :     if (!Py_PXCTX) {

  00009	e8 00 00 00 00	 call	 _Py_PXCTX
  0000e	85 c0		 test	 eax, eax
  00010	75 63		 jne	 SHORT $LN11@Py_DecRef

; 925  :         if (Px_PERSISTED(op) || Px_CLONED(op))

  00012	48 8b 43 20	 mov	 rax, QWORD PTR [rbx+32]
  00016	a8 20		 test	 al, 32			; 00000020H
  00018	75 53		 jne	 SHORT $LN5@Py_DecRef
  0001a	84 c0		 test	 al, al
  0001c	78 4f		 js	 SHORT $LN5@Py_DecRef

; 927  :         else if (!Px_ISPX(op)) {

  0001e	a8 02		 test	 al, 2
  00020	75 53		 jne	 SHORT $LN11@Py_DecRef

; 928  :             _Py_DEC_REFTOTAL;
; 929  :             if ((--((PyObject *)(op))->ob_refcnt) != 0) {

  00022	48 ff 4b 50	 dec	 QWORD PTR [rbx+80]
  00026	75 4d		 jne	 SHORT $LN11@Py_DecRef

; 930  :                 _Py_CHECK_REFCNT(op);
; 931  :             } else
; 932  :                 _Py_Dealloc((PyObject *)(op));

  00028	48 8d 15 00 00
	00 00		 lea	 rdx, OFFSET FLAT:??_C@_0CD@HDJFDCDP@c?3?2src?2pyparallel?2include?2object@
  0002f	48 8d 0d 00 00
	00 00		 lea	 rcx, OFFSET FLAT:??_C@_0L@DMHMLFIA@_Py_DecRef?$AA@
  00036	4c 8b cb	 mov	 r9, rbx
  00039	41 b8 a4 03 00
	00		 mov	 r8d, 932		; 000003a4H
  0003f	c7 44 24 20 10
	00 00 00	 mov	 DWORD PTR [rsp+32], 16
  00047	e8 00 00 00 00	 call	 _PyParallel_Guard
  0004c	48 8b cb	 mov	 rcx, rbx
  0004f	85 c0		 test	 eax, eax
  00051	74 0a		 je	 SHORT $LN10@Py_DecRef

; 933  :         }
; 934  :     }
; 935  : }

  00053	48 83 c4 30	 add	 rsp, 48			; 00000030H
  00057	5b		 pop	 rbx
  00058	e9 00 00 00 00	 jmp	 _Px_Dealloc
$LN10@Py_DecRef:

; 930  :                 _Py_CHECK_REFCNT(op);
; 931  :             } else
; 932  :                 _Py_Dealloc((PyObject *)(op));

  0005d	48 8b 43 58	 mov	 rax, QWORD PTR [rbx+88]

; 933  :         }
; 934  :     }
; 935  : }

  00061	48 83 c4 30	 add	 rsp, 48			; 00000030H
  00065	5b		 pop	 rbx
  00066	48 ff a0 88 00
	00 00		 rex_jmp QWORD PTR [rax+136]
$LN5@Py_DecRef:

; 926  :             Px_DECREF(op);

  0006d	48 8b cb	 mov	 rcx, rbx
  00070	e8 00 00 00 00	 call	 Px_DecRef
$LN11@Py_DecRef:

; 933  :         }
; 934  :     }
; 935  : }

  00075	48 83 c4 30	 add	 rsp, 48			; 00000030H
  00079	5b		 pop	 rbx
  0007a	c3		 ret	 0
_Py_DecRef ENDP
_TEXT	ENDS
PUBLIC	??_C@_0M@GMLKPBDC@ast_dealloc?$AA@		; `string'
PUBLIC	??_C@_0BH@KJIDLEJF@?4?4?2Python?2Python?9ast?4c?$AA@ ; `string'
;	COMDAT pdata
pdata	SEGMENT
$pdata$ast_dealloc DD imagerel ast_dealloc
	DD	imagerel ast_dealloc+59
	DD	imagerel $unwind$ast_dealloc
pdata	ENDS
;	COMDAT pdata
pdata	SEGMENT
$pdata$0$ast_dealloc DD imagerel ast_dealloc+59
	DD	imagerel ast_dealloc+182
	DD	imagerel $chain$0$ast_dealloc
pdata	ENDS
;	COMDAT pdata
pdata	SEGMENT
$pdata$1$ast_dealloc DD imagerel ast_dealloc+182
	DD	imagerel ast_dealloc+201
	DD	imagerel $chain$1$ast_dealloc
pdata	ENDS
;	COMDAT xdata
xdata	SEGMENT
$chain$1$ast_dealloc DD 021H
	DD	imagerel ast_dealloc
	DD	imagerel ast_dealloc+59
	DD	imagerel $unwind$ast_dealloc
xdata	ENDS
;	COMDAT xdata
xdata	SEGMENT
$chain$0$ast_dealloc DD 020521H
	DD	083405H
	DD	imagerel ast_dealloc
	DD	imagerel ast_dealloc+59
	DD	imagerel $unwind$ast_dealloc
xdata	ENDS
;	COMDAT xdata
xdata	SEGMENT
$unwind$ast_dealloc DD 020601H
	DD	070025206H
xdata	ENDS
;	COMDAT ??_C@_0M@GMLKPBDC@ast_dealloc?$AA@
CONST	SEGMENT
??_C@_0M@GMLKPBDC@ast_dealloc?$AA@ DB 'ast_dealloc', 00H ; `string'
CONST	ENDS
;	COMDAT ??_C@_0BH@KJIDLEJF@?4?4?2Python?2Python?9ast?4c?$AA@
CONST	SEGMENT
??_C@_0BH@KJIDLEJF@?4?4?2Python?2Python?9ast?4c?$AA@ DB '..\Python\Python'
	DB	'-ast.c', 00H				; `string'
; Function compile flags: /Ogtpy
; File c:\src\pyparallel\python\python-ast.c
CONST	ENDS
;	COMDAT ast_dealloc
_TEXT	SEGMENT
self$ = 64
ast_dealloc PROC					; COMDAT

; 465  : {

  00000	40 57		 push	 rdi
  00002	48 83 ec 30	 sub	 rsp, 48			; 00000030H

; 466  :     Py_CLEAR(self->dict);

  00006	4c 8b 49 60	 mov	 r9, QWORD PTR [rcx+96]
  0000a	48 8b f9	 mov	 rdi, rcx
  0000d	4d 85 c9	 test	 r9, r9
  00010	0f 84 a0 00 00
	00		 je	 $LN3@ast_deallo
  00016	48 8d 15 00 00
	00 00		 lea	 rdx, OFFSET FLAT:??_C@_0BH@KJIDLEJF@?4?4?2Python?2Python?9ast?4c?$AA@
  0001d	48 8d 0d 00 00
	00 00		 lea	 rcx, OFFSET FLAT:??_C@_0M@GMLKPBDC@ast_dealloc?$AA@
  00024	41 b8 d2 01 00
	00		 mov	 r8d, 466		; 000001d2H
  0002a	c7 44 24 20 10
	00 00 00	 mov	 DWORD PTR [rsp+32], 16
  00032	e8 00 00 00 00	 call	 _PyParallel_Guard
  00037	85 c0		 test	 eax, eax
  00039	75 7b		 jne	 SHORT $LN3@ast_deallo
  0003b	48 89 5c 24 40	 mov	 QWORD PTR [rsp+64], rbx
  00040	48 8b 5f 60	 mov	 rbx, QWORD PTR [rdi+96]
  00044	48 c7 47 60 00
	00 00 00	 mov	 QWORD PTR [rdi+96], 0
  0004c	e8 00 00 00 00	 call	 _Py_PXCTX
  00051	85 c0		 test	 eax, eax
  00053	75 5c		 jne	 SHORT $LN18@ast_deallo
  00055	48 8b 43 20	 mov	 rax, QWORD PTR [rbx+32]
  00059	a8 20		 test	 al, 32			; 00000020H
  0005b	75 4c		 jne	 SHORT $LN11@ast_deallo
  0005d	84 c0		 test	 al, al
  0005f	78 48		 js	 SHORT $LN11@ast_deallo
  00061	a8 02		 test	 al, 2
  00063	75 4c		 jne	 SHORT $LN18@ast_deallo
  00065	48 ff 4b 50	 dec	 QWORD PTR [rbx+80]
  00069	75 46		 jne	 SHORT $LN18@ast_deallo
  0006b	48 8d 15 00 00
	00 00		 lea	 rdx, OFFSET FLAT:??_C@_0CD@HDJFDCDP@c?3?2src?2pyparallel?2include?2object@
  00072	48 8d 0d 00 00
	00 00		 lea	 rcx, OFFSET FLAT:??_C@_0L@DMHMLFIA@_Py_DecRef?$AA@
  00079	4c 8b cb	 mov	 r9, rbx
  0007c	41 b8 a4 03 00
	00		 mov	 r8d, 932		; 000003a4H
  00082	c7 44 24 20 10
	00 00 00	 mov	 DWORD PTR [rsp+32], 16
  0008a	e8 00 00 00 00	 call	 _PyParallel_Guard
  0008f	48 8b cb	 mov	 rcx, rbx
  00092	85 c0		 test	 eax, eax
  00094	74 07		 je	 SHORT $LN16@ast_deallo
  00096	e8 00 00 00 00	 call	 _Px_Dealloc
  0009b	eb 14		 jmp	 SHORT $LN18@ast_deallo
$LN16@ast_deallo:
  0009d	48 8b 43 58	 mov	 rax, QWORD PTR [rbx+88]
  000a1	ff 90 88 00 00
	00		 call	 QWORD PTR [rax+136]
  000a7	eb 08		 jmp	 SHORT $LN18@ast_deallo
$LN11@ast_deallo:
  000a9	48 8b cb	 mov	 rcx, rbx
  000ac	e8 00 00 00 00	 call	 Px_DecRef
$LN18@ast_deallo:
  000b1	48 8b 5c 24 40	 mov	 rbx, QWORD PTR [rsp+64]
$LN3@ast_deallo:

; 467  :     Py_TYPE(self)->tp_free(self);

  000b6	48 8b 47 58	 mov	 rax, QWORD PTR [rdi+88]
  000ba	48 8b cf	 mov	 rcx, rdi

; 468  : }

  000bd	48 83 c4 30	 add	 rsp, 48			; 00000030H
  000c1	5f		 pop	 rdi
  000c2	48 ff a0 98 01
	00 00		 rex_jmp QWORD PTR [rax+408]
ast_dealloc ENDP
_TEXT	ENDS
PUBLIC	??_C@_0N@BLIHGBGO@ast_traverse?$AA@		; `string'
EXTRN	_PyParallel_ContextGuardFailure:PROC
;	COMDAT pdata
pdata	SEGMENT
$pdata$ast_traverse DD imagerel ast_traverse
	DD	imagerel ast_traverse+97
	DD	imagerel $unwind$ast_traverse
pdata	ENDS
;	COMDAT xdata
xdata	SEGMENT
$unwind$ast_traverse DD 060f01H
	DD	07640fH
	DD	06340fH
	DD	0700b320fH
xdata	ENDS
;	COMDAT ??_C@_0N@BLIHGBGO@ast_traverse?$AA@
CONST	SEGMENT
??_C@_0N@BLIHGBGO@ast_traverse?$AA@ DB 'ast_traverse', 00H ; `string'
; Function compile flags: /Ogtpy
CONST	ENDS
;	COMDAT ast_traverse
_TEXT	SEGMENT
self$ = 48
visit$ = 56
arg$ = 64
ast_traverse PROC					; COMDAT

; 472  : {

  00000	48 89 5c 24 08	 mov	 QWORD PTR [rsp+8], rbx
  00005	48 89 74 24 10	 mov	 QWORD PTR [rsp+16], rsi
  0000a	57		 push	 rdi
  0000b	48 83 ec 20	 sub	 rsp, 32			; 00000020H
  0000f	49 8b f8	 mov	 rdi, r8
  00012	48 8b f2	 mov	 rsi, rdx
  00015	48 8b d9	 mov	 rbx, rcx

; 473  :     Py_VISIT(self->dict);

  00018	e8 00 00 00 00	 call	 _Py_PXCTX
  0001d	85 c0		 test	 eax, eax
  0001f	74 1c		 je	 SHORT $LN3@ast_traver
  00021	48 8d 15 00 00
	00 00		 lea	 rdx, OFFSET FLAT:??_C@_0BH@KJIDLEJF@?4?4?2Python?2Python?9ast?4c?$AA@
  00028	48 8d 0d 00 00
	00 00		 lea	 rcx, OFFSET FLAT:??_C@_0N@BLIHGBGO@ast_traverse?$AA@
  0002f	45 33 c9	 xor	 r9d, r9d
  00032	41 b8 d9 01 00
	00		 mov	 r8d, 473		; 000001d9H
  00038	e8 00 00 00 00	 call	 _PyParallel_ContextGuardFailure
$LN3@ast_traver:
  0003d	48 8b 4b 60	 mov	 rcx, QWORD PTR [rbx+96]
  00041	48 85 c9	 test	 rcx, rcx
  00044	74 09		 je	 SHORT $LN5@ast_traver
  00046	48 8b d7	 mov	 rdx, rdi
  00049	ff d6		 call	 rsi
  0004b	85 c0		 test	 eax, eax
  0004d	75 02		 jne	 SHORT $LN7@ast_traver
$LN5@ast_traver:

; 474  :     return 0;

  0004f	33 c0		 xor	 eax, eax
$LN7@ast_traver:

; 475  : }

  00051	48 8b 5c 24 30	 mov	 rbx, QWORD PTR [rsp+48]
  00056	48 8b 74 24 38	 mov	 rsi, QWORD PTR [rsp+56]
  0005b	48 83 c4 20	 add	 rsp, 32			; 00000020H
  0005f	5f		 pop	 rdi
  00060	c3		 ret	 0
ast_traverse ENDP
_TEXT	ENDS
PUBLIC	??_C@_09JMLPFLAJ@ast_clear?$AA@			; `string'
;	COMDAT pdata
; File c:\src\pyparallel\include\object.h
pdata	SEGMENT
$pdata$ast_clear DD imagerel ast_clear
	DD	imagerel ast_clear+63
	DD	imagerel $unwind$ast_clear
pdata	ENDS
;	COMDAT pdata
pdata	SEGMENT
$pdata$0$ast_clear DD imagerel ast_clear+63
	DD	imagerel ast_clear+169
	DD	imagerel $chain$0$ast_clear
pdata	ENDS
;	COMDAT pdata
pdata	SEGMENT
$pdata$2$ast_clear DD imagerel ast_clear+169
	DD	imagerel ast_clear+190
	DD	imagerel $chain$2$ast_clear
pdata	ENDS
;	COMDAT pdata
pdata	SEGMENT
$pdata$4$ast_clear DD imagerel ast_clear+190
	DD	imagerel ast_clear+203
	DD	imagerel $chain$4$ast_clear
pdata	ENDS
;	COMDAT pdata
pdata	SEGMENT
$pdata$5$ast_clear DD imagerel ast_clear+203
	DD	imagerel ast_clear+209
	DD	imagerel $chain$5$ast_clear
pdata	ENDS
;	COMDAT xdata
xdata	SEGMENT
$chain$5$ast_clear DD 021H
	DD	imagerel ast_clear
	DD	imagerel ast_clear+63
	DD	imagerel $unwind$ast_clear
xdata	ENDS
;	COMDAT xdata
xdata	SEGMENT
$chain$4$ast_clear DD 020021H
	DD	083400H
	DD	imagerel ast_clear
	DD	imagerel ast_clear+63
	DD	imagerel $unwind$ast_clear
xdata	ENDS
;	COMDAT xdata
xdata	SEGMENT
$chain$2$ast_clear DD 020021H
	DD	083400H
	DD	imagerel ast_clear
	DD	imagerel ast_clear+63
	DD	imagerel $unwind$ast_clear
xdata	ENDS
;	COMDAT xdata
xdata	SEGMENT
$chain$0$ast_clear DD 020521H
	DD	083405H
	DD	imagerel ast_clear
	DD	imagerel ast_clear+63
	DD	imagerel $unwind$ast_clear
xdata	ENDS
;	COMDAT xdata
xdata	SEGMENT
$unwind$ast_clear DD 020601H
	DD	070025206H
xdata	ENDS
;	COMDAT ??_C@_09JMLPFLAJ@ast_clear?$AA@
CONST	SEGMENT
??_C@_09JMLPFLAJ@ast_clear?$AA@ DB 'ast_clear', 00H	; `string'
; Function compile flags: /Ogtpy
; File c:\src\pyparallel\python\python-ast.c
CONST	ENDS
;	COMDAT ast_clear
_TEXT	SEGMENT
self$ = 64
ast_clear PROC						; COMDAT

; 479  : {

  00000	40 57		 push	 rdi
  00002	48 83 ec 30	 sub	 rsp, 48			; 00000030H

; 480  :     Py_CLEAR(self->dict);

  00006	4c 8b 49 60	 mov	 r9, QWORD PTR [rcx+96]
  0000a	48 8b f9	 mov	 rdi, rcx
  0000d	4d 85 c9	 test	 r9, r9
  00010	0f 84 b5 00 00
	00		 je	 $LN3@ast_clear
  00016	48 8d 15 00 00
	00 00		 lea	 rdx, OFFSET FLAT:??_C@_0BH@KJIDLEJF@?4?4?2Python?2Python?9ast?4c?$AA@
  0001d	48 8d 0d 00 00
	00 00		 lea	 rcx, OFFSET FLAT:??_C@_09JMLPFLAJ@ast_clear?$AA@
  00024	41 b8 e0 01 00
	00		 mov	 r8d, 480		; 000001e0H
  0002a	c7 44 24 20 10
	00 00 00	 mov	 DWORD PTR [rsp+32], 16
  00032	e8 00 00 00 00	 call	 _PyParallel_Guard
  00037	85 c0		 test	 eax, eax
  00039	0f 85 8c 00 00
	00		 jne	 $LN3@ast_clear
  0003f	48 89 5c 24 40	 mov	 QWORD PTR [rsp+64], rbx
  00044	48 8b 5f 60	 mov	 rbx, QWORD PTR [rdi+96]
  00048	48 c7 47 60 00
	00 00 00	 mov	 QWORD PTR [rdi+96], 0
  00050	e8 00 00 00 00	 call	 _Py_PXCTX
  00055	85 c0		 test	 eax, eax
  00057	75 6d		 jne	 SHORT $LN18@ast_clear
  00059	48 8b 43 20	 mov	 rax, QWORD PTR [rbx+32]
  0005d	a8 20		 test	 al, 32			; 00000020H
  0005f	75 5d		 jne	 SHORT $LN11@ast_clear
  00061	84 c0		 test	 al, al
  00063	78 59		 js	 SHORT $LN11@ast_clear
  00065	a8 02		 test	 al, 2
  00067	75 5d		 jne	 SHORT $LN18@ast_clear
  00069	48 ff 4b 50	 dec	 QWORD PTR [rbx+80]
  0006d	75 57		 jne	 SHORT $LN18@ast_clear
  0006f	48 8d 15 00 00
	00 00		 lea	 rdx, OFFSET FLAT:??_C@_0CD@HDJFDCDP@c?3?2src?2pyparallel?2include?2object@
  00076	48 8d 0d 00 00
	00 00		 lea	 rcx, OFFSET FLAT:??_C@_0L@DMHMLFIA@_Py_DecRef?$AA@
  0007d	4c 8b cb	 mov	 r9, rbx
  00080	41 b8 a4 03 00
	00		 mov	 r8d, 932		; 000003a4H
  00086	c7 44 24 20 10
	00 00 00	 mov	 DWORD PTR [rsp+32], 16
  0008e	e8 00 00 00 00	 call	 _PyParallel_Guard
  00093	48 8b cb	 mov	 rcx, rbx
  00096	85 c0		 test	 eax, eax
  00098	74 0f		 je	 SHORT $LN16@ast_clear
  0009a	48 8b 5c 24 40	 mov	 rbx, QWORD PTR [rsp+64]

; 481  : }

  0009f	48 83 c4 30	 add	 rsp, 48			; 00000030H
  000a3	5f		 pop	 rdi
  000a4	e9 00 00 00 00	 jmp	 _Px_Dealloc

; 480  :     Py_CLEAR(self->dict);

$LN16@ast_clear:
  000a9	48 8b 43 58	 mov	 rax, QWORD PTR [rbx+88]
  000ad	48 8b 5c 24 40	 mov	 rbx, QWORD PTR [rsp+64]

; 481  : }

  000b2	48 83 c4 30	 add	 rsp, 48			; 00000030H
  000b6	5f		 pop	 rdi
  000b7	48 ff a0 88 00
	00 00		 rex_jmp QWORD PTR [rax+136]

; 480  :     Py_CLEAR(self->dict);

$LN11@ast_clear:
  000be	48 8b cb	 mov	 rcx, rbx
  000c1	e8 00 00 00 00	 call	 Px_DecRef
$LN18@ast_clear:
  000c6	48 8b 5c 24 40	 mov	 rbx, QWORD PTR [rsp+64]
$LN3@ast_clear:

; 481  : }

  000cb	48 83 c4 30	 add	 rsp, 48			; 00000030H
  000cf	5f		 pop	 rdi
  000d0	c3		 ret	 0
ast_clear ENDP
_TEXT	ENDS
PUBLIC	??_C@_0DF@BNALLACH@?$CF?4400s?5constructor?5takes?5?$CFs?$CFzd?5p@ ; `string'
PUBLIC	??_C@_0N@IJFENPKG@either?50?5or?5?$AA@		; `string'
PUBLIC	??_C@_00CNPNBAHC@?$AA@				; `string'
EXTRN	PyDict_Next:PROC
EXTRN	PyObject_SetAttr:PROC
EXTRN	PySequence_GetItem:PROC
EXTRN	PyErr_Format:PROC
EXTRN	PyExc_TypeError:QWORD
EXTRN	PySequence_Size:PROC
EXTRN	PyErr_Clear:PROC
EXTRN	_PyObject_GetAttrId:PROC
EXTRN	_tls_index:DWORD
;	COMDAT pdata
; File c:\src\pyparallel\include\object.h
pdata	SEGMENT
$pdata$ast_type_init DD imagerel ast_type_init
	DD	imagerel ast_type_init+534
	DD	imagerel $unwind$ast_type_init
pdata	ENDS
;	COMDAT xdata
xdata	SEGMENT
$unwind$ast_type_init DD 081001H
	DD	0f3410H
	DD	0d00c7210H
	DD	07008c00aH
	DD	050066007H
xdata	ENDS
;	COMDAT ??_C@_0DF@BNALLACH@?$CF?4400s?5constructor?5takes?5?$CFs?$CFzd?5p@
CONST	SEGMENT
??_C@_0DF@BNALLACH@?$CF?4400s?5constructor?5takes?5?$CFs?$CFzd?5p@ DB '%.'
	DB	'400s constructor takes %s%zd positional argument%s', 00H ; `string'
CONST	ENDS
;	COMDAT ??_C@_0N@IJFENPKG@either?50?5or?5?$AA@
CONST	SEGMENT
??_C@_0N@IJFENPKG@either?50?5or?5?$AA@ DB 'either 0 or ', 00H ; `string'
CONST	ENDS
;	COMDAT ??_C@_00CNPNBAHC@?$AA@
CONST	SEGMENT
??_C@_00CNPNBAHC@?$AA@ DB 00H				; `string'
; Function compile flags: /Ogtpy
; File c:\src\pyparallel\python\python-ast.c
CONST	ENDS
;	COMDAT ast_type_init
_TEXT	SEGMENT
key$ = 48
i$ = 112
self$ = 112
args$ = 120
kw$ = 128
value$ = 136
ast_type_init PROC					; COMDAT

; 485  : {

  00000	48 89 5c 24 10	 mov	 QWORD PTR [rsp+16], rbx
  00005	55		 push	 rbp
  00006	56		 push	 rsi
  00007	57		 push	 rdi
  00008	41 54		 push	 r12
  0000a	41 55		 push	 r13
  0000c	48 83 ec 40	 sub	 rsp, 64			; 00000040H

; 486  :     _Py_IDENTIFIER(_fields);
; 487  :     Py_ssize_t i, numfields = 0;
; 488  :     int res = -1;
; 489  :     PyObject *key, *value, *fields;
; 490  :     fields = _PyObject_GetAttrId((PyObject*)Py_TYPE(self), &PyId__fields);

  00010	44 8b 0d 00 00
	00 00		 mov	 r9d, DWORD PTR _tls_index
  00017	65 48 8b 04 25
	58 00 00 00	 mov	 rax, QWORD PTR gs:88
  00020	48 8b ea	 mov	 rbp, rdx
  00023	4c 8b e1	 mov	 r12, rcx
  00026	48 8b 49 58	 mov	 rcx, QWORD PTR [rcx+88]
  0002a	ba 00 00 00 00	 mov	 edx, OFFSET FLAT:?PyId__fields@?1??ast_type_init@@9@9
  0002f	4a 03 14 c8	 add	 rdx, QWORD PTR [rax+r9*8]
  00033	4d 8b e8	 mov	 r13, r8
  00036	33 f6		 xor	 esi, esi
  00038	83 cb ff	 or	 ebx, -1
  0003b	e8 00 00 00 00	 call	 _PyObject_GetAttrId
  00040	48 8b f8	 mov	 rdi, rax

; 491  :     if (!fields)

  00043	48 85 c0	 test	 rax, rax
  00046	75 07		 jne	 SHORT $LN38@ast_type_i

; 492  :         PyErr_Clear();

  00048	e8 00 00 00 00	 call	 PyErr_Clear

; 493  :     if (fields) {

  0004d	eb 15		 jmp	 SHORT $LN16@ast_type_i
$LN38@ast_type_i:

; 494  :         numfields = PySequence_Size(fields);

  0004f	48 8b c8	 mov	 rcx, rax
  00052	e8 00 00 00 00	 call	 PySequence_Size
  00057	48 8b f0	 mov	 rsi, rax

; 495  :         if (numfields == -1)

  0005a	48 83 f8 ff	 cmp	 rax, -1
  0005e	0f 84 35 01 00
	00		 je	 $cleanup$21701
$LN16@ast_type_i:

; 496  :             goto cleanup;
; 497  :     }
; 498  :     res = 0; /* if no error occurs, this stays 0 to the end */
; 499  :     if (PyTuple_GET_SIZE(args) > 0) {

  00064	48 8b 4d 60	 mov	 rcx, QWORD PTR [rbp+96]
  00068	33 db		 xor	 ebx, ebx
  0006a	48 85 c9	 test	 rcx, rcx
  0006d	0f 8e ba 00 00
	00		 jle	 $LN11@ast_type_i

; 500  :         if (numfields != PyTuple_GET_SIZE(args)) {

  00073	48 3b f1	 cmp	 rsi, rcx
  00076	74 52		 je	 SHORT $LN14@ast_type_i

; 501  :             PyErr_Format(PyExc_TypeError, "%.400s constructor takes %s"
; 502  :                          "%zd positional argument%s",
; 503  :                          Py_TYPE(self)->tp_name,
; 504  :                          numfields == 0 ? "" : "either 0 or ",
; 505  :                          numfields, numfields == 1 ? "" : "s");

  00078	4d 8b 44 24 58	 mov	 r8, QWORD PTR [r12+88]
  0007d	48 8d 0d 00 00
	00 00		 lea	 rcx, OFFSET FLAT:??_C@_00CNPNBAHC@?$AA@
  00084	48 83 fe 01	 cmp	 rsi, 1
  00088	4d 8b 40 70	 mov	 r8, QWORD PTR [r8+112]
  0008c	48 8d 05 00 00
	00 00		 lea	 rax, OFFSET FLAT:??_C@_01LKDEMHDF@s?$AA@
  00093	4c 8d 0d 00 00
	00 00		 lea	 r9, OFFSET FLAT:??_C@_0N@IJFENPKG@either?50?5or?5?$AA@
  0009a	48 0f 44 c1	 cmove	 rax, rcx
  0009e	48 85 f6	 test	 rsi, rsi
  000a1	48 8d 15 00 00
	00 00		 lea	 rdx, OFFSET FLAT:??_C@_0DF@BNALLACH@?$CF?4400s?5constructor?5takes?5?$CFs?$CFzd?5p@
  000a8	4c 0f 44 c9	 cmove	 r9, rcx
  000ac	48 8b 0d 00 00
	00 00		 mov	 rcx, QWORD PTR PyExc_TypeError
  000b3	48 89 44 24 28	 mov	 QWORD PTR [rsp+40], rax
  000b8	48 89 74 24 20	 mov	 QWORD PTR [rsp+32], rsi
  000bd	e8 00 00 00 00	 call	 PyErr_Format
$LN34@ast_type_i:

; 506  :             res = -1;

  000c2	83 cb ff	 or	 ebx, -1

; 507  :             goto cleanup;

  000c5	e9 cf 00 00 00	 jmp	 $cleanup$21701
$LN14@ast_type_i:

; 508  :         }
; 509  :         for (i = 0; i < PyTuple_GET_SIZE(args); i++) {

  000ca	33 c0		 xor	 eax, eax
  000cc	48 89 44 24 70	 mov	 QWORD PTR i$[rsp], rax
  000d1	48 85 c9	 test	 rcx, rcx
  000d4	7e 57		 jle	 SHORT $LN11@ast_type_i
  000d6	66 66 0f 1f 84
	00 00 00 00 00	 npad	 10
$LL13@ast_type_i:

; 510  :             /* cannot be reached when fields is NULL */
; 511  :             PyObject *name = PySequence_GetItem(fields, i);

  000e0	48 8b d0	 mov	 rdx, rax
  000e3	48 8b cf	 mov	 rcx, rdi
  000e6	e8 00 00 00 00	 call	 PySequence_GetItem
  000eb	48 8b f0	 mov	 rsi, rax

; 512  :             if (!name) {

  000ee	48 85 c0	 test	 rax, rax
  000f1	74 cf		 je	 SHORT $LN34@ast_type_i

; 513  :                 res = -1;
; 514  :                 goto cleanup;
; 515  :             }
; 516  :             res = PyObject_SetAttr(self, name, PyTuple_GET_ITEM(args, i));

  000f3	4c 8b 44 24 70	 mov	 r8, QWORD PTR i$[rsp]
  000f8	48 8b d0	 mov	 rdx, rax
  000fb	49 8b cc	 mov	 rcx, r12
  000fe	4e 8b 44 c5 70	 mov	 r8, QWORD PTR [rbp+r8*8+112]
  00103	e8 00 00 00 00	 call	 PyObject_SetAttr

; 517  :             Py_DECREF(name);

  00108	48 8b ce	 mov	 rcx, rsi
  0010b	8b d8		 mov	 ebx, eax
  0010d	e8 00 00 00 00	 call	 _Py_DecRef

; 518  :             if (res < 0)

  00112	85 db		 test	 ebx, ebx
  00114	0f 88 7f 00 00
	00		 js	 $cleanup$21701

; 508  :         }
; 509  :         for (i = 0; i < PyTuple_GET_SIZE(args); i++) {

  0011a	48 8b 44 24 70	 mov	 rax, QWORD PTR i$[rsp]
  0011f	48 ff c0	 inc	 rax
  00122	48 89 44 24 70	 mov	 QWORD PTR i$[rsp], rax
  00127	48 3b 45 60	 cmp	 rax, QWORD PTR [rbp+96]
  0012b	7c b3		 jl	 SHORT $LL13@ast_type_i
$LN11@ast_type_i:

; 519  :                 goto cleanup;
; 520  :         }
; 521  :     }
; 522  :     if (kw) {

  0012d	4d 85 ed	 test	 r13, r13
  00130	74 67		 je	 SHORT $cleanup$21701

; 523  :         i = 0;  /* needed by PyDict_Next */
; 524  :         while (PyDict_Next(kw, &i, &key, &value)) {

  00132	4c 8d 8c 24 88
	00 00 00	 lea	 r9, QWORD PTR value$[rsp]
  0013a	4c 8d 44 24 30	 lea	 r8, QWORD PTR key$[rsp]
  0013f	48 8d 54 24 70	 lea	 rdx, QWORD PTR i$[rsp]
  00144	49 8b cd	 mov	 rcx, r13
  00147	48 c7 44 24 70
	00 00 00 00	 mov	 QWORD PTR i$[rsp], 0
  00150	e8 00 00 00 00	 call	 PyDict_Next
  00155	85 c0		 test	 eax, eax
  00157	74 40		 je	 SHORT $cleanup$21701
  00159	0f 1f 80 00 00
	00 00		 npad	 7
$LL7@ast_type_i:

; 525  :             res = PyObject_SetAttr(self, key, value);

  00160	4c 8b 84 24 88
	00 00 00	 mov	 r8, QWORD PTR value$[rsp]
  00168	48 8b 54 24 30	 mov	 rdx, QWORD PTR key$[rsp]
  0016d	49 8b cc	 mov	 rcx, r12
  00170	e8 00 00 00 00	 call	 PyObject_SetAttr
  00175	8b d8		 mov	 ebx, eax

; 526  :             if (res < 0)

  00177	85 c0		 test	 eax, eax
  00179	78 1e		 js	 SHORT $cleanup$21701

; 523  :         i = 0;  /* needed by PyDict_Next */
; 524  :         while (PyDict_Next(kw, &i, &key, &value)) {

  0017b	4c 8d 8c 24 88
	00 00 00	 lea	 r9, QWORD PTR value$[rsp]
  00183	4c 8d 44 24 30	 lea	 r8, QWORD PTR key$[rsp]
  00188	48 8d 54 24 70	 lea	 rdx, QWORD PTR i$[rsp]
  0018d	49 8b cd	 mov	 rcx, r13
  00190	e8 00 00 00 00	 call	 PyDict_Next
  00195	85 c0		 test	 eax, eax
  00197	75 c7		 jne	 SHORT $LL7@ast_type_i
$cleanup$21701:

; 527  :                 goto cleanup;
; 528  :         }
; 529  :     }
; 530  :   cleanup:
; 531  :     Py_XDECREF(fields);

  00199	48 85 ff	 test	 rdi, rdi
  0019c	74 65		 je	 SHORT $LN41@ast_type_i
  0019e	e8 00 00 00 00	 call	 _Py_PXCTX
  001a3	85 c0		 test	 eax, eax
  001a5	75 5c		 jne	 SHORT $LN41@ast_type_i
  001a7	48 8b 47 20	 mov	 rax, QWORD PTR [rdi+32]
  001ab	a8 20		 test	 al, 32			; 00000020H
  001ad	75 4c		 jne	 SHORT $LN25@ast_type_i
  001af	84 c0		 test	 al, al
  001b1	78 48		 js	 SHORT $LN25@ast_type_i
  001b3	a8 02		 test	 al, 2
  001b5	75 4c		 jne	 SHORT $LN41@ast_type_i
  001b7	48 ff 4f 50	 dec	 QWORD PTR [rdi+80]
  001bb	75 46		 jne	 SHORT $LN41@ast_type_i
  001bd	48 8d 15 00 00
	00 00		 lea	 rdx, OFFSET FLAT:??_C@_0CD@HDJFDCDP@c?3?2src?2pyparallel?2include?2object@
  001c4	48 8d 0d 00 00
	00 00		 lea	 rcx, OFFSET FLAT:??_C@_0L@DMHMLFIA@_Py_DecRef?$AA@
  001cb	4c 8b cf	 mov	 r9, rdi
  001ce	41 b8 a4 03 00
	00		 mov	 r8d, 932		; 000003a4H
  001d4	c7 44 24 20 10
	00 00 00	 mov	 DWORD PTR [rsp+32], 16
  001dc	e8 00 00 00 00	 call	 _PyParallel_Guard
  001e1	48 8b cf	 mov	 rcx, rdi
  001e4	85 c0		 test	 eax, eax
  001e6	74 07		 je	 SHORT $LN30@ast_type_i
  001e8	e8 00 00 00 00	 call	 _Px_Dealloc
  001ed	eb 14		 jmp	 SHORT $LN41@ast_type_i
$LN30@ast_type_i:
  001ef	48 8b 47 58	 mov	 rax, QWORD PTR [rdi+88]
  001f3	ff 90 88 00 00
	00		 call	 QWORD PTR [rax+136]
  001f9	eb 08		 jmp	 SHORT $LN41@ast_type_i
$LN25@ast_type_i:
  001fb	48 8b cf	 mov	 rcx, rdi
  001fe	e8 00 00 00 00	 call	 Px_DecRef
$LN41@ast_type_i:

; 532  :     return res;

  00203	8b c3		 mov	 eax, ebx

; 533  : }

  00205	48 8b 5c 24 78	 mov	 rbx, QWORD PTR [rsp+120]
  0020a	48 83 c4 40	 add	 rsp, 64			; 00000040H
  0020e	41 5d		 pop	 r13
  00210	41 5c		 pop	 r12
  00212	5f		 pop	 rdi
  00213	5e		 pop	 rsi
  00214	5d		 pop	 rbp
  00215	c3		 ret	 0
ast_type_init ENDP
_TEXT	ENDS
PUBLIC	??_C@_04MGIFGOAO@O?$CI?$CJO?$AA@		; `string'
PUBLIC	??_C@_03GPNEOADL@O?$CI?$CJ?$AA@			; `string'
EXTRN	Py_BuildValue:PROC
EXTRN	PyErr_ExceptionMatches:PROC
EXTRN	PyExc_AttributeError:QWORD
;	COMDAT pdata
pdata	SEGMENT
$pdata$ast_type_reduce DD imagerel ast_type_reduce
	DD	imagerel ast_type_reduce+155
	DD	imagerel $unwind$ast_type_reduce
pdata	ENDS
;	COMDAT xdata
xdata	SEGMENT
$unwind$ast_type_reduce DD 040a01H
	DD	06340aH
	DD	07006320aH
xdata	ENDS
;	COMDAT ??_C@_04MGIFGOAO@O?$CI?$CJO?$AA@
CONST	SEGMENT
??_C@_04MGIFGOAO@O?$CI?$CJO?$AA@ DB 'O()O', 00H		; `string'
CONST	ENDS
;	COMDAT ??_C@_03GPNEOADL@O?$CI?$CJ?$AA@
CONST	SEGMENT
??_C@_03GPNEOADL@O?$CI?$CJ?$AA@ DB 'O()', 00H		; `string'
; Function compile flags: /Ogtpy
CONST	ENDS
;	COMDAT ast_type_reduce
_TEXT	SEGMENT
self$ = 48
unused$ = 56
ast_type_reduce PROC					; COMDAT

; 538  : {

  00000	48 89 5c 24 08	 mov	 QWORD PTR [rsp+8], rbx
  00005	57		 push	 rdi
  00006	48 83 ec 20	 sub	 rsp, 32			; 00000020H

; 539  :     PyObject *res;
; 540  :     _Py_IDENTIFIER(__dict__);
; 541  :     PyObject *dict = _PyObject_GetAttrId(self, &PyId___dict__);

  0000a	44 8b 05 00 00
	00 00		 mov	 r8d, DWORD PTR _tls_index
  00011	65 48 8b 04 25
	58 00 00 00	 mov	 rax, QWORD PTR gs:88
  0001a	ba 00 00 00 00	 mov	 edx, OFFSET FLAT:?PyId___dict__@?1??ast_type_reduce@@9@9
  0001f	4a 03 14 c0	 add	 rdx, QWORD PTR [rax+r8*8]
  00023	48 8b d9	 mov	 rbx, rcx
  00026	e8 00 00 00 00	 call	 _PyObject_GetAttrId
  0002b	48 8b f8	 mov	 rdi, rax

; 542  :     if (dict == NULL) {

  0002e	48 85 c0	 test	 rax, rax
  00031	75 3c		 jne	 SHORT $LN7@ast_type_r

; 543  :         if (PyErr_ExceptionMatches(PyExc_AttributeError))

  00033	48 8b 0d 00 00
	00 00		 mov	 rcx, QWORD PTR PyExc_AttributeError
  0003a	e8 00 00 00 00	 call	 PyErr_ExceptionMatches
  0003f	85 c0		 test	 eax, eax
  00041	74 1f		 je	 SHORT $LN3@ast_type_r

; 544  :             PyErr_Clear();

  00043	e8 00 00 00 00	 call	 PyErr_Clear

; 552  :     }
; 553  :     return Py_BuildValue("O()", Py_TYPE(self));

  00048	48 8b 53 58	 mov	 rdx, QWORD PTR [rbx+88]
  0004c	48 8d 0d 00 00
	00 00		 lea	 rcx, OFFSET FLAT:??_C@_03GPNEOADL@O?$CI?$CJ?$AA@

; 554  : }

  00053	48 8b 5c 24 30	 mov	 rbx, QWORD PTR [rsp+48]
  00058	48 83 c4 20	 add	 rsp, 32			; 00000020H
  0005c	5f		 pop	 rdi
  0005d	e9 00 00 00 00	 jmp	 Py_BuildValue
$LN3@ast_type_r:

; 545  :         else
; 546  :             return NULL;

  00062	33 c0		 xor	 eax, eax

; 554  : }

  00064	48 8b 5c 24 30	 mov	 rbx, QWORD PTR [rsp+48]
  00069	48 83 c4 20	 add	 rsp, 32			; 00000020H
  0006d	5f		 pop	 rdi
  0006e	c3		 ret	 0
$LN7@ast_type_r:

; 547  :     }
; 548  :     if (dict) {
; 549  :         res = Py_BuildValue("O()O", Py_TYPE(self), dict);

  0006f	48 8b 53 58	 mov	 rdx, QWORD PTR [rbx+88]
  00073	48 8d 0d 00 00
	00 00		 lea	 rcx, OFFSET FLAT:??_C@_04MGIFGOAO@O?$CI?$CJO?$AA@
  0007a	4c 8b c0	 mov	 r8, rax
  0007d	e8 00 00 00 00	 call	 Py_BuildValue

; 550  :         Py_DECREF(dict);

  00082	48 8b cf	 mov	 rcx, rdi
  00085	48 8b d8	 mov	 rbx, rax
  00088	e8 00 00 00 00	 call	 _Py_DecRef

; 551  :         return res;

  0008d	48 8b c3	 mov	 rax, rbx

; 554  : }

  00090	48 8b 5c 24 30	 mov	 rbx, QWORD PTR [rsp+48]
  00095	48 83 c4 20	 add	 rsp, 32			; 00000020H
  00099	5f		 pop	 rdi
  0009a	c3		 ret	 0
ast_type_reduce ENDP
_TEXT	ENDS
PUBLIC	??_C@_0L@LNCJCPDP@__module__?$AA@		; `string'
PUBLIC	??_C@_0L@EEPGGGII@s?$CIO?$CJ?$HLsOss?$HN?$AA@	; `string'
EXTRN	PyObject_CallFunction:PROC
EXTRN	PyUnicode_FromString:PROC
EXTRN	PyTuple_New:PROC
;	COMDAT pdata
; File c:\src\pyparallel\include\object.h
pdata	SEGMENT
$pdata$make_type DD imagerel make_type
	DD	imagerel make_type+52
	DD	imagerel $unwind$make_type
pdata	ENDS
;	COMDAT pdata
pdata	SEGMENT
$pdata$1$make_type DD imagerel make_type+52
	DD	imagerel make_type+431
	DD	imagerel $chain$1$make_type
pdata	ENDS
;	COMDAT pdata
pdata	SEGMENT
$pdata$2$make_type DD imagerel make_type+431
	DD	imagerel make_type+452
	DD	imagerel $chain$2$make_type
pdata	ENDS
;	COMDAT xdata
xdata	SEGMENT
$chain$2$make_type DD 021H
	DD	imagerel make_type
	DD	imagerel make_type+52
	DD	imagerel $unwind$make_type
xdata	ENDS
;	COMDAT xdata
xdata	SEGMENT
$chain$1$make_type DD 040a21H
	DD	0d640aH
	DD	0c5405H
	DD	imagerel make_type
	DD	imagerel make_type+52
	DD	imagerel $unwind$make_type
xdata	ENDS
;	COMDAT xdata
xdata	SEGMENT
$unwind$make_type DD 081401H
	DD	0f7414H
	DD	0e3414H
	DD	0e0107214H
	DD	0c00cd00eH
xdata	ENDS
;	COMDAT ??_C@_0L@LNCJCPDP@__module__?$AA@
CONST	SEGMENT
??_C@_0L@LNCJCPDP@__module__?$AA@ DB '__module__', 00H	; `string'
CONST	ENDS
;	COMDAT ??_C@_0L@EEPGGGII@s?$CIO?$CJ?$HLsOss?$HN?$AA@
CONST	SEGMENT
??_C@_0L@EEPGGGII@s?$CIO?$CJ?$HLsOss?$HN?$AA@ DB 's(O){sOss}', 00H ; `string'
; Function compile flags: /Ogtpy
; File c:\src\pyparallel\python\python-ast.c
CONST	ENDS
;	COMDAT make_type
_TEXT	SEGMENT
type$ = 96
base$ = 104
fields$ = 112
num_fields$ = 120
make_type PROC						; COMDAT

; 610  : {

  00000	48 89 5c 24 18	 mov	 QWORD PTR [rsp+24], rbx
  00005	48 89 7c 24 20	 mov	 QWORD PTR [rsp+32], rdi
  0000a	41 54		 push	 r12
  0000c	41 55		 push	 r13
  0000e	41 56		 push	 r14
  00010	48 83 ec 40	 sub	 rsp, 64			; 00000040H

; 611  :     PyObject *fnames, *result;
; 612  :     int i;
; 613  :     fnames = PyTuple_New(num_fields);

  00014	4d 63 e1	 movsxd	 r12, r9d
  00017	4c 8b f1	 mov	 r14, rcx
  0001a	49 8b f8	 mov	 rdi, r8
  0001d	49 8b cc	 mov	 rcx, r12
  00020	4c 8b ea	 mov	 r13, rdx
  00023	e8 00 00 00 00	 call	 PyTuple_New
  00028	48 8b d8	 mov	 rbx, rax

; 614  :     if (!fnames) return NULL;

  0002b	48 85 c0	 test	 rax, rax
  0002e	0f 84 7b 01 00
	00		 je	 $LN6@make_type
$LN5@make_type:
  00034	48 89 6c 24 60	 mov	 QWORD PTR [rsp+96], rbp
  00039	48 89 74 24 68	 mov	 QWORD PTR [rsp+104], rsi

; 615  :     for (i = 0; i < num_fields; i++) {

  0003e	33 f6		 xor	 esi, esi
  00040	4d 85 e4	 test	 r12, r12
  00043	7e 2d		 jle	 SHORT $LN2@make_type
  00045	48 8b e8	 mov	 rbp, rax
  00048	48 2b ef	 sub	 rbp, rdi
  0004b	0f 1f 44 00 00	 npad	 5
$LL4@make_type:

; 616  :         PyObject *field = PyUnicode_FromString(fields[i]);

  00050	48 8b 0f	 mov	 rcx, QWORD PTR [rdi]
  00053	e8 00 00 00 00	 call	 PyUnicode_FromString

; 617  :         if (!field) {

  00058	48 85 c0	 test	 rax, rax
  0005b	0f 84 c0 00 00
	00		 je	 $LN31@make_type

; 620  :         }
; 621  :         PyTuple_SET_ITEM(fnames, i, field);

  00061	48 ff c6	 inc	 rsi
  00064	48 89 44 2f 70	 mov	 QWORD PTR [rdi+rbp+112], rax
  00069	48 83 c7 08	 add	 rdi, 8
  0006d	49 3b f4	 cmp	 rsi, r12
  00070	7c de		 jl	 SHORT $LL4@make_type
$LN2@make_type:

; 622  :     }
; 623  :     result = PyObject_CallFunction((PyObject*)&PyType_Type, "s(O){sOss}",
; 624  :                     type, base, "_fields", fnames, "__module__", "_ast");

  00072	48 8d 05 00 00
	00 00		 lea	 rax, OFFSET FLAT:??_C@_04BNOAKKGF@_ast?$AA@
  00079	48 8d 15 00 00
	00 00		 lea	 rdx, OFFSET FLAT:??_C@_0L@EEPGGGII@s?$CIO?$CJ?$HLsOss?$HN?$AA@
  00080	48 8d 0d 00 00
	00 00		 lea	 rcx, OFFSET FLAT:PyType_Type
  00087	48 89 44 24 38	 mov	 QWORD PTR [rsp+56], rax
  0008c	48 8d 05 00 00
	00 00		 lea	 rax, OFFSET FLAT:??_C@_0L@LNCJCPDP@__module__?$AA@
  00093	4d 8b cd	 mov	 r9, r13
  00096	48 89 44 24 30	 mov	 QWORD PTR [rsp+48], rax
  0009b	48 8d 05 00 00
	00 00		 lea	 rax, OFFSET FLAT:??_C@_07LKKIBPPO@_fields?$AA@
  000a2	4d 8b c6	 mov	 r8, r14
  000a5	48 89 5c 24 28	 mov	 QWORD PTR [rsp+40], rbx
  000aa	48 89 44 24 20	 mov	 QWORD PTR [rsp+32], rax
  000af	e8 00 00 00 00	 call	 PyObject_CallFunction
  000b4	48 8b f8	 mov	 rdi, rax

; 625  :     Py_DECREF(fnames);

  000b7	e8 00 00 00 00	 call	 _Py_PXCTX
  000bc	85 c0		 test	 eax, eax
  000be	0f 85 de 00 00
	00		 jne	 $LN29@make_type
  000c4	48 8b 4b 20	 mov	 rcx, QWORD PTR [rbx+32]
  000c8	f6 c1 20	 test	 cl, 32			; 00000020H
  000cb	0f 85 c9 00 00
	00		 jne	 $LN23@make_type
  000d1	84 c9		 test	 cl, cl
  000d3	0f 88 c1 00 00
	00		 js	 $LN23@make_type
  000d9	f6 c1 02	 test	 cl, 2
  000dc	0f 85 c0 00 00
	00		 jne	 $LN29@make_type
  000e2	48 ff 4b 50	 dec	 QWORD PTR [rbx+80]
  000e6	0f 85 b6 00 00
	00		 jne	 $LN29@make_type
  000ec	48 8d 15 00 00
	00 00		 lea	 rdx, OFFSET FLAT:??_C@_0CD@HDJFDCDP@c?3?2src?2pyparallel?2include?2object@
  000f3	48 8d 0d 00 00
	00 00		 lea	 rcx, OFFSET FLAT:??_C@_0L@DMHMLFIA@_Py_DecRef?$AA@
  000fa	4c 8b cb	 mov	 r9, rbx
  000fd	41 b8 a4 03 00
	00		 mov	 r8d, 932		; 000003a4H
  00103	c7 44 24 20 10
	00 00 00	 mov	 DWORD PTR [rsp+32], 16
  0010b	e8 00 00 00 00	 call	 _PyParallel_Guard
  00110	48 8b cb	 mov	 rcx, rbx
  00113	85 c0		 test	 eax, eax
  00115	74 77		 je	 SHORT $LN28@make_type
  00117	e8 00 00 00 00	 call	 _Px_Dealloc
  0011c	e9 81 00 00 00	 jmp	 $LN29@make_type
$LN31@make_type:

; 618  :             Py_DECREF(fnames);

  00121	e8 00 00 00 00	 call	 _Py_PXCTX
  00126	85 c0		 test	 eax, eax
  00128	75 60		 jne	 SHORT $LN18@make_type
  0012a	48 8b 43 20	 mov	 rax, QWORD PTR [rbx+32]
  0012e	a8 20		 test	 al, 32			; 00000020H
  00130	75 50		 jne	 SHORT $LN12@make_type
  00132	84 c0		 test	 al, al
  00134	78 4c		 js	 SHORT $LN12@make_type
  00136	a8 02		 test	 al, 2
  00138	75 50		 jne	 SHORT $LN18@make_type
  0013a	48 ff 4b 50	 dec	 QWORD PTR [rbx+80]
  0013e	75 4a		 jne	 SHORT $LN18@make_type
  00140	48 8d 15 00 00
	00 00		 lea	 rdx, OFFSET FLAT:??_C@_0CD@HDJFDCDP@c?3?2src?2pyparallel?2include?2object@
  00147	48 8d 0d 00 00
	00 00		 lea	 rcx, OFFSET FLAT:??_C@_0L@DMHMLFIA@_Py_DecRef?$AA@
  0014e	4c 8b cb	 mov	 r9, rbx
  00151	41 b8 a4 03 00
	00		 mov	 r8d, 932		; 000003a4H
  00157	c7 44 24 20 10
	00 00 00	 mov	 DWORD PTR [rsp+32], 16
  0015f	e8 00 00 00 00	 call	 _PyParallel_Guard
  00164	48 8b cb	 mov	 rcx, rbx
  00167	85 c0		 test	 eax, eax
  00169	74 09		 je	 SHORT $LN17@make_type
  0016b	e8 00 00 00 00	 call	 _Px_Dealloc

; 619  :             return NULL;

  00170	33 c0		 xor	 eax, eax
  00172	eb 31		 jmp	 SHORT $LN34@make_type

; 618  :             Py_DECREF(fnames);

$LN17@make_type:
  00174	48 8b 43 58	 mov	 rax, QWORD PTR [rbx+88]
  00178	ff 90 88 00 00
	00		 call	 QWORD PTR [rax+136]

; 619  :             return NULL;

  0017e	33 c0		 xor	 eax, eax
  00180	eb 23		 jmp	 SHORT $LN34@make_type

; 618  :             Py_DECREF(fnames);

$LN12@make_type:
  00182	48 8b cb	 mov	 rcx, rbx
  00185	e8 00 00 00 00	 call	 Px_DecRef
$LN18@make_type:

; 619  :             return NULL;

  0018a	33 c0		 xor	 eax, eax
  0018c	eb 17		 jmp	 SHORT $LN34@make_type

; 625  :     Py_DECREF(fnames);

$LN28@make_type:
  0018e	48 8b 43 58	 mov	 rax, QWORD PTR [rbx+88]
  00192	ff 90 88 00 00
	00		 call	 QWORD PTR [rax+136]
  00198	eb 08		 jmp	 SHORT $LN29@make_type
$LN23@make_type:
  0019a	48 8b cb	 mov	 rcx, rbx
  0019d	e8 00 00 00 00	 call	 Px_DecRef
$LN29@make_type:

; 626  :     return (PyTypeObject*)result;

  001a2	48 8b c7	 mov	 rax, rdi
$LN34@make_type:
  001a5	48 8b 6c 24 60	 mov	 rbp, QWORD PTR [rsp+96]
  001aa	48 8b 74 24 68	 mov	 rsi, QWORD PTR [rsp+104]
$LN6@make_type:

; 627  : }

  001af	48 8b 5c 24 70	 mov	 rbx, QWORD PTR [rsp+112]
  001b4	48 8b 7c 24 78	 mov	 rdi, QWORD PTR [rsp+120]
  001b9	48 83 c4 40	 add	 rsp, 64			; 00000040H
  001bd	41 5e		 pop	 r14
  001bf	41 5d		 pop	 r13
  001c1	41 5c		 pop	 r12
  001c3	c3		 ret	 0
make_type ENDP
_TEXT	ENDS
EXTRN	_PyObject_SetAttrId:PROC
;	COMDAT pdata
; File c:\src\pyparallel\include\object.h
pdata	SEGMENT
$pdata$add_attributes DD imagerel add_attributes
	DD	imagerel add_attributes+427
	DD	imagerel $unwind$add_attributes
pdata	ENDS
;	COMDAT xdata
xdata	SEGMENT
$unwind$add_attributes DD 0c4501H
	DD	0cd445H
	DD	0b6440H
	DD	0a543bH
	DD	0d340eH
	DD	0e00a520eH
	DD	07006c008H
; Function compile flags: /Ogtpy
; File c:\src\pyparallel\python\python-ast.c
xdata	ENDS
;	COMDAT add_attributes
_TEXT	SEGMENT
type$ = 80
attrs$ = 88
num_fields$ = 96
add_attributes PROC					; COMDAT

; 630  : {

  00000	48 89 5c 24 20	 mov	 QWORD PTR [rsp+32], rbx
  00005	57		 push	 rdi
  00006	41 54		 push	 r12
  00008	41 56		 push	 r14
  0000a	48 83 ec 30	 sub	 rsp, 48			; 00000030H

; 631  :     int i, result;
; 632  :     _Py_IDENTIFIER(_attributes);
; 633  :     PyObject *s, *l = PyTuple_New(num_fields);

  0000e	4d 63 e0	 movsxd	 r12, r8d
  00011	4c 8b f1	 mov	 r14, rcx
  00014	48 8b fa	 mov	 rdi, rdx
  00017	49 8b cc	 mov	 rcx, r12
  0001a	e8 00 00 00 00	 call	 PyTuple_New
  0001f	48 8b d8	 mov	 rbx, rax

; 634  :     if (!l)

  00022	48 85 c0	 test	 rax, rax
  00025	75 0f		 jne	 SHORT $LN5@add_attrib

; 647  : }

  00027	48 8b 5c 24 68	 mov	 rbx, QWORD PTR [rsp+104]
  0002c	48 83 c4 30	 add	 rsp, 48			; 00000030H
  00030	41 5e		 pop	 r14
  00032	41 5c		 pop	 r12
  00034	5f		 pop	 rdi
  00035	c3		 ret	 0
$LN5@add_attrib:
  00036	48 89 6c 24 50	 mov	 QWORD PTR [rsp+80], rbp
  0003b	48 89 74 24 58	 mov	 QWORD PTR [rsp+88], rsi
  00040	4c 89 6c 24 60	 mov	 QWORD PTR [rsp+96], r13

; 635  :         return 0;
; 636  :     for (i = 0; i < num_fields; i++) {

  00045	45 33 ed	 xor	 r13d, r13d
  00048	41 8b f5	 mov	 esi, r13d
  0004b	4d 85 e4	 test	 r12, r12
  0004e	7e 28		 jle	 SHORT $LN2@add_attrib
  00050	48 8b e8	 mov	 rbp, rax
  00053	48 2b ef	 sub	 rbp, rdi
$LL4@add_attrib:

; 637  :         s = PyUnicode_FromString(attrs[i]);

  00056	48 8b 0f	 mov	 rcx, QWORD PTR [rdi]
  00059	e8 00 00 00 00	 call	 PyUnicode_FromString

; 638  :         if (!s) {

  0005e	48 85 c0	 test	 rax, rax
  00061	0f 84 a2 00 00
	00		 je	 $LN31@add_attrib

; 641  :         }
; 642  :         PyTuple_SET_ITEM(l, i, s);

  00067	48 ff c6	 inc	 rsi
  0006a	48 89 44 2f 70	 mov	 QWORD PTR [rdi+rbp+112], rax
  0006f	48 83 c7 08	 add	 rdi, 8
  00073	49 3b f4	 cmp	 rsi, r12
  00076	7c de		 jl	 SHORT $LL4@add_attrib
$LN2@add_attrib:

; 643  :     }
; 644  :     result = _PyObject_SetAttrId((PyObject*)type, &PyId__attributes, l) >= 0;

  00078	8b 0d 00 00 00
	00		 mov	 ecx, DWORD PTR _tls_index
  0007e	65 48 8b 04 25
	58 00 00 00	 mov	 rax, QWORD PTR gs:88
  00087	ba 00 00 00 00	 mov	 edx, OFFSET FLAT:?PyId__attributes@?1??add_attributes@@9@9
  0008c	48 03 14 c8	 add	 rdx, QWORD PTR [rax+rcx*8]
  00090	4c 8b c3	 mov	 r8, rbx
  00093	49 8b ce	 mov	 rcx, r14
  00096	e8 00 00 00 00	 call	 _PyObject_SetAttrId
  0009b	85 c0		 test	 eax, eax
  0009d	41 0f 99 c5	 setns	 r13b

; 645  :     Py_DECREF(l);

  000a1	e8 00 00 00 00	 call	 _Py_PXCTX
  000a6	85 c0		 test	 eax, eax
  000a8	0f 85 dc 00 00
	00		 jne	 $LN29@add_attrib
  000ae	48 8b 43 20	 mov	 rax, QWORD PTR [rbx+32]
  000b2	a8 20		 test	 al, 32			; 00000020H
  000b4	0f 85 c8 00 00
	00		 jne	 $LN23@add_attrib
  000ba	84 c0		 test	 al, al
  000bc	0f 88 c0 00 00
	00		 js	 $LN23@add_attrib
  000c2	a8 02		 test	 al, 2
  000c4	0f 85 c0 00 00
	00		 jne	 $LN29@add_attrib
  000ca	48 ff 4b 50	 dec	 QWORD PTR [rbx+80]
  000ce	0f 85 b6 00 00
	00		 jne	 $LN29@add_attrib
  000d4	48 8d 15 00 00
	00 00		 lea	 rdx, OFFSET FLAT:??_C@_0CD@HDJFDCDP@c?3?2src?2pyparallel?2include?2object@
  000db	48 8d 0d 00 00
	00 00		 lea	 rcx, OFFSET FLAT:??_C@_0L@DMHMLFIA@_Py_DecRef?$AA@
  000e2	4c 8b cb	 mov	 r9, rbx
  000e5	41 b8 a4 03 00
	00		 mov	 r8d, 932		; 000003a4H
  000eb	c7 44 24 20 10
	00 00 00	 mov	 DWORD PTR [rsp+32], 16
  000f3	e8 00 00 00 00	 call	 _PyParallel_Guard
  000f8	48 8b cb	 mov	 rcx, rbx
  000fb	85 c0		 test	 eax, eax
  000fd	74 77		 je	 SHORT $LN28@add_attrib
  000ff	e8 00 00 00 00	 call	 _Px_Dealloc
  00104	e9 81 00 00 00	 jmp	 $LN29@add_attrib
$LN31@add_attrib:

; 639  :             Py_DECREF(l);

  00109	e8 00 00 00 00	 call	 _Py_PXCTX
  0010e	85 c0		 test	 eax, eax
  00110	75 60		 jne	 SHORT $LN18@add_attrib
  00112	48 8b 43 20	 mov	 rax, QWORD PTR [rbx+32]
  00116	a8 20		 test	 al, 32			; 00000020H
  00118	75 50		 jne	 SHORT $LN12@add_attrib
  0011a	84 c0		 test	 al, al
  0011c	78 4c		 js	 SHORT $LN12@add_attrib
  0011e	a8 02		 test	 al, 2
  00120	75 50		 jne	 SHORT $LN18@add_attrib
  00122	48 ff 4b 50	 dec	 QWORD PTR [rbx+80]
  00126	75 4a		 jne	 SHORT $LN18@add_attrib
  00128	48 8d 15 00 00
	00 00		 lea	 rdx, OFFSET FLAT:??_C@_0CD@HDJFDCDP@c?3?2src?2pyparallel?2include?2object@
  0012f	48 8d 0d 00 00
	00 00		 lea	 rcx, OFFSET FLAT:??_C@_0L@DMHMLFIA@_Py_DecRef?$AA@
  00136	4c 8b cb	 mov	 r9, rbx
  00139	41 b8 a4 03 00
	00		 mov	 r8d, 932		; 000003a4H
  0013f	c7 44 24 20 10
	00 00 00	 mov	 DWORD PTR [rsp+32], 16
  00147	e8 00 00 00 00	 call	 _PyParallel_Guard
  0014c	48 8b cb	 mov	 rcx, rbx
  0014f	85 c0		 test	 eax, eax
  00151	74 09		 je	 SHORT $LN17@add_attrib
  00153	e8 00 00 00 00	 call	 _Px_Dealloc

; 640  :             return 0;

  00158	33 c0		 xor	 eax, eax
  0015a	eb 31		 jmp	 SHORT $LN35@add_attrib

; 639  :             Py_DECREF(l);

$LN17@add_attrib:
  0015c	48 8b 43 58	 mov	 rax, QWORD PTR [rbx+88]
  00160	ff 90 88 00 00
	00		 call	 QWORD PTR [rax+136]

; 640  :             return 0;

  00166	33 c0		 xor	 eax, eax
  00168	eb 23		 jmp	 SHORT $LN35@add_attrib

; 639  :             Py_DECREF(l);

$LN12@add_attrib:
  0016a	48 8b cb	 mov	 rcx, rbx
  0016d	e8 00 00 00 00	 call	 Px_DecRef
$LN18@add_attrib:

; 640  :             return 0;

  00172	33 c0		 xor	 eax, eax
  00174	eb 17		 jmp	 SHORT $LN35@add_attrib

; 645  :     Py_DECREF(l);

$LN28@add_attrib:
  00176	48 8b 43 58	 mov	 rax, QWORD PTR [rbx+88]
  0017a	ff 90 88 00 00
	00		 call	 QWORD PTR [rax+136]
  00180	eb 08		 jmp	 SHORT $LN29@add_attrib
$LN23@add_attrib:
  00182	48 8b cb	 mov	 rcx, rbx
  00185	e8 00 00 00 00	 call	 Px_DecRef
$LN29@add_attrib:

; 646  :     return result;

  0018a	41 8b c5	 mov	 eax, r13d
$LN35@add_attrib:
  0018d	48 8b 74 24 58	 mov	 rsi, QWORD PTR [rsp+88]
  00192	48 8b 6c 24 50	 mov	 rbp, QWORD PTR [rsp+80]
  00197	4c 8b 6c 24 60	 mov	 r13, QWORD PTR [rsp+96]

; 647  : }

  0019c	48 8b 5c 24 68	 mov	 rbx, QWORD PTR [rsp+104]
  001a1	48 83 c4 30	 add	 rsp, 48			; 00000030H
  001a5	41 5e		 pop	 r14
  001a7	41 5c		 pop	 r12
  001a9	5f		 pop	 rdi
  001aa	c3		 ret	 0
add_attributes ENDP
_TEXT	ENDS
EXTRN	PyList_New:PROC
;	COMDAT pdata
; File c:\src\pyparallel\include\object.h
pdata	SEGMENT
$pdata$ast2obj_list DD imagerel ast2obj_list
	DD	imagerel ast2obj_list+241
	DD	imagerel $unwind$ast2obj_list
pdata	ENDS
;	COMDAT xdata
xdata	SEGMENT
$unwind$ast2obj_list DD 0a1a01H
	DD	0b741aH
	DD	0a641aH
	DD	09541aH
	DD	08341aH
	DD	0c016521aH
; Function compile flags: /Ogtpy
; File c:\src\pyparallel\python\python-ast.c
xdata	ENDS
;	COMDAT ast2obj_list
_TEXT	SEGMENT
seq$ = 64
func$ = 72
ast2obj_list PROC					; COMDAT

; 652  : {

  00000	48 89 5c 24 08	 mov	 QWORD PTR [rsp+8], rbx
  00005	48 89 6c 24 10	 mov	 QWORD PTR [rsp+16], rbp
  0000a	48 89 74 24 18	 mov	 QWORD PTR [rsp+24], rsi
  0000f	48 89 7c 24 20	 mov	 QWORD PTR [rsp+32], rdi
  00014	41 54		 push	 r12
  00016	48 83 ec 30	 sub	 rsp, 48			; 00000030H

; 653  :     Py_ssize_t i, n = asdl_seq_LEN(seq);

  0001a	33 ff		 xor	 edi, edi
  0001c	4c 8b e2	 mov	 r12, rdx
  0001f	48 8b e9	 mov	 rbp, rcx
  00022	8b f7		 mov	 esi, edi
  00024	48 85 c9	 test	 rcx, rcx
  00027	74 03		 je	 SHORT $LN9@ast2obj_li
  00029	48 8b 31	 mov	 rsi, QWORD PTR [rcx]
$LN9@ast2obj_li:

; 654  :     PyObject *result = PyList_New(n);

  0002c	48 8b ce	 mov	 rcx, rsi
  0002f	e8 00 00 00 00	 call	 PyList_New
  00034	48 8b d8	 mov	 rbx, rax

; 655  :     PyObject *value;
; 656  :     if (!result)

  00037	48 85 c0	 test	 rax, rax

; 657  :         return NULL;

  0003a	0f 84 aa 00 00
	00		 je	 $LN20@ast2obj_li

; 658  :     for (i = 0; i < n; i++) {

  00040	48 85 f6	 test	 rsi, rsi
  00043	7e 1e		 jle	 SHORT $LN2@ast2obj_li
$LL4@ast2obj_li:

; 659  :         value = func(asdl_seq_GET(seq, i));

  00045	48 8b 4c fd 08	 mov	 rcx, QWORD PTR [rbp+rdi*8+8]
  0004a	41 ff d4	 call	 r12

; 660  :         if (!value) {

  0004d	48 85 c0	 test	 rax, rax
  00050	74 2f		 je	 SHORT $LN22@ast2obj_li

; 663  :         }
; 664  :         PyList_SET_ITEM(result, i, value);

  00052	48 8b 4b 70	 mov	 rcx, QWORD PTR [rbx+112]
  00056	48 ff c7	 inc	 rdi
  00059	48 89 44 f9 f8	 mov	 QWORD PTR [rcx+rdi*8-8], rax
  0005e	48 3b fe	 cmp	 rdi, rsi
  00061	7c e2		 jl	 SHORT $LL4@ast2obj_li
$LN2@ast2obj_li:

; 665  :     }
; 666  :     return result;

  00063	48 8b c3	 mov	 rax, rbx
$LN6@ast2obj_li:

; 667  : }

  00066	48 8b 5c 24 40	 mov	 rbx, QWORD PTR [rsp+64]
  0006b	48 8b 6c 24 48	 mov	 rbp, QWORD PTR [rsp+72]
  00070	48 8b 74 24 50	 mov	 rsi, QWORD PTR [rsp+80]
  00075	48 8b 7c 24 58	 mov	 rdi, QWORD PTR [rsp+88]
  0007a	48 83 c4 30	 add	 rsp, 48			; 00000030H
  0007e	41 5c		 pop	 r12
  00080	c3		 ret	 0
$LN22@ast2obj_li:

; 661  :             Py_DECREF(result);

  00081	e8 00 00 00 00	 call	 _Py_PXCTX
  00086	85 c0		 test	 eax, eax
  00088	75 60		 jne	 SHORT $LN20@ast2obj_li
  0008a	48 8b 43 20	 mov	 rax, QWORD PTR [rbx+32]
  0008e	a8 20		 test	 al, 32			; 00000020H
  00090	75 50		 jne	 SHORT $LN14@ast2obj_li
  00092	84 c0		 test	 al, al
  00094	78 4c		 js	 SHORT $LN14@ast2obj_li
  00096	a8 02		 test	 al, 2
  00098	75 50		 jne	 SHORT $LN20@ast2obj_li
  0009a	48 ff 4b 50	 dec	 QWORD PTR [rbx+80]
  0009e	75 4a		 jne	 SHORT $LN20@ast2obj_li
  000a0	48 8d 15 00 00
	00 00		 lea	 rdx, OFFSET FLAT:??_C@_0CD@HDJFDCDP@c?3?2src?2pyparallel?2include?2object@
  000a7	48 8d 0d 00 00
	00 00		 lea	 rcx, OFFSET FLAT:??_C@_0L@DMHMLFIA@_Py_DecRef?$AA@
  000ae	4c 8b cb	 mov	 r9, rbx
  000b1	41 b8 a4 03 00
	00		 mov	 r8d, 932		; 000003a4H
  000b7	c7 44 24 20 10
	00 00 00	 mov	 DWORD PTR [rsp+32], 16
  000bf	e8 00 00 00 00	 call	 _PyParallel_Guard
  000c4	48 8b cb	 mov	 rcx, rbx
  000c7	85 c0		 test	 eax, eax
  000c9	74 09		 je	 SHORT $LN19@ast2obj_li
  000cb	e8 00 00 00 00	 call	 _Px_Dealloc

; 662  :             return NULL;

  000d0	33 c0		 xor	 eax, eax
  000d2	eb 92		 jmp	 SHORT $LN6@ast2obj_li

; 661  :             Py_DECREF(result);

$LN19@ast2obj_li:
  000d4	48 8b 43 58	 mov	 rax, QWORD PTR [rbx+88]
  000d8	ff 90 88 00 00
	00		 call	 QWORD PTR [rax+136]

; 662  :             return NULL;

  000de	33 c0		 xor	 eax, eax
  000e0	eb 84		 jmp	 SHORT $LN6@ast2obj_li

; 661  :             Py_DECREF(result);

$LN14@ast2obj_li:
  000e2	48 8b cb	 mov	 rcx, rbx
  000e5	e8 00 00 00 00	 call	 Px_DecRef
$LN20@ast2obj_li:

; 662  :             return NULL;

  000ea	33 c0		 xor	 eax, eax
  000ec	e9 75 ff ff ff	 jmp	 $LN6@ast2obj_li
ast2obj_list ENDP
_TEXT	ENDS
EXTRN	_Py_NoneStruct:BYTE
;	COMDAT pdata
; File c:\src\pyparallel\include\object.h
pdata	SEGMENT
$pdata$ast2obj_object DD imagerel ast2obj_object
	DD	imagerel ast2obj_object+88
	DD	imagerel $unwind$ast2obj_object
pdata	ENDS
;	COMDAT xdata
xdata	SEGMENT
$unwind$ast2obj_object DD 020601H
	DD	030025206H
; Function compile flags: /Ogtpy
; File c:\src\pyparallel\python\python-ast.c
xdata	ENDS
;	COMDAT ast2obj_object
_TEXT	SEGMENT
o$ = 64
ast2obj_object PROC					; COMDAT

; 670  : {

  00000	40 53		 push	 rbx
  00002	48 83 ec 30	 sub	 rsp, 48			; 00000030H

; 671  :     if (!o)

  00006	48 85 c9	 test	 rcx, rcx
  00009	48 8d 1d 00 00
	00 00		 lea	 rbx, OFFSET FLAT:_Py_NoneStruct
  00010	48 0f 45 d9	 cmovne	 rbx, rcx

; 672  :         o = Py_None;
; 673  :     Py_INCREF((PyObject*)o);

  00014	e8 00 00 00 00	 call	 _Py_PXCTX
  00019	85 c0		 test	 eax, eax
  0001b	75 32		 jne	 SHORT $LN8@ast2obj_ob
  0001d	48 8d 15 00 00
	00 00		 lea	 rdx, OFFSET FLAT:??_C@_0CD@HDJFDCDP@c?3?2src?2pyparallel?2include?2object@
  00024	48 8d 0d 00 00
	00 00		 lea	 rcx, OFFSET FLAT:??_C@_0L@DHGMCEID@_Py_IncRef?$AA@
  0002b	4c 8b cb	 mov	 r9, rbx
  0002e	41 b8 89 03 00
	00		 mov	 r8d, 905		; 00000389H
  00034	c7 44 24 20 02
	00 00 00	 mov	 DWORD PTR [rsp+32], 2
  0003c	e8 00 00 00 00	 call	 _PyParallel_Guard
  00041	85 c0		 test	 eax, eax
  00043	75 06		 jne	 SHORT $LN4@ast2obj_ob
  00045	f6 43 20 20	 test	 BYTE PTR [rbx+32], 32	; 00000020H
  00049	74 04		 je	 SHORT $LN8@ast2obj_ob
$LN4@ast2obj_ob:
  0004b	48 ff 43 50	 inc	 QWORD PTR [rbx+80]
$LN8@ast2obj_ob:

; 674  :     return (PyObject*)o;

  0004f	48 8b c3	 mov	 rax, rbx

; 675  : }

  00052	48 83 c4 30	 add	 rsp, 48			; 00000030H
  00056	5b		 pop	 rbx
  00057	c3		 ret	 0
ast2obj_object ENDP
_TEXT	ENDS
EXTRN	PyLong_FromLong:PROC
; Function compile flags: /Ogtpy
;	COMDAT ast2obj_int
_TEXT	SEGMENT
b$ = 8
ast2obj_int PROC					; COMDAT

; 682  :     return PyLong_FromLong(b);
; 683  : }

  00000	e9 00 00 00 00	 jmp	 PyLong_FromLong
ast2obj_int ENDP
_TEXT	ENDS
EXTRN	PyArena_AddPyObject:PROC
;	COMDAT pdata
; File c:\src\pyparallel\include\object.h
pdata	SEGMENT
$pdata$obj2ast_object DD imagerel obj2ast_object
	DD	imagerel obj2ast_object+160
	DD	imagerel $unwind$obj2ast_object
pdata	ENDS
;	COMDAT xdata
xdata	SEGMENT
$unwind$obj2ast_object DD 040a01H
	DD	08340aH
	DD	07006520aH
; Function compile flags: /Ogtpy
; File c:\src\pyparallel\python\python-ast.c
xdata	ENDS
;	COMDAT obj2ast_object
_TEXT	SEGMENT
obj$ = 64
out$ = 72
arena$ = 80
obj2ast_object PROC					; COMDAT

; 688  : {

  00000	48 89 5c 24 08	 mov	 QWORD PTR [rsp+8], rbx
  00005	57		 push	 rdi
  00006	48 83 ec 30	 sub	 rsp, 48			; 00000030H

; 689  :     if (obj == Py_None)

  0000a	48 8d 05 00 00
	00 00		 lea	 rax, OFFSET FLAT:_Py_NoneStruct
  00011	48 8b fa	 mov	 rdi, rdx
  00014	48 8b d9	 mov	 rbx, rcx
  00017	48 3b c8	 cmp	 rcx, rax
  0001a	75 12		 jne	 SHORT $LN3@obj2ast_ob

; 690  :         obj = NULL;

  0001c	33 db		 xor	 ebx, ebx

; 699  :     return 0;

  0001e	33 c0		 xor	 eax, eax
  00020	48 89 1a	 mov	 QWORD PTR [rdx], rbx

; 700  : }

  00023	48 8b 5c 24 40	 mov	 rbx, QWORD PTR [rsp+64]
  00028	48 83 c4 30	 add	 rsp, 48			; 00000030H
  0002c	5f		 pop	 rdi
  0002d	c3		 ret	 0
$LN3@obj2ast_ob:

; 691  :     if (obj) {

  0002e	48 85 c9	 test	 rcx, rcx
  00031	74 5d		 je	 SHORT $LN7@obj2ast_ob

; 692  :         if (PyArena_AddPyObject(arena, obj) < 0) {

  00033	48 8b d1	 mov	 rdx, rcx
  00036	49 8b c8	 mov	 rcx, r8
  00039	e8 00 00 00 00	 call	 PyArena_AddPyObject
  0003e	85 c0		 test	 eax, eax
  00040	79 13		 jns	 SHORT $LN1@obj2ast_ob

; 693  :             *out = NULL;

  00042	33 db		 xor	 ebx, ebx

; 694  :             return -1;

  00044	83 c8 ff	 or	 eax, -1

; 697  :     }
; 698  :     *out = obj;

  00047	48 89 1f	 mov	 QWORD PTR [rdi], rbx

; 700  : }

  0004a	48 8b 5c 24 40	 mov	 rbx, QWORD PTR [rsp+64]
  0004f	48 83 c4 30	 add	 rsp, 48			; 00000030H
  00053	5f		 pop	 rdi
  00054	c3		 ret	 0
$LN1@obj2ast_ob:

; 695  :         }
; 696  :         Py_INCREF(obj);

  00055	e8 00 00 00 00	 call	 _Py_PXCTX
  0005a	85 c0		 test	 eax, eax
  0005c	75 32		 jne	 SHORT $LN7@obj2ast_ob
  0005e	48 8d 15 00 00
	00 00		 lea	 rdx, OFFSET FLAT:??_C@_0CD@HDJFDCDP@c?3?2src?2pyparallel?2include?2object@
  00065	48 8d 0d 00 00
	00 00		 lea	 rcx, OFFSET FLAT:??_C@_0L@DHGMCEID@_Py_IncRef?$AA@
  0006c	4c 8b cb	 mov	 r9, rbx
  0006f	41 b8 89 03 00
	00		 mov	 r8d, 905		; 00000389H
  00075	c7 44 24 20 02
	00 00 00	 mov	 DWORD PTR [rsp+32], 2
  0007d	e8 00 00 00 00	 call	 _PyParallel_Guard
  00082	85 c0		 test	 eax, eax
  00084	75 06		 jne	 SHORT $LN6@obj2ast_ob
  00086	f6 43 20 20	 test	 BYTE PTR [rbx+32], 32	; 00000020H
  0008a	74 04		 je	 SHORT $LN7@obj2ast_ob
$LN6@obj2ast_ob:
  0008c	48 ff 43 50	 inc	 QWORD PTR [rbx+80]
$LN7@obj2ast_ob:

; 697  :     }
; 698  :     *out = obj;

  00090	48 89 1f	 mov	 QWORD PTR [rdi], rbx

; 700  : }

  00093	48 8b 5c 24 40	 mov	 rbx, QWORD PTR [rsp+64]
  00098	33 c0		 xor	 eax, eax
  0009a	48 83 c4 30	 add	 rsp, 48			; 00000030H
  0009e	5f		 pop	 rdi
  0009f	c3		 ret	 0
obj2ast_object ENDP
_TEXT	ENDS
PUBLIC	??_C@_0CD@PFCMDKJP@AST?5identifier?5must?5be?5of?5type?5s@ ; `string'
EXTRN	PyErr_SetString:PROC
EXTRN	PyUnicode_Type:BYTE
;	COMDAT pdata
pdata	SEGMENT
$pdata$obj2ast_identifier DD imagerel obj2ast_identifier
	DD	imagerel obj2ast_identifier+67
	DD	imagerel $unwind$obj2ast_identifier
pdata	ENDS
;	COMDAT xdata
xdata	SEGMENT
$unwind$obj2ast_identifier DD 010401H
	DD	04204H
xdata	ENDS
;	COMDAT ??_C@_0CD@PFCMDKJP@AST?5identifier?5must?5be?5of?5type?5s@
CONST	SEGMENT
??_C@_0CD@PFCMDKJP@AST?5identifier?5must?5be?5of?5type?5s@ DB 'AST identi'
	DB	'fier must be of type str', 00H		; `string'
; Function compile flags: /Ogtpy
CONST	ENDS
;	COMDAT obj2ast_identifier
_TEXT	SEGMENT
obj$ = 48
out$ = 56
arena$ = 64
obj2ast_identifier PROC					; COMDAT

; 703  : {

  00000	48 83 ec 28	 sub	 rsp, 40			; 00000028H

; 704  :     if (!PyUnicode_CheckExact(obj) && obj != Py_None) {

  00004	48 8d 05 00 00
	00 00		 lea	 rax, OFFSET FLAT:PyUnicode_Type
  0000b	48 39 41 58	 cmp	 QWORD PTR [rcx+88], rax
  0000f	74 29		 je	 SHORT $LN1@obj2ast_id
  00011	48 8d 05 00 00
	00 00		 lea	 rax, OFFSET FLAT:_Py_NoneStruct
  00018	48 3b c8	 cmp	 rcx, rax
  0001b	74 1d		 je	 SHORT $LN1@obj2ast_id

; 705  :         PyErr_SetString(PyExc_TypeError, "AST identifier must be of type str");

  0001d	48 8b 0d 00 00
	00 00		 mov	 rcx, QWORD PTR PyExc_TypeError
  00024	48 8d 15 00 00
	00 00		 lea	 rdx, OFFSET FLAT:??_C@_0CD@PFCMDKJP@AST?5identifier?5must?5be?5of?5type?5s@
  0002b	e8 00 00 00 00	 call	 PyErr_SetString

; 706  :         return 1;

  00030	b8 01 00 00 00	 mov	 eax, 1

; 707  :     }
; 708  :     return obj2ast_object(obj, out, arena);
; 709  : }

  00035	48 83 c4 28	 add	 rsp, 40			; 00000028H
  00039	c3		 ret	 0
$LN1@obj2ast_id:
  0003a	48 83 c4 28	 add	 rsp, 40			; 00000028H
  0003e	e9 00 00 00 00	 jmp	 obj2ast_object
obj2ast_identifier ENDP
_TEXT	ENDS
PUBLIC	??_C@_0BP@FMAHCGHB@AST?5string?5must?5be?5of?5type?5str?$AA@ ; `string'
EXTRN	PyBytes_Type:BYTE
;	COMDAT pdata
pdata	SEGMENT
$pdata$obj2ast_string DD imagerel obj2ast_string
	DD	imagerel obj2ast_string+70
	DD	imagerel $unwind$obj2ast_string
pdata	ENDS
;	COMDAT xdata
xdata	SEGMENT
$unwind$obj2ast_string DD 010401H
	DD	04204H
xdata	ENDS
;	COMDAT ??_C@_0BP@FMAHCGHB@AST?5string?5must?5be?5of?5type?5str?$AA@
CONST	SEGMENT
??_C@_0BP@FMAHCGHB@AST?5string?5must?5be?5of?5type?5str?$AA@ DB 'AST stri'
	DB	'ng must be of type str', 00H		; `string'
; Function compile flags: /Ogtpy
CONST	ENDS
;	COMDAT obj2ast_string
_TEXT	SEGMENT
obj$ = 48
out$ = 56
arena$ = 64
obj2ast_string PROC					; COMDAT

; 712  : {

  00000	48 83 ec 28	 sub	 rsp, 40			; 00000028H

; 713  :     if (!PyUnicode_CheckExact(obj) && !PyBytes_CheckExact(obj)) {

  00004	48 8b 41 58	 mov	 rax, QWORD PTR [rcx+88]
  00008	4c 8d 0d 00 00
	00 00		 lea	 r9, OFFSET FLAT:PyUnicode_Type
  0000f	49 3b c1	 cmp	 rax, r9
  00012	74 29		 je	 SHORT $LN1@obj2ast_st
  00014	4c 8d 0d 00 00
	00 00		 lea	 r9, OFFSET FLAT:PyBytes_Type
  0001b	49 3b c1	 cmp	 rax, r9
  0001e	74 1d		 je	 SHORT $LN1@obj2ast_st

; 714  :         PyErr_SetString(PyExc_TypeError, "AST string must be of type str");

  00020	48 8b 0d 00 00
	00 00		 mov	 rcx, QWORD PTR PyExc_TypeError
  00027	48 8d 15 00 00
	00 00		 lea	 rdx, OFFSET FLAT:??_C@_0BP@FMAHCGHB@AST?5string?5must?5be?5of?5type?5str?$AA@
  0002e	e8 00 00 00 00	 call	 PyErr_SetString

; 715  :         return 1;

  00033	b8 01 00 00 00	 mov	 eax, 1

; 716  :     }
; 717  :     return obj2ast_object(obj, out, arena);
; 718  : }

  00038	48 83 c4 28	 add	 rsp, 40			; 00000028H
  0003c	c3		 ret	 0
$LN1@obj2ast_st:
  0003d	48 83 c4 28	 add	 rsp, 40			; 00000028H
  00041	e9 00 00 00 00	 jmp	 obj2ast_object
obj2ast_string ENDP
_TEXT	ENDS
PUBLIC	??_C@_0CA@ENLMLMLP@AST?5bytes?5must?5be?5of?5type?5bytes?$AA@ ; `string'
;	COMDAT pdata
pdata	SEGMENT
$pdata$obj2ast_bytes DD imagerel obj2ast_bytes
	DD	imagerel obj2ast_bytes+55
	DD	imagerel $unwind$obj2ast_bytes
pdata	ENDS
;	COMDAT xdata
xdata	SEGMENT
$unwind$obj2ast_bytes DD 010401H
	DD	04204H
xdata	ENDS
;	COMDAT ??_C@_0CA@ENLMLMLP@AST?5bytes?5must?5be?5of?5type?5bytes?$AA@
CONST	SEGMENT
??_C@_0CA@ENLMLMLP@AST?5bytes?5must?5be?5of?5type?5bytes?$AA@ DB 'AST byt'
	DB	'es must be of type bytes', 00H		; `string'
; Function compile flags: /Ogtpy
CONST	ENDS
;	COMDAT obj2ast_bytes
_TEXT	SEGMENT
obj$ = 48
out$ = 56
arena$ = 64
obj2ast_bytes PROC					; COMDAT

; 721  : {

  00000	48 83 ec 28	 sub	 rsp, 40			; 00000028H

; 722  :     if (!PyBytes_CheckExact(obj)) {

  00004	48 8d 05 00 00
	00 00		 lea	 rax, OFFSET FLAT:PyBytes_Type
  0000b	48 39 41 58	 cmp	 QWORD PTR [rcx+88], rax
  0000f	74 1d		 je	 SHORT $LN1@obj2ast_by

; 723  :         PyErr_SetString(PyExc_TypeError, "AST bytes must be of type bytes");

  00011	48 8b 0d 00 00
	00 00		 mov	 rcx, QWORD PTR PyExc_TypeError
  00018	48 8d 15 00 00
	00 00		 lea	 rdx, OFFSET FLAT:??_C@_0CA@ENLMLMLP@AST?5bytes?5must?5be?5of?5type?5bytes?$AA@
  0001f	e8 00 00 00 00	 call	 PyErr_SetString

; 724  :         return 1;

  00024	b8 01 00 00 00	 mov	 eax, 1

; 725  :     }
; 726  :     return obj2ast_object(obj, out, arena);
; 727  : }

  00029	48 83 c4 28	 add	 rsp, 40			; 00000028H
  0002d	c3		 ret	 0
$LN1@obj2ast_by:
  0002e	48 83 c4 28	 add	 rsp, 40			; 00000028H
  00032	e9 00 00 00 00	 jmp	 obj2ast_object
obj2ast_bytes ENDP
_TEXT	ENDS
PUBLIC	??_C@_0BK@JIKIMNKN@invalid?5integer?5value?3?5?$CFR?$AA@ ; `string'
EXTRN	PyErr_Occurred:PROC
EXTRN	PyLong_AsLong:PROC
EXTRN	PyExc_ValueError:QWORD
;	COMDAT pdata
pdata	SEGMENT
$pdata$obj2ast_int DD imagerel obj2ast_int
	DD	imagerel obj2ast_int+58
	DD	imagerel $unwind$obj2ast_int
pdata	ENDS
;	COMDAT pdata
pdata	SEGMENT
$pdata$0$obj2ast_int DD imagerel obj2ast_int+58
	DD	imagerel obj2ast_int+99
	DD	imagerel $chain$0$obj2ast_int
pdata	ENDS
;	COMDAT pdata
pdata	SEGMENT
$pdata$2$obj2ast_int DD imagerel obj2ast_int+99
	DD	imagerel obj2ast_int+114
	DD	imagerel $chain$2$obj2ast_int
pdata	ENDS
;	COMDAT xdata
xdata	SEGMENT
$chain$2$obj2ast_int DD 020021H
	DD	063400H
	DD	imagerel obj2ast_int
	DD	imagerel obj2ast_int+58
	DD	imagerel $unwind$obj2ast_int
xdata	ENDS
;	COMDAT xdata
xdata	SEGMENT
$chain$0$obj2ast_int DD 020521H
	DD	063405H
	DD	imagerel obj2ast_int
	DD	imagerel obj2ast_int+58
	DD	imagerel $unwind$obj2ast_int
xdata	ENDS
;	COMDAT xdata
xdata	SEGMENT
$unwind$obj2ast_int DD 020601H
	DD	070023206H
xdata	ENDS
;	COMDAT ??_C@_0BK@JIKIMNKN@invalid?5integer?5value?3?5?$CFR?$AA@
CONST	SEGMENT
??_C@_0BK@JIKIMNKN@invalid?5integer?5value?3?5?$CFR?$AA@ DB 'invalid inte'
	DB	'ger value: %R', 00H				; `string'
; Function compile flags: /Ogtpy
CONST	ENDS
;	COMDAT obj2ast_int
_TEXT	SEGMENT
obj$ = 48
out$ = 56
obj2ast_int PROC					; COMDAT

; 730  : {

  00000	40 57		 push	 rdi
  00002	48 83 ec 20	 sub	 rsp, 32			; 00000020H

; 731  :     int i;
; 732  :     if (!PyLong_Check(obj)) {

  00006	48 8b 41 58	 mov	 rax, QWORD PTR [rcx+88]
  0000a	48 8b fa	 mov	 rdi, rdx
  0000d	f7 80 00 01 00
	00 00 00 00 01	 test	 DWORD PTR [rax+256], 16777216 ; 01000000H
  00017	75 21		 jne	 SHORT $LN2@obj2ast_in

; 733  :         PyErr_Format(PyExc_ValueError, "invalid integer value: %R", obj);

  00019	4c 8b c1	 mov	 r8, rcx
  0001c	48 8b 0d 00 00
	00 00		 mov	 rcx, QWORD PTR PyExc_ValueError
  00023	48 8d 15 00 00
	00 00		 lea	 rdx, OFFSET FLAT:??_C@_0BK@JIKIMNKN@invalid?5integer?5value?3?5?$CFR?$AA@
  0002a	e8 00 00 00 00	 call	 PyErr_Format

; 734  :         return 1;

  0002f	b8 01 00 00 00	 mov	 eax, 1

; 742  : }

  00034	48 83 c4 20	 add	 rsp, 32			; 00000020H
  00038	5f		 pop	 rdi
  00039	c3		 ret	 0
$LN2@obj2ast_in:
  0003a	48 89 5c 24 30	 mov	 QWORD PTR [rsp+48], rbx

; 735  :     }
; 736  : 
; 737  :     i = (int)PyLong_AsLong(obj);

  0003f	e8 00 00 00 00	 call	 PyLong_AsLong
  00044	8b d8		 mov	 ebx, eax

; 738  :     if (i == -1 && PyErr_Occurred())

  00046	83 f8 ff	 cmp	 eax, -1
  00049	75 18		 jne	 SHORT $LN1@obj2ast_in
  0004b	e8 00 00 00 00	 call	 PyErr_Occurred
  00050	48 85 c0	 test	 rax, rax
  00053	74 0e		 je	 SHORT $LN1@obj2ast_in

; 739  :         return 1;

  00055	8d 43 02	 lea	 eax, QWORD PTR [rbx+2]
  00058	48 8b 5c 24 30	 mov	 rbx, QWORD PTR [rsp+48]

; 742  : }

  0005d	48 83 c4 20	 add	 rsp, 32			; 00000020H
  00061	5f		 pop	 rdi
  00062	c3		 ret	 0
$LN1@obj2ast_in:

; 740  :     *out = i;

  00063	89 1f		 mov	 DWORD PTR [rdi], ebx
  00065	48 8b 5c 24 30	 mov	 rbx, QWORD PTR [rsp+48]

; 741  :     return 0;

  0006a	33 c0		 xor	 eax, eax

; 742  : }

  0006c	48 83 c4 20	 add	 rsp, 32			; 00000020H
  00070	5f		 pop	 rdi
  00071	c3		 ret	 0
obj2ast_int ENDP
_TEXT	ENDS
EXTRN	PyDict_SetItemString:PROC
EXTRN	PyType_Ready:PROC
;	COMDAT pdata
; File c:\src\pyparallel\include\object.h
pdata	SEGMENT
$pdata$add_ast_fields DD imagerel add_ast_fields
	DD	imagerel add_ast_fields+28
	DD	imagerel $unwind$add_ast_fields
pdata	ENDS
;	COMDAT pdata
pdata	SEGMENT
$pdata$1$add_ast_fields DD imagerel add_ast_fields+28
	DD	imagerel add_ast_fields+133
	DD	imagerel $chain$1$add_ast_fields
pdata	ENDS
;	COMDAT pdata
pdata	SEGMENT
$pdata$3$add_ast_fields DD imagerel add_ast_fields+133
	DD	imagerel add_ast_fields+230
	DD	imagerel $chain$3$add_ast_fields
pdata	ENDS
;	COMDAT pdata
pdata	SEGMENT
$pdata$5$add_ast_fields DD imagerel add_ast_fields+230
	DD	imagerel add_ast_fields+258
	DD	imagerel $chain$5$add_ast_fields
pdata	ENDS
;	COMDAT pdata
pdata	SEGMENT
$pdata$7$add_ast_fields DD imagerel add_ast_fields+258
	DD	imagerel add_ast_fields+284
	DD	imagerel $chain$7$add_ast_fields
pdata	ENDS
;	COMDAT xdata
xdata	SEGMENT
$chain$7$add_ast_fields DD 040021H
	DD	067400H
	DD	083400H
	DD	imagerel add_ast_fields
	DD	imagerel add_ast_fields+28
	DD	imagerel $unwind$add_ast_fields
xdata	ENDS
;	COMDAT xdata
xdata	SEGMENT
$chain$5$add_ast_fields DD 040021H
	DD	067400H
	DD	083400H
	DD	imagerel add_ast_fields
	DD	imagerel add_ast_fields+28
	DD	imagerel $unwind$add_ast_fields
xdata	ENDS
;	COMDAT xdata
xdata	SEGMENT
$chain$3$add_ast_fields DD 040021H
	DD	067400H
	DD	083400H
	DD	imagerel add_ast_fields
	DD	imagerel add_ast_fields+28
	DD	imagerel $unwind$add_ast_fields
xdata	ENDS
;	COMDAT xdata
xdata	SEGMENT
$chain$1$add_ast_fields DD 040c21H
	DD	06740cH
	DD	083405H
	DD	imagerel add_ast_fields
	DD	imagerel add_ast_fields+28
	DD	imagerel $unwind$add_ast_fields
xdata	ENDS
;	COMDAT xdata
xdata	SEGMENT
$unwind$add_ast_fields DD 010401H
	DD	06204H
; Function compile flags: /Ogtpy
; File c:\src\pyparallel\python\python-ast.c
xdata	ENDS
;	COMDAT add_ast_fields
_TEXT	SEGMENT
add_ast_fields PROC					; COMDAT

; 745  : {

  00000	48 83 ec 38	 sub	 rsp, 56			; 00000038H

; 746  :     PyObject *empty_tuple, *d;
; 747  :     if (PyType_Ready(&AST_type) < 0)

  00004	48 8d 0d 00 00
	00 00		 lea	 rcx, OFFSET FLAT:AST_type
  0000b	e8 00 00 00 00	 call	 PyType_Ready
  00010	85 c0		 test	 eax, eax
  00012	79 08		 jns	 SHORT $LN7@add_ast_fi

; 748  :         return -1;

  00014	83 c8 ff	 or	 eax, -1

; 759  : }

  00017	48 83 c4 38	 add	 rsp, 56			; 00000038H
  0001b	c3		 ret	 0
$LN7@add_ast_fi:
  0001c	48 89 5c 24 40	 mov	 QWORD PTR [rsp+64], rbx

; 749  :     d = AST_type.tp_dict;
; 750  :     empty_tuple = PyTuple_New(0);

  00021	33 c9		 xor	 ecx, ecx
  00023	48 89 7c 24 30	 mov	 QWORD PTR [rsp+48], rdi
  00028	48 8b 3d 60 01
	00 00		 mov	 rdi, QWORD PTR AST_type+352
  0002f	e8 00 00 00 00	 call	 PyTuple_New
  00034	48 8b d8	 mov	 rbx, rax

; 751  :     if (!empty_tuple ||
; 752  :         PyDict_SetItemString(d, "_fields", empty_tuple) < 0 ||
; 753  :         PyDict_SetItemString(d, "_attributes", empty_tuple) < 0) {

  00037	48 85 c0	 test	 rax, rax
  0003a	0f 84 ca 00 00
	00		 je	 $LN3@add_ast_fi
  00040	48 8d 15 00 00
	00 00		 lea	 rdx, OFFSET FLAT:??_C@_07LKKIBPPO@_fields?$AA@
  00047	4c 8b c0	 mov	 r8, rax
  0004a	48 8b cf	 mov	 rcx, rdi
  0004d	e8 00 00 00 00	 call	 PyDict_SetItemString
  00052	85 c0		 test	 eax, eax
  00054	78 2f		 js	 SHORT $LN4@add_ast_fi
  00056	48 8d 15 00 00
	00 00		 lea	 rdx, OFFSET FLAT:??_C@_0M@CDHEEICO@_attributes?$AA@
  0005d	4c 8b c3	 mov	 r8, rbx
  00060	48 8b cf	 mov	 rcx, rdi
  00063	e8 00 00 00 00	 call	 PyDict_SetItemString
  00068	85 c0		 test	 eax, eax
  0006a	78 19		 js	 SHORT $LN4@add_ast_fi

; 756  :     }
; 757  :     Py_DECREF(empty_tuple);

  0006c	48 8b cb	 mov	 rcx, rbx
  0006f	e8 00 00 00 00	 call	 _Py_DecRef
  00074	48 8b 5c 24 40	 mov	 rbx, QWORD PTR [rsp+64]
  00079	48 8b 7c 24 30	 mov	 rdi, QWORD PTR [rsp+48]

; 758  :     return 0;

  0007e	33 c0		 xor	 eax, eax

; 759  : }

  00080	48 83 c4 38	 add	 rsp, 56			; 00000038H
  00084	c3		 ret	 0
$LN4@add_ast_fi:

; 754  :         Py_XDECREF(empty_tuple);

  00085	e8 00 00 00 00	 call	 _Py_PXCTX
  0008a	85 c0		 test	 eax, eax
  0008c	75 7c		 jne	 SHORT $LN3@add_ast_fi
  0008e	48 8b 43 20	 mov	 rax, QWORD PTR [rbx+32]
  00092	a8 20		 test	 al, 32			; 00000020H
  00094	75 6c		 jne	 SHORT $LN14@add_ast_fi
  00096	84 c0		 test	 al, al
  00098	78 68		 js	 SHORT $LN14@add_ast_fi
  0009a	a8 02		 test	 al, 2
  0009c	75 6c		 jne	 SHORT $LN3@add_ast_fi
  0009e	48 ff 4b 50	 dec	 QWORD PTR [rbx+80]
  000a2	75 66		 jne	 SHORT $LN3@add_ast_fi
  000a4	48 8d 15 00 00
	00 00		 lea	 rdx, OFFSET FLAT:??_C@_0CD@HDJFDCDP@c?3?2src?2pyparallel?2include?2object@
  000ab	48 8d 0d 00 00
	00 00		 lea	 rcx, OFFSET FLAT:??_C@_0L@DMHMLFIA@_Py_DecRef?$AA@
  000b2	4c 8b cb	 mov	 r9, rbx
  000b5	41 b8 a4 03 00
	00		 mov	 r8d, 932		; 000003a4H
  000bb	c7 44 24 20 10
	00 00 00	 mov	 DWORD PTR [rsp+32], 16
  000c3	e8 00 00 00 00	 call	 _PyParallel_Guard
  000c8	48 8b cb	 mov	 rcx, rbx
  000cb	85 c0		 test	 eax, eax
  000cd	74 17		 je	 SHORT $LN19@add_ast_fi
  000cf	e8 00 00 00 00	 call	 _Px_Dealloc
  000d4	48 8b 5c 24 40	 mov	 rbx, QWORD PTR [rsp+64]
  000d9	48 8b 7c 24 30	 mov	 rdi, QWORD PTR [rsp+48]

; 755  :         return -1;

  000de	83 c8 ff	 or	 eax, -1

; 759  : }

  000e1	48 83 c4 38	 add	 rsp, 56			; 00000038H
  000e5	c3		 ret	 0

; 754  :         Py_XDECREF(empty_tuple);

$LN19@add_ast_fi:
  000e6	48 8b 43 58	 mov	 rax, QWORD PTR [rbx+88]
  000ea	ff 90 88 00 00
	00		 call	 QWORD PTR [rax+136]
  000f0	48 8b 5c 24 40	 mov	 rbx, QWORD PTR [rsp+64]
  000f5	48 8b 7c 24 30	 mov	 rdi, QWORD PTR [rsp+48]

; 755  :         return -1;

  000fa	83 c8 ff	 or	 eax, -1

; 759  : }

  000fd	48 83 c4 38	 add	 rsp, 56			; 00000038H
  00101	c3		 ret	 0

; 754  :         Py_XDECREF(empty_tuple);

$LN14@add_ast_fi:
  00102	48 8b cb	 mov	 rcx, rbx
  00105	e8 00 00 00 00	 call	 Px_DecRef
$LN3@add_ast_fi:

; 755  :         return -1;

  0010a	48 8b 5c 24 40	 mov	 rbx, QWORD PTR [rsp+64]
  0010f	48 8b 7c 24 30	 mov	 rdi, QWORD PTR [rsp+48]
  00114	83 c8 ff	 or	 eax, -1

; 759  : }

  00117	48 83 c4 38	 add	 rsp, 56			; 00000038H
  0011b	c3		 ret	 0
add_ast_fields ENDP
_TEXT	ENDS
PUBLIC	??_C@_08FACALJAE@withitem?$AA@			; `string'
PUBLIC	??_C@_05NKHOCLEE@alias?$AA@			; `string'
PUBLIC	??_C@_07JMKMGKCH@keyword?$AA@			; `string'
PUBLIC	??_C@_09PBNAMLIK@arguments?$AA@			; `string'
PUBLIC	??_C@_0O@IFPAFICE@ExceptHandler?$AA@		; `string'
PUBLIC	??_C@_0O@LBOCECKK@excepthandler?$AA@		; `string'
PUBLIC	??_C@_0O@PDDLNDDO@comprehension?$AA@		; `string'
PUBLIC	??_C@_05GFBCHB@NotIn?$AA@			; `string'
PUBLIC	??_C@_02IEILNGIL@In?$AA@			; `string'
PUBLIC	??_C@_05KLALIAAG@IsNot?$AA@			; `string'
PUBLIC	??_C@_02HLOHLKJH@Is?$AA@			; `string'
PUBLIC	??_C@_03GIODLKL@GtE?$AA@			; `string'
PUBLIC	??_C@_02DODIABFK@Gt?$AA@			; `string'
PUBLIC	??_C@_03NBIPLMKK@LtE?$AA@			; `string'
PUBLIC	??_C@_02DCGNOOLL@Lt?$AA@			; `string'
PUBLIC	??_C@_05MECFOFIL@NotEq?$AA@			; `string'
PUBLIC	??_C@_02EAMLCBHB@Eq?$AA@			; `string'
PUBLIC	??_C@_05KGHEMFCD@cmpop?$AA@			; `string'
PUBLIC	??_C@_04BFGHELIL@USub?$AA@			; `string'
PUBLIC	??_C@_04KEMJLKFO@UAdd?$AA@			; `string'
PUBLIC	??_C@_03KNKIDPAC@Not?$AA@			; `string'
PUBLIC	??_C@_06OHLCGMJD@Invert?$AA@			; `string'
PUBLIC	??_C@_07JPNNPNHH@unaryop?$AA@			; `string'
PUBLIC	??_C@_08BOGBPHLB@FloorDiv?$AA@			; `string'
PUBLIC	??_C@_06PCNOCLJN@BitAnd?$AA@			; `string'
PUBLIC	??_C@_06MCJFOMGI@BitXor?$AA@			; `string'
PUBLIC	??_C@_05BKBNAGEF@BitOr?$AA@			; `string'
PUBLIC	??_C@_06LEKGCNCD@RShift?$AA@			; `string'
PUBLIC	??_C@_06IDEHMKLA@LShift?$AA@			; `string'
PUBLIC	??_C@_03DGEDEMGN@Pow?$AA@			; `string'
PUBLIC	??_C@_03PFNPICLN@Mod?$AA@			; `string'
PUBLIC	??_C@_03PEKOMBFG@Div?$AA@			; `string'
PUBLIC	??_C@_04MPMBEKAC@Mult?$AA@			; `string'
PUBLIC	??_C@_03CPCCDDB@Sub?$AA@			; `string'
PUBLIC	??_C@_03LDFMNCOE@Add?$AA@			; `string'
PUBLIC	??_C@_08LHJFAFGD@operator?$AA@			; `string'
PUBLIC	??_C@_02GGHBPHGE@Or?$AA@			; `string'
PUBLIC	??_C@_03LOMLFHDC@And?$AA@			; `string'
PUBLIC	??_C@_06IBDOJNAO@boolop?$AA@			; `string'
PUBLIC	??_C@_05FNNGFGLF@Index?$AA@			; `string'
PUBLIC	??_C@_08CIIMGBAD@ExtSlice?$AA@			; `string'
PUBLIC	??_C@_05IMNAOMFL@Slice?$AA@			; `string'
PUBLIC	??_C@_05LOJBNELM@Param?$AA@			; `string'
PUBLIC	??_C@_08NAEMOJFF@AugStore?$AA@			; `string'
PUBLIC	??_C@_07GCIJHPCC@AugLoad?$AA@			; `string'
PUBLIC	??_C@_03ENJJMCOJ@Del?$AA@			; `string'
PUBLIC	??_C@_05OEMPKGID@Store?$AA@			; `string'
PUBLIC	??_C@_04IPBPFFEL@Load?$AA@			; `string'
PUBLIC	??_C@_0N@GABLJPJB@expr_context?$AA@		; `string'
PUBLIC	??_C@_05NKGIHGDI@Tuple?$AA@			; `string'
PUBLIC	??_C@_04PPBEGPNI@List?$AA@			; `string'
PUBLIC	??_C@_04FABLJDN@Name?$AA@			; `string'
PUBLIC	??_C@_07JHFCIAKE@Starred?$AA@			; `string'
PUBLIC	??_C@_09OPNCODFI@Subscript?$AA@			; `string'
PUBLIC	??_C@_09EIDFECNJ@Attribute?$AA@			; `string'
PUBLIC	??_C@_08KKBGFFMJ@Ellipsis?$AA@			; `string'
PUBLIC	??_C@_05FGDMGDLA@Bytes?$AA@			; `string'
PUBLIC	??_C@_03EJPCFLFH@Str?$AA@			; `string'
PUBLIC	??_C@_03CHBJLALM@Num?$AA@			; `string'
PUBLIC	??_C@_04CNJBKMPC@Call?$AA@			; `string'
PUBLIC	??_C@_07MBOMJGGF@Compare?$AA@			; `string'
PUBLIC	??_C@_09GLJBJEPP@YieldFrom?$AA@			; `string'
PUBLIC	??_C@_05LNDKIJIJ@Yield?$AA@			; `string'
PUBLIC	??_C@_0N@MMHMBOOD@GeneratorExp?$AA@		; `string'
PUBLIC	??_C@_08GMOHPPCM@DictComp?$AA@			; `string'
PUBLIC	??_C@_07BLGPBMGP@SetComp?$AA@			; `string'
PUBLIC	??_C@_08LAOBMBPK@ListComp?$AA@			; `string'
PUBLIC	??_C@_03CEMDFJG@Set?$AA@			; `string'
PUBLIC	??_C@_04NDECIHGJ@Dict?$AA@			; `string'
PUBLIC	??_C@_05KJAPGPAE@IfExp?$AA@			; `string'
PUBLIC	??_C@_06OBCFFGBN@Lambda?$AA@			; `string'
PUBLIC	??_C@_07FOOGNJMB@UnaryOp?$AA@			; `string'
PUBLIC	??_C@_05BHIPNDDM@BinOp?$AA@			; `string'
PUBLIC	??_C@_06HGMOOCHC@BoolOp?$AA@			; `string'
PUBLIC	??_C@_04IPHMALII@expr?$AA@			; `string'
PUBLIC	??_C@_08LJHDLOLO@Continue?$AA@			; `string'
PUBLIC	??_C@_05EMFLFCNO@Break?$AA@			; `string'
PUBLIC	??_C@_04NAPBKLHD@Pass?$AA@			; `string'
PUBLIC	??_C@_04EOLNCEIM@Expr?$AA@			; `string'
PUBLIC	??_C@_08BAHOEEIH@Nonlocal?$AA@			; `string'
PUBLIC	??_C@_06JGBJPOPP@Global?$AA@			; `string'
PUBLIC	??_C@_0L@IKBFEFKH@ImportFrom?$AA@		; `string'
PUBLIC	??_C@_06IBNLALPJ@Import?$AA@			; `string'
PUBLIC	??_C@_06KDPFLMMB@Assert?$AA@			; `string'
PUBLIC	??_C@_03DDFMMGJH@Try?$AA@			; `string'
PUBLIC	??_C@_05KDDKFIDP@Raise?$AA@			; `string'
PUBLIC	??_C@_04LBMICJD@With?$AA@			; `string'
PUBLIC	??_C@_02EMFCFMID@If?$AA@			; `string'
PUBLIC	??_C@_05OJJNEPLA@While?$AA@			; `string'
PUBLIC	??_C@_03DOEGLAGL@For?$AA@			; `string'
PUBLIC	??_C@_09CMGHGMJH@AugAssign?$AA@			; `string'
PUBLIC	??_C@_06EDODJIDJ@Assign?$AA@			; `string'
PUBLIC	??_C@_06JBKGCNBB@Delete?$AA@			; `string'
PUBLIC	??_C@_06HCFIKKEA@Return?$AA@			; `string'
PUBLIC	??_C@_08OGFMJMG@ClassDef?$AA@			; `string'
PUBLIC	??_C@_0M@POJILEOM@FunctionDef?$AA@		; `string'
PUBLIC	??_C@_04GIKOEBLH@stmt?$AA@			; `string'
PUBLIC	??_C@_05PIEJKMFN@Suite?$AA@			; `string'
PUBLIC	??_C@_0L@NMLOJPGF@Expression?$AA@		; `string'
PUBLIC	??_C@_0M@INEKDBAI@Interactive?$AA@		; `string'
PUBLIC	??_C@_06NHPJKFDC@Module?$AA@			; `string'
PUBLIC	??_C@_03FFONCNID@mod?$AA@			; `string'
_BSS	SEGMENT
withitem_type DQ 01H DUP (?)
alias_type DQ	01H DUP (?)
keyword_type DQ	01H DUP (?)
arg_type DQ	01H DUP (?)
arguments_type DQ 01H DUP (?)
ExceptHandler_type DQ 01H DUP (?)
excepthandler_type DQ 01H DUP (?)
comprehension_type DQ 01H DUP (?)
NotIn_singleton DQ 01H DUP (?)
NotIn_type DQ	01H DUP (?)
In_singleton DQ	01H DUP (?)
In_type	DQ	01H DUP (?)
IsNot_singleton DQ 01H DUP (?)
IsNot_type DQ	01H DUP (?)
Is_singleton DQ	01H DUP (?)
Is_type	DQ	01H DUP (?)
GtE_singleton DQ 01H DUP (?)
GtE_type DQ	01H DUP (?)
Gt_singleton DQ	01H DUP (?)
Gt_type	DQ	01H DUP (?)
LtE_singleton DQ 01H DUP (?)
LtE_type DQ	01H DUP (?)
Lt_singleton DQ	01H DUP (?)
Lt_type	DQ	01H DUP (?)
NotEq_singleton DQ 01H DUP (?)
NotEq_type DQ	01H DUP (?)
Eq_singleton DQ	01H DUP (?)
Eq_type	DQ	01H DUP (?)
cmpop_type DQ	01H DUP (?)
USub_singleton DQ 01H DUP (?)
USub_type DQ	01H DUP (?)
UAdd_singleton DQ 01H DUP (?)
UAdd_type DQ	01H DUP (?)
Not_singleton DQ 01H DUP (?)
Not_type DQ	01H DUP (?)
Invert_singleton DQ 01H DUP (?)
Invert_type DQ	01H DUP (?)
unaryop_type DQ	01H DUP (?)
FloorDiv_singleton DQ 01H DUP (?)
FloorDiv_type DQ 01H DUP (?)
BitAnd_singleton DQ 01H DUP (?)
BitAnd_type DQ	01H DUP (?)
BitXor_singleton DQ 01H DUP (?)
BitXor_type DQ	01H DUP (?)
BitOr_singleton DQ 01H DUP (?)
BitOr_type DQ	01H DUP (?)
RShift_singleton DQ 01H DUP (?)
RShift_type DQ	01H DUP (?)
LShift_singleton DQ 01H DUP (?)
LShift_type DQ	01H DUP (?)
Pow_singleton DQ 01H DUP (?)
Pow_type DQ	01H DUP (?)
Mod_singleton DQ 01H DUP (?)
Mod_type DQ	01H DUP (?)
Div_singleton DQ 01H DUP (?)
Div_type DQ	01H DUP (?)
Mult_singleton DQ 01H DUP (?)
Mult_type DQ	01H DUP (?)
Sub_singleton DQ 01H DUP (?)
Sub_type DQ	01H DUP (?)
Add_singleton DQ 01H DUP (?)
Add_type DQ	01H DUP (?)
operator_type DQ 01H DUP (?)
Or_singleton DQ	01H DUP (?)
Or_type	DQ	01H DUP (?)
And_singleton DQ 01H DUP (?)
And_type DQ	01H DUP (?)
boolop_type DQ	01H DUP (?)
Index_type DQ	01H DUP (?)
ExtSlice_type DQ 01H DUP (?)
Slice_type DQ	01H DUP (?)
slice_type DQ	01H DUP (?)
Param_singleton DQ 01H DUP (?)
Param_type DQ	01H DUP (?)
AugStore_singleton DQ 01H DUP (?)
AugStore_type DQ 01H DUP (?)
AugLoad_singleton DQ 01H DUP (?)
AugLoad_type DQ	01H DUP (?)
Del_singleton DQ 01H DUP (?)
Del_type DQ	01H DUP (?)
Store_singleton DQ 01H DUP (?)
Store_type DQ	01H DUP (?)
Load_singleton DQ 01H DUP (?)
Load_type DQ	01H DUP (?)
expr_context_type DQ 01H DUP (?)
Tuple_type DQ	01H DUP (?)
List_type DQ	01H DUP (?)
Name_type DQ	01H DUP (?)
Starred_type DQ	01H DUP (?)
Subscript_type DQ 01H DUP (?)
Attribute_type DQ 01H DUP (?)
Ellipsis_type DQ 01H DUP (?)
Bytes_type DQ	01H DUP (?)
Str_type DQ	01H DUP (?)
Num_type DQ	01H DUP (?)
Call_type DQ	01H DUP (?)
Compare_type DQ	01H DUP (?)
YieldFrom_type DQ 01H DUP (?)
Yield_type DQ	01H DUP (?)
GeneratorExp_type DQ 01H DUP (?)
DictComp_type DQ 01H DUP (?)
SetComp_type DQ	01H DUP (?)
ListComp_type DQ 01H DUP (?)
Set_type DQ	01H DUP (?)
Dict_type DQ	01H DUP (?)
IfExp_type DQ	01H DUP (?)
Lambda_type DQ	01H DUP (?)
UnaryOp_type DQ	01H DUP (?)
BinOp_type DQ	01H DUP (?)
BoolOp_type DQ	01H DUP (?)
expr_type DQ	01H DUP (?)
Continue_type DQ 01H DUP (?)
Break_type DQ	01H DUP (?)
Pass_type DQ	01H DUP (?)
Expr_type DQ	01H DUP (?)
Nonlocal_type DQ 01H DUP (?)
Global_type DQ	01H DUP (?)
ImportFrom_type DQ 01H DUP (?)
Import_type DQ	01H DUP (?)
Assert_type DQ	01H DUP (?)
Try_type DQ	01H DUP (?)
Raise_type DQ	01H DUP (?)
With_type DQ	01H DUP (?)
If_type	DQ	01H DUP (?)
While_type DQ	01H DUP (?)
For_type DQ	01H DUP (?)
AugAssign_type DQ 01H DUP (?)
Assign_type DQ	01H DUP (?)
Delete_type DQ	01H DUP (?)
Return_type DQ	01H DUP (?)
ClassDef_type DQ 01H DUP (?)
FunctionDef_type DQ 01H DUP (?)
stmt_type DQ	01H DUP (?)
Suite_type DQ	01H DUP (?)
Expression_type DQ 01H DUP (?)
Interactive_type DQ 01H DUP (?)
Module_type DQ	01H DUP (?)
mod_type DQ	01H DUP (?)
?initialized@?1??init_types@@9@9 DD 01H DUP (?)		; `init_types'::`2'::initialized
_BSS	ENDS
;	COMDAT pdata
pdata	SEGMENT
$pdata$init_types DD imagerel init_types
	DD	imagerel init_types+5917
	DD	imagerel $unwind$init_types
pdata	ENDS
;	COMDAT xdata
xdata	SEGMENT
$unwind$init_types DD 010401H
	DD	04204H
xdata	ENDS
;	COMDAT ??_C@_08FACALJAE@withitem?$AA@
CONST	SEGMENT
??_C@_08FACALJAE@withitem?$AA@ DB 'withitem', 00H	; `string'
CONST	ENDS
;	COMDAT ??_C@_05NKHOCLEE@alias?$AA@
CONST	SEGMENT
??_C@_05NKHOCLEE@alias?$AA@ DB 'alias', 00H		; `string'
CONST	ENDS
;	COMDAT ??_C@_07JMKMGKCH@keyword?$AA@
CONST	SEGMENT
??_C@_07JMKMGKCH@keyword?$AA@ DB 'keyword', 00H		; `string'
CONST	ENDS
;	COMDAT ??_C@_09PBNAMLIK@arguments?$AA@
CONST	SEGMENT
??_C@_09PBNAMLIK@arguments?$AA@ DB 'arguments', 00H	; `string'
CONST	ENDS
;	COMDAT ??_C@_0O@IFPAFICE@ExceptHandler?$AA@
CONST	SEGMENT
??_C@_0O@IFPAFICE@ExceptHandler?$AA@ DB 'ExceptHandler', 00H ; `string'
CONST	ENDS
;	COMDAT ??_C@_0O@LBOCECKK@excepthandler?$AA@
CONST	SEGMENT
??_C@_0O@LBOCECKK@excepthandler?$AA@ DB 'excepthandler', 00H ; `string'
CONST	ENDS
;	COMDAT ??_C@_0O@PDDLNDDO@comprehension?$AA@
CONST	SEGMENT
??_C@_0O@PDDLNDDO@comprehension?$AA@ DB 'comprehension', 00H ; `string'
CONST	ENDS
;	COMDAT ??_C@_05GFBCHB@NotIn?$AA@
CONST	SEGMENT
??_C@_05GFBCHB@NotIn?$AA@ DB 'NotIn', 00H		; `string'
CONST	ENDS
;	COMDAT ??_C@_02IEILNGIL@In?$AA@
CONST	SEGMENT
??_C@_02IEILNGIL@In?$AA@ DB 'In', 00H			; `string'
CONST	ENDS
;	COMDAT ??_C@_05KLALIAAG@IsNot?$AA@
CONST	SEGMENT
??_C@_05KLALIAAG@IsNot?$AA@ DB 'IsNot', 00H		; `string'
CONST	ENDS
;	COMDAT ??_C@_02HLOHLKJH@Is?$AA@
CONST	SEGMENT
??_C@_02HLOHLKJH@Is?$AA@ DB 'Is', 00H			; `string'
CONST	ENDS
;	COMDAT ??_C@_03GIODLKL@GtE?$AA@
CONST	SEGMENT
??_C@_03GIODLKL@GtE?$AA@ DB 'GtE', 00H			; `string'
CONST	ENDS
;	COMDAT ??_C@_02DODIABFK@Gt?$AA@
CONST	SEGMENT
??_C@_02DODIABFK@Gt?$AA@ DB 'Gt', 00H			; `string'
CONST	ENDS
;	COMDAT ??_C@_03NBIPLMKK@LtE?$AA@
CONST	SEGMENT
??_C@_03NBIPLMKK@LtE?$AA@ DB 'LtE', 00H			; `string'
CONST	ENDS
;	COMDAT ??_C@_02DCGNOOLL@Lt?$AA@
CONST	SEGMENT
??_C@_02DCGNOOLL@Lt?$AA@ DB 'Lt', 00H			; `string'
CONST	ENDS
;	COMDAT ??_C@_05MECFOFIL@NotEq?$AA@
CONST	SEGMENT
??_C@_05MECFOFIL@NotEq?$AA@ DB 'NotEq', 00H		; `string'
CONST	ENDS
;	COMDAT ??_C@_02EAMLCBHB@Eq?$AA@
CONST	SEGMENT
??_C@_02EAMLCBHB@Eq?$AA@ DB 'Eq', 00H			; `string'
CONST	ENDS
;	COMDAT ??_C@_05KGHEMFCD@cmpop?$AA@
CONST	SEGMENT
??_C@_05KGHEMFCD@cmpop?$AA@ DB 'cmpop', 00H		; `string'
CONST	ENDS
;	COMDAT ??_C@_04BFGHELIL@USub?$AA@
CONST	SEGMENT
??_C@_04BFGHELIL@USub?$AA@ DB 'USub', 00H		; `string'
CONST	ENDS
;	COMDAT ??_C@_04KEMJLKFO@UAdd?$AA@
CONST	SEGMENT
??_C@_04KEMJLKFO@UAdd?$AA@ DB 'UAdd', 00H		; `string'
CONST	ENDS
;	COMDAT ??_C@_03KNKIDPAC@Not?$AA@
CONST	SEGMENT
??_C@_03KNKIDPAC@Not?$AA@ DB 'Not', 00H			; `string'
CONST	ENDS
;	COMDAT ??_C@_06OHLCGMJD@Invert?$AA@
CONST	SEGMENT
??_C@_06OHLCGMJD@Invert?$AA@ DB 'Invert', 00H		; `string'
CONST	ENDS
;	COMDAT ??_C@_07JPNNPNHH@unaryop?$AA@
CONST	SEGMENT
??_C@_07JPNNPNHH@unaryop?$AA@ DB 'unaryop', 00H		; `string'
CONST	ENDS
;	COMDAT ??_C@_08BOGBPHLB@FloorDiv?$AA@
CONST	SEGMENT
??_C@_08BOGBPHLB@FloorDiv?$AA@ DB 'FloorDiv', 00H	; `string'
CONST	ENDS
;	COMDAT ??_C@_06PCNOCLJN@BitAnd?$AA@
CONST	SEGMENT
??_C@_06PCNOCLJN@BitAnd?$AA@ DB 'BitAnd', 00H		; `string'
CONST	ENDS
;	COMDAT ??_C@_06MCJFOMGI@BitXor?$AA@
CONST	SEGMENT
??_C@_06MCJFOMGI@BitXor?$AA@ DB 'BitXor', 00H		; `string'
CONST	ENDS
;	COMDAT ??_C@_05BKBNAGEF@BitOr?$AA@
CONST	SEGMENT
??_C@_05BKBNAGEF@BitOr?$AA@ DB 'BitOr', 00H		; `string'
CONST	ENDS
;	COMDAT ??_C@_06LEKGCNCD@RShift?$AA@
CONST	SEGMENT
??_C@_06LEKGCNCD@RShift?$AA@ DB 'RShift', 00H		; `string'
CONST	ENDS
;	COMDAT ??_C@_06IDEHMKLA@LShift?$AA@
CONST	SEGMENT
??_C@_06IDEHMKLA@LShift?$AA@ DB 'LShift', 00H		; `string'
CONST	ENDS
;	COMDAT ??_C@_03DGEDEMGN@Pow?$AA@
CONST	SEGMENT
??_C@_03DGEDEMGN@Pow?$AA@ DB 'Pow', 00H			; `string'
CONST	ENDS
;	COMDAT ??_C@_03PFNPICLN@Mod?$AA@
CONST	SEGMENT
??_C@_03PFNPICLN@Mod?$AA@ DB 'Mod', 00H			; `string'
CONST	ENDS
;	COMDAT ??_C@_03PEKOMBFG@Div?$AA@
CONST	SEGMENT
??_C@_03PEKOMBFG@Div?$AA@ DB 'Div', 00H			; `string'
CONST	ENDS
;	COMDAT ??_C@_04MPMBEKAC@Mult?$AA@
CONST	SEGMENT
??_C@_04MPMBEKAC@Mult?$AA@ DB 'Mult', 00H		; `string'
CONST	ENDS
;	COMDAT ??_C@_03CPCCDDB@Sub?$AA@
CONST	SEGMENT
??_C@_03CPCCDDB@Sub?$AA@ DB 'Sub', 00H			; `string'
CONST	ENDS
;	COMDAT ??_C@_03LDFMNCOE@Add?$AA@
CONST	SEGMENT
??_C@_03LDFMNCOE@Add?$AA@ DB 'Add', 00H			; `string'
CONST	ENDS
;	COMDAT ??_C@_08LHJFAFGD@operator?$AA@
CONST	SEGMENT
??_C@_08LHJFAFGD@operator?$AA@ DB 'operator', 00H	; `string'
CONST	ENDS
;	COMDAT ??_C@_02GGHBPHGE@Or?$AA@
CONST	SEGMENT
??_C@_02GGHBPHGE@Or?$AA@ DB 'Or', 00H			; `string'
CONST	ENDS
;	COMDAT ??_C@_03LOMLFHDC@And?$AA@
CONST	SEGMENT
??_C@_03LOMLFHDC@And?$AA@ DB 'And', 00H			; `string'
CONST	ENDS
;	COMDAT ??_C@_06IBDOJNAO@boolop?$AA@
CONST	SEGMENT
??_C@_06IBDOJNAO@boolop?$AA@ DB 'boolop', 00H		; `string'
CONST	ENDS
;	COMDAT ??_C@_05FNNGFGLF@Index?$AA@
CONST	SEGMENT
??_C@_05FNNGFGLF@Index?$AA@ DB 'Index', 00H		; `string'
CONST	ENDS
;	COMDAT ??_C@_08CIIMGBAD@ExtSlice?$AA@
CONST	SEGMENT
??_C@_08CIIMGBAD@ExtSlice?$AA@ DB 'ExtSlice', 00H	; `string'
CONST	ENDS
;	COMDAT ??_C@_05IMNAOMFL@Slice?$AA@
CONST	SEGMENT
??_C@_05IMNAOMFL@Slice?$AA@ DB 'Slice', 00H		; `string'
CONST	ENDS
;	COMDAT ??_C@_05LOJBNELM@Param?$AA@
CONST	SEGMENT
??_C@_05LOJBNELM@Param?$AA@ DB 'Param', 00H		; `string'
CONST	ENDS
;	COMDAT ??_C@_08NAEMOJFF@AugStore?$AA@
CONST	SEGMENT
??_C@_08NAEMOJFF@AugStore?$AA@ DB 'AugStore', 00H	; `string'
CONST	ENDS
;	COMDAT ??_C@_07GCIJHPCC@AugLoad?$AA@
CONST	SEGMENT
??_C@_07GCIJHPCC@AugLoad?$AA@ DB 'AugLoad', 00H		; `string'
CONST	ENDS
;	COMDAT ??_C@_03ENJJMCOJ@Del?$AA@
CONST	SEGMENT
??_C@_03ENJJMCOJ@Del?$AA@ DB 'Del', 00H			; `string'
CONST	ENDS
;	COMDAT ??_C@_05OEMPKGID@Store?$AA@
CONST	SEGMENT
??_C@_05OEMPKGID@Store?$AA@ DB 'Store', 00H		; `string'
CONST	ENDS
;	COMDAT ??_C@_04IPBPFFEL@Load?$AA@
CONST	SEGMENT
??_C@_04IPBPFFEL@Load?$AA@ DB 'Load', 00H		; `string'
CONST	ENDS
;	COMDAT ??_C@_0N@GABLJPJB@expr_context?$AA@
CONST	SEGMENT
??_C@_0N@GABLJPJB@expr_context?$AA@ DB 'expr_context', 00H ; `string'
CONST	ENDS
;	COMDAT ??_C@_05NKGIHGDI@Tuple?$AA@
CONST	SEGMENT
??_C@_05NKGIHGDI@Tuple?$AA@ DB 'Tuple', 00H		; `string'
CONST	ENDS
;	COMDAT ??_C@_04PPBEGPNI@List?$AA@
CONST	SEGMENT
??_C@_04PPBEGPNI@List?$AA@ DB 'List', 00H		; `string'
CONST	ENDS
;	COMDAT ??_C@_04FABLJDN@Name?$AA@
CONST	SEGMENT
??_C@_04FABLJDN@Name?$AA@ DB 'Name', 00H		; `string'
CONST	ENDS
;	COMDAT ??_C@_07JHFCIAKE@Starred?$AA@
CONST	SEGMENT
??_C@_07JHFCIAKE@Starred?$AA@ DB 'Starred', 00H		; `string'
CONST	ENDS
;	COMDAT ??_C@_09OPNCODFI@Subscript?$AA@
CONST	SEGMENT
??_C@_09OPNCODFI@Subscript?$AA@ DB 'Subscript', 00H	; `string'
CONST	ENDS
;	COMDAT ??_C@_09EIDFECNJ@Attribute?$AA@
CONST	SEGMENT
??_C@_09EIDFECNJ@Attribute?$AA@ DB 'Attribute', 00H	; `string'
CONST	ENDS
;	COMDAT ??_C@_08KKBGFFMJ@Ellipsis?$AA@
CONST	SEGMENT
??_C@_08KKBGFFMJ@Ellipsis?$AA@ DB 'Ellipsis', 00H	; `string'
CONST	ENDS
;	COMDAT ??_C@_05FGDMGDLA@Bytes?$AA@
CONST	SEGMENT
??_C@_05FGDMGDLA@Bytes?$AA@ DB 'Bytes', 00H		; `string'
CONST	ENDS
;	COMDAT ??_C@_03EJPCFLFH@Str?$AA@
CONST	SEGMENT
??_C@_03EJPCFLFH@Str?$AA@ DB 'Str', 00H			; `string'
CONST	ENDS
;	COMDAT ??_C@_03CHBJLALM@Num?$AA@
CONST	SEGMENT
??_C@_03CHBJLALM@Num?$AA@ DB 'Num', 00H			; `string'
CONST	ENDS
;	COMDAT ??_C@_04CNJBKMPC@Call?$AA@
CONST	SEGMENT
??_C@_04CNJBKMPC@Call?$AA@ DB 'Call', 00H		; `string'
CONST	ENDS
;	COMDAT ??_C@_07MBOMJGGF@Compare?$AA@
CONST	SEGMENT
??_C@_07MBOMJGGF@Compare?$AA@ DB 'Compare', 00H		; `string'
CONST	ENDS
;	COMDAT ??_C@_09GLJBJEPP@YieldFrom?$AA@
CONST	SEGMENT
??_C@_09GLJBJEPP@YieldFrom?$AA@ DB 'YieldFrom', 00H	; `string'
CONST	ENDS
;	COMDAT ??_C@_05LNDKIJIJ@Yield?$AA@
CONST	SEGMENT
??_C@_05LNDKIJIJ@Yield?$AA@ DB 'Yield', 00H		; `string'
CONST	ENDS
;	COMDAT ??_C@_0N@MMHMBOOD@GeneratorExp?$AA@
CONST	SEGMENT
??_C@_0N@MMHMBOOD@GeneratorExp?$AA@ DB 'GeneratorExp', 00H ; `string'
CONST	ENDS
;	COMDAT ??_C@_08GMOHPPCM@DictComp?$AA@
CONST	SEGMENT
??_C@_08GMOHPPCM@DictComp?$AA@ DB 'DictComp', 00H	; `string'
CONST	ENDS
;	COMDAT ??_C@_07BLGPBMGP@SetComp?$AA@
CONST	SEGMENT
??_C@_07BLGPBMGP@SetComp?$AA@ DB 'SetComp', 00H		; `string'
CONST	ENDS
;	COMDAT ??_C@_08LAOBMBPK@ListComp?$AA@
CONST	SEGMENT
??_C@_08LAOBMBPK@ListComp?$AA@ DB 'ListComp', 00H	; `string'
CONST	ENDS
;	COMDAT ??_C@_03CEMDFJG@Set?$AA@
CONST	SEGMENT
??_C@_03CEMDFJG@Set?$AA@ DB 'Set', 00H			; `string'
CONST	ENDS
;	COMDAT ??_C@_04NDECIHGJ@Dict?$AA@
CONST	SEGMENT
??_C@_04NDECIHGJ@Dict?$AA@ DB 'Dict', 00H		; `string'
CONST	ENDS
;	COMDAT ??_C@_05KJAPGPAE@IfExp?$AA@
CONST	SEGMENT
??_C@_05KJAPGPAE@IfExp?$AA@ DB 'IfExp', 00H		; `string'
CONST	ENDS
;	COMDAT ??_C@_06OBCFFGBN@Lambda?$AA@
CONST	SEGMENT
??_C@_06OBCFFGBN@Lambda?$AA@ DB 'Lambda', 00H		; `string'
CONST	ENDS
;	COMDAT ??_C@_07FOOGNJMB@UnaryOp?$AA@
CONST	SEGMENT
??_C@_07FOOGNJMB@UnaryOp?$AA@ DB 'UnaryOp', 00H		; `string'
CONST	ENDS
;	COMDAT ??_C@_05BHIPNDDM@BinOp?$AA@
CONST	SEGMENT
??_C@_05BHIPNDDM@BinOp?$AA@ DB 'BinOp', 00H		; `string'
CONST	ENDS
;	COMDAT ??_C@_06HGMOOCHC@BoolOp?$AA@
CONST	SEGMENT
??_C@_06HGMOOCHC@BoolOp?$AA@ DB 'BoolOp', 00H		; `string'
CONST	ENDS
;	COMDAT ??_C@_04IPHMALII@expr?$AA@
CONST	SEGMENT
??_C@_04IPHMALII@expr?$AA@ DB 'expr', 00H		; `string'
CONST	ENDS
;	COMDAT ??_C@_08LJHDLOLO@Continue?$AA@
CONST	SEGMENT
??_C@_08LJHDLOLO@Continue?$AA@ DB 'Continue', 00H	; `string'
CONST	ENDS
;	COMDAT ??_C@_05EMFLFCNO@Break?$AA@
CONST	SEGMENT
??_C@_05EMFLFCNO@Break?$AA@ DB 'Break', 00H		; `string'
CONST	ENDS
;	COMDAT ??_C@_04NAPBKLHD@Pass?$AA@
CONST	SEGMENT
??_C@_04NAPBKLHD@Pass?$AA@ DB 'Pass', 00H		; `string'
CONST	ENDS
;	COMDAT ??_C@_04EOLNCEIM@Expr?$AA@
CONST	SEGMENT
??_C@_04EOLNCEIM@Expr?$AA@ DB 'Expr', 00H		; `string'
CONST	ENDS
;	COMDAT ??_C@_08BAHOEEIH@Nonlocal?$AA@
CONST	SEGMENT
??_C@_08BAHOEEIH@Nonlocal?$AA@ DB 'Nonlocal', 00H	; `string'
CONST	ENDS
;	COMDAT ??_C@_06JGBJPOPP@Global?$AA@
CONST	SEGMENT
??_C@_06JGBJPOPP@Global?$AA@ DB 'Global', 00H		; `string'
CONST	ENDS
;	COMDAT ??_C@_0L@IKBFEFKH@ImportFrom?$AA@
CONST	SEGMENT
??_C@_0L@IKBFEFKH@ImportFrom?$AA@ DB 'ImportFrom', 00H	; `string'
CONST	ENDS
;	COMDAT ??_C@_06IBNLALPJ@Import?$AA@
CONST	SEGMENT
??_C@_06IBNLALPJ@Import?$AA@ DB 'Import', 00H		; `string'
CONST	ENDS
;	COMDAT ??_C@_06KDPFLMMB@Assert?$AA@
CONST	SEGMENT
??_C@_06KDPFLMMB@Assert?$AA@ DB 'Assert', 00H		; `string'
CONST	ENDS
;	COMDAT ??_C@_03DDFMMGJH@Try?$AA@
CONST	SEGMENT
??_C@_03DDFMMGJH@Try?$AA@ DB 'Try', 00H			; `string'
CONST	ENDS
;	COMDAT ??_C@_05KDDKFIDP@Raise?$AA@
CONST	SEGMENT
??_C@_05KDDKFIDP@Raise?$AA@ DB 'Raise', 00H		; `string'
CONST	ENDS
;	COMDAT ??_C@_04LBMICJD@With?$AA@
CONST	SEGMENT
??_C@_04LBMICJD@With?$AA@ DB 'With', 00H		; `string'
CONST	ENDS
;	COMDAT ??_C@_02EMFCFMID@If?$AA@
CONST	SEGMENT
??_C@_02EMFCFMID@If?$AA@ DB 'If', 00H			; `string'
CONST	ENDS
;	COMDAT ??_C@_05OJJNEPLA@While?$AA@
CONST	SEGMENT
??_C@_05OJJNEPLA@While?$AA@ DB 'While', 00H		; `string'
CONST	ENDS
;	COMDAT ??_C@_03DOEGLAGL@For?$AA@
CONST	SEGMENT
??_C@_03DOEGLAGL@For?$AA@ DB 'For', 00H			; `string'
CONST	ENDS
;	COMDAT ??_C@_09CMGHGMJH@AugAssign?$AA@
CONST	SEGMENT
??_C@_09CMGHGMJH@AugAssign?$AA@ DB 'AugAssign', 00H	; `string'
CONST	ENDS
;	COMDAT ??_C@_06EDODJIDJ@Assign?$AA@
CONST	SEGMENT
??_C@_06EDODJIDJ@Assign?$AA@ DB 'Assign', 00H		; `string'
CONST	ENDS
;	COMDAT ??_C@_06JBKGCNBB@Delete?$AA@
CONST	SEGMENT
??_C@_06JBKGCNBB@Delete?$AA@ DB 'Delete', 00H		; `string'
CONST	ENDS
;	COMDAT ??_C@_06HCFIKKEA@Return?$AA@
CONST	SEGMENT
??_C@_06HCFIKKEA@Return?$AA@ DB 'Return', 00H		; `string'
CONST	ENDS
;	COMDAT ??_C@_08OGFMJMG@ClassDef?$AA@
CONST	SEGMENT
??_C@_08OGFMJMG@ClassDef?$AA@ DB 'ClassDef', 00H	; `string'
CONST	ENDS
;	COMDAT ??_C@_0M@POJILEOM@FunctionDef?$AA@
CONST	SEGMENT
??_C@_0M@POJILEOM@FunctionDef?$AA@ DB 'FunctionDef', 00H ; `string'
CONST	ENDS
;	COMDAT ??_C@_04GIKOEBLH@stmt?$AA@
CONST	SEGMENT
??_C@_04GIKOEBLH@stmt?$AA@ DB 'stmt', 00H		; `string'
CONST	ENDS
;	COMDAT ??_C@_05PIEJKMFN@Suite?$AA@
CONST	SEGMENT
??_C@_05PIEJKMFN@Suite?$AA@ DB 'Suite', 00H		; `string'
CONST	ENDS
;	COMDAT ??_C@_0L@NMLOJPGF@Expression?$AA@
CONST	SEGMENT
??_C@_0L@NMLOJPGF@Expression?$AA@ DB 'Expression', 00H	; `string'
CONST	ENDS
;	COMDAT ??_C@_0M@INEKDBAI@Interactive?$AA@
CONST	SEGMENT
??_C@_0M@INEKDBAI@Interactive?$AA@ DB 'Interactive', 00H ; `string'
CONST	ENDS
;	COMDAT ??_C@_06NHPJKFDC@Module?$AA@
CONST	SEGMENT
??_C@_06NHPJKFDC@Module?$AA@ DB 'Module', 00H		; `string'
CONST	ENDS
;	COMDAT ??_C@_03FFONCNID@mod?$AA@
CONST	SEGMENT
??_C@_03FFONCNID@mod?$AA@ DB 'mod', 00H			; `string'
; Function compile flags: /Ogtpy
CONST	ENDS
;	COMDAT init_types
_TEXT	SEGMENT
init_types PROC						; COMDAT

; 763  : {

  00000	48 83 ec 28	 sub	 rsp, 40			; 00000028H

; 764  :     static int initialized;
; 765  :     if (initialized) return 1;

  00004	83 3d 00 00 00
	00 00		 cmp	 DWORD PTR ?initialized@?1??init_types@@9@9, 0
  0000b	0f 85 02 17 00
	00		 jne	 $LN153@init_types

; 766  :     if (add_ast_fields() < 0) return 0;

  00011	e8 00 00 00 00	 call	 add_ast_fields
  00016	85 c0		 test	 eax, eax
  00018	79 07		 jns	 SHORT $LN149@init_types
$LN154@init_types:
  0001a	33 c0		 xor	 eax, eax

; 1061 : }

  0001c	48 83 c4 28	 add	 rsp, 40			; 00000028H
  00020	c3		 ret	 0
$LN149@init_types:

; 767  :     mod_type = make_type("mod", &AST_type, NULL, 0);

  00021	48 8d 15 00 00
	00 00		 lea	 rdx, OFFSET FLAT:AST_type
  00028	48 8d 0d 00 00
	00 00		 lea	 rcx, OFFSET FLAT:??_C@_03FFONCNID@mod?$AA@
  0002f	45 33 c9	 xor	 r9d, r9d
  00032	45 33 c0	 xor	 r8d, r8d
  00035	e8 00 00 00 00	 call	 make_type
  0003a	48 89 05 00 00
	00 00		 mov	 QWORD PTR mod_type, rax

; 768  :     if (!mod_type) return 0;

  00041	48 85 c0	 test	 rax, rax
  00044	74 d4		 je	 SHORT $LN154@init_types

; 769  :     if (!add_attributes(mod_type, NULL, 0)) return 0;

  00046	45 33 c0	 xor	 r8d, r8d
  00049	33 d2		 xor	 edx, edx
  0004b	48 8b c8	 mov	 rcx, rax
  0004e	e8 00 00 00 00	 call	 add_attributes
  00053	85 c0		 test	 eax, eax
  00055	74 c3		 je	 SHORT $LN154@init_types

; 770  :     Module_type = make_type("Module", mod_type, Module_fields, 1);

  00057	48 8b 15 00 00
	00 00		 mov	 rdx, QWORD PTR mod_type
  0005e	4c 8d 05 00 00
	00 00		 lea	 r8, OFFSET FLAT:Module_fields
  00065	48 8d 0d 00 00
	00 00		 lea	 rcx, OFFSET FLAT:??_C@_06NHPJKFDC@Module?$AA@
  0006c	41 b9 01 00 00
	00		 mov	 r9d, 1
  00072	e8 00 00 00 00	 call	 make_type
  00077	48 89 05 00 00
	00 00		 mov	 QWORD PTR Module_type, rax

; 771  :     if (!Module_type) return 0;

  0007e	48 85 c0	 test	 rax, rax
  00081	74 97		 je	 SHORT $LN154@init_types

; 772  :     Interactive_type = make_type("Interactive", mod_type, Interactive_fields,
; 773  :                                  1);

  00083	48 8b 15 00 00
	00 00		 mov	 rdx, QWORD PTR mod_type
  0008a	4c 8d 05 00 00
	00 00		 lea	 r8, OFFSET FLAT:Interactive_fields
  00091	48 8d 0d 00 00
	00 00		 lea	 rcx, OFFSET FLAT:??_C@_0M@INEKDBAI@Interactive?$AA@
  00098	41 b9 01 00 00
	00		 mov	 r9d, 1
  0009e	e8 00 00 00 00	 call	 make_type
  000a3	48 89 05 00 00
	00 00		 mov	 QWORD PTR Interactive_type, rax

; 774  :     if (!Interactive_type) return 0;

  000aa	48 85 c0	 test	 rax, rax
  000ad	0f 84 67 ff ff
	ff		 je	 $LN154@init_types

; 775  :     Expression_type = make_type("Expression", mod_type, Expression_fields, 1);

  000b3	48 8b 15 00 00
	00 00		 mov	 rdx, QWORD PTR mod_type
  000ba	4c 8d 05 00 00
	00 00		 lea	 r8, OFFSET FLAT:Expression_fields
  000c1	48 8d 0d 00 00
	00 00		 lea	 rcx, OFFSET FLAT:??_C@_0L@NMLOJPGF@Expression?$AA@
  000c8	41 b9 01 00 00
	00		 mov	 r9d, 1
  000ce	e8 00 00 00 00	 call	 make_type
  000d3	48 89 05 00 00
	00 00		 mov	 QWORD PTR Expression_type, rax

; 776  :     if (!Expression_type) return 0;

  000da	48 85 c0	 test	 rax, rax
  000dd	0f 84 37 ff ff
	ff		 je	 $LN154@init_types

; 777  :     Suite_type = make_type("Suite", mod_type, Suite_fields, 1);

  000e3	48 8b 15 00 00
	00 00		 mov	 rdx, QWORD PTR mod_type
  000ea	4c 8d 05 00 00
	00 00		 lea	 r8, OFFSET FLAT:Suite_fields
  000f1	48 8d 0d 00 00
	00 00		 lea	 rcx, OFFSET FLAT:??_C@_05PIEJKMFN@Suite?$AA@
  000f8	41 b9 01 00 00
	00		 mov	 r9d, 1
  000fe	e8 00 00 00 00	 call	 make_type
  00103	48 89 05 00 00
	00 00		 mov	 QWORD PTR Suite_type, rax

; 778  :     if (!Suite_type) return 0;

  0010a	48 85 c0	 test	 rax, rax
  0010d	0f 84 07 ff ff
	ff		 je	 $LN154@init_types

; 779  :     stmt_type = make_type("stmt", &AST_type, NULL, 0);

  00113	48 8d 15 00 00
	00 00		 lea	 rdx, OFFSET FLAT:AST_type
  0011a	48 8d 0d 00 00
	00 00		 lea	 rcx, OFFSET FLAT:??_C@_04GIKOEBLH@stmt?$AA@
  00121	45 33 c9	 xor	 r9d, r9d
  00124	45 33 c0	 xor	 r8d, r8d
  00127	e8 00 00 00 00	 call	 make_type
  0012c	48 89 05 00 00
	00 00		 mov	 QWORD PTR stmt_type, rax

; 780  :     if (!stmt_type) return 0;

  00133	48 85 c0	 test	 rax, rax
  00136	0f 84 de fe ff
	ff		 je	 $LN154@init_types

; 781  :     if (!add_attributes(stmt_type, stmt_attributes, 2)) return 0;

  0013c	48 8d 15 00 00
	00 00		 lea	 rdx, OFFSET FLAT:stmt_attributes
  00143	41 b8 02 00 00
	00		 mov	 r8d, 2
  00149	48 8b c8	 mov	 rcx, rax
  0014c	e8 00 00 00 00	 call	 add_attributes
  00151	85 c0		 test	 eax, eax
  00153	0f 84 c1 fe ff
	ff		 je	 $LN154@init_types

; 782  :     FunctionDef_type = make_type("FunctionDef", stmt_type, FunctionDef_fields,
; 783  :                                  5);

  00159	48 8b 15 00 00
	00 00		 mov	 rdx, QWORD PTR stmt_type
  00160	4c 8d 05 00 00
	00 00		 lea	 r8, OFFSET FLAT:FunctionDef_fields
  00167	48 8d 0d 00 00
	00 00		 lea	 rcx, OFFSET FLAT:??_C@_0M@POJILEOM@FunctionDef?$AA@
  0016e	41 b9 05 00 00
	00		 mov	 r9d, 5
  00174	e8 00 00 00 00	 call	 make_type
  00179	48 89 05 00 00
	00 00		 mov	 QWORD PTR FunctionDef_type, rax

; 784  :     if (!FunctionDef_type) return 0;

  00180	48 85 c0	 test	 rax, rax
  00183	0f 84 91 fe ff
	ff		 je	 $LN154@init_types

; 785  :     ClassDef_type = make_type("ClassDef", stmt_type, ClassDef_fields, 7);

  00189	48 8b 15 00 00
	00 00		 mov	 rdx, QWORD PTR stmt_type
  00190	4c 8d 05 00 00
	00 00		 lea	 r8, OFFSET FLAT:ClassDef_fields
  00197	48 8d 0d 00 00
	00 00		 lea	 rcx, OFFSET FLAT:??_C@_08OGFMJMG@ClassDef?$AA@
  0019e	41 b9 07 00 00
	00		 mov	 r9d, 7
  001a4	e8 00 00 00 00	 call	 make_type
  001a9	48 89 05 00 00
	00 00		 mov	 QWORD PTR ClassDef_type, rax

; 786  :     if (!ClassDef_type) return 0;

  001b0	48 85 c0	 test	 rax, rax
  001b3	0f 84 61 fe ff
	ff		 je	 $LN154@init_types

; 787  :     Return_type = make_type("Return", stmt_type, Return_fields, 1);

  001b9	48 8b 15 00 00
	00 00		 mov	 rdx, QWORD PTR stmt_type
  001c0	4c 8d 05 00 00
	00 00		 lea	 r8, OFFSET FLAT:Return_fields
  001c7	48 8d 0d 00 00
	00 00		 lea	 rcx, OFFSET FLAT:??_C@_06HCFIKKEA@Return?$AA@
  001ce	41 b9 01 00 00
	00		 mov	 r9d, 1
  001d4	e8 00 00 00 00	 call	 make_type
  001d9	48 89 05 00 00
	00 00		 mov	 QWORD PTR Return_type, rax

; 788  :     if (!Return_type) return 0;

  001e0	48 85 c0	 test	 rax, rax
  001e3	0f 84 31 fe ff
	ff		 je	 $LN154@init_types

; 789  :     Delete_type = make_type("Delete", stmt_type, Delete_fields, 1);

  001e9	48 8b 15 00 00
	00 00		 mov	 rdx, QWORD PTR stmt_type
  001f0	4c 8d 05 00 00
	00 00		 lea	 r8, OFFSET FLAT:Delete_fields
  001f7	48 8d 0d 00 00
	00 00		 lea	 rcx, OFFSET FLAT:??_C@_06JBKGCNBB@Delete?$AA@
  001fe	41 b9 01 00 00
	00		 mov	 r9d, 1
  00204	e8 00 00 00 00	 call	 make_type
  00209	48 89 05 00 00
	00 00		 mov	 QWORD PTR Delete_type, rax

; 790  :     if (!Delete_type) return 0;

  00210	48 85 c0	 test	 rax, rax
  00213	0f 84 01 fe ff
	ff		 je	 $LN154@init_types

; 791  :     Assign_type = make_type("Assign", stmt_type, Assign_fields, 2);

  00219	48 8b 15 00 00
	00 00		 mov	 rdx, QWORD PTR stmt_type
  00220	4c 8d 05 00 00
	00 00		 lea	 r8, OFFSET FLAT:Assign_fields
  00227	48 8d 0d 00 00
	00 00		 lea	 rcx, OFFSET FLAT:??_C@_06EDODJIDJ@Assign?$AA@
  0022e	41 b9 02 00 00
	00		 mov	 r9d, 2
  00234	e8 00 00 00 00	 call	 make_type
  00239	48 89 05 00 00
	00 00		 mov	 QWORD PTR Assign_type, rax

; 792  :     if (!Assign_type) return 0;

  00240	48 85 c0	 test	 rax, rax
  00243	0f 84 d1 fd ff
	ff		 je	 $LN154@init_types

; 793  :     AugAssign_type = make_type("AugAssign", stmt_type, AugAssign_fields, 3);

  00249	48 8b 15 00 00
	00 00		 mov	 rdx, QWORD PTR stmt_type
  00250	4c 8d 05 00 00
	00 00		 lea	 r8, OFFSET FLAT:AugAssign_fields
  00257	48 8d 0d 00 00
	00 00		 lea	 rcx, OFFSET FLAT:??_C@_09CMGHGMJH@AugAssign?$AA@
  0025e	41 b9 03 00 00
	00		 mov	 r9d, 3
  00264	e8 00 00 00 00	 call	 make_type
  00269	48 89 05 00 00
	00 00		 mov	 QWORD PTR AugAssign_type, rax

; 794  :     if (!AugAssign_type) return 0;

  00270	48 85 c0	 test	 rax, rax
  00273	0f 84 a1 fd ff
	ff		 je	 $LN154@init_types

; 795  :     For_type = make_type("For", stmt_type, For_fields, 4);

  00279	48 8b 15 00 00
	00 00		 mov	 rdx, QWORD PTR stmt_type
  00280	4c 8d 05 00 00
	00 00		 lea	 r8, OFFSET FLAT:For_fields
  00287	48 8d 0d 00 00
	00 00		 lea	 rcx, OFFSET FLAT:??_C@_03DOEGLAGL@For?$AA@
  0028e	41 b9 04 00 00
	00		 mov	 r9d, 4
  00294	e8 00 00 00 00	 call	 make_type
  00299	48 89 05 00 00
	00 00		 mov	 QWORD PTR For_type, rax

; 796  :     if (!For_type) return 0;

  002a0	48 85 c0	 test	 rax, rax
  002a3	0f 84 71 fd ff
	ff		 je	 $LN154@init_types

; 797  :     While_type = make_type("While", stmt_type, While_fields, 3);

  002a9	48 8b 15 00 00
	00 00		 mov	 rdx, QWORD PTR stmt_type
  002b0	4c 8d 05 00 00
	00 00		 lea	 r8, OFFSET FLAT:While_fields
  002b7	48 8d 0d 00 00
	00 00		 lea	 rcx, OFFSET FLAT:??_C@_05OJJNEPLA@While?$AA@
  002be	41 b9 03 00 00
	00		 mov	 r9d, 3
  002c4	e8 00 00 00 00	 call	 make_type
  002c9	48 89 05 00 00
	00 00		 mov	 QWORD PTR While_type, rax

; 798  :     if (!While_type) return 0;

  002d0	48 85 c0	 test	 rax, rax
  002d3	0f 84 41 fd ff
	ff		 je	 $LN154@init_types

; 799  :     If_type = make_type("If", stmt_type, If_fields, 3);

  002d9	48 8b 15 00 00
	00 00		 mov	 rdx, QWORD PTR stmt_type
  002e0	4c 8d 05 00 00
	00 00		 lea	 r8, OFFSET FLAT:If_fields
  002e7	48 8d 0d 00 00
	00 00		 lea	 rcx, OFFSET FLAT:??_C@_02EMFCFMID@If?$AA@
  002ee	41 b9 03 00 00
	00		 mov	 r9d, 3
  002f4	e8 00 00 00 00	 call	 make_type
  002f9	48 89 05 00 00
	00 00		 mov	 QWORD PTR If_type, rax

; 800  :     if (!If_type) return 0;

  00300	48 85 c0	 test	 rax, rax
  00303	0f 84 11 fd ff
	ff		 je	 $LN154@init_types

; 801  :     With_type = make_type("With", stmt_type, With_fields, 2);

  00309	48 8b 15 00 00
	00 00		 mov	 rdx, QWORD PTR stmt_type
  00310	4c 8d 05 00 00
	00 00		 lea	 r8, OFFSET FLAT:With_fields
  00317	48 8d 0d 00 00
	00 00		 lea	 rcx, OFFSET FLAT:??_C@_04LBMICJD@With?$AA@
  0031e	41 b9 02 00 00
	00		 mov	 r9d, 2
  00324	e8 00 00 00 00	 call	 make_type
  00329	48 89 05 00 00
	00 00		 mov	 QWORD PTR With_type, rax

; 802  :     if (!With_type) return 0;

  00330	48 85 c0	 test	 rax, rax
  00333	0f 84 e1 fc ff
	ff		 je	 $LN154@init_types

; 803  :     Raise_type = make_type("Raise", stmt_type, Raise_fields, 2);

  00339	48 8b 15 00 00
	00 00		 mov	 rdx, QWORD PTR stmt_type
  00340	4c 8d 05 00 00
	00 00		 lea	 r8, OFFSET FLAT:Raise_fields
  00347	48 8d 0d 00 00
	00 00		 lea	 rcx, OFFSET FLAT:??_C@_05KDDKFIDP@Raise?$AA@
  0034e	41 b9 02 00 00
	00		 mov	 r9d, 2
  00354	e8 00 00 00 00	 call	 make_type
  00359	48 89 05 00 00
	00 00		 mov	 QWORD PTR Raise_type, rax

; 804  :     if (!Raise_type) return 0;

  00360	48 85 c0	 test	 rax, rax
  00363	0f 84 b1 fc ff
	ff		 je	 $LN154@init_types

; 805  :     Try_type = make_type("Try", stmt_type, Try_fields, 4);

  00369	48 8b 15 00 00
	00 00		 mov	 rdx, QWORD PTR stmt_type
  00370	4c 8d 05 00 00
	00 00		 lea	 r8, OFFSET FLAT:Try_fields
  00377	48 8d 0d 00 00
	00 00		 lea	 rcx, OFFSET FLAT:??_C@_03DDFMMGJH@Try?$AA@
  0037e	41 b9 04 00 00
	00		 mov	 r9d, 4
  00384	e8 00 00 00 00	 call	 make_type
  00389	48 89 05 00 00
	00 00		 mov	 QWORD PTR Try_type, rax

; 806  :     if (!Try_type) return 0;

  00390	48 85 c0	 test	 rax, rax
  00393	0f 84 81 fc ff
	ff		 je	 $LN154@init_types

; 807  :     Assert_type = make_type("Assert", stmt_type, Assert_fields, 2);

  00399	48 8b 15 00 00
	00 00		 mov	 rdx, QWORD PTR stmt_type
  003a0	4c 8d 05 00 00
	00 00		 lea	 r8, OFFSET FLAT:Assert_fields
  003a7	48 8d 0d 00 00
	00 00		 lea	 rcx, OFFSET FLAT:??_C@_06KDPFLMMB@Assert?$AA@
  003ae	41 b9 02 00 00
	00		 mov	 r9d, 2
  003b4	e8 00 00 00 00	 call	 make_type
  003b9	48 89 05 00 00
	00 00		 mov	 QWORD PTR Assert_type, rax

; 808  :     if (!Assert_type) return 0;

  003c0	48 85 c0	 test	 rax, rax
  003c3	0f 84 51 fc ff
	ff		 je	 $LN154@init_types

; 809  :     Import_type = make_type("Import", stmt_type, Import_fields, 1);

  003c9	48 8b 15 00 00
	00 00		 mov	 rdx, QWORD PTR stmt_type
  003d0	4c 8d 05 00 00
	00 00		 lea	 r8, OFFSET FLAT:Import_fields
  003d7	48 8d 0d 00 00
	00 00		 lea	 rcx, OFFSET FLAT:??_C@_06IBNLALPJ@Import?$AA@
  003de	41 b9 01 00 00
	00		 mov	 r9d, 1
  003e4	e8 00 00 00 00	 call	 make_type
  003e9	48 89 05 00 00
	00 00		 mov	 QWORD PTR Import_type, rax

; 810  :     if (!Import_type) return 0;

  003f0	48 85 c0	 test	 rax, rax
  003f3	0f 84 21 fc ff
	ff		 je	 $LN154@init_types

; 811  :     ImportFrom_type = make_type("ImportFrom", stmt_type, ImportFrom_fields, 3);

  003f9	48 8b 15 00 00
	00 00		 mov	 rdx, QWORD PTR stmt_type
  00400	4c 8d 05 00 00
	00 00		 lea	 r8, OFFSET FLAT:ImportFrom_fields
  00407	48 8d 0d 00 00
	00 00		 lea	 rcx, OFFSET FLAT:??_C@_0L@IKBFEFKH@ImportFrom?$AA@
  0040e	41 b9 03 00 00
	00		 mov	 r9d, 3
  00414	e8 00 00 00 00	 call	 make_type
  00419	48 89 05 00 00
	00 00		 mov	 QWORD PTR ImportFrom_type, rax

; 812  :     if (!ImportFrom_type) return 0;

  00420	48 85 c0	 test	 rax, rax
  00423	0f 84 f1 fb ff
	ff		 je	 $LN154@init_types

; 813  :     Global_type = make_type("Global", stmt_type, Global_fields, 1);

  00429	48 8b 15 00 00
	00 00		 mov	 rdx, QWORD PTR stmt_type
  00430	4c 8d 05 00 00
	00 00		 lea	 r8, OFFSET FLAT:Global_fields
  00437	48 8d 0d 00 00
	00 00		 lea	 rcx, OFFSET FLAT:??_C@_06JGBJPOPP@Global?$AA@
  0043e	41 b9 01 00 00
	00		 mov	 r9d, 1
  00444	e8 00 00 00 00	 call	 make_type
  00449	48 89 05 00 00
	00 00		 mov	 QWORD PTR Global_type, rax

; 814  :     if (!Global_type) return 0;

  00450	48 85 c0	 test	 rax, rax
  00453	0f 84 c1 fb ff
	ff		 je	 $LN154@init_types

; 815  :     Nonlocal_type = make_type("Nonlocal", stmt_type, Nonlocal_fields, 1);

  00459	48 8b 15 00 00
	00 00		 mov	 rdx, QWORD PTR stmt_type
  00460	4c 8d 05 00 00
	00 00		 lea	 r8, OFFSET FLAT:Nonlocal_fields
  00467	48 8d 0d 00 00
	00 00		 lea	 rcx, OFFSET FLAT:??_C@_08BAHOEEIH@Nonlocal?$AA@
  0046e	41 b9 01 00 00
	00		 mov	 r9d, 1
  00474	e8 00 00 00 00	 call	 make_type
  00479	48 89 05 00 00
	00 00		 mov	 QWORD PTR Nonlocal_type, rax

; 816  :     if (!Nonlocal_type) return 0;

  00480	48 85 c0	 test	 rax, rax
  00483	0f 84 91 fb ff
	ff		 je	 $LN154@init_types

; 817  :     Expr_type = make_type("Expr", stmt_type, Expr_fields, 1);

  00489	48 8b 15 00 00
	00 00		 mov	 rdx, QWORD PTR stmt_type
  00490	4c 8d 05 00 00
	00 00		 lea	 r8, OFFSET FLAT:Expr_fields
  00497	48 8d 0d 00 00
	00 00		 lea	 rcx, OFFSET FLAT:??_C@_04EOLNCEIM@Expr?$AA@
  0049e	41 b9 01 00 00
	00		 mov	 r9d, 1
  004a4	e8 00 00 00 00	 call	 make_type
  004a9	48 89 05 00 00
	00 00		 mov	 QWORD PTR Expr_type, rax

; 818  :     if (!Expr_type) return 0;

  004b0	48 85 c0	 test	 rax, rax
  004b3	0f 84 61 fb ff
	ff		 je	 $LN154@init_types

; 819  :     Pass_type = make_type("Pass", stmt_type, NULL, 0);

  004b9	48 8b 15 00 00
	00 00		 mov	 rdx, QWORD PTR stmt_type
  004c0	48 8d 0d 00 00
	00 00		 lea	 rcx, OFFSET FLAT:??_C@_04NAPBKLHD@Pass?$AA@
  004c7	45 33 c9	 xor	 r9d, r9d
  004ca	45 33 c0	 xor	 r8d, r8d
  004cd	e8 00 00 00 00	 call	 make_type
  004d2	48 89 05 00 00
	00 00		 mov	 QWORD PTR Pass_type, rax

; 820  :     if (!Pass_type) return 0;

  004d9	48 85 c0	 test	 rax, rax
  004dc	0f 84 38 fb ff
	ff		 je	 $LN154@init_types

; 821  :     Break_type = make_type("Break", stmt_type, NULL, 0);

  004e2	48 8b 15 00 00
	00 00		 mov	 rdx, QWORD PTR stmt_type
  004e9	48 8d 0d 00 00
	00 00		 lea	 rcx, OFFSET FLAT:??_C@_05EMFLFCNO@Break?$AA@
  004f0	45 33 c9	 xor	 r9d, r9d
  004f3	45 33 c0	 xor	 r8d, r8d
  004f6	e8 00 00 00 00	 call	 make_type
  004fb	48 89 05 00 00
	00 00		 mov	 QWORD PTR Break_type, rax

; 822  :     if (!Break_type) return 0;

  00502	48 85 c0	 test	 rax, rax
  00505	0f 84 0f fb ff
	ff		 je	 $LN154@init_types

; 823  :     Continue_type = make_type("Continue", stmt_type, NULL, 0);

  0050b	48 8b 15 00 00
	00 00		 mov	 rdx, QWORD PTR stmt_type
  00512	48 8d 0d 00 00
	00 00		 lea	 rcx, OFFSET FLAT:??_C@_08LJHDLOLO@Continue?$AA@
  00519	45 33 c9	 xor	 r9d, r9d
  0051c	45 33 c0	 xor	 r8d, r8d
  0051f	e8 00 00 00 00	 call	 make_type
  00524	48 89 05 00 00
	00 00		 mov	 QWORD PTR Continue_type, rax

; 824  :     if (!Continue_type) return 0;

  0052b	48 85 c0	 test	 rax, rax
  0052e	0f 84 e6 fa ff
	ff		 je	 $LN154@init_types

; 825  :     expr_type = make_type("expr", &AST_type, NULL, 0);

  00534	48 8d 15 00 00
	00 00		 lea	 rdx, OFFSET FLAT:AST_type
  0053b	48 8d 0d 00 00
	00 00		 lea	 rcx, OFFSET FLAT:??_C@_04IPHMALII@expr?$AA@
  00542	45 33 c9	 xor	 r9d, r9d
  00545	45 33 c0	 xor	 r8d, r8d
  00548	e8 00 00 00 00	 call	 make_type
  0054d	48 89 05 00 00
	00 00		 mov	 QWORD PTR expr_type, rax

; 826  :     if (!expr_type) return 0;

  00554	48 85 c0	 test	 rax, rax
  00557	0f 84 bd fa ff
	ff		 je	 $LN154@init_types

; 827  :     if (!add_attributes(expr_type, expr_attributes, 2)) return 0;

  0055d	48 8d 15 00 00
	00 00		 lea	 rdx, OFFSET FLAT:expr_attributes
  00564	41 b8 02 00 00
	00		 mov	 r8d, 2
  0056a	48 8b c8	 mov	 rcx, rax
  0056d	e8 00 00 00 00	 call	 add_attributes
  00572	85 c0		 test	 eax, eax
  00574	0f 84 a0 fa ff
	ff		 je	 $LN154@init_types

; 828  :     BoolOp_type = make_type("BoolOp", expr_type, BoolOp_fields, 2);

  0057a	48 8b 15 00 00
	00 00		 mov	 rdx, QWORD PTR expr_type
  00581	4c 8d 05 00 00
	00 00		 lea	 r8, OFFSET FLAT:BoolOp_fields
  00588	48 8d 0d 00 00
	00 00		 lea	 rcx, OFFSET FLAT:??_C@_06HGMOOCHC@BoolOp?$AA@
  0058f	41 b9 02 00 00
	00		 mov	 r9d, 2
  00595	e8 00 00 00 00	 call	 make_type
  0059a	48 89 05 00 00
	00 00		 mov	 QWORD PTR BoolOp_type, rax

; 829  :     if (!BoolOp_type) return 0;

  005a1	48 85 c0	 test	 rax, rax
  005a4	0f 84 70 fa ff
	ff		 je	 $LN154@init_types

; 830  :     BinOp_type = make_type("BinOp", expr_type, BinOp_fields, 3);

  005aa	48 8b 15 00 00
	00 00		 mov	 rdx, QWORD PTR expr_type
  005b1	4c 8d 05 00 00
	00 00		 lea	 r8, OFFSET FLAT:BinOp_fields
  005b8	48 8d 0d 00 00
	00 00		 lea	 rcx, OFFSET FLAT:??_C@_05BHIPNDDM@BinOp?$AA@
  005bf	41 b9 03 00 00
	00		 mov	 r9d, 3
  005c5	e8 00 00 00 00	 call	 make_type
  005ca	48 89 05 00 00
	00 00		 mov	 QWORD PTR BinOp_type, rax

; 831  :     if (!BinOp_type) return 0;

  005d1	48 85 c0	 test	 rax, rax
  005d4	0f 84 40 fa ff
	ff		 je	 $LN154@init_types

; 832  :     UnaryOp_type = make_type("UnaryOp", expr_type, UnaryOp_fields, 2);

  005da	48 8b 15 00 00
	00 00		 mov	 rdx, QWORD PTR expr_type
  005e1	4c 8d 05 00 00
	00 00		 lea	 r8, OFFSET FLAT:UnaryOp_fields
  005e8	48 8d 0d 00 00
	00 00		 lea	 rcx, OFFSET FLAT:??_C@_07FOOGNJMB@UnaryOp?$AA@
  005ef	41 b9 02 00 00
	00		 mov	 r9d, 2
  005f5	e8 00 00 00 00	 call	 make_type
  005fa	48 89 05 00 00
	00 00		 mov	 QWORD PTR UnaryOp_type, rax

; 833  :     if (!UnaryOp_type) return 0;

  00601	48 85 c0	 test	 rax, rax
  00604	0f 84 10 fa ff
	ff		 je	 $LN154@init_types

; 834  :     Lambda_type = make_type("Lambda", expr_type, Lambda_fields, 2);

  0060a	48 8b 15 00 00
	00 00		 mov	 rdx, QWORD PTR expr_type
  00611	4c 8d 05 00 00
	00 00		 lea	 r8, OFFSET FLAT:Lambda_fields
  00618	48 8d 0d 00 00
	00 00		 lea	 rcx, OFFSET FLAT:??_C@_06OBCFFGBN@Lambda?$AA@
  0061f	41 b9 02 00 00
	00		 mov	 r9d, 2
  00625	e8 00 00 00 00	 call	 make_type
  0062a	48 89 05 00 00
	00 00		 mov	 QWORD PTR Lambda_type, rax

; 835  :     if (!Lambda_type) return 0;

  00631	48 85 c0	 test	 rax, rax
  00634	0f 84 e0 f9 ff
	ff		 je	 $LN154@init_types

; 836  :     IfExp_type = make_type("IfExp", expr_type, IfExp_fields, 3);

  0063a	48 8b 15 00 00
	00 00		 mov	 rdx, QWORD PTR expr_type
  00641	4c 8d 05 00 00
	00 00		 lea	 r8, OFFSET FLAT:IfExp_fields
  00648	48 8d 0d 00 00
	00 00		 lea	 rcx, OFFSET FLAT:??_C@_05KJAPGPAE@IfExp?$AA@
  0064f	41 b9 03 00 00
	00		 mov	 r9d, 3
  00655	e8 00 00 00 00	 call	 make_type
  0065a	48 89 05 00 00
	00 00		 mov	 QWORD PTR IfExp_type, rax

; 837  :     if (!IfExp_type) return 0;

  00661	48 85 c0	 test	 rax, rax
  00664	0f 84 b0 f9 ff
	ff		 je	 $LN154@init_types

; 838  :     Dict_type = make_type("Dict", expr_type, Dict_fields, 2);

  0066a	48 8b 15 00 00
	00 00		 mov	 rdx, QWORD PTR expr_type
  00671	4c 8d 05 00 00
	00 00		 lea	 r8, OFFSET FLAT:Dict_fields
  00678	48 8d 0d 00 00
	00 00		 lea	 rcx, OFFSET FLAT:??_C@_04NDECIHGJ@Dict?$AA@
  0067f	41 b9 02 00 00
	00		 mov	 r9d, 2
  00685	e8 00 00 00 00	 call	 make_type
  0068a	48 89 05 00 00
	00 00		 mov	 QWORD PTR Dict_type, rax

; 839  :     if (!Dict_type) return 0;

  00691	48 85 c0	 test	 rax, rax
  00694	0f 84 80 f9 ff
	ff		 je	 $LN154@init_types

; 840  :     Set_type = make_type("Set", expr_type, Set_fields, 1);

  0069a	48 8b 15 00 00
	00 00		 mov	 rdx, QWORD PTR expr_type
  006a1	4c 8d 05 00 00
	00 00		 lea	 r8, OFFSET FLAT:Set_fields
  006a8	48 8d 0d 00 00
	00 00		 lea	 rcx, OFFSET FLAT:??_C@_03CEMDFJG@Set?$AA@
  006af	41 b9 01 00 00
	00		 mov	 r9d, 1
  006b5	e8 00 00 00 00	 call	 make_type
  006ba	48 89 05 00 00
	00 00		 mov	 QWORD PTR Set_type, rax

; 841  :     if (!Set_type) return 0;

  006c1	48 85 c0	 test	 rax, rax
  006c4	0f 84 50 f9 ff
	ff		 je	 $LN154@init_types

; 842  :     ListComp_type = make_type("ListComp", expr_type, ListComp_fields, 2);

  006ca	48 8b 15 00 00
	00 00		 mov	 rdx, QWORD PTR expr_type
  006d1	4c 8d 05 00 00
	00 00		 lea	 r8, OFFSET FLAT:ListComp_fields
  006d8	48 8d 0d 00 00
	00 00		 lea	 rcx, OFFSET FLAT:??_C@_08LAOBMBPK@ListComp?$AA@
  006df	41 b9 02 00 00
	00		 mov	 r9d, 2
  006e5	e8 00 00 00 00	 call	 make_type
  006ea	48 89 05 00 00
	00 00		 mov	 QWORD PTR ListComp_type, rax

; 843  :     if (!ListComp_type) return 0;

  006f1	48 85 c0	 test	 rax, rax
  006f4	0f 84 20 f9 ff
	ff		 je	 $LN154@init_types

; 844  :     SetComp_type = make_type("SetComp", expr_type, SetComp_fields, 2);

  006fa	48 8b 15 00 00
	00 00		 mov	 rdx, QWORD PTR expr_type
  00701	4c 8d 05 00 00
	00 00		 lea	 r8, OFFSET FLAT:SetComp_fields
  00708	48 8d 0d 00 00
	00 00		 lea	 rcx, OFFSET FLAT:??_C@_07BLGPBMGP@SetComp?$AA@
  0070f	41 b9 02 00 00
	00		 mov	 r9d, 2
  00715	e8 00 00 00 00	 call	 make_type
  0071a	48 89 05 00 00
	00 00		 mov	 QWORD PTR SetComp_type, rax

; 845  :     if (!SetComp_type) return 0;

  00721	48 85 c0	 test	 rax, rax
  00724	0f 84 f0 f8 ff
	ff		 je	 $LN154@init_types

; 846  :     DictComp_type = make_type("DictComp", expr_type, DictComp_fields, 3);

  0072a	48 8b 15 00 00
	00 00		 mov	 rdx, QWORD PTR expr_type
  00731	4c 8d 05 00 00
	00 00		 lea	 r8, OFFSET FLAT:DictComp_fields
  00738	48 8d 0d 00 00
	00 00		 lea	 rcx, OFFSET FLAT:??_C@_08GMOHPPCM@DictComp?$AA@
  0073f	41 b9 03 00 00
	00		 mov	 r9d, 3
  00745	e8 00 00 00 00	 call	 make_type
  0074a	48 89 05 00 00
	00 00		 mov	 QWORD PTR DictComp_type, rax

; 847  :     if (!DictComp_type) return 0;

  00751	48 85 c0	 test	 rax, rax
  00754	0f 84 c0 f8 ff
	ff		 je	 $LN154@init_types

; 848  :     GeneratorExp_type = make_type("GeneratorExp", expr_type,
; 849  :                                   GeneratorExp_fields, 2);

  0075a	48 8b 15 00 00
	00 00		 mov	 rdx, QWORD PTR expr_type
  00761	4c 8d 05 00 00
	00 00		 lea	 r8, OFFSET FLAT:GeneratorExp_fields
  00768	48 8d 0d 00 00
	00 00		 lea	 rcx, OFFSET FLAT:??_C@_0N@MMHMBOOD@GeneratorExp?$AA@
  0076f	41 b9 02 00 00
	00		 mov	 r9d, 2
  00775	e8 00 00 00 00	 call	 make_type
  0077a	48 89 05 00 00
	00 00		 mov	 QWORD PTR GeneratorExp_type, rax

; 850  :     if (!GeneratorExp_type) return 0;

  00781	48 85 c0	 test	 rax, rax
  00784	0f 84 90 f8 ff
	ff		 je	 $LN154@init_types

; 851  :     Yield_type = make_type("Yield", expr_type, Yield_fields, 1);

  0078a	48 8b 15 00 00
	00 00		 mov	 rdx, QWORD PTR expr_type
  00791	4c 8d 05 00 00
	00 00		 lea	 r8, OFFSET FLAT:Yield_fields
  00798	48 8d 0d 00 00
	00 00		 lea	 rcx, OFFSET FLAT:??_C@_05LNDKIJIJ@Yield?$AA@
  0079f	41 b9 01 00 00
	00		 mov	 r9d, 1
  007a5	e8 00 00 00 00	 call	 make_type
  007aa	48 89 05 00 00
	00 00		 mov	 QWORD PTR Yield_type, rax

; 852  :     if (!Yield_type) return 0;

  007b1	48 85 c0	 test	 rax, rax
  007b4	0f 84 60 f8 ff
	ff		 je	 $LN154@init_types

; 853  :     YieldFrom_type = make_type("YieldFrom", expr_type, YieldFrom_fields, 1);

  007ba	48 8b 15 00 00
	00 00		 mov	 rdx, QWORD PTR expr_type
  007c1	4c 8d 05 00 00
	00 00		 lea	 r8, OFFSET FLAT:YieldFrom_fields
  007c8	48 8d 0d 00 00
	00 00		 lea	 rcx, OFFSET FLAT:??_C@_09GLJBJEPP@YieldFrom?$AA@
  007cf	41 b9 01 00 00
	00		 mov	 r9d, 1
  007d5	e8 00 00 00 00	 call	 make_type
  007da	48 89 05 00 00
	00 00		 mov	 QWORD PTR YieldFrom_type, rax

; 854  :     if (!YieldFrom_type) return 0;

  007e1	48 85 c0	 test	 rax, rax
  007e4	0f 84 30 f8 ff
	ff		 je	 $LN154@init_types

; 855  :     Compare_type = make_type("Compare", expr_type, Compare_fields, 3);

  007ea	48 8b 15 00 00
	00 00		 mov	 rdx, QWORD PTR expr_type
  007f1	4c 8d 05 00 00
	00 00		 lea	 r8, OFFSET FLAT:Compare_fields
  007f8	48 8d 0d 00 00
	00 00		 lea	 rcx, OFFSET FLAT:??_C@_07MBOMJGGF@Compare?$AA@
  007ff	41 b9 03 00 00
	00		 mov	 r9d, 3
  00805	e8 00 00 00 00	 call	 make_type
  0080a	48 89 05 00 00
	00 00		 mov	 QWORD PTR Compare_type, rax

; 856  :     if (!Compare_type) return 0;

  00811	48 85 c0	 test	 rax, rax
  00814	0f 84 00 f8 ff
	ff		 je	 $LN154@init_types

; 857  :     Call_type = make_type("Call", expr_type, Call_fields, 5);

  0081a	48 8b 15 00 00
	00 00		 mov	 rdx, QWORD PTR expr_type
  00821	4c 8d 05 00 00
	00 00		 lea	 r8, OFFSET FLAT:Call_fields
  00828	48 8d 0d 00 00
	00 00		 lea	 rcx, OFFSET FLAT:??_C@_04CNJBKMPC@Call?$AA@
  0082f	41 b9 05 00 00
	00		 mov	 r9d, 5
  00835	e8 00 00 00 00	 call	 make_type
  0083a	48 89 05 00 00
	00 00		 mov	 QWORD PTR Call_type, rax

; 858  :     if (!Call_type) return 0;

  00841	48 85 c0	 test	 rax, rax
  00844	0f 84 d0 f7 ff
	ff		 je	 $LN154@init_types

; 859  :     Num_type = make_type("Num", expr_type, Num_fields, 1);

  0084a	48 8b 15 00 00
	00 00		 mov	 rdx, QWORD PTR expr_type
  00851	4c 8d 05 00 00
	00 00		 lea	 r8, OFFSET FLAT:Num_fields
  00858	48 8d 0d 00 00
	00 00		 lea	 rcx, OFFSET FLAT:??_C@_03CHBJLALM@Num?$AA@
  0085f	41 b9 01 00 00
	00		 mov	 r9d, 1
  00865	e8 00 00 00 00	 call	 make_type
  0086a	48 89 05 00 00
	00 00		 mov	 QWORD PTR Num_type, rax

; 860  :     if (!Num_type) return 0;

  00871	48 85 c0	 test	 rax, rax
  00874	0f 84 a0 f7 ff
	ff		 je	 $LN154@init_types

; 861  :     Str_type = make_type("Str", expr_type, Str_fields, 1);

  0087a	48 8b 15 00 00
	00 00		 mov	 rdx, QWORD PTR expr_type
  00881	4c 8d 05 00 00
	00 00		 lea	 r8, OFFSET FLAT:Str_fields
  00888	48 8d 0d 00 00
	00 00		 lea	 rcx, OFFSET FLAT:??_C@_03EJPCFLFH@Str?$AA@
  0088f	41 b9 01 00 00
	00		 mov	 r9d, 1
  00895	e8 00 00 00 00	 call	 make_type
  0089a	48 89 05 00 00
	00 00		 mov	 QWORD PTR Str_type, rax

; 862  :     if (!Str_type) return 0;

  008a1	48 85 c0	 test	 rax, rax
  008a4	0f 84 70 f7 ff
	ff		 je	 $LN154@init_types

; 863  :     Bytes_type = make_type("Bytes", expr_type, Bytes_fields, 1);

  008aa	48 8b 15 00 00
	00 00		 mov	 rdx, QWORD PTR expr_type
  008b1	4c 8d 05 00 00
	00 00		 lea	 r8, OFFSET FLAT:Bytes_fields
  008b8	48 8d 0d 00 00
	00 00		 lea	 rcx, OFFSET FLAT:??_C@_05FGDMGDLA@Bytes?$AA@
  008bf	41 b9 01 00 00
	00		 mov	 r9d, 1
  008c5	e8 00 00 00 00	 call	 make_type
  008ca	48 89 05 00 00
	00 00		 mov	 QWORD PTR Bytes_type, rax

; 864  :     if (!Bytes_type) return 0;

  008d1	48 85 c0	 test	 rax, rax
  008d4	0f 84 40 f7 ff
	ff		 je	 $LN154@init_types

; 865  :     Ellipsis_type = make_type("Ellipsis", expr_type, NULL, 0);

  008da	48 8b 15 00 00
	00 00		 mov	 rdx, QWORD PTR expr_type
  008e1	48 8d 0d 00 00
	00 00		 lea	 rcx, OFFSET FLAT:??_C@_08KKBGFFMJ@Ellipsis?$AA@
  008e8	45 33 c9	 xor	 r9d, r9d
  008eb	45 33 c0	 xor	 r8d, r8d
  008ee	e8 00 00 00 00	 call	 make_type
  008f3	48 89 05 00 00
	00 00		 mov	 QWORD PTR Ellipsis_type, rax

; 866  :     if (!Ellipsis_type) return 0;

  008fa	48 85 c0	 test	 rax, rax
  008fd	0f 84 17 f7 ff
	ff		 je	 $LN154@init_types

; 867  :     Attribute_type = make_type("Attribute", expr_type, Attribute_fields, 3);

  00903	48 8b 15 00 00
	00 00		 mov	 rdx, QWORD PTR expr_type
  0090a	4c 8d 05 00 00
	00 00		 lea	 r8, OFFSET FLAT:Attribute_fields
  00911	48 8d 0d 00 00
	00 00		 lea	 rcx, OFFSET FLAT:??_C@_09EIDFECNJ@Attribute?$AA@
  00918	41 b9 03 00 00
	00		 mov	 r9d, 3
  0091e	e8 00 00 00 00	 call	 make_type
  00923	48 89 05 00 00
	00 00		 mov	 QWORD PTR Attribute_type, rax

; 868  :     if (!Attribute_type) return 0;

  0092a	48 85 c0	 test	 rax, rax
  0092d	0f 84 e7 f6 ff
	ff		 je	 $LN154@init_types

; 869  :     Subscript_type = make_type("Subscript", expr_type, Subscript_fields, 3);

  00933	48 8b 15 00 00
	00 00		 mov	 rdx, QWORD PTR expr_type
  0093a	4c 8d 05 00 00
	00 00		 lea	 r8, OFFSET FLAT:Subscript_fields
  00941	48 8d 0d 00 00
	00 00		 lea	 rcx, OFFSET FLAT:??_C@_09OPNCODFI@Subscript?$AA@
  00948	41 b9 03 00 00
	00		 mov	 r9d, 3
  0094e	e8 00 00 00 00	 call	 make_type
  00953	48 89 05 00 00
	00 00		 mov	 QWORD PTR Subscript_type, rax

; 870  :     if (!Subscript_type) return 0;

  0095a	48 85 c0	 test	 rax, rax
  0095d	0f 84 b7 f6 ff
	ff		 je	 $LN154@init_types

; 871  :     Starred_type = make_type("Starred", expr_type, Starred_fields, 2);

  00963	48 8b 15 00 00
	00 00		 mov	 rdx, QWORD PTR expr_type
  0096a	4c 8d 05 00 00
	00 00		 lea	 r8, OFFSET FLAT:Starred_fields
  00971	48 8d 0d 00 00
	00 00		 lea	 rcx, OFFSET FLAT:??_C@_07JHFCIAKE@Starred?$AA@
  00978	41 b9 02 00 00
	00		 mov	 r9d, 2
  0097e	e8 00 00 00 00	 call	 make_type
  00983	48 89 05 00 00
	00 00		 mov	 QWORD PTR Starred_type, rax

; 872  :     if (!Starred_type) return 0;

  0098a	48 85 c0	 test	 rax, rax
  0098d	0f 84 87 f6 ff
	ff		 je	 $LN154@init_types

; 873  :     Name_type = make_type("Name", expr_type, Name_fields, 2);

  00993	48 8b 15 00 00
	00 00		 mov	 rdx, QWORD PTR expr_type
  0099a	4c 8d 05 00 00
	00 00		 lea	 r8, OFFSET FLAT:Name_fields
  009a1	48 8d 0d 00 00
	00 00		 lea	 rcx, OFFSET FLAT:??_C@_04FABLJDN@Name?$AA@
  009a8	41 b9 02 00 00
	00		 mov	 r9d, 2
  009ae	e8 00 00 00 00	 call	 make_type
  009b3	48 89 05 00 00
	00 00		 mov	 QWORD PTR Name_type, rax

; 874  :     if (!Name_type) return 0;

  009ba	48 85 c0	 test	 rax, rax
  009bd	0f 84 57 f6 ff
	ff		 je	 $LN154@init_types

; 875  :     List_type = make_type("List", expr_type, List_fields, 2);

  009c3	48 8b 15 00 00
	00 00		 mov	 rdx, QWORD PTR expr_type
  009ca	4c 8d 05 00 00
	00 00		 lea	 r8, OFFSET FLAT:List_fields
  009d1	48 8d 0d 00 00
	00 00		 lea	 rcx, OFFSET FLAT:??_C@_04PPBEGPNI@List?$AA@
  009d8	41 b9 02 00 00
	00		 mov	 r9d, 2
  009de	e8 00 00 00 00	 call	 make_type
  009e3	48 89 05 00 00
	00 00		 mov	 QWORD PTR List_type, rax

; 876  :     if (!List_type) return 0;

  009ea	48 85 c0	 test	 rax, rax
  009ed	0f 84 27 f6 ff
	ff		 je	 $LN154@init_types

; 877  :     Tuple_type = make_type("Tuple", expr_type, Tuple_fields, 2);

  009f3	48 8b 15 00 00
	00 00		 mov	 rdx, QWORD PTR expr_type
  009fa	4c 8d 05 00 00
	00 00		 lea	 r8, OFFSET FLAT:Tuple_fields
  00a01	48 8d 0d 00 00
	00 00		 lea	 rcx, OFFSET FLAT:??_C@_05NKGIHGDI@Tuple?$AA@
  00a08	41 b9 02 00 00
	00		 mov	 r9d, 2
  00a0e	e8 00 00 00 00	 call	 make_type
  00a13	48 89 05 00 00
	00 00		 mov	 QWORD PTR Tuple_type, rax

; 878  :     if (!Tuple_type) return 0;

  00a1a	48 85 c0	 test	 rax, rax
  00a1d	0f 84 f7 f5 ff
	ff		 je	 $LN154@init_types

; 879  :     expr_context_type = make_type("expr_context", &AST_type, NULL, 0);

  00a23	48 8d 15 00 00
	00 00		 lea	 rdx, OFFSET FLAT:AST_type
  00a2a	48 8d 0d 00 00
	00 00		 lea	 rcx, OFFSET FLAT:??_C@_0N@GABLJPJB@expr_context?$AA@
  00a31	45 33 c9	 xor	 r9d, r9d
  00a34	45 33 c0	 xor	 r8d, r8d
  00a37	e8 00 00 00 00	 call	 make_type
  00a3c	48 89 05 00 00
	00 00		 mov	 QWORD PTR expr_context_type, rax

; 880  :     if (!expr_context_type) return 0;

  00a43	48 85 c0	 test	 rax, rax
  00a46	0f 84 ce f5 ff
	ff		 je	 $LN154@init_types

; 881  :     if (!add_attributes(expr_context_type, NULL, 0)) return 0;

  00a4c	45 33 c0	 xor	 r8d, r8d
  00a4f	33 d2		 xor	 edx, edx
  00a51	48 8b c8	 mov	 rcx, rax
  00a54	e8 00 00 00 00	 call	 add_attributes
  00a59	85 c0		 test	 eax, eax
  00a5b	0f 84 b9 f5 ff
	ff		 je	 $LN154@init_types

; 882  :     Load_type = make_type("Load", expr_context_type, NULL, 0);

  00a61	48 8b 15 00 00
	00 00		 mov	 rdx, QWORD PTR expr_context_type
  00a68	48 8d 0d 00 00
	00 00		 lea	 rcx, OFFSET FLAT:??_C@_04IPBPFFEL@Load?$AA@
  00a6f	45 33 c9	 xor	 r9d, r9d
  00a72	45 33 c0	 xor	 r8d, r8d
  00a75	e8 00 00 00 00	 call	 make_type
  00a7a	48 89 05 00 00
	00 00		 mov	 QWORD PTR Load_type, rax

; 883  :     if (!Load_type) return 0;

  00a81	48 85 c0	 test	 rax, rax
  00a84	0f 84 90 f5 ff
	ff		 je	 $LN154@init_types

; 884  :     Load_singleton = PyType_GenericNew(Load_type, NULL, NULL);

  00a8a	45 33 c0	 xor	 r8d, r8d
  00a8d	33 d2		 xor	 edx, edx
  00a8f	48 8b c8	 mov	 rcx, rax
  00a92	e8 00 00 00 00	 call	 PyType_GenericNew
  00a97	48 89 05 00 00
	00 00		 mov	 QWORD PTR Load_singleton, rax

; 885  :     if (!Load_singleton) return 0;

  00a9e	48 85 c0	 test	 rax, rax
  00aa1	0f 84 73 f5 ff
	ff		 je	 $LN154@init_types

; 886  :     Store_type = make_type("Store", expr_context_type, NULL, 0);

  00aa7	48 8b 15 00 00
	00 00		 mov	 rdx, QWORD PTR expr_context_type
  00aae	48 8d 0d 00 00
	00 00		 lea	 rcx, OFFSET FLAT:??_C@_05OEMPKGID@Store?$AA@
  00ab5	45 33 c9	 xor	 r9d, r9d
  00ab8	45 33 c0	 xor	 r8d, r8d
  00abb	e8 00 00 00 00	 call	 make_type
  00ac0	48 89 05 00 00
	00 00		 mov	 QWORD PTR Store_type, rax

; 887  :     if (!Store_type) return 0;

  00ac7	48 85 c0	 test	 rax, rax
  00aca	0f 84 4a f5 ff
	ff		 je	 $LN154@init_types

; 888  :     Store_singleton = PyType_GenericNew(Store_type, NULL, NULL);

  00ad0	45 33 c0	 xor	 r8d, r8d
  00ad3	33 d2		 xor	 edx, edx
  00ad5	48 8b c8	 mov	 rcx, rax
  00ad8	e8 00 00 00 00	 call	 PyType_GenericNew
  00add	48 89 05 00 00
	00 00		 mov	 QWORD PTR Store_singleton, rax

; 889  :     if (!Store_singleton) return 0;

  00ae4	48 85 c0	 test	 rax, rax
  00ae7	0f 84 2d f5 ff
	ff		 je	 $LN154@init_types

; 890  :     Del_type = make_type("Del", expr_context_type, NULL, 0);

  00aed	48 8b 15 00 00
	00 00		 mov	 rdx, QWORD PTR expr_context_type
  00af4	48 8d 0d 00 00
	00 00		 lea	 rcx, OFFSET FLAT:??_C@_03ENJJMCOJ@Del?$AA@
  00afb	45 33 c9	 xor	 r9d, r9d
  00afe	45 33 c0	 xor	 r8d, r8d
  00b01	e8 00 00 00 00	 call	 make_type
  00b06	48 89 05 00 00
	00 00		 mov	 QWORD PTR Del_type, rax

; 891  :     if (!Del_type) return 0;

  00b0d	48 85 c0	 test	 rax, rax
  00b10	0f 84 04 f5 ff
	ff		 je	 $LN154@init_types

; 892  :     Del_singleton = PyType_GenericNew(Del_type, NULL, NULL);

  00b16	45 33 c0	 xor	 r8d, r8d
  00b19	33 d2		 xor	 edx, edx
  00b1b	48 8b c8	 mov	 rcx, rax
  00b1e	e8 00 00 00 00	 call	 PyType_GenericNew
  00b23	48 89 05 00 00
	00 00		 mov	 QWORD PTR Del_singleton, rax

; 893  :     if (!Del_singleton) return 0;

  00b2a	48 85 c0	 test	 rax, rax
  00b2d	0f 84 e7 f4 ff
	ff		 je	 $LN154@init_types

; 894  :     AugLoad_type = make_type("AugLoad", expr_context_type, NULL, 0);

  00b33	48 8b 15 00 00
	00 00		 mov	 rdx, QWORD PTR expr_context_type
  00b3a	48 8d 0d 00 00
	00 00		 lea	 rcx, OFFSET FLAT:??_C@_07GCIJHPCC@AugLoad?$AA@
  00b41	45 33 c9	 xor	 r9d, r9d
  00b44	45 33 c0	 xor	 r8d, r8d
  00b47	e8 00 00 00 00	 call	 make_type
  00b4c	48 89 05 00 00
	00 00		 mov	 QWORD PTR AugLoad_type, rax

; 895  :     if (!AugLoad_type) return 0;

  00b53	48 85 c0	 test	 rax, rax
  00b56	0f 84 be f4 ff
	ff		 je	 $LN154@init_types

; 896  :     AugLoad_singleton = PyType_GenericNew(AugLoad_type, NULL, NULL);

  00b5c	45 33 c0	 xor	 r8d, r8d
  00b5f	33 d2		 xor	 edx, edx
  00b61	48 8b c8	 mov	 rcx, rax
  00b64	e8 00 00 00 00	 call	 PyType_GenericNew
  00b69	48 89 05 00 00
	00 00		 mov	 QWORD PTR AugLoad_singleton, rax

; 897  :     if (!AugLoad_singleton) return 0;

  00b70	48 85 c0	 test	 rax, rax
  00b73	0f 84 a1 f4 ff
	ff		 je	 $LN154@init_types

; 898  :     AugStore_type = make_type("AugStore", expr_context_type, NULL, 0);

  00b79	48 8b 15 00 00
	00 00		 mov	 rdx, QWORD PTR expr_context_type
  00b80	48 8d 0d 00 00
	00 00		 lea	 rcx, OFFSET FLAT:??_C@_08NAEMOJFF@AugStore?$AA@
  00b87	45 33 c9	 xor	 r9d, r9d
  00b8a	45 33 c0	 xor	 r8d, r8d
  00b8d	e8 00 00 00 00	 call	 make_type
  00b92	48 89 05 00 00
	00 00		 mov	 QWORD PTR AugStore_type, rax

; 899  :     if (!AugStore_type) return 0;

  00b99	48 85 c0	 test	 rax, rax
  00b9c	0f 84 78 f4 ff
	ff		 je	 $LN154@init_types

; 900  :     AugStore_singleton = PyType_GenericNew(AugStore_type, NULL, NULL);

  00ba2	45 33 c0	 xor	 r8d, r8d
  00ba5	33 d2		 xor	 edx, edx
  00ba7	48 8b c8	 mov	 rcx, rax
  00baa	e8 00 00 00 00	 call	 PyType_GenericNew
  00baf	48 89 05 00 00
	00 00		 mov	 QWORD PTR AugStore_singleton, rax

; 901  :     if (!AugStore_singleton) return 0;

  00bb6	48 85 c0	 test	 rax, rax
  00bb9	0f 84 5b f4 ff
	ff		 je	 $LN154@init_types

; 902  :     Param_type = make_type("Param", expr_context_type, NULL, 0);

  00bbf	48 8b 15 00 00
	00 00		 mov	 rdx, QWORD PTR expr_context_type
  00bc6	48 8d 0d 00 00
	00 00		 lea	 rcx, OFFSET FLAT:??_C@_05LOJBNELM@Param?$AA@
  00bcd	45 33 c9	 xor	 r9d, r9d
  00bd0	45 33 c0	 xor	 r8d, r8d
  00bd3	e8 00 00 00 00	 call	 make_type
  00bd8	48 89 05 00 00
	00 00		 mov	 QWORD PTR Param_type, rax

; 903  :     if (!Param_type) return 0;

  00bdf	48 85 c0	 test	 rax, rax
  00be2	0f 84 32 f4 ff
	ff		 je	 $LN154@init_types

; 904  :     Param_singleton = PyType_GenericNew(Param_type, NULL, NULL);

  00be8	45 33 c0	 xor	 r8d, r8d
  00beb	33 d2		 xor	 edx, edx
  00bed	48 8b c8	 mov	 rcx, rax
  00bf0	e8 00 00 00 00	 call	 PyType_GenericNew
  00bf5	48 89 05 00 00
	00 00		 mov	 QWORD PTR Param_singleton, rax

; 905  :     if (!Param_singleton) return 0;

  00bfc	48 85 c0	 test	 rax, rax
  00bff	0f 84 15 f4 ff
	ff		 je	 $LN154@init_types

; 906  :     slice_type = make_type("slice", &AST_type, NULL, 0);

  00c05	48 8d 15 00 00
	00 00		 lea	 rdx, OFFSET FLAT:AST_type
  00c0c	48 8d 0d 00 00
	00 00		 lea	 rcx, OFFSET FLAT:??_C@_05ILHMOJGN@slice?$AA@
  00c13	45 33 c9	 xor	 r9d, r9d
  00c16	45 33 c0	 xor	 r8d, r8d
  00c19	e8 00 00 00 00	 call	 make_type
  00c1e	48 89 05 00 00
	00 00		 mov	 QWORD PTR slice_type, rax

; 907  :     if (!slice_type) return 0;

  00c25	48 85 c0	 test	 rax, rax
  00c28	0f 84 ec f3 ff
	ff		 je	 $LN154@init_types

; 908  :     if (!add_attributes(slice_type, NULL, 0)) return 0;

  00c2e	45 33 c0	 xor	 r8d, r8d
  00c31	33 d2		 xor	 edx, edx
  00c33	48 8b c8	 mov	 rcx, rax
  00c36	e8 00 00 00 00	 call	 add_attributes
  00c3b	85 c0		 test	 eax, eax
  00c3d	0f 84 d7 f3 ff
	ff		 je	 $LN154@init_types

; 909  :     Slice_type = make_type("Slice", slice_type, Slice_fields, 3);

  00c43	48 8b 15 00 00
	00 00		 mov	 rdx, QWORD PTR slice_type
  00c4a	4c 8d 05 00 00
	00 00		 lea	 r8, OFFSET FLAT:Slice_fields
  00c51	48 8d 0d 00 00
	00 00		 lea	 rcx, OFFSET FLAT:??_C@_05IMNAOMFL@Slice?$AA@
  00c58	41 b9 03 00 00
	00		 mov	 r9d, 3
  00c5e	e8 00 00 00 00	 call	 make_type
  00c63	48 89 05 00 00
	00 00		 mov	 QWORD PTR Slice_type, rax

; 910  :     if (!Slice_type) return 0;

  00c6a	48 85 c0	 test	 rax, rax
  00c6d	0f 84 a7 f3 ff
	ff		 je	 $LN154@init_types

; 911  :     ExtSlice_type = make_type("ExtSlice", slice_type, ExtSlice_fields, 1);

  00c73	48 8b 15 00 00
	00 00		 mov	 rdx, QWORD PTR slice_type
  00c7a	4c 8d 05 00 00
	00 00		 lea	 r8, OFFSET FLAT:ExtSlice_fields
  00c81	48 8d 0d 00 00
	00 00		 lea	 rcx, OFFSET FLAT:??_C@_08CIIMGBAD@ExtSlice?$AA@
  00c88	41 b9 01 00 00
	00		 mov	 r9d, 1
  00c8e	e8 00 00 00 00	 call	 make_type
  00c93	48 89 05 00 00
	00 00		 mov	 QWORD PTR ExtSlice_type, rax

; 912  :     if (!ExtSlice_type) return 0;

  00c9a	48 85 c0	 test	 rax, rax
  00c9d	0f 84 77 f3 ff
	ff		 je	 $LN154@init_types

; 913  :     Index_type = make_type("Index", slice_type, Index_fields, 1);

  00ca3	48 8b 15 00 00
	00 00		 mov	 rdx, QWORD PTR slice_type
  00caa	4c 8d 05 00 00
	00 00		 lea	 r8, OFFSET FLAT:Index_fields
  00cb1	48 8d 0d 00 00
	00 00		 lea	 rcx, OFFSET FLAT:??_C@_05FNNGFGLF@Index?$AA@
  00cb8	41 b9 01 00 00
	00		 mov	 r9d, 1
  00cbe	e8 00 00 00 00	 call	 make_type
  00cc3	48 89 05 00 00
	00 00		 mov	 QWORD PTR Index_type, rax

; 914  :     if (!Index_type) return 0;

  00cca	48 85 c0	 test	 rax, rax
  00ccd	0f 84 47 f3 ff
	ff		 je	 $LN154@init_types

; 915  :     boolop_type = make_type("boolop", &AST_type, NULL, 0);

  00cd3	48 8d 15 00 00
	00 00		 lea	 rdx, OFFSET FLAT:AST_type
  00cda	48 8d 0d 00 00
	00 00		 lea	 rcx, OFFSET FLAT:??_C@_06IBDOJNAO@boolop?$AA@
  00ce1	45 33 c9	 xor	 r9d, r9d
  00ce4	45 33 c0	 xor	 r8d, r8d
  00ce7	e8 00 00 00 00	 call	 make_type
  00cec	48 89 05 00 00
	00 00		 mov	 QWORD PTR boolop_type, rax

; 916  :     if (!boolop_type) return 0;

  00cf3	48 85 c0	 test	 rax, rax
  00cf6	0f 84 1e f3 ff
	ff		 je	 $LN154@init_types

; 917  :     if (!add_attributes(boolop_type, NULL, 0)) return 0;

  00cfc	45 33 c0	 xor	 r8d, r8d
  00cff	33 d2		 xor	 edx, edx
  00d01	48 8b c8	 mov	 rcx, rax
  00d04	e8 00 00 00 00	 call	 add_attributes
  00d09	85 c0		 test	 eax, eax
  00d0b	0f 84 09 f3 ff
	ff		 je	 $LN154@init_types

; 918  :     And_type = make_type("And", boolop_type, NULL, 0);

  00d11	48 8b 15 00 00
	00 00		 mov	 rdx, QWORD PTR boolop_type
  00d18	48 8d 0d 00 00
	00 00		 lea	 rcx, OFFSET FLAT:??_C@_03LOMLFHDC@And?$AA@
  00d1f	45 33 c9	 xor	 r9d, r9d
  00d22	45 33 c0	 xor	 r8d, r8d
  00d25	e8 00 00 00 00	 call	 make_type
  00d2a	48 89 05 00 00
	00 00		 mov	 QWORD PTR And_type, rax

; 919  :     if (!And_type) return 0;

  00d31	48 85 c0	 test	 rax, rax
  00d34	0f 84 e0 f2 ff
	ff		 je	 $LN154@init_types

; 920  :     And_singleton = PyType_GenericNew(And_type, NULL, NULL);

  00d3a	45 33 c0	 xor	 r8d, r8d
  00d3d	33 d2		 xor	 edx, edx
  00d3f	48 8b c8	 mov	 rcx, rax
  00d42	e8 00 00 00 00	 call	 PyType_GenericNew
  00d47	48 89 05 00 00
	00 00		 mov	 QWORD PTR And_singleton, rax

; 921  :     if (!And_singleton) return 0;

  00d4e	48 85 c0	 test	 rax, rax
  00d51	0f 84 c3 f2 ff
	ff		 je	 $LN154@init_types

; 922  :     Or_type = make_type("Or", boolop_type, NULL, 0);

  00d57	48 8b 15 00 00
	00 00		 mov	 rdx, QWORD PTR boolop_type
  00d5e	48 8d 0d 00 00
	00 00		 lea	 rcx, OFFSET FLAT:??_C@_02GGHBPHGE@Or?$AA@
  00d65	45 33 c9	 xor	 r9d, r9d
  00d68	45 33 c0	 xor	 r8d, r8d
  00d6b	e8 00 00 00 00	 call	 make_type
  00d70	48 89 05 00 00
	00 00		 mov	 QWORD PTR Or_type, rax

; 923  :     if (!Or_type) return 0;

  00d77	48 85 c0	 test	 rax, rax
  00d7a	0f 84 9a f2 ff
	ff		 je	 $LN154@init_types

; 924  :     Or_singleton = PyType_GenericNew(Or_type, NULL, NULL);

  00d80	45 33 c0	 xor	 r8d, r8d
  00d83	33 d2		 xor	 edx, edx
  00d85	48 8b c8	 mov	 rcx, rax
  00d88	e8 00 00 00 00	 call	 PyType_GenericNew
  00d8d	48 89 05 00 00
	00 00		 mov	 QWORD PTR Or_singleton, rax

; 925  :     if (!Or_singleton) return 0;

  00d94	48 85 c0	 test	 rax, rax
  00d97	0f 84 7d f2 ff
	ff		 je	 $LN154@init_types

; 926  :     operator_type = make_type("operator", &AST_type, NULL, 0);

  00d9d	48 8d 15 00 00
	00 00		 lea	 rdx, OFFSET FLAT:AST_type
  00da4	48 8d 0d 00 00
	00 00		 lea	 rcx, OFFSET FLAT:??_C@_08LHJFAFGD@operator?$AA@
  00dab	45 33 c9	 xor	 r9d, r9d
  00dae	45 33 c0	 xor	 r8d, r8d
  00db1	e8 00 00 00 00	 call	 make_type
  00db6	48 89 05 00 00
	00 00		 mov	 QWORD PTR operator_type, rax

; 927  :     if (!operator_type) return 0;

  00dbd	48 85 c0	 test	 rax, rax
  00dc0	0f 84 54 f2 ff
	ff		 je	 $LN154@init_types

; 928  :     if (!add_attributes(operator_type, NULL, 0)) return 0;

  00dc6	45 33 c0	 xor	 r8d, r8d
  00dc9	33 d2		 xor	 edx, edx
  00dcb	48 8b c8	 mov	 rcx, rax
  00dce	e8 00 00 00 00	 call	 add_attributes
  00dd3	85 c0		 test	 eax, eax
  00dd5	0f 84 3f f2 ff
	ff		 je	 $LN154@init_types

; 929  :     Add_type = make_type("Add", operator_type, NULL, 0);

  00ddb	48 8b 15 00 00
	00 00		 mov	 rdx, QWORD PTR operator_type
  00de2	48 8d 0d 00 00
	00 00		 lea	 rcx, OFFSET FLAT:??_C@_03LDFMNCOE@Add?$AA@
  00de9	45 33 c9	 xor	 r9d, r9d
  00dec	45 33 c0	 xor	 r8d, r8d
  00def	e8 00 00 00 00	 call	 make_type
  00df4	48 89 05 00 00
	00 00		 mov	 QWORD PTR Add_type, rax

; 930  :     if (!Add_type) return 0;

  00dfb	48 85 c0	 test	 rax, rax
  00dfe	0f 84 16 f2 ff
	ff		 je	 $LN154@init_types

; 931  :     Add_singleton = PyType_GenericNew(Add_type, NULL, NULL);

  00e04	45 33 c0	 xor	 r8d, r8d
  00e07	33 d2		 xor	 edx, edx
  00e09	48 8b c8	 mov	 rcx, rax
  00e0c	e8 00 00 00 00	 call	 PyType_GenericNew
  00e11	48 89 05 00 00
	00 00		 mov	 QWORD PTR Add_singleton, rax

; 932  :     if (!Add_singleton) return 0;

  00e18	48 85 c0	 test	 rax, rax
  00e1b	0f 84 f9 f1 ff
	ff		 je	 $LN154@init_types

; 933  :     Sub_type = make_type("Sub", operator_type, NULL, 0);

  00e21	48 8b 15 00 00
	00 00		 mov	 rdx, QWORD PTR operator_type
  00e28	48 8d 0d 00 00
	00 00		 lea	 rcx, OFFSET FLAT:??_C@_03CPCCDDB@Sub?$AA@
  00e2f	45 33 c9	 xor	 r9d, r9d
  00e32	45 33 c0	 xor	 r8d, r8d
  00e35	e8 00 00 00 00	 call	 make_type
  00e3a	48 89 05 00 00
	00 00		 mov	 QWORD PTR Sub_type, rax

; 934  :     if (!Sub_type) return 0;

  00e41	48 85 c0	 test	 rax, rax
  00e44	0f 84 d0 f1 ff
	ff		 je	 $LN154@init_types

; 935  :     Sub_singleton = PyType_GenericNew(Sub_type, NULL, NULL);

  00e4a	45 33 c0	 xor	 r8d, r8d
  00e4d	33 d2		 xor	 edx, edx
  00e4f	48 8b c8	 mov	 rcx, rax
  00e52	e8 00 00 00 00	 call	 PyType_GenericNew
  00e57	48 89 05 00 00
	00 00		 mov	 QWORD PTR Sub_singleton, rax

; 936  :     if (!Sub_singleton) return 0;

  00e5e	48 85 c0	 test	 rax, rax
  00e61	0f 84 b3 f1 ff
	ff		 je	 $LN154@init_types

; 937  :     Mult_type = make_type("Mult", operator_type, NULL, 0);

  00e67	48 8b 15 00 00
	00 00		 mov	 rdx, QWORD PTR operator_type
  00e6e	48 8d 0d 00 00
	00 00		 lea	 rcx, OFFSET FLAT:??_C@_04MPMBEKAC@Mult?$AA@
  00e75	45 33 c9	 xor	 r9d, r9d
  00e78	45 33 c0	 xor	 r8d, r8d
  00e7b	e8 00 00 00 00	 call	 make_type
  00e80	48 89 05 00 00
	00 00		 mov	 QWORD PTR Mult_type, rax

; 938  :     if (!Mult_type) return 0;

  00e87	48 85 c0	 test	 rax, rax
  00e8a	0f 84 8a f1 ff
	ff		 je	 $LN154@init_types

; 939  :     Mult_singleton = PyType_GenericNew(Mult_type, NULL, NULL);

  00e90	45 33 c0	 xor	 r8d, r8d
  00e93	33 d2		 xor	 edx, edx
  00e95	48 8b c8	 mov	 rcx, rax
  00e98	e8 00 00 00 00	 call	 PyType_GenericNew
  00e9d	48 89 05 00 00
	00 00		 mov	 QWORD PTR Mult_singleton, rax

; 940  :     if (!Mult_singleton) return 0;

  00ea4	48 85 c0	 test	 rax, rax
  00ea7	0f 84 6d f1 ff
	ff		 je	 $LN154@init_types

; 941  :     Div_type = make_type("Div", operator_type, NULL, 0);

  00ead	48 8b 15 00 00
	00 00		 mov	 rdx, QWORD PTR operator_type
  00eb4	48 8d 0d 00 00
	00 00		 lea	 rcx, OFFSET FLAT:??_C@_03PEKOMBFG@Div?$AA@
  00ebb	45 33 c9	 xor	 r9d, r9d
  00ebe	45 33 c0	 xor	 r8d, r8d
  00ec1	e8 00 00 00 00	 call	 make_type
  00ec6	48 89 05 00 00
	00 00		 mov	 QWORD PTR Div_type, rax

; 942  :     if (!Div_type) return 0;

  00ecd	48 85 c0	 test	 rax, rax
  00ed0	0f 84 44 f1 ff
	ff		 je	 $LN154@init_types

; 943  :     Div_singleton = PyType_GenericNew(Div_type, NULL, NULL);

  00ed6	45 33 c0	 xor	 r8d, r8d
  00ed9	33 d2		 xor	 edx, edx
  00edb	48 8b c8	 mov	 rcx, rax
  00ede	e8 00 00 00 00	 call	 PyType_GenericNew
  00ee3	48 89 05 00 00
	00 00		 mov	 QWORD PTR Div_singleton, rax

; 944  :     if (!Div_singleton) return 0;

  00eea	48 85 c0	 test	 rax, rax
  00eed	0f 84 27 f1 ff
	ff		 je	 $LN154@init_types

; 945  :     Mod_type = make_type("Mod", operator_type, NULL, 0);

  00ef3	48 8b 15 00 00
	00 00		 mov	 rdx, QWORD PTR operator_type
  00efa	48 8d 0d 00 00
	00 00		 lea	 rcx, OFFSET FLAT:??_C@_03PFNPICLN@Mod?$AA@
  00f01	45 33 c9	 xor	 r9d, r9d
  00f04	45 33 c0	 xor	 r8d, r8d
  00f07	e8 00 00 00 00	 call	 make_type
  00f0c	48 89 05 00 00
	00 00		 mov	 QWORD PTR Mod_type, rax

; 946  :     if (!Mod_type) return 0;

  00f13	48 85 c0	 test	 rax, rax
  00f16	0f 84 fe f0 ff
	ff		 je	 $LN154@init_types

; 947  :     Mod_singleton = PyType_GenericNew(Mod_type, NULL, NULL);

  00f1c	45 33 c0	 xor	 r8d, r8d
  00f1f	33 d2		 xor	 edx, edx
  00f21	48 8b c8	 mov	 rcx, rax
  00f24	e8 00 00 00 00	 call	 PyType_GenericNew
  00f29	48 89 05 00 00
	00 00		 mov	 QWORD PTR Mod_singleton, rax

; 948  :     if (!Mod_singleton) return 0;

  00f30	48 85 c0	 test	 rax, rax
  00f33	0f 84 e1 f0 ff
	ff		 je	 $LN154@init_types

; 949  :     Pow_type = make_type("Pow", operator_type, NULL, 0);

  00f39	48 8b 15 00 00
	00 00		 mov	 rdx, QWORD PTR operator_type
  00f40	48 8d 0d 00 00
	00 00		 lea	 rcx, OFFSET FLAT:??_C@_03DGEDEMGN@Pow?$AA@
  00f47	45 33 c9	 xor	 r9d, r9d
  00f4a	45 33 c0	 xor	 r8d, r8d
  00f4d	e8 00 00 00 00	 call	 make_type
  00f52	48 89 05 00 00
	00 00		 mov	 QWORD PTR Pow_type, rax

; 950  :     if (!Pow_type) return 0;

  00f59	48 85 c0	 test	 rax, rax
  00f5c	0f 84 b8 f0 ff
	ff		 je	 $LN154@init_types

; 951  :     Pow_singleton = PyType_GenericNew(Pow_type, NULL, NULL);

  00f62	45 33 c0	 xor	 r8d, r8d
  00f65	33 d2		 xor	 edx, edx
  00f67	48 8b c8	 mov	 rcx, rax
  00f6a	e8 00 00 00 00	 call	 PyType_GenericNew
  00f6f	48 89 05 00 00
	00 00		 mov	 QWORD PTR Pow_singleton, rax

; 952  :     if (!Pow_singleton) return 0;

  00f76	48 85 c0	 test	 rax, rax
  00f79	0f 84 9b f0 ff
	ff		 je	 $LN154@init_types

; 953  :     LShift_type = make_type("LShift", operator_type, NULL, 0);

  00f7f	48 8b 15 00 00
	00 00		 mov	 rdx, QWORD PTR operator_type
  00f86	48 8d 0d 00 00
	00 00		 lea	 rcx, OFFSET FLAT:??_C@_06IDEHMKLA@LShift?$AA@
  00f8d	45 33 c9	 xor	 r9d, r9d
  00f90	45 33 c0	 xor	 r8d, r8d
  00f93	e8 00 00 00 00	 call	 make_type
  00f98	48 89 05 00 00
	00 00		 mov	 QWORD PTR LShift_type, rax

; 954  :     if (!LShift_type) return 0;

  00f9f	48 85 c0	 test	 rax, rax
  00fa2	0f 84 72 f0 ff
	ff		 je	 $LN154@init_types

; 955  :     LShift_singleton = PyType_GenericNew(LShift_type, NULL, NULL);

  00fa8	45 33 c0	 xor	 r8d, r8d
  00fab	33 d2		 xor	 edx, edx
  00fad	48 8b c8	 mov	 rcx, rax
  00fb0	e8 00 00 00 00	 call	 PyType_GenericNew
  00fb5	48 89 05 00 00
	00 00		 mov	 QWORD PTR LShift_singleton, rax

; 956  :     if (!LShift_singleton) return 0;

  00fbc	48 85 c0	 test	 rax, rax
  00fbf	0f 84 55 f0 ff
	ff		 je	 $LN154@init_types

; 957  :     RShift_type = make_type("RShift", operator_type, NULL, 0);

  00fc5	48 8b 15 00 00
	00 00		 mov	 rdx, QWORD PTR operator_type
  00fcc	48 8d 0d 00 00
	00 00		 lea	 rcx, OFFSET FLAT:??_C@_06LEKGCNCD@RShift?$AA@
  00fd3	45 33 c9	 xor	 r9d, r9d
  00fd6	45 33 c0	 xor	 r8d, r8d
  00fd9	e8 00 00 00 00	 call	 make_type
  00fde	48 89 05 00 00
	00 00		 mov	 QWORD PTR RShift_type, rax

; 958  :     if (!RShift_type) return 0;

  00fe5	48 85 c0	 test	 rax, rax
  00fe8	0f 84 2c f0 ff
	ff		 je	 $LN154@init_types

; 959  :     RShift_singleton = PyType_GenericNew(RShift_type, NULL, NULL);

  00fee	45 33 c0	 xor	 r8d, r8d
  00ff1	33 d2		 xor	 edx, edx
  00ff3	48 8b c8	 mov	 rcx, rax
  00ff6	e8 00 00 00 00	 call	 PyType_GenericNew
  00ffb	48 89 05 00 00
	00 00		 mov	 QWORD PTR RShift_singleton, rax

; 960  :     if (!RShift_singleton) return 0;

  01002	48 85 c0	 test	 rax, rax
  01005	0f 84 0f f0 ff
	ff		 je	 $LN154@init_types

; 961  :     BitOr_type = make_type("BitOr", operator_type, NULL, 0);

  0100b	48 8b 15 00 00
	00 00		 mov	 rdx, QWORD PTR operator_type
  01012	48 8d 0d 00 00
	00 00		 lea	 rcx, OFFSET FLAT:??_C@_05BKBNAGEF@BitOr?$AA@
  01019	45 33 c9	 xor	 r9d, r9d
  0101c	45 33 c0	 xor	 r8d, r8d
  0101f	e8 00 00 00 00	 call	 make_type
  01024	48 89 05 00 00
	00 00		 mov	 QWORD PTR BitOr_type, rax

; 962  :     if (!BitOr_type) return 0;

  0102b	48 85 c0	 test	 rax, rax
  0102e	0f 84 e6 ef ff
	ff		 je	 $LN154@init_types

; 963  :     BitOr_singleton = PyType_GenericNew(BitOr_type, NULL, NULL);

  01034	45 33 c0	 xor	 r8d, r8d
  01037	33 d2		 xor	 edx, edx
  01039	48 8b c8	 mov	 rcx, rax
  0103c	e8 00 00 00 00	 call	 PyType_GenericNew
  01041	48 89 05 00 00
	00 00		 mov	 QWORD PTR BitOr_singleton, rax

; 964  :     if (!BitOr_singleton) return 0;

  01048	48 85 c0	 test	 rax, rax
  0104b	0f 84 c9 ef ff
	ff		 je	 $LN154@init_types

; 965  :     BitXor_type = make_type("BitXor", operator_type, NULL, 0);

  01051	48 8b 15 00 00
	00 00		 mov	 rdx, QWORD PTR operator_type
  01058	48 8d 0d 00 00
	00 00		 lea	 rcx, OFFSET FLAT:??_C@_06MCJFOMGI@BitXor?$AA@
  0105f	45 33 c9	 xor	 r9d, r9d
  01062	45 33 c0	 xor	 r8d, r8d
  01065	e8 00 00 00 00	 call	 make_type
  0106a	48 89 05 00 00
	00 00		 mov	 QWORD PTR BitXor_type, rax

; 966  :     if (!BitXor_type) return 0;

  01071	48 85 c0	 test	 rax, rax
  01074	0f 84 a0 ef ff
	ff		 je	 $LN154@init_types

; 967  :     BitXor_singleton = PyType_GenericNew(BitXor_type, NULL, NULL);

  0107a	45 33 c0	 xor	 r8d, r8d
  0107d	33 d2		 xor	 edx, edx
  0107f	48 8b c8	 mov	 rcx, rax
  01082	e8 00 00 00 00	 call	 PyType_GenericNew
  01087	48 89 05 00 00
	00 00		 mov	 QWORD PTR BitXor_singleton, rax

; 968  :     if (!BitXor_singleton) return 0;

  0108e	48 85 c0	 test	 rax, rax
  01091	0f 84 83 ef ff
	ff		 je	 $LN154@init_types

; 969  :     BitAnd_type = make_type("BitAnd", operator_type, NULL, 0);

  01097	48 8b 15 00 00
	00 00		 mov	 rdx, QWORD PTR operator_type
  0109e	48 8d 0d 00 00
	00 00		 lea	 rcx, OFFSET FLAT:??_C@_06PCNOCLJN@BitAnd?$AA@
  010a5	45 33 c9	 xor	 r9d, r9d
  010a8	45 33 c0	 xor	 r8d, r8d
  010ab	e8 00 00 00 00	 call	 make_type
  010b0	48 89 05 00 00
	00 00		 mov	 QWORD PTR BitAnd_type, rax

; 970  :     if (!BitAnd_type) return 0;

  010b7	48 85 c0	 test	 rax, rax
  010ba	0f 84 5a ef ff
	ff		 je	 $LN154@init_types

; 971  :     BitAnd_singleton = PyType_GenericNew(BitAnd_type, NULL, NULL);

  010c0	45 33 c0	 xor	 r8d, r8d
  010c3	33 d2		 xor	 edx, edx
  010c5	48 8b c8	 mov	 rcx, rax
  010c8	e8 00 00 00 00	 call	 PyType_GenericNew
  010cd	48 89 05 00 00
	00 00		 mov	 QWORD PTR BitAnd_singleton, rax

; 972  :     if (!BitAnd_singleton) return 0;

  010d4	48 85 c0	 test	 rax, rax
  010d7	0f 84 3d ef ff
	ff		 je	 $LN154@init_types

; 973  :     FloorDiv_type = make_type("FloorDiv", operator_type, NULL, 0);

  010dd	48 8b 15 00 00
	00 00		 mov	 rdx, QWORD PTR operator_type
  010e4	48 8d 0d 00 00
	00 00		 lea	 rcx, OFFSET FLAT:??_C@_08BOGBPHLB@FloorDiv?$AA@
  010eb	45 33 c9	 xor	 r9d, r9d
  010ee	45 33 c0	 xor	 r8d, r8d
  010f1	e8 00 00 00 00	 call	 make_type
  010f6	48 89 05 00 00
	00 00		 mov	 QWORD PTR FloorDiv_type, rax

; 974  :     if (!FloorDiv_type) return 0;

  010fd	48 85 c0	 test	 rax, rax
  01100	0f 84 14 ef ff
	ff		 je	 $LN154@init_types

; 975  :     FloorDiv_singleton = PyType_GenericNew(FloorDiv_type, NULL, NULL);

  01106	45 33 c0	 xor	 r8d, r8d
  01109	33 d2		 xor	 edx, edx
  0110b	48 8b c8	 mov	 rcx, rax
  0110e	e8 00 00 00 00	 call	 PyType_GenericNew
  01113	48 89 05 00 00
	00 00		 mov	 QWORD PTR FloorDiv_singleton, rax

; 976  :     if (!FloorDiv_singleton) return 0;

  0111a	48 85 c0	 test	 rax, rax
  0111d	0f 84 f7 ee ff
	ff		 je	 $LN154@init_types

; 977  :     unaryop_type = make_type("unaryop", &AST_type, NULL, 0);

  01123	48 8d 15 00 00
	00 00		 lea	 rdx, OFFSET FLAT:AST_type
  0112a	48 8d 0d 00 00
	00 00		 lea	 rcx, OFFSET FLAT:??_C@_07JPNNPNHH@unaryop?$AA@
  01131	45 33 c9	 xor	 r9d, r9d
  01134	45 33 c0	 xor	 r8d, r8d
  01137	e8 00 00 00 00	 call	 make_type
  0113c	48 89 05 00 00
	00 00		 mov	 QWORD PTR unaryop_type, rax

; 978  :     if (!unaryop_type) return 0;

  01143	48 85 c0	 test	 rax, rax
  01146	0f 84 ce ee ff
	ff		 je	 $LN154@init_types

; 979  :     if (!add_attributes(unaryop_type, NULL, 0)) return 0;

  0114c	45 33 c0	 xor	 r8d, r8d
  0114f	33 d2		 xor	 edx, edx
  01151	48 8b c8	 mov	 rcx, rax
  01154	e8 00 00 00 00	 call	 add_attributes
  01159	85 c0		 test	 eax, eax
  0115b	0f 84 b9 ee ff
	ff		 je	 $LN154@init_types

; 980  :     Invert_type = make_type("Invert", unaryop_type, NULL, 0);

  01161	48 8b 15 00 00
	00 00		 mov	 rdx, QWORD PTR unaryop_type
  01168	48 8d 0d 00 00
	00 00		 lea	 rcx, OFFSET FLAT:??_C@_06OHLCGMJD@Invert?$AA@
  0116f	45 33 c9	 xor	 r9d, r9d
  01172	45 33 c0	 xor	 r8d, r8d
  01175	e8 00 00 00 00	 call	 make_type
  0117a	48 89 05 00 00
	00 00		 mov	 QWORD PTR Invert_type, rax

; 981  :     if (!Invert_type) return 0;

  01181	48 85 c0	 test	 rax, rax
  01184	0f 84 90 ee ff
	ff		 je	 $LN154@init_types

; 982  :     Invert_singleton = PyType_GenericNew(Invert_type, NULL, NULL);

  0118a	45 33 c0	 xor	 r8d, r8d
  0118d	33 d2		 xor	 edx, edx
  0118f	48 8b c8	 mov	 rcx, rax
  01192	e8 00 00 00 00	 call	 PyType_GenericNew
  01197	48 89 05 00 00
	00 00		 mov	 QWORD PTR Invert_singleton, rax

; 983  :     if (!Invert_singleton) return 0;

  0119e	48 85 c0	 test	 rax, rax
  011a1	0f 84 73 ee ff
	ff		 je	 $LN154@init_types

; 984  :     Not_type = make_type("Not", unaryop_type, NULL, 0);

  011a7	48 8b 15 00 00
	00 00		 mov	 rdx, QWORD PTR unaryop_type
  011ae	48 8d 0d 00 00
	00 00		 lea	 rcx, OFFSET FLAT:??_C@_03KNKIDPAC@Not?$AA@
  011b5	45 33 c9	 xor	 r9d, r9d
  011b8	45 33 c0	 xor	 r8d, r8d
  011bb	e8 00 00 00 00	 call	 make_type
  011c0	48 89 05 00 00
	00 00		 mov	 QWORD PTR Not_type, rax

; 985  :     if (!Not_type) return 0;

  011c7	48 85 c0	 test	 rax, rax
  011ca	0f 84 4a ee ff
	ff		 je	 $LN154@init_types

; 986  :     Not_singleton = PyType_GenericNew(Not_type, NULL, NULL);

  011d0	45 33 c0	 xor	 r8d, r8d
  011d3	33 d2		 xor	 edx, edx
  011d5	48 8b c8	 mov	 rcx, rax
  011d8	e8 00 00 00 00	 call	 PyType_GenericNew
  011dd	48 89 05 00 00
	00 00		 mov	 QWORD PTR Not_singleton, rax

; 987  :     if (!Not_singleton) return 0;

  011e4	48 85 c0	 test	 rax, rax
  011e7	0f 84 2d ee ff
	ff		 je	 $LN154@init_types

; 988  :     UAdd_type = make_type("UAdd", unaryop_type, NULL, 0);

  011ed	48 8b 15 00 00
	00 00		 mov	 rdx, QWORD PTR unaryop_type
  011f4	48 8d 0d 00 00
	00 00		 lea	 rcx, OFFSET FLAT:??_C@_04KEMJLKFO@UAdd?$AA@
  011fb	45 33 c9	 xor	 r9d, r9d
  011fe	45 33 c0	 xor	 r8d, r8d
  01201	e8 00 00 00 00	 call	 make_type
  01206	48 89 05 00 00
	00 00		 mov	 QWORD PTR UAdd_type, rax

; 989  :     if (!UAdd_type) return 0;

  0120d	48 85 c0	 test	 rax, rax
  01210	0f 84 04 ee ff
	ff		 je	 $LN154@init_types

; 990  :     UAdd_singleton = PyType_GenericNew(UAdd_type, NULL, NULL);

  01216	45 33 c0	 xor	 r8d, r8d
  01219	33 d2		 xor	 edx, edx
  0121b	48 8b c8	 mov	 rcx, rax
  0121e	e8 00 00 00 00	 call	 PyType_GenericNew
  01223	48 89 05 00 00
	00 00		 mov	 QWORD PTR UAdd_singleton, rax

; 991  :     if (!UAdd_singleton) return 0;

  0122a	48 85 c0	 test	 rax, rax
  0122d	0f 84 e7 ed ff
	ff		 je	 $LN154@init_types

; 992  :     USub_type = make_type("USub", unaryop_type, NULL, 0);

  01233	48 8b 15 00 00
	00 00		 mov	 rdx, QWORD PTR unaryop_type
  0123a	48 8d 0d 00 00
	00 00		 lea	 rcx, OFFSET FLAT:??_C@_04BFGHELIL@USub?$AA@
  01241	45 33 c9	 xor	 r9d, r9d
  01244	45 33 c0	 xor	 r8d, r8d
  01247	e8 00 00 00 00	 call	 make_type
  0124c	48 89 05 00 00
	00 00		 mov	 QWORD PTR USub_type, rax

; 993  :     if (!USub_type) return 0;

  01253	48 85 c0	 test	 rax, rax
  01256	0f 84 be ed ff
	ff		 je	 $LN154@init_types

; 994  :     USub_singleton = PyType_GenericNew(USub_type, NULL, NULL);

  0125c	45 33 c0	 xor	 r8d, r8d
  0125f	33 d2		 xor	 edx, edx
  01261	48 8b c8	 mov	 rcx, rax
  01264	e8 00 00 00 00	 call	 PyType_GenericNew
  01269	48 89 05 00 00
	00 00		 mov	 QWORD PTR USub_singleton, rax

; 995  :     if (!USub_singleton) return 0;

  01270	48 85 c0	 test	 rax, rax
  01273	0f 84 a1 ed ff
	ff		 je	 $LN154@init_types

; 996  :     cmpop_type = make_type("cmpop", &AST_type, NULL, 0);

  01279	48 8d 15 00 00
	00 00		 lea	 rdx, OFFSET FLAT:AST_type
  01280	48 8d 0d 00 00
	00 00		 lea	 rcx, OFFSET FLAT:??_C@_05KGHEMFCD@cmpop?$AA@
  01287	45 33 c9	 xor	 r9d, r9d
  0128a	45 33 c0	 xor	 r8d, r8d
  0128d	e8 00 00 00 00	 call	 make_type
  01292	48 89 05 00 00
	00 00		 mov	 QWORD PTR cmpop_type, rax

; 997  :     if (!cmpop_type) return 0;

  01299	48 85 c0	 test	 rax, rax
  0129c	0f 84 78 ed ff
	ff		 je	 $LN154@init_types

; 998  :     if (!add_attributes(cmpop_type, NULL, 0)) return 0;

  012a2	45 33 c0	 xor	 r8d, r8d
  012a5	33 d2		 xor	 edx, edx
  012a7	48 8b c8	 mov	 rcx, rax
  012aa	e8 00 00 00 00	 call	 add_attributes
  012af	85 c0		 test	 eax, eax
  012b1	0f 84 63 ed ff
	ff		 je	 $LN154@init_types

; 999  :     Eq_type = make_type("Eq", cmpop_type, NULL, 0);

  012b7	48 8b 15 00 00
	00 00		 mov	 rdx, QWORD PTR cmpop_type
  012be	48 8d 0d 00 00
	00 00		 lea	 rcx, OFFSET FLAT:??_C@_02EAMLCBHB@Eq?$AA@
  012c5	45 33 c9	 xor	 r9d, r9d
  012c8	45 33 c0	 xor	 r8d, r8d
  012cb	e8 00 00 00 00	 call	 make_type
  012d0	48 89 05 00 00
	00 00		 mov	 QWORD PTR Eq_type, rax

; 1000 :     if (!Eq_type) return 0;

  012d7	48 85 c0	 test	 rax, rax
  012da	0f 84 3a ed ff
	ff		 je	 $LN154@init_types

; 1001 :     Eq_singleton = PyType_GenericNew(Eq_type, NULL, NULL);

  012e0	45 33 c0	 xor	 r8d, r8d
  012e3	33 d2		 xor	 edx, edx
  012e5	48 8b c8	 mov	 rcx, rax
  012e8	e8 00 00 00 00	 call	 PyType_GenericNew
  012ed	48 89 05 00 00
	00 00		 mov	 QWORD PTR Eq_singleton, rax

; 1002 :     if (!Eq_singleton) return 0;

  012f4	48 85 c0	 test	 rax, rax
  012f7	0f 84 1d ed ff
	ff		 je	 $LN154@init_types

; 1003 :     NotEq_type = make_type("NotEq", cmpop_type, NULL, 0);

  012fd	48 8b 15 00 00
	00 00		 mov	 rdx, QWORD PTR cmpop_type
  01304	48 8d 0d 00 00
	00 00		 lea	 rcx, OFFSET FLAT:??_C@_05MECFOFIL@NotEq?$AA@
  0130b	45 33 c9	 xor	 r9d, r9d
  0130e	45 33 c0	 xor	 r8d, r8d
  01311	e8 00 00 00 00	 call	 make_type
  01316	48 89 05 00 00
	00 00		 mov	 QWORD PTR NotEq_type, rax

; 1004 :     if (!NotEq_type) return 0;

  0131d	48 85 c0	 test	 rax, rax
  01320	0f 84 f4 ec ff
	ff		 je	 $LN154@init_types

; 1005 :     NotEq_singleton = PyType_GenericNew(NotEq_type, NULL, NULL);

  01326	45 33 c0	 xor	 r8d, r8d
  01329	33 d2		 xor	 edx, edx
  0132b	48 8b c8	 mov	 rcx, rax
  0132e	e8 00 00 00 00	 call	 PyType_GenericNew
  01333	48 89 05 00 00
	00 00		 mov	 QWORD PTR NotEq_singleton, rax

; 1006 :     if (!NotEq_singleton) return 0;

  0133a	48 85 c0	 test	 rax, rax
  0133d	0f 84 d7 ec ff
	ff		 je	 $LN154@init_types

; 1007 :     Lt_type = make_type("Lt", cmpop_type, NULL, 0);

  01343	48 8b 15 00 00
	00 00		 mov	 rdx, QWORD PTR cmpop_type
  0134a	48 8d 0d 00 00
	00 00		 lea	 rcx, OFFSET FLAT:??_C@_02DCGNOOLL@Lt?$AA@
  01351	45 33 c9	 xor	 r9d, r9d
  01354	45 33 c0	 xor	 r8d, r8d
  01357	e8 00 00 00 00	 call	 make_type
  0135c	48 89 05 00 00
	00 00		 mov	 QWORD PTR Lt_type, rax

; 1008 :     if (!Lt_type) return 0;

  01363	48 85 c0	 test	 rax, rax
  01366	0f 84 ae ec ff
	ff		 je	 $LN154@init_types

; 1009 :     Lt_singleton = PyType_GenericNew(Lt_type, NULL, NULL);

  0136c	45 33 c0	 xor	 r8d, r8d
  0136f	33 d2		 xor	 edx, edx
  01371	48 8b c8	 mov	 rcx, rax
  01374	e8 00 00 00 00	 call	 PyType_GenericNew
  01379	48 89 05 00 00
	00 00		 mov	 QWORD PTR Lt_singleton, rax

; 1010 :     if (!Lt_singleton) return 0;

  01380	48 85 c0	 test	 rax, rax
  01383	0f 84 91 ec ff
	ff		 je	 $LN154@init_types

; 1011 :     LtE_type = make_type("LtE", cmpop_type, NULL, 0);

  01389	48 8b 15 00 00
	00 00		 mov	 rdx, QWORD PTR cmpop_type
  01390	48 8d 0d 00 00
	00 00		 lea	 rcx, OFFSET FLAT:??_C@_03NBIPLMKK@LtE?$AA@
  01397	45 33 c9	 xor	 r9d, r9d
  0139a	45 33 c0	 xor	 r8d, r8d
  0139d	e8 00 00 00 00	 call	 make_type
  013a2	48 89 05 00 00
	00 00		 mov	 QWORD PTR LtE_type, rax

; 1012 :     if (!LtE_type) return 0;

  013a9	48 85 c0	 test	 rax, rax
  013ac	0f 84 68 ec ff
	ff		 je	 $LN154@init_types

; 1013 :     LtE_singleton = PyType_GenericNew(LtE_type, NULL, NULL);

  013b2	45 33 c0	 xor	 r8d, r8d
  013b5	33 d2		 xor	 edx, edx
  013b7	48 8b c8	 mov	 rcx, rax
  013ba	e8 00 00 00 00	 call	 PyType_GenericNew
  013bf	48 89 05 00 00
	00 00		 mov	 QWORD PTR LtE_singleton, rax

; 1014 :     if (!LtE_singleton) return 0;

  013c6	48 85 c0	 test	 rax, rax
  013c9	0f 84 4b ec ff
	ff		 je	 $LN154@init_types

; 1015 :     Gt_type = make_type("Gt", cmpop_type, NULL, 0);

  013cf	48 8b 15 00 00
	00 00		 mov	 rdx, QWORD PTR cmpop_type
  013d6	48 8d 0d 00 00
	00 00		 lea	 rcx, OFFSET FLAT:??_C@_02DODIABFK@Gt?$AA@
  013dd	45 33 c9	 xor	 r9d, r9d
  013e0	45 33 c0	 xor	 r8d, r8d
  013e3	e8 00 00 00 00	 call	 make_type
  013e8	48 89 05 00 00
	00 00		 mov	 QWORD PTR Gt_type, rax

; 1016 :     if (!Gt_type) return 0;

  013ef	48 85 c0	 test	 rax, rax
  013f2	0f 84 22 ec ff
	ff		 je	 $LN154@init_types

; 1017 :     Gt_singleton = PyType_GenericNew(Gt_type, NULL, NULL);

  013f8	45 33 c0	 xor	 r8d, r8d
  013fb	33 d2		 xor	 edx, edx
  013fd	48 8b c8	 mov	 rcx, rax
  01400	e8 00 00 00 00	 call	 PyType_GenericNew
  01405	48 89 05 00 00
	00 00		 mov	 QWORD PTR Gt_singleton, rax

; 1018 :     if (!Gt_singleton) return 0;

  0140c	48 85 c0	 test	 rax, rax
  0140f	0f 84 05 ec ff
	ff		 je	 $LN154@init_types

; 1019 :     GtE_type = make_type("GtE", cmpop_type, NULL, 0);

  01415	48 8b 15 00 00
	00 00		 mov	 rdx, QWORD PTR cmpop_type
  0141c	48 8d 0d 00 00
	00 00		 lea	 rcx, OFFSET FLAT:??_C@_03GIODLKL@GtE?$AA@
  01423	45 33 c9	 xor	 r9d, r9d
  01426	45 33 c0	 xor	 r8d, r8d
  01429	e8 00 00 00 00	 call	 make_type
  0142e	48 89 05 00 00
	00 00		 mov	 QWORD PTR GtE_type, rax

; 1020 :     if (!GtE_type) return 0;

  01435	48 85 c0	 test	 rax, rax
  01438	0f 84 dc eb ff
	ff		 je	 $LN154@init_types

; 1021 :     GtE_singleton = PyType_GenericNew(GtE_type, NULL, NULL);

  0143e	45 33 c0	 xor	 r8d, r8d
  01441	33 d2		 xor	 edx, edx
  01443	48 8b c8	 mov	 rcx, rax
  01446	e8 00 00 00 00	 call	 PyType_GenericNew
  0144b	48 89 05 00 00
	00 00		 mov	 QWORD PTR GtE_singleton, rax

; 1022 :     if (!GtE_singleton) return 0;

  01452	48 85 c0	 test	 rax, rax
  01455	0f 84 bf eb ff
	ff		 je	 $LN154@init_types

; 1023 :     Is_type = make_type("Is", cmpop_type, NULL, 0);

  0145b	48 8b 15 00 00
	00 00		 mov	 rdx, QWORD PTR cmpop_type
  01462	48 8d 0d 00 00
	00 00		 lea	 rcx, OFFSET FLAT:??_C@_02HLOHLKJH@Is?$AA@
  01469	45 33 c9	 xor	 r9d, r9d
  0146c	45 33 c0	 xor	 r8d, r8d
  0146f	e8 00 00 00 00	 call	 make_type
  01474	48 89 05 00 00
	00 00		 mov	 QWORD PTR Is_type, rax

; 1024 :     if (!Is_type) return 0;

  0147b	48 85 c0	 test	 rax, rax
  0147e	0f 84 96 eb ff
	ff		 je	 $LN154@init_types

; 1025 :     Is_singleton = PyType_GenericNew(Is_type, NULL, NULL);

  01484	45 33 c0	 xor	 r8d, r8d
  01487	33 d2		 xor	 edx, edx
  01489	48 8b c8	 mov	 rcx, rax
  0148c	e8 00 00 00 00	 call	 PyType_GenericNew
  01491	48 89 05 00 00
	00 00		 mov	 QWORD PTR Is_singleton, rax

; 1026 :     if (!Is_singleton) return 0;

  01498	48 85 c0	 test	 rax, rax
  0149b	0f 84 79 eb ff
	ff		 je	 $LN154@init_types

; 1027 :     IsNot_type = make_type("IsNot", cmpop_type, NULL, 0);

  014a1	48 8b 15 00 00
	00 00		 mov	 rdx, QWORD PTR cmpop_type
  014a8	48 8d 0d 00 00
	00 00		 lea	 rcx, OFFSET FLAT:??_C@_05KLALIAAG@IsNot?$AA@
  014af	45 33 c9	 xor	 r9d, r9d
  014b2	45 33 c0	 xor	 r8d, r8d
  014b5	e8 00 00 00 00	 call	 make_type
  014ba	48 89 05 00 00
	00 00		 mov	 QWORD PTR IsNot_type, rax

; 1028 :     if (!IsNot_type) return 0;

  014c1	48 85 c0	 test	 rax, rax
  014c4	0f 84 50 eb ff
	ff		 je	 $LN154@init_types

; 1029 :     IsNot_singleton = PyType_GenericNew(IsNot_type, NULL, NULL);

  014ca	45 33 c0	 xor	 r8d, r8d
  014cd	33 d2		 xor	 edx, edx
  014cf	48 8b c8	 mov	 rcx, rax
  014d2	e8 00 00 00 00	 call	 PyType_GenericNew
  014d7	48 89 05 00 00
	00 00		 mov	 QWORD PTR IsNot_singleton, rax

; 1030 :     if (!IsNot_singleton) return 0;

  014de	48 85 c0	 test	 rax, rax
  014e1	0f 84 33 eb ff
	ff		 je	 $LN154@init_types

; 1031 :     In_type = make_type("In", cmpop_type, NULL, 0);

  014e7	48 8b 15 00 00
	00 00		 mov	 rdx, QWORD PTR cmpop_type
  014ee	48 8d 0d 00 00
	00 00		 lea	 rcx, OFFSET FLAT:??_C@_02IEILNGIL@In?$AA@
  014f5	45 33 c9	 xor	 r9d, r9d
  014f8	45 33 c0	 xor	 r8d, r8d
  014fb	e8 00 00 00 00	 call	 make_type
  01500	48 89 05 00 00
	00 00		 mov	 QWORD PTR In_type, rax

; 1032 :     if (!In_type) return 0;

  01507	48 85 c0	 test	 rax, rax
  0150a	0f 84 0a eb ff
	ff		 je	 $LN154@init_types

; 1033 :     In_singleton = PyType_GenericNew(In_type, NULL, NULL);

  01510	45 33 c0	 xor	 r8d, r8d
  01513	33 d2		 xor	 edx, edx
  01515	48 8b c8	 mov	 rcx, rax
  01518	e8 00 00 00 00	 call	 PyType_GenericNew
  0151d	48 89 05 00 00
	00 00		 mov	 QWORD PTR In_singleton, rax

; 1034 :     if (!In_singleton) return 0;

  01524	48 85 c0	 test	 rax, rax
  01527	0f 84 ed ea ff
	ff		 je	 $LN154@init_types

; 1035 :     NotIn_type = make_type("NotIn", cmpop_type, NULL, 0);

  0152d	48 8b 15 00 00
	00 00		 mov	 rdx, QWORD PTR cmpop_type
  01534	48 8d 0d 00 00
	00 00		 lea	 rcx, OFFSET FLAT:??_C@_05GFBCHB@NotIn?$AA@
  0153b	45 33 c9	 xor	 r9d, r9d
  0153e	45 33 c0	 xor	 r8d, r8d
  01541	e8 00 00 00 00	 call	 make_type
  01546	48 89 05 00 00
	00 00		 mov	 QWORD PTR NotIn_type, rax

; 1036 :     if (!NotIn_type) return 0;

  0154d	48 85 c0	 test	 rax, rax
  01550	0f 84 c4 ea ff
	ff		 je	 $LN154@init_types

; 1037 :     NotIn_singleton = PyType_GenericNew(NotIn_type, NULL, NULL);

  01556	45 33 c0	 xor	 r8d, r8d
  01559	33 d2		 xor	 edx, edx
  0155b	48 8b c8	 mov	 rcx, rax
  0155e	e8 00 00 00 00	 call	 PyType_GenericNew
  01563	48 89 05 00 00
	00 00		 mov	 QWORD PTR NotIn_singleton, rax

; 1038 :     if (!NotIn_singleton) return 0;

  0156a	48 85 c0	 test	 rax, rax
  0156d	0f 84 a7 ea ff
	ff		 je	 $LN154@init_types

; 1039 :     comprehension_type = make_type("comprehension", &AST_type,
; 1040 :                                    comprehension_fields, 3);

  01573	4c 8d 05 00 00
	00 00		 lea	 r8, OFFSET FLAT:comprehension_fields
  0157a	48 8d 15 00 00
	00 00		 lea	 rdx, OFFSET FLAT:AST_type
  01581	48 8d 0d 00 00
	00 00		 lea	 rcx, OFFSET FLAT:??_C@_0O@PDDLNDDO@comprehension?$AA@
  01588	41 b9 03 00 00
	00		 mov	 r9d, 3
  0158e	e8 00 00 00 00	 call	 make_type
  01593	48 89 05 00 00
	00 00		 mov	 QWORD PTR comprehension_type, rax

; 1041 :     if (!comprehension_type) return 0;

  0159a	48 85 c0	 test	 rax, rax
  0159d	0f 84 77 ea ff
	ff		 je	 $LN154@init_types

; 1042 :     excepthandler_type = make_type("excepthandler", &AST_type, NULL, 0);

  015a3	48 8d 15 00 00
	00 00		 lea	 rdx, OFFSET FLAT:AST_type
  015aa	48 8d 0d 00 00
	00 00		 lea	 rcx, OFFSET FLAT:??_C@_0O@LBOCECKK@excepthandler?$AA@
  015b1	45 33 c9	 xor	 r9d, r9d
  015b4	45 33 c0	 xor	 r8d, r8d
  015b7	e8 00 00 00 00	 call	 make_type
  015bc	48 89 05 00 00
	00 00		 mov	 QWORD PTR excepthandler_type, rax

; 1043 :     if (!excepthandler_type) return 0;

  015c3	48 85 c0	 test	 rax, rax
  015c6	0f 84 4e ea ff
	ff		 je	 $LN154@init_types

; 1044 :     if (!add_attributes(excepthandler_type, excepthandler_attributes, 2))

  015cc	48 8d 15 00 00
	00 00		 lea	 rdx, OFFSET FLAT:excepthandler_attributes
  015d3	41 b8 02 00 00
	00		 mov	 r8d, 2
  015d9	48 8b c8	 mov	 rcx, rax
  015dc	e8 00 00 00 00	 call	 add_attributes
  015e1	85 c0		 test	 eax, eax

; 1045 :         return 0;

  015e3	0f 84 31 ea ff
	ff		 je	 $LN154@init_types

; 1046 :     ExceptHandler_type = make_type("ExceptHandler", excepthandler_type,
; 1047 :                                    ExceptHandler_fields, 3);

  015e9	48 8b 15 00 00
	00 00		 mov	 rdx, QWORD PTR excepthandler_type
  015f0	4c 8d 05 00 00
	00 00		 lea	 r8, OFFSET FLAT:ExceptHandler_fields
  015f7	48 8d 0d 00 00
	00 00		 lea	 rcx, OFFSET FLAT:??_C@_0O@IFPAFICE@ExceptHandler?$AA@
  015fe	41 b9 03 00 00
	00		 mov	 r9d, 3
  01604	e8 00 00 00 00	 call	 make_type
  01609	48 89 05 00 00
	00 00		 mov	 QWORD PTR ExceptHandler_type, rax

; 1048 :     if (!ExceptHandler_type) return 0;

  01610	48 85 c0	 test	 rax, rax
  01613	0f 84 01 ea ff
	ff		 je	 $LN154@init_types

; 1049 :     arguments_type = make_type("arguments", &AST_type, arguments_fields, 8);

  01619	4c 8d 05 00 00
	00 00		 lea	 r8, OFFSET FLAT:arguments_fields
  01620	48 8d 15 00 00
	00 00		 lea	 rdx, OFFSET FLAT:AST_type
  01627	48 8d 0d 00 00
	00 00		 lea	 rcx, OFFSET FLAT:??_C@_09PBNAMLIK@arguments?$AA@
  0162e	41 b9 08 00 00
	00		 mov	 r9d, 8
  01634	e8 00 00 00 00	 call	 make_type
  01639	48 89 05 00 00
	00 00		 mov	 QWORD PTR arguments_type, rax

; 1050 :     if (!arguments_type) return 0;

  01640	48 85 c0	 test	 rax, rax
  01643	0f 84 d1 e9 ff
	ff		 je	 $LN154@init_types

; 1051 :     arg_type = make_type("arg", &AST_type, arg_fields, 2);

  01649	4c 8d 05 00 00
	00 00		 lea	 r8, OFFSET FLAT:arg_fields
  01650	48 8d 15 00 00
	00 00		 lea	 rdx, OFFSET FLAT:AST_type
  01657	48 8d 0d 00 00
	00 00		 lea	 rcx, OFFSET FLAT:??_C@_03CAOIPBNL@arg?$AA@
  0165e	41 b9 02 00 00
	00		 mov	 r9d, 2
  01664	e8 00 00 00 00	 call	 make_type
  01669	48 89 05 00 00
	00 00		 mov	 QWORD PTR arg_type, rax

; 1052 :     if (!arg_type) return 0;

  01670	48 85 c0	 test	 rax, rax
  01673	0f 84 a1 e9 ff
	ff		 je	 $LN154@init_types

; 1053 :     keyword_type = make_type("keyword", &AST_type, keyword_fields, 2);

  01679	4c 8d 05 00 00
	00 00		 lea	 r8, OFFSET FLAT:keyword_fields
  01680	48 8d 15 00 00
	00 00		 lea	 rdx, OFFSET FLAT:AST_type
  01687	48 8d 0d 00 00
	00 00		 lea	 rcx, OFFSET FLAT:??_C@_07JMKMGKCH@keyword?$AA@
  0168e	41 b9 02 00 00
	00		 mov	 r9d, 2
  01694	e8 00 00 00 00	 call	 make_type
  01699	48 89 05 00 00
	00 00		 mov	 QWORD PTR keyword_type, rax

; 1054 :     if (!keyword_type) return 0;

  016a0	48 85 c0	 test	 rax, rax
  016a3	0f 84 71 e9 ff
	ff		 je	 $LN154@init_types

; 1055 :     alias_type = make_type("alias", &AST_type, alias_fields, 2);

  016a9	4c 8d 05 00 00
	00 00		 lea	 r8, OFFSET FLAT:alias_fields
  016b0	48 8d 15 00 00
	00 00		 lea	 rdx, OFFSET FLAT:AST_type
  016b7	48 8d 0d 00 00
	00 00		 lea	 rcx, OFFSET FLAT:??_C@_05NKHOCLEE@alias?$AA@
  016be	41 b9 02 00 00
	00		 mov	 r9d, 2
  016c4	e8 00 00 00 00	 call	 make_type
  016c9	48 89 05 00 00
	00 00		 mov	 QWORD PTR alias_type, rax

; 1056 :     if (!alias_type) return 0;

  016d0	48 85 c0	 test	 rax, rax
  016d3	0f 84 41 e9 ff
	ff		 je	 $LN154@init_types

; 1057 :     withitem_type = make_type("withitem", &AST_type, withitem_fields, 2);

  016d9	4c 8d 05 00 00
	00 00		 lea	 r8, OFFSET FLAT:withitem_fields
  016e0	48 8d 15 00 00
	00 00		 lea	 rdx, OFFSET FLAT:AST_type
  016e7	48 8d 0d 00 00
	00 00		 lea	 rcx, OFFSET FLAT:??_C@_08FACALJAE@withitem?$AA@
  016ee	41 b9 02 00 00
	00		 mov	 r9d, 2
  016f4	e8 00 00 00 00	 call	 make_type
  016f9	48 89 05 00 00
	00 00		 mov	 QWORD PTR withitem_type, rax

; 1058 :     if (!withitem_type) return 0;

  01700	48 85 c0	 test	 rax, rax
  01703	0f 84 11 e9 ff
	ff		 je	 $LN154@init_types

; 1059 :     initialized = 1;

  01709	c7 05 00 00 00
	00 01 00 00 00	 mov	 DWORD PTR ?initialized@?1??init_types@@9@9, 1
$LN153@init_types:

; 1060 :     return 1;

  01713	b8 01 00 00 00	 mov	 eax, 1

; 1061 : }

  01718	48 83 c4 28	 add	 rsp, 40			; 00000028H
  0171c	c3		 ret	 0
init_types ENDP
_TEXT	ENDS
PUBLIC	_Py_Module
EXTRN	PyArena_Malloc:PROC
;	COMDAT pdata
pdata	SEGMENT
$pdata$_Py_Module DD imagerel $LN4
	DD	imagerel $LN4+52
	DD	imagerel $unwind$_Py_Module
pdata	ENDS
;	COMDAT xdata
xdata	SEGMENT
$unwind$_Py_Module DD 020601H
	DD	030023206H
; Function compile flags: /Ogtpy
xdata	ENDS
;	COMDAT _Py_Module
_TEXT	SEGMENT
body$ = 48
arena$ = 56
_Py_Module PROC						; COMDAT

; 1085 : {

$LN4:
  00000	40 53		 push	 rbx
  00002	48 83 ec 20	 sub	 rsp, 32			; 00000020H
  00006	48 8b c2	 mov	 rax, rdx
  00009	48 8b d9	 mov	 rbx, rcx

; 1086 :     mod_ty p;
; 1087 :     p = (mod_ty)PyArena_Malloc(arena, sizeof(*p));

  0000c	ba 10 00 00 00	 mov	 edx, 16
  00011	48 8b c8	 mov	 rcx, rax
  00014	e8 00 00 00 00	 call	 PyArena_Malloc

; 1088 :     if (!p)

  00019	48 85 c0	 test	 rax, rax
  0001c	75 06		 jne	 SHORT $LN1@Py_Module

; 1092 :     return p;
; 1093 : }

  0001e	48 83 c4 20	 add	 rsp, 32			; 00000020H
  00022	5b		 pop	 rbx
  00023	c3		 ret	 0
$LN1@Py_Module:

; 1089 :         return NULL;
; 1090 :     p->kind = Module_kind;

  00024	c7 00 01 00 00
	00		 mov	 DWORD PTR [rax], 1

; 1091 :     p->v.Module.body = body;

  0002a	48 89 58 08	 mov	 QWORD PTR [rax+8], rbx

; 1092 :     return p;
; 1093 : }

  0002e	48 83 c4 20	 add	 rsp, 32			; 00000020H
  00032	5b		 pop	 rbx
  00033	c3		 ret	 0
_Py_Module ENDP
_TEXT	ENDS
PUBLIC	_Py_Interactive
;	COMDAT pdata
pdata	SEGMENT
$pdata$_Py_Interactive DD imagerel $LN4
	DD	imagerel $LN4+52
	DD	imagerel $unwind$_Py_Interactive
pdata	ENDS
;	COMDAT xdata
xdata	SEGMENT
$unwind$_Py_Interactive DD 020601H
	DD	030023206H
; Function compile flags: /Ogtpy
xdata	ENDS
;	COMDAT _Py_Interactive
_TEXT	SEGMENT
body$ = 48
arena$ = 56
_Py_Interactive PROC					; COMDAT

; 1097 : {

$LN4:
  00000	40 53		 push	 rbx
  00002	48 83 ec 20	 sub	 rsp, 32			; 00000020H
  00006	48 8b c2	 mov	 rax, rdx
  00009	48 8b d9	 mov	 rbx, rcx

; 1098 :     mod_ty p;
; 1099 :     p = (mod_ty)PyArena_Malloc(arena, sizeof(*p));

  0000c	ba 10 00 00 00	 mov	 edx, 16
  00011	48 8b c8	 mov	 rcx, rax
  00014	e8 00 00 00 00	 call	 PyArena_Malloc

; 1100 :     if (!p)

  00019	48 85 c0	 test	 rax, rax
  0001c	75 06		 jne	 SHORT $LN1@Py_Interac

; 1104 :     return p;
; 1105 : }

  0001e	48 83 c4 20	 add	 rsp, 32			; 00000020H
  00022	5b		 pop	 rbx
  00023	c3		 ret	 0
$LN1@Py_Interac:

; 1101 :         return NULL;
; 1102 :     p->kind = Interactive_kind;

  00024	c7 00 02 00 00
	00		 mov	 DWORD PTR [rax], 2

; 1103 :     p->v.Interactive.body = body;

  0002a	48 89 58 08	 mov	 QWORD PTR [rax+8], rbx

; 1104 :     return p;
; 1105 : }

  0002e	48 83 c4 20	 add	 rsp, 32			; 00000020H
  00032	5b		 pop	 rbx
  00033	c3		 ret	 0
_Py_Interactive ENDP
_TEXT	ENDS
PUBLIC	??_C@_0CG@FKJOGGI@field?5body?5is?5required?5for?5Expre@ ; `string'
PUBLIC	_Py_Expression
;	COMDAT pdata
pdata	SEGMENT
$pdata$_Py_Expression DD imagerel $LN6
	DD	imagerel $LN6+78
	DD	imagerel $unwind$_Py_Expression
pdata	ENDS
;	COMDAT xdata
xdata	SEGMENT
$unwind$_Py_Expression DD 020601H
	DD	030023206H
xdata	ENDS
;	COMDAT ??_C@_0CG@FKJOGGI@field?5body?5is?5required?5for?5Expre@
CONST	SEGMENT
??_C@_0CG@FKJOGGI@field?5body?5is?5required?5for?5Expre@ DB 'field body i'
	DB	's required for Expression', 00H		; `string'
; Function compile flags: /Ogtpy
CONST	ENDS
;	COMDAT _Py_Expression
_TEXT	SEGMENT
body$ = 48
arena$ = 56
_Py_Expression PROC					; COMDAT

; 1109 : {

$LN6:
  00000	40 53		 push	 rbx
  00002	48 83 ec 20	 sub	 rsp, 32			; 00000020H
  00006	48 8b c2	 mov	 rax, rdx
  00009	48 8b d9	 mov	 rbx, rcx

; 1110 :     mod_ty p;
; 1111 :     if (!body) {

  0000c	48 85 c9	 test	 rcx, rcx
  0000f	75 1b		 jne	 SHORT $LN2@Py_Express

; 1112 :         PyErr_SetString(PyExc_ValueError,
; 1113 :                         "field body is required for Expression");

  00011	48 8b 0d 00 00
	00 00		 mov	 rcx, QWORD PTR PyExc_ValueError
  00018	48 8d 15 00 00
	00 00		 lea	 rdx, OFFSET FLAT:??_C@_0CG@FKJOGGI@field?5body?5is?5required?5for?5Expre@
  0001f	e8 00 00 00 00	 call	 PyErr_SetString
$LN5@Py_Express:

; 1114 :         return NULL;

  00024	33 c0		 xor	 eax, eax

; 1121 :     return p;
; 1122 : }

  00026	48 83 c4 20	 add	 rsp, 32			; 00000020H
  0002a	5b		 pop	 rbx
  0002b	c3		 ret	 0
$LN2@Py_Express:

; 1115 :     }
; 1116 :     p = (mod_ty)PyArena_Malloc(arena, sizeof(*p));

  0002c	ba 10 00 00 00	 mov	 edx, 16
  00031	48 8b c8	 mov	 rcx, rax
  00034	e8 00 00 00 00	 call	 PyArena_Malloc

; 1117 :     if (!p)

  00039	48 85 c0	 test	 rax, rax

; 1118 :         return NULL;

  0003c	74 e6		 je	 SHORT $LN5@Py_Express

; 1119 :     p->kind = Expression_kind;

  0003e	c7 00 03 00 00
	00		 mov	 DWORD PTR [rax], 3

; 1120 :     p->v.Expression.body = body;

  00044	48 89 58 08	 mov	 QWORD PTR [rax+8], rbx

; 1121 :     return p;
; 1122 : }

  00048	48 83 c4 20	 add	 rsp, 32			; 00000020H
  0004c	5b		 pop	 rbx
  0004d	c3		 ret	 0
_Py_Expression ENDP
_TEXT	ENDS
PUBLIC	_Py_Suite
;	COMDAT pdata
pdata	SEGMENT
$pdata$_Py_Suite DD imagerel $LN4
	DD	imagerel $LN4+52
	DD	imagerel $unwind$_Py_Suite
pdata	ENDS
;	COMDAT xdata
xdata	SEGMENT
$unwind$_Py_Suite DD 020601H
	DD	030023206H
; Function compile flags: /Ogtpy
xdata	ENDS
;	COMDAT _Py_Suite
_TEXT	SEGMENT
body$ = 48
arena$ = 56
_Py_Suite PROC						; COMDAT

; 1126 : {

$LN4:
  00000	40 53		 push	 rbx
  00002	48 83 ec 20	 sub	 rsp, 32			; 00000020H
  00006	48 8b c2	 mov	 rax, rdx
  00009	48 8b d9	 mov	 rbx, rcx

; 1127 :     mod_ty p;
; 1128 :     p = (mod_ty)PyArena_Malloc(arena, sizeof(*p));

  0000c	ba 10 00 00 00	 mov	 edx, 16
  00011	48 8b c8	 mov	 rcx, rax
  00014	e8 00 00 00 00	 call	 PyArena_Malloc

; 1129 :     if (!p)

  00019	48 85 c0	 test	 rax, rax
  0001c	75 06		 jne	 SHORT $LN1@Py_Suite

; 1133 :     return p;
; 1134 : }

  0001e	48 83 c4 20	 add	 rsp, 32			; 00000020H
  00022	5b		 pop	 rbx
  00023	c3		 ret	 0
$LN1@Py_Suite:

; 1130 :         return NULL;
; 1131 :     p->kind = Suite_kind;

  00024	c7 00 04 00 00
	00		 mov	 DWORD PTR [rax], 4

; 1132 :     p->v.Suite.body = body;

  0002a	48 89 58 08	 mov	 QWORD PTR [rax+8], rbx

; 1133 :     return p;
; 1134 : }

  0002e	48 83 c4 20	 add	 rsp, 32			; 00000020H
  00032	5b		 pop	 rbx
  00033	c3		 ret	 0
_Py_Suite ENDP
_TEXT	ENDS
PUBLIC	??_C@_0CH@PGGFMKGC@field?5args?5is?5required?5for?5Funct@ ; `string'
PUBLIC	??_C@_0CH@FNEFDOCM@field?5name?5is?5required?5for?5Funct@ ; `string'
PUBLIC	_Py_FunctionDef
;	COMDAT pdata
pdata	SEGMENT
$pdata$_Py_FunctionDef DD imagerel $LN7
	DD	imagerel $LN7+182
	DD	imagerel $unwind$_Py_FunctionDef
pdata	ENDS
;	COMDAT xdata
xdata	SEGMENT
$unwind$_Py_FunctionDef DD 081401H
	DD	086414H
	DD	075414H
	DD	063414H
	DD	070103214H
xdata	ENDS
;	COMDAT ??_C@_0CH@PGGFMKGC@field?5args?5is?5required?5for?5Funct@
CONST	SEGMENT
??_C@_0CH@PGGFMKGC@field?5args?5is?5required?5for?5Funct@ DB 'field args '
	DB	'is required for FunctionDef', 00H		; `string'
CONST	ENDS
;	COMDAT ??_C@_0CH@FNEFDOCM@field?5name?5is?5required?5for?5Funct@
CONST	SEGMENT
??_C@_0CH@FNEFDOCM@field?5name?5is?5required?5for?5Funct@ DB 'field name '
	DB	'is required for FunctionDef', 00H		; `string'
; Function compile flags: /Ogtpy
CONST	ENDS
;	COMDAT _Py_FunctionDef
_TEXT	SEGMENT
name$ = 48
args$ = 56
body$ = 64
decorator_list$ = 72
returns$ = 80
lineno$ = 88
col_offset$ = 96
arena$ = 104
_Py_FunctionDef PROC					; COMDAT

; 1140 : {

$LN7:
  00000	48 89 5c 24 08	 mov	 QWORD PTR [rsp+8], rbx
  00005	48 89 6c 24 10	 mov	 QWORD PTR [rsp+16], rbp
  0000a	48 89 74 24 18	 mov	 QWORD PTR [rsp+24], rsi
  0000f	57		 push	 rdi
  00010	48 83 ec 20	 sub	 rsp, 32			; 00000020H
  00014	49 8b f1	 mov	 rsi, r9
  00017	49 8b e8	 mov	 rbp, r8
  0001a	48 8b da	 mov	 rbx, rdx
  0001d	48 8b f9	 mov	 rdi, rcx

; 1141 :     stmt_ty p;
; 1142 :     if (!name) {

  00020	48 85 c9	 test	 rcx, rcx
  00023	75 17		 jne	 SHORT $LN3@Py_Functio

; 1143 :         PyErr_SetString(PyExc_ValueError,
; 1144 :                         "field name is required for FunctionDef");

  00025	48 8b 0d 00 00
	00 00		 mov	 rcx, QWORD PTR PyExc_ValueError
  0002c	48 8d 15 00 00
	00 00		 lea	 rdx, OFFSET FLAT:??_C@_0CH@FNEFDOCM@field?5name?5is?5required?5for?5Funct@
  00033	e8 00 00 00 00	 call	 PyErr_SetString
$LN6@Py_Functio:

; 1145 :         return NULL;

  00038	33 c0		 xor	 eax, eax
  0003a	eb 65		 jmp	 SHORT $LN4@Py_Functio
$LN3@Py_Functio:

; 1146 :     }
; 1147 :     if (!args) {

  0003c	48 85 d2	 test	 rdx, rdx
  0003f	75 17		 jne	 SHORT $LN2@Py_Functio

; 1148 :         PyErr_SetString(PyExc_ValueError,
; 1149 :                         "field args is required for FunctionDef");

  00041	48 8b 0d 00 00
	00 00		 mov	 rcx, QWORD PTR PyExc_ValueError
  00048	48 8d 15 00 00
	00 00		 lea	 rdx, OFFSET FLAT:??_C@_0CH@PGGFMKGC@field?5args?5is?5required?5for?5Funct@
  0004f	e8 00 00 00 00	 call	 PyErr_SetString

; 1150 :         return NULL;

  00054	33 c0		 xor	 eax, eax
  00056	eb 49		 jmp	 SHORT $LN4@Py_Functio
$LN2@Py_Functio:

; 1151 :     }
; 1152 :     p = (stmt_ty)PyArena_Malloc(arena, sizeof(*p));

  00058	48 8b 4c 24 68	 mov	 rcx, QWORD PTR arena$[rsp]
  0005d	ba 48 00 00 00	 mov	 edx, 72			; 00000048H
  00062	e8 00 00 00 00	 call	 PyArena_Malloc
  00067	4c 8b d8	 mov	 r11, rax

; 1153 :     if (!p)

  0006a	48 85 c0	 test	 rax, rax

; 1154 :         return NULL;

  0006d	74 c9		 je	 SHORT $LN6@Py_Functio

; 1155 :     p->kind = FunctionDef_kind;

  0006f	c7 00 01 00 00
	00		 mov	 DWORD PTR [rax], 1

; 1156 :     p->v.FunctionDef.name = name;

  00075	48 89 78 08	 mov	 QWORD PTR [rax+8], rdi

; 1157 :     p->v.FunctionDef.args = args;

  00079	48 89 58 10	 mov	 QWORD PTR [rax+16], rbx

; 1158 :     p->v.FunctionDef.body = body;

  0007d	48 89 68 18	 mov	 QWORD PTR [rax+24], rbp

; 1159 :     p->v.FunctionDef.decorator_list = decorator_list;

  00081	48 89 70 20	 mov	 QWORD PTR [rax+32], rsi

; 1160 :     p->v.FunctionDef.returns = returns;

  00085	48 8b 44 24 50	 mov	 rax, QWORD PTR returns$[rsp]
  0008a	49 89 43 28	 mov	 QWORD PTR [r11+40], rax

; 1161 :     p->lineno = lineno;

  0008e	8b 44 24 58	 mov	 eax, DWORD PTR lineno$[rsp]
  00092	41 89 43 40	 mov	 DWORD PTR [r11+64], eax

; 1162 :     p->col_offset = col_offset;

  00096	8b 44 24 60	 mov	 eax, DWORD PTR col_offset$[rsp]
  0009a	41 89 43 44	 mov	 DWORD PTR [r11+68], eax

; 1163 :     return p;

  0009e	49 8b c3	 mov	 rax, r11
$LN4@Py_Functio:

; 1164 : }

  000a1	48 8b 5c 24 30	 mov	 rbx, QWORD PTR [rsp+48]
  000a6	48 8b 6c 24 38	 mov	 rbp, QWORD PTR [rsp+56]
  000ab	48 8b 74 24 40	 mov	 rsi, QWORD PTR [rsp+64]
  000b0	48 83 c4 20	 add	 rsp, 32			; 00000020H
  000b4	5f		 pop	 rdi
  000b5	c3		 ret	 0
_Py_FunctionDef ENDP
_TEXT	ENDS
PUBLIC	??_C@_0CE@ELEMAPIN@field?5name?5is?5required?5for?5Class@ ; `string'
PUBLIC	_Py_ClassDef
;	COMDAT pdata
pdata	SEGMENT
$pdata$_Py_ClassDef DD imagerel $LN6
	DD	imagerel $LN6+172
	DD	imagerel $unwind$_Py_ClassDef
pdata	ENDS
;	COMDAT xdata
xdata	SEGMENT
$unwind$_Py_ClassDef DD 081401H
	DD	086414H
	DD	075414H
	DD	063414H
	DD	070103214H
xdata	ENDS
;	COMDAT ??_C@_0CE@ELEMAPIN@field?5name?5is?5required?5for?5Class@
CONST	SEGMENT
??_C@_0CE@ELEMAPIN@field?5name?5is?5required?5for?5Class@ DB 'field name '
	DB	'is required for ClassDef', 00H		; `string'
; Function compile flags: /Ogtpy
CONST	ENDS
;	COMDAT _Py_ClassDef
_TEXT	SEGMENT
name$ = 48
bases$ = 56
keywords$ = 64
starargs$ = 72
kwargs$ = 80
body$ = 88
decorator_list$ = 96
lineno$ = 104
col_offset$ = 112
arena$ = 120
_Py_ClassDef PROC					; COMDAT

; 1170 : {

$LN6:
  00000	48 89 5c 24 08	 mov	 QWORD PTR [rsp+8], rbx
  00005	48 89 6c 24 10	 mov	 QWORD PTR [rsp+16], rbp
  0000a	48 89 74 24 18	 mov	 QWORD PTR [rsp+24], rsi
  0000f	57		 push	 rdi
  00010	48 83 ec 20	 sub	 rsp, 32			; 00000020H
  00014	49 8b f9	 mov	 rdi, r9
  00017	49 8b f0	 mov	 rsi, r8
  0001a	48 8b ea	 mov	 rbp, rdx
  0001d	48 8b d9	 mov	 rbx, rcx

; 1171 :     stmt_ty p;
; 1172 :     if (!name) {

  00020	48 85 c9	 test	 rcx, rcx
  00023	75 17		 jne	 SHORT $LN2@Py_ClassDe

; 1173 :         PyErr_SetString(PyExc_ValueError,
; 1174 :                         "field name is required for ClassDef");

  00025	48 8b 0d 00 00
	00 00		 mov	 rcx, QWORD PTR PyExc_ValueError
  0002c	48 8d 15 00 00
	00 00		 lea	 rdx, OFFSET FLAT:??_C@_0CE@ELEMAPIN@field?5name?5is?5required?5for?5Class@
  00033	e8 00 00 00 00	 call	 PyErr_SetString
$LN5@Py_ClassDe:

; 1175 :         return NULL;

  00038	33 c0		 xor	 eax, eax
  0003a	eb 5b		 jmp	 SHORT $LN3@Py_ClassDe
$LN2@Py_ClassDe:

; 1176 :     }
; 1177 :     p = (stmt_ty)PyArena_Malloc(arena, sizeof(*p));

  0003c	48 8b 4c 24 78	 mov	 rcx, QWORD PTR arena$[rsp]
  00041	ba 48 00 00 00	 mov	 edx, 72			; 00000048H
  00046	e8 00 00 00 00	 call	 PyArena_Malloc
  0004b	4c 8b d8	 mov	 r11, rax

; 1178 :     if (!p)

  0004e	48 85 c0	 test	 rax, rax

; 1179 :         return NULL;

  00051	74 e5		 je	 SHORT $LN5@Py_ClassDe

; 1180 :     p->kind = ClassDef_kind;

  00053	c7 00 02 00 00
	00		 mov	 DWORD PTR [rax], 2

; 1181 :     p->v.ClassDef.name = name;

  00059	48 89 58 08	 mov	 QWORD PTR [rax+8], rbx

; 1182 :     p->v.ClassDef.bases = bases;

  0005d	48 89 68 10	 mov	 QWORD PTR [rax+16], rbp

; 1183 :     p->v.ClassDef.keywords = keywords;

  00061	48 89 70 18	 mov	 QWORD PTR [rax+24], rsi

; 1184 :     p->v.ClassDef.starargs = starargs;

  00065	48 89 78 20	 mov	 QWORD PTR [rax+32], rdi

; 1185 :     p->v.ClassDef.kwargs = kwargs;

  00069	48 8b 44 24 50	 mov	 rax, QWORD PTR kwargs$[rsp]
  0006e	49 89 43 28	 mov	 QWORD PTR [r11+40], rax

; 1186 :     p->v.ClassDef.body = body;

  00072	48 8b 44 24 58	 mov	 rax, QWORD PTR body$[rsp]
  00077	49 89 43 30	 mov	 QWORD PTR [r11+48], rax

; 1187 :     p->v.ClassDef.decorator_list = decorator_list;

  0007b	48 8b 44 24 60	 mov	 rax, QWORD PTR decorator_list$[rsp]
  00080	49 89 43 38	 mov	 QWORD PTR [r11+56], rax

; 1188 :     p->lineno = lineno;

  00084	8b 44 24 68	 mov	 eax, DWORD PTR lineno$[rsp]
  00088	41 89 43 40	 mov	 DWORD PTR [r11+64], eax

; 1189 :     p->col_offset = col_offset;

  0008c	8b 44 24 70	 mov	 eax, DWORD PTR col_offset$[rsp]
  00090	41 89 43 44	 mov	 DWORD PTR [r11+68], eax

; 1190 :     return p;

  00094	49 8b c3	 mov	 rax, r11
$LN3@Py_ClassDe:

; 1191 : }

  00097	48 8b 5c 24 30	 mov	 rbx, QWORD PTR [rsp+48]
  0009c	48 8b 6c 24 38	 mov	 rbp, QWORD PTR [rsp+56]
  000a1	48 8b 74 24 40	 mov	 rsi, QWORD PTR [rsp+64]
  000a6	48 83 c4 20	 add	 rsp, 32			; 00000020H
  000aa	5f		 pop	 rdi
  000ab	c3		 ret	 0
_Py_ClassDef ENDP
_TEXT	ENDS
PUBLIC	_Py_Return
;	COMDAT pdata
pdata	SEGMENT
$pdata$_Py_Return DD imagerel $LN4
	DD	imagerel $LN4+89
	DD	imagerel $unwind$_Py_Return
pdata	ENDS
;	COMDAT xdata
xdata	SEGMENT
$unwind$_Py_Return DD 060f01H
	DD	07640fH
	DD	06340fH
	DD	0700b320fH
; Function compile flags: /Ogtpy
xdata	ENDS
;	COMDAT _Py_Return
_TEXT	SEGMENT
value$ = 48
lineno$ = 56
col_offset$ = 64
arena$ = 72
_Py_Return PROC						; COMDAT

; 1195 : {

$LN4:
  00000	48 89 5c 24 08	 mov	 QWORD PTR [rsp+8], rbx
  00005	48 89 74 24 10	 mov	 QWORD PTR [rsp+16], rsi
  0000a	57		 push	 rdi
  0000b	48 83 ec 20	 sub	 rsp, 32			; 00000020H
  0000f	8b fa		 mov	 edi, edx
  00011	48 8b f1	 mov	 rsi, rcx

; 1196 :     stmt_ty p;
; 1197 :     p = (stmt_ty)PyArena_Malloc(arena, sizeof(*p));

  00014	ba 48 00 00 00	 mov	 edx, 72			; 00000048H
  00019	49 8b c9	 mov	 rcx, r9
  0001c	41 8b d8	 mov	 ebx, r8d
  0001f	e8 00 00 00 00	 call	 PyArena_Malloc

; 1198 :     if (!p)

  00024	48 85 c0	 test	 rax, rax
  00027	75 10		 jne	 SHORT $LN1@Py_Return

; 1202 :     p->lineno = lineno;
; 1203 :     p->col_offset = col_offset;
; 1204 :     return p;
; 1205 : }

  00029	48 8b 5c 24 30	 mov	 rbx, QWORD PTR [rsp+48]
  0002e	48 8b 74 24 38	 mov	 rsi, QWORD PTR [rsp+56]
  00033	48 83 c4 20	 add	 rsp, 32			; 00000020H
  00037	5f		 pop	 rdi
  00038	c3		 ret	 0
$LN1@Py_Return:

; 1199 :         return NULL;
; 1200 :     p->kind = Return_kind;
; 1201 :     p->v.Return.value = value;

  00039	48 89 70 08	 mov	 QWORD PTR [rax+8], rsi

; 1202 :     p->lineno = lineno;
; 1203 :     p->col_offset = col_offset;
; 1204 :     return p;
; 1205 : }

  0003d	48 8b 74 24 38	 mov	 rsi, QWORD PTR [rsp+56]
  00042	89 58 44	 mov	 DWORD PTR [rax+68], ebx
  00045	48 8b 5c 24 30	 mov	 rbx, QWORD PTR [rsp+48]
  0004a	c7 00 03 00 00
	00		 mov	 DWORD PTR [rax], 3
  00050	89 78 40	 mov	 DWORD PTR [rax+64], edi
  00053	48 83 c4 20	 add	 rsp, 32			; 00000020H
  00057	5f		 pop	 rdi
  00058	c3		 ret	 0
_Py_Return ENDP
_TEXT	ENDS
PUBLIC	_Py_Delete
;	COMDAT pdata
pdata	SEGMENT
$pdata$_Py_Delete DD imagerel $LN4
	DD	imagerel $LN4+89
	DD	imagerel $unwind$_Py_Delete
pdata	ENDS
;	COMDAT xdata
xdata	SEGMENT
$unwind$_Py_Delete DD 060f01H
	DD	07640fH
	DD	06340fH
	DD	0700b320fH
; Function compile flags: /Ogtpy
xdata	ENDS
;	COMDAT _Py_Delete
_TEXT	SEGMENT
targets$ = 48
lineno$ = 56
col_offset$ = 64
arena$ = 72
_Py_Delete PROC						; COMDAT

; 1209 : {

$LN4:
  00000	48 89 5c 24 08	 mov	 QWORD PTR [rsp+8], rbx
  00005	48 89 74 24 10	 mov	 QWORD PTR [rsp+16], rsi
  0000a	57		 push	 rdi
  0000b	48 83 ec 20	 sub	 rsp, 32			; 00000020H
  0000f	8b fa		 mov	 edi, edx
  00011	48 8b f1	 mov	 rsi, rcx

; 1210 :     stmt_ty p;
; 1211 :     p = (stmt_ty)PyArena_Malloc(arena, sizeof(*p));

  00014	ba 48 00 00 00	 mov	 edx, 72			; 00000048H
  00019	49 8b c9	 mov	 rcx, r9
  0001c	41 8b d8	 mov	 ebx, r8d
  0001f	e8 00 00 00 00	 call	 PyArena_Malloc

; 1212 :     if (!p)

  00024	48 85 c0	 test	 rax, rax
  00027	75 10		 jne	 SHORT $LN1@Py_Delete

; 1216 :     p->lineno = lineno;
; 1217 :     p->col_offset = col_offset;
; 1218 :     return p;
; 1219 : }

  00029	48 8b 5c 24 30	 mov	 rbx, QWORD PTR [rsp+48]
  0002e	48 8b 74 24 38	 mov	 rsi, QWORD PTR [rsp+56]
  00033	48 83 c4 20	 add	 rsp, 32			; 00000020H
  00037	5f		 pop	 rdi
  00038	c3		 ret	 0
$LN1@Py_Delete:

; 1213 :         return NULL;
; 1214 :     p->kind = Delete_kind;
; 1215 :     p->v.Delete.targets = targets;

  00039	48 89 70 08	 mov	 QWORD PTR [rax+8], rsi

; 1216 :     p->lineno = lineno;
; 1217 :     p->col_offset = col_offset;
; 1218 :     return p;
; 1219 : }

  0003d	48 8b 74 24 38	 mov	 rsi, QWORD PTR [rsp+56]
  00042	89 58 44	 mov	 DWORD PTR [rax+68], ebx
  00045	48 8b 5c 24 30	 mov	 rbx, QWORD PTR [rsp+48]
  0004a	c7 00 04 00 00
	00		 mov	 DWORD PTR [rax], 4
  00050	89 78 40	 mov	 DWORD PTR [rax+64], edi
  00053	48 83 c4 20	 add	 rsp, 32			; 00000020H
  00057	5f		 pop	 rdi
  00058	c3		 ret	 0
_Py_Delete ENDP
_TEXT	ENDS
PUBLIC	??_C@_0CD@PODDGPLK@field?5value?5is?5required?5for?5Assi@ ; `string'
PUBLIC	_Py_Assign
;	COMDAT pdata
pdata	SEGMENT
$pdata$_Py_Assign DD imagerel $LN6
	DD	imagerel $LN6+121
	DD	imagerel $unwind$_Py_Assign
pdata	ENDS
;	COMDAT xdata
xdata	SEGMENT
$unwind$_Py_Assign DD 081401H
	DD	086414H
	DD	075414H
	DD	063414H
	DD	070103214H
xdata	ENDS
;	COMDAT ??_C@_0CD@PODDGPLK@field?5value?5is?5required?5for?5Assi@
CONST	SEGMENT
??_C@_0CD@PODDGPLK@field?5value?5is?5required?5for?5Assi@ DB 'field value'
	DB	' is required for Assign', 00H		; `string'
; Function compile flags: /Ogtpy
CONST	ENDS
;	COMDAT _Py_Assign
_TEXT	SEGMENT
targets$ = 48
value$ = 56
lineno$ = 64
col_offset$ = 72
arena$ = 80
_Py_Assign PROC						; COMDAT

; 1224 : {

$LN6:
  00000	48 89 5c 24 08	 mov	 QWORD PTR [rsp+8], rbx
  00005	48 89 6c 24 10	 mov	 QWORD PTR [rsp+16], rbp
  0000a	48 89 74 24 18	 mov	 QWORD PTR [rsp+24], rsi
  0000f	57		 push	 rdi
  00010	48 83 ec 20	 sub	 rsp, 32			; 00000020H
  00014	41 8b f9	 mov	 edi, r9d
  00017	41 8b f0	 mov	 esi, r8d
  0001a	48 8b da	 mov	 rbx, rdx
  0001d	48 8b e9	 mov	 rbp, rcx

; 1225 :     stmt_ty p;
; 1226 :     if (!value) {

  00020	48 85 d2	 test	 rdx, rdx
  00023	75 17		 jne	 SHORT $LN2@Py_Assign

; 1227 :         PyErr_SetString(PyExc_ValueError,
; 1228 :                         "field value is required for Assign");

  00025	48 8b 0d 00 00
	00 00		 mov	 rcx, QWORD PTR PyExc_ValueError
  0002c	48 8d 15 00 00
	00 00		 lea	 rdx, OFFSET FLAT:??_C@_0CD@PODDGPLK@field?5value?5is?5required?5for?5Assi@
  00033	e8 00 00 00 00	 call	 PyErr_SetString
$LN5@Py_Assign:

; 1229 :         return NULL;

  00038	33 c0		 xor	 eax, eax
  0003a	eb 28		 jmp	 SHORT $LN3@Py_Assign
$LN2@Py_Assign:

; 1230 :     }
; 1231 :     p = (stmt_ty)PyArena_Malloc(arena, sizeof(*p));

  0003c	48 8b 4c 24 50	 mov	 rcx, QWORD PTR arena$[rsp]
  00041	ba 48 00 00 00	 mov	 edx, 72			; 00000048H
  00046	e8 00 00 00 00	 call	 PyArena_Malloc

; 1232 :     if (!p)

  0004b	48 85 c0	 test	 rax, rax

; 1233 :         return NULL;

  0004e	74 e8		 je	 SHORT $LN5@Py_Assign

; 1234 :     p->kind = Assign_kind;

  00050	c7 00 05 00 00
	00		 mov	 DWORD PTR [rax], 5

; 1235 :     p->v.Assign.targets = targets;

  00056	48 89 68 08	 mov	 QWORD PTR [rax+8], rbp

; 1236 :     p->v.Assign.value = value;

  0005a	48 89 58 10	 mov	 QWORD PTR [rax+16], rbx

; 1237 :     p->lineno = lineno;

  0005e	89 70 40	 mov	 DWORD PTR [rax+64], esi

; 1238 :     p->col_offset = col_offset;

  00061	89 78 44	 mov	 DWORD PTR [rax+68], edi
$LN3@Py_Assign:

; 1239 :     return p;
; 1240 : }

  00064	48 8b 5c 24 30	 mov	 rbx, QWORD PTR [rsp+48]
  00069	48 8b 6c 24 38	 mov	 rbp, QWORD PTR [rsp+56]
  0006e	48 8b 74 24 40	 mov	 rsi, QWORD PTR [rsp+64]
  00073	48 83 c4 20	 add	 rsp, 32			; 00000020H
  00077	5f		 pop	 rdi
  00078	c3		 ret	 0
_Py_Assign ENDP
_TEXT	ENDS
PUBLIC	??_C@_0CG@BCDKGMFN@field?5value?5is?5required?5for?5AugA@ ; `string'
PUBLIC	??_C@_0CD@HEMJKCOB@field?5op?5is?5required?5for?5AugAssi@ ; `string'
PUBLIC	??_C@_0CH@IMOJNEGG@field?5target?5is?5required?5for?5Aug@ ; `string'
PUBLIC	_Py_AugAssign
;	COMDAT pdata
pdata	SEGMENT
$pdata$_Py_AugAssign DD imagerel $LN8
	DD	imagerel $LN8+189
	DD	imagerel $unwind$_Py_AugAssign
pdata	ENDS
;	COMDAT xdata
xdata	SEGMENT
$unwind$_Py_AugAssign DD 081401H
	DD	086414H
	DD	075414H
	DD	063414H
	DD	070103214H
xdata	ENDS
;	COMDAT ??_C@_0CG@BCDKGMFN@field?5value?5is?5required?5for?5AugA@
CONST	SEGMENT
??_C@_0CG@BCDKGMFN@field?5value?5is?5required?5for?5AugA@ DB 'field value'
	DB	' is required for AugAssign', 00H		; `string'
CONST	ENDS
;	COMDAT ??_C@_0CD@HEMJKCOB@field?5op?5is?5required?5for?5AugAssi@
CONST	SEGMENT
??_C@_0CD@HEMJKCOB@field?5op?5is?5required?5for?5AugAssi@ DB 'field op is'
	DB	' required for AugAssign', 00H		; `string'
CONST	ENDS
;	COMDAT ??_C@_0CH@IMOJNEGG@field?5target?5is?5required?5for?5Aug@
CONST	SEGMENT
??_C@_0CH@IMOJNEGG@field?5target?5is?5required?5for?5Aug@ DB 'field targe'
	DB	't is required for AugAssign', 00H		; `string'
; Function compile flags: /Ogtpy
CONST	ENDS
;	COMDAT _Py_AugAssign
_TEXT	SEGMENT
target$ = 48
op$ = 56
value$ = 64
lineno$ = 72
col_offset$ = 80
arena$ = 88
_Py_AugAssign PROC					; COMDAT

; 1245 : {

$LN8:
  00000	48 89 5c 24 08	 mov	 QWORD PTR [rsp+8], rbx
  00005	48 89 6c 24 10	 mov	 QWORD PTR [rsp+16], rbp
  0000a	48 89 74 24 18	 mov	 QWORD PTR [rsp+24], rsi
  0000f	57		 push	 rdi
  00010	48 83 ec 20	 sub	 rsp, 32			; 00000020H
  00014	41 8b e9	 mov	 ebp, r9d
  00017	49 8b d8	 mov	 rbx, r8
  0001a	8b fa		 mov	 edi, edx
  0001c	48 8b f1	 mov	 rsi, rcx

; 1246 :     stmt_ty p;
; 1247 :     if (!target) {

  0001f	48 85 c9	 test	 rcx, rcx
  00022	75 17		 jne	 SHORT $LN4@Py_AugAssi

; 1248 :         PyErr_SetString(PyExc_ValueError,
; 1249 :                         "field target is required for AugAssign");

  00024	48 8b 0d 00 00
	00 00		 mov	 rcx, QWORD PTR PyExc_ValueError
  0002b	48 8d 15 00 00
	00 00		 lea	 rdx, OFFSET FLAT:??_C@_0CH@IMOJNEGG@field?5target?5is?5required?5for?5Aug@
  00032	e8 00 00 00 00	 call	 PyErr_SetString
$LN7@Py_AugAssi:

; 1250 :         return NULL;

  00037	33 c0		 xor	 eax, eax
  00039	eb 6d		 jmp	 SHORT $LN5@Py_AugAssi
$LN4@Py_AugAssi:

; 1251 :     }
; 1252 :     if (!op) {

  0003b	85 d2		 test	 edx, edx
  0003d	75 17		 jne	 SHORT $LN3@Py_AugAssi

; 1253 :         PyErr_SetString(PyExc_ValueError,
; 1254 :                         "field op is required for AugAssign");

  0003f	48 8b 0d 00 00
	00 00		 mov	 rcx, QWORD PTR PyExc_ValueError
  00046	48 8d 15 00 00
	00 00		 lea	 rdx, OFFSET FLAT:??_C@_0CD@HEMJKCOB@field?5op?5is?5required?5for?5AugAssi@
  0004d	e8 00 00 00 00	 call	 PyErr_SetString

; 1255 :         return NULL;

  00052	33 c0		 xor	 eax, eax
  00054	eb 52		 jmp	 SHORT $LN5@Py_AugAssi
$LN3@Py_AugAssi:

; 1256 :     }
; 1257 :     if (!value) {

  00056	48 85 db	 test	 rbx, rbx
  00059	75 17		 jne	 SHORT $LN2@Py_AugAssi

; 1258 :         PyErr_SetString(PyExc_ValueError,
; 1259 :                         "field value is required for AugAssign");

  0005b	48 8b 0d 00 00
	00 00		 mov	 rcx, QWORD PTR PyExc_ValueError
  00062	48 8d 15 00 00
	00 00		 lea	 rdx, OFFSET FLAT:??_C@_0CG@BCDKGMFN@field?5value?5is?5required?5for?5AugA@
  00069	e8 00 00 00 00	 call	 PyErr_SetString

; 1260 :         return NULL;

  0006e	33 c0		 xor	 eax, eax
  00070	eb 36		 jmp	 SHORT $LN5@Py_AugAssi
$LN2@Py_AugAssi:

; 1261 :     }
; 1262 :     p = (stmt_ty)PyArena_Malloc(arena, sizeof(*p));

  00072	48 8b 4c 24 58	 mov	 rcx, QWORD PTR arena$[rsp]
  00077	ba 48 00 00 00	 mov	 edx, 72			; 00000048H
  0007c	e8 00 00 00 00	 call	 PyArena_Malloc
  00081	4c 8b d8	 mov	 r11, rax

; 1263 :     if (!p)

  00084	48 85 c0	 test	 rax, rax

; 1264 :         return NULL;

  00087	74 ae		 je	 SHORT $LN7@Py_AugAssi

; 1265 :     p->kind = AugAssign_kind;

  00089	c7 00 06 00 00
	00		 mov	 DWORD PTR [rax], 6

; 1266 :     p->v.AugAssign.target = target;

  0008f	48 89 70 08	 mov	 QWORD PTR [rax+8], rsi

; 1267 :     p->v.AugAssign.op = op;

  00093	89 78 10	 mov	 DWORD PTR [rax+16], edi

; 1268 :     p->v.AugAssign.value = value;

  00096	48 89 58 18	 mov	 QWORD PTR [rax+24], rbx

; 1269 :     p->lineno = lineno;

  0009a	89 68 40	 mov	 DWORD PTR [rax+64], ebp

; 1270 :     p->col_offset = col_offset;

  0009d	8b 44 24 50	 mov	 eax, DWORD PTR col_offset$[rsp]
  000a1	41 89 43 44	 mov	 DWORD PTR [r11+68], eax

; 1271 :     return p;

  000a5	49 8b c3	 mov	 rax, r11
$LN5@Py_AugAssi:

; 1272 : }

  000a8	48 8b 5c 24 30	 mov	 rbx, QWORD PTR [rsp+48]
  000ad	48 8b 6c 24 38	 mov	 rbp, QWORD PTR [rsp+56]
  000b2	48 8b 74 24 40	 mov	 rsi, QWORD PTR [rsp+64]
  000b7	48 83 c4 20	 add	 rsp, 32			; 00000020H
  000bb	5f		 pop	 rdi
  000bc	c3		 ret	 0
_Py_AugAssign ENDP
_TEXT	ENDS
PUBLIC	??_C@_0BP@LGGBEOKE@field?5iter?5is?5required?5for?5For?$AA@ ; `string'
PUBLIC	??_C@_0CB@EFAGNOAJ@field?5target?5is?5required?5for?5For@ ; `string'
PUBLIC	_Py_For
;	COMDAT pdata
pdata	SEGMENT
$pdata$_Py_For DD imagerel $LN7
	DD	imagerel $LN7+173
	DD	imagerel $unwind$_Py_For
pdata	ENDS
;	COMDAT xdata
xdata	SEGMENT
$unwind$_Py_For DD 081401H
	DD	086414H
	DD	075414H
	DD	063414H
	DD	070103214H
xdata	ENDS
;	COMDAT ??_C@_0BP@LGGBEOKE@field?5iter?5is?5required?5for?5For?$AA@
CONST	SEGMENT
??_C@_0BP@LGGBEOKE@field?5iter?5is?5required?5for?5For?$AA@ DB 'field ite'
	DB	'r is required for For', 00H			; `string'
CONST	ENDS
;	COMDAT ??_C@_0CB@EFAGNOAJ@field?5target?5is?5required?5for?5For@
CONST	SEGMENT
??_C@_0CB@EFAGNOAJ@field?5target?5is?5required?5for?5For@ DB 'field targe'
	DB	't is required for For', 00H			; `string'
; Function compile flags: /Ogtpy
CONST	ENDS
;	COMDAT _Py_For
_TEXT	SEGMENT
target$ = 48
iter$ = 56
body$ = 64
orelse$ = 72
lineno$ = 80
col_offset$ = 88
arena$ = 96
_Py_For	PROC						; COMDAT

; 1277 : {

$LN7:
  00000	48 89 5c 24 08	 mov	 QWORD PTR [rsp+8], rbx
  00005	48 89 6c 24 10	 mov	 QWORD PTR [rsp+16], rbp
  0000a	48 89 74 24 18	 mov	 QWORD PTR [rsp+24], rsi
  0000f	57		 push	 rdi
  00010	48 83 ec 20	 sub	 rsp, 32			; 00000020H
  00014	49 8b f1	 mov	 rsi, r9
  00017	49 8b e8	 mov	 rbp, r8
  0001a	48 8b da	 mov	 rbx, rdx
  0001d	48 8b f9	 mov	 rdi, rcx

; 1278 :     stmt_ty p;
; 1279 :     if (!target) {

  00020	48 85 c9	 test	 rcx, rcx
  00023	75 17		 jne	 SHORT $LN3@Py_For

; 1280 :         PyErr_SetString(PyExc_ValueError,
; 1281 :                         "field target is required for For");

  00025	48 8b 0d 00 00
	00 00		 mov	 rcx, QWORD PTR PyExc_ValueError
  0002c	48 8d 15 00 00
	00 00		 lea	 rdx, OFFSET FLAT:??_C@_0CB@EFAGNOAJ@field?5target?5is?5required?5for?5For@
  00033	e8 00 00 00 00	 call	 PyErr_SetString
$LN6@Py_For:

; 1282 :         return NULL;

  00038	33 c0		 xor	 eax, eax
  0003a	eb 5c		 jmp	 SHORT $LN4@Py_For
$LN3@Py_For:

; 1283 :     }
; 1284 :     if (!iter) {

  0003c	48 85 d2	 test	 rdx, rdx
  0003f	75 17		 jne	 SHORT $LN2@Py_For

; 1285 :         PyErr_SetString(PyExc_ValueError,
; 1286 :                         "field iter is required for For");

  00041	48 8b 0d 00 00
	00 00		 mov	 rcx, QWORD PTR PyExc_ValueError
  00048	48 8d 15 00 00
	00 00		 lea	 rdx, OFFSET FLAT:??_C@_0BP@LGGBEOKE@field?5iter?5is?5required?5for?5For?$AA@
  0004f	e8 00 00 00 00	 call	 PyErr_SetString

; 1287 :         return NULL;

  00054	33 c0		 xor	 eax, eax
  00056	eb 40		 jmp	 SHORT $LN4@Py_For
$LN2@Py_For:

; 1288 :     }
; 1289 :     p = (stmt_ty)PyArena_Malloc(arena, sizeof(*p));

  00058	48 8b 4c 24 60	 mov	 rcx, QWORD PTR arena$[rsp]
  0005d	ba 48 00 00 00	 mov	 edx, 72			; 00000048H
  00062	e8 00 00 00 00	 call	 PyArena_Malloc
  00067	4c 8b d8	 mov	 r11, rax

; 1290 :     if (!p)

  0006a	48 85 c0	 test	 rax, rax

; 1291 :         return NULL;

  0006d	74 c9		 je	 SHORT $LN6@Py_For

; 1292 :     p->kind = For_kind;

  0006f	c7 00 07 00 00
	00		 mov	 DWORD PTR [rax], 7

; 1293 :     p->v.For.target = target;

  00075	48 89 78 08	 mov	 QWORD PTR [rax+8], rdi

; 1294 :     p->v.For.iter = iter;

  00079	48 89 58 10	 mov	 QWORD PTR [rax+16], rbx

; 1295 :     p->v.For.body = body;

  0007d	48 89 68 18	 mov	 QWORD PTR [rax+24], rbp

; 1296 :     p->v.For.orelse = orelse;

  00081	48 89 70 20	 mov	 QWORD PTR [rax+32], rsi

; 1297 :     p->lineno = lineno;

  00085	8b 44 24 50	 mov	 eax, DWORD PTR lineno$[rsp]
  00089	41 89 43 40	 mov	 DWORD PTR [r11+64], eax

; 1298 :     p->col_offset = col_offset;

  0008d	8b 44 24 58	 mov	 eax, DWORD PTR col_offset$[rsp]
  00091	41 89 43 44	 mov	 DWORD PTR [r11+68], eax

; 1299 :     return p;

  00095	49 8b c3	 mov	 rax, r11
$LN4@Py_For:

; 1300 : }

  00098	48 8b 5c 24 30	 mov	 rbx, QWORD PTR [rsp+48]
  0009d	48 8b 6c 24 38	 mov	 rbp, QWORD PTR [rsp+56]
  000a2	48 8b 74 24 40	 mov	 rsi, QWORD PTR [rsp+64]
  000a7	48 83 c4 20	 add	 rsp, 32			; 00000020H
  000ab	5f		 pop	 rdi
  000ac	c3		 ret	 0
_Py_For	ENDP
_TEXT	ENDS
PUBLIC	??_C@_0CB@KCHPDKKB@field?5test?5is?5required?5for?5While@ ; `string'
PUBLIC	_Py_While
;	COMDAT pdata
pdata	SEGMENT
$pdata$_Py_While DD imagerel $LN6
	DD	imagerel $LN6+136
	DD	imagerel $unwind$_Py_While
pdata	ENDS
;	COMDAT xdata
xdata	SEGMENT
$unwind$_Py_While DD 081401H
	DD	086414H
	DD	075414H
	DD	063414H
	DD	070103214H
xdata	ENDS
;	COMDAT ??_C@_0CB@KCHPDKKB@field?5test?5is?5required?5for?5While@
CONST	SEGMENT
??_C@_0CB@KCHPDKKB@field?5test?5is?5required?5for?5While@ DB 'field test '
	DB	'is required for While', 00H			; `string'
; Function compile flags: /Ogtpy
CONST	ENDS
;	COMDAT _Py_While
_TEXT	SEGMENT
test$ = 48
body$ = 56
orelse$ = 64
lineno$ = 72
col_offset$ = 80
arena$ = 88
_Py_While PROC						; COMDAT

; 1305 : {

$LN6:
  00000	48 89 5c 24 08	 mov	 QWORD PTR [rsp+8], rbx
  00005	48 89 6c 24 10	 mov	 QWORD PTR [rsp+16], rbp
  0000a	48 89 74 24 18	 mov	 QWORD PTR [rsp+24], rsi
  0000f	57		 push	 rdi
  00010	48 83 ec 20	 sub	 rsp, 32			; 00000020H
  00014	41 8b f9	 mov	 edi, r9d
  00017	49 8b f0	 mov	 rsi, r8
  0001a	48 8b ea	 mov	 rbp, rdx
  0001d	48 8b d9	 mov	 rbx, rcx

; 1306 :     stmt_ty p;
; 1307 :     if (!test) {

  00020	48 85 c9	 test	 rcx, rcx
  00023	75 17		 jne	 SHORT $LN2@Py_While

; 1308 :         PyErr_SetString(PyExc_ValueError,
; 1309 :                         "field test is required for While");

  00025	48 8b 0d 00 00
	00 00		 mov	 rcx, QWORD PTR PyExc_ValueError
  0002c	48 8d 15 00 00
	00 00		 lea	 rdx, OFFSET FLAT:??_C@_0CB@KCHPDKKB@field?5test?5is?5required?5for?5While@
  00033	e8 00 00 00 00	 call	 PyErr_SetString
$LN5@Py_While:

; 1310 :         return NULL;

  00038	33 c0		 xor	 eax, eax
  0003a	eb 37		 jmp	 SHORT $LN3@Py_While
$LN2@Py_While:

; 1311 :     }
; 1312 :     p = (stmt_ty)PyArena_Malloc(arena, sizeof(*p));

  0003c	48 8b 4c 24 58	 mov	 rcx, QWORD PTR arena$[rsp]
  00041	ba 48 00 00 00	 mov	 edx, 72			; 00000048H
  00046	e8 00 00 00 00	 call	 PyArena_Malloc
  0004b	4c 8b d8	 mov	 r11, rax

; 1313 :     if (!p)

  0004e	48 85 c0	 test	 rax, rax

; 1314 :         return NULL;

  00051	74 e5		 je	 SHORT $LN5@Py_While

; 1315 :     p->kind = While_kind;

  00053	c7 00 08 00 00
	00		 mov	 DWORD PTR [rax], 8

; 1316 :     p->v.While.test = test;

  00059	48 89 58 08	 mov	 QWORD PTR [rax+8], rbx

; 1317 :     p->v.While.body = body;

  0005d	48 89 68 10	 mov	 QWORD PTR [rax+16], rbp

; 1318 :     p->v.While.orelse = orelse;

  00061	48 89 70 18	 mov	 QWORD PTR [rax+24], rsi

; 1319 :     p->lineno = lineno;

  00065	89 78 40	 mov	 DWORD PTR [rax+64], edi

; 1320 :     p->col_offset = col_offset;

  00068	8b 44 24 50	 mov	 eax, DWORD PTR col_offset$[rsp]
  0006c	41 89 43 44	 mov	 DWORD PTR [r11+68], eax

; 1321 :     return p;

  00070	49 8b c3	 mov	 rax, r11
$LN3@Py_While:

; 1322 : }

  00073	48 8b 5c 24 30	 mov	 rbx, QWORD PTR [rsp+48]
  00078	48 8b 6c 24 38	 mov	 rbp, QWORD PTR [rsp+56]
  0007d	48 8b 74 24 40	 mov	 rsi, QWORD PTR [rsp+64]
  00082	48 83 c4 20	 add	 rsp, 32			; 00000020H
  00086	5f		 pop	 rdi
  00087	c3		 ret	 0
_Py_While ENDP
_TEXT	ENDS
PUBLIC	??_C@_0BO@JBIJLEDP@field?5test?5is?5required?5for?5If?$AA@ ; `string'
PUBLIC	_Py_If
;	COMDAT pdata
pdata	SEGMENT
$pdata$_Py_If DD imagerel $LN6
	DD	imagerel $LN6+136
	DD	imagerel $unwind$_Py_If
pdata	ENDS
;	COMDAT xdata
xdata	SEGMENT
$unwind$_Py_If DD 081401H
	DD	086414H
	DD	075414H
	DD	063414H
	DD	070103214H
xdata	ENDS
;	COMDAT ??_C@_0BO@JBIJLEDP@field?5test?5is?5required?5for?5If?$AA@
CONST	SEGMENT
??_C@_0BO@JBIJLEDP@field?5test?5is?5required?5for?5If?$AA@ DB 'field test'
	DB	' is required for If', 00H			; `string'
; Function compile flags: /Ogtpy
CONST	ENDS
;	COMDAT _Py_If
_TEXT	SEGMENT
test$ = 48
body$ = 56
orelse$ = 64
lineno$ = 72
col_offset$ = 80
arena$ = 88
_Py_If	PROC						; COMDAT

; 1327 : {

$LN6:
  00000	48 89 5c 24 08	 mov	 QWORD PTR [rsp+8], rbx
  00005	48 89 6c 24 10	 mov	 QWORD PTR [rsp+16], rbp
  0000a	48 89 74 24 18	 mov	 QWORD PTR [rsp+24], rsi
  0000f	57		 push	 rdi
  00010	48 83 ec 20	 sub	 rsp, 32			; 00000020H
  00014	41 8b f9	 mov	 edi, r9d
  00017	49 8b f0	 mov	 rsi, r8
  0001a	48 8b ea	 mov	 rbp, rdx
  0001d	48 8b d9	 mov	 rbx, rcx

; 1328 :     stmt_ty p;
; 1329 :     if (!test) {

  00020	48 85 c9	 test	 rcx, rcx
  00023	75 17		 jne	 SHORT $LN2@Py_If

; 1330 :         PyErr_SetString(PyExc_ValueError,
; 1331 :                         "field test is required for If");

  00025	48 8b 0d 00 00
	00 00		 mov	 rcx, QWORD PTR PyExc_ValueError
  0002c	48 8d 15 00 00
	00 00		 lea	 rdx, OFFSET FLAT:??_C@_0BO@JBIJLEDP@field?5test?5is?5required?5for?5If?$AA@
  00033	e8 00 00 00 00	 call	 PyErr_SetString
$LN5@Py_If:

; 1332 :         return NULL;

  00038	33 c0		 xor	 eax, eax
  0003a	eb 37		 jmp	 SHORT $LN3@Py_If
$LN2@Py_If:

; 1333 :     }
; 1334 :     p = (stmt_ty)PyArena_Malloc(arena, sizeof(*p));

  0003c	48 8b 4c 24 58	 mov	 rcx, QWORD PTR arena$[rsp]
  00041	ba 48 00 00 00	 mov	 edx, 72			; 00000048H
  00046	e8 00 00 00 00	 call	 PyArena_Malloc
  0004b	4c 8b d8	 mov	 r11, rax

; 1335 :     if (!p)

  0004e	48 85 c0	 test	 rax, rax

; 1336 :         return NULL;

  00051	74 e5		 je	 SHORT $LN5@Py_If

; 1337 :     p->kind = If_kind;

  00053	c7 00 09 00 00
	00		 mov	 DWORD PTR [rax], 9

; 1338 :     p->v.If.test = test;

  00059	48 89 58 08	 mov	 QWORD PTR [rax+8], rbx

; 1339 :     p->v.If.body = body;

  0005d	48 89 68 10	 mov	 QWORD PTR [rax+16], rbp

; 1340 :     p->v.If.orelse = orelse;

  00061	48 89 70 18	 mov	 QWORD PTR [rax+24], rsi

; 1341 :     p->lineno = lineno;

  00065	89 78 40	 mov	 DWORD PTR [rax+64], edi

; 1342 :     p->col_offset = col_offset;

  00068	8b 44 24 50	 mov	 eax, DWORD PTR col_offset$[rsp]
  0006c	41 89 43 44	 mov	 DWORD PTR [r11+68], eax

; 1343 :     return p;

  00070	49 8b c3	 mov	 rax, r11
$LN3@Py_If:

; 1344 : }

  00073	48 8b 5c 24 30	 mov	 rbx, QWORD PTR [rsp+48]
  00078	48 8b 6c 24 38	 mov	 rbp, QWORD PTR [rsp+56]
  0007d	48 8b 74 24 40	 mov	 rsi, QWORD PTR [rsp+64]
  00082	48 83 c4 20	 add	 rsp, 32			; 00000020H
  00086	5f		 pop	 rdi
  00087	c3		 ret	 0
_Py_If	ENDP
_TEXT	ENDS
PUBLIC	_Py_With
;	COMDAT pdata
pdata	SEGMENT
$pdata$_Py_With DD imagerel $LN4
	DD	imagerel $LN4+93
	DD	imagerel $unwind$_Py_With
pdata	ENDS
;	COMDAT xdata
xdata	SEGMENT
$unwind$_Py_With DD 081401H
	DD	086414H
	DD	075414H
	DD	063414H
	DD	070103214H
; Function compile flags: /Ogtpy
xdata	ENDS
;	COMDAT _Py_With
_TEXT	SEGMENT
items$ = 48
body$ = 56
lineno$ = 64
col_offset$ = 72
arena$ = 80
_Py_With PROC						; COMDAT

; 1349 : {

$LN4:
  00000	48 89 5c 24 08	 mov	 QWORD PTR [rsp+8], rbx
  00005	48 89 6c 24 10	 mov	 QWORD PTR [rsp+16], rbp
  0000a	48 89 74 24 18	 mov	 QWORD PTR [rsp+24], rsi
  0000f	57		 push	 rdi
  00010	48 83 ec 20	 sub	 rsp, 32			; 00000020H
  00014	48 8b e9	 mov	 rbp, rcx

; 1350 :     stmt_ty p;
; 1351 :     p = (stmt_ty)PyArena_Malloc(arena, sizeof(*p));

  00017	48 8b 4c 24 50	 mov	 rcx, QWORD PTR arena$[rsp]
  0001c	48 8b f2	 mov	 rsi, rdx
  0001f	ba 48 00 00 00	 mov	 edx, 72			; 00000048H
  00024	41 8b d9	 mov	 ebx, r9d
  00027	41 8b f8	 mov	 edi, r8d
  0002a	e8 00 00 00 00	 call	 PyArena_Malloc

; 1352 :     if (!p)

  0002f	48 85 c0	 test	 rax, rax
  00032	74 14		 je	 SHORT $LN2@Py_With
$LN1@Py_With:

; 1353 :         return NULL;
; 1354 :     p->kind = With_kind;

  00034	c7 00 0a 00 00
	00		 mov	 DWORD PTR [rax], 10

; 1355 :     p->v.With.items = items;

  0003a	48 89 68 08	 mov	 QWORD PTR [rax+8], rbp

; 1356 :     p->v.With.body = body;

  0003e	48 89 70 10	 mov	 QWORD PTR [rax+16], rsi

; 1357 :     p->lineno = lineno;

  00042	89 78 40	 mov	 DWORD PTR [rax+64], edi

; 1358 :     p->col_offset = col_offset;

  00045	89 58 44	 mov	 DWORD PTR [rax+68], ebx
$LN2@Py_With:

; 1359 :     return p;
; 1360 : }

  00048	48 8b 5c 24 30	 mov	 rbx, QWORD PTR [rsp+48]
  0004d	48 8b 6c 24 38	 mov	 rbp, QWORD PTR [rsp+56]
  00052	48 8b 74 24 40	 mov	 rsi, QWORD PTR [rsp+64]
  00057	48 83 c4 20	 add	 rsp, 32			; 00000020H
  0005b	5f		 pop	 rdi
  0005c	c3		 ret	 0
_Py_With ENDP
_TEXT	ENDS
PUBLIC	_Py_Raise
;	COMDAT pdata
pdata	SEGMENT
$pdata$_Py_Raise DD imagerel $LN4
	DD	imagerel $LN4+93
	DD	imagerel $unwind$_Py_Raise
pdata	ENDS
;	COMDAT xdata
xdata	SEGMENT
$unwind$_Py_Raise DD 081401H
	DD	086414H
	DD	075414H
	DD	063414H
	DD	070103214H
; Function compile flags: /Ogtpy
xdata	ENDS
;	COMDAT _Py_Raise
_TEXT	SEGMENT
exc$ = 48
cause$ = 56
lineno$ = 64
col_offset$ = 72
arena$ = 80
_Py_Raise PROC						; COMDAT

; 1364 : {

$LN4:
  00000	48 89 5c 24 08	 mov	 QWORD PTR [rsp+8], rbx
  00005	48 89 6c 24 10	 mov	 QWORD PTR [rsp+16], rbp
  0000a	48 89 74 24 18	 mov	 QWORD PTR [rsp+24], rsi
  0000f	57		 push	 rdi
  00010	48 83 ec 20	 sub	 rsp, 32			; 00000020H
  00014	48 8b e9	 mov	 rbp, rcx

; 1365 :     stmt_ty p;
; 1366 :     p = (stmt_ty)PyArena_Malloc(arena, sizeof(*p));

  00017	48 8b 4c 24 50	 mov	 rcx, QWORD PTR arena$[rsp]
  0001c	48 8b f2	 mov	 rsi, rdx
  0001f	ba 48 00 00 00	 mov	 edx, 72			; 00000048H
  00024	41 8b d9	 mov	 ebx, r9d
  00027	41 8b f8	 mov	 edi, r8d
  0002a	e8 00 00 00 00	 call	 PyArena_Malloc

; 1367 :     if (!p)

  0002f	48 85 c0	 test	 rax, rax
  00032	74 14		 je	 SHORT $LN2@Py_Raise
$LN1@Py_Raise:

; 1368 :         return NULL;
; 1369 :     p->kind = Raise_kind;

  00034	c7 00 0b 00 00
	00		 mov	 DWORD PTR [rax], 11

; 1370 :     p->v.Raise.exc = exc;

  0003a	48 89 68 08	 mov	 QWORD PTR [rax+8], rbp

; 1371 :     p->v.Raise.cause = cause;

  0003e	48 89 70 10	 mov	 QWORD PTR [rax+16], rsi

; 1372 :     p->lineno = lineno;

  00042	89 78 40	 mov	 DWORD PTR [rax+64], edi

; 1373 :     p->col_offset = col_offset;

  00045	89 58 44	 mov	 DWORD PTR [rax+68], ebx
$LN2@Py_Raise:

; 1374 :     return p;
; 1375 : }

  00048	48 8b 5c 24 30	 mov	 rbx, QWORD PTR [rsp+48]
  0004d	48 8b 6c 24 38	 mov	 rbp, QWORD PTR [rsp+56]
  00052	48 8b 74 24 40	 mov	 rsi, QWORD PTR [rsp+64]
  00057	48 83 c4 20	 add	 rsp, 32			; 00000020H
  0005b	5f		 pop	 rdi
  0005c	c3		 ret	 0
_Py_Raise ENDP
_TEXT	ENDS
PUBLIC	_Py_Try
;	COMDAT pdata
pdata	SEGMENT
$pdata$_Py_Try DD imagerel $LN4
	DD	imagerel $LN4+117
	DD	imagerel $unwind$_Py_Try
pdata	ENDS
;	COMDAT xdata
xdata	SEGMENT
$unwind$_Py_Try DD 081401H
	DD	086414H
	DD	075414H
	DD	063414H
	DD	070103214H
; Function compile flags: /Ogtpy
xdata	ENDS
;	COMDAT _Py_Try
_TEXT	SEGMENT
body$ = 48
handlers$ = 56
orelse$ = 64
finalbody$ = 72
lineno$ = 80
col_offset$ = 88
arena$ = 96
_Py_Try	PROC						; COMDAT

; 1380 : {

$LN4:
  00000	48 89 5c 24 08	 mov	 QWORD PTR [rsp+8], rbx
  00005	48 89 6c 24 10	 mov	 QWORD PTR [rsp+16], rbp
  0000a	48 89 74 24 18	 mov	 QWORD PTR [rsp+24], rsi
  0000f	57		 push	 rdi
  00010	48 83 ec 20	 sub	 rsp, 32			; 00000020H
  00014	48 8b e9	 mov	 rbp, rcx

; 1381 :     stmt_ty p;
; 1382 :     p = (stmt_ty)PyArena_Malloc(arena, sizeof(*p));

  00017	48 8b 4c 24 60	 mov	 rcx, QWORD PTR arena$[rsp]
  0001c	48 8b f2	 mov	 rsi, rdx
  0001f	ba 48 00 00 00	 mov	 edx, 72			; 00000048H
  00024	49 8b d9	 mov	 rbx, r9
  00027	49 8b f8	 mov	 rdi, r8
  0002a	e8 00 00 00 00	 call	 PyArena_Malloc
  0002f	4c 8b d8	 mov	 r11, rax

; 1383 :     if (!p)

  00032	48 85 c0	 test	 rax, rax
  00035	74 29		 je	 SHORT $LN2@Py_Try
$LN1@Py_Try:

; 1384 :         return NULL;
; 1385 :     p->kind = Try_kind;

  00037	c7 00 0c 00 00
	00		 mov	 DWORD PTR [rax], 12

; 1386 :     p->v.Try.body = body;

  0003d	48 89 68 08	 mov	 QWORD PTR [rax+8], rbp

; 1387 :     p->v.Try.handlers = handlers;

  00041	48 89 70 10	 mov	 QWORD PTR [rax+16], rsi

; 1388 :     p->v.Try.orelse = orelse;

  00045	48 89 78 18	 mov	 QWORD PTR [rax+24], rdi

; 1389 :     p->v.Try.finalbody = finalbody;

  00049	48 89 58 20	 mov	 QWORD PTR [rax+32], rbx

; 1390 :     p->lineno = lineno;

  0004d	8b 44 24 50	 mov	 eax, DWORD PTR lineno$[rsp]
  00051	41 89 43 40	 mov	 DWORD PTR [r11+64], eax

; 1391 :     p->col_offset = col_offset;

  00055	8b 44 24 58	 mov	 eax, DWORD PTR col_offset$[rsp]
  00059	41 89 43 44	 mov	 DWORD PTR [r11+68], eax

; 1392 :     return p;

  0005d	49 8b c3	 mov	 rax, r11
$LN2@Py_Try:

; 1393 : }

  00060	48 8b 5c 24 30	 mov	 rbx, QWORD PTR [rsp+48]
  00065	48 8b 6c 24 38	 mov	 rbp, QWORD PTR [rsp+56]
  0006a	48 8b 74 24 40	 mov	 rsi, QWORD PTR [rsp+64]
  0006f	48 83 c4 20	 add	 rsp, 32			; 00000020H
  00073	5f		 pop	 rdi
  00074	c3		 ret	 0
_Py_Try	ENDP
_TEXT	ENDS
PUBLIC	??_C@_0CC@MJAOHOEG@field?5test?5is?5required?5for?5Asser@ ; `string'
PUBLIC	_Py_Assert
;	COMDAT pdata
pdata	SEGMENT
$pdata$_Py_Assert DD imagerel $LN6
	DD	imagerel $LN6+121
	DD	imagerel $unwind$_Py_Assert
pdata	ENDS
;	COMDAT xdata
xdata	SEGMENT
$unwind$_Py_Assert DD 081401H
	DD	086414H
	DD	075414H
	DD	063414H
	DD	070103214H
xdata	ENDS
;	COMDAT ??_C@_0CC@MJAOHOEG@field?5test?5is?5required?5for?5Asser@
CONST	SEGMENT
??_C@_0CC@MJAOHOEG@field?5test?5is?5required?5for?5Asser@ DB 'field test '
	DB	'is required for Assert', 00H		; `string'
; Function compile flags: /Ogtpy
CONST	ENDS
;	COMDAT _Py_Assert
_TEXT	SEGMENT
test$ = 48
msg$ = 56
lineno$ = 64
col_offset$ = 72
arena$ = 80
_Py_Assert PROC						; COMDAT

; 1397 : {

$LN6:
  00000	48 89 5c 24 08	 mov	 QWORD PTR [rsp+8], rbx
  00005	48 89 6c 24 10	 mov	 QWORD PTR [rsp+16], rbp
  0000a	48 89 74 24 18	 mov	 QWORD PTR [rsp+24], rsi
  0000f	57		 push	 rdi
  00010	48 83 ec 20	 sub	 rsp, 32			; 00000020H
  00014	41 8b f9	 mov	 edi, r9d
  00017	41 8b f0	 mov	 esi, r8d
  0001a	48 8b ea	 mov	 rbp, rdx
  0001d	48 8b d9	 mov	 rbx, rcx

; 1398 :     stmt_ty p;
; 1399 :     if (!test) {

  00020	48 85 c9	 test	 rcx, rcx
  00023	75 17		 jne	 SHORT $LN2@Py_Assert

; 1400 :         PyErr_SetString(PyExc_ValueError,
; 1401 :                         "field test is required for Assert");

  00025	48 8b 0d 00 00
	00 00		 mov	 rcx, QWORD PTR PyExc_ValueError
  0002c	48 8d 15 00 00
	00 00		 lea	 rdx, OFFSET FLAT:??_C@_0CC@MJAOHOEG@field?5test?5is?5required?5for?5Asser@
  00033	e8 00 00 00 00	 call	 PyErr_SetString
$LN5@Py_Assert:

; 1402 :         return NULL;

  00038	33 c0		 xor	 eax, eax
  0003a	eb 28		 jmp	 SHORT $LN3@Py_Assert
$LN2@Py_Assert:

; 1403 :     }
; 1404 :     p = (stmt_ty)PyArena_Malloc(arena, sizeof(*p));

  0003c	48 8b 4c 24 50	 mov	 rcx, QWORD PTR arena$[rsp]
  00041	ba 48 00 00 00	 mov	 edx, 72			; 00000048H
  00046	e8 00 00 00 00	 call	 PyArena_Malloc

; 1405 :     if (!p)

  0004b	48 85 c0	 test	 rax, rax

; 1406 :         return NULL;

  0004e	74 e8		 je	 SHORT $LN5@Py_Assert

; 1407 :     p->kind = Assert_kind;

  00050	c7 00 0d 00 00
	00		 mov	 DWORD PTR [rax], 13

; 1408 :     p->v.Assert.test = test;

  00056	48 89 58 08	 mov	 QWORD PTR [rax+8], rbx

; 1409 :     p->v.Assert.msg = msg;

  0005a	48 89 68 10	 mov	 QWORD PTR [rax+16], rbp

; 1410 :     p->lineno = lineno;

  0005e	89 70 40	 mov	 DWORD PTR [rax+64], esi

; 1411 :     p->col_offset = col_offset;

  00061	89 78 44	 mov	 DWORD PTR [rax+68], edi
$LN3@Py_Assert:

; 1412 :     return p;
; 1413 : }

  00064	48 8b 5c 24 30	 mov	 rbx, QWORD PTR [rsp+48]
  00069	48 8b 6c 24 38	 mov	 rbp, QWORD PTR [rsp+56]
  0006e	48 8b 74 24 40	 mov	 rsi, QWORD PTR [rsp+64]
  00073	48 83 c4 20	 add	 rsp, 32			; 00000020H
  00077	5f		 pop	 rdi
  00078	c3		 ret	 0
_Py_Assert ENDP
_TEXT	ENDS
PUBLIC	_Py_Import
;	COMDAT pdata
pdata	SEGMENT
$pdata$_Py_Import DD imagerel $LN4
	DD	imagerel $LN4+89
	DD	imagerel $unwind$_Py_Import
pdata	ENDS
;	COMDAT xdata
xdata	SEGMENT
$unwind$_Py_Import DD 060f01H
	DD	07640fH
	DD	06340fH
	DD	0700b320fH
; Function compile flags: /Ogtpy
xdata	ENDS
;	COMDAT _Py_Import
_TEXT	SEGMENT
names$ = 48
lineno$ = 56
col_offset$ = 64
arena$ = 72
_Py_Import PROC						; COMDAT

; 1417 : {

$LN4:
  00000	48 89 5c 24 08	 mov	 QWORD PTR [rsp+8], rbx
  00005	48 89 74 24 10	 mov	 QWORD PTR [rsp+16], rsi
  0000a	57		 push	 rdi
  0000b	48 83 ec 20	 sub	 rsp, 32			; 00000020H
  0000f	8b fa		 mov	 edi, edx
  00011	48 8b f1	 mov	 rsi, rcx

; 1418 :     stmt_ty p;
; 1419 :     p = (stmt_ty)PyArena_Malloc(arena, sizeof(*p));

  00014	ba 48 00 00 00	 mov	 edx, 72			; 00000048H
  00019	49 8b c9	 mov	 rcx, r9
  0001c	41 8b d8	 mov	 ebx, r8d
  0001f	e8 00 00 00 00	 call	 PyArena_Malloc

; 1420 :     if (!p)

  00024	48 85 c0	 test	 rax, rax
  00027	75 10		 jne	 SHORT $LN1@Py_Import

; 1424 :     p->lineno = lineno;
; 1425 :     p->col_offset = col_offset;
; 1426 :     return p;
; 1427 : }

  00029	48 8b 5c 24 30	 mov	 rbx, QWORD PTR [rsp+48]
  0002e	48 8b 74 24 38	 mov	 rsi, QWORD PTR [rsp+56]
  00033	48 83 c4 20	 add	 rsp, 32			; 00000020H
  00037	5f		 pop	 rdi
  00038	c3		 ret	 0
$LN1@Py_Import:

; 1421 :         return NULL;
; 1422 :     p->kind = Import_kind;
; 1423 :     p->v.Import.names = names;

  00039	48 89 70 08	 mov	 QWORD PTR [rax+8], rsi

; 1424 :     p->lineno = lineno;
; 1425 :     p->col_offset = col_offset;
; 1426 :     return p;
; 1427 : }

  0003d	48 8b 74 24 38	 mov	 rsi, QWORD PTR [rsp+56]
  00042	89 58 44	 mov	 DWORD PTR [rax+68], ebx
  00045	48 8b 5c 24 30	 mov	 rbx, QWORD PTR [rsp+48]
  0004a	c7 00 0e 00 00
	00		 mov	 DWORD PTR [rax], 14
  00050	89 78 40	 mov	 DWORD PTR [rax+64], edi
  00053	48 83 c4 20	 add	 rsp, 32			; 00000020H
  00057	5f		 pop	 rdi
  00058	c3		 ret	 0
_Py_Import ENDP
_TEXT	ENDS
PUBLIC	_Py_ImportFrom
;	COMDAT pdata
pdata	SEGMENT
$pdata$_Py_ImportFrom DD imagerel $LN4
	DD	imagerel $LN4+107
	DD	imagerel $unwind$_Py_ImportFrom
pdata	ENDS
;	COMDAT xdata
xdata	SEGMENT
$unwind$_Py_ImportFrom DD 081401H
	DD	086414H
	DD	075414H
	DD	063414H
	DD	070103214H
; Function compile flags: /Ogtpy
xdata	ENDS
;	COMDAT _Py_ImportFrom
_TEXT	SEGMENT
module$ = 48
names$ = 56
level$ = 64
lineno$ = 72
col_offset$ = 80
arena$ = 88
_Py_ImportFrom PROC					; COMDAT

; 1432 : {

$LN4:
  00000	48 89 5c 24 08	 mov	 QWORD PTR [rsp+8], rbx
  00005	48 89 6c 24 10	 mov	 QWORD PTR [rsp+16], rbp
  0000a	48 89 74 24 18	 mov	 QWORD PTR [rsp+24], rsi
  0000f	57		 push	 rdi
  00010	48 83 ec 20	 sub	 rsp, 32			; 00000020H
  00014	48 8b e9	 mov	 rbp, rcx

; 1433 :     stmt_ty p;
; 1434 :     p = (stmt_ty)PyArena_Malloc(arena, sizeof(*p));

  00017	48 8b 4c 24 58	 mov	 rcx, QWORD PTR arena$[rsp]
  0001c	48 8b f2	 mov	 rsi, rdx
  0001f	ba 48 00 00 00	 mov	 edx, 72			; 00000048H
  00024	41 8b d9	 mov	 ebx, r9d
  00027	41 8b f8	 mov	 edi, r8d
  0002a	e8 00 00 00 00	 call	 PyArena_Malloc
  0002f	4c 8b d8	 mov	 r11, rax

; 1435 :     if (!p)

  00032	48 85 c0	 test	 rax, rax
  00035	74 1f		 je	 SHORT $LN2@Py_ImportF
$LN1@Py_ImportF:

; 1436 :         return NULL;
; 1437 :     p->kind = ImportFrom_kind;

  00037	c7 00 0f 00 00
	00		 mov	 DWORD PTR [rax], 15

; 1438 :     p->v.ImportFrom.module = module;

  0003d	48 89 68 08	 mov	 QWORD PTR [rax+8], rbp

; 1439 :     p->v.ImportFrom.names = names;

  00041	48 89 70 10	 mov	 QWORD PTR [rax+16], rsi

; 1440 :     p->v.ImportFrom.level = level;

  00045	89 78 18	 mov	 DWORD PTR [rax+24], edi

; 1441 :     p->lineno = lineno;

  00048	89 58 40	 mov	 DWORD PTR [rax+64], ebx

; 1442 :     p->col_offset = col_offset;

  0004b	8b 44 24 50	 mov	 eax, DWORD PTR col_offset$[rsp]
  0004f	41 89 43 44	 mov	 DWORD PTR [r11+68], eax

; 1443 :     return p;

  00053	49 8b c3	 mov	 rax, r11
$LN2@Py_ImportF:

; 1444 : }

  00056	48 8b 5c 24 30	 mov	 rbx, QWORD PTR [rsp+48]
  0005b	48 8b 6c 24 38	 mov	 rbp, QWORD PTR [rsp+56]
  00060	48 8b 74 24 40	 mov	 rsi, QWORD PTR [rsp+64]
  00065	48 83 c4 20	 add	 rsp, 32			; 00000020H
  00069	5f		 pop	 rdi
  0006a	c3		 ret	 0
_Py_ImportFrom ENDP
_TEXT	ENDS
PUBLIC	_Py_Global
;	COMDAT pdata
pdata	SEGMENT
$pdata$_Py_Global DD imagerel $LN4
	DD	imagerel $LN4+89
	DD	imagerel $unwind$_Py_Global
pdata	ENDS
;	COMDAT xdata
xdata	SEGMENT
$unwind$_Py_Global DD 060f01H
	DD	07640fH
	DD	06340fH
	DD	0700b320fH
; Function compile flags: /Ogtpy
xdata	ENDS
;	COMDAT _Py_Global
_TEXT	SEGMENT
names$ = 48
lineno$ = 56
col_offset$ = 64
arena$ = 72
_Py_Global PROC						; COMDAT

; 1448 : {

$LN4:
  00000	48 89 5c 24 08	 mov	 QWORD PTR [rsp+8], rbx
  00005	48 89 74 24 10	 mov	 QWORD PTR [rsp+16], rsi
  0000a	57		 push	 rdi
  0000b	48 83 ec 20	 sub	 rsp, 32			; 00000020H
  0000f	8b fa		 mov	 edi, edx
  00011	48 8b f1	 mov	 rsi, rcx

; 1449 :     stmt_ty p;
; 1450 :     p = (stmt_ty)PyArena_Malloc(arena, sizeof(*p));

  00014	ba 48 00 00 00	 mov	 edx, 72			; 00000048H
  00019	49 8b c9	 mov	 rcx, r9
  0001c	41 8b d8	 mov	 ebx, r8d
  0001f	e8 00 00 00 00	 call	 PyArena_Malloc

; 1451 :     if (!p)

  00024	48 85 c0	 test	 rax, rax
  00027	75 10		 jne	 SHORT $LN1@Py_Global

; 1455 :     p->lineno = lineno;
; 1456 :     p->col_offset = col_offset;
; 1457 :     return p;
; 1458 : }

  00029	48 8b 5c 24 30	 mov	 rbx, QWORD PTR [rsp+48]
  0002e	48 8b 74 24 38	 mov	 rsi, QWORD PTR [rsp+56]
  00033	48 83 c4 20	 add	 rsp, 32			; 00000020H
  00037	5f		 pop	 rdi
  00038	c3		 ret	 0
$LN1@Py_Global:

; 1452 :         return NULL;
; 1453 :     p->kind = Global_kind;
; 1454 :     p->v.Global.names = names;

  00039	48 89 70 08	 mov	 QWORD PTR [rax+8], rsi

; 1455 :     p->lineno = lineno;
; 1456 :     p->col_offset = col_offset;
; 1457 :     return p;
; 1458 : }

  0003d	48 8b 74 24 38	 mov	 rsi, QWORD PTR [rsp+56]
  00042	89 58 44	 mov	 DWORD PTR [rax+68], ebx
  00045	48 8b 5c 24 30	 mov	 rbx, QWORD PTR [rsp+48]
  0004a	c7 00 10 00 00
	00		 mov	 DWORD PTR [rax], 16
  00050	89 78 40	 mov	 DWORD PTR [rax+64], edi
  00053	48 83 c4 20	 add	 rsp, 32			; 00000020H
  00057	5f		 pop	 rdi
  00058	c3		 ret	 0
_Py_Global ENDP
_TEXT	ENDS
PUBLIC	_Py_Nonlocal
;	COMDAT pdata
pdata	SEGMENT
$pdata$_Py_Nonlocal DD imagerel $LN4
	DD	imagerel $LN4+89
	DD	imagerel $unwind$_Py_Nonlocal
pdata	ENDS
;	COMDAT xdata
xdata	SEGMENT
$unwind$_Py_Nonlocal DD 060f01H
	DD	07640fH
	DD	06340fH
	DD	0700b320fH
