; Listing generated by Microsoft (R) Optimizing Compiler Version 16.00.40219.01 

include listing.inc

INCLUDELIB MSVCRT
INCLUDELIB OLDNAMES

PUBLIC	??_C@_0BF@BEBBJAIL@string?5helper?5module?$AA@	; `string'
PUBLIC	??_C@_07PGCBFEPB@_string?$AA@			; `string'
PUBLIC	??_C@_0CG@FCKLAMOB@parse?5the?5argument?5as?5a?5format?5s@ ; `string'
PUBLIC	??_C@_0BB@JJJFGPCM@formatter_parser?$AA@	; `string'
PUBLIC	??_C@_0CD@LNGEKMIN@split?5the?5argument?5as?5a?5field?5na@ ; `string'
PUBLIC	??_C@_0BL@GJEMJGHD@formatter_field_name_split?$AA@ ; `string'
PUBLIC	??_C@_0N@GHJLLMAJ@str_iterator?$AA@		; `string'
PUBLIC	??_C@_0N@MOOGCAMH@__setstate__?$AA@		; `string'
PUBLIC	??_C@_0L@NNMACJIG@__reduce__?$AA@		; `string'
PUBLIC	??_C@_0BA@BJLPBKGK@__length_hint__?$AA@		; `string'
PUBLIC	PyUnicode_RichCompare
PUBLIC	??_C@_03OJMAPEGJ@str?$AA@			; `string'
PUBLIC	??_C@_06IEOJBDIK@object?$AA@			; `string'
PUBLIC	PyUnicode_Contains
PUBLIC	PyUnicode_Concat
PUBLIC	??_C@_0P@BCBHENLA@__getnewargs__?$AA@		; `string'
PUBLIC	??_C@_0L@HOGGIPGN@__sizeof__?$AA@		; `string'
PUBLIC	??_C@_09PBBLPCAA@maketrans?$AA@			; `string'
PUBLIC	??_C@_0L@MEMCGMKL@__format__?$AA@		; `string'
PUBLIC	??_C@_0L@DBBJLEAP@format_map?$AA@		; `string'
PUBLIC	??_C@_06DLEPGFEF@format?$AA@			; `string'
PUBLIC	??_C@_05DMFNFMHA@zfill?$AA@			; `string'
PUBLIC	??_C@_0M@JGKJDKBM@isprintable?$AA@		; `string'
PUBLIC	??_C@_0N@DOKMMCGL@isidentifier?$AA@		; `string'
PUBLIC	??_C@_07EOADCIGC@isalnum?$AA@			; `string'
PUBLIC	??_C@_07EGIOHHOB@isalpha?$AA@			; `string'
PUBLIC	??_C@_09KOMAEOED@isnumeric?$AA@			; `string'
PUBLIC	??_C@_07CFBKIKCH@isdigit?$AA@			; `string'
PUBLIC	??_C@_09CGNFEIIK@isdecimal?$AA@			; `string'
PUBLIC	??_C@_07CNBMLEON@isspace?$AA@			; `string'
PUBLIC	??_C@_07DBHCJBDG@istitle?$AA@			; `string'
PUBLIC	??_C@_07BCOOJPCO@isupper?$AA@			; `string'
PUBLIC	??_C@_07EJFAPEJH@islower?$AA@			; `string'
PUBLIC	??_C@_08MLCMCPNP@endswith?$AA@			; `string'
PUBLIC	??_C@_0L@MPOGHCCL@startswith?$AA@		; `string'
PUBLIC	??_C@_05NECKJAMC@upper?$AA@			; `string'
PUBLIC	??_C@_09ODNGOEIO@translate?$AA@			; `string'
PUBLIC	??_C@_08EDJLBCEI@swapcase?$AA@			; `string'
PUBLIC	??_C@_05GGNGIGHC@strip?$AA@			; `string'
PUBLIC	??_C@_0L@BCMGLLLC@splitlines?$AA@		; `string'
PUBLIC	??_C@_0L@KEEHLNKL@rpartition?$AA@		; `string'
PUBLIC	??_C@_06DBIPDJKN@rstrip?$AA@			; `string'
PUBLIC	??_C@_05JKFAKHCP@rjust?$AA@			; `string'
PUBLIC	??_C@_06NCDOMFM@rindex?$AA@			; `string'
PUBLIC	??_C@_05BLFDIAHL@rfind?$AA@			; `string'
PUBLIC	??_C@_06GGONODO@lstrip?$AA@			; `string'
PUBLIC	??_C@_05IPJEPLHL@lower?$AA@			; `string'
PUBLIC	??_C@_05KDIMMEME@ljust?$AA@			; `string'
PUBLIC	??_C@_05FKHKFDID@index?$AA@			; `string'
PUBLIC	??_C@_09IKAEIPAD@partition?$AA@			; `string'
PUBLIC	??_C@_04CKFJHKAP@find?$AA@			; `string'
PUBLIC	??_C@_0L@DEOCELBD@expandtabs?$AA@		; `string'
PUBLIC	??_C@_05IOMEMJEC@count?$AA@			; `string'
PUBLIC	??_C@_06BBLOAEEI@center?$AA@			; `string'
PUBLIC	??_C@_05PHLGJONK@title?$AA@			; `string'
PUBLIC	??_C@_08NAILFLBF@casefold?$AA@			; `string'
PUBLIC	??_C@_0L@NMODNBEH@capitalize?$AA@		; `string'
PUBLIC	??_C@_04DFGCDGNN@join?$AA@			; `string'
PUBLIC	??_C@_06BAKFHKMF@rsplit?$AA@			; `string'
PUBLIC	??_C@_05EHPMMFBK@split?$AA@			; `string'
PUBLIC	??_C@_07CLEHDIEJ@replace?$AA@			; `string'
PUBLIC	??_C@_06GDGADLDP@encode?$AA@			; `string'
PUBLIC	??_C@_0BC@PNFANA@fieldnameiterator?$AA@		; `string'
PUBLIC	??_C@_0BC@OEBNLFHC@formatteriterator?$AA@	; `string'
PUBLIC	??_C@_08EMIAAFLA@keepends?$AA@			; `string'
PUBLIC	??_C@_08HONNCIIN@maxsplit?$AA@			; `string'
PUBLIC	??_C@_03MGBCFPKM@sep?$AA@			; `string'
PUBLIC	??_C@_08NLCECJOD@?$HMO?3strip?$AA@		; `string'
PUBLIC	??_C@_09LGDKGINA@?$HMO?3rstrip?$AA@		; `string'
PUBLIC	??_C@_09IBNLIPED@?$HMO?3lstrip?$AA@		; `string'
PUBLIC	??_C@_06EOMHCNPI@errors?$AA@			; `string'
PUBLIC	??_C@_08MLPGAEIK@encoding?$AA@			; `string'
PUBLIC	??_C@_0DL@NCJPFEFM@O?$CBn?$DLtranslating?5error?5handler?5mu@ ; `string'
PUBLIC	??_C@_0M@MLHFIPEJ@EncodingMap?$AA@		; `string'
PUBLIC	??_C@_0CK@PIMLJJMB@Return?5the?5size?5?$CIin?5bytes?$CJ?5of?5th@ ; `string'
PUBLIC	??_C@_04IAGNFIBA@size?$AA@			; `string'
PUBLIC	??_C@_0DN@ECBPBGH@On?$DLencoding?5error?5handler?5must?5r@ ; `string'
PUBLIC	??_C@_0DI@COHDJOGC@O?$CBn?$DLdecoding?5error?5handler?5must?5@ ; `string'
PUBLIC	tls_static_strings
PUBLIC	tls_interned
PUBLIC	tls_unicode_latin1
PUBLIC	_Py_ascii_whitespace
PUBLIC	PyUnicode_Type
PUBLIC	PyUnicodeIter_Type
EXTRN	PyObject_Free:PROC
EXTRN	PyBaseObject_Type:BYTE
EXTRN	PyObject_SelfIter:PROC
EXTRN	PyObject_GenericGetAttr:PROC
EXTRN	PyType_Type:BYTE
_TLS	SEGMENT
tls_static_strings DQ 01H DUP (?)
tls_interned DQ	01H DUP (?)
tls_unicode_latin1 DQ 0100H DUP (?)
_TLS	ENDS
_BSS	SEGMENT
interned DQ	01H DUP (?)
unicode_empty DQ 01H DUP (?)
static_strings DQ 01H DUP (?)
unicode_latin1 DQ 0100H DUP (?)
?nul@?1??_PyUnicode_HasNULChars@@9@9 DQ 01H DUP (?)	; `_PyUnicode_HasNULChars'::`2'::nul
ucnhash_CAPI DQ	01H DUP (?)
formatteriter_methods DB 020H DUP (?)
fieldnameiter_methods DB 020H DUP (?)
_BSS	ENDS
;	COMDAT ??_C@_0BF@BEBBJAIL@string?5helper?5module?$AA@
CONST	SEGMENT
??_C@_0BF@BEBBJAIL@string?5helper?5module?$AA@ DB 'string helper module', 00H ; `string'
CONST	ENDS
;	COMDAT ??_C@_07PGCBFEPB@_string?$AA@
CONST	SEGMENT
??_C@_07PGCBFEPB@_string?$AA@ DB '_string', 00H		; `string'
CONST	ENDS
;	COMDAT ??_C@_0CG@FCKLAMOB@parse?5the?5argument?5as?5a?5format?5s@
CONST	SEGMENT
??_C@_0CG@FCKLAMOB@parse?5the?5argument?5as?5a?5format?5s@ DB 'parse the '
	DB	'argument as a format string', 00H		; `string'
CONST	ENDS
;	COMDAT ??_C@_0BB@JJJFGPCM@formatter_parser?$AA@
CONST	SEGMENT
??_C@_0BB@JJJFGPCM@formatter_parser?$AA@ DB 'formatter_parser', 00H ; `string'
CONST	ENDS
;	COMDAT ??_C@_0CD@LNGEKMIN@split?5the?5argument?5as?5a?5field?5na@
CONST	SEGMENT
??_C@_0CD@LNGEKMIN@split?5the?5argument?5as?5a?5field?5na@ DB 'split the '
	DB	'argument as a field name', 00H		; `string'
CONST	ENDS
;	COMDAT ??_C@_0BL@GJEMJGHD@formatter_field_name_split?$AA@
CONST	SEGMENT
??_C@_0BL@GJEMJGHD@formatter_field_name_split?$AA@ DB 'formatter_field_na'
	DB	'me_split', 00H				; `string'
CONST	ENDS
;	COMDAT ??_C@_0N@GHJLLMAJ@str_iterator?$AA@
CONST	SEGMENT
??_C@_0N@GHJLLMAJ@str_iterator?$AA@ DB 'str_iterator', 00H ; `string'
CONST	ENDS
;	COMDAT ??_C@_0N@MOOGCAMH@__setstate__?$AA@
CONST	SEGMENT
??_C@_0N@MOOGCAMH@__setstate__?$AA@ DB '__setstate__', 00H ; `string'
CONST	ENDS
;	COMDAT ??_C@_0L@NNMACJIG@__reduce__?$AA@
CONST	SEGMENT
??_C@_0L@NNMACJIG@__reduce__?$AA@ DB '__reduce__', 00H	; `string'
CONST	ENDS
;	COMDAT ??_C@_0BA@BJLPBKGK@__length_hint__?$AA@
CONST	SEGMENT
??_C@_0BA@BJLPBKGK@__length_hint__?$AA@ DB '__length_hint__', 00H ; `string'
CONST	ENDS
;	COMDAT ??_C@_03OJMAPEGJ@str?$AA@
CONST	SEGMENT
??_C@_03OJMAPEGJ@str?$AA@ DB 'str', 00H			; `string'
CONST	ENDS
;	COMDAT ??_C@_06IEOJBDIK@object?$AA@
CONST	SEGMENT
??_C@_06IEOJBDIK@object?$AA@ DB 'object', 00H		; `string'
CONST	ENDS
;	COMDAT ??_C@_0P@BCBHENLA@__getnewargs__?$AA@
CONST	SEGMENT
??_C@_0P@BCBHENLA@__getnewargs__?$AA@ DB '__getnewargs__', 00H ; `string'
CONST	ENDS
;	COMDAT ??_C@_0L@HOGGIPGN@__sizeof__?$AA@
CONST	SEGMENT
??_C@_0L@HOGGIPGN@__sizeof__?$AA@ DB '__sizeof__', 00H	; `string'
CONST	ENDS
;	COMDAT ??_C@_09PBBLPCAA@maketrans?$AA@
CONST	SEGMENT
??_C@_09PBBLPCAA@maketrans?$AA@ DB 'maketrans', 00H	; `string'
CONST	ENDS
;	COMDAT ??_C@_0L@MEMCGMKL@__format__?$AA@
CONST	SEGMENT
??_C@_0L@MEMCGMKL@__format__?$AA@ DB '__format__', 00H	; `string'
CONST	ENDS
;	COMDAT ??_C@_0L@DBBJLEAP@format_map?$AA@
CONST	SEGMENT
??_C@_0L@DBBJLEAP@format_map?$AA@ DB 'format_map', 00H	; `string'
CONST	ENDS
;	COMDAT ??_C@_06DLEPGFEF@format?$AA@
CONST	SEGMENT
??_C@_06DLEPGFEF@format?$AA@ DB 'format', 00H		; `string'
CONST	ENDS
;	COMDAT ??_C@_05DMFNFMHA@zfill?$AA@
CONST	SEGMENT
??_C@_05DMFNFMHA@zfill?$AA@ DB 'zfill', 00H		; `string'
CONST	ENDS
;	COMDAT ??_C@_0M@JGKJDKBM@isprintable?$AA@
CONST	SEGMENT
??_C@_0M@JGKJDKBM@isprintable?$AA@ DB 'isprintable', 00H ; `string'
CONST	ENDS
;	COMDAT ??_C@_0N@DOKMMCGL@isidentifier?$AA@
CONST	SEGMENT
??_C@_0N@DOKMMCGL@isidentifier?$AA@ DB 'isidentifier', 00H ; `string'
CONST	ENDS
;	COMDAT ??_C@_07EOADCIGC@isalnum?$AA@
CONST	SEGMENT
??_C@_07EOADCIGC@isalnum?$AA@ DB 'isalnum', 00H		; `string'
CONST	ENDS
;	COMDAT ??_C@_07EGIOHHOB@isalpha?$AA@
CONST	SEGMENT
??_C@_07EGIOHHOB@isalpha?$AA@ DB 'isalpha', 00H		; `string'
CONST	ENDS
;	COMDAT ??_C@_09KOMAEOED@isnumeric?$AA@
CONST	SEGMENT
??_C@_09KOMAEOED@isnumeric?$AA@ DB 'isnumeric', 00H	; `string'
CONST	ENDS
;	COMDAT ??_C@_07CFBKIKCH@isdigit?$AA@
CONST	SEGMENT
??_C@_07CFBKIKCH@isdigit?$AA@ DB 'isdigit', 00H		; `string'
CONST	ENDS
;	COMDAT ??_C@_09CGNFEIIK@isdecimal?$AA@
CONST	SEGMENT
??_C@_09CGNFEIIK@isdecimal?$AA@ DB 'isdecimal', 00H	; `string'
CONST	ENDS
;	COMDAT ??_C@_07CNBMLEON@isspace?$AA@
CONST	SEGMENT
??_C@_07CNBMLEON@isspace?$AA@ DB 'isspace', 00H		; `string'
CONST	ENDS
;	COMDAT ??_C@_07DBHCJBDG@istitle?$AA@
CONST	SEGMENT
??_C@_07DBHCJBDG@istitle?$AA@ DB 'istitle', 00H		; `string'
CONST	ENDS
;	COMDAT ??_C@_07BCOOJPCO@isupper?$AA@
CONST	SEGMENT
??_C@_07BCOOJPCO@isupper?$AA@ DB 'isupper', 00H		; `string'
CONST	ENDS
;	COMDAT ??_C@_07EJFAPEJH@islower?$AA@
CONST	SEGMENT
??_C@_07EJFAPEJH@islower?$AA@ DB 'islower', 00H		; `string'
CONST	ENDS
;	COMDAT ??_C@_08MLCMCPNP@endswith?$AA@
CONST	SEGMENT
??_C@_08MLCMCPNP@endswith?$AA@ DB 'endswith', 00H	; `string'
CONST	ENDS
;	COMDAT ??_C@_0L@MPOGHCCL@startswith?$AA@
CONST	SEGMENT
??_C@_0L@MPOGHCCL@startswith?$AA@ DB 'startswith', 00H	; `string'
CONST	ENDS
;	COMDAT ??_C@_05NECKJAMC@upper?$AA@
CONST	SEGMENT
??_C@_05NECKJAMC@upper?$AA@ DB 'upper', 00H		; `string'
CONST	ENDS
;	COMDAT ??_C@_09ODNGOEIO@translate?$AA@
CONST	SEGMENT
??_C@_09ODNGOEIO@translate?$AA@ DB 'translate', 00H	; `string'
CONST	ENDS
;	COMDAT ??_C@_08EDJLBCEI@swapcase?$AA@
CONST	SEGMENT
??_C@_08EDJLBCEI@swapcase?$AA@ DB 'swapcase', 00H	; `string'
CONST	ENDS
;	COMDAT ??_C@_05GGNGIGHC@strip?$AA@
CONST	SEGMENT
??_C@_05GGNGIGHC@strip?$AA@ DB 'strip', 00H		; `string'
CONST	ENDS
;	COMDAT ??_C@_0L@BCMGLLLC@splitlines?$AA@
CONST	SEGMENT
??_C@_0L@BCMGLLLC@splitlines?$AA@ DB 'splitlines', 00H	; `string'
CONST	ENDS
;	COMDAT ??_C@_0L@KEEHLNKL@rpartition?$AA@
CONST	SEGMENT
??_C@_0L@KEEHLNKL@rpartition?$AA@ DB 'rpartition', 00H	; `string'
CONST	ENDS
;	COMDAT ??_C@_06DBIPDJKN@rstrip?$AA@
CONST	SEGMENT
??_C@_06DBIPDJKN@rstrip?$AA@ DB 'rstrip', 00H		; `string'
CONST	ENDS
;	COMDAT ??_C@_05JKFAKHCP@rjust?$AA@
CONST	SEGMENT
??_C@_05JKFAKHCP@rjust?$AA@ DB 'rjust', 00H		; `string'
CONST	ENDS
;	COMDAT ??_C@_06NCDOMFM@rindex?$AA@
CONST	SEGMENT
??_C@_06NCDOMFM@rindex?$AA@ DB 'rindex', 00H		; `string'
CONST	ENDS
;	COMDAT ??_C@_05BLFDIAHL@rfind?$AA@
CONST	SEGMENT
??_C@_05BLFDIAHL@rfind?$AA@ DB 'rfind', 00H		; `string'
CONST	ENDS
;	COMDAT ??_C@_06GGONODO@lstrip?$AA@
CONST	SEGMENT
??_C@_06GGONODO@lstrip?$AA@ DB 'lstrip', 00H		; `string'
CONST	ENDS
;	COMDAT ??_C@_05IPJEPLHL@lower?$AA@
CONST	SEGMENT
??_C@_05IPJEPLHL@lower?$AA@ DB 'lower', 00H		; `string'
CONST	ENDS
;	COMDAT ??_C@_05KDIMMEME@ljust?$AA@
CONST	SEGMENT
??_C@_05KDIMMEME@ljust?$AA@ DB 'ljust', 00H		; `string'
CONST	ENDS
;	COMDAT ??_C@_05FKHKFDID@index?$AA@
CONST	SEGMENT
??_C@_05FKHKFDID@index?$AA@ DB 'index', 00H		; `string'
CONST	ENDS
;	COMDAT ??_C@_09IKAEIPAD@partition?$AA@
CONST	SEGMENT
??_C@_09IKAEIPAD@partition?$AA@ DB 'partition', 00H	; `string'
CONST	ENDS
;	COMDAT ??_C@_04CKFJHKAP@find?$AA@
CONST	SEGMENT
??_C@_04CKFJHKAP@find?$AA@ DB 'find', 00H		; `string'
CONST	ENDS
;	COMDAT ??_C@_0L@DEOCELBD@expandtabs?$AA@
CONST	SEGMENT
??_C@_0L@DEOCELBD@expandtabs?$AA@ DB 'expandtabs', 00H	; `string'
CONST	ENDS
;	COMDAT ??_C@_05IOMEMJEC@count?$AA@
CONST	SEGMENT
??_C@_05IOMEMJEC@count?$AA@ DB 'count', 00H		; `string'
CONST	ENDS
;	COMDAT ??_C@_06BBLOAEEI@center?$AA@
CONST	SEGMENT
??_C@_06BBLOAEEI@center?$AA@ DB 'center', 00H		; `string'
CONST	ENDS
;	COMDAT ??_C@_05PHLGJONK@title?$AA@
CONST	SEGMENT
??_C@_05PHLGJONK@title?$AA@ DB 'title', 00H		; `string'
CONST	ENDS
;	COMDAT ??_C@_08NAILFLBF@casefold?$AA@
CONST	SEGMENT
??_C@_08NAILFLBF@casefold?$AA@ DB 'casefold', 00H	; `string'
CONST	ENDS
;	COMDAT ??_C@_0L@NMODNBEH@capitalize?$AA@
CONST	SEGMENT
??_C@_0L@NMODNBEH@capitalize?$AA@ DB 'capitalize', 00H	; `string'
CONST	ENDS
;	COMDAT ??_C@_04DFGCDGNN@join?$AA@
CONST	SEGMENT
??_C@_04DFGCDGNN@join?$AA@ DB 'join', 00H		; `string'
CONST	ENDS
;	COMDAT ??_C@_06BAKFHKMF@rsplit?$AA@
CONST	SEGMENT
??_C@_06BAKFHKMF@rsplit?$AA@ DB 'rsplit', 00H		; `string'
CONST	ENDS
;	COMDAT ??_C@_05EHPMMFBK@split?$AA@
CONST	SEGMENT
??_C@_05EHPMMFBK@split?$AA@ DB 'split', 00H		; `string'
CONST	ENDS
;	COMDAT ??_C@_07CLEHDIEJ@replace?$AA@
CONST	SEGMENT
??_C@_07CLEHDIEJ@replace?$AA@ DB 'replace', 00H		; `string'
CONST	ENDS
;	COMDAT ??_C@_06GDGADLDP@encode?$AA@
CONST	SEGMENT
??_C@_06GDGADLDP@encode?$AA@ DB 'encode', 00H		; `string'
CONST	ENDS
;	COMDAT ??_C@_0BC@PNFANA@fieldnameiterator?$AA@
CONST	SEGMENT
??_C@_0BC@PNFANA@fieldnameiterator?$AA@ DB 'fieldnameiterator', 00H ; `string'
CONST	ENDS
;	COMDAT ??_C@_0BC@OEBNLFHC@formatteriterator?$AA@
CONST	SEGMENT
??_C@_0BC@OEBNLFHC@formatteriterator?$AA@ DB 'formatteriterator', 00H ; `string'
CONST	ENDS
;	COMDAT ??_C@_08EMIAAFLA@keepends?$AA@
CONST	SEGMENT
??_C@_08EMIAAFLA@keepends?$AA@ DB 'keepends', 00H	; `string'
CONST	ENDS
;	COMDAT ??_C@_08HONNCIIN@maxsplit?$AA@
CONST	SEGMENT
??_C@_08HONNCIIN@maxsplit?$AA@ DB 'maxsplit', 00H	; `string'
CONST	ENDS
;	COMDAT ??_C@_03MGBCFPKM@sep?$AA@
CONST	SEGMENT
??_C@_03MGBCFPKM@sep?$AA@ DB 'sep', 00H			; `string'
CONST	ENDS
;	COMDAT ??_C@_08NLCECJOD@?$HMO?3strip?$AA@
CONST	SEGMENT
??_C@_08NLCECJOD@?$HMO?3strip?$AA@ DB '|O:strip', 00H	; `string'
CONST	ENDS
;	COMDAT ??_C@_09LGDKGINA@?$HMO?3rstrip?$AA@
CONST	SEGMENT
??_C@_09LGDKGINA@?$HMO?3rstrip?$AA@ DB '|O:rstrip', 00H	; `string'
CONST	ENDS
;	COMDAT ??_C@_09IBNLIPED@?$HMO?3lstrip?$AA@
CONST	SEGMENT
??_C@_09IBNLIPED@?$HMO?3lstrip?$AA@ DB '|O:lstrip', 00H	; `string'
CONST	ENDS
;	COMDAT ??_C@_06EOMHCNPI@errors?$AA@
CONST	SEGMENT
??_C@_06EOMHCNPI@errors?$AA@ DB 'errors', 00H		; `string'
CONST	ENDS
;	COMDAT ??_C@_08MLPGAEIK@encoding?$AA@
CONST	SEGMENT
??_C@_08MLPGAEIK@encoding?$AA@ DB 'encoding', 00H	; `string'
CONST	ENDS
;	COMDAT ??_C@_0DL@NCJPFEFM@O?$CBn?$DLtranslating?5error?5handler?5mu@
CONST	SEGMENT
??_C@_0DL@NCJPFEFM@O?$CBn?$DLtranslating?5error?5handler?5mu@ DB 'O!n;tra'
	DB	'nslating error handler must return (str, int) tuple', 00H ; `string'
CONST	ENDS
;	COMDAT ??_C@_0M@MLHFIPEJ@EncodingMap?$AA@
CONST	SEGMENT
??_C@_0M@MLHFIPEJ@EncodingMap?$AA@ DB 'EncodingMap', 00H ; `string'
CONST	ENDS
;	COMDAT ??_C@_0CK@PIMLJJMB@Return?5the?5size?5?$CIin?5bytes?$CJ?5of?5th@
CONST	SEGMENT
??_C@_0CK@PIMLJJMB@Return?5the?5size?5?$CIin?5bytes?$CJ?5of?5th@ DB 'Retu'
	DB	'rn the size (in bytes) of this object', 00H	; `string'
CONST	ENDS
;	COMDAT ??_C@_04IAGNFIBA@size?$AA@
CONST	SEGMENT
??_C@_04IAGNFIBA@size?$AA@ DB 'size', 00H		; `string'
CONST	ENDS
;	COMDAT ??_C@_0DN@ECBPBGH@On?$DLencoding?5error?5handler?5must?5r@
CONST	SEGMENT
??_C@_0DN@ECBPBGH@On?$DLencoding?5error?5handler?5must?5r@ DB 'On;encodin'
	DB	'g error handler must return (str/bytes, int) tuple', 00H ; `string'
CONST	ENDS
;	COMDAT ??_C@_0DI@COHDJOGC@O?$CBn?$DLdecoding?5error?5handler?5must?5@
CONST	SEGMENT
??_C@_0DI@COHDJOGC@O?$CBn?$DLdecoding?5error?5handler?5must?5@ DB 'O!n;de'
	DB	'coding error handler must return (str, int) tuple', 00H ; `string'
CONST	ENDS
_DATA	SEGMENT
ascii_linebreak DB 00H
	DB	00H
	DB	00H
	DB	00H
	DB	00H
	DB	00H
	DB	00H
	DB	00H
	DB	00H
	DB	00H
	DB	01H
	DB	01H
	DB	01H
	DB	01H
	DB	00H
	DB	00H
	DB	00H
	DB	00H
	DB	00H
	DB	00H
	DB	00H
	DB	00H
	DB	00H
	DB	00H
	DB	00H
	DB	00H
	DB	00H
	DB	00H
	DB	01H
	DB	01H
	DB	01H
	DB	00H
	DB	00H
	DB	00H
	DB	00H
	DB	00H
	DB	00H
	DB	00H
	DB	00H
	DB	00H
	DB	00H
	DB	00H
	DB	00H
	DB	00H
	DB	00H
	DB	00H
	DB	00H
	DB	00H
	DB	00H
	DB	00H
	DB	00H
	DB	00H
	DB	00H
	DB	00H
	DB	00H
	DB	00H
	DB	00H
	DB	00H
	DB	00H
	DB	00H
	DB	00H
	DB	00H
	DB	00H
	DB	00H
	DB	00H
	DB	00H
	DB	00H
	DB	00H
	DB	00H
	DB	00H
	DB	00H
	DB	00H
	DB	00H
	DB	00H
	DB	00H
	DB	00H
	DB	00H
	DB	00H
	DB	00H
	DB	00H
	DB	00H
	DB	00H
	DB	00H
	DB	00H
	DB	00H
	DB	00H
	DB	00H
	DB	00H
	DB	00H
	DB	00H
	DB	00H
	DB	00H
	DB	00H
	DB	00H
	DB	00H
	DB	00H
	DB	00H
	DB	00H
	DB	00H
	DB	00H
	DB	00H
	DB	00H
	DB	00H
	DB	00H
	DB	00H
	DB	00H
	DB	00H
	DB	00H
	DB	00H
	DB	00H
	DB	00H
	DB	00H
	DB	00H
	DB	00H
	DB	00H
	DB	00H
	DB	00H
	DB	00H
	DB	00H
	DB	00H
	DB	00H
	DB	00H
	DB	00H
	DB	00H
	DB	00H
	DB	00H
	DB	00H
	DB	00H
bloom_linebreak DD 0ffffffffH
	ORG $+4
?argparse@?1??unicode_decode_call_errorhandler@@9@9 DQ FLAT:??_C@_0DI@COHDJOGC@O?$CBn?$DLdecoding?5error?5handler?5must?5@ ; `unicode_decode_call_errorhandler'::`2'::argparse
utf7_category DB 03H
	DB	03H
	DB	03H
	DB	03H
	DB	03H
	DB	03H
	DB	03H
	DB	03H
	DB	03H
	DB	02H
	DB	02H
	DB	03H
	DB	03H
	DB	02H
	DB	03H
	DB	03H
	DB	03H
	DB	03H
	DB	03H
	DB	03H
	DB	03H
	DB	03H
	DB	03H
	DB	03H
	DB	03H
	DB	03H
	DB	03H
	DB	03H
	DB	03H
	DB	03H
	DB	03H
	DB	03H
	DB	02H
	DB	01H
	DB	01H
	DB	01H
	DB	01H
	DB	01H
	DB	01H
	DB	00H
	DB	00H
	DB	00H
	DB	01H
	DB	03H
	DB	00H
	DB	00H
	DB	00H
	DB	00H
	DB	00H
	DB	00H
	DB	00H
	DB	00H
	DB	00H
	DB	00H
	DB	00H
	DB	00H
	DB	00H
	DB	00H
	DB	00H
	DB	01H
	DB	01H
	DB	01H
	DB	01H
	DB	00H
	DB	01H
	DB	00H
	DB	00H
	DB	00H
	DB	00H
	DB	00H
	DB	00H
	DB	00H
	DB	00H
	DB	00H
	DB	00H
	DB	00H
	DB	00H
	DB	00H
	DB	00H
	DB	00H
	DB	00H
	DB	00H
	DB	00H
	DB	00H
	DB	00H
	DB	00H
	DB	00H
	DB	00H
	DB	00H
	DB	00H
	DB	00H
	DB	01H
	DB	03H
	DB	01H
	DB	01H
	DB	01H
	DB	01H
	DB	00H
	DB	00H
	DB	00H
	DB	00H
	DB	00H
	DB	00H
	DB	00H
	DB	00H
	DB	00H
	DB	00H
	DB	00H
	DB	00H
	DB	00H
	DB	00H
	DB	00H
	DB	00H
	DB	00H
	DB	00H
	DB	00H
	DB	00H
	DB	00H
	DB	00H
	DB	00H
	DB	00H
	DB	00H
	DB	00H
	DB	01H
	DB	01H
	DB	01H
	DB	03H
	DB	03H
?argparse@?1??unicode_encode_call_errorhandler@@9@9 DQ FLAT:??_C@_0DN@ECBPBGH@On?$DLencoding?5error?5handler?5must?5r@ ; `unicode_encode_call_errorhandler'::`2'::argparse
?argparse@?1??unicode_translate_call_errorhandler@@9@9 DQ FLAT:??_C@_0DL@NCJPFEFM@O?$CBn?$DLtranslating?5error?5handler?5mu@ ; `unicode_translate_call_errorhandler'::`2'::argparse
encoding_map_methods DQ FLAT:??_C@_04IAGNFIBA@size?$AA@
	DQ	FLAT:encoding_map_size
	DD	04H
	ORG $+4
	DQ	FLAT:??_C@_0CK@PIMLJJMB@Return?5the?5size?5?$CIin?5bytes?$CJ?5of?5th@
	DQ	0000000000000000H
	ORG $+24
EncodingMapType DQ dead1234beef5678H
	DQ	dead1234beef5678H
	DQ	0000000000000000H
	ORG $+8
	DQ	0000000000000001H
	DQ	0000000000000000H
	DQ	0000000000000000H
	DQ	0000000000000000H
	DQ	dead1234beef5678H
	DQ	dead1234beef5678H
	DQ	0000000000000001H
	DQ	0000000000000000H
	DQ	0000000000000000H
	ORG $+8
	DQ	FLAT:??_C@_0M@MLHFIPEJ@EncodingMap?$AA@
	DQ	0000000000000090H
	DQ	0000000000000000H
	DQ	FLAT:encoding_map_dealloc
	DQ	0000000000000000H
	DQ	0000000000000000H
	DQ	0000000000000000H
	DQ	0000000000000000H
	DQ	0000000000000000H
	DQ	0000000000000000H
	DQ	0000000000000000H
	DQ	0000000000000000H
	DQ	0000000000000000H
	DQ	0000000000000000H
	DQ	0000000000000000H
	DQ	0000000000000000H
	DQ	0000000000000000H
	DQ	0000000000000000H
	DD	040000H
	ORG $+4
	DQ	0000000000000000H
	DQ	0000000000000000H
	DQ	0000000000000000H
	DQ	0000000000000000H
	DQ	0000000000000000H
	DQ	0000000000000000H
	DQ	0000000000000000H
	DQ	FLAT:encoding_map_methods
	DQ	0000000000000000H
	DQ	0000000000000000H
	DQ	0000000000000000H
	DQ	0000000000000000H
	DQ	0000000000000000H
	DQ	0000000000000000H
	DQ	0000000000000000H
	DQ	0000000000000000H
	DQ	0000000000000000H
	DQ	0000000000000000H
	DQ	0000000000000000H
	DQ	0000000000000000H
	ORG $+56
title__doc__ DB	'S.title() -> str', 0aH, 0aH, 'Return a titlecased versio'
	DB	'n of S, i.e. words start with title case', 0aH, 'characters, '
	DB	'all remaining cased characters have lower case.', 00H
	ORG $+7
?kwlist@?1??unicode_encode@@9@9 DQ FLAT:??_C@_08MLPGAEIK@encoding?$AA@ ; `unicode_encode'::`2'::kwlist
	DQ	FLAT:??_C@_06EOMHCNPI@errors?$AA@
	DQ	0000000000000000H
capitalize__doc__ DB 'S.capitalize() -> str', 0aH, 0aH, 'Return a capital'
	DB	'ized version of S, i.e. make the first character', 0aH, 'have'
	DB	' upper case and the rest lower case.', 00H
	ORG $+7
stripformat DQ	FLAT:??_C@_09IBNLIPED@?$HMO?3lstrip?$AA@
	DQ	FLAT:??_C@_09LGDKGINA@?$HMO?3rstrip?$AA@
	DQ	FLAT:??_C@_08NLCECJOD@?$HMO?3strip?$AA@
casefold__doc__ DB 'S.casefold() -> str', 0aH, 0aH, 'Return a version of '
	DB	'S suitable for caseless comparisons.', 00H
	ORG $+2
center__doc__ DB 'S.center(width[, fillchar]) -> str', 0aH, 0aH, 'Return '
	DB	'S centered in a string of length width. Padding is', 0aH, 'do'
	DB	'ne using the specified fill character (default is a space)', 00H
	ORG $+5
count__doc__ DB	'S.count(sub[, start[, end]]) -> int', 0aH, 0aH, 'Return '
	DB	'the number of non-overlapping occurrences of substring sub in'
	DB	0aH, 'string S[start:end].  Optional arguments start and end a'
	DB	're', 0aH, 'interpreted as in slice notation.', 00H
	ORG $+1
?kwlist@?1??unicode_split@@9@9 DQ FLAT:??_C@_03MGBCFPKM@sep?$AA@ ; `unicode_split'::`2'::kwlist
	DQ	FLAT:??_C@_08HONNCIIN@maxsplit?$AA@
	DQ	0000000000000000H
encode__doc__ DB 'S.encode(encoding=''utf-8'', errors=''strict'') -> byte'
	DB	's', 0aH, 0aH, 'Encode S using the codec registered for encodi'
	DB	'ng. Default encoding', 0aH, 'is ''utf-8''. errors may be give'
	DB	'n to set a different error', 0aH, 'handling scheme. Default i'
	DB	's ''strict'' meaning that encoding errors raise', 0aH, 'a Uni'
	DB	'codeEncodeError. Other possible values are ''ignore'', ''repl'
	DB	'ace'' and', 0aH, '''xmlcharrefreplace'' as well as any other '
	DB	'name registered with', 0aH, 'codecs.register_error that can h'
	DB	'andle UnicodeEncodeErrors.', 00H
	ORG $+5
expandtabs__doc__ DB 'S.expandtabs([tabsize]) -> str', 0aH, 0aH, 'Return '
	DB	'a copy of S where all tab characters are expanded using space'
	DB	's.', 0aH, 'If tabsize is not given, a tab size of 8 character'
	DB	's is assumed.', 00H
	ORG $+1
?kwlist@?1??unicode_rsplit@@9@9 DQ FLAT:??_C@_03MGBCFPKM@sep?$AA@ ; `unicode_rsplit'::`2'::kwlist
	DQ	FLAT:??_C@_08HONNCIIN@maxsplit?$AA@
	DQ	0000000000000000H
find__doc__ DB	'S.find(sub[, start[, end]]) -> int', 0aH, 0aH, 'Return t'
	DB	'he lowest index in S where substring sub is found,', 0aH, 'su'
	DB	'ch that sub is contained within S[start:end].  Optional', 0aH
	DB	'arguments start and end are interpreted as in slice notation.'
	DB	0aH, 0aH, 'Return -1 on failure.', 00H
	ORG $+2
index__doc__ DB	'S.index(sub[, start[, end]]) -> int', 0aH, 0aH, 'Like S.'
	DB	'find() but raise ValueError when the substring is not found.', 00H
	ORG $+7
islower__doc__ DB 'S.islower() -> bool', 0aH, 0aH, 'Return True if all ca'
	DB	'sed characters in S are lowercase and there is', 0aH, 'at lea'
	DB	'st one cased character in S, False otherwise.', 00H
	ORG $+3
isupper__doc__ DB 'S.isupper() -> bool', 0aH, 0aH, 'Return True if all ca'
	DB	'sed characters in S are uppercase and there is', 0aH, 'at lea'
	DB	'st one cased character in S, False otherwise.', 00H
	ORG $+3
istitle__doc__ DB 'S.istitle() -> bool', 0aH, 0aH, 'Return True if S is a'
	DB	' titlecased string and there is at least one', 0aH, 'characte'
	DB	'r in S, i.e. upper- and titlecase characters may only', 0aH, 'f'
	DB	'ollow uncased characters and lowercase characters only cased '
	DB	'ones.', 0aH, 'Return False otherwise.', 00H
	ORG $+7
?kwlist@?1??unicode_splitlines@@9@9 DQ FLAT:??_C@_08EMIAAFLA@keepends?$AA@ ; `unicode_splitlines'::`2'::kwlist
	DQ	0000000000000000H
unicode_as_mapping DQ FLAT:unicode_length
	DQ	FLAT:unicode_subscript
	DQ	0000000000000000H
isspace__doc__ DB 'S.isspace() -> bool', 0aH, 0aH, 'Return True if all ch'
	DB	'aracters in S are whitespace', 0aH, 'and there is at least on'
	DB	'e character in S, False otherwise.', 00H
	ORG $+6
upper__doc__ DB	'S.upper() -> str', 0aH, 0aH, 'Return a copy of S convert'
	DB	'ed to uppercase.', 00H
	ORG $+3
sizeof__doc__ DB 'S.__sizeof__() -> size of S in memory, in bytes', 00H
length_hint_doc DB 'Private method returning an estimate of len(list(it))'
	DB	'.', 00H
	ORG $+1
isalpha__doc__ DB 'S.isalpha() -> bool', 0aH, 0aH, 'Return True if all ch'
	DB	'aracters in S are alphabetic', 0aH, 'and there is at least on'
	DB	'e character in S, False otherwise.', 00H
	ORG $+6
?kwlist@?1??unicode_new@@9@9 DQ FLAT:??_C@_06IEOJBDIK@object?$AA@ ; `unicode_new'::`2'::kwlist
	DQ	FLAT:??_C@_08MLPGAEIK@encoding?$AA@
	DQ	FLAT:??_C@_06EOMHCNPI@errors?$AA@
	DQ	0000000000000000H
reduce_doc DB	'Return state information for pickling.', 00H
	ORG $+1
isalnum__doc__ DB 'S.isalnum() -> bool', 0aH, 0aH, 'Return True if all ch'
	DB	'aracters in S are alphanumeric', 0aH, 'and there is at least '
	DB	'one character in S, False otherwise.', 00H
	ORG $+4
setstate_doc DB	'Set state information for unpickling.', 00H
	ORG $+2
isdecimal__doc__ DB 'S.isdecimal() -> bool', 0aH, 0aH, 'Return True if th'
	DB	'ere are only decimal characters in S,', 0aH, 'False otherwise'
	DB	'.', 00H
	ORG $+1
isdigit__doc__ DB 'S.isdigit() -> bool', 0aH, 0aH, 'Return True if all ch'
	DB	'aracters in S are digits', 0aH, 'and there is at least one ch'
	DB	'aracter in S, False otherwise.', 00H
	ORG $+2
isnumeric__doc__ DB 'S.isnumeric() -> bool', 0aH, 0aH, 'Return True if th'
	DB	'ere are only numeric characters in S,', 0aH, 'False otherwise'
	DB	'.', 00H
	ORG $+1
isidentifier__doc__ DB 'S.isidentifier() -> bool', 0aH, 0aH, 'Return True'
	DB	' if S is a valid identifier according', 0aH, 'to the language'
	DB	' definition.', 0aH, 0aH, 'Use keyword.iskeyword() to test for'
	DB	' reserved identifiers', 0aH, 'such as "def" and "class".', 0aH
	DB	00H
	ORG $+3
isprintable__doc__ DB 'S.isprintable() -> bool', 0aH, 0aH, 'Return True i'
	DB	'f all characters in S are considered', 0aH, 'printable in rep'
	DB	'r() or S is empty, False otherwise.', 00H
	ORG $+1
join__doc__ DB	'S.join(iterable) -> str', 0aH, 0aH, 'Return a string whi'
	DB	'ch is the concatenation of the strings in the', 0aH, 'iterabl'
	DB	'e.  The separator between elements is S.', 00H
	ORG $+6
ljust__doc__ DB	'S.ljust(width[, fillchar]) -> str', 0aH, 0aH, 'Return S '
	DB	'left-justified in a Unicode string of length width. Padding i'
	DB	's', 0aH, 'done using the specified fill character (default is'
	DB	' a space).', 00H
	ORG $+7
lower__doc__ DB	'S.lower() -> str', 0aH, 0aH, 'Return a copy of the strin'
	DB	'g S converted to lowercase.', 00H
	ORG $+8
strip__doc__ DB	'S.strip([chars]) -> str', 0aH, 0aH, 'Return a copy of th'
	DB	'e string S with leading and trailing', 0aH, 'whitespace remov'
	DB	'ed.', 0aH, 'If chars is given and not None, remove characters'
	DB	' in chars instead.', 00H
	ORG $+7
lstrip__doc__ DB 'S.lstrip([chars]) -> str', 0aH, 0aH, 'Return a copy of '
	DB	'the string S with leading whitespace removed.', 0aH, 'If char'
	DB	's is given and not None, remove characters in chars instead.', 00H
	ORG $+3
rstrip__doc__ DB 'S.rstrip([chars]) -> str', 0aH, 0aH, 'Return a copy of '
	DB	'the string S with trailing whitespace removed.', 0aH, 'If cha'
	DB	'rs is given and not None, remove characters in chars instead.'
	DB	00H
	ORG $+2
replace__doc__ DB 'S.replace(old, new[, count]) -> str', 0aH, 0aH, 'Retur'
	DB	'n a copy of S with all occurrences of substring', 0aH, 'old r'
	DB	'eplaced by new.  If the optional argument count is', 0aH, 'gi'
	DB	'ven, only the first count occurrences are replaced.', 00H
	ORG $+8
rfind__doc__ DB	'S.rfind(sub[, start[, end]]) -> int', 0aH, 0aH, 'Return '
	DB	'the highest index in S where substring sub is found,', 0aH, 's'
	DB	'uch that sub is contained within S[start:end].  Optional', 0aH
	DB	'arguments start and end are interpreted as in slice notation.'
	DB	0aH, 0aH, 'Return -1 on failure.', 00H
rindex__doc__ DB 'S.rindex(sub[, start[, end]]) -> int', 0aH, 0aH, 'Like '
	DB	'S.rfind() but raise ValueError when the substring is not foun'
	DB	'd.', 00H
	ORG $+5
rjust__doc__ DB	'S.rjust(width[, fillchar]) -> str', 0aH, 0aH, 'Return S '
	DB	'right-justified in a string of length width. Padding is', 0aH
	DB	'done using the specified fill character (default is a space).'
	DB	00H
	ORG $+14
split__doc__ DB	'S.split(sep=None, maxsplit=-1) -> list of strings', 0aH, 0aH
	DB	'Return a list of the words in S, using sep as the', 0aH, 'del'
	DB	'imiter string.  If maxsplit is given, at most maxsplit', 0aH, 's'
	DB	'plits are done. If sep is not specified or is None, any', 0aH
	DB	'whitespace string is a separator and empty strings are', 0aH, 'r'
	DB	'emoved from the result.', 00H
	ORG $+8
partition__doc__ DB 'S.partition(sep) -> (head, sep, tail)', 0aH, 0aH, 'S'
	DB	'earch for the separator sep in S, and return the part before '
	DB	'it,', 0aH, 'the separator itself, and the part after it.  If '
	DB	'the separator is not', 0aH, 'found, return S and two empty st'
	DB	'rings.', 00H
	ORG $+10
rpartition__doc__ DB 'S.rpartition(sep) -> (head, sep, tail)', 0aH, 0aH, 'S'
	DB	'earch for the separator sep in S, starting at the end of S, a'
	DB	'nd return', 0aH, 'the part before it, the separator itself, a'
	DB	'nd the part after it.  If the', 0aH, 'separator is not found,'
	DB	' return two empty strings and S.', 00H
	ORG $+15
rsplit__doc__ DB 'S.rsplit(sep=None, maxsplit=-1) -> list of strings', 0aH
	DB	0aH, 'Return a list of the words in S, using sep as the', 0aH, 'd'
	DB	'elimiter string, starting at the end of the string and', 0aH, 'w'
	DB	'orking to the front.  If maxsplit is given, at most maxsplit', 0aH
	DB	'splits are done. If sep is not specified, any whitespace stri'
	DB	'ng', 0aH, 'is a separator.', 00H
	ORG $+4
splitlines__doc__ DB 'S.splitlines([keepends]) -> list of strings', 0aH, 0aH
	DB	'Return a list of the lines in S, breaking at line boundaries.'
	DB	0aH, 'Line breaks are not included in the resulting list unles'
	DB	's keepends', 0aH, 'is given and true.', 00H
	ORG $+15
swapcase__doc__ DB 'S.swapcase() -> str', 0aH, 0aH, 'Return a copy of S w'
	DB	'ith uppercase characters converted to lowercase', 0aH, 'and v'
	DB	'ice versa.', 00H
	ORG $+7
maketrans__doc__ DB 'str.maketrans(x[, y[, z]]) -> dict (static method)', 0aH
	DB	0aH, 'Return a translation table usable for str.translate().', 0aH
	DB	'If there is only one argument, it must be a dictionary mappin'
	DB	'g Unicode', 0aH, 'ordinals (integers) or characters to Unicod'
	DB	'e ordinals, strings or None.', 0aH, 'Character keys will be t'
	DB	'hen converted to ordinals.', 0aH, 'If there are two arguments'
	DB	', they must be strings of equal length, and', 0aH, 'in the re'
	DB	'sulting dictionary, each character in x will be mapped to the'
	DB	0aH, 'character at the same position in y. If there is a third'
	DB	' argument, it', 0aH, 'must be a string, whose characters will'
	DB	' be mapped to None in the result.', 00H
	ORG $+7
translate__doc__ DB 'S.translate(table) -> str', 0aH, 0aH, 'Return a copy'
	DB	' of the string S, where all characters have been mapped', 0aH
	DB	'through the given translation table, which must be a mapping '
	DB	'of', 0aH, 'Unicode ordinals to Unicode ordinals, strings, or '
	DB	'None.', 0aH, 'Unmapped characters are left untouched. Charact'
	DB	'ers mapped to None', 0aH, 'are deleted.', 00H
	ORG $+9
zfill__doc__ DB	'S.zfill(width) -> str', 0aH, 0aH, 'Pad a numeric string '
	DB	'S with zeros on the left, to fill a field', 0aH, 'of the spec'
	DB	'ified width. The string S is never truncated.', 00H
	ORG $+1
startswith__doc__ DB 'S.startswith(prefix[, start[, end]]) -> bool', 0aH, 0aH
	DB	'Return True if S starts with the specified prefix, False othe'
	DB	'rwise.', 0aH, 'With optional start, test S beginning at that '
	DB	'position.', 0aH, 'With optional end, stop comparing S at that'
	DB	' position.', 0aH, 'prefix can also be a tuple of strings to t'
	DB	'ry.', 00H
	ORG $+2
endswith__doc__ DB 'S.endswith(suffix[, start[, end]]) -> bool', 0aH, 0aH
	DB	'Return True if S ends with the specified suffix, False otherw'
	DB	'ise.', 0aH, 'With optional start, test S beginning at that po'
	DB	'sition.', 0aH, 'With optional end, stop comparing S at that p'
	DB	'osition.', 0aH, 'suffix can also be a tuple of strings to try'
	DB	'.', 00H
	ORG $+6
PyFormatterIter_Type DQ dead1234beef5678H
	DQ	dead1234beef5678H
	DQ	0000000000000000H
	ORG $+8
	DQ	0000000000000001H
	DQ	0000000000000000H
	DQ	0000000000000000H
	DQ	0000000000000000H
	DQ	dead1234beef5678H
	DQ	dead1234beef5678H
	DQ	0000000000000001H
	DQ	FLAT:PyType_Type
	DQ	0000000000000000H
	ORG $+8
	DQ	FLAT:??_C@_0BC@OEBNLFHC@formatteriterator?$AA@
	DQ	0000000000000080H
	DQ	0000000000000000H
	DQ	FLAT:formatteriter_dealloc
	DQ	0000000000000000H
	DQ	0000000000000000H
	DQ	0000000000000000H
	DQ	0000000000000000H
	DQ	0000000000000000H
	DQ	0000000000000000H
	DQ	0000000000000000H
	DQ	0000000000000000H
	DQ	0000000000000000H
	DQ	0000000000000000H
	DQ	0000000000000000H
	DQ	FLAT:PyObject_GenericGetAttr
	DQ	0000000000000000H
	DQ	0000000000000000H
	DD	040000H
	ORG $+4
	DQ	0000000000000000H
	DQ	0000000000000000H
	DQ	0000000000000000H
	DQ	0000000000000000H
	DQ	0000000000000000H
	DQ	FLAT:PyObject_SelfIter
	DQ	FLAT:formatteriter_next
	DQ	FLAT:formatteriter_methods
	DQ	0000000000000000H
	ORG $+144
PyFieldNameIter_Type DQ dead1234beef5678H
	DQ	dead1234beef5678H
	DQ	0000000000000000H
	ORG $+8
	DQ	0000000000000001H
	DQ	0000000000000000H
	DQ	0000000000000000H
	DQ	0000000000000000H
	DQ	dead1234beef5678H
	DQ	dead1234beef5678H
	DQ	0000000000000001H
	DQ	FLAT:PyType_Type
	DQ	0000000000000000H
	ORG $+8
	DQ	FLAT:??_C@_0BC@PNFANA@fieldnameiterator?$AA@
	DQ	0000000000000090H
	DQ	0000000000000000H
	DQ	FLAT:fieldnameiter_dealloc
	DQ	0000000000000000H
	DQ	0000000000000000H
	DQ	0000000000000000H
	DQ	0000000000000000H
	DQ	0000000000000000H
	DQ	0000000000000000H
	DQ	0000000000000000H
	DQ	0000000000000000H
	DQ	0000000000000000H
	DQ	0000000000000000H
	DQ	0000000000000000H
	DQ	FLAT:PyObject_GenericGetAttr
	DQ	0000000000000000H
	DQ	0000000000000000H
	DD	040000H
	ORG $+4
	DQ	0000000000000000H
	DQ	0000000000000000H
	DQ	0000000000000000H
	DQ	0000000000000000H
	DQ	0000000000000000H
	DQ	FLAT:PyObject_SelfIter
	DQ	FLAT:fieldnameiter_next
	DQ	FLAT:fieldnameiter_methods
	DQ	0000000000000000H
	ORG $+144
format__doc__ DB 'S.format(*args, **kwargs) -> str', 0aH, 0aH, 'Return a '
	DB	'formatted version of S, using substitutions from args and kwa'
	DB	'rgs.', 0aH, 'The substitutions are identified by braces (''{'''
	DB	' and ''}'').', 00H
	ORG $+9
format_map__doc__ DB 'S.format_map(mapping) -> str', 0aH, 0aH, 'Return a '
	DB	'formatted version of S, using substitutions from mapping.', 0aH
	DB	'The substitutions are identified by braces (''{'' and ''}'').'
	DB	00H
	ORG $+5
p_format__doc__ DB 'S.__format__(format_spec) -> str', 0aH, 0aH, 'Return '
	DB	'a formatted version of S as described by format_spec.', 00H
	ORG $+1
unicode_methods DQ FLAT:??_C@_06GDGADLDP@encode?$AA@
	DQ	FLAT:unicode_encode
	DD	03H
	ORG $+4
	DQ	FLAT:encode__doc__
	DQ	FLAT:??_C@_07CLEHDIEJ@replace?$AA@
	DQ	FLAT:unicode_replace
	DD	01H
	ORG $+4
	DQ	FLAT:replace__doc__
	DQ	FLAT:??_C@_05EHPMMFBK@split?$AA@
	DQ	FLAT:unicode_split
	DD	03H
	ORG $+4
	DQ	FLAT:split__doc__
	DQ	FLAT:??_C@_06BAKFHKMF@rsplit?$AA@
	DQ	FLAT:unicode_rsplit
	DD	03H
	ORG $+4
	DQ	FLAT:rsplit__doc__
	DQ	FLAT:??_C@_04DFGCDGNN@join?$AA@
	DQ	FLAT:unicode_join
	DD	08H
	ORG $+4
	DQ	FLAT:join__doc__
	DQ	FLAT:??_C@_0L@NMODNBEH@capitalize?$AA@
	DQ	FLAT:unicode_capitalize
	DD	04H
	ORG $+4
	DQ	FLAT:capitalize__doc__
	DQ	FLAT:??_C@_08NAILFLBF@casefold?$AA@
	DQ	FLAT:unicode_casefold
	DD	04H
	ORG $+4
	DQ	FLAT:casefold__doc__
	DQ	FLAT:??_C@_05PHLGJONK@title?$AA@
	DQ	FLAT:unicode_title
	DD	04H
	ORG $+4
	DQ	FLAT:title__doc__
	DQ	FLAT:??_C@_06BBLOAEEI@center?$AA@
	DQ	FLAT:unicode_center
	DD	01H
	ORG $+4
	DQ	FLAT:center__doc__
	DQ	FLAT:??_C@_05IOMEMJEC@count?$AA@
	DQ	FLAT:unicode_count
	DD	01H
	ORG $+4
	DQ	FLAT:count__doc__
	DQ	FLAT:??_C@_0L@DEOCELBD@expandtabs?$AA@
	DQ	FLAT:unicode_expandtabs
	DD	01H
	ORG $+4
	DQ	FLAT:expandtabs__doc__
	DQ	FLAT:??_C@_04CKFJHKAP@find?$AA@
	DQ	FLAT:unicode_find
	DD	01H
	ORG $+4
	DQ	FLAT:find__doc__
	DQ	FLAT:??_C@_09IKAEIPAD@partition?$AA@
	DQ	FLAT:unicode_partition
	DD	08H
	ORG $+4
	DQ	FLAT:partition__doc__
	DQ	FLAT:??_C@_05FKHKFDID@index?$AA@
	DQ	FLAT:unicode_index
	DD	01H
	ORG $+4
	DQ	FLAT:index__doc__
	DQ	FLAT:??_C@_05KDIMMEME@ljust?$AA@
	DQ	FLAT:unicode_ljust
	DD	01H
	ORG $+4
	DQ	FLAT:ljust__doc__
	DQ	FLAT:??_C@_05IPJEPLHL@lower?$AA@
	DQ	FLAT:unicode_lower
	DD	04H
	ORG $+4
	DQ	FLAT:lower__doc__
	DQ	FLAT:??_C@_06GGONODO@lstrip?$AA@
	DQ	FLAT:unicode_lstrip
	DD	01H
	ORG $+4
	DQ	FLAT:lstrip__doc__
	DQ	FLAT:??_C@_05BLFDIAHL@rfind?$AA@
	DQ	FLAT:unicode_rfind
	DD	01H
	ORG $+4
	DQ	FLAT:rfind__doc__
	DQ	FLAT:??_C@_06NCDOMFM@rindex?$AA@
	DQ	FLAT:unicode_rindex
	DD	01H
	ORG $+4
	DQ	FLAT:rindex__doc__
	DQ	FLAT:??_C@_05JKFAKHCP@rjust?$AA@
	DQ	FLAT:unicode_rjust
	DD	01H
	ORG $+4
	DQ	FLAT:rjust__doc__
	DQ	FLAT:??_C@_06DBIPDJKN@rstrip?$AA@
	DQ	FLAT:unicode_rstrip
	DD	01H
	ORG $+4
	DQ	FLAT:rstrip__doc__
	DQ	FLAT:??_C@_0L@KEEHLNKL@rpartition?$AA@
	DQ	FLAT:unicode_rpartition
	DD	08H
	ORG $+4
	DQ	FLAT:rpartition__doc__
	DQ	FLAT:??_C@_0L@BCMGLLLC@splitlines?$AA@
	DQ	FLAT:unicode_splitlines
	DD	03H
	ORG $+4
	DQ	FLAT:splitlines__doc__
	DQ	FLAT:??_C@_05GGNGIGHC@strip?$AA@
	DQ	FLAT:unicode_strip
	DD	01H
	ORG $+4
	DQ	FLAT:strip__doc__
	DQ	FLAT:??_C@_08EDJLBCEI@swapcase?$AA@
	DQ	FLAT:unicode_swapcase
	DD	04H
	ORG $+4
	DQ	FLAT:swapcase__doc__
	DQ	FLAT:??_C@_09ODNGOEIO@translate?$AA@
	DQ	FLAT:unicode_translate
	DD	08H
	ORG $+4
	DQ	FLAT:translate__doc__
	DQ	FLAT:??_C@_05NECKJAMC@upper?$AA@
	DQ	FLAT:unicode_upper
	DD	04H
	ORG $+4
	DQ	FLAT:upper__doc__
	DQ	FLAT:??_C@_0L@MPOGHCCL@startswith?$AA@
	DQ	FLAT:unicode_startswith
	DD	01H
	ORG $+4
	DQ	FLAT:startswith__doc__
	DQ	FLAT:??_C@_08MLCMCPNP@endswith?$AA@
	DQ	FLAT:unicode_endswith
	DD	01H
	ORG $+4
	DQ	FLAT:endswith__doc__
	DQ	FLAT:??_C@_07EJFAPEJH@islower?$AA@
	DQ	FLAT:unicode_islower
	DD	04H
	ORG $+4
	DQ	FLAT:islower__doc__
	DQ	FLAT:??_C@_07BCOOJPCO@isupper?$AA@
	DQ	FLAT:unicode_isupper
	DD	04H
	ORG $+4
	DQ	FLAT:isupper__doc__
	DQ	FLAT:??_C@_07DBHCJBDG@istitle?$AA@
	DQ	FLAT:unicode_istitle
	DD	04H
	ORG $+4
	DQ	FLAT:istitle__doc__
	DQ	FLAT:??_C@_07CNBMLEON@isspace?$AA@
	DQ	FLAT:unicode_isspace
	DD	04H
	ORG $+4
	DQ	FLAT:isspace__doc__
	DQ	FLAT:??_C@_09CGNFEIIK@isdecimal?$AA@
	DQ	FLAT:unicode_isdecimal
	DD	04H
	ORG $+4
	DQ	FLAT:isdecimal__doc__
	DQ	FLAT:??_C@_07CFBKIKCH@isdigit?$AA@
	DQ	FLAT:unicode_isdigit
	DD	04H
	ORG $+4
	DQ	FLAT:isdigit__doc__
	DQ	FLAT:??_C@_09KOMAEOED@isnumeric?$AA@
	DQ	FLAT:unicode_isnumeric
	DD	04H
	ORG $+4
	DQ	FLAT:isnumeric__doc__
	DQ	FLAT:??_C@_07EGIOHHOB@isalpha?$AA@
	DQ	FLAT:unicode_isalpha
	DD	04H
	ORG $+4
	DQ	FLAT:isalpha__doc__
	DQ	FLAT:??_C@_07EOADCIGC@isalnum?$AA@
	DQ	FLAT:unicode_isalnum
	DD	04H
	ORG $+4
	DQ	FLAT:isalnum__doc__
	DQ	FLAT:??_C@_0N@DOKMMCGL@isidentifier?$AA@
	DQ	FLAT:unicode_isidentifier
	DD	04H
	ORG $+4
	DQ	FLAT:isidentifier__doc__
	DQ	FLAT:??_C@_0M@JGKJDKBM@isprintable?$AA@
	DQ	FLAT:unicode_isprintable
	DD	04H
	ORG $+4
	DQ	FLAT:isprintable__doc__
	DQ	FLAT:??_C@_05DMFNFMHA@zfill?$AA@
	DQ	FLAT:unicode_zfill
	DD	01H
	ORG $+4
	DQ	FLAT:zfill__doc__
	DQ	FLAT:??_C@_06DLEPGFEF@format?$AA@
	DQ	FLAT:do_string_format
	DD	03H
	ORG $+4
	DQ	FLAT:format__doc__
	DQ	FLAT:??_C@_0L@DBBJLEAP@format_map?$AA@
	DQ	FLAT:do_string_format_map
	DD	08H
	ORG $+4
	DQ	FLAT:format_map__doc__
	DQ	FLAT:??_C@_0L@MEMCGMKL@__format__?$AA@
	DQ	FLAT:unicode__format__
	DD	01H
	ORG $+4
	DQ	FLAT:p_format__doc__
	DQ	FLAT:??_C@_09PBBLPCAA@maketrans?$AA@
	DQ	FLAT:unicode_maketrans
	DD	021H
	ORG $+4
	DQ	FLAT:maketrans__doc__
	DQ	FLAT:??_C@_0L@HOGGIPGN@__sizeof__?$AA@
	DQ	FLAT:unicode__sizeof__
	DD	04H
	ORG $+4
	DQ	FLAT:sizeof__doc__
	DQ	FLAT:??_C@_0P@BCBHENLA@__getnewargs__?$AA@
	DQ	FLAT:unicode_getnewargs
	DD	04H
	ORG $+4
	ORG $+8
	DQ	0000000000000000H
	DQ	0000000000000000H
	ORG $+16
unicode_as_number DQ 0000000000000000H
	DQ	0000000000000000H
	DQ	0000000000000000H
	DQ	FLAT:unicode_mod
	ORG $+240
unicode_as_sequence DQ FLAT:unicode_length
	DQ	FLAT:PyUnicode_Concat
	DQ	FLAT:unicode_repeat
	DQ	FLAT:unicode_getitem
	DQ	0000000000000000H
	DQ	0000000000000000H
	DQ	0000000000000000H
	DQ	FLAT:PyUnicode_Contains
	ORG $+16
unicode_doc DB	'str(object='''') -> str', 0aH, 'str(bytes_or_buffer[, en'
	DB	'coding[, errors]]) -> str', 0aH, 0aH, 'Create a new string ob'
	DB	'ject from the given object. If encoding or', 0aH, 'errors is '
	DB	'specified, then the object must expose a data buffer', 0aH, 't'
	DB	'hat will be decoded using the given encoding and error handle'
	DB	'r.', 0aH, 'Otherwise, returns the result of object.__str__() '
	DB	'(if defined)', 0aH, 'or repr(object).', 0aH, 'encoding defaul'
	DB	'ts to sys.getdefaultencoding().', 0aH, 'errors defaults to '''
	DB	'strict''.', 00H
	ORG $+10
PyUnicode_Type DQ dead1234beef5678H
	DQ	dead1234beef5678H
	DQ	0000000000000000H
	ORG $+8
	DQ	0000000000000001H
	DQ	0000000000000000H
	DQ	0000000000000000H
	DQ	0000000000000000H
	DQ	dead1234beef5678H
	DQ	dead1234beef5678H
	DQ	0000000000000001H
	DQ	FLAT:PyType_Type
	DQ	0000000000000000H
	ORG $+8
	DQ	FLAT:??_C@_03OJMAPEGJ@str?$AA@
	DQ	00000000000000b0H
	DQ	0000000000000000H
	DQ	FLAT:unicode_dealloc
	DQ	0000000000000000H
	DQ	0000000000000000H
	DQ	0000000000000000H
	DQ	0000000000000000H
	DQ	FLAT:unicode_repr
	DQ	FLAT:unicode_as_number
	DQ	FLAT:unicode_as_sequence
	DQ	FLAT:unicode_as_mapping
	DQ	FLAT:unicode_hash
	DQ	0000000000000000H
	DQ	FLAT:unicode_str
	DQ	FLAT:PyObject_GenericGetAttr
	DQ	0000000000000000H
	DQ	0000000000000000H
	DD	010040400H
	ORG $+4
	DQ	FLAT:unicode_doc
	DQ	0000000000000000H
	DQ	0000000000000000H
	DQ	FLAT:PyUnicode_RichCompare
	DQ	0000000000000000H
	DQ	FLAT:unicode_iter
	DQ	0000000000000000H
	DQ	FLAT:unicode_methods
	DQ	0000000000000000H
	DQ	0000000000000000H
	DQ	FLAT:PyBaseObject_Type
	DQ	0000000000000000H
	DQ	0000000000000000H
	DQ	0000000000000000H
	DQ	0000000000000000H
	DQ	0000000000000000H
	DQ	0000000000000000H
	DQ	FLAT:unicode_new
	DQ	FLAT:PyObject_Free
	ORG $+64
unicodeiter_methods DQ FLAT:??_C@_0BA@BJLPBKGK@__length_hint__?$AA@
	DQ	FLAT:unicodeiter_len
	DD	04H
	ORG $+4
	DQ	FLAT:length_hint_doc
	DQ	FLAT:??_C@_0L@NNMACJIG@__reduce__?$AA@
	DQ	FLAT:unicodeiter_reduce
	DD	04H
	ORG $+4
	DQ	FLAT:reduce_doc
	DQ	FLAT:??_C@_0N@MOOGCAMH@__setstate__?$AA@
	DQ	FLAT:unicodeiter_setstate
	DD	08H
	ORG $+4
	DQ	FLAT:setstate_doc
	DQ	0000000000000000H
	DQ	0000000000000000H
	ORG $+16
PyUnicodeIter_Type DQ dead1234beef5678H
	DQ	dead1234beef5678H
	DQ	0000000000000000H
	ORG $+8
	DQ	0000000000000001H
	DQ	0000000000000000H
	DQ	0000000000000000H
	DQ	0000000000000000H
	DQ	dead1234beef5678H
	DQ	dead1234beef5678H
	DQ	0000000000000001H
	DQ	FLAT:PyType_Type
	DQ	0000000000000000H
	ORG $+8
	DQ	FLAT:??_C@_0N@GHJLLMAJ@str_iterator?$AA@
	DQ	0000000000000070H
	DQ	0000000000000000H
	DQ	FLAT:unicodeiter_dealloc
	DQ	0000000000000000H
	DQ	0000000000000000H
	DQ	0000000000000000H
	DQ	0000000000000000H
	DQ	0000000000000000H
	DQ	0000000000000000H
	DQ	0000000000000000H
	DQ	0000000000000000H
	DQ	0000000000000000H
	DQ	0000000000000000H
	DQ	0000000000000000H
	DQ	FLAT:PyObject_GenericGetAttr
	DQ	0000000000000000H
	DQ	0000000000000000H
	DD	044000H
	ORG $+4
	DQ	0000000000000000H
	DQ	FLAT:unicodeiter_traverse
	DQ	0000000000000000H
	DQ	0000000000000000H
	DQ	0000000000000000H
	DQ	FLAT:PyObject_SelfIter
	DQ	FLAT:unicodeiter_next
	DQ	FLAT:unicodeiter_methods
	DQ	0000000000000000H
	ORG $+144
_string_methods DQ FLAT:??_C@_0BL@GJEMJGHD@formatter_field_name_split?$AA@
	DQ	FLAT:formatter_field_name_split
	DD	08H
	ORG $+4
	DQ	FLAT:??_C@_0CD@LNGEKMIN@split?5the?5argument?5as?5a?5field?5na@
	DQ	FLAT:??_C@_0BB@JJJFGPCM@formatter_parser?$AA@
	DQ	FLAT:formatter_parser
	DD	08H
	ORG $+4
	DQ	FLAT:??_C@_0CG@FCKLAMOB@parse?5the?5argument?5as?5a?5format?5s@
	DQ	0000000000000000H
	DQ	0000000000000000H
	ORG $+16
_string_module DQ dead1234beef5678H
	DQ	dead1234beef5678H
	DQ	0000000000000000H
	ORG $+8
	DQ	0000000000000001H
	DQ	0000000000000000H
	DQ	0000000000000000H
	DQ	0000000000000000H
	DQ	dead1234beef5678H
	DQ	dead1234beef5678H
	DQ	0000000000000001H
	DQ	0000000000000000H
	DQ	0000000000000000H
	DQ	0000000000000000H
	DQ	0000000000000000H
	ORG $+8
	DQ	FLAT:??_C@_07PGCBFEPB@_string?$AA@
	DQ	FLAT:??_C@_0BF@BEBBJAIL@string?5helper?5module?$AA@
	DQ	0000000000000000H
	DQ	FLAT:_string_methods
	DQ	0000000000000000H
	DQ	0000000000000000H
	DQ	0000000000000000H
	DQ	0000000000000000H
_DATA	ENDS
CONST	SEGMENT
_Py_ascii_whitespace DB 00H
	DB	00H
	DB	00H
	DB	00H
	DB	00H
	DB	00H
	DB	00H
	DB	00H
	DB	00H
	DB	01H
	DB	01H
	DB	01H
	DB	01H
	DB	01H
	DB	00H
	DB	00H
	DB	00H
	DB	00H
	DB	00H
	DB	00H
	DB	00H
	DB	00H
	DB	00H
	DB	00H
	DB	00H
	DB	00H
	DB	00H
	DB	00H
	DB	01H
	DB	01H
	DB	01H
	DB	01H
	DB	01H
	DB	00H
	DB	00H
	DB	00H
	DB	00H
	DB	00H
	DB	00H
	DB	00H
	DB	00H
	DB	00H
	DB	00H
	DB	00H
	DB	00H
	DB	00H
	DB	00H
	DB	00H
	DB	00H
	DB	00H
	DB	00H
	DB	00H
	DB	00H
	DB	00H
	DB	00H
	DB	00H
	DB	00H
	DB	00H
	DB	00H
	DB	00H
	DB	00H
	DB	00H
	DB	00H
	DB	00H
	DB	00H
	DB	00H
	DB	00H
	DB	00H
	DB	00H
	DB	00H
	DB	00H
	DB	00H
	DB	00H
	DB	00H
	DB	00H
	DB	00H
	DB	00H
	DB	00H
	DB	00H
	DB	00H
	DB	00H
	DB	00H
	DB	00H
	DB	00H
	DB	00H
	DB	00H
	DB	00H
	DB	00H
	DB	00H
	DB	00H
	DB	00H
	DB	00H
	DB	00H
	DB	00H
	DB	00H
	DB	00H
	DB	00H
	DB	00H
	DB	00H
	DB	00H
	DB	00H
	DB	00H
	DB	00H
	DB	00H
	DB	00H
	DB	00H
	DB	00H
	DB	00H
	DB	00H
	DB	00H
	DB	00H
	DB	00H
	DB	00H
	DB	00H
	DB	00H
	DB	00H
	DB	00H
	DB	00H
	DB	00H
	DB	00H
	DB	00H
	DB	00H
	DB	00H
	DB	00H
	DB	00H
	DB	00H
	DB	00H
	DB	00H
CONST	ENDS
PUBLIC	??_C@_0L@DHGMCEID@_Py_IncRef?$AA@		; `string'
PUBLIC	??_C@_0CD@HDJFDCDP@c?3?2src?2pyparallel?2include?2object@ ; `string'
PUBLIC	_Py_IncRef
EXTRN	_PyParallel_Guard:PROC
EXTRN	_Py_PXCTX:PROC
;	COMDAT pdata
; File c:\src\pyparallel\include\object.h
pdata	SEGMENT
$pdata$_Py_IncRef DD imagerel $LN5
	DD	imagerel $LN5+74
	DD	imagerel $unwind$_Py_IncRef
pdata	ENDS
;	COMDAT xdata
xdata	SEGMENT
$unwind$_Py_IncRef DD 020601H
	DD	030025206H
xdata	ENDS
;	COMDAT ??_C@_0L@DHGMCEID@_Py_IncRef?$AA@
CONST	SEGMENT
??_C@_0L@DHGMCEID@_Py_IncRef?$AA@ DB '_Py_IncRef', 00H	; `string'
CONST	ENDS
;	COMDAT ??_C@_0CD@HDJFDCDP@c?3?2src?2pyparallel?2include?2object@
CONST	SEGMENT
??_C@_0CD@HDJFDCDP@c?3?2src?2pyparallel?2include?2object@ DB 'c:\src\pypa'
	DB	'rallel\include\object.h', 00H		; `string'
; Function compile flags: /Ogtpy
CONST	ENDS
;	COMDAT _Py_IncRef
_TEXT	SEGMENT
op$ = 64
_Py_IncRef PROC						; COMDAT

; 904  : {

$LN5:
  00000	40 53		 push	 rbx
  00002	48 83 ec 30	 sub	 rsp, 48			; 00000030H
  00006	48 8b d9	 mov	 rbx, rcx

; 905  :     if ((!Py_PXCTX && (Py_ISPY(op) || Px_PERSISTED(op)))) {

  00009	e8 00 00 00 00	 call	 _Py_PXCTX
  0000e	85 c0		 test	 eax, eax
  00010	75 32		 jne	 SHORT $LN2@Py_IncRef
  00012	48 8d 15 00 00
	00 00		 lea	 rdx, OFFSET FLAT:??_C@_0CD@HDJFDCDP@c?3?2src?2pyparallel?2include?2object@
  00019	48 8d 0d 00 00
	00 00		 lea	 rcx, OFFSET FLAT:??_C@_0L@DHGMCEID@_Py_IncRef?$AA@
  00020	4c 8b cb	 mov	 r9, rbx
  00023	41 b8 89 03 00
	00		 mov	 r8d, 905		; 00000389H
  00029	c7 44 24 20 02
	00 00 00	 mov	 DWORD PTR [rsp+32], 2
  00031	e8 00 00 00 00	 call	 _PyParallel_Guard
  00036	85 c0		 test	 eax, eax
  00038	75 06		 jne	 SHORT $LN1@Py_IncRef
  0003a	f6 43 20 20	 test	 BYTE PTR [rbx+32], 32	; 00000020H
  0003e	74 04		 je	 SHORT $LN2@Py_IncRef
$LN1@Py_IncRef:

; 906  :         _Py_INC_REFTOTAL;
; 907  :         (((PyObject*)(op))->ob_refcnt++);

  00040	48 ff 43 50	 inc	 QWORD PTR [rbx+80]
$LN2@Py_IncRef:

; 908  :     }
; 909  : }

  00044	48 83 c4 30	 add	 rsp, 48			; 00000030H
  00048	5b		 pop	 rbx
  00049	c3		 ret	 0
_Py_IncRef ENDP
_TEXT	ENDS
PUBLIC	??_C@_0L@DMHMLFIA@_Py_DecRef?$AA@		; `string'
PUBLIC	_Py_DecRef
EXTRN	Px_DecRef:PROC
EXTRN	_Px_Dealloc:PROC
;	COMDAT pdata
pdata	SEGMENT
$pdata$_Py_DecRef DD imagerel $LN12
	DD	imagerel $LN12+123
	DD	imagerel $unwind$_Py_DecRef
pdata	ENDS
;	COMDAT xdata
xdata	SEGMENT
$unwind$_Py_DecRef DD 020601H
	DD	030025206H
xdata	ENDS
;	COMDAT ??_C@_0L@DMHMLFIA@_Py_DecRef?$AA@
CONST	SEGMENT
??_C@_0L@DMHMLFIA@_Py_DecRef?$AA@ DB '_Py_DecRef', 00H	; `string'
; Function compile flags: /Ogtpy
CONST	ENDS
;	COMDAT _Py_DecRef
_TEXT	SEGMENT
op$ = 64
_Py_DecRef PROC						; COMDAT

; 923  : {

$LN12:
  00000	40 53		 push	 rbx
  00002	48 83 ec 30	 sub	 rsp, 48			; 00000030H
  00006	48 8b d9	 mov	 rbx, rcx

; 924  :     if (!Py_PXCTX) {

  00009	e8 00 00 00 00	 call	 _Py_PXCTX
  0000e	85 c0		 test	 eax, eax
  00010	75 63		 jne	 SHORT $LN11@Py_DecRef

; 925  :         if (Px_PERSISTED(op) || Px_CLONED(op))

  00012	48 8b 43 20	 mov	 rax, QWORD PTR [rbx+32]
  00016	a8 20		 test	 al, 32			; 00000020H
  00018	75 53		 jne	 SHORT $LN5@Py_DecRef
  0001a	84 c0		 test	 al, al
  0001c	78 4f		 js	 SHORT $LN5@Py_DecRef

; 927  :         else if (!Px_ISPX(op)) {

  0001e	a8 02		 test	 al, 2
  00020	75 53		 jne	 SHORT $LN11@Py_DecRef

; 928  :             _Py_DEC_REFTOTAL;
; 929  :             if ((--((PyObject *)(op))->ob_refcnt) != 0) {

  00022	48 ff 4b 50	 dec	 QWORD PTR [rbx+80]
  00026	75 4d		 jne	 SHORT $LN11@Py_DecRef

; 930  :                 _Py_CHECK_REFCNT(op);
; 931  :             } else
; 932  :                 _Py_Dealloc((PyObject *)(op));

  00028	48 8d 15 00 00
	00 00		 lea	 rdx, OFFSET FLAT:??_C@_0CD@HDJFDCDP@c?3?2src?2pyparallel?2include?2object@
  0002f	48 8d 0d 00 00
	00 00		 lea	 rcx, OFFSET FLAT:??_C@_0L@DMHMLFIA@_Py_DecRef?$AA@
  00036	4c 8b cb	 mov	 r9, rbx
  00039	41 b8 a4 03 00
	00		 mov	 r8d, 932		; 000003a4H
  0003f	c7 44 24 20 10
	00 00 00	 mov	 DWORD PTR [rsp+32], 16
  00047	e8 00 00 00 00	 call	 _PyParallel_Guard
  0004c	48 8b cb	 mov	 rcx, rbx
  0004f	85 c0		 test	 eax, eax
  00051	74 0a		 je	 SHORT $LN10@Py_DecRef

; 933  :         }
; 934  :     }
; 935  : }

  00053	48 83 c4 30	 add	 rsp, 48			; 00000030H
  00057	5b		 pop	 rbx
  00058	e9 00 00 00 00	 jmp	 _Px_Dealloc
$LN10@Py_DecRef:

; 930  :                 _Py_CHECK_REFCNT(op);
; 931  :             } else
; 932  :                 _Py_Dealloc((PyObject *)(op));

  0005d	48 8b 43 58	 mov	 rax, QWORD PTR [rbx+88]

; 933  :         }
; 934  :     }
; 935  : }

  00061	48 83 c4 30	 add	 rsp, 48			; 00000030H
  00065	5b		 pop	 rbx
  00066	48 ff a0 88 00
	00 00		 rex_jmp QWORD PTR [rax+136]
$LN5@Py_DecRef:

; 926  :             Px_DECREF(op);

  0006d	48 8b cb	 mov	 rcx, rbx
  00070	e8 00 00 00 00	 call	 Px_DecRef
$LN11@Py_DecRef:

; 933  :         }
; 934  :     }
; 935  : }

  00075	48 83 c4 30	 add	 rsp, 48			; 00000030H
  00079	5b		 pop	 rbx
  0007a	c3		 ret	 0
_Py_DecRef ENDP
; Function compile flags: /Ogtpy
; File c:\src\pyparallel\include\objimpl.h
_TEXT	ENDS
;	COMDAT _PyObject_InitHead
_TEXT	SEGMENT
op$ = 8
_PyObject_InitHead PROC					; COMDAT

; 216  :     assert(Py_TYPE(op));
; 217  :     op->is_px = _Py_NOT_PARALLEL;

  00000	48 ba 78 56 ef
	be 34 12 ad de	 mov	 rdx, -2401243008567650696 ; dead1234beef5678H

; 218  :     op->px    = _Py_NOT_PARALLEL;
; 219  :     op->slist_entry.Next = NULL;

  0000a	33 c0		 xor	 eax, eax

; 220  :     op->px_flags  = Py_PXFLAGS_ISPY;

  0000c	48 c7 41 20 01
	00 00 00	 mov	 QWORD PTR [rcx+32], 1
  00014	48 89 11	 mov	 QWORD PTR [rcx], rdx
  00017	48 89 51 08	 mov	 QWORD PTR [rcx+8], rdx
  0001b	48 89 41 10	 mov	 QWORD PTR [rcx+16], rax

; 221  :     op->srw_lock  = NULL;

  0001f	48 89 41 28	 mov	 QWORD PTR [rcx+40], rax

; 222  :     op->event     = NULL;

  00023	48 89 41 30	 mov	 QWORD PTR [rcx+48], rax

; 223  :     op->orig_type = NULL;

  00027	48 89 41 38	 mov	 QWORD PTR [rcx+56], rax

; 224  : #ifdef Py_TRACE_REFS
; 225  :     op->_ob_next = NULL;
; 226  :     op->_ob_prev = NULL;
; 227  : #else
; 228  :     op->_ob_next = _Py_NOT_PARALLEL;

  0002b	48 89 51 40	 mov	 QWORD PTR [rcx+64], rdx

; 229  :     op->_ob_prev = _Py_NOT_PARALLEL;

  0002f	48 89 51 48	 mov	 QWORD PTR [rcx+72], rdx

; 230  : #endif
; 231  : }

  00033	c3		 ret	 0
_PyObject_InitHead ENDP
_TEXT	ENDS
PUBLIC	??_C@_0O@JKHPLOII@PyObject_INIT?$AA@		; `string'
PUBLIC	??_C@_0CE@FGBBJFKA@c?3?2src?2pyparallel?2include?2objimp@ ; `string'
EXTRN	_Px_NewReference:PROC
EXTRN	_PxObject_Init:PROC
;	COMDAT pdata
pdata	SEGMENT
$pdata$PyObject_INIT DD imagerel PyObject_INIT
	DD	imagerel PyObject_INIT+185
	DD	imagerel $unwind$PyObject_INIT
pdata	ENDS
;	COMDAT xdata
xdata	SEGMENT
$unwind$PyObject_INIT DD 040a01H
	DD	08340aH
	DD	07006520aH
xdata	ENDS
;	COMDAT ??_C@_0O@JKHPLOII@PyObject_INIT?$AA@
CONST	SEGMENT
??_C@_0O@JKHPLOII@PyObject_INIT?$AA@ DB 'PyObject_INIT', 00H ; `string'
CONST	ENDS
;	COMDAT ??_C@_0CE@FGBBJFKA@c?3?2src?2pyparallel?2include?2objimp@
CONST	SEGMENT
??_C@_0CE@FGBBJFKA@c?3?2src?2pyparallel?2include?2objimp@ DB 'c:\src\pypa'
	DB	'rallel\include\objimpl.h', 00H		; `string'
; Function compile flags: /Ogtpy
CONST	ENDS
;	COMDAT PyObject_INIT
_TEXT	SEGMENT
op$ = 64
tp$ = 72
PyObject_INIT PROC					; COMDAT

; 236  : {

  00000	48 89 5c 24 08	 mov	 QWORD PTR [rsp+8], rbx
  00005	57		 push	 rdi
  00006	48 83 ec 30	 sub	 rsp, 48			; 00000030H
  0000a	48 8b fa	 mov	 rdi, rdx
  0000d	48 8b d9	 mov	 rbx, rcx

; 237  :     Px_RETURN(_PxObject_Init(op, tp))

  00010	e8 00 00 00 00	 call	 _Py_PXCTX
  00015	85 c0		 test	 eax, eax
  00017	74 15		 je	 SHORT $LN1@PyObject_I
  00019	48 8b d7	 mov	 rdx, rdi
  0001c	48 8b cb	 mov	 rcx, rbx

; 242  : }

  0001f	48 8b 5c 24 40	 mov	 rbx, QWORD PTR [rsp+64]
  00024	48 83 c4 30	 add	 rsp, 48			; 00000030H
  00028	5f		 pop	 rdi
  00029	e9 00 00 00 00	 jmp	 _PxObject_Init
$LN1@PyObject_I:

; 238  :     Py_TYPE(op) = tp;
; 239  :     _PyObject_InitHead(op);

  0002e	48 b9 78 56 ef
	be 34 12 ad de	 mov	 rcx, -2401243008567650696 ; dead1234beef5678H
  00038	33 c0		 xor	 eax, eax

; 240  :     _Py_NewReference(op);

  0003a	48 8d 15 00 00
	00 00		 lea	 rdx, OFFSET FLAT:??_C@_0CE@FGBBJFKA@c?3?2src?2pyparallel?2include?2objimp@
  00041	48 89 0b	 mov	 QWORD PTR [rbx], rcx
  00044	48 89 4b 08	 mov	 QWORD PTR [rbx+8], rcx
  00048	48 89 4b 40	 mov	 QWORD PTR [rbx+64], rcx
  0004c	48 89 4b 48	 mov	 QWORD PTR [rbx+72], rcx
  00050	48 8d 0d 00 00
	00 00		 lea	 rcx, OFFSET FLAT:??_C@_0O@JKHPLOII@PyObject_INIT?$AA@
  00057	4c 8b cb	 mov	 r9, rbx
  0005a	41 b8 f0 00 00
	00		 mov	 r8d, 240		; 000000f0H
  00060	48 89 7b 58	 mov	 QWORD PTR [rbx+88], rdi
  00064	48 89 43 10	 mov	 QWORD PTR [rbx+16], rax
  00068	48 c7 43 20 01
	00 00 00	 mov	 QWORD PTR [rbx+32], 1
  00070	48 89 43 28	 mov	 QWORD PTR [rbx+40], rax
  00074	48 89 43 30	 mov	 QWORD PTR [rbx+48], rax
  00078	48 89 43 38	 mov	 QWORD PTR [rbx+56], rax
  0007c	c7 44 24 20 10
	00 00 00	 mov	 DWORD PTR [rsp+32], 16
  00084	e8 00 00 00 00	 call	 _PyParallel_Guard
  00089	85 c0		 test	 eax, eax
  0008b	74 16		 je	 SHORT $LN4@PyObject_I
  0008d	48 8b cb	 mov	 rcx, rbx
  00090	e8 00 00 00 00	 call	 _Px_NewReference

; 241  :     return op;

  00095	48 8b c3	 mov	 rax, rbx

; 242  : }

  00098	48 8b 5c 24 40	 mov	 rbx, QWORD PTR [rsp+64]
  0009d	48 83 c4 30	 add	 rsp, 48			; 00000030H
  000a1	5f		 pop	 rdi
  000a2	c3		 ret	 0
$LN4@PyObject_I:

; 240  :     _Py_NewReference(op);

  000a3	48 c7 43 50 01
	00 00 00	 mov	 QWORD PTR [rbx+80], 1

; 241  :     return op;

  000ab	48 8b c3	 mov	 rax, rbx

; 242  : }

  000ae	48 8b 5c 24 40	 mov	 rbx, QWORD PTR [rsp+64]
  000b3	48 83 c4 30	 add	 rsp, 48			; 00000030H
  000b7	5f		 pop	 rdi
  000b8	c3		 ret	 0
PyObject_INIT ENDP
_TEXT	ENDS
PUBLIC	PyUnicode_GetMax
; Function compile flags: /Ogtpy
; File c:\src\pyparallel\objects\unicodeobject.c
;	COMDAT PyUnicode_GetMax
_TEXT	SEGMENT
PyUnicode_GetMax PROC					; COMDAT

; 305  : #ifdef Py_UNICODE_WIDE
; 306  :     return 0x10FFFF;
; 307  : #else
; 308  :     /* This is actually an illegal character, so it should
; 309  :        not be passed to unichr. */
; 310  :     return 0xFFFF;

  00000	b8 ff ff 00 00	 mov	 eax, 65535		; 0000ffffH

; 311  : #endif
; 312  : }

  00005	c3		 ret	 0
PyUnicode_GetMax ENDP
_TEXT	ENDS
;	COMDAT pdata
pdata	SEGMENT
$pdata$make_bloom_mask DD imagerel make_bloom_mask
	DD	imagerel make_bloom_mask+95
	DD	imagerel $unwind$make_bloom_mask
pdata	ENDS
;	COMDAT xdata
xdata	SEGMENT
$unwind$make_bloom_mask DD 020501H
	DD	013405H
; Function compile flags: /Ogtpy
xdata	ENDS
;	COMDAT make_bloom_mask
_TEXT	SEGMENT
kind$ = 8
ptr$ = 16
len$ = 24
make_bloom_mask PROC					; COMDAT

; 569  : {

  00000	48 89 5c 24 08	 mov	 QWORD PTR [rsp+8], rbx
  00005	49 8b d8	 mov	 rbx, r8

; 570  :     /* calculate simple bloom-style bitmask for a given unicode string */
; 571  : 
; 572  :     BLOOM_MASK mask;
; 573  :     Py_ssize_t i;
; 574  : 
; 575  :     mask = 0;

  00008	45 33 c0	 xor	 r8d, r8d
  0000b	4c 8b d2	 mov	 r10, rdx

; 576  :     for (i = 0; i < len; i++)

  0000e	45 8b c8	 mov	 r9d, r8d
  00011	44 8b d9	 mov	 r11d, ecx
  00014	48 85 db	 test	 rbx, rbx
  00017	7e 3d		 jle	 SHORT $LN12@make_bloom
  00019	0f 1f 80 00 00
	00 00		 npad	 7
$LL3@make_bloom:

; 577  :         BLOOM_ADD(mask, PyUnicode_READ(kind, ptr, i));

  00020	41 83 fb 01	 cmp	 r11d, 1
  00024	75 07		 jne	 SHORT $LN8@make_bloom
  00026	43 0f b6 04 11	 movzx	 eax, BYTE PTR [r9+r10]
  0002b	eb 11		 jmp	 SHORT $LN7@make_bloom
$LN8@make_bloom:
  0002d	41 83 fb 02	 cmp	 r11d, 2
  00031	75 07		 jne	 SHORT $LN6@make_bloom
  00033	43 0f b7 04 4a	 movzx	 eax, WORD PTR [r10+r9*2]
  00038	eb 04		 jmp	 SHORT $LN7@make_bloom
$LN6@make_bloom:

; 576  :     for (i = 0; i < len; i++)

  0003a	43 8b 04 8a	 mov	 eax, DWORD PTR [r10+r9*4]
$LN7@make_bloom:

; 577  :         BLOOM_ADD(mask, PyUnicode_READ(kind, ptr, i));

  0003e	83 e0 1f	 and	 eax, 31
  00041	ba 01 00 00 00	 mov	 edx, 1
  00046	49 ff c1	 inc	 r9
  00049	0f b6 c8	 movzx	 ecx, al
  0004c	d3 e2		 shl	 edx, cl
  0004e	44 0b c2	 or	 r8d, edx
  00051	4c 3b cb	 cmp	 r9, rbx
  00054	7c ca		 jl	 SHORT $LL3@make_bloom
$LN12@make_bloom:

; 578  : 
; 579  :     return mask;
; 580  : }

  00056	48 8b 5c 24 08	 mov	 rbx, QWORD PTR [rsp+8]
  0005b	41 8b c0	 mov	 eax, r8d
  0005e	c3		 ret	 0
make_bloom_mask ENDP
_TEXT	ENDS
EXTRN	__imp_memchr:PROC
;	COMDAT pdata
; File c:\src\pyparallel\objects\stringlib\fastsearch.h
pdata	SEGMENT
$pdata$asciilib_fastsearch_memchr_1char DD imagerel asciilib_fastsearch_memchr_1char
	DD	imagerel asciilib_fastsearch_memchr_1char+72
	DD	imagerel $unwind$asciilib_fastsearch_memchr_1char
pdata	ENDS
;	COMDAT xdata
xdata	SEGMENT
$unwind$asciilib_fastsearch_memchr_1char DD 020601H
	DD	030023206H
; Function compile flags: /Ogtpy
xdata	ENDS
;	COMDAT asciilib_fastsearch_memchr_1char
_TEXT	SEGMENT
s$ = 48
n$ = 56
needle$ = 64
mode$ = 72
asciilib_fastsearch_memchr_1char PROC			; COMDAT

; 40   : {

  00000	40 53		 push	 rbx
  00002	48 83 ec 20	 sub	 rsp, 32			; 00000020H
  00006	41 0f b6 c0	 movzx	 eax, r8b
  0000a	48 8b d9	 mov	 rbx, rcx

; 41   :     if (mode == FAST_SEARCH) {

  0000d	41 83 f9 01	 cmp	 r9d, 1
  00011	75 2d		 jne	 SHORT $LN6@asciilib_f

; 42   :         const STRINGLIB_CHAR *ptr = s;
; 43   :         const STRINGLIB_CHAR *e = s + n;

  00013	4c 8d 04 11	 lea	 r8, QWORD PTR [rcx+rdx]

; 44   :         while (ptr < e) {

  00017	49 3b c8	 cmp	 rcx, r8
  0001a	73 11		 jae	 SHORT $LN4@asciilib_f

; 45   :             void *candidate = memchr((const void *) ptr, needle, (e - ptr) * sizeof(STRINGLIB_CHAR));

  0001c	4c 2b c1	 sub	 r8, rcx
  0001f	0f b6 d0	 movzx	 edx, al
  00022	ff 15 00 00 00
	00		 call	 QWORD PTR __imp_memchr

; 46   :             if (candidate == NULL)

  00028	48 85 c0	 test	 rax, rax
  0002b	75 0a		 jne	 SHORT $LN3@asciilib_f
$LN4@asciilib_f:

; 47   :                 return -1;

  0002d	48 83 c8 ff	 or	 rax, -1

; 78   :     }
; 79   : 
; 80   : #undef DO_MEMCHR
; 81   : }

  00031	48 83 c4 20	 add	 rsp, 32			; 00000020H
  00035	5b		 pop	 rbx
  00036	c3		 ret	 0
$LN3@asciilib_f:

; 48   :             ptr = (const STRINGLIB_CHAR *) _Py_ALIGN_DOWN(candidate, sizeof(STRINGLIB_CHAR));
; 49   :             if (sizeof(STRINGLIB_CHAR) == 1 || *ptr == ch)
; 50   :                 return (ptr - s);

  00037	48 2b c3	 sub	 rax, rbx

; 78   :     }
; 79   : 
; 80   : #undef DO_MEMCHR
; 81   : }

  0003a	48 83 c4 20	 add	 rsp, 32			; 00000020H
  0003e	5b		 pop	 rbx
  0003f	c3		 ret	 0
$LN6@asciilib_f:

; 51   :             /* False positive */
; 52   :             ptr++;
; 53   :         }
; 54   :         return -1;
; 55   :     }
; 56   : #ifdef HAVE_MEMRCHR
; 57   :     /* memrchr() is a GNU extension, available since glibc 2.1.91.
; 58   :        it doesn't seem as optimized as memchr(), but is still quite
; 59   :        faster than our hand-written loop in FASTSEARCH below */
; 60   :     else if (mode == FAST_RSEARCH) {
; 61   :         while (n > 0) {
; 62   :             const STRINGLIB_CHAR *found;
; 63   :             void *candidate = memrchr((const void *) s, needle, n * sizeof(STRINGLIB_CHAR));
; 64   :             if (candidate == NULL)
; 65   :                 return -1;
; 66   :             found = (const STRINGLIB_CHAR *) _Py_ALIGN_DOWN(candidate, sizeof(STRINGLIB_CHAR));
; 67   :             n = found - s;
; 68   :             if (sizeof(STRINGLIB_CHAR) == 1 || *found == ch)
; 69   :                 return n;
; 70   :             /* False positive */
; 71   :         }
; 72   :         return -1;
; 73   :     }
; 74   : #endif
; 75   :     else {
; 76   :         assert(0); /* Should never get here */
; 77   :         return 0;

  00040	33 c0		 xor	 eax, eax

; 78   :     }
; 79   : 
; 80   : #undef DO_MEMCHR
; 81   : }

  00042	48 83 c4 20	 add	 rsp, 32			; 00000020H
  00046	5b		 pop	 rbx
  00047	c3		 ret	 0
asciilib_fastsearch_memchr_1char ENDP
_TEXT	ENDS
;	COMDAT pdata
pdata	SEGMENT
$pdata$asciilib_fastsearch DD imagerel asciilib_fastsearch
	DD	imagerel asciilib_fastsearch+346
	DD	imagerel $unwind$asciilib_fastsearch
pdata	ENDS
;	COMDAT pdata
pdata	SEGMENT
$pdata$2$asciilib_fastsearch DD imagerel asciilib_fastsearch+346
	DD	imagerel asciilib_fastsearch+977
	DD	imagerel $chain$2$asciilib_fastsearch
pdata	ENDS
;	COMDAT pdata
pdata	SEGMENT
$pdata$3$asciilib_fastsearch DD imagerel asciilib_fastsearch+977
	DD	imagerel asciilib_fastsearch+991
	DD	imagerel $chain$3$asciilib_fastsearch
pdata	ENDS
;	COMDAT pdata
pdata	SEGMENT
$pdata$4$asciilib_fastsearch DD imagerel asciilib_fastsearch+991
	DD	imagerel asciilib_fastsearch+996
	DD	imagerel $chain$4$asciilib_fastsearch
pdata	ENDS
;	COMDAT xdata
xdata	SEGMENT
$chain$4$asciilib_fastsearch DD 060021H
	DD	067400H
	DD	076400H
	DD	0e5400H
	DD	imagerel asciilib_fastsearch
	DD	imagerel asciilib_fastsearch+346
	DD	imagerel $unwind$asciilib_fastsearch
xdata	ENDS
;	COMDAT xdata
xdata	SEGMENT
$chain$3$asciilib_fastsearch DD 021H
	DD	imagerel asciilib_fastsearch
	DD	imagerel asciilib_fastsearch+346
	DD	imagerel $unwind$asciilib_fastsearch
xdata	ENDS
;	COMDAT xdata
xdata	SEGMENT
$chain$2$asciilib_fastsearch DD 061321H
	DD	067413H
	DD	07640aH
	DD	0e5405H
	DD	imagerel asciilib_fastsearch
	DD	imagerel asciilib_fastsearch+346
	DD	imagerel $unwind$asciilib_fastsearch
xdata	ENDS
;	COMDAT xdata
xdata	SEGMENT
$unwind$asciilib_fastsearch DD 061201H
	DD	0f00e7212H
	DD	0d00ae00cH
	DD	03006c008H
; Function compile flags: /Ogtpy
xdata	ENDS
;	COMDAT asciilib_fastsearch
_TEXT	SEGMENT
s$ = 112
mask$1$ = 120
n$ = 120
p$ = 128
skip$1$ = 136
m$ = 136
maxcount$ = 144
mode$ = 152
asciilib_fastsearch PROC				; COMDAT

; 87   : {

  00000	4c 89 44 24 18	 mov	 QWORD PTR [rsp+24], r8
  00005	53		 push	 rbx
  00006	41 54		 push	 r12
  00008	41 55		 push	 r13
  0000a	41 56		 push	 r14
  0000c	41 57		 push	 r15
  0000e	48 83 ec 40	 sub	 rsp, 64			; 00000040H
  00012	4d 8b e9	 mov	 r13, r9

; 88   :     unsigned long mask;
; 89   :     Py_ssize_t skip, count = 0;

  00015	45 33 db	 xor	 r11d, r11d

; 90   :     Py_ssize_t i, j, mlast, w;
; 91   : 
; 92   :     w = n - m;

  00018	4c 8b d2	 mov	 r10, rdx
  0001b	4d 2b d5	 sub	 r10, r13
  0001e	4d 8b f8	 mov	 r15, r8
  00021	48 8b d9	 mov	 rbx, rcx
  00024	45 8b cb	 mov	 r9d, r11d

; 93   : 
; 94   :     if (w < 0 || (mode == FAST_COUNT && maxcount == 0))

  00027	0f 88 1b 01 00
	00		 js	 $LN41@asciilib_f@2
  0002d	44 8b b4 24 98
	00 00 00	 mov	 r14d, DWORD PTR mode$[rsp]
  00035	4c 8b a4 24 90
	00 00 00	 mov	 r12, QWORD PTR maxcount$[rsp]
  0003d	45 85 f6	 test	 r14d, r14d
  00040	75 09		 jne	 SHORT $LN61@asciilib_f@2
  00042	4d 85 e4	 test	 r12, r12
  00045	0f 84 fd 00 00
	00		 je	 $LN41@asciilib_f@2
$LN61@asciilib_f@2:

; 95   :         return -1;
; 96   : 
; 97   :     /* look for special cases */
; 98   :     if (m <= 1) {

  0004b	49 83 fd 01	 cmp	 r13, 1
  0004f	0f 8f 05 01 00
	00		 jg	 $LN59@asciilib_f@2

; 99   :         if (m <= 0)

  00055	4d 85 ed	 test	 r13, r13

; 100  :             return -1;

  00058	0f 8e ea 00 00
	00		 jle	 $LN41@asciilib_f@2

; 101  :         /* use special case for 1-character strings */
; 102  :         if (n > 10 && (mode == FAST_SEARCH
; 103  : #ifdef HAVE_MEMRCHR
; 104  :                     || mode == FAST_RSEARCH
; 105  : #endif
; 106  :                     )) {

  0005e	48 83 fa 0a	 cmp	 rdx, 10
  00062	7e 3a		 jle	 SHORT $LN57@asciilib_f@2
  00064	41 83 fe 01	 cmp	 r14d, 1
  00068	75 34		 jne	 SHORT $LN57@asciilib_f@2

; 107  :             /* use memchr if we can choose a needle without two many likely
; 108  :                false positives */
; 109  :             unsigned char needle;
; 110  :             needle = p[0] & 0xff;
; 111  : #if STRINGLIB_SIZEOF_CHAR > 1
; 112  :             /* If looking for a multiple of 256, we'd have too
; 113  :                many false positives looking for the '\0' byte in UCS2
; 114  :                and UCS4 representations. */
; 115  :             if (needle != 0)
; 116  : #endif
; 117  :                 return STRINGLIB(fastsearch_memchr_1char)
; 118  :                        (s, n, p[0], needle, maxcount, mode);

  0006a	4c 8d 04 11	 lea	 r8, QWORD PTR [rcx+rdx]
  0006e	49 3b c8	 cmp	 rcx, r8
  00071	0f 83 d1 00 00
	00		 jae	 $LN41@asciilib_f@2
  00077	41 0f b6 17	 movzx	 edx, BYTE PTR [r15]
  0007b	4c 2b c1	 sub	 r8, rcx
  0007e	ff 15 00 00 00
	00		 call	 QWORD PTR __imp_memchr
  00084	48 85 c0	 test	 rax, rax
  00087	0f 84 bb 00 00
	00		 je	 $LN41@asciilib_f@2
  0008d	48 2b c3	 sub	 rax, rbx

; 223  : }

  00090	48 83 c4 40	 add	 rsp, 64			; 00000040H
  00094	41 5f		 pop	 r15
  00096	41 5e		 pop	 r14
  00098	41 5d		 pop	 r13
  0009a	41 5c		 pop	 r12
  0009c	5b		 pop	 rbx
  0009d	c3		 ret	 0
$LN57@asciilib_f@2:

; 119  :         }
; 120  :         if (mode == FAST_COUNT) {

  0009e	45 85 f6	 test	 r14d, r14d
  000a1	75 45		 jne	 SHORT $LN56@asciilib_f@2

; 121  :             for (i = 0; i < n; i++)

  000a3	48 85 d2	 test	 rdx, rdx
  000a6	7e 1e		 jle	 SHORT $LN99@asciilib_f@2
  000a8	41 0f b6 00	 movzx	 eax, BYTE PTR [r8]
  000ac	0f 1f 40 00	 npad	 4
$LL55@asciilib_f@2:

; 122  :                 if (s[i] == p[0]) {

  000b0	41 38 04 0b	 cmp	 BYTE PTR [r11+rcx], al
  000b4	75 08		 jne	 SHORT $LN54@asciilib_f@2

; 123  :                     count++;

  000b6	49 ff c1	 inc	 r9

; 124  :                     if (count == maxcount)

  000b9	4d 3b cc	 cmp	 r9, r12
  000bc	74 19		 je	 SHORT $LN81@asciilib_f@2
$LN54@asciilib_f@2:

; 121  :             for (i = 0; i < n; i++)

  000be	49 ff c3	 inc	 r11
  000c1	4c 3b da	 cmp	 r11, rdx
  000c4	7c ea		 jl	 SHORT $LL55@asciilib_f@2
$LN99@asciilib_f@2:

; 126  :                 }
; 127  :             return count;

  000c6	49 8b c1	 mov	 rax, r9

; 223  : }

  000c9	48 83 c4 40	 add	 rsp, 64			; 00000040H
  000cd	41 5f		 pop	 r15
  000cf	41 5e		 pop	 r14
  000d1	41 5d		 pop	 r13
  000d3	41 5c		 pop	 r12
  000d5	5b		 pop	 rbx
  000d6	c3		 ret	 0
$LN81@asciilib_f@2:

; 125  :                         return maxcount;

  000d7	49 8b c4	 mov	 rax, r12

; 223  : }

  000da	48 83 c4 40	 add	 rsp, 64			; 00000040H
  000de	41 5f		 pop	 r15
  000e0	41 5e		 pop	 r14
  000e2	41 5d		 pop	 r13
  000e4	41 5c		 pop	 r12
  000e6	5b		 pop	 rbx
  000e7	c3		 ret	 0
$LN56@asciilib_f@2:

; 128  :         } else if (mode == FAST_SEARCH) {

  000e8	41 83 fe 01	 cmp	 r14d, 1
  000ec	75 3a		 jne	 SHORT $LN49@asciilib_f@2

; 129  :             for (i = 0; i < n; i++)

  000ee	48 85 d2	 test	 rdx, rdx
  000f1	7e 55		 jle	 SHORT $LN41@asciilib_f@2
  000f3	41 0f b6 00	 movzx	 eax, BYTE PTR [r8]
$LL48@asciilib_f@2:

; 130  :                 if (s[i] == p[0])

  000f7	41 38 04 0b	 cmp	 BYTE PTR [r11+rcx], al
  000fb	74 1a		 je	 SHORT $LN82@asciilib_f@2

; 129  :             for (i = 0; i < n; i++)

  000fd	49 ff c3	 inc	 r11
  00100	4c 3b da	 cmp	 r11, rdx
  00103	7c f2		 jl	 SHORT $LL48@asciilib_f@2

; 135  :                     return i;
; 136  :         }
; 137  :         return -1;

  00105	48 83 c8 ff	 or	 rax, -1

; 223  : }

  00109	48 83 c4 40	 add	 rsp, 64			; 00000040H
  0010d	41 5f		 pop	 r15
  0010f	41 5e		 pop	 r14
  00111	41 5d		 pop	 r13
  00113	41 5c		 pop	 r12
  00115	5b		 pop	 rbx
  00116	c3		 ret	 0
$LN82@asciilib_f@2:

; 131  :                     return i;

  00117	49 8b c3	 mov	 rax, r11

; 223  : }

  0011a	48 83 c4 40	 add	 rsp, 64			; 00000040H
  0011e	41 5f		 pop	 r15
  00120	41 5e		 pop	 r14
  00122	41 5d		 pop	 r13
  00124	41 5c		 pop	 r12
  00126	5b		 pop	 rbx
  00127	c3		 ret	 0
$LN49@asciilib_f@2:

; 132  :         } else {    /* FAST_RSEARCH */
; 133  :             for (i = n - 1; i > -1; i--)

  00128	48 8d 42 ff	 lea	 rax, QWORD PTR [rdx-1]
  0012c	48 83 f8 ff	 cmp	 rax, -1
  00130	7e 16		 jle	 SHORT $LN41@asciilib_f@2
  00132	41 0f b6 08	 movzx	 ecx, BYTE PTR [r8]
$LL43@asciilib_f@2:

; 134  :                 if (s[i] == p[0])

  00136	38 0c 18	 cmp	 BYTE PTR [rax+rbx], cl
  00139	0f 84 92 02 00
	00		 je	 $LN62@asciilib_f@2

; 132  :         } else {    /* FAST_RSEARCH */
; 133  :             for (i = n - 1; i > -1; i--)

  0013f	48 ff c8	 dec	 rax
  00142	48 83 f8 ff	 cmp	 rax, -1
  00146	7f ee		 jg	 SHORT $LL43@asciilib_f@2
$LN41@asciilib_f@2:

; 135  :                     return i;
; 136  :         }
; 137  :         return -1;

  00148	48 83 c8 ff	 or	 rax, -1

; 223  : }

  0014c	48 83 c4 40	 add	 rsp, 64			; 00000040H
  00150	41 5f		 pop	 r15
  00152	41 5e		 pop	 r14
  00154	41 5d		 pop	 r13
  00156	41 5c		 pop	 r12
  00158	5b		 pop	 rbx
  00159	c3		 ret	 0
$LN59@asciilib_f@2:
  0015a	48 89 6c 24 70	 mov	 QWORD PTR [rsp+112], rbp
  0015f	48 89 74 24 38	 mov	 QWORD PTR [rsp+56], rsi

; 138  :     }
; 139  : 
; 140  :     mlast = m - 1;
; 141  :     skip = mlast - 1;
; 142  :     mask = 0;
; 143  : 
; 144  :     if (mode != FAST_RSEARCH) {

  00164	48 83 cd ff	 or	 rbp, -1
  00168	48 89 7c 24 30	 mov	 QWORD PTR [rsp+48], rdi
  0016d	49 8d 7d ff	 lea	 rdi, QWORD PTR [r13-1]
  00171	45 8b c3	 mov	 r8d, r11d
  00174	48 8d 47 ff	 lea	 rax, QWORD PTR [rdi-1]

; 145  : 
; 146  :         /* create compressed boyer-moore delta 1 table */
; 147  : 
; 148  :         /* process pattern[:-1] */
; 149  :         for (i = 0; i < mlast; i++) {

  00178	8d 75 02	 lea	 esi, QWORD PTR [rbp+2]
  0017b	48 89 84 24 88
	00 00 00	 mov	 QWORD PTR skip$1$[rsp], rax
  00183	41 83 fe 02	 cmp	 r14d, 2
  00187	0f 84 5b 01 00
	00		 je	 $LN39@asciilib_f@2
  0018d	48 85 ff	 test	 rdi, rdi
  00190	7e 75		 jle	 SHORT $LN36@asciilib_f@2
  00192	46 0f b6 3c 3f	 movzx	 r15d, BYTE PTR [rdi+r15]
  00197	48 8b ac 24 80
	00 00 00	 mov	 rbp, QWORD PTR p$[rsp]
  0019f	4c 8d 4f ff	 lea	 r9, QWORD PTR [rdi-1]
  001a3	4c 8b f7	 mov	 r14, rdi
  001a6	4d 8b e1	 mov	 r12, r9
  001a9	41 8b fb	 mov	 edi, r11d
  001ac	0f 1f 40 00	 npad	 4
$LL38@asciilib_f@2:

; 150  :             STRINGLIB_BLOOM_ADD(mask, p[i]);

  001b0	44 0f b6 45 00	 movzx	 r8d, BYTE PTR [rbp]
  001b5	8b d6		 mov	 edx, esi
  001b7	41 8b c8	 mov	 ecx, r8d
  001ba	83 e1 1f	 and	 ecx, 31
  001bd	d3 e2		 shl	 edx, cl
  001bf	0b fa		 or	 edi, edx

; 151  :             if (p[i] == p[mlast])

  001c1	45 3a c7	 cmp	 r8b, r15b
  001c4	4d 0f 44 cc	 cmove	 r9, r12
  001c8	48 ff c5	 inc	 rbp
  001cb	49 ff cc	 dec	 r12
  001ce	49 ff ce	 dec	 r14
  001d1	75 dd		 jne	 SHORT $LL38@asciilib_f@2
  001d3	4c 8b a4 24 90
	00 00 00	 mov	 r12, QWORD PTR maxcount$[rsp]
  001db	44 8b b4 24 98
	00 00 00	 mov	 r14d, DWORD PTR mode$[rsp]
  001e3	4c 8b bc 24 80
	00 00 00	 mov	 r15, QWORD PTR p$[rsp]
  001eb	89 7c 24 78	 mov	 DWORD PTR mask$1$[rsp], edi
  001ef	4c 89 8c 24 88
	00 00 00	 mov	 QWORD PTR skip$1$[rsp], r9
  001f7	48 83 cd ff	 or	 rbp, -1
  001fb	44 8b 44 24 78	 mov	 r8d, DWORD PTR mask$1$[rsp]
  00200	4d 8b cb	 mov	 r9, r11
  00203	49 8d 7d ff	 lea	 rdi, QWORD PTR [r13-1]
$LN36@asciilib_f@2:

; 152  :                 skip = mlast - i - 1;
; 153  :         }
; 154  :         /* process pattern[-1] outside the loop */
; 155  :         STRINGLIB_BLOOM_ADD(mask, p[mlast]);

  00207	42 0f b6 04 3f	 movzx	 eax, BYTE PTR [rdi+r15]

; 156  : 
; 157  :         for (i = 0; i <= w; i++) {

  0020c	49 8b d3	 mov	 rdx, r11
  0020f	83 e0 1f	 and	 eax, 31
  00212	0f b6 c8	 movzx	 ecx, al
  00215	d3 e6		 shl	 esi, cl
  00217	44 0b c6	 or	 r8d, esi
  0021a	44 89 44 24 78	 mov	 DWORD PTR mask$1$[rsp], r8d
  0021f	4d 85 d2	 test	 r10, r10
  00222	0f 88 9f 00 00
	00		 js	 $LN100@asciilib_f@2
  00228	48 8b b4 24 80
	00 00 00	 mov	 rsi, QWORD PTR p$[rsp]
  00230	4e 8d 3c 2b	 lea	 r15, QWORD PTR [rbx+r13]
$LN108@asciilib_f@2:
  00234	42 0f b6 44 2e
	ff		 movzx	 eax, BYTE PTR [rsi+r13-1]

; 158  :             /* note: using mlast in the skip path slows things down on x86 */
; 159  :             if (s[i+m-1] == p[m-1]) {

  0023a	41 38 44 17 ff	 cmp	 BYTE PTR [r15+rdx-1], al
  0023f	75 69		 jne	 SHORT $LN31@asciilib_f@2

; 160  :                 /* candidate match */
; 161  :                 for (j = 0; j < mlast; j++)

  00241	4d 8b c3	 mov	 r8, r11
  00244	48 85 ff	 test	 rdi, rdi
  00247	7e 28		 jle	 SHORT $LN84@asciilib_f@2
  00249	48 8b c2	 mov	 rax, rdx
  0024c	48 8b ce	 mov	 rcx, rsi
  0024f	48 2b c6	 sub	 rax, rsi
  00252	48 8d 34 18	 lea	 rsi, QWORD PTR [rax+rbx]
$LL30@asciilib_f@2:

; 162  :                     if (s[i+j] != p[j])

  00256	0f b6 01	 movzx	 eax, BYTE PTR [rcx]
  00259	38 04 0e	 cmp	 BYTE PTR [rsi+rcx], al
  0025c	75 0b		 jne	 SHORT $LN102@asciilib_f@2

; 160  :                 /* candidate match */
; 161  :                 for (j = 0; j < mlast; j++)

  0025e	49 ff c0	 inc	 r8
  00261	48 ff c1	 inc	 rcx
  00264	4c 3b c7	 cmp	 r8, rdi
  00267	7c ed		 jl	 SHORT $LL30@asciilib_f@2
$LN102@asciilib_f@2:
  00269	48 8b b4 24 80
	00 00 00	 mov	 rsi, QWORD PTR p$[rsp]
$LN84@asciilib_f@2:

; 163  :                         break;
; 164  :                 if (j == mlast) {

  00271	4c 3b c7	 cmp	 r8, rdi
  00274	75 17		 jne	 SHORT $LN26@asciilib_f@2

; 165  :                     /* got a match! */
; 166  :                     if (mode != FAST_COUNT)

  00276	45 85 f6	 test	 r14d, r14d
  00279	75 65		 jne	 SHORT $LN85@asciilib_f@2

; 168  :                     count++;

  0027b	49 ff c1	 inc	 r9

; 169  :                     if (count == maxcount)

  0027e	4d 3b cc	 cmp	 r9, r12
  00281	74 55		 je	 SHORT $LN86@asciilib_f@2

; 171  :                     i = i + mlast;
; 172  :                     continue;

  00283	44 8b 44 24 78	 mov	 r8d, DWORD PTR mask$1$[rsp]
  00288	48 03 d7	 add	 rdx, rdi
  0028b	eb 2e		 jmp	 SHORT $LN33@asciilib_f@2
$LN26@asciilib_f@2:

; 173  :                 }
; 174  :                 /* miss: check if next character is part of pattern */
; 175  :                 if (!STRINGLIB_BLOOM(mask, s[i+m]))

  0028d	41 0f b6 04 17	 movzx	 eax, BYTE PTR [r15+rdx]
  00292	44 8b 44 24 78	 mov	 r8d, DWORD PTR mask$1$[rsp]
  00297	83 e0 1f	 and	 eax, 31
  0029a	41 0f a3 c0	 bt	 r8d, eax

; 176  :                     i = i + m;
; 177  :                 else

  0029e	73 18		 jae	 SHORT $LN107@asciilib_f@2

; 178  :                     i = i + skip;

  002a0	48 03 94 24 88
	00 00 00	 add	 rdx, QWORD PTR skip$1$[rsp]

; 179  :             } else {

  002a8	eb 11		 jmp	 SHORT $LN33@asciilib_f@2
$LN31@asciilib_f@2:

; 180  :                 /* skip: check if next character is part of pattern */
; 181  :                 if (!STRINGLIB_BLOOM(mask, s[i+m]))

  002aa	41 0f b6 04 17	 movzx	 eax, BYTE PTR [r15+rdx]
  002af	83 e0 1f	 and	 eax, 31
  002b2	41 0f a3 c0	 bt	 r8d, eax
  002b6	72 03		 jb	 SHORT $LN33@asciilib_f@2
$LN107@asciilib_f@2:

; 182  :                     i = i + m;

  002b8	49 03 d5	 add	 rdx, r13
$LN33@asciilib_f@2:

; 156  : 
; 157  :         for (i = 0; i <= w; i++) {

  002bb	48 ff c2	 inc	 rdx
  002be	49 3b d2	 cmp	 rdx, r10
  002c1	0f 8e 6d ff ff
	ff		 jle	 $LN108@asciilib_f@2
$LN100@asciilib_f@2:

; 216  :             }
; 217  :         }
; 218  :     }
; 219  : 
; 220  :     if (mode != FAST_COUNT)

  002c7	45 85 f6	 test	 r14d, r14d
  002ca	0f 85 ef 00 00
	00		 jne	 $LN101@asciilib_f@2

; 222  :     return count;

  002d0	49 8b c1	 mov	 rax, r9
  002d3	e9 ea 00 00 00	 jmp	 $LN106@asciilib_f@2
$LN86@asciilib_f@2:

; 170  :                         return maxcount;

  002d8	49 8b c4	 mov	 rax, r12
  002db	e9 e2 00 00 00	 jmp	 $LN106@asciilib_f@2
$LN85@asciilib_f@2:

; 167  :                         return i;

  002e0	48 8b c2	 mov	 rax, rdx
  002e3	e9 da 00 00 00	 jmp	 $LN106@asciilib_f@2
$LN39@asciilib_f@2:

; 183  :             }
; 184  :         }
; 185  :     } else {    /* FAST_RSEARCH */
; 186  : 
; 187  :         /* create compressed boyer-moore delta 1 table */
; 188  : 
; 189  :         /* process pattern[0] outside the loop */
; 190  :         STRINGLIB_BLOOM_ADD(mask, p[0]);

  002e8	45 0f b6 37	 movzx	 r14d, BYTE PTR [r15]
  002ec	44 8b e6	 mov	 r12d, esi
  002ef	41 8b ce	 mov	 ecx, r14d
  002f2	83 e1 1f	 and	 ecx, 31
  002f5	41 d3 e4	 shl	 r12d, cl

; 191  :         /* process pattern[:0:-1] */
; 192  :         for (i = mlast; i > 0; i--) {

  002f8	48 85 ff	 test	 rdi, rdi
  002fb	7e 41		 jle	 SHORT $LN16@asciilib_f@2
  002fd	4e 8d 0c 3f	 lea	 r9, QWORD PTR [rdi+r15]
  00301	49 2b ef	 sub	 rbp, r15
  00304	4c 8b df	 mov	 r11, rdi
  00307	66 0f 1f 84 00
	00 00 00 00	 npad	 9
$LL18@asciilib_f@2:

; 193  :             STRINGLIB_BLOOM_ADD(mask, p[i]);

  00310	45 0f b6 01	 movzx	 r8d, BYTE PTR [r9]
  00314	8b d6		 mov	 edx, esi
  00316	41 8b c8	 mov	 ecx, r8d
  00319	83 e1 1f	 and	 ecx, 31
  0031c	d3 e2		 shl	 edx, cl
  0031e	44 0b e2	 or	 r12d, edx

; 194  :             if (p[i] == p[0])

  00321	45 3a c6	 cmp	 r8b, r14b
  00324	75 0c		 jne	 SHORT $LN17@asciilib_f@2

; 195  :                 skip = i - 1;

  00326	49 8d 04 29	 lea	 rax, QWORD PTR [r9+rbp]
  0032a	48 89 84 24 88
	00 00 00	 mov	 QWORD PTR skip$1$[rsp], rax
$LN17@asciilib_f@2:

; 191  :         /* process pattern[:0:-1] */
; 192  :         for (i = mlast; i > 0; i--) {

  00332	49 ff c9	 dec	 r9
  00335	49 ff cb	 dec	 r11
  00338	75 d6		 jne	 SHORT $LL18@asciilib_f@2
  0033a	48 83 cd ff	 or	 rbp, -1
$LN16@asciilib_f@2:

; 196  :         }
; 197  : 
; 198  :         for (i = w; i >= 0; i--) {

  0033e	4d 8b c2	 mov	 r8, r10
  00341	4d 2b c7	 sub	 r8, r15
  00344	4c 03 c3	 add	 r8, rbx
$LL14@asciilib_f@2:

; 199  :             if (s[i] == p[0]) {

  00347	45 38 34 1a	 cmp	 BYTE PTR [r10+rbx], r14b
  0034b	75 50		 jne	 SHORT $LN11@asciilib_f@2

; 200  :                 /* candidate match */
; 201  :                 for (j = mlast; j > 0; j--)

  0034d	48 8b d7	 mov	 rdx, rdi
  00350	48 85 ff	 test	 rdi, rdi
  00353	7e 1f		 jle	 SHORT $LN103@asciilib_f@2
  00355	4a 8d 0c 3f	 lea	 rcx, QWORD PTR [rdi+r15]
  00359	0f 1f 80 00 00
	00 00		 npad	 7
$LL10@asciilib_f@2:

; 202  :                     if (s[i+j] != p[j])

  00360	0f b6 01	 movzx	 eax, BYTE PTR [rcx]
  00363	41 38 04 08	 cmp	 BYTE PTR [r8+rcx], al
  00367	75 0b		 jne	 SHORT $LN103@asciilib_f@2

; 200  :                 /* candidate match */
; 201  :                 for (j = mlast; j > 0; j--)

  00369	48 ff ca	 dec	 rdx
  0036c	48 ff c9	 dec	 rcx
  0036f	48 85 d2	 test	 rdx, rdx
  00372	7f ec		 jg	 SHORT $LL10@asciilib_f@2
$LN103@asciilib_f@2:

; 203  :                         break;
; 204  :                 if (j == 0)

  00374	48 85 d2	 test	 rdx, rdx
  00377	74 66		 je	 SHORT $LN88@asciilib_f@2

; 207  :                 /* miss: check if previous character is part of pattern */
; 208  :                 if (i > 0 && !STRINGLIB_BLOOM(mask, s[i-1]))

  00379	4d 85 d2	 test	 r10, r10
  0037c	7e 0f		 jle	 SHORT $LN5@asciilib_f@2
  0037e	41 0f b6 44 1a
	ff		 movzx	 eax, BYTE PTR [r10+rbx-1]
  00384	83 e0 1f	 and	 eax, 31
  00387	41 0f a3 c4	 bt	 r12d, eax

; 209  :                     i = i - m;
; 210  :                 else

  0038b	73 24		 jae	 SHORT $LN109@asciilib_f@2
$LN5@asciilib_f@2:

; 211  :                     i = i - skip;

  0038d	48 8b 94 24 88
	00 00 00	 mov	 rdx, QWORD PTR skip$1$[rsp]
  00395	4c 2b d2	 sub	 r10, rdx
  00398	4c 2b c2	 sub	 r8, rdx

; 212  :             } else {

  0039b	eb 1a		 jmp	 SHORT $LN13@asciilib_f@2
$LN11@asciilib_f@2:

; 213  :                 /* skip: check if previous character is part of pattern */
; 214  :                 if (i > 0 && !STRINGLIB_BLOOM(mask, s[i-1]))

  0039d	4d 85 d2	 test	 r10, r10
  003a0	7e 15		 jle	 SHORT $LN13@asciilib_f@2
  003a2	41 0f b6 44 1a
	ff		 movzx	 eax, BYTE PTR [r10+rbx-1]
  003a8	83 e0 1f	 and	 eax, 31
  003ab	41 0f a3 c4	 bt	 r12d, eax
  003af	72 06		 jb	 SHORT $LN13@asciilib_f@2
$LN109@asciilib_f@2:

; 215  :                     i = i - m;

  003b1	4d 2b d5	 sub	 r10, r13
  003b4	4d 2b c5	 sub	 r8, r13
$LN13@asciilib_f@2:

; 196  :         }
; 197  : 
; 198  :         for (i = w; i >= 0; i--) {

  003b7	49 ff c8	 dec	 r8
  003ba	49 ff ca	 dec	 r10
  003bd	79 88		 jns	 SHORT $LL14@asciilib_f@2
$LN101@asciilib_f@2:

; 221  :         return -1;

  003bf	48 8b c5	 mov	 rax, rbp
$LN106@asciilib_f@2:
  003c2	48 8b 74 24 38	 mov	 rsi, QWORD PTR [rsp+56]
  003c7	48 8b 6c 24 70	 mov	 rbp, QWORD PTR [rsp+112]
  003cc	48 8b 7c 24 30	 mov	 rdi, QWORD PTR [rsp+48]
$LN62@asciilib_f@2:

; 223  : }

  003d1	48 83 c4 40	 add	 rsp, 64			; 00000040H
  003d5	41 5f		 pop	 r15
  003d7	41 5e		 pop	 r14
  003d9	41 5d		 pop	 r13
  003db	41 5c		 pop	 r12
  003dd	5b		 pop	 rbx
  003de	c3		 ret	 0
$LN88@asciilib_f@2:

; 205  :                     /* got a match! */
; 206  :                     return i;

  003df	49 8b c2	 mov	 rax, r10
  003e2	eb de		 jmp	 SHORT $LN106@asciilib_f@2
asciilib_fastsearch ENDP
_TEXT	ENDS
;	COMDAT pdata
; File c:\src\pyparallel\objects\stringlib\count.h
pdata	SEGMENT
$pdata$asciilib_count DD imagerel asciilib_count
	DD	imagerel asciilib_count+40
	DD	imagerel $unwind$asciilib_count
pdata	ENDS
;	COMDAT pdata
pdata	SEGMENT
$pdata$0$asciilib_count DD imagerel asciilib_count+40
	DD	imagerel asciilib_count+73
	DD	imagerel $chain$0$asciilib_count
pdata	ENDS
;	COMDAT pdata
pdata	SEGMENT
$pdata$1$asciilib_count DD imagerel asciilib_count+73
	DD	imagerel asciilib_count+78
	DD	imagerel $chain$1$asciilib_count
pdata	ENDS
;	COMDAT xdata
xdata	SEGMENT
$chain$1$asciilib_count DD 021H
	DD	imagerel asciilib_count
	DD	imagerel asciilib_count+40
	DD	imagerel $unwind$asciilib_count
xdata	ENDS
;	COMDAT xdata
xdata	SEGMENT
$chain$0$asciilib_count DD 020521H
	DD	063405H
	DD	imagerel asciilib_count
	DD	imagerel asciilib_count+40
	DD	imagerel $unwind$asciilib_count
xdata	ENDS
;	COMDAT xdata
xdata	SEGMENT
$unwind$asciilib_count DD 010401H
	DD	06204H
; Function compile flags: /Ogtpy
xdata	ENDS
;	COMDAT asciilib_count
_TEXT	SEGMENT
str$ = 64
str_len$ = 72
sub$ = 80
sub_len$ = 88
maxcount$ = 96
asciilib_count PROC					; COMDAT

; 11   : {

  00000	48 83 ec 38	 sub	 rsp, 56			; 00000038H

; 12   :     Py_ssize_t count;
; 13   : 
; 14   :     if (str_len < 0)

  00004	48 85 d2	 test	 rdx, rdx
  00007	79 07		 jns	 SHORT $LN3@asciilib_c

; 15   :         return 0; /* start > len(str) */

  00009	33 c0		 xor	 eax, eax

; 22   :         return 0; /* no match */
; 23   : 
; 24   :     return count;
; 25   : }

  0000b	48 83 c4 38	 add	 rsp, 56			; 00000038H
  0000f	c3		 ret	 0
$LN3@asciilib_c:

; 16   :     if (sub_len == 0)
; 17   :         return (str_len < maxcount) ? str_len + 1 : maxcount;

  00010	48 8b 44 24 60	 mov	 rax, QWORD PTR maxcount$[rsp]
  00015	4d 85 c9	 test	 r9, r9
  00018	75 0e		 jne	 SHORT $LN2@asciilib_c
  0001a	48 3b d0	 cmp	 rdx, rax
  0001d	7d 2a		 jge	 SHORT $LN1@asciilib_c
  0001f	48 8d 42 01	 lea	 rax, QWORD PTR [rdx+1]

; 22   :         return 0; /* no match */
; 23   : 
; 24   :     return count;
; 25   : }

  00023	48 83 c4 38	 add	 rsp, 56			; 00000038H
  00027	c3		 ret	 0
$LN2@asciilib_c:
  00028	48 89 5c 24 30	 mov	 QWORD PTR [rsp+48], rbx

; 18   : 
; 19   :     count = FASTSEARCH(str, str_len, sub, sub_len, maxcount, FAST_COUNT);

  0002d	33 db		 xor	 ebx, ebx
  0002f	89 5c 24 28	 mov	 DWORD PTR [rsp+40], ebx
  00033	48 89 44 24 20	 mov	 QWORD PTR [rsp+32], rax
  00038	e8 00 00 00 00	 call	 asciilib_fastsearch

; 20   : 
; 21   :     if (count < 0)

  0003d	48 85 c0	 test	 rax, rax
  00040	48 0f 48 c3	 cmovs	 rax, rbx
  00044	48 8b 5c 24 30	 mov	 rbx, QWORD PTR [rsp+48]
$LN1@asciilib_c:

; 22   :         return 0; /* no match */
; 23   : 
; 24   :     return count;
; 25   : }

  00049	48 83 c4 38	 add	 rsp, 56			; 00000038H
  0004d	c3		 ret	 0
asciilib_count ENDP
_TEXT	ENDS
;	COMDAT pdata
; File c:\src\pyparallel\objects\stringlib\fastsearch.h
pdata	SEGMENT
$pdata$asciilib_find DD imagerel asciilib_find
	DD	imagerel asciilib_find+58
	DD	imagerel $unwind$asciilib_find
pdata	ENDS
;	COMDAT pdata
pdata	SEGMENT
$pdata$4$asciilib_find DD imagerel asciilib_find+58
	DD	imagerel asciilib_find+235
	DD	imagerel $chain$4$asciilib_find
pdata	ENDS
;	COMDAT pdata
pdata	SEGMENT
$pdata$6$asciilib_find DD imagerel asciilib_find+235
	DD	imagerel asciilib_find+513
	DD	imagerel $chain$6$asciilib_find
pdata	ENDS
;	COMDAT xdata
xdata	SEGMENT
$chain$6$asciilib_find DD 0a0021H
	DD	06f400H
	DD	07d400H
	DD	0fc400H
	DD	0e6400H
	DD	0c5400H
	DD	imagerel asciilib_find
	DD	imagerel asciilib_find+58
	DD	imagerel $unwind$asciilib_find
xdata	ENDS
;	COMDAT xdata
xdata	SEGMENT
$chain$4$asciilib_find DD 0a1c21H
	DD	06f41cH
	DD	07d417H
	DD	0fc40fH
	DD	0e640aH
	DD	0c5405H
	DD	imagerel asciilib_find
	DD	imagerel asciilib_find+58
	DD	imagerel $unwind$asciilib_find
xdata	ENDS
;	COMDAT xdata
xdata	SEGMENT
$unwind$asciilib_find DD 040901H
	DD	0e0057209H
	DD	030027003H
; Function compile flags: /Ogtpy
; File c:\src\pyparallel\objects\stringlib\find.h
xdata	ENDS
;	COMDAT asciilib_find
_TEXT	SEGMENT
w$1$ = 32
str$ = 96
skip$1$ = 104
str_len$ = 104
sub$ = 112
sub_len$ = 120
offset$ = 128
asciilib_find PROC					; COMDAT

; 11   : {

  00000	40 53		 push	 rbx
  00002	57		 push	 rdi
  00003	41 56		 push	 r14
  00005	48 83 ec 40	 sub	 rsp, 64			; 00000040H
  00009	49 8b d9	 mov	 rbx, r9
  0000c	4d 8b f0	 mov	 r14, r8
  0000f	48 8b f9	 mov	 rdi, rcx

; 12   :     Py_ssize_t pos;
; 13   : 
; 14   :     if (str_len < 0)

  00012	48 85 d2	 test	 rdx, rdx
  00015	79 0d		 jns	 SHORT $LN3@asciilib_f@3

; 15   :         return -1;

  00017	48 83 c8 ff	 or	 rax, -1

; 25   : }

  0001b	48 83 c4 40	 add	 rsp, 64			; 00000040H
  0001f	41 5e		 pop	 r14
  00021	5f		 pop	 rdi
  00022	5b		 pop	 rbx
  00023	c3		 ret	 0
$LN3@asciilib_f@3:

; 16   :     if (sub_len == 0)

  00024	48 85 db	 test	 rbx, rbx
  00027	75 11		 jne	 SHORT $LN2@asciilib_f@3

; 17   :         return offset;

  00029	48 8b 84 24 80
	00 00 00	 mov	 rax, QWORD PTR offset$[rsp]

; 25   : }

  00031	48 83 c4 40	 add	 rsp, 64			; 00000040H
  00035	41 5e		 pop	 r14
  00037	5f		 pop	 rdi
  00038	5b		 pop	 rbx
  00039	c3		 ret	 0
$LN2@asciilib_f@3:
  0003a	48 89 6c 24 60	 mov	 QWORD PTR [rsp+96], rbp
  0003f	48 89 74 24 70	 mov	 QWORD PTR [rsp+112], rsi
  00044	4c 89 64 24 78	 mov	 QWORD PTR [rsp+120], r12

; 18   : 
; 19   :     pos = FASTSEARCH(str, str_len, sub, sub_len, -1, FAST_SEARCH);

  00049	48 8b ea	 mov	 rbp, rdx
  0004c	4c 89 6c 24 38	 mov	 QWORD PTR [rsp+56], r13
  00051	4c 89 7c 24 30	 mov	 QWORD PTR [rsp+48], r15
  00056	48 2b eb	 sub	 rbp, rbx
  00059	48 89 6c 24 20	 mov	 QWORD PTR w$1$[rsp], rbp
  0005e	78 62		 js	 SHORT $LN65@asciilib_f@3
  00060	48 83 fb 01	 cmp	 rbx, 1
  00064	0f 8f 81 00 00
	00		 jg	 $LN64@asciilib_f@3
  0006a	48 85 db	 test	 rbx, rbx
  0006d	7e 53		 jle	 SHORT $LN65@asciilib_f@3
  0006f	48 83 fa 0a	 cmp	 rdx, 10
  00073	7e 2f		 jle	 SHORT $LN62@asciilib_f@3
  00075	4c 8d 04 11	 lea	 r8, QWORD PTR [rcx+rdx]
  00079	49 3b c8	 cmp	 rcx, r8
  0007c	73 15		 jae	 SHORT $LN72@asciilib_f@3
  0007e	41 0f b6 16	 movzx	 edx, BYTE PTR [r14]
  00082	4c 2b c1	 sub	 r8, rcx
  00085	ff 15 00 00 00
	00		 call	 QWORD PTR __imp_memchr
  0008b	4c 8b c8	 mov	 r9, rax
  0008e	48 85 c0	 test	 rax, rax
  00091	75 09		 jne	 SHORT $LN71@asciilib_f@3
$LN72@asciilib_f@3:
  00093	49 83 c9 ff	 or	 r9, -1
  00097	e9 4f 01 00 00	 jmp	 $LN67@asciilib_f@3
$LN71@asciilib_f@3:
  0009c	4c 2b cf	 sub	 r9, rdi
  0009f	e9 47 01 00 00	 jmp	 $LN67@asciilib_f@3
$LN62@asciilib_f@3:
  000a4	45 33 c9	 xor	 r9d, r9d
  000a7	48 85 d2	 test	 rdx, rdx
  000aa	7e 16		 jle	 SHORT $LN65@asciilib_f@3
  000ac	41 0f b6 00	 movzx	 eax, BYTE PTR [r8]
$LL53@asciilib_f@3:
  000b0	41 38 04 09	 cmp	 BYTE PTR [r9+rcx], al
  000b4	0f 84 31 01 00
	00		 je	 $LN67@asciilib_f@3
  000ba	49 ff c1	 inc	 r9
  000bd	4c 3b ca	 cmp	 r9, rdx
  000c0	7c ee		 jl	 SHORT $LL53@asciilib_f@3
$LN65@asciilib_f@3:
  000c2	49 83 c9 ff	 or	 r9, -1
$LN1@asciilib_f@3:
  000c6	4c 8b 7c 24 30	 mov	 r15, QWORD PTR [rsp+48]
  000cb	4c 8b 6c 24 38	 mov	 r13, QWORD PTR [rsp+56]
  000d0	4c 8b 64 24 78	 mov	 r12, QWORD PTR [rsp+120]
  000d5	48 8b 74 24 70	 mov	 rsi, QWORD PTR [rsp+112]
  000da	48 8b 6c 24 60	 mov	 rbp, QWORD PTR [rsp+96]

; 23   : 
; 24   :     return pos;

  000df	49 8b c1	 mov	 rax, r9

; 25   : }

  000e2	48 83 c4 40	 add	 rsp, 64			; 00000040H
  000e6	41 5e		 pop	 r14
  000e8	5f		 pop	 rdi
  000e9	5b		 pop	 rbx
  000ea	c3		 ret	 0

; 18   : 
; 19   :     pos = FASTSEARCH(str, str_len, sub, sub_len, -1, FAST_SEARCH);

$LN64@asciilib_f@3:
  000eb	4d 8d 51 ff	 lea	 r10, QWORD PTR [r9-1]
  000ef	45 33 c9	 xor	 r9d, r9d
  000f2	4d 8d 62 ff	 lea	 r12, QWORD PTR [r10-1]
  000f6	45 8b f9	 mov	 r15d, r9d
  000f9	45 8d 59 01	 lea	 r11d, QWORD PTR [r9+1]
  000fd	4d 85 d2	 test	 r10, r10
  00100	7e 55		 jle	 SHORT $LN41@asciilib_f@3
  00102	47 0f b6 2c 02	 movzx	 r13d, BYTE PTR [r10+r8]
  00107	49 8b ec	 mov	 rbp, r12
  0010a	4d 8b e2	 mov	 r12, r10
  0010d	4c 8b d5	 mov	 r10, rbp
  00110	49 8b f0	 mov	 rsi, r8
  00113	66 66 66 66 66
	0f 1f 84 00 00
	00 00 00	 npad	 13
$LL43@asciilib_f@3:
  00120	44 0f b6 06	 movzx	 r8d, BYTE PTR [rsi]
  00124	41 8b d3	 mov	 edx, r11d
  00127	41 8b c8	 mov	 ecx, r8d
  0012a	83 e1 1f	 and	 ecx, 31
  0012d	d3 e2		 shl	 edx, cl
  0012f	44 0b fa	 or	 r15d, edx
  00132	45 3a c5	 cmp	 r8b, r13b
  00135	4c 0f 44 d5	 cmove	 r10, rbp
  00139	48 ff c6	 inc	 rsi
  0013c	48 ff cd	 dec	 rbp
  0013f	49 ff cc	 dec	 r12
  00142	75 dc		 jne	 SHORT $LL43@asciilib_f@3
  00144	48 8b 6c 24 20	 mov	 rbp, QWORD PTR w$1$[rsp]
  00149	4c 89 54 24 68	 mov	 QWORD PTR skip$1$[rsp], r10
  0014e	4c 8d 53 ff	 lea	 r10, QWORD PTR [rbx-1]
  00152	4c 8b 64 24 68	 mov	 r12, QWORD PTR skip$1$[rsp]
$LN41@asciilib_f@3:
  00157	43 0f b6 0c 32	 movzx	 ecx, BYTE PTR [r10+r14]
  0015c	49 8b d1	 mov	 rdx, r9
  0015f	83 e1 1f	 and	 ecx, 31
  00162	41 d3 e3	 shl	 r11d, cl
  00165	45 0b fb	 or	 r15d, r11d
  00168	48 85 ed	 test	 rbp, rbp
  0016b	0f 88 51 ff ff
	ff		 js	 $LN65@asciilib_f@3
  00171	45 0f b6 6c 1e
	ff		 movzx	 r13d, BYTE PTR [r14+rbx-1]
  00177	48 8d 34 1f	 lea	 rsi, QWORD PTR [rdi+rbx]
  0017b	0f 1f 44 00 00	 npad	 5
$LL39@asciilib_f@3:
  00180	44 38 6c 16 ff	 cmp	 BYTE PTR [rsi+rdx-1], r13b
  00185	75 44		 jne	 SHORT $LN36@asciilib_f@3
  00187	4d 8b c1	 mov	 r8, r9
  0018a	4d 85 d2	 test	 r10, r10
  0018d	7e 25		 jle	 SHORT $LN89@asciilib_f@3
  0018f	4c 8b da	 mov	 r11, rdx
  00192	49 8b ce	 mov	 rcx, r14
  00195	4d 2b de	 sub	 r11, r14
  00198	4c 03 df	 add	 r11, rdi
  0019b	0f 1f 44 00 00	 npad	 5
$LL35@asciilib_f@3:
  001a0	0f b6 01	 movzx	 eax, BYTE PTR [rcx]
  001a3	41 38 04 0b	 cmp	 BYTE PTR [r11+rcx], al
  001a7	75 0b		 jne	 SHORT $LN89@asciilib_f@3
  001a9	49 ff c0	 inc	 r8
  001ac	48 ff c1	 inc	 rcx
  001af	4d 3b c2	 cmp	 r8, r10
  001b2	7c ec		 jl	 SHORT $LL35@asciilib_f@3
$LN89@asciilib_f@3:
  001b4	4d 3b c2	 cmp	 r8, r10
  001b7	74 2f		 je	 SHORT $LN83@asciilib_f@3
  001b9	0f b6 04 16	 movzx	 eax, BYTE PTR [rsi+rdx]
  001bd	83 e0 1f	 and	 eax, 31
  001c0	41 0f a3 c7	 bt	 r15d, eax
  001c4	73 12		 jae	 SHORT $LN90@asciilib_f@3
  001c6	49 03 d4	 add	 rdx, r12
  001c9	eb 10		 jmp	 SHORT $LN38@asciilib_f@3
$LN36@asciilib_f@3:
  001cb	0f b6 04 16	 movzx	 eax, BYTE PTR [rsi+rdx]
  001cf	83 e0 1f	 and	 eax, 31
  001d2	41 0f a3 c7	 bt	 r15d, eax
  001d6	72 03		 jb	 SHORT $LN38@asciilib_f@3
$LN90@asciilib_f@3:
  001d8	48 03 d3	 add	 rdx, rbx
$LN38@asciilib_f@3:
  001db	48 ff c2	 inc	 rdx
  001de	48 3b d5	 cmp	 rdx, rbp
  001e1	7e 9d		 jle	 SHORT $LL39@asciilib_f@3
  001e3	e9 da fe ff ff	 jmp	 $LN65@asciilib_f@3
$LN83@asciilib_f@3:
  001e8	4c 8b ca	 mov	 r9, rdx
$LN67@asciilib_f@3:

; 20   : 
; 21   :     if (pos >= 0)

  001eb	4d 85 c9	 test	 r9, r9
  001ee	0f 88 d2 fe ff
	ff		 js	 $LN1@asciilib_f@3

; 22   :         pos += offset;

  001f4	4c 03 8c 24 80
	00 00 00	 add	 r9, QWORD PTR offset$[rsp]
  001fc	e9 c5 fe ff ff	 jmp	 $LN1@asciilib_f@3
asciilib_find ENDP
_TEXT	ENDS
;	COMDAT pdata
; File c:\src\pyparallel\objects\stringlib\fastsearch.h
pdata	SEGMENT
$pdata$asciilib_rfind DD imagerel asciilib_rfind
	DD	imagerel asciilib_rfind+58
	DD	imagerel $unwind$asciilib_rfind
pdata	ENDS
;	COMDAT pdata
pdata	SEGMENT
$pdata$2$asciilib_rfind DD imagerel asciilib_rfind+58
	DD	imagerel asciilib_rfind+161
	DD	imagerel $chain$2$asciilib_rfind
pdata	ENDS
;	COMDAT pdata
pdata	SEGMENT
$pdata$4$asciilib_rfind DD imagerel asciilib_rfind+161
	DD	imagerel asciilib_rfind+198
	DD	imagerel $chain$4$asciilib_rfind
pdata	ENDS
;	COMDAT pdata
pdata	SEGMENT
$pdata$6$asciilib_rfind DD imagerel asciilib_rfind+198
	DD	imagerel asciilib_rfind+280
	DD	imagerel $chain$6$asciilib_rfind
pdata	ENDS
;	COMDAT pdata
pdata	SEGMENT
$pdata$7$asciilib_rfind DD imagerel asciilib_rfind+280
	DD	imagerel asciilib_rfind+425
	DD	imagerel $chain$7$asciilib_rfind
pdata	ENDS
;	COMDAT xdata
xdata	SEGMENT
$chain$7$asciilib_rfind DD 021H
	DD	imagerel asciilib_rfind+161
	DD	imagerel asciilib_rfind+198
	DD	imagerel $chain$4$asciilib_rfind
xdata	ENDS
;	COMDAT xdata
xdata	SEGMENT
$chain$6$asciilib_rfind DD 040d21H
	DD	07740dH
	DD	066405H
	DD	imagerel asciilib_rfind+161
	DD	imagerel asciilib_rfind+198
	DD	imagerel $chain$4$asciilib_rfind
xdata	ENDS
;	COMDAT xdata
xdata	SEGMENT
$chain$4$asciilib_rfind DD 060021H
	DD	0e400H
	DD	01d400H
	DD	08c400H
	DD	imagerel asciilib_rfind
	DD	imagerel asciilib_rfind+58
	DD	imagerel $unwind$asciilib_rfind
xdata	ENDS
;	COMDAT xdata
xdata	SEGMENT
$chain$2$asciilib_rfind DD 061421H
	DD	0e414H
	DD	01d40dH
	DD	08c405H
	DD	imagerel asciilib_rfind
	DD	imagerel asciilib_rfind+58
	DD	imagerel $unwind$asciilib_rfind
xdata	ENDS
;	COMDAT xdata
xdata	SEGMENT
$unwind$asciilib_rfind DD 040901H
	DD	0f0051209H
	DD	030025003H
; Function compile flags: /Ogtpy
; File c:\src\pyparallel\objects\stringlib\find.h
xdata	ENDS
;	COMDAT asciilib_rfind
_TEXT	SEGMENT
str$ = 48
str_len$ = 56
sub$ = 64
sub_len$ = 72
offset$ = 80
asciilib_rfind PROC					; COMDAT

; 31   : {

  00000	40 53		 push	 rbx
  00002	55		 push	 rbp
  00003	41 57		 push	 r15
  00005	48 83 ec 10	 sub	 rsp, 16
  00009	49 8b d9	 mov	 rbx, r9
  0000c	4d 8b f8	 mov	 r15, r8
  0000f	48 8b e9	 mov	 rbp, rcx

; 32   :     Py_ssize_t pos;
; 33   : 
; 34   :     if (str_len < 0)

  00012	48 85 d2	 test	 rdx, rdx
  00015	79 0d		 jns	 SHORT $LN3@asciilib_r

; 35   :         return -1;

  00017	48 83 c8 ff	 or	 rax, -1

; 45   : }

  0001b	48 83 c4 10	 add	 rsp, 16
  0001f	41 5f		 pop	 r15
  00021	5d		 pop	 rbp
  00022	5b		 pop	 rbx
  00023	c3		 ret	 0
$LN3@asciilib_r:

; 36   :     if (sub_len == 0)

  00024	48 85 db	 test	 rbx, rbx
  00027	75 11		 jne	 SHORT $LN2@asciilib_r

; 37   :         return str_len + offset;

  00029	48 8b 44 24 50	 mov	 rax, QWORD PTR offset$[rsp]
  0002e	48 03 c2	 add	 rax, rdx

; 45   : }

  00031	48 83 c4 10	 add	 rsp, 16
  00035	41 5f		 pop	 r15
  00037	5d		 pop	 rbp
  00038	5b		 pop	 rbx
  00039	c3		 ret	 0
$LN2@asciilib_r:
  0003a	4c 89 64 24 40	 mov	 QWORD PTR [rsp+64], r12

; 38   : 
; 39   :     pos = FASTSEARCH(str, str_len, sub, sub_len, -1, FAST_RSEARCH);

  0003f	4c 8b ca	 mov	 r9, rdx
  00042	4c 89 6c 24 08	 mov	 QWORD PTR [rsp+8], r13
  00047	4c 2b cb	 sub	 r9, rbx
  0004a	4c 89 34 24	 mov	 QWORD PTR [rsp], r14
  0004e	78 33		 js	 SHORT $LN65@asciilib_r
  00050	48 83 fb 01	 cmp	 rbx, 1
  00054	7f 4b		 jg	 SHORT $LN64@asciilib_r
  00056	48 85 db	 test	 rbx, rbx
  00059	7e 28		 jle	 SHORT $LN65@asciilib_r
  0005b	4c 8d 4a ff	 lea	 r9, QWORD PTR [rdx-1]
  0005f	49 83 f9 ff	 cmp	 r9, -1
  00063	7e 1e		 jle	 SHORT $LN65@asciilib_r
  00065	41 0f b6 00	 movzx	 eax, BYTE PTR [r8]
  00069	0f 1f 80 00 00
	00 00		 npad	 7
$LL48@asciilib_r:
  00070	41 38 04 09	 cmp	 BYTE PTR [r9+rcx], al
  00074	0f 84 15 01 00
	00		 je	 $LN83@asciilib_r
  0007a	49 ff c9	 dec	 r9
  0007d	49 83 f9 ff	 cmp	 r9, -1
  00081	7f ed		 jg	 SHORT $LL48@asciilib_r
$LN65@asciilib_r:
  00083	49 83 ca ff	 or	 r10, -1
$LN1@asciilib_r:
  00087	4c 8b 34 24	 mov	 r14, QWORD PTR [rsp]
  0008b	4c 8b 6c 24 08	 mov	 r13, QWORD PTR [rsp+8]
  00090	4c 8b 64 24 40	 mov	 r12, QWORD PTR [rsp+64]

; 43   : 
; 44   :     return pos;

  00095	49 8b c2	 mov	 rax, r10

; 45   : }

  00098	48 83 c4 10	 add	 rsp, 16
  0009c	41 5f		 pop	 r15
  0009e	5d		 pop	 rbp
  0009f	5b		 pop	 rbx
  000a0	c3		 ret	 0

; 38   : 
; 39   :     pos = FASTSEARCH(str, str_len, sub, sub_len, -1, FAST_RSEARCH);

$LN64@asciilib_r:
  000a1	45 0f b6 18	 movzx	 r11d, BYTE PTR [r8]
  000a5	4c 8d 63 ff	 lea	 r12, QWORD PTR [rbx-1]
  000a9	41 be 01 00 00
	00		 mov	 r14d, 1
  000af	41 8b cb	 mov	 ecx, r11d
  000b2	49 83 ca ff	 or	 r10, -1
  000b6	4d 8d 6c 24 ff	 lea	 r13, QWORD PTR [r12-1]
  000bb	83 e1 1f	 and	 ecx, 31
  000be	41 d3 e6	 shl	 r14d, cl
  000c1	4d 85 e4	 test	 r12, r12
  000c4	7e 52		 jle	 SHORT $LN21@asciilib_r
  000c6	48 89 74 24 30	 mov	 QWORD PTR [rsp+48], rsi
  000cb	49 8b f2	 mov	 rsi, r10
  000ce	48 89 7c 24 38	 mov	 QWORD PTR [rsp+56], rdi
  000d3	4f 8d 1c 04	 lea	 r11, QWORD PTR [r12+r8]
  000d7	49 8b fc	 mov	 rdi, r12
  000da	45 0f b6 20	 movzx	 r12d, BYTE PTR [r8]
  000de	49 2b f0	 sub	 rsi, r8
$LL23@asciilib_r:
  000e1	45 0f b6 03	 movzx	 r8d, BYTE PTR [r11]
  000e5	ba 01 00 00 00	 mov	 edx, 1
  000ea	41 8b c8	 mov	 ecx, r8d
  000ed	83 e1 1f	 and	 ecx, 31
  000f0	d3 e2		 shl	 edx, cl
  000f2	44 0b f2	 or	 r14d, edx
  000f5	45 3a c4	 cmp	 r8b, r12b
  000f8	75 04		 jne	 SHORT $LN22@asciilib_r
  000fa	4e 8d 2c 1e	 lea	 r13, QWORD PTR [rsi+r11]
$LN22@asciilib_r:
  000fe	49 ff cb	 dec	 r11
  00101	48 ff cf	 dec	 rdi
  00104	75 db		 jne	 SHORT $LL23@asciilib_r
  00106	45 0f b6 1f	 movzx	 r11d, BYTE PTR [r15]
  0010a	48 8b 7c 24 38	 mov	 rdi, QWORD PTR [rsp+56]
  0010f	48 8b 74 24 30	 mov	 rsi, QWORD PTR [rsp+48]
  00114	4c 8d 63 ff	 lea	 r12, QWORD PTR [rbx-1]
$LN21@asciilib_r:
  00118	4d 8b c1	 mov	 r8, r9
  0011b	4d 2b c7	 sub	 r8, r15
  0011e	4c 03 c5	 add	 r8, rbp
$LL19@asciilib_r:
  00121	45 38 1c 29	 cmp	 BYTE PTR [r9+rbp], r11b
  00125	75 41		 jne	 SHORT $LN16@asciilib_r
  00127	49 8b d4	 mov	 rdx, r12
  0012a	4d 85 e4	 test	 r12, r12
  0012d	7e 18		 jle	 SHORT $LN89@asciilib_r
  0012f	4b 8d 0c 3c	 lea	 rcx, QWORD PTR [r12+r15]
$LL15@asciilib_r:
  00133	0f b6 01	 movzx	 eax, BYTE PTR [rcx]
  00136	41 38 04 08	 cmp	 BYTE PTR [r8+rcx], al
  0013a	75 0b		 jne	 SHORT $LN89@asciilib_r
  0013c	48 ff ca	 dec	 rdx
  0013f	48 ff c9	 dec	 rcx
  00142	48 85 d2	 test	 rdx, rdx
  00145	7f ec		 jg	 SHORT $LL15@asciilib_r
$LN89@asciilib_r:
  00147	48 85 d2	 test	 rdx, rdx
  0014a	74 43		 je	 SHORT $LN83@asciilib_r
  0014c	4d 85 c9	 test	 r9, r9
  0014f	7e 0f		 jle	 SHORT $LN10@asciilib_r
  00151	41 0f b6 44 29
	ff		 movzx	 eax, BYTE PTR [r9+rbp-1]
  00157	83 e0 1f	 and	 eax, 31
  0015a	41 0f a3 c6	 bt	 r14d, eax
  0015e	73 1c		 jae	 SHORT $LN90@asciilib_r
$LN10@asciilib_r:
  00160	4d 2b cd	 sub	 r9, r13
  00163	4d 2b c5	 sub	 r8, r13
  00166	eb 1a		 jmp	 SHORT $LN18@asciilib_r
$LN16@asciilib_r:
  00168	4d 85 c9	 test	 r9, r9
  0016b	7e 15		 jle	 SHORT $LN18@asciilib_r
  0016d	41 0f b6 44 29
	ff		 movzx	 eax, BYTE PTR [r9+rbp-1]
  00173	83 e0 1f	 and	 eax, 31
  00176	41 0f a3 c6	 bt	 r14d, eax
  0017a	72 06		 jb	 SHORT $LN18@asciilib_r
$LN90@asciilib_r:
  0017c	4c 2b cb	 sub	 r9, rbx
  0017f	4c 2b c3	 sub	 r8, rbx
$LN18@asciilib_r:
  00182	49 ff c8	 dec	 r8
  00185	49 ff c9	 dec	 r9
  00188	79 97		 jns	 SHORT $LL19@asciilib_r
  0018a	e9 f8 fe ff ff	 jmp	 $LN1@asciilib_r
$LN83@asciilib_r:
  0018f	4d 8b d1	 mov	 r10, r9

; 40   : 
; 41   :     if (pos >= 0)

  00192	4d 85 c9	 test	 r9, r9
  00195	0f 88 ec fe ff
	ff		 js	 $LN1@asciilib_r

; 42   :         pos += offset;

  0019b	48 8b 44 24 50	 mov	 rax, QWORD PTR offset$[rsp]
  001a0	4d 8d 14 01	 lea	 r10, QWORD PTR [r9+rax]
  001a4	e9 de fe ff ff	 jmp	 $LN1@asciilib_r
asciilib_rfind ENDP
_TEXT	ENDS
;	COMDAT pdata
pdata	SEGMENT
$pdata$asciilib_find_slice DD imagerel asciilib_find_slice
	DD	imagerel asciilib_find_slice+75
	DD	imagerel $unwind$asciilib_find_slice
pdata	ENDS
;	COMDAT xdata
xdata	SEGMENT
$unwind$asciilib_find_slice DD 010401H
	DD	06204H
; Function compile flags: /Ogtpy
xdata	ENDS
;	COMDAT asciilib_find_slice
_TEXT	SEGMENT
str$ = 64
str_len$ = 72
sub$ = 80
sub_len$ = 88
start$ = 96
end$ = 104
asciilib_find_slice PROC				; COMDAT

; 66   : {

  00000	48 83 ec 38	 sub	 rsp, 56			; 00000038H
  00004	4c 8b d2	 mov	 r10, rdx

; 67   :     ADJUST_INDICES(start, end, str_len);

  00007	48 8b 54 24 68	 mov	 rdx, QWORD PTR end$[rsp]
  0000c	45 33 db	 xor	 r11d, r11d
  0000f	49 3b d2	 cmp	 rdx, r10
  00012	7e 05		 jle	 SHORT $LN6@asciilib_f@4
  00014	49 8b d2	 mov	 rdx, r10
  00017	eb 0c		 jmp	 SHORT $LN3@asciilib_f@4
$LN6@asciilib_f@4:
  00019	48 85 d2	 test	 rdx, rdx
  0001c	79 07		 jns	 SHORT $LN3@asciilib_f@4
  0001e	49 03 d2	 add	 rdx, r10
  00021	49 0f 48 d3	 cmovs	 rdx, r11
$LN3@asciilib_f@4:
  00025	48 8b 44 24 60	 mov	 rax, QWORD PTR start$[rsp]
  0002a	48 85 c0	 test	 rax, rax
  0002d	79 07		 jns	 SHORT $LN1@asciilib_f@4
  0002f	49 03 c2	 add	 rax, r10
  00032	49 0f 48 c3	 cmovs	 rax, r11
$LN1@asciilib_f@4:

; 68   :     return STRINGLIB(find)(str + start, end - start, sub, sub_len, start);

  00036	48 2b d0	 sub	 rdx, rax
  00039	48 03 c8	 add	 rcx, rax
  0003c	48 89 44 24 20	 mov	 QWORD PTR [rsp+32], rax
  00041	e8 00 00 00 00	 call	 asciilib_find

; 69   : }

  00046	48 83 c4 38	 add	 rsp, 56			; 00000038H
  0004a	c3		 ret	 0
asciilib_find_slice ENDP
_TEXT	ENDS
;	COMDAT pdata
pdata	SEGMENT
$pdata$asciilib_rfind_slice DD imagerel asciilib_rfind_slice
	DD	imagerel asciilib_rfind_slice+75
	DD	imagerel $unwind$asciilib_rfind_slice
pdata	ENDS
;	COMDAT xdata
xdata	SEGMENT
$unwind$asciilib_rfind_slice DD 010401H
	DD	06204H
; Function compile flags: /Ogtpy
xdata	ENDS
;	COMDAT asciilib_rfind_slice
_TEXT	SEGMENT
str$ = 64
str_len$ = 72
sub$ = 80
sub_len$ = 88
start$ = 96
end$ = 104
asciilib_rfind_slice PROC				; COMDAT

; 75   : {

  00000	48 83 ec 38	 sub	 rsp, 56			; 00000038H
  00004	4c 8b d2	 mov	 r10, rdx

; 76   :     ADJUST_INDICES(start, end, str_len);

  00007	48 8b 54 24 68	 mov	 rdx, QWORD PTR end$[rsp]
  0000c	45 33 db	 xor	 r11d, r11d
  0000f	49 3b d2	 cmp	 rdx, r10
  00012	7e 05		 jle	 SHORT $LN6@asciilib_r@2
  00014	49 8b d2	 mov	 rdx, r10
  00017	eb 0c		 jmp	 SHORT $LN3@asciilib_r@2
$LN6@asciilib_r@2:
  00019	48 85 d2	 test	 rdx, rdx
  0001c	79 07		 jns	 SHORT $LN3@asciilib_r@2
  0001e	49 03 d2	 add	 rdx, r10
  00021	49 0f 48 d3	 cmovs	 rdx, r11
$LN3@asciilib_r@2:
  00025	48 8b 44 24 60	 mov	 rax, QWORD PTR start$[rsp]
  0002a	48 85 c0	 test	 rax, rax
  0002d	79 07		 jns	 SHORT $LN1@asciilib_r@2
  0002f	49 03 c2	 add	 rax, r10
  00032	49 0f 48 c3	 cmovs	 rax, r11
$LN1@asciilib_r@2:

; 77   :     return STRINGLIB(rfind)(str + start, end - start, sub, sub_len, start);

  00036	48 2b d0	 sub	 rdx, rax
  00039	48 03 c8	 add	 rcx, rax
  0003c	48 89 44 24 20	 mov	 QWORD PTR [rsp+32], rax
  00041	e8 00 00 00 00	 call	 asciilib_rfind

; 78   : }

  00046	48 83 c4 38	 add	 rsp, 56			; 00000038H
  0004a	c3		 ret	 0
asciilib_rfind_slice ENDP
; Function compile flags: /Ogtpy
; File c:\src\pyparallel\objects\stringlib\localeutil.h
_TEXT	ENDS
;	COMDAT asciilib_GroupGenerator_init
_TEXT	SEGMENT
self$ = 8
grouping$ = 16
asciilib_GroupGenerator_init PROC			; COMDAT

; 18   :     self->grouping = grouping;

  00000	48 89 11	 mov	 QWORD PTR [rcx], rdx

; 19   :     self->i = 0;

  00003	48 c7 41 10 00
	00 00 00	 mov	 QWORD PTR [rcx+16], 0

; 20   :     self->previous = 0;

  0000b	c6 41 08 00	 mov	 BYTE PTR [rcx+8], 0

; 21   : }

  0000f	c3		 ret	 0
asciilib_GroupGenerator_init ENDP
; Function compile flags: /Ogtpy
_TEXT	ENDS
;	COMDAT asciilib_GroupGenerator_next
_TEXT	SEGMENT
self$ = 8
asciilib_GroupGenerator_next PROC			; COMDAT

; 27   :     /* Note that we don't really do much error checking here. If a
; 28   :        grouping string contains just CHAR_MAX, for example, then just
; 29   :        terminate the generator. That shouldn't happen, but at least we
; 30   :        fail gracefully. */
; 31   :     switch (self->grouping[self->i]) {

  00000	48 8b 01	 mov	 rax, QWORD PTR [rcx]
  00003	4c 8b 41 10	 mov	 r8, QWORD PTR [rcx+16]
  00007	41 0f b6 14 00	 movzx	 edx, BYTE PTR [r8+rax]
  0000c	0f b6 c2	 movzx	 eax, dl
  0000f	84 d2		 test	 dl, dl
  00011	74 17		 je	 SHORT $LN3@asciilib_G
  00013	3c 7f		 cmp	 al, 127			; 0000007fH
  00015	74 10		 je	 SHORT $LN2@asciilib_G

; 37   :     default: {
; 38   :         char ch = self->grouping[self->i];
; 39   :         self->previous = ch;
; 40   :         self->i++;

  00017	49 8d 40 01	 lea	 rax, QWORD PTR [r8+1]
  0001b	88 51 08	 mov	 BYTE PTR [rcx+8], dl
  0001e	48 89 41 10	 mov	 QWORD PTR [rcx+16], rax

; 41   :         return (Py_ssize_t)ch;

  00022	48 0f be c2	 movsx	 rax, dl

; 42   :     }
; 43   :     }
; 44   : }

  00026	c3		 ret	 0
$LN2@asciilib_G:

; 34   :     case CHAR_MAX:
; 35   :         /* Stop the generator. */
; 36   :         return 0;

  00027	33 c0		 xor	 eax, eax

; 42   :     }
; 43   :     }
; 44   : }

  00029	c3		 ret	 0
$LN3@asciilib_G:

; 32   :     case 0:
; 33   :         return self->previous;

  0002a	48 0f be 41 08	 movsx	 rax, BYTE PTR [rcx+8]

; 42   :     }
; 43   :     }
; 44   : }

  0002f	c3		 ret	 0
asciilib_GroupGenerator_next ENDP
_TEXT	ENDS
EXTRN	memcpy:PROC
;	COMDAT pdata
pdata	SEGMENT
$pdata$asciilib_fill DD imagerel asciilib_fill
	DD	imagerel asciilib_fill+133
	DD	imagerel $unwind$asciilib_fill
pdata	ENDS
;	COMDAT xdata
xdata	SEGMENT
$unwind$asciilib_fill DD 081401H
	DD	086414H
	DD	075414H
	DD	063414H
	DD	070103214H
; Function compile flags: /Ogtpy
xdata	ENDS
;	COMDAT asciilib_fill
_TEXT	SEGMENT
digits_end$ = 48
buffer_end$ = 56
n_chars$ = 64
n_zeros$ = 72
thousands_sep$ = 80
thousands_sep_len$ = 88
asciilib_fill PROC					; COMDAT

; 52   : {

  00000	48 89 5c 24 08	 mov	 QWORD PTR [rsp+8], rbx
  00005	48 89 6c 24 10	 mov	 QWORD PTR [rsp+16], rbp
  0000a	48 89 74 24 18	 mov	 QWORD PTR [rsp+24], rsi
  0000f	57		 push	 rdi
  00010	48 83 ec 20	 sub	 rsp, 32			; 00000020H
  00014	48 8b da	 mov	 rbx, rdx

; 53   :     Py_ssize_t i;
; 54   : 
; 55   :     if (thousands_sep) {

  00017	48 8b 54 24 50	 mov	 rdx, QWORD PTR thousands_sep$[rsp]
  0001c	49 8b f9	 mov	 rdi, r9
  0001f	49 8b f0	 mov	 rsi, r8
  00022	48 8b e9	 mov	 rbp, rcx
  00025	48 85 d2	 test	 rdx, rdx
  00028	74 10		 je	 SHORT $LN4@asciilib_f@5

; 56   :         *buffer_end -= thousands_sep_len;

  0002a	4c 8b 44 24 58	 mov	 r8, QWORD PTR thousands_sep_len$[rsp]
  0002f	4c 29 03	 sub	 QWORD PTR [rbx], r8

; 57   : 
; 58   :         /* Copy the thousands_sep chars into the buffer. */
; 59   :         memcpy(*buffer_end, thousands_sep,
; 60   :                thousands_sep_len * STRINGLIB_SIZEOF_CHAR);

  00032	48 8b 0b	 mov	 rcx, QWORD PTR [rbx]
  00035	e8 00 00 00 00	 call	 memcpy
$LN4@asciilib_f@5:

; 61   :     }
; 62   : 
; 63   :     *buffer_end -= n_chars;

  0003a	48 29 33	 sub	 QWORD PTR [rbx], rsi

; 64   :     *digits_end -= n_chars;

  0003d	48 29 75 00	 sub	 QWORD PTR [rbp], rsi

; 65   :     memcpy(*buffer_end, *digits_end, n_chars * sizeof(STRINGLIB_CHAR));

  00041	48 8b 55 00	 mov	 rdx, QWORD PTR [rbp]
  00045	48 8b 0b	 mov	 rcx, QWORD PTR [rbx]
  00048	4c 8b c6	 mov	 r8, rsi
  0004b	e8 00 00 00 00	 call	 memcpy

; 66   : 
; 67   :     *buffer_end -= n_zeros;

  00050	48 29 3b	 sub	 QWORD PTR [rbx], rdi

; 68   :     for (i = 0; i < n_zeros; i++)

  00053	33 c9		 xor	 ecx, ecx
  00055	48 85 ff	 test	 rdi, rdi
  00058	7e 16		 jle	 SHORT $LN1@asciilib_f@5
  0005a	66 0f 1f 44 00
	00		 npad	 6
$LL3@asciilib_f@5:

; 69   :         (*buffer_end)[i] = '0';

  00060	48 8b 03	 mov	 rax, QWORD PTR [rbx]
  00063	48 ff c1	 inc	 rcx
  00066	c6 44 01 ff 30	 mov	 BYTE PTR [rcx+rax-1], 48 ; 00000030H
  0006b	48 3b cf	 cmp	 rcx, rdi
  0006e	7c f0		 jl	 SHORT $LL3@asciilib_f@5
$LN1@asciilib_f@5:

; 70   : }

  00070	48 8b 5c 24 30	 mov	 rbx, QWORD PTR [rsp+48]
  00075	48 8b 6c 24 38	 mov	 rbp, QWORD PTR [rsp+56]
  0007a	48 8b 74 24 40	 mov	 rsi, QWORD PTR [rsp+64]
  0007f	48 83 c4 20	 add	 rsp, 32			; 00000020H
  00083	5f		 pop	 rdi
  00084	c3		 ret	 0
asciilib_fill ENDP
_TEXT	ENDS
;	COMDAT pdata
pdata	SEGMENT
$pdata$asciilib_InsertThousandsGrouping DD imagerel asciilib_InsertThousandsGrouping
	DD	imagerel asciilib_InsertThousandsGrouping+461
	DD	imagerel $unwind$asciilib_InsertThousandsGrouping
pdata	ENDS
;	COMDAT xdata
xdata	SEGMENT
$unwind$asciilib_InsertThousandsGrouping DD 0b6f01H
	DD	0a746fH
	DD	013546aH
	DD	0f00fa213H
	DD	0d00be00dH
	DD	06007c009H
	DD	03006H
; Function compile flags: /Ogtpy
xdata	ENDS
;	COMDAT asciilib_InsertThousandsGrouping
_TEXT	SEGMENT
digits_end$ = 48
groupgen$ = 56
buffer$ = 144
n_buffer$ = 152
digits$ = 160
buffer_end$ = 168
n_digits$ = 168
min_width$ = 176
grouping$ = 184
thousands_sep$ = 192
thousands_sep_len$ = 200
asciilib_InsertThousandsGrouping PROC			; COMDAT

; 112  : {

  00000	48 89 4c 24 08	 mov	 QWORD PTR [rsp+8], rcx
  00005	53		 push	 rbx
  00006	56		 push	 rsi
  00007	41 54		 push	 r12
  00009	41 55		 push	 r13
  0000b	41 56		 push	 r14
  0000d	41 57		 push	 r15
  0000f	48 83 ec 58	 sub	 rsp, 88			; 00000058H

; 113  :     Py_ssize_t count = 0;

  00013	45 33 e4	 xor	 r12d, r12d
  00016	48 8b c2	 mov	 rax, rdx

; 114  :     Py_ssize_t n_zeros;
; 115  :     int loop_broken = 0;
; 116  :     int use_separator = 0; /* First time through, don't append the
; 117  :                               separator. They only go between
; 118  :                               groups. */
; 119  :     STRINGLIB_CHAR *buffer_end = NULL;
; 120  :     STRINGLIB_CHAR *digits_end = NULL;
; 121  :     Py_ssize_t l;
; 122  :     Py_ssize_t n_chars;
; 123  :     Py_ssize_t remaining = n_digits; /* Number of chars remaining to
; 124  :                                         be looked at */
; 125  :     /* A generator that returns all of the grouping widths, until it
; 126  :        returns 0. */
; 127  :     STRINGLIB(GroupGenerator) groupgen;
; 128  :     STRINGLIB(GroupGenerator_init)(&groupgen, grouping);

  00019	48 8b 94 24 b8
	00 00 00	 mov	 rdx, QWORD PTR grouping$[rsp]
  00021	4c 8b d9	 mov	 r11, rcx
  00024	48 8d 4c 24 38	 lea	 rcx, QWORD PTR groupgen$[rsp]
  00029	49 8b f1	 mov	 rsi, r9
  0002c	45 8b fc	 mov	 r15d, r12d
  0002f	45 8b d4	 mov	 r10d, r12d
  00032	4c 89 a4 24 a8
	00 00 00	 mov	 QWORD PTR buffer_end$[rsp], r12
  0003a	4c 89 64 24 30	 mov	 QWORD PTR digits_end$[rsp], r12
  0003f	e8 00 00 00 00	 call	 asciilib_GroupGenerator_init

; 129  : 
; 130  :     if (buffer) {

  00044	4d 85 db	 test	 r11, r11
  00047	74 14		 je	 SHORT $LN26@asciilib_I

; 131  :         buffer_end = buffer + n_buffer;

  00049	49 03 c3	 add	 rax, r11
  0004c	48 89 84 24 a8
	00 00 00	 mov	 QWORD PTR buffer_end$[rsp], rax

; 132  :         digits_end = digits + n_digits;

  00054	4b 8d 04 08	 lea	 rax, QWORD PTR [r8+r9]
  00058	48 89 44 24 30	 mov	 QWORD PTR digits_end$[rsp], rax
$LN26@asciilib_I:

; 133  :     }
; 134  : 
; 135  :     while ((l = STRINGLIB(GroupGenerator_next)(&groupgen)) > 0) {

  0005d	48 8d 4c 24 38	 lea	 rcx, QWORD PTR groupgen$[rsp]
  00062	48 89 ac 24 98
	00 00 00	 mov	 QWORD PTR [rsp+152], rbp
  0006a	48 89 7c 24 50	 mov	 QWORD PTR [rsp+80], rdi
  0006f	e8 00 00 00 00	 call	 asciilib_GroupGenerator_next
  00074	4c 8b b4 24 c8
	00 00 00	 mov	 r14, QWORD PTR thousands_sep_len$[rsp]
  0007c	48 8b bc 24 b0
	00 00 00	 mov	 rdi, QWORD PTR min_width$[rsp]
  00084	41 bd 01 00 00
	00		 mov	 r13d, 1
$LN35@asciilib_I:
  0008a	48 8b 94 24 c0
	00 00 00	 mov	 rdx, QWORD PTR thousands_sep$[rsp]
  00092	48 8b d8	 mov	 rbx, rax
  00095	48 85 c0	 test	 rax, rax
  00098	0f 8e ac 00 00
	00		 jle	 $LN29@asciilib_I

; 136  :         l = Py_MIN(l, Py_MAX(Py_MAX(remaining, min_width), 1));

  0009e	48 3b f7	 cmp	 rsi, rdi
  000a1	49 8b c5	 mov	 rax, r13
  000a4	48 8b cf	 mov	 rcx, rdi
  000a7	48 0f 4f ce	 cmovg	 rcx, rsi
  000ab	48 3b c8	 cmp	 rcx, rax
  000ae	48 0f 4f c1	 cmovg	 rax, rcx
  000b2	48 3b d8	 cmp	 rbx, rax
  000b5	7e 0a		 jle	 SHORT $LN12@asciilib_I
  000b7	49 8b dd	 mov	 rbx, r13
  000ba	48 3b cb	 cmp	 rcx, rbx
  000bd	48 0f 4f d9	 cmovg	 rbx, rcx
$LN12@asciilib_I:

; 137  :         n_zeros = Py_MAX(0, l - remaining);

  000c1	4c 8b cb	 mov	 r9, rbx

; 138  :         n_chars = Py_MAX(0, Py_MIN(remaining, l));

  000c4	48 8b ee	 mov	 rbp, rsi

; 139  : 
; 140  :         /* Use n_zero zero's and n_chars chars */
; 141  : 
; 142  :         /* Count only, don't do anything. */
; 143  :         count += (use_separator ? thousands_sep_len : 0) + n_zeros + n_chars;

  000c7	49 8b c4	 mov	 rax, r12
  000ca	4c 2b ce	 sub	 r9, rsi
  000cd	4d 0f 48 cc	 cmovs	 r9, r12
  000d1	48 3b f3	 cmp	 rsi, rbx
  000d4	48 0f 4f eb	 cmovg	 rbp, rbx
  000d8	48 85 ed	 test	 rbp, rbp
  000db	49 0f 48 ec	 cmovs	 rbp, r12
  000df	45 85 d2	 test	 r10d, r10d
  000e2	49 0f 45 c6	 cmovne	 rax, r14
  000e6	48 03 c5	 add	 rax, rbp
  000e9	49 03 c1	 add	 rax, r9
  000ec	4c 03 f8	 add	 r15, rax

; 144  : 
; 145  :         if (buffer) {

  000ef	4d 85 db	 test	 r11, r11
  000f2	74 31		 je	 SHORT $LN4@asciilib_I

; 146  :             /* Copy into the output buffer. */
; 147  :             STRINGLIB(fill)(&digits_end, &buffer_end, n_chars, n_zeros,
; 148  :                  use_separator ? thousands_sep : NULL, thousands_sep_len);

  000f4	45 85 d2	 test	 r10d, r10d
  000f7	49 8b c4	 mov	 rax, r12
  000fa	48 8d 4c 24 30	 lea	 rcx, QWORD PTR digits_end$[rsp]
  000ff	48 0f 45 c2	 cmovne	 rax, rdx
  00103	48 8d 94 24 a8
	00 00 00	 lea	 rdx, QWORD PTR buffer_end$[rsp]
  0010b	4c 8b c5	 mov	 r8, rbp
  0010e	4c 89 74 24 28	 mov	 QWORD PTR [rsp+40], r14
  00113	48 89 44 24 20	 mov	 QWORD PTR [rsp+32], rax
  00118	e8 00 00 00 00	 call	 asciilib_fill
  0011d	4c 8b 9c 24 90
	00 00 00	 mov	 r11, QWORD PTR buffer$[rsp]
$LN4@asciilib_I:

; 149  :         }
; 150  : 
; 151  :         /* Use a separator next time. */
; 152  :         use_separator = 1;
; 153  : 
; 154  :         remaining -= n_chars;

  00125	48 2b f5	 sub	 rsi, rbp

; 155  :         min_width -= l;

  00128	48 2b fb	 sub	 rdi, rbx
  0012b	45 8b d5	 mov	 r10d, r13d

; 156  : 
; 157  :         if (remaining <= 0 && min_width <= 0) {

  0012e	48 85 f6	 test	 rsi, rsi
  00131	7f 05		 jg	 SHORT $LN3@asciilib_I
  00133	48 85 ff	 test	 rdi, rdi
  00136	7e 76		 jle	 SHORT $LN30@asciilib_I
$LN3@asciilib_I:

; 133  :     }
; 134  : 
; 135  :     while ((l = STRINGLIB(GroupGenerator_next)(&groupgen)) > 0) {

  00138	48 8d 4c 24 38	 lea	 rcx, QWORD PTR groupgen$[rsp]

; 158  :             loop_broken = 1;
; 159  :             break;
; 160  :         }
; 161  :         min_width -= thousands_sep_len;

  0013d	49 2b fe	 sub	 rdi, r14
  00140	e8 00 00 00 00	 call	 asciilib_GroupGenerator_next
  00145	e9 40 ff ff ff	 jmp	 $LN35@asciilib_I
$LN29@asciilib_I:

; 162  :     }
; 163  :     if (!loop_broken) {
; 164  :         /* We left the loop without using a break statement. */
; 165  : 
; 166  :         l = Py_MAX(Py_MAX(remaining, min_width), 1);

  0014a	48 3b f7	 cmp	 rsi, rdi

; 167  :         n_zeros = Py_MAX(0, l - remaining);
; 168  :         n_chars = Py_MAX(0, Py_MIN(remaining, l));
; 169  : 
; 170  :         /* Use n_zero zero's and n_chars chars */
; 171  :         count += (use_separator ? thousands_sep_len : 0) + n_zeros + n_chars;

  0014d	49 8b c4	 mov	 rax, r12
  00150	48 0f 4f fe	 cmovg	 rdi, rsi
  00154	49 3b fd	 cmp	 rdi, r13
  00157	4c 0f 4f ef	 cmovg	 r13, rdi
  0015b	4d 8b cd	 mov	 r9, r13
  0015e	4c 2b ce	 sub	 r9, rsi
  00161	4d 0f 48 cc	 cmovs	 r9, r12
  00165	49 3b f5	 cmp	 rsi, r13
  00168	49 0f 4f f5	 cmovg	 rsi, r13
  0016c	48 85 f6	 test	 rsi, rsi
  0016f	49 0f 48 f4	 cmovs	 rsi, r12
  00173	45 85 d2	 test	 r10d, r10d
  00176	49 0f 45 c6	 cmovne	 rax, r14
  0017a	48 03 c6	 add	 rax, rsi
  0017d	49 03 c1	 add	 rax, r9
  00180	4c 03 f8	 add	 r15, rax

; 172  :         if (buffer) {

  00183	4d 85 db	 test	 r11, r11
  00186	74 26		 je	 SHORT $LN30@asciilib_I

; 173  :             /* Copy into the output buffer. */
; 174  :             STRINGLIB(fill)(&digits_end, &buffer_end, n_chars, n_zeros,
; 175  :                  use_separator ? thousands_sep : NULL, thousands_sep_len);

  00188	45 85 d2	 test	 r10d, r10d
  0018b	48 8d 4c 24 30	 lea	 rcx, QWORD PTR digits_end$[rsp]
  00190	4c 8b c6	 mov	 r8, rsi
  00193	4c 0f 45 e2	 cmovne	 r12, rdx
  00197	48 8d 94 24 a8
	00 00 00	 lea	 rdx, QWORD PTR buffer_end$[rsp]
  0019f	4c 89 74 24 28	 mov	 QWORD PTR [rsp+40], r14
  001a4	4c 89 64 24 20	 mov	 QWORD PTR [rsp+32], r12
  001a9	e8 00 00 00 00	 call	 asciilib_fill
$LN30@asciilib_I:

; 176  :         }
; 177  :     }
; 178  :     return count;

  001ae	48 8b 7c 24 50	 mov	 rdi, QWORD PTR [rsp+80]
  001b3	48 8b ac 24 98
	00 00 00	 mov	 rbp, QWORD PTR [rsp+152]
  001bb	49 8b c7	 mov	 rax, r15

; 179  : }

  001be	48 83 c4 58	 add	 rsp, 88			; 00000058H
  001c2	41 5f		 pop	 r15
  001c4	41 5e		 pop	 r14
  001c6	41 5d		 pop	 r13
  001c8	41 5c		 pop	 r12
  001ca	5e		 pop	 rsi
  001cb	5b		 pop	 rbx
  001cc	c3		 ret	 0
asciilib_InsertThousandsGrouping ENDP
_TEXT	ENDS
;	COMDAT pdata
; File c:\src\pyparallel\objects\stringlib\fastsearch.h
pdata	SEGMENT
$pdata$ucs1lib_fastsearch_memchr_1char DD imagerel ucs1lib_fastsearch_memchr_1char
	DD	imagerel ucs1lib_fastsearch_memchr_1char+72
	DD	imagerel $unwind$ucs1lib_fastsearch_memchr_1char
pdata	ENDS
;	COMDAT xdata
xdata	SEGMENT
$unwind$ucs1lib_fastsearch_memchr_1char DD 020601H
	DD	030023206H
; Function compile flags: /Ogtpy
xdata	ENDS
;	COMDAT ucs1lib_fastsearch_memchr_1char
_TEXT	SEGMENT
s$ = 48
n$ = 56
needle$ = 64
mode$ = 72
ucs1lib_fastsearch_memchr_1char PROC			; COMDAT

; 40   : {

  00000	40 53		 push	 rbx
  00002	48 83 ec 20	 sub	 rsp, 32			; 00000020H
  00006	41 0f b6 c0	 movzx	 eax, r8b
  0000a	48 8b d9	 mov	 rbx, rcx

; 41   :     if (mode == FAST_SEARCH) {

  0000d	41 83 f9 01	 cmp	 r9d, 1
  00011	75 2d		 jne	 SHORT $LN6@ucs1lib_fa

; 42   :         const STRINGLIB_CHAR *ptr = s;
; 43   :         const STRINGLIB_CHAR *e = s + n;

  00013	4c 8d 04 11	 lea	 r8, QWORD PTR [rcx+rdx]

; 44   :         while (ptr < e) {

  00017	49 3b c8	 cmp	 rcx, r8
  0001a	73 11		 jae	 SHORT $LN4@ucs1lib_fa

; 45   :             void *candidate = memchr((const void *) ptr, needle, (e - ptr) * sizeof(STRINGLIB_CHAR));

  0001c	4c 2b c1	 sub	 r8, rcx
  0001f	0f b6 d0	 movzx	 edx, al
  00022	ff 15 00 00 00
	00		 call	 QWORD PTR __imp_memchr

; 46   :             if (candidate == NULL)

  00028	48 85 c0	 test	 rax, rax
  0002b	75 0a		 jne	 SHORT $LN3@ucs1lib_fa
$LN4@ucs1lib_fa:

; 47   :                 return -1;

  0002d	48 83 c8 ff	 or	 rax, -1

; 78   :     }
; 79   : 
; 80   : #undef DO_MEMCHR
; 81   : }

  00031	48 83 c4 20	 add	 rsp, 32			; 00000020H
  00035	5b		 pop	 rbx
  00036	c3		 ret	 0
$LN3@ucs1lib_fa:

; 48   :             ptr = (const STRINGLIB_CHAR *) _Py_ALIGN_DOWN(candidate, sizeof(STRINGLIB_CHAR));
; 49   :             if (sizeof(STRINGLIB_CHAR) == 1 || *ptr == ch)
; 50   :                 return (ptr - s);

  00037	48 2b c3	 sub	 rax, rbx

; 78   :     }
; 79   : 
; 80   : #undef DO_MEMCHR
; 81   : }

  0003a	48 83 c4 20	 add	 rsp, 32			; 00000020H
  0003e	5b		 pop	 rbx
  0003f	c3		 ret	 0
$LN6@ucs1lib_fa:

; 51   :             /* False positive */
; 52   :             ptr++;
; 53   :         }
; 54   :         return -1;
; 55   :     }
; 56   : #ifdef HAVE_MEMRCHR
; 57   :     /* memrchr() is a GNU extension, available since glibc 2.1.91.
; 58   :        it doesn't seem as optimized as memchr(), but is still quite
; 59   :        faster than our hand-written loop in FASTSEARCH below */
; 60   :     else if (mode == FAST_RSEARCH) {
; 61   :         while (n > 0) {
; 62   :             const STRINGLIB_CHAR *found;
; 63   :             void *candidate = memrchr((const void *) s, needle, n * sizeof(STRINGLIB_CHAR));
; 64   :             if (candidate == NULL)
; 65   :                 return -1;
; 66   :             found = (const STRINGLIB_CHAR *) _Py_ALIGN_DOWN(candidate, sizeof(STRINGLIB_CHAR));
; 67   :             n = found - s;
; 68   :             if (sizeof(STRINGLIB_CHAR) == 1 || *found == ch)
; 69   :                 return n;
; 70   :             /* False positive */
; 71   :         }
; 72   :         return -1;
; 73   :     }
; 74   : #endif
; 75   :     else {
; 76   :         assert(0); /* Should never get here */
; 77   :         return 0;

  00040	33 c0		 xor	 eax, eax

; 78   :     }
; 79   : 
; 80   : #undef DO_MEMCHR
; 81   : }

  00042	48 83 c4 20	 add	 rsp, 32			; 00000020H
  00046	5b		 pop	 rbx
  00047	c3		 ret	 0
ucs1lib_fastsearch_memchr_1char ENDP
_TEXT	ENDS
;	COMDAT pdata
pdata	SEGMENT
$pdata$ucs1lib_fastsearch DD imagerel ucs1lib_fastsearch
	DD	imagerel ucs1lib_fastsearch+346
	DD	imagerel $unwind$ucs1lib_fastsearch
pdata	ENDS
;	COMDAT pdata
pdata	SEGMENT
$pdata$2$ucs1lib_fastsearch DD imagerel ucs1lib_fastsearch+346
	DD	imagerel ucs1lib_fastsearch+977
	DD	imagerel $chain$2$ucs1lib_fastsearch
pdata	ENDS
;	COMDAT pdata
pdata	SEGMENT
$pdata$3$ucs1lib_fastsearch DD imagerel ucs1lib_fastsearch+977
	DD	imagerel ucs1lib_fastsearch+991
	DD	imagerel $chain$3$ucs1lib_fastsearch
pdata	ENDS
;	COMDAT pdata
pdata	SEGMENT
$pdata$4$ucs1lib_fastsearch DD imagerel ucs1lib_fastsearch+991
	DD	imagerel ucs1lib_fastsearch+996
	DD	imagerel $chain$4$ucs1lib_fastsearch
pdata	ENDS
;	COMDAT xdata
xdata	SEGMENT
$chain$4$ucs1lib_fastsearch DD 060021H
	DD	067400H
	DD	076400H
	DD	0e5400H
	DD	imagerel ucs1lib_fastsearch
	DD	imagerel ucs1lib_fastsearch+346
	DD	imagerel $unwind$ucs1lib_fastsearch
xdata	ENDS
;	COMDAT xdata
xdata	SEGMENT
$chain$3$ucs1lib_fastsearch DD 021H
	DD	imagerel ucs1lib_fastsearch
	DD	imagerel ucs1lib_fastsearch+346
	DD	imagerel $unwind$ucs1lib_fastsearch
xdata	ENDS
;	COMDAT xdata
xdata	SEGMENT
$chain$2$ucs1lib_fastsearch DD 061321H
	DD	067413H
	DD	07640aH
	DD	0e5405H
	DD	imagerel ucs1lib_fastsearch
	DD	imagerel ucs1lib_fastsearch+346
	DD	imagerel $unwind$ucs1lib_fastsearch
xdata	ENDS
;	COMDAT xdata
xdata	SEGMENT
$unwind$ucs1lib_fastsearch DD 061201H
	DD	0f00e7212H
	DD	0d00ae00cH
	DD	03006c008H
; Function compile flags: /Ogtpy
xdata	ENDS
;	COMDAT ucs1lib_fastsearch
_TEXT	SEGMENT
s$ = 112
mask$1$ = 120
n$ = 120
p$ = 128
skip$1$ = 136
m$ = 136
maxcount$ = 144
mode$ = 152
ucs1lib_fastsearch PROC					; COMDAT

; 87   : {

  00000	4c 89 44 24 18	 mov	 QWORD PTR [rsp+24], r8
  00005	53		 push	 rbx
  00006	41 54		 push	 r12
  00008	41 55		 push	 r13
  0000a	41 56		 push	 r14
  0000c	41 57		 push	 r15
  0000e	48 83 ec 40	 sub	 rsp, 64			; 00000040H
  00012	4d 8b e9	 mov	 r13, r9

; 88   :     unsigned long mask;
; 89   :     Py_ssize_t skip, count = 0;

  00015	45 33 db	 xor	 r11d, r11d

; 90   :     Py_ssize_t i, j, mlast, w;
; 91   : 
; 92   :     w = n - m;

  00018	4c 8b d2	 mov	 r10, rdx
  0001b	4d 2b d5	 sub	 r10, r13
  0001e	4d 8b f8	 mov	 r15, r8
  00021	48 8b d9	 mov	 rbx, rcx
  00024	45 8b cb	 mov	 r9d, r11d

; 93   : 
; 94   :     if (w < 0 || (mode == FAST_COUNT && maxcount == 0))

  00027	0f 88 1b 01 00
	00		 js	 $LN41@ucs1lib_fa@2
  0002d	44 8b b4 24 98
	00 00 00	 mov	 r14d, DWORD PTR mode$[rsp]
  00035	4c 8b a4 24 90
	00 00 00	 mov	 r12, QWORD PTR maxcount$[rsp]
  0003d	45 85 f6	 test	 r14d, r14d
  00040	75 09		 jne	 SHORT $LN61@ucs1lib_fa@2
  00042	4d 85 e4	 test	 r12, r12
  00045	0f 84 fd 00 00
	00		 je	 $LN41@ucs1lib_fa@2
$LN61@ucs1lib_fa@2:

; 95   :         return -1;
; 96   : 
; 97   :     /* look for special cases */
; 98   :     if (m <= 1) {

  0004b	49 83 fd 01	 cmp	 r13, 1
  0004f	0f 8f 05 01 00
	00		 jg	 $LN59@ucs1lib_fa@2

; 99   :         if (m <= 0)

  00055	4d 85 ed	 test	 r13, r13

; 100  :             return -1;

  00058	0f 8e ea 00 00
	00		 jle	 $LN41@ucs1lib_fa@2

; 101  :         /* use special case for 1-character strings */
; 102  :         if (n > 10 && (mode == FAST_SEARCH
; 103  : #ifdef HAVE_MEMRCHR
; 104  :                     || mode == FAST_RSEARCH
; 105  : #endif
; 106  :                     )) {

  0005e	48 83 fa 0a	 cmp	 rdx, 10
  00062	7e 3a		 jle	 SHORT $LN57@ucs1lib_fa@2
  00064	41 83 fe 01	 cmp	 r14d, 1
  00068	75 34		 jne	 SHORT $LN57@ucs1lib_fa@2

; 107  :             /* use memchr if we can choose a needle without two many likely
; 108  :                false positives */
; 109  :             unsigned char needle;
; 110  :             needle = p[0] & 0xff;
; 111  : #if STRINGLIB_SIZEOF_CHAR > 1
; 112  :             /* If looking for a multiple of 256, we'd have too
; 113  :                many false positives looking for the '\0' byte in UCS2
; 114  :                and UCS4 representations. */
; 115  :             if (needle != 0)
; 116  : #endif
; 117  :                 return STRINGLIB(fastsearch_memchr_1char)
; 118  :                        (s, n, p[0], needle, maxcount, mode);

  0006a	4c 8d 04 11	 lea	 r8, QWORD PTR [rcx+rdx]
  0006e	49 3b c8	 cmp	 rcx, r8
  00071	0f 83 d1 00 00
	00		 jae	 $LN41@ucs1lib_fa@2
  00077	41 0f b6 17	 movzx	 edx, BYTE PTR [r15]
  0007b	4c 2b c1	 sub	 r8, rcx
  0007e	ff 15 00 00 00
	00		 call	 QWORD PTR __imp_memchr
  00084	48 85 c0	 test	 rax, rax
  00087	0f 84 bb 00 00
	00		 je	 $LN41@ucs1lib_fa@2
  0008d	48 2b c3	 sub	 rax, rbx

; 223  : }

  00090	48 83 c4 40	 add	 rsp, 64			; 00000040H
  00094	41 5f		 pop	 r15
  00096	41 5e		 pop	 r14
  00098	41 5d		 pop	 r13
  0009a	41 5c		 pop	 r12
  0009c	5b		 pop	 rbx
  0009d	c3		 ret	 0
$LN57@ucs1lib_fa@2:

; 119  :         }
; 120  :         if (mode == FAST_COUNT) {

  0009e	45 85 f6	 test	 r14d, r14d
  000a1	75 45		 jne	 SHORT $LN56@ucs1lib_fa@2

; 121  :             for (i = 0; i < n; i++)

  000a3	48 85 d2	 test	 rdx, rdx
  000a6	7e 1e		 jle	 SHORT $LN99@ucs1lib_fa@2
  000a8	41 0f b6 00	 movzx	 eax, BYTE PTR [r8]
  000ac	0f 1f 40 00	 npad	 4
$LL55@ucs1lib_fa@2:

; 122  :                 if (s[i] == p[0]) {

  000b0	41 38 04 0b	 cmp	 BYTE PTR [r11+rcx], al
  000b4	75 08		 jne	 SHORT $LN54@ucs1lib_fa@2

; 123  :                     count++;

  000b6	49 ff c1	 inc	 r9

; 124  :                     if (count == maxcount)

  000b9	4d 3b cc	 cmp	 r9, r12
  000bc	74 19		 je	 SHORT $LN81@ucs1lib_fa@2
$LN54@ucs1lib_fa@2:

; 121  :             for (i = 0; i < n; i++)

  000be	49 ff c3	 inc	 r11
  000c1	4c 3b da	 cmp	 r11, rdx
  000c4	7c ea		 jl	 SHORT $LL55@ucs1lib_fa@2
$LN99@ucs1lib_fa@2:

; 126  :                 }
; 127  :             return count;

  000c6	49 8b c1	 mov	 rax, r9

; 223  : }

  000c9	48 83 c4 40	 add	 rsp, 64			; 00000040H
  000cd	41 5f		 pop	 r15
  000cf	41 5e		 pop	 r14
  000d1	41 5d		 pop	 r13
  000d3	41 5c		 pop	 r12
  000d5	5b		 pop	 rbx
  000d6	c3		 ret	 0
$LN81@ucs1lib_fa@2:

; 125  :                         return maxcount;

  000d7	49 8b c4	 mov	 rax, r12

; 223  : }

  000da	48 83 c4 40	 add	 rsp, 64			; 00000040H
  000de	41 5f		 pop	 r15
  000e0	41 5e		 pop	 r14
  000e2	41 5d		 pop	 r13
  000e4	41 5c		 pop	 r12
  000e6	5b		 pop	 rbx
  000e7	c3		 ret	 0
$LN56@ucs1lib_fa@2:

; 128  :         } else if (mode == FAST_SEARCH) {

  000e8	41 83 fe 01	 cmp	 r14d, 1
  000ec	75 3a		 jne	 SHORT $LN49@ucs1lib_fa@2

; 129  :             for (i = 0; i < n; i++)

  000ee	48 85 d2	 test	 rdx, rdx
  000f1	7e 55		 jle	 SHORT $LN41@ucs1lib_fa@2
  000f3	41 0f b6 00	 movzx	 eax, BYTE PTR [r8]
$LL48@ucs1lib_fa@2:

; 130  :                 if (s[i] == p[0])

  000f7	41 38 04 0b	 cmp	 BYTE PTR [r11+rcx], al
  000fb	74 1a		 je	 SHORT $LN82@ucs1lib_fa@2

; 129  :             for (i = 0; i < n; i++)

  000fd	49 ff c3	 inc	 r11
  00100	4c 3b da	 cmp	 r11, rdx
  00103	7c f2		 jl	 SHORT $LL48@ucs1lib_fa@2

; 135  :                     return i;
; 136  :         }
; 137  :         return -1;

  00105	48 83 c8 ff	 or	 rax, -1

; 223  : }

  00109	48 83 c4 40	 add	 rsp, 64			; 00000040H
  0010d	41 5f		 pop	 r15
  0010f	41 5e		 pop	 r14
  00111	41 5d		 pop	 r13
  00113	41 5c		 pop	 r12
  00115	5b		 pop	 rbx
  00116	c3		 ret	 0
$LN82@ucs1lib_fa@2:

; 131  :                     return i;

  00117	49 8b c3	 mov	 rax, r11

; 223  : }

  0011a	48 83 c4 40	 add	 rsp, 64			; 00000040H
  0011e	41 5f		 pop	 r15
  00120	41 5e		 pop	 r14
  00122	41 5d		 pop	 r13
  00124	41 5c		 pop	 r12
  00126	5b		 pop	 rbx
  00127	c3		 ret	 0
$LN49@ucs1lib_fa@2:

; 132  :         } else {    /* FAST_RSEARCH */
; 133  :             for (i = n - 1; i > -1; i--)

  00128	48 8d 42 ff	 lea	 rax, QWORD PTR [rdx-1]
  0012c	48 83 f8 ff	 cmp	 rax, -1
  00130	7e 16		 jle	 SHORT $LN41@ucs1lib_fa@2
  00132	41 0f b6 08	 movzx	 ecx, BYTE PTR [r8]
$LL43@ucs1lib_fa@2:

; 134  :                 if (s[i] == p[0])

  00136	38 0c 18	 cmp	 BYTE PTR [rax+rbx], cl
  00139	0f 84 92 02 00
	00		 je	 $LN62@ucs1lib_fa@2

; 132  :         } else {    /* FAST_RSEARCH */
; 133  :             for (i = n - 1; i > -1; i--)

  0013f	48 ff c8	 dec	 rax
  00142	48 83 f8 ff	 cmp	 rax, -1
  00146	7f ee		 jg	 SHORT $LL43@ucs1lib_fa@2
$LN41@ucs1lib_fa@2:

; 135  :                     return i;
; 136  :         }
; 137  :         return -1;

  00148	48 83 c8 ff	 or	 rax, -1

; 223  : }

  0014c	48 83 c4 40	 add	 rsp, 64			; 00000040H
  00150	41 5f		 pop	 r15
  00152	41 5e		 pop	 r14
  00154	41 5d		 pop	 r13
  00156	41 5c		 pop	 r12
  00158	5b		 pop	 rbx
  00159	c3		 ret	 0
$LN59@ucs1lib_fa@2:
  0015a	48 89 6c 24 70	 mov	 QWORD PTR [rsp+112], rbp
  0015f	48 89 74 24 38	 mov	 QWORD PTR [rsp+56], rsi

; 138  :     }
; 139  : 
; 140  :     mlast = m - 1;
; 141  :     skip = mlast - 1;
; 142  :     mask = 0;
; 143  : 
; 144  :     if (mode != FAST_RSEARCH) {

  00164	48 83 cd ff	 or	 rbp, -1
  00168	48 89 7c 24 30	 mov	 QWORD PTR [rsp+48], rdi
  0016d	49 8d 7d ff	 lea	 rdi, QWORD PTR [r13-1]
  00171	45 8b c3	 mov	 r8d, r11d
  00174	48 8d 47 ff	 lea	 rax, QWORD PTR [rdi-1]

; 145  : 
; 146  :         /* create compressed boyer-moore delta 1 table */
; 147  : 
; 148  :         /* process pattern[:-1] */
; 149  :         for (i = 0; i < mlast; i++) {

  00178	8d 75 02	 lea	 esi, QWORD PTR [rbp+2]
  0017b	48 89 84 24 88
	00 00 00	 mov	 QWORD PTR skip$1$[rsp], rax
  00183	41 83 fe 02	 cmp	 r14d, 2
  00187	0f 84 5b 01 00
	00		 je	 $LN39@ucs1lib_fa@2
  0018d	48 85 ff	 test	 rdi, rdi
  00190	7e 75		 jle	 SHORT $LN36@ucs1lib_fa@2
  00192	46 0f b6 3c 3f	 movzx	 r15d, BYTE PTR [rdi+r15]
  00197	48 8b ac 24 80
	00 00 00	 mov	 rbp, QWORD PTR p$[rsp]
  0019f	4c 8d 4f ff	 lea	 r9, QWORD PTR [rdi-1]
  001a3	4c 8b f7	 mov	 r14, rdi
  001a6	4d 8b e1	 mov	 r12, r9
  001a9	41 8b fb	 mov	 edi, r11d
  001ac	0f 1f 40 00	 npad	 4
$LL38@ucs1lib_fa@2:

; 150  :             STRINGLIB_BLOOM_ADD(mask, p[i]);

  001b0	44 0f b6 45 00	 movzx	 r8d, BYTE PTR [rbp]
  001b5	8b d6		 mov	 edx, esi
  001b7	41 8b c8	 mov	 ecx, r8d
  001ba	83 e1 1f	 and	 ecx, 31
  001bd	d3 e2		 shl	 edx, cl
  001bf	0b fa		 or	 edi, edx

; 151  :             if (p[i] == p[mlast])

  001c1	45 3a c7	 cmp	 r8b, r15b
  001c4	4d 0f 44 cc	 cmove	 r9, r12
  001c8	48 ff c5	 inc	 rbp
  001cb	49 ff cc	 dec	 r12
  001ce	49 ff ce	 dec	 r14
  001d1	75 dd		 jne	 SHORT $LL38@ucs1lib_fa@2
  001d3	4c 8b a4 24 90
	00 00 00	 mov	 r12, QWORD PTR maxcount$[rsp]
  001db	44 8b b4 24 98
	00 00 00	 mov	 r14d, DWORD PTR mode$[rsp]
  001e3	4c 8b bc 24 80
	00 00 00	 mov	 r15, QWORD PTR p$[rsp]
  001eb	89 7c 24 78	 mov	 DWORD PTR mask$1$[rsp], edi
  001ef	4c 89 8c 24 88
	00 00 00	 mov	 QWORD PTR skip$1$[rsp], r9
  001f7	48 83 cd ff	 or	 rbp, -1
  001fb	44 8b 44 24 78	 mov	 r8d, DWORD PTR mask$1$[rsp]
  00200	4d 8b cb	 mov	 r9, r11
  00203	49 8d 7d ff	 lea	 rdi, QWORD PTR [r13-1]
$LN36@ucs1lib_fa@2:

; 152  :                 skip = mlast - i - 1;
; 153  :         }
; 154  :         /* process pattern[-1] outside the loop */
; 155  :         STRINGLIB_BLOOM_ADD(mask, p[mlast]);

  00207	42 0f b6 04 3f	 movzx	 eax, BYTE PTR [rdi+r15]

; 156  : 
; 157  :         for (i = 0; i <= w; i++) {

  0020c	49 8b d3	 mov	 rdx, r11
  0020f	83 e0 1f	 and	 eax, 31
  00212	0f b6 c8	 movzx	 ecx, al
  00215	d3 e6		 shl	 esi, cl
  00217	44 0b c6	 or	 r8d, esi
  0021a	44 89 44 24 78	 mov	 DWORD PTR mask$1$[rsp], r8d
  0021f	4d 85 d2	 test	 r10, r10
  00222	0f 88 9f 00 00
	00		 js	 $LN100@ucs1lib_fa@2
  00228	48 8b b4 24 80
	00 00 00	 mov	 rsi, QWORD PTR p$[rsp]
  00230	4e 8d 3c 2b	 lea	 r15, QWORD PTR [rbx+r13]
$LN108@ucs1lib_fa@2:
  00234	42 0f b6 44 2e
	ff		 movzx	 eax, BYTE PTR [rsi+r13-1]

; 158  :             /* note: using mlast in the skip path slows things down on x86 */
; 159  :             if (s[i+m-1] == p[m-1]) {

  0023a	41 38 44 17 ff	 cmp	 BYTE PTR [r15+rdx-1], al
  0023f	75 69		 jne	 SHORT $LN31@ucs1lib_fa@2

; 160  :                 /* candidate match */
; 161  :                 for (j = 0; j < mlast; j++)

  00241	4d 8b c3	 mov	 r8, r11
  00244	48 85 ff	 test	 rdi, rdi
  00247	7e 28		 jle	 SHORT $LN84@ucs1lib_fa@2
  00249	48 8b c2	 mov	 rax, rdx
  0024c	48 8b ce	 mov	 rcx, rsi
  0024f	48 2b c6	 sub	 rax, rsi
  00252	48 8d 34 18	 lea	 rsi, QWORD PTR [rax+rbx]
$LL30@ucs1lib_fa@2:

; 162  :                     if (s[i+j] != p[j])

  00256	0f b6 01	 movzx	 eax, BYTE PTR [rcx]
  00259	38 04 0e	 cmp	 BYTE PTR [rsi+rcx], al
  0025c	75 0b		 jne	 SHORT $LN102@ucs1lib_fa@2

; 160  :                 /* candidate match */
; 161  :                 for (j = 0; j < mlast; j++)

  0025e	49 ff c0	 inc	 r8
  00261	48 ff c1	 inc	 rcx
  00264	4c 3b c7	 cmp	 r8, rdi
  00267	7c ed		 jl	 SHORT $LL30@ucs1lib_fa@2
$LN102@ucs1lib_fa@2:
  00269	48 8b b4 24 80
	00 00 00	 mov	 rsi, QWORD PTR p$[rsp]
$LN84@ucs1lib_fa@2:

; 163  :                         break;
; 164  :                 if (j == mlast) {

  00271	4c 3b c7	 cmp	 r8, rdi
  00274	75 17		 jne	 SHORT $LN26@ucs1lib_fa@2

; 165  :                     /* got a match! */
; 166  :                     if (mode != FAST_COUNT)

  00276	45 85 f6	 test	 r14d, r14d
  00279	75 65		 jne	 SHORT $LN85@ucs1lib_fa@2

; 168  :                     count++;

  0027b	49 ff c1	 inc	 r9

; 169  :                     if (count == maxcount)

  0027e	4d 3b cc	 cmp	 r9, r12
  00281	74 55		 je	 SHORT $LN86@ucs1lib_fa@2

; 171  :                     i = i + mlast;
; 172  :                     continue;

  00283	44 8b 44 24 78	 mov	 r8d, DWORD PTR mask$1$[rsp]
  00288	48 03 d7	 add	 rdx, rdi
  0028b	eb 2e		 jmp	 SHORT $LN33@ucs1lib_fa@2
$LN26@ucs1lib_fa@2:

; 173  :                 }
; 174  :                 /* miss: check if next character is part of pattern */
; 175  :                 if (!STRINGLIB_BLOOM(mask, s[i+m]))

  0028d	41 0f b6 04 17	 movzx	 eax, BYTE PTR [r15+rdx]
  00292	44 8b 44 24 78	 mov	 r8d, DWORD PTR mask$1$[rsp]
  00297	83 e0 1f	 and	 eax, 31
  0029a	41 0f a3 c0	 bt	 r8d, eax

; 176  :                     i = i + m;
; 177  :                 else

  0029e	73 18		 jae	 SHORT $LN107@ucs1lib_fa@2

; 178  :                     i = i + skip;

  002a0	48 03 94 24 88
	00 00 00	 add	 rdx, QWORD PTR skip$1$[rsp]

; 179  :             } else {

  002a8	eb 11		 jmp	 SHORT $LN33@ucs1lib_fa@2
$LN31@ucs1lib_fa@2:

; 180  :                 /* skip: check if next character is part of pattern */
; 181  :                 if (!STRINGLIB_BLOOM(mask, s[i+m]))

  002aa	41 0f b6 04 17	 movzx	 eax, BYTE PTR [r15+rdx]
  002af	83 e0 1f	 and	 eax, 31
  002b2	41 0f a3 c0	 bt	 r8d, eax
  002b6	72 03		 jb	 SHORT $LN33@ucs1lib_fa@2
$LN107@ucs1lib_fa@2:

; 182  :                     i = i + m;

  002b8	49 03 d5	 add	 rdx, r13
$LN33@ucs1lib_fa@2:

; 156  : 
; 157  :         for (i = 0; i <= w; i++) {

  002bb	48 ff c2	 inc	 rdx
  002be	49 3b d2	 cmp	 rdx, r10
  002c1	0f 8e 6d ff ff
	ff		 jle	 $LN108@ucs1lib_fa@2
$LN100@ucs1lib_fa@2:

; 216  :             }
; 217  :         }
; 218  :     }
; 219  : 
; 220  :     if (mode != FAST_COUNT)

  002c7	45 85 f6	 test	 r14d, r14d
  002ca	0f 85 ef 00 00
	00		 jne	 $LN101@ucs1lib_fa@2

; 222  :     return count;

  002d0	49 8b c1	 mov	 rax, r9
  002d3	e9 ea 00 00 00	 jmp	 $LN106@ucs1lib_fa@2
$LN86@ucs1lib_fa@2:

; 170  :                         return maxcount;

  002d8	49 8b c4	 mov	 rax, r12
  002db	e9 e2 00 00 00	 jmp	 $LN106@ucs1lib_fa@2
$LN85@ucs1lib_fa@2:

; 167  :                         return i;

  002e0	48 8b c2	 mov	 rax, rdx
  002e3	e9 da 00 00 00	 jmp	 $LN106@ucs1lib_fa@2
$LN39@ucs1lib_fa@2:

; 183  :             }
; 184  :         }
; 185  :     } else {    /* FAST_RSEARCH */
; 186  : 
; 187  :         /* create compressed boyer-moore delta 1 table */
; 188  : 
; 189  :         /* process pattern[0] outside the loop */
; 190  :         STRINGLIB_BLOOM_ADD(mask, p[0]);

  002e8	45 0f b6 37	 movzx	 r14d, BYTE PTR [r15]
  002ec	44 8b e6	 mov	 r12d, esi
  002ef	41 8b ce	 mov	 ecx, r14d
  002f2	83 e1 1f	 and	 ecx, 31
  002f5	41 d3 e4	 shl	 r12d, cl

; 191  :         /* process pattern[:0:-1] */
; 192  :         for (i = mlast; i > 0; i--) {

  002f8	48 85 ff	 test	 rdi, rdi
  002fb	7e 41		 jle	 SHORT $LN16@ucs1lib_fa@2
  002fd	4e 8d 0c 3f	 lea	 r9, QWORD PTR [rdi+r15]
  00301	49 2b ef	 sub	 rbp, r15
  00304	4c 8b df	 mov	 r11, rdi
  00307	66 0f 1f 84 00
	00 00 00 00	 npad	 9
$LL18@ucs1lib_fa@2:

; 193  :             STRINGLIB_BLOOM_ADD(mask, p[i]);

  00310	45 0f b6 01	 movzx	 r8d, BYTE PTR [r9]
  00314	8b d6		 mov	 edx, esi
  00316	41 8b c8	 mov	 ecx, r8d
  00319	83 e1 1f	 and	 ecx, 31
  0031c	d3 e2		 shl	 edx, cl
  0031e	44 0b e2	 or	 r12d, edx

; 194  :             if (p[i] == p[0])

  00321	45 3a c6	 cmp	 r8b, r14b
  00324	75 0c		 jne	 SHORT $LN17@ucs1lib_fa@2

; 195  :                 skip = i - 1;

  00326	49 8d 04 29	 lea	 rax, QWORD PTR [r9+rbp]
  0032a	48 89 84 24 88
	00 00 00	 mov	 QWORD PTR skip$1$[rsp], rax
$LN17@ucs1lib_fa@2:

; 191  :         /* process pattern[:0:-1] */
; 192  :         for (i = mlast; i > 0; i--) {

  00332	49 ff c9	 dec	 r9
  00335	49 ff cb	 dec	 r11
  00338	75 d6		 jne	 SHORT $LL18@ucs1lib_fa@2
  0033a	48 83 cd ff	 or	 rbp, -1
$LN16@ucs1lib_fa@2:

; 196  :         }
; 197  : 
; 198  :         for (i = w; i >= 0; i--) {

  0033e	4d 8b c2	 mov	 r8, r10
  00341	4d 2b c7	 sub	 r8, r15
  00344	4c 03 c3	 add	 r8, rbx
$LL14@ucs1lib_fa@2:

; 199  :             if (s[i] == p[0]) {

  00347	45 38 34 1a	 cmp	 BYTE PTR [r10+rbx], r14b
  0034b	75 50		 jne	 SHORT $LN11@ucs1lib_fa@2

; 200  :                 /* candidate match */
; 201  :                 for (j = mlast; j > 0; j--)

  0034d	48 8b d7	 mov	 rdx, rdi
  00350	48 85 ff	 test	 rdi, rdi
  00353	7e 1f		 jle	 SHORT $LN103@ucs1lib_fa@2
  00355	4a 8d 0c 3f	 lea	 rcx, QWORD PTR [rdi+r15]
  00359	0f 1f 80 00 00
	00 00		 npad	 7
$LL10@ucs1lib_fa@2:

; 202  :                     if (s[i+j] != p[j])

  00360	0f b6 01	 movzx	 eax, BYTE PTR [rcx]
  00363	41 38 04 08	 cmp	 BYTE PTR [r8+rcx], al
  00367	75 0b		 jne	 SHORT $LN103@ucs1lib_fa@2

; 200  :                 /* candidate match */
; 201  :                 for (j = mlast; j > 0; j--)

  00369	48 ff ca	 dec	 rdx
  0036c	48 ff c9	 dec	 rcx
  0036f	48 85 d2	 test	 rdx, rdx
  00372	7f ec		 jg	 SHORT $LL10@ucs1lib_fa@2
$LN103@ucs1lib_fa@2:

; 203  :                         break;
; 204  :                 if (j == 0)

  00374	48 85 d2	 test	 rdx, rdx
  00377	74 66		 je	 SHORT $LN88@ucs1lib_fa@2

; 207  :                 /* miss: check if previous character is part of pattern */
; 208  :                 if (i > 0 && !STRINGLIB_BLOOM(mask, s[i-1]))

  00379	4d 85 d2	 test	 r10, r10
  0037c	7e 0f		 jle	 SHORT $LN5@ucs1lib_fa@2
  0037e	41 0f b6 44 1a
	ff		 movzx	 eax, BYTE PTR [r10+rbx-1]
  00384	83 e0 1f	 and	 eax, 31
  00387	41 0f a3 c4	 bt	 r12d, eax

; 209  :                     i = i - m;
; 210  :                 else

  0038b	73 24		 jae	 SHORT $LN109@ucs1lib_fa@2
$LN5@ucs1lib_fa@2:

; 211  :                     i = i - skip;

  0038d	48 8b 94 24 88
	00 00 00	 mov	 rdx, QWORD PTR skip$1$[rsp]
  00395	4c 2b d2	 sub	 r10, rdx
  00398	4c 2b c2	 sub	 r8, rdx

; 212  :             } else {

  0039b	eb 1a		 jmp	 SHORT $LN13@ucs1lib_fa@2
$LN11@ucs1lib_fa@2:

; 213  :                 /* skip: check if previous character is part of pattern */
; 214  :                 if (i > 0 && !STRINGLIB_BLOOM(mask, s[i-1]))

  0039d	4d 85 d2	 test	 r10, r10
  003a0	7e 15		 jle	 SHORT $LN13@ucs1lib_fa@2
  003a2	41 0f b6 44 1a
	ff		 movzx	 eax, BYTE PTR [r10+rbx-1]
  003a8	83 e0 1f	 and	 eax, 31
  003ab	41 0f a3 c4	 bt	 r12d, eax
  003af	72 06		 jb	 SHORT $LN13@ucs1lib_fa@2
$LN109@ucs1lib_fa@2:

; 215  :                     i = i - m;

  003b1	4d 2b d5	 sub	 r10, r13
  003b4	4d 2b c5	 sub	 r8, r13
$LN13@ucs1lib_fa@2:

; 196  :         }
; 197  : 
; 198  :         for (i = w; i >= 0; i--) {

  003b7	49 ff c8	 dec	 r8
  003ba	49 ff ca	 dec	 r10
  003bd	79 88		 jns	 SHORT $LL14@ucs1lib_fa@2
$LN101@ucs1lib_fa@2:

; 221  :         return -1;

  003bf	48 8b c5	 mov	 rax, rbp
$LN106@ucs1lib_fa@2:
  003c2	48 8b 74 24 38	 mov	 rsi, QWORD PTR [rsp+56]
  003c7	48 8b 6c 24 70	 mov	 rbp, QWORD PTR [rsp+112]
  003cc	48 8b 7c 24 30	 mov	 rdi, QWORD PTR [rsp+48]
$LN62@ucs1lib_fa@2:

; 223  : }

  003d1	48 83 c4 40	 add	 rsp, 64			; 00000040H
  003d5	41 5f		 pop	 r15
  003d7	41 5e		 pop	 r14
  003d9	41 5d		 pop	 r13
  003db	41 5c		 pop	 r12
  003dd	5b		 pop	 rbx
  003de	c3		 ret	 0
$LN88@ucs1lib_fa@2:

; 205  :                     /* got a match! */
; 206  :                     return i;

  003df	49 8b c2	 mov	 rax, r10
  003e2	eb de		 jmp	 SHORT $LN106@ucs1lib_fa@2
ucs1lib_fastsearch ENDP
_TEXT	ENDS
;	COMDAT pdata
; File c:\src\pyparallel\objects\stringlib\count.h
pdata	SEGMENT
$pdata$ucs1lib_count DD imagerel ucs1lib_count
	DD	imagerel ucs1lib_count+40
	DD	imagerel $unwind$ucs1lib_count
pdata	ENDS
;	COMDAT pdata
pdata	SEGMENT
$pdata$0$ucs1lib_count DD imagerel ucs1lib_count+40
	DD	imagerel ucs1lib_count+73
	DD	imagerel $chain$0$ucs1lib_count
pdata	ENDS
;	COMDAT pdata
pdata	SEGMENT
$pdata$1$ucs1lib_count DD imagerel ucs1lib_count+73
	DD	imagerel ucs1lib_count+78
	DD	imagerel $chain$1$ucs1lib_count
pdata	ENDS
;	COMDAT xdata
xdata	SEGMENT
$chain$1$ucs1lib_count DD 021H
	DD	imagerel ucs1lib_count
	DD	imagerel ucs1lib_count+40
	DD	imagerel $unwind$ucs1lib_count
xdata	ENDS
;	COMDAT xdata
xdata	SEGMENT
$chain$0$ucs1lib_count DD 020521H
	DD	063405H
	DD	imagerel ucs1lib_count
	DD	imagerel ucs1lib_count+40
	DD	imagerel $unwind$ucs1lib_count
xdata	ENDS
;	COMDAT xdata
xdata	SEGMENT
$unwind$ucs1lib_count DD 010401H
	DD	06204H
; Function compile flags: /Ogtpy
xdata	ENDS
;	COMDAT ucs1lib_count
_TEXT	SEGMENT
str$ = 64
str_len$ = 72
sub$ = 80
sub_len$ = 88
maxcount$ = 96
ucs1lib_count PROC					; COMDAT

; 11   : {

  00000	48 83 ec 38	 sub	 rsp, 56			; 00000038H

; 12   :     Py_ssize_t count;
; 13   : 
; 14   :     if (str_len < 0)

  00004	48 85 d2	 test	 rdx, rdx
  00007	79 07		 jns	 SHORT $LN3@ucs1lib_co

; 15   :         return 0; /* start > len(str) */

  00009	33 c0		 xor	 eax, eax

; 22   :         return 0; /* no match */
; 23   : 
; 24   :     return count;
; 25   : }

  0000b	48 83 c4 38	 add	 rsp, 56			; 00000038H
  0000f	c3		 ret	 0
$LN3@ucs1lib_co:

; 16   :     if (sub_len == 0)
; 17   :         return (str_len < maxcount) ? str_len + 1 : maxcount;

  00010	48 8b 44 24 60	 mov	 rax, QWORD PTR maxcount$[rsp]
  00015	4d 85 c9	 test	 r9, r9
  00018	75 0e		 jne	 SHORT $LN2@ucs1lib_co
  0001a	48 3b d0	 cmp	 rdx, rax
  0001d	7d 2a		 jge	 SHORT $LN1@ucs1lib_co
  0001f	48 8d 42 01	 lea	 rax, QWORD PTR [rdx+1]

; 22   :         return 0; /* no match */
; 23   : 
; 24   :     return count;
; 25   : }

  00023	48 83 c4 38	 add	 rsp, 56			; 00000038H
  00027	c3		 ret	 0
$LN2@ucs1lib_co:
  00028	48 89 5c 24 30	 mov	 QWORD PTR [rsp+48], rbx

; 18   : 
; 19   :     count = FASTSEARCH(str, str_len, sub, sub_len, maxcount, FAST_COUNT);

  0002d	33 db		 xor	 ebx, ebx
  0002f	89 5c 24 28	 mov	 DWORD PTR [rsp+40], ebx
  00033	48 89 44 24 20	 mov	 QWORD PTR [rsp+32], rax
  00038	e8 00 00 00 00	 call	 ucs1lib_fastsearch

; 20   : 
; 21   :     if (count < 0)

  0003d	48 85 c0	 test	 rax, rax
  00040	48 0f 48 c3	 cmovs	 rax, rbx
  00044	48 8b 5c 24 30	 mov	 rbx, QWORD PTR [rsp+48]
$LN1@ucs1lib_co:

; 22   :         return 0; /* no match */
; 23   : 
; 24   :     return count;
; 25   : }

  00049	48 83 c4 38	 add	 rsp, 56			; 00000038H
  0004d	c3		 ret	 0
ucs1lib_count ENDP
_TEXT	ENDS
;	COMDAT pdata
; File c:\src\pyparallel\objects\stringlib\fastsearch.h
pdata	SEGMENT
$pdata$ucs1lib_find DD imagerel ucs1lib_find
	DD	imagerel ucs1lib_find+58
	DD	imagerel $unwind$ucs1lib_find
pdata	ENDS
;	COMDAT pdata
pdata	SEGMENT
$pdata$4$ucs1lib_find DD imagerel ucs1lib_find+58
	DD	imagerel ucs1lib_find+235
	DD	imagerel $chain$4$ucs1lib_find
pdata	ENDS
;	COMDAT pdata
pdata	SEGMENT
$pdata$6$ucs1lib_find DD imagerel ucs1lib_find+235
	DD	imagerel ucs1lib_find+513
	DD	imagerel $chain$6$ucs1lib_find
pdata	ENDS
;	COMDAT xdata
xdata	SEGMENT
$chain$6$ucs1lib_find DD 0a0021H
	DD	06f400H
	DD	07d400H
	DD	0fc400H
	DD	0e6400H
	DD	0c5400H
	DD	imagerel ucs1lib_find
	DD	imagerel ucs1lib_find+58
	DD	imagerel $unwind$ucs1lib_find
xdata	ENDS
;	COMDAT xdata
xdata	SEGMENT
$chain$4$ucs1lib_find DD 0a1c21H
	DD	06f41cH
	DD	07d417H
	DD	0fc40fH
	DD	0e640aH
	DD	0c5405H
	DD	imagerel ucs1lib_find
	DD	imagerel ucs1lib_find+58
	DD	imagerel $unwind$ucs1lib_find
xdata	ENDS
;	COMDAT xdata
xdata	SEGMENT
$unwind$ucs1lib_find DD 040901H
	DD	0e0057209H
	DD	030027003H
; Function compile flags: /Ogtpy
; File c:\src\pyparallel\objects\stringlib\find.h
xdata	ENDS
;	COMDAT ucs1lib_find
_TEXT	SEGMENT
w$1$ = 32
str$ = 96
skip$1$ = 104
str_len$ = 104
sub$ = 112
sub_len$ = 120
offset$ = 128
ucs1lib_find PROC					; COMDAT

; 11   : {

  00000	40 53		 push	 rbx
  00002	57		 push	 rdi
  00003	41 56		 push	 r14
  00005	48 83 ec 40	 sub	 rsp, 64			; 00000040H
  00009	49 8b d9	 mov	 rbx, r9
  0000c	4d 8b f0	 mov	 r14, r8
  0000f	48 8b f9	 mov	 rdi, rcx

; 12   :     Py_ssize_t pos;
; 13   : 
; 14   :     if (str_len < 0)

  00012	48 85 d2	 test	 rdx, rdx
  00015	79 0d		 jns	 SHORT $LN3@ucs1lib_fi

; 15   :         return -1;

  00017	48 83 c8 ff	 or	 rax, -1

; 25   : }

  0001b	48 83 c4 40	 add	 rsp, 64			; 00000040H
  0001f	41 5e		 pop	 r14
  00021	5f		 pop	 rdi
  00022	5b		 pop	 rbx
  00023	c3		 ret	 0
$LN3@ucs1lib_fi:

; 16   :     if (sub_len == 0)

  00024	48 85 db	 test	 rbx, rbx
  00027	75 11		 jne	 SHORT $LN2@ucs1lib_fi

; 17   :         return offset;

  00029	48 8b 84 24 80
	00 00 00	 mov	 rax, QWORD PTR offset$[rsp]

; 25   : }

  00031	48 83 c4 40	 add	 rsp, 64			; 00000040H
  00035	41 5e		 pop	 r14
  00037	5f		 pop	 rdi
  00038	5b		 pop	 rbx
  00039	c3		 ret	 0
$LN2@ucs1lib_fi:
  0003a	48 89 6c 24 60	 mov	 QWORD PTR [rsp+96], rbp
  0003f	48 89 74 24 70	 mov	 QWORD PTR [rsp+112], rsi
  00044	4c 89 64 24 78	 mov	 QWORD PTR [rsp+120], r12

; 18   : 
; 19   :     pos = FASTSEARCH(str, str_len, sub, sub_len, -1, FAST_SEARCH);

  00049	48 8b ea	 mov	 rbp, rdx
  0004c	4c 89 6c 24 38	 mov	 QWORD PTR [rsp+56], r13
  00051	4c 89 7c 24 30	 mov	 QWORD PTR [rsp+48], r15
  00056	48 2b eb	 sub	 rbp, rbx
  00059	48 89 6c 24 20	 mov	 QWORD PTR w$1$[rsp], rbp
  0005e	78 62		 js	 SHORT $LN65@ucs1lib_fi
  00060	48 83 fb 01	 cmp	 rbx, 1
  00064	0f 8f 81 00 00
	00		 jg	 $LN64@ucs1lib_fi
  0006a	48 85 db	 test	 rbx, rbx
  0006d	7e 53		 jle	 SHORT $LN65@ucs1lib_fi
  0006f	48 83 fa 0a	 cmp	 rdx, 10
  00073	7e 2f		 jle	 SHORT $LN62@ucs1lib_fi
  00075	4c 8d 04 11	 lea	 r8, QWORD PTR [rcx+rdx]
  00079	49 3b c8	 cmp	 rcx, r8
  0007c	73 15		 jae	 SHORT $LN72@ucs1lib_fi
  0007e	41 0f b6 16	 movzx	 edx, BYTE PTR [r14]
  00082	4c 2b c1	 sub	 r8, rcx
  00085	ff 15 00 00 00
	00		 call	 QWORD PTR __imp_memchr
  0008b	4c 8b c8	 mov	 r9, rax
  0008e	48 85 c0	 test	 rax, rax
  00091	75 09		 jne	 SHORT $LN71@ucs1lib_fi
$LN72@ucs1lib_fi:
  00093	49 83 c9 ff	 or	 r9, -1
  00097	e9 4f 01 00 00	 jmp	 $LN67@ucs1lib_fi
$LN71@ucs1lib_fi:
  0009c	4c 2b cf	 sub	 r9, rdi
  0009f	e9 47 01 00 00	 jmp	 $LN67@ucs1lib_fi
$LN62@ucs1lib_fi:
  000a4	45 33 c9	 xor	 r9d, r9d
  000a7	48 85 d2	 test	 rdx, rdx
  000aa	7e 16		 jle	 SHORT $LN65@ucs1lib_fi
  000ac	41 0f b6 00	 movzx	 eax, BYTE PTR [r8]
$LL53@ucs1lib_fi:
  000b0	41 38 04 09	 cmp	 BYTE PTR [r9+rcx], al
  000b4	0f 84 31 01 00
	00		 je	 $LN67@ucs1lib_fi
  000ba	49 ff c1	 inc	 r9
  000bd	4c 3b ca	 cmp	 r9, rdx
  000c0	7c ee		 jl	 SHORT $LL53@ucs1lib_fi
$LN65@ucs1lib_fi:
  000c2	49 83 c9 ff	 or	 r9, -1
$LN1@ucs1lib_fi:
  000c6	4c 8b 7c 24 30	 mov	 r15, QWORD PTR [rsp+48]
  000cb	4c 8b 6c 24 38	 mov	 r13, QWORD PTR [rsp+56]
  000d0	4c 8b 64 24 78	 mov	 r12, QWORD PTR [rsp+120]
  000d5	48 8b 74 24 70	 mov	 rsi, QWORD PTR [rsp+112]
  000da	48 8b 6c 24 60	 mov	 rbp, QWORD PTR [rsp+96]

; 23   : 
; 24   :     return pos;

  000df	49 8b c1	 mov	 rax, r9

; 25   : }

  000e2	48 83 c4 40	 add	 rsp, 64			; 00000040H
  000e6	41 5e		 pop	 r14
  000e8	5f		 pop	 rdi
  000e9	5b		 pop	 rbx
  000ea	c3		 ret	 0

; 18   : 
; 19   :     pos = FASTSEARCH(str, str_len, sub, sub_len, -1, FAST_SEARCH);

$LN64@ucs1lib_fi:
  000eb	4d 8d 51 ff	 lea	 r10, QWORD PTR [r9-1]
  000ef	45 33 c9	 xor	 r9d, r9d
  000f2	4d 8d 62 ff	 lea	 r12, QWORD PTR [r10-1]
  000f6	45 8b f9	 mov	 r15d, r9d
  000f9	45 8d 59 01	 lea	 r11d, QWORD PTR [r9+1]
  000fd	4d 85 d2	 test	 r10, r10
  00100	7e 55		 jle	 SHORT $LN41@ucs1lib_fi
  00102	47 0f b6 2c 02	 movzx	 r13d, BYTE PTR [r10+r8]
  00107	49 8b ec	 mov	 rbp, r12
  0010a	4d 8b e2	 mov	 r12, r10
  0010d	4c 8b d5	 mov	 r10, rbp
  00110	49 8b f0	 mov	 rsi, r8
  00113	66 66 66 66 66
	0f 1f 84 00 00
	00 00 00	 npad	 13
$LL43@ucs1lib_fi:
  00120	44 0f b6 06	 movzx	 r8d, BYTE PTR [rsi]
  00124	41 8b d3	 mov	 edx, r11d
  00127	41 8b c8	 mov	 ecx, r8d
  0012a	83 e1 1f	 and	 ecx, 31
  0012d	d3 e2		 shl	 edx, cl
  0012f	44 0b fa	 or	 r15d, edx
  00132	45 3a c5	 cmp	 r8b, r13b
  00135	4c 0f 44 d5	 cmove	 r10, rbp
  00139	48 ff c6	 inc	 rsi
  0013c	48 ff cd	 dec	 rbp
  0013f	49 ff cc	 dec	 r12
  00142	75 dc		 jne	 SHORT $LL43@ucs1lib_fi
  00144	48 8b 6c 24 20	 mov	 rbp, QWORD PTR w$1$[rsp]
  00149	4c 89 54 24 68	 mov	 QWORD PTR skip$1$[rsp], r10
  0014e	4c 8d 53 ff	 lea	 r10, QWORD PTR [rbx-1]
  00152	4c 8b 64 24 68	 mov	 r12, QWORD PTR skip$1$[rsp]
$LN41@ucs1lib_fi:
  00157	43 0f b6 0c 32	 movzx	 ecx, BYTE PTR [r10+r14]
  0015c	49 8b d1	 mov	 rdx, r9
  0015f	83 e1 1f	 and	 ecx, 31
  00162	41 d3 e3	 shl	 r11d, cl
  00165	45 0b fb	 or	 r15d, r11d
  00168	48 85 ed	 test	 rbp, rbp
  0016b	0f 88 51 ff ff
	ff		 js	 $LN65@ucs1lib_fi
  00171	45 0f b6 6c 1e
	ff		 movzx	 r13d, BYTE PTR [r14+rbx-1]
  00177	48 8d 34 1f	 lea	 rsi, QWORD PTR [rdi+rbx]
  0017b	0f 1f 44 00 00	 npad	 5
$LL39@ucs1lib_fi:
  00180	44 38 6c 16 ff	 cmp	 BYTE PTR [rsi+rdx-1], r13b
  00185	75 44		 jne	 SHORT $LN36@ucs1lib_fi
  00187	4d 8b c1	 mov	 r8, r9
  0018a	4d 85 d2	 test	 r10, r10
  0018d	7e 25		 jle	 SHORT $LN89@ucs1lib_fi
  0018f	4c 8b da	 mov	 r11, rdx
  00192	49 8b ce	 mov	 rcx, r14
  00195	4d 2b de	 sub	 r11, r14
  00198	4c 03 df	 add	 r11, rdi
  0019b	0f 1f 44 00 00	 npad	 5
$LL35@ucs1lib_fi:
  001a0	0f b6 01	 movzx	 eax, BYTE PTR [rcx]
  001a3	41 38 04 0b	 cmp	 BYTE PTR [r11+rcx], al
  001a7	75 0b		 jne	 SHORT $LN89@ucs1lib_fi
  001a9	49 ff c0	 inc	 r8
  001ac	48 ff c1	 inc	 rcx
  001af	4d 3b c2	 cmp	 r8, r10
  001b2	7c ec		 jl	 SHORT $LL35@ucs1lib_fi
$LN89@ucs1lib_fi:
  001b4	4d 3b c2	 cmp	 r8, r10
  001b7	74 2f		 je	 SHORT $LN83@ucs1lib_fi
  001b9	0f b6 04 16	 movzx	 eax, BYTE PTR [rsi+rdx]
  001bd	83 e0 1f	 and	 eax, 31
  001c0	41 0f a3 c7	 bt	 r15d, eax
  001c4	73 12		 jae	 SHORT $LN90@ucs1lib_fi
  001c6	49 03 d4	 add	 rdx, r12
  001c9	eb 10		 jmp	 SHORT $LN38@ucs1lib_fi
$LN36@ucs1lib_fi:
  001cb	0f b6 04 16	 movzx	 eax, BYTE PTR [rsi+rdx]
  001cf	83 e0 1f	 and	 eax, 31
  001d2	41 0f a3 c7	 bt	 r15d, eax
  001d6	72 03		 jb	 SHORT $LN38@ucs1lib_fi
$LN90@ucs1lib_fi:
  001d8	48 03 d3	 add	 rdx, rbx
$LN38@ucs1lib_fi:
  001db	48 ff c2	 inc	 rdx
  001de	48 3b d5	 cmp	 rdx, rbp
  001e1	7e 9d		 jle	 SHORT $LL39@ucs1lib_fi
  001e3	e9 da fe ff ff	 jmp	 $LN65@ucs1lib_fi
$LN83@ucs1lib_fi:
  001e8	4c 8b ca	 mov	 r9, rdx
$LN67@ucs1lib_fi:

; 20   : 
; 21   :     if (pos >= 0)

  001eb	4d 85 c9	 test	 r9, r9
  001ee	0f 88 d2 fe ff
	ff		 js	 $LN1@ucs1lib_fi

; 22   :         pos += offset;

  001f4	4c 03 8c 24 80
	00 00 00	 add	 r9, QWORD PTR offset$[rsp]
  001fc	e9 c5 fe ff ff	 jmp	 $LN1@ucs1lib_fi
ucs1lib_find ENDP
_TEXT	ENDS
;	COMDAT pdata
; File c:\src\pyparallel\objects\stringlib\fastsearch.h
pdata	SEGMENT
$pdata$ucs1lib_rfind DD imagerel ucs1lib_rfind
	DD	imagerel ucs1lib_rfind+58
	DD	imagerel $unwind$ucs1lib_rfind
pdata	ENDS
;	COMDAT pdata
pdata	SEGMENT
$pdata$2$ucs1lib_rfind DD imagerel ucs1lib_rfind+58
	DD	imagerel ucs1lib_rfind+161
	DD	imagerel $chain$2$ucs1lib_rfind
pdata	ENDS
;	COMDAT pdata
pdata	SEGMENT
$pdata$4$ucs1lib_rfind DD imagerel ucs1lib_rfind+161
	DD	imagerel ucs1lib_rfind+198
	DD	imagerel $chain$4$ucs1lib_rfind
pdata	ENDS
;	COMDAT pdata
pdata	SEGMENT
$pdata$6$ucs1lib_rfind DD imagerel ucs1lib_rfind+198
	DD	imagerel ucs1lib_rfind+280
	DD	imagerel $chain$6$ucs1lib_rfind
pdata	ENDS
;	COMDAT pdata
pdata	SEGMENT
$pdata$7$ucs1lib_rfind DD imagerel ucs1lib_rfind+280
	DD	imagerel ucs1lib_rfind+425
	DD	imagerel $chain$7$ucs1lib_rfind
pdata	ENDS
;	COMDAT xdata
xdata	SEGMENT
$chain$7$ucs1lib_rfind DD 021H
	DD	imagerel ucs1lib_rfind+161
	DD	imagerel ucs1lib_rfind+198
	DD	imagerel $chain$4$ucs1lib_rfind
xdata	ENDS
;	COMDAT xdata
xdata	SEGMENT
$chain$6$ucs1lib_rfind DD 040d21H
	DD	07740dH
	DD	066405H
	DD	imagerel ucs1lib_rfind+161
	DD	imagerel ucs1lib_rfind+198
	DD	imagerel $chain$4$ucs1lib_rfind
xdata	ENDS
;	COMDAT xdata
xdata	SEGMENT
$chain$4$ucs1lib_rfind DD 060021H
	DD	0e400H
	DD	01d400H
	DD	08c400H
	DD	imagerel ucs1lib_rfind
	DD	imagerel ucs1lib_rfind+58
	DD	imagerel $unwind$ucs1lib_rfind
xdata	ENDS
;	COMDAT xdata
xdata	SEGMENT
$chain$2$ucs1lib_rfind DD 061421H
	DD	0e414H
	DD	01d40dH
	DD	08c405H
	DD	imagerel ucs1lib_rfind
	DD	imagerel ucs1lib_rfind+58
	DD	imagerel $unwind$ucs1lib_rfind
xdata	ENDS
;	COMDAT xdata
xdata	SEGMENT
$unwind$ucs1lib_rfind DD 040901H
	DD	0f0051209H
	DD	030025003H
; Function compile flags: /Ogtpy
; File c:\src\pyparallel\objects\stringlib\find.h
xdata	ENDS
;	COMDAT ucs1lib_rfind
_TEXT	SEGMENT
str$ = 48
str_len$ = 56
sub$ = 64
sub_len$ = 72
offset$ = 80
ucs1lib_rfind PROC					; COMDAT

; 31   : {

  00000	40 53		 push	 rbx
  00002	55		 push	 rbp
  00003	41 57		 push	 r15
  00005	48 83 ec 10	 sub	 rsp, 16
  00009	49 8b d9	 mov	 rbx, r9
  0000c	4d 8b f8	 mov	 r15, r8
  0000f	48 8b e9	 mov	 rbp, rcx

; 32   :     Py_ssize_t pos;
; 33   : 
; 34   :     if (str_len < 0)

  00012	48 85 d2	 test	 rdx, rdx
  00015	79 0d		 jns	 SHORT $LN3@ucs1lib_rf

; 35   :         return -1;

  00017	48 83 c8 ff	 or	 rax, -1

; 45   : }

  0001b	48 83 c4 10	 add	 rsp, 16
  0001f	41 5f		 pop	 r15
  00021	5d		 pop	 rbp
  00022	5b		 pop	 rbx
  00023	c3		 ret	 0
$LN3@ucs1lib_rf:

; 36   :     if (sub_len == 0)

  00024	48 85 db	 test	 rbx, rbx
  00027	75 11		 jne	 SHORT $LN2@ucs1lib_rf

; 37   :         return str_len + offset;

  00029	48 8b 44 24 50	 mov	 rax, QWORD PTR offset$[rsp]
  0002e	48 03 c2	 add	 rax, rdx

; 45   : }

  00031	48 83 c4 10	 add	 rsp, 16
  00035	41 5f		 pop	 r15
  00037	5d		 pop	 rbp
  00038	5b		 pop	 rbx
  00039	c3		 ret	 0
$LN2@ucs1lib_rf:
  0003a	4c 89 64 24 40	 mov	 QWORD PTR [rsp+64], r12

; 38   : 
; 39   :     pos = FASTSEARCH(str, str_len, sub, sub_len, -1, FAST_RSEARCH);

  0003f	4c 8b ca	 mov	 r9, rdx
  00042	4c 89 6c 24 08	 mov	 QWORD PTR [rsp+8], r13
  00047	4c 2b cb	 sub	 r9, rbx
  0004a	4c 89 34 24	 mov	 QWORD PTR [rsp], r14
  0004e	78 33		 js	 SHORT $LN65@ucs1lib_rf
  00050	48 83 fb 01	 cmp	 rbx, 1
  00054	7f 4b		 jg	 SHORT $LN64@ucs1lib_rf
  00056	48 85 db	 test	 rbx, rbx
  00059	7e 28		 jle	 SHORT $LN65@ucs1lib_rf
  0005b	4c 8d 4a ff	 lea	 r9, QWORD PTR [rdx-1]
  0005f	49 83 f9 ff	 cmp	 r9, -1
  00063	7e 1e		 jle	 SHORT $LN65@ucs1lib_rf
  00065	41 0f b6 00	 movzx	 eax, BYTE PTR [r8]
  00069	0f 1f 80 00 00
	00 00		 npad	 7
$LL48@ucs1lib_rf:
  00070	41 38 04 09	 cmp	 BYTE PTR [r9+rcx], al
  00074	0f 84 15 01 00
	00		 je	 $LN83@ucs1lib_rf
  0007a	49 ff c9	 dec	 r9
  0007d	49 83 f9 ff	 cmp	 r9, -1
  00081	7f ed		 jg	 SHORT $LL48@ucs1lib_rf
$LN65@ucs1lib_rf:
  00083	49 83 ca ff	 or	 r10, -1
$LN1@ucs1lib_rf:
  00087	4c 8b 34 24	 mov	 r14, QWORD PTR [rsp]
  0008b	4c 8b 6c 24 08	 mov	 r13, QWORD PTR [rsp+8]
  00090	4c 8b 64 24 40	 mov	 r12, QWORD PTR [rsp+64]

; 43   : 
; 44   :     return pos;

  00095	49 8b c2	 mov	 rax, r10

; 45   : }

  00098	48 83 c4 10	 add	 rsp, 16
  0009c	41 5f		 pop	 r15
  0009e	5d		 pop	 rbp
  0009f	5b		 pop	 rbx
  000a0	c3		 ret	 0

; 38   : 
; 39   :     pos = FASTSEARCH(str, str_len, sub, sub_len, -1, FAST_RSEARCH);

$LN64@ucs1lib_rf:
  000a1	45 0f b6 18	 movzx	 r11d, BYTE PTR [r8]
  000a5	4c 8d 63 ff	 lea	 r12, QWORD PTR [rbx-1]
  000a9	41 be 01 00 00
	00		 mov	 r14d, 1
  000af	41 8b cb	 mov	 ecx, r11d
  000b2	49 83 ca ff	 or	 r10, -1
  000b6	4d 8d 6c 24 ff	 lea	 r13, QWORD PTR [r12-1]
  000bb	83 e1 1f	 and	 ecx, 31
  000be	41 d3 e6	 shl	 r14d, cl
  000c1	4d 85 e4	 test	 r12, r12
  000c4	7e 52		 jle	 SHORT $LN21@ucs1lib_rf
  000c6	48 89 74 24 30	 mov	 QWORD PTR [rsp+48], rsi
  000cb	49 8b f2	 mov	 rsi, r10
  000ce	48 89 7c 24 38	 mov	 QWORD PTR [rsp+56], rdi
  000d3	4f 8d 1c 04	 lea	 r11, QWORD PTR [r12+r8]
  000d7	49 8b fc	 mov	 rdi, r12
  000da	45 0f b6 20	 movzx	 r12d, BYTE PTR [r8]
  000de	49 2b f0	 sub	 rsi, r8
$LL23@ucs1lib_rf:
  000e1	45 0f b6 03	 movzx	 r8d, BYTE PTR [r11]
  000e5	ba 01 00 00 00	 mov	 edx, 1
  000ea	41 8b c8	 mov	 ecx, r8d
  000ed	83 e1 1f	 and	 ecx, 31
  000f0	d3 e2		 shl	 edx, cl
  000f2	44 0b f2	 or	 r14d, edx
  000f5	45 3a c4	 cmp	 r8b, r12b
  000f8	75 04		 jne	 SHORT $LN22@ucs1lib_rf
  000fa	4e 8d 2c 1e	 lea	 r13, QWORD PTR [rsi+r11]
$LN22@ucs1lib_rf:
  000fe	49 ff cb	 dec	 r11
  00101	48 ff cf	 dec	 rdi
  00104	75 db		 jne	 SHORT $LL23@ucs1lib_rf
  00106	45 0f b6 1f	 movzx	 r11d, BYTE PTR [r15]
  0010a	48 8b 7c 24 38	 mov	 rdi, QWORD PTR [rsp+56]
  0010f	48 8b 74 24 30	 mov	 rsi, QWORD PTR [rsp+48]
  00114	4c 8d 63 ff	 lea	 r12, QWORD PTR [rbx-1]
$LN21@ucs1lib_rf:
  00118	4d 8b c1	 mov	 r8, r9
  0011b	4d 2b c7	 sub	 r8, r15
  0011e	4c 03 c5	 add	 r8, rbp
$LL19@ucs1lib_rf:
  00121	45 38 1c 29	 cmp	 BYTE PTR [r9+rbp], r11b
  00125	75 41		 jne	 SHORT $LN16@ucs1lib_rf
  00127	49 8b d4	 mov	 rdx, r12
  0012a	4d 85 e4	 test	 r12, r12
  0012d	7e 18		 jle	 SHORT $LN89@ucs1lib_rf
  0012f	4b 8d 0c 3c	 lea	 rcx, QWORD PTR [r12+r15]
$LL15@ucs1lib_rf:
  00133	0f b6 01	 movzx	 eax, BYTE PTR [rcx]
  00136	41 38 04 08	 cmp	 BYTE PTR [r8+rcx], al
  0013a	75 0b		 jne	 SHORT $LN89@ucs1lib_rf
  0013c	48 ff ca	 dec	 rdx
  0013f	48 ff c9	 dec	 rcx
  00142	48 85 d2	 test	 rdx, rdx
  00145	7f ec		 jg	 SHORT $LL15@ucs1lib_rf
$LN89@ucs1lib_rf:
  00147	48 85 d2	 test	 rdx, rdx
  0014a	74 43		 je	 SHORT $LN83@ucs1lib_rf
  0014c	4d 85 c9	 test	 r9, r9
  0014f	7e 0f		 jle	 SHORT $LN10@ucs1lib_rf
  00151	41 0f b6 44 29
	ff		 movzx	 eax, BYTE PTR [r9+rbp-1]
  00157	83 e0 1f	 and	 eax, 31
  0015a	41 0f a3 c6	 bt	 r14d, eax
  0015e	73 1c		 jae	 SHORT $LN90@ucs1lib_rf
$LN10@ucs1lib_rf:
  00160	4d 2b cd	 sub	 r9, r13
  00163	4d 2b c5	 sub	 r8, r13
  00166	eb 1a		 jmp	 SHORT $LN18@ucs1lib_rf
$LN16@ucs1lib_rf:
  00168	4d 85 c9	 test	 r9, r9
  0016b	7e 15		 jle	 SHORT $LN18@ucs1lib_rf
  0016d	41 0f b6 44 29
	ff		 movzx	 eax, BYTE PTR [r9+rbp-1]
  00173	83 e0 1f	 and	 eax, 31
  00176	41 0f a3 c6	 bt	 r14d, eax
  0017a	72 06		 jb	 SHORT $LN18@ucs1lib_rf
$LN90@ucs1lib_rf:
  0017c	4c 2b cb	 sub	 r9, rbx
  0017f	4c 2b c3	 sub	 r8, rbx
$LN18@ucs1lib_rf:
  00182	49 ff c8	 dec	 r8
  00185	49 ff c9	 dec	 r9
  00188	79 97		 jns	 SHORT $LL19@ucs1lib_rf
  0018a	e9 f8 fe ff ff	 jmp	 $LN1@ucs1lib_rf
$LN83@ucs1lib_rf:
  0018f	4d 8b d1	 mov	 r10, r9

; 40   : 
; 41   :     if (pos >= 0)

  00192	4d 85 c9	 test	 r9, r9
  00195	0f 88 ec fe ff
	ff		 js	 $LN1@ucs1lib_rf

; 42   :         pos += offset;

  0019b	48 8b 44 24 50	 mov	 rax, QWORD PTR offset$[rsp]
  001a0	4d 8d 14 01	 lea	 r10, QWORD PTR [r9+rax]
  001a4	e9 de fe ff ff	 jmp	 $LN1@ucs1lib_rf
ucs1lib_rfind ENDP
_TEXT	ENDS
;	COMDAT pdata
pdata	SEGMENT
$pdata$ucs1lib_find_slice DD imagerel ucs1lib_find_slice
	DD	imagerel ucs1lib_find_slice+75
	DD	imagerel $unwind$ucs1lib_find_slice
pdata	ENDS
;	COMDAT xdata
xdata	SEGMENT
$unwind$ucs1lib_find_slice DD 010401H
	DD	06204H
; Function compile flags: /Ogtpy
xdata	ENDS
;	COMDAT ucs1lib_find_slice
_TEXT	SEGMENT
str$ = 64
str_len$ = 72
sub$ = 80
sub_len$ = 88
start$ = 96
end$ = 104
ucs1lib_find_slice PROC					; COMDAT

; 66   : {

  00000	48 83 ec 38	 sub	 rsp, 56			; 00000038H
  00004	4c 8b d2	 mov	 r10, rdx

; 67   :     ADJUST_INDICES(start, end, str_len);

  00007	48 8b 54 24 68	 mov	 rdx, QWORD PTR end$[rsp]
  0000c	45 33 db	 xor	 r11d, r11d
  0000f	49 3b d2	 cmp	 rdx, r10
  00012	7e 05		 jle	 SHORT $LN6@ucs1lib_fi@2
  00014	49 8b d2	 mov	 rdx, r10
  00017	eb 0c		 jmp	 SHORT $LN3@ucs1lib_fi@2
$LN6@ucs1lib_fi@2:
  00019	48 85 d2	 test	 rdx, rdx
  0001c	79 07		 jns	 SHORT $LN3@ucs1lib_fi@2
  0001e	49 03 d2	 add	 rdx, r10
  00021	49 0f 48 d3	 cmovs	 rdx, r11
$LN3@ucs1lib_fi@2:
  00025	48 8b 44 24 60	 mov	 rax, QWORD PTR start$[rsp]
  0002a	48 85 c0	 test	 rax, rax
  0002d	79 07		 jns	 SHORT $LN1@ucs1lib_fi@2
  0002f	49 03 c2	 add	 rax, r10
  00032	49 0f 48 c3	 cmovs	 rax, r11
$LN1@ucs1lib_fi@2:

; 68   :     return STRINGLIB(find)(str + start, end - start, sub, sub_len, start);

  00036	48 2b d0	 sub	 rdx, rax
  00039	48 03 c8	 add	 rcx, rax
  0003c	48 89 44 24 20	 mov	 QWORD PTR [rsp+32], rax
  00041	e8 00 00 00 00	 call	 ucs1lib_find

; 69   : }

  00046	48 83 c4 38	 add	 rsp, 56			; 00000038H
  0004a	c3		 ret	 0
ucs1lib_find_slice ENDP
_TEXT	ENDS
;	COMDAT pdata
pdata	SEGMENT
$pdata$ucs1lib_rfind_slice DD imagerel ucs1lib_rfind_slice
	DD	imagerel ucs1lib_rfind_slice+75
	DD	imagerel $unwind$ucs1lib_rfind_slice
pdata	ENDS
;	COMDAT xdata
xdata	SEGMENT
$unwind$ucs1lib_rfind_slice DD 010401H
	DD	06204H
; Function compile flags: /Ogtpy
xdata	ENDS
;	COMDAT ucs1lib_rfind_slice
_TEXT	SEGMENT
str$ = 64
str_len$ = 72
sub$ = 80
sub_len$ = 88
start$ = 96
end$ = 104
ucs1lib_rfind_slice PROC				; COMDAT

; 75   : {

  00000	48 83 ec 38	 sub	 rsp, 56			; 00000038H
  00004	4c 8b d2	 mov	 r10, rdx

; 76   :     ADJUST_INDICES(start, end, str_len);

  00007	48 8b 54 24 68	 mov	 rdx, QWORD PTR end$[rsp]
  0000c	45 33 db	 xor	 r11d, r11d
  0000f	49 3b d2	 cmp	 rdx, r10
  00012	7e 05		 jle	 SHORT $LN6@ucs1lib_rf@2
  00014	49 8b d2	 mov	 rdx, r10
  00017	eb 0c		 jmp	 SHORT $LN3@ucs1lib_rf@2
$LN6@ucs1lib_rf@2:
  00019	48 85 d2	 test	 rdx, rdx
  0001c	79 07		 jns	 SHORT $LN3@ucs1lib_rf@2
  0001e	49 03 d2	 add	 rdx, r10
  00021	49 0f 48 d3	 cmovs	 rdx, r11
$LN3@ucs1lib_rf@2:
  00025	48 8b 44 24 60	 mov	 rax, QWORD PTR start$[rsp]
  0002a	48 85 c0	 test	 rax, rax
  0002d	79 07		 jns	 SHORT $LN1@ucs1lib_rf@2
  0002f	49 03 c2	 add	 rax, r10
  00032	49 0f 48 c3	 cmovs	 rax, r11
$LN1@ucs1lib_rf@2:

; 77   :     return STRINGLIB(rfind)(str + start, end - start, sub, sub_len, start);

  00036	48 2b d0	 sub	 rdx, rax
  00039	48 03 c8	 add	 rcx, rax
  0003c	48 89 44 24 20	 mov	 QWORD PTR [rsp+32], rax
  00041	e8 00 00 00 00	 call	 ucs1lib_rfind

; 78   : }

  00046	48 83 c4 38	 add	 rsp, 56			; 00000038H
  0004a	c3		 ret	 0
ucs1lib_rfind_slice ENDP
; Function compile flags: /Ogtpy
; File c:\src\pyparallel\objects\stringlib\find_max_char.h
_TEXT	ENDS
;	COMDAT ucs1lib_find_max_char
_TEXT	SEGMENT
begin$ = 8
end$ = 16
ucs1lib_find_max_char PROC				; COMDAT

; 20   :     const unsigned char *p = (const unsigned char *) begin;
; 21   :     const unsigned char *aligned_end =
; 22   :             (const unsigned char *) _Py_ALIGN_DOWN(end, SIZEOF_LONG);

  00000	4c 8b c2	 mov	 r8, rdx
  00003	49 83 e0 fc	 and	 r8, -4
$LN19@ucs1lib_fi@3:

; 23   : 
; 24   :     while (p < end) {

  00007	48 3b ca	 cmp	 rcx, rdx
  0000a	73 3d		 jae	 SHORT $LN7@ucs1lib_fi@3

; 25   :         if (_Py_IS_ALIGNED(p, SIZEOF_LONG)) {

  0000c	f6 c1 03	 test	 cl, 3
  0000f	75 28		 jne	 SHORT $LN2@ucs1lib_fi@3

; 26   :             /* Help register allocation */
; 27   :             register const unsigned char *_p = p;

  00011	48 8b c1	 mov	 rax, rcx

; 28   :             while (_p < aligned_end) {

  00014	49 3b c8	 cmp	 rcx, r8
  00017	73 18		 jae	 SHORT $LN4@ucs1lib_fi@3
  00019	0f 1f 80 00 00
	00 00		 npad	 7
$LL5@ucs1lib_fi@3:

; 29   :                 unsigned long value = *(unsigned long *) _p;
; 30   :                 if (value & UCS1_ASCII_CHAR_MASK)

  00020	f7 00 80 80 80
	80		 test	 DWORD PTR [rax], -2139062144 ; 80808080H
  00026	75 1b		 jne	 SHORT $LN13@ucs1lib_fi@3

; 32   :                 _p += SIZEOF_LONG;

  00028	48 83 c0 04	 add	 rax, 4
  0002c	49 3b c0	 cmp	 rax, r8
  0002f	72 ef		 jb	 SHORT $LL5@ucs1lib_fi@3
$LN4@ucs1lib_fi@3:

; 33   :             }
; 34   :             p = _p;

  00031	48 8b c8	 mov	 rcx, rax

; 35   :             if (p == end)

  00034	48 3b c2	 cmp	 rax, rdx
  00037	74 10		 je	 SHORT $LN7@ucs1lib_fi@3
$LN2@ucs1lib_fi@3:

; 36   :                 break;
; 37   :         }
; 38   :         if (*p++ & 0x80)

  00039	0f b6 01	 movzx	 eax, BYTE PTR [rcx]
  0003c	48 ff c1	 inc	 rcx
  0003f	24 80		 and	 al, 128			; 00000080H
  00041	74 c4		 je	 SHORT $LN19@ucs1lib_fi@3
$LN13@ucs1lib_fi@3:

; 31   :                     return 255;

  00043	b8 ff 00 00 00	 mov	 eax, 255		; 000000ffH

; 42   : }

  00048	c3		 ret	 0
$LN7@ucs1lib_fi@3:

; 39   :             return 255;
; 40   :     }
; 41   :     return 127;

  00049	b8 7f 00 00 00	 mov	 eax, 127		; 0000007fH

; 42   : }

  0004e	c3		 ret	 0
ucs1lib_find_max_char ENDP
; Function compile flags: /Ogtpy
; File c:\src\pyparallel\objects\stringlib\localeutil.h
_TEXT	ENDS
;	COMDAT ucs1lib_GroupGenerator_init
_TEXT	SEGMENT
self$ = 8
grouping$ = 16
ucs1lib_GroupGenerator_init PROC			; COMDAT

; 18   :     self->grouping = grouping;

  00000	48 89 11	 mov	 QWORD PTR [rcx], rdx

; 19   :     self->i = 0;

  00003	48 c7 41 10 00
	00 00 00	 mov	 QWORD PTR [rcx+16], 0

; 20   :     self->previous = 0;

  0000b	c6 41 08 00	 mov	 BYTE PTR [rcx+8], 0

; 21   : }

  0000f	c3		 ret	 0
ucs1lib_GroupGenerator_init ENDP
; Function compile flags: /Ogtpy
_TEXT	ENDS
;	COMDAT ucs1lib_GroupGenerator_next
_TEXT	SEGMENT
self$ = 8
ucs1lib_GroupGenerator_next PROC			; COMDAT

; 27   :     /* Note that we don't really do much error checking here. If a
; 28   :        grouping string contains just CHAR_MAX, for example, then just
; 29   :        terminate the generator. That shouldn't happen, but at least we
; 30   :        fail gracefully. */
; 31   :     switch (self->grouping[self->i]) {

  00000	48 8b 01	 mov	 rax, QWORD PTR [rcx]
  00003	4c 8b 41 10	 mov	 r8, QWORD PTR [rcx+16]
  00007	41 0f b6 14 00	 movzx	 edx, BYTE PTR [r8+rax]
  0000c	0f b6 c2	 movzx	 eax, dl
  0000f	84 d2		 test	 dl, dl
  00011	74 17		 je	 SHORT $LN3@ucs1lib_Gr
  00013	3c 7f		 cmp	 al, 127			; 0000007fH
  00015	74 10		 je	 SHORT $LN2@ucs1lib_Gr

; 37   :     default: {
; 38   :         char ch = self->grouping[self->i];
; 39   :         self->previous = ch;
; 40   :         self->i++;

  00017	49 8d 40 01	 lea	 rax, QWORD PTR [r8+1]
  0001b	88 51 08	 mov	 BYTE PTR [rcx+8], dl
  0001e	48 89 41 10	 mov	 QWORD PTR [rcx+16], rax

; 41   :         return (Py_ssize_t)ch;

  00022	48 0f be c2	 movsx	 rax, dl

; 42   :     }
; 43   :     }
; 44   : }

  00026	c3		 ret	 0
$LN2@ucs1lib_Gr:

; 34   :     case CHAR_MAX:
; 35   :         /* Stop the generator. */
; 36   :         return 0;

  00027	33 c0		 xor	 eax, eax

; 42   :     }
; 43   :     }
; 44   : }

  00029	c3		 ret	 0
$LN3@ucs1lib_Gr:

; 32   :     case 0:
; 33   :         return self->previous;

  0002a	48 0f be 41 08	 movsx	 rax, BYTE PTR [rcx+8]

; 42   :     }
; 43   :     }
; 44   : }

  0002f	c3		 ret	 0
ucs1lib_GroupGenerator_next ENDP
_TEXT	ENDS
;	COMDAT pdata
pdata	SEGMENT
$pdata$ucs1lib_fill DD imagerel ucs1lib_fill
	DD	imagerel ucs1lib_fill+133
	DD	imagerel $unwind$ucs1lib_fill
pdata	ENDS
;	COMDAT xdata
xdata	SEGMENT
$unwind$ucs1lib_fill DD 081401H
	DD	086414H
	DD	075414H
	DD	063414H
	DD	070103214H
; Function compile flags: /Ogtpy
xdata	ENDS
;	COMDAT ucs1lib_fill
_TEXT	SEGMENT
digits_end$ = 48
buffer_end$ = 56
n_chars$ = 64
n_zeros$ = 72
thousands_sep$ = 80
thousands_sep_len$ = 88
ucs1lib_fill PROC					; COMDAT

; 52   : {

  00000	48 89 5c 24 08	 mov	 QWORD PTR [rsp+8], rbx
  00005	48 89 6c 24 10	 mov	 QWORD PTR [rsp+16], rbp
  0000a	48 89 74 24 18	 mov	 QWORD PTR [rsp+24], rsi
  0000f	57		 push	 rdi
  00010	48 83 ec 20	 sub	 rsp, 32			; 00000020H
  00014	48 8b da	 mov	 rbx, rdx

; 53   :     Py_ssize_t i;
; 54   : 
; 55   :     if (thousands_sep) {

  00017	48 8b 54 24 50	 mov	 rdx, QWORD PTR thousands_sep$[rsp]
  0001c	49 8b f9	 mov	 rdi, r9
  0001f	49 8b f0	 mov	 rsi, r8
  00022	48 8b e9	 mov	 rbp, rcx
  00025	48 85 d2	 test	 rdx, rdx
  00028	74 10		 je	 SHORT $LN4@ucs1lib_fi@4

; 56   :         *buffer_end -= thousands_sep_len;

  0002a	4c 8b 44 24 58	 mov	 r8, QWORD PTR thousands_sep_len$[rsp]
  0002f	4c 29 03	 sub	 QWORD PTR [rbx], r8

; 57   : 
; 58   :         /* Copy the thousands_sep chars into the buffer. */
; 59   :         memcpy(*buffer_end, thousands_sep,
; 60   :                thousands_sep_len * STRINGLIB_SIZEOF_CHAR);

  00032	48 8b 0b	 mov	 rcx, QWORD PTR [rbx]
  00035	e8 00 00 00 00	 call	 memcpy
$LN4@ucs1lib_fi@4:

; 61   :     }
; 62   : 
; 63   :     *buffer_end -= n_chars;

  0003a	48 29 33	 sub	 QWORD PTR [rbx], rsi

; 64   :     *digits_end -= n_chars;

  0003d	48 29 75 00	 sub	 QWORD PTR [rbp], rsi

; 65   :     memcpy(*buffer_end, *digits_end, n_chars * sizeof(STRINGLIB_CHAR));

  00041	48 8b 55 00	 mov	 rdx, QWORD PTR [rbp]
  00045	48 8b 0b	 mov	 rcx, QWORD PTR [rbx]
  00048	4c 8b c6	 mov	 r8, rsi
  0004b	e8 00 00 00 00	 call	 memcpy

; 66   : 
; 67   :     *buffer_end -= n_zeros;

  00050	48 29 3b	 sub	 QWORD PTR [rbx], rdi

; 68   :     for (i = 0; i < n_zeros; i++)

  00053	33 c9		 xor	 ecx, ecx
  00055	48 85 ff	 test	 rdi, rdi
  00058	7e 16		 jle	 SHORT $LN1@ucs1lib_fi@4
  0005a	66 0f 1f 44 00
	00		 npad	 6
$LL3@ucs1lib_fi@4:

; 69   :         (*buffer_end)[i] = '0';

  00060	48 8b 03	 mov	 rax, QWORD PTR [rbx]
  00063	48 ff c1	 inc	 rcx
  00066	c6 44 01 ff 30	 mov	 BYTE PTR [rcx+rax-1], 48 ; 00000030H
  0006b	48 3b cf	 cmp	 rcx, rdi
  0006e	7c f0		 jl	 SHORT $LL3@ucs1lib_fi@4
$LN1@ucs1lib_fi@4:

; 70   : }

  00070	48 8b 5c 24 30	 mov	 rbx, QWORD PTR [rsp+48]
  00075	48 8b 6c 24 38	 mov	 rbp, QWORD PTR [rsp+56]
  0007a	48 8b 74 24 40	 mov	 rsi, QWORD PTR [rsp+64]
  0007f	48 83 c4 20	 add	 rsp, 32			; 00000020H
  00083	5f		 pop	 rdi
  00084	c3		 ret	 0
ucs1lib_fill ENDP
_TEXT	ENDS
;	COMDAT pdata
pdata	SEGMENT
$pdata$ucs1lib_InsertThousandsGrouping DD imagerel ucs1lib_InsertThousandsGrouping
	DD	imagerel ucs1lib_InsertThousandsGrouping+461
	DD	imagerel $unwind$ucs1lib_InsertThousandsGrouping
pdata	ENDS
;	COMDAT xdata
xdata	SEGMENT
$unwind$ucs1lib_InsertThousandsGrouping DD 0b6f01H
	DD	0a746fH
	DD	013546aH
	DD	0f00fa213H
	DD	0d00be00dH
	DD	06007c009H
	DD	03006H
; Function compile flags: /Ogtpy
xdata	ENDS
;	COMDAT ucs1lib_InsertThousandsGrouping
_TEXT	SEGMENT
digits_end$ = 48
groupgen$ = 56
buffer$ = 144
n_buffer$ = 152
digits$ = 160
buffer_end$ = 168
n_digits$ = 168
min_width$ = 176
grouping$ = 184
thousands_sep$ = 192
thousands_sep_len$ = 200
ucs1lib_InsertThousandsGrouping PROC			; COMDAT

; 112  : {

  00000	48 89 4c 24 08	 mov	 QWORD PTR [rsp+8], rcx
  00005	53		 push	 rbx
  00006	56		 push	 rsi
  00007	41 54		 push	 r12
  00009	41 55		 push	 r13
  0000b	41 56		 push	 r14
  0000d	41 57		 push	 r15
  0000f	48 83 ec 58	 sub	 rsp, 88			; 00000058H

; 113  :     Py_ssize_t count = 0;

  00013	45 33 e4	 xor	 r12d, r12d
  00016	48 8b c2	 mov	 rax, rdx

; 114  :     Py_ssize_t n_zeros;
; 115  :     int loop_broken = 0;
; 116  :     int use_separator = 0; /* First time through, don't append the
; 117  :                               separator. They only go between
; 118  :                               groups. */
; 119  :     STRINGLIB_CHAR *buffer_end = NULL;
; 120  :     STRINGLIB_CHAR *digits_end = NULL;
; 121  :     Py_ssize_t l;
; 122  :     Py_ssize_t n_chars;
; 123  :     Py_ssize_t remaining = n_digits; /* Number of chars remaining to
; 124  :                                         be looked at */
; 125  :     /* A generator that returns all of the grouping widths, until it
; 126  :        returns 0. */
; 127  :     STRINGLIB(GroupGenerator) groupgen;
; 128  :     STRINGLIB(GroupGenerator_init)(&groupgen, grouping);

  00019	48 8b 94 24 b8
	00 00 00	 mov	 rdx, QWORD PTR grouping$[rsp]
  00021	4c 8b d9	 mov	 r11, rcx
  00024	48 8d 4c 24 38	 lea	 rcx, QWORD PTR groupgen$[rsp]
  00029	49 8b f1	 mov	 rsi, r9
  0002c	45 8b fc	 mov	 r15d, r12d
  0002f	45 8b d4	 mov	 r10d, r12d
  00032	4c 89 a4 24 a8
	00 00 00	 mov	 QWORD PTR buffer_end$[rsp], r12
  0003a	4c 89 64 24 30	 mov	 QWORD PTR digits_end$[rsp], r12
  0003f	e8 00 00 00 00	 call	 ucs1lib_GroupGenerator_init

; 129  : 
; 130  :     if (buffer) {

  00044	4d 85 db	 test	 r11, r11
  00047	74 14		 je	 SHORT $LN26@ucs1lib_In

; 131  :         buffer_end = buffer + n_buffer;

  00049	49 03 c3	 add	 rax, r11
  0004c	48 89 84 24 a8
	00 00 00	 mov	 QWORD PTR buffer_end$[rsp], rax

; 132  :         digits_end = digits + n_digits;

  00054	4b 8d 04 08	 lea	 rax, QWORD PTR [r8+r9]
  00058	48 89 44 24 30	 mov	 QWORD PTR digits_end$[rsp], rax
$LN26@ucs1lib_In:

; 133  :     }
; 134  : 
; 135  :     while ((l = STRINGLIB(GroupGenerator_next)(&groupgen)) > 0) {

  0005d	48 8d 4c 24 38	 lea	 rcx, QWORD PTR groupgen$[rsp]
  00062	48 89 ac 24 98
	00 00 00	 mov	 QWORD PTR [rsp+152], rbp
  0006a	48 89 7c 24 50	 mov	 QWORD PTR [rsp+80], rdi
  0006f	e8 00 00 00 00	 call	 ucs1lib_GroupGenerator_next
  00074	4c 8b b4 24 c8
	00 00 00	 mov	 r14, QWORD PTR thousands_sep_len$[rsp]
  0007c	48 8b bc 24 b0
	00 00 00	 mov	 rdi, QWORD PTR min_width$[rsp]
  00084	41 bd 01 00 00
	00		 mov	 r13d, 1
$LN35@ucs1lib_In:
  0008a	48 8b 94 24 c0
	00 00 00	 mov	 rdx, QWORD PTR thousands_sep$[rsp]
  00092	48 8b d8	 mov	 rbx, rax
  00095	48 85 c0	 test	 rax, rax
  00098	0f 8e ac 00 00
	00		 jle	 $LN29@ucs1lib_In

; 136  :         l = Py_MIN(l, Py_MAX(Py_MAX(remaining, min_width), 1));

  0009e	48 3b f7	 cmp	 rsi, rdi
  000a1	49 8b c5	 mov	 rax, r13
  000a4	48 8b cf	 mov	 rcx, rdi
  000a7	48 0f 4f ce	 cmovg	 rcx, rsi
  000ab	48 3b c8	 cmp	 rcx, rax
  000ae	48 0f 4f c1	 cmovg	 rax, rcx
  000b2	48 3b d8	 cmp	 rbx, rax
  000b5	7e 0a		 jle	 SHORT $LN12@ucs1lib_In
  000b7	49 8b dd	 mov	 rbx, r13
  000ba	48 3b cb	 cmp	 rcx, rbx
  000bd	48 0f 4f d9	 cmovg	 rbx, rcx
$LN12@ucs1lib_In:

; 137  :         n_zeros = Py_MAX(0, l - remaining);

  000c1	4c 8b cb	 mov	 r9, rbx

; 138  :         n_chars = Py_MAX(0, Py_MIN(remaining, l));

  000c4	48 8b ee	 mov	 rbp, rsi

; 139  : 
; 140  :         /* Use n_zero zero's and n_chars chars */
; 141  : 
; 142  :         /* Count only, don't do anything. */
; 143  :         count += (use_separator ? thousands_sep_len : 0) + n_zeros + n_chars;

  000c7	49 8b c4	 mov	 rax, r12
  000ca	4c 2b ce	 sub	 r9, rsi
  000cd	4d 0f 48 cc	 cmovs	 r9, r12
  000d1	48 3b f3	 cmp	 rsi, rbx
  000d4	48 0f 4f eb	 cmovg	 rbp, rbx
  000d8	48 85 ed	 test	 rbp, rbp
  000db	49 0f 48 ec	 cmovs	 rbp, r12
  000df	45 85 d2	 test	 r10d, r10d
  000e2	49 0f 45 c6	 cmovne	 rax, r14
  000e6	48 03 c5	 add	 rax, rbp
  000e9	49 03 c1	 add	 rax, r9
  000ec	4c 03 f8	 add	 r15, rax

; 144  : 
; 145  :         if (buffer) {

  000ef	4d 85 db	 test	 r11, r11
  000f2	74 31		 je	 SHORT $LN4@ucs1lib_In

; 146  :             /* Copy into the output buffer. */
; 147  :             STRINGLIB(fill)(&digits_end, &buffer_end, n_chars, n_zeros,
; 148  :                  use_separator ? thousands_sep : NULL, thousands_sep_len);

  000f4	45 85 d2	 test	 r10d, r10d
  000f7	49 8b c4	 mov	 rax, r12
  000fa	48 8d 4c 24 30	 lea	 rcx, QWORD PTR digits_end$[rsp]
  000ff	48 0f 45 c2	 cmovne	 rax, rdx
  00103	48 8d 94 24 a8
	00 00 00	 lea	 rdx, QWORD PTR buffer_end$[rsp]
  0010b	4c 8b c5	 mov	 r8, rbp
  0010e	4c 89 74 24 28	 mov	 QWORD PTR [rsp+40], r14
  00113	48 89 44 24 20	 mov	 QWORD PTR [rsp+32], rax
  00118	e8 00 00 00 00	 call	 ucs1lib_fill
  0011d	4c 8b 9c 24 90
	00 00 00	 mov	 r11, QWORD PTR buffer$[rsp]
$LN4@ucs1lib_In:

; 149  :         }
; 150  : 
; 151  :         /* Use a separator next time. */
; 152  :         use_separator = 1;
; 153  : 
; 154  :         remaining -= n_chars;

  00125	48 2b f5	 sub	 rsi, rbp

; 155  :         min_width -= l;

  00128	48 2b fb	 sub	 rdi, rbx
  0012b	45 8b d5	 mov	 r10d, r13d

; 156  : 
; 157  :         if (remaining <= 0 && min_width <= 0) {

  0012e	48 85 f6	 test	 rsi, rsi
  00131	7f 05		 jg	 SHORT $LN3@ucs1lib_In
  00133	48 85 ff	 test	 rdi, rdi
  00136	7e 76		 jle	 SHORT $LN30@ucs1lib_In
$LN3@ucs1lib_In:

; 133  :     }
; 134  : 
; 135  :     while ((l = STRINGLIB(GroupGenerator_next)(&groupgen)) > 0) {

  00138	48 8d 4c 24 38	 lea	 rcx, QWORD PTR groupgen$[rsp]

; 158  :             loop_broken = 1;
; 159  :             break;
; 160  :         }
; 161  :         min_width -= thousands_sep_len;

  0013d	49 2b fe	 sub	 rdi, r14
  00140	e8 00 00 00 00	 call	 ucs1lib_GroupGenerator_next
  00145	e9 40 ff ff ff	 jmp	 $LN35@ucs1lib_In
$LN29@ucs1lib_In:

; 162  :     }
; 163  :     if (!loop_broken) {
; 164  :         /* We left the loop without using a break statement. */
; 165  : 
; 166  :         l = Py_MAX(Py_MAX(remaining, min_width), 1);

  0014a	48 3b f7	 cmp	 rsi, rdi

; 167  :         n_zeros = Py_MAX(0, l - remaining);
; 168  :         n_chars = Py_MAX(0, Py_MIN(remaining, l));
; 169  : 
; 170  :         /* Use n_zero zero's and n_chars chars */
; 171  :         count += (use_separator ? thousands_sep_len : 0) + n_zeros + n_chars;

  0014d	49 8b c4	 mov	 rax, r12
  00150	48 0f 4f fe	 cmovg	 rdi, rsi
  00154	49 3b fd	 cmp	 rdi, r13
  00157	4c 0f 4f ef	 cmovg	 r13, rdi
  0015b	4d 8b cd	 mov	 r9, r13
  0015e	4c 2b ce	 sub	 r9, rsi
  00161	4d 0f 48 cc	 cmovs	 r9, r12
  00165	49 3b f5	 cmp	 rsi, r13
  00168	49 0f 4f f5	 cmovg	 rsi, r13
  0016c	48 85 f6	 test	 rsi, rsi
  0016f	49 0f 48 f4	 cmovs	 rsi, r12
  00173	45 85 d2	 test	 r10d, r10d
  00176	49 0f 45 c6	 cmovne	 rax, r14
  0017a	48 03 c6	 add	 rax, rsi
  0017d	49 03 c1	 add	 rax, r9
  00180	4c 03 f8	 add	 r15, rax

; 172  :         if (buffer) {

  00183	4d 85 db	 test	 r11, r11
  00186	74 26		 je	 SHORT $LN30@ucs1lib_In

; 173  :             /* Copy into the output buffer. */
; 174  :             STRINGLIB(fill)(&digits_end, &buffer_end, n_chars, n_zeros,
; 175  :                  use_separator ? thousands_sep : NULL, thousands_sep_len);

  00188	45 85 d2	 test	 r10d, r10d
  0018b	48 8d 4c 24 30	 lea	 rcx, QWORD PTR digits_end$[rsp]
  00190	4c 8b c6	 mov	 r8, rsi
  00193	4c 0f 45 e2	 cmovne	 r12, rdx
  00197	48 8d 94 24 a8
	00 00 00	 lea	 rdx, QWORD PTR buffer_end$[rsp]
  0019f	4c 89 74 24 28	 mov	 QWORD PTR [rsp+40], r14
  001a4	4c 89 64 24 20	 mov	 QWORD PTR [rsp+32], r12
  001a9	e8 00 00 00 00	 call	 ucs1lib_fill
$LN30@ucs1lib_In:

; 176  :         }
; 177  :     }
; 178  :     return count;

  001ae	48 8b 7c 24 50	 mov	 rdi, QWORD PTR [rsp+80]
  001b3	48 8b ac 24 98
	00 00 00	 mov	 rbp, QWORD PTR [rsp+152]
  001bb	49 8b c7	 mov	 rax, r15

; 179  : }

  001be	48 83 c4 58	 add	 rsp, 88			; 00000058H
  001c2	41 5f		 pop	 r15
  001c4	41 5e		 pop	 r14
  001c6	41 5d		 pop	 r13
  001c8	41 5c		 pop	 r12
  001ca	5e		 pop	 rsi
  001cb	5b		 pop	 rbx
  001cc	c3		 ret	 0
ucs1lib_InsertThousandsGrouping ENDP
_TEXT	ENDS
;	COMDAT pdata
; File c:\src\pyparallel\objects\stringlib\fastsearch.h
pdata	SEGMENT
$pdata$ucs2lib_fastsearch_memchr_1char DD imagerel ucs2lib_fastsearch_memchr_1char
	DD	imagerel ucs2lib_fastsearch_memchr_1char+24
	DD	imagerel $unwind$ucs2lib_fastsearch_memchr_1char
pdata	ENDS
;	COMDAT pdata
pdata	SEGMENT
$pdata$1$ucs2lib_fastsearch_memchr_1char DD imagerel ucs2lib_fastsearch_memchr_1char+24
	DD	imagerel ucs2lib_fastsearch_memchr_1char+121
	DD	imagerel $chain$1$ucs2lib_fastsearch_memchr_1char
pdata	ENDS
;	COMDAT pdata
pdata	SEGMENT
$pdata$3$ucs2lib_fastsearch_memchr_1char DD imagerel ucs2lib_fastsearch_memchr_1char+121
	DD	imagerel ucs2lib_fastsearch_memchr_1char+129
	DD	imagerel $chain$3$ucs2lib_fastsearch_memchr_1char
pdata	ENDS
;	COMDAT pdata
pdata	SEGMENT
$pdata$4$ucs2lib_fastsearch_memchr_1char DD imagerel ucs2lib_fastsearch_memchr_1char+129
	DD	imagerel ucs2lib_fastsearch_memchr_1char+142
	DD	imagerel $chain$4$ucs2lib_fastsearch_memchr_1char
pdata	ENDS
;	COMDAT xdata
xdata	SEGMENT
$chain$4$ucs2lib_fastsearch_memchr_1char DD 021H
	DD	imagerel ucs2lib_fastsearch_memchr_1char
	DD	imagerel ucs2lib_fastsearch_memchr_1char+24
	DD	imagerel $unwind$ucs2lib_fastsearch_memchr_1char
xdata	ENDS
;	COMDAT xdata
xdata	SEGMENT
$chain$3$ucs2lib_fastsearch_memchr_1char DD 040021H
	DD	075400H
	DD	063400H
	DD	imagerel ucs2lib_fastsearch_memchr_1char
	DD	imagerel ucs2lib_fastsearch_memchr_1char+24
	DD	imagerel $unwind$ucs2lib_fastsearch_memchr_1char
xdata	ENDS
;	COMDAT xdata
xdata	SEGMENT
$chain$1$ucs2lib_fastsearch_memchr_1char DD 041121H
	DD	075411H
	DD	063405H
	DD	imagerel ucs2lib_fastsearch_memchr_1char
	DD	imagerel ucs2lib_fastsearch_memchr_1char+24
	DD	imagerel $unwind$ucs2lib_fastsearch_memchr_1char
xdata	ENDS
;	COMDAT xdata
xdata	SEGMENT
$unwind$ucs2lib_fastsearch_memchr_1char DD 040a01H
	DD	08640aH
	DD	07006320aH
; Function compile flags: /Ogtpy
xdata	ENDS
;	COMDAT ucs2lib_fastsearch_memchr_1char
_TEXT	SEGMENT
s$ = 48
n$ = 56
ch$ = 64
needle$ = 72
mode$ = 80
ucs2lib_fastsearch_memchr_1char PROC			; COMDAT

; 40   : {

  00000	48 89 74 24 18	 mov	 QWORD PTR [rsp+24], rsi
  00005	57		 push	 rdi
  00006	48 83 ec 20	 sub	 rsp, 32			; 00000020H

; 41   :     if (mode == FAST_SEARCH) {

  0000a	83 7c 24 50 01	 cmp	 DWORD PTR mode$[rsp], 1
  0000f	41 0f b7 f0	 movzx	 esi, r8w
  00013	48 8b f9	 mov	 rdi, rcx
  00016	75 69		 jne	 SHORT $LN7@ucs2lib_fa

; 42   :         const STRINGLIB_CHAR *ptr = s;
; 43   :         const STRINGLIB_CHAR *e = s + n;

  00018	48 89 5c 24 30	 mov	 QWORD PTR [rsp+48], rbx
  0001d	48 8d 1c 51	 lea	 rbx, QWORD PTR [rcx+rdx*2]
  00021	48 8b c1	 mov	 rax, rcx
  00024	48 89 6c 24 38	 mov	 QWORD PTR [rsp+56], rbp

; 44   :         while (ptr < e) {

  00029	48 3b cb	 cmp	 rcx, rbx
  0002c	73 32		 jae	 SHORT $LN5@ucs2lib_fa
  0002e	41 0f b6 e9	 movzx	 ebp, r9b
$LL6@ucs2lib_fa:

; 45   :             void *candidate = memchr((const void *) ptr, needle, (e - ptr) * sizeof(STRINGLIB_CHAR));

  00032	4c 8b c3	 mov	 r8, rbx
  00035	8b d5		 mov	 edx, ebp
  00037	48 8b c8	 mov	 rcx, rax
  0003a	4c 2b c0	 sub	 r8, rax
  0003d	49 d1 f8	 sar	 r8, 1
  00040	4d 03 c0	 add	 r8, r8
  00043	ff 15 00 00 00
	00		 call	 QWORD PTR __imp_memchr

; 46   :             if (candidate == NULL)

  00049	48 85 c0	 test	 rax, rax
  0004c	74 12		 je	 SHORT $LN5@ucs2lib_fa

; 47   :                 return -1;
; 48   :             ptr = (const STRINGLIB_CHAR *) _Py_ALIGN_DOWN(candidate, sizeof(STRINGLIB_CHAR));

  0004e	48 83 e0 fe	 and	 rax, -2

; 49   :             if (sizeof(STRINGLIB_CHAR) == 1 || *ptr == ch)

  00052	66 39 30	 cmp	 WORD PTR [rax], si
  00055	74 22		 je	 SHORT $LN12@ucs2lib_fa

; 51   :             /* False positive */
; 52   :             ptr++;

  00057	48 83 c0 02	 add	 rax, 2
  0005b	48 3b c3	 cmp	 rax, rbx
  0005e	72 d2		 jb	 SHORT $LL6@ucs2lib_fa
$LN5@ucs2lib_fa:

; 53   :         }
; 54   :         return -1;

  00060	48 83 c8 ff	 or	 rax, -1
$LN15@ucs2lib_fa:
  00064	48 8b 5c 24 30	 mov	 rbx, QWORD PTR [rsp+48]
  00069	48 8b 6c 24 38	 mov	 rbp, QWORD PTR [rsp+56]

; 78   :     }
; 79   : 
; 80   : #undef DO_MEMCHR
; 81   : }

  0006e	48 8b 74 24 40	 mov	 rsi, QWORD PTR [rsp+64]
  00073	48 83 c4 20	 add	 rsp, 32			; 00000020H
  00077	5f		 pop	 rdi
  00078	c3		 ret	 0
$LN12@ucs2lib_fa:

; 50   :                 return (ptr - s);

  00079	48 2b c7	 sub	 rax, rdi
  0007c	48 d1 f8	 sar	 rax, 1
  0007f	eb e3		 jmp	 SHORT $LN15@ucs2lib_fa
$LN7@ucs2lib_fa:

; 55   :     }
; 56   : #ifdef HAVE_MEMRCHR
; 57   :     /* memrchr() is a GNU extension, available since glibc 2.1.91.
; 58   :        it doesn't seem as optimized as memchr(), but is still quite
; 59   :        faster than our hand-written loop in FASTSEARCH below */
; 60   :     else if (mode == FAST_RSEARCH) {
; 61   :         while (n > 0) {
; 62   :             const STRINGLIB_CHAR *found;
; 63   :             void *candidate = memrchr((const void *) s, needle, n * sizeof(STRINGLIB_CHAR));
; 64   :             if (candidate == NULL)
; 65   :                 return -1;
; 66   :             found = (const STRINGLIB_CHAR *) _Py_ALIGN_DOWN(candidate, sizeof(STRINGLIB_CHAR));
; 67   :             n = found - s;
; 68   :             if (sizeof(STRINGLIB_CHAR) == 1 || *found == ch)
; 69   :                 return n;
; 70   :             /* False positive */
; 71   :         }
; 72   :         return -1;
; 73   :     }
; 74   : #endif
; 75   :     else {
; 76   :         assert(0); /* Should never get here */
; 77   :         return 0;

  00081	33 c0		 xor	 eax, eax

; 78   :     }
; 79   : 
; 80   : #undef DO_MEMCHR
; 81   : }

  00083	48 8b 74 24 40	 mov	 rsi, QWORD PTR [rsp+64]
  00088	48 83 c4 20	 add	 rsp, 32			; 00000020H
  0008c	5f		 pop	 rdi
  0008d	c3		 ret	 0
ucs2lib_fastsearch_memchr_1char ENDP
_TEXT	ENDS
;	COMDAT pdata
pdata	SEGMENT
$pdata$ucs2lib_fastsearch DD imagerel ucs2lib_fastsearch
	DD	imagerel ucs2lib_fastsearch+75
	DD	imagerel $unwind$ucs2lib_fastsearch
pdata	ENDS
;	COMDAT pdata
pdata	SEGMENT
$pdata$0$ucs2lib_fastsearch DD imagerel ucs2lib_fastsearch+75
	DD	imagerel ucs2lib_fastsearch+296
	DD	imagerel $chain$0$ucs2lib_fastsearch
pdata	ENDS
;	COMDAT pdata
pdata	SEGMENT
$pdata$2$ucs2lib_fastsearch DD imagerel ucs2lib_fastsearch+296
	DD	imagerel ucs2lib_fastsearch+700
	DD	imagerel $chain$2$ucs2lib_fastsearch
pdata	ENDS
;	COMDAT pdata
pdata	SEGMENT
$pdata$3$ucs2lib_fastsearch DD imagerel ucs2lib_fastsearch+700
	DD	imagerel ucs2lib_fastsearch+720
	DD	imagerel $chain$3$ucs2lib_fastsearch
pdata	ENDS
;	COMDAT pdata
pdata	SEGMENT
$pdata$5$ucs2lib_fastsearch DD imagerel ucs2lib_fastsearch+720
	DD	imagerel ucs2lib_fastsearch+993
	DD	imagerel $chain$5$ucs2lib_fastsearch
pdata	ENDS
;	COMDAT pdata
pdata	SEGMENT
$pdata$6$ucs2lib_fastsearch DD imagerel ucs2lib_fastsearch+993
	DD	imagerel ucs2lib_fastsearch+1009
	DD	imagerel $chain$6$ucs2lib_fastsearch
pdata	ENDS
;	COMDAT xdata
xdata	SEGMENT
$chain$6$ucs2lib_fastsearch DD 021H
	DD	imagerel ucs2lib_fastsearch
	DD	imagerel ucs2lib_fastsearch+75
	DD	imagerel $unwind$ucs2lib_fastsearch
xdata	ENDS
;	COMDAT xdata
xdata	SEGMENT
$chain$5$ucs2lib_fastsearch DD 060021H
	DD	08d400H
	DD	09c400H
	DD	0107400H
	DD	imagerel ucs2lib_fastsearch
	DD	imagerel ucs2lib_fastsearch+75
	DD	imagerel $unwind$ucs2lib_fastsearch
xdata	ENDS
;	COMDAT xdata
xdata	SEGMENT
$chain$3$ucs2lib_fastsearch DD 021H
	DD	imagerel ucs2lib_fastsearch+75
	DD	imagerel ucs2lib_fastsearch+296
	DD	imagerel $chain$0$ucs2lib_fastsearch
xdata	ENDS
;	COMDAT xdata
xdata	SEGMENT
$chain$2$ucs2lib_fastsearch DD 040a21H
	DD	08d40aH
	DD	09c405H
	DD	imagerel ucs2lib_fastsearch+75
	DD	imagerel ucs2lib_fastsearch+296
	DD	imagerel $chain$0$ucs2lib_fastsearch
xdata	ENDS
;	COMDAT xdata
xdata	SEGMENT
$chain$0$ucs2lib_fastsearch DD 020821H
	DD	0107408H
	DD	imagerel ucs2lib_fastsearch
	DD	imagerel ucs2lib_fastsearch+75
	DD	imagerel $unwind$ucs2lib_fastsearch
xdata	ENDS
;	COMDAT xdata
xdata	SEGMENT
$unwind$ucs2lib_fastsearch DD 061501H
	DD	0f0119215H
	DD	0600de00fH
	DD	0300b500cH
; Function compile flags: /Ogtpy
xdata	ENDS
;	COMDAT ucs2lib_fastsearch
_TEXT	SEGMENT
skip$1$ = 48
s$ = 128
mask$1$ = 136
n$ = 136
p$ = 144
m$ = 152
maxcount$ = 160
mode$ = 168
ucs2lib_fastsearch PROC					; COMDAT

; 87   : {

  00000	4c 89 4c 24 20	 mov	 QWORD PTR [rsp+32], r9
  00005	4c 89 44 24 18	 mov	 QWORD PTR [rsp+24], r8
  0000a	53		 push	 rbx
  0000b	55		 push	 rbp
  0000c	56		 push	 rsi
  0000d	41 56		 push	 r14
  0000f	41 57		 push	 r15
  00011	48 83 ec 50	 sub	 rsp, 80			; 00000050H

; 88   :     unsigned long mask;
; 89   :     Py_ssize_t skip, count = 0;

  00015	45 33 d2	 xor	 r10d, r10d

; 90   :     Py_ssize_t i, j, mlast, w;
; 91   : 
; 92   :     w = n - m;

  00018	4c 8b da	 mov	 r11, rdx
  0001b	49 8b e8	 mov	 rbp, r8
  0001e	4d 2b d9	 sub	 r11, r9
  00021	48 8b d9	 mov	 rbx, rcx
  00024	41 8b f2	 mov	 esi, r10d

; 93   : 
; 94   :     if (w < 0 || (mode == FAST_COUNT && maxcount == 0))

  00027	0f 88 b4 03 00
	00		 js	 $LN61@ucs2lib_fa@2
  0002d	44 8b bc 24 a8
	00 00 00	 mov	 r15d, DWORD PTR mode$[rsp]
  00035	4c 8b b4 24 a0
	00 00 00	 mov	 r14, QWORD PTR maxcount$[rsp]
  0003d	45 85 ff	 test	 r15d, r15d
  00040	75 09		 jne	 SHORT $LN62@ucs2lib_fa@2
  00042	4d 85 f6	 test	 r14, r14
  00045	0f 84 96 03 00
	00		 je	 $LN61@ucs2lib_fa@2
$LN62@ucs2lib_fa@2:
  0004b	48 89 bc 24 80
	00 00 00	 mov	 QWORD PTR [rsp+128], rdi

; 96   : 
; 97   :     /* look for special cases */
; 98   :     if (m <= 1) {

  00053	49 83 f9 01	 cmp	 r9, 1
  00057	0f 8f c3 00 00
	00		 jg	 $LN60@ucs2lib_fa@2

; 99   :         if (m <= 0)

  0005d	4d 85 c9	 test	 r9, r9

; 100  :             return -1;

  00060	0f 8e b1 00 00
	00		 jle	 $LN41@ucs2lib_fa@2

; 101  :         /* use special case for 1-character strings */
; 102  :         if (n > 10 && (mode == FAST_SEARCH
; 103  : #ifdef HAVE_MEMRCHR
; 104  :                     || mode == FAST_RSEARCH
; 105  : #endif
; 106  :                     )) {

  00066	48 83 fa 0a	 cmp	 rdx, 10
  0006a	7e 25		 jle	 SHORT $LN57@ucs2lib_fa@2
  0006c	41 83 ff 01	 cmp	 r15d, 1
  00070	75 1f		 jne	 SHORT $LN57@ucs2lib_fa@2

; 107  :             /* use memchr if we can choose a needle without two many likely
; 108  :                false positives */
; 109  :             unsigned char needle;
; 110  :             needle = p[0] & 0xff;

  00072	45 0f b6 08	 movzx	 r9d, BYTE PTR [r8]

; 111  : #if STRINGLIB_SIZEOF_CHAR > 1
; 112  :             /* If looking for a multiple of 256, we'd have too
; 113  :                many false positives looking for the '\0' byte in UCS2
; 114  :                and UCS4 representations. */
; 115  :             if (needle != 0)

  00076	45 84 c9	 test	 r9b, r9b
  00079	74 52		 je	 SHORT $LN91@ucs2lib_fa@2

; 116  : #endif
; 117  :                 return STRINGLIB(fastsearch_memchr_1char)
; 118  :                        (s, n, p[0], needle, maxcount, mode);

  0007b	45 0f b7 00	 movzx	 r8d, WORD PTR [r8]
  0007f	41 8b ff	 mov	 edi, r15d
  00082	44 89 7c 24 20	 mov	 DWORD PTR [rsp+32], r15d
  00087	e8 00 00 00 00	 call	 ucs2lib_fastsearch_memchr_1char
  0008c	e9 2b 02 00 00	 jmp	 $LN99@ucs2lib_fa@2
$LN57@ucs2lib_fa@2:

; 119  :         }
; 120  :         if (mode == FAST_COUNT) {

  00091	45 85 ff	 test	 r15d, r15d
  00094	75 31		 jne	 SHORT $LN56@ucs2lib_fa@2

; 121  :             for (i = 0; i < n; i++)

  00096	48 85 d2	 test	 rdx, rdx
  00099	7e 1c		 jle	 SHORT $LN93@ucs2lib_fa@2
  0009b	41 0f b7 00	 movzx	 eax, WORD PTR [r8]
  0009f	90		 npad	 1
$LL55@ucs2lib_fa@2:

; 122  :                 if (s[i] == p[0]) {

  000a0	66 42 39 04 51	 cmp	 WORD PTR [rcx+r10*2], ax
  000a5	75 08		 jne	 SHORT $LN54@ucs2lib_fa@2

; 123  :                     count++;

  000a7	48 ff c6	 inc	 rsi

; 124  :                     if (count == maxcount)

  000aa	49 3b f6	 cmp	 rsi, r14
  000ad	74 10		 je	 SHORT $LN74@ucs2lib_fa@2
$LN54@ucs2lib_fa@2:

; 121  :             for (i = 0; i < n; i++)

  000af	49 ff c2	 inc	 r10
  000b2	4c 3b d2	 cmp	 r10, rdx
  000b5	7c e9		 jl	 SHORT $LL55@ucs2lib_fa@2
$LN93@ucs2lib_fa@2:

; 126  :                 }
; 127  :             return count;

  000b7	48 8b c6	 mov	 rax, rsi
  000ba	e9 fd 01 00 00	 jmp	 $LN99@ucs2lib_fa@2
$LN74@ucs2lib_fa@2:

; 125  :                         return maxcount;

  000bf	49 8b c6	 mov	 rax, r14
  000c2	e9 f5 01 00 00	 jmp	 $LN99@ucs2lib_fa@2
$LN56@ucs2lib_fa@2:

; 128  :         } else if (mode == FAST_SEARCH) {

  000c7	41 83 ff 01	 cmp	 r15d, 1
  000cb	75 29		 jne	 SHORT $LN49@ucs2lib_fa@2
$LN91@ucs2lib_fa@2:

; 129  :             for (i = 0; i < n; i++)

  000cd	48 85 d2	 test	 rdx, rdx
  000d0	7e 45		 jle	 SHORT $LN41@ucs2lib_fa@2
  000d2	41 0f b7 00	 movzx	 eax, WORD PTR [r8]
$LL48@ucs2lib_fa@2:

; 130  :                 if (s[i] == p[0])

  000d6	66 42 39 04 51	 cmp	 WORD PTR [rcx+r10*2], ax
  000db	74 11		 je	 SHORT $LN75@ucs2lib_fa@2

; 129  :             for (i = 0; i < n; i++)

  000dd	49 ff c2	 inc	 r10
  000e0	4c 3b d2	 cmp	 r10, rdx
  000e3	7c f1		 jl	 SHORT $LL48@ucs2lib_fa@2

; 135  :                     return i;
; 136  :         }
; 137  :         return -1;

  000e5	48 83 c8 ff	 or	 rax, -1
  000e9	e9 ce 01 00 00	 jmp	 $LN99@ucs2lib_fa@2
$LN75@ucs2lib_fa@2:

; 131  :                     return i;

  000ee	49 8b c2	 mov	 rax, r10
  000f1	e9 c6 01 00 00	 jmp	 $LN99@ucs2lib_fa@2
$LN49@ucs2lib_fa@2:

; 132  :         } else {    /* FAST_RSEARCH */
; 133  :             for (i = n - 1; i > -1; i--)

  000f6	48 8d 42 ff	 lea	 rax, QWORD PTR [rdx-1]
  000fa	48 83 f8 ff	 cmp	 rax, -1
  000fe	7e 17		 jle	 SHORT $LN41@ucs2lib_fa@2
  00100	41 0f b7 08	 movzx	 ecx, WORD PTR [r8]
$LL43@ucs2lib_fa@2:

; 134  :                 if (s[i] == p[0])

  00104	66 39 0c 43	 cmp	 WORD PTR [rbx+rax*2], cx
  00108	0f 84 ae 01 00
	00		 je	 $LN99@ucs2lib_fa@2

; 132  :         } else {    /* FAST_RSEARCH */
; 133  :             for (i = n - 1; i > -1; i--)

  0010e	48 ff c8	 dec	 rax
  00111	48 83 f8 ff	 cmp	 rax, -1
  00115	7f ed		 jg	 SHORT $LL43@ucs2lib_fa@2
$LN41@ucs2lib_fa@2:

; 135  :                     return i;
; 136  :         }
; 137  :         return -1;

  00117	48 83 c8 ff	 or	 rax, -1
  0011b	e9 9c 01 00 00	 jmp	 $LN99@ucs2lib_fa@2
$LN60@ucs2lib_fa@2:

; 138  :     }
; 139  : 
; 140  :     mlast = m - 1;

  00120	48 8b 94 24 98
	00 00 00	 mov	 rdx, QWORD PTR m$[rsp]
  00128	4c 89 64 24 48	 mov	 QWORD PTR [rsp+72], r12
  0012d	4c 89 6c 24 40	 mov	 QWORD PTR [rsp+64], r13
  00132	4c 8d 6a ff	 lea	 r13, QWORD PTR [rdx-1]

; 141  :     skip = mlast - 1;
; 142  :     mask = 0;

  00136	45 8b e2	 mov	 r12d, r10d

; 143  : 
; 144  :     if (mode != FAST_RSEARCH) {
; 145  : 
; 146  :         /* create compressed boyer-moore delta 1 table */
; 147  : 
; 148  :         /* process pattern[:-1] */
; 149  :         for (i = 0; i < mlast; i++) {

  00139	bf 01 00 00 00	 mov	 edi, 1
  0013e	4d 8d 45 ff	 lea	 r8, QWORD PTR [r13-1]
  00142	4c 89 44 24 30	 mov	 QWORD PTR skip$1$[rsp], r8
  00147	41 83 ff 02	 cmp	 r15d, 2
  0014b	0f 84 92 01 00
	00		 je	 $LN39@ucs2lib_fa@2
  00151	4d 8b ca	 mov	 r9, r10
  00154	4d 85 ed	 test	 r13, r13
  00157	7e 6c		 jle	 SHORT $LN36@ucs2lib_fa@2
  00159	4c 8b bc 24 90
	00 00 00	 mov	 r15, QWORD PTR p$[rsp]
  00161	49 8d 75 ff	 lea	 rsi, QWORD PTR [r13-1]
  00165	45 8b f1	 mov	 r14d, r9d
  00168	47 0f b7 24 6f	 movzx	 r12d, WORD PTR [r15+r13*2]
  0016d	48 8b ee	 mov	 rbp, rsi
$LL38@ucs2lib_fa@2:
  00170	47 0f b7 04 4f	 movzx	 r8d, WORD PTR [r15+r9*2]

; 150  :             STRINGLIB_BLOOM_ADD(mask, p[i]);

  00175	8b d7		 mov	 edx, edi
  00177	41 8b c8	 mov	 ecx, r8d
  0017a	83 e1 1f	 and	 ecx, 31
  0017d	d3 e2		 shl	 edx, cl
  0017f	44 0b f2	 or	 r14d, edx

; 151  :             if (p[i] == p[mlast])

  00182	66 45 3b c4	 cmp	 r8w, r12w
  00186	48 0f 44 f5	 cmove	 rsi, rbp
  0018a	49 ff c1	 inc	 r9
  0018d	48 ff cd	 dec	 rbp
  00190	4d 3b cd	 cmp	 r9, r13
  00193	7c db		 jl	 SHORT $LL38@ucs2lib_fa@2
  00195	44 8b bc 24 a8
	00 00 00	 mov	 r15d, DWORD PTR mode$[rsp]
  0019d	48 8b 94 24 98
	00 00 00	 mov	 rdx, QWORD PTR m$[rsp]
  001a5	44 89 b4 24 88
	00 00 00	 mov	 DWORD PTR mask$1$[rsp], r14d
  001ad	44 8b a4 24 88
	00 00 00	 mov	 r12d, DWORD PTR mask$1$[rsp]
  001b5	4c 8b b4 24 a0
	00 00 00	 mov	 r14, QWORD PTR maxcount$[rsp]
  001bd	48 89 74 24 30	 mov	 QWORD PTR skip$1$[rsp], rsi
  001c2	49 8b f2	 mov	 rsi, r10
$LN36@ucs2lib_fa@2:

; 152  :                 skip = mlast - i - 1;
; 153  :         }
; 154  :         /* process pattern[-1] outside the loop */
; 155  :         STRINGLIB_BLOOM_ADD(mask, p[mlast]);

  001c5	48 8b 84 24 90
	00 00 00	 mov	 rax, QWORD PTR p$[rsp]
  001cd	4b 8d 6c 2d 00	 lea	 rbp, QWORD PTR [r13+r13]

; 156  : 
; 157  :         for (i = 0; i <= w; i++) {

  001d2	4d 8b ca	 mov	 r9, r10
  001d5	0f b7 0c 28	 movzx	 ecx, WORD PTR [rax+rbp]
  001d9	83 e1 1f	 and	 ecx, 31
  001dc	d3 e7		 shl	 edi, cl
  001de	44 0b e7	 or	 r12d, edi
  001e1	4d 85 db	 test	 r11, r11
  001e4	0f 88 eb 00 00
	00		 js	 $LN94@ucs2lib_fa@2

; 152  :                 skip = mlast - i - 1;
; 153  :         }
; 154  :         /* process pattern[-1] outside the loop */
; 155  :         STRINGLIB_BLOOM_ADD(mask, p[mlast]);

  001ea	48 8d 3c 12	 lea	 rdi, QWORD PTR [rdx+rdx]
  001ee	4c 8d 04 1f	 lea	 r8, QWORD PTR [rdi+rbx]
  001f2	48 2b d8	 sub	 rbx, rax
  001f5	66 66 66 0f 1f
	84 00 00 00 00
	00		 npad	 11
$LL34@ucs2lib_fa@2:

; 158  :             /* note: using mlast in the skip path slows things down on x86 */
; 159  :             if (s[i+m-1] == p[m-1]) {

  00200	0f b7 4c 07 fe	 movzx	 ecx, WORD PTR [rdi+rax-2]
  00205	66 41 39 48 fe	 cmp	 WORD PTR [r8-2], cx
  0020a	75 70		 jne	 SHORT $LN31@ucs2lib_fa@2

; 160  :                 /* candidate match */
; 161  :                 for (j = 0; j < mlast; j++)

  0020c	49 8b d2	 mov	 rdx, r10
  0020f	4d 85 ed	 test	 r13, r13
  00212	7e 18		 jle	 SHORT $LN96@ucs2lib_fa@2
  00214	48 8b c8	 mov	 rcx, rax
$LL30@ucs2lib_fa@2:

; 162  :                     if (s[i+j] != p[j])

  00217	0f b7 01	 movzx	 eax, WORD PTR [rcx]
  0021a	66 39 04 0b	 cmp	 WORD PTR [rbx+rcx], ax
  0021e	75 0c		 jne	 SHORT $LN96@ucs2lib_fa@2

; 160  :                 /* candidate match */
; 161  :                 for (j = 0; j < mlast; j++)

  00220	48 ff c2	 inc	 rdx
  00223	48 83 c1 02	 add	 rcx, 2
  00227	49 3b d5	 cmp	 rdx, r13
  0022a	7c eb		 jl	 SHORT $LL30@ucs2lib_fa@2
$LN96@ucs2lib_fa@2:

; 163  :                         break;
; 164  :                 if (j == mlast) {

  0022c	49 3b d5	 cmp	 rdx, r13
  0022f	75 24		 jne	 SHORT $LN26@ucs2lib_fa@2

; 165  :                     /* got a match! */
; 166  :                     if (mode != FAST_COUNT)

  00231	45 85 ff	 test	 r15d, r15d
  00234	0f 85 96 00 00
	00		 jne	 $LN78@ucs2lib_fa@2

; 168  :                     count++;

  0023a	48 ff c6	 inc	 rsi

; 169  :                     if (count == maxcount)

  0023d	49 3b f6	 cmp	 rsi, r14
  00240	74 6d		 je	 SHORT $LN79@ucs2lib_fa@2

; 171  :                     i = i + mlast;
; 172  :                     continue;

  00242	48 8b 94 24 98
	00 00 00	 mov	 rdx, QWORD PTR m$[rsp]
  0024a	4d 03 cd	 add	 r9, r13
  0024d	48 03 dd	 add	 rbx, rbp
  00250	4c 03 c5	 add	 r8, rbp
  00253	eb 3d		 jmp	 SHORT $LN33@ucs2lib_fa@2
$LN26@ucs2lib_fa@2:

; 173  :                 }
; 174  :                 /* miss: check if next character is part of pattern */
; 175  :                 if (!STRINGLIB_BLOOM(mask, s[i+m]))

  00255	41 0f b7 00	 movzx	 eax, WORD PTR [r8]

; 176  :                     i = i + m;

  00259	48 8b 94 24 98
	00 00 00	 mov	 rdx, QWORD PTR m$[rsp]
  00261	83 e0 1f	 and	 eax, 31
  00264	41 0f a3 c4	 bt	 r12d, eax

; 177  :                 else

  00268	73 1f		 jae	 SHORT $LN102@ucs2lib_fa@2

; 178  :                     i = i + skip;

  0026a	48 8b 44 24 30	 mov	 rax, QWORD PTR skip$1$[rsp]
  0026f	4c 03 c8	 add	 r9, rax
  00272	48 8d 1c 43	 lea	 rbx, QWORD PTR [rbx+rax*2]
  00276	4d 8d 04 40	 lea	 r8, QWORD PTR [r8+rax*2]

; 179  :             } else {

  0027a	eb 16		 jmp	 SHORT $LN33@ucs2lib_fa@2
$LN31@ucs2lib_fa@2:

; 180  :                 /* skip: check if next character is part of pattern */
; 181  :                 if (!STRINGLIB_BLOOM(mask, s[i+m]))

  0027c	41 0f b7 00	 movzx	 eax, WORD PTR [r8]
  00280	83 e0 1f	 and	 eax, 31
  00283	41 0f a3 c4	 bt	 r12d, eax
  00287	72 09		 jb	 SHORT $LN33@ucs2lib_fa@2
$LN102@ucs2lib_fa@2:

; 182  :                     i = i + m;

  00289	4c 03 ca	 add	 r9, rdx
  0028c	48 03 df	 add	 rbx, rdi
  0028f	4c 03 c7	 add	 r8, rdi
$LN33@ucs2lib_fa@2:

; 156  : 
; 157  :         for (i = 0; i <= w; i++) {

  00292	49 ff c1	 inc	 r9
  00295	48 83 c3 02	 add	 rbx, 2
  00299	49 83 c0 02	 add	 r8, 2
  0029d	4d 3b cb	 cmp	 r9, r11
  002a0	7f 33		 jg	 SHORT $LN94@ucs2lib_fa@2
  002a2	48 8b 84 24 90
	00 00 00	 mov	 rax, QWORD PTR p$[rsp]
  002aa	e9 51 ff ff ff	 jmp	 $LL34@ucs2lib_fa@2
$LN79@ucs2lib_fa@2:

; 170  :                         return maxcount;

  002af	49 8b c6	 mov	 rax, r14
$LN101@ucs2lib_fa@2:
  002b2	4c 8b 64 24 48	 mov	 r12, QWORD PTR [rsp+72]
  002b7	4c 8b 6c 24 40	 mov	 r13, QWORD PTR [rsp+64]
$LN99@ucs2lib_fa@2:
  002bc	48 8b bc 24 80
	00 00 00	 mov	 rdi, QWORD PTR [rsp+128]

; 223  : }

  002c4	48 83 c4 50	 add	 rsp, 80			; 00000050H
  002c8	41 5f		 pop	 r15
  002ca	41 5e		 pop	 r14
  002cc	5e		 pop	 rsi
  002cd	5d		 pop	 rbp
  002ce	5b		 pop	 rbx
  002cf	c3		 ret	 0
$LN78@ucs2lib_fa@2:

; 167  :                         return i;

  002d0	49 8b c1	 mov	 rax, r9
  002d3	eb dd		 jmp	 SHORT $LN101@ucs2lib_fa@2
$LN94@ucs2lib_fa@2:

; 216  :             }
; 217  :         }
; 218  :     }
; 219  : 
; 220  :     if (mode != FAST_COUNT)

  002d5	45 85 ff	 test	 r15d, r15d
  002d8	0f 85 f2 00 00
	00		 jne	 $LN95@ucs2lib_fa@2

; 222  :     return count;

  002de	48 8b c6	 mov	 rax, rsi
  002e1	eb cf		 jmp	 SHORT $LN101@ucs2lib_fa@2
$LN39@ucs2lib_fa@2:

; 183  :             }
; 184  :         }
; 185  :     } else {    /* FAST_RSEARCH */
; 186  : 
; 187  :         /* create compressed boyer-moore delta 1 table */
; 188  : 
; 189  :         /* process pattern[0] outside the loop */
; 190  :         STRINGLIB_BLOOM_ADD(mask, p[0]);

  002e3	0f b7 75 00	 movzx	 esi, WORD PTR [rbp]
  002e7	44 8b d7	 mov	 r10d, edi

; 191  :         /* process pattern[:0:-1] */
; 192  :         for (i = mlast; i > 0; i--) {

  002ea	4d 8b cd	 mov	 r9, r13
  002ed	8b ce		 mov	 ecx, esi
  002ef	83 e1 1f	 and	 ecx, 31
  002f2	41 d3 e2	 shl	 r10d, cl
  002f5	4d 85 ed	 test	 r13, r13
  002f8	7e 3f		 jle	 SHORT $LN16@ucs2lib_fa@2
  002fa	66 0f 1f 44 00
	00		 npad	 6
$LL18@ucs2lib_fa@2:
  00300	46 0f b7 44 4d
	00		 movzx	 r8d, WORD PTR [rbp+r9*2]

; 193  :             STRINGLIB_BLOOM_ADD(mask, p[i]);

  00306	8b d7		 mov	 edx, edi
  00308	41 8b c8	 mov	 ecx, r8d
  0030b	83 e1 1f	 and	 ecx, 31
  0030e	d3 e2		 shl	 edx, cl
  00310	44 0b d2	 or	 r10d, edx

; 194  :             if (p[i] == p[0])

  00313	66 44 3b c6	 cmp	 r8w, si
  00317	75 0b		 jne	 SHORT $LN98@ucs2lib_fa@2

; 195  :                 skip = i - 1;

  00319	4d 8d 41 ff	 lea	 r8, QWORD PTR [r9-1]
  0031d	4c 89 44 24 30	 mov	 QWORD PTR skip$1$[rsp], r8
  00322	eb 05		 jmp	 SHORT $LN17@ucs2lib_fa@2
$LN98@ucs2lib_fa@2:
  00324	4c 8b 44 24 30	 mov	 r8, QWORD PTR skip$1$[rsp]
$LN17@ucs2lib_fa@2:

; 191  :         /* process pattern[:0:-1] */
; 192  :         for (i = mlast; i > 0; i--) {

  00329	49 ff c9	 dec	 r9
  0032c	4d 85 c9	 test	 r9, r9
  0032f	7f cf		 jg	 SHORT $LL18@ucs2lib_fa@2
  00331	48 8b 94 24 98
	00 00 00	 mov	 rdx, QWORD PTR m$[rsp]
$LN16@ucs2lib_fa@2:
  00339	4c 8b 64 24 30	 mov	 r12, QWORD PTR skip$1$[rsp]

; 196  :         }
; 197  : 
; 198  :         for (i = w; i >= 0; i--) {

  0033e	4b 8d 3c 00	 lea	 rdi, QWORD PTR [r8+r8]
  00342	4f 8d 04 1b	 lea	 r8, QWORD PTR [r11+r11]
  00346	4c 2b c5	 sub	 r8, rbp
  00349	4c 8d 0c 12	 lea	 r9, QWORD PTR [rdx+rdx]
  0034d	4c 03 c3	 add	 r8, rbx
$LL14@ucs2lib_fa@2:

; 199  :             if (s[i] == p[0]) {

  00350	66 42 39 34 5b	 cmp	 WORD PTR [rbx+r11*2], si
  00355	75 56		 jne	 SHORT $LN11@ucs2lib_fa@2

; 200  :                 /* candidate match */
; 201  :                 for (j = mlast; j > 0; j--)

  00357	49 8b d5	 mov	 rdx, r13
  0035a	4d 85 ed	 test	 r13, r13
  0035d	7e 1b		 jle	 SHORT $LN97@ucs2lib_fa@2
  0035f	4a 8d 4c 6d 00	 lea	 rcx, QWORD PTR [rbp+r13*2]
$LL10@ucs2lib_fa@2:

; 202  :                     if (s[i+j] != p[j])

  00364	0f b7 01	 movzx	 eax, WORD PTR [rcx]
  00367	66 41 39 04 08	 cmp	 WORD PTR [r8+rcx], ax
  0036c	75 0c		 jne	 SHORT $LN97@ucs2lib_fa@2

; 200  :                 /* candidate match */
; 201  :                 for (j = mlast; j > 0; j--)

  0036e	48 ff ca	 dec	 rdx
  00371	48 83 e9 02	 sub	 rcx, 2
  00375	48 85 d2	 test	 rdx, rdx
  00378	7f ea		 jg	 SHORT $LL10@ucs2lib_fa@2
$LN97@ucs2lib_fa@2:

; 203  :                         break;
; 204  :                 if (j == 0)

  0037a	48 85 d2	 test	 rdx, rdx
  0037d	74 5a		 je	 SHORT $LN81@ucs2lib_fa@2

; 207  :                 /* miss: check if previous character is part of pattern */
; 208  :                 if (i > 0 && !STRINGLIB_BLOOM(mask, s[i-1]))

  0037f	4d 85 db	 test	 r11, r11
  00382	7e 19		 jle	 SHORT $LN5@ucs2lib_fa@2
  00384	42 0f b7 44 5b
	fe		 movzx	 eax, WORD PTR [rbx+r11*2-2]
  0038a	83 e0 1f	 and	 eax, 31
  0038d	41 0f a3 c2	 bt	 r10d, eax
  00391	72 0a		 jb	 SHORT $LN5@ucs2lib_fa@2

; 209  :                     i = i - m;

  00393	48 8b 94 24 98
	00 00 00	 mov	 rdx, QWORD PTR m$[rsp]

; 210  :                 else

  0039b	eb 24		 jmp	 SHORT $LN103@ucs2lib_fa@2
$LN5@ucs2lib_fa@2:

; 211  :                     i = i - skip;
; 212  :             } else {

  0039d	48 8b 94 24 98
	00 00 00	 mov	 rdx, QWORD PTR m$[rsp]
  003a5	4d 2b dc	 sub	 r11, r12
  003a8	4c 2b c7	 sub	 r8, rdi
  003ab	eb 1a		 jmp	 SHORT $LN13@ucs2lib_fa@2
$LN11@ucs2lib_fa@2:

; 213  :                 /* skip: check if previous character is part of pattern */
; 214  :                 if (i > 0 && !STRINGLIB_BLOOM(mask, s[i-1]))

  003ad	4d 85 db	 test	 r11, r11
  003b0	7e 15		 jle	 SHORT $LN13@ucs2lib_fa@2
  003b2	42 0f b7 44 5b
	fe		 movzx	 eax, WORD PTR [rbx+r11*2-2]
  003b8	83 e0 1f	 and	 eax, 31
  003bb	41 0f a3 c2	 bt	 r10d, eax
  003bf	72 06		 jb	 SHORT $LN13@ucs2lib_fa@2
$LN103@ucs2lib_fa@2:

; 215  :                     i = i - m;

  003c1	4c 2b da	 sub	 r11, rdx
  003c4	4d 2b c1	 sub	 r8, r9
$LN13@ucs2lib_fa@2:

; 196  :         }
; 197  : 
; 198  :         for (i = w; i >= 0; i--) {

  003c7	49 83 e8 02	 sub	 r8, 2
  003cb	49 ff cb	 dec	 r11
  003ce	79 80		 jns	 SHORT $LL14@ucs2lib_fa@2
$LN95@ucs2lib_fa@2:

; 221  :         return -1;

  003d0	48 83 c8 ff	 or	 rax, -1
  003d4	e9 d9 fe ff ff	 jmp	 $LN101@ucs2lib_fa@2
$LN81@ucs2lib_fa@2:

; 205  :                     /* got a match! */
; 206  :                     return i;

  003d9	49 8b c3	 mov	 rax, r11
  003dc	e9 d1 fe ff ff	 jmp	 $LN101@ucs2lib_fa@2
$LN61@ucs2lib_fa@2:

; 95   :         return -1;

  003e1	48 83 c8 ff	 or	 rax, -1

; 223  : }

  003e5	48 83 c4 50	 add	 rsp, 80			; 00000050H
  003e9	41 5f		 pop	 r15
  003eb	41 5e		 pop	 r14
  003ed	5e		 pop	 rsi
  003ee	5d		 pop	 rbp
  003ef	5b		 pop	 rbx
  003f0	c3		 ret	 0
ucs2lib_fastsearch ENDP
_TEXT	ENDS
;	COMDAT pdata
; File c:\src\pyparallel\objects\stringlib\count.h
pdata	SEGMENT
$pdata$ucs2lib_count DD imagerel ucs2lib_count
	DD	imagerel ucs2lib_count+40
	DD	imagerel $unwind$ucs2lib_count
pdata	ENDS
;	COMDAT pdata
pdata	SEGMENT
$pdata$0$ucs2lib_count DD imagerel ucs2lib_count+40
	DD	imagerel ucs2lib_count+73
	DD	imagerel $chain$0$ucs2lib_count
pdata	ENDS
;	COMDAT pdata
pdata	SEGMENT
$pdata$1$ucs2lib_count DD imagerel ucs2lib_count+73
	DD	imagerel ucs2lib_count+78
	DD	imagerel $chain$1$ucs2lib_count
pdata	ENDS
;	COMDAT xdata
xdata	SEGMENT
$chain$1$ucs2lib_count DD 021H
	DD	imagerel ucs2lib_count
	DD	imagerel ucs2lib_count+40
	DD	imagerel $unwind$ucs2lib_count
xdata	ENDS
;	COMDAT xdata
xdata	SEGMENT
$chain$0$ucs2lib_count DD 020521H
	DD	063405H
	DD	imagerel ucs2lib_count
	DD	imagerel ucs2lib_count+40
	DD	imagerel $unwind$ucs2lib_count
xdata	ENDS
;	COMDAT xdata
xdata	SEGMENT
$unwind$ucs2lib_count DD 010401H
	DD	06204H
; Function compile flags: /Ogtpy
xdata	ENDS
;	COMDAT ucs2lib_count
_TEXT	SEGMENT
str$ = 64
str_len$ = 72
sub$ = 80
sub_len$ = 88
maxcount$ = 96
ucs2lib_count PROC					; COMDAT

; 11   : {

  00000	48 83 ec 38	 sub	 rsp, 56			; 00000038H

; 12   :     Py_ssize_t count;
; 13   : 
; 14   :     if (str_len < 0)

  00004	48 85 d2	 test	 rdx, rdx
  00007	79 07		 jns	 SHORT $LN3@ucs2lib_co

; 15   :         return 0; /* start > len(str) */

  00009	33 c0		 xor	 eax, eax

; 22   :         return 0; /* no match */
; 23   : 
; 24   :     return count;
; 25   : }

  0000b	48 83 c4 38	 add	 rsp, 56			; 00000038H
  0000f	c3		 ret	 0
$LN3@ucs2lib_co:

; 16   :     if (sub_len == 0)
; 17   :         return (str_len < maxcount) ? str_len + 1 : maxcount;

  00010	48 8b 44 24 60	 mov	 rax, QWORD PTR maxcount$[rsp]
  00015	4d 85 c9	 test	 r9, r9
  00018	75 0e		 jne	 SHORT $LN2@ucs2lib_co
  0001a	48 3b d0	 cmp	 rdx, rax
  0001d	7d 2a		 jge	 SHORT $LN1@ucs2lib_co
  0001f	48 8d 42 01	 lea	 rax, QWORD PTR [rdx+1]

; 22   :         return 0; /* no match */
; 23   : 
; 24   :     return count;
; 25   : }

  00023	48 83 c4 38	 add	 rsp, 56			; 00000038H
  00027	c3		 ret	 0
$LN2@ucs2lib_co:
  00028	48 89 5c 24 30	 mov	 QWORD PTR [rsp+48], rbx

; 18   : 
; 19   :     count = FASTSEARCH(str, str_len, sub, sub_len, maxcount, FAST_COUNT);

  0002d	33 db		 xor	 ebx, ebx
  0002f	89 5c 24 28	 mov	 DWORD PTR [rsp+40], ebx
  00033	48 89 44 24 20	 mov	 QWORD PTR [rsp+32], rax
  00038	e8 00 00 00 00	 call	 ucs2lib_fastsearch

; 20   : 
; 21   :     if (count < 0)

  0003d	48 85 c0	 test	 rax, rax
  00040	48 0f 48 c3	 cmovs	 rax, rbx
  00044	48 8b 5c 24 30	 mov	 rbx, QWORD PTR [rsp+48]
$LN1@ucs2lib_co:

; 22   :         return 0; /* no match */
; 23   : 
; 24   :     return count;
; 25   : }

  00049	48 83 c4 38	 add	 rsp, 56			; 00000038H
  0004d	c3		 ret	 0
ucs2lib_count ENDP
_TEXT	ENDS
;	COMDAT pdata
; File c:\src\pyparallel\objects\stringlib\fastsearch.h
pdata	SEGMENT
$pdata$ucs2lib_find DD imagerel ucs2lib_find
	DD	imagerel ucs2lib_find+58
	DD	imagerel $unwind$ucs2lib_find
pdata	ENDS
;	COMDAT pdata
pdata	SEGMENT
$pdata$4$ucs2lib_find DD imagerel ucs2lib_find+58
	DD	imagerel ucs2lib_find+303
	DD	imagerel $chain$4$ucs2lib_find
pdata	ENDS
;	COMDAT pdata
pdata	SEGMENT
$pdata$6$ucs2lib_find DD imagerel ucs2lib_find+303
	DD	imagerel ucs2lib_find+566
	DD	imagerel $chain$6$ucs2lib_find
pdata	ENDS
;	COMDAT xdata
xdata	SEGMENT
$chain$6$ucs2lib_find DD 0a0021H
	DD	04f400H
	DD	05e400H
	DD	0d7400H
	DD	0c6400H
	DD	0a5400H
	DD	imagerel ucs2lib_find
	DD	imagerel ucs2lib_find+58
	DD	imagerel $unwind$ucs2lib_find
xdata	ENDS
;	COMDAT xdata
xdata	SEGMENT
$chain$4$ucs2lib_find DD 0a1c21H
	DD	04f41cH
	DD	05e417H
	DD	0d740fH
	DD	0c640aH
	DD	0a5405H
	DD	imagerel ucs2lib_find
	DD	imagerel ucs2lib_find+58
	DD	imagerel $unwind$ucs2lib_find
xdata	ENDS
;	COMDAT xdata
xdata	SEGMENT
$unwind$ucs2lib_find DD 040a01H
	DD	0d006520aH
	DD	03002c004H
; Function compile flags: /Ogtpy
; File c:\src\pyparallel\objects\stringlib\find.h
xdata	ENDS
;	COMDAT ucs2lib_find
_TEXT	SEGMENT
str$ = 80
w$1$ = 88
str_len$ = 88
sub$ = 96
sub_len$ = 104
offset$ = 112
ucs2lib_find PROC					; COMDAT

; 11   : {

  00000	40 53		 push	 rbx
  00002	41 54		 push	 r12
  00004	41 55		 push	 r13
  00006	48 83 ec 30	 sub	 rsp, 48			; 00000030H
  0000a	4d 8b e1	 mov	 r12, r9
  0000d	4d 8b e8	 mov	 r13, r8
  00010	48 8b d9	 mov	 rbx, rcx

; 12   :     Py_ssize_t pos;
; 13   : 
; 14   :     if (str_len < 0)

  00013	48 85 d2	 test	 rdx, rdx
  00016	79 0e		 jns	 SHORT $LN3@ucs2lib_fi

; 15   :         return -1;

  00018	48 83 c8 ff	 or	 rax, -1

; 25   : }

  0001c	48 83 c4 30	 add	 rsp, 48			; 00000030H
  00020	41 5d		 pop	 r13
  00022	41 5c		 pop	 r12
  00024	5b		 pop	 rbx
  00025	c3		 ret	 0
$LN3@ucs2lib_fi:

; 16   :     if (sub_len == 0)

  00026	4d 85 c9	 test	 r9, r9
  00029	75 0f		 jne	 SHORT $LN2@ucs2lib_fi

; 17   :         return offset;

  0002b	48 8b 44 24 70	 mov	 rax, QWORD PTR offset$[rsp]

; 25   : }

  00030	48 83 c4 30	 add	 rsp, 48			; 00000030H
  00034	41 5d		 pop	 r13
  00036	41 5c		 pop	 r12
  00038	5b		 pop	 rbx
  00039	c3		 ret	 0
$LN2@ucs2lib_fi:
  0003a	48 89 6c 24 50	 mov	 QWORD PTR [rsp+80], rbp
  0003f	48 89 74 24 60	 mov	 QWORD PTR [rsp+96], rsi
  00044	48 89 7c 24 68	 mov	 QWORD PTR [rsp+104], rdi

; 18   : 
; 19   :     pos = FASTSEARCH(str, str_len, sub, sub_len, -1, FAST_SEARCH);

  00049	48 8b ea	 mov	 rbp, rdx
  0004c	4c 89 74 24 28	 mov	 QWORD PTR [rsp+40], r14
  00051	4c 89 7c 24 20	 mov	 QWORD PTR [rsp+32], r15
  00056	49 2b e9	 sub	 rbp, r9
  00059	48 89 6c 24 58	 mov	 QWORD PTR w$1$[rsp], rbp
  0005e	0f 88 a1 00 00
	00		 js	 $LN66@ucs2lib_fi
  00064	49 83 f9 01	 cmp	 r9, 1
  00068	0f 8f c1 00 00
	00		 jg	 $LN65@ucs2lib_fi
  0006e	4d 85 c9	 test	 r9, r9
  00071	0f 8e 8e 00 00
	00		 jle	 $LN66@ucs2lib_fi
  00077	48 83 fa 0a	 cmp	 rdx, 10
  0007b	7e 69		 jle	 SHORT $LN62@ucs2lib_fi
  0007d	41 0f b6 00	 movzx	 eax, BYTE PTR [r8]
  00081	84 c0		 test	 al, al
  00083	74 61		 je	 SHORT $LN62@ucs2lib_fi
  00085	41 0f b7 30	 movzx	 esi, WORD PTR [r8]
  00089	48 8d 3c 51	 lea	 rdi, QWORD PTR [rcx+rdx*2]
  0008d	4c 8b c9	 mov	 r9, rcx
  00090	48 3b cf	 cmp	 rcx, rdi
  00093	73 3d		 jae	 SHORT $LN74@ucs2lib_fi
  00095	0f b6 e8	 movzx	 ebp, al
  00098	0f 1f 84 00 00
	00 00 00	 npad	 8
$LL75@ucs2lib_fi:
  000a0	4c 8b c7	 mov	 r8, rdi
  000a3	8b d5		 mov	 edx, ebp
  000a5	49 8b c9	 mov	 rcx, r9
  000a8	4d 2b c1	 sub	 r8, r9
  000ab	49 d1 f8	 sar	 r8, 1
  000ae	4d 03 c0	 add	 r8, r8
  000b1	ff 15 00 00 00
	00		 call	 QWORD PTR __imp_memchr
  000b7	4c 8b c8	 mov	 r9, rax
  000ba	48 85 c0	 test	 rax, rax
  000bd	74 13		 je	 SHORT $LN74@ucs2lib_fi
  000bf	49 83 e1 fe	 and	 r9, -2
  000c3	66 41 39 31	 cmp	 WORD PTR [r9], si
  000c7	74 12		 je	 SHORT $LN85@ucs2lib_fi
  000c9	49 83 c1 02	 add	 r9, 2
  000cd	4c 3b cf	 cmp	 r9, rdi
  000d0	72 ce		 jb	 SHORT $LL75@ucs2lib_fi
$LN74@ucs2lib_fi:
  000d2	49 83 c9 ff	 or	 r9, -1
  000d6	e9 48 01 00 00	 jmp	 $LN68@ucs2lib_fi
$LN85@ucs2lib_fi:
  000db	4c 2b cb	 sub	 r9, rbx
  000de	49 d1 f9	 sar	 r9, 1
  000e1	e9 3d 01 00 00	 jmp	 $LN68@ucs2lib_fi
$LN62@ucs2lib_fi:
  000e6	45 33 c9	 xor	 r9d, r9d
  000e9	48 85 d2	 test	 rdx, rdx
  000ec	7e 17		 jle	 SHORT $LN66@ucs2lib_fi
  000ee	41 0f b7 00	 movzx	 eax, WORD PTR [r8]
$LL53@ucs2lib_fi:
  000f2	66 42 39 04 49	 cmp	 WORD PTR [rcx+r9*2], ax
  000f7	0f 84 26 01 00
	00		 je	 $LN68@ucs2lib_fi
  000fd	49 ff c1	 inc	 r9
  00100	4c 3b ca	 cmp	 r9, rdx
  00103	7c ed		 jl	 SHORT $LL53@ucs2lib_fi
$LN66@ucs2lib_fi:
  00105	49 83 c9 ff	 or	 r9, -1
$LN1@ucs2lib_fi:
  00109	4c 8b 7c 24 20	 mov	 r15, QWORD PTR [rsp+32]
  0010e	4c 8b 74 24 28	 mov	 r14, QWORD PTR [rsp+40]
  00113	48 8b 7c 24 68	 mov	 rdi, QWORD PTR [rsp+104]
  00118	48 8b 74 24 60	 mov	 rsi, QWORD PTR [rsp+96]
  0011d	48 8b 6c 24 50	 mov	 rbp, QWORD PTR [rsp+80]

; 23   : 
; 24   :     return pos;

  00122	49 8b c1	 mov	 rax, r9

; 25   : }

  00125	48 83 c4 30	 add	 rsp, 48			; 00000030H
  00129	41 5d		 pop	 r13
  0012b	41 5c		 pop	 r12
  0012d	5b		 pop	 rbx
  0012e	c3		 ret	 0

; 18   : 
; 19   :     pos = FASTSEARCH(str, str_len, sub, sub_len, -1, FAST_SEARCH);

$LN65@ucs2lib_fi:
  0012f	4d 8d 59 ff	 lea	 r11, QWORD PTR [r9-1]
  00133	45 33 c9	 xor	 r9d, r9d
  00136	4d 8d 7b ff	 lea	 r15, QWORD PTR [r11-1]
  0013a	45 8b f1	 mov	 r14d, r9d
  0013d	41 8b f9	 mov	 edi, r9d
  00140	45 8d 51 01	 lea	 r10d, QWORD PTR [r9+1]
  00144	4d 85 db	 test	 r11, r11
  00147	7e 34		 jle	 SHORT $LN41@ucs2lib_fi
  00149	43 0f b7 2c 58	 movzx	 ebp, WORD PTR [r8+r11*2]
  0014e	49 8b f7	 mov	 rsi, r15
$LL43@ucs2lib_fi:
  00151	45 0f b7 44 7d
	00		 movzx	 r8d, WORD PTR [r13+rdi*2]
  00157	41 8b d2	 mov	 edx, r10d
  0015a	41 8b c8	 mov	 ecx, r8d
  0015d	83 e1 1f	 and	 ecx, 31
  00160	d3 e2		 shl	 edx, cl
  00162	44 0b f2	 or	 r14d, edx
  00165	66 44 3b c5	 cmp	 r8w, bp
  00169	4c 0f 44 fe	 cmove	 r15, rsi
  0016d	48 ff c7	 inc	 rdi
  00170	48 ff ce	 dec	 rsi
  00173	49 3b fb	 cmp	 rdi, r11
  00176	7c d9		 jl	 SHORT $LL43@ucs2lib_fi
  00178	48 8b 6c 24 58	 mov	 rbp, QWORD PTR w$1$[rsp]
$LN41@ucs2lib_fi:
  0017d	43 0f b7 44 5d
	00		 movzx	 eax, WORD PTR [r13+r11*2]
  00183	83 e0 1f	 and	 eax, 31
  00186	0f b6 c8	 movzx	 ecx, al
  00189	41 d3 e2	 shl	 r10d, cl
  0018c	45 0b f2	 or	 r14d, r10d
  0018f	4d 8b d1	 mov	 r10, r9
  00192	48 85 ed	 test	 rbp, rbp
  00195	0f 88 6a ff ff
	ff		 js	 $LN66@ucs2lib_fi
  0019b	4b 8d 3c 24	 lea	 rdi, QWORD PTR [r12+r12]
  0019f	4b 8d 34 3f	 lea	 rsi, QWORD PTR [r15+r15]
  001a3	4c 8d 04 1f	 lea	 r8, QWORD PTR [rdi+rbx]
  001a7	49 2b dd	 sub	 rbx, r13
$LN97@ucs2lib_fi:
  001aa	42 0f b7 44 2f
	fe		 movzx	 eax, WORD PTR [rdi+r13-2]
  001b0	66 41 39 40 fe	 cmp	 WORD PTR [r8-2], ax
  001b5	75 3d		 jne	 SHORT $LN36@ucs2lib_fi
  001b7	49 8b d1	 mov	 rdx, r9
  001ba	4d 85 db	 test	 r11, r11
  001bd	7e 18		 jle	 SHORT $LN95@ucs2lib_fi
  001bf	49 8b cd	 mov	 rcx, r13
$LL35@ucs2lib_fi:
  001c2	0f b7 01	 movzx	 eax, WORD PTR [rcx]
  001c5	66 39 04 0b	 cmp	 WORD PTR [rbx+rcx], ax
  001c9	75 0c		 jne	 SHORT $LN95@ucs2lib_fi
  001cb	48 ff c2	 inc	 rdx
  001ce	48 83 c1 02	 add	 rcx, 2
  001d2	49 3b d3	 cmp	 rdx, r11
  001d5	7c eb		 jl	 SHORT $LL35@ucs2lib_fi
$LN95@ucs2lib_fi:
  001d7	49 3b d3	 cmp	 rdx, r11
  001da	74 44		 je	 SHORT $LN88@ucs2lib_fi
  001dc	41 0f b7 00	 movzx	 eax, WORD PTR [r8]
  001e0	83 e0 1f	 and	 eax, 31
  001e3	41 0f a3 c6	 bt	 r14d, eax
  001e7	73 18		 jae	 SHORT $LN96@ucs2lib_fi
  001e9	4d 03 d7	 add	 r10, r15
  001ec	48 03 de	 add	 rbx, rsi
  001ef	4c 03 c6	 add	 r8, rsi
  001f2	eb 16		 jmp	 SHORT $LN38@ucs2lib_fi
$LN36@ucs2lib_fi:
  001f4	41 0f b7 00	 movzx	 eax, WORD PTR [r8]
  001f8	83 e0 1f	 and	 eax, 31
  001fb	41 0f a3 c6	 bt	 r14d, eax
  001ff	72 09		 jb	 SHORT $LN38@ucs2lib_fi
$LN96@ucs2lib_fi:
  00201	4d 03 d4	 add	 r10, r12
  00204	48 03 df	 add	 rbx, rdi
  00207	4c 03 c7	 add	 r8, rdi
$LN38@ucs2lib_fi:
  0020a	49 ff c2	 inc	 r10
  0020d	48 83 c3 02	 add	 rbx, 2
  00211	49 83 c0 02	 add	 r8, 2
  00215	4c 3b d5	 cmp	 r10, rbp
  00218	0f 8f e7 fe ff
	ff		 jg	 $LN66@ucs2lib_fi
  0021e	eb 8a		 jmp	 SHORT $LN97@ucs2lib_fi
$LN88@ucs2lib_fi:
  00220	4d 8b ca	 mov	 r9, r10
$LN68@ucs2lib_fi:

; 20   : 
; 21   :     if (pos >= 0)

  00223	4d 85 c9	 test	 r9, r9
  00226	0f 88 dd fe ff
	ff		 js	 $LN1@ucs2lib_fi

; 22   :         pos += offset;

  0022c	4c 03 4c 24 70	 add	 r9, QWORD PTR offset$[rsp]
  00231	e9 d3 fe ff ff	 jmp	 $LN1@ucs2lib_fi
ucs2lib_find ENDP
_TEXT	ENDS
;	COMDAT pdata
; File c:\src\pyparallel\objects\stringlib\fastsearch.h
pdata	SEGMENT
$pdata$ucs2lib_rfind DD imagerel ucs2lib_rfind
	DD	imagerel ucs2lib_rfind+55
	DD	imagerel $unwind$ucs2lib_rfind
pdata	ENDS
;	COMDAT pdata
pdata	SEGMENT
$pdata$4$ucs2lib_rfind DD imagerel ucs2lib_rfind+55
	DD	imagerel ucs2lib_rfind+168
	DD	imagerel $chain$4$ucs2lib_rfind
pdata	ENDS
;	COMDAT pdata
pdata	SEGMENT
$pdata$6$ucs2lib_rfind DD imagerel ucs2lib_rfind+168
	DD	imagerel ucs2lib_rfind+405
	DD	imagerel $chain$6$ucs2lib_rfind
pdata	ENDS
;	COMDAT xdata
xdata	SEGMENT
$chain$6$ucs2lib_rfind DD 0a0021H
	DD	0e400H
	DD	07d400H
	DD	067400H
	DD	056400H
	DD	045400H
	DD	imagerel ucs2lib_rfind
	DD	imagerel ucs2lib_rfind+55
	DD	imagerel $unwind$ucs2lib_rfind
xdata	ENDS
;	COMDAT xdata
xdata	SEGMENT
$chain$4$ucs2lib_rfind DD 0a1b21H
	DD	0e41bH
	DD	07d417H
	DD	06740fH
	DD	05640aH
	DD	045405H
	DD	imagerel ucs2lib_rfind
	DD	imagerel ucs2lib_rfind+55
	DD	imagerel $unwind$ucs2lib_rfind
xdata	ENDS
;	COMDAT xdata
xdata	SEGMENT
$unwind$ucs2lib_rfind DD 030801H
	DD	0c0040208H
	DD	03002H
; Function compile flags: /Ogtpy
; File c:\src\pyparallel\objects\stringlib\find.h
xdata	ENDS
;	COMDAT ucs2lib_rfind
_TEXT	SEGMENT
str$ = 32
str_len$ = 40
sub$ = 48
sub_len$ = 56
offset$ = 64
ucs2lib_rfind PROC					; COMDAT

; 31   : {

  00000	40 53		 push	 rbx
  00002	41 54		 push	 r12
  00004	48 83 ec 08	 sub	 rsp, 8
  00008	4d 8b d9	 mov	 r11, r9
  0000b	4d 8b e0	 mov	 r12, r8
  0000e	48 8b d9	 mov	 rbx, rcx

; 32   :     Py_ssize_t pos;
; 33   : 
; 34   :     if (str_len < 0)

  00011	48 85 d2	 test	 rdx, rdx
  00014	79 0c		 jns	 SHORT $LN3@ucs2lib_rf

; 35   :         return -1;

  00016	48 83 c8 ff	 or	 rax, -1

; 43   : 
; 44   :     return pos;
; 45   : }

  0001a	48 83 c4 08	 add	 rsp, 8
  0001e	41 5c		 pop	 r12
  00020	5b		 pop	 rbx
  00021	c3		 ret	 0
$LN3@ucs2lib_rf:

; 36   :     if (sub_len == 0)

  00022	4d 85 c9	 test	 r9, r9
  00025	75 10		 jne	 SHORT $LN2@ucs2lib_rf

; 37   :         return str_len + offset;

  00027	48 8b 44 24 40	 mov	 rax, QWORD PTR offset$[rsp]
  0002c	48 03 c2	 add	 rax, rdx

; 43   : 
; 44   :     return pos;
; 45   : }

  0002f	48 83 c4 08	 add	 rsp, 8
  00033	41 5c		 pop	 r12
  00035	5b		 pop	 rbx
  00036	c3		 ret	 0
$LN2@ucs2lib_rf:
  00037	48 89 6c 24 20	 mov	 QWORD PTR [rsp+32], rbp
  0003c	48 89 74 24 28	 mov	 QWORD PTR [rsp+40], rsi
  00041	48 89 7c 24 30	 mov	 QWORD PTR [rsp+48], rdi

; 38   : 
; 39   :     pos = FASTSEARCH(str, str_len, sub, sub_len, -1, FAST_RSEARCH);

  00046	4c 8b ca	 mov	 r9, rdx
  00049	4c 89 6c 24 38	 mov	 QWORD PTR [rsp+56], r13
  0004e	4c 89 34 24	 mov	 QWORD PTR [rsp], r14
  00052	4d 2b cb	 sub	 r9, r11
  00055	78 2d		 js	 SHORT $LN66@ucs2lib_rf
  00057	49 83 fb 01	 cmp	 r11, 1
  0005b	7f 4b		 jg	 SHORT $LN65@ucs2lib_rf
  0005d	4d 85 db	 test	 r11, r11
  00060	7e 22		 jle	 SHORT $LN66@ucs2lib_rf
  00062	4c 8d 4a ff	 lea	 r9, QWORD PTR [rdx-1]
  00066	49 83 f9 ff	 cmp	 r9, -1
  0006a	7e 18		 jle	 SHORT $LN66@ucs2lib_rf
  0006c	41 0f b7 00	 movzx	 eax, WORD PTR [r8]
$LL48@ucs2lib_rf:
  00070	66 42 39 04 49	 cmp	 WORD PTR [rcx+r9*2], ax
  00075	0f 84 01 01 00
	00		 je	 $LN85@ucs2lib_rf
  0007b	49 ff c9	 dec	 r9
  0007e	49 83 f9 ff	 cmp	 r9, -1
  00082	7f ec		 jg	 SHORT $LL48@ucs2lib_rf
$LN66@ucs2lib_rf:
  00084	48 83 c8 ff	 or	 rax, -1
$LN1@ucs2lib_rf:
  00088	4c 8b 34 24	 mov	 r14, QWORD PTR [rsp]
  0008c	4c 8b 6c 24 38	 mov	 r13, QWORD PTR [rsp+56]
  00091	48 8b 7c 24 30	 mov	 rdi, QWORD PTR [rsp+48]
  00096	48 8b 74 24 28	 mov	 rsi, QWORD PTR [rsp+40]
  0009b	48 8b 6c 24 20	 mov	 rbp, QWORD PTR [rsp+32]

; 43   : 
; 44   :     return pos;
; 45   : }

  000a0	48 83 c4 08	 add	 rsp, 8
  000a4	41 5c		 pop	 r12
  000a6	5b		 pop	 rbx
  000a7	c3		 ret	 0

; 38   : 
; 39   :     pos = FASTSEARCH(str, str_len, sub, sub_len, -1, FAST_RSEARCH);

$LN65@ucs2lib_rf:
  000a8	45 0f b7 30	 movzx	 r14d, WORD PTR [r8]
  000ac	49 8d 73 ff	 lea	 rsi, QWORD PTR [r11-1]
  000b0	bd 01 00 00 00	 mov	 ebp, 1
  000b5	41 8b ce	 mov	 ecx, r14d
  000b8	48 8d 7e ff	 lea	 rdi, QWORD PTR [rsi-1]
  000bc	4c 8b d6	 mov	 r10, rsi
  000bf	83 e1 1f	 and	 ecx, 31
  000c2	d3 e5		 shl	 ebp, cl
  000c4	48 85 f6	 test	 rsi, rsi
  000c7	7e 2d		 jle	 SHORT $LN21@ucs2lib_rf
  000c9	0f 1f 80 00 00
	00 00		 npad	 7
$LL23@ucs2lib_rf:
  000d0	47 0f b7 04 54	 movzx	 r8d, WORD PTR [r12+r10*2]
  000d5	ba 01 00 00 00	 mov	 edx, 1
  000da	41 8b c8	 mov	 ecx, r8d
  000dd	83 e1 1f	 and	 ecx, 31
  000e0	d3 e2		 shl	 edx, cl
  000e2	0b ea		 or	 ebp, edx
  000e4	66 45 3b c6	 cmp	 r8w, r14w
  000e8	75 04		 jne	 SHORT $LN22@ucs2lib_rf
  000ea	49 8d 7a ff	 lea	 rdi, QWORD PTR [r10-1]
$LN22@ucs2lib_rf:
  000ee	49 ff ca	 dec	 r10
  000f1	4d 85 d2	 test	 r10, r10
  000f4	7f da		 jg	 SHORT $LL23@ucs2lib_rf
$LN21@ucs2lib_rf:
  000f6	4b 8d 14 09	 lea	 rdx, QWORD PTR [r9+r9]
  000fa	4f 8d 14 1b	 lea	 r10, QWORD PTR [r11+r11]
  000fe	4c 8d 2c 3f	 lea	 r13, QWORD PTR [rdi+rdi]
  00102	49 2b d4	 sub	 rdx, r12
  00105	48 03 d3	 add	 rdx, rbx
$LL19@ucs2lib_rf:
  00108	66 46 39 34 4b	 cmp	 WORD PTR [rbx+r9*2], r14w
  0010d	75 46		 jne	 SHORT $LN16@ucs2lib_rf
  0010f	4c 8b c6	 mov	 r8, rsi
  00112	48 85 f6	 test	 rsi, rsi
  00115	7e 1e		 jle	 SHORT $LN91@ucs2lib_rf
  00117	49 8d 0c 74	 lea	 rcx, QWORD PTR [r12+rsi*2]
  0011b	0f 1f 44 00 00	 npad	 5
$LL15@ucs2lib_rf:
  00120	0f b7 01	 movzx	 eax, WORD PTR [rcx]
  00123	66 39 04 0a	 cmp	 WORD PTR [rdx+rcx], ax
  00127	75 0c		 jne	 SHORT $LN91@ucs2lib_rf
  00129	49 ff c8	 dec	 r8
  0012c	48 83 e9 02	 sub	 rcx, 2
  00130	4d 85 c0	 test	 r8, r8
  00133	7f eb		 jg	 SHORT $LL15@ucs2lib_rf
$LN91@ucs2lib_rf:
  00135	4d 85 c0	 test	 r8, r8
  00138	74 42		 je	 SHORT $LN85@ucs2lib_rf
  0013a	4d 85 c9	 test	 r9, r9
  0013d	7e 0e		 jle	 SHORT $LN10@ucs2lib_rf
  0013f	42 0f b7 44 4b
	fe		 movzx	 eax, WORD PTR [rbx+r9*2-2]
  00145	83 e0 1f	 and	 eax, 31
  00148	0f a3 c5	 bt	 ebp, eax
  0014b	73 1b		 jae	 SHORT $LN92@ucs2lib_rf
$LN10@ucs2lib_rf:
  0014d	4c 2b cf	 sub	 r9, rdi
  00150	49 2b d5	 sub	 rdx, r13
  00153	eb 19		 jmp	 SHORT $LN18@ucs2lib_rf
$LN16@ucs2lib_rf:
  00155	4d 85 c9	 test	 r9, r9
  00158	7e 14		 jle	 SHORT $LN18@ucs2lib_rf
  0015a	42 0f b7 44 4b
	fe		 movzx	 eax, WORD PTR [rbx+r9*2-2]
  00160	83 e0 1f	 and	 eax, 31
  00163	0f a3 c5	 bt	 ebp, eax
  00166	72 06		 jb	 SHORT $LN18@ucs2lib_rf
$LN92@ucs2lib_rf:
  00168	4d 2b cb	 sub	 r9, r11
  0016b	49 2b d2	 sub	 rdx, r10
$LN18@ucs2lib_rf:
  0016e	48 83 ea 02	 sub	 rdx, 2
  00172	49 ff c9	 dec	 r9
  00175	79 91		 jns	 SHORT $LL19@ucs2lib_rf
  00177	e9 08 ff ff ff	 jmp	 $LN66@ucs2lib_rf
$LN85@ucs2lib_rf:
  0017c	49 8b c1	 mov	 rax, r9

; 40   : 
; 41   :     if (pos >= 0)

  0017f	4d 85 c9	 test	 r9, r9
  00182	0f 88 00 ff ff
	ff		 js	 $LN1@ucs2lib_rf

; 42   :         pos += offset;

  00188	48 8b 44 24 40	 mov	 rax, QWORD PTR offset$[rsp]
  0018d	49 03 c1	 add	 rax, r9
  00190	e9 f3 fe ff ff	 jmp	 $LN1@ucs2lib_rf
ucs2lib_rfind ENDP
_TEXT	ENDS
;	COMDAT pdata
pdata	SEGMENT
$pdata$ucs2lib_find_slice DD imagerel ucs2lib_find_slice
	DD	imagerel ucs2lib_find_slice+76
	DD	imagerel $unwind$ucs2lib_find_slice
pdata	ENDS
;	COMDAT xdata
xdata	SEGMENT
$unwind$ucs2lib_find_slice DD 010401H
	DD	06204H
; Function compile flags: /Ogtpy
xdata	ENDS
;	COMDAT ucs2lib_find_slice
_TEXT	SEGMENT
str$ = 64
str_len$ = 72
sub$ = 80
sub_len$ = 88
start$ = 96
end$ = 104
ucs2lib_find_slice PROC					; COMDAT

; 66   : {

  00000	48 83 ec 38	 sub	 rsp, 56			; 00000038H
  00004	4c 8b d2	 mov	 r10, rdx

; 67   :     ADJUST_INDICES(start, end, str_len);

  00007	48 8b 54 24 68	 mov	 rdx, QWORD PTR end$[rsp]
  0000c	45 33 db	 xor	 r11d, r11d
  0000f	49 3b d2	 cmp	 rdx, r10
  00012	7e 05		 jle	 SHORT $LN6@ucs2lib_fi@2
  00014	49 8b d2	 mov	 rdx, r10
  00017	eb 0c		 jmp	 SHORT $LN3@ucs2lib_fi@2
$LN6@ucs2lib_fi@2:
  00019	48 85 d2	 test	 rdx, rdx
  0001c	79 07		 jns	 SHORT $LN3@ucs2lib_fi@2
  0001e	49 03 d2	 add	 rdx, r10
  00021	49 0f 48 d3	 cmovs	 rdx, r11
$LN3@ucs2lib_fi@2:
  00025	48 8b 44 24 60	 mov	 rax, QWORD PTR start$[rsp]
  0002a	48 85 c0	 test	 rax, rax
  0002d	79 07		 jns	 SHORT $LN1@ucs2lib_fi@2
  0002f	49 03 c2	 add	 rax, r10
  00032	49 0f 48 c3	 cmovs	 rax, r11
$LN1@ucs2lib_fi@2:

; 68   :     return STRINGLIB(find)(str + start, end - start, sub, sub_len, start);

  00036	48 8d 0c 41	 lea	 rcx, QWORD PTR [rcx+rax*2]
  0003a	48 2b d0	 sub	 rdx, rax
  0003d	48 89 44 24 20	 mov	 QWORD PTR [rsp+32], rax
  00042	e8 00 00 00 00	 call	 ucs2lib_find

; 69   : }

  00047	48 83 c4 38	 add	 rsp, 56			; 00000038H
  0004b	c3		 ret	 0
ucs2lib_find_slice ENDP
_TEXT	ENDS
;	COMDAT pdata
pdata	SEGMENT
$pdata$ucs2lib_rfind_slice DD imagerel ucs2lib_rfind_slice
	DD	imagerel ucs2lib_rfind_slice+76
	DD	imagerel $unwind$ucs2lib_rfind_slice
pdata	ENDS
;	COMDAT xdata
xdata	SEGMENT
$unwind$ucs2lib_rfind_slice DD 010401H
	DD	06204H
; Function compile flags: /Ogtpy
xdata	ENDS
;	COMDAT ucs2lib_rfind_slice
_TEXT	SEGMENT
str$ = 64
str_len$ = 72
sub$ = 80
sub_len$ = 88
start$ = 96
end$ = 104
ucs2lib_rfind_slice PROC				; COMDAT

; 75   : {

  00000	48 83 ec 38	 sub	 rsp, 56			; 00000038H
  00004	4c 8b d2	 mov	 r10, rdx

; 76   :     ADJUST_INDICES(start, end, str_len);

  00007	48 8b 54 24 68	 mov	 rdx, QWORD PTR end$[rsp]
  0000c	45 33 db	 xor	 r11d, r11d
  0000f	49 3b d2	 cmp	 rdx, r10
  00012	7e 05		 jle	 SHORT $LN6@ucs2lib_rf@2
  00014	49 8b d2	 mov	 rdx, r10
  00017	eb 0c		 jmp	 SHORT $LN3@ucs2lib_rf@2
$LN6@ucs2lib_rf@2:
  00019	48 85 d2	 test	 rdx, rdx
  0001c	79 07		 jns	 SHORT $LN3@ucs2lib_rf@2
  0001e	49 03 d2	 add	 rdx, r10
  00021	49 0f 48 d3	 cmovs	 rdx, r11
$LN3@ucs2lib_rf@2:
  00025	48 8b 44 24 60	 mov	 rax, QWORD PTR start$[rsp]
  0002a	48 85 c0	 test	 rax, rax
  0002d	79 07		 jns	 SHORT $LN1@ucs2lib_rf@2
  0002f	49 03 c2	 add	 rax, r10
  00032	49 0f 48 c3	 cmovs	 rax, r11
$LN1@ucs2lib_rf@2:

; 77   :     return STRINGLIB(rfind)(str + start, end - start, sub, sub_len, start);

  00036	48 8d 0c 41	 lea	 rcx, QWORD PTR [rcx+rax*2]
  0003a	48 2b d0	 sub	 rdx, rax
  0003d	48 89 44 24 20	 mov	 QWORD PTR [rsp+32], rax
  00042	e8 00 00 00 00	 call	 ucs2lib_rfind

; 78   : }

  00047	48 83 c4 38	 add	 rsp, 56			; 00000038H
  0004b	c3		 ret	 0
ucs2lib_rfind_slice ENDP
; Function compile flags: /Ogtpy
; File c:\src\pyparallel\objects\stringlib\find_max_char.h
_TEXT	ENDS
;	COMDAT ucs2lib_find_max_char
_TEXT	SEGMENT
begin$ = 8
end$ = 16
ucs2lib_find_max_char PROC				; COMDAT

; 60   : #if STRINGLIB_SIZEOF_CHAR == 2
; 61   :     const Py_UCS4 mask_limit = MASK_UCS1;
; 62   :     const Py_UCS4 max_char_limit = MAX_CHAR_UCS2;
; 63   : #elif STRINGLIB_SIZEOF_CHAR == 4
; 64   :     const Py_UCS4 mask_limit = MASK_UCS2;
; 65   :     const Py_UCS4 max_char_limit = MAX_CHAR_UCS4;
; 66   : #else
; 67   : #error Invalid STRINGLIB_SIZEOF_CHAR (must be 1, 2 or 4)
; 68   : #endif
; 69   :     register Py_UCS4 mask;
; 70   :     Py_ssize_t n = end - begin;

  00000	48 8b c2	 mov	 rax, rdx
  00003	4c 8b c9	 mov	 r9, rcx

; 71   :     const STRINGLIB_CHAR *p = begin;
; 72   :     const STRINGLIB_CHAR *unrolled_end = begin + _Py_SIZE_ROUND_DOWN(n, 4);
; 73   :     Py_UCS4 max_char;
; 74   : 
; 75   :     max_char = MAX_CHAR_ASCII;

  00006	41 ba 7f 00 00
	00		 mov	 r10d, 127		; 0000007fH
  0000c	48 2b c1	 sub	 rax, rcx

; 76   :     mask = MASK_ASCII;

  0000f	41 b8 80 ff ff
	ff		 mov	 r8d, -128		; ffffff80H
  00015	48 d1 f8	 sar	 rax, 1
  00018	48 83 e0 fc	 and	 rax, -4
  0001c	4c 8d 1c 41	 lea	 r11, QWORD PTR [rcx+rax*2]

; 77   :     while (p < unrolled_end) {

  00020	49 3b cb	 cmp	 rcx, r11
$LN25@ucs2lib_fi@3:
  00023	73 5e		 jae	 SHORT $LN18@ucs2lib_fi@3

; 78   :         STRINGLIB_CHAR bits = p[0] | p[1] | p[2] | p[3];
; 79   :         if (bits & mask) {

  00025	41 0f b7 41 04	 movzx	 eax, WORD PTR [r9+4]
  0002a	41 0f b7 49 06	 movzx	 ecx, WORD PTR [r9+6]
  0002f	0b c8		 or	 ecx, eax
  00031	41 0f b7 41 02	 movzx	 eax, WORD PTR [r9+2]
  00036	0b c8		 or	 ecx, eax
  00038	41 0f b7 01	 movzx	 eax, WORD PTR [r9]
  0003c	0b c8		 or	 ecx, eax
  0003e	41 85 c8	 test	 ecx, r8d
  00041	74 31		 je	 SHORT $LN10@ucs2lib_fi@3

; 80   :             if (mask == mask_limit) {

  00043	41 81 f8 00 ff
	ff ff		 cmp	 r8d, -256		; ffffff00H
  0004a	74 31		 je	 SHORT $LN19@ucs2lib_fi@3

; 83   :             }
; 84   :             if (mask == MASK_ASCII) {

  0004c	41 83 f8 80	 cmp	 r8d, -128		; ffffff80H
  00050	75 11		 jne	 SHORT $LN8@ucs2lib_fi@3

; 85   :                 max_char = MAX_CHAR_UCS1;

  00052	41 ba ff 00 00
	00		 mov	 r10d, 255		; 000000ffH

; 86   :                 mask = MASK_UCS1;

  00058	41 b8 00 ff ff
	ff		 mov	 r8d, -256		; ffffff00H
  0005e	4d 3b cb	 cmp	 r9, r11
  00061	eb c0		 jmp	 SHORT $LN25@ucs2lib_fi@3
$LN8@ucs2lib_fi@3:

; 87   :             }
; 88   :             else {
; 89   :                 /* mask can't be MASK_UCS2 because of mask_limit above */
; 90   :                 assert(mask == MASK_UCS1);
; 91   :                 max_char = MAX_CHAR_UCS2;

  00063	41 ba ff ff 00
	00		 mov	 r10d, 65535		; 0000ffffH

; 92   :                 mask = MASK_UCS2;

  00069	41 b8 00 00 ff
	ff		 mov	 r8d, -65536		; ffff0000H
  0006f	4d 3b cb	 cmp	 r9, r11
  00072	eb af		 jmp	 SHORT $LN25@ucs2lib_fi@3
$LN10@ucs2lib_fi@3:

; 93   :             }
; 94   :             /* We check the new mask on the same chars in the next iteration */
; 95   :             continue;
; 96   :         }
; 97   :         p += 4;

  00074	49 83 c1 08	 add	 r9, 8
  00078	4d 3b cb	 cmp	 r9, r11
  0007b	eb a6		 jmp	 SHORT $LN25@ucs2lib_fi@3
$LN19@ucs2lib_fi@3:

; 81   :                 /* Limit reached */
; 82   :                 return max_char_limit;

  0007d	b8 ff ff 00 00	 mov	 eax, 65535		; 0000ffffH

; 121  : }

  00082	c3		 ret	 0
$LN18@ucs2lib_fi@3:

; 98   :     }
; 99   :     while (p < end) {

  00083	4c 3b ca	 cmp	 r9, rdx
  00086	73 3a		 jae	 SHORT $LN24@ucs2lib_fi@3

; 100  :         if (p[0] & mask) {

  00088	41 0f b7 01	 movzx	 eax, WORD PTR [r9]
  0008c	41 85 c0	 test	 eax, r8d
  0008f	74 2b		 je	 SHORT $LN4@ucs2lib_fi@3

; 101  :             if (mask == mask_limit) {

  00091	41 81 f8 00 ff
	ff ff		 cmp	 r8d, -256		; ffffff00H
  00098	74 e3		 je	 SHORT $LN19@ucs2lib_fi@3

; 102  :                 /* Limit reached */
; 103  :                 return max_char_limit;
; 104  :             }
; 105  :             if (mask == MASK_ASCII) {

  0009a	41 83 f8 80	 cmp	 r8d, -128		; ffffff80H
  0009e	75 0e		 jne	 SHORT $LN2@ucs2lib_fi@3

; 106  :                 max_char = MAX_CHAR_UCS1;

  000a0	41 ba ff 00 00
	00		 mov	 r10d, 255		; 000000ffH

; 107  :                 mask = MASK_UCS1;

  000a6	41 b8 00 ff ff
	ff		 mov	 r8d, -256		; ffffff00H

; 108  :             }
; 109  :             else {

  000ac	eb d5		 jmp	 SHORT $LN18@ucs2lib_fi@3
$LN2@ucs2lib_fi@3:

; 110  :                 /* mask can't be MASK_UCS2 because of mask_limit above */
; 111  :                 assert(mask == MASK_UCS1);
; 112  :                 max_char = MAX_CHAR_UCS2;

  000ae	41 ba ff ff 00
	00		 mov	 r10d, 65535		; 0000ffffH

; 113  :                 mask = MASK_UCS2;

  000b4	41 b8 00 00 ff
	ff		 mov	 r8d, -65536		; ffff0000H

; 114  :             }
; 115  :             /* We check the new mask on the same chars in the next iteration */
; 116  :             continue;

  000ba	eb c7		 jmp	 SHORT $LN18@ucs2lib_fi@3
$LN4@ucs2lib_fi@3:

; 117  :         }
; 118  :         p++;

  000bc	49 83 c1 02	 add	 r9, 2

; 98   :     }
; 99   :     while (p < end) {

  000c0	eb c1		 jmp	 SHORT $LN18@ucs2lib_fi@3
$LN24@ucs2lib_fi@3:

; 119  :     }
; 120  :     return max_char;

  000c2	41 8b c2	 mov	 eax, r10d

; 121  : }

  000c5	c3		 ret	 0
ucs2lib_find_max_char ENDP
; Function compile flags: /Ogtpy
; File c:\src\pyparallel\objects\stringlib\localeutil.h
_TEXT	ENDS
;	COMDAT ucs2lib_GroupGenerator_init
_TEXT	SEGMENT
self$ = 8
grouping$ = 16
ucs2lib_GroupGenerator_init PROC			; COMDAT

; 18   :     self->grouping = grouping;

  00000	48 89 11	 mov	 QWORD PTR [rcx], rdx

; 19   :     self->i = 0;

  00003	48 c7 41 10 00
	00 00 00	 mov	 QWORD PTR [rcx+16], 0

; 20   :     self->previous = 0;

  0000b	c6 41 08 00	 mov	 BYTE PTR [rcx+8], 0

; 21   : }

  0000f	c3		 ret	 0
ucs2lib_GroupGenerator_init ENDP
; Function compile flags: /Ogtpy
_TEXT	ENDS
;	COMDAT ucs2lib_GroupGenerator_next
_TEXT	SEGMENT
self$ = 8
ucs2lib_GroupGenerator_next PROC			; COMDAT

; 27   :     /* Note that we don't really do much error checking here. If a
; 28   :        grouping string contains just CHAR_MAX, for example, then just
; 29   :        terminate the generator. That shouldn't happen, but at least we
; 30   :        fail gracefully. */
; 31   :     switch (self->grouping[self->i]) {

  00000	48 8b 01	 mov	 rax, QWORD PTR [rcx]
  00003	4c 8b 41 10	 mov	 r8, QWORD PTR [rcx+16]
  00007	41 0f b6 14 00	 movzx	 edx, BYTE PTR [r8+rax]
  0000c	0f b6 c2	 movzx	 eax, dl
  0000f	84 d2		 test	 dl, dl
  00011	74 17		 je	 SHORT $LN3@ucs2lib_Gr
  00013	3c 7f		 cmp	 al, 127			; 0000007fH
  00015	74 10		 je	 SHORT $LN2@ucs2lib_Gr

; 37   :     default: {
; 38   :         char ch = self->grouping[self->i];
; 39   :         self->previous = ch;
; 40   :         self->i++;

  00017	49 8d 40 01	 lea	 rax, QWORD PTR [r8+1]
  0001b	88 51 08	 mov	 BYTE PTR [rcx+8], dl
  0001e	48 89 41 10	 mov	 QWORD PTR [rcx+16], rax

; 41   :         return (Py_ssize_t)ch;

  00022	48 0f be c2	 movsx	 rax, dl

; 42   :     }
; 43   :     }
; 44   : }

  00026	c3		 ret	 0
$LN2@ucs2lib_Gr:

; 34   :     case CHAR_MAX:
; 35   :         /* Stop the generator. */
; 36   :         return 0;

  00027	33 c0		 xor	 eax, eax

; 42   :     }
; 43   :     }
; 44   : }

  00029	c3		 ret	 0
$LN3@ucs2lib_Gr:

; 32   :     case 0:
; 33   :         return self->previous;

  0002a	48 0f be 41 08	 movsx	 rax, BYTE PTR [rcx+8]

; 42   :     }
; 43   :     }
; 44   : }

  0002f	c3		 ret	 0
ucs2lib_GroupGenerator_next ENDP
_TEXT	ENDS
;	COMDAT pdata
pdata	SEGMENT
$pdata$ucs2lib_fill DD imagerel ucs2lib_fill
	DD	imagerel ucs2lib_fill+149
	DD	imagerel $unwind$ucs2lib_fill
pdata	ENDS
;	COMDAT xdata
xdata	SEGMENT
$unwind$ucs2lib_fill DD 081401H
	DD	086414H
	DD	075414H
	DD	063414H
	DD	070103214H
; Function compile flags: /Ogtpy
xdata	ENDS
;	COMDAT ucs2lib_fill
_TEXT	SEGMENT
digits_end$ = 48
buffer_end$ = 56
n_chars$ = 64
n_zeros$ = 72
thousands_sep$ = 80
thousands_sep_len$ = 88
ucs2lib_fill PROC					; COMDAT

; 52   : {

  00000	48 89 5c 24 08	 mov	 QWORD PTR [rsp+8], rbx
  00005	48 89 6c 24 10	 mov	 QWORD PTR [rsp+16], rbp
  0000a	48 89 74 24 18	 mov	 QWORD PTR [rsp+24], rsi
  0000f	57		 push	 rdi
  00010	48 83 ec 20	 sub	 rsp, 32			; 00000020H
  00014	48 8b da	 mov	 rbx, rdx

; 53   :     Py_ssize_t i;
; 54   : 
; 55   :     if (thousands_sep) {

  00017	48 8b 54 24 50	 mov	 rdx, QWORD PTR thousands_sep$[rsp]
  0001c	49 8b f9	 mov	 rdi, r9
  0001f	49 8b e8	 mov	 rbp, r8
  00022	48 8b f1	 mov	 rsi, rcx
  00025	48 85 d2	 test	 rdx, rdx
  00028	74 14		 je	 SHORT $LN4@ucs2lib_fi@4

; 56   :         *buffer_end -= thousands_sep_len;

  0002a	48 8b 44 24 58	 mov	 rax, QWORD PTR thousands_sep_len$[rsp]
  0002f	4c 8d 04 00	 lea	 r8, QWORD PTR [rax+rax]
  00033	4c 29 03	 sub	 QWORD PTR [rbx], r8

; 57   : 
; 58   :         /* Copy the thousands_sep chars into the buffer. */
; 59   :         memcpy(*buffer_end, thousands_sep,
; 60   :                thousands_sep_len * STRINGLIB_SIZEOF_CHAR);

  00036	48 8b 0b	 mov	 rcx, QWORD PTR [rbx]
  00039	e8 00 00 00 00	 call	 memcpy
$LN4@ucs2lib_fi@4:

; 61   :     }
; 62   : 
; 63   :     *buffer_end -= n_chars;

  0003e	4c 8d 44 2d 00	 lea	 r8, QWORD PTR [rbp+rbp]
  00043	4c 29 03	 sub	 QWORD PTR [rbx], r8

; 64   :     *digits_end -= n_chars;

  00046	4c 29 06	 sub	 QWORD PTR [rsi], r8

; 65   :     memcpy(*buffer_end, *digits_end, n_chars * sizeof(STRINGLIB_CHAR));

  00049	48 8b 16	 mov	 rdx, QWORD PTR [rsi]
  0004c	48 8b 0b	 mov	 rcx, QWORD PTR [rbx]
  0004f	e8 00 00 00 00	 call	 memcpy

; 66   : 
; 67   :     *buffer_end -= n_zeros;

  00054	4c 8b df	 mov	 r11, rdi

; 68   :     for (i = 0; i < n_zeros; i++)

  00057	33 c9		 xor	 ecx, ecx
  00059	49 f7 db	 neg	 r11
  0005c	4d 03 db	 add	 r11, r11
  0005f	4c 01 1b	 add	 QWORD PTR [rbx], r11
  00062	48 85 ff	 test	 rdi, rdi
  00065	7e 19		 jle	 SHORT $LN1@ucs2lib_fi@4
  00067	ba 30 00 00 00	 mov	 edx, 48			; 00000030H
  0006c	0f 1f 40 00	 npad	 4
$LL3@ucs2lib_fi@4:

; 69   :         (*buffer_end)[i] = '0';

  00070	48 8b 03	 mov	 rax, QWORD PTR [rbx]
  00073	48 ff c1	 inc	 rcx
  00076	66 89 54 48 fe	 mov	 WORD PTR [rax+rcx*2-2], dx
  0007b	48 3b cf	 cmp	 rcx, rdi
  0007e	7c f0		 jl	 SHORT $LL3@ucs2lib_fi@4
$LN1@ucs2lib_fi@4:

; 70   : }

  00080	48 8b 5c 24 30	 mov	 rbx, QWORD PTR [rsp+48]
  00085	48 8b 6c 24 38	 mov	 rbp, QWORD PTR [rsp+56]
  0008a	48 8b 74 24 40	 mov	 rsi, QWORD PTR [rsp+64]
  0008f	48 83 c4 20	 add	 rsp, 32			; 00000020H
  00093	5f		 pop	 rdi
  00094	c3		 ret	 0
ucs2lib_fill ENDP
_TEXT	ENDS
;	COMDAT pdata
pdata	SEGMENT
$pdata$ucs2lib_InsertThousandsGrouping DD imagerel ucs2lib_InsertThousandsGrouping
	DD	imagerel ucs2lib_InsertThousandsGrouping+462
	DD	imagerel $unwind$ucs2lib_InsertThousandsGrouping
pdata	ENDS
;	COMDAT xdata
xdata	SEGMENT
$unwind$ucs2lib_InsertThousandsGrouping DD 0b7001H
	DD	0a7470H
	DD	013546bH
	DD	0f00fa213H
	DD	0d00be00dH
	DD	06007c009H
	DD	03006H
; Function compile flags: /Ogtpy
xdata	ENDS
;	COMDAT ucs2lib_InsertThousandsGrouping
_TEXT	SEGMENT
digits_end$ = 48
groupgen$ = 56
buffer$ = 144
n_buffer$ = 152
digits$ = 160
buffer_end$ = 168
n_digits$ = 168
min_width$ = 176
grouping$ = 184
thousands_sep$ = 192
thousands_sep_len$ = 200
ucs2lib_InsertThousandsGrouping PROC			; COMDAT

; 112  : {

  00000	48 89 4c 24 08	 mov	 QWORD PTR [rsp+8], rcx
  00005	53		 push	 rbx
  00006	56		 push	 rsi
  00007	41 54		 push	 r12
  00009	41 55		 push	 r13
  0000b	41 56		 push	 r14
  0000d	41 57		 push	 r15
  0000f	48 83 ec 58	 sub	 rsp, 88			; 00000058H

; 113  :     Py_ssize_t count = 0;

  00013	45 33 e4	 xor	 r12d, r12d
  00016	48 8b c2	 mov	 rax, rdx

; 114  :     Py_ssize_t n_zeros;
; 115  :     int loop_broken = 0;
; 116  :     int use_separator = 0; /* First time through, don't append the
; 117  :                               separator. They only go between
; 118  :                               groups. */
; 119  :     STRINGLIB_CHAR *buffer_end = NULL;
; 120  :     STRINGLIB_CHAR *digits_end = NULL;
; 121  :     Py_ssize_t l;
; 122  :     Py_ssize_t n_chars;
; 123  :     Py_ssize_t remaining = n_digits; /* Number of chars remaining to
; 124  :                                         be looked at */
; 125  :     /* A generator that returns all of the grouping widths, until it
; 126  :        returns 0. */
; 127  :     STRINGLIB(GroupGenerator) groupgen;
; 128  :     STRINGLIB(GroupGenerator_init)(&groupgen, grouping);

  00019	48 8b 94 24 b8
	00 00 00	 mov	 rdx, QWORD PTR grouping$[rsp]
  00021	4c 8b d9	 mov	 r11, rcx
  00024	48 8d 4c 24 38	 lea	 rcx, QWORD PTR groupgen$[rsp]
  00029	49 8b f1	 mov	 rsi, r9
  0002c	45 8b fc	 mov	 r15d, r12d
  0002f	45 8b d4	 mov	 r10d, r12d
  00032	4c 89 a4 24 a8
	00 00 00	 mov	 QWORD PTR buffer_end$[rsp], r12
  0003a	4c 89 64 24 30	 mov	 QWORD PTR digits_end$[rsp], r12
  0003f	e8 00 00 00 00	 call	 ucs2lib_GroupGenerator_init

; 129  : 
; 130  :     if (buffer) {

