; Listing generated by Microsoft (R) Optimizing Compiler Version 16.00.40219.01 

include listing.inc

INCLUDELIB MSVCRT
INCLUDELIB OLDNAMES

PUBLIC	_PyUnicode_TypeRecords
PUBLIC	_PyUnicode_ExtendedCase
_DATA	SEGMENT
index1	DB	00H
	DB	01H
	DB	02H
	DB	03H
	DB	04H
	DB	05H
	DB	06H
	DB	07H
	DB	08H
	DB	09H
	DB	0aH
	DB	0bH
	DB	0cH
	DB	0dH
	DB	0eH
	DB	0fH
	DB	010H
	DB	011H
	DB	012H
	DB	013H
	DB	014H
	DB	015H
	DB	016H
	DB	017H
	DB	018H
	DB	019H
	DB	01aH
	DB	01bH
	DB	01cH
	DB	01dH
	DB	01eH
	DB	01fH
	DB	020H
	DB	021H
	DB	022H
	DB	022H
	DB	023H
	DB	024H
	DB	025H
	DB	026H
	DB	027H
	DB	022H
	DB	022H
	DB	022H
	DB	028H
	DB	029H
	DB	02aH
	DB	02bH
	DB	02cH
	DB	02dH
	DB	02eH
	DB	02fH
	DB	030H
	DB	031H
	DB	032H
	DB	033H
	DB	034H
	DB	035H
	DB	036H
	DB	037H
	DB	038H
	DB	039H
	DB	03aH
	DB	03bH
	DB	03cH
	DB	03dH
	DB	03eH
	DB	03fH
	DB	040H
	DB	040H
	DB	040H
	DB	041H
	DB	042H
	DB	043H
	DB	040H
	DB	040H
	DB	040H
	DB	040H
	DB	044H
	DB	045H
	DB	040H
	DB	040H
	DB	040H
	DB	040H
	DB	040H
	DB	040H
	DB	046H
	DB	047H
	DB	048H
	DB	049H
	DB	04aH
	DB	04bH
	DB	04cH
	DB	04dH
	DB	040H
	DB	04eH
	DB	04fH
	DB	050H
	DB	051H
	DB	052H
	DB	053H
	DB	054H
	DB	040H
	DB	040H
	DB	055H
	DB	056H
	DB	022H
	DB	022H
	DB	022H
	DB	022H
	DB	022H
	DB	022H
	DB	057H
	DB	022H
	DB	022H
	DB	022H
	DB	022H
	DB	022H
	DB	058H
	DB	022H
	DB	022H
	DB	022H
	DB	022H
	DB	022H
	DB	022H
	DB	022H
	DB	022H
	DB	022H
	DB	022H
	DB	022H
	DB	022H
	DB	022H
	DB	022H
	DB	022H
	DB	022H
	DB	022H
	DB	022H
	DB	022H
	DB	022H
	DB	022H
	DB	022H
	DB	022H
	DB	022H
	DB	022H
	DB	022H
	DB	022H
	DB	022H
	DB	022H
	DB	022H
	DB	022H
	DB	022H
	DB	022H
	DB	022H
	DB	022H
	DB	022H
	DB	059H
	DB	05aH
	DB	05bH
	DB	05cH
	DB	022H
	DB	022H
	DB	022H
	DB	05dH
	DB	022H
	DB	022H
	DB	022H
	DB	05eH
	DB	05fH
	DB	022H
	DB	022H
	DB	022H
	DB	022H
	DB	022H
	DB	060H
	DB	022H
	DB	022H
	DB	022H
	DB	061H
	DB	022H
	DB	022H
	DB	022H
	DB	022H
	DB	022H
	DB	022H
	DB	022H
	DB	022H
	DB	022H
	DB	022H
	DB	062H
	DB	063H
	DB	064H
	DB	022H
	DB	022H
	DB	022H
	DB	022H
	DB	022H
	DB	022H
	DB	065H
	DB	066H
	DB	022H
	DB	022H
	DB	022H
	DB	022H
	DB	022H
	DB	022H
	DB	022H
	DB	022H
	DB	067H
	DB	022H
	DB	022H
	DB	022H
	DB	022H
	DB	022H
	DB	022H
	DB	022H
	DB	022H
	DB	022H
	DB	022H
	DB	022H
	DB	022H
	DB	022H
	DB	022H
	DB	068H
	DB	022H
	DB	022H
	DB	022H
	DB	022H
	DB	022H
	DB	022H
	DB	022H
	DB	022H
	DB	069H
	DB	022H
	DB	022H
	DB	022H
	DB	022H
	DB	065H
	DB	022H
	DB	022H
	DB	022H
	DB	022H
	DB	022H
	DB	022H
	DB	022H
	DB	022H
	DB	022H
	DB	022H
	DB	022H
	DB	022H
	DB	022H
	DB	022H
	DB	022H
	DB	022H
	DB	022H
	DB	022H
	DB	022H
	DB	022H
	DB	068H
	DB	022H
	DB	022H
	DB	022H
	DB	022H
	DB	022H
	DB	022H
	DB	06aH
	DB	022H
	DB	022H
	DB	022H
	DB	022H
	DB	022H
	DB	022H
	DB	022H
	DB	022H
	DB	022H
	DB	022H
	DB	022H
	DB	022H
	DB	022H
	DB	022H
	DB	022H
	DB	022H
	DB	06bH
	DB	06cH
	DB	022H
	DB	022H
	DB	022H
	DB	022H
	DB	022H
	DB	022H
	DB	022H
	DB	022H
	DB	022H
	DB	022H
	DB	022H
	DB	022H
	DB	022H
	DB	022H
	DB	022H
	DB	022H
	DB	022H
	DB	06dH
	DB	06eH
	DB	022H
	DB	022H
	DB	022H
	DB	022H
	DB	022H
	DB	022H
	DB	022H
	DB	022H
	DB	022H
	DB	022H
	DB	022H
	DB	022H
	DB	022H
	DB	022H
	DB	022H
	DB	022H
	DB	022H
	DB	06fH
	DB	070H
	DB	022H
	DB	022H
	DB	022H
	DB	022H
	DB	022H
	DB	022H
	DB	022H
	DB	022H
	DB	071H
	DB	022H
	DB	022H
	DB	072H
	DB	073H
	DB	074H
	DB	075H
	DB	076H
	DB	077H
	DB	078H
	DB	079H
	DB	07aH
	DB	07bH
	DB	07cH
	DB	07dH
	DB	022H
	DB	022H
	DB	022H
	DB	022H
	DB	022H
	DB	022H
	DB	022H
	DB	022H
	DB	022H
	DB	022H
	DB	022H
	DB	022H
	DB	022H
	DB	022H
	DB	022H
	DB	022H
	DB	022H
	DB	022H
	DB	022H
	DB	022H
	DB	022H
	DB	022H
	DB	022H
	DB	022H
	DB	022H
	DB	022H
	DB	022H
	DB	022H
	DB	022H
	DB	022H
	DB	022H
	DB	022H
	DB	022H
	DB	022H
	DB	022H
	DB	022H
	DB	022H
	DB	022H
	DB	022H
	DB	022H
	DB	022H
	DB	022H
	DB	022H
	DB	022H
	DB	022H
	DB	022H
	DB	022H
	DB	022H
	DB	022H
	DB	022H
	DB	022H
	DB	022H
	DB	022H
	DB	022H
	DB	022H
	DB	022H
	DB	022H
	DB	022H
	DB	022H
	DB	022H
	DB	022H
	DB	022H
	DB	022H
	DB	022H
	DB	022H
	DB	022H
	DB	022H
	DB	022H
	DB	022H
	DB	022H
	DB	022H
	DB	022H
	DB	022H
	DB	022H
	DB	022H
	DB	022H
	DB	022H
	DB	022H
	DB	022H
	DB	022H
	DB	022H
	DB	022H
	DB	022H
	DB	022H
	DB	022H
	DB	022H
	DB	022H
	DB	07eH
	DB	07fH
	DB	07fH
	DB	07fH
	DB	07fH
	DB	07fH
	DB	07fH
	DB	07fH
	DB	07fH
	DB	07fH
	DB	07fH
	DB	07fH
	DB	07fH
	DB	07fH
	DB	07fH
	DB	07fH
	DB	07fH
	DB	07fH
	DB	07fH
	DB	07fH
	DB	07fH
	DB	07fH
	DB	07fH
	DB	07fH
	DB	07fH
	DB	07fH
	DB	07fH
	DB	07fH
	DB	07fH
	DB	07fH
	DB	07fH
	DB	07fH
	DB	07fH
	DB	07fH
	DB	07fH
	DB	07fH
	DB	07fH
	DB	07fH
	DB	07fH
	DB	07fH
	DB	07fH
	DB	07fH
	DB	07fH
	DB	07fH
	DB	07fH
	DB	07fH
	DB	07fH
	DB	07fH
	DB	07fH
	DB	07fH
	DB	07fH
	DB	07fH
	DB	07fH
	DB	07fH
	DB	07fH
	DB	07fH
	DB	07fH
	DB	07fH
	DB	07fH
	DB	07fH
	DB	07fH
	DB	07fH
	DB	07fH
	DB	07fH
	DB	07fH
	DB	07fH
	DB	07fH
	DB	080H
	DB	081H
	DB	082H
	DB	083H
	DB	084H
	DB	085H
	DB	086H
	DB	022H
	DB	087H
	DB	088H
	DB	089H
	DB	08aH
	DB	08bH
	DB	08cH
	DB	08dH
	DB	08eH
	DB	08fH
	DB	090H
	DB	047H
	DB	091H
	DB	092H
	DB	093H
	DB	094H
	DB	095H
	DB	047H
	DB	047H
	DB	047H
	DB	047H
	DB	047H
	DB	047H
	DB	096H
	DB	047H
	DB	097H
	DB	098H
	DB	099H
	DB	047H
	DB	09aH
	DB	047H
	DB	09bH
	DB	047H
	DB	047H
	DB	047H
	DB	09cH
	DB	047H
	DB	047H
	DB	047H
	DB	09dH
	DB	09eH
	DB	09fH
	DB	0a0H
	DB	047H
	DB	047H
	DB	047H
	DB	047H
	DB	047H
	DB	047H
	DB	047H
	DB	047H
	DB	047H
	DB	0a1H
	DB	047H
	DB	047H
	DB	047H
	DB	047H
	DB	047H
	DB	047H
	DB	047H
	DB	047H
	DB	047H
	DB	047H
	DB	047H
	DB	047H
	DB	047H
	DB	047H
	DB	047H
	DB	047H
	DB	047H
	DB	047H
	DB	022H
	DB	022H
	DB	022H
	DB	022H
	DB	022H
	DB	022H
	DB	0a2H
	DB	047H
	DB	0a3H
	DB	047H
	DB	047H
	DB	047H
	DB	047H
	DB	047H
	DB	047H
	DB	047H
	DB	047H
	DB	047H
	DB	047H
	DB	047H
	DB	047H
	DB	047H
	DB	047H
	DB	047H
	DB	047H
	DB	047H
	DB	047H
	DB	047H
	DB	047H
	DB	047H
	DB	047H
	DB	047H
	DB	022H
	DB	022H
	DB	022H
	DB	022H
	DB	022H
	DB	022H
	DB	022H
	DB	022H
	DB	0a4H
	DB	047H
	DB	047H
	DB	047H
	DB	047H
	DB	047H
	DB	047H
	DB	047H
	DB	047H
	DB	047H
	DB	047H
	DB	047H
	DB	047H
	DB	047H
	DB	047H
	DB	047H
	DB	047H
	DB	047H
	DB	047H
	DB	047H
	DB	047H
	DB	047H
	DB	047H
	DB	047H
	DB	047H
	DB	047H
	DB	047H
	DB	047H
	DB	047H
	DB	047H
	DB	047H
	DB	047H
	DB	047H
	DB	047H
	DB	047H
	DB	047H
	DB	047H
	DB	047H
	DB	047H
	DB	047H
	DB	047H
	DB	047H
	DB	047H
	DB	047H
	DB	047H
	DB	047H
	DB	047H
	DB	047H
	DB	047H
	DB	047H
	DB	047H
	DB	047H
	DB	047H
	DB	047H
	DB	047H
	DB	047H
	DB	047H
	DB	047H
	DB	047H
	DB	047H
	DB	047H
	DB	047H
	DB	047H
	DB	047H
	DB	047H
	DB	047H
	DB	047H
	DB	047H
	DB	047H
	DB	047H
	DB	047H
	DB	047H
	DB	047H
	DB	047H
	DB	047H
	DB	047H
	DB	047H
	DB	047H
	DB	047H
	DB	047H
	DB	047H
	DB	047H
	DB	047H
	DB	047H
	DB	047H
	DB	047H
	DB	047H
	DB	047H
	DB	047H
	DB	047H
	DB	047H
	DB	047H
	DB	047H
	DB	047H
	DB	047H
	DB	047H
	DB	047H
	DB	047H
	DB	047H
	DB	047H
	DB	047H
	DB	047H
	DB	047H
	DB	047H
	DB	022H
	DB	022H
	DB	022H
	DB	022H
	DB	0a5H
	DB	047H
	DB	047H
	DB	047H
	DB	047H
	DB	047H
	DB	047H
	DB	047H
	DB	047H
	DB	047H
	DB	0a6H
	DB	0a7H
	DB	047H
	DB	047H
	DB	047H
	DB	047H
	DB	047H
	DB	047H
	DB	047H
	DB	047H
	DB	047H
	DB	047H
	DB	047H
	DB	047H
	DB	047H
	DB	047H
	DB	047H
	DB	047H
	DB	047H
	DB	047H
	DB	047H
	DB	047H
	DB	047H
	DB	047H
	DB	047H
	DB	047H
	DB	047H
	DB	047H
	DB	047H
	DB	047H
	DB	047H
	DB	047H
	DB	047H
	DB	047H
	DB	047H
	DB	047H
	DB	047H
	DB	047H
	DB	047H
	DB	047H
	DB	047H
	DB	047H
	DB	047H
	DB	047H
	DB	047H
	DB	047H
	DB	047H
	DB	047H
	DB	047H
	DB	047H
	DB	047H
	DB	047H
	DB	047H
	DB	047H
	DB	047H
	DB	047H
	DB	047H
	DB	047H
	DB	047H
	DB	047H
	DB	047H
	DB	047H
	DB	047H
	DB	047H
	DB	047H
	DB	047H
	DB	047H
	DB	047H
	DB	047H
	DB	047H
	DB	047H
	DB	047H
	DB	047H
	DB	047H
	DB	047H
	DB	047H
	DB	047H
	DB	047H
	DB	047H
	DB	047H
	DB	047H
	DB	047H
	DB	047H
	DB	047H
	DB	047H
	DB	047H
	DB	047H
	DB	047H
	DB	047H
	DB	047H
	DB	047H
	DB	047H
	DB	047H
	DB	047H
	DB	047H
	DB	047H
	DB	047H
	DB	047H
	DB	047H
	DB	047H
	DB	047H
	DB	047H
	DB	047H
	DB	047H
	DB	047H
	DB	047H
	DB	047H
	DB	047H
	DB	047H
	DB	047H
	DB	047H
	DB	047H
	DB	047H
	DB	047H
	DB	047H
	DB	047H
	DB	047H
	DB	047H
	DB	047H
	DB	047H
	DB	047H
	DB	047H
	DB	047H
	DB	047H
	DB	047H
	DB	047H
	DB	047H
	DB	047H
	DB	047H
	DB	047H
	DB	0a8H
	DB	047H
	DB	047H
	DB	047H
	DB	047H
	DB	047H
	DB	047H
	DB	047H
	DB	047H
	DB	047H
	DB	047H
	DB	047H
	DB	047H
	DB	047H
	DB	047H
	DB	047H
	DB	047H
	DB	047H
	DB	047H
	DB	047H
	DB	047H
	DB	047H
	DB	047H
	DB	047H
	DB	047H
	DB	047H
	DB	047H
	DB	047H
	DB	047H
	DB	047H
	DB	047H
	DB	047H
	DB	047H
	DB	047H
	DB	047H
	DB	047H
	DB	047H
	DB	047H
	DB	047H
	DB	047H
	DB	047H
	DB	047H
	DB	047H
	DB	047H
	DB	047H
	DB	047H
	DB	047H
	DB	047H
	DB	047H
	DB	047H
	DB	047H
	DB	047H
	DB	047H
	DB	047H
	DB	047H
	DB	047H
	DB	047H
	DB	047H
	DB	047H
	DB	047H
	DB	047H
	DB	047H
	DB	047H
	DB	047H
	DB	040H
	DB	0a9H
	DB	0aaH
	DB	0abH
	DB	0acH
	DB	047H
	DB	0adH
	DB	047H
	DB	0aeH
	DB	0afH
	DB	0b0H
	DB	0b1H
	DB	0b2H
	DB	0b3H
	DB	0b4H
	DB	0b5H
	DB	047H
	DB	047H
	DB	047H
	DB	047H
	DB	047H
	DB	047H
	DB	047H
	DB	047H
	DB	047H
	DB	047H
	DB	047H
	DB	047H
	DB	047H
	DB	047H
	DB	047H
	DB	047H
	DB	047H
	DB	047H
	DB	047H
	DB	047H
	DB	047H
	DB	047H
	DB	047H
	DB	047H
	DB	047H
	DB	047H
	DB	047H
	DB	047H
	DB	047H
	DB	047H
	DB	047H
	DB	047H
	DB	047H
	DB	047H
	DB	047H
	DB	047H
	DB	047H
	DB	047H
	DB	047H
	DB	047H
	DB	047H
	DB	047H
	DB	047H
	DB	047H
	DB	0b6H
	DB	0b7H
	DB	047H
	DB	047H
	DB	0b8H
	DB	0b9H
	DB	0baH
	DB	0bbH
	DB	0bcH
	DB	047H
	DB	0bdH
	DB	0beH
	DB	0bfH
	DB	0c0H
	DB	0c1H
	DB	0c2H
	DB	0c3H
	DB	0c4H
	DB	041H
	DB	047H
	DB	047H
	DB	047H
	DB	047H
	DB	047H
	DB	047H
	DB	047H
	DB	047H
	DB	047H
	DB	047H
	DB	047H
	DB	047H
	DB	047H
	DB	047H
	DB	047H
	DB	047H
	DB	047H
	DB	0c5H
	DB	0c6H
	DB	0c7H
	DB	022H
	DB	022H
	DB	022H
	DB	022H
	DB	022H
	DB	022H
	DB	022H
	DB	022H
	DB	022H
	DB	022H
	DB	022H
	DB	022H
	DB	022H
	DB	022H
	DB	022H
	DB	057H
	DB	0c8H
	DB	022H
	DB	0c9H
	DB	0caH
	DB	022H
	DB	022H
	DB	022H
	DB	022H
	DB	022H
	DB	022H
	DB	022H
	DB	022H
	DB	022H
	DB	022H
	DB	022H
	DB	022H
	DB	022H
	DB	022H
	DB	022H
	DB	022H
	DB	022H
	DB	022H
	DB	022H
	DB	022H
	DB	022H
	DB	022H
	DB	022H
	DB	022H
	DB	022H
	DB	022H
	DB	022H
	DB	022H
	DB	022H
	DB	022H
	DB	022H
	DB	022H
	DB	022H
	DB	022H
	DB	022H
	DB	022H
	DB	022H
	DB	022H
	DB	022H
	DB	022H
	DB	022H
	DB	022H
	DB	022H
	DB	022H
	DB	022H
	DB	022H
	DB	022H
	DB	022H
	DB	0cbH
	DB	022H
	DB	022H
	DB	022H
	DB	022H
	DB	022H
	DB	022H
	DB	022H
	DB	022H
	DB	022H
	DB	022H
	DB	022H
	DB	0ccH
	DB	022H
	DB	022H
	DB	022H
	DB	022H
	DB	022H
	DB	022H
	DB	022H
	DB	022H
	DB	022H
	DB	022H
	DB	022H
	DB	022H
	DB	022H
	DB	022H
	DB	022H
	DB	022H
	DB	022H
	DB	022H
	DB	022H
	DB	022H
	DB	022H
	DB	022H
	DB	022H
	DB	022H
	DB	022H
	DB	022H
	DB	022H
	DB	022H
	DB	022H
	DB	022H
	DB	022H
	DB	022H
	DB	022H
	DB	022H
	DB	0cdH
	DB	022H
	DB	022H
	DB	022H
	DB	022H
	DB	022H
	DB	022H
	DB	022H
	DB	022H
	DB	022H
	DB	022H
	DB	022H
	DB	022H
	DB	022H
	DB	022H
	DB	022H
	DB	022H
	DB	022H
	DB	022H
	DB	022H
	DB	022H
	DB	022H
	DB	022H
	DB	022H
	DB	022H
	DB	022H
	DB	022H
	DB	022H
	DB	022H
	DB	022H
	DB	022H
	DB	022H
	DB	022H
	DB	022H
	DB	022H
	DB	022H
	DB	022H
	DB	022H
	DB	022H
	DB	022H
	DB	022H
	DB	022H
	DB	022H
	DB	022H
	DB	022H
	DB	022H
	DB	022H
	DB	022H
	DB	022H
	DB	022H
	DB	022H
	DB	022H
	DB	022H
	DB	022H
	DB	022H
	DB	022H
	DB	022H
	DB	022H
	DB	022H
	DB	022H
	DB	022H
	DB	022H
	DB	022H
	DB	022H
	DB	022H
	DB	022H
	DB	022H
	DB	022H
	DB	022H
	DB	022H
	DB	022H
	DB	022H
	DB	022H
	DB	022H
	DB	022H
	DB	022H
	DB	022H
	DB	022H
	DB	0ceH
	DB	022H
	DB	022H
	DB	022H
	DB	022H
	DB	022H
	DB	022H
	DB	022H
	DB	022H
	DB	022H
	DB	022H
	DB	022H
	DB	022H
	DB	022H
	DB	022H
	DB	022H
	DB	022H
	DB	022H
	DB	022H
	DB	022H
	DB	022H
	DB	022H
	DB	022H
	DB	022H
	DB	022H
	DB	022H
	DB	022H
	DB	022H
	DB	022H
	DB	022H
	DB	022H
	DB	022H
	DB	022H
	DB	022H
	DB	022H
	DB	022H
	DB	022H
	DB	022H
	DB	022H
	DB	022H
	DB	022H
	DB	022H
	DB	022H
	DB	022H
	DB	022H
	DB	022H
	DB	022H
	DB	022H
	DB	022H
	DB	022H
	DB	022H
	DB	022H
	DB	022H
	DB	022H
	DB	022H
	DB	022H
	DB	022H
	DB	022H
	DB	022H
	DB	022H
	DB	022H
	DB	022H
	DB	022H
	DB	022H
	DB	022H
	DB	022H
	DB	022H
	DB	022H
	DB	022H
	DB	022H
	DB	022H
	DB	022H
	DB	022H
	DB	022H
	DB	022H
	DB	022H
	DB	022H
	DB	022H
	DB	022H
	DB	022H
	DB	022H
	DB	022H
	DB	022H
	DB	022H
	DB	022H
	DB	022H
	DB	022H
	DB	022H
	DB	022H
	DB	022H
	DB	022H
	DB	022H
	DB	022H
	DB	022H
	DB	022H
	DB	022H
	DB	022H
	DB	022H
	DB	022H
	DB	022H
	DB	022H
	DB	022H
	DB	022H
	DB	022H
	DB	022H
	DB	022H
	DB	022H
	DB	022H
	DB	022H
	DB	022H
	DB	022H
	DB	022H
	DB	022H
	DB	022H
	DB	022H
	DB	022H
	DB	022H
	DB	022H
	DB	022H
	DB	022H
	DB	022H
	DB	022H
	DB	022H
	DB	022H
	DB	022H
	DB	022H
	DB	022H
	DB	022H
	DB	022H
	DB	022H
	DB	022H
	DB	022H
	DB	022H
	DB	022H
	DB	022H
	DB	022H
	DB	022H
	DB	0cfH
	DB	022H
	DB	022H
	DB	022H
	DB	022H
	DB	022H
	DB	022H
	DB	022H
	DB	022H
	DB	022H
	DB	022H
	DB	022H
	DB	022H
	DB	022H
	DB	022H
	DB	022H
	DB	022H
	DB	022H
	DB	022H
	DB	022H
	DB	022H
	DB	022H
	DB	022H
	DB	022H
	DB	022H
	DB	022H
	DB	022H
	DB	022H
	DB	022H
	DB	022H
	DB	022H
	DB	022H
	DB	022H
	DB	0d0H
	DB	022H
	DB	0d1H
	DB	047H
	DB	047H
	DB	047H
	DB	047H
	DB	047H
	DB	047H
	DB	047H
	DB	047H
	DB	047H
	DB	047H
	DB	047H
	DB	047H
	DB	047H
	DB	047H
	DB	047H
	DB	047H
	DB	047H
	DB	047H
	DB	047H
	DB	047H
	DB	047H
	DB	047H
	DB	047H
	DB	047H
	DB	047H
	DB	047H
	DB	047H
	DB	047H
	DB	047H
	DB	047H
	DB	047H
	DB	047H
	DB	047H
	DB	047H
	DB	047H
	DB	047H
	DB	047H
	DB	047H
	DB	047H
	DB	047H
	DB	047H
	DB	047H
	DB	047H
	DB	047H
	DB	047H
	DB	047H
	DB	047H
	DB	047H
	DB	047H
	DB	047H
	DB	047H
	DB	047H
	DB	047H
	DB	047H
	DB	047H
	DB	047H
	DB	047H
	DB	047H
	DB	047H
	DB	047H
	DB	047H
	DB	047H
	DB	047H
	DB	047H
	DB	047H
	DB	047H
	DB	047H
	DB	047H
	DB	047H
	DB	047H
	DB	047H
	DB	047H
	DB	047H
	DB	047H
	DB	047H
	DB	047H
	DB	047H
	DB	047H
	DB	047H
	DB	047H
	DB	047H
	DB	047H
	DB	047H
	DB	047H
	DB	047H
	DB	047H
	DB	047H
	DB	047H
	DB	047H
	DB	047H
	DB	047H
	DB	047H
	DB	047H
	DB	047H
	DB	047H
	DB	047H
	DB	047H
	DB	047H
	DB	047H
	DB	047H
	DB	047H
	DB	047H
	DB	047H
	DB	047H
	DB	047H
	DB	047H
	DB	047H
	DB	047H
	DB	047H
	DB	047H
	DB	047H
	DB	047H
	DB	047H
	DB	047H
	DB	047H
	DB	047H
	DB	047H
	DB	047H
	DB	047H
	DB	047H
	DB	047H
	DB	047H
	DB	047H
	DB	047H
	DB	047H
	DB	047H
	DB	047H
	DB	022H
	DB	0cbH
	DB	022H
	DB	022H
	DB	0d1H
	DB	047H
	DB	047H
	DB	047H
	DB	047H
	DB	047H
	DB	047H
	DB	047H
	DB	047H
	DB	047H
	DB	047H
	DB	047H
	DB	047H
	DB	047H
	DB	047H
	DB	047H
	DB	047H
	DB	047H
	DB	047H
	DB	047H
	DB	047H
	DB	047H
	DB	047H
	DB	047H
	DB	047H
	DB	047H
	DB	047H
	DB	047H
	DB	047H
	DB	047H
	DB	047H
	DB	047H
	DB	047H
	DB	047H
	DB	047H
	DB	047H
	DB	047H
	DB	047H
	DB	047H
	DB	047H
	DB	047H
	DB	047H
	DB	047H
	DB	047H
	DB	047H
	DB	047H
	DB	047H
	DB	047H
	DB	047H
	DB	047H
	DB	047H
	DB	047H
	DB	047H
	DB	047H
	DB	047H
	DB	047H
	DB	047H
	DB	047H
	DB	047H
	DB	047H
	DB	047H
	DB	047H
	DB	047H
	DB	047H
	DB	047H
	DB	047H
	DB	047H
	DB	047H
	DB	047H
	DB	047H
	DB	047H
	DB	047H
	DB	047H
	DB	047H
	DB	047H
	DB	047H
	DB	047H
	DB	047H
	DB	047H
	DB	047H
	DB	047H
	DB	047H
	DB	047H
	DB	047H
	DB	047H
	DB	047H
	DB	047H
	DB	047H
	DB	047H
	DB	047H
	DB	047H
	DB	047H
	DB	047H
	DB	047H
	DB	047H
	DB	047H
	DB	047H
	DB	047H
	DB	047H
	DB	047H
	DB	047H
	DB	047H
	DB	047H
	DB	047H
	DB	047H
	DB	047H
	DB	047H
	DB	047H
	DB	047H
	DB	047H
	DB	047H
	DB	047H
	DB	047H
	DB	047H
	DB	047H
	DB	047H
	DB	047H
	DB	047H
	DB	047H
	DB	047H
	DB	047H
	DB	047H
	DB	047H
	DB	047H
	DB	047H
	DB	047H
	DB	047H
	DB	047H
	DB	047H
	DB	047H
	DB	047H
	DB	047H
	DB	047H
	DB	047H
	DB	047H
	DB	047H
	DB	047H
	DB	047H
	DB	047H
	DB	047H
	DB	047H
	DB	047H
	DB	047H
	DB	047H
	DB	047H
	DB	047H
	DB	047H
	DB	047H
	DB	047H
	DB	047H
	DB	047H
	DB	047H
	DB	047H
	DB	047H
	DB	047H
	DB	047H
	DB	047H
	DB	047H
	DB	047H
	DB	047H
	DB	047H
	DB	047H
	DB	047H
	DB	047H
	DB	047H
	DB	047H
	DB	047H
	DB	047H
	DB	047H
	DB	047H
	DB	047H
	DB	047H
	DB	047H
	DB	047H
	DB	047H
	DB	047H
	DB	047H
	DB	047H
	DB	047H
	DB	047H
	DB	047H
	DB	047H
	DB	047H
	DB	047H
	DB	047H
	DB	047H
	DB	047H
	DB	047H
	DB	047H
	DB	047H
	DB	047H
	DB	047H
	DB	047H
	DB	047H
	DB	047H
	DB	047H
	DB	047H
	DB	047H
	DB	047H
	DB	047H
	DB	047H
	DB	047H
	DB	047H
	DB	047H
	DB	047H
	DB	047H
	DB	047H
	DB	047H
	DB	047H
	DB	047H
	DB	047H
	DB	047H
	DB	047H
	DB	047H
	DB	047H
	DB	047H
	DB	047H
	DB	047H
	DB	047H
	DB	047H
	DB	047H
	DB	047H
	DB	047H
	DB	047H
	DB	047H
	DB	047H
	DB	047H
	DB	047H
	DB	047H
	DB	047H
	DB	047H
	DB	047H
	DB	047H
	DB	047H
	DB	047H
	DB	047H
	DB	047H
	DB	047H
	DB	047H
	DB	047H
	DB	047H
	DB	047H
	DB	047H
	DB	047H
	DB	047H
	DB	047H
	DB	047H
	DB	047H
	DB	047H
	DB	047H
	DB	047H
	DB	047H
	DB	047H
	DB	047H
	DB	047H
	DB	047H
	DB	047H
	DB	047H
	DB	047H
	DB	047H
	DB	047H
	DB	047H
	DB	047H
	DB	047H
	DB	047H
	DB	047H
	DB	047H
	DB	047H
	DB	047H
	DB	047H
	DB	047H
	DB	047H
	DB	047H
	DB	047H
	DB	047H
	DB	047H
	DB	047H
	DB	047H
	DB	047H
	DB	047H
	DB	047H
	DB	047H
	DB	047H
	DB	047H
	DB	047H
	DB	047H
	DB	047H
	DB	047H
	DB	047H
	DB	047H
	DB	047H
	DB	047H
	DB	047H
	DB	047H
	DB	047H
	DB	047H
	DB	047H
	DB	047H
	DB	047H
	DB	047H
	DB	047H
	DB	047H
	DB	047H
	DB	047H
	DB	047H
	DB	047H
	DB	047H
	DB	047H
	DB	047H
	DB	047H
	DB	047H
	DB	047H
	DB	047H
	DB	047H
	DB	047H
	DB	047H
	DB	047H
	DB	047H
	DB	047H
	DB	047H
	DB	047H
	DB	047H
	DB	047H
	DB	047H
	DB	047H
	DB	047H
	DB	047H
	DB	047H
	DB	047H
	DB	047H
	DB	047H
	DB	047H
	DB	047H
	DB	047H
	DB	047H
	DB	047H
	DB	047H
	DB	047H
	DB	047H
	DB	047H
	DB	047H
	DB	047H
	DB	047H
	DB	047H
	DB	047H
	DB	047H
	DB	047H
	DB	047H
	DB	047H
	DB	047H
	DB	047H
	DB	047H
	DB	047H
	DB	047H
	DB	047H
	DB	047H
	DB	047H
	DB	047H
	DB	047H
	DB	047H
	DB	047H
	DB	047H
	DB	047H
	DB	047H
	DB	047H
	DB	047H
	DB	047H
	DB	047H
	DB	047H
	DB	047H
	DB	047H
	DB	047H
	DB	047H
	DB	047H
	DB	047H
	DB	047H
	DB	047H
	DB	047H
	DB	047H
	DB	047H
	DB	047H
	DB	047H
	DB	047H
	DB	047H
	DB	047H
	DB	047H
	DB	047H
	DB	047H
	DB	047H
	DB	047H
	DB	047H
	DB	047H
	DB	047H
	DB	047H
	DB	047H
	DB	047H
	DB	047H
	DB	047H
	DB	047H
	DB	047H
	DB	047H
	DB	047H
	DB	047H
	DB	047H
	DB	047H
	DB	047H
	DB	047H
	DB	047H
	DB	047H
	DB	047H
	DB	047H
	DB	047H
	DB	047H
	DB	047H
	DB	047H
	DB	047H
	DB	047H
	DB	047H
	DB	047H
	DB	047H
	DB	047H
	DB	047H
	DB	047H
	DB	047H
	DB	047H
	DB	047H
	DB	047H
	DB	047H
	DB	047H
	DB	047H
	DB	047H
	DB	047H
	DB	047H
	DB	047H
	DB	047H
	DB	047H
	DB	047H
	DB	047H
	DB	047H
	DB	047H
	DB	047H
	DB	047H
	DB	047H
	DB	047H
	DB	047H
	DB	047H
	DB	047H
	DB	047H
	DB	047H
	DB	047H
	DB	047H
	DB	047H
	DB	047H
	DB	047H
	DB	047H
	DB	047H
	DB	047H
	DB	047H
	DB	047H
	DB	047H
	DB	047H
	DB	047H
	DB	047H
	DB	047H
	DB	047H
	DB	047H
	DB	047H
	DB	047H
	DB	047H
	DB	047H
	DB	047H
	DB	047H
	DB	047H
	DB	047H
	DB	047H
	DB	047H
	DB	047H
	DB	047H
	DB	047H
	DB	047H
	DB	047H
	DB	047H
	DB	047H
	DB	047H
	DB	047H
	DB	047H
	DB	047H
	DB	047H
	DB	047H
	DB	047H
	DB	047H
	DB	047H
	DB	047H
	DB	047H
	DB	047H
	DB	047H
	DB	047H
	DB	047H
	DB	047H
	DB	047H
	DB	047H
	DB	047H
	DB	047H
	DB	047H
	DB	047H
	DB	047H
	DB	047H
	DB	047H
	DB	047H
	DB	047H
	DB	047H
	DB	047H
	DB	047H
	DB	047H
	DB	047H
	DB	047H
	DB	047H
	DB	047H
	DB	047H
	DB	047H
	DB	047H
	DB	047H
	DB	047H
	DB	047H
	DB	047H
	DB	047H
	DB	047H
	DB	047H
	DB	047H
	DB	047H
	DB	047H
	DB	047H
	DB	047H
	DB	047H
	DB	047H
	DB	047H
	DB	047H
	DB	047H
	DB	047H
	DB	047H
	DB	047H
	DB	047H
	DB	047H
	DB	047H
	DB	047H
	DB	047H
	DB	047H
	DB	047H
	DB	047H
	DB	047H
	DB	047H
	DB	047H
	DB	047H
	DB	047H
	DB	047H
	DB	047H
	DB	047H
	DB	047H
	DB	047H
	DB	047H
	DB	047H
	DB	047H
	DB	047H
	DB	047H
	DB	047H
	DB	047H
	DB	047H
	DB	047H
	DB	047H
	DB	047H
	DB	047H
	DB	047H
	DB	047H
	DB	047H
	DB	047H
	DB	047H
	DB	047H
	DB	047H
	DB	047H
	DB	047H
	DB	047H
	DB	047H
	DB	047H
	DB	047H
	DB	047H
	DB	047H
	DB	047H
	DB	047H
	DB	047H
	DB	047H
	DB	047H
	DB	047H
	DB	047H
	DB	047H
	DB	047H
	DB	047H
	DB	047H
	DB	047H
	DB	047H
	DB	047H
	DB	047H
	DB	047H
	DB	047H
	DB	047H
	DB	047H
	DB	047H
	DB	047H
	DB	047H
	DB	047H
	DB	047H
	DB	047H
	DB	047H
	DB	047H
	DB	047H
	DB	047H
	DB	047H
	DB	047H
	DB	047H
	DB	047H
	DB	047H
	DB	047H
	DB	047H
	DB	047H
	DB	047H
	DB	047H
	DB	047H
	DB	047H
	DB	047H
	DB	047H
	DB	047H
	DB	047H
	DB	047H
	DB	047H
	DB	047H
	DB	047H
	DB	047H
	DB	047H
	DB	047H
	DB	047H
	DB	047H
	DB	047H
	DB	047H
	DB	047H
	DB	047H
	DB	047H
	DB	047H
	DB	047H
	DB	047H
	DB	047H
	DB	047H
	DB	047H
	DB	047H
	DB	047H
	DB	047H
	DB	047H
	DB	047H
	DB	047H
	DB	047H
	DB	047H
	DB	047H
	DB	047H
	DB	047H
	DB	047H
	DB	047H
	DB	047H
	DB	047H
	DB	047H
	DB	047H
	DB	047H
	DB	047H
	DB	047H
	DB	047H
	DB	047H
	DB	047H
	DB	047H
	DB	047H
	DB	047H
	DB	047H
	DB	047H
	DB	047H
	DB	047H
	DB	047H
	DB	047H
	DB	047H
	DB	047H
	DB	047H
	DB	047H
	DB	047H
	DB	047H
	DB	047H
	DB	047H
	DB	047H
	DB	047H
	DB	047H
	DB	047H
	DB	047H
	DB	047H
	DB	047H
	DB	047H
	DB	047H
	DB	047H
	DB	047H
	DB	047H
	DB	047H
	DB	047H
	DB	047H
	DB	047H
	DB	047H
	DB	047H
	DB	047H
	DB	047H
	DB	047H
	DB	047H
	DB	047H
	DB	047H
	DB	047H
	DB	047H
	DB	047H
	DB	047H
	DB	047H
	DB	047H
	DB	047H
	DB	047H
	DB	047H
	DB	047H
	DB	047H
	DB	047H
	DB	047H
	DB	047H
	DB	047H
	DB	047H
	DB	047H
	DB	047H
	DB	047H
	DB	047H
	DB	047H
	DB	047H
	DB	047H
	DB	047H
	DB	047H
	DB	047H
	DB	047H
	DB	047H
	DB	047H
	DB	047H
	DB	047H
	DB	047H
	DB	047H
	DB	047H
	DB	047H
	DB	047H
	DB	047H
	DB	047H
	DB	047H
	DB	047H
	DB	047H
	DB	047H
	DB	047H
	DB	047H
	DB	047H
	DB	047H
	DB	047H
	DB	047H
	DB	047H
	DB	047H
	DB	047H
	DB	047H
	DB	047H
	DB	047H
	DB	047H
	DB	047H
	DB	047H
	DB	047H
	DB	047H
	DB	047H
	DB	047H
	DB	047H
	DB	047H
	DB	047H
	DB	047H
	DB	047H
	DB	047H
	DB	047H
	DB	047H
	DB	047H
	DB	047H
	DB	047H
	DB	047H
	DB	047H
	DB	047H
	DB	047H
	DB	047H
	DB	047H
	DB	047H
	DB	047H
	DB	047H
	DB	047H
	DB	047H
	DB	047H
	DB	047H
	DB	047H
	DB	047H
	DB	047H
	DB	047H
	DB	047H
	DB	047H
	DB	047H
	DB	047H
	DB	047H
	DB	047H
	DB	047H
	DB	047H
	DB	047H
	DB	047H
	DB	047H
	DB	047H
	DB	047H
	DB	047H
	DB	047H
	DB	047H
	DB	047H
	DB	047H
	DB	047H
	DB	047H
	DB	047H
	DB	047H
	DB	047H
	DB	047H
	DB	047H
	DB	047H
	DB	047H
	DB	047H
	DB	047H
	DB	047H
	DB	047H
	DB	047H
	DB	047H
	DB	047H
	DB	047H
	DB	047H
	DB	047H
	DB	047H
	DB	047H
	DB	047H
	DB	047H
	DB	047H
	DB	047H
	DB	047H
	DB	047H
	DB	047H
	DB	047H
	DB	047H
	DB	047H
	DB	047H
	DB	047H
	DB	047H
	DB	047H
	DB	047H
	DB	047H
	DB	047H
	DB	047H
	DB	047H
	DB	047H
	DB	047H
	DB	047H
	DB	047H
	DB	047H
	DB	047H
	DB	047H
	DB	047H
	DB	047H
	DB	047H
	DB	047H
	DB	047H
	DB	047H
	DB	047H
	DB	047H
	DB	047H
	DB	047H
	DB	047H
	DB	047H
	DB	047H
	DB	047H
	DB	047H
	DB	047H
	DB	047H
	DB	047H
	DB	047H
	DB	047H
	DB	047H
	DB	047H
	DB	047H
	DB	047H
	DB	047H
	DB	047H
	DB	047H
	DB	047H
	DB	047H
	DB	047H
	DB	047H
	DB	047H
	DB	047H
	DB	047H
	DB	047H
	DB	047H
	DB	047H
	DB	047H
	DB	047H
	DB	047H
	DB	047H
	DB	047H
	DB	047H
	DB	047H
	DB	047H
	DB	047H
	DB	047H
	DB	047H
	DB	047H
	DB	047H
	DB	047H
	DB	047H
	DB	047H
	DB	047H
	DB	047H
	DB	047H
	DB	047H
	DB	047H
	DB	047H
	DB	047H
	DB	047H
	DB	047H
	DB	047H
	DB	047H
	DB	047H
	DB	047H
	DB	047H
	DB	047H
	DB	047H
	DB	047H
	DB	047H
	DB	047H
	DB	047H
	DB	047H
	DB	047H
	DB	047H
	DB	047H
	DB	047H
	DB	047H
	DB	047H
	DB	047H
	DB	047H
	DB	047H
	DB	047H
	DB	047H
	DB	047H
	DB	047H
	DB	047H
	DB	047H
	DB	047H
	DB	047H
	DB	047H
	DB	047H
	DB	047H
	DB	047H
	DB	047H
	DB	047H
	DB	047H
	DB	047H
	DB	047H
	DB	047H
	DB	047H
	DB	047H
	DB	047H
	DB	047H
	DB	047H
	DB	047H
	DB	047H
	DB	047H
	DB	047H
	DB	047H
	DB	047H
	DB	047H
	DB	047H
	DB	047H
	DB	047H
	DB	047H
	DB	047H
	DB	047H
	DB	047H
	DB	047H
	DB	047H
	DB	047H
	DB	047H
	DB	047H
	DB	047H
	DB	047H
	DB	047H
	DB	047H
	DB	047H
	DB	047H
	DB	047H
	DB	047H
	DB	047H
	DB	047H
	DB	047H
	DB	047H
	DB	047H
	DB	047H
	DB	047H
	DB	047H
	DB	047H
	DB	047H
	DB	047H
	DB	047H
	DB	047H
	DB	047H
	DB	047H
	DB	047H
	DB	047H
	DB	047H
	DB	047H
	DB	047H
	DB	047H
	DB	047H
	DB	047H
	DB	047H
	DB	047H
	DB	047H
	DB	047H
	DB	047H
	DB	047H
	DB	047H
	DB	047H
	DB	047H
	DB	047H
	DB	047H
	DB	047H
	DB	047H
	DB	047H
	DB	047H
	DB	047H
	DB	047H
	DB	047H
	DB	047H
	DB	047H
	DB	047H
	DB	047H
	DB	047H
	DB	047H
	DB	047H
	DB	047H
	DB	047H
	DB	047H
	DB	047H
	DB	047H
	DB	047H
	DB	047H
	DB	047H
	DB	047H
	DB	047H
	DB	047H
	DB	047H
	DB	047H
	DB	047H
	DB	047H
	DB	047H
	DB	047H
	DB	047H
	DB	047H
	DB	047H
	DB	047H
	DB	047H
	DB	047H
	DB	047H
	DB	047H
	DB	047H
	DB	047H
	DB	047H
	DB	047H
	DB	047H
	DB	047H
	DB	047H
	DB	047H
	DB	047H
	DB	047H
	DB	047H
	DB	047H
	DB	047H
	DB	047H
	DB	047H
	DB	047H
	DB	047H
	DB	047H
	DB	047H
	DB	047H
	DB	047H
	DB	047H
	DB	047H
	DB	047H
	DB	047H
	DB	047H
	DB	047H
	DB	047H
	DB	047H
	DB	047H
	DB	047H
	DB	047H
	DB	047H
	DB	047H
	DB	047H
	DB	047H
	DB	047H
	DB	047H
	DB	047H
	DB	047H
	DB	047H
	DB	047H
	DB	047H
	DB	047H
	DB	047H
	DB	047H
	DB	047H
	DB	047H
	DB	047H
	DB	047H
	DB	047H
	DB	047H
	DB	047H
	DB	047H
	DB	047H
	DB	047H
	DB	047H
	DB	047H
	DB	047H
	DB	047H
	DB	047H
	DB	047H
	DB	047H
	DB	047H
	DB	047H
	DB	047H
	DB	047H
	DB	047H
	DB	047H
	DB	047H
	DB	047H
	DB	047H
	DB	047H
	DB	047H
	DB	047H
	DB	047H
	DB	047H
	DB	047H
	DB	047H
	DB	047H
	DB	047H
	DB	047H
	DB	047H
	DB	047H
	DB	047H
	DB	047H
	DB	047H
	DB	047H
	DB	047H
	DB	047H
	DB	047H
	DB	047H
	DB	047H
	DB	047H
	DB	047H
	DB	047H
	DB	047H
	DB	047H
	DB	047H
	DB	047H
	DB	047H
	DB	047H
	DB	047H
	DB	047H
	DB	047H
	DB	047H
	DB	047H
	DB	047H
	DB	047H
	DB	047H
	DB	047H
	DB	047H
	DB	047H
	DB	047H
	DB	047H
	DB	047H
	DB	047H
	DB	047H
	DB	047H
	DB	047H
	DB	047H
	DB	047H
	DB	047H
	DB	047H
	DB	047H
	DB	047H
	DB	047H
	DB	047H
	DB	047H
	DB	047H
	DB	047H
	DB	047H
	DB	047H
	DB	047H
	DB	047H
	DB	047H
	DB	047H
	DB	047H
	DB	047H
	DB	047H
	DB	047H
	DB	047H
	DB	047H
	DB	047H
	DB	047H
	DB	047H
	DB	047H
	DB	047H
	DB	047H
	DB	047H
	DB	047H
	DB	047H
	DB	047H
	DB	047H
	DB	047H
	DB	047H
	DB	047H
	DB	047H
	DB	047H
	DB	047H
	DB	047H
	DB	047H
	DB	047H
	DB	047H
	DB	047H
	DB	047H
	DB	047H
	DB	047H
	DB	047H
	DB	047H
	DB	047H
	DB	047H
	DB	047H
	DB	047H
	DB	047H
	DB	047H
	DB	047H
	DB	047H
	DB	047H
	DB	047H
	DB	047H
	DB	047H
	DB	047H
	DB	047H
	DB	047H
	DB	047H
	DB	047H
	DB	047H
	DB	047H
	DB	047H
	DB	047H
	DB	047H
	DB	047H
	DB	047H
	DB	047H
	DB	047H
	DB	047H
	DB	047H
	DB	047H
	DB	047H
	DB	047H
	DB	047H
	DB	047H
	DB	047H
	DB	047H
	DB	047H
	DB	047H
	DB	047H
	DB	047H
	DB	047H
	DB	047H
	DB	047H
	DB	047H
	DB	047H
	DB	047H
	DB	047H
	DB	047H
	DB	047H
	DB	047H
	DB	047H
	DB	047H
	DB	047H
	DB	047H
	DB	047H
	DB	047H
	DB	047H
	DB	047H
	DB	047H
	DB	047H
	DB	047H
	DB	047H
	DB	047H
	DB	047H
	DB	047H
	DB	047H
	DB	047H
	DB	047H
	DB	047H
	DB	047H
	DB	047H
	DB	047H
	DB	047H
	DB	047H
	DB	047H
	DB	047H
	DB	047H
	DB	047H
	DB	047H
	DB	047H
	DB	047H
	DB	047H
	DB	047H
	DB	047H
	DB	047H
	DB	047H
	DB	047H
	DB	047H
	DB	047H
	DB	047H
	DB	047H
	DB	047H
	DB	047H
	DB	047H
	DB	047H
	DB	047H
	DB	047H
	DB	047H
	DB	047H
	DB	047H
	DB	047H
	DB	047H
	DB	047H
	DB	047H
	DB	047H
	DB	047H
	DB	047H
	DB	047H
	DB	047H
	DB	047H
	DB	047H
	DB	047H
	DB	047H
	DB	047H
	DB	047H
	DB	047H
	DB	047H
	DB	047H
	DB	047H
	DB	047H
	DB	047H
	DB	047H
	DB	047H
	DB	047H
	DB	047H
	DB	047H
	DB	047H
	DB	047H
	DB	047H
	DB	047H
	DB	047H
	DB	047H
	DB	047H
	DB	047H
	DB	047H
	DB	047H
	DB	047H
	DB	047H
	DB	047H
	DB	047H
	DB	047H
	DB	047H
	DB	047H
	DB	047H
	DB	047H
	DB	047H
	DB	047H
	DB	047H
	DB	047H
	DB	047H
	DB	047H
	DB	047H
	DB	047H
	DB	047H
	DB	047H
	DB	047H
	DB	047H
	DB	047H
	DB	047H
	DB	047H
	DB	047H
	DB	047H
	DB	047H
	DB	047H
	DB	047H
	DB	047H
	DB	047H
	DB	047H
	DB	047H
	DB	047H
	DB	047H
	DB	047H
	DB	047H
	DB	047H
	DB	047H
	DB	047H
	DB	047H
	DB	047H
	DB	047H
	DB	047H
	DB	047H
	DB	047H
	DB	047H
	DB	047H
	DB	047H
	DB	047H
	DB	047H
	DB	047H
	DB	047H
	DB	047H
	DB	047H
	DB	047H
	DB	047H
	DB	047H
	DB	047H
	DB	047H
	DB	047H
	DB	047H
	DB	047H
	DB	047H
	DB	047H
	DB	047H
	DB	047H
	DB	047H
	DB	047H
	DB	047H
	DB	047H
	DB	047H
	DB	047H
	DB	047H
	DB	047H
	DB	047H
	DB	047H
	DB	047H
	DB	047H
	DB	047H
	DB	047H
	DB	047H
	DB	047H
	DB	047H
	DB	047H
	DB	047H
	DB	047H
	DB	047H
	DB	047H
	DB	047H
	DB	047H
	DB	047H
	DB	047H
	DB	047H
	DB	047H
	DB	047H
	DB	047H
	DB	047H
	DB	047H
	DB	047H
	DB	047H
	DB	047H
	DB	047H
	DB	047H
	DB	047H
	DB	047H
	DB	047H
	DB	047H
	DB	047H
	DB	047H
	DB	047H
	DB	047H
	DB	047H
	DB	047H
	DB	047H
	DB	047H
	DB	047H
	DB	047H
	DB	047H
	DB	047H
	DB	047H
	DB	047H
	DB	047H
	DB	047H
	DB	047H
	DB	047H
	DB	047H
	DB	047H
	DB	047H
	DB	047H
	DB	047H
	DB	047H
	DB	047H
	DB	047H
	DB	047H
	DB	047H
	DB	047H
	DB	047H
	DB	047H
	DB	047H
	DB	047H
	DB	047H
	DB	047H
	DB	047H
	DB	047H
	DB	047H
	DB	047H
	DB	047H
	DB	047H
	DB	047H
	DB	047H
	DB	047H
	DB	047H
	DB	047H
	DB	047H
	DB	047H
	DB	047H
	DB	047H
	DB	047H
	DB	047H
	DB	047H
	DB	047H
	DB	047H
	DB	047H
	DB	047H
	DB	047H
	DB	047H
	DB	047H
	DB	047H
	DB	047H
	DB	047H
	DB	047H
	DB	047H
	DB	047H
	DB	047H
	DB	047H
	DB	047H
	DB	047H
	DB	047H
	DB	047H
	DB	047H
	DB	047H
	DB	047H
	DB	047H
	DB	047H
	DB	047H
	DB	047H
	DB	047H
	DB	047H
	DB	047H
	DB	047H
	DB	047H
	DB	047H
	DB	047H
	DB	047H
	DB	047H
	DB	047H
	DB	047H
	DB	047H
	DB	047H
	DB	047H
	DB	047H
	DB	047H
	DB	047H
	DB	047H
	DB	047H
	DB	047H
	DB	047H
	DB	047H
	DB	047H
	DB	047H
	DB	047H
	DB	047H
	DB	047H
	DB	047H
	DB	047H
	DB	047H
	DB	047H
	DB	047H
	DB	047H
	DB	047H
	DB	047H
	DB	047H
	DB	047H
	DB	047H
	DB	047H
	DB	047H
	DB	047H
	DB	047H
	DB	047H
	DB	047H
	DB	047H
	DB	047H
	DB	047H
	DB	047H
	DB	047H
	DB	047H
	DB	047H
	DB	047H
	DB	047H
	DB	047H
	DB	047H
	DB	047H
	DB	047H
	DB	047H
	DB	047H
	DB	047H
	DB	047H
	DB	047H
	DB	047H
	DB	047H
	DB	047H
	DB	047H
	DB	047H
	DB	047H
	DB	047H
	DB	047H
	DB	047H
	DB	047H
	DB	047H
	DB	047H
	DB	047H
	DB	047H
	DB	047H
	DB	047H
	DB	047H
	DB	047H
	DB	047H
	DB	047H
	DB	047H
	DB	047H
	DB	047H
	DB	047H
	DB	047H
	DB	047H
	DB	047H
	DB	047H
	DB	047H
	DB	047H
	DB	047H
	DB	047H
	DB	047H
	DB	047H
	DB	047H
	DB	047H
	DB	047H
	DB	047H
	DB	047H
	DB	047H
	DB	047H
	DB	047H
	DB	047H
	DB	047H
	DB	047H
	DB	047H
	DB	047H
	DB	047H
	DB	047H
	DB	047H
	DB	047H
	DB	047H
	DB	047H
	DB	047H
	DB	047H
	DB	047H
	DB	047H
	DB	047H
	DB	047H
	DB	047H
	DB	047H
	DB	047H
	DB	047H
	DB	047H
	DB	047H
	DB	047H
	DB	047H
	DB	047H
	DB	047H
	DB	047H
	DB	047H
	DB	047H
	DB	047H
	DB	047H
	DB	047H
	DB	047H
	DB	047H
	DB	047H
	DB	047H
	DB	047H
	DB	047H
	DB	047H
	DB	047H
	DB	047H
	DB	047H
	DB	047H
	DB	047H
	DB	047H
	DB	047H
	DB	047H
	DB	047H
	DB	047H
	DB	047H
	DB	047H
	DB	047H
	DB	047H
	DB	047H
	DB	047H
	DB	047H
	DB	047H
	DB	047H
	DB	047H
	DB	047H
	DB	047H
	DB	047H
	DB	047H
	DB	047H
	DB	047H
	DB	047H
	DB	047H
	DB	047H
	DB	047H
	DB	047H
	DB	047H
	DB	047H
	DB	047H
	DB	047H
	DB	047H
	DB	047H
	DB	047H
	DB	047H
	DB	047H
	DB	047H
	DB	047H
	DB	047H
	DB	047H
	DB	047H
	DB	047H
	DB	047H
	DB	047H
	DB	047H
	DB	047H
	DB	047H
	DB	047H
	DB	047H
	DB	047H
	DB	047H
	DB	047H
	DB	047H
	DB	047H
	DB	047H
	DB	047H
	DB	047H
	DB	047H
	DB	047H
	DB	047H
	DB	047H
	DB	047H
	DB	047H
	DB	047H
	DB	047H
	DB	047H
	DB	047H
	DB	047H
	DB	047H
	DB	047H
	DB	047H
	DB	047H
	DB	047H
	DB	047H
	DB	047H
	DB	047H
	DB	047H
	DB	047H
	DB	047H
	DB	047H
	DB	047H
	DB	047H
	DB	047H
	DB	047H
	DB	047H
	DB	047H
	DB	047H
	DB	047H
	DB	047H
	DB	047H
	DB	047H
	DB	047H
	DB	047H
	DB	047H
	DB	047H
	DB	047H
	DB	047H
	DB	047H
	DB	047H
	DB	047H
	DB	047H
	DB	047H
	DB	047H
	DB	047H
	DB	047H
	DB	047H
	DB	047H
	DB	047H
	DB	047H
	DB	047H
	DB	047H
	DB	047H
	DB	047H
	DB	047H
	DB	047H
	DB	047H
	DB	047H
	DB	047H
	DB	047H
	DB	047H
	DB	047H
	DB	047H
	DB	047H
	DB	047H
	DB	047H
	DB	047H
	DB	047H
	DB	047H
	DB	047H
	DB	047H
	DB	047H
	DB	047H
	DB	047H
	DB	047H
	DB	047H
	DB	047H
	DB	047H
	DB	047H
	DB	047H
	DB	047H
	DB	047H
	DB	047H
	DB	047H
	DB	047H
	DB	047H
	DB	047H
	DB	047H
	DB	047H
	DB	047H
	DB	047H
	DB	047H
	DB	047H
	DB	047H
	DB	047H
	DB	047H
	DB	047H
	DB	047H
	DB	047H
	DB	047H
	DB	047H
	DB	047H
	DB	047H
	DB	047H
	DB	047H
	DB	047H
	DB	047H
	DB	047H
	DB	047H
	DB	047H
	DB	047H
	DB	047H
	DB	047H
	DB	047H
	DB	047H
	DB	047H
	DB	047H
	DB	047H
	DB	047H
	DB	047H
	DB	047H
	DB	047H
	DB	047H
	DB	047H
	DB	047H
	DB	047H
	DB	047H
	DB	047H
	DB	047H
	DB	047H
	DB	047H
	DB	047H
	DB	047H
	DB	047H
	DB	047H
	DB	047H
	DB	047H
	DB	047H
	DB	047H
	DB	047H
	DB	047H
	DB	047H
	DB	047H
	DB	047H
	DB	047H
	DB	047H
	DB	047H
	DB	047H
	DB	047H
	DB	047H
	DB	047H
	DB	047H
	DB	047H
	DB	047H
	DB	047H
	DB	047H
	DB	047H
	DB	047H
	DB	047H
	DB	047H
	DB	047H
	DB	047H
	DB	047H
	DB	047H
	DB	047H
	DB	047H
	DB	047H
	DB	047H
	DB	047H
	DB	047H
	DB	047H
	DB	047H
	DB	047H
	DB	047H
	DB	047H
	DB	047H
	DB	047H
	DB	047H
	DB	047H
	DB	047H
	DB	047H
	DB	047H
	DB	047H
	DB	047H
	DB	047H
	DB	047H
	DB	047H
	DB	047H
	DB	047H
	DB	047H
	DB	047H
	DB	047H
	DB	047H
	DB	047H
	DB	047H
	DB	047H
	DB	047H
	DB	047H
	DB	047H
	DB	047H
	DB	047H
	DB	047H
	DB	047H
	DB	047H
	DB	047H
	DB	047H
	DB	047H
	DB	047H
	DB	047H
	DB	047H
	DB	047H
	DB	047H
	DB	047H
	DB	047H
	DB	047H
	DB	047H
	DB	047H
	DB	047H
	DB	047H
	DB	047H
	DB	047H
	DB	047H
	DB	047H
	DB	047H
	DB	047H
	DB	047H
	DB	047H
	DB	047H
	DB	047H
	DB	047H
	DB	047H
	DB	047H
	DB	047H
	DB	047H
	DB	047H
	DB	047H
	DB	047H
	DB	047H
	DB	047H
	DB	047H
	DB	047H
	DB	047H
	DB	047H
	DB	047H
	DB	047H
	DB	047H
	DB	047H
	DB	047H
	DB	047H
	DB	047H
	DB	047H
	DB	047H
	DB	047H
	DB	047H
	DB	047H
	DB	047H
	DB	047H
	DB	047H
	DB	047H
	DB	047H
	DB	047H
	DB	047H
	DB	047H
	DB	047H
	DB	047H
	DB	047H
	DB	047H
	DB	047H
	DB	047H
	DB	047H
	DB	047H
	DB	047H
	DB	047H
	DB	047H
	DB	047H
	DB	047H
	DB	047H
	DB	047H
	DB	047H
	DB	047H
	DB	047H
	DB	047H
	DB	047H
	DB	047H
	DB	047H
	DB	047H
	DB	047H
	DB	047H
	DB	047H
	DB	047H
	DB	047H
	DB	047H
	DB	047H
	DB	047H
	DB	047H
	DB	047H
	DB	047H
	DB	047H
	DB	047H
	DB	047H
	DB	047H
	DB	047H
	DB	047H
	DB	047H
	DB	047H
	DB	047H
	DB	047H
	DB	047H
	DB	047H
	DB	047H
	DB	047H
	DB	047H
	DB	047H
	DB	047H
	DB	047H
	DB	047H
	DB	047H
	DB	047H
	DB	047H
	DB	047H
	DB	047H
	DB	047H
	DB	047H
	DB	047H
	DB	047H
	DB	047H
	DB	047H
	DB	047H
	DB	047H
	DB	047H
	DB	047H
	DB	047H
	DB	047H
	DB	047H
	DB	047H
	DB	047H
	DB	047H
	DB	047H
	DB	047H
	DB	047H
	DB	047H
	DB	047H
	DB	047H
	DB	047H
	DB	047H
	DB	047H
	DB	047H
	DB	047H
	DB	047H
	DB	047H
	DB	047H
	DB	047H
	DB	047H
	DB	047H
	DB	047H
	DB	047H
	DB	047H
	DB	047H
	DB	047H
	DB	047H
	DB	047H
	DB	047H
	DB	047H
	DB	047H
	DB	047H
	DB	047H
	DB	047H
	DB	047H
	DB	047H
	DB	047H
	DB	047H
	DB	047H
	DB	047H
	DB	047H
	DB	047H
	DB	047H
	DB	047H
	DB	047H
	DB	047H
	DB	047H
	DB	047H
	DB	047H
	DB	047H
	DB	047H
	DB	047H
	DB	047H
	DB	047H
	DB	047H
	DB	047H
	DB	047H
	DB	047H
	DB	047H
	DB	047H
	DB	047H
	DB	047H
	DB	047H
	DB	047H
	DB	047H
	DB	047H
	DB	047H
	DB	047H
	DB	047H
	DB	047H
	DB	047H
	DB	047H
	DB	047H
	DB	047H
	DB	047H
	DB	047H
	DB	047H
	DB	047H
	DB	047H
	DB	047H
	DB	047H
	DB	047H
	DB	047H
	DB	047H
	DB	047H
	DB	047H
	DB	047H
	DB	047H
	DB	047H
	DB	047H
	DB	047H
	DB	047H
	DB	047H
	DB	047H
	DB	047H
	DB	047H
	DB	047H
	DB	047H
	DB	047H
	DB	047H
	DB	047H
	DB	047H
	DB	047H
	DB	047H
	DB	047H
	DB	047H
	DB	047H
	DB	047H
	DB	047H
	DB	047H
	DB	047H
	DB	047H
	DB	047H
	DB	047H
	DB	047H
	DB	047H
	DB	047H
	DB	047H
	DB	047H
	DB	047H
	DB	047H
	DB	047H
	DB	047H
	DB	047H
	DB	047H
	DB	047H
	DB	047H
	DB	047H
	DB	047H
	DB	047H
	DB	047H
	DB	047H
	DB	047H
	DB	047H
	DB	047H
	DB	047H
	DB	047H
	DB	047H
	DB	047H
	DB	047H
	DB	047H
	DB	047H
	DB	047H
	DB	047H
	DB	047H
	DB	047H
	DB	047H
	DB	047H
	DB	047H
	DB	047H
	DB	047H
	DB	047H
	DB	047H
	DB	047H
	DB	047H
	DB	047H
	DB	047H
	DB	047H
	DB	047H
	DB	047H
	DB	047H
	DB	047H
	DB	047H
	DB	047H
	DB	047H
	DB	047H
	DB	047H
	DB	047H
	DB	047H
	DB	047H
	DB	047H
	DB	047H
	DB	047H
	DB	047H
	DB	047H
	DB	047H
	DB	047H
	DB	047H
	DB	047H
	DB	047H
	DB	047H
	DB	047H
	DB	047H
	DB	047H
	DB	047H
	DB	047H
	DB	047H
	DB	047H
	DB	047H
	DB	047H
	DB	047H
	DB	047H
	DB	047H
	DB	047H
	DB	047H
	DB	047H
	DB	047H
	DB	047H
	DB	047H
	DB	047H
	DB	047H
	DB	047H
	DB	047H
	DB	047H
	DB	047H
	DB	047H
	DB	047H
	DB	047H
	DB	047H
	DB	047H
	DB	047H
	DB	047H
	DB	047H
	DB	047H
	DB	047H
	DB	047H
	DB	047H
	DB	047H
	DB	047H
	DB	047H
	DB	047H
	DB	047H
	DB	047H
	DB	047H
	DB	047H
	DB	047H
	DB	047H
	DB	047H
	DB	047H
	DB	047H
	DB	047H
	DB	047H
	DB	047H
	DB	047H
	DB	047H
	DB	047H
	DB	047H
	DB	047H
	DB	047H
	DB	047H
	DB	047H
	DB	047H
	DB	047H
	DB	047H
	DB	047H
	DB	047H
	DB	047H
	DB	047H
	DB	047H
	DB	047H
	DB	047H
	DB	047H
	DB	047H
	DB	047H
	DB	047H
	DB	047H
	DB	047H
	DB	047H
	DB	047H
	DB	047H
	DB	047H
	DB	047H
	DB	047H
	DB	047H
	DB	047H
	DB	047H
	DB	047H
	DB	047H
	DB	047H
	DB	047H
	DB	047H
	DB	047H
	DB	047H
	DB	047H
	DB	047H
	DB	047H
	DB	047H
	DB	047H
	DB	047H
	DB	047H
	DB	047H
	DB	047H
	DB	047H
	DB	047H
	DB	047H
	DB	047H
	DB	047H
	DB	047H
	DB	047H
	DB	047H
	DB	047H
	DB	047H
	DB	047H
	DB	047H
	DB	047H
	DB	047H
	DB	047H
	DB	047H
	DB	047H
	DB	047H
	DB	047H
	DB	047H
	DB	047H
	DB	047H
	DB	047H
	DB	047H
	DB	047H
	DB	047H
	DB	047H
	DB	047H
	DB	047H
	DB	047H
	DB	047H
	DB	047H
	DB	047H
	DB	047H
	DB	047H
	DB	047H
	DB	047H
	DB	047H
	DB	047H
	DB	047H
	DB	047H
	DB	047H
	DB	047H
	DB	047H
	DB	047H
	DB	047H
	DB	047H
	DB	047H
	DB	047H
	DB	047H
	DB	047H
	DB	047H
	DB	047H
	DB	047H
	DB	047H
	DB	047H
	DB	047H
	DB	047H
	DB	047H
	DB	047H
	DB	047H
	DB	047H
	DB	047H
	DB	047H
	DB	047H
	DB	047H
	DB	047H
	DB	047H
	DB	047H
	DB	047H
	DB	047H
	DB	047H
	DB	047H
	DB	047H
	DB	047H
	DB	047H
	DB	047H
	DB	047H
	DB	047H
	DB	047H
	DB	047H
	DB	047H
	DB	047H
	DB	047H
	DB	047H
	DB	047H
	DB	047H
	DB	047H
	DB	047H
	DB	047H
	DB	047H
	DB	047H
	DB	047H
	DB	047H
	DB	047H
	DB	047H
	DB	047H
	DB	047H
	DB	047H
	DB	047H
	DB	047H
	DB	047H
	DB	047H
	DB	047H
	DB	047H
	DB	047H
	DB	047H
	DB	047H
	DB	047H
	DB	047H
	DB	047H
	DB	047H
	DB	047H
	DB	047H
	DB	047H
	DB	047H
	DB	047H
	DB	047H
	DB	047H
	DB	047H
	DB	047H
	DB	047H
	DB	047H
	DB	047H
	DB	047H
	DB	047H
	DB	047H
	DB	047H
	DB	047H
	DB	047H
	DB	047H
	DB	047H
	DB	047H
	DB	047H
	DB	047H
	DB	047H
	DB	047H
	DB	047H
	DB	047H
	DB	047H
	DB	047H
	DB	047H
	DB	047H
	DB	047H
	DB	047H
	DB	047H
	DB	047H
	DB	047H
	DB	047H
	DB	047H
	DB	047H
	DB	047H
	DB	047H
	DB	047H
	DB	047H
	DB	047H
	DB	047H
	DB	047H
	DB	047H
	DB	047H
	DB	047H
	DB	047H
	DB	047H
	DB	047H
	DB	047H
	DB	047H
	DB	047H
	DB	047H
	DB	047H
	DB	047H
	DB	047H
	DB	047H
	DB	047H
	DB	047H
	DB	047H
	DB	047H
	DB	047H
	DB	047H
	DB	047H
	DB	047H
	DB	047H
	DB	047H
	DB	047H
	DB	047H
	DB	047H
	DB	047H
	DB	047H
	DB	047H
	DB	047H
	DB	047H
	DB	047H
	DB	047H
	DB	047H
	DB	047H
	DB	047H
	DB	047H
	DB	047H
	DB	047H
	DB	047H
	DB	047H
	DB	047H
	DB	047H
	DB	047H
	DB	047H
	DB	047H
	DB	047H
	DB	047H
	DB	047H
	DB	047H
	DB	047H
	DB	047H
	DB	047H
	DB	047H
	DB	047H
	DB	047H
	DB	047H
	DB	047H
	DB	047H
	DB	047H
	DB	047H
	DB	047H
	DB	047H
	DB	047H
	DB	047H
	DB	047H
	DB	047H
	DB	047H
	DB	047H
	DB	047H
	DB	047H
	DB	047H
	DB	047H
	DB	047H
	DB	047H
	DB	047H
	DB	047H
	DB	047H
	DB	047H
	DB	047H
	DB	047H
	DB	047H
	DB	047H
	DB	047H
	DB	047H
	DB	047H
	DB	047H
	DB	047H
	DB	047H
	DB	047H
	DB	047H
	DB	047H
	DB	047H
	DB	047H
	DB	047H
	DB	047H
	DB	047H
	DB	047H
	DB	047H
	DB	047H
	DB	047H
	DB	047H
	DB	047H
	DB	047H
	DB	047H
	DB	047H
	DB	047H
	DB	047H
	DB	047H
	DB	047H
	DB	047H
	DB	047H
	DB	047H
	DB	047H
	DB	047H
	DB	047H
	DB	047H
	DB	047H
	DB	047H
	DB	047H
	DB	047H
	DB	047H
	DB	047H
	DB	047H
	DB	047H
	DB	047H
	DB	047H
	DB	047H
	DB	047H
	DB	047H
	DB	047H
	DB	047H
	DB	047H
	DB	047H
	DB	047H
	DB	047H
	DB	047H
	DB	047H
	DB	047H
	DB	047H
	DB	047H
	DB	047H
	DB	047H
	DB	047H
	DB	047H
	DB	047H
	DB	047H
	DB	047H
	DB	047H
	DB	047H
	DB	047H
	DB	047H
	DB	047H
	DB	047H
	DB	047H
	DB	047H
	DB	047H
	DB	047H
	DB	047H
	DB	047H
	DB	047H
	DB	047H
	DB	047H
	DB	047H
	DB	047H
	DB	047H
	DB	047H
	DB	047H
	DB	047H
	DB	047H
	DB	047H
	DB	047H
	DB	047H
	DB	047H
	DB	047H
	DB	047H
	DB	047H
	DB	047H
	DB	047H
	DB	047H
	DB	047H
	DB	047H
	DB	047H
	DB	047H
	DB	047H
	DB	047H
	DB	047H
	DB	047H
	DB	047H
	DB	047H
	DB	047H
	DB	047H
	DB	047H
	DB	047H
	DB	047H
	DB	047H
	DB	047H
	DB	047H
	DB	047H
	DB	047H
	DB	047H
	DB	047H
	DB	047H
	DB	047H
	DB	047H
	DB	047H
	DB	047H
	DB	047H
	DB	047H
	DB	047H
	DB	047H
	DB	047H
	DB	047H
	DB	047H
	DB	047H
	DB	047H
	DB	047H
	DB	047H
	DB	047H
	DB	047H
	DB	047H
	DB	047H
	DB	047H
	DB	047H
	DB	047H
	DB	047H
	DB	047H
	DB	047H
	DB	047H
	DB	047H
	DB	047H
	DB	047H
	DB	047H
	DB	047H
	DB	047H
	DB	047H
	DB	047H
	DB	047H
	DB	047H
	DB	047H
	DB	047H
	DB	047H
	DB	047H
	DB	047H
	DB	047H
	DB	047H
	DB	047H
	DB	047H
	DB	047H
	DB	047H
	DB	047H
	DB	047H
	DB	047H
	DB	047H
	DB	047H
	DB	047H
	DB	047H
	DB	047H
	DB	047H
	DB	047H
	DB	047H
	DB	047H
	DB	047H
	DB	047H
	DB	047H
	DB	047H
	DB	047H
	DB	047H
	DB	047H
	DB	047H
	DB	047H
	DB	047H
	DB	047H
	DB	047H
	DB	047H
	DB	047H
	DB	047H
	DB	047H
	DB	047H
	DB	047H
	DB	047H
	DB	047H
	DB	047H
	DB	047H
	DB	047H
	DB	047H
	DB	047H
	DB	047H
	DB	047H
	DB	047H
	DB	047H
	DB	047H
	DB	047H
	DB	047H
	DB	047H
	DB	047H
	DB	047H
	DB	047H
	DB	047H
	DB	047H
	DB	047H
	DB	047H
	DB	047H
	DB	047H
	DB	047H
	DB	047H
	DB	047H
	DB	047H
	DB	047H
	DB	047H
	DB	047H
	DB	047H
	DB	047H
	DB	047H
	DB	047H
	DB	047H
	DB	047H
	DB	047H
	DB	047H
	DB	047H
	DB	047H
	DB	047H
	DB	047H
	DB	047H
	DB	047H
	DB	047H
	DB	047H
	DB	047H
	DB	047H
	DB	047H
	DB	047H
	DB	047H
	DB	047H
	DB	047H
	DB	047H
	DB	047H
	DB	047H
	DB	047H
	DB	047H
	DB	047H
	DB	047H
	DB	047H
	DB	047H
	DB	047H
	DB	047H
	DB	047H
	DB	047H
	DB	047H
	DB	047H
	DB	047H
	DB	047H
	DB	047H
	DB	047H
	DB	047H
	DB	047H
	DB	047H
	DB	047H
	DB	047H
	DB	047H
	DB	047H
	DB	047H
	DB	047H
	DB	047H
	DB	047H
	DB	047H
	DB	047H
	DB	047H
	DB	047H
	DB	047H
	DB	047H
	DB	047H
	DB	047H
	DB	047H
	DB	047H
	DB	047H
	DB	047H
	DB	047H
	DB	047H
	DB	047H
	DB	047H
	DB	047H
	DB	047H
	DB	047H
	DB	047H
	DB	047H
	DB	047H
	DB	047H
	DB	047H
	DB	047H
	DB	047H
	DB	047H
	DB	047H
	DB	047H
	DB	047H
	DB	047H
	DB	047H
	DB	047H
	DB	047H
	DB	047H
	DB	047H
	DB	047H
	DB	047H
	DB	047H
	DB	047H
	DB	047H
	DB	047H
	DB	047H
	DB	047H
	DB	047H
	DB	047H
	DB	047H
	DB	047H
	DB	047H
	DB	047H
	DB	047H
	DB	047H
	DB	047H
	DB	047H
	DB	047H
	DB	047H
	DB	047H
	DB	047H
	DB	047H
	DB	047H
	DB	047H
	DB	047H
	DB	047H
	DB	047H
	DB	047H
	DB	047H
	DB	047H
	DB	047H
	DB	047H
	DB	047H
	DB	047H
	DB	047H
	DB	047H
	DB	047H
	DB	047H
	DB	047H
	DB	047H
	DB	047H
	DB	047H
	DB	047H
	DB	047H
	DB	047H
	DB	047H
	DB	047H
	DB	047H
	DB	047H
	DB	047H
	DB	047H
	DB	047H
	DB	047H
	DB	047H
	DB	047H
	DB	047H
	DB	047H
	DB	047H
	DB	047H
	DB	047H
	DB	047H
	DB	047H
	DB	047H
	DB	047H
	DB	047H
	DB	047H
	DB	047H
	DB	047H
	DB	047H
	DB	047H
	DB	047H
	DB	047H
	DB	047H
	DB	047H
	DB	047H
	DB	047H
	DB	047H
	DB	047H
	DB	047H
	DB	047H
	DB	047H
	DB	047H
	DB	047H
	DB	047H
	DB	047H
	DB	047H
	DB	047H
	DB	047H
	DB	047H
	DB	047H
	DB	047H
	DB	047H
	DB	047H
	DB	047H
	DB	047H
	DB	047H
	DB	047H
	DB	047H
	DB	047H
	DB	047H
	DB	047H
	DB	047H
	DB	047H
	DB	047H
	DB	047H
	DB	047H
	DB	047H
	DB	047H
	DB	047H
	DB	047H
	DB	047H
	DB	047H
	DB	047H
	DB	047H
	DB	047H
	DB	047H
	DB	047H
	DB	047H
	DB	047H
	DB	047H
	DB	047H
	DB	047H
	DB	047H
	DB	047H
	DB	047H
	DB	047H
	DB	047H
	DB	047H
	DB	047H
	DB	047H
	DB	047H
	DB	047H
	DB	047H
	DB	047H
	DB	047H
	DB	047H
	DB	047H
	DB	047H
	DB	047H
	DB	047H
	DB	047H
	DB	047H
	DB	047H
	DB	047H
	DB	047H
	DB	047H
	DB	047H
	DB	047H
	DB	047H
	DB	047H
	DB	047H
	DB	047H
	DB	047H
	DB	047H
	DB	047H
	DB	047H
	DB	047H
	DB	047H
	DB	047H
	DB	047H
	DB	047H
	DB	047H
	DB	047H
	DB	047H
	DB	047H
	DB	047H
	DB	047H
	DB	047H
	DB	047H
	DB	047H
	DB	047H
	DB	047H
	DB	047H
	DB	047H
	DB	047H
	DB	047H
	DB	047H
	DB	047H
	DB	047H
	DB	047H
	DB	047H
	DB	047H
	DB	047H
	DB	047H
	DB	047H
	DB	047H
	DB	047H
	DB	047H
	DB	047H
	DB	047H
	DB	047H
	DB	047H
	DB	047H
	DB	047H
	DB	047H
	DB	047H
	DB	047H
	DB	047H
	DB	047H
	DB	047H
	DB	047H
	DB	047H
	DB	047H
	DB	047H
	DB	047H
	DB	047H
	DB	047H
	DB	047H
	DB	047H
	DB	047H
	DB	047H
	DB	047H
	DB	047H
	DB	047H
	DB	047H
	DB	047H
	DB	047H
	DB	047H
	DB	047H
	DB	047H
	DB	047H
	DB	047H
	DB	047H
	DB	047H
	DB	047H
	DB	047H
	DB	047H
	DB	047H
	DB	047H
	DB	047H
	DB	047H
	DB	047H
	DB	047H
	DB	047H
	DB	047H
	DB	047H
	DB	047H
	DB	047H
	DB	047H
	DB	047H
	DB	047H
	DB	047H
	DB	047H
	DB	047H
	DB	047H
	DB	047H
	DB	047H
	DB	047H
	DB	047H
	DB	047H
	DB	047H
	DB	047H
	DB	047H
	DB	047H
	DB	047H
	DB	047H
	DB	047H
	DB	047H
	DB	047H
	DB	047H
	DB	047H
	DB	047H
	DB	047H
	DB	047H
	DB	047H
	DB	047H
	DB	047H
	DB	047H
	DB	047H
	DB	047H
	DB	047H
	DB	047H
	DB	047H
	DB	047H
	DB	047H
	DB	047H
	DB	047H
	DB	047H
	DB	047H
	DB	047H
	DB	047H
	DB	047H
	DB	047H
	DB	047H
	DB	047H
	DB	047H
	DB	047H
	DB	047H
	DB	047H
	DB	047H
	DB	047H
	DB	047H
	DB	047H
	DB	047H
	DB	047H
	DB	047H
	DB	047H
	DB	047H
	DB	047H
	DB	047H
	DB	047H
	DB	047H
	DB	047H
	DB	047H
	DB	047H
	DB	047H
	DB	047H
	DB	047H
	DB	047H
	DB	047H
	DB	047H
	DB	047H
	DB	047H
	DB	047H
	DB	047H
	DB	047H
	DB	047H
	DB	047H
	DB	047H
	DB	047H
	DB	047H
	DB	047H
	DB	047H
	DB	047H
	DB	047H
	DB	047H
	DB	047H
	DB	047H
	DB	047H
	DB	047H
	DB	047H
	DB	047H
	DB	047H
	DB	047H
	DB	047H
	DB	047H
	DB	047H
	DB	047H
	DB	047H
	DB	047H
	DB	047H
	DB	047H
	DB	047H
	DB	047H
	DB	047H
	DB	047H
	DB	047H
	DB	047H
	DB	047H
	DB	047H
	DB	047H
	DB	047H
	DB	047H
	DB	047H
	DB	047H
	DB	047H
	DB	047H
	DB	047H
	DB	047H
	DB	047H
	DB	047H
	DB	047H
	DB	047H
	DB	047H
	DB	047H
	DB	047H
	DB	047H
	DB	047H
	DB	047H
	DB	047H
	DB	047H
	DB	047H
	DB	047H
	DB	047H
	DB	047H
	DB	047H
	DB	047H
	DB	047H
	DB	047H
	DB	047H
	DB	047H
	DB	047H
	DB	047H
	DB	047H
	DB	047H
	DB	047H
	DB	047H
	DB	047H
	DB	047H
	DB	047H
	DB	047H
	DB	047H
	DB	047H
	DB	047H
	DB	047H
	DB	047H
	DB	047H
	DB	047H
	DB	047H
	DB	047H
	DB	047H
	DB	047H
	DB	047H
	DB	047H
	DB	047H
	DB	047H
	DB	047H
	DB	047H
	DB	047H
	DB	047H
	DB	047H
	DB	047H
	DB	047H
	DB	047H
	DB	047H
	DB	047H
	DB	047H
	DB	047H
	DB	047H
	DB	047H
	DB	047H
	DB	047H
	DB	047H
	DB	047H
	DB	047H
	DB	047H
	DB	047H
	DB	047H
	DB	047H
	DB	047H
	DB	047H
	DB	047H
	DB	047H
	DB	047H
	DB	047H
	DB	047H
	DB	047H
	DB	047H
	DB	047H
	DB	047H
	DB	047H
	DB	047H
	DB	047H
	DB	047H
	DB	047H
	DB	047H
	DB	047H
	DB	047H
	DB	047H
	DB	047H
	DB	047H
	DB	047H
	DB	047H
	DB	047H
	DB	047H
	DB	047H
	DB	047H
	DB	047H
	DB	047H
	DB	047H
	DB	047H
	DB	047H
	DB	047H
	DB	047H
	DB	047H
	DB	047H
	DB	047H
	DB	047H
	DB	047H
	DB	047H
	DB	047H
	DB	047H
	DB	047H
	DB	047H
	DB	047H
	DB	047H
	DB	047H
	DB	047H
	DB	047H
	DB	047H
	DB	047H
	DB	047H
	DB	047H
	DB	047H
	DB	047H
	DB	047H
	DB	047H
	DB	047H
	DB	047H
	DB	047H
	DB	047H
	DB	047H
	DB	047H
	DB	047H
	DB	047H
	DB	047H
	DB	047H
	DB	047H
	DB	047H
	DB	047H
	DB	047H
	DB	047H
	DB	047H
	DB	047H
	DB	047H
	DB	047H
	DB	047H
	DB	047H
	DB	047H
	DB	047H
	DB	047H
	DB	047H
	DB	047H
	DB	047H
	DB	047H
	DB	047H
	DB	047H
	DB	047H
	DB	047H
	DB	047H
	DB	047H
	DB	047H
	DB	047H
	DB	047H
	DB	047H
	DB	047H
	DB	047H
	DB	047H
	DB	047H
	DB	047H
	DB	047H
	DB	047H
	DB	047H
	DB	047H
	DB	047H
	DB	047H
	DB	047H
	DB	047H
	DB	047H
	DB	047H
	DB	047H
	DB	047H
	DB	047H
	DB	047H
	DB	047H
	DB	047H
	DB	047H
	DB	047H
	DB	047H
	DB	047H
	DB	047H
	DB	047H
	DB	047H
	DB	047H
	DB	047H
	DB	047H
	DB	047H
	DB	047H
	DB	047H
	DB	047H
	DB	047H
	DB	047H
	DB	047H
	DB	047H
	DB	047H
	DB	047H
	DB	047H
	DB	047H
	DB	047H
	DB	047H
	DB	047H
	DB	047H
	DB	047H
	DB	047H
	DB	047H
	DB	047H
	DB	047H
	DB	047H
	DB	047H
	DB	047H
	DB	047H
	DB	047H
	DB	047H
	DB	047H
	DB	047H
	DB	047H
	DB	047H
	DB	047H
	DB	047H
	DB	047H
	DB	047H
	DB	047H
	DB	047H
	DB	047H
	DB	047H
	DB	047H
	DB	047H
	DB	047H
	DB	047H
	DB	047H
	DB	047H
	DB	047H
	DB	047H
	DB	047H
	DB	047H
	DB	047H
	DB	047H
	DB	047H
	DB	047H
	DB	047H
	DB	047H
	DB	047H
	DB	047H
	DB	047H
	DB	047H
	DB	047H
	DB	047H
	DB	047H
	DB	047H
	DB	047H
	DB	047H
	DB	047H
	DB	047H
	DB	047H
	DB	047H
	DB	047H
	DB	047H
	DB	047H
	DB	047H
	DB	047H
	DB	047H
	DB	047H
	DB	047H
	DB	047H
	DB	047H
	DB	047H
	DB	047H
	DB	047H
	DB	047H
	DB	047H
	DB	047H
	DB	047H
	DB	047H
	DB	047H
	DB	047H
	DB	047H
	DB	047H
	DB	047H
	DB	047H
	DB	047H
	DB	047H
	DB	047H
	DB	047H
	DB	047H
	DB	047H
	DB	047H
	DB	047H
	DB	047H
	DB	047H
	DB	047H
	DB	047H
	DB	047H
	DB	047H
	DB	047H
	DB	047H
	DB	047H
	DB	047H
	DB	047H
	DB	047H
	DB	047H
	DB	047H
	DB	047H
	DB	047H
	DB	047H
	DB	047H
	DB	047H
	DB	047H
	DB	047H
	DB	047H
	DB	047H
	DB	047H
	DB	047H
	DB	047H
	DB	047H
	DB	047H
	DB	047H
	DB	047H
	DB	047H
	DB	047H
	DB	047H
	DB	047H
	DB	047H
	DB	047H
	DB	047H
	DB	047H
	DB	047H
	DB	047H
	DB	047H
	DB	047H
	DB	047H
	DB	047H
	DB	047H
	DB	047H
	DB	047H
	DB	047H
	DB	047H
	DB	047H
	DB	047H
	DB	047H
	DB	047H
	DB	047H
	DB	047H
	DB	047H
	DB	047H
	DB	047H
	DB	047H
	DB	047H
	DB	047H
	DB	047H
	DB	047H
	DB	047H
	DB	047H
	DB	047H
	DB	047H
	DB	047H
	DB	047H
	DB	047H
	DB	047H
	DB	047H
	DB	047H
	DB	047H
	DB	047H
	DB	047H
	DB	047H
	DB	047H
	DB	047H
	DB	047H
	DB	047H
	DB	047H
	DB	047H
	DB	047H
	DB	047H
	DB	047H
	DB	047H
	DB	047H
	DB	047H
	DB	047H
	DB	047H
	DB	047H
	DB	047H
	DB	047H
	DB	047H
	DB	047H
	DB	047H
	DB	047H
	DB	047H
	DB	047H
	DB	047H
	DB	047H
	DB	047H
	DB	047H
	DB	047H
	DB	047H
	DB	047H
	DB	047H
	DB	047H
	DB	047H
	DB	047H
	DB	047H
	DB	047H
	DB	047H
	DB	047H
	DB	047H
	DB	047H
	DB	047H
	DB	047H
	DB	047H
	DB	047H
	DB	047H
	DB	047H
	DB	047H
	DB	047H
	DB	047H
	DB	047H
	DB	047H
	DB	047H
	DB	047H
	DB	047H
	DB	047H
	DB	047H
	DB	047H
	DB	047H
	DB	047H
	DB	047H
	DB	047H
	DB	047H
	DB	047H
	DB	047H
	DB	047H
	DB	047H
	DB	047H
	DB	047H
	DB	047H
	DB	047H
	DB	047H
	DB	047H
	DB	047H
	DB	047H
	DB	047H
	DB	047H
	DB	047H
	DB	047H
	DB	047H
	DB	047H
	DB	047H
	DB	047H
	DB	047H
	DB	047H
	DB	047H
	DB	047H
	DB	047H
	DB	047H
	DB	047H
	DB	047H
	DB	047H
	DB	047H
	DB	047H
	DB	047H
	DB	047H
	DB	047H
	DB	047H
	DB	047H
	DB	047H
	DB	047H
	DB	047H
	DB	047H
	DB	047H
	DB	047H
	DB	047H
	DB	047H
	DB	047H
	DB	047H
	DB	047H
	DB	047H
	DB	047H
	DB	047H
	DB	047H
	DB	047H
	DB	047H
	DB	047H
	DB	047H
	DB	047H
	DB	047H
	DB	047H
	DB	047H
	DB	047H
	DB	047H
	DB	047H
	DB	047H
	DB	047H
	DB	047H
	DB	047H
	DB	047H
	DB	047H
	DB	047H
	DB	047H
	DB	047H
	DB	047H
	DB	047H
	DB	047H
	DB	047H
	DB	047H
	DB	047H
	DB	047H
	DB	047H
	DB	047H
	DB	047H
	DB	047H
	DB	047H
	DB	047H
	DB	047H
	DB	047H
	DB	047H
	DB	047H
	DB	047H
	DB	047H
	DB	047H
	DB	047H
	DB	047H
	DB	047H
	DB	047H
	DB	047H
	DB	047H
	DB	047H
	DB	047H
	DB	047H
	DB	047H
	DB	047H
	DB	047H
	DB	047H
	DB	047H
	DB	047H
	DB	047H
	DB	047H
	DB	047H
	DB	047H
	DB	047H
	DB	047H
	DB	047H
	DB	047H
	DB	047H
	DB	047H
	DB	047H
	DB	047H
	DB	047H
	DB	047H
	DB	047H
	DB	047H
	DB	047H
	DB	047H
	DB	047H
	DB	047H
	DB	047H
	DB	047H
	DB	047H
	DB	047H
	DB	047H
	DB	047H
	DB	047H
	DB	047H
	DB	047H
	DB	047H
	DB	047H
	DB	047H
	DB	047H
	DB	047H
	DB	047H
	DB	047H
	DB	047H
	DB	047H
	DB	047H
	DB	047H
	DB	047H
	DB	047H
	DB	047H
	DB	047H
	DB	047H
	DB	047H
	DB	047H
	DB	047H
	DB	047H
	DB	047H
	DB	047H
	DB	047H
	DB	047H
	DB	047H
	DB	047H
	DB	047H
	DB	047H
	DB	047H
	DB	047H
	DB	047H
	DB	047H
	DB	047H
	DB	047H
	DB	047H
	DB	047H
	DB	047H
	DB	047H
	DB	047H
	DB	047H
	DB	047H
	DB	047H
	DB	047H
	DB	047H
	DB	047H
	DB	047H
	DB	047H
	DB	047H
	DB	047H
	DB	047H
	DB	047H
	DB	047H
	DB	047H
	DB	047H
	DB	047H
	DB	047H
	DB	047H
	DB	047H
	DB	047H
	DB	047H
	DB	047H
	DB	047H
	DB	047H
	DB	047H
	DB	047H
	DB	047H
	DB	047H
	DB	047H
	DB	047H
	DB	047H
	DB	047H
	DB	047H
	DB	047H
	DB	047H
	DB	047H
	DB	047H
	DB	047H
	DB	047H
	DB	047H
	DB	047H
	DB	047H
	DB	047H
	DB	047H
	DB	047H
	DB	047H
	DB	047H
	DB	047H
	DB	047H
	DB	047H
	DB	047H
	DB	047H
	DB	047H
	DB	047H
	DB	047H
	DB	047H
	DB	047H
	DB	047H
	DB	047H
	DB	047H
	DB	047H
	DB	047H
	DB	047H
	DB	047H
	DB	047H
	DB	047H
	DB	047H
	DB	047H
	DB	047H
	DB	047H
	DB	047H
	DB	047H
	DB	047H
	DB	047H
	DB	047H
	DB	047H
	DB	047H
	DB	047H
	DB	047H
	DB	047H
	DB	047H
	DB	047H
	DB	047H
	DB	047H
	DB	047H
	DB	047H
	DB	047H
	DB	047H
	DB	047H
	DB	047H
	DB	047H
	DB	047H
	DB	047H
	DB	047H
	DB	047H
	DB	047H
	DB	047H
	DB	047H
	DB	047H
	DB	047H
	DB	047H
	DB	047H
	DB	047H
	DB	047H
	DB	047H
	DB	047H
	DB	047H
	DB	047H
	DB	047H
	DB	047H
	DB	047H
	DB	047H
	DB	047H
	DB	047H
	DB	047H
	DB	047H
	DB	047H
	DB	047H
	DB	047H
	DB	047H
	DB	047H
	DB	047H
	DB	047H
	DB	047H
	DB	047H
	DB	047H
	DB	047H
	DB	047H
	DB	047H
	DB	047H
	DB	047H
	DB	047H
	DB	047H
	DB	047H
	DB	047H
	DB	047H
	DB	047H
	DB	047H
	DB	047H
	DB	047H
	DB	047H
	DB	047H
	DB	047H
	DB	047H
	DB	047H
	DB	047H
	DB	047H
	DB	047H
	DB	047H
	DB	047H
	DB	047H
	DB	047H
	DB	047H
	DB	047H
	DB	047H
	DB	047H
	DB	047H
	DB	047H
	DB	047H
	DB	047H
	DB	047H
	DB	047H
	DB	047H
	DB	047H
	DB	047H
	DB	047H
	DB	047H
	DB	047H
	DB	047H
	DB	047H
	DB	047H
	DB	047H
	DB	047H
	DB	047H
	DB	047H
	DB	047H
	DB	047H
	DB	047H
	DB	047H
	DB	047H
	DB	047H
	DB	047H
	DB	047H
	DB	047H
	DB	047H
	DB	047H
	DB	047H
	DB	047H
	DB	047H
	DB	047H
	DB	047H
	DB	047H
	DB	047H
	DB	047H
	DB	047H
	DB	047H
	DB	047H
	DB	047H
	DB	047H
	DB	047H
	DB	047H
	DB	047H
	DB	047H
	DB	047H
	DB	047H
	DB	047H
	DB	047H
	DB	047H
	DB	047H
	DB	047H
	DB	047H
	DB	047H
	DB	047H
	DB	047H
	DB	047H
	DB	047H
	DB	047H
	DB	047H
	DB	047H
	DB	047H
	DB	047H
	DB	047H
	DB	047H
	DB	047H
	DB	047H
	DB	047H
	DB	047H
	DB	047H
	DB	047H
	DB	047H
	DB	047H
	DB	047H
	DB	047H
	DB	047H
	DB	047H
	DB	047H
	DB	047H
	DB	047H
	DB	047H
	DB	047H
	DB	047H
	DB	047H
	DB	047H
	DB	047H
	DB	047H
	DB	047H
	DB	047H
	DB	047H
	DB	047H
	DB	047H
	DB	047H
	DB	047H
	DB	047H
	DB	047H
	DB	047H
	DB	047H
	DB	047H
	DB	047H
	DB	047H
	DB	047H
	DB	047H
	DB	047H
	DB	047H
	DB	047H
	DB	047H
	DB	047H
	DB	047H
	DB	047H
	DB	047H
	DB	047H
	DB	047H
	DB	047H
	DB	047H
	DB	047H
	DB	047H
	DB	047H
	DB	047H
	DB	047H
	DB	047H
	DB	047H
	DB	047H
	DB	047H
	DB	047H
	DB	047H
	DB	047H
	DB	047H
	DB	047H
	DB	047H
	DB	047H
	DB	047H
	DB	047H
	DB	047H
	DB	047H
	DB	047H
	DB	047H
	DB	047H
	DB	047H
	DB	047H
	DB	047H
	DB	047H
	DB	047H
	DB	047H
	DB	047H
	DB	047H
	DB	047H
	DB	047H
	DB	047H
	DB	047H
	DB	047H
	DB	047H
	DB	047H
	DB	047H
	DB	047H
	DB	047H
	DB	047H
	DB	047H
	DB	047H
	DB	047H
	DB	047H
	DB	047H
	DB	047H
	DB	047H
	DB	047H
	DB	047H
	DB	047H
	DB	047H
	DB	047H
	DB	047H
	DB	047H
	DB	047H
	DB	047H
	DB	047H
	DB	047H
	DB	047H
	DB	047H
	DB	047H
	DB	047H
	DB	047H
	DB	047H
	DB	047H
	DB	047H
	DB	047H
	DB	047H
	DB	047H
	DB	047H
	DB	047H
	DB	047H
	DB	047H
	DB	047H
	DB	047H
	DB	047H
	DB	047H
	DB	047H
	DB	047H
	DB	047H
	DB	047H
	DB	047H
	DB	047H
	DB	047H
	DB	047H
	DB	047H
	DB	047H
	DB	047H
	DB	047H
	DB	047H
	DB	047H
	DB	047H
	DB	047H
	DB	047H
	DB	047H
	DB	047H
	DB	047H
	DB	047H
	DB	047H
	DB	047H
	DB	047H
	DB	047H
	DB	047H
	DB	047H
	DB	047H
	DB	047H
	DB	047H
	DB	047H
	DB	047H
	DB	047H
	DB	047H
	DB	047H
	DB	047H
	DB	047H
	DB	047H
	DB	047H
	DB	047H
	DB	047H
	DB	047H
	DB	047H
	DB	047H
	DB	047H
	DB	047H
	DB	047H
	DB	047H
	DB	047H
	DB	047H
	DB	047H
	DB	047H
	DB	047H
	DB	047H
	DB	047H
	DB	047H
	DB	047H
	DB	047H
	DB	047H
	DB	047H
	DB	047H
	DB	047H
	DB	047H
	DB	047H
	DB	047H
	DB	047H
	DB	047H
	DB	047H
	DB	047H
	DB	047H
	DB	047H
	DB	047H
	DB	047H
	DB	047H
	DB	047H
	DB	047H
	DB	047H
	DB	047H
	DB	047H
	DB	047H
	DB	047H
	DB	047H
	DB	047H
	DB	047H
	DB	047H
	DB	047H
	DB	047H
	DB	047H
	DB	047H
	DB	047H
	DB	047H
	DB	047H
	DB	047H
	DB	047H
	DB	047H
	DB	047H
	DB	047H
	DB	047H
	DB	047H
	DB	047H
	DB	047H
	DB	047H
	DB	047H
	DB	047H
	DB	047H
	DB	047H
	DB	047H
	DB	047H
	DB	047H
	DB	047H
	DB	047H
	DB	047H
	DB	047H
	DB	047H
	DB	047H
	DB	047H
	DB	047H
	DB	047H
	DB	047H
	DB	047H
	DB	047H
	DB	047H
	DB	047H
	DB	047H
	DB	047H
	DB	047H
	DB	047H
	DB	047H
	DB	047H
	DB	047H
	DB	047H
	DB	047H
	DB	047H
	DB	047H
	DB	047H
	DB	047H
	DB	047H
	DB	047H
	DB	047H
	DB	047H
	DB	047H
	DB	047H
	DB	047H
	DB	047H
	DB	047H
	DB	047H
	DB	047H
	DB	047H
	DB	047H
	DB	047H
	DB	047H
	DB	047H
	DB	047H
	DB	047H
	DB	047H
	DB	047H
	DB	047H
	DB	047H
	DB	047H
	DB	047H
	DB	047H
	DB	047H
	DB	047H
	DB	047H
	DB	047H
	DB	047H
	DB	047H
	DB	047H
	DB	047H
	DB	047H
	DB	047H
	DB	047H
	DB	047H
	DB	047H
	DB	047H
	DB	047H
	DB	047H
	DB	047H
	DB	047H
	DB	047H
	DB	047H
	DB	047H
	DB	047H
	DB	047H
	DB	047H
	DB	047H
	DB	047H
	DB	047H
	DB	047H
	DB	047H
	DB	047H
	DB	047H
	DB	047H
	DB	047H
	DB	047H
	DB	047H
	DB	047H
	DB	047H
	DB	047H
	DB	047H
	DB	047H
	DB	047H
	DB	047H
	DB	047H
	DB	047H
	DB	047H
	DB	047H
	DB	047H
	DB	047H
	DB	047H
	DB	047H
	DB	047H
	DB	047H
	DB	047H
	DB	047H
	DB	047H
	DB	047H
	DB	047H
	DB	047H
	DB	047H
	DB	047H
	DB	047H
	DB	047H
	DB	047H
	DB	047H
	DB	047H
	DB	047H
	DB	047H
	DB	047H
	DB	047H
	DB	047H
	DB	047H
	DB	047H
	DB	047H
	DB	047H
	DB	047H
	DB	047H
	DB	047H
	DB	047H
	DB	047H
	DB	047H
	DB	047H
	DB	047H
	DB	047H
	DB	047H
	DB	047H
	DB	047H
	DB	047H
	DB	047H
	DB	047H
	DB	047H
	DB	047H
	DB	047H
	DB	047H
	DB	047H
	DB	047H
	DB	047H
	DB	047H
	DB	047H
	DB	047H
	DB	047H
	DB	047H
	DB	047H
	DB	047H
	DB	047H
	DB	047H
	DB	047H
	DB	047H
	DB	047H
	DB	047H
	DB	047H
	DB	047H
	DB	047H
	DB	047H
	DB	047H
	DB	047H
	DB	047H
	DB	047H
	DB	047H
	DB	047H
	DB	047H
	DB	047H
	DB	047H
	DB	047H
	DB	047H
	DB	047H
	DB	047H
	DB	047H
	DB	047H
	DB	047H
	DB	047H
	DB	047H
	DB	047H
	DB	047H
	DB	047H
	DB	047H
	DB	047H
	DB	047H
	DB	047H
	DB	047H
	DB	047H
	DB	047H
	DB	047H
	DB	047H
	DB	047H
	DB	047H
	DB	047H
	DB	047H
	DB	047H
	DB	047H
	DB	047H
	DB	047H
	DB	047H
	DB	047H
	DB	047H
	DB	047H
	DB	047H
	DB	047H
	DB	047H
	DB	047H
	DB	047H
	DB	047H
	DB	047H
	DB	047H
	DB	047H
	DB	047H
	DB	047H
	DB	047H
	DB	047H
	DB	047H
	DB	047H
	DB	047H
	DB	047H
	DB	047H
	DB	047H
	DB	047H
	DB	047H
	DB	047H
	DB	047H
	DB	047H
	DB	047H
	DB	047H
	DB	047H
	DB	047H
	DB	047H
	DB	047H
	DB	047H
	DB	047H
	DB	047H
	DB	047H
	DB	047H
	DB	047H
	DB	047H
	DB	047H
	DB	047H
	DB	047H
	DB	047H
	DB	047H
	DB	047H
	DB	047H
	DB	047H
	DB	047H
	DB	047H
	DB	047H
	DB	047H
	DB	047H
	DB	047H
	DB	047H
	DB	047H
	DB	047H
	DB	047H
	DB	047H
	DB	047H
	DB	047H
	DB	047H
	DB	047H
	DB	047H
	DB	047H
	DB	047H
	DB	047H
	DB	047H
	DB	047H
	DB	047H
	DB	047H
	DB	047H
	DB	047H
	DB	047H
	DB	047H
	DB	047H
	DB	047H
	DB	047H
	DB	047H
	DB	047H
	DB	047H
	DB	047H
	DB	047H
	DB	047H
	DB	047H
	DB	047H
	DB	047H
	DB	047H
	DB	047H
	DB	047H
	DB	047H
	DB	047H
	DB	047H
	DB	047H
	DB	047H
	DB	047H
	DB	047H
	DB	047H
	DB	047H
	DB	047H
	DB	047H
	DB	047H
	DB	047H
	DB	047H
	DB	047H
	DB	047H
	DB	047H
	DB	047H
	DB	047H
	DB	047H
	DB	047H
	DB	047H
	DB	047H
	DB	047H
	DB	047H
	DB	047H
	DB	047H
	DB	047H
	DB	047H
	DB	047H
	DB	047H
	DB	047H
	DB	047H
	DB	047H
	DB	047H
	DB	047H
	DB	047H
	DB	047H
	DB	047H
	DB	047H
	DB	047H
	DB	047H
	DB	047H
	DB	047H
	DB	047H
	DB	047H
	DB	047H
	DB	047H
	DB	047H
	DB	047H
	DB	047H
	DB	047H
	DB	047H
	DB	047H
	DB	047H
	DB	047H
	DB	047H
	DB	047H
	DB	047H
	DB	047H
	DB	047H
	DB	047H
	DB	047H
	DB	047H
	DB	047H
	DB	047H
	DB	047H
	DB	047H
	DB	047H
	DB	047H
	DB	047H
	DB	047H
	DB	047H
	DB	047H
	DB	047H
	DB	047H
	DB	047H
	DB	047H
	DB	047H
	DB	047H
	DB	047H
	DB	047H
	DB	047H
	DB	047H
	DB	047H
	DB	047H
	DB	047H
	DB	047H
	DB	047H
	DB	047H
	DB	047H
	DB	047H
	DB	047H
	DB	047H
	DB	047H
	DB	047H
	DB	047H
	DB	047H
	DB	047H
	DB	047H
	DB	047H
	DB	047H
	DB	047H
	DB	047H
	DB	047H
	DB	047H
	DB	047H
	DB	047H
	DB	047H
	DB	047H
	DB	047H
	DB	047H
	DB	047H
	DB	047H
	DB	047H
	DB	047H
	DB	047H
	DB	047H
	DB	047H
	DB	047H
	DB	047H
	DB	047H
	DB	047H
	DB	047H
	DB	047H
	DB	047H
	DB	047H
	DB	047H
	DB	047H
	DB	047H
	DB	047H
	DB	047H
	DB	047H
	DB	047H
	DB	047H
	DB	047H
	DB	047H
	DB	047H
	DB	047H
	DB	047H
	DB	047H
	DB	047H
	DB	047H
	DB	047H
	DB	047H
	DB	047H
	DB	047H
	DB	047H
	DB	047H
	DB	047H
	DB	047H
	DB	047H
	DB	047H
	DB	047H
	DB	047H
	DB	047H
	DB	047H
	DB	047H
	DB	047H
	DB	047H
	DB	047H
	DB	047H
	DB	047H
	DB	047H
	DB	047H
	DB	047H
	DB	047H
	DB	047H
	DB	047H
	DB	047H
	DB	047H
	DB	047H
	DB	047H
	DB	047H
	DB	047H
	DB	047H
	DB	047H
	DB	047H
	DB	047H
	DB	047H
	DB	047H
	DB	047H
	DB	047H
	DB	047H
	DB	047H
	DB	047H
	DB	047H
	DB	047H
	DB	047H
	DB	047H
	DB	047H
	DB	047H
	DB	047H
	DB	047H
	DB	047H
	DB	047H
	DB	047H
	DB	047H
	DB	047H
	DB	047H
	DB	047H
	DB	047H
	DB	047H
	DB	047H
	DB	047H
	DB	047H
	DB	047H
	DB	047H
	DB	047H
	DB	047H
	DB	047H
	DB	047H
	DB	047H
	DB	047H
	DB	047H
	DB	047H
	DB	047H
	DB	047H
	DB	047H
	DB	047H
	DB	047H
	DB	047H
	DB	047H
	DB	047H
	DB	047H
	DB	047H
	DB	047H
	DB	047H
	DB	047H
	DB	047H
	DB	047H
	DB	047H
	DB	047H
	DB	047H
	DB	047H
	DB	047H
	DB	047H
	DB	047H
	DB	047H
	DB	047H
	DB	047H
	DB	047H
	DB	047H
	DB	047H
	DB	047H
	DB	047H
	DB	047H
	DB	047H
	DB	047H
	DB	047H
	DB	047H
	DB	047H
	DB	047H
	DB	047H
	DB	047H
	DB	047H
	DB	047H
	DB	047H
	DB	047H
	DB	047H
	DB	047H
	DB	047H
	DB	047H
	DB	047H
	DB	047H
	DB	047H
	DB	047H
	DB	047H
	DB	047H
	DB	047H
	DB	047H
	DB	047H
	DB	047H
	DB	047H
	DB	047H
	DB	047H
	DB	047H
	DB	047H
	DB	047H
	DB	047H
	DB	047H
	DB	047H
	DB	047H
	DB	047H
	DB	047H
	DB	047H
	DB	047H
	DB	047H
	DB	047H
	DB	047H
	DB	047H
	DB	047H
	DB	047H
	DB	047H
	DB	047H
	DB	047H
	DB	047H
	DB	047H
	DB	047H
	DB	047H
	DB	047H
	DB	047H
	DB	047H
	DB	047H
	DB	047H
	DB	047H
	DB	047H
	DB	047H
	DB	047H
	DB	047H
	DB	047H
	DB	047H
	DB	047H
	DB	047H
	DB	047H
	DB	047H
	DB	047H
	DB	047H
	DB	047H
	DB	047H
	DB	047H
	DB	047H
	DB	047H
	DB	047H
	DB	047H
	DB	047H
	DB	047H
	DB	047H
	DB	047H
	DB	047H
	DB	047H
	DB	047H
	DB	047H
	DB	047H
	DB	047H
	DB	047H
	DB	047H
	DB	047H
	DB	047H
	DB	047H
	DB	047H
	DB	047H
	DB	047H
	DB	047H
	DB	047H
	DB	047H
	DB	047H
	DB	047H
	DB	047H
	DB	047H
	DB	047H
	DB	047H
	DB	047H
	DB	047H
	DB	047H
	DB	047H
	DB	047H
	DB	047H
	DB	047H
	DB	047H
	DB	047H
	DB	047H
	DB	047H
	DB	047H
	DB	047H
	DB	047H
	DB	047H
	DB	047H
	DB	047H
	DB	047H
	DB	047H
	DB	047H
	DB	047H
	DB	047H
	DB	047H
	DB	047H
	DB	047H
	DB	047H
	DB	047H
	DB	047H
	DB	047H
	DB	047H
	DB	047H
	DB	047H
	DB	047H
	DB	047H
	DB	047H
	DB	047H
	DB	047H
	DB	047H
	DB	047H
	DB	047H
	DB	047H
	DB	047H
	DB	047H
	DB	047H
	DB	047H
	DB	047H
	DB	047H
	DB	047H
	DB	047H
	DB	047H
	DB	047H
	DB	047H
	DB	047H
	DB	047H
	DB	047H
	DB	047H
	DB	047H
	DB	047H
	DB	047H
	DB	047H
	DB	047H
	DB	047H
	DB	047H
	DB	047H
	DB	047H
	DB	047H
	DB	047H
	DB	047H
	DB	047H
	DB	047H
	DB	047H
	DB	047H
	DB	047H
	DB	047H
	DB	047H
	DB	047H
	DB	047H
	DB	047H
	DB	047H
	DB	047H
	DB	047H
	DB	047H
	DB	047H
	DB	047H
	DB	047H
	DB	047H
	DB	047H
	DB	047H
	DB	047H
	DB	047H
	DB	047H
	DB	047H
	DB	047H
	DB	047H
	DB	047H
	DB	047H
	DB	047H
	DB	047H
	DB	047H
	DB	047H
	DB	047H
	DB	047H
	DB	047H
	DB	047H
	DB	047H
	DB	047H
	DB	047H
	DB	047H
	DB	047H
	DB	047H
	DB	047H
	DB	047H
	DB	047H
	DB	047H
	DB	047H
	DB	047H
	DB	047H
	DB	047H
	DB	047H
	DB	047H
	DB	047H
	DB	047H
	DB	047H
	DB	047H
	DB	047H
	DB	047H
	DB	047H
	DB	047H
	DB	047H
	DB	047H
	DB	047H
	DB	047H
	DB	047H
	DB	047H
	DB	047H
	DB	047H
	DB	047H
	DB	047H
	DB	047H
	DB	047H
	DB	047H
	DB	047H
	DB	047H
	DB	047H
	DB	047H
	DB	047H
	DB	047H
	DB	047H
	DB	047H
	DB	047H
	DB	047H
	DB	047H
	DB	047H
	DB	047H
	DB	047H
	DB	047H
	DB	047H
	DB	047H
	DB	047H
	DB	047H
	DB	047H
	DB	047H
	DB	047H
	DB	047H
	DB	047H
	DB	047H
	DB	047H
	DB	047H
	DB	047H
	DB	047H
	DB	047H
	DB	047H
	DB	047H
	DB	047H
	DB	047H
	DB	047H
	DB	047H
	DB	047H
	DB	047H
	DB	047H
	DB	047H
	DB	047H
	DB	047H
	DB	047H
	DB	047H
	DB	047H
	DB	047H
	DB	047H
	DB	047H
	DB	047H
	DB	047H
	DB	047H
	DB	047H
	DB	047H
	DB	047H
	DB	047H
	DB	047H
	DB	047H
	DB	047H
	DB	047H
	DB	047H
	DB	047H
	DB	047H
	DB	047H
	DB	047H
	DB	047H
	DB	047H
	DB	047H
	DB	047H
	DB	047H
	DB	047H
	DB	047H
	DB	047H
	DB	047H
	DB	047H
	DB	047H
	DB	047H
	DB	047H
	DB	047H
	DB	047H
	DB	047H
	DB	047H
	DB	047H
	DB	047H
	DB	047H
	DB	047H
	DB	047H
	DB	047H
	DB	047H
	DB	047H
	DB	047H
	DB	047H
	DB	047H
	DB	047H
	DB	047H
	DB	047H
	DB	047H
	DB	047H
	DB	047H
	DB	047H
	DB	047H
	DB	047H
	DB	047H
	DB	047H
	DB	047H
	DB	047H
	DB	047H
	DB	047H
	DB	047H
	DB	047H
	DB	047H
	DB	047H
	DB	047H
	DB	047H
	DB	047H
	DB	047H
	DB	047H
	DB	047H
	DB	047H
	DB	047H
	DB	047H
	DB	047H
	DB	047H
	DB	047H
	DB	047H
	DB	047H
	DB	047H
	DB	047H
	DB	047H
	DB	047H
	DB	047H
	DB	047H
	DB	047H
	DB	047H
	DB	047H
	DB	047H
	DB	047H
	DB	047H
	DB	047H
	DB	047H
	DB	047H
	DB	047H
	DB	047H
	DB	047H
	DB	047H
	DB	047H
	DB	047H
	DB	047H
	DB	047H
	DB	047H
	DB	047H
	DB	047H
	DB	047H
	DB	047H
	DB	047H
	DB	047H
	DB	047H
	DB	047H
	DB	047H
	DB	047H
	DB	047H
	DB	047H
	DB	047H
	DB	047H
	DB	047H
	DB	047H
	DB	047H
	DB	047H
	DB	047H
	DB	047H
	DB	047H
	DB	047H
	DB	047H
	DB	047H
	DB	047H
	DB	047H
	DB	047H
	DB	047H
	DB	047H
	DB	047H
	DB	047H
	DB	047H
	DB	047H
	DB	047H
	DB	047H
	DB	047H
	DB	047H
	DB	047H
	DB	047H
	DB	047H
	DB	047H
	DB	047H
	DB	047H
	DB	047H
	DB	047H
	DB	047H
	DB	047H
	DB	047H
	DB	047H
	DB	047H
	DB	047H
	DB	047H
	DB	047H
	DB	047H
	DB	047H
	DB	047H
	DB	047H
	DB	047H
	DB	047H
	DB	047H
	DB	047H
	DB	047H
	DB	047H
	DB	047H
	DB	047H
	DB	047H
	DB	047H
	DB	047H
	DB	047H
	DB	047H
	DB	047H
	DB	047H
	DB	047H
	DB	047H
	DB	047H
	DB	047H
	DB	047H
	DB	047H
	DB	047H
	DB	047H
	DB	047H
	DB	047H
	DB	047H
	DB	047H
	DB	047H
	DB	047H
	DB	047H
	DB	047H
	DB	047H
	DB	047H
	DB	047H
	DB	047H
	DB	047H
	DB	047H
	DB	047H
	DB	047H
	DB	047H
	DB	047H
	DB	047H
	DB	047H
	DB	047H
	DB	047H
	DB	047H
	DB	047H
	DB	047H
	DB	047H
	DB	047H
	DB	047H
	DB	047H
	DB	047H
	DB	047H
	DB	047H
	DB	047H
	DB	047H
	DB	047H
	DB	047H
	DB	047H
	DB	047H
	DB	047H
	DB	047H
	DB	047H
	DB	047H
	DB	047H
	DB	047H
	DB	047H
	DB	047H
	DB	047H
	DB	047H
	DB	047H
	DB	047H
	DB	047H
	DB	047H
	DB	047H
	DB	047H
	DB	047H
	DB	047H
	DB	047H
	DB	047H
	DB	047H
	DB	047H
	DB	047H
	DB	047H
	DB	047H
	DB	047H
	DB	047H
	DB	047H
	DB	047H
	DB	047H
	DB	047H
	DB	047H
	DB	047H
	DB	047H
	DB	047H
	DB	047H
	DB	047H
	DB	047H
	DB	047H
	DB	047H
	DB	047H
	DB	047H
	DB	047H
	DB	047H
	DB	047H
	DB	047H
	DB	047H
	DB	047H
	DB	047H
	DB	047H
	DB	047H
	DB	047H
	DB	047H
	DB	047H
	DB	047H
	DB	047H
	DB	047H
	DB	047H
	DB	047H
	DB	047H
	DB	047H
	DB	047H
	DB	047H
	DB	047H
	DB	047H
	DB	047H
	DB	047H
	DB	047H
	DB	047H
	DB	047H
	DB	047H
	DB	047H
	DB	047H
	DB	047H
	DB	047H
	DB	047H
	DB	047H
	DB	047H
	DB	047H
	DB	047H
	DB	047H
	DB	047H
	DB	047H
	DB	047H
	DB	047H
	DB	047H
	DB	047H
	DB	047H
	DB	047H
	DB	047H
	DB	047H
	DB	047H
	DB	047H
	DB	047H
	DB	047H
	DB	047H
	DB	047H
	DB	047H
	DB	047H
	DB	047H
	DB	047H
	DB	047H
	DB	047H
	DB	047H
	DB	047H
	DB	047H
	DB	047H
	DB	047H
	DB	047H
	DB	047H
	DB	047H
	DB	047H
	DB	047H
	DB	047H
	DB	047H
	DB	047H
	DB	047H
	DB	047H
	DB	047H
	DB	047H
	DB	047H
	DB	047H
	DB	047H
	DB	047H
	DB	047H
	DB	047H
	DB	047H
	DB	047H
	DB	047H
	DB	047H
	DB	047H
	DB	047H
	DB	047H
	DB	047H
	DB	047H
	DB	047H
	DB	047H
	DB	047H
	DB	047H
	DB	047H
	DB	047H
	DB	047H
	DB	047H
	DB	047H
	DB	047H
	DB	047H
	DB	047H
	DB	047H
	DB	047H
	DB	047H
	DB	047H
	DB	047H
	DB	047H
	DB	047H
	DB	047H
	DB	047H
	DB	047H
	DB	047H
	DB	047H
	DB	047H
	DB	047H
	DB	047H
	DB	047H
	DB	047H
	DB	047H
	DB	047H
	DB	047H
	DB	047H
	DB	047H
	DB	047H
	DB	047H
	DB	047H
	DB	047H
	DB	047H
	DB	047H
	DB	047H
	DB	047H
	DB	047H
	DB	047H
	DB	047H
	DB	047H
	DB	047H
	DB	047H
	DB	047H
	DB	047H
	DB	047H
	DB	047H
	DB	047H
	DB	047H
	DB	047H
	DB	047H
	DB	047H
	DB	047H
	DB	047H
	DB	047H
	DB	047H
	DB	047H
	DB	047H
	DB	047H
	DB	047H
	DB	047H
	DB	047H
	DB	047H
	DB	047H
	DB	047H
	DB	047H
	DB	047H
	DB	047H
	DB	047H
	DB	047H
	DB	0d2H
	DB	047H
	DB	0d3H
	DB	0d4H
	DB	047H
	DB	047H
	DB	047H
	DB	047H
	DB	047H
	DB	047H
	DB	047H
	DB	047H
	DB	047H
	DB	047H
	DB	047H
	DB	047H
	DB	047H
	DB	047H
	DB	047H
	DB	047H
	DB	047H
	DB	047H
	DB	047H
	DB	047H
	DB	047H
	DB	047H
	DB	047H
	DB	047H
	DB	047H
	DB	047H
	DB	047H
	DB	047H
	DB	047H
	DB	047H
	DB	047H
	DB	047H
	DB	047H
	DB	047H
	DB	047H
	DB	047H
	DB	047H
	DB	047H
	DB	047H
	DB	047H
	DB	047H
	DB	047H
	DB	047H
	DB	047H
	DB	047H
	DB	047H
	DB	047H
	DB	047H
	DB	047H
	DB	047H
	DB	047H
	DB	047H
	DB	047H
	DB	047H
	DB	047H
	DB	047H
	DB	047H
	DB	047H
	DB	047H
	DB	047H
	DB	047H
	DB	047H
	DB	047H
	DB	047H
	DB	047H
	DB	047H
	DB	047H
	DB	047H
	DB	047H
	DB	047H
	DB	047H
	DB	047H
	DB	047H
	DB	047H
	DB	047H
	DB	047H
	DB	047H
	DB	047H
	DB	047H
	DB	047H
	DB	047H
	DB	047H
	DB	047H
	DB	047H
	DB	047H
	DB	047H
	DB	047H
	DB	047H
	DB	047H
	DB	047H
	DB	047H
	DB	047H
	DB	047H
	DB	047H
	DB	047H
	DB	047H
	DB	047H
	DB	047H
	DB	047H
	DB	047H
	DB	047H
	DB	047H
	DB	047H
	DB	047H
	DB	047H
	DB	047H
	DB	047H
	DB	047H
	DB	047H
	DB	047H
	DB	047H
	DB	047H
	DB	047H
	DB	047H
	DB	047H
	DB	047H
	DB	047H
	DB	047H
	DB	047H
	DB	047H
	DB	047H
	DB	047H
	DB	047H
	DB	047H
	DB	047H
	DB	047H
	DB	047H
	DB	047H
	DB	047H
	DB	047H
	DB	047H
	DB	047H
	DB	047H
	DB	047H
	DB	047H
	DB	047H
	DB	047H
	DB	047H
	DB	047H
	DB	047H
	DB	047H
	DB	047H
	DB	047H
	DB	047H
	DB	047H
	DB	047H
	DB	047H
	DB	047H
	DB	047H
	DB	047H
	DB	047H
	DB	047H
	DB	047H
	DB	047H
	DB	047H
	DB	047H
	DB	047H
	DB	047H
	DB	047H
	DB	047H
	DB	047H
	DB	047H
	DB	047H
	DB	047H
	DB	047H
	DB	047H
	DB	047H
	DB	047H
	DB	047H
	DB	047H
	DB	047H
	DB	047H
	DB	047H
	DB	047H
	DB	047H
	DB	047H
	DB	047H
	DB	047H
	DB	047H
	DB	047H
	DB	047H
	DB	047H
	DB	047H
	DB	047H
	DB	047H
	DB	047H
	DB	047H
	DB	047H
	DB	047H
	DB	047H
	DB	047H
	DB	047H
	DB	047H
	DB	047H
	DB	047H
	DB	047H
	DB	047H
	DB	047H
	DB	047H
	DB	047H
	DB	047H
	DB	047H
	DB	047H
	DB	047H
	DB	047H
	DB	047H
	DB	047H
	DB	047H
	DB	047H
	DB	047H
	DB	047H
	DB	047H
	DB	047H
	DB	047H
	DB	047H
	DB	047H
	DB	047H
	DB	047H
	DB	047H
	DB	047H
	DB	047H
	DB	047H
	DB	047H
	DB	047H
	DB	047H
	DB	047H
	DB	047H
	DB	047H
	DB	047H
	DB	047H
	DB	047H
	DB	047H
	DB	047H
	DB	047H
	DB	047H
	DB	047H
	DB	047H
	DB	047H
	DB	047H
	DB	047H
	DB	047H
	DB	047H
	DB	047H
	DB	047H
	DB	047H
	DB	047H
	DB	047H
	DB	047H
	DB	047H
	DB	047H
	DB	047H
	DB	047H
	DB	047H
	DB	047H
	DB	047H
	DB	047H
	DB	047H
	DB	047H
	DB	047H
	DB	047H
	DB	047H
	DB	047H
	DB	047H
	DB	047H
	DB	047H
	DB	047H
	DB	047H
	DB	047H
	DB	047H
	DB	047H
	DB	047H
	DB	047H
	DB	047H
	DB	047H
	DB	047H
	DB	047H
	DB	047H
	DB	047H
	DB	047H
	DB	047H
	DB	047H
	DB	047H
	DB	047H
	DB	047H
	DB	047H
	DB	047H
	DB	047H
	DB	047H
	DB	047H
	DB	047H
	DB	047H
	DB	047H
	DB	047H
	DB	047H
	DB	047H
	DB	047H
	DB	047H
	DB	047H
	DB	047H
	DB	047H
	DB	047H
	DB	047H
	DB	047H
	DB	047H
	DB	047H
	DB	047H
	DB	047H
	DB	047H
	DB	047H
	DB	047H
	DB	047H
	DB	047H
	DB	047H
	DB	047H
	DB	047H
	DB	047H
	DB	047H
	DB	047H
	DB	047H
	DB	047H
	DB	047H
	DB	047H
	DB	047H
	DB	047H
	DB	047H
	DB	047H
	DB	047H
	DB	047H
	DB	047H
	DB	047H
	DB	047H
	DB	047H
	DB	047H
	DB	047H
	DB	047H
	DB	047H
	DB	047H
	DB	047H
	DB	047H
	DB	047H
	DB	047H
	DB	047H
	DB	047H
	DB	047H
	DB	047H
	DB	047H
	DB	047H
	DB	047H
	DB	047H
	DB	047H
	DB	047H
	DB	047H
	DB	047H
	DB	047H
	DB	047H
	DB	047H
	DB	047H
	DB	047H
	DB	047H
	DB	047H
	DB	047H
	DB	047H
	DB	047H
	DB	047H
	DB	047H
	DB	047H
	DB	047H
	DB	047H
	DB	047H
	DB	047H
	DB	047H
	DB	047H
	DB	047H
	DB	047H
	DB	047H
	DB	047H
	DB	047H
	DB	047H
	DB	047H
	DB	047H
	DB	047H
	DB	047H
	DB	047H
	DB	047H
	DB	047H
	DB	047H
	DB	047H
	DB	047H
	DB	047H
	DB	047H
	DB	047H
	DB	047H
	DB	047H
	DB	047H
	DB	047H
	DB	047H
	DB	047H
	DB	047H
	DB	047H
	DB	047H
	DB	047H
	DB	047H
	DB	047H
	DB	047H
	DB	047H
	DB	047H
	DB	047H
	DB	047H
	DB	047H
	DB	047H
	DB	047H
	DB	047H
	DB	047H
	DB	047H
	DB	047H
	DB	047H
	DB	047H
	DB	047H
	DB	047H
	DB	047H
	DB	047H
	DB	047H
	DB	047H
	DB	047H
	DB	047H
	DB	047H
	DB	047H
	DB	047H
	DB	047H
	DB	047H
	DB	047H
	DB	047H
	DB	047H
	DB	047H
	DB	047H
	DB	047H
	DB	047H
	DB	047H
	DB	047H
	DB	047H
	DB	047H
	DB	047H
	DB	047H
	DB	047H
	DB	047H
	DB	047H
	DB	047H
	DB	047H
	DB	047H
	DB	047H
	DB	047H
	DB	047H
	DB	047H
	DB	047H
	DB	047H
	DB	047H
	DB	047H
	DB	047H
	DB	047H
	DB	047H
	DB	047H
	DB	047H
	DB	047H
	DB	047H
	DB	047H
	DB	047H
	DB	047H
	DB	047H
	DB	047H
	DB	047H
	DB	047H
	DB	047H
	DB	047H
	DB	047H
	DB	047H
	DB	047H
	DB	047H
	DB	047H
	DB	047H
	DB	047H
	DB	047H
	DB	047H
	DB	047H
	DB	047H
	DB	047H
	DB	047H
	DB	047H
	DB	047H
	DB	047H
	DB	047H
	DB	047H
	DB	047H
	DB	047H
	DB	047H
	DB	047H
	DB	047H
	DB	047H
	DB	047H
	DB	047H
	DB	047H
	DB	047H
	DB	047H
	DB	047H
	DB	047H
	DB	047H
	DB	047H
	DB	047H
	DB	047H
	DB	07fH
	DB	07fH
	DB	07fH
	DB	07fH
	DB	07fH
	DB	07fH
	DB	07fH
	DB	07fH
	DB	07fH
	DB	07fH
	DB	07fH
	DB	07fH
	DB	07fH
	DB	07fH
	DB	07fH
	DB	07fH
	DB	07fH
	DB	07fH
	DB	07fH
	DB	07fH
	DB	07fH
	DB	07fH
	DB	07fH
	DB	07fH
	DB	07fH
	DB	07fH
	DB	07fH
	DB	07fH
	DB	07fH
	DB	07fH
	DB	07fH
	DB	07fH
	DB	07fH
	DB	07fH
	DB	07fH
	DB	07fH
	DB	07fH
	DB	07fH
	DB	07fH
	DB	07fH
	DB	07fH
	DB	07fH
	DB	07fH
	DB	07fH
	DB	07fH
	DB	07fH
	DB	07fH
	DB	07fH
	DB	07fH
	DB	07fH
	DB	07fH
	DB	07fH
	DB	07fH
	DB	07fH
	DB	07fH
	DB	07fH
	DB	07fH
	DB	07fH
	DB	07fH
	DB	07fH
	DB	07fH
	DB	07fH
	DB	07fH
	DB	07fH
	DB	07fH
	DB	07fH
	DB	07fH
	DB	07fH
	DB	07fH
	DB	07fH
	DB	07fH
	DB	07fH
	DB	07fH
	DB	07fH
	DB	07fH
	DB	07fH
	DB	07fH
	DB	07fH
	DB	07fH
	DB	07fH
	DB	07fH
	DB	07fH
	DB	07fH
	DB	07fH
	DB	07fH
	DB	07fH
	DB	07fH
	DB	07fH
	DB	07fH
	DB	07fH
	DB	07fH
	DB	07fH
	DB	07fH
	DB	07fH
	DB	07fH
	DB	07fH
	DB	07fH
	DB	07fH
	DB	07fH
	DB	07fH
	DB	07fH
	DB	07fH
	DB	07fH
	DB	07fH
	DB	07fH
	DB	07fH
	DB	07fH
	DB	07fH
	DB	07fH
	DB	07fH
	DB	07fH
	DB	07fH
	DB	07fH
	DB	07fH
	DB	07fH
	DB	07fH
	DB	07fH
	DB	07fH
	DB	07fH
	DB	07fH
	DB	07fH
	DB	07fH
	DB	07fH
	DB	07fH
	DB	07fH
	DB	07fH
	DB	07fH
	DB	07fH
	DB	07fH
	DB	07fH
	DB	07fH
	DB	07fH
	DB	07fH
	DB	07fH
	DB	07fH
	DB	07fH
	DB	07fH
	DB	07fH
	DB	07fH
	DB	07fH
	DB	07fH
	DB	07fH
	DB	07fH
	DB	07fH
	DB	07fH
	DB	07fH
	DB	07fH
	DB	07fH
	DB	07fH
	DB	07fH
	DB	07fH
	DB	07fH
	DB	07fH
	DB	07fH
	DB	07fH
	DB	07fH
	DB	07fH
	DB	07fH
	DB	07fH
	DB	07fH
	DB	07fH
	DB	07fH
	DB	07fH
	DB	07fH
	DB	07fH
	DB	07fH
	DB	07fH
	DB	07fH
	DB	07fH
	DB	07fH
	DB	07fH
	DB	07fH
	DB	07fH
	DB	07fH
	DB	07fH
	DB	07fH
	DB	07fH
	DB	07fH
	DB	07fH
	DB	07fH
	DB	07fH
	DB	07fH
	DB	07fH
	DB	07fH
	DB	07fH
	DB	07fH
	DB	07fH
	DB	07fH
	DB	07fH
	DB	07fH
	DB	07fH
	DB	07fH
	DB	07fH
	DB	07fH
	DB	07fH
	DB	07fH
	DB	07fH
	DB	07fH
	DB	07fH
	DB	07fH
	DB	07fH
	DB	07fH
	DB	07fH
	DB	07fH
	DB	07fH
	DB	07fH
	DB	07fH
	DB	07fH
	DB	07fH
	DB	07fH
	DB	07fH
	DB	07fH
	DB	07fH
	DB	07fH
	DB	07fH
	DB	07fH
	DB	07fH
	DB	07fH
	DB	07fH
	DB	07fH
	DB	07fH
	DB	07fH
	DB	07fH
	DB	07fH
	DB	07fH
	DB	07fH
	DB	07fH
	DB	07fH
	DB	07fH
	DB	07fH
	DB	07fH
	DB	07fH
	DB	07fH
	DB	07fH
	DB	07fH
	DB	07fH
	DB	07fH
	DB	07fH
	DB	07fH
	DB	07fH
	DB	07fH
	DB	07fH
	DB	07fH
	DB	07fH
	DB	07fH
	DB	07fH
	DB	07fH
	DB	07fH
	DB	07fH
	DB	07fH
	DB	07fH
	DB	07fH
	DB	07fH
	DB	07fH
	DB	07fH
	DB	07fH
	DB	07fH
	DB	07fH
	DB	07fH
	DB	07fH
	DB	07fH
	DB	07fH
	DB	07fH
	DB	07fH
	DB	07fH
	DB	07fH
	DB	07fH
	DB	07fH
	DB	07fH
	DB	07fH
	DB	07fH
	DB	07fH
	DB	07fH
	DB	07fH
	DB	07fH
	DB	07fH
	DB	07fH
	DB	07fH
	DB	07fH
	DB	07fH
	DB	07fH
	DB	07fH
	DB	07fH
	DB	07fH
	DB	07fH
	DB	07fH
	DB	07fH
	DB	07fH
	DB	07fH
	DB	07fH
	DB	07fH
	DB	07fH
	DB	07fH
	DB	07fH
	DB	07fH
	DB	07fH
	DB	07fH
	DB	07fH
	DB	07fH
	DB	07fH
	DB	07fH
	DB	07fH
	DB	07fH
	DB	07fH
	DB	07fH
	DB	07fH
	DB	07fH
	DB	07fH
	DB	07fH
	DB	07fH
	DB	07fH
	DB	07fH
	DB	07fH
	DB	07fH
	DB	07fH
	DB	07fH
	DB	07fH
	DB	07fH
	DB	07fH
	DB	07fH
	DB	07fH
	DB	07fH
	DB	07fH
	DB	07fH
	DB	07fH
	DB	07fH
	DB	07fH
	DB	07fH
	DB	07fH
	DB	07fH
	DB	07fH
	DB	07fH
	DB	07fH
	DB	07fH
	DB	07fH
	DB	07fH
	DB	07fH
	DB	07fH
	DB	07fH
	DB	07fH
	DB	07fH
	DB	07fH
	DB	07fH
	DB	07fH
	DB	07fH
	DB	07fH
	DB	07fH
	DB	07fH
	DB	07fH
	DB	07fH
	DB	07fH
	DB	07fH
	DB	07fH
	DB	07fH
	DB	07fH
	DB	07fH
	DB	07fH
	DB	07fH
	DB	07fH
	DB	07fH
	DB	07fH
	DB	07fH
	DB	07fH
	DB	07fH
	DB	07fH
	DB	07fH
	DB	07fH
	DB	07fH
	DB	07fH
	DB	07fH
	DB	07fH
	DB	07fH
	DB	07fH
	DB	07fH
	DB	07fH
	DB	07fH
	DB	07fH
	DB	07fH
	DB	07fH
	DB	07fH
	DB	07fH
	DB	07fH
	DB	07fH
	DB	07fH
	DB	07fH
	DB	07fH
	DB	07fH
	DB	07fH
	DB	07fH
	DB	07fH
	DB	07fH
	DB	07fH
	DB	07fH
	DB	07fH
	DB	07fH
	DB	07fH
	DB	07fH
	DB	07fH
	DB	07fH
	DB	07fH
	DB	07fH
	DB	07fH
	DB	07fH
	DB	07fH
	DB	07fH
	DB	07fH
	DB	07fH
	DB	07fH
	DB	07fH
	DB	07fH
	DB	07fH
	DB	07fH
	DB	07fH
	DB	07fH
	DB	07fH
	DB	07fH
	DB	07fH
	DB	07fH
	DB	07fH
	DB	07fH
	DB	07fH
	DB	07fH
	DB	07fH
	DB	07fH
	DB	07fH
	DB	07fH
	DB	07fH
	DB	07fH
	DB	07fH
	DB	07fH
	DB	07fH
	DB	07fH
	DB	07fH
	DB	07fH
	DB	07fH
	DB	07fH
	DB	07fH
	DB	07fH
	DB	07fH
	DB	07fH
	DB	07fH
	DB	07fH
	DB	07fH
	DB	07fH
	DB	07fH
	DB	07fH
	DB	07fH
	DB	07fH
	DB	07fH
	DB	07fH
	DB	07fH
	DB	07fH
	DB	07fH
	DB	07fH
	DB	07fH
	DB	07fH
	DB	07fH
	DB	07fH
	DB	07fH
	DB	07fH
	DB	07fH
	DB	07fH
	DB	07fH
	DB	07fH
	DB	07fH
	DB	07fH
	DB	07fH
	DB	07fH
	DB	07fH
	DB	07fH
	DB	07fH
	DB	07fH
	DB	07fH
	DB	07fH
	DB	07fH
	DB	07fH
	DB	07fH
	DB	07fH
	DB	07fH
	DB	07fH
	DB	07fH
	DB	07fH
	DB	07fH
	DB	07fH
	DB	07fH
	DB	07fH
	DB	07fH
	DB	07fH
	DB	07fH
	DB	07fH
	DB	07fH
	DB	07fH
	DB	07fH
	DB	07fH
	DB	07fH
	DB	07fH
	DB	07fH
	DB	07fH
	DB	07fH
	DB	07fH
	DB	07fH
	DB	07fH
	DB	07fH
	DB	07fH
	DB	07fH
	DB	07fH
	DB	07fH
	DB	07fH
	DB	07fH
	DB	07fH
	DB	07fH
	DB	0d5H
	DB	07fH
	DB	07fH
	DB	07fH
	DB	07fH
	DB	07fH
	DB	07fH
	DB	07fH
	DB	07fH
	DB	07fH
	DB	07fH
	DB	07fH
	DB	07fH
	DB	07fH
	DB	07fH
	DB	07fH
	DB	07fH
	DB	07fH
	DB	07fH
	DB	07fH
	DB	07fH
	DB	07fH
	DB	07fH
	DB	07fH
	DB	07fH
	DB	07fH
	DB	07fH
	DB	07fH
	DB	07fH
	DB	07fH
	DB	07fH
	DB	07fH
	DB	07fH
	DB	07fH
	DB	07fH
	DB	07fH
	DB	07fH
	DB	07fH
	DB	07fH
	DB	07fH
	DB	07fH
	DB	07fH
	DB	07fH
	DB	07fH
	DB	07fH
	DB	07fH
	DB	07fH
	DB	07fH
	DB	07fH
	DB	07fH
	DB	07fH
	DB	07fH
	DB	07fH
	DB	07fH
	DB	07fH
	DB	07fH
	DB	07fH
	DB	07fH
	DB	07fH
	DB	07fH
	DB	07fH
	DB	07fH
	DB	07fH
	DB	07fH
	DB	07fH
	DB	07fH
	DB	07fH
	DB	07fH
	DB	07fH
	DB	07fH
	DB	07fH
	DB	07fH
	DB	07fH
	DB	07fH
	DB	07fH
	DB	07fH
	DB	07fH
	DB	07fH
	DB	07fH
	DB	07fH
	DB	07fH
	DB	07fH
	DB	07fH
	DB	07fH
	DB	07fH
	DB	07fH
	DB	07fH
	DB	07fH
	DB	07fH
	DB	07fH
	DB	07fH
	DB	07fH
	DB	07fH
	DB	07fH
	DB	07fH
	DB	07fH
	DB	07fH
	DB	07fH
	DB	07fH
	DB	07fH
	DB	07fH
	DB	07fH
	DB	07fH
	DB	07fH
	DB	07fH
	DB	07fH
	DB	07fH
	DB	07fH
	DB	07fH
	DB	07fH
	DB	07fH
	DB	07fH
	DB	07fH
	DB	07fH
	DB	07fH
	DB	07fH
	DB	07fH
	DB	07fH
	DB	07fH
	DB	07fH
	DB	07fH
	DB	07fH
	DB	07fH
	DB	07fH
	DB	07fH
	DB	07fH
	DB	07fH
	DB	07fH
	DB	07fH
	DB	07fH
	DB	07fH
	DB	07fH
	DB	07fH
	DB	07fH
	DB	07fH
	DB	07fH
	DB	07fH
	DB	07fH
	DB	07fH
	DB	07fH
	DB	07fH
	DB	07fH
	DB	07fH
	DB	07fH
	DB	07fH
	DB	07fH
	DB	07fH
	DB	07fH
	DB	07fH
	DB	07fH
	DB	07fH
	DB	07fH
	DB	07fH
	DB	07fH
	DB	07fH
	DB	07fH
	DB	07fH
	DB	07fH
	DB	07fH
	DB	07fH
	DB	07fH
	DB	07fH
	DB	07fH
	DB	07fH
	DB	07fH
	DB	07fH
	DB	07fH
	DB	07fH
	DB	07fH
	DB	07fH
	DB	07fH
	DB	07fH
	DB	07fH
	DB	07fH
	DB	07fH
	DB	07fH
	DB	07fH
	DB	07fH
	DB	07fH
	DB	07fH
	DB	07fH
	DB	07fH
	DB	07fH
	DB	07fH
	DB	07fH
	DB	07fH
	DB	07fH
	DB	07fH
	DB	07fH
	DB	07fH
	DB	07fH
	DB	07fH
	DB	07fH
	DB	07fH
	DB	07fH
	DB	07fH
	DB	07fH
	DB	07fH
	DB	07fH
	DB	07fH
	DB	07fH
	DB	07fH
	DB	07fH
	DB	07fH
	DB	07fH
	DB	07fH
	DB	07fH
	DB	07fH
	DB	07fH
	DB	07fH
	DB	07fH
	DB	07fH
	DB	07fH
	DB	07fH
	DB	07fH
	DB	07fH
	DB	07fH
	DB	07fH
	DB	07fH
	DB	07fH
	DB	07fH
	DB	07fH
	DB	07fH
	DB	07fH
	DB	07fH
	DB	07fH
	DB	07fH
	DB	07fH
	DB	07fH
	DB	07fH
	DB	07fH
	DB	07fH
	DB	07fH
	DB	07fH
	DB	07fH
	DB	07fH
	DB	07fH
	DB	07fH
	DB	07fH
	DB	07fH
	DB	07fH
	DB	07fH
	DB	07fH
	DB	07fH
	DB	07fH
	DB	07fH
	DB	07fH
	DB	07fH
	DB	07fH
	DB	07fH
	DB	07fH
	DB	07fH
	DB	07fH
	DB	07fH
	DB	07fH
	DB	07fH
	DB	07fH
	DB	07fH
	DB	07fH
	DB	07fH
	DB	07fH
	DB	07fH
	DB	07fH
	DB	07fH
	DB	07fH
	DB	07fH
	DB	07fH
	DB	07fH
	DB	07fH
	DB	07fH
	DB	07fH
	DB	07fH
	DB	07fH
	DB	07fH
	DB	07fH
	DB	07fH
	DB	07fH
	DB	07fH
	DB	07fH
	DB	07fH
	DB	07fH
	DB	07fH
	DB	07fH
	DB	07fH
	DB	07fH
	DB	07fH
	DB	07fH
	DB	07fH
	DB	07fH
	DB	07fH
	DB	07fH
	DB	07fH
	DB	07fH
	DB	07fH
	DB	07fH
	DB	07fH
	DB	07fH
	DB	07fH
	DB	07fH
	DB	07fH
	DB	07fH
	DB	07fH
	DB	07fH
	DB	07fH
	DB	07fH
	DB	07fH
	DB	07fH
	DB	07fH
	DB	07fH
	DB	07fH
	DB	07fH
	DB	07fH
	DB	07fH
	DB	07fH
	DB	07fH
	DB	07fH
	DB	07fH
	DB	07fH
	DB	07fH
	DB	07fH
	DB	07fH
	DB	07fH
	DB	07fH
	DB	07fH
	DB	07fH
	DB	07fH
	DB	07fH
	DB	07fH
	DB	07fH
	DB	07fH
	DB	07fH
	DB	07fH
	DB	07fH
	DB	07fH
	DB	07fH
	DB	07fH
	DB	07fH
	DB	07fH
	DB	07fH
	DB	07fH
	DB	07fH
	DB	07fH
	DB	07fH
	DB	07fH
	DB	07fH
	DB	07fH
	DB	07fH
	DB	07fH
	DB	07fH
	DB	07fH
	DB	07fH
	DB	07fH
	DB	07fH
	DB	07fH
	DB	07fH
	DB	07fH
	DB	07fH
	DB	07fH
	DB	07fH
	DB	07fH
	DB	07fH
	DB	07fH
	DB	07fH
	DB	07fH
	DB	07fH
	DB	07fH
	DB	07fH
	DB	07fH
	DB	07fH
	DB	07fH
	DB	07fH
	DB	07fH
	DB	07fH
	DB	07fH
	DB	07fH
	DB	07fH
	DB	07fH
	DB	07fH
	DB	07fH
	DB	07fH
	DB	07fH
	DB	07fH
	DB	07fH
	DB	07fH
	DB	07fH
	DB	07fH
	DB	07fH
	DB	07fH
	DB	07fH
	DB	07fH
	DB	07fH
	DB	07fH
	DB	07fH
	DB	07fH
	DB	07fH
	DB	07fH
	DB	07fH
	DB	07fH
	DB	07fH
	DB	07fH
	DB	07fH
	DB	07fH
	DB	07fH
	DB	07fH
	DB	07fH
	DB	07fH
	DB	07fH
	DB	07fH
	DB	07fH
	DB	07fH
	DB	07fH
	DB	07fH
	DB	07fH
	DB	07fH
	DB	07fH
	DB	07fH
	DB	07fH
	DB	07fH
	DB	07fH
	DB	07fH
	DB	07fH
	DB	07fH
	DB	07fH
	DB	07fH
	DB	07fH
	DB	07fH
	DB	07fH
	DB	07fH
	DB	07fH
	DB	07fH
	DB	07fH
	DB	07fH
	DB	07fH
	DB	07fH
	DB	07fH
	DB	07fH
	DB	07fH
	DB	07fH
	DB	07fH
	DB	07fH
	DB	07fH
	DB	07fH
	DB	07fH
	DB	07fH
	DB	07fH
	DB	07fH
	DB	07fH
	DB	07fH
	DB	07fH
	DB	07fH
	DB	07fH
	DB	07fH
	DB	07fH
	DB	07fH
	DB	07fH
	DB	07fH
	DB	07fH
	DB	07fH
	DB	07fH
	DB	07fH
	DB	07fH
	DB	07fH
	DB	07fH
	DB	07fH
	DB	07fH
	DB	07fH
	DB	07fH
	DB	07fH
	DB	07fH
	DB	07fH
	DB	07fH
	DB	07fH
	DB	07fH
	DB	07fH
	DB	07fH
	DB	07fH
	DB	07fH
	DB	07fH
	DB	07fH
	DB	07fH
	DB	07fH
	DB	07fH
	DB	07fH
	DB	07fH
	DB	07fH
	DB	07fH
	DB	07fH
	DB	07fH
	DB	07fH
	DB	07fH
	DB	07fH
	DB	07fH
	DB	07fH
	DB	07fH
	DB	07fH
	DB	07fH
	DB	07fH
	DB	07fH
	DB	07fH
	DB	07fH
	DB	07fH
	DB	07fH
	DB	07fH
	DB	07fH
	DB	07fH
	DB	07fH
	DB	07fH
	DB	07fH
	DB	07fH
	DB	07fH
	DB	07fH
	DB	07fH
	DB	0d5H
index2	DW	01H
	DW	01H
	DW	01H
	DW	01H
	DW	01H
	DW	01H
	DW	01H
	DW	01H
	DW	01H
	DW	02H
	DW	03H
	DW	03H
	DW	03H
	DW	03H
	DW	01H
	DW	01H
	DW	01H
	DW	01H
	DW	01H
	DW	01H
	DW	01H
	DW	01H
	DW	01H
	DW	01H
	DW	01H
	DW	01H
	DW	01H
	DW	01H
	DW	03H
	DW	03H
	DW	03H
	DW	02H
	DW	04H
	DW	05H
	DW	05H
	DW	05H
	DW	05H
	DW	05H
	DW	05H
	DW	06H
	DW	05H
	DW	05H
	DW	05H
	DW	05H
	DW	05H
	DW	05H
	DW	06H
	DW	05H
	DW	07H
	DW	08H
	DW	09H
	DW	0aH
	DW	0bH
	DW	0cH
	DW	0dH
	DW	0eH
	DW	0fH
	DW	010H
	DW	06H
	DW	05H
	DW	05H
	DW	05H
	DW	05H
	DW	05H
	DW	05H
	DW	011H
	DW	011H
	DW	011H
	DW	011H
	DW	011H
	DW	011H
	DW	011H
	DW	011H
	DW	011H
	DW	011H
	DW	011H
	DW	011H
	DW	011H
	DW	011H
	DW	011H
	DW	011H
	DW	011H
	DW	011H
	DW	011H
	DW	011H
	DW	011H
	DW	011H
	DW	011H
	DW	011H
	DW	011H
	DW	011H
	DW	05H
	DW	05H
	DW	05H
	DW	06H
	DW	012H
	DW	06H
	DW	013H
	DW	013H
	DW	013H
	DW	013H
	DW	013H
	DW	013H
	DW	013H
	DW	013H
	DW	013H
	DW	013H
	DW	013H
	DW	013H
	DW	013H
	DW	013H
	DW	013H
	DW	013H
	DW	013H
	DW	013H
	DW	013H
	DW	013H
	DW	013H
	DW	013H
	DW	013H
	DW	013H
	DW	013H
	DW	013H
	DW	05H
	DW	05H
	DW	05H
	DW	05H
	DW	01H
	DW	01H
	DW	01H
	DW	01H
	DW	01H
	DW	01H
	DW	03H
	DW	01H
	DW	01H
	DW	01H
	DW	01H
	DW	01H
	DW	01H
	DW	01H
	DW	01H
	DW	01H
	DW	01H
	DW	01H
	DW	01H
	DW	01H
	DW	01H
	DW	01H
	DW	01H
	DW	01H
	DW	01H
	DW	01H
	DW	01H
	DW	01H
	DW	01H
	DW	01H
	DW	01H
	DW	01H
	DW	01H
	DW	02H
	DW	05H
	DW	05H
	DW	05H
	DW	05H
	DW	05H
	DW	05H
	DW	05H
	DW	06H
	DW	05H
	DW	014H
	DW	05H
	DW	05H
	DW	015H
	DW	05H
	DW	06H
	DW	05H
	DW	05H
	DW	016H
	DW	017H
	DW	06H
	DW	018H
	DW	05H
	DW	019H
	DW	06H
	DW	01aH
	DW	014H
	DW	05H
	DW	01bH
	DW	01bH
	DW	01bH
	DW	05H
	DW	011H
	DW	011H
	DW	011H
	DW	011H
	DW	011H
	DW	011H
	DW	011H
	DW	011H
	DW	011H
	DW	011H
	DW	011H
	DW	011H
	DW	011H
	DW	011H
	DW	011H
	DW	011H
	DW	011H
	DW	011H
	DW	011H
	DW	011H
	DW	011H
	DW	011H
	DW	011H
	DW	05H
	DW	011H
	DW	011H
	DW	011H
	DW	011H
	DW	011H
	DW	011H
	DW	011H
	DW	01cH
	DW	013H
	DW	013H
	DW	013H
	DW	013H
	DW	013H
	DW	013H
	DW	013H
	DW	013H
	DW	013H
	DW	013H
	DW	013H
	DW	013H
	DW	013H
	DW	013H
	DW	013H
	DW	013H
	DW	013H
	DW	013H
	DW	013H
	DW	013H
	DW	013H
	DW	013H
	DW	013H
	DW	05H
	DW	013H
	DW	013H
	DW	013H
	DW	013H
	DW	013H
	DW	013H
	DW	013H
	DW	01dH
	DW	01eH
	DW	01fH
	DW	01eH
	DW	01fH
	DW	01eH
	DW	01fH
	DW	01eH
	DW	01fH
	DW	01eH
	DW	01fH
	DW	01eH
	DW	01fH
	DW	01eH
	DW	01fH
	DW	01eH
	DW	01fH
	DW	01eH
	DW	01fH
	DW	01eH
	DW	01fH
	DW	01eH
	DW	01fH
	DW	01eH
	DW	01fH
	DW	01eH
	DW	01fH
	DW	01eH
	DW	01fH
	DW	01eH
	DW	01fH
	DW	01eH
	DW	01fH
	DW	01eH
	DW	01fH
	DW	01eH
	DW	01fH
	DW	01eH
	DW	01fH
	DW	01eH
	DW	01fH
	DW	01eH
	DW	01fH
	DW	01eH
	DW	01fH
	DW	01eH
	DW	01fH
	DW	01eH
	DW	01fH
	DW	020H
	DW	021H
	DW	01eH
	DW	01fH
	DW	01eH
	DW	01fH
	DW	01eH
	DW	01fH
	DW	014H
	DW	01eH
	DW	01fH
	DW	01eH
	DW	01fH
	DW	01eH
	DW	01fH
	DW	01eH
	DW	01fH
	DW	01eH
	DW	01fH
	DW	01eH
	DW	01fH
	DW	01eH
	DW	01fH
	DW	01eH
	DW	01fH
	DW	022H
	DW	01eH
	DW	01fH
	DW	01eH
	DW	01fH
	DW	01eH
	DW	01fH
	DW	01eH
	DW	01fH
	DW	01eH
	DW	01fH
	DW	01eH
	DW	01fH
	DW	01eH
	DW	01fH
	DW	01eH
	DW	01fH
	DW	01eH
	DW	01fH
	DW	01eH
	DW	01fH
	DW	01eH
	DW	01fH
	DW	01eH
	DW	01fH
	DW	01eH
	DW	01fH
	DW	01eH
	DW	01fH
	DW	01eH
	DW	01fH
	DW	01eH
	DW	01fH
	DW	01eH
	DW	01fH
	DW	01eH
	DW	01fH
	DW	01eH
	DW	01fH
	DW	01eH
	DW	01fH
	DW	01eH
	DW	01fH
	DW	01eH
	DW	01fH
	DW	01eH
	DW	01fH
	DW	023H
	DW	01eH
	DW	01fH
	DW	01eH
	DW	01fH
	DW	01eH
	DW	01fH
	DW	024H
	DW	025H
	DW	026H
	DW	01eH
	DW	01fH
	DW	01eH
	DW	01fH
	DW	027H
	DW	01eH
	DW	01fH
	DW	028H
	DW	028H
	DW	01eH
	DW	01fH
	DW	014H
	DW	029H
	DW	02aH
	DW	02bH
	DW	01eH
	DW	01fH
	DW	028H
	DW	02cH
	DW	02dH
	DW	02eH
	DW	02fH
	DW	01eH
	DW	01fH
	DW	030H
	DW	014H
	DW	02eH
	DW	031H
	DW	032H
	DW	033H
	DW	01eH
	DW	01fH
	DW	01eH
	DW	01fH
	DW	01eH
	DW	01fH
	DW	034H
	DW	01eH
	DW	01fH
	DW	034H
	DW	014H
	DW	014H
	DW	01eH
	DW	01fH
	DW	034H
	DW	01eH
	DW	01fH
	DW	035H
	DW	035H
	DW	01eH
	DW	01fH
	DW	01eH
	DW	01fH
	DW	036H
	DW	01eH
	DW	01fH
	DW	014H
	DW	037H
	DW	01eH
	DW	01fH
	DW	014H
	DW	038H
	DW	037H
	DW	037H
	DW	037H
	DW	037H
	DW	039H
	DW	03aH
	DW	03bH
	DW	039H
	DW	03aH
	DW	03bH
	DW	039H
	DW	03aH
	DW	03bH
	DW	01eH
	DW	01fH
	DW	01eH
	DW	01fH
	DW	01eH
	DW	01fH
	DW	01eH
	DW	01fH
	DW	01eH
	DW	01fH
	DW	01eH
	DW	01fH
	DW	01eH
	DW	01fH
	DW	01eH
	DW	01fH
	DW	03cH
	DW	01eH
	DW	01fH
	DW	01eH
	DW	01fH
	DW	01eH
	DW	01fH
	DW	01eH
	DW	01fH
	DW	01eH
	DW	01fH
	DW	01eH
	DW	01fH
	DW	01eH
	DW	01fH
	DW	01eH
	DW	01fH
	DW	01eH
	DW	01fH
	DW	03dH
	DW	039H
	DW	03aH
	DW	03bH
	DW	01eH
	DW	01fH
	DW	03eH
	DW	03fH
	DW	01eH
	DW	01fH
	DW	01eH
	DW	01fH
	DW	01eH
	DW	01fH
	DW	01eH
	DW	01fH
	DW	01eH
	DW	01fH
	DW	01eH
	DW	01fH
	DW	01eH
	DW	01fH
	DW	01eH
	DW	01fH
	DW	01eH
	DW	01fH
	DW	01eH
	DW	01fH
	DW	01eH
	DW	01fH
	DW	01eH
	DW	01fH
	DW	01eH
	DW	01fH
	DW	01eH
	DW	01fH
	DW	01eH
	DW	01fH
	DW	01eH
	DW	01fH
	DW	01eH
	DW	01fH
	DW	01eH
	DW	01fH
	DW	01eH
	DW	01fH
	DW	01eH
	DW	01fH
	DW	040H
	DW	014H
	DW	01eH
	DW	01fH
	DW	01eH
	DW	01fH
	DW	01eH
	DW	01fH
	DW	01eH
	DW	01fH
	DW	01eH
	DW	01fH
	DW	01eH
	DW	01fH
	DW	01eH
	DW	01fH
	DW	01eH
	DW	01fH
	DW	01eH
	DW	01fH
	DW	014H
	DW	014H
	DW	014H
	DW	014H
	DW	014H
	DW	014H
	DW	041H
	DW	01eH
	DW	01fH
	DW	042H
	DW	043H
	DW	044H
	DW	044H
	DW	01eH
	DW	01fH
	DW	045H
	DW	046H
	DW	047H
	DW	01eH
	DW	01fH
	DW	01eH
	DW	01fH
	DW	01eH
	DW	01fH
	DW	01eH
	DW	01fH
	DW	01eH
	DW	01fH
	DW	048H
	DW	049H
	DW	04aH
	DW	04bH
	DW	04cH
	DW	014H
	DW	04dH
	DW	04dH
	DW	014H
	DW	04eH
	DW	014H
	DW	04fH
	DW	014H
	DW	014H
	DW	014H
	DW	014H
	DW	04dH
	DW	014H
	DW	014H
	DW	050H
	DW	014H
	DW	051H
	DW	052H
	DW	014H
	DW	053H
	DW	054H
	DW	014H
	DW	055H
	DW	014H
	DW	014H
	DW	014H
	DW	054H
	DW	014H
	DW	056H
	DW	057H
	DW	014H
	DW	014H
	DW	058H
	DW	014H
	DW	014H
	DW	014H
	DW	014H
	DW	014H
	DW	014H
	DW	014H
	DW	059H
	DW	014H
	DW	014H
	DW	05aH
	DW	014H
	DW	014H
	DW	05aH
	DW	014H
	DW	014H
	DW	014H
	DW	014H
	DW	05aH
	DW	05bH
	DW	05cH
	DW	05cH
	DW	05dH
	DW	014H
	DW	014H
	DW	014H
	DW	014H
	DW	014H
	DW	05eH
	DW	014H
	DW	037H
	DW	014H
	DW	014H
	DW	014H
	DW	014H
	DW	014H
	DW	014H
	DW	014H
	DW	014H
	DW	014H
	DW	014H
	DW	014H
	DW	014H
	DW	014H
	DW	014H
	DW	014H
	DW	014H
	DW	014H
	DW	014H
	DW	014H
	DW	014H
	DW	014H
	DW	014H
	DW	014H
	DW	014H
	DW	014H
	DW	014H
	DW	014H
	DW	05fH
	DW	05fH
	DW	05fH
	DW	05fH
	DW	05fH
	DW	05fH
	DW	05fH
	DW	05fH
	DW	05fH
	DW	060H
	DW	060H
	DW	060H
	DW	060H
	DW	060H
	DW	060H
	DW	060H
	DW	05fH
	DW	05fH
	DW	06H
	DW	06H
	DW	06H
	DW	06H
	DW	060H
	DW	060H
	DW	060H
	DW	060H
	DW	060H
	DW	060H
	DW	060H
	DW	060H
	DW	060H
	DW	060H
	DW	060H
	DW	060H
	DW	06H
	DW	06H
	DW	06H
	DW	06H
	DW	06H
	DW	06H
	DW	06H
	DW	06H
	DW	06H
	DW	06H
	DW	06H
	DW	06H
	DW	06H
	DW	06H
	DW	05fH
	DW	05fH
	DW	05fH
	DW	05fH
	DW	05fH
	DW	06H
	DW	06H
	DW	06H
	DW	06H
	DW	06H
	DW	06H
	DW	06H
	DW	060H
	DW	06H
	DW	060H
	DW	06H
	DW	06H
	DW	06H
	DW	06H
	DW	06H
	DW	06H
	DW	06H
	DW	06H
	DW	06H
	DW	06H
	DW	06H
	DW	06H
	DW	06H
	DW	06H
	DW	06H
	DW	06H
	DW	06H
	DW	019H
	DW	019H
	DW	019H
	DW	019H
	DW	019H
	DW	019H
	DW	019H
	DW	019H
	DW	019H
	DW	019H
	DW	019H
	DW	019H
	DW	019H
	DW	019H
	DW	019H
	DW	019H
	DW	019H
	DW	019H
	DW	019H
	DW	019H
	DW	019H
	DW	019H
	DW	019H
	DW	019H
	DW	019H
	DW	019H
	DW	019H
	DW	019H
	DW	019H
	DW	019H
	DW	019H
	DW	019H
	DW	019H
	DW	019H
	DW	019H
	DW	019H
	DW	019H
	DW	019H
	DW	019H
	DW	019H
	DW	019H
	DW	019H
	DW	019H
	DW	019H
	DW	019H
	DW	019H
	DW	019H
	DW	019H
	DW	019H
	DW	019H
	DW	019H
	DW	019H
	DW	019H
	DW	019H
	DW	019H
	DW	019H
	DW	019H
	DW	019H
	DW	019H
	DW	019H
	DW	019H
	DW	019H
	DW	019H
	DW	019H
	DW	019H
	DW	019H
	DW	019H
	DW	019H
	DW	019H
	DW	061H
	DW	019H
	DW	019H
	DW	019H
	DW	019H
	DW	019H
	DW	019H
	DW	019H
	DW	019H
	DW	019H
	DW	019H
	DW	019H
	DW	019H
	DW	019H
	DW	019H
	DW	019H
	DW	019H
	DW	019H
	DW	019H
	DW	019H
	DW	019H
	DW	019H
	DW	019H
	DW	019H
	DW	019H
	DW	019H
	DW	019H
	DW	019H
	DW	019H
	DW	019H
	DW	019H
	DW	019H
	DW	019H
	DW	019H
	DW	019H
	DW	019H
	DW	019H
	DW	019H
	DW	019H
	DW	019H
	DW	019H
	DW	019H
	DW	019H
	DW	01eH
	DW	01fH
	DW	01eH
	DW	01fH
	DW	060H
	DW	06H
	DW	01eH
	DW	01fH
	DW	00H
	DW	00H
	DW	062H
	DW	032H
	DW	032H
	DW	032H
	DW	05H
	DW	00H
	DW	00H
	DW	00H
	DW	00H
	DW	00H
	DW	06H
	DW	06H
	DW	063H
	DW	019H
	DW	064H
	DW	064H
	DW	064H
	DW	00H
	DW	065H
	DW	00H
	DW	066H
	DW	066H
	DW	067H
	DW	011H
	DW	011H
	DW	011H
	DW	011H
	DW	011H
	DW	011H
	DW	011H
	DW	011H
	DW	011H
	DW	011H
	DW	011H
	DW	011H
	DW	011H
	DW	011H
	DW	011H
	DW	011H
	DW	011H
	DW	00H
	DW	011H
	DW	011H
	DW	011H
	DW	011H
	DW	011H
	DW	011H
	DW	011H
	DW	011H
	DW	011H
	DW	068H
	DW	069H
	DW	069H
	DW	069H
	DW	06aH
	DW	013H
	DW	013H
	DW	013H
	DW	013H
	DW	013H
	DW	013H
	DW	013H
	DW	013H
	DW	013H
	DW	013H
	DW	013H
	DW	013H
	DW	013H
	DW	013H
	DW	013H
	DW	013H
	DW	013H
	DW	06bH
	DW	013H
	DW	013H
	DW	013H
	DW	013H
	DW	013H
	DW	013H
	DW	013H
	DW	013H
	DW	013H
	DW	06cH
	DW	06dH
	DW	06dH
	DW	06eH
	DW	06fH
	DW	070H
	DW	071H
	DW	071H
	DW	071H
	DW	072H
	DW	073H
	DW	074H
	DW	01eH
	DW	01fH
	DW	01eH
	DW	01fH
	DW	01eH
	DW	01fH
	DW	01eH
	DW	01fH
	DW	01eH
	DW	01fH
	DW	01eH
	DW	01fH
	DW	01eH
	DW	01fH
	DW	01eH
	DW	01fH
	DW	01eH
	DW	01fH
	DW	01eH
	DW	01fH
	DW	01eH
	DW	01fH
	DW	01eH
	DW	01fH
	DW	075H
	DW	076H
	DW	077H
	DW	014H
	DW	078H
	DW	079H
	DW	05H
	DW	01eH
	DW	01fH
	DW	07aH
	DW	01eH
	DW	01fH
	DW	014H
	DW	040H
	DW	040H
	DW	040H
	DW	07bH
	DW	07bH
	DW	07bH
	DW	07bH
	DW	07bH
	DW	07bH
	DW	07bH
	DW	07bH
	DW	07bH
	DW	07bH
	DW	07bH
	DW	07bH
	DW	07bH
	DW	07bH
	DW	07bH
	DW	07bH
	DW	011H
	DW	011H
	DW	011H
	DW	011H
	DW	011H
	DW	011H
	DW	011H
	DW	011H
	DW	011H
	DW	011H
	DW	011H
	DW	011H
	DW	011H
	DW	011H
	DW	011H
	DW	011H
	DW	011H
	DW	011H
	DW	011H
	DW	011H
	DW	011H
	DW	011H
	DW	011H
	DW	011H
	DW	011H
	DW	011H
	DW	011H
	DW	011H
	DW	011H
	DW	011H
	DW	011H
	DW	011H
	DW	013H
	DW	013H
	DW	013H
	DW	013H
	DW	013H
	DW	013H
	DW	013H
	DW	013H
	DW	013H
	DW	013H
	DW	013H
	DW	013H
	DW	013H
	DW	013H
	DW	013H
	DW	013H
	DW	013H
	DW	013H
	DW	013H
	DW	013H
	DW	013H
	DW	013H
	DW	013H
	DW	013H
	DW	013H
	DW	013H
	DW	013H
	DW	013H
	DW	013H
	DW	013H
	DW	013H
	DW	013H
	DW	07cH
	DW	07cH
	DW	07cH
	DW	07cH
	DW	07cH
	DW	07cH
	DW	07cH
	DW	07cH
	DW	07cH
	DW	07cH
	DW	07cH
	DW	07cH
	DW	07cH
	DW	07cH
	DW	07cH
	DW	07cH
	DW	01eH
	DW	01fH
	DW	01eH
	DW	01fH
	DW	01eH
	DW	01fH
	DW	01eH
	DW	01fH
	DW	01eH
	DW	01fH
	DW	01eH
	DW	01fH
	DW	01eH
	DW	01fH
	DW	01eH
	DW	01fH
	DW	01eH
	DW	01fH
	DW	01eH
	DW	01fH
	DW	01eH
	DW	01fH
	DW	01eH
	DW	01fH
	DW	01eH
	DW	01fH
	DW	01eH
	DW	01fH
	DW	01eH
	DW	01fH
	DW	01eH
	DW	01fH
	DW	01eH
	DW	01fH
	DW	05H
	DW	019H
	DW	019H
	DW	019H
	DW	019H
	DW	019H
	DW	06H
	DW	06H
	DW	01eH
	DW	01fH
	DW	01eH
	DW	01fH
	DW	01eH
	DW	01fH
	DW	01eH
	DW	01fH
	DW	01eH
	DW	01fH
	DW	01eH
	DW	01fH
	DW	01eH
	DW	01fH
	DW	01eH
	DW	01fH
	DW	01eH
	DW	01fH
	DW	01eH
	DW	01fH
	DW	01eH
	DW	01fH
	DW	01eH
	DW	01fH
	DW	01eH
	DW	01fH
	DW	01eH
	DW	01fH
	DW	01eH
	DW	01fH
	DW	01eH
	DW	01fH
	DW	01eH
	DW	01fH
	DW	01eH
	DW	01fH
	DW	01eH
	DW	01fH
	DW	01eH
	DW	01fH
	DW	01eH
	DW	01fH
	DW	01eH
	DW	01fH
	DW	01eH
	DW	01fH
	DW	01eH
	DW	01fH
	DW	01eH
	DW	01fH
	DW	01eH
	DW	01fH
	DW	01eH
	DW	01fH
	DW	07dH
	DW	01eH
	DW	01fH
	DW	01eH
	DW	01fH
	DW	01eH
	DW	01fH
	DW	01eH
	DW	01fH
	DW	01eH
	DW	01fH
	DW	01eH
	DW	01fH
	DW	01eH
	DW	01fH
	DW	07eH
	DW	01eH
	DW	01fH
	DW	01eH
	DW	01fH
	DW	01eH
	DW	01fH
	DW	01eH
	DW	01fH
	DW	01eH
	DW	01fH
	DW	01eH
	DW	01fH
	DW	01eH
	DW	01fH
	DW	01eH
	DW	01fH
	DW	01eH
	DW	01fH
	DW	01eH
	DW	01fH
	DW	01eH
	DW	01fH
	DW	01eH
	DW	01fH
	DW	01eH
	DW	01fH
	DW	01eH
	DW	01fH
	DW	01eH
	DW	01fH
	DW	01eH
	DW	01fH
	DW	01eH
	DW	01fH
	DW	01eH
	DW	01fH
	DW	01eH
	DW	01fH
	DW	01eH
	DW	01fH
	DW	01eH
	DW	01fH
	DW	01eH
	DW	01fH
	DW	01eH
	DW	01fH
	DW	01eH
	DW	01fH
	DW	01eH
	DW	01fH
	DW	01eH
	DW	01fH
	DW	01eH
	DW	01fH
	DW	01eH
	DW	01fH
	DW	01eH
	DW	01fH
	DW	01eH
	DW	01fH
	DW	01eH
	DW	01fH
	DW	01eH
	DW	01fH
	DW	01eH
	DW	01fH
	DW	01eH
	DW	01fH
	DW	01eH
	DW	01fH
	DW	01eH
	DW	01fH
	DW	01eH
	DW	01fH
	DW	01eH
	DW	01fH
	DW	01eH
	DW	01fH
	DW	01eH
	DW	01fH
	DW	01eH
	DW	01fH
	DW	01eH
	DW	01fH
	DW	01eH
	DW	01fH
	DW	01eH
	DW	01fH
	DW	00H
	DW	00H
	DW	00H
	DW	00H
	DW	00H
	DW	00H
	DW	00H
	DW	00H
	DW	00H
	DW	07fH
	DW	07fH
	DW	07fH
	DW	07fH
	DW	07fH
	DW	07fH
	DW	07fH
	DW	07fH
	DW	07fH
	DW	07fH
	DW	07fH
	DW	07fH
	DW	07fH
	DW	07fH
	DW	07fH
	DW	07fH
	DW	07fH
	DW	07fH
	DW	07fH
	DW	07fH
	DW	07fH
	DW	07fH
	DW	07fH
	DW	07fH
	DW	07fH
	DW	07fH
	DW	07fH
	DW	07fH
	DW	07fH
	DW	07fH
	DW	07fH
	DW	07fH
	DW	07fH
	DW	07fH
	DW	07fH
	DW	07fH
	DW	07fH
	DW	07fH
	DW	00H
	DW	00H
	DW	060H
	DW	05H
	DW	05H
	DW	05H
	DW	05H
	DW	05H
	DW	05H
	DW	00H
	DW	080H
	DW	080H
	DW	080H
	DW	080H
	DW	080H
	DW	080H
	DW	080H
	DW	080H
	DW	080H
	DW	080H
	DW	080H
	DW	080H
	DW	080H
	DW	080H
	DW	080H
	DW	080H
	DW	080H
	DW	080H
	DW	080H
	DW	080H
	DW	080H
	DW	080H
	DW	080H
	DW	080H
	DW	080H
	DW	080H
	DW	080H
	DW	080H
	DW	080H
	DW	080H
	DW	080H
	DW	080H
	DW	080H
	DW	080H
	DW	080H
	DW	080H
	DW	080H
	DW	080H
	DW	081H
	DW	00H
	DW	05H
	DW	05H
	DW	00H
	DW	00H
	DW	00H
	DW	00H
	DW	05H
	DW	00H
	DW	019H
	DW	019H
	DW	019H
	DW	019H
	DW	019H
	DW	019H
	DW	019H
	DW	019H
	DW	019H
	DW	019H
	DW	019H
	DW	019H
	DW	019H
	DW	019H
	DW	019H
	DW	019H
	DW	019H
	DW	019H
	DW	019H
	DW	019H
	DW	019H
	DW	019H
	DW	019H
	DW	019H
	DW	019H
	DW	019H
	DW	019H
	DW	019H
	DW	019H
	DW	019H
	DW	019H
	DW	019H
	DW	019H
	DW	019H
	DW	019H
	DW	019H
	DW	019H
	DW	019H
	DW	019H
	DW	019H
	DW	019H
	DW	019H
	DW	019H
	DW	019H
	DW	019H
	DW	05H
	DW	019H
	DW	05H
	DW	019H
	DW	019H
	DW	05H
	DW	019H
	DW	019H
	DW	05H
	DW	019H
	DW	00H
	DW	00H
	DW	00H
	DW	00H
	DW	00H
	DW	00H
	DW	00H
	DW	00H
	DW	037H
	DW	037H
	DW	037H
	DW	037H
	DW	037H
	DW	037H
	DW	037H
	DW	037H
	DW	037H
	DW	037H
	DW	037H
	DW	037H
	DW	037H
	DW	037H
	DW	037H
	DW	037H
	DW	037H
	DW	037H
	DW	037H
	DW	037H
	DW	037H
	DW	037H
	DW	037H
	DW	037H
	DW	037H
	DW	037H
	DW	037H
	DW	00H
	DW	00H
	DW	00H
	DW	00H
	DW	00H
	DW	037H
	DW	037H
	DW	037H
	DW	05H
	DW	06H
	DW	00H
	DW	00H
	DW	00H
	DW	00H
	DW	00H
	DW	00H
	DW	00H
	DW	00H
	DW	00H
	DW	00H
	DW	00H
	DW	015H
	DW	015H
	DW	015H
	DW	015H
	DW	015H
	DW	00H
	DW	05H
	DW	05H
	DW	05H
	DW	05H
	DW	05H
	DW	05H
	DW	05H
	DW	05H
	DW	05H
	DW	05H
	DW	019H
	DW	019H
	DW	019H
	DW	019H
	DW	019H
	DW	019H
	DW	019H
	DW	019H
	DW	019H
	DW	019H
	DW	019H
	DW	05H
	DW	00H
	DW	00H
	DW	05H
	DW	05H
	DW	037H
	DW	037H
	DW	037H
	DW	037H
	DW	037H
	DW	037H
	DW	037H
	DW	037H
	DW	037H
	DW	037H
	DW	037H
	DW	037H
	DW	037H
	DW	037H
	DW	037H
	DW	037H
	DW	037H
	DW	037H
	DW	037H
	DW	037H
	DW	037H
	DW	037H
	DW	037H
	DW	037H
	DW	037H
	DW	037H
	DW	037H
	DW	037H
	DW	037H
	DW	037H
	DW	037H
	DW	037H
	DW	060H
	DW	037H
	DW	037H
	DW	037H
	DW	037H
	DW	037H
	DW	037H
	DW	037H
	DW	037H
	DW	037H
	DW	037H
	DW	019H
	DW	019H
	DW	019H
	DW	019H
	DW	019H
	DW	019H
	DW	019H
	DW	019H
	DW	019H
	DW	019H
	DW	019H
	DW	019H
	DW	019H
	DW	019H
	DW	019H
	DW	019H
	DW	019H
	DW	019H
	DW	019H
	DW	019H
	DW	019H
	DW	07H
	DW	08H
	DW	09H
	DW	0aH
	DW	0bH
	DW	0cH
	DW	0dH
	DW	0eH
	DW	0fH
	DW	010H
	DW	05H
	DW	05H
	DW	05H
	DW	05H
	DW	037H
	DW	037H
	DW	019H
	DW	037H
	DW	037H
	DW	037H
	DW	037H
	DW	037H
	DW	037H
	DW	037H
	DW	037H
	DW	037H
	DW	037H
	DW	037H
	DW	037H
	DW	037H
	DW	037H
	DW	037H
	DW	037H
	DW	037H
	DW	037H
	DW	037H
	DW	037H
	DW	037H
	DW	037H
	DW	037H
	DW	037H
	DW	037H
	DW	037H
	DW	037H
	DW	037H
	DW	037H
	DW	037H
	DW	037H
	DW	037H
	DW	037H
	DW	037H
	DW	037H
	DW	037H
	DW	037H
	DW	037H
	DW	037H
	DW	037H
	DW	037H
	DW	037H
	DW	037H
	DW	037H
	DW	037H
	DW	037H
	DW	037H
	DW	037H
	DW	037H
	DW	037H
	DW	037H
	DW	037H
	DW	037H
	DW	037H
	DW	037H
	DW	037H
	DW	037H
	DW	037H
	DW	037H
	DW	037H
	DW	037H
	DW	037H
	DW	037H
	DW	037H
	DW	037H
	DW	037H
	DW	037H
	DW	037H
	DW	037H
	DW	037H
	DW	037H
	DW	037H
	DW	037H
	DW	037H
	DW	037H
	DW	037H
	DW	037H
	DW	037H
	DW	037H
	DW	037H
	DW	037H
	DW	037H
	DW	037H
	DW	037H
	DW	037H
	DW	037H
	DW	037H
	DW	037H
	DW	037H
	DW	037H
	DW	037H
	DW	037H
	DW	037H
	DW	037H
	DW	037H
	DW	037H
	DW	037H
	DW	037H
	DW	037H
	DW	05H
	DW	037H
	DW	019H
	DW	019H
	DW	019H
	DW	019H
	DW	019H
	DW	019H
	DW	019H
	DW	015H
	DW	05H
	DW	019H
	DW	019H
	DW	019H
	DW	019H
	DW	019H
	DW	019H
	DW	060H
	DW	060H
	DW	019H
	DW	019H
	DW	05H
	DW	019H
	DW	019H
	DW	019H
	DW	019H
	DW	037H
	DW	037H
	DW	07H
	DW	08H
	DW	09H
	DW	0aH
	DW	0bH
	DW	0cH
	DW	0dH
	DW	0eH
	DW	0fH
	DW	010H
	DW	037H
	DW	037H
	DW	037H
	DW	05H
	DW	05H
	DW	037H
	DW	05H
	DW	05H
	DW	05H
	DW	05H
	DW	05H
	DW	05H
	DW	05H
	DW	05H
	DW	05H
	DW	05H
	DW	05H
	DW	05H
	DW	05H
	DW	05H
	DW	00H
	DW	015H
	DW	037H
	DW	019H
	DW	037H
	DW	037H
	DW	037H
	DW	037H
	DW	037H
	DW	037H
	DW	037H
	DW	037H
	DW	037H
	DW	037H
	DW	037H
	DW	037H
	DW	037H
	DW	037H
	DW	037H
	DW	037H
	DW	037H
	DW	037H
	DW	037H
	DW	037H
	DW	037H
	DW	037H
	DW	037H
	DW	037H
	DW	037H
	DW	037H
	DW	037H
	DW	037H
	DW	037H
	DW	037H
	DW	019H
	DW	019H
	DW	019H
	DW	019H
	DW	019H
	DW	019H
	DW	019H
	DW	019H
	DW	019H
	DW	019H
	DW	019H
	DW	019H
	DW	019H
	DW	019H
	DW	019H
	DW	019H
	DW	019H
	DW	019H
	DW	019H
	DW	019H
	DW	019H
	DW	019H
	DW	019H
	DW	019H
	DW	019H
	DW	019H
	DW	019H
	DW	00H
	DW	00H
	DW	037H
	DW	037H
	DW	037H
	DW	037H
	DW	037H
	DW	037H
	DW	037H
	DW	037H
	DW	037H
	DW	037H
	DW	037H
	DW	037H
	DW	037H
	DW	037H
	DW	037H
	DW	037H
	DW	037H
	DW	037H
	DW	037H
	DW	037H
	DW	037H
	DW	037H
	DW	037H
	DW	037H
	DW	037H
	DW	037H
	DW	037H
	DW	037H
	DW	037H
	DW	037H
	DW	037H
	DW	037H
	DW	037H
	DW	037H
	DW	037H
	DW	037H
	DW	037H
	DW	037H
	DW	037H
	DW	037H
	DW	037H
	DW	037H
	DW	037H
	DW	037H
	DW	037H
	DW	037H
	DW	037H
	DW	037H
	DW	037H
	DW	037H
	DW	037H
	DW	037H
	DW	037H
	DW	037H
	DW	037H
	DW	037H
	DW	037H
	DW	037H
	DW	037H
	DW	037H
	DW	037H
	DW	037H
	DW	037H
	DW	037H
	DW	037H
	DW	037H
	DW	037H
	DW	037H
	DW	037H
	DW	037H
	DW	037H
	DW	037H
	DW	037H
	DW	037H
	DW	037H
	DW	037H
	DW	037H
	DW	037H
	DW	037H
	DW	037H
	DW	037H
	DW	037H
	DW	037H
	DW	037H
	DW	037H
	DW	037H
	DW	037H
	DW	037H
	DW	037H
	DW	019H
	DW	019H
	DW	019H
	DW	019H
	DW	019H
	DW	019H
	DW	019H
	DW	019H
	DW	019H
	DW	019H
	DW	019H
	DW	037H
	DW	00H
	DW	00H
	DW	00H
	DW	00H
	DW	00H
	DW	00H
	DW	00H
	DW	00H
	DW	00H
	DW	00H
	DW	00H
	DW	00H
	DW	00H
	DW	00H
	DW	07H
	DW	08H
	DW	09H
	DW	0aH
	DW	0bH
	DW	0cH
	DW	0dH
	DW	0eH
	DW	0fH
	DW	010H
	DW	037H
	DW	037H
	DW	037H
	DW	037H
	DW	037H
	DW	037H
	DW	037H
	DW	037H
	DW	037H
	DW	037H
	DW	037H
	DW	037H
	DW	037H
	DW	037H
	DW	037H
	DW	037H
	DW	037H
	DW	037H
	DW	037H
	DW	037H
	DW	037H
	DW	037H
	DW	037H
	DW	037H
	DW	037H
	DW	037H
	DW	037H
	DW	037H
	DW	037H
	DW	037H
	DW	037H
	DW	037H
	DW	037H
	DW	019H
	DW	019H
	DW	019H
	DW	019H
	DW	019H
	DW	019H
	DW	019H
	DW	019H
	DW	019H
	DW	060H
	DW	060H
	DW	05H
	DW	05H
	DW	05H
	DW	05H
	DW	060H
	DW	00H
	DW	00H
	DW	00H
	DW	00H
	DW	00H
	DW	037H
	DW	037H
	DW	037H
	DW	037H
	DW	037H
	DW	037H
	DW	037H
	DW	037H
	DW	037H
	DW	037H
	DW	037H
	DW	037H
	DW	037H
	DW	037H
	DW	037H
	DW	037H
	DW	037H
	DW	037H
	DW	037H
	DW	037H
	DW	037H
	DW	037H
	DW	019H
	DW	019H
	DW	019H
	DW	019H
	DW	060H
	DW	019H
	DW	019H
	DW	019H
	DW	019H
	DW	019H
	DW	019H
	DW	019H
	DW	019H
	DW	019H
	DW	060H
	DW	019H
	DW	019H
	DW	019H
	DW	060H
	DW	019H
	DW	019H
	DW	019H
	DW	019H
	DW	019H
	DW	00H
	DW	00H
	DW	05H
	DW	05H
	DW	05H
	DW	05H
	DW	05H
	DW	05H
	DW	05H
	DW	05H
	DW	05H
	DW	05H
	DW	05H
	DW	05H
	DW	05H
	DW	05H
	DW	05H
	DW	00H
	DW	037H
	DW	037H
	DW	037H
	DW	037H
	DW	037H
	DW	037H
	DW	037H
	DW	037H
	DW	037H
	DW	037H
	DW	037H
	DW	037H
	DW	037H
	DW	037H
	DW	037H
	DW	037H
	DW	037H
	DW	037H
	DW	037H
	DW	037H
	DW	037H
	DW	037H
	DW	037H
	DW	037H
	DW	037H
	DW	019H
	DW	019H
	DW	019H
	DW	00H
	DW	00H
	DW	05H
	DW	00H
	DW	00H
	DW	00H
	DW	00H
	DW	00H
	DW	00H
	DW	00H
	DW	00H
	DW	00H
	DW	00H
	DW	00H
	DW	00H
	DW	00H
	DW	00H
	DW	00H
	DW	00H
	DW	00H
	DW	00H
	DW	00H
	DW	00H
	DW	00H
	DW	00H
	DW	00H
	DW	00H
	DW	00H
	DW	00H
	DW	00H
	DW	00H
	DW	00H
	DW	00H
	DW	00H
	DW	00H
	DW	00H
	DW	00H
	DW	00H
	DW	00H
	DW	00H
	DW	00H
	DW	00H
	DW	00H
	DW	00H
	DW	00H
	DW	00H
	DW	00H
	DW	00H
	DW	00H
	DW	00H
	DW	00H
	DW	00H
	DW	00H
	DW	00H
	DW	00H
	DW	00H
	DW	00H
	DW	00H
	DW	00H
	DW	00H
	DW	00H
	DW	00H
	DW	00H
	DW	00H
	DW	00H
	DW	00H
	DW	00H
	DW	00H
	DW	037H
	DW	00H
	DW	037H
	DW	037H
	DW	037H
	DW	037H
	DW	037H
	DW	037H
	DW	037H
	DW	037H
	DW	037H
	DW	037H
	DW	037H
	DW	00H
	DW	00H
	DW	00H
	DW	00H
	DW	00H
	DW	00H
	DW	00H
	DW	00H
	DW	00H
	DW	00H
	DW	00H
	DW	00H
	DW	00H
	DW	00H
	DW	00H
	DW	00H
	DW	00H
	DW	00H
	DW	00H
	DW	00H
	DW	00H
	DW	00H
	DW	00H
	DW	00H
	DW	00H
	DW	00H
	DW	00H
	DW	00H
	DW	00H
	DW	00H
	DW	00H
	DW	00H
	DW	00H
	DW	00H
	DW	00H
	DW	00H
	DW	00H
	DW	00H
	DW	00H
	DW	00H
	DW	00H
	DW	00H
	DW	00H
	DW	00H
	DW	00H
	DW	00H
	DW	00H
	DW	00H
	DW	00H
	DW	00H
	DW	00H
	DW	00H
	DW	00H
	DW	00H
	DW	00H
	DW	019H
	DW	019H
	DW	019H
	DW	019H
	DW	019H
	DW	019H
	DW	019H
	DW	019H
	DW	019H
	DW	019H
	DW	019H
	DW	019H
	DW	019H
	DW	019H
	DW	019H
	DW	019H
	DW	019H
	DW	019H
	DW	019H
	DW	019H
	DW	019H
	DW	019H
	DW	019H
	DW	019H
	DW	019H
	DW	019H
	DW	019H
	DW	00H
	DW	019H
	DW	019H
	DW	019H
	DW	012H
	DW	037H
	DW	037H
	DW	037H
	DW	037H
	DW	037H
	DW	037H
	DW	037H
	DW	037H
	DW	037H
	DW	037H
	DW	037H
	DW	037H
	DW	037H
	DW	037H
	DW	037H
	DW	037H
	DW	037H
	DW	037H
	DW	037H
	DW	037H
	DW	037H
	DW	037H
	DW	037H
	DW	037H
	DW	037H
	DW	037H
	DW	037H
	DW	037H
	DW	037H
	DW	037H
	DW	037H
	DW	037H
	DW	037H
	DW	037H
	DW	037H
	DW	037H
	DW	037H
	DW	037H
	DW	037H
	DW	037H
	DW	037H
	DW	037H
	DW	037H
	DW	037H
	DW	037H
	DW	037H
	DW	037H
	DW	037H
	DW	037H
	DW	037H
	DW	037H
	DW	037H
	DW	037H
	DW	037H
	DW	019H
	DW	012H
	DW	019H
	DW	037H
	DW	012H
	DW	012H
	DW	012H
	DW	019H
	DW	019H
	DW	019H
	DW	019H
	DW	019H
	DW	019H
	DW	019H
	DW	019H
	DW	012H
	DW	012H
	DW	012H
	DW	012H
	DW	019H
	DW	012H
	DW	012H
	DW	037H
	DW	019H
	DW	019H
	DW	019H
	DW	019H
	DW	019H
	DW	019H
	DW	019H
	DW	037H
	DW	037H
	DW	037H
	DW	037H
	DW	037H
	DW	037H
	DW	037H
	DW	037H
	DW	037H
	DW	037H
	DW	019H
	DW	019H
	DW	05H
	DW	05H
	DW	07H
	DW	08H
	DW	09H
	DW	0aH
	DW	0bH
	DW	0cH
	DW	0dH
	DW	0eH
	DW	0fH
	DW	010H
	DW	05H
	DW	060H
	DW	037H
	DW	037H
	DW	037H
	DW	037H
	DW	037H
	DW	037H
	DW	00H
	DW	037H
	DW	037H
	DW	037H
	DW	037H
	DW	037H
	DW	037H
	DW	037H
	DW	00H
	DW	019H
	DW	012H
	DW	012H
	DW	00H
	DW	037H
	DW	037H
	DW	037H
	DW	037H
	DW	037H
	DW	037H
	DW	037H
	DW	037H
	DW	00H
	DW	00H
	DW	037H
	DW	037H
	DW	00H
	DW	00H
	DW	037H
	DW	037H
	DW	037H
	DW	037H
	DW	037H
	DW	037H
	DW	037H
	DW	037H
	DW	037H
	DW	037H
	DW	037H
	DW	037H
	DW	037H
	DW	037H
	DW	037H
	DW	037H
	DW	037H
	DW	037H
	DW	037H
	DW	037H
	DW	037H
	DW	037H
	DW	00H
	DW	037H
	DW	037H
	DW	037H
	DW	037H
	DW	037H
	DW	037H
	DW	037H
	DW	00H
	DW	037H
	DW	00H
	DW	00H
	DW	00H
	DW	037H
	DW	037H
	DW	037H
	DW	037H
	DW	00H
	DW	00H
	DW	019H
	DW	037H
	DW	012H
	DW	012H
	DW	012H
	DW	019H
	DW	019H
	DW	019H
	DW	019H
	DW	00H
	DW	00H
	DW	012H
	DW	012H
	DW	00H
	DW	00H
	DW	012H
	DW	012H
	DW	019H
	DW	037H
	DW	00H
	DW	00H
	DW	00H
	DW	00H
	DW	00H
	DW	00H
	DW	00H
	DW	00H
	DW	012H
	DW	00H
	DW	00H
	DW	00H
	DW	00H
	DW	037H
	DW	037H
	DW	00H
	DW	037H
	DW	037H
	DW	037H
	DW	019H
	DW	019H
	DW	00H
	DW	00H
	DW	07H
	DW	08H
	DW	09H
	DW	0aH
	DW	0bH
	DW	0cH
	DW	0dH
	DW	0eH
	DW	0fH
	DW	010H
	DW	037H
	DW	037H
	DW	05H
	DW	05H
	DW	01bH
	DW	01bH
	DW	01bH
	DW	01bH
	DW	01bH
	DW	01bH
	DW	05H
	DW	05H
	DW	00H
	DW	00H
	DW	00H
	DW	00H
	DW	00H
	DW	019H
	DW	019H
	DW	012H
	DW	00H
	DW	037H
	DW	037H
	DW	037H
	DW	037H
	DW	037H
	DW	037H
	DW	00H
	DW	00H
	DW	00H
	DW	00H
	DW	037H
	DW	037H
	DW	00H
	DW	00H
	DW	037H
	DW	037H
	DW	037H
	DW	037H
	DW	037H
	DW	037H
	DW	037H
	DW	037H
	DW	037H
	DW	037H
	DW	037H
	DW	037H
	DW	037H
	DW	037H
	DW	037H
	DW	037H
	DW	037H
	DW	037H
	DW	037H
	DW	037H
	DW	037H
	DW	037H
	DW	00H
	DW	037H
	DW	037H
	DW	037H
	DW	037H
	DW	037H
	DW	037H
	DW	037H
	DW	00H
	DW	037H
	DW	037H
	DW	00H
	DW	037H
	DW	037H
	DW	00H
	DW	037H
	DW	037H
	DW	00H
	DW	00H
	DW	019H
	DW	00H
	DW	012H
	DW	012H
	DW	012H
	DW	019H
	DW	019H
	DW	00H
	DW	00H
	DW	00H
	DW	00H
	DW	019H
	DW	019H
	DW	00H
	DW	00H
	DW	019H
	DW	019H
	DW	019H
	DW	00H
	DW	00H
	DW	00H
	DW	019H
	DW	00H
	DW	00H
	DW	00H
	DW	00H
	DW	00H
	DW	00H
	DW	00H
	DW	037H
	DW	037H
	DW	037H
	DW	037H
	DW	00H
	DW	037H
	DW	00H
	DW	00H
	DW	00H
	DW	00H
	DW	00H
	DW	00H
	DW	00H
	DW	07H
	DW	08H
	DW	09H
	DW	0aH
	DW	0bH
	DW	0cH
	DW	0dH
	DW	0eH
	DW	0fH
	DW	010H
	DW	019H
	DW	019H
	DW	037H
	DW	037H
	DW	037H
	DW	019H
	DW	00H
	DW	00H
	DW	00H
	DW	00H
	DW	00H
	DW	00H
	DW	00H
	DW	00H
	DW	00H
	DW	00H
	DW	00H
	DW	019H
	DW	019H
	DW	012H
	DW	00H
	DW	037H
	DW	037H
	DW	037H
	DW	037H
	DW	037H
	DW	037H
	DW	037H
	DW	037H
	DW	037H
	DW	00H
	DW	037H
	DW	037H
	DW	037H
	DW	00H
	DW	037H
	DW	037H
	DW	037H
	DW	037H
	DW	037H
	DW	037H
	DW	037H
	DW	037H
	DW	037H
	DW	037H
	DW	037H
	DW	037H
	DW	037H
	DW	037H
	DW	037H
	DW	037H
	DW	037H
	DW	037H
	DW	037H
	DW	037H
	DW	037H
	DW	037H
	DW	00H
	DW	037H
	DW	037H
	DW	037H
	DW	037H
	DW	037H
	DW	037H
	DW	037H
	DW	00H
	DW	037H
	DW	037H
	DW	00H
	DW	037H
	DW	037H
	DW	037H
	DW	037H
	DW	037H
	DW	00H
	DW	00H
	DW	019H
	DW	037H
	DW	012H
	DW	012H
	DW	012H
	DW	019H
	DW	019H
	DW	019H
	DW	019H
	DW	019H
	DW	00H
	DW	019H
	DW	019H
	DW	012H
	DW	00H
	DW	012H
	DW	012H
	DW	019H
	DW	00H
	DW	00H
	DW	037H
	DW	00H
	DW	00H
	DW	00H
	DW	00H
	DW	00H
	DW	00H
	DW	00H
	DW	00H
	DW	00H
	DW	00H
	DW	00H
	DW	00H
	DW	00H
	DW	00H
	DW	00H
	DW	037H
	DW	037H
	DW	019H
	DW	019H
	DW	00H
	DW	00H
	DW	07H
	DW	08H
	DW	09H
	DW	0aH
	DW	0bH
	DW	0cH
	DW	0dH
	DW	0eH
	DW	0fH
	DW	010H
	DW	05H
	DW	05H
	DW	00H
	DW	00H
	DW	00H
	DW	00H
	DW	00H
	DW	00H
	DW	00H
	DW	00H
	DW	00H
	DW	00H
	DW	00H
	DW	00H
	DW	00H
	DW	00H
	DW	00H
	DW	019H
	DW	012H
	DW	012H
	DW	00H
	DW	037H
	DW	037H
	DW	037H
	DW	037H
	DW	037H
	DW	037H
	DW	037H
	DW	037H
	DW	00H
	DW	00H
	DW	037H
	DW	037H
	DW	00H
	DW	00H
	DW	037H
	DW	037H
	DW	037H
	DW	037H
	DW	037H
	DW	037H
	DW	037H
	DW	037H
	DW	037H
	DW	037H
	DW	037H
	DW	037H
	DW	037H
	DW	037H
	DW	037H
	DW	037H
	DW	037H
	DW	037H
	DW	037H
	DW	037H
	DW	037H
	DW	037H
	DW	00H
	DW	037H
	DW	037H
	DW	037H
	DW	037H
	DW	037H
	DW	037H
	DW	037H
	DW	00H
	DW	037H
	DW	037H
	DW	00H
	DW	037H
	DW	037H
	DW	037H
	DW	037H
	DW	037H
	DW	00H
	DW	00H
	DW	019H
	DW	037H
	DW	012H
	DW	019H
	DW	012H
	DW	019H
	DW	019H
	DW	019H
	DW	019H
	DW	00H
	DW	00H
	DW	012H
	DW	012H
	DW	00H
	DW	00H
	DW	012H
	DW	012H
	DW	019H
	DW	00H
	DW	00H
	DW	00H
	DW	00H
	DW	00H
	DW	00H
	DW	00H
	DW	00H
	DW	019H
	DW	012H
	DW	00H
	DW	00H
	DW	00H
	DW	00H
	DW	037H
	DW	037H
	DW	00H
	DW	037H
	DW	037H
	DW	037H
	DW	019H
	DW	019H
	DW	00H
	DW	00H
	DW	07H
	DW	08H
	DW	09H
	DW	0aH
	DW	0bH
	DW	0cH
	DW	0dH
	DW	0eH
	DW	0fH
	DW	010H
	DW	05H
	DW	037H
	DW	01bH
	DW	01bH
	DW	01bH
	DW	01bH
	DW	01bH
	DW	01bH
	DW	00H
	DW	00H
	DW	00H
	DW	00H
	DW	00H
	DW	00H
	DW	00H
	DW	00H
	DW	00H
	DW	00H
	DW	019H
	DW	037H
	DW	00H
	DW	037H
	DW	037H
	DW	037H
	DW	037H
	DW	037H
	DW	037H
	DW	00H
	DW	00H
	DW	00H
	DW	037H
	DW	037H
	DW	037H
	DW	00H
	DW	037H
	DW	037H
	DW	037H
	DW	037H
	DW	00H
	DW	00H
	DW	00H
	DW	037H
	DW	037H
	DW	00H
	DW	037H
	DW	00H
	DW	037H
	DW	037H
	DW	00H
	DW	00H
	DW	00H
	DW	037H
	DW	037H
	DW	00H
	DW	00H
	DW	00H
	DW	037H
	DW	037H
	DW	037H
	DW	00H
	DW	00H
	DW	00H
	DW	037H
	DW	037H
	DW	037H
	DW	037H
	DW	037H
	DW	037H
	DW	037H
	DW	037H
	DW	037H
	DW	037H
	DW	037H
	DW	037H
	DW	00H
	DW	00H
	DW	00H
	DW	00H
	DW	012H
	DW	012H
	DW	019H
	DW	012H
	DW	012H
	DW	00H
	DW	00H
	DW	00H
	DW	012H
	DW	012H
	DW	012H
	DW	00H
	DW	012H
	DW	012H
	DW	012H
	DW	019H
	DW	00H
	DW	00H
	DW	037H
	DW	00H
	DW	00H
	DW	00H
	DW	00H
	DW	00H
	DW	00H
	DW	012H
	DW	00H
	DW	00H
	DW	00H
	DW	00H
	DW	00H
	DW	00H
	DW	00H
	DW	00H
	DW	00H
	DW	00H
	DW	00H
	DW	00H
	DW	00H
	DW	00H
	DW	07H
	DW	08H
	DW	09H
	DW	0aH
	DW	0bH
	DW	0cH
	DW	0dH
	DW	0eH
	DW	0fH
	DW	010H
	DW	01bH
	DW	01bH
	DW	01bH
	DW	05H
	DW	05H
	DW	05H
	DW	05H
	DW	05H
	DW	05H
	DW	05H
	DW	05H
	DW	00H
	DW	00H
	DW	00H
	DW	00H
	DW	00H
	DW	00H
	DW	012H
	DW	012H
	DW	012H
	DW	00H
	DW	037H
	DW	037H
	DW	037H
	DW	037H
	DW	037H
	DW	037H
	DW	037H
	DW	037H
	DW	00H
	DW	037H
	DW	037H
	DW	037H
	DW	00H
	DW	037H
	DW	037H
	DW	037H
	DW	037H
	DW	037H
	DW	037H
	DW	037H
	DW	037H
	DW	037H
	DW	037H
	DW	037H
	DW	037H
	DW	037H
	DW	037H
	DW	037H
	DW	037H
	DW	037H
	DW	037H
	DW	037H
	DW	037H
	DW	037H
	DW	037H
	DW	037H
	DW	00H
	DW	037H
	DW	037H
	DW	037H
	DW	037H
	DW	037H
	DW	037H
	DW	037H
	DW	037H
	DW	037H
	DW	037H
	DW	00H
	DW	037H
	DW	037H
	DW	037H
	DW	037H
	DW	037H
	DW	00H
	DW	00H
	DW	00H
	DW	037H
	DW	019H
	DW	019H
	DW	019H
	DW	012H
	DW	012H
	DW	012H
	DW	012H
	DW	00H
	DW	019H
	DW	019H
	DW	019H
	DW	00H
	DW	019H
	DW	019H
	DW	019H
	DW	019H
	DW	00H
	DW	00H
	DW	00H
	DW	00H
	DW	00H
	DW	00H
	DW	00H
	DW	019H
	DW	019H
	DW	00H
	DW	037H
	DW	037H
	DW	00H
	DW	00H
	DW	00H
	DW	00H
	DW	00H
	DW	00H
	DW	037H
	DW	037H
	DW	019H
	DW	019H
	DW	00H
	DW	00H
	DW	07H
	DW	08H
	DW	09H
	DW	0aH
	DW	0bH
	DW	0cH
	DW	0dH
	DW	0eH
	DW	0fH
	DW	010H
	DW	00H
	DW	00H
	DW	00H
	DW	00H
	DW	00H
	DW	00H
	DW	00H
	DW	00H
	DW	01bH
	DW	01bH
	DW	01bH
	DW	01bH
	DW	01bH
	DW	01bH
	DW	01bH
	DW	05H
	DW	00H
	DW	00H
	DW	012H
	DW	012H
	DW	00H
	DW	037H
	DW	037H
	DW	037H
	DW	037H
	DW	037H
	DW	037H
	DW	037H
	DW	037H
	DW	00H
	DW	037H
	DW	037H
	DW	037H
	DW	00H
	DW	037H
	DW	037H
	DW	037H
	DW	037H
	DW	037H
	DW	037H
	DW	037H
	DW	037H
	DW	037H
	DW	037H
	DW	037H
	DW	037H
	DW	037H
	DW	037H
	DW	037H
	DW	037H
	DW	037H
	DW	037H
	DW	037H
	DW	037H
	DW	037H
	DW	037H
	DW	037H
	DW	00H
	DW	037H
	DW	037H
	DW	037H
	DW	037H
	DW	037H
	DW	037H
	DW	037H
	DW	037H
	DW	037H
	DW	037H
	DW	00H
	DW	037H
	DW	037H
	DW	037H
	DW	037H
	DW	037H
	DW	00H
	DW	00H
	DW	019H
	DW	037H
	DW	012H
	DW	019H
	DW	012H
	DW	012H
	DW	012H
	DW	012H
	DW	012H
	DW	00H
	DW	019H
	DW	012H
	DW	012H
	DW	00H
	DW	012H
	DW	012H
	DW	019H
	DW	019H
	DW	00H
	DW	00H
	DW	00H
	DW	00H
	DW	00H
	DW	00H
	DW	00H
	DW	012H
	DW	012H
	DW	00H
	DW	00H
	DW	00H
	DW	00H
	DW	00H
	DW	00H
	DW	00H
	DW	037H
	DW	00H
	DW	037H
	DW	037H
	DW	019H
	DW	019H
	DW	00H
	DW	00H
	DW	07H
	DW	08H
	DW	09H
	DW	0aH
	DW	0bH
	DW	0cH
	DW	0dH
	DW	0eH
	DW	0fH
	DW	010H
	DW	00H
	DW	037H
	DW	037H
	DW	00H
	DW	00H
	DW	00H
	DW	00H
	DW	00H
	DW	00H
	DW	00H
	DW	00H
	DW	00H
	DW	00H
	DW	00H
	DW	00H
	DW	00H
	DW	00H
	DW	00H
	DW	012H
	DW	012H
	DW	00H
	DW	037H
	DW	037H
	DW	037H
	DW	037H
	DW	037H
	DW	037H
	DW	037H
	DW	037H
	DW	00H
	DW	037H
	DW	037H
	DW	037H
	DW	00H
	DW	037H
	DW	037H
	DW	037H
	DW	037H
	DW	037H
	DW	037H
	DW	037H
	DW	037H
	DW	037H
	DW	037H
	DW	037H
	DW	037H
	DW	037H
	DW	037H
	DW	037H
	DW	037H
	DW	037H
	DW	037H
	DW	037H
	DW	037H
	DW	037H
	DW	037H
	DW	037H
	DW	037H
	DW	037H
	DW	037H
	DW	037H
	DW	037H
	DW	037H
	DW	037H
	DW	037H
	DW	037H
	DW	037H
	DW	037H
	DW	037H
	DW	037H
	DW	037H
	DW	037H
	DW	037H
	DW	037H
	DW	037H
	DW	00H
	DW	00H
	DW	037H
	DW	012H
	DW	012H
	DW	012H
	DW	019H
	DW	019H
	DW	019H
	DW	019H
	DW	00H
	DW	012H
	DW	012H
	DW	012H
	DW	00H
	DW	012H
	DW	012H
	DW	012H
	DW	019H
	DW	037H
	DW	00H
	DW	00H
	DW	00H
	DW	00H
	DW	00H
	DW	00H
	DW	00H
	DW	00H
	DW	012H
	DW	00H
	DW	00H
	DW	00H
	DW	00H
	DW	00H
	DW	00H
	DW	00H
	DW	00H
	DW	037H
	DW	037H
	DW	019H
	DW	019H
	DW	00H
	DW	00H
	DW	07H
	DW	08H
	DW	09H
	DW	0aH
	DW	0bH
	DW	0cH
	DW	0dH
	DW	0eH
	DW	0fH
	DW	010H
	DW	01bH
	DW	01bH
	DW	01bH
	DW	01bH
	DW	01bH
	DW	01bH
	DW	00H
	DW	00H
	DW	00H
	DW	05H
	DW	037H
	DW	037H
	DW	037H
	DW	037H
	DW	037H
	DW	037H
	DW	00H
	DW	00H
	DW	012H
	DW	012H
	DW	00H
	DW	037H
	DW	037H
	DW	037H
	DW	037H
	DW	037H
	DW	037H
	DW	037H
	DW	037H
	DW	037H
	DW	037H
	DW	037H
	DW	037H
	DW	037H
	DW	037H
	DW	037H
	DW	037H
	DW	037H
	DW	037H
	DW	00H
	DW	00H
	DW	00H
	DW	037H
	DW	037H
	DW	037H
	DW	037H
	DW	037H
	DW	037H
	DW	037H
	DW	037H
	DW	037H
	DW	037H
	DW	037H
	DW	037H
	DW	037H
	DW	037H
	DW	037H
	DW	037H
	DW	037H
	DW	037H
	DW	037H
	DW	037H
	DW	037H
	DW	037H
	DW	037H
	DW	037H
	DW	00H
	DW	037H
	DW	037H
	DW	037H
	DW	037H
	DW	037H
	DW	037H
	DW	037H
	DW	037H
	DW	037H
	DW	00H
	DW	037H
	DW	00H
	DW	00H
	DW	037H
	DW	037H
	DW	037H
	DW	037H
	DW	037H
	DW	037H
	DW	037H
	DW	00H
	DW	00H
	DW	00H
	DW	019H
	DW	00H
	DW	00H
	DW	00H
	DW	00H
	DW	012H
	DW	012H
	DW	012H
	DW	019H
	DW	019H
	DW	019H
	DW	00H
	DW	019H
	DW	00H
	DW	012H
	DW	012H
	DW	012H
	DW	012H
	DW	012H
	DW	012H
	DW	012H
	DW	012H
	DW	00H
	DW	00H
	DW	00H
	DW	00H
	DW	00H
	DW	00H
	DW	00H
	DW	00H
	DW	00H
	DW	00H
	DW	00H
	DW	00H
	DW	00H
	DW	00H
	DW	00H
	DW	00H
	DW	00H
	DW	00H
	DW	012H
	DW	012H
	DW	05H
	DW	00H
	DW	00H
	DW	00H
	DW	00H
	DW	00H
	DW	00H
	DW	00H
	DW	00H
	DW	00H
	DW	00H
	DW	00H
	DW	00H
	DW	037H
	DW	037H
	DW	037H
	DW	037H
	DW	037H
	DW	037H
	DW	037H
	DW	037H
	DW	037H
	DW	037H
	DW	037H
	DW	037H
	DW	037H
	DW	037H
	DW	037H
	DW	037H
	DW	037H
	DW	037H
	DW	037H
	DW	037H
	DW	037H
	DW	037H
	DW	037H
	DW	037H
	DW	037H
	DW	037H
	DW	037H
	DW	037H
	DW	037H
	DW	037H
	DW	037H
	DW	037H
	DW	037H
	DW	037H
	DW	037H
	DW	037H
	DW	037H
	DW	037H
	DW	037H
	DW	037H
	DW	037H
	DW	037H
	DW	037H
	DW	037H
	DW	037H
	DW	037H
	DW	037H
	DW	037H
	DW	019H
	DW	037H
	DW	082H
	DW	019H
	DW	019H
	DW	019H
	DW	019H
	DW	019H
	DW	019H
	DW	019H
	DW	00H
	DW	00H
	DW	00H
	DW	00H
	DW	05H
	DW	037H
	DW	037H
	DW	037H
	DW	037H
	DW	037H
	DW	037H
	DW	060H
	DW	019H
	DW	019H
	DW	019H
	DW	019H
	DW	019H
	DW	019H
	DW	019H
	DW	019H
	DW	05H
	DW	07H
	DW	08H
	DW	09H
	DW	0aH
	DW	0bH
	DW	0cH
	DW	0dH
	DW	0eH
	DW	0fH
	DW	010H
	DW	05H
	DW	05H
	DW	00H
	DW	00H
	DW	00H
	DW	00H
	DW	00H
	DW	00H
	DW	00H
	DW	00H
	DW	00H
	DW	00H
	DW	00H
	DW	00H
	DW	00H
	DW	00H
	DW	00H
	DW	00H
	DW	00H
	DW	00H
	DW	00H
	DW	00H
	DW	00H
	DW	00H
	DW	00H
	DW	00H
	DW	00H
	DW	00H
	DW	00H
	DW	00H
	DW	00H
	DW	00H
	DW	00H
	DW	00H
	DW	00H
	DW	00H
	DW	00H
	DW	00H
	DW	00H
	DW	037H
	DW	037H
	DW	00H
	DW	037H
	DW	00H
	DW	00H
	DW	037H
	DW	037H
	DW	00H
	DW	037H
	DW	00H
	DW	00H
	DW	037H
	DW	00H
	DW	00H
	DW	00H
	DW	00H
	DW	00H
	DW	00H
	DW	037H
	DW	037H
	DW	037H
	DW	037H
	DW	00H
	DW	037H
	DW	037H
	DW	037H
	DW	037H
	DW	037H
	DW	037H
	DW	037H
	DW	00H
	DW	037H
	DW	037H
	DW	037H
	DW	00H
	DW	037H
	DW	00H
	DW	037H
	DW	00H
	DW	00H
	DW	037H
	DW	037H
	DW	00H
	DW	037H
	DW	037H
	DW	037H
	DW	037H
	DW	019H
	DW	037H
	DW	082H
	DW	019H
	DW	019H
	DW	019H
	DW	019H
	DW	019H
	DW	019H
	DW	00H
	DW	019H
	DW	019H
	DW	037H
	DW	00H
	DW	00H
	DW	037H
	DW	037H
	DW	037H
	DW	037H
	DW	037H
	DW	00H
	DW	060H
	DW	00H
	DW	019H
	DW	019H
	DW	019H
	DW	019H
	DW	019H
	DW	019H
	DW	00H
	DW	00H
	DW	07H
	DW	08H
	DW	09H
	DW	0aH
	DW	0bH
	DW	0cH
	DW	0dH
	DW	0eH
	DW	0fH
	DW	010H
	DW	00H
	DW	00H
	DW	037H
	DW	037H
	DW	037H
	DW	037H
	DW	00H
	DW	00H
	DW	00H
	DW	00H
	DW	00H
	DW	00H
	DW	00H
	DW	00H
	DW	00H
	DW	00H
	DW	00H
	DW	00H
	DW	00H
	DW	00H
	DW	00H
	DW	00H
	DW	00H
	DW	00H
	DW	00H
	DW	00H
	DW	00H
	DW	00H
	DW	00H
	DW	00H
	DW	00H
	DW	00H
	DW	00H
	DW	00H
	DW	00H
	DW	00H
	DW	00H
	DW	00H
	DW	037H
	DW	05H
	DW	05H
	DW	05H
	DW	05H
	DW	05H
	DW	05H
	DW	05H
	DW	05H
	DW	05H
	DW	05H
	DW	05H
	DW	05H
	DW	05H
	DW	05H
	DW	05H
	DW	05H
	DW	05H
	DW	05H
	DW	05H
	DW	05H
	DW	05H
	DW	05H
	DW	05H
	DW	019H
	DW	019H
	DW	05H
	DW	05H
	DW	05H
	DW	05H
	DW	05H
	DW	05H
	DW	07H
	DW	08H
	DW	09H
	DW	0aH
	DW	0bH
	DW	0cH
	DW	0dH
	DW	0eH
	DW	0fH
	DW	010H
	DW	01bH
	DW	01bH
	DW	01bH
	DW	01bH
	DW	01bH
	DW	01bH
	DW	01bH
	DW	01bH
	DW	01bH
	DW	01bH
	DW	05H
	DW	019H
	DW	05H
	DW	019H
	DW	05H
	DW	019H
	DW	05H
	DW	05H
	DW	05H
	DW	05H
	DW	012H
	DW	012H
	DW	037H
	DW	037H
	DW	037H
	DW	037H
	DW	037H
	DW	037H
	DW	037H
	DW	037H
	DW	00H
	DW	037H
	DW	037H
	DW	037H
	DW	037H
	DW	037H
	DW	037H
	DW	037H
	DW	037H
	DW	037H
	DW	037H
	DW	037H
	DW	037H
	DW	037H
	DW	037H
	DW	037H
	DW	037H
	DW	037H
	DW	037H
	DW	037H
	DW	037H
	DW	037H
	DW	037H
	DW	037H
	DW	037H
	DW	037H
	DW	037H
	DW	037H
	DW	037H
	DW	037H
	DW	037H
	DW	037H
	DW	037H
	DW	037H
	DW	037H
	DW	037H
	DW	037H
	DW	00H
	DW	00H
	DW	00H
	DW	00H
	DW	019H
	DW	019H
	DW	019H
	DW	019H
	DW	019H
	DW	019H
	DW	019H
	DW	019H
	DW	019H
	DW	019H
	DW	019H
	DW	019H
	DW	019H
	DW	019H
	DW	012H
	DW	019H
	DW	019H
	DW	019H
	DW	019H
	DW	019H
	DW	05H
	DW	019H
	DW	019H
	DW	037H
	DW	037H
	DW	037H
	DW	037H
	DW	037H
	DW	019H
	DW	019H
	DW	019H
	DW	019H
	DW	019H
	DW	019H
	DW	019H
	DW	019H
	DW	019H
	DW	019H
	DW	019H
	DW	00H
	DW	019H
	DW	019H
	DW	019H
	DW	019H
	DW	019H
	DW	019H
	DW	019H
	DW	019H
	DW	019H
	DW	019H
	DW	019H
	DW	019H
	DW	019H
	DW	019H
	DW	019H
	DW	019H
	DW	019H
	DW	019H
	DW	019H
	DW	019H
	DW	019H
	DW	019H
	DW	019H
	DW	019H
	DW	019H
	DW	019H
	DW	019H
	DW	019H
	DW	019H
	DW	019H
	DW	019H
	DW	019H
	DW	019H
	DW	019H
	DW	019H
	DW	019H
	DW	00H
	DW	05H
	DW	05H
	DW	05H
	DW	05H
	DW	05H
	DW	05H
	DW	05H
	DW	05H
	DW	019H
	DW	05H
	DW	05H
	DW	05H
	DW	05H
	DW	05H
	DW	05H
	DW	00H
	DW	05H
	DW	05H
	DW	05H
	DW	05H
	DW	05H
	DW	05H
	DW	05H
	DW	05H
	DW	05H
	DW	05H
	DW	05H
	DW	05H
	DW	05H
	DW	00H
	DW	00H
	DW	00H
	DW	00H
	DW	00H
	DW	00H
	DW	00H
	DW	00H
	DW	00H
	DW	00H
	DW	00H
	DW	00H
	DW	00H
	DW	00H
	DW	00H
	DW	00H
	DW	00H
	DW	00H
	DW	00H
	DW	00H
	DW	00H
	DW	00H
	DW	00H
	DW	00H
	DW	00H
	DW	00H
	DW	00H
	DW	00H
	DW	00H
	DW	00H
	DW	00H
	DW	00H
	DW	00H
	DW	00H
	DW	00H
	DW	00H
	DW	00H
	DW	037H
	DW	037H
	DW	037H
	DW	037H
	DW	037H
	DW	037H
	DW	037H
	DW	037H
	DW	037H
	DW	037H
	DW	037H
	DW	037H
	DW	037H
	DW	037H
	DW	037H
	DW	037H
	DW	037H
	DW	037H
	DW	037H
	DW	037H
	DW	037H
	DW	037H
	DW	037H
	DW	037H
	DW	037H
	DW	037H
	DW	037H
	DW	037H
	DW	037H
	DW	037H
	DW	037H
	DW	037H
	DW	037H
	DW	037H
	DW	037H
	DW	037H
	DW	037H
	DW	037H
	DW	037H
	DW	037H
	DW	037H
	DW	037H
	DW	037H
	DW	012H
	DW	012H
	DW	019H
	DW	019H
	DW	019H
	DW	019H
	DW	012H
	DW	019H
	DW	019H
	DW	019H
	DW	019H
	DW	019H
	DW	019H
	DW	012H
	DW	019H
	DW	019H
	DW	012H
	DW	012H
	DW	019H
	DW	019H
	DW	037H
	DW	07H
	DW	08H
	DW	09H
	DW	0aH
	DW	0bH
	DW	0cH
	DW	0dH
	DW	0eH
	DW	0fH
	DW	010H
	DW	05H
	DW	05H
	DW	05H
	DW	05H
	DW	05H
	DW	05H
	DW	037H
	DW	037H
	DW	037H
	DW	037H
	DW	037H
	DW	037H
	DW	012H
	DW	012H
	DW	019H
	DW	019H
	DW	037H
	DW	037H
	DW	037H
	DW	037H
	DW	019H
	DW	019H
	DW	019H
	DW	037H
	DW	012H
	DW	012H
	DW	012H
	DW	037H
	DW	037H
	DW	012H
	DW	012H
	DW	012H
	DW	012H
	DW	012H
	DW	012H
	DW	012H
	DW	037H
	DW	037H
	DW	037H
	DW	019H
	DW	019H
	DW	019H
	DW	019H
	DW	037H
	DW	037H
	DW	037H
	DW	037H
	DW	037H
	DW	037H
	DW	037H
	DW	037H
	DW	037H
	DW	037H
	DW	037H
	DW	037H
	DW	037H
	DW	019H
	DW	012H
	DW	012H
	DW	019H
	DW	019H
	DW	012H
	DW	012H
	DW	012H
	DW	012H
	DW	012H
	DW	012H
	DW	019H
	DW	037H
	DW	012H
	DW	07H
	DW	08H
	DW	09H
	DW	0aH
	DW	0bH
	DW	0cH
	DW	0dH
	DW	0eH
	DW	0fH
	DW	010H
	DW	012H
	DW	012H
	DW	012H
	DW	019H
	DW	05H
	DW	05H
	DW	083H
	DW	083H
	DW	083H
	DW	083H
	DW	083H
	DW	083H
	DW	083H
	DW	083H
	DW	083H
	DW	083H
	DW	083H
	DW	083H
	DW	083H
	DW	083H
	DW	083H
	DW	083H
	DW	083H
	DW	083H
	DW	083H
	DW	083H
	DW	083H
	DW	083H
	DW	083H
	DW	083H
	DW	083H
	DW	083H
	DW	083H
	DW	083H
	DW	083H
	DW	083H
	DW	083H
	DW	083H
	DW	083H
	DW	083H
	DW	083H
	DW	083H
	DW	083H
	DW	083H
	DW	00H
	DW	083H
	DW	00H
	DW	00H
	DW	00H
	DW	00H
	DW	00H
	DW	083H
	DW	00H
	DW	00H
	DW	037H
	DW	037H
	DW	037H
	DW	037H
	DW	037H
	DW	037H
	DW	037H
	DW	037H
	DW	037H
	DW	037H
	DW	037H
	DW	037H
	DW	037H
	DW	037H
	DW	037H
	DW	037H
	DW	037H
	DW	037H
	DW	037H
	DW	037H
	DW	037H
	DW	037H
	DW	037H
	DW	037H
	DW	037H
	DW	037H
	DW	037H
	DW	037H
	DW	037H
	DW	037H
	DW	037H
	DW	037H
	DW	037H
	DW	037H
	DW	037H
	DW	037H
	DW	037H
	DW	037H
	DW	037H
	DW	037H
	DW	037H
	DW	037H
	DW	037H
	DW	05H
	DW	060H
	DW	037H
	DW	037H
	DW	037H
	DW	037H
	DW	037H
	DW	037H
	DW	037H
	DW	037H
	DW	037H
	DW	037H
	DW	037H
	DW	037H
	DW	037H
	DW	037H
	DW	037H
	DW	037H
	DW	037H
	DW	037H
	DW	037H
	DW	037H
	DW	037H
	DW	037H
	DW	037H
	DW	037H
	DW	037H
	DW	037H
	DW	037H
	DW	037H
	DW	037H
	DW	037H
	DW	037H
	DW	037H
	DW	037H
	DW	037H
	DW	037H
	DW	037H
	DW	037H
	DW	037H
	DW	037H
	DW	037H
	DW	037H
	DW	037H
	DW	037H
	DW	037H
	DW	037H
	DW	037H
	DW	037H
	DW	037H
	DW	037H
	DW	037H
	DW	037H
	DW	037H
	DW	037H
	DW	037H
	DW	037H
	DW	037H
	DW	037H
	DW	037H
	DW	037H
	DW	037H
	DW	037H
	DW	037H
	DW	037H
	DW	037H
	DW	037H
	DW	037H
	DW	037H
	DW	037H
	DW	037H
	DW	037H
	DW	037H
	DW	037H
	DW	037H
	DW	037H
	DW	037H
	DW	037H
	DW	037H
	DW	037H
	DW	037H
	DW	037H
	DW	037H
	DW	037H
	DW	037H
	DW	037H
	DW	037H
	DW	037H
	DW	037H
	DW	037H
	DW	037H
	DW	037H
	DW	037H
	DW	037H
	DW	037H
	DW	037H
	DW	037H
	DW	037H
	DW	037H
	DW	037H
	DW	037H
	DW	037H
	DW	037H
	DW	037H
	DW	037H
	DW	037H
	DW	037H
	DW	037H
	DW	037H
	DW	037H
	DW	037H
	DW	037H
	DW	037H
	DW	037H
	DW	037H
	DW	037H
	DW	037H
	DW	037H
	DW	037H
	DW	037H
	DW	037H
	DW	037H
	DW	037H
	DW	037H
	DW	037H
	DW	037H
	DW	037H
	DW	037H
	DW	037H
	DW	037H
	DW	037H
	DW	037H
	DW	037H
	DW	037H
	DW	037H
	DW	037H
	DW	037H
	DW	037H
	DW	037H
	DW	037H
	DW	037H
	DW	037H
	DW	037H
	DW	037H
	DW	037H
	DW	037H
	DW	037H
	DW	037H
	DW	037H
	DW	037H
	DW	037H
	DW	037H
	DW	037H
	DW	037H
	DW	037H
	DW	037H
	DW	037H
	DW	037H
	DW	037H
	DW	037H
	DW	037H
	DW	037H
	DW	037H
	DW	037H
	DW	037H
	DW	037H
	DW	037H
	DW	037H
	DW	037H
	DW	037H
	DW	037H
	DW	037H
	DW	037H
	DW	037H
	DW	037H
	DW	037H
	DW	037H
	DW	037H
	DW	037H
	DW	037H
	DW	037H
	DW	037H
	DW	037H
	DW	037H
	DW	037H
	DW	037H
	DW	037H
	DW	037H
	DW	037H
	DW	037H
	DW	037H
	DW	037H
	DW	037H
	DW	037H
	DW	037H
	DW	037H
	DW	037H
	DW	037H
	DW	037H
	DW	037H
	DW	037H
	DW	037H
	DW	037H
	DW	037H
	DW	037H
	DW	037H
	DW	00H
	DW	037H
	DW	037H
	DW	037H
	DW	037H
	DW	00H
	DW	00H
	DW	037H
	DW	037H
	DW	037H
	DW	037H
	DW	037H
	DW	037H
	DW	037H
	DW	00H
	DW	037H
	DW	00H
	DW	037H
	DW	037H
	DW	037H
	DW	037H
	DW	00H
	DW	00H
	DW	037H
	DW	037H
	DW	037H
	DW	037H
	DW	037H
	DW	037H
	DW	037H
	DW	037H
	DW	037H
	DW	037H
	DW	037H
	DW	037H
	DW	037H
	DW	037H
	DW	037H
	DW	037H
	DW	037H
	DW	037H
	DW	037H
	DW	037H
	DW	037H
	DW	037H
	DW	037H
	DW	037H
	DW	037H
	DW	037H
	DW	037H
	DW	037H
	DW	037H
	DW	037H
	DW	037H
	DW	037H
	DW	037H
	DW	037H
	DW	037H
	DW	037H
	DW	037H
	DW	037H
	DW	037H
	DW	037H
	DW	037H
	DW	00H
	DW	037H
	DW	037H
	DW	037H
	DW	037H
	DW	00H
	DW	00H
	DW	037H
	DW	037H
	DW	037H
	DW	037H
	DW	037H
	DW	037H
	DW	037H
	DW	037H
	DW	037H
	DW	037H
	DW	037H
	DW	037H
	DW	037H
	DW	037H
	DW	037H
	DW	037H
	DW	037H
	DW	037H
	DW	037H
	DW	037H
	DW	037H
	DW	037H
	DW	037H
	DW	037H
	DW	037H
	DW	037H
	DW	037H
	DW	037H
	DW	037H
	DW	037H
	DW	037H
	DW	037H
	DW	037H
	DW	00H
	DW	037H
	DW	037H
	DW	037H
	DW	037H
	DW	00H
	DW	00H
	DW	037H
	DW	037H
	DW	037H
	DW	037H
	DW	037H
	DW	037H
	DW	037H
	DW	00H
	DW	037H
	DW	00H
	DW	037H
	DW	037H
	DW	037H
	DW	037H
	DW	00H
	DW	00H
	DW	037H
	DW	037H
	DW	037H
	DW	037H
	DW	037H
	DW	037H
	DW	037H
	DW	037H
	DW	037H
	DW	037H
	DW	037H
	DW	037H
	DW	037H
	DW	037H
	DW	037H
	DW	00H
	DW	037H
	DW	037H
	DW	037H
	DW	037H
	DW	037H
	DW	037H
	DW	037H
	DW	037H
	DW	037H
	DW	037H
	DW	037H
	DW	037H
	DW	037H
	DW	037H
	DW	037H
	DW	037H
	DW	037H
	DW	037H
	DW	037H
	DW	037H
	DW	037H
	DW	037H
	DW	037H
	DW	037H
	DW	037H
	DW	037H
	DW	037H
	DW	037H
	DW	037H
	DW	037H
	DW	037H
	DW	037H
	DW	037H
	DW	037H
	DW	037H
	DW	037H
	DW	037H
	DW	037H
	DW	037H
	DW	037H
	DW	037H
	DW	037H
	DW	037H
	DW	037H
	DW	037H
	DW	037H
	DW	037H
	DW	037H
	DW	037H
	DW	037H
	DW	037H
	DW	037H
	DW	037H
	DW	037H
	DW	037H
	DW	037H
	DW	037H
	DW	00H
	DW	037H
	DW	037H
	DW	037H
	DW	037H
	DW	00H
	DW	00H
	DW	037H
	DW	037H
	DW	037H
	DW	037H
	DW	037H
	DW	037H
	DW	037H
	DW	037H
	DW	037H
	DW	037H
	DW	037H
	DW	037H
	DW	037H
	DW	037H
	DW	037H
	DW	037H
	DW	037H
	DW	037H
	DW	037H
	DW	037H
	DW	037H
	DW	037H
	DW	037H
	DW	037H
	DW	037H
	DW	037H
	DW	037H
	DW	037H
	DW	037H
	DW	037H
	DW	037H
	DW	037H
	DW	037H
	DW	037H
	DW	037H
	DW	037H
	DW	037H
	DW	037H
	DW	037H
	DW	037H
	DW	037H
	DW	037H
	DW	037H
	DW	037H
	DW	037H
	DW	037H
	DW	037H
	DW	037H
	DW	037H
	DW	037H
	DW	037H
	DW	037H
	DW	037H
	DW	037H
	DW	037H
	DW	037H
	DW	037H
	DW	037H
	DW	037H
	DW	037H
	DW	037H
	DW	037H
	DW	037H
	DW	037H
	DW	037H
	DW	037H
	DW	037H
	DW	00H
	DW	00H
	DW	019H
	DW	019H
	DW	019H
	DW	05H
	DW	05H
	DW	05H
	DW	05H
	DW	05H
	DW	05H
	DW	05H
	DW	05H
	DW	05H
	DW	084H
	DW	085H
	DW	086H
	DW	087H
	DW	088H
	DW	089H
	DW	08aH
	DW	08bH
	DW	08cH
	DW	01bH
	DW	01bH
	DW	01bH
	DW	01bH
	DW	01bH
	DW	01bH
	DW	01bH
	DW	01bH
	DW	01bH
	DW	01bH
	DW	01bH
	DW	00H
	DW	00H
	DW	00H
	DW	037H
	DW	037H
	DW	037H
	DW	037H
	DW	037H
	DW	037H
	DW	037H
	DW	037H
	DW	037H
	DW	037H
	DW	037H
	DW	037H
	DW	037H
	DW	037H
	DW	037H
	DW	037H
	DW	05H
	DW	05H
	DW	05H
	DW	05H
	DW	05H
	DW	05H
	DW	05H
	DW	05H
	DW	05H
	DW	05H
	DW	00H
	DW	00H
	DW	00H
	DW	00H
	DW	00H
	DW	00H
	DW	037H
	DW	037H
	DW	037H
	DW	037H
	DW	037H
	DW	037H
	DW	037H
	DW	037H
	DW	037H
	DW	037H
	DW	037H
	DW	037H
	DW	037H
	DW	037H
	DW	037H
	DW	037H
	DW	037H
	DW	037H
	DW	037H
	DW	037H
	DW	037H
	DW	037H
	DW	037H
	DW	037H
	DW	037H
	DW	037H
	DW	037H
	DW	037H
	DW	037H
	DW	037H
	DW	037H
	DW	037H
	DW	037H
	DW	037H
	DW	037H
	DW	037H
	DW	037H
	DW	037H
	DW	037H
	DW	037H
	DW	037H
	DW	037H
	DW	037H
	DW	037H
	DW	037H
	DW	037H
	DW	037H
	DW	037H
	DW	037H
	DW	037H
	DW	037H
	DW	037H
	DW	037H
	DW	037H
	DW	037H
	DW	037H
	DW	037H
	DW	037H
	DW	037H
	DW	037H
	DW	037H
	DW	037H
	DW	037H
	DW	037H
	DW	037H
	DW	037H
	DW	037H
	DW	037H
	DW	037H
	DW	037H
	DW	037H
	DW	037H
	DW	037H
	DW	037H
	DW	037H
	DW	037H
	DW	037H
	DW	037H
	DW	037H
	DW	037H
	DW	037H
	DW	037H
	DW	037H
	DW	037H
	DW	037H
	DW	00H
	DW	00H
	DW	00H
	DW	00H
	DW	00H
	DW	00H
	DW	00H
	DW	00H
	DW	00H
	DW	00H
	DW	00H
	DW	05H
	DW	037H
	DW	037H
	DW	037H
	DW	037H
	DW	037H
	DW	037H
	DW	037H
	DW	037H
	DW	037H
	DW	037H
	DW	037H
	DW	037H
	DW	037H
	DW	037H
	DW	037H
	DW	037H
	DW	037H
	DW	037H
	DW	037H
	DW	037H
	DW	037H
	DW	037H
	DW	037H
	DW	037H
	DW	037H
	DW	037H
	DW	037H
	DW	037H
	DW	037H
	DW	037H
	DW	037H
	DW	037H
	DW	037H
	DW	037H
	DW	037H
	DW	037H
	DW	037H
	DW	037H
	DW	037H
	DW	037H
	DW	037H
	DW	037H
	DW	037H
	DW	037H
	DW	037H
	DW	037H
	DW	037H
	DW	037H
	DW	037H
	DW	037H
	DW	037H
	DW	037H
	DW	037H
	DW	037H
	DW	037H
	DW	037H
	DW	037H
	DW	037H
	DW	037H
	DW	037H
	DW	037H
	DW	037H
	DW	037H
	DW	037H
	DW	037H
	DW	037H
	DW	037H
	DW	037H
	DW	037H
	DW	037H
	DW	037H
	DW	037H
	DW	037H
	DW	037H
	DW	037H
	DW	037H
	DW	037H
	DW	037H
	DW	037H
	DW	037H
	DW	037H
	DW	037H
	DW	037H
	DW	037H
	DW	037H
	DW	037H
	DW	037H
	DW	037H
	DW	037H
	DW	037H
	DW	037H
	DW	037H
	DW	037H
	DW	037H
	DW	037H
	DW	037H
	DW	037H
	DW	037H
	DW	037H
	DW	037H
	DW	037H
	DW	037H
	DW	037H
	DW	037H
	DW	037H
	DW	037H
	DW	037H
	DW	037H
	DW	037H
	DW	037H
	DW	037H
	DW	037H
	DW	037H
	DW	037H
	DW	037H
	DW	037H
	DW	037H
	DW	037H
	DW	037H
	DW	037H
	DW	037H
	DW	037H
	DW	037H
	DW	037H
	DW	037H
	DW	037H
	DW	037H
	DW	037H
	DW	037H
	DW	037H
	DW	037H
	DW	037H
	DW	037H
	DW	037H
	DW	037H
	DW	037H
	DW	037H
	DW	037H
	DW	037H
	DW	037H
	DW	037H
	DW	037H
	DW	037H
	DW	037H
	DW	037H
	DW	037H
	DW	037H
	DW	037H
	DW	037H
	DW	037H
	DW	037H
	DW	037H
	DW	037H
	DW	037H
	DW	037H
	DW	037H
	DW	037H
	DW	037H
	DW	037H
	DW	037H
	DW	037H
	DW	037H
	DW	037H
	DW	037H
	DW	037H
	DW	037H
	DW	037H
	DW	037H
	DW	037H
	DW	037H
	DW	037H
	DW	037H
	DW	037H
	DW	037H
	DW	037H
	DW	037H
	DW	037H
	DW	037H
	DW	037H
	DW	037H
	DW	037H
	DW	037H
	DW	037H
	DW	037H
	DW	037H
	DW	037H
	DW	037H
	DW	037H
	DW	037H
	DW	037H
	DW	037H
	DW	037H
	DW	037H
	DW	037H
	DW	037H
	DW	037H
	DW	037H
	DW	037H
	DW	037H
	DW	037H
	DW	037H
	DW	037H
	DW	037H
	DW	037H
	DW	037H
	DW	037H
	DW	037H
	DW	037H
	DW	037H
	DW	037H
	DW	037H
	DW	037H
	DW	037H
	DW	037H
	DW	037H
	DW	037H
	DW	037H
	DW	037H
	DW	037H
	DW	037H
	DW	037H
	DW	037H
	DW	037H
	DW	037H
	DW	037H
	DW	037H
	DW	037H
	DW	037H
	DW	037H
	DW	037H
	DW	037H
	DW	037H
	DW	037H
	DW	037H
	DW	037H
	DW	037H
	DW	05H
	DW	05H
	DW	037H
	DW	037H
	DW	037H
	DW	037H
	DW	037H
	DW	037H
	DW	037H
	DW	037H
	DW	037H
	DW	037H
	DW	037H
	DW	037H
	DW	037H
	DW	037H
	DW	037H
	DW	037H
	DW	037H
	DW	02H
	DW	037H
	DW	037H
	DW	037H
	DW	037H
	DW	037H
	DW	037H
	DW	037H
	DW	037H
	DW	037H
	DW	037H
	DW	037H
	DW	037H
	DW	037H
	DW	037H
	DW	037H
	DW	037H
	DW	037H
	DW	037H
	DW	037H
	DW	037H
	DW	037H
	DW	037H
	DW	037H
	DW	037H
	DW	037H
	DW	037H
	DW	05H
	DW	05H
	DW	00H
	DW	00H
	DW	00H
	DW	037H
	DW	037H
	DW	037H
	DW	037H
	DW	037H
	DW	037H
	DW	037H
	DW	037H
	DW	037H
	DW	037H
	DW	037H
	DW	037H
	DW	037H
	DW	037H
	DW	037H
	DW	037H
	DW	037H
	DW	037H
	DW	037H
	DW	037H
	DW	037H
	DW	037H
	DW	037H
	DW	037H
	DW	037H
	DW	037H
	DW	037H
	DW	037H
	DW	037H
	DW	037H
	DW	037H
	DW	037H
	DW	037H
	DW	037H
	DW	037H
	DW	037H
	DW	037H
	DW	037H
	DW	037H
	DW	037H
	DW	037H
	DW	037H
	DW	037H
	DW	037H
	DW	037H
	DW	037H
	DW	037H
	DW	037H
	DW	037H
	DW	037H
	DW	037H
	DW	037H
	DW	037H
	DW	037H
	DW	037H
	DW	037H
	DW	037H
	DW	037H
	DW	037H
	DW	037H
	DW	037H
	DW	037H
	DW	037H
	DW	037H
	DW	037H
	DW	037H
	DW	037H
	DW	037H
	DW	037H
	DW	037H
	DW	037H
	DW	037H
	DW	037H
	DW	037H
	DW	037H
	DW	05H
	DW	05H
	DW	05H
	DW	08dH
	DW	08dH
	DW	08dH
	DW	00H
	DW	00H
	DW	00H
	DW	00H
	DW	00H
	DW	00H
	DW	00H
	DW	00H
	DW	00H
	DW	00H
	DW	00H
	DW	00H
	DW	00H
	DW	00H
	DW	00H
	DW	037H
	DW	037H
	DW	037H
	DW	037H
	DW	037H
	DW	037H
	DW	037H
	DW	037H
	DW	037H
	DW	037H
	DW	037H
	DW	037H
	DW	037H
	DW	00H
	DW	037H
	DW	037H
	DW	037H
	DW	037H
	DW	019H
	DW	019H
	DW	019H
	DW	00H
	DW	00H
	DW	00H
	DW	00H
	DW	00H
	DW	00H
	DW	00H
	DW	00H
	DW	00H
	DW	00H
	DW	00H
	DW	037H
	DW	037H
	DW	037H
	DW	037H
	DW	037H
	DW	037H
	DW	037H
	DW	037H
	DW	037H
	DW	037H
	DW	037H
	DW	037H
	DW	037H
	DW	037H
	DW	037H
	DW	037H
	DW	037H
	DW	037H
	DW	019H
	DW	019H
	DW	019H
	DW	05H
	DW	05H
	DW	00H
	DW	00H
	DW	00H
	DW	00H
	DW	00H
	DW	00H
	DW	00H
	DW	00H
	DW	00H
	DW	037H
	DW	037H
	DW	037H
	DW	037H
	DW	037H
	DW	037H
	DW	037H
	DW	037H
	DW	037H
	DW	037H
	DW	037H
	DW	037H
	DW	037H
	DW	037H
	DW	037H
	DW	037H
	DW	037H
	DW	037H
	DW	019H
	DW	019H
	DW	00H
	DW	00H
	DW	00H
	DW	00H
	DW	00H
	DW	00H
	DW	00H
	DW	00H
	DW	00H
	DW	00H
	DW	00H
	DW	00H
	DW	037H
	DW	037H
	DW	037H
	DW	037H
	DW	037H
	DW	037H
	DW	037H
	DW	037H
	DW	037H
	DW	037H
	DW	037H
	DW	037H
	DW	037H
	DW	00H
	DW	037H
	DW	037H
	DW	037H
	DW	00H
	DW	019H
	DW	019H
	DW	00H
	DW	00H
	DW	00H
	DW	00H
	DW	00H
	DW	00H
	DW	00H
	DW	00H
	DW	00H
	DW	00H
	DW	00H
	DW	00H
	DW	037H
	DW	037H
	DW	037H
	DW	037H
	DW	037H
	DW	037H
	DW	037H
	DW	037H
	DW	037H
	DW	037H
	DW	037H
	DW	037H
	DW	037H
	DW	037H
	DW	037H
	DW	037H
	DW	037H
	DW	037H
	DW	037H
	DW	037H
	DW	037H
	DW	037H
	DW	037H
	DW	037H
	DW	037H
	DW	037H
	DW	037H
	DW	037H
	DW	037H
	DW	037H
	DW	037H
	DW	037H
	DW	037H
	DW	037H
	DW	037H
	DW	037H
	DW	037H
	DW	037H
	DW	037H
	DW	037H
	DW	037H
	DW	037H
	DW	037H
	DW	037H
	DW	037H
	DW	037H
	DW	037H
	DW	037H
	DW	037H
	DW	037H
	DW	037H
	DW	037H
	DW	019H
	DW	019H
	DW	012H
	DW	019H
	DW	019H
	DW	019H
	DW	019H
	DW	019H
	DW	019H
	DW	019H
	DW	012H
	DW	012H
	DW	012H
	DW	012H
	DW	012H
	DW	012H
	DW	012H
	DW	012H
	DW	019H
	DW	012H
	DW	012H
	DW	019H
	DW	019H
	DW	019H
	DW	019H
	DW	019H
	DW	019H
	DW	019H
	DW	019H
	DW	019H
	DW	019H
	DW	019H
	DW	05H
	DW	05H
	DW	05H
	DW	060H
	DW	05H
	DW	05H
	DW	05H
	DW	05H
	DW	037H
	DW	019H
	DW	00H
	DW	00H
	DW	07H
	DW	08H
	DW	09H
	DW	0aH
	DW	0bH
	DW	0cH
	DW	0dH
	DW	0eH
	DW	0fH
	DW	010H
	DW	00H
	DW	00H
	DW	00H
	DW	00H
	DW	00H
	DW	00H
	DW	01bH
	DW	01bH
	DW	01bH
	DW	01bH
	DW	01bH
	DW	01bH
	DW	01bH
	DW	01bH
	DW	01bH
	DW	01bH
	DW	00H
	DW	00H
	DW	00H
	DW	00H
	DW	00H
	DW	00H
	DW	05H
	DW	05H
	DW	05H
	DW	05H
	DW	05H
	DW	05H
	DW	05H
	DW	05H
	DW	05H
	DW	05H
	DW	05H
	DW	019H
	DW	019H
	DW	019H
	DW	02H
	DW	00H
	DW	07H
	DW	08H
	DW	09H
	DW	0aH
	DW	0bH
	DW	0cH
	DW	0dH
	DW	0eH
	DW	0fH
	DW	010H
	DW	00H
	DW	00H
	DW	00H
	DW	00H
	DW	00H
	DW	00H
	DW	037H
	DW	037H
	DW	037H
	DW	037H
	DW	037H
	DW	037H
	DW	037H
	DW	037H
	DW	037H
	DW	037H
	DW	037H
	DW	037H
	DW	037H
	DW	037H
	DW	037H
	DW	037H
	DW	037H
	DW	037H
	DW	037H
	DW	037H
	DW	037H
	DW	037H
	DW	037H
	DW	037H
	DW	037H
	DW	037H
	DW	037H
	DW	037H
	DW	037H
	DW	037H
	DW	037H
	DW	037H
	DW	037H
	DW	037H
	DW	037H
	DW	060H
	DW	037H
	DW	037H
	DW	037H
	DW	037H
	DW	037H
	DW	037H
	DW	037H
	DW	037H
	DW	037H
	DW	037H
	DW	037H
	DW	037H
	DW	037H
	DW	037H
	DW	037H
	DW	037H
	DW	037H
	DW	037H
	DW	037H
	DW	037H
	DW	037H
	DW	037H
	DW	037H
	DW	037H
	DW	037H
	DW	037H
	DW	037H
	DW	037H
	DW	037H
	DW	037H
	DW	037H
	DW	037H
	DW	037H
	DW	037H
	DW	037H
	DW	037H
	DW	037H
	DW	037H
	DW	037H
	DW	037H
	DW	037H
	DW	037H
	DW	037H
	DW	037H
	DW	037H
	DW	037H
	DW	037H
	DW	037H
	DW	037H
	DW	037H
	DW	037H
	DW	037H
	DW	00H
	DW	00H
	DW	00H
	DW	00H
	DW	00H
	DW	00H
	DW	00H
	DW	00H
	DW	037H
	DW	037H
	DW	037H
	DW	037H
	DW	037H
	DW	037H
	DW	037H
	DW	037H
	DW	037H
	DW	037H
	DW	037H
	DW	037H
	DW	037H
	DW	037H
	DW	037H
	DW	037H
	DW	037H
	DW	037H
	DW	037H
	DW	037H
	DW	037H
	DW	037H
	DW	037H
	DW	037H
	DW	037H
	DW	037H
	DW	037H
	DW	037H
	DW	037H
	DW	037H
	DW	037H
	DW	037H
	DW	037H
	DW	037H
	DW	037H
	DW	037H
	DW	037H
	DW	037H
	DW	037H
	DW	037H
	DW	037H
	DW	019H
	DW	037H
	DW	00H
	DW	00H
	DW	00H
	DW	00H
	DW	00H
	DW	037H
	DW	037H
	DW	037H
	DW	037H
	DW	037H
	DW	037H
	DW	037H
	DW	037H
	DW	037H
	DW	037H
	DW	037H
	DW	037H
	DW	037H
	DW	037H
	DW	037H
	DW	037H
	DW	037H
	DW	037H
	DW	037H
	DW	037H
	DW	037H
	DW	037H
	DW	037H
	DW	037H
	DW	037H
	DW	037H
	DW	037H
	DW	037H
	DW	037H
	DW	037H
	DW	037H
	DW	037H
	DW	037H
	DW	037H
	DW	037H
	DW	037H
	DW	037H
	DW	037H
	DW	037H
	DW	037H
	DW	037H
	DW	037H
	DW	037H
	DW	037H
	DW	037H
	DW	037H
	DW	037H
	DW	037H
	DW	037H
	DW	037H
	DW	037H
	DW	037H
	DW	037H
	DW	037H
	DW	037H
	DW	037H
	DW	037H
	DW	037H
	DW	037H
	DW	037H
	DW	037H
	DW	037H
	DW	037H
	DW	037H
	DW	037H
	DW	037H
	DW	037H
	DW	037H
	DW	037H
	DW	037H
	DW	00H
	DW	00H
	DW	00H
	DW	00H
	DW	00H
	DW	00H
	DW	00H
	DW	00H
	DW	00H
	DW	00H
	DW	037H
	DW	037H
	DW	037H
	DW	037H
	DW	037H
	DW	037H
	DW	037H
	DW	037H
	DW	037H
	DW	037H
	DW	037H
	DW	037H
	DW	037H
	DW	037H
	DW	037H
	DW	037H
	DW	037H
	DW	037H
	DW	037H
	DW	037H
	DW	037H
	DW	037H
	DW	037H
	DW	037H
	DW	037H
	DW	037H
	DW	037H
	DW	037H
	DW	037H
	DW	00H
	DW	00H
	DW	00H
	DW	019H
	DW	019H
	DW	019H
	DW	012H
	DW	012H
	DW	012H
	DW	012H
	DW	019H
	DW	019H
	DW	012H
	DW	012H
	DW	012H
	DW	00H
	DW	00H
	DW	00H
	DW	00H
	DW	012H
	DW	012H
	DW	019H
	DW	012H
	DW	012H
	DW	012H
	DW	012H
	DW	012H
	DW	012H
	DW	019H
	DW	019H
	DW	019H
	DW	00H
	DW	00H
	DW	00H
	DW	00H
	DW	05H
	DW	00H
	DW	00H
	DW	00H
	DW	05H
	DW	05H
	DW	07H
	DW	08H
	DW	09H
	DW	0aH
	DW	0bH
	DW	0cH
	DW	0dH
	DW	0eH
	DW	0fH
	DW	010H
	DW	037H
	DW	037H
	DW	037H
	DW	037H
	DW	037H
	DW	037H
	DW	037H
	DW	037H
	DW	037H
	DW	037H
	DW	037H
	DW	037H
	DW	037H
	DW	037H
	DW	037H
	DW	037H
	DW	037H
	DW	037H
	DW	037H
	DW	037H
	DW	037H
	DW	037H
	DW	037H
	DW	037H
	DW	037H
	DW	037H
	DW	037H
	DW	037H
	DW	037H
	DW	037H
	DW	00H
	DW	00H
	DW	037H
	DW	037H
	DW	037H
	DW	037H
	DW	037H
	DW	00H
	DW	00H
	DW	00H
	DW	00H
	DW	00H
	DW	00H
	DW	00H
	DW	00H
	DW	00H
	DW	00H
	DW	00H
	DW	037H
	DW	037H
	DW	037H
	DW	037H
	DW	037H
	DW	037H
	DW	037H
	DW	037H
	DW	037H
	DW	037H
	DW	037H
	DW	037H
	DW	037H
	DW	037H
	DW	037H
	DW	037H
	DW	037H
	DW	037H
	DW	037H
	DW	037H
	DW	037H
	DW	037H
	DW	037H
	DW	037H
	DW	037H
	DW	037H
	DW	037H
	DW	037H
	DW	037H
	DW	037H
	DW	037H
	DW	037H
	DW	037H
	DW	037H
	DW	037H
	DW	037H
	DW	037H
	DW	037H
	DW	037H
	DW	037H
	DW	037H
	DW	037H
	DW	037H
	DW	037H
	DW	00H
	DW	00H
	DW	00H
	DW	00H
	DW	012H
	DW	012H
	DW	012H
	DW	012H
	DW	012H
	DW	012H
	DW	012H
	DW	012H
	DW	012H
	DW	012H
	DW	012H
	DW	012H
	DW	012H
	DW	012H
	DW	012H
	DW	012H
	DW	012H
	DW	037H
	DW	037H
	DW	037H
	DW	037H
	DW	037H
	DW	037H
	DW	037H
	DW	012H
	DW	012H
	DW	00H
	DW	00H
	DW	00H
	DW	00H
	DW	00H
	DW	00H
	DW	07H
	DW	08H
	DW	09H
	DW	0aH
	DW	0bH
	DW	0cH
	DW	0dH
	DW	0eH
	DW	0fH
	DW	010H
	DW	084H
	DW	00H
	DW	00H
	DW	00H
	DW	05H
	DW	05H
	DW	05H
	DW	05H
	DW	05H
	DW	05H
	DW	05H
	DW	05H
	DW	05H
	DW	05H
	DW	05H
	DW	05H
	DW	05H
	DW	05H
	DW	05H
	DW	05H
	DW	05H
	DW	05H
	DW	05H
	DW	05H
	DW	05H
	DW	05H
	DW	05H
	DW	05H
	DW	05H
	DW	05H
	DW	05H
	DW	05H
	DW	05H
	DW	05H
	DW	05H
	DW	05H
	DW	05H
	DW	05H
	DW	037H
	DW	037H
	DW	037H
	DW	037H
	DW	037H
	DW	037H
	DW	037H
	DW	037H
	DW	037H
	DW	037H
	DW	037H
	DW	037H
	DW	037H
	DW	037H
	DW	037H
	DW	037H
	DW	037H
	DW	037H
	DW	037H
	DW	037H
	DW	037H
	DW	037H
	DW	037H
	DW	019H
	DW	019H
	DW	012H
	DW	012H
	DW	012H
	DW	00H
	DW	00H
	DW	05H
	DW	05H
	DW	037H
	DW	037H
	DW	037H
	DW	037H
	DW	037H
	DW	037H
	DW	037H
	DW	037H
	DW	037H
	DW	037H
	DW	037H
	DW	037H
	DW	037H
	DW	037H
	DW	037H
	DW	037H
	DW	037H
	DW	037H
	DW	037H
	DW	037H
	DW	037H
	DW	037H
	DW	037H
	DW	037H
	DW	037H
	DW	037H
	DW	037H
	DW	037H
	DW	037H
	DW	037H
	DW	037H
	DW	037H
	DW	037H
	DW	037H
	DW	037H
	DW	037H
	DW	037H
	DW	037H
	DW	037H
	DW	037H
	DW	037H
	DW	037H
	DW	037H
	DW	037H
	DW	037H
	DW	037H
	DW	037H
	DW	037H
	DW	037H
	DW	037H
	DW	037H
	DW	037H
	DW	037H
	DW	012H
	DW	019H
	DW	012H
	DW	019H
	DW	019H
	DW	019H
	DW	019H
	DW	019H
	DW	019H
	DW	019H
	DW	00H
	DW	019H
	DW	012H
	DW	019H
	DW	012H
	DW	012H
	DW	019H
	DW	019H
	DW	019H
	DW	019H
	DW	019H
	DW	019H
	DW	019H
	DW	019H
	DW	012H
	DW	012H
	DW	012H
	DW	012H
	DW	012H
	DW	012H
	DW	019H
	DW	019H
	DW	019H
	DW	019H
	DW	019H
	DW	019H
	DW	019H
	DW	019H
	DW	019H
	DW	019H
	DW	00H
	DW	00H
	DW	019H
	DW	07H
	DW	08H
	DW	09H
	DW	0aH
	DW	0bH
	DW	0cH
	DW	0dH
	DW	0eH
	DW	0fH
	DW	010H
	DW	00H
	DW	00H
	DW	00H
	DW	00H
	DW	00H
	DW	00H
	DW	07H
	DW	08H
	DW	09H
	DW	0aH
	DW	0bH
	DW	0cH
	DW	0dH
	DW	0eH
	DW	0fH
	DW	010H
	DW	00H
	DW	00H
	DW	00H
	DW	00H
	DW	00H
	DW	00H
	DW	05H
	DW	05H
	DW	05H
	DW	05H
	DW	05H
	DW	05H
	DW	05H
	DW	060H
	DW	05H
	DW	05H
	DW	05H
	DW	05H
	DW	05H
	DW	05H
	DW	00H
	DW	00H
	DW	00H
	DW	00H
	DW	00H
	DW	00H
	DW	00H
	DW	00H
	DW	00H
	DW	00H
	DW	00H
	DW	00H
	DW	00H
	DW	00H
	DW	00H
	DW	00H
	DW	00H
	DW	00H
	DW	00H
	DW	00H
	DW	00H
	DW	00H
	DW	00H
	DW	00H
	DW	00H
	DW	00H
	DW	00H
	DW	00H
	DW	00H
	DW	00H
	DW	00H
	DW	00H
	DW	00H
	DW	00H
	DW	00H
	DW	00H
	DW	00H
	DW	00H
	DW	00H
	DW	00H
	DW	00H
	DW	00H
	DW	00H
	DW	00H
	DW	00H
	DW	00H
	DW	00H
	DW	00H
	DW	00H
	DW	00H
	DW	00H
	DW	00H
	DW	00H
	DW	00H
	DW	00H
	DW	00H
	DW	00H
	DW	00H
	DW	00H
	DW	00H
	DW	00H
	DW	00H
	DW	00H
	DW	00H
	DW	00H
	DW	00H
	DW	00H
	DW	00H
	DW	00H
	DW	00H
	DW	00H
	DW	00H
	DW	00H
	DW	00H
	DW	00H
	DW	00H
	DW	00H
	DW	00H
	DW	00H
	DW	00H
	DW	00H
	DW	00H
	DW	019H
	DW	019H
	DW	019H
	DW	019H
	DW	012H
	DW	037H
	DW	037H
	DW	037H
	DW	037H
	DW	037H
	DW	037H
	DW	037H
	DW	037H
	DW	037H
	DW	037H
	DW	037H
	DW	037H
	DW	037H
	DW	037H
	DW	037H
	DW	037H
	DW	037H
	DW	037H
	DW	037H
	DW	037H
	DW	037H
	DW	037H
	DW	037H
	DW	037H
	DW	037H
	DW	037H
	DW	037H
	DW	037H
	DW	037H
	DW	037H
	DW	037H
	DW	037H
	DW	037H
	DW	037H
	DW	037H
	DW	037H
	DW	037H
	DW	037H
	DW	037H
	DW	037H
	DW	037H
	DW	037H
	DW	037H
	DW	037H
	DW	037H
	DW	037H
	DW	037H
	DW	019H
	DW	012H
	DW	019H
	DW	019H
	DW	019H
	DW	019H
	DW	019H
	DW	012H
	DW	019H
	DW	012H
	DW	012H
	DW	012H
	DW	012H
	DW	012H
	DW	019H
	DW	012H
	DW	012H
	DW	037H
	DW	037H
	DW	037H
	DW	037H
	DW	037H
	DW	037H
	DW	037H
	DW	00H
	DW	00H
	DW	00H
	DW	00H
	DW	07H
	DW	08H
	DW	09H
	DW	0aH
	DW	0bH
	DW	0cH
	DW	0dH
	DW	0eH
	DW	0fH
	DW	010H
	DW	05H
	DW	05H
	DW	05H
	DW	05H
	DW	05H
	DW	05H
	DW	05H
	DW	05H
	DW	05H
	DW	05H
	DW	05H
	DW	05H
	DW	05H
	DW	05H
	DW	05H
	DW	05H
	DW	05H
	DW	019H
	DW	019H
	DW	019H
	DW	019H
	DW	019H
	DW	019H
	DW	019H
	DW	019H
	DW	019H
	DW	05H
	DW	05H
	DW	05H
	DW	05H
	DW	05H
	DW	05H
	DW	05H
	DW	05H
	DW	05H
	DW	00H
	DW	00H
	DW	00H
	DW	019H
	DW	019H
	DW	012H
	DW	037H
	DW	037H
	DW	037H
	DW	037H
	DW	037H
	DW	037H
	DW	037H
	DW	037H
	DW	037H
	DW	037H
	DW	037H
	DW	037H
	DW	037H
	DW	037H
	DW	037H
	DW	037H
	DW	037H
	DW	037H
	DW	037H
	DW	037H
	DW	037H
	DW	037H
	DW	037H
	DW	037H
	DW	037H
	DW	037H
	DW	037H
	DW	037H
	DW	037H
	DW	037H
	DW	012H
	DW	019H
	DW	019H
	DW	019H
	DW	019H
	DW	012H
	DW	012H
	DW	019H
	DW	019H
	DW	012H
	DW	019H
	DW	012H
	DW	012H
	DW	037H
	DW	037H
	DW	07H
	DW	08H
	DW	09H
	DW	0aH
	DW	0bH
	DW	0cH
	DW	0dH
	DW	0eH
	DW	0fH
	DW	010H
	DW	037H
	DW	037H
	DW	037H
	DW	037H
	DW	037H
	DW	037H
	DW	037H
	DW	037H
	DW	037H
	DW	037H
	DW	037H
	DW	037H
	DW	037H
	DW	037H
	DW	037H
	DW	037H
	DW	037H
	DW	037H
	DW	037H
	DW	037H
	DW	037H
	DW	037H
	DW	037H
	DW	037H
	DW	037H
	DW	037H
	DW	037H
	DW	037H
	DW	037H
	DW	037H
	DW	037H
	DW	037H
	DW	037H
	DW	037H
	DW	037H
	DW	037H
	DW	037H
	DW	037H
	DW	037H
	DW	037H
	DW	037H
	DW	037H
	DW	037H
	DW	037H
	DW	019H
	DW	012H
	DW	019H
	DW	019H
	DW	012H
	DW	012H
	DW	012H
	DW	019H
	DW	012H
	DW	019H
	DW	019H
	DW	019H
	DW	012H
	DW	012H
	DW	00H
	DW	00H
	DW	00H
	DW	00H
	DW	00H
	DW	00H
	DW	00H
	DW	00H
	DW	05H
	DW	05H
	DW	05H
	DW	05H
	DW	037H
	DW	037H
	DW	037H
	DW	037H
	DW	037H
	DW	037H
	DW	037H
	DW	037H
	DW	037H
	DW	037H
	DW	037H
	DW	037H
	DW	037H
	DW	037H
	DW	037H
	DW	037H
	DW	037H
	DW	037H
	DW	037H
	DW	037H
	DW	037H
	DW	037H
	DW	037H
	DW	037H
	DW	037H
	DW	037H
	DW	037H
	DW	037H
	DW	037H
	DW	037H
	DW	037H
	DW	037H
	DW	037H
	DW	037H
	DW	037H
	DW	037H
	DW	012H
	DW	012H
	DW	012H
	DW	012H
	DW	012H
	DW	012H
	DW	012H
	DW	012H
	DW	019H
	DW	019H
	DW	019H
	DW	019H
	DW	019H
	DW	019H
	DW	019H
	DW	019H
	DW	012H
	DW	012H
	DW	019H
	DW	019H
	DW	00H
	DW	00H
	DW	00H
	DW	05H
	DW	05H
	DW	05H
	DW	05H
	DW	05H
	DW	07H
	DW	08H
	DW	09H
	DW	0aH
	DW	0bH
	DW	0cH
	DW	0dH
	DW	0eH
	DW	0fH
	DW	010H
	DW	00H
	DW	00H
	DW	00H
	DW	037H
	DW	037H
	DW	037H
	DW	07H
	DW	08H
	DW	09H
	DW	0aH
	DW	0bH
	DW	0cH
	DW	0dH
	DW	0eH
	DW	0fH
	DW	010H
	DW	037H
	DW	037H
	DW	037H
	DW	037H
	DW	037H
	DW	037H
	DW	037H
	DW	037H
	DW	037H
	DW	037H
	DW	037H
	DW	037H
	DW	037H
	DW	037H
	DW	037H
	DW	037H
	DW	037H
	DW	037H
	DW	037H
	DW	037H
	DW	037H
	DW	037H
	DW	037H
	DW	037H
	DW	037H
	DW	037H
	DW	037H
	DW	037H
	DW	037H
	DW	037H
	DW	060H
	DW	060H
	DW	060H
	DW	060H
	DW	060H
	DW	060H
	DW	05H
	DW	05H
	DW	00H
	DW	00H
	DW	00H
	DW	00H
	DW	00H
	DW	00H
	DW	00H
	DW	00H
	DW	00H
	DW	00H
	DW	00H
	DW	00H
	DW	00H
	DW	00H
	DW	00H
	DW	00H
	DW	00H
	DW	00H
	DW	00H
	DW	00H
	DW	00H
	DW	00H
	DW	00H
	DW	00H
	DW	00H
	DW	00H
	DW	00H
	DW	00H
	DW	00H
	DW	00H
	DW	00H
	DW	00H
	DW	00H
	DW	00H
	DW	00H
	DW	00H
	DW	00H
	DW	00H
	DW	00H
	DW	00H
	DW	00H
	DW	00H
	DW	00H
	DW	00H
	DW	00H
	DW	00H
	DW	00H
	DW	00H
	DW	00H
	DW	00H
	DW	00H
	DW	00H
	DW	00H
	DW	00H
	DW	00H
	DW	00H
	DW	00H
	DW	00H
	DW	00H
	DW	00H
	DW	00H
	DW	00H
	DW	00H
	DW	00H
	DW	05H
	DW	05H
	DW	05H
	DW	05H
	DW	05H
	DW	05H
	DW	05H
	DW	05H
	DW	00H
	DW	00H
	DW	00H
	DW	00H
	DW	00H
	DW	00H
	DW	00H
	DW	00H
	DW	019H
	DW	019H
	DW	019H
	DW	05H
	DW	019H
	DW	019H
	DW	019H
	DW	019H
	DW	019H
	DW	019H
	DW	019H
	DW	019H
	DW	019H
	DW	019H
	DW	019H
	DW	019H
	DW	019H
	DW	012H
	DW	019H
	DW	019H
	DW	019H
	DW	019H
	DW	019H
	DW	019H
	DW	019H
	DW	037H
	DW	037H
	DW	037H
	DW	037H
	DW	019H
	DW	037H
	DW	037H
	DW	037H
	DW	037H
	DW	012H
	DW	012H
	DW	019H
	DW	037H
	DW	037H
	DW	00H
	DW	00H
	DW	00H
	DW	00H
	DW	00H
	DW	00H
	DW	00H
	DW	00H
	DW	00H
	DW	014H
	DW	014H
	DW	014H
	DW	014H
	DW	014H
	DW	014H
	DW	014H
	DW	014H
	DW	014H
	DW	014H
	DW	014H
	DW	014H
	DW	014H
	DW	014H
	DW	014H
	DW	014H
	DW	014H
	DW	014H
	DW	014H
	DW	014H
	DW	014H
	DW	014H
	DW	014H
	DW	014H
	DW	014H
	DW	014H
	DW	014H
	DW	014H
	DW	014H
	DW	014H
	DW	014H
	DW	014H
	DW	014H
	DW	014H
	DW	014H
	DW	014H
	DW	014H
	DW	014H
	DW	014H
	DW	014H
	DW	014H
	DW	014H
	DW	014H
	DW	014H
	DW	05fH
	DW	05fH
	DW	05fH
	DW	05fH
	DW	05fH
	DW	05fH
	DW	05fH
	DW	05fH
	DW	05fH
	DW	05fH
	DW	05fH
	DW	05fH
	DW	05fH
	DW	05fH
	DW	05fH
	DW	05fH
	DW	05fH
	DW	05fH
	DW	05fH
	DW	05fH
	DW	05fH
	DW	05fH
	DW	05fH
	DW	05fH
	DW	05fH
	DW	05fH
	DW	05fH
	DW	05fH
	DW	05fH
	DW	05fH
	DW	05fH
	DW	05fH
	DW	05fH
	DW	05fH
	DW	05fH
	DW	05fH
	DW	05fH
	DW	05fH
	DW	05fH
	DW	05fH
	DW	05fH
	DW	05fH
	DW	05fH
	DW	05fH
	DW	05fH
	DW	05fH
	DW	05fH
	DW	05fH
	DW	05fH
	DW	05fH
	DW	05fH
	DW	05fH
	DW	05fH
	DW	05fH
	DW	05fH
	DW	05fH
	DW	05fH
	DW	05fH
	DW	05fH
	DW	05fH
	DW	05fH
	DW	05fH
	DW	05fH
	DW	014H
	DW	014H
	DW	014H
	DW	014H
	DW	014H
	DW	014H
	DW	014H
	DW	014H
	DW	014H
	DW	014H
	DW	014H
	DW	014H
	DW	014H
	DW	05fH
	DW	08eH
	DW	014H
	DW	014H
	DW	014H
	DW	08fH
	DW	014H
	DW	014H
	DW	014H
	DW	014H
	DW	014H
	DW	014H
	DW	014H
	DW	014H
	DW	014H
	DW	014H
	DW	014H
	DW	014H
	DW	014H
	DW	014H
	DW	014H
	DW	014H
	DW	014H
	DW	014H
	DW	014H
	DW	014H
	DW	014H
	DW	014H
	DW	014H
	DW	014H
	DW	014H
	DW	014H
	DW	014H
	DW	014H
	DW	014H
	DW	05fH
	DW	05fH
	DW	05fH
	DW	05fH
	DW	05fH
	DW	05fH
	DW	05fH
	DW	05fH
	DW	05fH
	DW	05fH
	DW	05fH
	DW	05fH
	DW	05fH
	DW	05fH
	DW	05fH
	DW	05fH
	DW	05fH
	DW	05fH
	DW	05fH
	DW	05fH
	DW	05fH
	DW	05fH
	DW	05fH
	DW	05fH
	DW	05fH
	DW	05fH
	DW	05fH
	DW	05fH
	DW	05fH
	DW	05fH
	DW	05fH
	DW	05fH
	DW	05fH
	DW	05fH
	DW	05fH
	DW	05fH
	DW	05fH
	DW	019H
	DW	019H
	DW	019H
	DW	019H
	DW	019H
	DW	019H
	DW	019H
	DW	019H
	DW	019H
	DW	019H
	DW	019H
	DW	019H
	DW	019H
	DW	019H
	DW	019H
	DW	019H
	DW	019H
	DW	019H
	DW	019H
	DW	019H
	DW	019H
	DW	019H
	DW	019H
	DW	019H
	DW	019H
	DW	019H
	DW	019H
	DW	019H
	DW	019H
	DW	019H
	DW	019H
	DW	019H
	DW	019H
	DW	019H
	DW	019H
	DW	019H
	DW	019H
	DW	019H
	DW	019H
	DW	00H
	DW	00H
	DW	00H
	DW	00H
	DW	00H
	DW	00H
	DW	00H
	DW	00H
	DW	00H
	DW	00H
	DW	00H
	DW	00H
	DW	00H
	DW	00H
	DW	00H
	DW	00H
	DW	00H
	DW	00H
	DW	00H
	DW	00H
	DW	00H
	DW	019H
	DW	019H
	DW	019H
	DW	019H
	DW	01eH
	DW	01fH
	DW	01eH
	DW	01fH
	DW	01eH
	DW	01fH
	DW	01eH
	DW	01fH
	DW	01eH
	DW	01fH
	DW	01eH
	DW	01fH
	DW	01eH
	DW	01fH
	DW	01eH
	DW	01fH
	DW	01eH
	DW	01fH
	DW	01eH
	DW	01fH
	DW	01eH
	DW	01fH
	DW	01eH
	DW	01fH
	DW	01eH
	DW	01fH
	DW	01eH
	DW	01fH
	DW	01eH
	DW	01fH
	DW	01eH
	DW	01fH
	DW	01eH
	DW	01fH
	DW	01eH
	DW	01fH
	DW	01eH
	DW	01fH
	DW	01eH
	DW	01fH
	DW	01eH
	DW	01fH
	DW	01eH
	DW	01fH
	DW	01eH
	DW	01fH
	DW	01eH
	DW	01fH
	DW	01eH
	DW	01fH
	DW	01eH
	DW	01fH
	DW	01eH
	DW	01fH
	DW	01eH
	DW	01fH
	DW	01eH
	DW	01fH
	DW	01eH
	DW	01fH
	DW	01eH
	DW	01fH
	DW	01eH
	DW	01fH
	DW	01eH
	DW	01fH
	DW	01eH
	DW	01fH
	DW	01eH
	DW	01fH
	DW	01eH
	DW	01fH
	DW	01eH
	DW	01fH
	DW	01eH
	DW	01fH
	DW	01eH
	DW	01fH
	DW	01eH
	DW	01fH
	DW	01eH
	DW	01fH
	DW	01eH
	DW	01fH
	DW	01eH
	DW	01fH
	DW	01eH
	DW	01fH
	DW	01eH
	DW	01fH
	DW	01eH
	DW	01fH
	DW	01eH
	DW	01fH
	DW	01eH
	DW	01fH
	DW	01eH
	DW	01fH
	DW	01eH
	DW	01fH
	DW	01eH
	DW	01fH
	DW	01eH
	DW	01fH
	DW	01eH
	DW	01fH
	DW	01eH
	DW	01fH
	DW	01eH
	DW	01fH
	DW	01eH
	DW	01fH
	DW	01eH
	DW	01fH
	DW	01eH
	DW	01fH
	DW	01eH
	DW	01fH
	DW	01eH
	DW	01fH
	DW	01eH
	DW	01fH
	DW	01eH
	DW	01fH
	DW	01eH
	DW	01fH
	DW	01eH
	DW	01fH
	DW	01eH
	DW	01fH
	DW	01eH
	DW	01fH
	DW	01eH
	DW	01fH
	DW	01eH
	DW	01fH
	DW	01eH
	DW	01fH
	DW	01eH
	DW	01fH
	DW	01eH
	DW	01fH
	DW	01eH
	DW	01fH
	DW	01eH
	DW	01fH
	DW	01eH
	DW	01fH
	DW	01eH
	DW	01fH
	DW	090H
	DW	091H
	DW	092H
	DW	093H
	DW	094H
	DW	095H
	DW	014H
	DW	014H
	DW	096H
	DW	014H
	DW	01eH
	DW	01fH
	DW	01eH
	DW	01fH
	DW	01eH
	DW	01fH
	DW	01eH
	DW	01fH
	DW	01eH
	DW	01fH
	DW	01eH
	DW	01fH
	DW	01eH
	DW	01fH
	DW	01eH
	DW	01fH
	DW	01eH
	DW	01fH
	DW	01eH
	DW	01fH
	DW	01eH
	DW	01fH
	DW	01eH
	DW	01fH
	DW	01eH
	DW	01fH
	DW	01eH
	DW	01fH
	DW	01eH
	DW	01fH
	DW	01eH
	DW	01fH
	DW	01eH
	DW	01fH
	DW	01eH
	DW	01fH
	DW	01eH
	DW	01fH
	DW	01eH
	DW	01fH
	DW	01eH
	DW	01fH
	DW	01eH
	DW	01fH
	DW	01eH
	DW	01fH
	DW	01eH
	DW	01fH
	DW	01eH
	DW	01fH
	DW	01eH
	DW	01fH
	DW	01eH
	DW	01fH
	DW	01eH
	DW	01fH
	DW	01eH
	DW	01fH
	DW	01eH
	DW	01fH
	DW	01eH
	DW	01fH
	DW	01eH
	DW	01fH
	DW	01eH
	DW	01fH
	DW	01eH
	DW	01fH
	DW	01eH
	DW	01fH
	DW	01eH
	DW	01fH
	DW	01eH
	DW	01fH
	DW	01eH
	DW	01fH
	DW	01eH
	DW	01fH
	DW	01eH
	DW	01fH
	DW	01eH
	DW	01fH
	DW	01eH
	DW	01fH
	DW	01eH
	DW	01fH
	DW	01eH
	DW	01fH
	DW	01eH
	DW	01fH
	DW	01eH
	DW	01fH
	DW	01eH
	DW	01fH
	DW	01eH
	DW	01fH
	DW	097H
	DW	097H
	DW	097H
	DW	097H
	DW	097H
	DW	097H
	DW	097H
	DW	097H
	DW	098H
	DW	098H
	DW	098H
	DW	098H
	DW	098H
	DW	098H
	DW	098H
	DW	098H
	DW	097H
	DW	097H
	DW	097H
	DW	097H
	DW	097H
	DW	097H
	DW	00H
	DW	00H
	DW	098H
	DW	098H
	DW	098H
	DW	098H
	DW	098H
	DW	098H
	DW	00H
	DW	00H
	DW	097H
	DW	097H
	DW	097H
	DW	097H
	DW	097H
	DW	097H
	DW	097H
	DW	097H
	DW	098H
	DW	098H
	DW	098H
	DW	098H
	DW	098H
	DW	098H
	DW	098H
	DW	098H
	DW	097H
	DW	097H
	DW	097H
	DW	097H
	DW	097H
	DW	097H
	DW	097H
	DW	097H
	DW	098H
	DW	098H
	DW	098H
	DW	098H
	DW	098H
	DW	098H
	DW	098H
	DW	098H
	DW	097H
	DW	097H
	DW	097H
	DW	097H
	DW	097H
	DW	097H
	DW	00H
	DW	00H
	DW	098H
	DW	098H
	DW	098H
	DW	098H
	DW	098H
	DW	098H
	DW	00H
	DW	00H
	DW	099H
	DW	097H
	DW	09aH
	DW	097H
	DW	09bH
	DW	097H
	DW	09cH
	DW	097H
	DW	00H
	DW	098H
	DW	00H
	DW	098H
	DW	00H
	DW	098H
	DW	00H
	DW	098H
	DW	097H
	DW	097H
	DW	097H
	DW	097H
	DW	097H
	DW	097H
	DW	097H
	DW	097H
	DW	098H
	DW	098H
	DW	098H
	DW	098H
	DW	098H
	DW	098H
	DW	098H
	DW	098H
	DW	09dH
	DW	09dH
	DW	09eH
	DW	09eH
	DW	09eH
	DW	09eH
	DW	09fH
	DW	09fH
	DW	0a0H
	DW	0a0H
	DW	0a1H
	DW	0a1H
	DW	0a2H
	DW	0a2H
	DW	00H
	DW	00H
	DW	0a3H
	DW	0a4H
	DW	0a5H
	DW	0a6H
	DW	0a7H
	DW	0a8H
	DW	0a9H
	DW	0aaH
	DW	0abH
	DW	0acH
	DW	0adH
	DW	0aeH
	DW	0afH
	DW	0b0H
	DW	0b1H
	DW	0b2H
	DW	0b3H
	DW	0b4H
	DW	0b5H
	DW	0b6H
	DW	0b7H
	DW	0b8H
	DW	0b9H
	DW	0baH
	DW	0bbH
	DW	0bcH
	DW	0bdH
	DW	0beH
	DW	0bfH
	DW	0c0H
	DW	0c1H
	DW	0c2H
	DW	0c3H
	DW	0c4H
	DW	0c5H
	DW	0c6H
	DW	0c7H
	DW	0c8H
	DW	0c9H
	DW	0caH
	DW	0cbH
	DW	0ccH
	DW	0cdH
	DW	0ceH
	DW	0cfH
	DW	0d0H
	DW	0d1H
	DW	0d2H
	DW	097H
	DW	097H
	DW	0d3H
	DW	0d4H
	DW	0d5H
	DW	00H
	DW	0d6H
	DW	0d7H
	DW	098H
	DW	098H
	DW	0d8H
	DW	0d8H
	DW	0d9H
	DW	06H
	DW	0daH
	DW	06H
	DW	06H
	DW	06H
	DW	0dbH
	DW	0dcH
	DW	0ddH
	DW	00H
	DW	0deH
	DW	0dfH
	DW	0e0H
	DW	0e0H
	DW	0e0H
	DW	0e0H
	DW	0e1H
	DW	06H
	DW	06H
	DW	06H
	DW	097H
	DW	097H
	DW	0e2H
	DW	0e3H
	DW	00H
	DW	00H
	DW	0e4H
	DW	0e5H
	DW	098H
	DW	098H
	DW	0e6H
	DW	0e6H
	DW	00H
	DW	06H
	DW	06H
	DW	06H
	DW	097H
	DW	097H
	DW	0e7H
	DW	0e8H
	DW	0e9H
	DW	077H
	DW	0eaH
	DW	0ebH
	DW	098H
	DW	098H
	DW	0ecH
	DW	0ecH
	DW	07aH
	DW	06H
	DW	06H
	DW	06H
	DW	00H
	DW	00H
	DW	0edH
	DW	0eeH
	DW	0efH
	DW	00H
	DW	0f0H
	DW	0f1H
	DW	0f2H
	DW	0f2H
	DW	0f3H
	DW	0f3H
	DW	0f4H
	DW	06H
	DW	06H
	DW	00H
	DW	02H
	DW	02H
	DW	02H
	DW	02H
	DW	02H
	DW	02H
	DW	02H
	DW	02H
	DW	02H
	DW	02H
	DW	02H
	DW	015H
	DW	015H
	DW	015H
	DW	015H
	DW	015H
	DW	05H
	DW	05H
	DW	05H
	DW	05H
	DW	05H
	DW	05H
	DW	05H
	DW	05H
	DW	06H
	DW	06H
	DW	05H
	DW	05H
	DW	05H
	DW	05H
	DW	05H
	DW	05H
	DW	05H
	DW	05H
	DW	05H
	DW	05H
	DW	06H
	DW	05H
	DW	05H
	DW	06H
	DW	03H
	DW	03H
	DW	015H
	DW	015H
	DW	015H
	DW	015H
	DW	015H
	DW	02H
	DW	05H
	DW	05H
	DW	05H
	DW	05H
	DW	05H
	DW	05H
	DW	05H
	DW	05H
	DW	05H
	DW	05H
	DW	05H
	DW	05H
	DW	05H
	DW	05H
	DW	05H
	DW	012H
	DW	012H
	DW	05H
	DW	05H
	DW	05H
	DW	05H
	DW	05H
	DW	05H
	DW	05H
	DW	05H
	DW	05H
	DW	05H
	DW	05H
	DW	05H
	DW	05H
	DW	05H
	DW	05H
	DW	05H
	DW	05H
	DW	05H
	DW	05H
	DW	012H
	DW	05H
	DW	05H
	DW	05H
	DW	05H
	DW	05H
	DW	05H
	DW	05H
	DW	05H
	DW	05H
	DW	05H
	DW	02H
	DW	015H
	DW	015H
	DW	015H
	DW	015H
	DW	015H
	DW	00H
	DW	00H
	DW	00H
	DW	00H
	DW	00H
	DW	015H
	DW	015H
	DW	015H
	DW	015H
	DW	015H
	DW	015H
	DW	0f5H
	DW	05fH
	DW	00H
	DW	00H
	DW	0f6H
	DW	0f7H
	DW	0f8H
	DW	0f9H
	DW	0faH
	DW	0fbH
	DW	05H
	DW	05H
	DW	05H
	DW	05H
	DW	05H
	DW	05fH
	DW	0f5H
	DW	01aH
	DW	016H
	DW	017H
	DW	0f6H
	DW	0f7H
	DW	0f8H
	DW	0f9H
	DW	0faH
	DW	0fbH
	DW	05H
	DW	05H
	DW	05H
	DW	05H
	DW	05H
	DW	00H
	DW	05fH
	DW	05fH
	DW	05fH
	DW	05fH
	DW	05fH
	DW	05fH
	DW	05fH
	DW	05fH
	DW	05fH
	DW	05fH
	DW	05fH
	DW	05fH
	DW	05fH
	DW	00H
	DW	00H
	DW	00H
	DW	05H
	DW	05H
	DW	05H
	DW	05H
	DW	05H
	DW	05H
	DW	05H
	DW	05H
	DW	05H
	DW	05H
	DW	05H
	DW	05H
	DW	05H
	DW	05H
	DW	05H
	DW	05H
	DW	05H
	DW	05H
	DW	05H
	DW	05H
	DW	05H
	DW	05H
	DW	05H
	DW	05H
	DW	05H
	DW	05H
	DW	00H
	DW	00H
	DW	00H
	DW	00H
	DW	00H
	DW	00H
	DW	00H
	DW	00H
	DW	00H
	DW	00H
	DW	00H
	DW	00H
	DW	00H
	DW	00H
	DW	00H
	DW	00H
	DW	00H
	DW	00H
	DW	00H
	DW	00H
	DW	00H
	DW	00H
	DW	019H
	DW	019H
	DW	019H
	DW	019H
	DW	019H
	DW	019H
	DW	019H
	DW	019H
	DW	019H
	DW	019H
	DW	019H
	DW	019H
	DW	019H
	DW	06H
	DW	06H
	DW	06H
	DW	06H
	DW	019H
	DW	06H
	DW	06H
	DW	06H
	DW	019H
	DW	019H
	DW	019H
	DW	019H
	DW	019H
	DW	019H
	DW	019H
	DW	019H
	DW	019H
	DW	019H
	DW	019H
	DW	019H
	DW	00H
	DW	00H
	DW	00H
	DW	00H
	DW	00H
	DW	00H
	DW	00H
	DW	00H
	DW	00H
	DW	00H
	DW	00H
	DW	00H
	DW	00H
	DW	00H
	DW	00H
	DW	05H
	DW	05H
	DW	071H
	DW	05H
	DW	05H
	DW	05H
	DW	05H
	DW	071H
	DW	05H
	DW	05H
	DW	014H
	DW	071H
	DW	071H
	DW	071H
	DW	014H
	DW	014H
	DW	071H
	DW	071H
	DW	071H
	DW	014H
	DW	05H
	DW	071H
	DW	05H
	DW	05H
	DW	0fcH
	DW	071H
	DW	071H
	DW	071H
	DW	071H
	DW	071H
	DW	05H
	DW	05H
	DW	05H
	DW	05H
	DW	05H
	DW	05H
	DW	071H
	DW	05H
	DW	0fdH
	DW	05H
	DW	071H
	DW	05H
	DW	0feH
	DW	0ffH
	DW	071H
	DW	071H
	DW	0fcH
	DW	014H
	DW	071H
	DW	071H
	DW	0100H
	DW	071H
	DW	014H
	DW	037H
	DW	037H
	DW	037H
	DW	037H
	DW	014H
	DW	05H
	DW	05H
	DW	014H
	DW	014H
	DW	071H
	DW	071H
	DW	05H
	DW	05H
	DW	05H
	DW	05H
	DW	05H
	DW	071H
	DW	014H
	DW	014H
	DW	014H
	DW	014H
	DW	05H
	DW	05H
	DW	05H
	DW	05H
	DW	0101H
	DW	05H
	DW	01bH
	DW	01bH
	DW	01bH
	DW	01bH
	DW	01bH
	DW	01bH
	DW	01bH
	DW	01bH
	DW	01bH
	DW	01bH
	DW	01bH
	DW	01bH
	DW	01bH
	DW	01bH
	DW	01bH
	DW	01bH
	DW	0102H
	DW	0102H
	DW	0102H
	DW	0102H
	DW	0102H
	DW	0102H
	DW	0102H
	DW	0102H
	DW	0102H
	DW	0102H
	DW	0102H
	DW	0102H
	DW	0102H
	DW	0102H
	DW	0102H
	DW	0102H
	DW	0103H
	DW	0103H
	DW	0103H
	DW	0103H
	DW	0103H
	DW	0103H
	DW	0103H
	DW	0103H
	DW	0103H
	DW	0103H
	DW	0103H
	DW	0103H
	DW	0103H
	DW	0103H
	DW	0103H
	DW	0103H
	DW	08dH
	DW	08dH
	DW	08dH
	DW	01eH
	DW	01fH
	DW	08dH
	DW	08dH
	DW	08dH
	DW	08dH
	DW	01bH
	DW	00H
	DW	00H
	DW	00H
	DW	00H
	DW	00H
	DW	00H
	DW	05H
	DW	05H
	DW	05H
	DW	05H
	DW	05H
	DW	05H
	DW	05H
	DW	05H
	DW	05H
	DW	05H
	DW	05H
	DW	05H
	DW	05H
	DW	05H
	DW	05H
	DW	05H
	DW	05H
	DW	05H
	DW	05H
	DW	05H
	DW	05H
	DW	05H
	DW	05H
	DW	05H
	DW	05H
	DW	05H
	DW	05H
	DW	05H
	DW	05H
	DW	05H
	DW	05H
	DW	05H
	DW	05H
	DW	05H
	DW	05H
	DW	05H
	DW	05H
	DW	05H
	DW	05H
	DW	05H
	DW	05H
	DW	05H
	DW	05H
	DW	05H
	DW	05H
	DW	05H
	DW	05H
	DW	05H
	DW	05H
	DW	05H
	DW	05H
	DW	05H
	DW	05H
	DW	05H
	DW	05H
	DW	05H
	DW	05H
	DW	05H
	DW	05H
	DW	05H
	DW	05H
	DW	05H
	DW	05H
	DW	05H
	DW	05H
	DW	05H
	DW	05H
	DW	05H
	DW	05H
	DW	05H
	DW	05H
	DW	05H
	DW	05H
	DW	05H
	DW	05H
	DW	05H
	DW	05H
	DW	05H
	DW	05H
	DW	05H
	DW	05H
	DW	05H
	DW	05H
	DW	05H
	DW	05H
	DW	05H
	DW	05H
	DW	05H
	DW	05H
	DW	05H
	DW	05H
	DW	05H
	DW	05H
	DW	05H
	DW	05H
	DW	05H
	DW	05H
	DW	05H
	DW	05H
	DW	05H
	DW	05H
	DW	05H
	DW	05H
	DW	05H
	DW	05H
	DW	05H
	DW	05H
	DW	05H
	DW	05H
	DW	05H
	DW	05H
	DW	05H
	DW	05H
	DW	05H
	DW	05H
	DW	05H
	DW	05H
	DW	05H
	DW	05H
	DW	05H
	DW	05H
	DW	05H
	DW	05H
	DW	05H
	DW	05H
	DW	05H
	DW	05H
	DW	05H
	DW	05H
	DW	05H
	DW	05H
	DW	05H
	DW	05H
	DW	05H
	DW	05H
	DW	05H
	DW	05H
	DW	05H
	DW	05H
	DW	05H
	DW	05H
	DW	05H
	DW	05H
	DW	05H
	DW	05H
	DW	05H
	DW	05H
	DW	05H
	DW	05H
	DW	05H
	DW	05H
	DW	05H
	DW	05H
	DW	05H
	DW	05H
	DW	05H
	DW	05H
	DW	05H
	DW	05H
	DW	05H
	DW	05H
	DW	05H
	DW	05H
	DW	05H
	DW	05H
	DW	05H
	DW	05H
	DW	05H
	DW	05H
	DW	05H
	DW	05H
	DW	05H
	DW	05H
	DW	05H
	DW	05H
	DW	05H
	DW	05H
	DW	05H
	DW	05H
	DW	05H
	DW	05H
	DW	05H
	DW	05H
	DW	05H
	DW	05H
	DW	05H
	DW	05H
	DW	05H
	DW	05H
	DW	05H
	DW	05H
	DW	05H
	DW	05H
	DW	05H
	DW	05H
	DW	05H
	DW	05H
	DW	05H
	DW	05H
	DW	05H
	DW	05H
	DW	05H
	DW	05H
	DW	05H
	DW	05H
	DW	05H
	DW	05H
	DW	05H
	DW	05H
	DW	05H
	DW	05H
	DW	05H
	DW	05H
	DW	05H
	DW	05H
	DW	05H
	DW	05H
	DW	05H
	DW	05H
	DW	05H
	DW	05H
	DW	05H
	DW	05H
	DW	05H
	DW	05H
	DW	05H
	DW	05H
	DW	05H
	DW	05H
	DW	05H
	DW	05H
	DW	05H
	DW	05H
	DW	05H
	DW	05H
	DW	05H
	DW	05H
	DW	05H
	DW	05H
	DW	05H
	DW	05H
	DW	05H
	DW	05H
	DW	05H
	DW	05H
	DW	05H
	DW	05H
	DW	05H
	DW	05H
	DW	05H
	DW	05H
	DW	05H
	DW	05H
	DW	05H
	DW	05H
	DW	05H
	DW	05H
	DW	05H
	DW	05H
	DW	05H
	DW	05H
	DW	05H
	DW	05H
	DW	05H
	DW	05H
	DW	05H
	DW	05H
	DW	05H
	DW	05H
	DW	05H
	DW	05H
	DW	05H
	DW	05H
	DW	05H
	DW	05H
	DW	05H
	DW	05H
	DW	05H
	DW	05H
	DW	05H
	DW	05H
	DW	05H
	DW	05H
	DW	05H
	DW	05H
	DW	05H
	DW	05H
	DW	05H
	DW	05H
	DW	05H
	DW	05H
	DW	05H
	DW	05H
	DW	05H
	DW	05H
	DW	05H
	DW	05H
	DW	05H
	DW	05H
	DW	05H
	DW	05H
	DW	05H
	DW	05H
	DW	05H
	DW	05H
	DW	05H
	DW	05H
	DW	05H
	DW	05H
	DW	05H
	DW	05H
	DW	05H
	DW	05H
	DW	05H
	DW	05H
	DW	05H
	DW	05H
	DW	05H
	DW	05H
	DW	05H
	DW	05H
	DW	05H
	DW	05H
	DW	05H
	DW	05H
	DW	05H
	DW	05H
	DW	05H
	DW	05H
	DW	05H
	DW	05H
	DW	05H
	DW	05H
	DW	05H
	DW	05H
	DW	05H
	DW	05H
	DW	05H
	DW	05H
	DW	05H
	DW	05H
	DW	05H
	DW	05H
	DW	05H
	DW	05H
	DW	05H
	DW	05H
	DW	05H
	DW	05H
	DW	05H
	DW	05H
	DW	05H
	DW	05H
	DW	05H
	DW	05H
	DW	05H
	DW	00H
	DW	00H
	DW	00H
	DW	00H
	DW	00H
	DW	00H
	DW	00H
	DW	00H
	DW	00H
	DW	00H
	DW	00H
	DW	00H
	DW	05H
	DW	05H
	DW	05H
	DW	05H
	DW	05H
	DW	05H
	DW	05H
	DW	05H
	DW	05H
	DW	05H
	DW	05H
	DW	05H
	DW	05H
	DW	05H
	DW	05H
	DW	05H
	DW	05H
	DW	05H
	DW	05H
	DW	05H
	DW	05H
	DW	05H
	DW	05H
	DW	05H
	DW	05H
	DW	05H
	DW	05H
	DW	05H
	DW	05H
	DW	05H
	DW	05H
	DW	05H
	DW	05H
	DW	05H
	DW	05H
	DW	05H
	DW	05H
	DW	05H
	DW	05H
	DW	00H
	DW	00H
	DW	00H
	DW	00H
	DW	00H
	DW	00H
	DW	00H
	DW	00H
	DW	00H
	DW	00H
	DW	00H
	DW	00H
	DW	00H
	DW	00H
	DW	00H
	DW	00H
	DW	00H
	DW	00H
	DW	00H
	DW	00H
	DW	00H
	DW	00H
	DW	00H
	DW	00H
	DW	00H
	DW	05H
	DW	05H
	DW	05H
	DW	05H
	DW	05H
	DW	05H
	DW	05H
	DW	05H
	DW	05H
	DW	05H
	DW	05H
	DW	00H
	DW	00H
	DW	00H
	DW	00H
	DW	00H
	DW	00H
	DW	00H
	DW	00H
	DW	00H
	DW	00H
	DW	00H
	DW	00H
	DW	00H
	DW	00H
	DW	00H
	DW	00H
	DW	00H
	DW	00H
	DW	00H
	DW	00H
	DW	00H
	DW	01aH
	DW	016H
	DW	017H
	DW	0f6H
	DW	0f7H
	DW	0f8H
	DW	0f9H
	DW	0faH
	DW	0fbH
	DW	01bH
	DW	01bH
	DW	01bH
	DW	01bH
	DW	01bH
	DW	01bH
	DW	01bH
	DW	01bH
	DW	01bH
	DW	01bH
	DW	01bH
	DW	01aH
	DW	016H
	DW	017H
	DW	0f6H
	DW	0f7H
	DW	0f8H
	DW	0f9H
	DW	0faH
	DW	0fbH
	DW	01bH
	DW	01bH
	DW	01bH
	DW	01bH
	DW	01bH
	DW	01bH
	DW	01bH
	DW	01bH
	DW	01bH
	DW	01bH
	DW	01bH
	DW	01aH
	DW	016H
	DW	017H
	DW	0f6H
	DW	0f7H
	DW	0f8H
	DW	0f9H
	DW	0faH
	DW	0fbH
	DW	01bH
	DW	01bH
	DW	01bH
	DW	01bH
	DW	01bH
	DW	01bH
	DW	01bH
	DW	01bH
	DW	01bH
	DW	01bH
	DW	01bH
	DW	05H
	DW	05H
	DW	05H
	DW	05H
	DW	05H
	DW	05H
	DW	05H
	DW	05H
	DW	05H
	DW	05H
	DW	05H
	DW	05H
	DW	05H
	DW	05H
	DW	05H
	DW	05H
	DW	05H
	DW	05H
	DW	05H
	DW	05H
	DW	05H
	DW	05H
	DW	05H
	DW	05H
	DW	05H
	DW	05H
	DW	0104H
	DW	0104H
	DW	0104H
	DW	0104H
	DW	0104H
	DW	0104H
	DW	0104H
	DW	0104H
	DW	0104H
	DW	0104H
	DW	0104H
	DW	0104H
	DW	0104H
	DW	0104H
	DW	0104H
	DW	0104H
	DW	0104H
	DW	0104H
	DW	0104H
	DW	0104H
	DW	0104H
	DW	0104H
	DW	0104H
	DW	0104H
	DW	0104H
	DW	0104H
	DW	0105H
	DW	0105H
	DW	0105H
	DW	0105H
	DW	0105H
	DW	0105H
	DW	0105H
	DW	0105H
	DW	0105H
	DW	0105H
	DW	0105H
	DW	0105H
	DW	0105H
	DW	0105H
	DW	0105H
	DW	0105H
	DW	0105H
	DW	0105H
	DW	0105H
	DW	0105H
	DW	0105H
	DW	0105H
	DW	0105H
	DW	0105H
	DW	0105H
	DW	0105H
	DW	0f5H
	DW	01bH
	DW	01bH
	DW	01bH
	DW	01bH
	DW	01bH
	DW	01bH
	DW	01bH
	DW	01bH
	DW	01bH
	DW	01bH
	DW	01aH
	DW	016H
	DW	017H
	DW	0f6H
	DW	0f7H
	DW	0f8H
	DW	0f9H
	DW	0faH
	DW	0fbH
	DW	01bH
	DW	0f5H
	DW	00H
	DW	05H
	DW	05H
	DW	05H
	DW	05H
	DW	05H
	DW	05H
	DW	05H
	DW	05H
	DW	05H
	DW	05H
	DW	05H
	DW	05H
	DW	05H
	DW	05H
	DW	05H
	DW	05H
	DW	05H
	DW	05H
	DW	05H
	DW	05H
	DW	05H
	DW	05H
	DW	05H
	DW	05H
	DW	05H
	DW	05H
	DW	05H
	DW	05H
	DW	05H
	DW	05H
	DW	05H
	DW	05H
	DW	05H
	DW	05H
	DW	05H
	DW	05H
	DW	05H
	DW	05H
	DW	05H
	DW	05H
	DW	05H
	DW	05H
	DW	05H
	DW	05H
	DW	05H
	DW	05H
	DW	05H
	DW	05H
	DW	05H
	DW	05H
	DW	05H
	DW	05H
	DW	05H
	DW	05H
	DW	05H
	DW	05H
	DW	05H
	DW	05H
	DW	05H
	DW	05H
	DW	05H
	DW	05H
	DW	05H
	DW	05H
	DW	05H
	DW	05H
	DW	05H
	DW	05H
	DW	05H
	DW	05H
	DW	05H
	DW	05H
	DW	05H
	DW	05H
	DW	05H
	DW	05H
	DW	05H
	DW	05H
	DW	05H
	DW	05H
	DW	05H
	DW	05H
	DW	05H
	DW	05H
	DW	05H
	DW	05H
	DW	05H
	DW	05H
	DW	05H
	DW	05H
	DW	05H
	DW	05H
	DW	05H
	DW	05H
	DW	05H
	DW	05H
	DW	05H
	DW	05H
	DW	05H
	DW	05H
	DW	05H
	DW	05H
	DW	05H
	DW	05H
	DW	05H
	DW	05H
	DW	05H
	DW	05H
	DW	05H
	DW	05H
	DW	05H
	DW	05H
	DW	05H
	DW	05H
	DW	05H
	DW	05H
	DW	05H
	DW	01aH
	DW	016H
	DW	017H
	DW	0f6H
	DW	0f7H
	DW	0f8H
	DW	0f9H
	DW	0faH
	DW	0fbH
	DW	01bH
	DW	01aH
	DW	016H
	DW	017H
	DW	0f6H
	DW	0f7H
	DW	0f8H
	DW	0f9H
	DW	0faH
	DW	0fbH
	DW	01bH
	DW	01aH
	DW	016H
	DW	017H
	DW	0f6H
	DW	0f7H
	DW	0f8H
	DW	0f9H
	DW	0faH
	DW	0fbH
	DW	01bH
	DW	05H
	DW	05H
	DW	05H
	DW	05H
	DW	05H
	DW	05H
	DW	05H
	DW	05H
	DW	05H
	DW	05H
	DW	05H
	DW	05H
	DW	05H
	DW	05H
	DW	05H
	DW	05H
	DW	05H
	DW	05H
	DW	05H
	DW	05H
	DW	05H
	DW	05H
	DW	05H
	DW	05H
	DW	05H
	DW	05H
	DW	05H
	DW	05H
	DW	05H
	DW	05H
	DW	05H
	DW	05H
	DW	05H
	DW	05H
	DW	05H
	DW	05H
	DW	05H
	DW	05H
	DW	05H
	DW	05H
	DW	05H
	DW	05H
	DW	05H
	DW	05H
	DW	05H
	DW	05H
	DW	05H
	DW	05H
	DW	05H
	DW	05H
	DW	05H
	DW	05H
	DW	05H
	DW	05H
	DW	05H
	DW	05H
	DW	05H
	DW	05H
	DW	05H
	DW	05H
	DW	05H
	DW	05H
	DW	05H
	DW	05H
	DW	05H
	DW	05H
	DW	05H
	DW	05H
	DW	05H
	DW	05H
	DW	05H
	DW	05H
	DW	05H
	DW	05H
	DW	05H
	DW	05H
	DW	05H
	DW	05H
	DW	05H
	DW	05H
	DW	05H
	DW	05H
	DW	05H
	DW	05H
	DW	05H
	DW	05H
	DW	05H
	DW	05H
	DW	05H
	DW	05H
	DW	05H
	DW	05H
	DW	05H
	DW	05H
	DW	05H
	DW	05H
	DW	05H
	DW	05H
	DW	05H
	DW	05H
	DW	05H
	DW	05H
	DW	05H
	DW	05H
	DW	05H
	DW	05H
	DW	05H
	DW	05H
	DW	05H
	DW	05H
	DW	05H
	DW	05H
	DW	05H
	DW	05H
	DW	05H
	DW	05H
	DW	05H
	DW	05H
	DW	05H
	DW	05H
	DW	05H
	DW	05H
	DW	05H
	DW	05H
	DW	05H
	DW	05H
	DW	05H
	DW	05H
	DW	05H
	DW	05H
	DW	05H
	DW	05H
	DW	05H
	DW	05H
	DW	05H
	DW	05H
	DW	05H
	DW	05H
	DW	05H
	DW	05H
	DW	05H
	DW	05H
	DW	05H
	DW	05H
	DW	05H
	DW	05H
	DW	05H
	DW	05H
	DW	05H
	DW	05H
	DW	05H
	DW	05H
	DW	05H
	DW	05H
	DW	05H
	DW	05H
	DW	05H
	DW	05H
	DW	05H
	DW	05H
	DW	05H
	DW	05H
	DW	05H
	DW	05H
	DW	05H
	DW	05H
	DW	05H
	DW	05H
	DW	05H
	DW	05H
	DW	05H
	DW	05H
	DW	05H
	DW	05H
	DW	05H
	DW	05H
	DW	05H
	DW	05H
	DW	05H
	DW	05H
	DW	05H
	DW	05H
	DW	05H
	DW	05H
	DW	05H
	DW	00H
	DW	00H
	DW	00H
	DW	05H
	DW	05H
	DW	05H
	DW	05H
	DW	05H
	DW	05H
	DW	05H
	DW	05H
	DW	05H
	DW	05H
	DW	00H
	DW	00H
	DW	00H
	DW	00H
	DW	00H
	DW	00H
	DW	00H
	DW	00H
	DW	00H
	DW	00H
	DW	00H
	DW	00H
	DW	00H
	DW	00H
	DW	00H
	DW	00H
	DW	00H
	DW	00H
	DW	00H
	DW	00H
	DW	00H
	DW	00H
	DW	00H
	DW	00H
	DW	00H
	DW	00H
	DW	00H
	DW	00H
	DW	00H
	DW	00H
	DW	00H
	DW	00H
	DW	00H
	DW	00H
	DW	00H
	DW	00H
	DW	00H
	DW	00H
	DW	00H
	DW	00H
	DW	00H
	DW	00H
	DW	00H
	DW	00H
	DW	00H
	DW	00H
	DW	00H
	DW	00H
	DW	00H
	DW	00H
	DW	00H
	DW	00H
	DW	00H
	DW	00H
	DW	00H
	DW	00H
	DW	00H
	DW	00H
	DW	00H
	DW	00H
	DW	00H
	DW	00H
	DW	00H
	DW	00H
	DW	00H
	DW	00H
	DW	00H
	DW	00H
	DW	00H
	DW	00H
	DW	00H
	DW	00H
	DW	00H
	DW	00H
	DW	00H
	DW	00H
	DW	00H
	DW	00H
	DW	00H
	DW	00H
	DW	00H
	DW	00H
	DW	00H
	DW	00H
	DW	00H
	DW	00H
	DW	00H
	DW	00H
	DW	00H
	DW	00H
	DW	00H
	DW	00H
	DW	00H
	DW	00H
	DW	00H
	DW	00H
	DW	00H
	DW	00H
	DW	00H
	DW	00H
	DW	00H
	DW	00H
	DW	00H
	DW	00H
	DW	00H
	DW	00H
	DW	00H
	DW	00H
	DW	00H
	DW	00H
	DW	00H
	DW	00H
	DW	00H
	DW	00H
	DW	00H
	DW	00H
	DW	00H
	DW	00H
	DW	00H
	DW	00H
	DW	00H
	DW	00H
	DW	00H
	DW	00H
	DW	00H
	DW	00H
	DW	00H
	DW	00H
	DW	00H
	DW	00H
	DW	00H
	DW	00H
	DW	00H
	DW	00H
	DW	00H
	DW	00H
	DW	00H
	DW	00H
	DW	00H
	DW	00H
	DW	00H
	DW	00H
	DW	00H
	DW	00H
	DW	00H
	DW	00H
	DW	00H
	DW	00H
	DW	00H
	DW	00H
	DW	00H
	DW	00H
	DW	00H
	DW	00H
	DW	00H
	DW	00H
	DW	00H
	DW	00H
	DW	00H
	DW	00H
	DW	00H
	DW	00H
	DW	00H
	DW	00H
	DW	00H
	DW	00H
	DW	07fH
	DW	07fH
	DW	07fH
	DW	07fH
	DW	07fH
	DW	07fH
	DW	07fH
	DW	07fH
	DW	07fH
	DW	07fH
	DW	07fH
	DW	07fH
	DW	07fH
	DW	07fH
	DW	07fH
	DW	07fH
	DW	07fH
	DW	07fH
	DW	07fH
	DW	07fH
	DW	07fH
	DW	07fH
	DW	07fH
	DW	07fH
	DW	07fH
	DW	07fH
	DW	07fH
	DW	07fH
	DW	07fH
	DW	07fH
	DW	07fH
	DW	07fH
	DW	07fH
	DW	07fH
	DW	07fH
	DW	07fH
	DW	07fH
	DW	07fH
	DW	07fH
	DW	07fH
	DW	07fH
	DW	07fH
	DW	07fH
	DW	07fH
	DW	07fH
	DW	07fH
	DW	07fH
	DW	00H
	DW	080H
	DW	080H
	DW	080H
	DW	080H
	DW	080H
	DW	080H
	DW	080H
	DW	080H
	DW	080H
	DW	080H
	DW	080H
	DW	080H
	DW	080H
	DW	080H
	DW	080H
	DW	080H
	DW	080H
	DW	080H
	DW	080H
	DW	080H
	DW	080H
	DW	080H
	DW	080H
	DW	080H
	DW	080H
	DW	080H
	DW	080H
	DW	080H
	DW	080H
	DW	080H
	DW	080H
	DW	080H
	DW	080H
	DW	080H
	DW	080H
	DW	080H
	DW	080H
	DW	080H
	DW	080H
	DW	080H
	DW	080H
	DW	080H
	DW	080H
	DW	080H
	DW	080H
	DW	080H
	DW	080H
	DW	00H
	DW	01eH
	DW	01fH
	DW	0106H
	DW	0107H
	DW	0108H
	DW	0109H
	DW	010aH
	DW	01eH
	DW	01fH
	DW	01eH
	DW	01fH
	DW	01eH
	DW	01fH
	DW	010bH
	DW	010cH
	DW	010dH
	DW	010eH
	DW	014H
	DW	01eH
	DW	01fH
	DW	014H
	DW	01eH
	DW	01fH
	DW	014H
	DW	014H
	DW	014H
	DW	014H
	DW	014H
	DW	05fH
	DW	05fH
	DW	010fH
	DW	010fH
	DW	01eH
	DW	01fH
	DW	01eH
	DW	01fH
	DW	01eH
	DW	01fH
	DW	01eH
	DW	01fH
	DW	01eH
	DW	01fH
	DW	01eH
	DW	01fH
	DW	01eH
	DW	01fH
	DW	01eH
	DW	01fH
	DW	01eH
	DW	01fH
	DW	01eH
	DW	01fH
	DW	01eH
	DW	01fH
	DW	01eH
	DW	01fH
	DW	01eH
	DW	01fH
	DW	01eH
	DW	01fH
	DW	01eH
	DW	01fH
	DW	01eH
	DW	01fH
	DW	01eH
	DW	01fH
	DW	01eH
	DW	01fH
	DW	01eH
	DW	01fH
	DW	01eH
	DW	01fH
	DW	01eH
	DW	01fH
	DW	01eH
	DW	01fH
	DW	01eH
	DW	01fH
	DW	01eH
	DW	01fH
	DW	01eH
	DW	01fH
	DW	01eH
	DW	01fH
	DW	01eH
	DW	01fH
	DW	01eH
	DW	01fH
	DW	01eH
	DW	01fH
	DW	01eH
	DW	01fH
	DW	01eH
	DW	01fH
	DW	01eH
	DW	01fH
	DW	01eH
	DW	01fH
	DW	01eH
	DW	01fH
	DW	01eH
	DW	01fH
	DW	01eH
	DW	01fH
	DW	01eH
	DW	01fH
	DW	01eH
	DW	01fH
	DW	01eH
	DW	01fH
	DW	01eH
	DW	01fH
	DW	01eH
	DW	01fH
	DW	01eH
	DW	01fH
	DW	01eH
	DW	01fH
	DW	01eH
	DW	01fH
	DW	01eH
	DW	01fH
	DW	01eH
	DW	01fH
	DW	01eH
	DW	01fH
	DW	01eH
	DW	01fH
	DW	01eH
	DW	01fH
	DW	01eH
	DW	01fH
	DW	014H
	DW	05H
	DW	05H
	DW	05H
	DW	05H
	DW	05H
	DW	05H
	DW	01eH
	DW	01fH
	DW	01eH
	DW	01fH
	DW	019H
	DW	019H
	DW	019H
	DW	01eH
	DW	01fH
	DW	00H
	DW	00H
	DW	00H
	DW	00H
	DW	00H
	DW	05H
	DW	05H
	DW	05H
	DW	05H
	DW	01bH
	DW	05H
	DW	05H
	DW	0110H
	DW	0110H
	DW	0110H
	DW	0110H
	DW	0110H
	DW	0110H
	DW	0110H
	DW	0110H
	DW	0110H
	DW	0110H
	DW	0110H
	DW	0110H
	DW	0110H
	DW	0110H
	DW	0110H
	DW	0110H
	DW	0110H
	DW	0110H
	DW	0110H
	DW	0110H
	DW	0110H
	DW	0110H
	DW	0110H
	DW	0110H
	DW	0110H
	DW	0110H
	DW	0110H
	DW	0110H
	DW	0110H
	DW	0110H
	DW	0110H
	DW	0110H
	DW	0110H
	DW	0110H
	DW	0110H
	DW	0110H
	DW	0110H
	DW	0110H
	DW	00H
	DW	0110H
	DW	00H
	DW	00H
	DW	00H
	DW	00H
	DW	00H
	DW	0110H
	DW	00H
	DW	00H
	DW	037H
	DW	037H
	DW	037H
	DW	037H
	DW	037H
	DW	037H
	DW	037H
	DW	037H
	DW	037H
	DW	037H
	DW	037H
	DW	037H
	DW	037H
	DW	037H
	DW	037H
	DW	037H
	DW	037H
	DW	037H
	DW	037H
	DW	037H
	DW	037H
	DW	037H
	DW	037H
	DW	037H
	DW	037H
	DW	037H
	DW	037H
	DW	037H
	DW	037H
	DW	037H
	DW	037H
	DW	037H
	DW	037H
	DW	037H
	DW	037H
	DW	037H
	DW	037H
	DW	037H
	DW	037H
	DW	037H
	DW	037H
	DW	037H
	DW	037H
	DW	037H
	DW	037H
	DW	037H
	DW	037H
	DW	037H
	DW	037H
	DW	037H
	DW	037H
	DW	037H
	DW	037H
	DW	037H
	DW	037H
	DW	037H
	DW	00H
	DW	00H
	DW	00H
	DW	00H
	DW	00H
	DW	00H
	DW	00H
	DW	060H
	DW	05H
	DW	00H
	DW	00H
	DW	00H
	DW	00H
	DW	00H
	DW	00H
	DW	00H
	DW	00H
	DW	00H
	DW	00H
	DW	00H
	DW	00H
	DW	00H
	DW	00H
	DW	019H
	DW	037H
	DW	037H
	DW	037H
	DW	037H
	DW	037H
	DW	037H
	DW	037H
	DW	037H
	DW	037H
	DW	037H
	DW	037H
	DW	037H
	DW	037H
	DW	037H
	DW	037H
	DW	037H
	DW	037H
	DW	037H
	DW	037H
	DW	037H
	DW	037H
	DW	037H
	DW	037H
	DW	00H
	DW	00H
	DW	00H
	DW	00H
	DW	00H
	DW	00H
	DW	00H
	DW	00H
	DW	00H
	DW	037H
	DW	037H
	DW	037H
	DW	037H
	DW	037H
	DW	037H
	DW	037H
	DW	00H
	DW	037H
	DW	037H
	DW	037H
	DW	037H
	DW	037H
	DW	037H
	DW	037H
	DW	00H
	DW	037H
	DW	037H
	DW	037H
	DW	037H
	DW	037H
	DW	037H
	DW	037H
	DW	00H
	DW	037H
	DW	037H
	DW	037H
	DW	037H
	DW	037H
	DW	037H
	DW	037H
	DW	00H
	DW	037H
	DW	037H
	DW	037H
	DW	037H
	DW	037H
	DW	037H
	DW	037H
	DW	00H
	DW	037H
	DW	037H
	DW	037H
	DW	037H
	DW	037H
	DW	037H
	DW	037H
	DW	00H
	DW	037H
	DW	037H
	DW	037H
	DW	037H
	DW	037H
	DW	037H
	DW	037H
	DW	00H
	DW	037H
	DW	037H
	DW	037H
	DW	037H
	DW	037H
	DW	037H
	DW	037H
	DW	00H
	DW	019H
	DW	019H
	DW	019H
	DW	019H
	DW	019H
	DW	019H
	DW	019H
	DW	019H
	DW	019H
	DW	019H
	DW	019H
	DW	019H
	DW	019H
	DW	019H
	DW	019H
	DW	019H
	DW	019H
	DW	019H
	DW	019H
	DW	019H
	DW	019H
	DW	019H
	DW	019H
	DW	019H
	DW	019H
	DW	019H
	DW	019H
	DW	019H
	DW	019H
	DW	019H
	DW	019H
	DW	019H
	DW	05H
	DW	05H
	DW	05H
	DW	05H
	DW	05H
	DW	05H
	DW	05H
	DW	05H
	DW	05H
	DW	05H
	DW	05H
	DW	05H
	DW	05H
	DW	05H
	DW	05H
	DW	05H
	DW	05H
	DW	05H
	DW	05H
	DW	05H
	DW	05H
	DW	05H
	DW	05H
	DW	05H
	DW	05H
	DW	05H
	DW	05H
	DW	05H
	DW	05H
	DW	05H
	DW	05H
	DW	05H
	DW	05H
	DW	05H
	DW	05H
	DW	05H
	DW	05H
	DW	05H
	DW	05H
	DW	05H
	DW	05H
	DW	05H
	DW	05H
	DW	05H
	DW	05H
	DW	05H
	DW	05H
	DW	0111H
	DW	05H
	DW	05H
	DW	05H
	DW	05H
	DW	05H
	DW	05H
	DW	05H
	DW	05H
	DW	05H
	DW	05H
	DW	05H
	DW	05H
	DW	00H
	DW	00H
	DW	00H
	DW	00H
	DW	00H
	DW	00H
	DW	00H
	DW	00H
	DW	00H
	DW	00H
	DW	00H
	DW	00H
	DW	00H
	DW	00H
	DW	00H
	DW	00H
	DW	00H
	DW	00H
	DW	00H
	DW	00H
	DW	00H
	DW	00H
	DW	00H
	DW	00H
	DW	00H
	DW	00H
	DW	00H
	DW	00H
	DW	00H
	DW	00H
	DW	00H
	DW	00H
	DW	00H
	DW	00H
	DW	00H
	DW	00H
	DW	00H
	DW	00H
	DW	00H
	DW	00H
	DW	00H
	DW	00H
	DW	00H
	DW	00H
	DW	00H
	DW	00H
	DW	00H
	DW	00H
	DW	00H
	DW	00H
	DW	00H
	DW	00H
	DW	00H
	DW	00H
	DW	00H
	DW	00H
	DW	00H
	DW	00H
	DW	00H
	DW	00H
	DW	00H
	DW	00H
	DW	00H
	DW	00H
	DW	00H
	DW	00H
	DW	00H
	DW	00H
	DW	05H
	DW	05H
	DW	05H
	DW	05H
	DW	05H
	DW	05H
	DW	05H
	DW	05H
	DW	05H
	DW	05H
	DW	05H
	DW	05H
	DW	05H
	DW	05H
	DW	05H
	DW	05H
	DW	05H
	DW	05H
	DW	05H
	DW	05H
	DW	05H
	DW	05H
	DW	05H
	DW	05H
	DW	05H
	DW	05H
	DW	00H
	DW	05H
	DW	05H
	DW	05H
	DW	05H
	DW	05H
	DW	05H
	DW	05H
	DW	05H
	DW	05H
	DW	05H
	DW	05H
	DW	05H
	DW	05H
	DW	05H
	DW	05H
	DW	05H
	DW	05H
	DW	05H
	DW	05H
	DW	05H
	DW	05H
	DW	05H
	DW	05H
	DW	05H
	DW	05H
	DW	05H
	DW	05H
	DW	05H
	DW	05H
	DW	05H
	DW	05H
	DW	05H
	DW	05H
	DW	05H
	DW	05H
	DW	05H
	DW	05H
	DW	05H
	DW	05H
	DW	05H
	DW	05H
	DW	05H
	DW	05H
	DW	05H
	DW	05H
	DW	05H
	DW	05H
	DW	05H
	DW	05H
	DW	05H
	DW	05H
	DW	05H
	DW	05H
	DW	05H
	DW	05H
	DW	05H
	DW	05H
	DW	05H
	DW	05H
	DW	05H
	DW	05H
	DW	05H
	DW	05H
	DW	05H
	DW	05H
	DW	05H
	DW	05H
	DW	05H
	DW	05H
	DW	05H
	DW	05H
	DW	05H
	DW	05H
	DW	05H
	DW	05H
	DW	05H
	DW	05H
	DW	05H
	DW	05H
	DW	05H
	DW	05H
	DW	05H
	DW	05H
	DW	05H
	DW	05H
	DW	05H
	DW	05H
	DW	05H
	DW	05H
	DW	00H
	DW	00H
	DW	00H
	DW	00H
	DW	00H
	DW	00H
	DW	00H
	DW	00H
	DW	00H
	DW	00H
	DW	00H
	DW	00H
	DW	05H
	DW	05H
	DW	05H
	DW	05H
	DW	05H
	DW	05H
	DW	05H
	DW	05H
	DW	05H
	DW	05H
	DW	05H
	DW	05H
	DW	05H
	DW	05H
	DW	05H
	DW	05H
	DW	05H
	DW	05H
	DW	05H
	DW	05H
	DW	05H
	DW	05H
	DW	05H
	DW	05H
	DW	05H
	DW	05H
	DW	05H
	DW	05H
	DW	05H
	DW	05H
	DW	05H
	DW	05H
	DW	05H
	DW	05H
	DW	05H
	DW	05H
	DW	05H
	DW	05H
	DW	05H
	DW	05H
	DW	05H
	DW	05H
	DW	05H
	DW	05H
	DW	05H
	DW	05H
	DW	05H
	DW	05H
	DW	05H
	DW	05H
	DW	05H
	DW	05H
	DW	05H
	DW	05H
	DW	05H
	DW	05H
	DW	05H
	DW	05H
	DW	05H
	DW	05H
	DW	05H
	DW	05H
	DW	05H
	DW	05H
	DW	05H
	DW	05H
	DW	05H
	DW	05H
	DW	05H
	DW	05H
	DW	05H
	DW	05H
	DW	05H
	DW	05H
	DW	05H
	DW	05H
	DW	05H
	DW	05H
	DW	05H
	DW	05H
	DW	05H
	DW	05H
	DW	05H
	DW	05H
	DW	05H
	DW	05H
	DW	00H
	DW	00H
	DW	00H
	DW	00H
	DW	00H
	DW	00H
	DW	00H
	DW	00H
	DW	00H
	DW	00H
	DW	00H
	DW	00H
	DW	00H
	DW	00H
	DW	00H
	DW	00H
	DW	00H
	DW	00H
	DW	00H
	DW	00H
	DW	00H
	DW	00H
	DW	00H
	DW	00H
	DW	00H
	DW	00H
	DW	05H
	DW	05H
	DW	05H
	DW	05H
	DW	05H
	DW	05H
	DW	05H
	DW	05H
	DW	05H
	DW	05H
	DW	05H
	DW	05H
	DW	00H
	DW	00H
	DW	00H
	DW	00H
	DW	02H
	DW	05H
	DW	05H
	DW	05H
	DW	05H
	DW	060H
	DW	037H
	DW	08dH
	DW	05H
	DW	05H
	DW	05H
	DW	05H
	DW	05H
	DW	05H
	DW	05H
	DW	05H
	DW	05H
	DW	05H
	DW	05H
	DW	05H
	DW	05H
	DW	05H
	DW	05H
	DW	05H
	DW	05H
	DW	05H
	DW	05H
	DW	05H
	DW	05H
	DW	05H
	DW	05H
	DW	05H
	DW	05H
	DW	08dH
	DW	08dH
	DW	08dH
	DW	08dH
	DW	08dH
	DW	08dH
	DW	08dH
	DW	08dH
	DW	08dH
	DW	019H
	DW	019H
	DW	019H
	DW	019H
	DW	012H
	DW	012H
	DW	05H
	DW	060H
	DW	060H
	DW	060H
	DW	060H
	DW	060H
	DW	05H
	DW	05H
	DW	08dH
	DW	08dH
	DW	08dH
	DW	060H
	DW	037H
	DW	05H
	DW	05H
	DW	05H
	DW	00H
	DW	037H
	DW	037H
	DW	037H
	DW	037H
	DW	037H
	DW	037H
	DW	037H
	DW	037H
	DW	037H
	DW	037H
	DW	037H
	DW	037H
	DW	037H
	DW	037H
	DW	037H
	DW	037H
	DW	037H
	DW	037H
	DW	037H
	DW	037H
	DW	037H
	DW	037H
	DW	037H
	DW	037H
	DW	037H
	DW	037H
	DW	037H
	DW	037H
	DW	037H
	DW	037H
	DW	037H
	DW	037H
	DW	037H
	DW	037H
	DW	037H
	DW	037H
	DW	037H
	DW	037H
	DW	037H
	DW	037H
	DW	037H
	DW	037H
	DW	037H
	DW	037H
	DW	037H
	DW	037H
	DW	037H
	DW	037H
	DW	037H
	DW	037H
	DW	037H
	DW	037H
	DW	037H
	DW	037H
	DW	037H
	DW	037H
	DW	037H
	DW	037H
	DW	037H
	DW	037H
	DW	037H
	DW	037H
	DW	037H
	DW	037H
	DW	037H
	DW	037H
	DW	037H
	DW	037H
	DW	037H
	DW	037H
	DW	037H
	DW	037H
	DW	037H
	DW	037H
	DW	037H
	DW	037H
	DW	037H
	DW	037H
	DW	037H
	DW	037H
	DW	037H
	DW	037H
	DW	037H
	DW	037H
	DW	037H
	DW	037H
	DW	00H
	DW	00H
	DW	019H
	DW	019H
	DW	06H
	DW	06H
	DW	060H
	DW	060H
	DW	037H
	DW	05H
	DW	037H
	DW	037H
	DW	037H
	DW	037H
	DW	037H
	DW	037H
	DW	037H
	DW	037H
	DW	037H
	DW	037H
	DW	037H
	DW	037H
	DW	037H
	DW	037H
	DW	037H
	DW	037H
	DW	037H
	DW	037H
	DW	037H
	DW	037H
	DW	037H
	DW	037H
	DW	037H
	DW	037H
	DW	037H
	DW	037H
	DW	037H
	DW	037H
	DW	037H
	DW	037H
	DW	037H
	DW	037H
	DW	037H
	DW	037H
	DW	037H
	DW	037H
	DW	037H
	DW	037H
	DW	037H
	DW	037H
	DW	037H
	DW	037H
	DW	037H
	DW	037H
	DW	037H
	DW	037H
	DW	037H
	DW	037H
	DW	037H
	DW	037H
	DW	037H
	DW	037H
	DW	037H
	DW	037H
	DW	037H
	DW	037H
	DW	037H
	DW	037H
	DW	037H
	DW	037H
	DW	037H
	DW	037H
	DW	037H
	DW	037H
	DW	037H
	DW	037H
	DW	037H
	DW	037H
	DW	037H
	DW	037H
	DW	037H
	DW	037H
	DW	037H
	DW	037H
	DW	037H
	DW	037H
	DW	037H
	DW	037H
	DW	037H
	DW	037H
	DW	037H
	DW	037H
	DW	037H
	DW	037H
	DW	037H
	DW	037H
	DW	037H
	DW	037H
	DW	037H
	DW	037H
	DW	05H
	DW	060H
	DW	060H
	DW	060H
	DW	037H
	DW	00H
	DW	00H
	DW	00H
	DW	00H
	DW	00H
	DW	037H
	DW	037H
	DW	037H
	DW	037H
	DW	037H
	DW	037H
	DW	037H
	DW	037H
	DW	037H
	DW	037H
	DW	037H
	DW	037H
	DW	037H
	DW	037H
	DW	037H
	DW	037H
	DW	037H
	DW	037H
	DW	037H
	DW	037H
	DW	037H
	DW	037H
	DW	037H
	DW	037H
	DW	037H
	DW	037H
	DW	037H
	DW	037H
	DW	037H
	DW	037H
	DW	037H
	DW	037H
	DW	037H
	DW	037H
	DW	037H
	DW	037H
	DW	037H
	DW	037H
	DW	037H
	DW	037H
	DW	037H
	DW	00H
	DW	00H
	DW	00H
	DW	037H
	DW	037H
	DW	037H
	DW	037H
	DW	037H
	DW	037H
	DW	037H
	DW	037H
	DW	037H
	DW	037H
	DW	037H
	DW	037H
	DW	037H
	DW	037H
	DW	037H
	DW	037H
	DW	037H
	DW	037H
	DW	037H
	DW	037H
	DW	037H
	DW	037H
	DW	037H
	DW	037H
	DW	037H
	DW	037H
	DW	037H
	DW	037H
	DW	037H
	DW	037H
	DW	037H
	DW	037H
	DW	037H
	DW	037H
	DW	037H
	DW	037H
	DW	037H
	DW	037H
	DW	037H
	DW	037H
	DW	037H
	DW	037H
	DW	037H
	DW	037H
	DW	037H
	DW	037H
	DW	037H
	DW	037H
	DW	037H
	DW	037H
	DW	037H
	DW	037H
	DW	037H
	DW	037H
	DW	037H
	DW	037H
	DW	037H
	DW	037H
	DW	037H
	DW	037H
	DW	037H
	DW	037H
	DW	037H
	DW	037H
	DW	037H
	DW	037H
	DW	037H
	DW	037H
	DW	037H
	DW	037H
	DW	037H
	DW	037H
	DW	037H
	DW	037H
	DW	037H
	DW	037H
	DW	037H
	DW	037H
	DW	037H
	DW	037H
	DW	037H
	DW	037H
	DW	037H
	DW	037H
	DW	037H
	DW	037H
	DW	037H
	DW	037H
	DW	037H
	DW	037H
	DW	037H
	DW	037H
	DW	037H
	DW	037H
	DW	00H
	DW	05H
	DW	05H
	DW	01bH
	DW	01bH
	DW	01bH
	DW	01bH
	DW	05H
	DW	05H
	DW	05H
	DW	05H
	DW	05H
	DW	05H
	DW	05H
	DW	05H
	DW	05H
	DW	05H
	DW	037H
	DW	037H
	DW	037H
	DW	037H
	DW	037H
	DW	037H
	DW	037H
	DW	037H
	DW	037H
	DW	037H
	DW	037H
	DW	037H
	DW	037H
	DW	037H
	DW	037H
	DW	037H
	DW	037H
	DW	037H
	DW	037H
	DW	037H
	DW	037H
	DW	037H
	DW	037H
	DW	037H
	DW	037H
	DW	037H
	DW	037H
	DW	00H
	DW	00H
	DW	00H
	DW	00H
	DW	00H
	DW	05H
	DW	05H
	DW	05H
	DW	05H
	DW	05H
	DW	05H
	DW	05H
	DW	05H
	DW	05H
	DW	05H
	DW	05H
	DW	05H
	DW	05H
	DW	05H
	DW	05H
	DW	05H
	DW	05H
	DW	05H
	DW	05H
	DW	05H
	DW	05H
	DW	05H
	DW	05H
	DW	05H
	DW	05H
	DW	05H
	DW	05H
	DW	05H
	DW	05H
	DW	05H
	DW	05H
	DW	05H
	DW	05H
	DW	05H
	DW	05H
	DW	05H
	DW	00H
	DW	00H
	DW	00H
	DW	00H
	DW	00H
	DW	00H
	DW	00H
	DW	00H
	DW	00H
	DW	00H
	DW	00H
	DW	00H
	DW	037H
	DW	037H
	DW	037H
	DW	037H
	DW	037H
	DW	037H
	DW	037H
	DW	037H
	DW	037H
	DW	037H
	DW	037H
	DW	037H
	DW	037H
	DW	037H
	DW	037H
	DW	037H
	DW	05H
	DW	05H
	DW	05H
	DW	05H
	DW	05H
	DW	05H
	DW	05H
	DW	05H
	DW	05H
	DW	05H
	DW	05H
	DW	05H
	DW	05H
	DW	05H
	DW	05H
	DW	05H
	DW	05H
	DW	05H
	DW	05H
	DW	05H
	DW	05H
	DW	05H
	DW	05H
	DW	05H
	DW	05H
	DW	05H
	DW	05H
	DW	05H
	DW	05H
	DW	05H
	DW	05H
	DW	00H
	DW	01bH
	DW	01bH
	DW	01bH
	DW	01bH
	DW	01bH
	DW	01bH
	DW	01bH
	DW	01bH
	DW	01bH
	DW	01bH
	DW	05H
	DW	05H
	DW	05H
	DW	05H
	DW	05H
	DW	05H
	DW	05H
	DW	05H
	DW	05H
	DW	05H
	DW	05H
	DW	05H
	DW	05H
	DW	05H
	DW	05H
	DW	05H
	DW	05H
	DW	05H
	DW	05H
	DW	05H
	DW	05H
	DW	05H
	DW	05H
	DW	05H
	DW	05H
	DW	05H
	DW	05H
	DW	05H
	DW	05H
	DW	05H
	DW	01bH
	DW	01bH
	DW	01bH
	DW	01bH
	DW	01bH
	DW	01bH
	DW	01bH
	DW	01bH
	DW	05H
	DW	01bH
	DW	01bH
	DW	01bH
	DW	01bH
	DW	01bH
	DW	01bH
	DW	01bH
	DW	01bH
	DW	01bH
	DW	01bH
	DW	01bH
	DW	01bH
	DW	01bH
	DW	01bH
	DW	01bH
	DW	05H
	DW	05H
	DW	05H
	DW	05H
	DW	05H
	DW	05H
	DW	05H
	DW	05H
	DW	05H
	DW	05H
	DW	05H
	DW	05H
	DW	05H
	DW	05H
	DW	05H
	DW	05H
	DW	05H
	DW	05H
	DW	05H
	DW	05H
	DW	05H
	DW	05H
	DW	05H
	DW	05H
	DW	05H
	DW	05H
	DW	05H
	DW	05H
	DW	05H
	DW	05H
	DW	05H
	DW	05H
	DW	01bH
	DW	01bH
	DW	01bH
	DW	01bH
	DW	01bH
	DW	01bH
	DW	01bH
	DW	01bH
	DW	01bH
	DW	01bH
	DW	05H
	DW	05H
	DW	05H
	DW	05H
	DW	05H
	DW	05H
	DW	05H
	DW	05H
	DW	05H
	DW	05H
	DW	05H
	DW	05H
	DW	05H
	DW	05H
	DW	05H
	DW	05H
	DW	05H
	DW	05H
	DW	05H
	DW	05H
	DW	05H
	DW	05H
	DW	05H
	DW	05H
	DW	05H
	DW	05H
	DW	05H
	DW	05H
	DW	05H
	DW	05H
	DW	05H
	DW	05H
	DW	05H
	DW	05H
	DW	05H
	DW	05H
	DW	05H
	DW	05H
	DW	05H
	DW	01bH
	DW	01bH
	DW	01bH
	DW	01bH
	DW	01bH
	DW	01bH
	DW	01bH
	DW	01bH
	DW	01bH
	DW	01bH
	DW	01bH
	DW	01bH
	DW	01bH
	DW	01bH
	DW	01bH
	DW	05H
	DW	05H
	DW	05H
	DW	05H
	DW	05H
	DW	05H
	DW	05H
	DW	05H
	DW	05H
	DW	05H
	DW	05H
	DW	05H
	DW	05H
	DW	05H
	DW	05H
	DW	05H
	DW	05H
	DW	05H
	DW	05H
	DW	05H
	DW	05H
	DW	05H
	DW	05H
	DW	05H
	DW	05H
	DW	05H
	DW	05H
	DW	05H
	DW	05H
	DW	05H
	DW	05H
	DW	05H
	DW	05H
	DW	05H
	DW	05H
	DW	05H
	DW	05H
	DW	05H
	DW	05H
	DW	05H
	DW	05H
	DW	05H
	DW	05H
	DW	05H
	DW	05H
	DW	05H
	DW	05H
	DW	05H
	DW	05H
	DW	05H
	DW	05H
	DW	05H
	DW	05H
	DW	05H
	DW	05H
	DW	05H
	DW	05H
	DW	05H
	DW	05H
	DW	05H
	DW	05H
	DW	05H
	DW	05H
	DW	00H
	DW	037H
	DW	037H
	DW	037H
	DW	037H
	DW	037H
	DW	0112H
	DW	037H
	DW	037H
	DW	037H
	DW	037H
	DW	037H
	DW	037H
	DW	037H
	DW	037H
	DW	037H
	DW	037H
	DW	037H
	DW	037H
	DW	037H
	DW	037H
	DW	037H
	DW	037H
	DW	037H
	DW	037H
	DW	037H
	DW	037H
	DW	037H
	DW	037H
	DW	037H
	DW	037H
	DW	037H
	DW	037H
	DW	037H
	DW	037H
	DW	037H
	DW	037H
	DW	037H
	DW	037H
	DW	037H
	DW	037H
	DW	037H
	DW	037H
	DW	037H
	DW	037H
	DW	037H
	DW	037H
	DW	037H
	DW	037H
	DW	037H
	DW	037H
	DW	037H
	DW	037H
	DW	037H
	DW	037H
	DW	037H
	DW	037H
	DW	037H
	DW	037H
	DW	037H
	DW	037H
	DW	037H
	DW	037H
	DW	037H
	DW	037H
	DW	037H
	DW	037H
	DW	037H
	DW	037H
	DW	037H
	DW	037H
	DW	037H
	DW	037H
	DW	037H
	DW	037H
	DW	037H
	DW	037H
	DW	037H
	DW	037H
	DW	037H
	DW	037H
	DW	037H
	DW	037H
	DW	037H
	DW	037H
	DW	037H
	DW	037H
	DW	037H
	DW	037H
	DW	037H
	DW	037H
	DW	037H
	DW	037H
	DW	037H
	DW	037H
	DW	037H
	DW	037H
	DW	037H
	DW	037H
	DW	037H
	DW	037H
	DW	037H
	DW	037H
	DW	037H
	DW	037H
	DW	037H
	DW	037H
	DW	037H
	DW	037H
	DW	037H
	DW	037H
	DW	037H
	DW	037H
	DW	037H
	DW	037H
	DW	037H
	DW	037H
	DW	037H
	DW	037H
	DW	037H
	DW	037H
	DW	037H
	DW	037H
	DW	037H
	DW	037H
	DW	037H
	DW	037H
	DW	037H
	DW	037H
	DW	037H
	DW	037H
	DW	037H
	DW	0112H
	DW	037H
	DW	037H
	DW	037H
	DW	037H
	DW	037H
	DW	037H
	DW	037H
	DW	037H
	DW	037H
	DW	037H
	DW	037H
	DW	037H
	DW	037H
	DW	037H
	DW	037H
	DW	037H
	DW	037H
	DW	037H
	DW	037H
	DW	037H
	DW	037H
	DW	037H
	DW	037H
	DW	037H
	DW	037H
	DW	037H
	DW	037H
	DW	037H
	DW	037H
	DW	037H
	DW	037H
	DW	037H
	DW	037H
	DW	037H
	DW	037H
	DW	037H
	DW	037H
	DW	037H
	DW	037H
	DW	037H
	DW	037H
	DW	037H
	DW	037H
	DW	037H
	DW	037H
	DW	037H
	DW	037H
	DW	037H
	DW	037H
	DW	037H
	DW	037H
	DW	037H
	DW	037H
	DW	037H
	DW	037H
	DW	037H
	DW	037H
	DW	037H
	DW	037H
	DW	037H
	DW	037H
	DW	037H
	DW	037H
	DW	037H
	DW	037H
	DW	037H
	DW	037H
	DW	037H
	DW	037H
	DW	037H
	DW	037H
	DW	037H
	DW	037H
	DW	037H
	DW	037H
	DW	037H
	DW	037H
	DW	037H
	DW	037H
	DW	037H
	DW	037H
	DW	037H
	DW	037H
	DW	037H
	DW	037H
	DW	037H
	DW	037H
	DW	037H
	DW	037H
	DW	037H
	DW	037H
	DW	037H
	DW	037H
	DW	037H
	DW	037H
	DW	037H
	DW	037H
	DW	037H
	DW	037H
	DW	037H
	DW	037H
	DW	037H
	DW	037H
	DW	037H
	DW	037H
	DW	037H
	DW	037H
	DW	037H
	DW	037H
	DW	037H
	DW	037H
	DW	037H
	DW	037H
	DW	037H
	DW	037H
	DW	037H
	DW	037H
	DW	037H
	DW	037H
	DW	037H
	DW	037H
	DW	037H
	DW	037H
	DW	037H
	DW	037H
	DW	037H
	DW	037H
	DW	037H
	DW	037H
	DW	037H
	DW	037H
	DW	037H
	DW	037H
	DW	037H
	DW	037H
	DW	037H
	DW	037H
	DW	037H
	DW	037H
	DW	037H
	DW	037H
	DW	037H
	DW	037H
	DW	037H
	DW	037H
	DW	037H
	DW	037H
	DW	037H
	DW	037H
	DW	037H
	DW	037H
	DW	037H
	DW	037H
	DW	037H
	DW	037H
	DW	037H
	DW	037H
	DW	037H
	DW	037H
	DW	037H
	DW	037H
	DW	037H
	DW	037H
	DW	037H
	DW	037H
	DW	037H
	DW	0112H
	DW	037H
	DW	037H
	DW	037H
	DW	037H
	DW	037H
	DW	037H
	DW	037H
	DW	037H
	DW	037H
	DW	037H
	DW	037H
	DW	037H
	DW	037H
	DW	037H
	DW	037H
	DW	037H
	DW	037H
	DW	037H
	DW	037H
	DW	037H
	DW	037H
	DW	037H
	DW	037H
	DW	037H
	DW	037H
	DW	037H
	DW	037H
	DW	037H
	DW	037H
	DW	037H
	DW	037H
	DW	037H
	DW	037H
	DW	037H
	DW	037H
	DW	037H
	DW	037H
	DW	037H
	DW	037H
	DW	037H
	DW	037H
	DW	037H
	DW	037H
	DW	037H
	DW	037H
	DW	037H
	DW	037H
	DW	037H
	DW	037H
	DW	037H
	DW	037H
	DW	037H
	DW	037H
	DW	037H
	DW	037H
	DW	037H
	DW	037H
	DW	037H
	DW	037H
	DW	037H
	DW	037H
	DW	037H
	DW	037H
	DW	037H
	DW	037H
	DW	037H
	DW	037H
	DW	037H
	DW	037H
	DW	037H
	DW	037H
	DW	037H
	DW	037H
	DW	037H
	DW	037H
	DW	037H
	DW	037H
	DW	037H
	DW	037H
	DW	037H
	DW	037H
	DW	037H
	DW	037H
	DW	037H
	DW	037H
	DW	037H
	DW	037H
	DW	037H
	DW	037H
	DW	037H
	DW	037H
	DW	037H
	DW	037H
	DW	037H
	DW	037H
	DW	037H
	DW	037H
	DW	037H
	DW	037H
	DW	037H
	DW	037H
	DW	037H
	DW	037H
	DW	037H
	DW	037H
	DW	037H
	DW	037H
	DW	037H
	DW	037H
	DW	037H
	DW	037H
	DW	037H
	DW	037H
	DW	037H
	DW	037H
	DW	037H
	DW	037H
	DW	037H
	DW	037H
	DW	037H
	DW	037H
	DW	037H
	DW	037H
	DW	037H
	DW	037H
	DW	037H
	DW	037H
	DW	037H
	DW	037H
	DW	037H
	DW	037H
	DW	037H
	DW	037H
	DW	037H
	DW	037H
	DW	037H
	DW	037H
	DW	037H
	DW	037H
	DW	037H
	DW	037H
	DW	037H
	DW	037H
	DW	037H
	DW	037H
	DW	037H
	DW	037H
	DW	037H
	DW	037H
	DW	037H
	DW	037H
	DW	037H
	DW	037H
	DW	037H
	DW	037H
	DW	037H
	DW	037H
	DW	037H
	DW	037H
	DW	037H
	DW	037H
	DW	037H
	DW	0112H
	DW	037H
	DW	037H
	DW	037H
	DW	037H
	DW	037H
	DW	037H
	DW	037H
	DW	037H
	DW	037H
	DW	037H
	DW	037H
	DW	037H
	DW	037H
	DW	037H
	DW	037H
	DW	037H
	DW	037H
	DW	037H
	DW	037H
	DW	037H
	DW	037H
	DW	037H
	DW	037H
	DW	037H
	DW	037H
	DW	037H
	DW	037H
	DW	037H
	DW	037H
	DW	037H
	DW	037H
	DW	037H
	DW	037H
	DW	037H
	DW	037H
	DW	037H
	DW	037H
	DW	037H
	DW	037H
	DW	037H
	DW	037H
	DW	037H
	DW	037H
	DW	037H
	DW	037H
	DW	037H
	DW	037H
	DW	037H
	DW	037H
	DW	037H
	DW	037H
	DW	037H
	DW	037H
	DW	037H
	DW	037H
	DW	037H
	DW	037H
	DW	037H
	DW	037H
	DW	037H
	DW	037H
	DW	037H
	DW	037H
	DW	037H
	DW	037H
	DW	037H
	DW	037H
	DW	037H
	DW	037H
	DW	037H
	DW	037H
	DW	037H
	DW	037H
	DW	037H
	DW	037H
	DW	037H
	DW	037H
	DW	037H
	DW	037H
	DW	037H
	DW	037H
	DW	037H
	DW	037H
	DW	037H
	DW	037H
	DW	037H
	DW	037H
	DW	037H
	DW	037H
	DW	037H
	DW	037H
	DW	037H
	DW	037H
	DW	037H
	DW	037H
	DW	037H
	DW	037H
	DW	037H
	DW	037H
	DW	037H
	DW	037H
	DW	037H
	DW	037H
	DW	037H
	DW	00H
	DW	00H
	DW	00H
	DW	00H
	DW	00H
	DW	00H
	DW	00H
	DW	00H
	DW	00H
	DW	00H
	DW	05H
	DW	05H
	DW	05H
	DW	05H
	DW	05H
	DW	05H
	DW	05H
	DW	05H
	DW	05H
	DW	05H
	DW	05H
	DW	05H
	DW	05H
	DW	05H
	DW	05H
	DW	05H
	DW	05H
	DW	05H
	DW	05H
	DW	05H
	DW	05H
	DW	05H
	DW	05H
	DW	05H
	DW	05H
	DW	05H
	DW	05H
	DW	05H
	DW	05H
	DW	05H
	DW	05H
	DW	05H
	DW	05H
	DW	05H
	DW	05H
	DW	05H
	DW	05H
	DW	05H
	DW	05H
	DW	05H
	DW	05H
	DW	05H
	DW	05H
	DW	05H
	DW	05H
	DW	05H
	DW	05H
	DW	05H
	DW	05H
	DW	05H
	DW	05H
	DW	05H
	DW	05H
	DW	05H
	DW	05H
	DW	05H
	DW	05H
	DW	05H
	DW	05H
	DW	05H
	DW	05H
	DW	05H
	DW	05H
	DW	05H
	DW	0112H
	DW	037H
	DW	037H
	DW	0112H
	DW	037H
	DW	037H
	DW	037H
	DW	0112H
	DW	037H
	DW	0112H
	DW	037H
	DW	037H
	DW	037H
	DW	037H
	DW	037H
	DW	037H
	DW	037H
	DW	037H
	DW	037H
	DW	037H
	DW	037H
	DW	037H
	DW	037H
	DW	037H
	DW	037H
	DW	037H
	DW	037H
	DW	037H
	DW	037H
	DW	037H
	DW	037H
	DW	037H
	DW	037H
	DW	037H
	DW	037H
	DW	037H
	DW	037H
	DW	037H
	DW	037H
	DW	037H
	DW	037H
	DW	037H
	DW	037H
	DW	037H
	DW	037H
	DW	037H
	DW	037H
	DW	037H
	DW	037H
	DW	037H
	DW	037H
	DW	037H
	DW	037H
	DW	037H
	DW	037H
	DW	037H
	DW	037H
	DW	037H
	DW	037H
	DW	037H
	DW	037H
	DW	037H
	DW	037H
	DW	037H
	DW	037H
	DW	037H
	DW	037H
	DW	037H
	DW	037H
	DW	037H
	DW	037H
	DW	037H
	DW	037H
	DW	037H
	DW	037H
	DW	037H
	DW	037H
	DW	037H
	DW	037H
	DW	037H
	DW	037H
	DW	037H
	DW	037H
	DW	037H
	DW	037H
	DW	037H
	DW	037H
	DW	037H
	DW	037H
	DW	037H
	DW	037H
	DW	037H
	DW	037H
	DW	0112H
	DW	037H
	DW	037H
	DW	037H
	DW	037H
	DW	037H
	DW	037H
	DW	037H
	DW	037H
	DW	037H
	DW	037H
	DW	037H
	DW	037H
	DW	037H
	DW	037H
	DW	037H
	DW	037H
	DW	037H
	DW	037H
	DW	037H
	DW	037H
	DW	037H
	DW	037H
	DW	037H
	DW	037H
	DW	037H
	DW	037H
	DW	037H
	DW	037H
	DW	037H
	DW	037H
	DW	037H
	DW	037H
	DW	037H
	DW	037H
	DW	037H
	DW	037H
	DW	037H
	DW	037H
	DW	037H
	DW	037H
	DW	037H
	DW	037H
	DW	037H
	DW	037H
	DW	037H
	DW	037H
	DW	0112H
	DW	037H
	DW	037H
	DW	037H
	DW	037H
	DW	037H
	DW	037H
	DW	037H
	DW	0112H
	DW	037H
	DW	0112H
	DW	037H
	DW	037H
	DW	037H
	DW	037H
	DW	037H
	DW	037H
	DW	037H
	DW	037H
	DW	037H
	DW	037H
	DW	037H
	DW	037H
	DW	037H
	DW	037H
	DW	037H
	DW	037H
	DW	037H
	DW	037H
	DW	037H
	DW	037H
	DW	037H
	DW	037H
	DW	037H
	DW	037H
	DW	037H
	DW	037H
	DW	037H
	DW	037H
	DW	037H
	DW	037H
	DW	037H
	DW	037H
	DW	037H
	DW	037H
	DW	037H
	DW	037H
	DW	037H
	DW	037H
	DW	037H
	DW	037H
	DW	0112H
	DW	0112H
	DW	037H
	DW	037H
	DW	037H
	DW	037H
	DW	037H
	DW	037H
	DW	037H
	DW	037H
	DW	037H
	DW	037H
	DW	037H
	DW	037H
	DW	037H
	DW	037H
	DW	037H
	DW	037H
	DW	037H
	DW	037H
	DW	037H
	DW	037H
	DW	037H
	DW	037H
	DW	037H
	DW	037H
	DW	037H
	DW	037H
	DW	037H
	DW	037H
	DW	037H
	DW	037H
	DW	0112H
	DW	037H
	DW	037H
	DW	037H
	DW	037H
	DW	037H
	DW	037H
	DW	037H
	DW	037H
	DW	0112H
	DW	037H
	DW	037H
	DW	037H
	DW	037H
	DW	037H
	DW	037H
	DW	037H
	DW	037H
	DW	037H
	DW	037H
	DW	037H
	DW	037H
	DW	037H
	DW	037H
	DW	037H
	DW	037H
	DW	037H
	DW	037H
	DW	037H
	DW	037H
	DW	037H
	DW	037H
	DW	037H
	DW	037H
	DW	037H
	DW	037H
	DW	037H
	DW	037H
	DW	037H
	DW	037H
	DW	037H
	DW	037H
	DW	037H
	DW	037H
	DW	037H
	DW	037H
	DW	0112H
	DW	037H
	DW	037H
	DW	037H
	DW	037H
	DW	037H
	DW	037H
	DW	037H
	DW	037H
	DW	037H
	DW	037H
	DW	037H
	DW	037H
	DW	037H
	DW	037H
	DW	037H
	DW	037H
	DW	037H
	DW	037H
	DW	037H
	DW	037H
	DW	037H
	DW	037H
	DW	037H
	DW	037H
	DW	037H
	DW	037H
	DW	037H
	DW	037H
	DW	037H
	DW	037H
	DW	037H
	DW	037H
	DW	037H
	DW	037H
	DW	037H
	DW	037H
	DW	037H
	DW	037H
	DW	037H
	DW	037H
	DW	037H
	DW	037H
	DW	037H
	DW	037H
	DW	037H
	DW	037H
	DW	037H
	DW	037H
	DW	037H
	DW	037H
	DW	037H
	DW	037H
	DW	037H
	DW	037H
	DW	037H
	DW	037H
	DW	037H
	DW	037H
	DW	037H
	DW	037H
	DW	037H
	DW	037H
	DW	037H
	DW	037H
	DW	037H
	DW	037H
	DW	037H
	DW	037H
	DW	037H
	DW	037H
	DW	037H
	DW	037H
	DW	037H
	DW	037H
	DW	037H
	DW	037H
	DW	037H
	DW	037H
	DW	037H
	DW	037H
	DW	037H
	DW	037H
	DW	037H
	DW	037H
	DW	037H
	DW	037H
	DW	037H
	DW	037H
	DW	037H
	DW	037H
	DW	037H
	DW	037H
	DW	037H
	DW	037H
	DW	037H
	DW	037H
	DW	037H
	DW	037H
	DW	0112H
	DW	037H
	DW	037H
	DW	037H
	DW	037H
	DW	037H
	DW	037H
	DW	037H
	DW	037H
	DW	037H
	DW	037H
	DW	037H
	DW	037H
	DW	037H
	DW	037H
	DW	037H
	DW	037H
	DW	037H
	DW	037H
	DW	037H
	DW	0112H
	DW	037H
	DW	037H
	DW	037H
	DW	037H
	DW	037H
	DW	037H
	DW	037H
	DW	037H
	DW	037H
	DW	037H
	DW	037H
	DW	037H
	DW	037H
	DW	037H
	DW	037H
	DW	037H
	DW	037H
	DW	037H
	DW	037H
	DW	037H
	DW	037H
	DW	037H
	DW	037H
	DW	037H
	DW	037H
	DW	037H
	DW	037H
	DW	037H
	DW	037H
	DW	037H
	DW	037H
	DW	037H
	DW	037H
	DW	037H
	DW	037H
	DW	037H
	DW	037H
	DW	037H
	DW	037H
	DW	037H
	DW	037H
	DW	037H
	DW	037H
	DW	037H
	DW	037H
	DW	037H
	DW	037H
	DW	037H
	DW	037H
	DW	037H
	DW	037H
	DW	037H
	DW	037H
	DW	037H
	DW	037H
	DW	037H
	DW	037H
	DW	037H
	DW	037H
	DW	037H
	DW	037H
	DW	037H
	DW	037H
	DW	037H
	DW	037H
	DW	0112H
	DW	037H
	DW	037H
	DW	037H
	DW	037H
	DW	037H
	DW	037H
	DW	037H
	DW	037H
	DW	037H
	DW	037H
	DW	037H
	DW	037H
	DW	037H
	DW	037H
	DW	037H
	DW	037H
	DW	037H
	DW	037H
	DW	037H
	DW	037H
	DW	037H
	DW	037H
	DW	037H
	DW	037H
	DW	037H
	DW	037H
	DW	037H
	DW	037H
	DW	037H
	DW	037H
	DW	037H
	DW	037H
	DW	037H
	DW	037H
	DW	0112H
	DW	037H
	DW	0112H
	DW	037H
	DW	0112H
	DW	037H
	DW	037H
	DW	037H
	DW	037H
	DW	037H
	DW	037H
	DW	037H
	DW	037H
	DW	037H
	DW	037H
	DW	037H
	DW	037H
	DW	037H
	DW	037H
	DW	037H
	DW	037H
	DW	037H
	DW	037H
	DW	037H
	DW	037H
	DW	037H
	DW	037H
	DW	037H
	DW	037H
	DW	037H
	DW	037H
	DW	037H
	DW	037H
	DW	037H
	DW	037H
	DW	037H
	DW	037H
	DW	037H
	DW	037H
	DW	037H
	DW	037H
	DW	037H
	DW	037H
	DW	037H
	DW	037H
	DW	037H
	DW	037H
	DW	037H
	DW	037H
	DW	037H
	DW	037H
	DW	037H
	DW	037H
	DW	037H
	DW	037H
	DW	037H
	DW	037H
	DW	037H
	DW	037H
	DW	037H
	DW	037H
	DW	037H
	DW	037H
	DW	037H
	DW	037H
	DW	037H
	DW	037H
	DW	037H
	DW	037H
	DW	037H
	DW	037H
	DW	037H
	DW	037H
	DW	037H
	DW	037H
	DW	037H
	DW	037H
	DW	037H
	DW	037H
	DW	037H
	DW	037H
	DW	037H
	DW	037H
	DW	037H
	DW	037H
	DW	037H
	DW	037H
	DW	037H
	DW	0112H
	DW	037H
	DW	0112H
	DW	0112H
	DW	0112H
	DW	037H
	DW	037H
	DW	037H
	DW	037H
	DW	037H
	DW	037H
	DW	0112H
	DW	037H
	DW	037H
	DW	037H
	DW	037H
	DW	037H
	DW	037H
	DW	037H
	DW	037H
	DW	037H
	DW	037H
	DW	037H
	DW	037H
	DW	037H
	DW	037H
	DW	037H
	DW	037H
	DW	037H
	DW	037H
	DW	037H
	DW	037H
	DW	037H
	DW	037H
	DW	037H
	DW	037H
	DW	037H
	DW	037H
	DW	037H
	DW	037H
	DW	037H
	DW	037H
	DW	037H
	DW	037H
	DW	037H
	DW	037H
	DW	037H
	DW	037H
	DW	037H
	DW	037H
	DW	037H
	DW	037H
	DW	037H
	DW	037H
	DW	037H
	DW	037H
	DW	037H
	DW	037H
	DW	037H
	DW	037H
	DW	037H
	DW	037H
	DW	037H
	DW	037H
	DW	037H
	DW	037H
	DW	037H
	DW	037H
	DW	037H
	DW	037H
	DW	037H
	DW	037H
	DW	037H
	DW	037H
	DW	037H
	DW	037H
	DW	037H
	DW	037H
	DW	037H
	DW	037H
	DW	037H
	DW	037H
	DW	037H
	DW	037H
	DW	037H
	DW	037H
	DW	037H
	DW	037H
	DW	037H
	DW	037H
	DW	037H
	DW	037H
	DW	037H
	DW	037H
	DW	037H
	DW	037H
	DW	037H
	DW	037H
	DW	037H
	DW	037H
	DW	037H
	DW	037H
	DW	037H
	DW	037H
	DW	037H
	DW	037H
	DW	037H
	DW	037H
	DW	037H
	DW	037H
	DW	037H
	DW	037H
	DW	037H
	DW	037H
	DW	037H
	DW	037H
	DW	037H
	DW	037H
	DW	037H
	DW	037H
	DW	037H
	DW	037H
	DW	037H
	DW	037H
	DW	037H
	DW	037H
	DW	037H
	DW	037H
	DW	0112H
	DW	0112H
	DW	0112H
	DW	0112H
	DW	037H
	DW	037H
	DW	037H
	DW	037H
	DW	037H
	DW	037H
	DW	037H
	DW	037H
	DW	037H
	DW	037H
	DW	037H
	DW	037H
	DW	037H
	DW	037H
	DW	037H
	DW	037H
	DW	037H
	DW	037H
	DW	037H
	DW	037H
	DW	037H
	DW	037H
	DW	037H
	DW	037H
	DW	037H
	DW	037H
	DW	037H
	DW	037H
	DW	037H
	DW	037H
	DW	037H
	DW	037H
	DW	037H
	DW	037H
	DW	037H
	DW	037H
	DW	037H
	DW	037H
	DW	037H
	DW	037H
	DW	037H
	DW	037H
	DW	037H
	DW	037H
	DW	037H
	DW	037H
	DW	037H
	DW	037H
	DW	037H
	DW	037H
	DW	037H
	DW	037H
	DW	037H
	DW	037H
	DW	037H
	DW	037H
	DW	037H
	DW	037H
	DW	037H
	DW	037H
	DW	037H
	DW	037H
	DW	037H
	DW	037H
	DW	037H
	DW	037H
	DW	037H
	DW	037H
	DW	037H
	DW	037H
	DW	037H
	DW	037H
	DW	037H
	DW	037H
	DW	037H
	DW	037H
	DW	037H
	DW	037H
	DW	037H
	DW	037H
	DW	037H
	DW	037H
	DW	037H
	DW	037H
	DW	037H
	DW	037H
	DW	037H
	DW	037H
	DW	037H
	DW	037H
	DW	037H
	DW	037H
	DW	037H
	DW	037H
	DW	037H
	DW	037H
	DW	037H
	DW	037H
	DW	037H
	DW	037H
	DW	037H
	DW	037H
	DW	037H
	DW	037H
	DW	037H
	DW	037H
	DW	037H
	DW	037H
	DW	037H
	DW	037H
	DW	037H
	DW	037H
	DW	037H
	DW	037H
	DW	037H
	DW	037H
	DW	037H
	DW	037H
	DW	037H
	DW	037H
	DW	037H
	DW	037H
	DW	037H
	DW	037H
	DW	037H
	DW	037H
	DW	037H
	DW	037H
	DW	037H
	DW	037H
	DW	037H
	DW	037H
	DW	037H
	DW	037H
	DW	037H
	DW	037H
	DW	037H
	DW	037H
	DW	037H
	DW	037H
	DW	037H
	DW	037H
	DW	037H
	DW	037H
	DW	037H
	DW	037H
	DW	037H
	DW	037H
	DW	037H
	DW	037H
	DW	0112H
	DW	037H
	DW	037H
	DW	037H
	DW	037H
	DW	037H
	DW	037H
	DW	037H
	DW	037H
	DW	037H
	DW	037H
	DW	037H
	DW	037H
	DW	037H
	DW	037H
	DW	037H
	DW	037H
	DW	037H
	DW	037H
	DW	037H
	DW	037H
	DW	037H
	DW	037H
	DW	037H
	DW	037H
	DW	037H
	DW	037H
	DW	037H
	DW	037H
	DW	037H
	DW	037H
	DW	037H
	DW	037H
	DW	037H
	DW	037H
	DW	037H
	DW	037H
	DW	037H
	DW	037H
	DW	037H
	DW	037H
	DW	037H
	DW	037H
	DW	037H
	DW	037H
	DW	037H
	DW	037H
	DW	037H
	DW	037H
	DW	037H
	DW	037H
	DW	037H
	DW	037H
	DW	037H
	DW	037H
	DW	037H
	DW	037H
	DW	037H
	DW	037H
	DW	037H
	DW	037H
	DW	037H
	DW	037H
	DW	037H
	DW	037H
	DW	037H
	DW	037H
	DW	037H
	DW	037H
	DW	037H
	DW	037H
	DW	037H
	DW	037H
	DW	037H
	DW	037H
	DW	037H
	DW	037H
	DW	037H
	DW	037H
	DW	037H
	DW	037H
	DW	037H
	DW	037H
	DW	037H
	DW	037H
	DW	037H
	DW	037H
	DW	037H
	DW	037H
	DW	037H
	DW	037H
	DW	037H
	DW	037H
	DW	037H
	DW	037H
	DW	037H
	DW	037H
	DW	037H
	DW	037H
	DW	037H
	DW	037H
	DW	037H
	DW	037H
	DW	037H
	DW	037H
	DW	037H
	DW	037H
	DW	037H
	DW	037H
	DW	037H
	DW	037H
	DW	037H
	DW	037H
	DW	037H
	DW	037H
	DW	037H
	DW	037H
	DW	037H
	DW	037H
	DW	037H
	DW	037H
	DW	037H
	DW	037H
	DW	037H
	DW	037H
	DW	037H
	DW	037H
	DW	037H
	DW	037H
	DW	037H
	DW	037H
	DW	037H
	DW	037H
	DW	037H
	DW	037H
	DW	037H
	DW	037H
	DW	037H
	DW	037H
	DW	037H
	DW	037H
	DW	037H
	DW	037H
	DW	037H
	DW	037H
	DW	037H
	DW	037H
	DW	037H
	DW	037H
	DW	037H
	DW	0112H
	DW	037H
	DW	037H
	DW	037H
	DW	037H
	DW	037H
	DW	037H
	DW	037H
	DW	0112H
	DW	037H
	DW	037H
	DW	037H
	DW	037H
	DW	037H
	DW	037H
	DW	037H
	DW	037H
	DW	037H
	DW	037H
	DW	037H
	DW	037H
	DW	037H
	DW	037H
	DW	037H
	DW	037H
	DW	037H
	DW	037H
	DW	037H
	DW	037H
	DW	037H
	DW	037H
	DW	037H
	DW	037H
	DW	037H
	DW	037H
	DW	037H
	DW	037H
	DW	037H
	DW	037H
	DW	037H
	DW	037H
	DW	037H
	DW	037H
	DW	037H
	DW	037H
	DW	037H
	DW	037H
	DW	037H
	DW	037H
	DW	037H
	DW	037H
	DW	037H
	DW	037H
	DW	037H
	DW	037H
	DW	037H
	DW	037H
	DW	037H
	DW	037H
	DW	037H
	DW	037H
	DW	037H
	DW	037H
	DW	037H
	DW	037H
	DW	037H
	DW	037H
	DW	037H
	DW	037H
	DW	037H
	DW	037H
	DW	037H
	DW	037H
	DW	037H
	DW	037H
	DW	037H
	DW	037H
	DW	037H
	DW	037H
	DW	037H
	DW	037H
	DW	037H
	DW	037H
	DW	037H
	DW	037H
	DW	037H
	DW	037H
	DW	037H
	DW	037H
	DW	037H
	DW	037H
	DW	037H
	DW	037H
	DW	037H
	DW	037H
	DW	037H
	DW	037H
	DW	037H
	DW	037H
	DW	037H
	DW	037H
	DW	037H
	DW	037H
	DW	037H
	DW	037H
	DW	037H
	DW	037H
	DW	037H
	DW	037H
	DW	037H
	DW	037H
	DW	037H
	DW	037H
	DW	037H
	DW	037H
	DW	037H
	DW	037H
	DW	037H
	DW	037H
	DW	037H
	DW	037H
	DW	037H
	DW	037H
	DW	037H
	DW	037H
	DW	037H
	DW	037H
	DW	037H
	DW	037H
	DW	037H
	DW	037H
	DW	037H
	DW	037H
	DW	037H
	DW	037H
	DW	037H
	DW	037H
	DW	0112H
	DW	037H
	DW	037H
	DW	037H
	DW	037H
	DW	037H
	DW	037H
	DW	037H
	DW	037H
	DW	037H
	DW	037H
	DW	037H
	DW	037H
	DW	037H
	DW	037H
	DW	037H
	DW	037H
	DW	037H
	DW	037H
	DW	037H
	DW	037H
	DW	037H
	DW	037H
	DW	037H
	DW	037H
	DW	037H
	DW	037H
	DW	037H
	DW	037H
	DW	037H
	DW	037H
	DW	037H
	DW	037H
	DW	037H
	DW	037H
	DW	037H
	DW	037H
	DW	037H
	DW	037H
	DW	037H
	DW	037H
	DW	037H
	DW	037H
	DW	037H
	DW	037H
	DW	037H
	DW	037H
	DW	037H
	DW	037H
	DW	037H
	DW	037H
	DW	037H
	DW	037H
	DW	037H
	DW	037H
	DW	037H
	DW	037H
	DW	037H
	DW	037H
	DW	037H
	DW	037H
	DW	037H
	DW	037H
	DW	037H
	DW	037H
	DW	037H
	DW	037H
	DW	037H
	DW	037H
	DW	037H
	DW	037H
	DW	037H
	DW	037H
	DW	037H
	DW	037H
	DW	037H
	DW	037H
	DW	037H
	DW	037H
	DW	037H
	DW	037H
	DW	037H
	DW	037H
	DW	037H
	DW	037H
	DW	037H
	DW	037H
	DW	037H
	DW	037H
	DW	037H
	DW	037H
	DW	037H
	DW	037H
	DW	037H
	DW	037H
	DW	037H
	DW	037H
	DW	037H
	DW	037H
	DW	037H
	DW	037H
	DW	037H
	DW	037H
	DW	037H
	DW	037H
	DW	037H
	DW	037H
	DW	037H
	DW	037H
	DW	037H
	DW	037H
	DW	037H
	DW	037H
	DW	037H
	DW	037H
	DW	037H
	DW	037H
	DW	037H
	DW	037H
	DW	037H
	DW	037H
	DW	037H
	DW	037H
	DW	037H
	DW	037H
	DW	037H
	DW	037H
	DW	037H
	DW	037H
	DW	037H
	DW	037H
	DW	037H
	DW	0112H
	DW	0112H
	DW	037H
	DW	037H
	DW	037H
	DW	037H
	DW	037H
	DW	037H
	DW	037H
	DW	037H
	DW	037H
	DW	037H
	DW	037H
	DW	037H
	DW	0112H
	DW	0112H
	DW	0112H
	DW	037H
	DW	0112H
	DW	037H
	DW	037H
	DW	037H
	DW	037H
	DW	037H
	DW	037H
	DW	037H
	DW	037H
	DW	037H
	DW	037H
	DW	037H
	DW	037H
	DW	037H
	DW	037H
	DW	037H
	DW	037H
	DW	037H
	DW	037H
	DW	037H
	DW	037H
	DW	037H
	DW	037H
	DW	037H
	DW	037H
	DW	037H
	DW	037H
	DW	037H
	DW	037H
	DW	037H
	DW	037H
	DW	037H
	DW	037H
	DW	037H
	DW	037H
	DW	037H
	DW	037H
	DW	037H
	DW	037H
	DW	037H
	DW	037H
	DW	037H
	DW	037H
	DW	037H
	DW	037H
	DW	037H
	DW	037H
	DW	037H
	DW	037H
	DW	037H
	DW	037H
	DW	037H
	DW	037H
	DW	037H
	DW	037H
	DW	037H
	DW	037H
	DW	037H
	DW	037H
	DW	037H
	DW	037H
	DW	037H
	DW	037H
	DW	037H
	DW	037H
	DW	037H
	DW	037H
	DW	037H
	DW	037H
	DW	037H
	DW	037H
	DW	037H
	DW	037H
	DW	037H
	DW	037H
	DW	037H
	DW	037H
	DW	037H
	DW	037H
	DW	037H
	DW	037H
	DW	037H
	DW	037H
	DW	037H
	DW	037H
	DW	037H
	DW	037H
	DW	037H
	DW	037H
	DW	037H
	DW	037H
	DW	037H
	DW	037H
	DW	037H
	DW	037H
	DW	037H
	DW	037H
	DW	037H
	DW	037H
	DW	037H
	DW	037H
	DW	037H
	DW	037H
	DW	037H
	DW	037H
	DW	037H
	DW	037H
	DW	037H
	DW	037H
	DW	037H
	DW	037H
	DW	037H
	DW	037H
	DW	037H
	DW	037H
	DW	037H
	DW	037H
	DW	037H
	DW	037H
	DW	037H
	DW	037H
	DW	037H
	DW	037H
	DW	037H
	DW	037H
	DW	037H
	DW	037H
	DW	037H
	DW	037H
	DW	037H
	DW	037H
	DW	037H
	DW	037H
	DW	037H
	DW	037H
	DW	037H
	DW	037H
	DW	037H
	DW	037H
	DW	037H
	DW	037H
	DW	037H
	DW	037H
	DW	037H
	DW	037H
	DW	037H
	DW	037H
	DW	037H
	DW	037H
	DW	037H
	DW	037H
	DW	037H
	DW	037H
	DW	037H
	DW	037H
	DW	037H
	DW	037H
	DW	037H
	DW	037H
	DW	037H
	DW	037H
	DW	037H
	DW	037H
	DW	037H
	DW	037H
	DW	037H
	DW	037H
	DW	037H
	DW	037H
	DW	037H
	DW	037H
	DW	037H
	DW	037H
	DW	037H
	DW	037H
	DW	037H
	DW	037H
	DW	037H
	DW	037H
	DW	037H
	DW	037H
	DW	037H
	DW	037H
	DW	037H
	DW	037H
	DW	037H
	DW	037H
	DW	037H
	DW	037H
	DW	037H
	DW	037H
	DW	037H
	DW	037H
	DW	037H
	DW	037H
	DW	037H
	DW	037H
	DW	037H
	DW	037H
	DW	037H
	DW	037H
	DW	037H
	DW	037H
	DW	037H
	DW	037H
	DW	037H
	DW	037H
	DW	037H
	DW	037H
	DW	037H
	DW	037H
	DW	037H
	DW	037H
	DW	037H
	DW	037H
	DW	037H
	DW	037H
	DW	037H
	DW	037H
	DW	037H
	DW	037H
	DW	037H
	DW	037H
	DW	037H
	DW	037H
	DW	037H
	DW	037H
	DW	037H
	DW	037H
	DW	037H
	DW	037H
	DW	037H
	DW	037H
	DW	037H
	DW	037H
	DW	037H
	DW	037H
	DW	037H
	DW	0112H
	DW	037H
	DW	037H
	DW	037H
	DW	037H
	DW	037H
	DW	037H
	DW	037H
	DW	037H
	DW	037H
	DW	037H
	DW	037H
	DW	037H
	DW	037H
	DW	037H
	DW	037H
	DW	037H
	DW	037H
	DW	037H
	DW	037H
	DW	037H
	DW	037H
	DW	037H
	DW	037H
	DW	037H
	DW	037H
	DW	037H
	DW	037H
	DW	037H
	DW	037H
	DW	037H
	DW	037H
	DW	037H
	DW	037H
	DW	037H
	DW	037H
	DW	037H
	DW	037H
	DW	037H
	DW	037H
	DW	037H
	DW	037H
	DW	037H
	DW	037H
	DW	037H
	DW	037H
	DW	037H
	DW	037H
	DW	037H
	DW	037H
	DW	037H
	DW	037H
	DW	037H
	DW	037H
	DW	037H
	DW	037H
	DW	037H
	DW	037H
	DW	037H
	DW	037H
	DW	037H
	DW	037H
	DW	037H
	DW	037H
	DW	037H
	DW	037H
	DW	037H
	DW	037H
	DW	037H
	DW	037H
	DW	037H
	DW	037H
	DW	037H
	DW	037H
	DW	037H
	DW	037H
	DW	037H
	DW	037H
	DW	0112H
	DW	037H
	DW	037H
	DW	037H
	DW	037H
	DW	037H
	DW	037H
	DW	037H
	DW	037H
	DW	037H
	DW	037H
	DW	037H
	DW	037H
	DW	037H
	DW	037H
	DW	037H
	DW	037H
	DW	037H
	DW	037H
	DW	037H
	DW	037H
	DW	037H
	DW	037H
	DW	037H
	DW	037H
	DW	037H
	DW	037H
	DW	037H
	DW	037H
	DW	037H
	DW	037H
	DW	037H
	DW	037H
	DW	037H
	DW	037H
	DW	037H
	DW	037H
	DW	037H
	DW	037H
	DW	037H
	DW	037H
	DW	037H
	DW	037H
	DW	037H
	DW	037H
	DW	037H
	DW	037H
	DW	037H
	DW	037H
	DW	037H
	DW	037H
	DW	037H
	DW	037H
	DW	037H
	DW	037H
	DW	037H
	DW	037H
	DW	037H
	DW	037H
	DW	037H
	DW	037H
	DW	037H
	DW	037H
	DW	037H
	DW	037H
	DW	037H
	DW	037H
	DW	037H
	DW	037H
	DW	037H
	DW	037H
	DW	037H
	DW	037H
	DW	037H
	DW	037H
	DW	037H
	DW	037H
	DW	037H
	DW	037H
	DW	037H
	DW	037H
	DW	037H
	DW	037H
	DW	037H
	DW	037H
	DW	037H
	DW	037H
	DW	037H
	DW	037H
	DW	037H
	DW	037H
	DW	037H
	DW	037H
	DW	037H
	DW	037H
	DW	037H
	DW	037H
	DW	037H
	DW	037H
	DW	037H
	DW	037H
	DW	037H
	DW	037H
	DW	037H
	DW	037H
	DW	037H
	DW	037H
	DW	037H
	DW	037H
	DW	037H
	DW	037H
	DW	037H
	DW	037H
	DW	037H
	DW	037H
	DW	037H
	DW	037H
	DW	037H
	DW	037H
	DW	037H
	DW	037H
	DW	037H
	DW	037H
	DW	037H
	DW	037H
	DW	037H
	DW	037H
	DW	037H
	DW	037H
	DW	037H
	DW	037H
	DW	037H
	DW	037H
	DW	037H
	DW	0112H
	DW	037H
	DW	037H
	DW	037H
	DW	037H
	DW	037H
	DW	037H
	DW	037H
	DW	037H
	DW	037H
	DW	037H
	DW	037H
	DW	037H
	DW	037H
	DW	037H
	DW	037H
	DW	037H
	DW	037H
	DW	037H
	DW	037H
	DW	037H
	DW	037H
	DW	037H
	DW	037H
	DW	037H
	DW	037H
	DW	037H
	DW	037H
	DW	037H
	DW	037H
	DW	037H
	DW	037H
	DW	037H
	DW	037H
	DW	037H
	DW	037H
	DW	037H
	DW	037H
	DW	037H
	DW	037H
	DW	037H
	DW	037H
	DW	037H
	DW	037H
	DW	037H
	DW	037H
	DW	037H
	DW	037H
	DW	037H
	DW	037H
	DW	037H
	DW	037H
	DW	0112H
	DW	037H
	DW	037H
	DW	037H
	DW	037H
	DW	037H
	DW	037H
	DW	037H
	DW	037H
	DW	037H
	DW	037H
	DW	037H
	DW	037H
	DW	037H
	DW	037H
	DW	037H
	DW	037H
	DW	037H
	DW	037H
	DW	037H
	DW	037H
	DW	037H
	DW	037H
	DW	037H
	DW	037H
	DW	037H
	DW	037H
	DW	037H
	DW	037H
	DW	037H
	DW	037H
	DW	037H
	DW	037H
	DW	037H
	DW	037H
	DW	037H
	DW	037H
	DW	037H
	DW	037H
	DW	037H
	DW	037H
	DW	037H
	DW	037H
	DW	037H
	DW	037H
	DW	037H
	DW	037H
	DW	037H
	DW	037H
	DW	037H
	DW	037H
	DW	037H
	DW	037H
	DW	037H
	DW	037H
	DW	037H
	DW	037H
	DW	037H
	DW	037H
	DW	037H
	DW	037H
	DW	037H
	DW	037H
	DW	037H
	DW	037H
	DW	037H
	DW	037H
	DW	037H
	DW	037H
	DW	037H
	DW	037H
	DW	037H
	DW	037H
	DW	037H
	DW	037H
	DW	037H
	DW	037H
	DW	037H
	DW	037H
	DW	037H
	DW	037H
	DW	037H
	DW	037H
	DW	037H
	DW	037H
	DW	037H
	DW	037H
	DW	037H
	DW	037H
	DW	037H
	DW	037H
	DW	037H
	DW	037H
	DW	037H
	DW	037H
	DW	037H
	DW	037H
	DW	037H
	DW	037H
	DW	037H
	DW	037H
	DW	037H
	DW	037H
	DW	037H
	DW	037H
	DW	037H
	DW	037H
	DW	037H
	DW	037H
	DW	037H
	DW	037H
	DW	037H
	DW	037H
	DW	037H
	DW	037H
	DW	037H
	DW	037H
	DW	037H
	DW	037H
	DW	037H
	DW	037H
	DW	037H
	DW	037H
	DW	037H
	DW	037H
	DW	037H
	DW	037H
	DW	037H
	DW	037H
	DW	037H
	DW	037H
	DW	037H
	DW	037H
	DW	037H
	DW	037H
	DW	037H
	DW	037H
	DW	037H
	DW	037H
	DW	037H
	DW	037H
	DW	037H
	DW	037H
	DW	037H
	DW	0112H
	DW	037H
	DW	037H
	DW	037H
	DW	037H
	DW	037H
	DW	037H
	DW	037H
	DW	037H
	DW	037H
	DW	037H
	DW	037H
	DW	037H
	DW	037H
	DW	037H
	DW	037H
	DW	037H
	DW	037H
	DW	037H
	DW	037H
	DW	037H
	DW	037H
	DW	037H
	DW	037H
	DW	037H
	DW	037H
	DW	037H
	DW	037H
	DW	037H
	DW	037H
	DW	037H
	DW	037H
	DW	037H
	DW	037H
	DW	037H
	DW	037H
	DW	037H
	DW	037H
	DW	037H
	DW	037H
	DW	037H
	DW	037H
	DW	037H
	DW	037H
	DW	037H
	DW	037H
	DW	037H
	DW	037H
	DW	037H
	DW	037H
	DW	037H
	DW	037H
	DW	037H
	DW	037H
	DW	037H
	DW	037H
	DW	037H
	DW	037H
	DW	037H
	DW	037H
	DW	037H
	DW	037H
	DW	037H
	DW	037H
	DW	037H
	DW	037H
	DW	037H
	DW	037H
	DW	037H
	DW	037H
	DW	037H
	DW	037H
	DW	037H
	DW	037H
	DW	037H
	DW	037H
	DW	037H
	DW	037H
	DW	037H
	DW	037H
	DW	037H
	DW	037H
	DW	037H
	DW	037H
	DW	037H
	DW	037H
	DW	037H
	DW	037H
	DW	037H
	DW	037H
	DW	037H
	DW	037H
	DW	037H
	DW	037H
	DW	037H
	DW	037H
	DW	037H
	DW	037H
	DW	037H
	DW	037H
	DW	037H
	DW	037H
	DW	037H
	DW	037H
	DW	037H
	DW	037H
	DW	037H
	DW	037H
	DW	037H
	DW	037H
	DW	037H
	DW	037H
	DW	037H
	DW	037H
	DW	037H
	DW	037H
	DW	037H
	DW	037H
	DW	037H
	DW	037H
	DW	037H
	DW	037H
	DW	037H
	DW	037H
	DW	037H
	DW	037H
	DW	037H
	DW	037H
	DW	037H
	DW	037H
	DW	037H
	DW	037H
	DW	037H
	DW	037H
	DW	037H
	DW	037H
	DW	037H
	DW	037H
	DW	037H
	DW	037H
	DW	037H
	DW	037H
	DW	037H
	DW	037H
	DW	037H
	DW	037H
	DW	037H
	DW	037H
	DW	037H
	DW	037H
	DW	0112H
	DW	037H
	DW	037H
	DW	037H
	DW	037H
	DW	037H
	DW	037H
	DW	037H
	DW	037H
	DW	037H
	DW	037H
	DW	037H
	DW	037H
	DW	037H
	DW	037H
	DW	037H
	DW	037H
	DW	037H
	DW	037H
	DW	037H
	DW	037H
	DW	037H
	DW	037H
	DW	037H
	DW	037H
	DW	037H
	DW	037H
	DW	037H
	DW	037H
	DW	037H
	DW	037H
	DW	037H
	DW	037H
	DW	037H
	DW	037H
	DW	037H
	DW	037H
	DW	037H
	DW	037H
	DW	037H
	DW	037H
	DW	037H
	DW	037H
	DW	037H
	DW	037H
	DW	037H
	DW	037H
	DW	037H
	DW	037H
	DW	037H
	DW	037H
	DW	037H
	DW	037H
	DW	037H
	DW	037H
	DW	037H
	DW	037H
	DW	037H
	DW	037H
	DW	037H
	DW	037H
	DW	037H
	DW	037H
	DW	037H
	DW	037H
	DW	037H
	DW	037H
	DW	037H
	DW	037H
	DW	037H
	DW	037H
	DW	037H
	DW	037H
	DW	037H
	DW	037H
	DW	037H
	DW	037H
	DW	037H
	DW	037H
	DW	037H
	DW	037H
	DW	037H
	DW	037H
	DW	037H
	DW	037H
	DW	037H
	DW	037H
	DW	037H
	DW	037H
	DW	037H
	DW	037H
	DW	037H
	DW	037H
	DW	037H
	DW	037H
	DW	037H
	DW	037H
	DW	037H
	DW	037H
	DW	037H
	DW	037H
	DW	037H
	DW	037H
	DW	037H
	DW	037H
	DW	037H
	DW	037H
	DW	037H
	DW	037H
	DW	037H
	DW	037H
	DW	037H
	DW	037H
	DW	037H
	DW	037H
	DW	037H
	DW	037H
	DW	037H
	DW	037H
	DW	037H
	DW	037H
	DW	037H
	DW	037H
	DW	037H
	DW	037H
	DW	037H
	DW	037H
	DW	037H
	DW	037H
	DW	037H
	DW	0112H
	DW	037H
	DW	037H
	DW	037H
	DW	037H
	DW	0112H
	DW	037H
	DW	037H
	DW	037H
	DW	037H
	DW	037H
	DW	037H
	DW	037H
	DW	037H
	DW	037H
	DW	037H
	DW	037H
	DW	037H
	DW	037H
	DW	037H
	DW	037H
	DW	037H
	DW	037H
	DW	037H
	DW	037H
	DW	037H
	DW	037H
	DW	037H
	DW	037H
	DW	037H
	DW	037H
	DW	037H
	DW	037H
	DW	037H
	DW	037H
	DW	037H
	DW	037H
	DW	037H
	DW	037H
	DW	037H
	DW	037H
	DW	037H
	DW	037H
	DW	037H
	DW	037H
	DW	037H
	DW	037H
	DW	037H
	DW	037H
	DW	037H
	DW	037H
	DW	037H
	DW	037H
	DW	037H
	DW	037H
	DW	037H
	DW	037H
	DW	037H
	DW	037H
	DW	037H
	DW	037H
	DW	037H
	DW	037H
	DW	037H
	DW	037H
	DW	037H
	DW	037H
	DW	037H
	DW	037H
	DW	037H
	DW	037H
	DW	037H
	DW	037H
	DW	037H
	DW	037H
	DW	037H
	DW	037H
	DW	037H
	DW	037H
	DW	037H
	DW	037H
	DW	037H
	DW	037H
	DW	037H
	DW	037H
	DW	037H
	DW	037H
	DW	037H
	DW	037H
	DW	037H
	DW	037H
	DW	037H
	DW	037H
	DW	037H
	DW	037H
	DW	037H
	DW	037H
	DW	037H
	DW	037H
	DW	037H
	DW	037H
	DW	037H
	DW	037H
	DW	037H
	DW	037H
	DW	037H
	DW	037H
	DW	037H
	DW	037H
	DW	037H
	DW	037H
	DW	037H
	DW	037H
	DW	037H
	DW	037H
	DW	037H
	DW	037H
	DW	037H
	DW	037H
	DW	037H
	DW	037H
	DW	037H
	DW	037H
	DW	037H
	DW	037H
	DW	037H
	DW	037H
	DW	037H
	DW	037H
	DW	037H
	DW	0112H
	DW	037H
	DW	037H
	DW	037H
	DW	037H
	DW	037H
	DW	037H
	DW	037H
	DW	037H
	DW	037H
	DW	037H
	DW	037H
	DW	037H
	DW	037H
	DW	037H
	DW	037H
	DW	037H
	DW	037H
	DW	037H
	DW	037H
	DW	037H
	DW	037H
	DW	037H
	DW	037H
	DW	037H
	DW	037H
	DW	037H
	DW	037H
	DW	037H
	DW	037H
	DW	037H
	DW	037H
	DW	037H
	DW	037H
	DW	037H
	DW	037H
	DW	037H
	DW	037H
	DW	037H
	DW	037H
	DW	037H
	DW	037H
	DW	037H
	DW	037H
	DW	037H
	DW	037H
	DW	037H
	DW	037H
	DW	037H
	DW	037H
	DW	037H
	DW	037H
	DW	037H
	DW	037H
	DW	037H
	DW	037H
	DW	037H
	DW	037H
	DW	037H
	DW	037H
	DW	037H
	DW	037H
	DW	037H
	DW	037H
	DW	037H
	DW	037H
	DW	037H
	DW	037H
	DW	037H
	DW	037H
	DW	037H
	DW	037H
	DW	037H
	DW	037H
	DW	037H
	DW	037H
	DW	037H
	DW	037H
	DW	037H
	DW	037H
	DW	037H
	DW	037H
	DW	037H
	DW	037H
	DW	037H
	DW	037H
	DW	037H
	DW	037H
	DW	037H
	DW	037H
	DW	037H
	DW	037H
	DW	037H
	DW	037H
	DW	037H
	DW	037H
	DW	037H
	DW	037H
	DW	037H
	DW	037H
	DW	037H
	DW	037H
	DW	037H
	DW	037H
	DW	037H
	DW	037H
	DW	037H
	DW	037H
	DW	037H
	DW	037H
	DW	037H
	DW	037H
	DW	037H
	DW	0112H
	DW	037H
	DW	037H
	DW	037H
	DW	037H
	DW	037H
	DW	037H
	DW	037H
	DW	037H
	DW	037H
	DW	037H
	DW	037H
	DW	037H
	DW	037H
	DW	037H
	DW	037H
	DW	037H
	DW	037H
	DW	037H
	DW	037H
	DW	037H
	DW	037H
	DW	037H
	DW	037H
	DW	037H
	DW	037H
	DW	037H
	DW	037H
	DW	037H
	DW	037H
	DW	037H
	DW	037H
	DW	037H
	DW	037H
	DW	037H
	DW	037H
	DW	037H
	DW	0112H
	DW	037H
	DW	037H
	DW	037H
	DW	037H
	DW	037H
	DW	0112H
	DW	037H
	DW	037H
	DW	037H
	DW	037H
	DW	037H
	DW	037H
	DW	037H
	DW	037H
	DW	037H
	DW	037H
	DW	037H
	DW	037H
	DW	037H
	DW	037H
	DW	037H
	DW	037H
	DW	037H
	DW	037H
	DW	037H
	DW	037H
	DW	037H
	DW	037H
	DW	037H
	DW	037H
	DW	037H
	DW	037H
	DW	037H
	DW	037H
	DW	037H
	DW	037H
	DW	037H
	DW	037H
	DW	037H
	DW	037H
	DW	037H
	DW	037H
	DW	037H
	DW	037H
	DW	037H
	DW	037H
	DW	037H
	DW	037H
	DW	037H
	DW	0112H
	DW	037H
	DW	037H
	DW	037H
	DW	037H
	DW	037H
	DW	037H
	DW	037H
	DW	037H
	DW	037H
	DW	037H
	DW	037H
	DW	037H
	DW	037H
	DW	037H
	DW	037H
	DW	037H
	DW	037H
	DW	037H
	DW	037H
	DW	037H
	DW	037H
	DW	037H
	DW	037H
	DW	037H
	DW	037H
	DW	037H
	DW	037H
	DW	037H
	DW	037H
	DW	037H
	DW	037H
	DW	037H
	DW	037H
	DW	037H
	DW	037H
	DW	037H
	DW	037H
	DW	037H
	DW	037H
	DW	037H
	DW	037H
	DW	037H
	DW	037H
	DW	037H
	DW	037H
	DW	037H
	DW	037H
	DW	037H
	DW	037H
	DW	037H
	DW	037H
	DW	037H
	DW	037H
	DW	037H
	DW	037H
	DW	037H
	DW	037H
	DW	037H
	DW	037H
	DW	037H
	DW	037H
	DW	037H
	DW	037H
	DW	037H
	DW	037H
	DW	037H
	DW	037H
	DW	037H
	DW	037H
	DW	037H
	DW	037H
	DW	037H
	DW	037H
	DW	037H
	DW	037H
	DW	037H
	DW	037H
	DW	037H
	DW	037H
	DW	037H
	DW	037H
	DW	037H
	DW	037H
	DW	037H
	DW	037H
	DW	037H
	DW	037H
	DW	037H
	DW	037H
	DW	037H
	DW	037H
	DW	037H
	DW	037H
	DW	037H
	DW	037H
	DW	037H
	DW	037H
	DW	037H
	DW	037H
	DW	037H
	DW	037H
	DW	037H
	DW	037H
	DW	037H
	DW	037H
	DW	037H
	DW	037H
	DW	037H
	DW	037H
	DW	037H
	DW	037H
	DW	037H
	DW	037H
	DW	037H
	DW	037H
	DW	037H
	DW	037H
	DW	037H
	DW	037H
	DW	037H
	DW	037H
	DW	037H
	DW	037H
	DW	037H
	DW	037H
	DW	0112H
	DW	037H
	DW	037H
	DW	037H
	DW	037H
	DW	037H
	DW	037H
	DW	037H
	DW	037H
	DW	037H
	DW	037H
	DW	037H
	DW	037H
	DW	037H
	DW	037H
	DW	037H
	DW	037H
	DW	037H
	DW	037H
	DW	037H
	DW	037H
	DW	037H
	DW	037H
	DW	037H
	DW	037H
	DW	037H
	DW	037H
	DW	037H
	DW	037H
	DW	037H
	DW	037H
	DW	037H
	DW	037H
	DW	037H
	DW	037H
	DW	037H
	DW	037H
	DW	037H
	DW	037H
	DW	037H
	DW	037H
	DW	037H
	DW	037H
	DW	037H
	DW	037H
	DW	037H
	DW	037H
	DW	037H
	DW	037H
	DW	037H
	DW	037H
	DW	037H
	DW	037H
	DW	037H
	DW	037H
	DW	037H
	DW	037H
	DW	037H
	DW	037H
	DW	037H
	DW	037H
	DW	037H
	DW	037H
	DW	037H
	DW	037H
	DW	037H
	DW	037H
	DW	037H
	DW	037H
	DW	037H
	DW	037H
	DW	037H
	DW	037H
	DW	037H
	DW	037H
	DW	037H
	DW	037H
	DW	037H
	DW	037H
	DW	037H
	DW	037H
	DW	037H
	DW	037H
	DW	037H
	DW	037H
	DW	037H
	DW	037H
	DW	00H
	DW	00H
	DW	00H
	DW	00H
	DW	00H
	DW	00H
	DW	00H
	DW	00H
	DW	00H
	DW	00H
	DW	00H
	DW	00H
	DW	00H
	DW	00H
	DW	00H
	DW	00H
	DW	00H
	DW	00H
	DW	00H
	DW	00H
	DW	00H
	DW	00H
	DW	00H
	DW	00H
	DW	00H
	DW	00H
	DW	00H
	DW	00H
	DW	00H
	DW	00H
	DW	00H
	DW	00H
	DW	00H
	DW	00H
	DW	00H
	DW	00H
	DW	00H
	DW	00H
	DW	00H
	DW	00H
	DW	00H
	DW	00H
	DW	00H
	DW	00H
	DW	00H
	DW	00H
	DW	00H
	DW	00H
	DW	00H
	DW	00H
	DW	00H
	DW	037H
	DW	037H
	DW	037H
	DW	037H
	DW	037H
	DW	037H
	DW	037H
	DW	037H
	DW	037H
	DW	037H
	DW	037H
	DW	037H
	DW	037H
	DW	037H
	DW	037H
	DW	037H
	DW	037H
	DW	037H
	DW	037H
	DW	037H
	DW	037H
	DW	060H
	DW	037H
	DW	037H
	DW	037H
	DW	037H
	DW	037H
	DW	037H
	DW	037H
	DW	037H
	DW	037H
	DW	037H
	DW	037H
	DW	037H
	DW	037H
	DW	037H
	DW	037H
	DW	037H
	DW	037H
	DW	037H
	DW	037H
	DW	037H
	DW	037H
	DW	037H
	DW	037H
	DW	037H
	DW	037H
	DW	037H
	DW	037H
	DW	037H
	DW	037H
	DW	037H
	DW	037H
	DW	037H
	DW	037H
	DW	037H
	DW	037H
	DW	037H
	DW	037H
	DW	037H
	DW	037H
	DW	037H
	DW	037H
	DW	037H
	DW	037H
	DW	037H
	DW	037H
	DW	037H
	DW	037H
	DW	037H
	DW	037H
	DW	037H
	DW	037H
	DW	037H
	DW	037H
	DW	037H
	DW	037H
	DW	037H
	DW	037H
	DW	037H
	DW	037H
	DW	037H
	DW	037H
	DW	037H
	DW	037H
	DW	037H
	DW	037H
	DW	037H
	DW	037H
	DW	037H
	DW	037H
	DW	037H
	DW	037H
	DW	037H
	DW	037H
	DW	037H
	DW	037H
	DW	037H
	DW	037H
	DW	037H
	DW	037H
	DW	037H
	DW	037H
	DW	037H
	DW	037H
	DW	037H
	DW	037H
	DW	037H
	DW	037H
	DW	037H
	DW	037H
	DW	037H
	DW	037H
	DW	037H
	DW	037H
	DW	037H
	DW	037H
	DW	037H
	DW	037H
	DW	037H
	DW	037H
	DW	037H
	DW	037H
	DW	037H
	DW	037H
	DW	037H
	DW	037H
	DW	037H
	DW	037H
	DW	037H
	DW	037H
	DW	037H
	DW	037H
	DW	037H
	DW	037H
	DW	037H
	DW	037H
	DW	037H
	DW	037H
	DW	037H
	DW	037H
	DW	00H
	DW	00H
	DW	00H
	DW	05H
	DW	05H
	DW	05H
	DW	05H
	DW	05H
	DW	05H
	DW	05H
	DW	05H
	DW	05H
	DW	05H
	DW	05H
	DW	05H
	DW	05H
	DW	05H
	DW	05H
	DW	05H
	DW	05H
	DW	05H
	DW	05H
	DW	05H
	DW	05H
	DW	05H
	DW	05H
	DW	05H
	DW	05H
	DW	05H
	DW	05H
	DW	05H
	DW	05H
	DW	05H
	DW	05H
	DW	05H
	DW	05H
	DW	05H
	DW	05H
	DW	05H
	DW	05H
	DW	05H
	DW	05H
	DW	05H
	DW	05H
	DW	05H
	DW	05H
	DW	05H
	DW	05H
	DW	05H
	DW	05H
	DW	05H
	DW	05H
	DW	05H
	DW	05H
	DW	05H
	DW	05H
	DW	05H
	DW	05H
	DW	00H
	DW	00H
	DW	00H
	DW	00H
	DW	00H
	DW	00H
	DW	00H
	DW	00H
	DW	00H
	DW	037H
	DW	037H
	DW	037H
	DW	037H
	DW	037H
	DW	037H
	DW	037H
	DW	037H
	DW	037H
	DW	037H
	DW	037H
	DW	037H
	DW	037H
	DW	037H
	DW	037H
	DW	037H
	DW	037H
	DW	037H
	DW	037H
	DW	037H
	DW	037H
	DW	037H
	DW	037H
	DW	037H
	DW	037H
	DW	037H
	DW	037H
	DW	037H
	DW	037H
	DW	037H
	DW	037H
	DW	037H
	DW	037H
	DW	037H
	DW	037H
	DW	037H
	DW	037H
	DW	037H
	DW	037H
	DW	037H
	DW	060H
	DW	060H
	DW	060H
	DW	060H
	DW	060H
	DW	060H
	DW	05H
	DW	05H
	DW	037H
	DW	037H
	DW	037H
	DW	037H
	DW	037H
	DW	037H
	DW	037H
	DW	037H
	DW	037H
	DW	037H
	DW	037H
	DW	037H
	DW	060H
	DW	05H
	DW	05H
	DW	05H
	DW	037H
	DW	037H
	DW	037H
	DW	037H
	DW	037H
	DW	037H
	DW	037H
	DW	037H
	DW	037H
	DW	037H
	DW	037H
	DW	037H
	DW	037H
	DW	037H
	DW	037H
	DW	037H
	DW	07H
	DW	08H
	DW	09H
	DW	0aH
	DW	0bH
	DW	0cH
	DW	0dH
	DW	0eH
	DW	0fH
	DW	010H
	DW	037H
	DW	037H
	DW	00H
	DW	00H
	DW	00H
	DW	00H
	DW	00H
	DW	00H
	DW	00H
	DW	00H
	DW	00H
	DW	00H
	DW	00H
	DW	00H
	DW	00H
	DW	00H
	DW	00H
	DW	00H
	DW	00H
	DW	00H
	DW	00H
	DW	00H
	DW	01eH
	DW	01fH
	DW	01eH
	DW	01fH
	DW	01eH
	DW	01fH
	DW	01eH
	DW	01fH
	DW	01eH
	DW	01fH
	DW	01eH
	DW	01fH
	DW	01eH
	DW	01fH
	DW	01eH
	DW	01fH
	DW	01eH
	DW	01fH
	DW	01eH
	DW	01fH
	DW	01eH
	DW	01fH
	DW	01eH
	DW	01fH
	DW	01eH
	DW	01fH
	DW	01eH
	DW	01fH
	DW	01eH
	DW	01fH
	DW	01eH
	DW	01fH
	DW	01eH
	DW	01fH
	DW	01eH
	DW	01fH
	DW	01eH
	DW	01fH
	DW	01eH
	DW	01fH
	DW	01eH
	DW	01fH
	DW	01eH
	DW	01fH
	DW	01eH
	DW	01fH
	DW	037H
	DW	019H
	DW	06H
	DW	06H
	DW	06H
	DW	05H
	DW	019H
	DW	019H
	DW	019H
	DW	019H
	DW	019H
	DW	019H
	DW	019H
	DW	019H
	DW	019H
	DW	019H
	DW	05H
	DW	060H
	DW	01eH
	DW	01fH
	DW	01eH
	DW	01fH
	DW	01eH
	DW	01fH
	DW	01eH
	DW	01fH
	DW	01eH
	DW	01fH
	DW	01eH
	DW	01fH
	DW	01eH
	DW	01fH
	DW	01eH
	DW	01fH
	DW	01eH
	DW	01fH
	DW	01eH
	DW	01fH
	DW	01eH
	DW	01fH
	DW	01eH
	DW	01fH
	DW	00H
	DW	00H
	DW	00H
	DW	00H
	DW	00H
	DW	00H
	DW	00H
	DW	019H
	DW	037H
	DW	037H
	DW	037H
	DW	037H
	DW	037H
	DW	037H
	DW	037H
	DW	037H
	DW	037H
	DW	037H
	DW	037H
	DW	037H
	DW	037H
	DW	037H
	DW	037H
	DW	037H
	DW	037H
	DW	037H
	DW	037H
	DW	037H
	DW	037H
	DW	037H
	DW	037H
	DW	037H
	DW	037H
	DW	037H
	DW	037H
	DW	037H
	DW	037H
	DW	037H
	DW	037H
	DW	037H
	DW	037H
	DW	037H
	DW	037H
	DW	037H
	DW	037H
	DW	037H
	DW	037H
	DW	037H
	DW	037H
	DW	037H
	DW	037H
	DW	037H
	DW	037H
	DW	037H
	DW	037H
	DW	037H
	DW	037H
	DW	037H
	DW	037H
	DW	037H
	DW	037H
	DW	037H
	DW	037H
	DW	037H
	DW	037H
	DW	037H
	DW	037H
	DW	037H
	DW	037H
	DW	037H
	DW	037H
	DW	037H
	DW	037H
	DW	037H
	DW	037H
	DW	037H
	DW	037H
	DW	037H
	DW	08dH
	DW	08dH
	DW	08dH
	DW	08dH
	DW	08dH
	DW	08dH
	DW	08dH
	DW	08dH
	DW	08dH
	DW	08dH
	DW	019H
	DW	019H
	DW	05H
	DW	05H
	DW	05H
	DW	05H
	DW	05H
	DW	05H
	DW	00H
	DW	00H
	DW	00H
	DW	00H
	DW	00H
	DW	00H
	DW	00H
	DW	00H
	DW	06H
	DW	06H
	DW	06H
	DW	06H
	DW	06H
	DW	06H
	DW	06H
	DW	06H
	DW	06H
	DW	06H
	DW	06H
	DW	06H
	DW	06H
	DW	06H
	DW	06H
	DW	06H
	DW	06H
	DW	06H
	DW	06H
	DW	06H
	DW	06H
	DW	06H
	DW	06H
	DW	060H
	DW	060H
	DW	060H
	DW	060H
	DW	060H
	DW	060H
	DW	060H
	DW	060H
	DW	060H
	DW	06H
	DW	06H
	DW	01eH
	DW	01fH
	DW	01eH
	DW	01fH
	DW	01eH
	DW	01fH
	DW	01eH
	DW	01fH
	DW	01eH
	DW	01fH
	DW	01eH
	DW	01fH
	DW	01eH
	DW	01fH
	DW	014H
	DW	014H
	DW	01eH
	DW	01fH
	DW	01eH
	DW	01fH
	DW	01eH
	DW	01fH
	DW	01eH
	DW	01fH
	DW	01eH
	DW	01fH
	DW	01eH
	DW	01fH
	DW	01eH
	DW	01fH
	DW	01eH
	DW	01fH
	DW	01eH
	DW	01fH
	DW	01eH
	DW	01fH
	DW	01eH
	DW	01fH
	DW	01eH
	DW	01fH
	DW	01eH
	DW	01fH
	DW	01eH
	DW	01fH
	DW	01eH
	DW	01fH
	DW	01eH
	DW	01fH
	DW	01eH
	DW	01fH
	DW	01eH
	DW	01fH
	DW	01eH
	DW	01fH
	DW	01eH
	DW	01fH
	DW	01eH
	DW	01fH
	DW	01eH
	DW	01fH
	DW	01eH
	DW	01fH
	DW	01eH
	DW	01fH
	DW	01eH
	DW	01fH
	DW	01eH
	DW	01fH
	DW	01eH
	DW	01fH
	DW	01eH
	DW	01fH
	DW	01eH
	DW	01fH
	DW	01eH
	DW	01fH
	DW	01eH
	DW	01fH
	DW	05fH
	DW	014H
	DW	014H
	DW	014H
	DW	014H
	DW	014H
	DW	014H
	DW	014H
	DW	014H
	DW	01eH
	DW	01fH
	DW	01eH
	DW	01fH
	DW	0113H
	DW	01eH
	DW	01fH
	DW	01eH
	DW	01fH
	DW	01eH
	DW	01fH
	DW	01eH
	DW	01fH
	DW	01eH
	DW	01fH
	DW	060H
	DW	06H
	DW	06H
	DW	01eH
	DW	01fH
	DW	0114H
	DW	014H
	DW	00H
	DW	01eH
	DW	01fH
	DW	01eH
	DW	01fH
	DW	00H
	DW	00H
	DW	00H
	DW	00H
	DW	00H
	DW	00H
	DW	00H
	DW	00H
	DW	00H
	DW	00H
	DW	00H
	DW	00H
	DW	01eH
	DW	01fH
	DW	01eH
	DW	01fH
	DW	01eH
	DW	01fH
	DW	01eH
	DW	01fH
	DW	01eH
	DW	01fH
	DW	0115H
	DW	00H
	DW	00H
	DW	00H
	DW	00H
	DW	00H
	DW	00H
	DW	00H
	DW	00H
	DW	00H
	DW	00H
	DW	00H
	DW	00H
	DW	00H
	DW	00H
	DW	00H
	DW	00H
	DW	00H
	DW	00H
	DW	00H
	DW	00H
	DW	00H
	DW	00H
	DW	00H
	DW	00H
	DW	00H
	DW	00H
	DW	00H
	DW	00H
	DW	00H
	DW	00H
	DW	00H
	DW	00H
	DW	00H
	DW	00H
	DW	00H
	DW	00H
	DW	00H
	DW	00H
	DW	00H
	DW	00H
	DW	00H
	DW	00H
	DW	00H
	DW	00H
	DW	00H
	DW	00H
	DW	00H
	DW	00H
	DW	00H
	DW	00H
	DW	00H
	DW	00H
	DW	00H
	DW	00H
	DW	00H
	DW	00H
	DW	00H
	DW	00H
	DW	00H
	DW	00H
	DW	00H
	DW	00H
	DW	00H
	DW	00H
	DW	00H
	DW	00H
	DW	00H
	DW	00H
	DW	00H
	DW	00H
	DW	00H
	DW	00H
	DW	00H
	DW	00H
	DW	00H
	DW	00H
	DW	00H
	DW	05fH
	DW	05fH
	DW	014H
	DW	037H
	DW	037H
	DW	037H
	DW	037H
	DW	037H
	DW	037H
	DW	037H
	DW	019H
	DW	037H
	DW	037H
	DW	037H
	DW	019H
	DW	037H
	DW	037H
	DW	037H
	DW	037H
	DW	019H
	DW	037H
	DW	037H
	DW	037H
	DW	037H
	DW	037H
	DW	037H
	DW	037H
	DW	037H
	DW	037H
	DW	037H
	DW	037H
	DW	037H
	DW	037H
	DW	037H
	DW	037H
	DW	037H
	DW	037H
	DW	037H
	DW	037H
	DW	037H
	DW	037H
	DW	037H
	DW	037H
	DW	012H
	DW	012H
	DW	019H
	DW	019H
	DW	012H
	DW	05H
	DW	05H
	DW	05H
	DW	05H
	DW	00H
	DW	00H
	DW	00H
	DW	00H
	DW	01bH
	DW	01bH
	DW	01bH
	DW	01bH
	DW	01bH
	DW	01bH
	DW	05H
	DW	05H
	DW	05H
	DW	05H
	DW	00H
	DW	00H
	DW	00H
	DW	00H
	DW	00H
	DW	00H
	DW	037H
	DW	037H
	DW	037H
	DW	037H
	DW	037H
	DW	037H
	DW	037H
	DW	037H
	DW	037H
	DW	037H
	DW	037H
	DW	037H
	DW	037H
	DW	037H
	DW	037H
	DW	037H
	DW	037H
	DW	037H
	DW	037H
	DW	037H
	DW	037H
	DW	037H
	DW	037H
	DW	037H
	DW	037H
	DW	037H
	DW	037H
	DW	037H
	DW	037H
	DW	037H
	DW	037H
	DW	037H
	DW	037H
	DW	037H
	DW	037H
	DW	037H
	DW	037H
	DW	037H
	DW	037H
	DW	037H
	DW	037H
	DW	037H
	DW	037H
	DW	037H
	DW	037H
	DW	037H
	DW	037H
	DW	037H
	DW	037H
	DW	037H
	DW	037H
	DW	037H
	DW	05H
	DW	05H
	DW	05H
	DW	05H
	DW	00H
	DW	00H
	DW	00H
	DW	00H
	DW	00H
	DW	00H
	DW	00H
	DW	00H
	DW	012H
	DW	012H
	DW	037H
	DW	037H
	DW	037H
	DW	037H
	DW	037H
	DW	037H
	DW	037H
	DW	037H
	DW	037H
	DW	037H
	DW	037H
	DW	037H
	DW	037H
	DW	037H
	DW	037H
	DW	037H
	DW	037H
	DW	037H
	DW	037H
	DW	037H
	DW	037H
	DW	037H
	DW	037H
	DW	037H
	DW	037H
	DW	037H
	DW	037H
	DW	037H
	DW	037H
	DW	037H
	DW	037H
	DW	037H
	DW	037H
	DW	037H
	DW	037H
	DW	037H
	DW	037H
	DW	037H
	DW	037H
	DW	037H
	DW	037H
	DW	037H
	DW	037H
	DW	037H
	DW	037H
	DW	037H
	DW	037H
	DW	037H
	DW	037H
	DW	037H
	DW	012H
	DW	012H
	DW	012H
	DW	012H
	DW	012H
	DW	012H
	DW	012H
	DW	012H
	DW	012H
	DW	012H
	DW	012H
	DW	012H
	DW	012H
	DW	012H
	DW	012H
	DW	012H
	DW	019H
	DW	00H
	DW	00H
	DW	00H
	DW	00H
	DW	00H
	DW	00H
	DW	00H
	DW	00H
	DW	00H
	DW	05H
	DW	05H
	DW	07H
	DW	08H
	DW	09H
	DW	0aH
	DW	0bH
	DW	0cH
	DW	0dH
	DW	0eH
	DW	0fH
	DW	010H
	DW	00H
	DW	00H
	DW	00H
	DW	00H
	DW	00H
	DW	00H
	DW	019H
	DW	019H
	DW	019H
	DW	019H
	DW	019H
	DW	019H
	DW	019H
	DW	019H
	DW	019H
	DW	019H
	DW	019H
	DW	019H
	DW	019H
	DW	019H
	DW	019H
	DW	019H
	DW	019H
	DW	019H
	DW	037H
	DW	037H
	DW	037H
	DW	037H
	DW	037H
	DW	037H
	DW	05H
	DW	05H
	DW	05H
	DW	037H
	DW	00H
	DW	00H
	DW	00H
	DW	00H
	DW	07H
	DW	08H
	DW	09H
	DW	0aH
	DW	0bH
	DW	0cH
	DW	0dH
	DW	0eH
	DW	0fH
	DW	010H
	DW	037H
	DW	037H
	DW	037H
	DW	037H
	DW	037H
	DW	037H
	DW	037H
	DW	037H
	DW	037H
	DW	037H
	DW	037H
	DW	037H
	DW	037H
	DW	037H
	DW	037H
	DW	037H
	DW	037H
	DW	037H
	DW	037H
	DW	037H
	DW	037H
	DW	037H
	DW	037H
	DW	037H
	DW	037H
	DW	037H
	DW	037H
	DW	037H
	DW	019H
	DW	019H
	DW	019H
	DW	019H
	DW	019H
	DW	019H
	DW	019H
	DW	019H
	DW	05H
	DW	05H
	DW	037H
	DW	037H
	DW	037H
	DW	037H
	DW	037H
	DW	037H
	DW	037H
	DW	037H
	DW	037H
	DW	037H
	DW	037H
	DW	037H
	DW	037H
	DW	037H
	DW	037H
	DW	037H
	DW	037H
	DW	037H
	DW	037H
	DW	037H
	DW	037H
	DW	037H
	DW	037H
	DW	019H
	DW	019H
	DW	019H
	DW	019H
	DW	019H
	DW	019H
	DW	019H
	DW	019H
	DW	019H
	DW	019H
	DW	019H
	DW	012H
	DW	012H
	DW	00H
	DW	00H
	DW	00H
	DW	00H
	DW	00H
	DW	00H
	DW	00H
	DW	00H
	DW	00H
	DW	00H
	DW	00H
	DW	05H
	DW	037H
	DW	037H
	DW	037H
	DW	037H
	DW	037H
	DW	037H
	DW	037H
	DW	037H
	DW	037H
	DW	037H
	DW	037H
	DW	037H
	DW	037H
	DW	037H
	DW	037H
	DW	037H
	DW	037H
	DW	037H
	DW	037H
	DW	037H
	DW	037H
	DW	037H
	DW	037H
	DW	037H
	DW	037H
	DW	037H
	DW	037H
	DW	037H
	DW	037H
	DW	00H
	DW	00H
	DW	00H
	DW	019H
	DW	019H
	DW	019H
	DW	012H
	DW	037H
	DW	037H
	DW	037H
	DW	037H
	DW	037H
	DW	037H
	DW	037H
	DW	037H
	DW	037H
	DW	037H
	DW	037H
	DW	037H
	DW	037H
	DW	037H
	DW	037H
	DW	037H
	DW	037H
	DW	037H
	DW	037H
	DW	037H
	DW	037H
	DW	037H
	DW	037H
	DW	037H
	DW	037H
	DW	037H
	DW	037H
	DW	037H
	DW	037H
	DW	037H
	DW	037H
	DW	037H
	DW	037H
	DW	037H
	DW	037H
	DW	037H
	DW	037H
	DW	037H
	DW	037H
	DW	037H
	DW	037H
	DW	037H
	DW	037H
	DW	037H
	DW	037H
	DW	037H
	DW	037H
	DW	019H
	DW	012H
	DW	012H
	DW	019H
	DW	019H
	DW	019H
	DW	019H
	DW	012H
	DW	012H
	DW	019H
	DW	012H
	DW	012H
	DW	012H
	DW	012H
	DW	05H
	DW	05H
	DW	05H
	DW	05H
	DW	05H
	DW	05H
	DW	05H
	DW	05H
	DW	05H
	DW	05H
	DW	05H
	DW	05H
	DW	05H
	DW	00H
	DW	060H
	DW	07H
	DW	08H
	DW	09H
	DW	0aH
	DW	0bH
	DW	0cH
	DW	0dH
	DW	0eH
	DW	0fH
	DW	010H
	DW	00H
	DW	00H
	DW	00H
	DW	00H
	DW	05H
	DW	05H
	DW	00H
	DW	00H
	DW	00H
	DW	00H
	DW	00H
	DW	00H
	DW	00H
	DW	00H
	DW	00H
	DW	00H
	DW	00H
	DW	00H
	DW	00H
	DW	00H
	DW	00H
	DW	00H
	DW	00H
	DW	00H
	DW	00H
	DW	00H
	DW	00H
	DW	00H
	DW	00H
	DW	00H
	DW	00H
	DW	00H
	DW	00H
	DW	00H
	DW	00H
	DW	00H
	DW	00H
	DW	00H
	DW	037H
	DW	037H
	DW	037H
	DW	037H
	DW	037H
	DW	037H
	DW	037H
	DW	037H
	DW	037H
	DW	037H
	DW	037H
	DW	037H
	DW	037H
	DW	037H
	DW	037H
	DW	037H
	DW	037H
	DW	037H
	DW	037H
	DW	037H
	DW	037H
	DW	037H
	DW	037H
	DW	037H
	DW	037H
	DW	037H
	DW	037H
	DW	037H
	DW	037H
	DW	037H
	DW	037H
	DW	037H
	DW	037H
	DW	037H
	DW	037H
	DW	037H
	DW	037H
	DW	037H
	DW	037H
	DW	037H
	DW	037H
	DW	019H
	DW	019H
	DW	019H
	DW	019H
	DW	019H
	DW	019H
	DW	012H
	DW	012H
	DW	019H
	DW	019H
	DW	012H
	DW	012H
	DW	019H
	DW	019H
	DW	00H
	DW	00H
	DW	00H
	DW	00H
	DW	00H
	DW	00H
	DW	00H
	DW	00H
	DW	00H
	DW	037H
	DW	037H
	DW	037H
	DW	019H
	DW	037H
	DW	037H
	DW	037H
	DW	037H
	DW	037H
	DW	037H
	DW	037H
	DW	037H
	DW	019H
	DW	012H
	DW	00H
	DW	00H
	DW	07H
	DW	08H
	DW	09H
	DW	0aH
	DW	0bH
	DW	0cH
	DW	0dH
	DW	0eH
	DW	0fH
	DW	010H
	DW	00H
	DW	00H
	DW	05H
	DW	05H
	DW	05H
	DW	05H
	DW	037H
	DW	037H
	DW	037H
	DW	037H
	DW	037H
	DW	037H
	DW	037H
	DW	037H
	DW	037H
	DW	037H
	DW	037H
	DW	037H
	DW	037H
	DW	037H
	DW	037H
	DW	037H
	DW	060H
	DW	037H
	DW	037H
	DW	037H
	DW	037H
	DW	037H
	DW	037H
	DW	05H
	DW	05H
	DW	05H
	DW	037H
	DW	012H
	DW	00H
	DW	00H
	DW	00H
	DW	00H
	DW	037H
	DW	037H
	DW	037H
	DW	037H
	DW	037H
	DW	037H
	DW	037H
	DW	037H
	DW	037H
	DW	037H
	DW	037H
	DW	037H
	DW	037H
	DW	037H
	DW	037H
	DW	037H
	DW	037H
	DW	037H
	DW	037H
	DW	037H
	DW	037H
	DW	037H
	DW	037H
	DW	037H
	DW	037H
	DW	037H
	DW	037H
	DW	037H
	DW	037H
	DW	037H
	DW	037H
	DW	037H
	DW	037H
	DW	037H
	DW	037H
	DW	037H
	DW	037H
	DW	037H
	DW	037H
	DW	037H
	DW	037H
	DW	037H
	DW	037H
	DW	037H
	DW	037H
	DW	037H
	DW	037H
	DW	037H
	DW	019H
	DW	037H
	DW	019H
	DW	019H
	DW	019H
	DW	037H
	DW	037H
	DW	019H
	DW	019H
	DW	037H
	DW	037H
	DW	037H
	DW	037H
	DW	037H
	DW	019H
	DW	019H
	DW	037H
	DW	019H
	DW	037H
	DW	00H
	DW	00H
	DW	00H
	DW	00H
	DW	00H
	DW	00H
	DW	00H
	DW	00H
	DW	00H
	DW	00H
	DW	00H
	DW	00H
	DW	00H
	DW	00H
	DW	00H
	DW	00H
	DW	00H
	DW	00H
	DW	00H
	DW	00H
	DW	00H
	DW	00H
	DW	00H
	DW	00H
	DW	037H
	DW	037H
	DW	060H
	DW	05H
	DW	05H
	DW	037H
	DW	037H
	DW	037H
	DW	037H
	DW	037H
	DW	037H
	DW	037H
	DW	037H
	DW	037H
	DW	037H
	DW	037H
	DW	012H
	DW	019H
	DW	019H
	DW	012H
	DW	012H
	DW	05H
	DW	05H
	DW	037H
	DW	060H
	DW	060H
	DW	012H
	DW	019H
	DW	00H
	DW	00H
	DW	00H
	DW	00H
	DW	00H
	DW	00H
	DW	00H
	DW	00H
	DW	00H
	DW	00H
	DW	037H
	DW	037H
	DW	037H
	DW	037H
	DW	037H
	DW	037H
	DW	00H
	DW	00H
	DW	037H
	DW	037H
	DW	037H
	DW	037H
	DW	037H
	DW	037H
	DW	00H
	DW	00H
	DW	037H
	DW	037H
	DW	037H
	DW	037H
	DW	037H
	DW	037H
	DW	00H
	DW	00H
	DW	00H
	DW	00H
	DW	00H
	DW	00H
	DW	00H
	DW	00H
	DW	00H
	DW	037H
	DW	037H
	DW	037H
	DW	037H
	DW	037H
	DW	037H
	DW	037H
	DW	00H
	DW	037H
	DW	037H
	DW	037H
	DW	037H
	DW	037H
	DW	037H
	DW	037H
	DW	00H
	DW	00H
	DW	00H
	DW	00H
	DW	00H
	DW	00H
	DW	00H
	DW	00H
	DW	00H
	DW	00H
	DW	00H
	DW	00H
	DW	00H
	DW	00H
	DW	00H
	DW	00H
	DW	00H
	DW	00H
	DW	00H
	DW	00H
	DW	00H
	DW	00H
	DW	00H
	DW	00H
	DW	00H
	DW	00H
	DW	00H
	DW	00H
	DW	00H
	DW	00H
	DW	00H
	DW	00H
	DW	00H
	DW	00H
	DW	00H
	DW	00H
	DW	00H
	DW	00H
	DW	00H
	DW	00H
	DW	00H
	DW	00H
	DW	00H
	DW	00H
	DW	00H
	DW	00H
	DW	00H
	DW	00H
	DW	00H
	DW	00H
	DW	00H
	DW	00H
	DW	00H
	DW	00H
	DW	00H
	DW	00H
	DW	00H
	DW	00H
	DW	00H
	DW	00H
	DW	00H
	DW	00H
	DW	00H
	DW	00H
	DW	00H
	DW	00H
	DW	00H
	DW	00H
	DW	00H
	DW	00H
	DW	00H
	DW	00H
	DW	00H
	DW	00H
	DW	00H
	DW	00H
	DW	00H
	DW	00H
	DW	00H
	DW	00H
	DW	00H
	DW	00H
	DW	00H
	DW	00H
	DW	00H
	DW	00H
	DW	00H
	DW	00H
	DW	00H
	DW	00H
	DW	00H
	DW	00H
	DW	00H
	DW	00H
	DW	00H
	DW	00H
	DW	00H
	DW	00H
	DW	00H
	DW	00H
	DW	00H
	DW	00H
	DW	00H
	DW	00H
	DW	00H
	DW	00H
	DW	00H
	DW	00H
	DW	00H
	DW	00H
	DW	00H
	DW	00H
	DW	00H
	DW	00H
	DW	00H
	DW	00H
	DW	00H
	DW	00H
	DW	00H
	DW	00H
	DW	00H
	DW	00H
	DW	00H
	DW	00H
	DW	00H
	DW	00H
	DW	00H
	DW	00H
	DW	00H
	DW	00H
	DW	00H
	DW	00H
	DW	00H
	DW	00H
	DW	00H
	DW	00H
	DW	00H
	DW	00H
	DW	00H
	DW	00H
	DW	00H
	DW	00H
	DW	00H
	DW	00H
	DW	00H
	DW	037H
	DW	037H
	DW	037H
	DW	037H
	DW	037H
	DW	037H
	DW	037H
	DW	037H
	DW	037H
	DW	037H
	DW	037H
	DW	037H
	DW	037H
	DW	037H
	DW	037H
	DW	037H
	DW	037H
	DW	037H
	DW	037H
	DW	037H
	DW	037H
	DW	037H
	DW	037H
	DW	037H
	DW	037H
	DW	037H
	DW	037H
	DW	037H
	DW	037H
	DW	037H
	DW	037H
	DW	037H
	DW	037H
	DW	037H
	DW	037H
	DW	012H
	DW	012H
	DW	019H
	DW	012H
	DW	012H
	DW	019H
	DW	012H
	DW	012H
	DW	05H
	DW	012H
	DW	019H
	DW	00H
	DW	00H
	DW	07H
	DW	08H
	DW	09H
	DW	0aH
	DW	0bH
	DW	0cH
	DW	0dH
	DW	0eH
	DW	0fH
	DW	010H
	DW	00H
	DW	00H
	DW	00H
	DW	00H
	DW	00H
	DW	00H
	DW	037H
	DW	037H
	DW	037H
	DW	037H
	DW	037H
	DW	037H
	DW	037H
	DW	037H
	DW	037H
	DW	037H
	DW	037H
	DW	037H
	DW	037H
	DW	037H
	DW	037H
	DW	037H
	DW	037H
	DW	037H
	DW	037H
	DW	037H
	DW	037H
	DW	037H
	DW	037H
	DW	037H
	DW	037H
	DW	037H
	DW	037H
	DW	037H
	DW	037H
	DW	037H
	DW	037H
	DW	037H
	DW	037H
	DW	037H
	DW	037H
	DW	037H
	DW	00H
	DW	00H
	DW	00H
	DW	00H
	DW	00H
	DW	00H
	DW	00H
	DW	00H
	DW	00H
	DW	00H
	DW	00H
	DW	00H
	DW	037H
	DW	037H
	DW	037H
	DW	037H
	DW	037H
	DW	037H
	DW	037H
	DW	037H
	DW	037H
	DW	037H
	DW	037H
	DW	037H
	DW	037H
	DW	037H
	DW	037H
	DW	037H
	DW	037H
	DW	037H
	DW	037H
	DW	037H
	DW	037H
	DW	037H
	DW	037H
	DW	00H
	DW	00H
	DW	00H
	DW	00H
	DW	037H
	DW	037H
	DW	037H
	DW	037H
	DW	037H
	DW	037H
	DW	037H
	DW	037H
	DW	037H
	DW	037H
	DW	037H
	DW	037H
	DW	037H
	DW	037H
	DW	037H
	DW	037H
	DW	037H
	DW	037H
	DW	037H
	DW	037H
	DW	037H
	DW	037H
	DW	037H
	DW	037H
	DW	037H
	DW	037H
	DW	037H
	DW	037H
	DW	037H
	DW	037H
	DW	037H
	DW	037H
	DW	037H
	DW	037H
	DW	037H
	DW	037H
	DW	037H
	DW	037H
	DW	037H
	DW	037H
	DW	037H
	DW	037H
	DW	037H
	DW	037H
	DW	037H
	DW	037H
	DW	037H
	DW	037H
	DW	037H
	DW	00H
	DW	00H
	DW	00H
	DW	00H
	DW	01H
	DW	01H
	DW	01H
	DW	01H
	DW	01H
	DW	01H
	DW	01H
	DW	01H
	DW	01H
	DW	01H
	DW	01H
	DW	01H
	DW	01H
	DW	01H
	DW	01H
	DW	01H
	DW	01H
	DW	01H
	DW	01H
	DW	01H
	DW	01H
	DW	01H
	DW	01H
	DW	01H
	DW	01H
	DW	01H
	DW	01H
	DW	01H
	DW	01H
	DW	01H
	DW	01H
	DW	01H
	DW	01H
	DW	01H
	DW	01H
	DW	01H
	DW	01H
	DW	01H
	DW	01H
	DW	01H
	DW	01H
	DW	01H
	DW	01H
	DW	01H
	DW	01H
	DW	01H
	DW	01H
	DW	01H
	DW	01H
	DW	01H
	DW	01H
	DW	01H
	DW	01H
	DW	01H
	DW	01H
	DW	01H
	DW	01H
	DW	01H
	DW	01H
	DW	01H
	DW	01H
	DW	01H
	DW	01H
	DW	01H
	DW	01H
	DW	01H
	DW	01H
	DW	01H
	DW	01H
	DW	01H
	DW	01H
	DW	01H
	DW	01H
	DW	01H
	DW	01H
	DW	01H
	DW	01H
	DW	01H
	DW	01H
	DW	01H
	DW	01H
	DW	01H
	DW	01H
	DW	01H
	DW	01H
	DW	01H
	DW	01H
	DW	01H
	DW	01H
	DW	01H
	DW	01H
	DW	01H
	DW	01H
	DW	01H
	DW	01H
	DW	01H
	DW	01H
	DW	01H
	DW	01H
	DW	01H
	DW	01H
	DW	01H
	DW	01H
	DW	01H
	DW	01H
	DW	01H
	DW	01H
	DW	01H
	DW	01H
	DW	01H
	DW	01H
	DW	01H
	DW	01H
	DW	01H
	DW	01H
	DW	01H
	DW	01H
	DW	01H
	DW	01H
	DW	01H
	DW	01H
	DW	01H
	DW	01H
	DW	01H
	DW	01H
	DW	01H
	DW	01H
	DW	01H
	DW	037H
	DW	037H
	DW	037H
	DW	037H
	DW	037H
	DW	037H
	DW	037H
	DW	037H
	DW	037H
	DW	037H
	DW	037H
	DW	037H
	DW	037H
	DW	037H
	DW	037H
	DW	037H
	DW	037H
	DW	037H
	DW	037H
	DW	037H
	DW	037H
	DW	037H
	DW	037H
	DW	037H
	DW	037H
	DW	037H
	DW	037H
	DW	037H
	DW	037H
	DW	037H
	DW	037H
	DW	037H
	DW	037H
	DW	037H
	DW	037H
	DW	037H
	DW	037H
	DW	037H
	DW	037H
	DW	037H
	DW	037H
	DW	037H
	DW	037H
	DW	037H
	DW	037H
	DW	037H
	DW	037H
	DW	037H
	DW	037H
	DW	037H
	DW	037H
	DW	037H
	DW	037H
	DW	037H
	DW	037H
	DW	037H
	DW	037H
	DW	037H
	DW	037H
	DW	037H
	DW	037H
	DW	037H
	DW	037H
	DW	037H
	DW	037H
	DW	037H
	DW	037H
	DW	037H
	DW	037H
	DW	037H
	DW	037H
	DW	037H
	DW	037H
	DW	037H
	DW	037H
	DW	037H
	DW	037H
	DW	037H
	DW	037H
	DW	037H
	DW	037H
	DW	037H
	DW	037H
	DW	037H
	DW	037H
	DW	037H
	DW	037H
	DW	037H
	DW	037H
	DW	037H
	DW	037H
	DW	037H
	DW	037H
	DW	037H
	DW	037H
	DW	037H
	DW	037H
	DW	037H
	DW	037H
	DW	037H
	DW	037H
	DW	037H
	DW	037H
	DW	037H
	DW	037H
	DW	037H
	DW	037H
	DW	0112H
	DW	037H
	DW	037H
	DW	037H
	DW	037H
	DW	037H
	DW	037H
	DW	037H
	DW	0112H
	DW	037H
	DW	037H
	DW	037H
	DW	037H
	DW	0112H
	DW	037H
	DW	037H
	DW	037H
	DW	037H
	DW	037H
	DW	037H
	DW	037H
	DW	037H
	DW	037H
	DW	037H
	DW	037H
	DW	037H
	DW	037H
	DW	037H
	DW	037H
	DW	037H
	DW	037H
	DW	037H
	DW	037H
	DW	037H
	DW	037H
	DW	037H
	DW	037H
	DW	037H
	DW	037H
	DW	037H
	DW	037H
	DW	037H
	DW	037H
	DW	037H
	DW	037H
	DW	037H
	DW	037H
	DW	037H
	DW	037H
	DW	037H
	DW	037H
	DW	037H
	DW	037H
	DW	037H
	DW	037H
	DW	037H
	DW	037H
	DW	037H
	DW	037H
	DW	037H
	DW	037H
	DW	037H
	DW	037H
	DW	037H
	DW	037H
	DW	037H
	DW	037H
	DW	037H
	DW	037H
	DW	037H
	DW	037H
	DW	0112H
	DW	037H
	DW	037H
	DW	037H
	DW	037H
	DW	037H
	DW	037H
	DW	037H
	DW	037H
	DW	037H
	DW	037H
	DW	037H
	DW	037H
	DW	037H
	DW	037H
	DW	037H
	DW	037H
	DW	037H
	DW	037H
	DW	037H
	DW	037H
	DW	037H
	DW	037H
	DW	037H
	DW	037H
	DW	037H
	DW	037H
	DW	037H
	DW	037H
	DW	037H
	DW	037H
	DW	0112H
	DW	037H
	DW	0112H
	DW	037H
	DW	037H
	DW	037H
	DW	037H
	DW	037H
	DW	037H
	DW	037H
	DW	037H
	DW	037H
	DW	037H
	DW	037H
	DW	037H
	DW	037H
	DW	037H
	DW	037H
	DW	037H
	DW	037H
	DW	037H
	DW	037H
	DW	037H
	DW	037H
	DW	037H
	DW	037H
	DW	037H
	DW	037H
	DW	037H
	DW	037H
	DW	037H
	DW	037H
	DW	037H
	DW	037H
	DW	037H
	DW	037H
	DW	037H
	DW	037H
	DW	037H
	DW	037H
	DW	037H
	DW	037H
	DW	037H
	DW	037H
	DW	0112H
	DW	037H
	DW	037H
	DW	037H
	DW	037H
	DW	037H
	DW	037H
	DW	037H
	DW	037H
	DW	037H
	DW	037H
	DW	037H
	DW	037H
	DW	037H
	DW	037H
	DW	037H
	DW	037H
	DW	037H
	DW	037H
	DW	037H
	DW	037H
	DW	037H
	DW	037H
	DW	037H
	DW	037H
	DW	037H
	DW	037H
	DW	037H
	DW	037H
	DW	037H
	DW	037H
	DW	037H
	DW	037H
	DW	037H
	DW	037H
	DW	037H
	DW	037H
	DW	037H
	DW	037H
	DW	037H
	DW	037H
	DW	037H
	DW	037H
	DW	037H
	DW	037H
	DW	037H
	DW	037H
	DW	037H
	DW	037H
	DW	037H
	DW	037H
	DW	037H
	DW	037H
	DW	037H
	DW	037H
	DW	037H
	DW	037H
	DW	037H
	DW	037H
	DW	037H
	DW	037H
	DW	037H
	DW	037H
	DW	037H
	DW	037H
	DW	037H
	DW	037H
	DW	037H
	DW	037H
	DW	037H
	DW	037H
	DW	037H
	DW	037H
	DW	037H
	DW	037H
	DW	037H
	DW	037H
	DW	037H
	DW	037H
	DW	037H
	DW	037H
	DW	037H
	DW	037H
	DW	037H
	DW	037H
	DW	037H
	DW	037H
	DW	037H
	DW	037H
	DW	037H
	DW	037H
	DW	037H
	DW	037H
	DW	037H
	DW	037H
